(ibclass
BFunc
p0
(dp1
S'hash'
p2
NsS'name'
p3
S'png_set_tIME'
p4
sS'start_address'
p5
L26977L
sS'flag'
p6
NsS'program'
p7
NsS'bbs'
p8
(lp9
(ibclass
BBasicBlock
p10
(dp11
S'function'
p12
NsS'binstrs'
p13
(lp14
(ibclass
BInstr
p15
(dp16
g2
NsS'disasm'
p17
S'push    rbp'
p18
sS'bytes'
p19
S'55'
p20
sS'disasm_striped'
p21
Vpush rbp
p22
sg5
L26977L
sg6
NsS'mnem'
p23
S'push'
p24
sS'address'
p25
S'0x6961L'
p26
sS'basicblock'
p27
Nsba(ibclass
BInstr
p28
(dp29
g2
Nsg17
S'mov     rbp, rsp'
p30
sg19
S'4889e5'
p31
sg21
Vmov rbp, rsp
p32
sg5
L26978L
sg6
Nsg23
S'mov'
p33
sg25
S'0x6962L'
p34
sg27
Nsba(ibclass
BInstr
p35
(dp36
g2
Nsg17
S'sub     rsp, 20h'
p37
sg19
S'4883ec20'
p38
sg21
Vsub rsp, 0x20
p39
sg5
L26981L
sg6
Nsg23
S'sub'
p40
sg25
S'0x6965L'
p41
sg27
Nsba(ibclass
BInstr
p42
(dp43
g2
Nsg17
S'mov     [rbp+png_ptr], rdi'
p44
sg19
S'48897df8'
p45
sg21
Vmov qword ptr [rbp - 8], rdi
p46
sg5
L26985L
sg6
Nsg23
S'mov'
p47
sg25
S'0x6969L'
p48
sg27
Nsba(ibclass
BInstr
p49
(dp50
g2
Nsg17
S'mov     [rbp+info_ptr], rsi'
p51
sg19
S'488975f0'
p52
sg21
Vmov qword ptr [rbp - 0x10], rsi
p53
sg5
L26989L
sg6
Nsg23
S'mov'
p54
sg25
S'0x696dL'
p55
sg27
Nsba(ibclass
BInstr
p56
(dp57
g2
Nsg17
S'mov     [rbp+mod_time], rdx'
p58
sg19
S'488955e8'
p59
sg21
Vmov qword ptr [rbp - 0x18], rdx
p60
sg5
L26993L
sg6
Nsg23
S'mov'
p61
sg25
S'0x6971L'
p62
sg27
Nsba(ibclass
BInstr
p63
(dp64
g2
Nsg17
S'cmp     [rbp+png_ptr], 0'
p65
sg19
S'48837df800'
p66
sg21
Vcmp qword ptr [rbp - 8], 0
p67
sg5
L26997L
sg6
Nsg23
S'cmp'
p68
sg25
S'0x6975L'
p69
sg27
Nsba(ibclass
BInstr
p70
(dp71
g2
Nsg17
S'jz      loc_6A37'
p72
sg19
S'0f84b7000000'
p73
sg21
Vje 0xbd
p74
sg5
L27002L
sg6
Nsg23
S'jz'
p75
sg25
S'0x697aL'
p76
sg27
NsbasS'disasm_list'
p77
(lp78
S'push reg'
p79
aS'mov reg, reg'
p80
aS'sub reg, 20h'
p81
aS'mov mem, reg'
p82
aS'mov mem, reg'
p83
aS'mov mem, reg'
p84
aS'cmp mem, 0'
p85
aS'jz func'
p86
asS'end_address'
p87
Nsg5
S'0x6961L'
p88
sS'preds'
p89
(lp90
sg6
NsS'succs'
p91
(lp92
S'0x6980L'
p93
aS'0x6a37L'
p94
asS'hash_v3'
p95
NsS'flag_v2'
p96
NsS'hash_v1'
p97
S'5e0d9e04d51d2bbf795aef1bb6a73128'
p98
sS'hash_v2'
p99
S'242a2cb23feaa9e5ff7ffeecafbc9546'
p100
sS'mnen_list'
p101
(lp102
g24
ag33
ag40
ag47
ag54
ag61
ag68
ag75
asS'neighbour_disasm_list'
p103
Nsba(ibclass
BBasicBlock
p104
(dp105
g12
Nsg13
(lp106
(ibclass
BInstr
p107
(dp108
g2
Nsg17
S'cmp     [rbp+info_ptr], 0'
p109
sg19
S'48837df000'
p110
sg21
Vcmp qword ptr [rbp - 0x10], 0
p111
sg5
L27008L
sg6
Nsg23
S'cmp'
p112
sg25
S'0x6980L'
p113
sg27
Nsba(ibclass
BInstr
p114
(dp115
g2
Nsg17
S'jz      loc_6A37'
p116
sg19
S'0f84ac000000'
p117
sg21
Vje 0xb2
p118
sg5
L27013L
sg6
Nsg23
S'jz'
p119
sg25
S'0x6985L'
p120
sg27
Nsbasg77
(lp121
S'cmp mem, 0'
p122
aS'jz func'
p123
asg87
Nsg5
S'0x6980L'
p124
sg89
(lp125
S'0x6961L'
p126
asg6
Nsg91
(lp127
S'0x698bL'
p128
aS'0x6a37L'
p129
asg95
Nsg96
Nsg97
S'613dbc2b0cb9d6264d802b24d709daea'
p130
sg99
S'7f4ecf78254be39f53e7a11cedd080e9'
p131
sg101
(lp132
g112
ag119
asg103
Nsba(ibclass
BBasicBlock
p133
(dp134
g12
Nsg13
(lp135
(ibclass
BInstr
p136
(dp137
g2
Nsg17
S'mov     rax, [rbp+png_ptr]'
p138
sg19
S'488b45f8'
p139
sg21
Vmov rax, qword ptr [rbp - 8]
p140
sg5
L27019L
sg6
Nsg23
S'mov'
p141
sg25
S'0x698bL'
p142
sg27
Nsba(ibclass
BInstr
p143
(dp144
g2
Nsg17
S'mov     rax, [rax+118h]'
p145
sg19
S'488b8018010000'
p146
sg21
Vmov rax, qword ptr [rax + 0x118]
p147
sg5
L27023L
sg6
Nsg23
S'mov'
p148
sg25
S'0x698fL'
p149
sg27
Nsba(ibclass
BInstr
p150
(dp151
g2
Nsg17
S'and     eax, 200h'
p152
sg19
S'2500020000'
p153
sg21
Vand eax, 0x200
p154
sg5
L27030L
sg6
Nsg23
S'and'
p155
sg25
S'0x6996L'
p156
sg27
Nsba(ibclass
BInstr
p157
(dp158
g2
Nsg17
S'test    rax, rax'
p159
sg19
S'4885c0'
p160
sg21
Vtest rax, rax
p161
sg5
L27035L
sg6
Nsg23
S'test'
p162
sg25
S'0x699bL'
p163
sg27
Nsba(ibclass
BInstr
p164
(dp165
g2
Nsg17
S'jnz     loc_6A37'
p166
sg19
S'0f8593000000'
p167
sg21
Vjne 0x99
p168
sg5
L27038L
sg6
Nsg23
S'jnz'
p169
sg25
S'0x699eL'
p170
sg27
Nsbasg77
(lp171
S'mov reg, mem'
p172
aS'mov reg, mem'
p173
aS'and reg, 200h'
p174
aS'test reg, reg'
p175
aS'jnz func'
p176
asg87
Nsg5
S'0x698bL'
p177
sg89
(lp178
S'0x6980L'
p179
asg6
Nsg91
(lp180
S'0x69a4L'
p181
aS'0x6a37L'
p182
asg95
Nsg96
Nsg97
S'fe77119e0ecc4ec4d34e9ca05ee3b9d9'
p183
sg99
S'd5dddaf0bb14693e1c36f0d78c240c12'
p184
sg101
(lp185
g141
ag148
ag155
ag162
ag169
asg103
Nsba(ibclass
BBasicBlock
p186
(dp187
g12
Nsg13
(lp188
(ibclass
BInstr
p189
(dp190
g2
Nsg17
S'mov     rax, [rbp+mod_time]'
p191
sg19
S'488b45e8'
p192
sg21
Vmov rax, qword ptr [rbp - 0x18]
p193
sg5
L27044L
sg6
Nsg23
S'mov'
p194
sg25
S'0x69a4L'
p195
sg27
Nsba(ibclass
BInstr
p196
(dp197
g2
Nsg17
S'movzx   eax, byte ptr [rax+2]'
p198
sg19
S'0fb64002'
p199
sg21
Vmovzx eax, byte ptr [rax + 2]
p200
sg5
L27048L
sg6
Nsg23
S'movzx'
p201
sg25
S'0x69a8L'
p202
sg27
Nsba(ibclass
BInstr
p203
(dp204
g2
Nsg17
S'test    al, al'
p205
sg19
S'84c0'
p206
sg21
Vtest al, al
p207
sg5
L27052L
sg6
Nsg23
S'test'
p208
sg25
S'0x69acL'
p209
sg27
Nsba(ibclass
BInstr
p210
(dp211
g2
Nsg17
S'jz      short loc_69F8'
p212
sg19
S'7448'
p213
sg21
Vje 0x4a
p214
sg5
L27054L
sg6
Nsg23
S'jz'
p215
sg25
S'0x69aeL'
p216
sg27
Nsbasg77
(lp217
S'mov reg, mem'
p218
aS'movzx reg, mem'
p219
aS'test reg, reg'
p220
aS'jz func'
p221
asg87
Nsg5
S'0x69a4L'
p222
sg89
(lp223
S'0x698bL'
p224
asg6
Nsg91
(lp225
S'0x69b0L'
p226
aS'0x69f8L'
p227
asg95
Nsg96
Nsg97
S'ec43f0343cd5960045e8a564ee31e56d'
p228
sg99
S'09090b825f5a034c95c396a2e8ee47ee'
p229
sg101
(lp230
g194
ag201
ag208
ag215
asg103
Nsba(ibclass
BBasicBlock
p231
(dp232
g12
Nsg13
(lp233
(ibclass
BInstr
p234
(dp235
g2
Nsg17
S'mov     rax, [rbp+mod_time]'
p236
sg19
S'488b45e8'
p237
sg21
Vmov rax, qword ptr [rbp - 0x18]
p238
sg5
L27056L
sg6
Nsg23
S'mov'
p239
sg25
S'0x69b0L'
p240
sg27
Nsba(ibclass
BInstr
p241
(dp242
g2
Nsg17
S'movzx   eax, byte ptr [rax+2]'
p243
sg19
S'0fb64002'
p244
sg21
Vmovzx eax, byte ptr [rax + 2]
p245
sg5
L27060L
sg6
Nsg23
S'movzx'
p246
sg25
S'0x69b4L'
p247
sg27
Nsba(ibclass
BInstr
p248
(dp249
g2
Nsg17
S'cmp     al, 0Ch'
p250
sg19
S'3c0c'
p251
sg21
Vcmp al, 0xc
p252
sg5
L27064L
sg6
Nsg23
S'cmp'
p253
sg25
S'0x69b8L'
p254
sg27
Nsba(ibclass
BInstr
p255
(dp256
g2
Nsg17
S'ja      short loc_69F8'
p257
sg19
S'773c'
p258
sg21
Vja 0x3e
p259
sg5
L27066L
sg6
Nsg23
S'ja'
p260
sg25
S'0x69baL'
p261
sg27
Nsbasg77
(lp262
S'mov reg, mem'
p263
aS'movzx reg, mem'
p264
aS'cmp reg, 0Ch'
p265
aS'ja func'
p266
asg87
Nsg5
S'0x69b0L'
p267
sg89
(lp268
S'0x69a4L'
p269
asg6
Nsg91
(lp270
S'0x69bcL'
p271
aS'0x69f8L'
p272
asg95
Nsg96
Nsg97
S'8375f2f75c7624a0cacb0eee8ecfb70d'
p273
sg99
S'417d21bec5b19518e4c78ae3d2b20cbd'
p274
sg101
(lp275
g239
ag246
ag253
ag260
asg103
Nsba(ibclass
BBasicBlock
p276
(dp277
g12
Nsg13
(lp278
(ibclass
BInstr
p279
(dp280
g2
Nsg17
S'mov     rax, [rbp+mod_time]'
p281
sg19
S'488b45e8'
p282
sg21
Vmov rax, qword ptr [rbp - 0x18]
p283
sg5
L27068L
sg6
Nsg23
S'mov'
p284
sg25
S'0x69bcL'
p285
sg27
Nsba(ibclass
BInstr
p286
(dp287
g2
Nsg17
S'movzx   eax, byte ptr [rax+3]'
p288
sg19
S'0fb64003'
p289
sg21
Vmovzx eax, byte ptr [rax + 3]
p290
sg5
L27072L
sg6
Nsg23
S'movzx'
p291
sg25
S'0x69c0L'
p292
sg27
Nsba(ibclass
BInstr
p293
(dp294
g2
Nsg17
S'test    al, al'
p295
sg19
S'84c0'
p296
sg21
Vtest al, al
p297
sg5
L27076L
sg6
Nsg23
S'test'
p298
sg25
S'0x69c4L'
p299
sg27
Nsba(ibclass
BInstr
p300
(dp301
g2
Nsg17
S'jz      short loc_69F8'
p302
sg19
S'7430'
p303
sg21
Vje 0x32
p304
sg5
L27078L
sg6
Nsg23
S'jz'
p305
sg25
S'0x69c6L'
p306
sg27
Nsbasg77
(lp307
S'mov reg, mem'
p308
aS'movzx reg, mem'
p309
aS'test reg, reg'
p310
aS'jz func'
p311
asg87
Nsg5
S'0x69bcL'
p312
sg89
(lp313
S'0x69b0L'
p314
asg6
Nsg91
(lp315
S'0x69c8L'
p316
aS'0x69f8L'
p317
asg95
Nsg96
Nsg97
S'ec43f0343cd5960045e8a564ee31e56d'
p318
sg99
S'09090b825f5a034c95c396a2e8ee47ee'
p319
sg101
(lp320
g284
ag291
ag298
ag305
asg103
Nsba(ibclass
BBasicBlock
p321
(dp322
g12
Nsg13
(lp323
(ibclass
BInstr
p324
(dp325
g2
Nsg17
S'mov     rax, [rbp+mod_time]'
p326
sg19
S'488b45e8'
p327
sg21
Vmov rax, qword ptr [rbp - 0x18]
p328
sg5
L27080L
sg6
Nsg23
S'mov'
p329
sg25
S'0x69c8L'
p330
sg27
Nsba(ibclass
BInstr
p331
(dp332
g2
Nsg17
S'movzx   eax, byte ptr [rax+3]'
p333
sg19
S'0fb64003'
p334
sg21
Vmovzx eax, byte ptr [rax + 3]
p335
sg5
L27084L
sg6
Nsg23
S'movzx'
p336
sg25
S'0x69ccL'
p337
sg27
Nsba(ibclass
BInstr
p338
(dp339
g2
Nsg17
S'cmp     al, 1Fh'
p340
sg19
S'3c1f'
p341
sg21
Vcmp al, 0x1f
p342
sg5
L27088L
sg6
Nsg23
S'cmp'
p343
sg25
S'0x69d0L'
p344
sg27
Nsba(ibclass
BInstr
p345
(dp346
g2
Nsg17
S'ja      short loc_69F8'
p347
sg19
S'7724'
p348
sg21
Vja 0x26
p349
sg5
L27090L
sg6
Nsg23
S'ja'
p350
sg25
S'0x69d2L'
p351
sg27
Nsbasg77
(lp352
S'mov reg, mem'
p353
aS'movzx reg, mem'
p354
aS'cmp reg, 1Fh'
p355
aS'ja func'
p356
asg87
Nsg5
S'0x69c8L'
p357
sg89
(lp358
S'0x69bcL'
p359
asg6
Nsg91
(lp360
S'0x69d4L'
p361
aS'0x69f8L'
p362
asg95
Nsg96
Nsg97
S'8375f2f75c7624a0cacb0eee8ecfb70d'
p363
sg99
S'f478ae88c13cb8dcd15688a6e281c45f'
p364
sg101
(lp365
g329
ag336
ag343
ag350
asg103
Nsba(ibclass
BBasicBlock
p366
(dp367
g12
Nsg13
(lp368
(ibclass
BInstr
p369
(dp370
g2
Nsg17
S'mov     rax, [rbp+mod_time]'
p371
sg19
S'488b45e8'
p372
sg21
Vmov rax, qword ptr [rbp - 0x18]
p373
sg5
L27092L
sg6
Nsg23
S'mov'
p374
sg25
S'0x69d4L'
p375
sg27
Nsba(ibclass
BInstr
p376
(dp377
g2
Nsg17
S'movzx   eax, byte ptr [rax+4]'
p378
sg19
S'0fb64004'
p379
sg21
Vmovzx eax, byte ptr [rax + 4]
p380
sg5
L27096L
sg6
Nsg23
S'movzx'
p381
sg25
S'0x69d8L'
p382
sg27
Nsba(ibclass
BInstr
p383
(dp384
g2
Nsg17
S'cmp     al, 17h'
p385
sg19
S'3c17'
p386
sg21
Vcmp al, 0x17
p387
sg5
L27100L
sg6
Nsg23
S'cmp'
p388
sg25
S'0x69dcL'
p389
sg27
Nsba(ibclass
BInstr
p390
(dp391
g2
Nsg17
S'ja      short loc_69F8'
p392
sg19
S'7718'
p393
sg21
Vja 0x1a
p394
sg5
L27102L
sg6
Nsg23
S'ja'
p395
sg25
S'0x69deL'
p396
sg27
Nsbasg77
(lp397
S'mov reg, mem'
p398
aS'movzx reg, mem'
p399
aS'cmp reg, 17h'
p400
aS'ja func'
p401
asg87
Nsg5
S'0x69d4L'
p402
sg89
(lp403
S'0x69c8L'
p404
asg6
Nsg91
(lp405
S'0x69e0L'
p406
aS'0x69f8L'
p407
asg95
Nsg96
Nsg97
S'8375f2f75c7624a0cacb0eee8ecfb70d'
p408
sg99
S'eb709b5b70b323d2a42db8095927eead'
p409
sg101
(lp410
g374
ag381
ag388
ag395
asg103
Nsba(ibclass
BBasicBlock
p411
(dp412
g12
Nsg13
(lp413
(ibclass
BInstr
p414
(dp415
g2
Nsg17
S'mov     rax, [rbp+mod_time]'
p416
sg19
S'488b45e8'
p417
sg21
Vmov rax, qword ptr [rbp - 0x18]
p418
sg5
L27104L
sg6
Nsg23
S'mov'
p419
sg25
S'0x69e0L'
p420
sg27
Nsba(ibclass
BInstr
p421
(dp422
g2
Nsg17
S'movzx   eax, byte ptr [rax+5]'
p423
sg19
S'0fb64005'
p424
sg21
Vmovzx eax, byte ptr [rax + 5]
p425
sg5
L27108L
sg6
Nsg23
S'movzx'
p426
sg25
S'0x69e4L'
p427
sg27
Nsba(ibclass
BInstr
p428
(dp429
g2
Nsg17
S'cmp     al, 3Bh'
p430
sg19
S'3c3b'
p431
sg21
Vcmp al, 0x3b
p432
sg5
L27112L
sg6
Nsg23
S'cmp'
p433
sg25
S'0x69e8L'
p434
sg27
Nsba(ibclass
BInstr
p435
(dp436
g2
Nsg17
S'ja      short loc_69F8'
p437
sg19
S'770c'
p438
sg21
Vja 0xe
p439
sg5
L27114L
sg6
Nsg23
S'ja'
p440
sg25
S'0x69eaL'
p441
sg27
Nsbasg77
(lp442
S'mov reg, mem'
p443
aS'movzx reg, mem'
p444
aS'cmp reg, 3Bh'
p445
aS'ja func'
p446
asg87
Nsg5
S'0x69e0L'
p447
sg89
(lp448
S'0x69d4L'
p449
asg6
Nsg91
(lp450
S'0x69ecL'
p451
aS'0x69f8L'
p452
asg95
Nsg96
Nsg97
S'8375f2f75c7624a0cacb0eee8ecfb70d'
p453
sg99
S'a16f7a86ecb07c9c8047ccbc5b8b3eb2'
p454
sg101
(lp455
g419
ag426
ag433
ag440
asg103
Nsba(ibclass
BBasicBlock
p456
(dp457
g12
Nsg13
(lp458
(ibclass
BInstr
p459
(dp460
g2
Nsg17
S'mov     rax, [rbp+mod_time]'
p461
sg19
S'488b45e8'
p462
sg21
Vmov rax, qword ptr [rbp - 0x18]
p463
sg5
L27116L
sg6
Nsg23
S'mov'
p464
sg25
S'0x69ecL'
p465
sg27
Nsba(ibclass
BInstr
p466
(dp467
g2
Nsg17
S'movzx   eax, byte ptr [rax+6]'
p468
sg19
S'0fb64006'
p469
sg21
Vmovzx eax, byte ptr [rax + 6]
p470
sg5
L27120L
sg6
Nsg23
S'movzx'
p471
sg25
S'0x69f0L'
p472
sg27
Nsba(ibclass
BInstr
p473
(dp474
g2
Nsg17
S'cmp     al, 3Ch'
p475
sg19
S'3c3c'
p476
sg21
Vcmp al, 0x3c
p477
sg5
L27124L
sg6
Nsg23
S'cmp'
p478
sg25
S'0x69f4L'
p479
sg27
Nsba(ibclass
BInstr
p480
(dp481
g2
Nsg17
S'jbe     short loc_6A0D'
p482
sg19
S'7615'
p483
sg21
Vjbe 0x17
p484
sg5
L27126L
sg6
Nsg23
S'jbe'
p485
sg25
S'0x69f6L'
p486
sg27
Nsbasg77
(lp487
S'mov reg, mem'
p488
aS'movzx reg, mem'
p489
aS'cmp reg, 3Ch'
p490
aS'jbe func'
p491
asg87
Nsg5
S'0x69ecL'
p492
sg89
(lp493
S'0x69e0L'
p494
asg6
Nsg91
(lp495
S'0x69f8L'
p496
aS'0x6a0dL'
p497
asg95
Nsg96
Nsg97
S'4de62a83677c688e77ddf94d788ea399'
p498
sg99
S'd98a68b271f9b25469aa99858870275b'
p499
sg101
(lp500
g464
ag471
ag478
ag485
asg103
Nsba(ibclass
BBasicBlock
p501
(dp502
g12
Nsg13
(lp503
(ibclass
BInstr
p504
(dp505
g2
Nsg17
S'mov     rax, [rbp+png_ptr]'
p506
sg19
S'488b45f8'
p507
sg21
Vmov rax, qword ptr [rbp - 8]
p508
sg5
L27128L
sg6
Nsg23
S'mov'
p509
sg25
S'0x69f8L'
p510
sg27
Nsba(ibclass
BInstr
p511
(dp512
g2
Nsg17
S'lea     rsi, aIgnoringInvali; "Ignoring invalid time value"'
p513
sg19
S'488d3511660200'
p514
sg21
Vlea rsi, [rip + 0x26611]
p515
sg5
L27132L
sg6
Nsg23
S'lea'
p516
sg25
S'0x69fcL'
p517
sg27
Nsba(ibclass
BInstr
p518
(dp519
g2
Nsg17
S'mov     rdi, rax        ; png_ptr'
p520
sg19
S'4889c7'
p521
sg21
Vmov rdi, rax
p522
sg5
L27139L
sg6
Nsg23
S'mov'
p523
sg25
S'0x6a03L'
p524
sg27
Nsba(ibclass
BInstr
p525
(dp526
g2
Nsg17
S'call    png_warning'
p527
sg19
S'e80e2d0200'
p528
sg21
Vcall 0x22d13
p529
sg5
L27142L
sg6
Nsg23
S'call'
p530
sg25
S'0x6a06L'
p531
sg27
Nsba(ibclass
BInstr
p532
(dp533
g2
Nsg17
S'jmp     short locret_6A38'
p534
sg19
S'eb2b'
p535
sg21
Vjmp 0x2d
p536
sg5
L27147L
sg6
Nsg23
S'jmp'
p537
sg25
S'0x6a0bL'
p538
sg27
Nsbasg77
(lp539
S'mov reg, mem'
p540
aS'lea reg, aIgnoringInvregi'
p541
aS'mov reg, reg'
p542
aS'cregl png_warning'
p543
aS'jmp short func'
p544
asg87
Nsg5
S'0x69f8L'
p545
sg89
(lp546
S'0x69a4L'
p547
aS'0x69b0L'
p548
aS'0x69bcL'
p549
aS'0x69c8L'
p550
aS'0x69d4L'
p551
aS'0x69e0L'
p552
aS'0x69ecL'
p553
asg6
Nsg91
(lp554
S'0x6a38L'
p555
asg95
Nsg96
Nsg97
S'b04933084fb11ccc44733413adcff717'
p556
sg99
S'34cc99acc643d41d0844c311837b4c7b'
p557
sg101
(lp558
g509
ag516
ag523
ag530
ag537
asg103
Nsba(ibclass
BBasicBlock
p559
(dp560
g12
Nsg13
(lp561
(ibclass
BInstr
p562
(dp563
g2
Nsg17
S'mov     rax, [rbp+info_ptr]'
p564
sg19
S'488b45f0'
p565
sg21
Vmov rax, qword ptr [rbp - 0x10]
p566
sg5
L27149L
sg6
Nsg23
S'mov'
p567
sg25
S'0x6a0dL'
p568
sg27
Nsba(ibclass
BInstr
p569
(dp570
g2
Nsg17
S'lea     rdx, [rax+58h]'
p571
sg19
S'488d5058'
p572
sg21
Vlea rdx, [rax + 0x58]
p573
sg5
L27153L
sg6
Nsg23
S'lea'
p574
sg25
S'0x6a11L'
p575
sg27
Nsba(ibclass
BInstr
p576
(dp577
g2
Nsg17
S'mov     rax, [rbp+mod_time]'
p578
sg19
S'488b45e8'
p579
sg21
Vmov rax, qword ptr [rbp - 0x18]
p580
sg5
L27157L
sg6
Nsg23
S'mov'
p581
sg25
S'0x6a15L'
p582
sg27
Nsba(ibclass
BInstr
p583
(dp584
g2
Nsg17
S'mov     rax, [rax]'
p585
sg19
S'488b00'
p586
sg21
Vmov rax, qword ptr [rax]
p587
sg5
L27161L
sg6
Nsg23
S'mov'
p588
sg25
S'0x6a19L'
p589
sg27
Nsba(ibclass
BInstr
p590
(dp591
g2
Nsg17
S'mov     [rdx], rax'
p592
sg19
S'488902'
p593
sg21
Vmov qword ptr [rdx], rax
p594
sg5
L27164L
sg6
Nsg23
S'mov'
p595
sg25
S'0x6a1cL'
p596
sg27
Nsba(ibclass
BInstr
p597
(dp598
g2
Nsg17
S'mov     rax, [rbp+info_ptr]'
p599
sg19
S'488b45f0'
p600
sg21
Vmov rax, qword ptr [rbp - 0x10]
p601
sg5
L27167L
sg6
Nsg23
S'mov'
p602
sg25
S'0x6a1fL'
p603
sg27
Nsba(ibclass
BInstr
p604
(dp605
g2
Nsg17
S'mov     rax, [rax+10h]'
p606
sg19
S'488b4010'
p607
sg21
Vmov rax, qword ptr [rax + 0x10]
p608
sg5
L27171L
sg6
Nsg23
S'mov'
p609
sg25
S'0x6a23L'
p610
sg27
Nsba(ibclass
BInstr
p611
(dp612
g2
Nsg17
S'or      ah, 2'
p613
sg19
S'80cc02'
p614
sg21
Vor ah, 2
p615
sg5
L27175L
sg6
Nsg23
S'or'
p616
sg25
S'0x6a27L'
p617
sg27
Nsba(ibclass
BInstr
p618
(dp619
g2
Nsg17
S'mov     rdx, rax'
p620
sg19
S'4889c2'
p621
sg21
Vmov rdx, rax
p622
sg5
L27178L
sg6
Nsg23
S'mov'
p623
sg25
S'0x6a2aL'
p624
sg27
Nsba(ibclass
BInstr
p625
(dp626
g2
Nsg17
S'mov     rax, [rbp+info_ptr]'
p627
sg19
S'488b45f0'
p628
sg21
Vmov rax, qword ptr [rbp - 0x10]
p629
sg5
L27181L
sg6
Nsg23
S'mov'
p630
sg25
S'0x6a2dL'
p631
sg27
Nsba(ibclass
BInstr
p632
(dp633
g2
Nsg17
S'mov     [rax+10h], rdx'
p634
sg19
S'48895010'
p635
sg21
Vmov qword ptr [rax + 0x10], rdx
p636
sg5
L27185L
sg6
Nsg23
S'mov'
p637
sg25
S'0x6a31L'
p638
sg27
Nsba(ibclass
BInstr
p639
(dp640
g2
Nsg17
S'jmp     short locret_6A38'
p641
sg19
S'eb01'
p642
sg21
Vjmp 3
p643
sg5
L27189L
sg6
Nsg23
S'jmp'
p644
sg25
S'0x6a35L'
p645
sg27
Nsbasg77
(lp646
S'mov reg, mem'
p647
aS'lea reg, mem'
p648
aS'mov reg, mem'
p649
aS'mov reg, mem'
p650
aS'mov mem, reg'
p651
aS'mov reg, mem'
p652
aS'mov reg, mem'
p653
aS'or ah, 2'
p654
aS'mov reg, reg'
p655
aS'mov reg, mem'
p656
aS'mov mem, reg'
p657
aS'jmp short func'
p658
asg87
Nsg5
S'0x6a0dL'
p659
sg89
(lp660
S'0x69ecL'
p661
asg6
Nsg91
(lp662
S'0x6a38L'
p663
asg95
Nsg96
Nsg97
S'fe5f742db5012ef93a848048d32242aa'
p664
sg99
S'1a56b84ea683f607b960b256dc2cd1c5'
p665
sg101
(lp666
g567
ag574
ag581
ag588
ag595
ag602
ag609
ag616
ag623
ag630
ag637
ag644
asg103
Nsba(ibclass
BBasicBlock
p667
(dp668
g12
Nsg13
(lp669
(ibclass
BInstr
p670
(dp671
g2
Nsg17
S'nop'
p672
sg19
S'90'
p673
sg21
Vnop 
p674
sg5
L27191L
sg6
Nsg23
S'nop'
p675
sg25
S'0x6a37L'
p676
sg27
Nsbasg77
(lp677
g672
asg87
Nsg5
S'0x6a37L'
p678
sg89
(lp679
S'0x6961L'
p680
aS'0x6980L'
p681
aS'0x698bL'
p682
asg6
Nsg91
(lp683
S'0x6a38L'
p684
asg95
Nsg96
Nsg97
S'a571d969c8661fb0342afd08e571dfa0'
p685
sg99
S'a571d969c8661fb0342afd08e571dfa0'
p686
sg101
(lp687
g675
asg103
Nsba(ibclass
BBasicBlock
p688
(dp689
g12
Nsg13
(lp690
(ibclass
BInstr
p691
(dp692
g2
Nsg17
S'leave'
p693
sg19
S'c9'
p694
sg21
Vleave 
p695
sg5
L27192L
sg6
Nsg23
S'leave'
p696
sg25
S'0x6a38L'
p697
sg27
Nsba(ibclass
BInstr
p698
(dp699
g2
Nsg17
S'retn'
p700
sg19
S'c3'
p701
sg21
Vret 
p702
sg5
L27193L
sg6
Nsg23
S'retn'
p703
sg25
S'0x6a39L'
p704
sg27
Nsbasg77
(lp705
g693
ag700
asg87
Nsg5
S'0x6a38L'
p706
sg89
(lp707
S'0x69f8L'
p708
aS'0x6a0dL'
p709
aS'0x6a37L'
p710
asg6
Nsg91
(lp711
sg95
Nsg96
Nsg97
S'08c78f73a6f87c85da88b2982f54ce2a'
p712
sg99
S'08c78f73a6f87c85da88b2982f54ce2a'
p713
sg101
(lp714
g696
ag703
asg103
Nsbasb.