(ibclass
BFunc
p0
(dp1
S'hash'
p2
NsS'name'
p3
S'png_set_PLTE'
p4
sS'start_address'
p5
L27372L
sS'flag'
p6
NsS'program'
p7
NsS'bbs'
p8
(lp9
(ibclass
BBasicBlock
p10
(dp11
S'function'
p12
NsS'binstrs'
p13
(lp14
(ibclass
BInstr
p15
(dp16
g2
NsS'disasm'
p17
S'push    rbp'
p18
sS'bytes'
p19
S'55'
p20
sS'disasm_striped'
p21
Vpush rbp
p22
sg5
L27372L
sg6
NsS'mnem'
p23
S'push'
p24
sS'address'
p25
S'0x6aecL'
p26
sS'basicblock'
p27
Nsba(ibclass
BInstr
p28
(dp29
g2
Nsg17
S'mov     rbp, rsp'
p30
sg19
S'4889e5'
p31
sg21
Vmov rbp, rsp
p32
sg5
L27373L
sg6
Nsg23
S'mov'
p33
sg25
S'0x6aedL'
p34
sg27
Nsba(ibclass
BInstr
p35
(dp36
g2
Nsg17
S'sub     rsp, 20h'
p37
sg19
S'4883ec20'
p38
sg21
Vsub rsp, 0x20
p39
sg5
L27376L
sg6
Nsg23
S'sub'
p40
sg25
S'0x6af0L'
p41
sg27
Nsba(ibclass
BInstr
p42
(dp43
g2
Nsg17
S'mov     [rbp+png_ptr], rdi'
p44
sg19
S'48897df8'
p45
sg21
Vmov qword ptr [rbp - 8], rdi
p46
sg5
L27380L
sg6
Nsg23
S'mov'
p47
sg25
S'0x6af4L'
p48
sg27
Nsba(ibclass
BInstr
p49
(dp50
g2
Nsg17
S'mov     [rbp+info_ptr], rsi'
p51
sg19
S'488975f0'
p52
sg21
Vmov qword ptr [rbp - 0x10], rsi
p53
sg5
L27384L
sg6
Nsg23
S'mov'
p54
sg25
S'0x6af8L'
p55
sg27
Nsba(ibclass
BInstr
p56
(dp57
g2
Nsg17
S'mov     [rbp+palette], rdx'
p58
sg19
S'488955e8'
p59
sg21
Vmov qword ptr [rbp - 0x18], rdx
p60
sg5
L27388L
sg6
Nsg23
S'mov'
p61
sg25
S'0x6afcL'
p62
sg27
Nsba(ibclass
BInstr
p63
(dp64
g2
Nsg17
S'mov     [rbp+num_palette], ecx'
p65
sg19
S'894de4'
p66
sg21
Vmov dword ptr [rbp - 0x1c], ecx
p67
sg5
L27392L
sg6
Nsg23
S'mov'
p68
sg25
S'0x6b00L'
p69
sg27
Nsba(ibclass
BInstr
p70
(dp71
g2
Nsg17
S'cmp     [rbp+png_ptr], 0'
p72
sg19
S'48837df800'
p73
sg21
Vcmp qword ptr [rbp - 8], 0
p74
sg5
L27395L
sg6
Nsg23
S'cmp'
p75
sg25
S'0x6b03L'
p76
sg27
Nsba(ibclass
BInstr
p77
(dp78
g2
Nsg17
S'jz      loc_6C4B'
p79
sg19
S'0f843d010000'
p80
sg21
Vje 0x143
p81
sg5
L27400L
sg6
Nsg23
S'jz'
p82
sg25
S'0x6b08L'
p83
sg27
NsbasS'disasm_list'
p84
(lp85
S'push reg'
p86
aS'mov reg, reg'
p87
aS'sub reg, 20h'
p88
aS'mov mem, reg'
p89
aS'mov mem, reg'
p90
aS'mov mem, reg'
p91
aS'mov mem, reg'
p92
aS'cmp mem, 0'
p93
aS'jz func'
p94
asS'end_address'
p95
Nsg5
S'0x6aecL'
p96
sS'preds'
p97
(lp98
sg6
NsS'succs'
p99
(lp100
S'0x6b0eL'
p101
aS'0x6c4bL'
p102
asS'hash_v3'
p103
NsS'flag_v2'
p104
NsS'hash_v1'
p105
S'9d656cc01fdf9bf329d6d714f1045188'
p106
sS'hash_v2'
p107
S'93fa19c1e18831211b3d7f0bde6e3c72'
p108
sS'mnen_list'
p109
(lp110
g24
ag33
ag40
ag47
ag54
ag61
ag68
ag75
ag82
asS'neighbour_disasm_list'
p111
Nsba(ibclass
BBasicBlock
p112
(dp113
g12
Nsg13
(lp114
(ibclass
BInstr
p115
(dp116
g2
Nsg17
S'cmp     [rbp+info_ptr], 0'
p117
sg19
S'48837df000'
p118
sg21
Vcmp qword ptr [rbp - 0x10], 0
p119
sg5
L27406L
sg6
Nsg23
S'cmp'
p120
sg25
S'0x6b0eL'
p121
sg27
Nsba(ibclass
BInstr
p122
(dp123
g2
Nsg17
S'jz      loc_6C4B'
p124
sg19
S'0f8432010000'
p125
sg21
Vje 0x138
p126
sg5
L27411L
sg6
Nsg23
S'jz'
p127
sg25
S'0x6b13L'
p128
sg27
Nsbasg84
(lp129
S'cmp mem, 0'
p130
aS'jz func'
p131
asg95
Nsg5
S'0x6b0eL'
p132
sg97
(lp133
S'0x6aecL'
p134
asg6
Nsg99
(lp135
S'0x6b19L'
p136
aS'0x6c4bL'
p137
asg103
Nsg104
Nsg105
S'613dbc2b0cb9d6264d802b24d709daea'
p138
sg107
S'7f4ecf78254be39f53e7a11cedd080e9'
p139
sg109
(lp140
g120
ag127
asg111
Nsba(ibclass
BBasicBlock
p141
(dp142
g12
Nsg13
(lp143
(ibclass
BInstr
p144
(dp145
g2
Nsg17
S'cmp     [rbp+num_palette], 0'
p146
sg19
S'837de400'
p147
sg21
Vcmp dword ptr [rbp - 0x1c], 0
p148
sg5
L27417L
sg6
Nsg23
S'cmp'
p149
sg25
S'0x6b19L'
p150
sg27
Nsba(ibclass
BInstr
p151
(dp152
g2
Nsg17
S'js      short loc_6B28'
p153
sg19
S'7809'
p154
sg21
Vjs 0xb
p155
sg5
L27421L
sg6
Nsg23
S'js'
p156
sg25
S'0x6b1dL'
p157
sg27
Nsbasg84
(lp158
S'cmp mem, 0'
p159
aS'js func'
p160
asg95
Nsg5
S'0x6b19L'
p161
sg97
(lp162
S'0x6b0eL'
p163
asg6
Nsg99
(lp164
S'0x6b1fL'
p165
aS'0x6b28L'
p166
asg103
Nsg104
Nsg105
S'805ce80b1fcb827555e6a3cdc5becbca'
p167
sg107
S'e318439b0dca75c7c662d15c81160bbd'
p168
sg109
(lp169
g149
ag156
asg111
Nsba(ibclass
BBasicBlock
p170
(dp171
g12
Nsg13
(lp172
(ibclass
BInstr
p173
(dp174
g2
Nsg17
S'cmp     [rbp+num_palette], 100h'
p175
sg19
S'817de400010000'
p176
sg21
Vcmp dword ptr [rbp - 0x1c], 0x100
p177
sg5
L27423L
sg6
Nsg23
S'cmp'
p178
sg25
S'0x6b1fL'
p179
sg27
Nsba(ibclass
BInstr
p180
(dp181
g2
Nsg17
S'jle     short loc_6B61'
p182
sg19
S'7e39'
p183
sg21
Vjle 0x3b
p184
sg5
L27430L
sg6
Nsg23
S'jle'
p185
sg25
S'0x6b26L'
p186
sg27
Nsbasg84
(lp187
S'cmp mem, 100h'
p188
aS'jle func'
p189
asg95
Nsg5
S'0x6b1fL'
p190
sg97
(lp191
S'0x6b19L'
p192
asg6
Nsg99
(lp193
S'0x6b28L'
p194
aS'0x6b61L'
p195
asg103
Nsg104
Nsg105
S'0bc4bf9881c1ed8eb91420cf78755dd7'
p196
sg107
S'3dae20b789e087b9bb377fb418a26a68'
p197
sg109
(lp198
g178
ag185
asg111
Nsba(ibclass
BBasicBlock
p199
(dp200
g12
Nsg13
(lp201
(ibclass
BInstr
p202
(dp203
g2
Nsg17
S'mov     rax, [rbp+info_ptr]'
p204
sg19
S'488b45f0'
p205
sg21
Vmov rax, qword ptr [rbp - 0x10]
p206
sg5
L27432L
sg6
Nsg23
S'mov'
p207
sg25
S'0x6b28L'
p208
sg27
Nsba(ibclass
BInstr
p209
(dp210
g2
Nsg17
S'movzx   eax, byte ptr [rax+2Dh]'
p211
sg19
S'0fb6402d'
p212
sg21
Vmovzx eax, byte ptr [rax + 0x2d]
p213
sg5
L27436L
sg6
Nsg23
S'movzx'
p214
sg25
S'0x6b2cL'
p215
sg27
Nsba(ibclass
BInstr
p216
(dp217
g2
Nsg17
S'cmp     al, 3'
p218
sg19
S'3c03'
p219
sg21
Vcmp al, 3
p220
sg5
L27440L
sg6
Nsg23
S'cmp'
p221
sg25
S'0x6b30L'
p222
sg27
Nsba(ibclass
BInstr
p223
(dp224
g2
Nsg17
S'jnz     short loc_6B49'
p225
sg19
S'7515'
p226
sg21
Vjne 0x17
p227
sg5
L27442L
sg6
Nsg23
S'jnz'
p228
sg25
S'0x6b32L'
p229
sg27
Nsbasg84
(lp230
S'mov reg, mem'
p231
aS'movzx reg, mem'
p232
aS'cmp reg, 3'
p233
aS'jnz func'
p234
asg95
Nsg5
S'0x6b28L'
p235
sg97
(lp236
S'0x6b19L'
p237
aS'0x6b1fL'
p238
asg6
Nsg99
(lp239
S'0x6b34L'
p240
aS'0x6b49L'
p241
asg103
Nsg104
Nsg105
S'abeb40643ed11eecc9d44e99a64a1171'
p242
sg107
S'999cdda11341dd20fb79f53ff7abc2ec'
p243
sg109
(lp244
g207
ag214
ag221
ag228
asg111
Nsba(ibclass
BBasicBlock
p245
(dp246
g12
Nsg13
(lp247
(ibclass
BInstr
p248
(dp249
g2
Nsg17
S'mov     rax, [rbp+png_ptr]'
p250
sg19
S'488b45f8'
p251
sg21
Vmov rax, qword ptr [rbp - 8]
p252
sg5
L27444L
sg6
Nsg23
S'mov'
p253
sg25
S'0x6b34L'
p254
sg27
Nsba(ibclass
BInstr
p255
(dp256
g2
Nsg17
S'lea     rsi, aInvalidPalet_0; "Invalid palette length"'
p257
sg19
S'488d35c1730200'
p258
sg21
Vlea rsi, [rip + 0x273c1]
p259
sg5
L27448L
sg6
Nsg23
S'lea'
p260
sg25
S'0x6b38L'
p261
sg27
Nsba(ibclass
BInstr
p262
(dp263
g2
Nsg17
S'mov     rdi, rax        ; png_ptr'
p264
sg19
S'4889c7'
p265
sg21
Vmov rdi, rax
p266
sg5
L27455L
sg6
Nsg23
S'mov'
p267
sg25
S'0x6b3fL'
p268
sg27
Nsba(ibclass
BInstr
p269
(dp270
g2
Nsg17
S'call    _png_error'
p271
sg19
S'e8d9d7ffff'
p272
sg21
Vcall 0xffffffffffffd7de
p273
sg5
L27458L
sg6
Nsg23
S'call'
p274
sg25
S'0x6b42L'
p275
sg27
Nsba(ibclass
BInstr
p276
(dp277
g2
Nsg17
S'jmp     short loc_6B61'
p278
sg19
S'eb18'
p279
sg21
Vjmp 0x1a
p280
sg5
L27463L
sg6
Nsg23
S'jmp'
p281
sg25
S'0x6b47L'
p282
sg27
Nsbasg84
(lp283
S'mov reg, mem'
p284
aS'lea reg, aInvregidPreget_0'
p285
aS'mov reg, reg'
p286
aS'cregl _png_error'
p287
aS'jmp func'
p288
asg95
Nsg5
S'0x6b34L'
p289
sg97
(lp290
S'0x6b28L'
p291
asg6
Nsg99
(lp292
S'0x6b61L'
p293
asg103
Nsg104
Nsg105
S'b04933084fb11ccc44733413adcff717'
p294
sg107
S'eace604543fb5b2cdc7d3180dfb3c4ce'
p295
sg109
(lp296
g253
ag260
ag267
ag274
ag281
asg111
Nsba(ibclass
BBasicBlock
p297
(dp298
g12
Nsg13
(lp299
(ibclass
BInstr
p300
(dp301
g2
Nsg17
S'mov     rax, [rbp+png_ptr]'
p302
sg19
S'488b45f8'
p303
sg21
Vmov rax, qword ptr [rbp - 8]
p304
sg5
L27465L
sg6
Nsg23
S'mov'
p305
sg25
S'0x6b49L'
p306
sg27
Nsba(ibclass
BInstr
p307
(dp308
g2
Nsg17
S'lea     rsi, aInvalidPalet_0; "Invalid palette length"'
p309
sg19
S'488d35ac730200'
p310
sg21
Vlea rsi, [rip + 0x273ac]
p311
sg5
L27469L
sg6
Nsg23
S'lea'
p312
sg25
S'0x6b4dL'
p313
sg27
Nsba(ibclass
BInstr
p314
(dp315
g2
Nsg17
S'mov     rdi, rax        ; png_ptr'
p316
sg19
S'4889c7'
p317
sg21
Vmov rdi, rax
p318
sg5
L27476L
sg6
Nsg23
S'mov'
p319
sg25
S'0x6b54L'
p320
sg27
Nsba(ibclass
BInstr
p321
(dp322
g2
Nsg17
S'call    _png_warning'
p323
sg19
S'e824d7ffff'
p324
sg21
Vcall 0xffffffffffffd729
p325
sg5
L27479L
sg6
Nsg23
S'call'
p326
sg25
S'0x6b57L'
p327
sg27
Nsba(ibclass
BInstr
p328
(dp329
g2
Nsg17
S'jmp     locret_6C4C'
p330
sg19
S'e9eb000000'
p331
sg21
Vjmp 0xf0
p332
sg5
L27484L
sg6
Nsg23
S'jmp'
p333
sg25
S'0x6b5cL'
p334
sg27
Nsbasg84
(lp335
S'mov reg, mem'
p336
aS'lea reg, aInvregidPreget_0'
p337
aS'mov reg, reg'
p338
aS'cregl _png_warning'
p339
aS'jmp func'
p340
asg95
Nsg5
S'0x6b49L'
p341
sg97
(lp342
S'0x6b28L'
p343
asg6
Nsg99
(lp344
S'0x6c4cL'
p345
asg103
Nsg104
Nsg105
S'b04933084fb11ccc44733413adcff717'
p346
sg107
S'f304cc2dfad43caeb98276e9a0fad16d'
p347
sg109
(lp348
g305
ag312
ag319
ag326
ag333
asg111
Nsba(ibclass
BBasicBlock
p349
(dp350
g12
Nsg13
(lp351
(ibclass
BInstr
p352
(dp353
g2
Nsg17
S'mov     rsi, [rbp+info_ptr]; info_ptr'
p354
sg19
S'488b75f0'
p355
sg21
Vmov rsi, qword ptr [rbp - 0x10]
p356
sg5
L27489L
sg6
Nsg23
S'mov'
p357
sg25
S'0x6b61L'
p358
sg27
Nsba(ibclass
BInstr
p359
(dp360
g2
Nsg17
S'mov     rax, [rbp+png_ptr]'
p361
sg19
S'488b45f8'
p362
sg21
Vmov rax, qword ptr [rbp - 8]
p363
sg5
L27493L
sg6
Nsg23
S'mov'
p364
sg25
S'0x6b65L'
p365
sg27
Nsba(ibclass
BInstr
p366
(dp367
g2
Nsg17
S'mov     ecx, 0          ; num'
p368
sg19
S'b900000000'
p369
sg21
Vmov ecx, 0
p370
sg5
L27497L
sg6
Nsg23
S'mov'
p371
sg25
S'0x6b69L'
p372
sg27
Nsba(ibclass
BInstr
p373
(dp374
g2
Nsg17
S'mov     edx, 1000h      ; mask'
p375
sg19
S'ba00100000'
p376
sg21
Vmov edx, 0x1000
p377
sg5
L27502L
sg6
Nsg23
S'mov'
p378
sg25
S'0x6b6eL'
p379
sg27
Nsba(ibclass
BInstr
p380
(dp381
g2
Nsg17
S'mov     rdi, rax        ; png_ptr'
p382
sg19
S'4889c7'
p383
sg21
Vmov rdi, rax
p384
sg5
L27507L
sg6
Nsg23
S'mov'
p385
sg25
S'0x6b73L'
p386
sg27
Nsba(ibclass
BInstr
p387
(dp388
g2
Nsg17
S'call    _png_free_data'
p389
sg19
S'e815daffff'
p390
sg21
Vcall 0xffffffffffffda1a
p391
sg5
L27510L
sg6
Nsg23
S'call'
p392
sg25
S'0x6b76L'
p393
sg27
Nsba(ibclass
BInstr
p394
(dp395
g2
Nsg17
S'mov     rax, [rbp+png_ptr]'
p396
sg19
S'488b45f8'
p397
sg21
Vmov rax, qword ptr [rbp - 8]
p398
sg5
L27515L
sg6
Nsg23
S'mov'
p399
sg25
S'0x6b7bL'
p400
sg27
Nsba(ibclass
BInstr
p401
(dp402
g2
Nsg17
S'mov     esi, 300h       ; size'
p403
sg19
S'be00030000'
p404
sg21
Vmov esi, 0x300
p405
sg5
L27519L
sg6
Nsg23
S'mov'
p406
sg25
S'0x6b7fL'
p407
sg27
Nsba(ibclass
BInstr
p408
(dp409
g2
Nsg17
S'mov     rdi, rax        ; png_ptr'
p410
sg19
S'4889c7'
p411
sg21
Vmov rdi, rax
p412
sg5
L27524L
sg6
Nsg23
S'mov'
p413
sg25
S'0x6b84L'
p414
sg27
Nsba(ibclass
BInstr
p415
(dp416
g2
Nsg17
S'call    _png_malloc'
p417
sg19
S'e8a4daffff'
p418
sg21
Vcall 0xffffffffffffdaa9
p419
sg5
L27527L
sg6
Nsg23
S'call'
p420
sg25
S'0x6b87L'
p421
sg27
Nsba(ibclass
BInstr
p422
(dp423
g2
Nsg17
S'mov     rdx, rax'
p424
sg19
S'4889c2'
p425
sg21
Vmov rdx, rax
p426
sg5
L27532L
sg6
Nsg23
S'mov'
p427
sg25
S'0x6b8cL'
p428
sg27
Nsba(ibclass
BInstr
p429
(dp430
g2
Nsg17
S'mov     rax, [rbp+png_ptr]'
p431
sg19
S'488b45f8'
p432
sg21
Vmov rax, qword ptr [rbp - 8]
p433
sg5
L27535L
sg6
Nsg23
S'mov'
p434
sg25
S'0x6b8fL'
p435
sg27
Nsba(ibclass
BInstr
p436
(dp437
g2
Nsg17
S'mov     [rax+260h], rdx'
p438
sg19
S'48899060020000'
p439
sg21
Vmov qword ptr [rax + 0x260], rdx
p440
sg5
L27539L
sg6
Nsg23
S'mov'
p441
sg25
S'0x6b93L'
p442
sg27
Nsba(ibclass
BInstr
p443
(dp444
g2
Nsg17
S'mov     rax, [rbp+png_ptr]'
p445
sg19
S'488b45f8'
p446
sg21
Vmov rax, qword ptr [rbp - 8]
p447
sg5
L27546L
sg6
Nsg23
S'mov'
p448
sg25
S'0x6b9aL'
p449
sg27
Nsba(ibclass
BInstr
p450
(dp451
g2
Nsg17
S'mov     rax, [rax+260h]'
p452
sg19
S'488b8060020000'
p453
sg21
Vmov rax, qword ptr [rax + 0x260]
p454
sg5
L27550L
sg6
Nsg23
S'mov'
p455
sg25
S'0x6b9eL'
p456
sg27
Nsba(ibclass
BInstr
p457
(dp458
g2
Nsg17
S'mov     edx, 300h       ; n'
p459
sg19
S'ba00030000'
p460
sg21
Vmov edx, 0x300
p461
sg5
L27557L
sg6
Nsg23
S'mov'
p462
sg25
S'0x6ba5L'
p463
sg27
Nsba(ibclass
BInstr
p464
(dp465
g2
Nsg17
S'mov     esi, 0          ; c'
p466
sg19
S'be00000000'
p467
sg21
Vmov esi, 0
p468
sg5
L27562L
sg6
Nsg23
S'mov'
p469
sg25
S'0x6baaL'
p470
sg27
Nsba(ibclass
BInstr
p471
(dp472
g2
Nsg17
S'mov     rdi, rax        ; s'
p473
sg19
S'4889c7'
p474
sg21
Vmov rdi, rax
p475
sg5
L27567L
sg6
Nsg23
S'mov'
p476
sg25
S'0x6bafL'
p477
sg27
Nsba(ibclass
BInstr
p478
(dp479
g2
Nsg17
S'call    _memset'
p480
sg19
S'e899d6ffff'
p481
sg21
Vcall 0xffffffffffffd69e
p482
sg5
L27570L
sg6
Nsg23
S'call'
p483
sg25
S'0x6bb2L'
p484
sg27
Nsba(ibclass
BInstr
p485
(dp486
g2
Nsg17
S'mov     eax, [rbp+num_palette]'
p487
sg19
S'8b45e4'
p488
sg21
Vmov eax, dword ptr [rbp - 0x1c]
p489
sg5
L27575L
sg6
Nsg23
S'mov'
p490
sg25
S'0x6bb7L'
p491
sg27
Nsba(ibclass
BInstr
p492
(dp493
g2
Nsg17
S'movsxd  rdx, eax'
p494
sg19
S'4863d0'
p495
sg21
Vmovsxd rdx, eax
p496
sg5
L27578L
sg6
Nsg23
S'movsxd'
p497
sg25
S'0x6bbaL'
p498
sg27
Nsba(ibclass
BInstr
p499
(dp500
g2
Nsg17
S'mov     rax, rdx'
p501
sg19
S'4889d0'
p502
sg21
Vmov rax, rdx
p503
sg5
L27581L
sg6
Nsg23
S'mov'
p504
sg25
S'0x6bbdL'
p505
sg27
Nsba(ibclass
BInstr
p506
(dp507
g2
Nsg17
S'add     rax, rax'
p508
sg19
S'4801c0'
p509
sg21
Vadd rax, rax
p510
sg5
L27584L
sg6
Nsg23
S'add'
p511
sg25
S'0x6bc0L'
p512
sg27
Nsba(ibclass
BInstr
p513
(dp514
g2
Nsg17
S'add     rdx, rax        ; n'
p515
sg19
S'4801c2'
p516
sg21
Vadd rdx, rax
p517
sg5
L27587L
sg6
Nsg23
S'add'
p518
sg25
S'0x6bc3L'
p519
sg27
Nsba(ibclass
BInstr
p520
(dp521
g2
Nsg17
S'mov     rax, [rbp+png_ptr]'
p522
sg19
S'488b45f8'
p523
sg21
Vmov rax, qword ptr [rbp - 8]
p524
sg5
L27590L
sg6
Nsg23
S'mov'
p525
sg25
S'0x6bc6L'
p526
sg27
Nsba(ibclass
BInstr
p527
(dp528
g2
Nsg17
S'mov     rax, [rax+260h]'
p529
sg19
S'488b8060020000'
p530
sg21
Vmov rax, qword ptr [rax + 0x260]
p531
sg5
L27594L
sg6
Nsg23
S'mov'
p532
sg25
S'0x6bcaL'
p533
sg27
Nsba(ibclass
BInstr
p534
(dp535
g2
Nsg17
S'mov     rcx, [rbp+palette]'
p536
sg19
S'488b4de8'
p537
sg21
Vmov rcx, qword ptr [rbp - 0x18]
p538
sg5
L27601L
sg6
Nsg23
S'mov'
p539
sg25
S'0x6bd1L'
p540
sg27
Nsba(ibclass
BInstr
p541
(dp542
g2
Nsg17
S'mov     rsi, rcx        ; src'
p543
sg19
S'4889ce'
p544
sg21
Vmov rsi, rcx
p545
sg5
L27605L
sg6
Nsg23
S'mov'
p546
sg25
S'0x6bd5L'
p547
sg27
Nsba(ibclass
BInstr
p548
(dp549
g2
Nsg17
S'mov     rdi, rax        ; dest'
p550
sg19
S'4889c7'
p551
sg21
Vmov rdi, rax
p552
sg5
L27608L
sg6
Nsg23
S'mov'
p553
sg25
S'0x6bd8L'
p554
sg27
Nsba(ibclass
BInstr
p555
(dp556
g2
Nsg17
S'call    _memcpy'
p557
sg19
S'e890d7ffff'
p558
sg21
Vcall 0xffffffffffffd795
p559
sg5
L27611L
sg6
Nsg23
S'call'
p560
sg25
S'0x6bdbL'
p561
sg27
Nsba(ibclass
BInstr
p562
(dp563
g2
Nsg17
S'mov     rax, [rbp+png_ptr]'
p564
sg19
S'488b45f8'
p565
sg21
Vmov rax, qword ptr [rbp - 8]
p566
sg5
L27616L
sg6
Nsg23
S'mov'
p567
sg25
S'0x6be0L'
p568
sg27
Nsba(ibclass
BInstr
p569
(dp570
g2
Nsg17
S'mov     rdx, [rax+260h]'
p571
sg19
S'488b9060020000'
p572
sg21
Vmov rdx, qword ptr [rax + 0x260]
p573
sg5
L27620L
sg6
Nsg23
S'mov'
p574
sg25
S'0x6be4L'
p575
sg27
Nsba(ibclass
BInstr
p576
(dp577
g2
Nsg17
S'mov     rax, [rbp+info_ptr]'
p578
sg19
S'488b45f0'
p579
sg21
Vmov rax, qword ptr [rbp - 0x10]
p580
sg5
L27627L
sg6
Nsg23
S'mov'
p581
sg25
S'0x6bebL'
p582
sg27
Nsba(ibclass
BInstr
p583
(dp584
g2
Nsg17
S'mov     [rax+20h], rdx'
p585
sg19
S'48895020'
p586
sg21
Vmov qword ptr [rax + 0x20], rdx
p587
sg5
L27631L
sg6
Nsg23
S'mov'
p588
sg25
S'0x6befL'
p589
sg27
Nsba(ibclass
BInstr
p590
(dp591
g2
Nsg17
S'mov     eax, [rbp+num_palette]'
p592
sg19
S'8b45e4'
p593
sg21
Vmov eax, dword ptr [rbp - 0x1c]
p594
sg5
L27635L
sg6
Nsg23
S'mov'
p595
sg25
S'0x6bf3L'
p596
sg27
Nsba(ibclass
BInstr
p597
(dp598
g2
Nsg17
S'mov     edx, eax'
p599
sg19
S'89c2'
p600
sg21
Vmov edx, eax
p601
sg5
L27638L
sg6
Nsg23
S'mov'
p602
sg25
S'0x6bf6L'
p603
sg27
Nsba(ibclass
BInstr
p604
(dp605
g2
Nsg17
S'mov     rax, [rbp+png_ptr]'
p606
sg19
S'488b45f8'
p607
sg21
Vmov rax, qword ptr [rbp - 8]
p608
sg5
L27640L
sg6
Nsg23
S'mov'
p609
sg25
S'0x6bf8L'
p610
sg27
Nsba(ibclass
BInstr
p611
(dp612
g2
Nsg17
S'mov     [rax+268h], dx'
p613
sg19
S'66899068020000'
p614
sg21
Vmov word ptr [rax + 0x268], dx
p615
sg5
L27644L
sg6
Nsg23
S'mov'
p616
sg25
S'0x6bfcL'
p617
sg27
Nsba(ibclass
BInstr
p618
(dp619
g2
Nsg17
S'mov     rax, [rbp+png_ptr]'
p620
sg19
S'488b45f8'
p621
sg21
Vmov rax, qword ptr [rbp - 8]
p622
sg5
L27651L
sg6
Nsg23
S'mov'
p623
sg25
S'0x6c03L'
p624
sg27
Nsba(ibclass
BInstr
p625
(dp626
g2
Nsg17
S'movzx   edx, word ptr [rax+268h]'
p627
sg19
S'0fb79068020000'
p628
sg21
Vmovzx edx, word ptr [rax + 0x268]
p629
sg5
L27655L
sg6
Nsg23
S'movzx'
p630
sg25
S'0x6c07L'
p631
sg27
Nsba(ibclass
BInstr
p632
(dp633
g2
Nsg17
S'mov     rax, [rbp+info_ptr]'
p634
sg19
S'488b45f0'
p635
sg21
Vmov rax, qword ptr [rbp - 0x10]
p636
sg5
L27662L
sg6
Nsg23
S'mov'
p637
sg25
S'0x6c0eL'
p638
sg27
Nsba(ibclass
BInstr
p639
(dp640
g2
Nsg17
S'mov     [rax+28h], dx'
p641
sg19
S'66895028'
p642
sg21
Vmov word ptr [rax + 0x28], dx
p643
sg5
L27666L
sg6
Nsg23
S'mov'
p644
sg25
S'0x6c12L'
p645
sg27
Nsba(ibclass
BInstr
p646
(dp647
g2
Nsg17
S'mov     rax, [rbp+info_ptr]'
p648
sg19
S'488b45f0'
p649
sg21
Vmov rax, qword ptr [rbp - 0x10]
p650
sg5
L27670L
sg6
Nsg23
S'mov'
p651
sg25
S'0x6c16L'
p652
sg27
Nsba(ibclass
BInstr
p653
(dp654
g2
Nsg17
S'mov     rax, [rax+110h]'
p655
sg19
S'488b8010010000'
p656
sg21
Vmov rax, qword ptr [rax + 0x110]
p657
sg5
L27674L
sg6
Nsg23
S'mov'
p658
sg25
S'0x6c1aL'
p659
sg27
Nsba(ibclass
BInstr
p660
(dp661
g2
Nsg17
S'or      ah, 10h'
p662
sg19
S'80cc10'
p663
sg21
Vor ah, 0x10
p664
sg5
L27681L
sg6
Nsg23
S'or'
p665
sg25
S'0x6c21L'
p666
sg27
Nsba(ibclass
BInstr
p667
(dp668
g2
Nsg17
S'mov     rdx, rax'
p669
sg19
S'4889c2'
p670
sg21
Vmov rdx, rax
p671
sg5
L27684L
sg6
Nsg23
S'mov'
p672
sg25
S'0x6c24L'
p673
sg27
Nsba(ibclass
BInstr
p674
(dp675
g2
Nsg17
S'mov     rax, [rbp+info_ptr]'
p676
sg19
S'488b45f0'
p677
sg21
Vmov rax, qword ptr [rbp - 0x10]
p678
sg5
L27687L
sg6
Nsg23
S'mov'
p679
sg25
S'0x6c27L'
p680
sg27
Nsba(ibclass
BInstr
p681
(dp682
g2
Nsg17
S'mov     [rax+110h], rdx'
p683
sg19
S'48899010010000'
p684
sg21
Vmov qword ptr [rax + 0x110], rdx
p685
sg5
L27691L
sg6
Nsg23
S'mov'
p686
sg25
S'0x6c2bL'
p687
sg27
Nsba(ibclass
BInstr
p688
(dp689
g2
Nsg17
S'mov     rax, [rbp+info_ptr]'
p690
sg19
S'488b45f0'
p691
sg21
Vmov rax, qword ptr [rbp - 0x10]
p692
sg5
L27698L
sg6
Nsg23
S'mov'
p693
sg25
S'0x6c32L'
p694
sg27
Nsba(ibclass
BInstr
p695
(dp696
g2
Nsg17
S'mov     rax, [rax+10h]'
p697
sg19
S'488b4010'
p698
sg21
Vmov rax, qword ptr [rax + 0x10]
p699
sg5
L27702L
sg6
Nsg23
S'mov'
p700
sg25
S'0x6c36L'
p701
sg27
Nsba(ibclass
BInstr
p702
(dp703
g2
Nsg17
S'or      rax, 8'
p704
sg19
S'4883c808'
p705
sg21
Vor rax, 8
p706
sg5
L27706L
sg6
Nsg23
S'or'
p707
sg25
S'0x6c3aL'
p708
sg27
Nsba(ibclass
BInstr
p709
(dp710
g2
Nsg17
S'mov     rdx, rax'
p711
sg19
S'4889c2'
p712
sg21
Vmov rdx, rax
p713
sg5
L27710L
sg6
Nsg23
S'mov'
p714
sg25
S'0x6c3eL'
p715
sg27
Nsba(ibclass
BInstr
p716
(dp717
g2
Nsg17
S'mov     rax, [rbp+info_ptr]'
p718
sg19
S'488b45f0'
p719
sg21
Vmov rax, qword ptr [rbp - 0x10]
p720
sg5
L27713L
sg6
Nsg23
S'mov'
p721
sg25
S'0x6c41L'
p722
sg27
Nsba(ibclass
BInstr
p723
(dp724
g2
Nsg17
S'mov     [rax+10h], rdx'
p725
sg19
S'48895010'
p726
sg21
Vmov qword ptr [rax + 0x10], rdx
p727
sg5
L27717L
sg6
Nsg23
S'mov'
p728
sg25
S'0x6c45L'
p729
sg27
Nsba(ibclass
BInstr
p730
(dp731
g2
Nsg17
S'jmp     short locret_6C4C'
p732
sg19
S'eb01'
p733
sg21
Vjmp 3
p734
sg5
L27721L
sg6
Nsg23
S'jmp'
p735
sg25
S'0x6c49L'
p736
sg27
Nsbasg84
(lp737
S'mov reg, mem'
p738
aS'mov reg, mem'
p739
aS'mov reg, 0'
p740
aS'mov reg, 1000h'
p741
aS'mov reg, reg'
p742
aS'cregl _png_free_data'
p743
aS'mov reg, mem'
p744
aS'mov reg, 300h'
p745
aS'mov reg, reg'
p746
aS'cregl _png_mregloc'
p747
aS'mov reg, reg'
p748
aS'mov reg, mem'
p749
aS'mov mem, reg'
p750
aS'mov reg, mem'
p751
aS'mov reg, mem'
p752
aS'mov reg, 300h'
p753
aS'mov reg, 0'
p754
aS'mov reg, reg'
p755
aS'cregl _memset'
p756
aS'mov reg, mem'
p757
aS'movsxd reg, reg'
p758
aS'mov reg, reg'
p759
aS'add reg, reg'
p760
aS'add reg, reg'
p761
aS'mov reg, mem'
p762
aS'mov reg, mem'
p763
aS'mov reg, mem'
p764
aS'mov reg, reg'
p765
aS'mov reg, reg'
p766
aS'cregl _memcpy'
p767
aS'mov reg, mem'
p768
aS'mov reg, mem'
p769
aS'mov reg, mem'
p770
aS'mov mem, reg'
p771
aS'mov reg, mem'
p772
aS'mov reg, reg'
p773
aS'mov reg, mem'
p774
aS'mov mem, reg'
p775
aS'mov reg, mem'
p776
aS'movzx reg, mem'
p777
aS'mov reg, mem'
p778
aS'mov mem, reg'
p779
aS'mov reg, mem'
p780
aS'mov reg, mem'
p781
aS'or ah, 10h'
p782
aS'mov reg, reg'
p783
aS'mov reg, mem'
p784
aS'mov mem, reg'
p785
aS'mov reg, mem'
p786
aS'mov reg, mem'
p787
aS'or reg, 8'
p788
aS'mov reg, reg'
p789
aS'mov reg, mem'
p790
aS'mov mem, reg'
p791
aS'jmp short func'
p792
asg95
Nsg5
S'0x6b61L'
p793
sg97
(lp794
S'0x6b1fL'
p795
aS'0x6b34L'
p796
asg6
Nsg99
(lp797
S'0x6c4cL'
p798
asg103
Nsg104
Nsg105
S'2df45c03f96890319fbde0ce980d38ce'
p799
sg107
S'34c5d36a94b17c2170d808ce8958af2a'
p800
sg109
(lp801
g357
ag364
ag371
ag378
ag385
ag392
ag399
ag406
ag413
ag420
ag427
ag434
ag441
ag448
ag455
ag462
ag469
ag476
ag483
ag490
ag497
ag504
ag511
ag518
ag525
ag532
ag539
ag546
ag553
ag560
ag567
ag574
ag581
ag588
ag595
ag602
ag609
ag616
ag623
ag630
ag637
ag644
ag651
ag658
ag665
ag672
ag679
ag686
ag693
ag700
ag707
ag714
ag721
ag728
ag735
asg111
Nsba(ibclass
BBasicBlock
p802
(dp803
g12
Nsg13
(lp804
(ibclass
BInstr
p805
(dp806
g2
Nsg17
S'nop'
p807
sg19
S'90'
p808
sg21
Vnop 
p809
sg5
L27723L
sg6
Nsg23
S'nop'
p810
sg25
S'0x6c4bL'
p811
sg27
Nsbasg84
(lp812
g807
asg95
Nsg5
S'0x6c4bL'
p813
sg97
(lp814
S'0x6aecL'
p815
aS'0x6b0eL'
p816
asg6
Nsg99
(lp817
S'0x6c4cL'
p818
asg103
Nsg104
Nsg105
S'a571d969c8661fb0342afd08e571dfa0'
p819
sg107
S'a571d969c8661fb0342afd08e571dfa0'
p820
sg109
(lp821
g810
asg111
Nsba(ibclass
BBasicBlock
p822
(dp823
g12
Nsg13
(lp824
(ibclass
BInstr
p825
(dp826
g2
Nsg17
S'leave'
p827
sg19
S'c9'
p828
sg21
Vleave 
p829
sg5
L27724L
sg6
Nsg23
S'leave'
p830
sg25
S'0x6c4cL'
p831
sg27
Nsba(ibclass
BInstr
p832
(dp833
g2
Nsg17
S'retn'
p834
sg19
S'c3'
p835
sg21
Vret 
p836
sg5
L27725L
sg6
Nsg23
S'retn'
p837
sg25
S'0x6c4dL'
p838
sg27
Nsbasg84
(lp839
g827
ag834
asg95
Nsg5
S'0x6c4cL'
p840
sg97
(lp841
S'0x6b49L'
p842
aS'0x6b61L'
p843
aS'0x6c4bL'
p844
asg6
Nsg99
(lp845
sg103
Nsg104
Nsg105
S'08c78f73a6f87c85da88b2982f54ce2a'
p846
sg107
S'08c78f73a6f87c85da88b2982f54ce2a'
p847
sg109
(lp848
g830
ag837
asg111
Nsbasb.