(ibclass
BFunc
p0
(dp1
S'hash'
p2
NsS'name'
p3
S'png_handle_zTXt'
p4
sS'start_address'
p5
L55032L
sS'flag'
p6
NsS'program'
p7
NsS'bbs'
p8
(lp9
(ibclass
BBasicBlock
p10
(dp11
S'function'
p12
NsS'binstrs'
p13
(lp14
(ibclass
BInstr
p15
(dp16
g2
NsS'disasm'
p17
S'push    rbp'
p18
sS'bytes'
p19
S'55'
p20
sS'disasm_striped'
p21
Vpush rbp
p22
sg5
L55032L
sg6
NsS'mnem'
p23
S'push'
p24
sS'address'
p25
S'0xd6f8L'
p26
sS'basicblock'
p27
Nsba(ibclass
BInstr
p28
(dp29
g2
Nsg17
S'mov     rbp, rsp'
p30
sg19
S'4889e5'
p31
sg21
Vmov rbp, rsp
p32
sg5
L55033L
sg6
Nsg23
S'mov'
p33
sg25
S'0xd6f9L'
p34
sg27
Nsba(ibclass
BInstr
p35
(dp36
g2
Nsg17
S'sub     rsp, 60h'
p37
sg19
S'4883ec60'
p38
sg21
Vsub rsp, 0x60
p39
sg5
L55036L
sg6
Nsg23
S'sub'
p40
sg25
S'0xd6fcL'
p41
sg27
Nsba(ibclass
BInstr
p42
(dp43
g2
Nsg17
S'mov     [rbp+png_ptr], rdi'
p44
sg19
S'48897db8'
p45
sg21
Vmov qword ptr [rbp - 0x48], rdi
p46
sg5
L55040L
sg6
Nsg23
S'mov'
p47
sg25
S'0xd700L'
p48
sg27
Nsba(ibclass
BInstr
p49
(dp50
g2
Nsg17
S'mov     [rbp+info_ptr], rsi'
p51
sg19
S'488975b0'
p52
sg21
Vmov qword ptr [rbp - 0x50], rsi
p53
sg5
L55044L
sg6
Nsg23
S'mov'
p54
sg25
S'0xd704L'
p55
sg27
Nsba(ibclass
BInstr
p56
(dp57
g2
Nsg17
S'mov     [rbp+length], rdx'
p58
sg19
S'488955a8'
p59
sg21
Vmov qword ptr [rbp - 0x58], rdx
p60
sg5
L55048L
sg6
Nsg23
S'mov'
p61
sg25
S'0xd708L'
p62
sg27
Nsba(ibclass
BInstr
p63
(dp64
g2
Nsg17
S'mov     rax, fs:28h'
p65
sg19
S'64488b042528000000'
p66
sg21
Vmov rax, qword ptr fs:[0x28]
p67
sg5
L55052L
sg6
Nsg23
S'mov'
p68
sg25
S'0xd70cL'
p69
sg27
Nsba(ibclass
BInstr
p70
(dp71
g2
Nsg17
S'mov     [rbp+var_8], rax'
p72
sg19
S'488945f8'
p73
sg21
Vmov qword ptr [rbp - 8], rax
p74
sg5
L55061L
sg6
Nsg23
S'mov'
p75
sg25
S'0xd715L'
p76
sg27
Nsba(ibclass
BInstr
p77
(dp78
g2
Nsg17
S'xor     eax, eax'
p79
sg19
S'31c0'
p80
sg21
Vxor eax, eax
p81
sg5
L55065L
sg6
Nsg23
S'xor'
p82
sg25
S'0xd719L'
p83
sg27
Nsba(ibclass
BInstr
p84
(dp85
g2
Nsg17
S'mov     rax, [rbp+png_ptr]'
p86
sg19
S'488b45b8'
p87
sg21
Vmov rax, qword ptr [rbp - 0x48]
p88
sg5
L55067L
sg6
Nsg23
S'mov'
p89
sg25
S'0xd71bL'
p90
sg27
Nsba(ibclass
BInstr
p91
(dp92
g2
Nsg17
S'mov     rax, [rax+118h]'
p93
sg19
S'488b8018010000'
p94
sg21
Vmov rax, qword ptr [rax + 0x118]
p95
sg5
L55071L
sg6
Nsg23
S'mov'
p96
sg25
S'0xd71fL'
p97
sg27
Nsba(ibclass
BInstr
p98
(dp99
g2
Nsg17
S'and     eax, 1'
p100
sg19
S'83e001'
p101
sg21
Vand eax, 1
p102
sg5
L55078L
sg6
Nsg23
S'and'
p103
sg25
S'0xd726L'
p104
sg27
Nsba(ibclass
BInstr
p105
(dp106
g2
Nsg17
S'test    rax, rax'
p107
sg19
S'4885c0'
p108
sg21
Vtest rax, rax
p109
sg5
L55081L
sg6
Nsg23
S'test'
p110
sg25
S'0xd729L'
p111
sg27
Nsba(ibclass
BInstr
p112
(dp113
g2
Nsg17
S'jnz     short loc_D741'
p114
sg19
S'7513'
p115
sg21
Vjne 0x15
p116
sg5
L55084L
sg6
Nsg23
S'jnz'
p117
sg25
S'0xd72cL'
p118
sg27
NsbasS'disasm_list'
p119
(lp120
S'push reg'
p121
aS'mov reg, reg'
p122
aS'sub reg, 60h'
p123
aS'mov mem, reg'
p124
aS'mov mem, reg'
p125
aS'mov mem, reg'
p126
aS'mov reg, fs:28h'
p127
aS'mov mem, reg'
p128
aS'xor reg, reg'
p129
aS'mov reg, mem'
p130
aS'mov reg, mem'
p131
aS'and reg, 1'
p132
aS'test reg, reg'
p133
aS'jnz func'
p134
asS'end_address'
p135
Nsg5
S'0xd6f8L'
p136
sS'preds'
p137
(lp138
sg6
NsS'succs'
p139
(lp140
S'0xd72eL'
p141
aS'0xd741L'
p142
asS'hash_v3'
p143
NsS'flag_v2'
p144
NsS'hash_v1'
p145
S'9dbee6f19fc3c803d7efa48b4f6cdb40'
p146
sS'hash_v2'
p147
S'e878f0f9a708030a592b2b50231bdf75'
p148
sS'mnen_list'
p149
(lp150
g24
ag33
ag40
ag47
ag54
ag61
ag68
ag75
ag82
ag89
ag96
ag103
ag110
ag117
asS'neighbour_disasm_list'
p151
Nsba(ibclass
BBasicBlock
p152
(dp153
g12
Nsg13
(lp154
(ibclass
BInstr
p155
(dp156
g2
Nsg17
S'mov     rax, [rbp+png_ptr]'
p157
sg19
S'488b45b8'
p158
sg21
Vmov rax, qword ptr [rbp - 0x48]
p159
sg5
L55086L
sg6
Nsg23
S'mov'
p160
sg25
S'0xd72eL'
p161
sg27
Nsba(ibclass
BInstr
p162
(dp163
g2
Nsg17
S'lea     rsi, aMissingIhdr_14; "Missing IHDR before zTXt"'
p164
sg19
S'488d352a170200'
p165
sg21
Vlea rsi, [rip + 0x2172a]
p166
sg5
L55090L
sg6
Nsg23
S'lea'
p167
sg25
S'0xd732L'
p168
sg27
Nsba(ibclass
BInstr
p169
(dp170
g2
Nsg17
S'mov     rdi, rax        ; png_ptr'
p171
sg19
S'4889c7'
p172
sg21
Vmov rdi, rax
p173
sg5
L55097L
sg6
Nsg23
S'mov'
p174
sg25
S'0xd739L'
p175
sg27
Nsba(ibclass
BInstr
p176
(dp177
g2
Nsg17
S'call    _png_error'
p178
sg19
S'e8df6bffff'
p179
sg21
Vcall 0xffffffffffff6be4
p180
sg5
L55100L
sg6
Nsg23
S'call'
p181
sg25
S'0xd73cL'
p182
sg27
Nsbasg119
(lp183
S'mov reg, mem'
p184
aS'lea reg, aMisregngIhdr_14'
p185
aS'mov reg, reg'
p186
aS'cregl _png_error'
p187
asg135
Nsg5
S'0xd72eL'
p188
sg137
(lp189
S'0xd6f8L'
p190
asg6
Nsg139
(lp191
S'0xd741L'
p192
asg143
Nsg144
Nsg145
S'1ff1d2d71609163b08177d9b5938648d'
p193
sg147
S'f014c26235527303c438524331266db3'
p194
sg149
(lp195
g160
ag167
ag174
ag181
asg151
Nsba(ibclass
BBasicBlock
p196
(dp197
g12
Nsg13
(lp198
(ibclass
BInstr
p199
(dp200
g2
Nsg17
S'mov     rax, [rbp+png_ptr]'
p201
sg19
S'488b45b8'
p202
sg21
Vmov rax, qword ptr [rbp - 0x48]
p203
sg5
L55105L
sg6
Nsg23
S'mov'
p204
sg25
S'0xd741L'
p205
sg27
Nsba(ibclass
BInstr
p206
(dp207
g2
Nsg17
S'mov     rax, [rax+118h]'
p208
sg19
S'488b8018010000'
p209
sg21
Vmov rax, qword ptr [rax + 0x118]
p210
sg5
L55109L
sg6
Nsg23
S'mov'
p211
sg25
S'0xd745L'
p212
sg27
Nsba(ibclass
BInstr
p213
(dp214
g2
Nsg17
S'and     eax, 4'
p215
sg19
S'83e004'
p216
sg21
Vand eax, 4
p217
sg5
L55116L
sg6
Nsg23
S'and'
p218
sg25
S'0xd74cL'
p219
sg27
Nsba(ibclass
BInstr
p220
(dp221
g2
Nsg17
S'test    rax, rax'
p222
sg19
S'4885c0'
p223
sg21
Vtest rax, rax
p224
sg5
L55119L
sg6
Nsg23
S'test'
p225
sg25
S'0xd74fL'
p226
sg27
Nsba(ibclass
BInstr
p227
(dp228
g2
Nsg17
S'jz      short loc_D771'
p229
sg19
S'741d'
p230
sg21
Vje 0x1f
p231
sg5
L55122L
sg6
Nsg23
S'jz'
p232
sg25
S'0xd752L'
p233
sg27
Nsbasg119
(lp234
S'mov reg, mem'
p235
aS'mov reg, mem'
p236
aS'and reg, 4'
p237
aS'test reg, reg'
p238
aS'jz func'
p239
asg135
Nsg5
S'0xd741L'
p240
sg137
(lp241
S'0xd6f8L'
p242
aS'0xd72eL'
p243
asg6
Nsg139
(lp244
S'0xd754L'
p245
aS'0xd771L'
p246
asg143
Nsg144
Nsg145
S'f7f1722576cc4fe08ef64a8368f11a63'
p247
sg147
S'5c8cdafc70d29b591fffdca93c432f21'
p248
sg149
(lp249
g204
ag211
ag218
ag225
ag232
asg151
Nsba(ibclass
BBasicBlock
p250
(dp251
g12
Nsg13
(lp252
(ibclass
BInstr
p253
(dp254
g2
Nsg17
S'mov     rax, [rbp+png_ptr]'
p255
sg19
S'488b45b8'
p256
sg21
Vmov rax, qword ptr [rbp - 0x48]
p257
sg5
L55124L
sg6
Nsg23
S'mov'
p258
sg25
S'0xd754L'
p259
sg27
Nsba(ibclass
BInstr
p260
(dp261
g2
Nsg17
S'mov     rax, [rax+118h]'
p262
sg19
S'488b8018010000'
p263
sg21
Vmov rax, qword ptr [rax + 0x118]
p264
sg5
L55128L
sg6
Nsg23
S'mov'
p265
sg25
S'0xd758L'
p266
sg27
Nsba(ibclass
BInstr
p267
(dp268
g2
Nsg17
S'or      rax, 8'
p269
sg19
S'4883c808'
p270
sg21
Vor rax, 8
p271
sg5
L55135L
sg6
Nsg23
S'or'
p272
sg25
S'0xd75fL'
p273
sg27
Nsba(ibclass
BInstr
p274
(dp275
g2
Nsg17
S'mov     rdx, rax'
p276
sg19
S'4889c2'
p277
sg21
Vmov rdx, rax
p278
sg5
L55139L
sg6
Nsg23
S'mov'
p279
sg25
S'0xd763L'
p280
sg27
Nsba(ibclass
BInstr
p281
(dp282
g2
Nsg17
S'mov     rax, [rbp+png_ptr]'
p283
sg19
S'488b45b8'
p284
sg21
Vmov rax, qword ptr [rbp - 0x48]
p285
sg5
L55142L
sg6
Nsg23
S'mov'
p286
sg25
S'0xd766L'
p287
sg27
Nsba(ibclass
BInstr
p288
(dp289
g2
Nsg17
S'mov     [rax+118h], rdx'
p290
sg19
S'48899018010000'
p291
sg21
Vmov qword ptr [rax + 0x118], rdx
p292
sg5
L55146L
sg6
Nsg23
S'mov'
p293
sg25
S'0xd76aL'
p294
sg27
Nsbasg119
(lp295
S'mov reg, mem'
p296
aS'mov reg, mem'
p297
aS'or reg, 8'
p298
aS'mov reg, reg'
p299
aS'mov reg, mem'
p300
aS'mov mem, reg'
p301
asg135
Nsg5
S'0xd754L'
p302
sg137
(lp303
S'0xd741L'
p304
asg6
Nsg139
(lp305
S'0xd771L'
p306
asg143
Nsg144
Nsg145
S'404664b14f148a8caec2565a014bc27e'
p307
sg147
S'0b1c45bf15d167669d9aa22b5bfab683'
p308
sg149
(lp309
g258
ag265
ag272
ag279
ag286
ag293
asg151
Nsba(ibclass
BBasicBlock
p310
(dp311
g12
Nsg13
(lp312
(ibclass
BInstr
p313
(dp314
g2
Nsg17
S'mov     rax, [rbp+png_ptr]'
p315
sg19
S'488b45b8'
p316
sg21
Vmov rax, qword ptr [rbp - 0x48]
p317
sg5
L55153L
sg6
Nsg23
S'mov'
p318
sg25
S'0xd771L'
p319
sg27
Nsba(ibclass
BInstr
p320
(dp321
g2
Nsg17
S'mov     rdx, [rax+4E8h]'
p322
sg19
S'488b90e8040000'
p323
sg21
Vmov rdx, qword ptr [rax + 0x4e8]
p324
sg5
L55157L
sg6
Nsg23
S'mov'
p325
sg25
S'0xd775L'
p326
sg27
Nsba(ibclass
BInstr
p327
(dp328
g2
Nsg17
S'mov     rax, [rbp+png_ptr]'
p329
sg19
S'488b45b8'
p330
sg21
Vmov rax, qword ptr [rbp - 0x48]
p331
sg5
L55164L
sg6
Nsg23
S'mov'
p332
sg25
S'0xd77cL'
p333
sg27
Nsba(ibclass
BInstr
p334
(dp335
g2
Nsg17
S'mov     rsi, rdx        ; ptr'
p336
sg19
S'4889d6'
p337
sg21
Vmov rsi, rdx
p338
sg5
L55168L
sg6
Nsg23
S'mov'
p339
sg25
S'0xd780L'
p340
sg27
Nsba(ibclass
BInstr
p341
(dp342
g2
Nsg17
S'mov     rdi, rax        ; png_ptr'
p343
sg19
S'4889c7'
p344
sg21
Vmov rdi, rax
p345
sg5
L55171L
sg6
Nsg23
S'mov'
p346
sg25
S'0xd783L'
p347
sg27
Nsba(ibclass
BInstr
p348
(dp349
g2
Nsg17
S'call    _png_free'
p350
sg19
S'e8456effff'
p351
sg21
Vcall 0xffffffffffff6e4a
p352
sg5
L55174L
sg6
Nsg23
S'call'
p353
sg25
S'0xd786L'
p354
sg27
Nsba(ibclass
BInstr
p355
(dp356
g2
Nsg17
S'mov     rax, [rbp+length]'
p357
sg19
S'488b45a8'
p358
sg21
Vmov rax, qword ptr [rbp - 0x58]
p359
sg5
L55179L
sg6
Nsg23
S'mov'
p360
sg25
S'0xd78bL'
p361
sg27
Nsba(ibclass
BInstr
p362
(dp363
g2
Nsg17
S'lea     rdx, [rax+1]'
p364
sg19
S'488d5001'
p365
sg21
Vlea rdx, [rax + 1]
p366
sg5
L55183L
sg6
Nsg23
S'lea'
p367
sg25
S'0xd78fL'
p368
sg27
Nsba(ibclass
BInstr
p369
(dp370
g2
Nsg17
S'mov     rax, [rbp+png_ptr]'
p371
sg19
S'488b45b8'
p372
sg21
Vmov rax, qword ptr [rbp - 0x48]
p373
sg5
L55187L
sg6
Nsg23
S'mov'
p374
sg25
S'0xd793L'
p375
sg27
Nsba(ibclass
BInstr
p376
(dp377
g2
Nsg17
S'mov     rsi, rdx        ; size'
p378
sg19
S'4889d6'
p379
sg21
Vmov rsi, rdx
p380
sg5
L55191L
sg6
Nsg23
S'mov'
p381
sg25
S'0xd797L'
p382
sg27
Nsba(ibclass
BInstr
p383
(dp384
g2
Nsg17
S'mov     rdi, rax        ; png_ptr'
p385
sg19
S'4889c7'
p386
sg21
Vmov rdi, rax
p387
sg5
L55194L
sg6
Nsg23
S'mov'
p388
sg25
S'0xd79aL'
p389
sg27
Nsba(ibclass
BInstr
p390
(dp391
g2
Nsg17
S'call    _png_malloc_warn'
p392
sg19
S'e8de68ffff'
p393
sg21
Vcall 0xffffffffffff68e3
p394
sg5
L55197L
sg6
Nsg23
S'call'
p395
sg25
S'0xd79dL'
p396
sg27
Nsba(ibclass
BInstr
p397
(dp398
g2
Nsg17
S'mov     rdx, rax'
p399
sg19
S'4889c2'
p400
sg21
Vmov rdx, rax
p401
sg5
L55202L
sg6
Nsg23
S'mov'
p402
sg25
S'0xd7a2L'
p403
sg27
Nsba(ibclass
BInstr
p404
(dp405
g2
Nsg17
S'mov     rax, [rbp+png_ptr]'
p406
sg19
S'488b45b8'
p407
sg21
Vmov rax, qword ptr [rbp - 0x48]
p408
sg5
L55205L
sg6
Nsg23
S'mov'
p409
sg25
S'0xd7a5L'
p410
sg27
Nsba(ibclass
BInstr
p411
(dp412
g2
Nsg17
S'mov     [rax+4E8h], rdx'
p413
sg19
S'488990e8040000'
p414
sg21
Vmov qword ptr [rax + 0x4e8], rdx
p415
sg5
L55209L
sg6
Nsg23
S'mov'
p416
sg25
S'0xd7a9L'
p417
sg27
Nsba(ibclass
BInstr
p418
(dp419
g2
Nsg17
S'mov     rax, [rbp+png_ptr]'
p420
sg19
S'488b45b8'
p421
sg21
Vmov rax, qword ptr [rbp - 0x48]
p422
sg5
L55216L
sg6
Nsg23
S'mov'
p423
sg25
S'0xd7b0L'
p424
sg27
Nsba(ibclass
BInstr
p425
(dp426
g2
Nsg17
S'mov     rax, [rax+4E8h]'
p427
sg19
S'488b80e8040000'
p428
sg21
Vmov rax, qword ptr [rax + 0x4e8]
p429
sg5
L55220L
sg6
Nsg23
S'mov'
p430
sg25
S'0xd7b4L'
p431
sg27
Nsba(ibclass
BInstr
p432
(dp433
g2
Nsg17
S'test    rax, rax'
p434
sg19
S'4885c0'
p435
sg21
Vtest rax, rax
p436
sg5
L55227L
sg6
Nsg23
S'test'
p437
sg25
S'0xd7bbL'
p438
sg27
Nsba(ibclass
BInstr
p439
(dp440
g2
Nsg17
S'jnz     short loc_D7D8'
p441
sg19
S'7518'
p442
sg21
Vjne 0x1a
p443
sg5
L55230L
sg6
Nsg23
S'jnz'
p444
sg25
S'0xd7beL'
p445
sg27
Nsbasg119
(lp446
S'mov reg, mem'
p447
aS'mov reg, mem'
p448
aS'mov reg, mem'
p449
aS'mov reg, reg'
p450
aS'mov reg, reg'
p451
aS'cregl _png_free'
p452
aS'mov reg, mem'
p453
aS'lea reg, mem'
p454
aS'mov reg, mem'
p455
aS'mov reg, reg'
p456
aS'mov reg, reg'
p457
aS'cregl _png_mregloc_warn'
p458
aS'mov reg, reg'
p459
aS'mov reg, mem'
p460
aS'mov mem, reg'
p461
aS'mov reg, mem'
p462
aS'mov reg, mem'
p463
aS'test reg, reg'
p464
aS'jnz func'
p465
asg135
Nsg5
S'0xd771L'
p466
sg137
(lp467
S'0xd741L'
p468
aS'0xd754L'
p469
asg6
Nsg139
(lp470
S'0xd7c0L'
p471
aS'0xd7d8L'
p472
asg143
Nsg144
Nsg145
S'96f76ba09bfafab001c553b55d263a96'
p473
sg147
S'd0def5c10c2938571a8858f13210c017'
p474
sg149
(lp475
g318
ag325
ag332
ag339
ag346
ag353
ag360
ag367
ag374
ag381
ag388
ag395
ag402
ag409
ag416
ag423
ag430
ag437
ag444
asg151
Nsba(ibclass
BBasicBlock
p476
(dp477
g12
Nsg13
(lp478
(ibclass
BInstr
p479
(dp480
g2
Nsg17
S'mov     rax, [rbp+png_ptr]'
p481
sg19
S'488b45b8'
p482
sg21
Vmov rax, qword ptr [rbp - 0x48]
p483
sg5
L55232L
sg6
Nsg23
S'mov'
p484
sg25
S'0xd7c0L'
p485
sg27
Nsba(ibclass
BInstr
p486
(dp487
g2
Nsg17
S'lea     rsi, aOutOfMemoryPro; "Out of memory processing zTXt chunk."'
p488
sg19
S'488d35b5160200'
p489
sg21
Vlea rsi, [rip + 0x216b5]
p490
sg5
L55236L
sg6
Nsg23
S'lea'
p491
sg25
S'0xd7c4L'
p492
sg27
Nsba(ibclass
BInstr
p493
(dp494
g2
Nsg17
S'mov     rdi, rax        ; png_ptr'
p495
sg19
S'4889c7'
p496
sg21
Vmov rdi, rax
p497
sg5
L55243L
sg6
Nsg23
S'mov'
p498
sg25
S'0xd7cbL'
p499
sg27
Nsba(ibclass
BInstr
p500
(dp501
g2
Nsg17
S'call    _png_warning'
p502
sg19
S'e8ad6affff'
p503
sg21
Vcall 0xffffffffffff6ab2
p504
sg5
L55246L
sg6
Nsg23
S'call'
p505
sg25
S'0xd7ceL'
p506
sg27
Nsba(ibclass
BInstr
p507
(dp508
g2
Nsg17
S'jmp     loc_DA52'
p509
sg19
S'e97a020000'
p510
sg21
Vjmp 0x27f
p511
sg5
L55251L
sg6
Nsg23
S'jmp'
p512
sg25
S'0xd7d3L'
p513
sg27
Nsbasg119
(lp514
S'mov reg, mem'
p515
aS'lea reg, aOutOfMemoryPro'
p516
aS'mov reg, reg'
p517
aS'cregl _png_warning'
p518
aS'jmp func'
p519
asg135
Nsg5
S'0xd7c0L'
p520
sg137
(lp521
S'0xd771L'
p522
asg6
Nsg139
(lp523
S'0xda52L'
p524
asg143
Nsg144
Nsg145
S'b04933084fb11ccc44733413adcff717'
p525
sg147
S'0f156b6f050067e6a77dba166abea4d5'
p526
sg149
(lp527
g484
ag491
ag498
ag505
ag512
asg151
Nsba(ibclass
BBasicBlock
p528
(dp529
g12
Nsg13
(lp530
(ibclass
BInstr
p531
(dp532
g2
Nsg17
S'mov     rax, [rbp+length]'
p533
sg19
S'488b45a8'
p534
sg21
Vmov rax, qword ptr [rbp - 0x58]
p535
sg5
L55256L
sg6
Nsg23
S'mov'
p536
sg25
S'0xd7d8L'
p537
sg27
Nsba(ibclass
BInstr
p538
(dp539
g2
Nsg17
S'mov     [rbp+slength], rax'
p540
sg19
S'488945e0'
p541
sg21
Vmov qword ptr [rbp - 0x20], rax
p542
sg5
L55260L
sg6
Nsg23
S'mov'
p543
sg25
S'0xd7dcL'
p544
sg27
Nsba(ibclass
BInstr
p545
(dp546
g2
Nsg17
S'mov     rax, [rbp+png_ptr]'
p547
sg19
S'488b45b8'
p548
sg21
Vmov rax, qword ptr [rbp - 0x48]
p549
sg5
L55264L
sg6
Nsg23
S'mov'
p550
sg25
S'0xd7e0L'
p551
sg27
Nsba(ibclass
BInstr
p552
(dp553
g2
Nsg17
S'mov     rcx, [rax+4E8h]'
p554
sg19
S'488b88e8040000'
p555
sg21
Vmov rcx, qword ptr [rax + 0x4e8]
p556
sg5
L55268L
sg6
Nsg23
S'mov'
p557
sg25
S'0xd7e4L'
p558
sg27
Nsba(ibclass
BInstr
p559
(dp560
g2
Nsg17
S'mov     rdx, [rbp+slength]; length'
p561
sg19
S'488b55e0'
p562
sg21
Vmov rdx, qword ptr [rbp - 0x20]
p563
sg5
L55275L
sg6
Nsg23
S'mov'
p564
sg25
S'0xd7ebL'
p565
sg27
Nsba(ibclass
BInstr
p566
(dp567
g2
Nsg17
S'mov     rax, [rbp+png_ptr]'
p568
sg19
S'488b45b8'
p569
sg21
Vmov rax, qword ptr [rbp - 0x48]
p570
sg5
L55279L
sg6
Nsg23
S'mov'
p571
sg25
S'0xd7efL'
p572
sg27
Nsba(ibclass
BInstr
p573
(dp574
g2
Nsg17
S'mov     rsi, rcx        ; buf'
p575
sg19
S'4889ce'
p576
sg21
Vmov rsi, rcx
p577
sg5
L55283L
sg6
Nsg23
S'mov'
p578
sg25
S'0xd7f3L'
p579
sg27
Nsba(ibclass
BInstr
p580
(dp581
g2
Nsg17
S'mov     rdi, rax        ; png_ptr'
p582
sg19
S'4889c7'
p583
sg21
Vmov rdi, rax
p584
sg5
L55286L
sg6
Nsg23
S'mov'
p585
sg25
S'0xd7f6L'
p586
sg27
Nsba(ibclass
BInstr
p587
(dp588
g2
Nsg17
S'call    png_crc_read'
p589
sg19
S'e867bdffff'
p590
sg21
Vcall 0xffffffffffffbd6c
p591
sg5
L55289L
sg6
Nsg23
S'call'
p592
sg25
S'0xd7f9L'
p593
sg27
Nsba(ibclass
BInstr
p594
(dp595
g2
Nsg17
S'mov     rax, [rbp+png_ptr]'
p596
sg19
S'488b45b8'
p597
sg21
Vmov rax, qword ptr [rbp - 0x48]
p598
sg5
L55294L
sg6
Nsg23
S'mov'
p599
sg25
S'0xd7feL'
p600
sg27
Nsba(ibclass
BInstr
p601
(dp602
g2
Nsg17
S'mov     esi, 0          ; skip'
p603
sg19
S'be00000000'
p604
sg21
Vmov esi, 0
p605
sg5
L55298L
sg6
Nsg23
S'mov'
p606
sg25
S'0xd802L'
p607
sg27
Nsba(ibclass
BInstr
p608
(dp609
g2
Nsg17
S'mov     rdi, rax        ; png_ptr'
p610
sg19
S'4889c7'
p611
sg21
Vmov rdi, rax
p612
sg5
L55303L
sg6
Nsg23
S'mov'
p613
sg25
S'0xd807L'
p614
sg27
Nsba(ibclass
BInstr
p615
(dp616
g2
Nsg17
S'call    png_crc_finish'
p617
sg19
S'e8a4bdffff'
p618
sg21
Vcall 0xffffffffffffbda9
p619
sg5
L55306L
sg6
Nsg23
S'call'
p620
sg25
S'0xd80aL'
p621
sg27
Nsba(ibclass
BInstr
p622
(dp623
g2
Nsg17
S'test    eax, eax'
p624
sg19
S'85c0'
p625
sg21
Vtest eax, eax
p626
sg5
L55311L
sg6
Nsg23
S'test'
p627
sg25
S'0xd80fL'
p628
sg27
Nsba(ibclass
BInstr
p629
(dp630
g2
Nsg17
S'jz      short loc_D841'
p631
sg19
S'742e'
p632
sg21
Vje 0x30
p633
sg5
L55313L
sg6
Nsg23
S'jz'
p634
sg25
S'0xd811L'
p635
sg27
Nsbasg119
(lp636
S'mov reg, mem'
p637
aS'mov mem, reg'
p638
aS'mov reg, mem'
p639
aS'mov reg, mem'
p640
aS'mov reg, mem'
p641
aS'mov reg, mem'
p642
aS'mov reg, reg'
p643
aS'mov reg, reg'
p644
aS'cregl png_crc_read'
p645
aS'mov reg, mem'
p646
aS'mov reg, 0'
p647
aS'mov reg, reg'
p648
aS'cregl png_crc_finish'
p649
aS'test reg, reg'
p650
aS'jz func'
p651
asg135
Nsg5
S'0xd7d8L'
p652
sg137
(lp653
S'0xd771L'
p654
asg6
Nsg139
(lp655
S'0xd813L'
p656
aS'0xd841L'
p657
asg143
Nsg144
Nsg145
S'1888fe551987bac1ba853a1f0d98cb0b'
p658
sg147
S'c477ab9d80f64abdbd103b16e990debe'
p659
sg149
(lp660
g536
ag543
ag550
ag557
ag564
ag571
ag578
ag585
ag592
ag599
ag606
ag613
ag620
ag627
ag634
asg151
Nsba(ibclass
BBasicBlock
p661
(dp662
g12
Nsg13
(lp663
(ibclass
BInstr
p664
(dp665
g2
Nsg17
S'mov     rax, [rbp+png_ptr]'
p666
sg19
S'488b45b8'
p667
sg21
Vmov rax, qword ptr [rbp - 0x48]
p668
sg5
L55315L
sg6
Nsg23
S'mov'
p669
sg25
S'0xd813L'
p670
sg27
Nsba(ibclass
BInstr
p671
(dp672
g2
Nsg17
S'mov     rdx, [rax+4E8h]'
p673
sg19
S'488b90e8040000'
p674
sg21
Vmov rdx, qword ptr [rax + 0x4e8]
p675
sg5
L55319L
sg6
Nsg23
S'mov'
p676
sg25
S'0xd817L'
p677
sg27
Nsba(ibclass
BInstr
p678
(dp679
g2
Nsg17
S'mov     rax, [rbp+png_ptr]'
p680
sg19
S'488b45b8'
p681
sg21
Vmov rax, qword ptr [rbp - 0x48]
p682
sg5
L55326L
sg6
Nsg23
S'mov'
p683
sg25
S'0xd81eL'
p684
sg27
Nsba(ibclass
BInstr
p685
(dp686
g2
Nsg17
S'mov     rsi, rdx        ; ptr'
p687
sg19
S'4889d6'
p688
sg21
Vmov rsi, rdx
p689
sg5
L55330L
sg6
Nsg23
S'mov'
p690
sg25
S'0xd822L'
p691
sg27
Nsba(ibclass
BInstr
p692
(dp693
g2
Nsg17
S'mov     rdi, rax        ; png_ptr'
p694
sg19
S'4889c7'
p695
sg21
Vmov rdi, rax
p696
sg5
L55333L
sg6
Nsg23
S'mov'
p697
sg25
S'0xd825L'
p698
sg27
Nsba(ibclass
BInstr
p699
(dp700
g2
Nsg17
S'call    _png_free'
p701
sg19
S'e8a36dffff'
p702
sg21
Vcall 0xffffffffffff6da8
p703
sg5
L55336L
sg6
Nsg23
S'call'
p704
sg25
S'0xd828L'
p705
sg27
Nsba(ibclass
BInstr
p706
(dp707
g2
Nsg17
S'mov     rax, [rbp+png_ptr]'
p708
sg19
S'488b45b8'
p709
sg21
Vmov rax, qword ptr [rbp - 0x48]
p710
sg5
L55341L
sg6
Nsg23
S'mov'
p711
sg25
S'0xd82dL'
p712
sg27
Nsba(ibclass
BInstr
p713
(dp714
g2
Nsg17
S'mov     qword ptr [rax+4E8h], 0'
p715
sg19
S'48c780e804000000000000'
p716
sg21
Vmov qword ptr [rax + 0x4e8], 0
p717
sg5
L55345L
sg6
Nsg23
S'mov'
p718
sg25
S'0xd831L'
p719
sg27
Nsba(ibclass
BInstr
p720
(dp721
g2
Nsg17
S'jmp     loc_DA52'
p722
sg19
S'e911020000'
p723
sg21
Vjmp 0x216
p724
sg5
L55356L
sg6
Nsg23
S'jmp'
p725
sg25
S'0xd83cL'
p726
sg27
Nsbasg119
(lp727
S'mov reg, mem'
p728
aS'mov reg, mem'
p729
aS'mov reg, mem'
p730
aS'mov reg, reg'
p731
aS'mov reg, reg'
p732
aS'cregl _png_free'
p733
aS'mov reg, mem'
p734
aS'mov qmem, 0'
p735
aS'jmp func'
p736
asg135
Nsg5
S'0xd813L'
p737
sg137
(lp738
S'0xd7d8L'
p739
asg6
Nsg139
(lp740
S'0xda52L'
p741
asg143
Nsg144
Nsg145
S'e7be284ef70ad8d0da24b41e8eb89069'
p742
sg147
S'5267d5979db73ad6b81c526ab4aadbcb'
p743
sg149
(lp744
g669
ag676
ag683
ag690
ag697
ag704
ag711
ag718
ag725
asg151
Nsba(ibclass
BBasicBlock
p745
(dp746
g12
Nsg13
(lp747
(ibclass
BInstr
p748
(dp749
g2
Nsg17
S'mov     rax, [rbp+png_ptr]'
p750
sg19
S'488b45b8'
p751
sg21
Vmov rax, qword ptr [rbp - 0x48]
p752
sg5
L55361L
sg6
Nsg23
S'mov'
p753
sg25
S'0xd841L'
p754
sg27
Nsba(ibclass
BInstr
p755
(dp756
g2
Nsg17
S'mov     rdx, [rax+4E8h]'
p757
sg19
S'488b90e8040000'
p758
sg21
Vmov rdx, qword ptr [rax + 0x4e8]
p759
sg5
L55365L
sg6
Nsg23
S'mov'
p760
sg25
S'0xd845L'
p761
sg27
Nsba(ibclass
BInstr
p762
(dp763
g2
Nsg17
S'mov     rax, [rbp+slength]'
p764
sg19
S'488b45e0'
p765
sg21
Vmov rax, qword ptr [rbp - 0x20]
p766
sg5
L55372L
sg6
Nsg23
S'mov'
p767
sg25
S'0xd84cL'
p768
sg27
Nsba(ibclass
BInstr
p769
(dp770
g2
Nsg17
S'add     rax, rdx'
p771
sg19
S'4801d0'
p772
sg21
Vadd rax, rdx
p773
sg5
L55376L
sg6
Nsg23
S'add'
p774
sg25
S'0xd850L'
p775
sg27
Nsba(ibclass
BInstr
p776
(dp777
g2
Nsg17
S'mov     byte ptr [rax], 0'
p778
sg19
S'c60000'
p779
sg21
Vmov byte ptr [rax], 0
p780
sg5
L55379L
sg6
Nsg23
S'mov'
p781
sg25
S'0xd853L'
p782
sg27
Nsba(ibclass
BInstr
p783
(dp784
g2
Nsg17
S'mov     rax, [rbp+png_ptr]'
p785
sg19
S'488b45b8'
p786
sg21
Vmov rax, qword ptr [rbp - 0x48]
p787
sg5
L55382L
sg6
Nsg23
S'mov'
p788
sg25
S'0xd856L'
p789
sg27
Nsba(ibclass
BInstr
p790
(dp791
g2
Nsg17
S'mov     rax, [rax+4E8h]'
p792
sg19
S'488b80e8040000'
p793
sg21
Vmov rax, qword ptr [rax + 0x4e8]
p794
sg5
L55386L
sg6
Nsg23
S'mov'
p795
sg25
S'0xd85aL'
p796
sg27
Nsba(ibclass
BInstr
p797
(dp798
g2
Nsg17
S'mov     [rbp+text], rax'
p799
sg19
S'488945d8'
p800
sg21
Vmov qword ptr [rbp - 0x28], rax
p801
sg5
L55393L
sg6
Nsg23
S'mov'
p802
sg25
S'0xd861L'
p803
sg27
Nsba(ibclass
BInstr
p804
(dp805
g2
Nsg17
S'jmp     short loc_D86C'
p806
sg19
S'eb05'
p807
sg21
Vjmp 7
p808
sg5
L55397L
sg6
Nsg23
S'jmp'
p809
sg25
S'0xd865L'
p810
sg27
Nsbasg119
(lp811
S'mov reg, mem'
p812
aS'mov reg, mem'
p813
aS'mov reg, mem'
p814
aS'add reg, reg'
p815
aS'mov mem, 0'
p816
aS'mov reg, mem'
p817
aS'mov reg, mem'
p818
aS'mov mem, reg'
p819
aS'jmp func'
p820
asg135
Nsg5
S'0xd841L'
p821
sg137
(lp822
S'0xd7d8L'
p823
asg6
Nsg139
(lp824
S'0xd86cL'
p825
asg143
Nsg144
Nsg145
S'9a9f669a54097281c474a5df7716743b'
p826
sg147
S'd5d1b92638ce1a040c2d7f2154c0e7e9'
p827
sg149
(lp828
g753
ag760
ag767
ag774
ag781
ag788
ag795
ag802
ag809
asg151
Nsba(ibclass
BBasicBlock
p829
(dp830
g12
Nsg13
(lp831
(ibclass
BInstr
p832
(dp833
g2
Nsg17
S'add     [rbp+text], 1'
p834
sg19
S'488345d801'
p835
sg21
Vadd qword ptr [rbp - 0x28], 1
p836
sg5
L55399L
sg6
Nsg23
S'add'
p837
sg25
S'0xd867L'
p838
sg27
Nsbasg119
(lp839
S'add mem, 1'
p840
asg135
Nsg5
S'0xd867L'
p841
sg137
(lp842
S'0xd86cL'
p843
asg6
Nsg139
(lp844
S'0xd86cL'
p845
asg143
Nsg144
Nsg145
S'34ec78fcc91ffb1e54cd85e4a0924332'
p846
sg147
S'a96bc17fab599ee98a3ba3552917a0a2'
p847
sg149
(lp848
g837
asg151
Nsba(ibclass
BBasicBlock
p849
(dp850
g12
Nsg13
(lp851
(ibclass
BInstr
p852
(dp853
g2
Nsg17
S'mov     rax, [rbp+text]'
p854
sg19
S'488b45d8'
p855
sg21
Vmov rax, qword ptr [rbp - 0x28]
p856
sg5
L55404L
sg6
Nsg23
S'mov'
p857
sg25
S'0xd86cL'
p858
sg27
Nsba(ibclass
BInstr
p859
(dp860
g2
Nsg17
S'movzx   eax, byte ptr [rax]'
p861
sg19
S'0fb600'
p862
sg21
Vmovzx eax, byte ptr [rax]
p863
sg5
L55408L
sg6
Nsg23
S'movzx'
p864
sg25
S'0xd870L'
p865
sg27
Nsba(ibclass
BInstr
p866
(dp867
g2
Nsg17
S'test    al, al'
p868
sg19
S'84c0'
p869
sg21
Vtest al, al
p870
sg5
L55411L
sg6
Nsg23
S'test'
p871
sg25
S'0xd873L'
p872
sg27
Nsba(ibclass
BInstr
p873
(dp874
g2
Nsg17
S'jnz     short loc_D867'
p875
sg19
S'75f0'
p876
sg21
Vjne 0xfffffffffffffff2
p877
sg5
L55413L
sg6
Nsg23
S'jnz'
p878
sg25
S'0xd875L'
p879
sg27
Nsbasg119
(lp880
S'mov reg, mem'
p881
aS'movzx reg, mem'
p882
aS'test reg, reg'
p883
aS'jnz func'
p884
asg135
Nsg5
S'0xd86cL'
p885
sg137
(lp886
S'0xd841L'
p887
aS'0xd867L'
p888
asg6
Nsg139
(lp889
S'0xd867L'
p890
aS'0xd877L'
p891
asg143
Nsg144
Nsg145
S'b42736704bd2dfbd0ad28dae5fb30cbc'
p892
sg147
S'e105f449e966deec6f4287082047de7d'
p893
sg149
(lp894
g857
ag864
ag871
ag878
asg151
Nsba(ibclass
BBasicBlock
p895
(dp896
g12
Nsg13
(lp897
(ibclass
BInstr
p898
(dp899
g2
Nsg17
S'mov     rax, [rbp+png_ptr]'
p900
sg19
S'488b45b8'
p901
sg21
Vmov rax, qword ptr [rbp - 0x48]
p902
sg5
L55415L
sg6
Nsg23
S'mov'
p903
sg25
S'0xd877L'
p904
sg27
Nsba(ibclass
BInstr
p905
(dp906
g2
Nsg17
S'mov     rax, [rax+4E8h]'
p907
sg19
S'488b80e8040000'
p908
sg21
Vmov rax, qword ptr [rax + 0x4e8]
p909
sg5
L55419L
sg6
Nsg23
S'mov'
p910
sg25
S'0xd87bL'
p911
sg27
Nsba(ibclass
BInstr
p912
(dp913
g2
Nsg17
S'mov     rdx, [rbp+slength]'
p914
sg19
S'488b55e0'
p915
sg21
Vmov rdx, qword ptr [rbp - 0x20]
p916
sg5
L55426L
sg6
Nsg23
S'mov'
p917
sg25
S'0xd882L'
p918
sg27
Nsba(ibclass
BInstr
p919
(dp920
g2
Nsg17
S'sub     rdx, 2'
p921
sg19
S'4883ea02'
p922
sg21
Vsub rdx, 2
p923
sg5
L55430L
sg6
Nsg23
S'sub'
p924
sg25
S'0xd886L'
p925
sg27
Nsba(ibclass
BInstr
p926
(dp927
g2
Nsg17
S'add     rax, rdx'
p928
sg19
S'4801d0'
p929
sg21
Vadd rax, rdx
p930
sg5
L55434L
sg6
Nsg23
S'add'
p931
sg25
S'0xd88aL'
p932
sg27
Nsba(ibclass
BInstr
p933
(dp934
g2
Nsg17
S'cmp     rax, [rbp+text]'
p935
sg19
S'483b45d8'
p936
sg21
Vcmp rax, qword ptr [rbp - 0x28]
p937
sg5
L55437L
sg6
Nsg23
S'cmp'
p938
sg25
S'0xd88dL'
p939
sg27
Nsba(ibclass
BInstr
p940
(dp941
g2
Nsg17
S'ja      short loc_D8D4'
p942
sg19
S'7741'
p943
sg21
Vja 0x43
p944
sg5
L55441L
sg6
Nsg23
S'ja'
p945
sg25
S'0xd891L'
p946
sg27
Nsbasg119
(lp947
S'mov reg, mem'
p948
aS'mov reg, mem'
p949
aS'mov reg, mem'
p950
aS'sub reg, 2'
p951
aS'add reg, reg'
p952
aS'cmp reg, mem'
p953
aS'ja func'
p954
asg135
Nsg5
S'0xd877L'
p955
sg137
(lp956
S'0xd86cL'
p957
asg6
Nsg139
(lp958
S'0xd893L'
p959
aS'0xd8d4L'
p960
asg143
Nsg144
Nsg145
S'6a4f28e34dc79256053602b6dd1f7e5d'
p961
sg147
S'5c3d9a5aefebfc7befc86640d8f25015'
p962
sg149
(lp963
g903
ag910
ag917
ag924
ag931
ag938
ag945
asg151
Nsba(ibclass
BBasicBlock
p964
(dp965
g12
Nsg13
(lp966
(ibclass
BInstr
p967
(dp968
g2
Nsg17
S'mov     rax, [rbp+png_ptr]'
p969
sg19
S'488b45b8'
p970
sg21
Vmov rax, qword ptr [rbp - 0x48]
p971
sg5
L55443L
sg6
Nsg23
S'mov'
p972
sg25
S'0xd893L'
p973
sg27
Nsba(ibclass
BInstr
p974
(dp975
g2
Nsg17
S'lea     rsi, aTruncatedZtxtC; "Truncated zTXt chunk"'
p976
sg19
S'488d3507160200'
p977
sg21
Vlea rsi, [rip + 0x21607]
p978
sg5
L55447L
sg6
Nsg23
S'lea'
p979
sg25
S'0xd897L'
p980
sg27
Nsba(ibclass
BInstr
p981
(dp982
g2
Nsg17
S'mov     rdi, rax        ; png_ptr'
p983
sg19
S'4889c7'
p984
sg21
Vmov rdi, rax
p985
sg5
L55454L
sg6
Nsg23
S'mov'
p986
sg25
S'0xd89eL'
p987
sg27
Nsba(ibclass
BInstr
p988
(dp989
g2
Nsg17
S'call    _png_warning'
p990
sg19
S'e8da69ffff'
p991
sg21
Vcall 0xffffffffffff69df
p992
sg5
L55457L
sg6
Nsg23
S'call'
p993
sg25
S'0xd8a1L'
p994
sg27
Nsba(ibclass
BInstr
p995
(dp996
g2
Nsg17
S'mov     rax, [rbp+png_ptr]'
p997
sg19
S'488b45b8'
p998
sg21
Vmov rax, qword ptr [rbp - 0x48]
p999
sg5
L55462L
sg6
Nsg23
S'mov'
p1000
sg25
S'0xd8a6L'
p1001
sg27
Nsba(ibclass
BInstr
p1002
(dp1003
g2
Nsg17
S'mov     rdx, [rax+4E8h]'
p1004
sg19
S'488b90e8040000'
p1005
sg21
Vmov rdx, qword ptr [rax + 0x4e8]
p1006
sg5
L55466L
sg6
Nsg23
S'mov'
p1007
sg25
S'0xd8aaL'
p1008
sg27
Nsba(ibclass
BInstr
p1009
(dp1010
g2
Nsg17
S'mov     rax, [rbp+png_ptr]'
p1011
sg19
S'488b45b8'
p1012
sg21
Vmov rax, qword ptr [rbp - 0x48]
p1013
sg5
L55473L
sg6
Nsg23
S'mov'
p1014
sg25
S'0xd8b1L'
p1015
sg27
Nsba(ibclass
BInstr
p1016
(dp1017
g2
Nsg17
S'mov     rsi, rdx        ; ptr'
p1018
sg19
S'4889d6'
p1019
sg21
Vmov rsi, rdx
p1020
sg5
L55477L
sg6
Nsg23
S'mov'
p1021
sg25
S'0xd8b5L'
p1022
sg27
Nsba(ibclass
BInstr
p1023
(dp1024
g2
Nsg17
S'mov     rdi, rax        ; png_ptr'
p1025
sg19
S'4889c7'
p1026
sg21
Vmov rdi, rax
p1027
sg5
L55480L
sg6
Nsg23
S'mov'
p1028
sg25
S'0xd8b8L'
p1029
sg27
Nsba(ibclass
BInstr
p1030
(dp1031
g2
Nsg17
S'call    _png_free'
p1032
sg19
S'e8106dffff'
p1033
sg21
Vcall 0xffffffffffff6d15
p1034
sg5
L55483L
sg6
Nsg23
S'call'
p1035
sg25
S'0xd8bbL'
p1036
sg27
Nsba(ibclass
BInstr
p1037
(dp1038
g2
Nsg17
S'mov     rax, [rbp+png_ptr]'
p1039
sg19
S'488b45b8'
p1040
sg21
Vmov rax, qword ptr [rbp - 0x48]
p1041
sg5
L55488L
sg6
Nsg23
S'mov'
p1042
sg25
S'0xd8c0L'
p1043
sg27
Nsba(ibclass
BInstr
p1044
(dp1045
g2
Nsg17
S'mov     qword ptr [rax+4E8h], 0'
p1046
sg19
S'48c780e804000000000000'
p1047
sg21
Vmov qword ptr [rax + 0x4e8], 0
p1048
sg5
L55492L
sg6
Nsg23
S'mov'
p1049
sg25
S'0xd8c4L'
p1050
sg27
Nsba(ibclass
BInstr
p1051
(dp1052
g2
Nsg17
S'jmp     loc_DA52'
p1053
sg19
S'e97e010000'
p1054
sg21
Vjmp 0x183
p1055
sg5
L55503L
sg6
Nsg23
S'jmp'
p1056
sg25
S'0xd8cfL'
p1057
sg27
Nsbasg119
(lp1058
S'mov reg, mem'
p1059
aS'lea reg, aTruncatedZtxtC'
p1060
aS'mov reg, reg'
p1061
aS'cregl _png_warning'
p1062
aS'mov reg, mem'
p1063
aS'mov reg, mem'
p1064
aS'mov reg, mem'
p1065
aS'mov reg, reg'
p1066
aS'mov reg, reg'
p1067
aS'cregl _png_free'
p1068
aS'mov reg, mem'
p1069
aS'mov qmem, 0'
p1070
aS'jmp func'
p1071
asg135
Nsg5
S'0xd893L'
p1072
sg137
(lp1073
S'0xd877L'
p1074
asg6
Nsg139
(lp1075
S'0xda52L'
p1076
asg143
Nsg144
Nsg145
S'fe2c4a28004f2f8c85fb27de9f6f6fe0'
p1077
sg147
S'68a3c753f3f862f4ec1db581055b85ec'
p1078
sg149
(lp1079
g972
ag979
ag986
ag993
ag1000
ag1007
ag1014
ag1021
ag1028
ag1035
ag1042
ag1049
ag1056
asg151
Nsba(ibclass
BBasicBlock
p1080
(dp1081
g12
Nsg13
(lp1082
(ibclass
BInstr
p1083
(dp1084
g2
Nsg17
S'add     [rbp+text], 1'
p1085
sg19
S'488345d801'
p1086
sg21
Vadd qword ptr [rbp - 0x28], 1
p1087
sg5
L55508L
sg6
Nsg23
S'add'
p1088
sg25
S'0xd8d4L'
p1089
sg27
Nsba(ibclass
BInstr
p1090
(dp1091
g2
Nsg17
S'mov     rax, [rbp+text]'
p1092
sg19
S'488b45d8'
p1093
sg21
Vmov rax, qword ptr [rbp - 0x28]
p1094
sg5
L55513L
sg6
Nsg23
S'mov'
p1095
sg25
S'0xd8d9L'
p1096
sg27
Nsba(ibclass
BInstr
p1097
(dp1098
g2
Nsg17
S'movzx   eax, byte ptr [rax]'
p1099
sg19
S'0fb600'
p1100
sg21
Vmovzx eax, byte ptr [rax]
p1101
sg5
L55517L
sg6
Nsg23
S'movzx'
p1102
sg25
S'0xd8ddL'
p1103
sg27
Nsba(ibclass
BInstr
p1104
(dp1105
g2
Nsg17
S'movsx   eax, al'
p1106
sg19
S'0fbec0'
p1107
sg21
Vmovsx eax, al
p1108
sg5
L55520L
sg6
Nsg23
S'movsx'
p1109
sg25
S'0xd8e0L'
p1110
sg27
Nsba(ibclass
BInstr
p1111
(dp1112
g2
Nsg17
S'mov     [rbp+comp_type], eax'
p1113
sg19
S'8945c8'
p1114
sg21
Vmov dword ptr [rbp - 0x38], eax
p1115
sg5
L55523L
sg6
Nsg23
S'mov'
p1116
sg25
S'0xd8e3L'
p1117
sg27
Nsba(ibclass
BInstr
p1118
(dp1119
g2
Nsg17
S'cmp     [rbp+comp_type], 0'
p1120
sg19
S'837dc800'
p1121
sg21
Vcmp dword ptr [rbp - 0x38], 0
p1122
sg5
L55526L
sg6
Nsg23
S'cmp'
p1123
sg25
S'0xd8e6L'
p1124
sg27
Nsba(ibclass
BInstr
p1125
(dp1126
g2
Nsg17
S'jz      short loc_D906'
p1127
sg19
S'741a'
p1128
sg21
Vje 0x1c
p1129
sg5
L55530L
sg6
Nsg23
S'jz'
p1130
sg25
S'0xd8eaL'
p1131
sg27
Nsbasg119
(lp1132
S'add mem, 1'
p1133
aS'mov reg, mem'
p1134
aS'movzx reg, mem'
p1135
aS'movsx reg, reg'
p1136
aS'mov mem, reg'
p1137
aS'cmp mem, 0'
p1138
aS'jz func'
p1139
asg135
Nsg5
S'0xd8d4L'
p1140
sg137
(lp1141
S'0xd877L'
p1142
asg6
Nsg139
(lp1143
S'0xd8ecL'
p1144
aS'0xd906L'
p1145
asg143
Nsg144
Nsg145
S'a53ddabde2d72d659c3dbe766335aa08'
p1146
sg147
S'0f9342b35aed5c41bc3e0902044c894b'
p1147
sg149
(lp1148
g1088
ag1095
ag1102
ag1109
ag1116
ag1123
ag1130
asg151
Nsba(ibclass
BBasicBlock
p1149
(dp1150
g12
Nsg13
(lp1151
(ibclass
BInstr
p1152
(dp1153
g2
Nsg17
S'mov     rax, [rbp+png_ptr]'
p1154
sg19
S'488b45b8'
p1155
sg21
Vmov rax, qword ptr [rbp - 0x48]
p1156
sg5
L55532L
sg6
Nsg23
S'mov'
p1157
sg25
S'0xd8ecL'
p1158
sg27
Nsba(ibclass
BInstr
p1159
(dp1160
g2
Nsg17
S'lea     rsi, aUnknownCompr_0; "Unknown compression type in zTXt chunk"'
p1161
sg19
S'488d35c9150200'
p1162
sg21
Vlea rsi, [rip + 0x215c9]
p1163
sg5
L55536L
sg6
Nsg23
S'lea'
p1164
sg25
S'0xd8f0L'
p1165
sg27
Nsba(ibclass
BInstr
p1166
(dp1167
g2
Nsg17
S'mov     rdi, rax        ; png_ptr'
p1168
sg19
S'4889c7'
p1169
sg21
Vmov rdi, rax
p1170
sg5
L55543L
sg6
Nsg23
S'mov'
p1171
sg25
S'0xd8f7L'
p1172
sg27
Nsba(ibclass
BInstr
p1173
(dp1174
g2
Nsg17
S'call    _png_warning'
p1175
sg19
S'e88169ffff'
p1176
sg21
Vcall 0xffffffffffff6986
p1177
sg5
L55546L
sg6
Nsg23
S'call'
p1178
sg25
S'0xd8faL'
p1179
sg27
Nsba(ibclass
BInstr
p1180
(dp1181
g2
Nsg17
S'mov     [rbp+comp_type], 0'
p1182
sg19
S'c745c800000000'
p1183
sg21
Vmov dword ptr [rbp - 0x38], 0
p1184
sg5
L55551L
sg6
Nsg23
S'mov'
p1185
sg25
S'0xd8ffL'
p1186
sg27
Nsbasg119
(lp1187
S'mov reg, mem'
p1188
aS'lea reg, aUnknownCompr_0'
p1189
aS'mov reg, reg'
p1190
aS'cregl _png_warning'
p1191
aS'mov mem, 0'
p1192
asg135
Nsg5
S'0xd8ecL'
p1193
sg137
(lp1194
S'0xd8d4L'
p1195
asg6
Nsg139
(lp1196
S'0xd906L'
p1197
asg143
Nsg144
Nsg145
S'5b3fbe0c8ab849a6fb39145154a37e5a'
p1198
sg147
S'6c601a96c0c327a5ca97af348f4ed167'
p1199
sg149
(lp1200
g1157
ag1164
ag1171
ag1178
ag1185
asg151
Nsba(ibclass
BBasicBlock
p1201
(dp1202
g12
Nsg13
(lp1203
(ibclass
BInstr
p1204
(dp1205
g2
Nsg17
S'add     [rbp+text], 1'
p1206
sg19
S'488345d801'
p1207
sg21
Vadd qword ptr [rbp - 0x28], 1
p1208
sg5
L55558L
sg6
Nsg23
S'add'
p1209
sg25
S'0xd906L'
p1210
sg27
Nsba(ibclass
BInstr
p1211
(dp1212
g2
Nsg17
S'mov     rdx, [rbp+text]'
p1213
sg19
S'488b55d8'
p1214
sg21
Vmov rdx, qword ptr [rbp - 0x28]
p1215
sg5
L55563L
sg6
Nsg23
S'mov'
p1216
sg25
S'0xd90bL'
p1217
sg27
Nsba(ibclass
BInstr
p1218
(dp1219
g2
Nsg17
S'mov     rax, [rbp+png_ptr]'
p1220
sg19
S'488b45b8'
p1221
sg21
Vmov rax, qword ptr [rbp - 0x48]
p1222
sg5
L55567L
sg6
Nsg23
S'mov'
p1223
sg25
S'0xd90fL'
p1224
sg27
Nsba(ibclass
BInstr
p1225
(dp1226
g2
Nsg17
S'mov     rax, [rax+4E8h]'
p1227
sg19
S'488b80e8040000'
p1228
sg21
Vmov rax, qword ptr [rax + 0x4e8]
p1229
sg5
L55571L
sg6
Nsg23
S'mov'
p1230
sg25
S'0xd913L'
p1231
sg27
Nsba(ibclass
BInstr
p1232
(dp1233
g2
Nsg17
S'sub     rdx, rax'
p1234
sg19
S'4829c2'
p1235
sg21
Vsub rdx, rax
p1236
sg5
L55578L
sg6
Nsg23
S'sub'
p1237
sg25
S'0xd91aL'
p1238
sg27
Nsba(ibclass
BInstr
p1239
(dp1240
g2
Nsg17
S'mov     rax, rdx'
p1241
sg19
S'4889d0'
p1242
sg21
Vmov rax, rdx
p1243
sg5
L55581L
sg6
Nsg23
S'mov'
p1244
sg25
S'0xd91dL'
p1245
sg27
Nsba(ibclass
BInstr
p1246
(dp1247
g2
Nsg17
S'mov     [rbp+prefix_len], rax'
p1248
sg19
S'488945e8'
p1249
sg21
Vmov qword ptr [rbp - 0x18], rax
p1250
sg5
L55584L
sg6
Nsg23
S'mov'
p1251
sg25
S'0xd920L'
p1252
sg27
Nsba(ibclass
BInstr
p1253
(dp1254
g2
Nsg17
S'lea     rdi, [rbp+data_len]'
p1255
sg19
S'488d7dd0'
p1256
sg21
Vlea rdi, [rbp - 0x30]
p1257
sg5
L55588L
sg6
Nsg23
S'lea'
p1258
sg25
S'0xd924L'
p1259
sg27
Nsba(ibclass
BInstr
p1260
(dp1261
g2
Nsg17
S'mov     rcx, [rbp+prefix_len]; prefix_size'
p1262
sg19
S'488b4de8'
p1263
sg21
Vmov rcx, qword ptr [rbp - 0x18]
p1264
sg5
L55592L
sg6
Nsg23
S'mov'
p1265
sg25
S'0xd928L'
p1266
sg27
Nsba(ibclass
BInstr
p1267
(dp1268
g2
Nsg17
S'mov     rdx, [rbp+length]; chunklength'
p1269
sg19
S'488b55a8'
p1270
sg21
Vmov rdx, qword ptr [rbp - 0x58]
p1271
sg5
L55596L
sg6
Nsg23
S'mov'
p1272
sg25
S'0xd92cL'
p1273
sg27
Nsba(ibclass
BInstr
p1274
(dp1275
g2
Nsg17
S'mov     esi, [rbp+comp_type]; comp_type'
p1276
sg19
S'8b75c8'
p1277
sg21
Vmov esi, dword ptr [rbp - 0x38]
p1278
sg5
L55600L
sg6
Nsg23
S'mov'
p1279
sg25
S'0xd930L'
p1280
sg27
Nsba(ibclass
BInstr
p1281
(dp1282
g2
Nsg17
S'mov     rax, [rbp+png_ptr]'
p1283
sg19
S'488b45b8'
p1284
sg21
Vmov rax, qword ptr [rbp - 0x48]
p1285
sg5
L55603L
sg6
Nsg23
S'mov'
p1286
sg25
S'0xd933L'
p1287
sg27
Nsba(ibclass
BInstr
p1288
(dp1289
g2
Nsg17
S'mov     r8, rdi         ; newlength'
p1290
sg19
S'4989f8'
p1291
sg21
Vmov r8, rdi
p1292
sg5
L55607L
sg6
Nsg23
S'mov'
p1293
sg25
S'0xd937L'
p1294
sg27
Nsba(ibclass
BInstr
p1295
(dp1296
g2
Nsg17
S'mov     rdi, rax        ; png_ptr'
p1297
sg19
S'4889c7'
p1298
sg21
Vmov rdi, rax
p1299
sg5
L55610L
sg6
Nsg23
S'mov'
p1300
sg25
S'0xd93aL'
p1301
sg27
Nsba(ibclass
BInstr
p1302
(dp1303
g2
Nsg17
S'call    png_decompress_chunk'
p1304
sg19
S'e868beffff'
p1305
sg21
Vcall 0xffffffffffffbe6d
p1306
sg5
L55613L
sg6
Nsg23
S'call'
p1307
sg25
S'0xd93dL'
p1308
sg27
Nsba(ibclass
BInstr
p1309
(dp1310
g2
Nsg17
S'mov     rax, [rbp+png_ptr]'
p1311
sg19
S'488b45b8'
p1312
sg21
Vmov rax, qword ptr [rbp - 0x48]
p1313
sg5
L55618L
sg6
Nsg23
S'mov'
p1314
sg25
S'0xd942L'
p1315
sg27
Nsba(ibclass
BInstr
p1316
(dp1317
g2
Nsg17
S'mov     esi, 20h        ; size'
p1318
sg19
S'be20000000'
p1319
sg21
Vmov esi, 0x20
p1320
sg5
L55622L
sg6
Nsg23
S'mov'
p1321
sg25
S'0xd946L'
p1322
sg27
Nsba(ibclass
BInstr
p1323
(dp1324
g2
Nsg17
S'mov     rdi, rax        ; png_ptr'
p1325
sg19
S'4889c7'
p1326
sg21
Vmov rdi, rax
p1327
sg5
L55627L
sg6
Nsg23
S'mov'
p1328
sg25
S'0xd94bL'
p1329
sg27
Nsba(ibclass
BInstr
p1330
(dp1331
g2
Nsg17
S'call    _png_malloc_warn'
p1332
sg19
S'e82d67ffff'
p1333
sg21
Vcall 0xffffffffffff6732
p1334
sg5
L55630L
sg6
Nsg23
S'call'
p1335
sg25
S'0xd94eL'
p1336
sg27
Nsba(ibclass
BInstr
p1337
(dp1338
g2
Nsg17
S'mov     [rbp+text_ptr], rax'
p1339
sg19
S'488945f0'
p1340
sg21
Vmov qword ptr [rbp - 0x10], rax
p1341
sg5
L55635L
sg6
Nsg23
S'mov'
p1342
sg25
S'0xd953L'
p1343
sg27
Nsba(ibclass
BInstr
p1344
(dp1345
g2
Nsg17
S'cmp     [rbp+text_ptr], 0'
p1346
sg19
S'48837df000'
p1347
sg21
Vcmp qword ptr [rbp - 0x10], 0
p1348
sg5
L55639L
sg6
Nsg23
S'cmp'
p1349
sg25
S'0xd957L'
p1350
sg27
Nsba(ibclass
BInstr
p1351
(dp1352
g2
Nsg17
S'jnz     short loc_D99F'
p1353
sg19
S'7541'
p1354
sg21
Vjne 0x43
p1355
sg5
L55644L
sg6
Nsg23
S'jnz'
p1356
sg25
S'0xd95cL'
p1357
sg27
Nsbasg119
(lp1358
S'add mem, 1'
p1359
aS'mov reg, mem'
p1360
aS'mov reg, mem'
p1361
aS'mov reg, mem'
p1362
aS'sub reg, reg'
p1363
aS'mov reg, reg'
p1364
aS'mov mem, reg'
p1365
aS'lea reg, mem'
p1366
aS'mov reg, mem'
p1367
aS'mov reg, mem'
p1368
aS'mov reg, mem'
p1369
aS'mov reg, mem'
p1370
aS'mov reg, reg'
p1371
aS'mov reg, reg'
p1372
aS'cregl png_decompress_chunk'
p1373
aS'mov reg, mem'
p1374
aS'mov reg, 20h'
p1375
aS'mov reg, reg'
p1376
aS'cregl _png_mregloc_warn'
p1377
aS'mov mem, reg'
p1378
aS'cmp mem, 0'
p1379
aS'jnz func'
p1380
asg135
Nsg5
S'0xd906L'
p1381
sg137
(lp1382
S'0xd8d4L'
p1383
aS'0xd8ecL'
p1384
asg6
Nsg139
(lp1385
S'0xd95eL'
p1386
aS'0xd99fL'
p1387
asg143
Nsg144
Nsg145
S'baf706f94e35bae8fc2bbc56d5e6feb7'
p1388
sg147
S'56a3c86d3c617380fc036f7e6550c432'
p1389
sg149
(lp1390
g1209
ag1216
ag1223
ag1230
ag1237
ag1244
ag1251
ag1258
ag1265
ag1272
ag1279
ag1286
ag1293
ag1300
ag1307
ag1314
ag1321
ag1328
ag1335
ag1342
ag1349
ag1356
asg151
Nsba(ibclass
BBasicBlock
p1391
(dp1392
g12
Nsg13
(lp1393
(ibclass
BInstr
p1394
(dp1395
g2
Nsg17
S'mov     rax, [rbp+png_ptr]'
p1396
sg19
S'488b45b8'
p1397
sg21
Vmov rax, qword ptr [rbp - 0x48]
p1398
sg5
L55646L
sg6
Nsg23
S'mov'
p1399
sg25
S'0xd95eL'
p1400
sg27
Nsba(ibclass
BInstr
p1401
(dp1402
g2
Nsg17
S'lea     rsi, aNotEnoughMem_4; "Not enough memory to process zTXt chunk"...'
p1403
sg19
S'488d357f150200'
p1404
sg21
Vlea rsi, [rip + 0x2157f]
p1405
sg5
L55650L
sg6
Nsg23
S'lea'
p1406
sg25
S'0xd962L'
p1407
sg27
Nsba(ibclass
BInstr
p1408
(dp1409
g2
Nsg17
S'mov     rdi, rax        ; png_ptr'
p1410
sg19
S'4889c7'
p1411
sg21
Vmov rdi, rax
p1412
sg5
L55657L
sg6
Nsg23
S'mov'
p1413
sg25
S'0xd969L'
p1414
sg27
Nsba(ibclass
BInstr
p1415
(dp1416
g2
Nsg17
S'call    _png_warning'
p1417
sg19
S'e80f69ffff'
p1418
sg21
Vcall 0xffffffffffff6914
p1419
sg5
L55660L
sg6
Nsg23
S'call'
p1420
sg25
S'0xd96cL'
p1421
sg27
Nsba(ibclass
BInstr
p1422
(dp1423
g2
Nsg17
S'mov     rax, [rbp+png_ptr]'
p1424
sg19
S'488b45b8'
p1425
sg21
Vmov rax, qword ptr [rbp - 0x48]
p1426
sg5
L55665L
sg6
Nsg23
S'mov'
p1427
sg25
S'0xd971L'
p1428
sg27
Nsba(ibclass
BInstr
p1429
(dp1430
g2
Nsg17
S'mov     rdx, [rax+4E8h]'
p1431
sg19
S'488b90e8040000'
p1432
sg21
Vmov rdx, qword ptr [rax + 0x4e8]
p1433
sg5
L55669L
sg6
Nsg23
S'mov'
p1434
sg25
S'0xd975L'
p1435
sg27
Nsba(ibclass
BInstr
p1436
(dp1437
g2
Nsg17
S'mov     rax, [rbp+png_ptr]'
p1438
sg19
S'488b45b8'
p1439
sg21
Vmov rax, qword ptr [rbp - 0x48]
p1440
sg5
L55676L
sg6
Nsg23
S'mov'
p1441
sg25
S'0xd97cL'
p1442
sg27
Nsba(ibclass
BInstr
p1443
(dp1444
g2
Nsg17
S'mov     rsi, rdx        ; ptr'
p1445
sg19
S'4889d6'
p1446
sg21
Vmov rsi, rdx
p1447
sg5
L55680L
sg6
Nsg23
S'mov'
p1448
sg25
S'0xd980L'
p1449
sg27
Nsba(ibclass
BInstr
p1450
(dp1451
g2
Nsg17
S'mov     rdi, rax        ; png_ptr'
p1452
sg19
S'4889c7'
p1453
sg21
Vmov rdi, rax
p1454
sg5
L55683L
sg6
Nsg23
S'mov'
p1455
sg25
S'0xd983L'
p1456
sg27
Nsba(ibclass
BInstr
p1457
(dp1458
g2
Nsg17
S'call    _png_free'
p1459
sg19
S'e8456cffff'
p1460
sg21
Vcall 0xffffffffffff6c4a
p1461
sg5
L55686L
sg6
Nsg23
S'call'
p1462
sg25
S'0xd986L'
p1463
sg27
Nsba(ibclass
BInstr
p1464
(dp1465
g2
Nsg17
S'mov     rax, [rbp+png_ptr]'
p1466
sg19
S'488b45b8'
p1467
sg21
Vmov rax, qword ptr [rbp - 0x48]
p1468
sg5
L55691L
sg6
Nsg23
S'mov'
p1469
sg25
S'0xd98bL'
p1470
sg27
Nsba(ibclass
BInstr
p1471
(dp1472
g2
Nsg17
S'mov     qword ptr [rax+4E8h], 0'
p1473
sg19
S'48c780e804000000000000'
p1474
sg21
Vmov qword ptr [rax + 0x4e8], 0
p1475
sg5
L55695L
sg6
Nsg23
S'mov'
p1476
sg25
S'0xd98fL'
p1477
sg27
Nsba(ibclass
BInstr
p1478
(dp1479
g2
Nsg17
S'jmp     loc_DA52'
p1480
sg19
S'e9b3000000'
p1481
sg21
Vjmp 0xb8
p1482
sg5
L55706L
sg6
Nsg23
S'jmp'
p1483
sg25
S'0xd99aL'
p1484
sg27
Nsbasg119
(lp1485
S'mov reg, mem'
p1486
aS'lea reg, aNotEnoughMem_4'
p1487
aS'mov reg, reg'
p1488
aS'cregl _png_warning'
p1489
aS'mov reg, mem'
p1490
aS'mov reg, mem'
p1491
aS'mov reg, mem'
p1492
aS'mov reg, reg'
p1493
aS'mov reg, reg'
p1494
aS'cregl _png_free'
p1495
aS'mov reg, mem'
p1496
aS'mov qmem, 0'
p1497
aS'jmp func'
p1498
asg135
Nsg5
S'0xd95eL'
p1499
sg137
(lp1500
S'0xd906L'
p1501
asg6
Nsg139
(lp1502
S'0xda52L'
p1503
asg143
Nsg144
Nsg145
S'fe2c4a28004f2f8c85fb27de9f6f6fe0'
p1504
sg147
S'f12d079b207ecbd4d029684e24cb2fdb'
p1505
sg149
(lp1506
g1399
ag1406
ag1413
ag1420
ag1427
ag1434
ag1441
ag1448
ag1455
ag1462
ag1469
ag1476
ag1483
asg151
Nsba(ibclass
BBasicBlock
p1507
(dp1508
g12
Nsg13
(lp1509
(ibclass
BInstr
p1510
(dp1511
g2
Nsg17
S'mov     rax, [rbp+text_ptr]'
p1512
sg19
S'488b45f0'
p1513
sg21
Vmov rax, qword ptr [rbp - 0x10]
p1514
sg5
L55711L
sg6
Nsg23
S'mov'
p1515
sg25
S'0xd99fL'
p1516
sg27
Nsba(ibclass
BInstr
p1517
(dp1518
g2
Nsg17
S'mov     edx, [rbp+comp_type]'
p1519
sg19
S'8b55c8'
p1520
sg21
Vmov edx, dword ptr [rbp - 0x38]
p1521
sg5
L55715L
sg6
Nsg23
S'mov'
p1522
sg25
S'0xd9a3L'
p1523
sg27
Nsba(ibclass
BInstr
p1524
(dp1525
g2
Nsg17
S'mov     [rax], edx'
p1526
sg19
S'8910'
p1527
sg21
Vmov dword ptr [rax], edx
p1528
sg5
L55718L
sg6
Nsg23
S'mov'
p1529
sg25
S'0xd9a6L'
p1530
sg27
Nsba(ibclass
BInstr
p1531
(dp1532
g2
Nsg17
S'mov     rax, [rbp+png_ptr]'
p1533
sg19
S'488b45b8'
p1534
sg21
Vmov rax, qword ptr [rbp - 0x48]
p1535
sg5
L55720L
sg6
Nsg23
S'mov'
p1536
sg25
S'0xd9a8L'
p1537
sg27
Nsba(ibclass
BInstr
p1538
(dp1539
g2
Nsg17
S'mov     rdx, [rax+4E8h]'
p1540
sg19
S'488b90e8040000'
p1541
sg21
Vmov rdx, qword ptr [rax + 0x4e8]
p1542
sg5
L55724L
sg6
Nsg23
S'mov'
p1543
sg25
S'0xd9acL'
p1544
sg27
Nsba(ibclass
BInstr
p1545
(dp1546
g2
Nsg17
S'mov     rax, [rbp+text_ptr]'
p1547
sg19
S'488b45f0'
p1548
sg21
Vmov rax, qword ptr [rbp - 0x10]
p1549
sg5
L55731L
sg6
Nsg23
S'mov'
p1550
sg25
S'0xd9b3L'
p1551
sg27
Nsba(ibclass
BInstr
p1552
(dp1553
g2
Nsg17
S'mov     [rax+8], rdx'
p1554
sg19
S'48895008'
p1555
sg21
Vmov qword ptr [rax + 8], rdx
p1556
sg5
L55735L
sg6
Nsg23
S'mov'
p1557
sg25
S'0xd9b7L'
p1558
sg27
Nsba(ibclass
BInstr
p1559
(dp1560
g2
Nsg17
S'mov     rax, [rbp+png_ptr]'
p1561
sg19
S'488b45b8'
p1562
sg21
Vmov rax, qword ptr [rbp - 0x48]
p1563
sg5
L55739L
sg6
Nsg23
S'mov'
p1564
sg25
S'0xd9bbL'
p1565
sg27
Nsba(ibclass
BInstr
p1566
(dp1567
g2
Nsg17
S'mov     rdx, [rax+4E8h]'
p1568
sg19
S'488b90e8040000'
p1569
sg21
Vmov rdx, qword ptr [rax + 0x4e8]
p1570
sg5
L55743L
sg6
Nsg23
S'mov'
p1571
sg25
S'0xd9bfL'
p1572
sg27
Nsba(ibclass
BInstr
p1573
(dp1574
g2
Nsg17
S'mov     rax, [rbp+prefix_len]'
p1575
sg19
S'488b45e8'
p1576
sg21
Vmov rax, qword ptr [rbp - 0x18]
p1577
sg5
L55750L
sg6
Nsg23
S'mov'
p1578
sg25
S'0xd9c6L'
p1579
sg27
Nsba(ibclass
BInstr
p1580
(dp1581
g2
Nsg17
S'add     rdx, rax'
p1582
sg19
S'4801c2'
p1583
sg21
Vadd rdx, rax
p1584
sg5
L55754L
sg6
Nsg23
S'add'
p1585
sg25
S'0xd9caL'
p1586
sg27
Nsba(ibclass
BInstr
p1587
(dp1588
g2
Nsg17
S'mov     rax, [rbp+text_ptr]'
p1589
sg19
S'488b45f0'
p1590
sg21
Vmov rax, qword ptr [rbp - 0x10]
p1591
sg5
L55757L
sg6
Nsg23
S'mov'
p1592
sg25
S'0xd9cdL'
p1593
sg27
Nsba(ibclass
BInstr
p1594
(dp1595
g2
Nsg17
S'mov     [rax+10h], rdx'
p1596
sg19
S'48895010'
p1597
sg21
Vmov qword ptr [rax + 0x10], rdx
p1598
sg5
L55761L
sg6
Nsg23
S'mov'
p1599
sg25
S'0xd9d1L'
p1600
sg27
Nsba(ibclass
BInstr
p1601
(dp1602
g2
Nsg17
S'mov     rdx, [rbp+data_len]'
p1603
sg19
S'488b55d0'
p1604
sg21
Vmov rdx, qword ptr [rbp - 0x30]
p1605
sg5
L55765L
sg6
Nsg23
S'mov'
p1606
sg25
S'0xd9d5L'
p1607
sg27
Nsba(ibclass
BInstr
p1608
(dp1609
g2
Nsg17
S'mov     rax, [rbp+text_ptr]'
p1610
sg19
S'488b45f0'
p1611
sg21
Vmov rax, qword ptr [rbp - 0x10]
p1612
sg5
L55769L
sg6
Nsg23
S'mov'
p1613
sg25
S'0xd9d9L'
p1614
sg27
Nsba(ibclass
BInstr
p1615
(dp1616
g2
Nsg17
S'mov     [rax+18h], rdx'
p1617
sg19
S'48895018'
p1618
sg21
Vmov qword ptr [rax + 0x18], rdx
p1619
sg5
L55773L
sg6
Nsg23
S'mov'
p1620
sg25
S'0xd9ddL'
p1621
sg27
Nsba(ibclass
BInstr
p1622
(dp1623
g2
Nsg17
S'mov     rdx, [rbp+text_ptr]; text_ptr'
p1624
sg19
S'488b55f0'
p1625
sg21
Vmov rdx, qword ptr [rbp - 0x10]
p1626
sg5
L55777L
sg6
Nsg23
S'mov'
p1627
sg25
S'0xd9e1L'
p1628
sg27
Nsba(ibclass
BInstr
p1629
(dp1630
g2
Nsg17
S'mov     rsi, [rbp+info_ptr]; info_ptr'
p1631
sg19
S'488b75b0'
p1632
sg21
Vmov rsi, qword ptr [rbp - 0x50]
p1633
sg5
L55781L
sg6
Nsg23
S'mov'
p1634
sg25
S'0xd9e5L'
p1635
sg27
Nsba(ibclass
BInstr
p1636
(dp1637
g2
Nsg17
S'mov     rax, [rbp+png_ptr]'
p1638
sg19
S'488b45b8'
p1639
sg21
Vmov rax, qword ptr [rbp - 0x48]
p1640
sg5
L55785L
sg6
Nsg23
S'mov'
p1641
sg25
S'0xd9e9L'
p1642
sg27
Nsba(ibclass
BInstr
p1643
(dp1644
g2
Nsg17
S'mov     ecx, 1          ; num_text'
p1645
sg19
S'b901000000'
p1646
sg21
Vmov ecx, 1
p1647
sg5
L55789L
sg6
Nsg23
S'mov'
p1648
sg25
S'0xd9edL'
p1649
sg27
Nsba(ibclass
BInstr
p1650
(dp1651
g2
Nsg17
S'mov     rdi, rax        ; png_ptr'
p1652
sg19
S'4889c7'
p1653
sg21
Vmov rdi, rax
p1654
sg5
L55794L
sg6
Nsg23
S'mov'
p1655
sg25
S'0xd9f2L'
p1656
sg27
Nsba(ibclass
BInstr
p1657
(dp1658
g2
Nsg17
S'call    png_set_text_2'
p1659
sg19
S'e88396ffff'
p1660
sg21
Vcall 0xffffffffffff9688
p1661
sg5
L55797L
sg6
Nsg23
S'call'
p1662
sg25
S'0xd9f5L'
p1663
sg27
Nsba(ibclass
BInstr
p1664
(dp1665
g2
Nsg17
S'mov     [rbp+ret], eax'
p1666
sg19
S'8945cc'
p1667
sg21
Vmov dword ptr [rbp - 0x34], eax
p1668
sg5
L55802L
sg6
Nsg23
S'mov'
p1669
sg25
S'0xd9faL'
p1670
sg27
Nsba(ibclass
BInstr
p1671
(dp1672
g2
Nsg17
S'mov     rdx, [rbp+text_ptr]'
p1673
sg19
S'488b55f0'
p1674
sg21
Vmov rdx, qword ptr [rbp - 0x10]
p1675
sg5
L55805L
sg6
Nsg23
S'mov'
p1676
sg25
S'0xd9fdL'
p1677
sg27
Nsba(ibclass
BInstr
p1678
(dp1679
g2
Nsg17
S'mov     rax, [rbp+png_ptr]'
p1680
sg19
S'488b45b8'
p1681
sg21
Vmov rax, qword ptr [rbp - 0x48]
p1682
sg5
L55809L
sg6
Nsg23
S'mov'
p1683
sg25
S'0xda01L'
p1684
sg27
Nsba(ibclass
BInstr
p1685
(dp1686
g2
Nsg17
S'mov     rsi, rdx        ; ptr'
p1687
sg19
S'4889d6'
p1688
sg21
Vmov rsi, rdx
p1689
sg5
L55813L
sg6
Nsg23
S'mov'
p1690
sg25
S'0xda05L'
p1691
sg27
Nsba(ibclass
BInstr
p1692
(dp1693
g2
Nsg17
S'mov     rdi, rax        ; png_ptr'
p1694
sg19
S'4889c7'
p1695
sg21
Vmov rdi, rax
p1696
sg5
L55816L
sg6
Nsg23
S'mov'
p1697
sg25
S'0xda08L'
p1698
sg27
Nsba(ibclass
BInstr
p1699
(dp1700
g2
Nsg17
S'call    _png_free'
p1701
sg19
S'e8c06bffff'
p1702
sg21
Vcall 0xffffffffffff6bc5
p1703
sg5
L55819L
sg6
Nsg23
S'call'
p1704
sg25
S'0xda0bL'
p1705
sg27
Nsba(ibclass
BInstr
p1706
(dp1707
g2
Nsg17
S'mov     rax, [rbp+png_ptr]'
p1708
sg19
S'488b45b8'
p1709
sg21
Vmov rax, qword ptr [rbp - 0x48]
p1710
sg5
L55824L
sg6
Nsg23
S'mov'
p1711
sg25
S'0xda10L'
p1712
sg27
Nsba(ibclass
BInstr
p1713
(dp1714
g2
Nsg17
S'mov     rdx, [rax+4E8h]'
p1715
sg19
S'488b90e8040000'
p1716
sg21
Vmov rdx, qword ptr [rax + 0x4e8]
p1717
sg5
L55828L
sg6
Nsg23
S'mov'
p1718
sg25
S'0xda14L'
p1719
sg27
Nsba(ibclass
BInstr
p1720
(dp1721
g2
Nsg17
S'mov     rax, [rbp+png_ptr]'
p1722
sg19
S'488b45b8'
p1723
sg21
Vmov rax, qword ptr [rbp - 0x48]
p1724
sg5
L55835L
sg6
Nsg23
S'mov'
p1725
sg25
S'0xda1bL'
p1726
sg27
Nsba(ibclass
BInstr
p1727
(dp1728
g2
Nsg17
S'mov     rsi, rdx        ; ptr'
p1729
sg19
S'4889d6'
p1730
sg21
Vmov rsi, rdx
p1731
sg5
L55839L
sg6
Nsg23
S'mov'
p1732
sg25
S'0xda1fL'
p1733
sg27
Nsba(ibclass
BInstr
p1734
(dp1735
g2
Nsg17
S'mov     rdi, rax        ; png_ptr'
p1736
sg19
S'4889c7'
p1737
sg21
Vmov rdi, rax
p1738
sg5
L55842L
sg6
Nsg23
S'mov'
p1739
sg25
S'0xda22L'
p1740
sg27
Nsba(ibclass
BInstr
p1741
(dp1742
g2
Nsg17
S'call    _png_free'
p1743
sg19
S'e8a66bffff'
p1744
sg21
Vcall 0xffffffffffff6bab
p1745
sg5
L55845L
sg6
Nsg23
S'call'
p1746
sg25
S'0xda25L'
p1747
sg27
Nsba(ibclass
BInstr
p1748
(dp1749
g2
Nsg17
S'mov     rax, [rbp+png_ptr]'
p1750
sg19
S'488b45b8'
p1751
sg21
Vmov rax, qword ptr [rbp - 0x48]
p1752
sg5
L55850L
sg6
Nsg23
S'mov'
p1753
sg25
S'0xda2aL'
p1754
sg27
Nsba(ibclass
BInstr
p1755
(dp1756
g2
Nsg17
S'mov     qword ptr [rax+4E8h], 0'
p1757
sg19
S'48c780e804000000000000'
p1758
sg21
Vmov qword ptr [rax + 0x4e8], 0
p1759
sg5
L55854L
sg6
Nsg23
S'mov'
p1760
sg25
S'0xda2eL'
p1761
sg27
Nsba(ibclass
BInstr
p1762
(dp1763
g2
Nsg17
S'cmp     [rbp+ret], 0'
p1764
sg19
S'837dcc00'
p1765
sg21
Vcmp dword ptr [rbp - 0x34], 0
p1766
sg5
L55865L
sg6
Nsg23
S'cmp'
p1767
sg25
S'0xda39L'
p1768
sg27
Nsba(ibclass
BInstr
p1769
(dp1770
g2
Nsg17
S'jz      short loc_DA52'
p1771
sg19
S'7413'
p1772
sg21
Vje 0x15
p1773
sg5
L55869L
sg6
Nsg23
S'jz'
p1774
sg25
S'0xda3dL'
p1775
sg27
Nsbasg119
(lp1776
S'mov reg, mem'
p1777
aS'mov reg, mem'
p1778
aS'mov mem, reg'
p1779
aS'mov reg, mem'
p1780
aS'mov reg, mem'
p1781
aS'mov reg, mem'
p1782
aS'mov mem, reg'
p1783
aS'mov reg, mem'
p1784
aS'mov reg, mem'
p1785
aS'mov reg, mem'
p1786
aS'add reg, reg'
p1787
aS'mov reg, mem'
p1788
aS'mov mem, reg'
p1789
aS'mov reg, mem'
p1790
aS'mov reg, mem'
p1791
aS'mov mem, reg'
p1792
aS'mov reg, mem'
p1793
aS'mov reg, mem'
p1794
aS'mov reg, mem'
p1795
aS'mov reg, 1'
p1796
aS'mov reg, reg'
p1797
aS'cregl png_set_text_2'
p1798
aS'mov mem, reg'
p1799
aS'mov reg, mem'
p1800
aS'mov reg, mem'
p1801
aS'mov reg, reg'
p1802
aS'mov reg, reg'
p1803
aS'cregl _png_free'
p1804
aS'mov reg, mem'
p1805
aS'mov reg, mem'
p1806
aS'mov reg, mem'
p1807
aS'mov reg, reg'
p1808
aS'mov reg, reg'
p1809
aS'cregl _png_free'
p1810
aS'mov reg, mem'
p1811
aS'mov qmem, 0'
p1812
aS'cmp mem, 0'
p1813
aS'jz func'
p1814
asg135
Nsg5
S'0xd99fL'
p1815
sg137
(lp1816
S'0xd906L'
p1817
asg6
Nsg139
(lp1818
S'0xda3fL'
p1819
aS'0xda52L'
p1820
asg143
Nsg144
Nsg145
S'0dc5c7c98bf0386771db5942c13b6c7c'
p1821
sg147
S'4e0de2a077519f038adc68fe59844fa9'
p1822
sg149
(lp1823
g1515
ag1522
ag1529
ag1536
ag1543
ag1550
ag1557
ag1564
ag1571
ag1578
ag1585
ag1592
ag1599
ag1606
ag1613
ag1620
ag1627
ag1634
ag1641
ag1648
ag1655
ag1662
ag1669
ag1676
ag1683
ag1690
ag1697
ag1704
ag1711
ag1718
ag1725
ag1732
ag1739
ag1746
ag1753
ag1760
ag1767
ag1774
asg151
Nsba(ibclass
BBasicBlock
p1824
(dp1825
g12
Nsg13
(lp1826
(ibclass
BInstr
p1827
(dp1828
g2
Nsg17
S'mov     rax, [rbp+png_ptr]'
p1829
sg19
S'488b45b8'
p1830
sg21
Vmov rax, qword ptr [rbp - 0x48]
p1831
sg5
L55871L
sg6
Nsg23
S'mov'
p1832
sg25
S'0xda3fL'
p1833
sg27
Nsba(ibclass
BInstr
p1834
(dp1835
g2
Nsg17
S'lea     rsi, aInsufficient_8; "Insufficient memory to store zTXt chunk"...'
p1836
sg19
S'488d35ce140200'
p1837
sg21
Vlea rsi, [rip + 0x214ce]
p1838
sg5
L55875L
sg6
Nsg23
S'lea'
p1839
sg25
S'0xda43L'
p1840
sg27
Nsba(ibclass
BInstr
p1841
(dp1842
g2
Nsg17
S'mov     rdi, rax        ; png_ptr'
p1843
sg19
S'4889c7'
p1844
sg21
Vmov rdi, rax
p1845
sg5
L55882L
sg6
Nsg23
S'mov'
p1846
sg25
S'0xda4aL'
p1847
sg27
Nsba(ibclass
BInstr
p1848
(dp1849
g2
Nsg17
S'call    _png_error'
p1850
sg19
S'e8ce68ffff'
p1851
sg21
Vcall 0xffffffffffff68d3
p1852
sg5
L55885L
sg6
Nsg23
S'call'
p1853
sg25
S'0xda4dL'
p1854
sg27
Nsbasg119
(lp1855
S'mov reg, mem'
p1856
aS'lea reg, aInsufficient_8'
p1857
aS'mov reg, reg'
p1858
aS'cregl _png_error'
p1859
asg135
Nsg5
S'0xda3fL'
p1860
sg137
(lp1861
S'0xd99fL'
p1862
asg6
Nsg139
(lp1863
S'0xda52L'
p1864
asg143
Nsg144
Nsg145
S'1ff1d2d71609163b08177d9b5938648d'
p1865
sg147
S'45d7729590dbda8c98247b70bf5e341e'
p1866
sg149
(lp1867
g1832
ag1839
ag1846
ag1853
asg151
Nsba(ibclass
BBasicBlock
p1868
(dp1869
g12
Nsg13
(lp1870
(ibclass
BInstr
p1871
(dp1872
g2
Nsg17
S'mov     rax, [rbp+var_8]'
p1873
sg19
S'488b45f8'
p1874
sg21
Vmov rax, qword ptr [rbp - 8]
p1875
sg5
L55890L
sg6
Nsg23
S'mov'
p1876
sg25
S'0xda52L'
p1877
sg27
Nsba(ibclass
BInstr
p1878
(dp1879
g2
Nsg17
S'xor     rax, fs:28h'
p1880
sg19
S'644833042528000000'
p1881
sg21
Vxor rax, qword ptr fs:[0x28]
p1882
sg5
L55894L
sg6
Nsg23
S'xor'
p1883
sg25
S'0xda56L'
p1884
sg27
Nsba(ibclass
BInstr
p1885
(dp1886
g2
Nsg17
S'jz      short locret_DA66'
p1887
sg19
S'7405'
p1888
sg21
Vje 7
p1889
sg5
L55903L
sg6
Nsg23
S'jz'
p1890
sg25
S'0xda5fL'
p1891
sg27
Nsbasg119
(lp1892
S'mov reg, mem'
p1893
aS'xor reg, fs:28h'
p1894
aS'jz short func'
p1895
asg135
Nsg5
S'0xda52L'
p1896
sg137
(lp1897
S'0xd7c0L'
p1898
aS'0xd813L'
p1899
aS'0xd893L'
p1900
aS'0xd95eL'
p1901
aS'0xd99fL'
p1902
aS'0xda3fL'
p1903
asg6
Nsg139
(lp1904
S'0xda61L'
p1905
aS'0xda66L'
p1906
asg143
Nsg144
Nsg145
S'81354ac238b6424b069ead35b2072afc'
p1907
sg147
S'd17531f88b7fe391cec4b57881664cc8'
p1908
sg149
(lp1909
g1876
ag1883
ag1890
asg151
Nsba(ibclass
BBasicBlock
p1910
(dp1911
g12
Nsg13
(lp1912
(ibclass
BInstr
p1913
(dp1914
g2
Nsg17
S'call    ___stack_chk_fail'
p1915
sg19
S'e82a67ffff'
p1916
sg21
Vcall 0xffffffffffff672f
p1917
sg5
L55905L
sg6
Nsg23
S'call'
p1918
sg25
S'0xda61L'
p1919
sg27
Nsbasg119
(lp1920
S'cregl ___stack_chk_fail'
p1921
asg135
Nsg5
S'0xda61L'
p1922
sg137
(lp1923
S'0xda52L'
p1924
asg6
Nsg139
(lp1925
sg143
Nsg144
Nsg145
S'53b9e9679a8ea25880376080b76f98ad'
p1926
sg147
S'b0e41e96f3af1c18acdc4d294190c1a3'
p1927
sg149
(lp1928
g1918
asg151
Nsba(ibclass
BBasicBlock
p1929
(dp1930
g12
Nsg13
(lp1931
(ibclass
BInstr
p1932
(dp1933
g2
Nsg17
S'leave'
p1934
sg19
S'c9'
p1935
sg21
Vleave 
p1936
sg5
L55910L
sg6
Nsg23
S'leave'
p1937
sg25
S'0xda66L'
p1938
sg27
Nsba(ibclass
BInstr
p1939
(dp1940
g2
Nsg17
S'retn'
p1941
sg19
S'c3'
p1942
sg21
Vret 
p1943
sg5
L55911L
sg6
Nsg23
S'retn'
p1944
sg25
S'0xda67L'
p1945
sg27
Nsbasg119
(lp1946
g1934
ag1941
asg135
Nsg5
S'0xda66L'
p1947
sg137
(lp1948
S'0xda52L'
p1949
asg6
Nsg139
(lp1950
sg143
Nsg144
Nsg145
S'08c78f73a6f87c85da88b2982f54ce2a'
p1951
sg147
S'08c78f73a6f87c85da88b2982f54ce2a'
p1952
sg149
(lp1953
g1937
ag1944
asg151
Nsbasb.