(ibclass
BFunc
p0
(dp1
S'hash'
p2
NsS'name'
p3
S'png_set_tIME'
p4
sS'start_address'
p5
L30029L
sS'flag'
p6
NsS'program'
p7
NsS'bbs'
p8
(lp9
(ibclass
BBasicBlock
p10
(dp11
S'function'
p12
NsS'binstrs'
p13
(lp14
(ibclass
BInstr
p15
(dp16
g2
NsS'disasm'
p17
S'push    rbp'
p18
sS'bytes'
p19
S'55'
p20
sS'disasm_striped'
p21
Vpush rbp
p22
sg5
L30029L
sg6
NsS'mnem'
p23
S'push'
p24
sS'address'
p25
S'0x754dL'
p26
sS'basicblock'
p27
Nsba(ibclass
BInstr
p28
(dp29
g2
Nsg17
S'mov     rbp, rsp'
p30
sg19
S'4889e5'
p31
sg21
Vmov rbp, rsp
p32
sg5
L30030L
sg6
Nsg23
S'mov'
p33
sg25
S'0x754eL'
p34
sg27
Nsba(ibclass
BInstr
p35
(dp36
g2
Nsg17
S'mov     [rbp+png_ptr], rdi'
p37
sg19
S'48897df8'
p38
sg21
Vmov qword ptr [rbp - 8], rdi
p39
sg5
L30033L
sg6
Nsg23
S'mov'
p40
sg25
S'0x7551L'
p41
sg27
Nsba(ibclass
BInstr
p42
(dp43
g2
Nsg17
S'mov     [rbp+info_ptr], rsi'
p44
sg19
S'488975f0'
p45
sg21
Vmov qword ptr [rbp - 0x10], rsi
p46
sg5
L30037L
sg6
Nsg23
S'mov'
p47
sg25
S'0x7555L'
p48
sg27
Nsba(ibclass
BInstr
p49
(dp50
g2
Nsg17
S'mov     [rbp+mod_time], rdx'
p51
sg19
S'488955e8'
p52
sg21
Vmov qword ptr [rbp - 0x18], rdx
p53
sg5
L30041L
sg6
Nsg23
S'mov'
p54
sg25
S'0x7559L'
p55
sg27
Nsba(ibclass
BInstr
p56
(dp57
g2
Nsg17
S'cmp     [rbp+png_ptr], 0'
p58
sg19
S'48837df800'
p59
sg21
Vcmp qword ptr [rbp - 8], 0
p60
sg5
L30045L
sg6
Nsg23
S'cmp'
p61
sg25
S'0x755dL'
p62
sg27
Nsba(ibclass
BInstr
p63
(dp64
g2
Nsg17
S'jz      short loc_75AA'
p65
sg19
S'7446'
p66
sg21
Vje 0x48
p67
sg5
L30050L
sg6
Nsg23
S'jz'
p68
sg25
S'0x7562L'
p69
sg27
NsbasS'disasm_list'
p70
(lp71
S'push reg'
p72
aS'mov reg, reg'
p73
aS'mov mem, reg'
p74
aS'mov mem, reg'
p75
aS'mov mem, reg'
p76
aS'cmp mem, 0'
p77
aS'jz func'
p78
asS'end_address'
p79
Nsg5
S'0x754dL'
p80
sS'preds'
p81
(lp82
sg6
NsS'succs'
p83
(lp84
S'0x7564L'
p85
aS'0x75aaL'
p86
asS'hash_v3'
p87
NsS'flag_v2'
p88
NsS'hash_v1'
p89
S'41bed6ba86ea21705f1e50ca15283b26'
p90
sS'hash_v2'
p91
S'a900aa2cd3be552d32f21577e07076f5'
p92
sS'mnen_list'
p93
(lp94
g24
ag33
ag40
ag47
ag54
ag61
ag68
asS'neighbour_disasm_list'
p95
Nsba(ibclass
BBasicBlock
p96
(dp97
g12
Nsg13
(lp98
(ibclass
BInstr
p99
(dp100
g2
Nsg17
S'cmp     [rbp+info_ptr], 0'
p101
sg19
S'48837df000'
p102
sg21
Vcmp qword ptr [rbp - 0x10], 0
p103
sg5
L30052L
sg6
Nsg23
S'cmp'
p104
sg25
S'0x7564L'
p105
sg27
Nsba(ibclass
BInstr
p106
(dp107
g2
Nsg17
S'jz      short loc_75AA'
p108
sg19
S'743f'
p109
sg21
Vje 0x41
p110
sg5
L30057L
sg6
Nsg23
S'jz'
p111
sg25
S'0x7569L'
p112
sg27
Nsbasg70
(lp113
S'cmp mem, 0'
p114
aS'jz func'
p115
asg79
Nsg5
S'0x7564L'
p116
sg81
(lp117
S'0x754dL'
p118
asg6
Nsg83
(lp119
S'0x756bL'
p120
aS'0x75aaL'
p121
asg87
Nsg88
Nsg89
S'613dbc2b0cb9d6264d802b24d709daea'
p122
sg91
S'7f4ecf78254be39f53e7a11cedd080e9'
p123
sg93
(lp124
g104
ag111
asg95
Nsba(ibclass
BBasicBlock
p125
(dp126
g12
Nsg13
(lp127
(ibclass
BInstr
p128
(dp129
g2
Nsg17
S'mov     rax, [rbp+png_ptr]'
p130
sg19
S'488b45f8'
p131
sg21
Vmov rax, qword ptr [rbp - 8]
p132
sg5
L30059L
sg6
Nsg23
S'mov'
p133
sg25
S'0x756bL'
p134
sg27
Nsba(ibclass
BInstr
p135
(dp136
g2
Nsg17
S'mov     rax, [rax+118h]'
p137
sg19
S'488b8018010000'
p138
sg21
Vmov rax, qword ptr [rax + 0x118]
p139
sg5
L30063L
sg6
Nsg23
S'mov'
p140
sg25
S'0x756fL'
p141
sg27
Nsba(ibclass
BInstr
p142
(dp143
g2
Nsg17
S'and     eax, 200h'
p144
sg19
S'2500020000'
p145
sg21
Vand eax, 0x200
p146
sg5
L30070L
sg6
Nsg23
S'and'
p147
sg25
S'0x7576L'
p148
sg27
Nsba(ibclass
BInstr
p149
(dp150
g2
Nsg17
S'test    rax, rax'
p151
sg19
S'4885c0'
p152
sg21
Vtest rax, rax
p153
sg5
L30075L
sg6
Nsg23
S'test'
p154
sg25
S'0x757bL'
p155
sg27
Nsba(ibclass
BInstr
p156
(dp157
g2
Nsg17
S'jnz     short loc_75AA'
p158
sg19
S'752a'
p159
sg21
Vjne 0x2c
p160
sg5
L30078L
sg6
Nsg23
S'jnz'
p161
sg25
S'0x757eL'
p162
sg27
Nsbasg70
(lp163
S'mov reg, mem'
p164
aS'mov reg, mem'
p165
aS'and reg, 200h'
p166
aS'test reg, reg'
p167
aS'jnz func'
p168
asg79
Nsg5
S'0x756bL'
p169
sg81
(lp170
S'0x7564L'
p171
asg6
Nsg83
(lp172
S'0x7580L'
p173
aS'0x75aaL'
p174
asg87
Nsg88
Nsg89
S'fe77119e0ecc4ec4d34e9ca05ee3b9d9'
p175
sg91
S'd5dddaf0bb14693e1c36f0d78c240c12'
p176
sg93
(lp177
g133
ag140
ag147
ag154
ag161
asg95
Nsba(ibclass
BBasicBlock
p178
(dp179
g12
Nsg13
(lp180
(ibclass
BInstr
p181
(dp182
g2
Nsg17
S'mov     rax, [rbp+info_ptr]'
p183
sg19
S'488b45f0'
p184
sg21
Vmov rax, qword ptr [rbp - 0x10]
p185
sg5
L30080L
sg6
Nsg23
S'mov'
p186
sg25
S'0x7580L'
p187
sg27
Nsba(ibclass
BInstr
p188
(dp189
g2
Nsg17
S'lea     rdx, [rax+58h]'
p190
sg19
S'488d5058'
p191
sg21
Vlea rdx, [rax + 0x58]
p192
sg5
L30084L
sg6
Nsg23
S'lea'
p193
sg25
S'0x7584L'
p194
sg27
Nsba(ibclass
BInstr
p195
(dp196
g2
Nsg17
S'mov     rax, [rbp+mod_time]'
p197
sg19
S'488b45e8'
p198
sg21
Vmov rax, qword ptr [rbp - 0x18]
p199
sg5
L30088L
sg6
Nsg23
S'mov'
p200
sg25
S'0x7588L'
p201
sg27
Nsba(ibclass
BInstr
p202
(dp203
g2
Nsg17
S'mov     rax, [rax]'
p204
sg19
S'488b00'
p205
sg21
Vmov rax, qword ptr [rax]
p206
sg5
L30092L
sg6
Nsg23
S'mov'
p207
sg25
S'0x758cL'
p208
sg27
Nsba(ibclass
BInstr
p209
(dp210
g2
Nsg17
S'mov     [rdx], rax'
p211
sg19
S'488902'
p212
sg21
Vmov qword ptr [rdx], rax
p213
sg5
L30095L
sg6
Nsg23
S'mov'
p214
sg25
S'0x758fL'
p215
sg27
Nsba(ibclass
BInstr
p216
(dp217
g2
Nsg17
S'mov     rax, [rbp+info_ptr]'
p218
sg19
S'488b45f0'
p219
sg21
Vmov rax, qword ptr [rbp - 0x10]
p220
sg5
L30098L
sg6
Nsg23
S'mov'
p221
sg25
S'0x7592L'
p222
sg27
Nsba(ibclass
BInstr
p223
(dp224
g2
Nsg17
S'mov     rax, [rax+10h]'
p225
sg19
S'488b4010'
p226
sg21
Vmov rax, qword ptr [rax + 0x10]
p227
sg5
L30102L
sg6
Nsg23
S'mov'
p228
sg25
S'0x7596L'
p229
sg27
Nsba(ibclass
BInstr
p230
(dp231
g2
Nsg17
S'or      ah, 2'
p232
sg19
S'80cc02'
p233
sg21
Vor ah, 2
p234
sg5
L30106L
sg6
Nsg23
S'or'
p235
sg25
S'0x759aL'
p236
sg27
Nsba(ibclass
BInstr
p237
(dp238
g2
Nsg17
S'mov     rdx, rax'
p239
sg19
S'4889c2'
p240
sg21
Vmov rdx, rax
p241
sg5
L30109L
sg6
Nsg23
S'mov'
p242
sg25
S'0x759dL'
p243
sg27
Nsba(ibclass
BInstr
p244
(dp245
g2
Nsg17
S'mov     rax, [rbp+info_ptr]'
p246
sg19
S'488b45f0'
p247
sg21
Vmov rax, qword ptr [rbp - 0x10]
p248
sg5
L30112L
sg6
Nsg23
S'mov'
p249
sg25
S'0x75a0L'
p250
sg27
Nsba(ibclass
BInstr
p251
(dp252
g2
Nsg17
S'mov     [rax+10h], rdx'
p253
sg19
S'48895010'
p254
sg21
Vmov qword ptr [rax + 0x10], rdx
p255
sg5
L30116L
sg6
Nsg23
S'mov'
p256
sg25
S'0x75a4L'
p257
sg27
Nsba(ibclass
BInstr
p258
(dp259
g2
Nsg17
S'jmp     short loc_75AB'
p260
sg19
S'eb01'
p261
sg21
Vjmp 3
p262
sg5
L30120L
sg6
Nsg23
S'jmp'
p263
sg25
S'0x75a8L'
p264
sg27
Nsbasg70
(lp265
S'mov reg, mem'
p266
aS'lea reg, mem'
p267
aS'mov reg, mem'
p268
aS'mov reg, mem'
p269
aS'mov mem, reg'
p270
aS'mov reg, mem'
p271
aS'mov reg, mem'
p272
aS'or ah, 2'
p273
aS'mov reg, reg'
p274
aS'mov reg, mem'
p275
aS'mov mem, reg'
p276
aS'jmp func'
p277
asg79
Nsg5
S'0x7580L'
p278
sg81
(lp279
S'0x756bL'
p280
asg6
Nsg83
(lp281
S'0x75abL'
p282
asg87
Nsg88
Nsg89
S'fe5f742db5012ef93a848048d32242aa'
p283
sg91
S'3b0590238c70163128e7e711e0e49f2c'
p284
sg93
(lp285
g186
ag193
ag200
ag207
ag214
ag221
ag228
ag235
ag242
ag249
ag256
ag263
asg95
Nsba(ibclass
BBasicBlock
p286
(dp287
g12
Nsg13
(lp288
(ibclass
BInstr
p289
(dp290
g2
Nsg17
S'nop'
p291
sg19
S'90'
p292
sg21
Vnop 
p293
sg5
L30122L
sg6
Nsg23
S'nop'
p294
sg25
S'0x75aaL'
p295
sg27
Nsbasg70
(lp296
g291
asg79
Nsg5
S'0x75aaL'
p297
sg81
(lp298
S'0x754dL'
p299
aS'0x7564L'
p300
aS'0x756bL'
p301
asg6
Nsg83
(lp302
S'0x75abL'
p303
asg87
Nsg88
Nsg89
S'a571d969c8661fb0342afd08e571dfa0'
p304
sg91
S'a571d969c8661fb0342afd08e571dfa0'
p305
sg93
(lp306
g294
asg95
Nsba(ibclass
BBasicBlock
p307
(dp308
g12
Nsg13
(lp309
(ibclass
BInstr
p310
(dp311
g2
Nsg17
S'pop     rbp'
p312
sg19
S'5d'
p313
sg21
Vpop rbp
p314
sg5
L30123L
sg6
Nsg23
S'pop'
p315
sg25
S'0x75abL'
p316
sg27
Nsba(ibclass
BInstr
p317
(dp318
g2
Nsg17
S'retn'
p319
sg19
S'c3'
p320
sg21
Vret 
p321
sg5
L30124L
sg6
Nsg23
S'retn'
p322
sg25
S'0x75acL'
p323
sg27
Nsbasg70
(lp324
S'pop reg'
p325
ag319
asg79
Nsg5
S'0x75abL'
p326
sg81
(lp327
S'0x7580L'
p328
aS'0x75aaL'
p329
asg6
Nsg83
(lp330
sg87
Nsg88
Nsg89
S'959e63ef7de005c3fd9b9535d382f6e9'
p331
sg91
S'df18ccc3a463eb745e1dbccf1a3cede3'
p332
sg93
(lp333
g315
ag322
asg95
Nsbasb.