(ibclass
BFunc
p0
(dp1
S'hash'
p2
NsS'name'
p3
S'doapr_outch'
p4
sS'start_address'
p5
L811544L
sS'flag'
p6
NsS'program'
p7
NsS'bbs'
p8
(lp9
(ibclass
BBasicBlock
p10
(dp11
S'function'
p12
NsS'binstrs'
p13
(lp14
(ibclass
BInstr
p15
(dp16
g2
NsS'disasm'
p17
S'LDR     R12, =($_GLOBAL_OFFSET_TABLE_ - 0xC622C)'
p18
sS'bytes'
p19
S'14c19fe5'
p20
sS'disasm_striped'
p21
Vldr ip, [pc, #0x114]
p22
sg5
L811544L
sg6
NsS'mnem'
p23
S'LDR'
p24
sS'address'
p25
S'0xc6218L'
p26
sS'basicblock'
p27
Nsba(ibclass
BInstr
p28
(dp29
g2
Nsg17
S'STMFD   SP!, {maxlen-R11,LR}'
p30
sg19
S'f84f2de9'
p31
sg21
Vpush {r3, r4, r5, r6, r7, r8, sb, sl, fp, lr}
p32
sg5
L811548L
sg6
Nsg23
S'STM'
p33
sg25
S'0xc621cL'
p34
sg27
Nsba(ibclass
BInstr
p35
(dp36
g2
Nsg17
S'SUBS    R5, buffer, #0'
p37
sg19
S'005051e2'
p38
sg21
Vsubs r5, r1, #0
p39
sg5
L811552L
sg6
Nsg23
S'SUB'
p40
sg25
S'0xc6220L'
p41
sg27
Nsba(ibclass
BInstr
p42
(dp43
g2
Nsg17
S'ADD     R12, PC, R12 ; $_GLOBAL_OFFSET_TABLE_'
p44
sg19
S'0cc08fe0'
p45
sg21
Vadd ip, pc, ip
p46
sg5
L811556L
sg6
Nsg23
S'ADD'
p47
sg25
S'0xc6224L'
p48
sg27
Nsba(ibclass
BInstr
p49
(dp50
g2
Nsg17
S'MOV     R10, sbuffer'
p51
sg19
S'00a0a0e1'
p52
sg21
Vmov sl, r0
p53
sg5
L811560L
sg6
Nsg23
S'MOV'
p54
sg25
S'0xc6228L'
p55
sg27
Nsba(ibclass
BInstr
p56
(dp57
g2
Nsg17
S'MOV     R8, currlen'
p58
sg19
S'0280a0e1'
p59
sg21
Vmov r8, r2
p60
sg5
L811564L
sg6
Nsg23
S'MOV'
p61
sg25
S'0xc622cL'
p62
sg27
Nsba(ibclass
BInstr
p63
(dp64
g2
Nsg17
S'MOV     R6, R3'
p65
sg19
S'0360a0e1'
p66
sg21
Vmov r6, r3
p67
sg5
L811568L
sg6
Nsg23
S'MOV'
p68
sg25
S'0xc6230L'
p69
sg27
Nsba(ibclass
BInstr
p70
(dp71
g2
Nsg17
S'BEQ     loc_C6320'
p72
sg19
S'3900000a'
p73
sg21
Vbeq #0xec
p74
sg5
L811572L
sg6
Nsg23
S'B'
p75
sg25
S'0xc6234L'
p76
sg27
NsbasS'disasm_list'
p77
(lp78
S'LDR R12, =($_GLOBAL_OFFSET_TABLE_ - 0xC622C)'
p79
aS'STMFD SP!, {mreglen-R11,LR}'
p80
aS'SUBS R5, buffer, #0'
p81
aS'ADD R12, PC, R12'
p82
aS'MOV R10, sbuffer'
p83
aS'MOV R8, currlen'
p84
aS'MOV R6, R3'
p85
aS'BEQ func'
p86
asS'end_address'
p87
Nsg5
S'0xc6218L'
p88
sS'preds'
p89
(lp90
sg6
NsS'succs'
p91
(lp92
S'0xc6238L'
p93
aS'0xc6320L'
p94
asS'hash_v3'
p95
NsS'flag_v2'
p96
NsS'hash_v1'
p97
S'7a62d280ce0ce572535bacaa8449eeb4'
p98
sS'hash_v2'
p99
S'3b1ad467e1c3a18c4e9bb2ea25caf882'
p100
sS'mnen_list'
p101
(lp102
g24
ag33
ag40
ag47
ag54
ag61
ag68
ag75
asS'neighbour_disasm_list'
p103
Nsba(ibclass
BBasicBlock
p104
(dp105
g12
Nsg13
(lp106
(ibclass
BInstr
p107
(dp108
g2
Nsg17
S'LDR     R7, =(aB_print_c - 0x189000)'
p109
sg19
S'f8709fe5'
p110
sg21
Vldr r7, [pc, #0xf8]
p111
sg5
L811576L
sg6
Nsg23
S'LDR'
p112
sg25
S'0xc6238L'
p113
sg27
Nsba(ibclass
BInstr
p114
(dp115
g2
Nsg17
S'LDR     R2, [R2]'
p116
sg19
S'002092e5'
p117
sg21
Vldr r2, [r2]
p118
sg5
L811580L
sg6
Nsg23
S'LDR'
p119
sg25
S'0xc623cL'
p120
sg27
Nsba(ibclass
BInstr
p121
(dp122
g2
Nsg17
S'ADD     R7, R12, R7     ; "b_print.c"'
p123
sg19
S'07708ce0'
p124
sg21
Vadd r7, ip, r7
p125
sg5
L811584L
sg6
Nsg23
S'ADD'
p126
sg25
S'0xc6240L'
p127
sg27
Nsba(ibclass
BInstr
p128
(dp129
g2
Nsg17
S'MOV     R9, #0'
p130
sg19
S'0090a0e3'
p131
sg21
Vmov sb, #0
p132
sg5
L811588L
sg6
Nsg23
S'MOV'
p133
sg25
S'0xc6244L'
p134
sg27
Nsba(ibclass
BInstr
p135
(dp136
g2
Nsg17
S'MOV     R11, #0x400'
p137
sg19
S'01bba0e3'
p138
sg21
Vmov fp, #0x400
p139
sg5
L811592L
sg6
Nsg23
S'MOV'
p140
sg25
S'0xc6248L'
p141
sg27
Nsbasg77
(lp142
S'LDR R7, =(aB_print_c - address0)'
p143
aS'LDR R2, mem'
p144
aS'ADD R7, R12, R7'
p145
aS'MOV R9, #0'
p146
aS'MOV R11, #0x400'
p147
asg87
Nsg5
S'0xc6238L'
p148
sg89
(lp149
S'0xc6218L'
p150
asg6
Nsg91
(lp151
S'0xc624cL'
p152
asg95
Nsg96
Nsg97
S'ea566b9c1acd06645fb8663e31550d92'
p153
sg99
S'5c1cb66a9994b6ed8399939a39b2d9b2'
p154
sg101
(lp155
g112
ag119
ag126
ag133
ag140
asg103
Nsba(ibclass
BBasicBlock
p156
(dp157
g12
Nsg13
(lp158
(ibclass
BInstr
p159
(dp160
g2
Nsg17
S'LDR     R12, [maxlen]'
p161
sg19
S'00c096e5'
p162
sg21
Vldr ip, [r6]
p163
sg5
L811596L
sg6
Nsg23
S'LDR'
p164
sg25
S'0xc624cL'
p165
sg27
Nsba(ibclass
BInstr
p166
(dp167
g2
Nsg17
S'MOV     R0, R2'
p168
sg19
S'0200a0e1'
p169
sg21
Vmov r0, r2
p170
sg5
L811600L
sg6
Nsg23
S'MOV'
p171
sg25
S'0xc6250L'
p172
sg27
Nsba(ibclass
BInstr
p173
(dp174
g2
Nsg17
S'ADD     R4, R12, #0x400'
p175
sg19
S'014b8ce2'
p176
sg21
Vadd r4, ip, #0x400
p177
sg5
L811604L
sg6
Nsg23
S'ADD'
p178
sg25
S'0xc6254L'
p179
sg27
Nsba(ibclass
BInstr
p180
(dp181
g2
Nsg17
S'CMP     R0, R12'
p182
sg19
S'0c0050e1'
p183
sg21
Vcmp r0, ip
p184
sg5
L811608L
sg6
Nsg23
S'CMP'
p185
sg25
S'0xc6258L'
p186
sg27
Nsba(ibclass
BInstr
p187
(dp188
g2
Nsg17
S'MOV     R1, R4          ; num'
p189
sg19
S'0410a0e1'
p190
sg21
Vmov r1, r4
p191
sg5
L811612L
sg6
Nsg23
S'MOV'
p192
sg25
S'0xc625cL'
p193
sg27
Nsba(ibclass
BInstr
p194
(dp195
g2
Nsg17
S'MOV     R2, R7          ; file'
p196
sg19
S'0720a0e1'
p197
sg21
Vmov r2, r7
p198
sg5
L811616L
sg6
Nsg23
S'MOV'
p199
sg25
S'0xc6260L'
p200
sg27
Nsba(ibclass
BInstr
p201
(dp202
g2
Nsg17
S'LDR     R3, =0x2D3      ; line'
p203
sg19
S'd0309fe5'
p204
sg21
Vldr r3, [pc, #0xd0]
p205
sg5
L811620L
sg6
Nsg23
S'LDR'
p206
sg25
S'0xc6264L'
p207
sg27
Nsba(ibclass
BInstr
p208
(dp209
g2
Nsg17
S'BCC     loc_C62A8'
p210
sg19
S'0e00003a'
p211
sg21
Vblo #0x40
p212
sg5
L811624L
sg6
Nsg23
g75
sg25
S'0xc6268L'
p213
sg27
Nsbasg77
(lp214
S'LDR R12, mem'
p215
aS'MOV R0, R2'
p216
aS'ADD R4, R12, #0x400'
p217
aS'CMP R0, R12'
p218
aS'MOV R1, R4'
p219
aS'MOV R2, R7'
p220
aS'LDR R3, =0x2D3'
p221
aS'BCC func'
p222
asg87
Nsg5
S'0xc624cL'
p223
sg89
(lp224
S'0xc6238L'
p225
aS'0xc62dcL'
p226
aS'0xc630cL'
p227
asg6
Nsg91
(lp228
S'0xc626cL'
p229
aS'0xc62a8L'
p230
asg95
Nsg96
Nsg97
S'1426611a79e1d18f89a4cbc56f74ce1b'
p231
sg99
S'd5a6dcf0392ea2ea36945afe370b3c69'
p232
sg101
(lp233
g164
ag171
ag178
ag185
ag192
ag199
ag206
ag75
asg103
Nsba(ibclass
BBasicBlock
p234
(dp235
g12
Nsg13
(lp236
(ibclass
BInstr
p237
(dp238
g2
Nsg17
S'LDR     LR, [buffer]'
p239
sg19
S'00e095e5'
p240
sg21
Vldr lr, [r5]
p241
sg5
L811628L
sg6
Nsg23
S'LDR'
p242
sg25
S'0xc626cL'
p243
sg27
Nsba(ibclass
BInstr
p244
(dp245
g2
Nsg17
S'SUBS    R0, LR, #0      ; str'
p246
sg19
S'00005ee2'
p247
sg21
Vsubs r0, lr, #0
p248
sg5
L811632L
sg6
Nsg23
S'SUB'
p249
sg25
S'0xc6270L'
p250
sg27
Nsba(ibclass
BInstr
p251
(dp252
g2
Nsg17
S'BEQ     loc_C62DC'
p253
sg19
S'1800000a'
p254
sg21
Vbeq #0x68
p255
sg5
L811636L
sg6
Nsg23
g75
sg25
S'0xc6274L'
p256
sg27
Nsbasg77
(lp257
S'LDR LR, mem'
p258
aS'SUBS R0, LR, #0'
p259
aS'BEQ func'
p260
asg87
Nsg5
S'0xc626cL'
p261
sg89
(lp262
S'0xc624cL'
p263
aS'0xc6278L'
p264
asg6
Nsg91
(lp265
S'0xc6278L'
p266
aS'0xc62dcL'
p267
asg95
Nsg96
Nsg97
S'820b15fcde477f2625db3d91ed8bc8c3'
p268
sg99
S'3ad1b99bcbc3ada3f61378bc7f65bcc0'
p269
sg101
(lp270
g242
ag249
ag75
asg103
Nsba(ibclass
BBasicBlock
p271
(dp272
g12
Nsg13
(lp273
(ibclass
BInstr
p274
(dp275
g2
Nsg17
S'STR     R4, [maxlen]'
p276
sg19
S'004086e5'
p277
sg21
Vstr r4, [r6]
p278
sg5
L811640L
sg6
Nsg23
S'STR'
p279
sg25
S'0xc6278L'
p280
sg27
Nsba(ibclass
BInstr
p281
(dp282
g2
Nsg17
S'BL      CRYPTO_realloc'
p283
sg19
S'cf01feeb'
p284
sg21
Vbl #0xfff80744
p285
sg5
L811644L
sg6
Nsg23
S'BL'
p286
sg25
S'0xc627cL'
p287
sg27
Nsba(ibclass
BInstr
p288
(dp289
g2
Nsg17
S'LDR     R2, [currlen]'
p290
sg19
S'002098e5'
p291
sg21
Vldr r2, [r8]
p292
sg5
L811648L
sg6
Nsg23
S'LDR'
p293
sg25
S'0xc6280L'
p294
sg27
Nsba(ibclass
BInstr
p295
(dp296
g2
Nsg17
S'LDR     R12, [maxlen]'
p297
sg19
S'00c096e5'
p298
sg21
Vldr ip, [r6]
p299
sg5
L811652L
sg6
Nsg23
S'LDR'
p300
sg25
S'0xc6284L'
p301
sg27
Nsba(ibclass
BInstr
p302
(dp303
g2
Nsg17
S'STR     R0, [buffer]'
p304
sg19
S'000085e5'
p305
sg21
Vstr r0, [r5]
p306
sg5
L811656L
sg6
Nsg23
S'STR'
p307
sg25
S'0xc6288L'
p308
sg27
Nsba(ibclass
BInstr
p309
(dp310
g2
Nsg17
S'MOV     R0, R2'
p311
sg19
S'0200a0e1'
p312
sg21
Vmov r0, r2
p313
sg5
L811660L
sg6
Nsg23
S'MOV'
p314
sg25
S'0xc628cL'
p315
sg27
Nsba(ibclass
BInstr
p316
(dp317
g2
Nsg17
S'ADD     R4, R12, #0x400'
p318
sg19
S'014b8ce2'
p319
sg21
Vadd r4, ip, #0x400
p320
sg5
L811664L
sg6
Nsg23
S'ADD'
p321
sg25
S'0xc6290L'
p322
sg27
Nsba(ibclass
BInstr
p323
(dp324
g2
Nsg17
S'CMP     R0, R12'
p325
sg19
S'0c0050e1'
p326
sg21
Vcmp r0, ip
p327
sg5
L811668L
sg6
Nsg23
S'CMP'
p328
sg25
S'0xc6294L'
p329
sg27
Nsba(ibclass
BInstr
p330
(dp331
g2
Nsg17
S'MOV     R1, R4'
p332
sg19
S'0410a0e1'
p333
sg21
Vmov r1, r4
p334
sg5
L811672L
sg6
Nsg23
S'MOV'
p335
sg25
S'0xc6298L'
p336
sg27
Nsba(ibclass
BInstr
p337
(dp338
g2
Nsg17
S'MOV     R2, R7'
p339
sg19
S'0720a0e1'
p340
sg21
Vmov r2, r7
p341
sg5
L811676L
sg6
Nsg23
S'MOV'
p342
sg25
S'0xc629cL'
p343
sg27
Nsba(ibclass
BInstr
p344
(dp345
g2
Nsg17
S'LDR     R3, =0x2D3'
p346
sg19
S'94309fe5'
p347
sg21
Vldr r3, [pc, #0x94]
p348
sg5
L811680L
sg6
Nsg23
S'LDR'
p349
sg25
S'0xc62a0L'
p350
sg27
Nsba(ibclass
BInstr
p351
(dp352
g2
Nsg17
S'BCS     loc_C626C'
p353
sg19
S'f0ffff2a'
p354
sg21
Vbhs #0xffffffc8
p355
sg5
L811684L
sg6
Nsg23
g75
sg25
S'0xc62a4L'
p356
sg27
Nsbasg77
(lp357
S'STR R4, mem'
p358
aS'BL CRYPTO_reregloc'
p359
aS'LDR R2, mem'
p360
aS'LDR R12, mem'
p361
aS'STR R0, mem'
p362
aS'MOV R0, R2'
p363
aS'ADD R4, R12, #0x400'
p364
aS'CMP R0, R12'
p365
aS'MOV R1, R4'
p366
aS'MOV R2, R7'
p367
aS'LDR R3, =0x2D3'
p368
aS'BCS func'
p369
asg87
Nsg5
S'0xc6278L'
p370
sg89
(lp371
S'0xc626cL'
p372
asg6
Nsg91
(lp373
S'0xc626cL'
p374
aS'0xc62a8L'
p375
asg95
Nsg96
Nsg97
S'91a93a6747393f29b15981bbe1410185'
p376
sg99
S'd486b5ae7ba6d70873cc5dc29e876c43'
p377
sg101
(lp378
g279
ag286
ag293
ag300
ag307
ag314
ag321
ag328
ag335
ag342
ag349
ag75
asg103
Nsba(ibclass
BBasicBlock
p379
(dp380
g12
Nsg13
(lp381
(ibclass
BInstr
p382
(dp383
g2
Nsg17
S'LDR     R3, [sbuffer]'
p384
sg19
S'00309ae5'
p385
sg21
Vldr r3, [sl]
p386
sg5
L811688L
sg6
Nsg23
S'LDR'
p387
sg25
S'0xc62a8L'
p388
sg27
Nsba(ibclass
BInstr
p389
(dp390
g2
Nsg17
S'CMP     R3, #0'
p391
sg19
S'000053e3'
p392
sg21
Vcmp r3, #0
p393
sg5
L811692L
sg6
Nsg23
S'CMP'
p394
sg25
S'0xc62acL'
p395
sg27
Nsba(ibclass
BInstr
p396
(dp397
g2
Nsg17
S'LDRNE   R1, [SP,#0x28+c]'
p398
sg19
S'28109d15'
p399
sg21
Vldrne r1, [sp, #0x28]
p400
sg5
L811696L
sg6
Nsg23
S'LDR'
p401
sg25
S'0xc62b0L'
p402
sg27
Nsba(ibclass
BInstr
p403
(dp404
g2
Nsg17
S'LDREQ   R1, [SP,#0x28+c]'
p405
sg19
S'28109d05'
p406
sg21
Vldreq r1, [sp, #0x28]
p407
sg5
L811700L
sg6
Nsg23
S'LDR'
p408
sg25
S'0xc62b4L'
p409
sg27
Nsba(ibclass
BInstr
p410
(dp411
g2
Nsg17
S'LDREQ   R2, [buffer]'
p412
sg19
S'00209505'
p413
sg21
Vldreq r2, [r5]
p414
sg5
L811704L
sg6
Nsg23
S'LDR'
p415
sg25
S'0xc62b8L'
p416
sg27
Nsba(ibclass
BInstr
p417
(dp418
g2
Nsg17
S'ADDNE   R2, R0, #1'
p419
sg19
S'01208012'
p420
sg21
Vaddne r2, r0, #1
p421
sg5
L811708L
sg6
Nsg23
S'ADD'
p422
sg25
S'0xc62bcL'
p423
sg27
Nsba(ibclass
BInstr
p424
(dp425
g2
Nsg17
S'ADDEQ   R3, R0, #1'
p426
sg19
S'01308002'
p427
sg21
Vaddeq r3, r0, #1
p428
sg5
L811712L
sg6
Nsg23
S'ADD'
p429
sg25
S'0xc62c0L'
p430
sg27
Nsba(ibclass
BInstr
p431
(dp432
g2
Nsg17
S'STRNEB  R1, [R3,R0]'
p433
sg19
S'0010c317'
p434
sg21
Vstrbne r1, [r3, r0]
p435
sg5
L811716L
sg6
Nsg23
S'STR'
p436
sg25
S'0xc62c4L'
p437
sg27
Nsba(ibclass
BInstr
p438
(dp439
g2
Nsg17
S'STREQB  R1, [R2,R0]'
p440
sg19
S'0010c207'
p441
sg21
Vstrbeq r1, [r2, r0]
p442
sg5
L811720L
sg6
Nsg23
S'STR'
p443
sg25
S'0xc62c8L'
p444
sg27
Nsba(ibclass
BInstr
p445
(dp446
g2
Nsg17
S'STRNE   R2, [currlen]'
p447
sg19
S'00208815'
p448
sg21
Vstrne r2, [r8]
p449
sg5
L811724L
sg6
Nsg23
S'STR'
p450
sg25
S'0xc62ccL'
p451
sg27
Nsba(ibclass
BInstr
p452
(dp453
g2
Nsg17
S'STREQ   R3, [currlen]'
p454
sg19
S'00308805'
p455
sg21
Vstreq r3, [r8]
p456
sg5
L811728L
sg6
Nsg23
S'STR'
p457
sg25
S'0xc62d0L'
p458
sg27
Nsbasg77
(lp459
S'LDR R3, mem'
p460
aS'CMP R3, #0'
p461
aS'LDRNE R1, mem'
p462
aS'LDREQ R1, mem'
p463
aS'LDREQ R2, mem'
p464
aS'ADDNE R2, R0, #1'
p465
aS'ADDEQ R3, R0, #1'
p466
aS'STRNEB R1, mem'
p467
aS'STREQB R1, mem'
p468
aS'STRNE R2, mem'
p469
aS'STREQ R3, mem'
p470
asg87
Nsg5
S'0xc62a8L'
p471
sg89
(lp472
S'0xc624cL'
p473
aS'0xc6278L'
p474
aS'0xc6330L'
p475
asg6
Nsg91
(lp476
S'0xc62d4L'
p477
asg95
Nsg96
Nsg97
S'7aa22c1c427cb749011d430f7b4d21ed'
p478
sg99
S'1377941d8f325d4d7ba21aa29ea339a6'
p479
sg101
(lp480
g387
ag394
ag401
ag408
ag415
ag422
ag429
ag436
ag443
ag450
ag457
asg103
Nsba(ibclass
BBasicBlock
p481
(dp482
g12
Nsg13
(lp483
(ibclass
BInstr
p484
(dp485
g2
Nsg17
S'LDMFD   SP!, {R3-R11,LR}'
p486
sg19
S'f84fbde8'
p487
sg21
Vpop {r3, r4, r5, r6, r7, r8, sb, sl, fp, lr}
p488
sg5
L811732L
sg6
Nsg23
S'LDM'
p489
sg25
S'0xc62d4L'
p490
sg27
Nsba(ibclass
BInstr
p491
(dp492
g2
Nsg17
S'BX      LR'
p493
sg19
S'1eff2fe1'
p494
sg21
Vbx lr
p495
sg5
L811736L
sg6
Nsg23
S'BX'
p496
sg25
S'0xc62d8L'
p497
sg27
Nsbasg77
(lp498
S'LDMFD SP!, {R3-R11,LR}'
p499
aS'BX LR'
p500
asg87
Nsg5
S'0xc62d4L'
p501
sg89
(lp502
S'0xc62a8L'
p503
aS'0xc6320L'
p504
asg6
Nsg91
(lp505
sg95
Nsg96
Nsg97
S'1bbf04f23edc7b30d215c55a7294459f'
p506
sg99
S'e1e1d40e8722409ae01d9ff009231128'
p507
sg101
(lp508
g489
ag496
asg103
Nsba(ibclass
BBasicBlock
p509
(dp510
g12
Nsg13
(lp511
(ibclass
BInstr
p512
(dp513
g2
Nsg17
S'CMP     R12, #0'
p514
sg19
S'00005ce3'
p515
sg21
Vcmp ip, #0
p516
sg5
L811740L
sg6
Nsg23
S'CMP'
p517
sg25
S'0xc62dcL'
p518
sg27
Nsba(ibclass
BInstr
p519
(dp520
g2
Nsg17
S'MOVNE   R0, R12'
p521
sg19
S'0c00a011'
p522
sg21
Vmovne r0, ip
p523
sg5
L811744L
sg6
Nsg23
S'MOV'
p524
sg25
S'0xc62e0L'
p525
sg27
Nsba(ibclass
BInstr
p526
(dp527
g2
Nsg17
S'STREQ   R11, [maxlen]'
p528
sg19
S'00b08605'
p529
sg21
Vstreq fp, [r6]
p530
sg5
L811748L
sg6
Nsg23
S'STR'
p531
sg25
S'0xc62e4L'
p532
sg27
Nsba(ibclass
BInstr
p533
(dp534
g2
Nsg17
S'MOVEQ   R0, R11         ; num'
p535
sg19
S'0b00a001'
p536
sg21
Vmoveq r0, fp
p537
sg5
L811752L
sg6
Nsg23
S'MOV'
p538
sg25
S'0xc62e8L'
p539
sg27
Nsba(ibclass
BInstr
p540
(dp541
g2
Nsg17
S'LDR     R2, =0x2CB      ; line'
p542
sg19
S'4c209fe5'
p543
sg21
Vldr r2, [pc, #0x4c]
p544
sg5
L811756L
sg6
Nsg23
S'LDR'
p545
sg25
S'0xc62ecL'
p546
sg27
Nsba(ibclass
BInstr
p547
(dp548
g2
Nsg17
S'MOV     R1, R7          ; file'
p549
sg19
S'0710a0e1'
p550
sg21
Vmov r1, r7
p551
sg5
L811760L
sg6
Nsg23
S'MOV'
p552
sg25
S'0xc62f0L'
p553
sg27
Nsba(ibclass
BInstr
p554
(dp555
g2
Nsg17
S'BL      CRYPTO_malloc'
p556
sg19
S'7201feeb'
p557
sg21
Vbl #0xfff805d0
p558
sg5
L811764L
sg6
Nsg23
S'BL'
p559
sg25
S'0xc62f4L'
p560
sg27
Nsba(ibclass
BInstr
p561
(dp562
g2
Nsg17
S'LDR     R2, [currlen]   ; n'
p563
sg19
S'002098e5'
p564
sg21
Vldr r2, [r8]
p565
sg5
L811768L
sg6
Nsg23
S'LDR'
p566
sg25
S'0xc62f8L'
p567
sg27
Nsba(ibclass
BInstr
p568
(dp569
g2
Nsg17
S'STR     R0, [buffer]'
p570
sg19
S'000085e5'
p571
sg21
Vstr r0, [r5]
p572
sg5
L811772L
sg6
Nsg23
S'STR'
p573
sg25
S'0xc62fcL'
p574
sg27
Nsba(ibclass
BInstr
p575
(dp576
g2
Nsg17
S'CMP     R2, #0'
p577
sg19
S'000052e3'
p578
sg21
Vcmp r2, #0
p579
sg5
L811776L
sg6
Nsg23
S'CMP'
p580
sg25
S'0xc6300L'
p581
sg27
Nsba(ibclass
BInstr
p582
(dp583
g2
Nsg17
S'STREQ   R9, [sbuffer]'
p584
sg19
S'00908a05'
p585
sg21
Vstreq sb, [sl]
p586
sg5
L811780L
sg6
Nsg23
S'STR'
p587
sg25
S'0xc6304L'
p588
sg27
Nsba(ibclass
BInstr
p589
(dp590
g2
Nsg17
S'BEQ     loc_C624C'
p591
sg19
S'cfffff0a'
p592
sg21
Vbeq #0xffffff44
p593
sg5
L811784L
sg6
Nsg23
g75
sg25
S'0xc6308L'
p594
sg27
Nsbasg77
(lp595
S'CMP R12, #0'
p596
aS'MOVNE R0, R12'
p597
aS'STREQ R11, mem'
p598
aS'MOVEQ R0, R11'
p599
aS'LDR R2, =0x2CB'
p600
aS'MOV R1, R7'
p601
aS'BL CRYPTO_mregloc'
p602
aS'LDR R2, mem'
p603
aS'STR R0, mem'
p604
aS'CMP R2, #0'
p605
aS'STREQ R9, mem'
p606
aS'BEQ func'
p607
asg87
Nsg5
S'0xc62dcL'
p608
sg89
(lp609
S'0xc626cL'
p610
asg6
Nsg91
(lp611
S'0xc624cL'
p612
aS'0xc630cL'
p613
asg95
Nsg96
Nsg97
S'379ef02318e3369ca4b9d1d7bd2047e5'
p614
sg99
S'74982ca4f810bc5121986b31130bbf31'
p615
sg101
(lp616
g517
ag524
ag531
ag538
ag545
ag552
ag559
ag566
ag573
ag580
ag587
ag75
asg103
Nsba(ibclass
BBasicBlock
p617
(dp618
g12
Nsg13
(lp619
(ibclass
BInstr
p620
(dp621
g2
Nsg17
S'LDR     R1, [sbuffer]   ; src'
p622
sg19
S'00109ae5'
p623
sg21
Vldr r1, [sl]
p624
sg5
L811788L
sg6
Nsg23
S'LDR'
p625
sg25
S'0xc630cL'
p626
sg27
Nsba(ibclass
BInstr
p627
(dp628
g2
Nsg17
S'BL      memcpy'
p629
sg19
S'6dfcfdeb'
p630
sg21
Vbl #0xfff7f1bc
p631
sg5
L811792L
sg6
Nsg23
S'BL'
p632
sg25
S'0xc6310L'
p633
sg27
Nsba(ibclass
BInstr
p634
(dp635
g2
Nsg17
S'LDR     R2, [currlen]'
p636
sg19
S'002098e5'
p637
sg21
Vldr r2, [r8]
p638
sg5
L811796L
sg6
Nsg23
S'LDR'
p639
sg25
S'0xc6314L'
p640
sg27
Nsba(ibclass
BInstr
p641
(dp642
g2
Nsg17
S'STR     R9, [sbuffer]'
p643
sg19
S'00908ae5'
p644
sg21
Vstr sb, [sl]
p645
sg5
L811800L
sg6
Nsg23
S'STR'
p646
sg25
S'0xc6318L'
p647
sg27
Nsba(ibclass
BInstr
p648
(dp649
g2
Nsg17
S'B       loc_C624C'
p650
sg19
S'caffffea'
p651
sg21
Vb #0xffffff30
p652
sg5
L811804L
sg6
Nsg23
g75
sg25
S'0xc631cL'
p653
sg27
Nsbasg77
(lp654
S'LDR R1, mem'
p655
aS'BL memcpy'
p656
aS'LDR R2, mem'
p657
aS'STR R9, mem'
p658
aS'B func'
p659
asg87
Nsg5
S'0xc630cL'
p660
sg89
(lp661
S'0xc62dcL'
p662
asg6
Nsg91
(lp663
S'0xc624cL'
p664
asg95
Nsg96
Nsg97
S'261269c32bce0205fd2c619340759169'
p665
sg99
S'91aa20f27fb0c5ac37837af8d03c4b3e'
p666
sg101
(lp667
g625
ag632
ag639
ag646
ag75
asg103
Nsba(ibclass
BBasicBlock
p668
(dp669
g12
Nsg13
(lp670
(ibclass
BInstr
p671
(dp672
g2
Nsg17
S'LDR     R3, [R3]'
p673
sg19
S'003093e5'
p674
sg21
Vldr r3, [r3]
p675
sg5
L811808L
sg6
Nsg23
S'LDR'
p676
sg25
S'0xc6320L'
p677
sg27
Nsba(ibclass
BInstr
p678
(dp679
g2
Nsg17
S'LDR     R0, [R2]'
p680
sg19
S'000092e5'
p681
sg21
Vldr r0, [r2]
p682
sg5
L811812L
sg6
Nsg23
S'LDR'
p683
sg25
S'0xc6324L'
p684
sg27
Nsba(ibclass
BInstr
p685
(dp686
g2
Nsg17
S'CMP     R0, R3'
p687
sg19
S'030050e1'
p688
sg21
Vcmp r0, r3
p689
sg5
L811816L
sg6
Nsg23
S'CMP'
p690
sg25
S'0xc6328L'
p691
sg27
Nsba(ibclass
BInstr
p692
(dp693
g2
Nsg17
S'BCS     loc_C62D4'
p694
sg19
S'e8ffff2a'
p695
sg21
Vbhs #0xffffffa8
p696
sg5
L811820L
sg6
Nsg23
g75
sg25
S'0xc632cL'
p697
sg27
Nsbasg77
(lp698
S'LDR R3, mem'
p699
aS'LDR R0, mem'
p700
aS'CMP R0, R3'
p701
aS'BCS func'
p702
asg87
Nsg5
S'0xc6320L'
p703
sg89
(lp704
S'0xc6218L'
p705
asg6
Nsg91
(lp706
S'0xc62d4L'
p707
aS'0xc6330L'
p708
asg95
Nsg96
Nsg97
S'd9812e74326a7ebe01ae9e2a00bbb5ee'
p709
sg99
S'c7711e6f824f323709c7f1f48c6f10ac'
p710
sg101
(lp711
g676
ag683
ag690
ag75
asg103
Nsba(ibclass
BBasicBlock
p712
(dp713
g12
Nsg13
(lp714
(ibclass
BInstr
p715
(dp716
g2
Nsg17
S'B       loc_C62A8'
p717
sg19
S'dcffffea'
p718
sg21
Vb #0xffffff78
p719
sg5
L811824L
sg6
Nsg23
g75
sg25
S'0xc6330L'
p720
sg27
Nsbasg77
(lp721
S'B func'
p722
asg87
Nsg5
S'0xc6330L'
p723
sg89
(lp724
S'0xc6320L'
p725
asg6
Nsg91
(lp726
S'0xc62a8L'
p727
asg95
Nsg96
Nsg97
S'9d5ed678fe57bcca610140957afab571'
p728
sg99
S'071b057c420e304c628380fd3541c021'
p729
sg101
(lp730
g75
asg103
Nsbasb.