(ibclass
BFunc
p0
(dp1
S'hash'
p2
NsS'name'
p3
S'dtls1_listen'
p4
sS'start_address'
p5
L220492L
sS'flag'
p6
NsS'program'
p7
NsS'bbs'
p8
(lp9
(ibclass
BBasicBlock
p10
(dp11
S'function'
p12
NsS'binstrs'
p13
(lp14
(ibclass
BInstr
p15
(dp16
g2
NsS'disasm'
p17
S'STMFD   SP!, {R4-R6,LR}'
p18
sS'bytes'
p19
S'70402de9'
p20
sS'disasm_striped'
p21
Vpush {r4, r5, r6, lr}
p22
sg5
L220492L
sg6
NsS'mnem'
p23
S'STM'
p24
sS'address'
p25
S'0x35d4cL'
p26
sS'basicblock'
p27
Nsba(ibclass
BInstr
p28
(dp29
g2
Nsg17
S'MOV     R2, #0x2000     ; larg'
p30
sg19
S'022aa0e3'
p31
sg21
Vmov r2, #0x2000
p32
sg5
L220496L
sg6
Nsg23
S'MOV'
p33
sg25
S'0x35d50L'
p34
sg27
Nsba(ibclass
BInstr
p35
(dp36
g2
Nsg17
S'MOV     R4, s'
p37
sg19
S'0040a0e1'
p38
sg21
Vmov r4, r0
p39
sg5
L220500L
sg6
Nsg23
S'MOV'
p40
sg25
S'0x35d54L'
p41
sg27
Nsba(ibclass
BInstr
p42
(dp43
g2
Nsg17
S'MOV     R3, #0          ; parg'
p44
sg19
S'0030a0e3'
p45
sg21
Vmov r3, #0
p46
sg5
L220504L
sg6
Nsg23
S'MOV'
p47
sg25
S'0x35d58L'
p48
sg27
Nsba(ibclass
BInstr
p49
(dp50
g2
Nsg17
S'MOV     R6, client'
p51
sg19
S'0160a0e1'
p52
sg21
Vmov r6, r1
p53
sg5
L220508L
sg6
Nsg23
S'MOV'
p54
sg25
S'0x35d5cL'
p55
sg27
Nsba(ibclass
BInstr
p56
(dp57
g2
Nsg17
S'MOV     client, #0x20   ; cmd'
p58
sg19
S'2010a0e3'
p59
sg21
Vmov r1, #0x20
p60
sg5
L220512L
sg6
Nsg23
S'MOV'
p61
sg25
S'0x35d60L'
p62
sg27
Nsba(ibclass
BInstr
p63
(dp64
g2
Nsg17
S'BL      SSL_ctrl'
p65
sg19
S'b11400eb'
p66
sg21
Vbl #0x52cc
p67
sg5
L220516L
sg6
Nsg23
S'BL'
p68
sg25
S'0x35d64L'
p69
sg27
Nsba(ibclass
BInstr
p70
(dp71
g2
Nsg17
S'LDR     R3, [s,#0x5C]'
p72
sg19
S'5c3094e5'
p73
sg21
Vldr r3, [r4, #0x5c]
p74
sg5
L220520L
sg6
Nsg23
S'LDR'
p75
sg25
S'0x35d68L'
p76
sg27
Nsba(ibclass
BInstr
p77
(dp78
g2
Nsg17
S'MOV     R5, #1'
p79
sg19
S'0150a0e3'
p80
sg21
Vmov r5, #1
p81
sg5
L220524L
sg6
Nsg23
S'MOV'
p82
sg25
S'0x35d6cL'
p83
sg27
Nsba(ibclass
BInstr
p84
(dp85
g2
Nsg17
S'STR     R5, [R3,#0x254]'
p86
sg19
S'545283e5'
p87
sg21
Vstr r5, [r3, #0x254]
p88
sg5
L220528L
sg6
Nsg23
S'STR'
p89
sg25
S'0x35d70L'
p90
sg27
Nsba(ibclass
BInstr
p91
(dp92
g2
Nsg17
S'MOV     R0, s           ; s'
p93
sg19
S'0400a0e1'
p94
sg21
Vmov r0, r4
p95
sg5
L220532L
sg6
Nsg23
S'MOV'
p96
sg25
S'0x35d74L'
p97
sg27
Nsba(ibclass
BInstr
p98
(dp99
g2
Nsg17
S'BL      SSL_accept'
p100
sg19
S'2a1a00eb'
p101
sg21
Vbl #0x68b0
p102
sg5
L220536L
sg6
Nsg23
S'BL'
p103
sg25
S'0x35d78L'
p104
sg27
Nsba(ibclass
BInstr
p105
(dp106
g2
Nsg17
S'CMP     R0, #0'
p107
sg19
S'000050e3'
p108
sg21
Vcmp r0, #0
p109
sg5
L220540L
sg6
Nsg23
S'CMP'
p110
sg25
S'0x35d7cL'
p111
sg27
Nsba(ibclass
BInstr
p112
(dp113
g2
Nsg17
S'BLE     loc_35DA0'
p114
sg19
S'060000da'
p115
sg21
Vble #0x20
p116
sg5
L220544L
sg6
Nsg23
S'B'
p117
sg25
S'0x35d80L'
p118
sg27
NsbasS'disasm_list'
p119
(lp120
S'STMFD SP!, {R4-R6,LR}'
p121
aS'MOV R2, #0x2000'
p122
aS'MOV R4, s'
p123
aS'MOV R3, #0'
p124
aS'MOV R6, regient'
p125
aS'MOV regient, #0x20'
p126
aS'BL SSL_ctrl'
p127
aS'LDR R3, mem'
p128
aS'MOV R5, #1'
p129
aS'STR R5, mem'
p130
aS'MOV R0, s'
p131
aS'BL SSL_accept'
p132
aS'CMP R0, #0'
p133
aS'BLE func'
p134
asS'end_address'
p135
Nsg5
S'0x35d4cL'
p136
sS'preds'
p137
(lp138
sg6
NsS'succs'
p139
(lp140
S'0x35d84L'
p141
aS'0x35da0L'
p142
asS'hash_v3'
p143
NsS'flag_v2'
p144
NsS'hash_v1'
p145
S'55954c4d345147b2c270498ae9e25aed'
p146
sS'hash_v2'
p147
S'f27ea4d901a28f2688fd695a8e593411'
p148
sS'mnen_list'
p149
(lp150
g24
ag33
ag40
ag47
ag54
ag61
ag68
ag75
ag82
ag89
ag96
ag103
ag110
ag117
asS'neighbour_disasm_list'
p151
Nsba(ibclass
BBasicBlock
p152
(dp153
g12
Nsg13
(lp154
(ibclass
BInstr
p155
(dp156
g2
Nsg17
S'MOV     ret, s          ; s'
p157
sg19
S'0400a0e1'
p158
sg21
Vmov r0, r4
p159
sg5
L220548L
sg6
Nsg23
S'MOV'
p160
sg25
S'0x35d84L'
p161
sg27
Nsba(ibclass
BInstr
p162
(dp163
g2
Nsg17
S'BL      SSL_get_rbio'
p164
sg19
S'5a1400eb'
p165
sg21
Vbl #0x5170
p166
sg5
L220552L
sg6
Nsg23
S'BL'
p167
sg25
S'0x35d88L'
p168
sg27
Nsba(ibclass
BInstr
p169
(dp170
g2
Nsg17
S'MOV     R3, client'
p171
sg19
S'0630a0e1'
p172
sg21
Vmov r3, r6
p173
sg5
L220556L
sg6
Nsg23
S'MOV'
p174
sg25
S'0x35d8cL'
p175
sg27
Nsba(ibclass
BInstr
p176
(dp177
g2
Nsg17
S'MOV     R1, #0x2E'
p178
sg19
S'2e10a0e3'
p179
sg21
Vmov r1, #0x2e
p180
sg5
L220560L
sg6
Nsg23
S'MOV'
p181
sg25
S'0x35d90L'
p182
sg27
Nsba(ibclass
BInstr
p183
(dp184
g2
Nsg17
S'MOV     R2, #0'
p185
sg19
S'0020a0e3'
p186
sg21
Vmov r2, #0
p187
sg5
L220564L
sg6
Nsg23
S'MOV'
p188
sg25
S'0x35d94L'
p189
sg27
Nsba(ibclass
BInstr
p190
(dp191
g2
Nsg17
S'BL      BIO_ctrl'
p192
sg19
S'9369ffeb'
p193
sg21
Vbl #0xfffda654
p194
sg5
L220568L
sg6
Nsg23
S'BL'
p195
sg25
S'0x35d98L'
p196
sg27
Nsba(ibclass
BInstr
p197
(dp198
g2
Nsg17
S'MOV     R0, R5'
p199
sg19
S'0500a0e1'
p200
sg21
Vmov r0, r5
p201
sg5
L220572L
sg6
Nsg23
S'MOV'
p202
sg25
S'0x35d9cL'
p203
sg27
Nsbasg119
(lp204
S'MOV ret, s'
p205
aS'BL SSL_get_rbio'
p206
aS'MOV R3, regient'
p207
aS'MOV R1, #0x2E'
p208
aS'MOV R2, #0'
p209
aS'BL BIO_ctrl'
p210
aS'MOV R0, R5'
p211
asg135
Nsg5
S'0x35d84L'
p212
sg137
(lp213
S'0x35d4cL'
p214
asg6
Nsg139
(lp215
S'0x35da0L'
p216
asg143
Nsg144
Nsg145
S'476a449ab41a100955b603e015787ca2'
p217
sg147
S'332ad149e5b3d4aa30c48fa8d4540b02'
p218
sg149
(lp219
g160
ag167
ag174
ag181
ag188
ag195
ag202
asg151
Nsba(ibclass
BBasicBlock
p220
(dp221
g12
Nsg13
(lp222
(ibclass
BInstr
p223
(dp224
g2
Nsg17
S'LDMFD   SP!, {s-client,LR}'
p225
sg19
S'7040bde8'
p226
sg21
Vpop {r4, r5, r6, lr}
p227
sg5
L220576L
sg6
Nsg23
S'LDM'
p228
sg25
S'0x35da0L'
p229
sg27
Nsba(ibclass
BInstr
p230
(dp231
g2
Nsg17
S'BX      LR'
p232
sg19
S'1eff2fe1'
p233
sg21
Vbx lr
p234
sg5
L220580L
sg6
Nsg23
S'BX'
p235
sg25
S'0x35da4L'
p236
sg27
Nsbasg119
(lp237
S'LDMFD SP!, {s-regient,LR}'
p238
aS'BX LR'
p239
asg135
Nsg5
S'0x35da0L'
p240
sg137
(lp241
S'0x35d4cL'
p242
aS'0x35d84L'
p243
asg6
Nsg139
(lp244
sg143
Nsg144
Nsg145
S'1bbf04f23edc7b30d215c55a7294459f'
p245
sg147
S'3b2c85d0e100cb653d4c0810b9e7984d'
p246
sg149
(lp247
g228
ag235
asg151
Nsbasb.