(ibclass
BFunc
p0
(dp1
S'hash'
p2
NsS'name'
p3
S'BN_GF2m_mod_inv'
p4
sS'start_address'
p5
L611744L
sS'flag'
p6
NsS'program'
p7
NsS'bbs'
p8
(lp9
(ibclass
BBasicBlock
p10
(dp11
S'function'
p12
NsS'binstrs'
p13
(lp14
(ibclass
BInstr
p15
(dp16
g2
NsS'disasm'
p17
S'STMFD   SP!, {R4-R11,LR}'
p18
sS'bytes'
p19
S'f04f2de9'
p20
sS'disasm_striped'
p21
Vpush {r4, r5, r6, r7, r8, sb, sl, fp, lr}
p22
sg5
L611744L
sg6
NsS'mnem'
p23
S'STM'
p24
sS'address'
p25
S'0x955a0L'
p26
sS'basicblock'
p27
Nsba(ibclass
BInstr
p28
(dp29
g2
Nsg17
S'SUB     SP, SP, #0x2C'
p30
sg19
S'2cd04de2'
p31
sg21
Vsub sp, sp, #0x2c
p32
sg5
L611748L
sg6
Nsg23
S'SUB'
p33
sg25
S'0x955a4L'
p34
sg27
Nsba(ibclass
BInstr
p35
(dp36
g2
Nsg17
S'MOV     R4, ctx'
p37
sg19
S'0340a0e1'
p38
sg21
Vmov r4, r3
p39
sg5
L611752L
sg6
Nsg23
S'MOV'
p40
sg25
S'0x955a8L'
p41
sg27
Nsba(ibclass
BInstr
p42
(dp43
g2
Nsg17
S'STR     r, [SP,#0x50+a]'
p44
sg19
S'1c008de5'
p45
sg21
Vstr r0, [sp, #0x1c]
p46
sg5
L611756L
sg6
Nsg23
S'STR'
p47
sg25
S'0x955acL'
p48
sg27
Nsba(ibclass
BInstr
p49
(dp50
g2
Nsg17
S'MOV     r, ctx          ; ctx'
p51
sg19
S'0300a0e1'
p52
sg21
Vmov r0, r3
p53
sg5
L611760L
sg6
Nsg23
S'MOV'
p54
sg25
S'0x955b0L'
p55
sg27
Nsba(ibclass
BInstr
p56
(dp57
g2
Nsg17
S'MOV     R5, a'
p58
sg19
S'0150a0e1'
p59
sg21
Vmov r5, r1
p60
sg5
L611764L
sg6
Nsg23
S'MOV'
p61
sg25
S'0x955b4L'
p62
sg27
Nsba(ibclass
BInstr
p63
(dp64
g2
Nsg17
S'STR     p, [SP,#0x50+p]'
p65
sg19
S'18208de5'
p66
sg21
Vstr r2, [sp, #0x18]
p67
sg5
L611768L
sg6
Nsg23
S'STR'
p68
sg25
S'0x955b8L'
p69
sg27
Nsba(ibclass
BInstr
p70
(dp71
g2
Nsg17
S'BL      BN_CTX_start'
p72
sg19
S'bdd4ffeb'
p73
sg21
Vbl #0xffff52fc
p74
sg5
L611772L
sg6
Nsg23
S'BL'
p75
sg25
S'0x955bcL'
p76
sg27
Nsba(ibclass
BInstr
p77
(dp78
g2
Nsg17
S'MOV     R0, ctx         ; ctx'
p79
sg19
S'0400a0e1'
p80
sg21
Vmov r0, r4
p81
sg5
L611776L
sg6
Nsg23
S'MOV'
p82
sg25
S'0x955c0L'
p83
sg27
Nsba(ibclass
BInstr
p84
(dp85
g2
Nsg17
S'BL      BN_CTX_get'
p86
sg19
S'38d4ffeb'
p87
sg21
Vbl #0xffff50e8
p88
sg5
L611780L
sg6
Nsg23
S'BL'
p89
sg25
S'0x955c4L'
p90
sg27
Nsba(ibclass
BInstr
p91
(dp92
g2
Nsg17
S'CMP     R0, #0'
p93
sg19
S'000050e3'
p94
sg21
Vcmp r0, #0
p95
sg5
L611784L
sg6
Nsg23
S'CMP'
p96
sg25
S'0x955c8L'
p97
sg27
Nsba(ibclass
BInstr
p98
(dp99
g2
Nsg17
S'STR     R0, [SP,#0x50+b]'
p100
sg19
S'04008de5'
p101
sg21
Vstr r0, [sp, #4]
p102
sg5
L611788L
sg6
Nsg23
S'STR'
p103
sg25
S'0x955ccL'
p104
sg27
Nsba(ibclass
BInstr
p105
(dp106
g2
Nsg17
S'BEQ     err'
p107
sg19
S'1800000a'
p108
sg21
Vbeq #0x68
p109
sg5
L611792L
sg6
Nsg23
S'B'
p110
sg25
S'0x955d0L'
p111
sg27
NsbasS'disasm_list'
p112
(lp113
S'STMFD SP!, {R4-R11,LR}'
p114
aS'SUB SP, SP, #0x2C'
p115
aS'MOV R4, ctx'
p116
aS'STR r, mem'
p117
aS'MOV r, ctx'
p118
aS'MOV R5, a'
p119
aS'STR p, mem'
p120
aS'BL BN_CTX_start'
p121
aS'MOV R0, ctx'
p122
aS'BL BN_CTX_get'
p123
aS'CMP R0, #0'
p124
aS'STR R0, mem'
p125
aS'BEQ err'
p126
asS'end_address'
p127
Nsg5
S'0x955a0L'
p128
sS'preds'
p129
(lp130
sg6
NsS'succs'
p131
(lp132
S'0x955d4L'
p133
aS'0x95638L'
p134
asS'hash_v3'
p135
NsS'flag_v2'
p136
NsS'hash_v1'
p137
S'a26328b93f1baf4283d0e3f550aa2b6b'
p138
sS'hash_v2'
p139
S'c0c87a4e6a789b32947482ef86e3983a'
p140
sS'mnen_list'
p141
(lp142
g24
ag33
ag40
ag47
ag54
ag61
ag68
ag75
ag82
ag89
ag96
ag103
ag110
asS'neighbour_disasm_list'
p143
Nsba(ibclass
BBasicBlock
p144
(dp145
g12
Nsg13
(lp146
(ibclass
BInstr
p147
(dp148
g2
Nsg17
S'MOV     R0, ctx         ; ctx'
p149
sg19
S'0400a0e1'
p150
sg21
Vmov r0, r4
p151
sg5
L611796L
sg6
Nsg23
S'MOV'
p152
sg25
S'0x955d4L'
p153
sg27
Nsba(ibclass
BInstr
p154
(dp155
g2
Nsg17
S'BL      BN_CTX_get'
p156
sg19
S'33d4ffeb'
p157
sg21
Vbl #0xffff50d4
p158
sg5
L611800L
sg6
Nsg23
S'BL'
p159
sg25
S'0x955d8L'
p160
sg27
Nsba(ibclass
BInstr
p161
(dp162
g2
Nsg17
S'CMP     R0, #0'
p163
sg19
S'000050e3'
p164
sg21
Vcmp r0, #0
p165
sg5
L611804L
sg6
Nsg23
S'CMP'
p166
sg25
S'0x955dcL'
p167
sg27
Nsba(ibclass
BInstr
p168
(dp169
g2
Nsg17
S'STR     R0, [SP,#0x50+var_40]'
p170
sg19
S'10008de5'
p171
sg21
Vstr r0, [sp, #0x10]
p172
sg5
L611808L
sg6
Nsg23
S'STR'
p173
sg25
S'0x955e0L'
p174
sg27
Nsba(ibclass
BInstr
p175
(dp176
g2
Nsg17
S'BEQ     err'
p177
sg19
S'1300000a'
p178
sg21
Vbeq #0x54
p179
sg5
L611812L
sg6
Nsg23
g110
sg25
S'0x955e4L'
p180
sg27
Nsbasg112
(lp181
S'MOV R0, ctx'
p182
aS'BL BN_CTX_get'
p183
aS'CMP R0, #0'
p184
aS'STR R0, mem'
p185
aS'BEQ err'
p186
asg127
Nsg5
S'0x955d4L'
p187
sg129
(lp188
S'0x955a0L'
p189
asg6
Nsg131
(lp190
S'0x955e8L'
p191
aS'0x95638L'
p192
asg135
Nsg136
Nsg137
S'49ce5f69aa8aaf6cb43f43b5106d30f2'
p193
sg139
S'65e3a90202359ffe403d5279f58d77df'
p194
sg141
(lp195
g152
ag159
ag166
ag173
ag110
asg143
Nsba(ibclass
BBasicBlock
p196
(dp197
g12
Nsg13
(lp198
(ibclass
BInstr
p199
(dp200
g2
Nsg17
S'MOV     R0, ctx         ; ctx'
p201
sg19
S'0400a0e1'
p202
sg21
Vmov r0, r4
p203
sg5
L611816L
sg6
Nsg23
S'MOV'
p204
sg25
S'0x955e8L'
p205
sg27
Nsba(ibclass
BInstr
p206
(dp207
g2
Nsg17
S'BL      BN_CTX_get'
p208
sg19
S'2ed4ffeb'
p209
sg21
Vbl #0xffff50c0
p210
sg5
L611820L
sg6
Nsg23
S'BL'
p211
sg25
S'0x955ecL'
p212
sg27
Nsba(ibclass
BInstr
p213
(dp214
g2
Nsg17
S'CMP     R0, #0'
p215
sg19
S'000050e3'
p216
sg21
Vcmp r0, #0
p217
sg5
L611824L
sg6
Nsg23
S'CMP'
p218
sg25
S'0x955f0L'
p219
sg27
Nsba(ibclass
BInstr
p220
(dp221
g2
Nsg17
S'STR     R0, [SP,#0x50+r]'
p222
sg19
S'00008de5'
p223
sg21
Vstr r0, [sp]
p224
sg5
L611828L
sg6
Nsg23
S'STR'
p225
sg25
S'0x955f4L'
p226
sg27
Nsba(ibclass
BInstr
p227
(dp228
g2
Nsg17
S'BEQ     err'
p229
sg19
S'0e00000a'
p230
sg21
Vbeq #0x40
p231
sg5
L611832L
sg6
Nsg23
g110
sg25
S'0x955f8L'
p232
sg27
Nsbasg112
(lp233
S'MOV R0, ctx'
p234
aS'BL BN_CTX_get'
p235
aS'CMP R0, #0'
p236
aS'STR R0, mem'
p237
aS'BEQ err'
p238
asg127
Nsg5
S'0x955e8L'
p239
sg129
(lp240
S'0x955d4L'
p241
asg6
Nsg131
(lp242
S'0x955fcL'
p243
aS'0x95638L'
p244
asg135
Nsg136
Nsg137
S'49ce5f69aa8aaf6cb43f43b5106d30f2'
p245
sg139
S'65e3a90202359ffe403d5279f58d77df'
p246
sg141
(lp247
g204
ag211
ag218
ag225
ag110
asg143
Nsba(ibclass
BBasicBlock
p248
(dp249
g12
Nsg13
(lp250
(ibclass
BInstr
p251
(dp252
g2
Nsg17
S'MOV     R0, ctx         ; ctx'
p253
sg19
S'0400a0e1'
p254
sg21
Vmov r0, r4
p255
sg5
L611836L
sg6
Nsg23
S'MOV'
p256
sg25
S'0x955fcL'
p257
sg27
Nsba(ibclass
BInstr
p258
(dp259
g2
Nsg17
S'BL      BN_CTX_get'
p260
sg19
S'29d4ffeb'
p261
sg21
Vbl #0xffff50ac
p262
sg5
L611840L
sg6
Nsg23
S'BL'
p263
sg25
S'0x95600L'
p264
sg27
Nsba(ibclass
BInstr
p265
(dp266
g2
Nsg17
S'CMP     R0, #0'
p267
sg19
S'000050e3'
p268
sg21
Vcmp r0, #0
p269
sg5
L611844L
sg6
Nsg23
S'CMP'
p270
sg25
S'0x95604L'
p271
sg27
Nsba(ibclass
BInstr
p272
(dp273
g2
Nsg17
S'STR     R0, [SP,#0x50+var_3C]'
p274
sg19
S'14008de5'
p275
sg21
Vstr r0, [sp, #0x14]
p276
sg5
L611848L
sg6
Nsg23
S'STR'
p277
sg25
S'0x95608L'
p278
sg27
Nsba(ibclass
BInstr
p279
(dp280
g2
Nsg17
S'BEQ     err'
p281
sg19
S'0900000a'
p282
sg21
Vbeq #0x2c
p283
sg5
L611852L
sg6
Nsg23
g110
sg25
S'0x9560cL'
p284
sg27
Nsbasg112
(lp285
S'MOV R0, ctx'
p286
aS'BL BN_CTX_get'
p287
aS'CMP R0, #0'
p288
aS'STR R0, mem'
p289
aS'BEQ err'
p290
asg127
Nsg5
S'0x955fcL'
p291
sg129
(lp292
S'0x955e8L'
p293
asg6
Nsg131
(lp294
S'0x95610L'
p295
aS'0x95638L'
p296
asg135
Nsg136
Nsg137
S'49ce5f69aa8aaf6cb43f43b5106d30f2'
p297
sg139
S'65e3a90202359ffe403d5279f58d77df'
p298
sg141
(lp299
g256
ag263
ag270
ag277
ag110
asg143
Nsba(ibclass
BBasicBlock
p300
(dp301
g12
Nsg13
(lp302
(ibclass
BInstr
p303
(dp304
g2
Nsg17
S'MOV     R1, a           ; a'
p305
sg19
S'0510a0e1'
p306
sg21
Vmov r1, r5
p307
sg5
L611856L
sg6
Nsg23
S'MOV'
p308
sg25
S'0x95610L'
p309
sg27
Nsba(ibclass
BInstr
p310
(dp311
g2
Nsg17
S'LDR     R0, [SP,#0x50+r]; r'
p312
sg19
S'00009de5'
p313
sg21
Vldr r0, [sp]
p314
sg5
L611860L
sg6
Nsg23
S'LDR'
p315
sg25
S'0x95614L'
p316
sg27
Nsba(ibclass
BInstr
p317
(dp318
g2
Nsg17
S'LDR     R2, [SP,#0x50+p]; p'
p319
sg19
S'18209de5'
p320
sg21
Vldr r2, [sp, #0x18]
p321
sg5
L611864L
sg6
Nsg23
S'LDR'
p322
sg25
S'0x95618L'
p323
sg27
Nsba(ibclass
BInstr
p324
(dp325
g2
Nsg17
S'BL      BN_GF2m_mod'
p326
sg19
S'e6fbffeb'
p327
sg21
Vbl #0xffffefa0
p328
sg5
L611868L
sg6
Nsg23
S'BL'
p329
sg25
S'0x9561cL'
p330
sg27
Nsba(ibclass
BInstr
p331
(dp332
g2
Nsg17
S'CMP     R0, #0'
p333
sg19
S'000050e3'
p334
sg21
Vcmp r0, #0
p335
sg5
L611872L
sg6
Nsg23
S'CMP'
p336
sg25
S'0x95620L'
p337
sg27
Nsba(ibclass
BInstr
p338
(dp339
g2
Nsg17
S'BEQ     err'
p340
sg19
S'0300000a'
p341
sg21
Vbeq #0x14
p342
sg5
L611876L
sg6
Nsg23
g110
sg25
S'0x95624L'
p343
sg27
Nsbasg112
(lp344
S'MOV R1, a'
p345
aS'LDR R0, mem'
p346
aS'LDR R2, mem'
p347
aS'BL BN_GF2m_mod'
p348
aS'CMP R0, #0'
p349
aS'BEQ err'
p350
asg127
Nsg5
S'0x95610L'
p351
sg129
(lp352
S'0x955fcL'
p353
asg6
Nsg131
(lp354
S'0x95628L'
p355
aS'0x95638L'
p356
asg135
Nsg136
Nsg137
S'5f578aaffe45e1ccd399833dfd74ba2b'
p357
sg139
S'c012931fc09c71469f0600fecb3fb6e8'
p358
sg141
(lp359
g308
ag315
ag322
ag329
ag336
ag110
asg143
Nsba(ibclass
BBasicBlock
p360
(dp361
g12
Nsg13
(lp362
(ibclass
BInstr
p363
(dp364
g2
Nsg17
S'LDR     R1, [SP,#0x50+r]'
p365
sg19
S'00109de5'
p366
sg21
Vldr r1, [sp]
p367
sg5
L611880L
sg6
Nsg23
S'LDR'
p368
sg25
S'0x95628L'
p369
sg27
Nsba(ibclass
BInstr
p370
(dp371
g2
Nsg17
S'LDR     R3, [R1,#4]'
p372
sg19
S'043091e5'
p373
sg21
Vldr r3, [r1, #4]
p374
sg5
L611884L
sg6
Nsg23
S'LDR'
p375
sg25
S'0x9562cL'
p376
sg27
Nsba(ibclass
BInstr
p377
(dp378
g2
Nsg17
S'CMP     R3, #0'
p379
sg19
S'000053e3'
p380
sg21
Vcmp r3, #0
p381
sg5
L611888L
sg6
Nsg23
S'CMP'
p382
sg25
S'0x95630L'
p383
sg27
Nsba(ibclass
BInstr
p384
(dp385
g2
Nsg17
S'BNE     loc_95654'
p386
sg19
S'0600001a'
p387
sg21
Vbne #0x20
p388
sg5
L611892L
sg6
Nsg23
g110
sg25
S'0x95634L'
p389
sg27
Nsbasg112
(lp390
S'LDR R1, mem'
p391
aS'LDR R3, mem'
p392
aS'CMP R3, #0'
p393
aS'BNE func'
p394
asg127
Nsg5
S'0x95628L'
p395
sg129
(lp396
S'0x95610L'
p397
asg6
Nsg131
(lp398
S'0x95638L'
p399
aS'0x95654L'
p400
asg135
Nsg136
Nsg137
S'd9812e74326a7ebe01ae9e2a00bbb5ee'
p401
sg139
S'2d6f138634967e3b013febbfb486367a'
p402
sg141
(lp403
g368
ag375
ag382
ag110
asg143
Nsba(ibclass
BBasicBlock
p404
(dp405
g12
Nsg13
(lp406
(ibclass
BInstr
p407
(dp408
g2
Nsg17
S'MOV     ret, #0'
p409
sg19
S'0050a0e3'
p410
sg21
Vmov r5, #0
p411
sg5
L611896L
sg6
Nsg23
S'MOV'
p412
sg25
S'0x95638L'
p413
sg27
Nsbasg112
(lp414
S'MOV ret, #0'
p415
asg127
Nsg5
S'0x95638L'
p416
sg129
(lp417
S'0x955a0L'
p418
aS'0x955d4L'
p419
aS'0x955e8L'
p420
aS'0x955fcL'
p421
aS'0x95610L'
p422
aS'0x95628L'
p423
aS'0x95654L'
p424
aS'0x95984L'
p425
asg6
Nsg131
(lp426
S'0x9563cL'
p427
asg135
Nsg136
Nsg137
S'17b32100aef1fc19670be7fd58bc85df'
p428
sg139
S'5499f1e70e420003ebd599988af9c773'
p429
sg141
(lp430
g412
asg143
Nsba(ibclass
BBasicBlock
p431
(dp432
g12
Nsg13
(lp433
(ibclass
BInstr
p434
(dp435
g2
Nsg17
S'MOV     R0, ctx         ; ctx'
p436
sg19
S'0400a0e1'
p437
sg21
Vmov r0, r4
p438
sg5
L611900L
sg6
Nsg23
S'MOV'
p439
sg25
S'0x9563cL'
p440
sg27
Nsba(ibclass
BInstr
p441
(dp442
g2
Nsg17
S'BL      BN_CTX_end'
p443
sg19
S'd2d3ffeb'
p444
sg21
Vbl #0xffff4f50
p445
sg5
L611904L
sg6
Nsg23
S'BL'
p446
sg25
S'0x95640L'
p447
sg27
Nsba(ibclass
BInstr
p448
(dp449
g2
Nsg17
S'MOV     R0, ret'
p450
sg19
S'0500a0e1'
p451
sg21
Vmov r0, r5
p452
sg5
L611908L
sg6
Nsg23
S'MOV'
p453
sg25
S'0x95644L'
p454
sg27
Nsba(ibclass
BInstr
p455
(dp456
g2
Nsg17
S'ADD     SP, SP, #0x2C'
p457
sg19
S'2cd08de2'
p458
sg21
Vadd sp, sp, #0x2c
p459
sg5
L611912L
sg6
Nsg23
S'ADD'
p460
sg25
S'0x95648L'
p461
sg27
Nsba(ibclass
BInstr
p462
(dp463
g2
Nsg17
S'LDMFD   SP!, {ctx-cdp,LR}'
p464
sg19
S'f04fbde8'
p465
sg21
Vpop {r4, r5, r6, r7, r8, sb, sl, fp, lr}
p466
sg5
L611916L
sg6
Nsg23
S'LDM'
p467
sg25
S'0x9564cL'
p468
sg27
Nsba(ibclass
BInstr
p469
(dp470
g2
Nsg17
S'BX      LR'
p471
sg19
S'1eff2fe1'
p472
sg21
Vbx lr
p473
sg5
L611920L
sg6
Nsg23
S'BX'
p474
sg25
S'0x95650L'
p475
sg27
Nsbasg112
(lp476
S'MOV R0, ctx'
p477
aS'BL BN_CTX_end'
p478
aS'MOV R0, ret'
p479
aS'ADD SP, SP, #0x2C'
p480
aS'LDMFD SP!, {ctx-cdp,LR}'
p481
aS'BX LR'
p482
asg127
Nsg5
S'0x9563cL'
p483
sg129
(lp484
S'0x95638L'
p485
aS'0x9596cL'
p486
asg6
Nsg131
(lp487
sg135
Nsg136
Nsg137
S'38fb52b2ea730897822619e46fd853de'
p488
sg139
S'70565407c59449fbf6614c79cfd2a788'
p489
sg141
(lp490
g439
ag446
ag453
ag460
ag467
ag474
asg143
Nsba(ibclass
BBasicBlock
p491
(dp492
g12
Nsg13
(lp493
(ibclass
BInstr
p494
(dp495
g2
Nsg17
S'LDR     R0, [SP,#0x50+var_3C]; a'
p496
sg19
S'14009de5'
p497
sg21
Vldr r0, [sp, #0x14]
p498
sg5
L611924L
sg6
Nsg23
S'LDR'
p499
sg25
S'0x95654L'
p500
sg27
Nsba(ibclass
BInstr
p501
(dp502
g2
Nsg17
S'LDR     R1, [SP,#0x50+p]; b'
p503
sg19
S'18109de5'
p504
sg21
Vldr r1, [sp, #0x18]
p505
sg5
L611928L
sg6
Nsg23
S'LDR'
p506
sg25
S'0x95658L'
p507
sg27
Nsba(ibclass
BInstr
p508
(dp509
g2
Nsg17
S'BL      BN_copy'
p510
sg19
S'ead2ffeb'
p511
sg21
Vbl #0xffff4bb0
p512
sg5
L611932L
sg6
Nsg23
S'BL'
p513
sg25
S'0x9565cL'
p514
sg27
Nsba(ibclass
BInstr
p515
(dp516
g2
Nsg17
S'CMP     R0, #0'
p517
sg19
S'000050e3'
p518
sg21
Vcmp r0, #0
p519
sg5
L611936L
sg6
Nsg23
S'CMP'
p520
sg25
S'0x95660L'
p521
sg27
Nsba(ibclass
BInstr
p522
(dp523
g2
Nsg17
S'BEQ     err'
p524
sg19
S'f3ffff0a'
p525
sg21
Vbeq #0xffffffd4
p526
sg5
L611940L
sg6
Nsg23
g110
sg25
S'0x95664L'
p527
sg27
Nsbasg112
(lp528
S'LDR R0, mem'
p529
aS'LDR R1, mem'
p530
aS'BL BN_copy'
p531
aS'CMP R0, #0'
p532
aS'BEQ err'
p533
asg127
Nsg5
S'0x95654L'
p534
sg129
(lp535
S'0x95628L'
p536
asg6
Nsg131
(lp537
S'0x95638L'
p538
aS'0x95668L'
p539
asg135
Nsg136
Nsg137
S'98df8d58a70aefeb372f52f820175ac9'
p540
sg139
S'2874d078644659e5159e0b299715a8d5'
p541
sg141
(lp542
g499
ag506
ag513
ag520
ag110
asg143
Nsba(ibclass
BBasicBlock
p543
(dp544
g12
Nsg13
(lp545
(ibclass
BInstr
p546
(dp547
g2
Nsg17
S'LDR     R0, [SP,#0x50+r]; a'
p548
sg19
S'00009de5'
p549
sg21
Vldr r0, [sp]
p550
sg5
L611944L
sg6
Nsg23
S'LDR'
p551
sg25
S'0x95668L'
p552
sg27
Nsba(ibclass
BInstr
p553
(dp554
g2
Nsg17
S'BL      BN_num_bits'
p555
sg19
S'38d0ffeb'
p556
sg21
Vbl #0xffff40e8
p557
sg5
L611948L
sg6
Nsg23
S'BL'
p558
sg25
S'0x9566cL'
p559
sg27
Nsba(ibclass
BInstr
p560
(dp561
g2
Nsg17
S'MOV     R8, R0'
p562
sg19
S'0080a0e1'
p563
sg21
Vmov r8, r0
p564
sg5
L611952L
sg6
Nsg23
S'MOV'
p565
sg25
S'0x95670L'
p566
sg27
Nsba(ibclass
BInstr
p567
(dp568
g2
Nsg17
S'LDR     R0, [SP,#0x50+var_3C]; a'
p569
sg19
S'14009de5'
p570
sg21
Vldr r0, [sp, #0x14]
p571
sg5
L611956L
sg6
Nsg23
S'LDR'
p572
sg25
S'0x95674L'
p573
sg27
Nsba(ibclass
BInstr
p574
(dp575
g2
Nsg17
S'BL      BN_num_bits'
p576
sg19
S'35d0ffeb'
p577
sg21
Vbl #0xffff40dc
p578
sg5
L611960L
sg6
Nsg23
S'BL'
p579
sg25
S'0x95678L'
p580
sg27
Nsba(ibclass
BInstr
p581
(dp582
g2
Nsg17
S'LDR     R2, [SP,#0x50+p]'
p583
sg19
S'18209de5'
p584
sg21
Vldr r2, [sp, #0x18]
p585
sg5
L611964L
sg6
Nsg23
S'LDR'
p586
sg25
S'0x9567cL'
p587
sg27
Nsba(ibclass
BInstr
p588
(dp589
g2
Nsg17
S'LDR     LR, [SP,#0x50+r]'
p590
sg19
S'00e09de5'
p591
sg21
Vldr lr, [sp]
p592
sg5
L611968L
sg6
Nsg23
S'LDR'
p593
sg25
S'0x95680L'
p594
sg27
Nsba(ibclass
BInstr
p595
(dp596
g2
Nsg17
S'LDR     R7, [R2,#4]'
p597
sg19
S'047092e5'
p598
sg21
Vldr r7, [r2, #4]
p599
sg5
L611972L
sg6
Nsg23
S'LDR'
p600
sg25
S'0x95684L'
p601
sg27
Nsba(ibclass
BInstr
p602
(dp603
g2
Nsg17
S'LDR     R3, [LR,#8]'
p604
sg19
S'08309ee5'
p605
sg21
Vldr r3, [lr, #8]
p606
sg5
L611976L
sg6
Nsg23
S'LDR'
p607
sg25
S'0x95688L'
p608
sg27
Nsba(ibclass
BInstr
p609
(dp610
g2
Nsg17
S'MOV     R10, R0'
p611
sg19
S'00a0a0e1'
p612
sg21
Vmov sl, r0
p613
sg5
L611980L
sg6
Nsg23
S'MOV'
p614
sg25
S'0x9568cL'
p615
sg27
Nsba(ibclass
BInstr
p616
(dp617
g2
Nsg17
S'CMP     top, R3'
p618
sg19
S'030057e1'
p619
sg21
Vcmp r7, r3
p620
sg5
L611984L
sg6
Nsg23
S'CMP'
p621
sg25
S'0x95690L'
p622
sg27
Nsba(ibclass
BInstr
p623
(dp624
g2
Nsg17
S'BGT     loc_95988'
p625
sg19
S'bb0000ca'
p626
sg21
Vbgt #0x2f4
p627
sg5
L611988L
sg6
Nsg23
g110
sg25
S'0x95694L'
p628
sg27
Nsbasg112
(lp629
S'LDR R0, mem'
p630
aS'BL BN_num_bits'
p631
aS'MOV R8, R0'
p632
aS'LDR R0, mem'
p633
aS'BL BN_num_bits'
p634
aS'LDR R2, mem'
p635
aS'LDR LR, mem'
p636
aS'LDR R7, mem'
p637
aS'LDR R3, mem'
p638
aS'MOV R10, R0'
p639
aS'CMP top, R3'
p640
aS'BGT func'
p641
asg127
Nsg5
S'0x95668L'
p642
sg129
(lp643
S'0x95654L'
p644
asg6
Nsg131
(lp645
S'0x95698L'
p646
aS'0x95988L'
p647
asg135
Nsg136
Nsg137
S'8dbdb311f712aca3aedd2325b847f8a1'
p648
sg139
S'0c986958d88815f11d111b88c87c3789'
p649
sg141
(lp650
g551
ag558
ag565
ag572
ag579
ag586
ag593
ag600
ag607
ag614
ag621
ag110
asg143
Nsba(ibclass
BBasicBlock
p651
(dp652
g12
Nsg13
(lp653
(ibclass
BInstr
p654
(dp655
g2
Nsg17
S'LDR     R1, [SP,#0x50+r]'
p656
sg19
S'00109de5'
p657
sg21
Vldr r1, [sp]
p658
sg5
L611992L
sg6
Nsg23
S'LDR'
p659
sg25
S'0x95698L'
p660
sg27
Nsba(ibclass
BInstr
p661
(dp662
g2
Nsg17
S'LDR     R3, [R1,#4]'
p663
sg19
S'043091e5'
p664
sg21
Vldr r3, [r1, #4]
p665
sg5
L611996L
sg6
Nsg23
S'LDR'
p666
sg25
S'0x9569cL'
p667
sg27
Nsba(ibclass
BInstr
p668
(dp669
g2
Nsg17
S'LDR     a, [R1]'
p670
sg19
S'005091e5'
p671
sg21
Vldr r5, [r1]
p672
sg5
L612000L
sg6
Nsg23
S'LDR'
p673
sg25
S'0x956a0L'
p674
sg27
Nsba(ibclass
BInstr
p675
(dp676
g2
Nsg17
S'CMP     top, i'
p677
sg19
S'030057e1'
p678
sg21
Vcmp r7, r3
p679
sg5
L612004L
sg6
Nsg23
S'CMP'
p680
sg25
S'0x956a4L'
p681
sg27
Nsba(ibclass
BInstr
p682
(dp683
g2
Nsg17
S'BLE     loc_956C4'
p684
sg19
S'050000da'
p685
sg21
Vble #0x1c
p686
sg5
L612008L
sg6
Nsg23
g110
sg25
S'0x956a8L'
p687
sg27
Nsbasg112
(lp688
S'LDR R1, mem'
p689
aS'LDR R3, mem'
p690
aS'LDR a, mem'
p691
aS'CMP top, i'
p692
aS'BLE func'
p693
asg127
Nsg5
S'0x95698L'
p694
sg129
(lp695
S'0x95668L'
p696
aS'0x95988L'
p697
asg6
Nsg131
(lp698
S'0x956acL'
p699
aS'0x956c4L'
p700
asg135
Nsg136
Nsg137
S'62ab725e690add4ef7a7c08f744b1387'
p701
sg139
S'4eededc1987a670113a32971fbef909f'
p702
sg141
(lp703
g659
ag666
ag673
ag680
ag110
asg143
Nsba(ibclass
BBasicBlock
p704
(dp705
g12
Nsg13
(lp706
(ibclass
BInstr
p707
(dp708
g2
Nsg17
S'ADD     R2, udp, i,LSL#2'
p709
sg19
S'032185e0'
p710
sg21
Vadd r2, r5, r3, lsl #2
p711
sg5
L612012L
sg6
Nsg23
S'ADD'
p712
sg25
S'0x956acL'
p713
sg27
Nsba(ibclass
BInstr
p714
(dp715
g2
Nsg17
S'MOV     R1, #0'
p716
sg19
S'0010a0e3'
p717
sg21
Vmov r1, #0
p718
sg5
L612016L
sg6
Nsg23
S'MOV'
p719
sg25
S'0x956b0L'
p720
sg27
Nsbasg112
(lp721
S'ADD R2, udp, i,LSL#2'
p722
aS'MOV R1, #0'
p723
asg127
Nsg5
S'0x956acL'
p724
sg129
(lp725
S'0x95698L'
p726
asg6
Nsg131
(lp727
S'0x956b4L'
p728
asg135
Nsg136
Nsg137
S'615ce5aa9f5dd19ae9b57d352d1d93e8'
p729
sg139
S'087c15ae9d4e9f49b0db48d5c5da578f'
p730
sg141
(lp731
g712
ag719
asg143
Nsba(ibclass
BBasicBlock
p732
(dp733
g12
Nsg13
(lp734
(ibclass
BInstr
p735
(dp736
g2
Nsg17
S'ADD     i, i, #1'
p737
sg19
S'013083e2'
p738
sg21
Vadd r3, r3, #1
p739
sg5
L612020L
sg6
Nsg23
S'ADD'
p740
sg25
S'0x956b4L'
p741
sg27
Nsba(ibclass
BInstr
p742
(dp743
g2
Nsg17
S'CMP     top, i'
p744
sg19
S'030057e1'
p745
sg21
Vcmp r7, r3
p746
sg5
L612024L
sg6
Nsg23
S'CMP'
p747
sg25
S'0x956b8L'
p748
sg27
Nsba(ibclass
BInstr
p749
(dp750
g2
Nsg17
S'STR     R1, [R2],#4'
p751
sg19
S'041082e4'
p752
sg21
Vstr r1, [r2], #4
p753
sg5
L612028L
sg6
Nsg23
S'STR'
p754
sg25
S'0x956bcL'
p755
sg27
Nsba(ibclass
BInstr
p756
(dp757
g2
Nsg17
S'BGT     loc_956B4'
p758
sg19
S'fbffffca'
p759
sg21
Vbgt #0xfffffff4
p760
sg5
L612032L
sg6
Nsg23
g110
sg25
S'0x956c0L'
p761
sg27
Nsbasg112
(lp762
S'ADD i, i, #1'
p763
aS'CMP top, i'
p764
aS'STR R1, mem,#4'
p765
aS'BGT func'
p766
asg127
Nsg5
S'0x956b4L'
p767
sg129
(lp768
S'0x956acL'
p769
aS'0x956b4L'
p770
asg6
Nsg131
(lp771
S'0x956c4L'
p772
aS'0x956b4L'
p773
asg135
Nsg136
Nsg137
S'749bc4b25bc1b996865c9e01da6f7610'
p774
sg139
S'28a36da400dab2d44c739c7491d8f7b8'
p775
sg141
(lp776
g740
ag747
ag754
ag110
asg143
Nsba(ibclass
BBasicBlock
p777
(dp778
g12
Nsg13
(lp779
(ibclass
BInstr
p780
(dp781
g2
Nsg17
S'LDR     R2, [SP,#0x50+b]'
p782
sg19
S'04209de5'
p783
sg21
Vldr r2, [sp, #4]
p784
sg5
L612036L
sg6
Nsg23
S'LDR'
p785
sg25
S'0x956c4L'
p786
sg27
Nsba(ibclass
BInstr
p787
(dp788
g2
Nsg17
S'LDR     LR, [SP,#0x50+r]'
p789
sg19
S'00e09de5'
p790
sg21
Vldr lr, [sp]
p791
sg5
L612040L
sg6
Nsg23
S'LDR'
p792
sg25
S'0x956c8L'
p793
sg27
Nsba(ibclass
BInstr
p794
(dp795
g2
Nsg17
S'LDR     i, [R2,#8]'
p796
sg19
S'083092e5'
p797
sg21
Vldr r3, [r2, #8]
p798
sg5
L612044L
sg6
Nsg23
S'LDR'
p799
sg25
S'0x956ccL'
p800
sg27
Nsba(ibclass
BInstr
p801
(dp802
g2
Nsg17
S'STR     top, [LR,#4]'
p803
sg19
S'04708ee5'
p804
sg21
Vstr r7, [lr, #4]
p805
sg5
L612048L
sg6
Nsg23
S'STR'
p806
sg25
S'0x956d0L'
p807
sg27
Nsba(ibclass
BInstr
p808
(dp809
g2
Nsg17
S'CMP     top, R3'
p810
sg19
S'030057e1'
p811
sg21
Vcmp r7, r3
p812
sg5
L612052L
sg6
Nsg23
S'CMP'
p813
sg25
S'0x956d4L'
p814
sg27
Nsba(ibclass
BInstr
p815
(dp816
g2
Nsg17
S'BGT     loc_959A8'
p817
sg19
S'b20000ca'
p818
sg21
Vbgt #0x2d0
p819
sg5
L612056L
sg6
Nsg23
g110
sg25
S'0x956d8L'
p820
sg27
Nsbasg112
(lp821
S'LDR R2, mem'
p822
aS'LDR LR, mem'
p823
aS'LDR i, mem'
p824
aS'STR top, mem'
p825
aS'CMP top, R3'
p826
aS'BGT func'
p827
asg127
Nsg5
S'0x956c4L'
p828
sg129
(lp829
S'0x95698L'
p830
aS'0x956b4L'
p831
asg6
Nsg131
(lp832
S'0x956dcL'
p833
aS'0x959a8L'
p834
asg135
Nsg136
Nsg137
S'1a7032853ddb4def83ce17384e6fd93b'
p835
sg139
S'8d099e91e16d9c5474aff76b42e40066'
p836
sg141
(lp837
g785
ag792
ag799
ag806
ag813
ag110
asg143
Nsba(ibclass
BBasicBlock
p838
(dp839
g12
Nsg13
(lp840
(ibclass
BInstr
p841
(dp842
g2
Nsg17
S'LDR     R1, [SP,#0x50+b]'
p843
sg19
S'04109de5'
p844
sg21
Vldr r1, [sp, #4]
p845
sg5
L612060L
sg6
Nsg23
S'LDR'
p846
sg25
S'0x956dcL'
p847
sg27
Nsba(ibclass
BInstr
p848
(dp849
g2
Nsg17
S'MOV     R3, #1'
p850
sg19
S'0130a0e3'
p851
sg21
Vmov r3, #1
p852
sg5
L612064L
sg6
Nsg23
S'MOV'
p853
sg25
S'0x956e0L'
p854
sg27
Nsba(ibclass
BInstr
p855
(dp856
g2
Nsg17
S'LDR     R6, [R1]'
p857
sg19
S'006091e5'
p858
sg21
Vldr r6, [r1]
p859
sg5
L612068L
sg6
Nsg23
S'LDR'
p860
sg25
S'0x956e4L'
p861
sg27
Nsba(ibclass
BInstr
p862
(dp863
g2
Nsg17
S'CMP     top, #1'
p864
sg19
S'010057e3'
p865
sg21
Vcmp r7, #1
p866
sg5
L612072L
sg6
Nsg23
S'CMP'
p867
sg25
S'0x956e8L'
p868
sg27
Nsba(ibclass
BInstr
p869
(dp870
g2
Nsg17
S'STR     R3, [bdp]'
p871
sg19
S'003086e5'
p872
sg21
Vstr r3, [r6]
p873
sg5
L612076L
sg6
Nsg23
S'STR'
p874
sg25
S'0x956ecL'
p875
sg27
Nsba(ibclass
BInstr
p876
(dp877
g2
Nsg17
S'BLE     loc_95708'
p878
sg19
S'040000da'
p879
sg21
Vble #0x18
p880
sg5
L612080L
sg6
Nsg23
g110
sg25
S'0x956f0L'
p881
sg27
Nsbasg112
(lp882
S'LDR R1, mem'
p883
aS'MOV R3, #1'
p884
aS'LDR R6, mem'
p885
aS'CMP top, #1'
p886
aS'STR R3, mem'
p887
aS'BLE func'
p888
asg127
Nsg5
S'0x956dcL'
p889
sg129
(lp890
S'0x956c4L'
p891
aS'0x959a8L'
p892
asg6
Nsg131
(lp893
S'0x956f4L'
p894
aS'0x95708L'
p895
asg135
Nsg136
Nsg137
S'c3e6d555dacf924118163821ca79ad44'
p896
sg139
S'2538211411554ad75effbc9b7116c2ba'
p897
sg141
(lp898
g846
ag853
ag860
ag867
ag874
ag110
asg143
Nsba(ibclass
BBasicBlock
p899
(dp900
g12
Nsg13
(lp901
(ibclass
BInstr
p902
(dp903
g2
Nsg17
S'MOV     R2, #0'
p904
sg19
S'0020a0e3'
p905
sg21
Vmov r2, #0
p906
sg5
L612084L
sg6
Nsg23
S'MOV'
p907
sg25
S'0x956f4L'
p908
sg27
Nsbasg112
(lp909
S'MOV R2, #0'
p910
asg127
Nsg5
S'0x956f4L'
p911
sg129
(lp912
S'0x956dcL'
p913
asg6
Nsg131
(lp914
S'0x956f8L'
p915
asg135
Nsg136
Nsg137
S'17b32100aef1fc19670be7fd58bc85df'
p916
sg139
S'5dc65855a9b8d3987615645b7de8ffab'
p917
sg141
(lp918
g907
asg143
Nsba(ibclass
BBasicBlock
p919
(dp920
g12
Nsg13
(lp921
(ibclass
BInstr
p922
(dp923
g2
Nsg17
S'STR     R2, [bdp,R3,LSL#2]'
p924
sg19
S'032186e7'
p925
sg21
Vstr r2, [r6, r3, lsl #2]
p926
sg5
L612088L
sg6
Nsg23
S'STR'
p927
sg25
S'0x956f8L'
p928
sg27
Nsba(ibclass
BInstr
p929
(dp930
g2
Nsg17
S'ADD     i, i, #1'
p931
sg19
S'013083e2'
p932
sg21
Vadd r3, r3, #1
p933
sg5
L612092L
sg6
Nsg23
S'ADD'
p934
sg25
S'0x956fcL'
p935
sg27
Nsba(ibclass
BInstr
p936
(dp937
g2
Nsg17
S'CMP     i, top'
p938
sg19
S'070053e1'
p939
sg21
Vcmp r3, r7
p940
sg5
L612096L
sg6
Nsg23
S'CMP'
p941
sg25
S'0x95700L'
p942
sg27
Nsba(ibclass
BInstr
p943
(dp944
g2
Nsg17
S'BNE     loc_956F8'
p945
sg19
S'fbffff1a'
p946
sg21
Vbne #0xfffffff4
p947
sg5
L612100L
sg6
Nsg23
g110
sg25
S'0x95704L'
p948
sg27
Nsbasg112
(lp949
S'STR R2, mem'
p950
aS'ADD i, i, #1'
p951
aS'CMP i, top'
p952
aS'BNE func'
p953
asg127
Nsg5
S'0x956f8L'
p954
sg129
(lp955
S'0x956f4L'
p956
aS'0x956f8L'
p957
asg6
Nsg131
(lp958
S'0x95708L'
p959
aS'0x956f8L'
p960
asg135
Nsg136
Nsg137
S'3242834cda882747962b601effdd48d2'
p961
sg139
S'e71ad084fe77321f987a66099de69d3e'
p962
sg141
(lp963
g927
ag934
ag941
ag110
asg143
Nsba(ibclass
BBasicBlock
p964
(dp965
g12
Nsg13
(lp966
(ibclass
BInstr
p967
(dp968
g2
Nsg17
S'LDR     R2, [SP,#0x50+var_40]'
p969
sg19
S'10209de5'
p970
sg21
Vldr r2, [sp, #0x10]
p971
sg5
L612104L
sg6
Nsg23
S'LDR'
p972
sg25
S'0x95708L'
p973
sg27
Nsba(ibclass
BInstr
p974
(dp975
g2
Nsg17
S'LDR     LR, [SP,#0x50+b]'
p976
sg19
S'04e09de5'
p977
sg21
Vldr lr, [sp, #4]
p978
sg5
L612108L
sg6
Nsg23
S'LDR'
p979
sg25
S'0x9570cL'
p980
sg27
Nsba(ibclass
BInstr
p981
(dp982
g2
Nsg17
S'LDR     i, [R2,#8]'
p983
sg19
S'083092e5'
p984
sg21
Vldr r3, [r2, #8]
p985
sg5
L612112L
sg6
Nsg23
S'LDR'
p986
sg25
S'0x95710L'
p987
sg27
Nsba(ibclass
BInstr
p988
(dp989
g2
Nsg17
S'STR     top, [LR,#4]'
p990
sg19
S'04708ee5'
p991
sg21
Vstr r7, [lr, #4]
p992
sg5
L612116L
sg6
Nsg23
S'STR'
p993
sg25
S'0x95714L'
p994
sg27
Nsba(ibclass
BInstr
p995
(dp996
g2
Nsg17
S'CMP     top, R3'
p997
sg19
S'030057e1'
p998
sg21
Vcmp r7, r3
p999
sg5
L612120L
sg6
Nsg23
S'CMP'
p1000
sg25
S'0x95718L'
p1001
sg27
Nsba(ibclass
BInstr
p1002
(dp1003
g2
Nsg17
S'BGT     loc_95998'
p1004
sg19
S'9d0000ca'
p1005
sg21
Vbgt #0x27c
p1006
sg5
L612124L
sg6
Nsg23
g110
sg25
S'0x9571cL'
p1007
sg27
Nsbasg112
(lp1008
S'LDR R2, mem'
p1009
aS'LDR LR, mem'
p1010
aS'LDR i, mem'
p1011
aS'STR top, mem'
p1012
aS'CMP top, R3'
p1013
aS'BGT func'
p1014
asg127
Nsg5
S'0x95708L'
p1015
sg129
(lp1016
S'0x956dcL'
p1017
aS'0x956f8L'
p1018
asg6
Nsg131
(lp1019
S'0x95720L'
p1020
aS'0x95998L'
p1021
asg135
Nsg136
Nsg137
S'1a7032853ddb4def83ce17384e6fd93b'
p1022
sg139
S'8d099e91e16d9c5474aff76b42e40066'
p1023
sg141
(lp1024
g972
ag979
ag986
ag993
ag1000
ag110
asg143
Nsba(ibclass
BBasicBlock
p1025
(dp1026
g12
Nsg13
(lp1027
(ibclass
BInstr
p1028
(dp1029
g2
Nsg17
S'LDR     R1, [SP,#0x50+var_40]'
p1030
sg19
S'10109de5'
p1031
sg21
Vldr r1, [sp, #0x10]
p1032
sg5
L612128L
sg6
Nsg23
S'LDR'
p1033
sg25
S'0x95720L'
p1034
sg27
Nsba(ibclass
BInstr
p1035
(dp1036
g2
Nsg17
S'CMP     top, #0'
p1037
sg19
S'000057e3'
p1038
sg21
Vcmp r7, #0
p1039
sg5
L612132L
sg6
Nsg23
S'CMP'
p1040
sg25
S'0x95724L'
p1041
sg27
Nsba(ibclass
BInstr
p1042
(dp1043
g2
Nsg17
S'LDR     R1, [R1]'
p1044
sg19
S'001091e5'
p1045
sg21
Vldr r1, [r1]
p1046
sg5
L612136L
sg6
Nsg23
S'LDR'
p1047
sg25
S'0x95728L'
p1048
sg27
Nsba(ibclass
BInstr
p1049
(dp1050
g2
Nsg17
S'STR     R1, [SP,#0x50+var_48]'
p1051
sg19
S'08108de5'
p1052
sg21
Vstr r1, [sp, #8]
p1053
sg5
L612140L
sg6
Nsg23
S'STR'
p1054
sg25
S'0x9572cL'
p1055
sg27
Nsba(ibclass
BInstr
p1056
(dp1057
g2
Nsg17
S'BLE     loc_9574C'
p1058
sg19
S'050000da'
p1059
sg21
Vble #0x1c
p1060
sg5
L612144L
sg6
Nsg23
g110
sg25
S'0x95730L'
p1061
sg27
Nsbasg112
(lp1062
S'LDR R1, mem'
p1063
aS'CMP top, #0'
p1064
aS'LDR R1, mem'
p1065
aS'STR R1, mem'
p1066
aS'BLE func'
p1067
asg127
Nsg5
S'0x95720L'
p1068
sg129
(lp1069
S'0x95708L'
p1070
aS'0x95998L'
p1071
asg6
Nsg131
(lp1072
S'0x95734L'
p1073
aS'0x9574cL'
p1074
asg135
Nsg136
Nsg137
S'2442af3588ba9c1512b06faf497f1dcb'
p1075
sg139
S'c589866cddd4fd8388ad8d903cf36deb'
p1076
sg141
(lp1077
g1033
ag1040
ag1047
ag1054
ag110
asg143
Nsba(ibclass
BBasicBlock
p1078
(dp1079
g12
Nsg13
(lp1080
(ibclass
BInstr
p1081
(dp1082
g2
Nsg17
S'MOV     R3, #0'
p1083
sg19
S'0030a0e3'
p1084
sg21
Vmov r3, #0
p1085
sg5
L612148L
sg6
Nsg23
S'MOV'
p1086
sg25
S'0x95734L'
p1087
sg27
Nsba(ibclass
BInstr
p1088
(dp1089
g2
Nsg17
S'MOV     R2, i'
p1090
sg19
S'0320a0e1'
p1091
sg21
Vmov r2, r3
p1092
sg5
L612152L
sg6
Nsg23
S'MOV'
p1093
sg25
S'0x95738L'
p1094
sg27
Nsbasg112
(lp1095
S'MOV R3, #0'
p1096
aS'MOV R2, i'
p1097
asg127
Nsg5
S'0x95734L'
p1098
sg129
(lp1099
S'0x95720L'
p1100
asg6
Nsg131
(lp1101
S'0x9573cL'
p1102
asg135
Nsg136
Nsg137
S'9550fc5ede544c04b34283aa3b0709c7'
p1103
sg139
S'ef6b46de5deedc9fc05dc572144120f1'
p1104
sg141
(lp1105
g1086
ag1093
asg143
Nsba(ibclass
BBasicBlock
p1106
(dp1107
g12
Nsg13
(lp1108
(ibclass
BInstr
p1109
(dp1110
g2
Nsg17
S'STR     R2, [R1,i,LSL#2]'
p1111
sg19
S'032181e7'
p1112
sg21
Vstr r2, [r1, r3, lsl #2]
p1113
sg5
L612156L
sg6
Nsg23
S'STR'
p1114
sg25
S'0x9573cL'
p1115
sg27
Nsba(ibclass
BInstr
p1116
(dp1117
g2
Nsg17
S'ADD     i, i, #1'
p1118
sg19
S'013083e2'
p1119
sg21
Vadd r3, r3, #1
p1120
sg5
L612160L
sg6
Nsg23
S'ADD'
p1121
sg25
S'0x95740L'
p1122
sg27
Nsba(ibclass
BInstr
p1123
(dp1124
g2
Nsg17
S'CMP     i, top'
p1125
sg19
S'070053e1'
p1126
sg21
Vcmp r3, r7
p1127
sg5
L612164L
sg6
Nsg23
S'CMP'
p1128
sg25
S'0x95744L'
p1129
sg27
Nsba(ibclass
BInstr
p1130
(dp1131
g2
Nsg17
S'BNE     loc_9573C'
p1132
sg19
S'fbffff1a'
p1133
sg21
Vbne #0xfffffff4
p1134
sg5
L612168L
sg6
Nsg23
g110
sg25
S'0x95748L'
p1135
sg27
Nsbasg112
(lp1136
S'STR R2, mem'
p1137
aS'ADD i, i, #1'
p1138
aS'CMP i, top'
p1139
aS'BNE func'
p1140
asg127
Nsg5
S'0x9573cL'
p1141
sg129
(lp1142
S'0x95734L'
p1143
aS'0x9573cL'
p1144
asg6
Nsg131
(lp1145
S'0x9574cL'
p1146
aS'0x9573cL'
p1147
asg135
Nsg136
Nsg137
S'3242834cda882747962b601effdd48d2'
p1148
sg139
S'e71ad084fe77321f987a66099de69d3e'
p1149
sg141
(lp1150
g1114
ag1121
ag1128
ag110
asg143
Nsba(ibclass
BBasicBlock
p1151
(dp1152
g12
Nsg13
(lp1153
(ibclass
BInstr
p1154
(dp1155
g2
Nsg17
S'LDR     LR, [SP,#0x50+var_3C]'
p1156
sg19
S'14e09de5'
p1157
sg21
Vldr lr, [sp, #0x14]
p1158
sg5
L612172L
sg6
Nsg23
S'LDR'
p1159
sg25
S'0x9574cL'
p1160
sg27
Nsba(ibclass
BInstr
p1161
(dp1162
g2
Nsg17
S'SUB     R2, top, #1'
p1163
sg19
S'012047e2'
p1164
sg21
Vsub r2, r7, #1
p1165
sg5
L612176L
sg6
Nsg23
S'SUB'
p1166
sg25
S'0x95750L'
p1167
sg27
Nsba(ibclass
BInstr
p1168
(dp1169
g2
Nsg17
S'LDR     i, [SP,#0x50+var_40]'
p1170
sg19
S'10309de5'
p1171
sg21
Vldr r3, [sp, #0x10]
p1172
sg5
L612180L
sg6
Nsg23
S'LDR'
p1173
sg25
S'0x95754L'
p1174
sg27
Nsba(ibclass
BInstr
p1175
(dp1176
g2
Nsg17
S'LDR     LR, [LR]'
p1177
sg19
S'00e09ee5'
p1178
sg21
Vldr lr, [lr]
p1179
sg5
L612184L
sg6
Nsg23
S'LDR'
p1180
sg25
S'0x95758L'
p1181
sg27
Nsba(ibclass
BInstr
p1182
(dp1183
g2
Nsg17
S'MOV     cdp, R2,LSL#2'
p1184
sg19
S'0211a0e1'
p1185
sg21
Vlsl r1, r2, #2
p1186
sg5
L612188L
sg6
Nsg23
S'MOV'
p1187
sg25
S'0x9575cL'
p1188
sg27
Nsba(ibclass
BInstr
p1189
(dp1190
g2
Nsg17
S'STR     R2, [SP,#0x50+var_30]'
p1191
sg19
S'20208de5'
p1192
sg21
Vstr r2, [sp, #0x20]
p1193
sg5
L612192L
sg6
Nsg23
S'STR'
p1194
sg25
S'0x95760L'
p1195
sg27
Nsba(ibclass
BInstr
p1196
(dp1197
g2
Nsg17
S'STR     top, [R3,#4]'
p1198
sg19
S'047083e5'
p1199
sg21
Vstr r7, [r3, #4]
p1200
sg5
L612196L
sg6
Nsg23
S'STR'
p1201
sg25
S'0x95764L'
p1202
sg27
Nsba(ibclass
BInstr
p1203
(dp1204
g2
Nsg17
S'STR     LR, [SP,#0x50+var_44]'
p1205
sg19
S'0ce08de5'
p1206
sg21
Vstr lr, [sp, #0xc]
p1207
sg5
L612200L
sg6
Nsg23
S'STR'
p1208
sg25
S'0x95768L'
p1209
sg27
Nsba(ibclass
BInstr
p1210
(dp1211
g2
Nsg17
S'STR     R1, [SP,#0x50+var_2C]'
p1212
sg19
S'24108de5'
p1213
sg21
Vstr r1, [sp, #0x24]
p1214
sg5
L612204L
sg6
Nsg23
S'STR'
p1215
sg25
S'0x9576cL'
p1216
sg27
Nsbasg112
(lp1217
S'LDR LR, mem'
p1218
aS'SUB R2, top, #1'
p1219
aS'LDR i, mem'
p1220
aS'LDR LR, mem'
p1221
aS'MOV cdp, R2,LSL#2'
p1222
aS'STR R2, mem'
p1223
aS'STR top, mem'
p1224
aS'STR LR, mem'
p1225
aS'STR R1, mem'
p1226
asg127
Nsg5
S'0x9574cL'
p1227
sg129
(lp1228
S'0x95720L'
p1229
aS'0x9573cL'
p1230
asg6
Nsg131
(lp1231
S'0x95770L'
p1232
asg135
Nsg136
Nsg137
S'e31e3a3ca69bb059959c949e781fea76'
p1233
sg139
S'cdb15177628ab7a30678e645b30693d3'
p1234
sg141
(lp1235
g1159
ag1166
ag1173
ag1180
ag1187
ag1194
ag1201
ag1208
ag1215
asg143
Nsba(ibclass
BBasicBlock
p1236
(dp1237
g12
Nsg13
(lp1238
(ibclass
BInstr
p1239
(dp1240
g2
Nsg17
S'CMP     ubits, #0'
p1241
sg19
S'000058e3'
p1242
sg21
Vcmp r8, #0
p1243
sg5
L612208L
sg6
Nsg23
S'CMP'
p1244
sg25
S'0x95770L'
p1245
sg27
Nsba(ibclass
BInstr
p1246
(dp1247
g2
Nsg17
S'LDREQ   R12, [udp]'
p1248
sg19
S'00c09505'
p1249
sg21
Vldreq ip, [r5]
p1250
sg5
L612212L
sg6
Nsg23
S'LDR'
p1251
sg25
S'0x95774L'
p1252
sg27
Nsba(ibclass
BInstr
p1253
(dp1254
g2
Nsg17
S'BNE     loc_957F0'
p1255
sg19
S'1c00001a'
p1256
sg21
Vbne #0x78
p1257
sg5
L612216L
sg6
Nsg23
g110
sg25
S'0x95778L'
p1258
sg27
Nsbasg112
(lp1259
S'CMP ubits, #0'
p1260
aS'LDREQ R12, mem'
p1261
aS'BNE func'
p1262
asg127
Nsg5
S'0x95770L'
p1263
sg129
(lp1264
S'0x9574cL'
p1265
aS'0x958b4L'
p1266
asg6
Nsg131
(lp1267
S'0x9577cL'
p1268
aS'0x957f0L'
p1269
asg135
Nsg136
Nsg137
S'f14ba23bebb3d568b56c4c24e1549c7e'
p1270
sg139
S'cd02253d35f4decb3f1744b494b94239'
p1271
sg141
(lp1272
g1244
ag1251
ag110
asg143
Nsba(ibclass
BBasicBlock
p1273
(dp1274
g12
Nsg13
(lp1275
(ibclass
BInstr
p1276
(dp1277
g2
Nsg17
S'CMP     u0, #1'
p1278
sg19
S'01005ce3'
p1279
sg21
Vcmp ip, #1
p1280
sg5
L612220L
sg6
Nsg23
S'CMP'
p1281
sg25
S'0x9577cL'
p1282
sg27
Nsba(ibclass
BInstr
p1283
(dp1284
g2
Nsg17
S'BEQ     loc_9592C'
p1285
sg19
S'6900000a'
p1286
sg21
Vbeq #0x1ac
p1287
sg5
L612224L
sg6
Nsg23
g110
sg25
S'0x95780L'
p1288
sg27
Nsbasg112
(lp1289
S'CMP u0, #1'
p1290
aS'BEQ func'
p1291
asg127
Nsg5
S'0x9577cL'
p1292
sg129
(lp1293
S'0x95770L'
p1294
aS'0x957dcL'
p1295
aS'0x957fcL'
p1296
asg6
Nsg131
(lp1297
S'0x95784L'
p1298
aS'0x9592cL'
p1299
asg135
Nsg136
Nsg137
S'c78fd620a449e3c979d3f3ec12d4ee88'
p1300
sg139
S'7a828f09a1fd82b526696938590ab0e9'
p1301
sg141
(lp1302
g1281
ag110
asg143
Nsba(ibclass
BBasicBlock
p1303
(dp1304
g12
Nsg13
(lp1305
(ibclass
BInstr
p1306
(dp1307
g2
Nsg17
S'CMP     ubits, vbits'
p1308
sg19
S'0a0058e1'
p1309
sg21
Vcmp r8, sl
p1310
sg5
L612228L
sg6
Nsg23
S'CMP'
p1311
sg25
S'0x95784L'
p1312
sg27
Nsba(ibclass
BInstr
p1313
(dp1314
g2
Nsg17
S'BLT     loc_9580C'
p1315
sg19
S'1f0000ba'
p1316
sg21
Vblt #0x84
p1317
sg5
L612232L
sg6
Nsg23
g110
sg25
S'0x95788L'
p1318
sg27
Nsbasg112
(lp1319
S'CMP ubits, vbits'
p1320
aS'BLT func'
p1321
asg127
Nsg5
S'0x95784L'
p1322
sg129
(lp1323
S'0x9577cL'
p1324
asg6
Nsg131
(lp1325
S'0x9578cL'
p1326
aS'0x9580cL'
p1327
asg135
Nsg136
Nsg137
S'c78fd620a449e3c979d3f3ec12d4ee88'
p1328
sg139
S'6caec285af4a85034613c53f99767e59'
p1329
sg141
(lp1330
g1311
ag110
asg143
Nsba(ibclass
BBasicBlock
p1331
(dp1332
g12
Nsg13
(lp1333
(ibclass
BInstr
p1334
(dp1335
g2
Nsg17
S'LDR     cdp, [SP,#0x50+var_48]'
p1336
sg19
S'08b09de5'
p1337
sg21
Vldr fp, [sp, #8]
p1338
sg5
L612236L
sg6
Nsg23
S'LDR'
p1339
sg25
S'0x9578cL'
p1340
sg27
Nsba(ibclass
BInstr
p1341
(dp1342
g2
Nsg17
S'LDR     vdp, [SP,#0x50+var_44]'
p1343
sg19
S'0c909de5'
p1344
sg21
Vldr sb, [sp, #0xc]
p1345
sg5
L612240L
sg6
Nsg23
S'LDR'
p1346
sg25
S'0x95790L'
p1347
sg27
Nsbasg112
(lp1348
S'LDR cdp, mem'
p1349
aS'LDR vdp, mem'
p1350
asg127
Nsg5
S'0x9578cL'
p1351
sg129
(lp1352
S'0x95784L'
p1353
aS'0x95804L'
p1354
asg6
Nsg131
(lp1355
S'0x95794L'
p1356
asg135
Nsg136
Nsg137
S'21ff94608a2748267b1ec014923ca646'
p1357
sg139
S'62032dc0dda2b90c2b3b8bf88af35f88'
p1358
sg141
(lp1359
g1339
ag1346
asg143
Nsba(ibclass
BBasicBlock
p1360
(dp1361
g12
Nsg13
(lp1362
(ibclass
BInstr
p1363
(dp1364
g2
Nsg17
S'CMP     top, #0'
p1365
sg19
S'000057e3'
p1366
sg21
Vcmp r7, #0
p1367
sg5
L612244L
sg6
Nsg23
S'CMP'
p1368
sg25
S'0x95794L'
p1369
sg27
Nsba(ibclass
BInstr
p1370
(dp1371
g2
Nsg17
S'BLE     loc_957D4'
p1372
sg19
S'0d0000da'
p1373
sg21
Vble #0x3c
p1374
sg5
L612248L
sg6
Nsg23
g110
sg25
S'0x95798L'
p1375
sg27
Nsbasg112
(lp1376
S'CMP top, #0'
p1377
aS'BLE func'
p1378
asg127
Nsg5
S'0x95794L'
p1379
sg129
(lp1380
S'0x9578cL'
p1381
aS'0x9580cL'
p1382
asg6
Nsg131
(lp1383
S'0x9579cL'
p1384
aS'0x957d4L'
p1385
asg135
Nsg136
Nsg137
S'c78fd620a449e3c979d3f3ec12d4ee88'
p1386
sg139
S'7e3aef2c56982c9b4e41a876f6725c05'
p1387
sg141
(lp1388
g1368
ag110
asg143
Nsba(ibclass
BBasicBlock
p1389
(dp1390
g12
Nsg13
(lp1391
(ibclass
BInstr
p1392
(dp1393
g2
Nsg17
S'MOV     b, #0'
p1394
sg19
S'0030a0e3'
p1395
sg21
Vmov r3, #0
p1396
sg5
L612252L
sg6
Nsg23
S'MOV'
p1397
sg25
S'0x9579cL'
p1398
sg27
Nsba(ibclass
BInstr
p1399
(dp1400
g2
Nsg17
S'MOV     i, R3'
p1401
sg19
S'0320a0e1'
p1402
sg21
Vmov r2, r3
p1403
sg5
L612256L
sg6
Nsg23
S'MOV'
p1404
sg25
S'0x957a0L'
p1405
sg27
Nsbasg112
(lp1406
S'MOV b, #0'
p1407
aS'MOV i, R3'
p1408
asg127
Nsg5
S'0x9579cL'
p1409
sg129
(lp1410
S'0x95794L'
p1411
asg6
Nsg131
(lp1412
S'0x957a4L'
p1413
asg135
Nsg136
Nsg137
S'9550fc5ede544c04b34283aa3b0709c7'
p1414
sg139
S'a0c20c6789951c065723d43f8bd7ea69'
p1415
sg141
(lp1416
g1397
ag1404
asg143
Nsba(ibclass
BBasicBlock
p1417
(dp1418
g12
Nsg13
(lp1419
(ibclass
BInstr
p1420
(dp1421
g2
Nsg17
S'LDR     mask, [udp,R3]'
p1422
sg19
S'030095e7'
p1423
sg21
Vldr r0, [r5, r3]
p1424
sg5
L612260L
sg6
Nsg23
S'LDR'
p1425
sg25
S'0x957a4L'
p1426
sg27
Nsba(ibclass
BInstr
p1427
(dp1428
g2
Nsg17
S'LDR     R1, [vdp,R3]'
p1429
sg19
S'031099e7'
p1430
sg21
Vldr r1, [sb, r3]
p1431
sg5
L612264L
sg6
Nsg23
S'LDR'
p1432
sg25
S'0x957a8L'
p1433
sg27
Nsba(ibclass
BInstr
p1434
(dp1435
g2
Nsg17
S'ADD     i, i, #1'
p1436
sg19
S'012082e2'
p1437
sg21
Vadd r2, r2, #1
p1438
sg5
L612268L
sg6
Nsg23
S'ADD'
p1439
sg25
S'0x957acL'
p1440
sg27
Nsba(ibclass
BInstr
p1441
(dp1442
g2
Nsg17
S'EOR     R1, R0, R1'
p1443
sg19
S'011020e0'
p1444
sg21
Veor r1, r0, r1
p1445
sg5
L612272L
sg6
Nsg23
S'EOR'
p1446
sg25
S'0x957b0L'
p1447
sg27
Nsba(ibclass
BInstr
p1448
(dp1449
g2
Nsg17
S'STR     R1, [udp,R3]'
p1450
sg19
S'031085e7'
p1451
sg21
Vstr r1, [r5, r3]
p1452
sg5
L612276L
sg6
Nsg23
S'STR'
p1453
sg25
S'0x957b4L'
p1454
sg27
Nsba(ibclass
BInstr
p1455
(dp1456
g2
Nsg17
S'LDR     R0, [bdp,R3]'
p1457
sg19
S'030096e7'
p1458
sg21
Vldr r0, [r6, r3]
p1459
sg5
L612280L
sg6
Nsg23
S'LDR'
p1460
sg25
S'0x957b8L'
p1461
sg27
Nsba(ibclass
BInstr
p1462
(dp1463
g2
Nsg17
S'LDR     R1, [cdp,R3]'
p1464
sg19
S'03109be7'
p1465
sg21
Vldr r1, [fp, r3]
p1466
sg5
L612284L
sg6
Nsg23
S'LDR'
p1467
sg25
S'0x957bcL'
p1468
sg27
Nsba(ibclass
BInstr
p1469
(dp1470
g2
Nsg17
S'CMP     i, top'
p1471
sg19
S'070052e1'
p1472
sg21
Vcmp r2, r7
p1473
sg5
L612288L
sg6
Nsg23
S'CMP'
p1474
sg25
S'0x957c0L'
p1475
sg27
Nsba(ibclass
BInstr
p1476
(dp1477
g2
Nsg17
S'EOR     R1, R0, R1'
p1478
sg19
S'011020e0'
p1479
sg21
Veor r1, r0, r1
p1480
sg5
L612292L
sg6
Nsg23
S'EOR'
p1481
sg25
S'0x957c4L'
p1482
sg27
Nsba(ibclass
BInstr
p1483
(dp1484
g2
Nsg17
S'STR     R1, [bdp,R3]'
p1485
sg19
S'031086e7'
p1486
sg21
Vstr r1, [r6, r3]
p1487
sg5
L612296L
sg6
Nsg23
S'STR'
p1488
sg25
S'0x957c8L'
p1489
sg27
Nsba(ibclass
BInstr
p1490
(dp1491
g2
Nsg17
S'ADD     R3, R3, #4'
p1492
sg19
S'043083e2'
p1493
sg21
Vadd r3, r3, #4
p1494
sg5
L612300L
sg6
Nsg23
S'ADD'
p1495
sg25
S'0x957ccL'
p1496
sg27
Nsba(ibclass
BInstr
p1497
(dp1498
g2
Nsg17
S'BNE     loc_957A4'
p1499
sg19
S'f3ffff1a'
p1500
sg21
Vbne #0xffffffd4
p1501
sg5
L612304L
sg6
Nsg23
g110
sg25
S'0x957d0L'
p1502
sg27
Nsbasg112
(lp1503
S'LDR mask, mem'
p1504
aS'LDR R1, mem'
p1505
aS'ADD i, i, #1'
p1506
aS'EOR R1, R0, R1'
p1507
aS'STR R1, mem'
p1508
aS'LDR R0, mem'
p1509
aS'LDR R1, mem'
p1510
aS'CMP i, top'
p1511
aS'EOR R1, R0, R1'
p1512
aS'STR R1, mem'
p1513
aS'ADD R3, R3, #4'
p1514
aS'BNE func'
p1515
asg127
Nsg5
S'0x957a4L'
p1516
sg129
(lp1517
S'0x9579cL'
p1518
aS'0x957a4L'
p1519
asg6
Nsg131
(lp1520
S'0x957d4L'
p1521
aS'0x957a4L'
p1522
asg135
Nsg136
Nsg137
S'1391ba4184f5e6ad18a2dbf8ab2dca35'
p1523
sg139
S'07057ff1faebefc743ff786be36a1494'
p1524
sg141
(lp1525
g1425
ag1432
ag1439
ag1446
ag1453
ag1460
ag1467
ag1474
ag1481
ag1488
ag1495
ag110
asg143
Nsba(ibclass
BBasicBlock
p1526
(dp1527
g12
Nsg13
(lp1528
(ibclass
BInstr
p1529
(dp1530
g2
Nsg17
S'CMP     ubits, vbits'
p1531
sg19
S'0a0058e1'
p1532
sg21
Vcmp r8, sl
p1533
sg5
L612308L
sg6
Nsg23
S'CMP'
p1534
sg25
S'0x957d4L'
p1535
sg27
Nsba(ibclass
BInstr
p1536
(dp1537
g2
Nsg17
S'BEQ     loc_958CC'
p1538
sg19
S'3b00000a'
p1539
sg21
Vbeq #0xf4
p1540
sg5
L612312L
sg6
Nsg23
g110
sg25
S'0x957d8L'
p1541
sg27
Nsbasg112
(lp1542
S'CMP ubits, vbits'
p1543
aS'BEQ func'
p1544
asg127
Nsg5
S'0x957d4L'
p1545
sg129
(lp1546
S'0x95794L'
p1547
aS'0x957a4L'
p1548
asg6
Nsg131
(lp1549
S'0x957dcL'
p1550
aS'0x958ccL'
p1551
asg135
Nsg136
Nsg137
S'c78fd620a449e3c979d3f3ec12d4ee88'
p1552
sg139
S'3ec51977444e382c0725fe3639d49ac2'
p1553
sg141
(lp1554
g1534
ag110
asg143
Nsba(ibclass
BBasicBlock
p1555
(dp1556
g12
Nsg13
(lp1557
(ibclass
BInstr
p1558
(dp1559
g2
Nsg17
S'CMP     ubits, #0'
p1560
sg19
S'000058e3'
p1561
sg21
Vcmp r8, #0
p1562
sg5
L612316L
sg6
Nsg23
S'CMP'
p1563
sg25
S'0x957dcL'
p1564
sg27
Nsba(ibclass
BInstr
p1565
(dp1566
g2
Nsg17
S'STR     cdp, [SP,#0x50+var_48]'
p1567
sg19
S'08b08de5'
p1568
sg21
Vstr fp, [sp, #8]
p1569
sg5
L612320L
sg6
Nsg23
S'STR'
p1570
sg25
S'0x957e0L'
p1571
sg27
Nsba(ibclass
BInstr
p1572
(dp1573
g2
Nsg17
S'STR     vdp, [SP,#0x50+var_44]'
p1574
sg19
S'0c908de5'
p1575
sg21
Vstr sb, [sp, #0xc]
p1576
sg5
L612324L
sg6
Nsg23
S'STR'
p1577
sg25
S'0x957e4L'
p1578
sg27
Nsba(ibclass
BInstr
p1579
(dp1580
g2
Nsg17
S'LDREQ   u0, [udp]'
p1581
sg19
S'00c09505'
p1582
sg21
Vldreq ip, [r5]
p1583
sg5
L612328L
sg6
Nsg23
S'LDR'
p1584
sg25
S'0x957e8L'
p1585
sg27
Nsba(ibclass
BInstr
p1586
(dp1587
g2
Nsg17
S'BEQ     loc_9577C'
p1588
sg19
S'e2ffff0a'
p1589
sg21
Vbeq #0xffffff90
p1590
sg5
L612332L
sg6
Nsg23
g110
sg25
S'0x957ecL'
p1591
sg27
Nsbasg112
(lp1592
S'CMP ubits, #0'
p1593
aS'STR cdp, mem'
p1594
aS'STR vdp, mem'
p1595
aS'LDREQ u0, mem'
p1596
aS'BEQ func'
p1597
asg127
Nsg5
S'0x957dcL'
p1598
sg129
(lp1599
S'0x957d4L'
p1600
aS'0x95918L'
p1601
asg6
Nsg131
(lp1602
S'0x9577cL'
p1603
aS'0x957f0L'
p1604
asg135
Nsg136
Nsg137
S'7e63f2b0481c7079f1528002ceaa148e'
p1605
sg139
S'37217df972b966c2b08ab44c5d43a9ab'
p1606
sg141
(lp1607
g1563
ag1570
ag1577
ag1584
ag110
asg143
Nsba(ibclass
BBasicBlock
p1608
(dp1609
g12
Nsg13
(lp1610
(ibclass
BInstr
p1611
(dp1612
g2
Nsg17
S'LDR     u0, [udp]'
p1613
sg19
S'00c095e5'
p1614
sg21
Vldr ip, [r5]
p1615
sg5
L612336L
sg6
Nsg23
S'LDR'
p1616
sg25
S'0x957f0L'
p1617
sg27
Nsba(ibclass
BInstr
p1618
(dp1619
g2
Nsg17
S'ANDS    i, u0, #1'
p1620
sg19
S'01201ce2'
p1621
sg21
Vands r2, ip, #1
p1622
sg5
L612340L
sg6
Nsg23
S'AND'
p1623
sg25
S'0x957f4L'
p1624
sg27
Nsba(ibclass
BInstr
p1625
(dp1626
g2
Nsg17
S'BEQ     loc_9584C'
p1627
sg19
S'1300000a'
p1628
sg21
Vbeq #0x54
p1629
sg5
L612344L
sg6
Nsg23
g110
sg25
S'0x957f8L'
p1630
sg27
Nsbasg112
(lp1631
S'LDR u0, mem'
p1632
aS'ANDS i, u0, #1'
p1633
aS'BEQ func'
p1634
asg127
Nsg5
S'0x957f0L'
p1635
sg129
(lp1636
S'0x95770L'
p1637
aS'0x957dcL'
p1638
asg6
Nsg131
(lp1639
S'0x957fcL'
p1640
aS'0x9584cL'
p1641
asg135
Nsg136
Nsg137
S'a49988e3e623a5804c3c74b8f032fe79'
p1642
sg139
S'58fd826f4c7d6d4a21102d7487b3a4a0'
p1643
sg141
(lp1644
g1616
ag1623
ag110
asg143
Nsba(ibclass
BBasicBlock
p1645
(dp1646
g12
Nsg13
(lp1647
(ibclass
BInstr
p1648
(dp1649
g2
Nsg17
S'CMP     ubits, #0x40'
p1650
sg19
S'400058e3'
p1651
sg21
Vcmp r8, #0x40
p1652
sg5
L612348L
sg6
Nsg23
S'CMP'
p1653
sg25
S'0x957fcL'
p1654
sg27
Nsba(ibclass
BInstr
p1655
(dp1656
g2
Nsg17
S'BLE     loc_9577C'
p1657
sg19
S'ddffffda'
p1658
sg21
Vble #0xffffff7c
p1659
sg5
L612352L
sg6
Nsg23
g110
sg25
S'0x95800L'
p1660
sg27
Nsbasg112
(lp1661
S'CMP ubits, #0x40'
p1662
aS'BLE func'
p1663
asg127
Nsg5
S'0x957fcL'
p1664
sg129
(lp1665
S'0x957f0L'
p1666
asg6
Nsg131
(lp1667
S'0x9577cL'
p1668
aS'0x95804L'
p1669
asg135
Nsg136
Nsg137
S'c78fd620a449e3c979d3f3ec12d4ee88'
p1670
sg139
S'2c92b989c5aa50678ce854add1a39e2a'
p1671
sg141
(lp1672
g1653
ag110
asg143
Nsba(ibclass
BBasicBlock
p1673
(dp1674
g12
Nsg13
(lp1675
(ibclass
BInstr
p1676
(dp1677
g2
Nsg17
S'CMP     ubits, vbits'
p1678
sg19
S'0a0058e1'
p1679
sg21
Vcmp r8, sl
p1680
sg5
L612356L
sg6
Nsg23
S'CMP'
p1681
sg25
S'0x95804L'
p1682
sg27
Nsba(ibclass
BInstr
p1683
(dp1684
g2
Nsg17
S'BGE     loc_9578C'
p1685
sg19
S'dfffffaa'
p1686
sg21
Vbge #0xffffff84
p1687
sg5
L612360L
sg6
Nsg23
g110
sg25
S'0x95808L'
p1688
sg27
Nsbasg112
(lp1689
S'CMP ubits, vbits'
p1690
aS'BGE func'
p1691
asg127
Nsg5
S'0x95804L'
p1692
sg129
(lp1693
S'0x957fcL'
p1694
asg6
Nsg131
(lp1695
S'0x9578cL'
p1696
aS'0x9580cL'
p1697
asg135
Nsg136
Nsg137
S'c78fd620a449e3c979d3f3ec12d4ee88'
p1698
sg139
S'ca89f7d820dd7050cf346ecba0a5946b'
p1699
sg141
(lp1700
g1681
ag110
asg143
Nsba(ibclass
BBasicBlock
p1701
(dp1702
g12
Nsg13
(lp1703
(ibclass
BInstr
p1704
(dp1705
g2
Nsg17
S'LDR     i, [SP,#0x50+r]'
p1706
sg19
S'00209de5'
p1707
sg21
Vldr r2, [sp]
p1708
sg5
L612364L
sg6
Nsg23
S'LDR'
p1709
sg25
S'0x9580cL'
p1710
sg27
Nsba(ibclass
BInstr
p1711
(dp1712
g2
Nsg17
S'MOV     R1, ubits'
p1713
sg19
S'0810a0e1'
p1714
sg21
Vmov r1, r8
p1715
sg5
L612368L
sg6
Nsg23
S'MOV'
p1716
sg25
S'0x95810L'
p1717
sg27
Nsba(ibclass
BInstr
p1718
(dp1719
g2
Nsg17
S'LDR     b, [SP,#0x50+b]'
p1720
sg19
S'04309de5'
p1721
sg21
Vldr r3, [sp, #4]
p1722
sg5
L612372L
sg6
Nsg23
S'LDR'
p1723
sg25
S'0x95814L'
p1724
sg27
Nsba(ibclass
BInstr
p1725
(dp1726
g2
Nsg17
S'MOV     ubits, vbits'
p1727
sg19
S'0a80a0e1'
p1728
sg21
Vmov r8, sl
p1729
sg5
L612376L
sg6
Nsg23
S'MOV'
p1730
sg25
S'0x95818L'
p1731
sg27
Nsba(ibclass
BInstr
p1732
(dp1733
g2
Nsg17
S'LDR     vdp, [u]'
p1734
sg19
S'009092e5'
p1735
sg21
Vldr sb, [r2]
p1736
sg5
L612380L
sg6
Nsg23
S'LDR'
p1737
sg25
S'0x9581cL'
p1738
sg27
Nsba(ibclass
BInstr
p1739
(dp1740
g2
Nsg17
S'MOV     vbits, R1'
p1741
sg19
S'01a0a0e1'
p1742
sg21
Vmov sl, r1
p1743
sg5
L612384L
sg6
Nsg23
S'MOV'
p1744
sg25
S'0x95820L'
p1745
sg27
Nsba(ibclass
BInstr
p1746
(dp1747
g2
Nsg17
S'LDR     R1, [SP,#0x50+var_3C]'
p1748
sg19
S'14109de5'
p1749
sg21
Vldr r1, [sp, #0x14]
p1750
sg5
L612388L
sg6
Nsg23
S'LDR'
p1751
sg25
S'0x95824L'
p1752
sg27
Nsba(ibclass
BInstr
p1753
(dp1754
g2
Nsg17
S'STR     u, [SP,#0x50+var_3C]'
p1755
sg19
S'14208de5'
p1756
sg21
Vstr r2, [sp, #0x14]
p1757
sg5
L612392L
sg6
Nsg23
S'STR'
p1758
sg25
S'0x95828L'
p1759
sg27
Nsba(ibclass
BInstr
p1760
(dp1761
g2
Nsg17
S'LDR     u, [SP,#0x50+var_40]'
p1762
sg19
S'10209de5'
p1763
sg21
Vldr r2, [sp, #0x10]
p1764
sg5
L612396L
sg6
Nsg23
S'LDR'
p1765
sg25
S'0x9582cL'
p1766
sg27
Nsba(ibclass
BInstr
p1767
(dp1768
g2
Nsg17
S'LDR     bdp, [SP,#0x50+var_48]'
p1769
sg19
S'08609de5'
p1770
sg21
Vldr r6, [sp, #8]
p1771
sg5
L612400L
sg6
Nsg23
S'LDR'
p1772
sg25
S'0x95830L'
p1773
sg27
Nsba(ibclass
BInstr
p1774
(dp1775
g2
Nsg17
S'LDR     udp, [SP,#0x50+var_44]'
p1776
sg19
S'0c509de5'
p1777
sg21
Vldr r5, [sp, #0xc]
p1778
sg5
L612404L
sg6
Nsg23
S'LDR'
p1779
sg25
S'0x95834L'
p1780
sg27
Nsba(ibclass
BInstr
p1781
(dp1782
g2
Nsg17
S'STR     R1, [SP,#0x50+r]'
p1783
sg19
S'00108de5'
p1784
sg21
Vstr r1, [sp]
p1785
sg5
L612408L
sg6
Nsg23
S'STR'
p1786
sg25
S'0x95838L'
p1787
sg27
Nsba(ibclass
BInstr
p1788
(dp1789
g2
Nsg17
S'LDR     cdp, [b]'
p1790
sg19
S'00b093e5'
p1791
sg21
Vldr fp, [r3]
p1792
sg5
L612412L
sg6
Nsg23
S'LDR'
p1793
sg25
S'0x9583cL'
p1794
sg27
Nsba(ibclass
BInstr
p1795
(dp1796
g2
Nsg17
S'STR     R2, [SP,#0x50+b]'
p1797
sg19
S'04208de5'
p1798
sg21
Vstr r2, [sp, #4]
p1799
sg5
L612416L
sg6
Nsg23
S'STR'
p1800
sg25
S'0x95840L'
p1801
sg27
Nsba(ibclass
BInstr
p1802
(dp1803
g2
Nsg17
S'STR     b, [SP,#0x50+var_40]'
p1804
sg19
S'10308de5'
p1805
sg21
Vstr r3, [sp, #0x10]
p1806
sg5
L612420L
sg6
Nsg23
S'STR'
p1807
sg25
S'0x95844L'
p1808
sg27
Nsba(ibclass
BInstr
p1809
(dp1810
g2
Nsg17
S'B       loc_95794'
p1811
sg19
S'd1ffffea'
p1812
sg21
Vb #0xffffff4c
p1813
sg5
L612424L
sg6
Nsg23
g110
sg25
S'0x95848L'
p1814
sg27
Nsbasg112
(lp1815
S'LDR i, mem'
p1816
aS'MOV R1, ubits'
p1817
aS'LDR b, mem'
p1818
aS'MOV ubits, vbits'
p1819
aS'LDR vdp, mem'
p1820
aS'MOV vbits, R1'
p1821
aS'LDR R1, mem'
p1822
aS'STR u, mem'
p1823
aS'LDR u, mem'
p1824
aS'LDR bdp, mem'
p1825
aS'LDR udp, mem'
p1826
aS'STR R1, mem'
p1827
aS'LDR cdp, mem'
p1828
aS'STR R2, mem'
p1829
aS'STR b, mem'
p1830
aS'B func'
p1831
asg127
Nsg5
S'0x9580cL'
p1832
sg129
(lp1833
S'0x95784L'
p1834
aS'0x95804L'
p1835
asg6
Nsg131
(lp1836
S'0x95794L'
p1837
asg135
Nsg136
Nsg137
S'c36cc631403f06086f4faef7238b9034'
p1838
sg139
S'e169457c7312c251aa4130e44c426ac0'
p1839
sg141
(lp1840
g1709
ag1716
ag1723
ag1730
ag1737
ag1744
ag1751
ag1758
ag1765
ag1772
ag1779
ag1786
ag1793
ag1800
ag1807
ag110
asg143
Nsba(ibclass
BBasicBlock
p1841
(dp1842
g12
Nsg13
(lp1843
(ibclass
BInstr
p1844
(dp1845
g2
Nsg17
S'LDR     b, [SP,#0x50+p]'
p1846
sg19
S'18309de5'
p1847
sg21
Vldr r3, [sp, #0x18]
p1848
sg5
L612428L
sg6
Nsg23
S'LDR'
p1849
sg25
S'0x9584cL'
p1850
sg27
Nsba(ibclass
BInstr
p1851
(dp1852
g2
Nsg17
S'LDR     LR, [SP,#0x50+var_30]'
p1853
sg19
S'20e09de5'
p1854
sg21
Vldr lr, [sp, #0x20]
p1855
sg5
L612432L
sg6
Nsg23
S'LDR'
p1856
sg25
S'0x95850L'
p1857
sg27
Nsba(ibclass
BInstr
p1858
(dp1859
g2
Nsg17
S'LDR     cdp, [R3]'
p1860
sg19
S'00b093e5'
p1861
sg21
Vldr fp, [r3]
p1862
sg5
L612436L
sg6
Nsg23
S'LDR'
p1863
sg25
S'0x95854L'
p1864
sg27
Nsba(ibclass
BInstr
p1865
(dp1866
g2
Nsg17
S'LDR     R3, [bdp]'
p1867
sg19
S'003096e5'
p1868
sg21
Vldr r3, [r6]
p1869
sg5
L612440L
sg6
Nsg23
S'LDR'
p1870
sg25
S'0x95858L'
p1871
sg27
Nsba(ibclass
BInstr
p1872
(dp1873
g2
Nsg17
S'LDR     R1, [R11]'
p1874
sg19
S'00109be5'
p1875
sg21
Vldr r1, [fp]
p1876
sg5
L612444L
sg6
Nsg23
S'LDR'
p1877
sg25
S'0x9585cL'
p1878
sg27
Nsba(ibclass
BInstr
p1879
(dp1880
g2
Nsg17
S'ANDS    mask, b0, #1'
p1881
sg19
S'010013e2'
p1882
sg21
Vands r0, r3, #1
p1883
sg5
L612448L
sg6
Nsg23
S'AND'
p1884
sg25
S'0x95860L'
p1885
sg27
Nsba(ibclass
BInstr
p1886
(dp1887
g2
Nsg17
S'MOVNE   mask, #0xFFFFFFFF'
p1888
sg19
S'0000e013'
p1889
sg21
Vmvnne r0, #0
p1890
sg5
L612452L
sg6
Nsg23
S'MOV'
p1891
sg25
S'0x95864L'
p1892
sg27
Nsba(ibclass
BInstr
p1893
(dp1894
g2
Nsg17
S'AND     R1, mask, R1'
p1895
sg19
S'011000e0'
p1896
sg21
Vand r1, r0, r1
p1897
sg5
L612456L
sg6
Nsg23
S'AND'
p1898
sg25
S'0x95868L'
p1899
sg27
Nsba(ibclass
BInstr
p1900
(dp1901
g2
Nsg17
S'CMP     LR, #0'
p1902
sg19
S'00005ee3'
p1903
sg21
Vcmp lr, #0
p1904
sg5
L612460L
sg6
Nsg23
S'CMP'
p1905
sg25
S'0x9586cL'
p1906
sg27
Nsba(ibclass
BInstr
p1907
(dp1908
g2
Nsg17
S'EOR     R1, R1, b0'
p1909
sg19
S'031021e0'
p1910
sg21
Veor r1, r1, r3
p1911
sg5
L612464L
sg6
Nsg23
S'EOR'
p1912
sg25
S'0x95870L'
p1913
sg27
Nsba(ibclass
BInstr
p1914
(dp1915
g2
Nsg17
S'BLE     loc_958B4'
p1916
sg19
S'0e0000da'
p1917
sg21
Vble #0x40
p1918
sg5
L612468L
sg6
Nsg23
g110
sg25
S'0x95874L'
p1919
sg27
Nsbasg112
(lp1920
S'LDR b, mem'
p1921
aS'LDR LR, mem'
p1922
aS'LDR cdp, mem'
p1923
aS'LDR R3, mem'
p1924
aS'LDR R1, mem'
p1925
aS'ANDS mask, b0, #1'
p1926
aS'MOVNE mask, #0xFFFFFFFF'
p1927
aS'AND R1, mask, R1'
p1928
aS'CMP LR, #0'
p1929
aS'EOR R1, R1, b0'
p1930
aS'BLE func'
p1931
asg127
Nsg5
S'0x9584cL'
p1932
sg129
(lp1933
S'0x957f0L'
p1934
asg6
Nsg131
(lp1935
S'0x95878L'
p1936
aS'0x958b4L'
p1937
asg135
Nsg136
Nsg137
S'7bcbdd0e08cbf6b84e112289cc8da799'
p1938
sg139
S'712006960a2b057f95112dd868391614'
p1939
sg141
(lp1940
g1849
ag1856
ag1863
ag1870
ag1877
ag1884
ag1891
ag1898
ag1905
ag1912
ag110
asg143
Nsba(ibclass
BBasicBlock
p1941
(dp1942
g12
Nsg13
(lp1943
(ibclass
BInstr
p1944
(dp1945
g2
Nsg17
S'MOV     R3, #1'
p1946
sg19
S'0130a0e3'
p1947
sg21
Vmov r3, #1
p1948
sg5
L612472L
sg6
Nsg23
S'MOV'
p1949
sg25
S'0x95878L'
p1950
sg27
Nsbasg112
(lp1951
S'MOV R3, #1'
p1952
asg127
Nsg5
S'0x95878L'
p1953
sg129
(lp1954
S'0x9584cL'
p1955
asg6
Nsg131
(lp1956
S'0x9587cL'
p1957
asg135
Nsg136
Nsg137
S'17b32100aef1fc19670be7fd58bc85df'
p1958
sg139
S'1f0f3902bc76eea9b38d8f31ee4afed3'
p1959
sg141
(lp1960
g1949
asg143
Nsba(ibclass
BBasicBlock
p1961
(dp1962
g12
Nsg13
(lp1963
(ibclass
BInstr
p1964
(dp1965
g2
Nsg17
S'MOV     LR, u0,LSR#1'
p1966
sg19
S'ace0a0e1'
p1967
sg21
Vlsr lr, ip, #1
p1968
sg5
L612476L
sg6
Nsg23
S'MOV'
p1969
sg25
S'0x9587cL'
p1970
sg27
Nsba(ibclass
BInstr
p1971
(dp1972
g2
Nsg17
S'LDR     u0, [udp,R3,LSL#2]'
p1973
sg19
S'03c195e7'
p1974
sg21
Vldr ip, [r5, r3, lsl #2]
p1975
sg5
L612480L
sg6
Nsg23
S'LDR'
p1976
sg25
S'0x95880L'
p1977
sg27
Nsba(ibclass
BInstr
p1978
(dp1979
g2
Nsg17
S'STR     LR, [udp,R2]'
p1980
sg19
S'02e085e7'
p1981
sg21
Vstr lr, [r5, r2]
p1982
sg5
L612484L
sg6
Nsg23
S'STR'
p1983
sg25
S'0x95884L'
p1984
sg27
Nsba(ibclass
BInstr
p1985
(dp1986
g2
Nsg17
S'LDR     vdp, [R11,R3,LSL#2]'
p1987
sg19
S'03919be7'
p1988
sg21
Vldr sb, [fp, r3, lsl #2]
p1989
sg5
L612488L
sg6
Nsg23
S'LDR'
p1990
sg25
S'0x95888L'
p1991
sg27
Nsba(ibclass
BInstr
p1992
(dp1993
g2
Nsg17
S'LDR     LR, [bdp,R3,LSL#2]'
p1994
sg19
S'03e196e7'
p1995
sg21
Vldr lr, [r6, r3, lsl #2]
p1996
sg5
L612492L
sg6
Nsg23
S'LDR'
p1997
sg25
S'0x9588cL'
p1998
sg27
Nsba(ibclass
BInstr
p1999
(dp2000
g2
Nsg17
S'ADD     R3, R3, #1'
p2001
sg19
S'013083e2'
p2002
sg21
Vadd r3, r3, #1
p2003
sg5
L612496L
sg6
Nsg23
S'ADD'
p2004
sg25
S'0x95890L'
p2005
sg27
Nsba(ibclass
BInstr
p2006
(dp2007
g2
Nsg17
S'MOV     b0, b0,LSR#1'
p2008
sg19
S'a110a0e1'
p2009
sg21
Vlsr r1, r1, #1
p2010
sg5
L612500L
sg6
Nsg23
S'MOV'
p2011
sg25
S'0x95894L'
p2012
sg27
Nsba(ibclass
BInstr
p2013
(dp2014
g2
Nsg17
S'AND     R9, mask, R9'
p2015
sg19
S'099000e0'
p2016
sg21
Vand sb, r0, sb
p2017
sg5
L612504L
sg6
Nsg23
S'AND'
p2018
sg25
S'0x95898L'
p2019
sg27
Nsba(ibclass
BInstr
p2020
(dp2021
g2
Nsg17
S'CMP     R3, top'
p2022
sg19
S'070053e1'
p2023
sg21
Vcmp r3, r7
p2024
sg5
L612508L
sg6
Nsg23
S'CMP'
p2025
sg25
S'0x9589cL'
p2026
sg27
Nsba(ibclass
BInstr
p2027
(dp2028
g2
Nsg17
S'STR     R1, [bdp,R2]'
p2029
sg19
S'021086e7'
p2030
sg21
Vstr r1, [r6, r2]
p2031
sg5
L612512L
sg6
Nsg23
S'STR'
p2032
sg25
S'0x958a0L'
p2033
sg27
Nsba(ibclass
BInstr
p2034
(dp2035
g2
Nsg17
S'EOR     R1, R9, LR'
p2036
sg19
S'0e1029e0'
p2037
sg21
Veor r1, sb, lr
p2038
sg5
L612516L
sg6
Nsg23
S'EOR'
p2039
sg25
S'0x958a4L'
p2040
sg27
Nsba(ibclass
BInstr
p2041
(dp2042
g2
Nsg17
S'ADD     R2, R2, #4'
p2043
sg19
S'042082e2'
p2044
sg21
Vadd r2, r2, #4
p2045
sg5
L612520L
sg6
Nsg23
S'ADD'
p2046
sg25
S'0x958a8L'
p2047
sg27
Nsba(ibclass
BInstr
p2048
(dp2049
g2
Nsg17
S'BNE     loc_9587C'
p2050
sg19
S'f2ffff1a'
p2051
sg21
Vbne #0xffffffd0
p2052
sg5
L612524L
sg6
Nsg23
g110
sg25
S'0x958acL'
p2053
sg27
Nsbasg112
(lp2054
S'MOV LR, u0,LSR#1'
p2055
aS'LDR u0, mem'
p2056
aS'STR LR, mem'
p2057
aS'LDR vdp, mem'
p2058
aS'LDR LR, mem'
p2059
aS'ADD R3, R3, #1'
p2060
aS'MOV b0, b0,LSR#1'
p2061
aS'AND R9, mask, R9'
p2062
aS'CMP R3, top'
p2063
aS'STR R1, mem'
p2064
aS'EOR R1, R9, LR'
p2065
aS'ADD R2, R2, #4'
p2066
aS'BNE func'
p2067
asg127
Nsg5
S'0x9587cL'
p2068
sg129
(lp2069
S'0x95878L'
p2070
aS'0x9587cL'
p2071
asg6
Nsg131
(lp2072
S'0x958b0L'
p2073
aS'0x9587cL'
p2074
asg135
Nsg136
Nsg137
S'fc107c2216338fd0ef84cc34d0923593'
p2075
sg139
S'31b63b0358ad3681a4e1a3869daeac8d'
p2076
sg141
(lp2077
g1969
ag1976
ag1983
ag1990
ag1997
ag2004
ag2011
ag2018
ag2025
ag2032
ag2039
ag2046
ag110
asg143
Nsba(ibclass
BBasicBlock
p2078
(dp2079
g12
Nsg13
(lp2080
(ibclass
BInstr
p2081
(dp2082
g2
Nsg17
S'LDR     R2, [SP,#0x50+var_2C]'
p2083
sg19
S'24209de5'
p2084
sg21
Vldr r2, [sp, #0x24]
p2085
sg5
L612528L
sg6
Nsg23
S'LDR'
p2086
sg25
S'0x958b0L'
p2087
sg27
Nsbasg112
(lp2088
S'LDR R2, mem'
p2089
asg127
Nsg5
S'0x958b0L'
p2090
sg129
(lp2091
S'0x9587cL'
p2092
asg6
Nsg131
(lp2093
S'0x958b4L'
p2094
asg135
Nsg136
Nsg137
S'6645d4de79aee6373f120d72c0030e5f'
p2095
sg139
S'89d0607364d48465b10eabc8f655ba02'
p2096
sg141
(lp2097
g2086
asg143
Nsba(ibclass
BBasicBlock
p2098
(dp2099
g12
Nsg13
(lp2100
(ibclass
BInstr
p2101
(dp2102
g2
Nsg17
S'MOV     u1, u1,LSR#1'
p2103
sg19
S'acc0a0e1'
p2104
sg21
Vlsr ip, ip, #1
p2105
sg5
L612532L
sg6
Nsg23
S'MOV'
p2106
sg25
S'0x958b4L'
p2107
sg27
Nsba(ibclass
BInstr
p2108
(dp2109
g2
Nsg17
S'MOV     b0, b0,LSR#1'
p2110
sg19
S'a110a0e1'
p2111
sg21
Vlsr r1, r1, #1
p2112
sg5
L612536L
sg6
Nsg23
S'MOV'
p2113
sg25
S'0x958b8L'
p2114
sg27
Nsba(ibclass
BInstr
p2115
(dp2116
g2
Nsg17
S'STR     R12, [udp,R2]'
p2117
sg19
S'02c085e7'
p2118
sg21
Vstr ip, [r5, r2]
p2119
sg5
L612540L
sg6
Nsg23
S'STR'
p2120
sg25
S'0x958bcL'
p2121
sg27
Nsba(ibclass
BInstr
p2122
(dp2123
g2
Nsg17
S'SUB     ubits, ubits, #1'
p2124
sg19
S'018048e2'
p2125
sg21
Vsub r8, r8, #1
p2126
sg5
L612544L
sg6
Nsg23
S'SUB'
p2127
sg25
S'0x958c0L'
p2128
sg27
Nsba(ibclass
BInstr
p2129
(dp2130
g2
Nsg17
S'STR     R1, [bdp,R2]'
p2131
sg19
S'021086e7'
p2132
sg21
Vstr r1, [r6, r2]
p2133
sg5
L612548L
sg6
Nsg23
S'STR'
p2134
sg25
S'0x958c4L'
p2135
sg27
Nsba(ibclass
BInstr
p2136
(dp2137
g2
Nsg17
S'B       loc_95770'
p2138
sg19
S'a8ffffea'
p2139
sg21
Vb #0xfffffea8
p2140
sg5
L612552L
sg6
Nsg23
g110
sg25
S'0x958c8L'
p2141
sg27
Nsbasg112
(lp2142
S'MOV u1, u1,LSR#1'
p2143
aS'MOV b0, b0,LSR#1'
p2144
aS'STR R12, mem'
p2145
aS'SUB ubits, ubits, #1'
p2146
aS'STR R1, mem'
p2147
aS'B func'
p2148
asg127
Nsg5
S'0x958b4L'
p2149
sg129
(lp2150
S'0x9584cL'
p2151
aS'0x958b0L'
p2152
asg6
Nsg131
(lp2153
S'0x95770L'
p2154
asg135
Nsg136
Nsg137
S'f5fea5ef8ff9f8fae32a64f89b6923f3'
p2155
sg139
S'be1057c39423d2b955cd303d81dad7db'
p2156
sg141
(lp2157
g2106
ag2113
ag2120
ag2127
ag2134
ag110
asg143
Nsba(ibclass
BBasicBlock
p2158
(dp2159
g12
Nsg13
(lp2160
(ibclass
BInstr
p2161
(dp2162
g2
Nsg17
S'SUBS    ubits, vbits, #1'
p2163
sg19
S'01805ae2'
p2164
sg21
Vsubs r8, sl, #1
p2165
sg5
L612556L
sg6
Nsg23
S'SUB'
p2166
sg25
S'0x958ccL'
p2167
sg27
Nsba(ibclass
BInstr
p2168
(dp2169
g2
Nsg17
S'ADDMI   R8, vbits, #0x3E'
p2170
sg19
S'3e808a42'
p2171
sg21
Vaddmi r8, sl, #0x3e
p2172
sg5
L612560L
sg6
Nsg23
S'ADD'
p2173
sg25
S'0x958d0L'
p2174
sg27
Nsba(ibclass
BInstr
p2175
(dp2176
g2
Nsg17
S'MOV     R8, R8,ASR#6'
p2177
sg19
S'4883a0e1'
p2178
sg21
Vasr r8, r8, #6
p2179
sg5
L612564L
sg6
Nsg23
S'MOV'
p2180
sg25
S'0x958d4L'
p2181
sg27
Nsba(ibclass
BInstr
p2182
(dp2183
g2
Nsg17
S'LDR     mask, [udp,utop,LSL#2]'
p2184
sg19
S'080195e7'
p2185
sg21
Vldr r0, [r5, r8, lsl #2]
p2186
sg5
L612568L
sg6
Nsg23
S'LDR'
p2187
sg25
S'0x958d8L'
p2188
sg27
Nsba(ibclass
BInstr
p2189
(dp2190
g2
Nsg17
S'CMP     ul, #0'
p2191
sg19
S'000050e3'
p2192
sg21
Vcmp r0, #0
p2193
sg5
L612572L
sg6
Nsg23
S'CMP'
p2194
sg25
S'0x958dcL'
p2195
sg27
Nsba(ibclass
BInstr
p2196
(dp2197
g2
Nsg17
S'BNE     loc_95914'
p2198
sg19
S'0b00001a'
p2199
sg21
Vbne #0x34
p2200
sg5
L612576L
sg6
Nsg23
g110
sg25
S'0x958e0L'
p2201
sg27
Nsbasg112
(lp2202
S'SUBS ubits, vbits, #1'
p2203
aS'ADDMI R8, vbits, #0x3E'
p2204
aS'MOV R8, R8,ASR#6'
p2205
aS'LDR mask, mem'
p2206
aS'CMP ul, #0'
p2207
aS'BNE func'
p2208
asg127
Nsg5
S'0x958ccL'
p2209
sg129
(lp2210
S'0x957d4L'
p2211
asg6
Nsg131
(lp2212
S'0x958e4L'
p2213
aS'0x95914L'
p2214
asg135
Nsg136
Nsg137
S'bebada2ce755cb9c66be1a167f29365b'
p2215
sg139
S'76aa53e5432312fcad12150b7632d27f'
p2216
sg141
(lp2217
g2166
ag2173
ag2180
ag2187
ag2194
ag110
asg143
Nsba(ibclass
BBasicBlock
p2218
(dp2219
g12
Nsg13
(lp2220
(ibclass
BInstr
p2221
(dp2222
g2
Nsg17
S'CMP     utop, #0'
p2223
sg19
S'000058e3'
p2224
sg21
Vcmp r8, #0
p2225
sg5
L612580L
sg6
Nsg23
S'CMP'
p2226
sg25
S'0x958e4L'
p2227
sg27
Nsba(ibclass
BInstr
p2228
(dp2229
g2
Nsg17
S'BEQ     loc_95924'
p2230
sg19
S'0d00000a'
p2231
sg21
Vbeq #0x3c
p2232
sg5
L612584L
sg6
Nsg23
g110
sg25
S'0x958e8L'
p2233
sg27
Nsbasg112
(lp2234
S'CMP utop, #0'
p2235
aS'BEQ func'
p2236
asg127
Nsg5
S'0x958e4L'
p2237
sg129
(lp2238
S'0x958ccL'
p2239
asg6
Nsg131
(lp2240
S'0x958ecL'
p2241
aS'0x95924L'
p2242
asg135
Nsg136
Nsg137
S'c78fd620a449e3c979d3f3ec12d4ee88'
p2243
sg139
S'70c5ae33fb8f6d5e71ee24535d5bce11'
p2244
sg141
(lp2245
g2226
ag110
asg143
Nsba(ibclass
BBasicBlock
p2246
(dp2247
g12
Nsg13
(lp2248
(ibclass
BInstr
p2249
(dp2250
g2
Nsg17
S'SUB     utop, utop, #1'
p2251
sg19
S'018048e2'
p2252
sg21
Vsub r8, r8, #1
p2253
sg5
L612588L
sg6
Nsg23
S'SUB'
p2254
sg25
S'0x958ecL'
p2255
sg27
Nsba(ibclass
BInstr
p2256
(dp2257
g2
Nsg17
S'ADD     b, udp, utop,LSL#2'
p2258
sg19
S'083185e0'
p2259
sg21
Vadd r3, r5, r8, lsl #2
p2260
sg5
L612592L
sg6
Nsg23
S'ADD'
p2261
sg25
S'0x958f0L'
p2262
sg27
Nsba(ibclass
BInstr
p2263
(dp2264
g2
Nsg17
S'B       loc_95904'
p2265
sg19
S'020000ea'
p2266
sg21
Vb #0x10
p2267
sg5
L612596L
sg6
Nsg23
g110
sg25
S'0x958f4L'
p2268
sg27
Nsbasg112
(lp2269
S'SUB utop, utop, #1'
p2270
aS'ADD b, udp, utop,LSL#2'
p2271
aS'B func'
p2272
asg127
Nsg5
S'0x958ecL'
p2273
sg129
(lp2274
S'0x958e4L'
p2275
asg6
Nsg131
(lp2276
S'0x95904L'
p2277
asg135
Nsg136
Nsg137
S'cc015b7221a08a78b989e104eedc801a'
p2278
sg139
S'd72fef931c2bd8f4d5da827cca09f379'
p2279
sg141
(lp2280
g2254
ag2261
ag110
asg143
Nsba(ibclass
BBasicBlock
p2281
(dp2282
g12
Nsg13
(lp2283
(ibclass
BInstr
p2284
(dp2285
g2
Nsg17
S'CMP     utop, #0'
p2286
sg19
S'000058e3'
p2287
sg21
Vcmp r8, #0
p2288
sg5
L612600L
sg6
Nsg23
S'CMP'
p2289
sg25
S'0x958f8L'
p2290
sg27
Nsba(ibclass
BInstr
p2291
(dp2292
g2
Nsg17
S'BEQ     loc_95924'
p2293
sg19
S'0800000a'
p2294
sg21
Vbeq #0x28
p2295
sg5
L612604L
sg6
Nsg23
g110
sg25
S'0x958fcL'
p2296
sg27
Nsbasg112
(lp2297
S'CMP utop, #0'
p2298
aS'BEQ func'
p2299
asg127
Nsg5
S'0x958f8L'
p2300
sg129
(lp2301
S'0x95904L'
p2302
asg6
Nsg131
(lp2303
S'0x95900L'
p2304
aS'0x95924L'
p2305
asg135
Nsg136
Nsg137
S'c78fd620a449e3c979d3f3ec12d4ee88'
p2306
sg139
S'70c5ae33fb8f6d5e71ee24535d5bce11'
p2307
sg141
(lp2308
g2289
ag110
asg143
Nsba(ibclass
BBasicBlock
p2309
(dp2310
g12
Nsg13
(lp2311
(ibclass
BInstr
p2312
(dp2313
g2
Nsg17
S'SUB     utop, utop, #1'
p2314
sg19
S'018048e2'
p2315
sg21
Vsub r8, r8, #1
p2316
sg5
L612608L
sg6
Nsg23
S'SUB'
p2317
sg25
S'0x95900L'
p2318
sg27
Nsbasg112
(lp2319
S'SUB utop, utop, #1'
p2320
asg127
Nsg5
S'0x95900L'
p2321
sg129
(lp2322
S'0x958f8L'
p2323
asg6
Nsg131
(lp2324
S'0x95904L'
p2325
asg135
Nsg136
Nsg137
S'241dd841abade20fcb27b8a9f494e1eb'
p2326
sg139
S'c1d56e956f58dbf53bbbae47ebab2f27'
p2327
sg141
(lp2328
g2317
asg143
Nsba(ibclass
BBasicBlock
p2329
(dp2330
g12
Nsg13
(lp2331
(ibclass
BInstr
p2332
(dp2333
g2
Nsg17
S'LDR     ul, [R3]        ; l'
p2334
sg19
S'000093e5'
p2335
sg21
Vldr r0, [r3]
p2336
sg5
L612612L
sg6
Nsg23
S'LDR'
p2337
sg25
S'0x95904L'
p2338
sg27
Nsba(ibclass
BInstr
p2339
(dp2340
g2
Nsg17
S'SUB     R3, R3, #4'
p2341
sg19
S'043043e2'
p2342
sg21
Vsub r3, r3, #4
p2343
sg5
L612616L
sg6
Nsg23
S'SUB'
p2344
sg25
S'0x95908L'
p2345
sg27
Nsba(ibclass
BInstr
p2346
(dp2347
g2
Nsg17
S'CMP     ul, #0'
p2348
sg19
S'000050e3'
p2349
sg21
Vcmp r0, #0
p2350
sg5
L612620L
sg6
Nsg23
S'CMP'
p2351
sg25
S'0x9590cL'
p2352
sg27
Nsba(ibclass
BInstr
p2353
(dp2354
g2
Nsg17
S'BEQ     loc_958F8'
p2355
sg19
S'f8ffff0a'
p2356
sg21
Vbeq #0xffffffe8
p2357
sg5
L612624L
sg6
Nsg23
g110
sg25
S'0x95910L'
p2358
sg27
Nsbasg112
(lp2359
S'LDR ul, mem'
p2360
aS'SUB R3, R3, #4'
p2361
aS'CMP ul, #0'
p2362
aS'BEQ func'
p2363
asg127
Nsg5
S'0x95904L'
p2364
sg129
(lp2365
S'0x958ecL'
p2366
aS'0x95900L'
p2367
asg6
Nsg131
(lp2368
S'0x958f8L'
p2369
aS'0x95914L'
p2370
asg135
Nsg136
Nsg137
S'dd5dbfa9105770945b09dacfec96972a'
p2371
sg139
S'f64122be1a9c5072a741a0a67dcad416'
p2372
sg141
(lp2373
g2337
ag2344
ag2351
ag110
asg143
Nsba(ibclass
BBasicBlock
p2374
(dp2375
g12
Nsg13
(lp2376
(ibclass
BInstr
p2377
(dp2378
g2
Nsg17
S'MOV     utop, utop,LSL#6'
p2379
sg19
S'0883a0e1'
p2380
sg21
Vlsl r8, r8, #6
p2381
sg5
L612628L
sg6
Nsg23
S'MOV'
p2382
sg25
S'0x95914L'
p2383
sg27
Nsbasg112
(lp2384
S'MOV utop, utop,LSL#6'
p2385
asg127
Nsg5
S'0x95914L'
p2386
sg129
(lp2387
S'0x958ccL'
p2388
aS'0x95904L'
p2389
asg6
Nsg131
(lp2390
S'0x95918L'
p2391
asg135
Nsg136
Nsg137
S'17b32100aef1fc19670be7fd58bc85df'
p2392
sg139
S'cf789227938545b08de07b2c5fe54bb6'
p2393
sg141
(lp2394
g2382
asg143
Nsba(ibclass
BBasicBlock
p2395
(dp2396
g12
Nsg13
(lp2397
(ibclass
BInstr
p2398
(dp2399
g2
Nsg17
S'BL      BN_num_bits_word'
p2400
sg19
S'6ecfffeb'
p2401
sg21
Vbl #0xffff3dc0
p2402
sg5
L612632L
sg6
Nsg23
S'BL'
p2403
sg25
S'0x95918L'
p2404
sg27
Nsba(ibclass
BInstr
p2405
(dp2406
g2
Nsg17
S'ADD     R8, R8, R0'
p2407
sg19
S'008088e0'
p2408
sg21
Vadd r8, r8, r0
p2409
sg5
L612636L
sg6
Nsg23
S'ADD'
p2410
sg25
S'0x9591cL'
p2411
sg27
Nsba(ibclass
BInstr
p2412
(dp2413
g2
Nsg17
S'B       loc_957DC'
p2414
sg19
S'adffffea'
p2415
sg21
Vb #0xfffffebc
p2416
sg5
L612640L
sg6
Nsg23
g110
sg25
S'0x95920L'
p2417
sg27
Nsbasg112
(lp2418
S'BL BN_num_bits_word'
p2419
aS'ADD R8, R8, R0'
p2420
aS'B func'
p2421
asg127
Nsg5
S'0x95918L'
p2422
sg129
(lp2423
S'0x95914L'
p2424
aS'0x95924L'
p2425
asg6
Nsg131
(lp2426
S'0x957dcL'
p2427
asg135
Nsg136
Nsg137
S'716c0b4c31db2c5a10a3e6caddd4573e'
p2428
sg139
S'0882134d4f99356e4b5af7b96e6270b7'
p2429
sg141
(lp2430
g2403
ag2410
ag110
asg143
Nsba(ibclass
BBasicBlock
p2431
(dp2432
g12
Nsg13
(lp2433
(ibclass
BInstr
p2434
(dp2435
g2
Nsg17
S'MOV     utop, #0'
p2436
sg19
S'0080a0e3'
p2437
sg21
Vmov r8, #0
p2438
sg5
L612644L
sg6
Nsg23
S'MOV'
p2439
sg25
S'0x95924L'
p2440
sg27
Nsba(ibclass
BInstr
p2441
(dp2442
g2
Nsg17
S'B       loc_95918'
p2443
sg19
S'faffffea'
p2444
sg21
Vb #0xfffffff0
p2445
sg5
L612648L
sg6
Nsg23
g110
sg25
S'0x95928L'
p2446
sg27
Nsbasg112
(lp2447
S'MOV utop, #0'
p2448
aS'B func'
p2449
asg127
Nsg5
S'0x95924L'
p2450
sg129
(lp2451
S'0x958e4L'
p2452
aS'0x958f8L'
p2453
asg6
Nsg131
(lp2454
S'0x95918L'
p2455
asg135
Nsg136
Nsg137
S'b6c4e95ccfe77a95e4cf2019dd3d5574'
p2456
sg139
S'b6259ed34302a2869c7fc971d60ed827'
p2457
sg141
(lp2458
g2439
ag110
asg143
Nsba(ibclass
BBasicBlock
p2459
(dp2460
g12
Nsg13
(lp2461
(ibclass
BInstr
p2462
(dp2463
g2
Nsg17
S'LDR     LR, [SP,#0x50+b]'
p2464
sg19
S'04e09de5'
p2465
sg21
Vldr lr, [sp, #4]
p2466
sg5
L612652L
sg6
Nsg23
S'LDR'
p2467
sg25
S'0x9592cL'
p2468
sg27
Nsba(ibclass
BInstr
p2469
(dp2470
g2
Nsg17
S'LDR     b, [LR,#4]'
p2471
sg19
S'04309ee5'
p2472
sg21
Vldr r3, [lr, #4]
p2473
sg5
L612656L
sg6
Nsg23
S'LDR'
p2474
sg25
S'0x95930L'
p2475
sg27
Nsba(ibclass
BInstr
p2476
(dp2477
g2
Nsg17
S'CMP     tmp_top, #0'
p2478
sg19
S'000053e3'
p2479
sg21
Vcmp r3, #0
p2480
sg5
L612660L
sg6
Nsg23
S'CMP'
p2481
sg25
S'0x95934L'
p2482
sg27
Nsba(ibclass
BInstr
p2483
(dp2484
g2
Nsg17
S'BLE     loc_9596C'
p2485
sg19
S'0b0000da'
p2486
sg21
Vble #0x34
p2487
sg5
L612664L
sg6
Nsg23
g110
sg25
S'0x95938L'
p2488
sg27
Nsbasg112
(lp2489
S'LDR LR, mem'
p2490
aS'LDR b, mem'
p2491
aS'CMP tmp_top, #0'
p2492
aS'BLE func'
p2493
asg127
Nsg5
S'0x9592cL'
p2494
sg129
(lp2495
S'0x9577cL'
p2496
asg6
Nsg131
(lp2497
S'0x9593cL'
p2498
aS'0x9596cL'
p2499
asg135
Nsg136
Nsg137
S'd9812e74326a7ebe01ae9e2a00bbb5ee'
p2500
sg139
S'c7d7fe16882b3dd8563959cdce60a740'
p2501
sg141
(lp2502
g2467
ag2474
ag2481
ag110
asg143
Nsba(ibclass
BBasicBlock
p2503
(dp2504
g12
Nsg13
(lp2505
(ibclass
BInstr
p2506
(dp2507
g2
Nsg17
S'LDR     i, [LR]'
p2508
sg19
S'00209ee5'
p2509
sg21
Vldr r2, [lr]
p2510
sg5
L612668L
sg6
Nsg23
S'LDR'
p2511
sg25
S'0x9593cL'
p2512
sg27
Nsba(ibclass
BInstr
p2513
(dp2514
g2
Nsg17
S'SUB     mask, tmp_top, #1'
p2515
sg19
S'010043e2'
p2516
sg21
Vsub r0, r3, #1
p2517
sg5
L612672L
sg6
Nsg23
S'SUB'
p2518
sg25
S'0x95940L'
p2519
sg27
Nsba(ibclass
BInstr
p2520
(dp2521
g2
Nsg17
S'ADD     R0, R2, R0,LSL#2'
p2522
sg19
S'000182e0'
p2523
sg21
Vadd r0, r2, r0, lsl #2
p2524
sg5
L612676L
sg6
Nsg23
S'ADD'
p2525
sg25
S'0x95944L'
p2526
sg27
Nsba(ibclass
BInstr
p2527
(dp2528
g2
Nsg17
S'MOV     R2, #0'
p2529
sg19
S'0020a0e3'
p2530
sg21
Vmov r2, #0
p2531
sg5
L612680L
sg6
Nsg23
S'MOV'
p2532
sg25
S'0x95948L'
p2533
sg27
Nsbasg112
(lp2534
S'LDR i, mem'
p2535
aS'SUB mask, tmp_top, #1'
p2536
aS'ADD R0, R2, R0,LSL#2'
p2537
aS'MOV R2, #0'
p2538
asg127
Nsg5
S'0x9593cL'
p2539
sg129
(lp2540
S'0x9592cL'
p2541
asg6
Nsg131
(lp2542
S'0x9594cL'
p2543
asg135
Nsg136
Nsg137
S'026b021d9e4625e7184f54c632902398'
p2544
sg139
S'0a7f73529f7992d29a22e0e2dfea1f0b'
p2545
sg141
(lp2546
g2511
ag2518
ag2525
ag2532
asg143
Nsba(ibclass
BBasicBlock
p2547
(dp2548
g12
Nsg13
(lp2549
(ibclass
BInstr
p2550
(dp2551
g2
Nsg17
S'LDR     R1, [ftl,R2]'
p2552
sg19
S'021090e7'
p2553
sg21
Vldr r1, [r0, r2]
p2554
sg5
L612684L
sg6
Nsg23
S'LDR'
p2555
sg25
S'0x9594cL'
p2556
sg27
Nsba(ibclass
BInstr
p2557
(dp2558
g2
Nsg17
S'SUB     R2, R2, #4'
p2559
sg19
S'042042e2'
p2560
sg21
Vsub r2, r2, #4
p2561
sg5
L612688L
sg6
Nsg23
S'SUB'
p2562
sg25
S'0x95950L'
p2563
sg27
Nsba(ibclass
BInstr
p2564
(dp2565
g2
Nsg17
S'CMP     R1, #0'
p2566
sg19
S'000051e3'
p2567
sg21
Vcmp r1, #0
p2568
sg5
L612692L
sg6
Nsg23
S'CMP'
p2569
sg25
S'0x95954L'
p2570
sg27
Nsba(ibclass
BInstr
p2571
(dp2572
g2
Nsg17
S'BNE     loc_95964'
p2573
sg19
S'0100001a'
p2574
sg21
Vbne #0xc
p2575
sg5
L612696L
sg6
Nsg23
g110
sg25
S'0x95958L'
p2576
sg27
Nsbasg112
(lp2577
S'LDR R1, mem'
p2578
aS'SUB R2, R2, #4'
p2579
aS'CMP R1, #0'
p2580
aS'BNE func'
p2581
asg127
Nsg5
S'0x9594cL'
p2582
sg129
(lp2583
S'0x9593cL'
p2584
aS'0x9595cL'
p2585
asg6
Nsg131
(lp2586
S'0x9595cL'
p2587
aS'0x95964L'
p2588
asg135
Nsg136
Nsg137
S'dd5dbfa9105770945b09dacfec96972a'
p2589
sg139
S'f305b9483aef6a63f221b67be92a8953'
p2590
sg141
(lp2591
g2555
ag2562
ag2569
ag110
asg143
Nsba(ibclass
BBasicBlock
p2592
(dp2593
g12
Nsg13
(lp2594
(ibclass
BInstr
p2595
(dp2596
g2
Nsg17
S'SUBS    tmp_top, tmp_top, #1'
p2597
sg19
S'013053e2'
p2598
sg21
Vsubs r3, r3, #1
p2599
sg5
L612700L
sg6
Nsg23
S'SUB'
p2600
sg25
S'0x9595cL'
p2601
sg27
Nsba(ibclass
BInstr
p2602
(dp2603
g2
Nsg17
S'BNE     loc_9594C'
p2604
sg19
S'f9ffff1a'
p2605
sg21
Vbne #0xffffffec
p2606
sg5
L612704L
sg6
Nsg23
g110
sg25
S'0x95960L'
p2607
sg27
Nsbasg112
(lp2608
S'SUBS tmp_top, tmp_top, #1'
p2609
aS'BNE func'
p2610
asg127
Nsg5
S'0x9595cL'
p2611
sg129
(lp2612
S'0x9594cL'
p2613
asg6
Nsg131
(lp2614
S'0x9594cL'
p2615
aS'0x95964L'
p2616
asg135
Nsg136
Nsg137
S'd9cd0befa77024d455f4479512574760'
p2617
sg139
S'6145182f1ca25e65b181558401695830'
p2618
sg141
(lp2619
g2600
ag110
asg143
Nsba(ibclass
BBasicBlock
p2620
(dp2621
g12
Nsg13
(lp2622
(ibclass
BInstr
p2623
(dp2624
g2
Nsg17
S'LDR     R1, [SP,#0x50+b]'
p2625
sg19
S'04109de5'
p2626
sg21
Vldr r1, [sp, #4]
p2627
sg5
L612708L
sg6
Nsg23
S'LDR'
p2628
sg25
S'0x95964L'
p2629
sg27
Nsba(ibclass
BInstr
p2630
(dp2631
g2
Nsg17
S'STR     tmp_top, [R1,#4]'
p2632
sg19
S'043081e5'
p2633
sg21
Vstr r3, [r1, #4]
p2634
sg5
L612712L
sg6
Nsg23
S'STR'
p2635
sg25
S'0x95968L'
p2636
sg27
Nsbasg112
(lp2637
S'LDR R1, mem'
p2638
aS'STR tmp_top, mem'
p2639
asg127
Nsg5
S'0x95964L'
p2640
sg129
(lp2641
S'0x9594cL'
p2642
aS'0x9595cL'
p2643
asg6
Nsg131
(lp2644
S'0x9596cL'
p2645
asg135
Nsg136
Nsg137
S'f2c00f06cb6622818f2abed867fd0979'
p2646
sg139
S'9b55f1af985458f2b595184741cb3e8f'
p2647
sg141
(lp2648
g2628
ag2635
asg143
Nsba(ibclass
BBasicBlock
p2649
(dp2650
g12
Nsg13
(lp2651
(ibclass
BInstr
p2652
(dp2653
g2
Nsg17
S'LDR     mask, [SP,#0x50+a]; a'
p2654
sg19
S'1c009de5'
p2655
sg21
Vldr r0, [sp, #0x1c]
p2656
sg5
L612716L
sg6
Nsg23
S'LDR'
p2657
sg25
S'0x9596cL'
p2658
sg27
Nsba(ibclass
BInstr
p2659
(dp2660
g2
Nsg17
S'LDR     R1, [SP,#0x50+b]; b'
p2661
sg19
S'04109de5'
p2662
sg21
Vldr r1, [sp, #4]
p2663
sg5
L612720L
sg6
Nsg23
S'LDR'
p2664
sg25
S'0x95970L'
p2665
sg27
Nsba(ibclass
BInstr
p2666
(dp2667
g2
Nsg17
S'BL      BN_copy'
p2668
sg19
S'24d2ffeb'
p2669
sg21
Vbl #0xffff4898
p2670
sg5
L612724L
sg6
Nsg23
S'BL'
p2671
sg25
S'0x95974L'
p2672
sg27
Nsba(ibclass
BInstr
p2673
(dp2674
g2
Nsg17
S'CMP     R0, #0'
p2675
sg19
S'000050e3'
p2676
sg21
Vcmp r0, #0
p2677
sg5
L612728L
sg6
Nsg23
S'CMP'
p2678
sg25
S'0x95978L'
p2679
sg27
Nsba(ibclass
BInstr
p2680
(dp2681
g2
Nsg17
S'MOVNE   udp, #1'
p2682
sg19
S'0150a013'
p2683
sg21
Vmovne r5, #1
p2684
sg5
L612732L
sg6
Nsg23
S'MOV'
p2685
sg25
S'0x9597cL'
p2686
sg27
Nsba(ibclass
BInstr
p2687
(dp2688
g2
Nsg17
S'BNE     loc_9563C'
p2689
sg19
S'2dffff1a'
p2690
sg21
Vbne #0xfffffcbc
p2691
sg5
L612736L
sg6
Nsg23
g110
sg25
S'0x95980L'
p2692
sg27
Nsbasg112
(lp2693
S'LDR mask, mem'
p2694
aS'LDR R1, mem'
p2695
aS'BL BN_copy'
p2696
aS'CMP R0, #0'
p2697
aS'MOVNE udp, #1'
p2698
aS'BNE func'
p2699
asg127
Nsg5
S'0x9596cL'
p2700
sg129
(lp2701
S'0x9592cL'
p2702
aS'0x95964L'
p2703
asg6
Nsg131
(lp2704
S'0x9563cL'
p2705
aS'0x95984L'
p2706
asg135
Nsg136
Nsg137
S'a8c5924d2781c33ad8ab29379404e306'
p2707
sg139
S'125590a7963ae2754fc06aece3c613af'
p2708
sg141
(lp2709
g2657
ag2664
ag2671
ag2678
ag2685
ag110
asg143
Nsba(ibclass
BBasicBlock
p2710
(dp2711
g12
Nsg13
(lp2712
(ibclass
BInstr
p2713
(dp2714
g2
Nsg17
S'B       err'
p2715
sg19
S'2bffffea'
p2716
sg21
Vb #0xfffffcb4
p2717
sg5
L612740L
sg6
Nsg23
g110
sg25
S'0x95984L'
p2718
sg27
Nsbasg112
(lp2719
S'B err'
p2720
asg127
Nsg5
S'0x95984L'
p2721
sg129
(lp2722
S'0x9596cL'
p2723
asg6
Nsg131
(lp2724
S'0x95638L'
p2725
asg135
Nsg136
Nsg137
S'9d5ed678fe57bcca610140957afab571'
p2726
sg139
S'643f7a23dcd507b7c031c01246ad3e37'
p2727
sg141
(lp2728
g110
asg143
Nsba(ibclass
BBasicBlock
p2729
(dp2730
g12
Nsg13
(lp2731
(ibclass
BInstr
p2732
(dp2733
g2
Nsg17
S'MOV     R0, LR          ; b'
p2734
sg19
S'0e00a0e1'
p2735
sg21
Vmov r0, lr
p2736
sg5
L612744L
sg6
Nsg23
S'MOV'
p2737
sg25
S'0x95988L'
p2738
sg27
Nsba(ibclass
BInstr
p2739
(dp2740
g2
Nsg17
S'MOV     R1, top         ; words'
p2741
sg19
S'0710a0e1'
p2742
sg21
Vmov r1, r7
p2743
sg5
L612748L
sg6
Nsg23
S'MOV'
p2744
sg25
S'0x9598cL'
p2745
sg27
Nsba(ibclass
BInstr
p2746
(dp2747
g2
Nsg17
S'BL      bn_expand2'
p2748
sg19
S'ccd1ffeb'
p2749
sg21
Vbl #0xffff4738
p2750
sg5
L612752L
sg6
Nsg23
S'BL'
p2751
sg25
S'0x95990L'
p2752
sg27
Nsba(ibclass
BInstr
p2753
(dp2754
g2
Nsg17
S'B       loc_95698'
p2755
sg19
S'3fffffea'
p2756
sg21
Vb #0xfffffd04
p2757
sg5
L612756L
sg6
Nsg23
g110
sg25
S'0x95994L'
p2758
sg27
Nsbasg112
(lp2759
S'MOV R0, LR'
p2760
aS'MOV R1, top'
p2761
aS'BL bn_expand2'
p2762
aS'B func'
p2763
asg127
Nsg5
S'0x95988L'
p2764
sg129
(lp2765
S'0x95668L'
p2766
asg6
Nsg131
(lp2767
S'0x95698L'
p2768
asg135
Nsg136
Nsg137
S'c7080d4a00502726be394af0677088cd'
p2769
sg139
S'90b5265bafe0e01b73287d4a90cc3aa2'
p2770
sg141
(lp2771
g2737
ag2744
ag2751
ag110
asg143
Nsba(ibclass
BBasicBlock
p2772
(dp2773
g12
Nsg13
(lp2774
(ibclass
BInstr
p2775
(dp2776
g2
Nsg17
S'MOV     R0, R2          ; b'
p2777
sg19
S'0200a0e1'
p2778
sg21
Vmov r0, r2
p2779
sg5
L612760L
sg6
Nsg23
S'MOV'
p2780
sg25
S'0x95998L'
p2781
sg27
Nsba(ibclass
BInstr
p2782
(dp2783
g2
Nsg17
S'MOV     R1, top         ; words'
p2784
sg19
S'0710a0e1'
p2785
sg21
Vmov r1, r7
p2786
sg5
L612764L
sg6
Nsg23
S'MOV'
p2787
sg25
S'0x9599cL'
p2788
sg27
Nsba(ibclass
BInstr
p2789
(dp2790
g2
Nsg17
S'BL      bn_expand2'
p2791
sg19
S'c8d1ffeb'
p2792
sg21
Vbl #0xffff4728
p2793
sg5
L612768L
sg6
Nsg23
S'BL'
p2794
sg25
S'0x959a0L'
p2795
sg27
Nsba(ibclass
BInstr
p2796
(dp2797
g2
Nsg17
S'B       loc_95720'
p2798
sg19
S'5dffffea'
p2799
sg21
Vb #0xfffffd7c
p2800
sg5
L612772L
sg6
Nsg23
g110
sg25
S'0x959a4L'
p2801
sg27
Nsbasg112
(lp2802
S'MOV R0, R2'
p2803
aS'MOV R1, top'
p2804
aS'BL bn_expand2'
p2805
aS'B func'
p2806
asg127
Nsg5
S'0x95998L'
p2807
sg129
(lp2808
S'0x95708L'
p2809
asg6
Nsg131
(lp2810
S'0x95720L'
p2811
asg135
Nsg136
Nsg137
S'c7080d4a00502726be394af0677088cd'
p2812
sg139
S'960daaecac7456cfc726427b4aaa6511'
p2813
sg141
(lp2814
g2780
ag2787
ag2794
ag110
asg143
Nsba(ibclass
BBasicBlock
p2815
(dp2816
g12
Nsg13
(lp2817
(ibclass
BInstr
p2818
(dp2819
g2
Nsg17
S'MOV     R0, R2          ; b'
p2820
sg19
S'0200a0e1'
p2821
sg21
Vmov r0, r2
p2822
sg5
L612776L
sg6
Nsg23
S'MOV'
p2823
sg25
S'0x959a8L'
p2824
sg27
Nsba(ibclass
BInstr
p2825
(dp2826
g2
Nsg17
S'MOV     R1, top         ; words'
p2827
sg19
S'0710a0e1'
p2828
sg21
Vmov r1, r7
p2829
sg5
L612780L
sg6
Nsg23
S'MOV'
p2830
sg25
S'0x959acL'
p2831
sg27
Nsba(ibclass
BInstr
p2832
(dp2833
g2
Nsg17
S'BL      bn_expand2'
p2834
sg19
S'c4d1ffeb'
p2835
sg21
Vbl #0xffff4718
p2836
sg5
L612784L
sg6
Nsg23
S'BL'
p2837
sg25
S'0x959b0L'
p2838
sg27
Nsba(ibclass
BInstr
p2839
(dp2840
g2
Nsg17
S'B       loc_956DC'
p2841
sg19
S'48ffffea'
p2842
sg21
Vb #0xfffffd28
p2843
sg5
L612788L
sg6
Nsg23
g110
sg25
S'0x959b4L'
p2844
sg27
Nsbasg112
(lp2845
S'MOV R0, R2'
p2846
aS'MOV R1, top'
p2847
aS'BL bn_expand2'
p2848
aS'B func'
p2849
asg127
Nsg5
S'0x959a8L'
p2850
sg129
(lp2851
S'0x956c4L'
p2852
asg6
Nsg131
(lp2853
S'0x956dcL'
p2854
asg135
Nsg136
Nsg137
S'c7080d4a00502726be394af0677088cd'
p2855
sg139
S'960daaecac7456cfc726427b4aaa6511'
p2856
sg141
(lp2857
g2823
ag2830
ag2837
ag110
asg143
Nsbasb.