(ibclass
BFunc
p0
(dp1
S'hash'
p2
NsS'name'
p3
S'tls1_set_server_sigalgs'
p4
sS'start_address'
p5
L199260L
sS'flag'
p6
NsS'program'
p7
NsS'bbs'
p8
(lp9
(ibclass
BBasicBlock
p10
(dp11
S'function'
p12
NsS'binstrs'
p13
(lp14
(ibclass
BInstr
p15
(dp16
g2
NsS'disasm'
p17
S'STMFD   SP!, {R4,R5,LR}'
p18
sS'bytes'
p19
S'30402de9'
p20
sS'disasm_striped'
p21
Vpush {r4, r5, lr}
p22
sg5
L199260L
sg6
NsS'mnem'
p23
S'STM'
p24
sS'address'
p25
S'0x30a5cL'
p26
sS'basicblock'
p27
Nsba(ibclass
BInstr
p28
(dp29
g2
Nsg17
S'LDR     R3, [s,#0x98]'
p30
sg19
S'983090e5'
p31
sg21
Vldr r3, [r0, #0x98]
p32
sg5
L199264L
sg6
Nsg23
S'LDR'
p33
sg25
S'0x30a60L'
p34
sg27
Nsba(ibclass
BInstr
p35
(dp36
g2
Nsg17
S'MOV     R4, s'
p37
sg19
S'0040a0e1'
p38
sg21
Vmov r4, r0
p39
sg5
L199268L
sg6
Nsg23
S'MOV'
p40
sg25
S'0x30a64L'
p41
sg27
Nsba(ibclass
BInstr
p42
(dp43
g2
Nsg17
S'LDR     s, [R3,#0x13C]'
p44
sg19
S'3c0193e5'
p45
sg21
Vldr r0, [r3, #0x13c]
p46
sg5
L199272L
sg6
Nsg23
S'LDR'
p47
sg25
S'0x30a68L'
p48
sg27
Nsba(ibclass
BInstr
p49
(dp50
g2
Nsg17
S'LDR     R5, =($_GLOBAL_OFFSET_TABLE_ - 0x30A80)'
p51
sg19
S'08519fe5'
p52
sg21
Vldr r5, [pc, #0x108]
p53
sg5
L199276L
sg6
Nsg23
S'LDR'
p54
sg25
S'0x30a6cL'
p55
sg27
Nsba(ibclass
BInstr
p56
(dp57
g2
Nsg17
S'CMP     R0, #0'
p58
sg19
S'000050e3'
p59
sg21
Vcmp r0, #0
p60
sg5
L199280L
sg6
Nsg23
S'CMP'
p61
sg25
S'0x30a70L'
p62
sg27
Nsba(ibclass
BInstr
p63
(dp64
g2
Nsg17
S'SUB     SP, SP, #0xC'
p65
sg19
S'0cd04de2'
p66
sg21
Vsub sp, sp, #0xc
p67
sg5
L199284L
sg6
Nsg23
S'SUB'
p68
sg25
S'0x30a74L'
p69
sg27
Nsba(ibclass
BInstr
p70
(dp71
g2
Nsg17
S'ADD     R5, PC, R5 ; $_GLOBAL_OFFSET_TABLE_'
p72
sg19
S'05508fe0'
p73
sg21
Vadd r5, pc, r5
p74
sg5
L199288L
sg6
Nsg23
S'ADD'
p75
sg25
S'0x30a78L'
p76
sg27
Nsba(ibclass
BInstr
p77
(dp78
g2
Nsg17
S'BEQ     loc_30A90'
p79
sg19
S'0300000a'
p80
sg21
Vbeq #0x14
p81
sg5
L199292L
sg6
Nsg23
S'B'
p82
sg25
S'0x30a7cL'
p83
sg27
NsbasS'disasm_list'
p84
(lp85
S'STMFD SP!, {R4,R5,LR}'
p86
aS'LDR R3, mem'
p87
aS'MOV R4, s'
p88
aS'LDR s, mem'
p89
aS'LDR R5, =($_GLOBAL_OFFSET_TABLE_ - 0x30A80)'
p90
aS'CMP R0, #0'
p91
aS'SUB SP, SP, #0xC'
p92
aS'ADD R5, PC, R5'
p93
aS'BEQ func'
p94
asS'end_address'
p95
Nsg5
S'0x30a5cL'
p96
sS'preds'
p97
(lp98
sg6
NsS'succs'
p99
(lp100
S'0x30a80L'
p101
aS'0x30a90L'
p102
asS'hash_v3'
p103
NsS'flag_v2'
p104
NsS'hash_v1'
p105
S'dbdf083da6cf9ec57971cd3e75d296c5'
p106
sS'hash_v2'
p107
S'136a53501553d29ca44ddb7f249dce5b'
p108
sS'mnen_list'
p109
(lp110
g24
ag33
ag40
ag47
ag54
ag61
ag68
ag75
ag82
asS'neighbour_disasm_list'
p111
Nsba(ibclass
BBasicBlock
p112
(dp113
g12
Nsg13
(lp114
(ibclass
BInstr
p115
(dp116
g2
Nsg17
S'BL      CRYPTO_free'
p117
sg19
S'ca7fffeb'
p118
sg21
Vbl #0xfffdff30
p119
sg5
L199296L
sg6
Nsg23
S'BL'
p120
sg25
S'0x30a80L'
p121
sg27
Nsba(ibclass
BInstr
p122
(dp123
g2
Nsg17
S'LDR     R3, [s,#0x98]'
p124
sg19
S'983094e5'
p125
sg21
Vldr r3, [r4, #0x98]
p126
sg5
L199300L
sg6
Nsg23
S'LDR'
p127
sg25
S'0x30a84L'
p128
sg27
Nsba(ibclass
BInstr
p129
(dp130
g2
Nsg17
S'MOV     R2, #0'
p131
sg19
S'0020a0e3'
p132
sg21
Vmov r2, #0
p133
sg5
L199304L
sg6
Nsg23
S'MOV'
p134
sg25
S'0x30a88L'
p135
sg27
Nsba(ibclass
BInstr
p136
(dp137
g2
Nsg17
S'STR     R2, [R3,#0x13C]'
p138
sg19
S'3c2183e5'
p139
sg21
Vstr r2, [r3, #0x13c]
p140
sg5
L199308L
sg6
Nsg23
S'STR'
p141
sg25
S'0x30a8cL'
p142
sg27
Nsbasg84
(lp143
S'BL CRYPTO_free'
p144
aS'LDR R3, mem'
p145
aS'MOV R2, #0'
p146
aS'STR R2, mem'
p147
asg95
Nsg5
S'0x30a80L'
p148
sg97
(lp149
S'0x30a5cL'
p150
asg6
Nsg99
(lp151
S'0x30a90L'
p152
asg103
Nsg104
Nsg105
S'9294244f32c95936e589a84a6004960f'
p153
sg107
S'96ef46d3bfd6ec8db8ebc836752b94d9'
p154
sg109
(lp155
g120
ag127
ag134
ag141
asg111
Nsba(ibclass
BBasicBlock
p156
(dp157
g12
Nsg13
(lp158
(ibclass
BInstr
p159
(dp160
g2
Nsg17
S'LDR     R1, [R3,#0x124]'
p161
sg19
S'241193e5'
p162
sg21
Vldr r1, [r3, #0x124]
p163
sg5
L199312L
sg6
Nsg23
S'LDR'
p164
sg25
S'0x30a90L'
p165
sg27
Nsba(ibclass
BInstr
p166
(dp167
g2
Nsg17
S'MOV     R2, #0'
p168
sg19
S'0020a0e3'
p169
sg21
Vmov r2, #0
p170
sg5
L199316L
sg6
Nsg23
S'MOV'
p171
sg25
S'0x30a94L'
p172
sg27
Nsba(ibclass
BInstr
p173
(dp174
g2
Nsg17
S'CMP     R1, R2'
p175
sg19
S'020051e1'
p176
sg21
Vcmp r1, r2
p177
sg5
L199320L
sg6
Nsg23
S'CMP'
p178
sg25
S'0x30a98L'
p179
sg27
Nsba(ibclass
BInstr
p180
(dp181
g2
Nsg17
S'STR     R2, [R3,#0x118]'
p182
sg19
S'182183e5'
p183
sg21
Vstr r2, [r3, #0x118]
p184
sg5
L199324L
sg6
Nsg23
S'STR'
p185
sg25
S'0x30a9cL'
p186
sg27
Nsba(ibclass
BInstr
p187
(dp188
g2
Nsg17
S'STR     R2, [R3,#0x44]'
p189
sg19
S'442083e5'
p190
sg21
Vstr r2, [r3, #0x44]
p191
sg5
L199328L
sg6
Nsg23
S'STR'
p192
sg25
S'0x30aa0L'
p193
sg27
Nsba(ibclass
BInstr
p194
(dp195
g2
Nsg17
S'STR     R2, [R3,#0x54]'
p196
sg19
S'542083e5'
p197
sg21
Vstr r2, [r3, #0x54]
p198
sg5
L199332L
sg6
Nsg23
S'STR'
p199
sg25
S'0x30aa4L'
p200
sg27
Nsba(ibclass
BInstr
p201
(dp202
g2
Nsg17
S'STR     R2, [R3,#0x60]'
p203
sg19
S'602083e5'
p204
sg21
Vstr r2, [r3, #0x60]
p205
sg5
L199336L
sg6
Nsg23
S'STR'
p206
sg25
S'0x30aa8L'
p207
sg27
Nsba(ibclass
BInstr
p208
(dp209
g2
Nsg17
S'STR     R2, [R3,#0x70]'
p210
sg19
S'702083e5'
p211
sg21
Vstr r2, [r3, #0x70]
p212
sg5
L199340L
sg6
Nsg23
S'STR'
p213
sg25
S'0x30aacL'
p214
sg27
Nsba(ibclass
BInstr
p215
(dp216
g2
Nsg17
S'STR     R2, [R3,#0x7C]'
p217
sg19
S'7c2083e5'
p218
sg21
Vstr r2, [r3, #0x7c]
p219
sg5
L199344L
sg6
Nsg23
S'STR'
p220
sg25
S'0x30ab0L'
p221
sg27
Nsba(ibclass
BInstr
p222
(dp223
g2
Nsg17
S'STR     R2, [R3,#0x8C]'
p224
sg19
S'8c2083e5'
p225
sg21
Vstr r2, [r3, #0x8c]
p226
sg5
L199348L
sg6
Nsg23
S'STR'
p227
sg25
S'0x30ab4L'
p228
sg27
Nsba(ibclass
BInstr
p229
(dp230
g2
Nsg17
S'STR     R2, [R3,#0x98]'
p231
sg19
S'982083e5'
p232
sg21
Vstr r2, [r3, #0x98]
p233
sg5
L199352L
sg6
Nsg23
S'STR'
p234
sg25
S'0x30ab8L'
p235
sg27
Nsba(ibclass
BInstr
p236
(dp237
g2
Nsg17
S'STR     R2, [R3,#0xA8]'
p238
sg19
S'a82083e5'
p239
sg21
Vstr r2, [r3, #0xa8]
p240
sg5
L199356L
sg6
Nsg23
S'STR'
p241
sg25
S'0x30abcL'
p242
sg27
Nsba(ibclass
BInstr
p243
(dp244
g2
Nsg17
S'STR     R2, [R3,#0xB4]'
p245
sg19
S'b42083e5'
p246
sg21
Vstr r2, [r3, #0xb4]
p247
sg5
L199360L
sg6
Nsg23
S'STR'
p248
sg25
S'0x30ac0L'
p249
sg27
Nsba(ibclass
BInstr
p250
(dp251
g2
Nsg17
S'STR     R2, [R3,#0xC4]'
p252
sg19
S'c42083e5'
p253
sg21
Vstr r2, [r3, #0xc4]
p254
sg5
L199364L
sg6
Nsg23
S'STR'
p255
sg25
S'0x30ac4L'
p256
sg27
Nsba(ibclass
BInstr
p257
(dp258
g2
Nsg17
S'STR     R2, [R3,#0xD0]'
p259
sg19
S'd02083e5'
p260
sg21
Vstr r2, [r3, #0xd0]
p261
sg5
L199368L
sg6
Nsg23
S'STR'
p262
sg25
S'0x30ac8L'
p263
sg27
Nsba(ibclass
BInstr
p264
(dp265
g2
Nsg17
S'STR     R2, [R3,#0xE0]'
p266
sg19
S'e02083e5'
p267
sg21
Vstr r2, [r3, #0xe0]
p268
sg5
L199372L
sg6
Nsg23
S'STR'
p269
sg25
S'0x30accL'
p270
sg27
Nsba(ibclass
BInstr
p271
(dp272
g2
Nsg17
S'STR     R2, [R3,#0xEC]'
p273
sg19
S'ec2083e5'
p274
sg21
Vstr r2, [r3, #0xec]
p275
sg5
L199376L
sg6
Nsg23
S'STR'
p276
sg25
S'0x30ad0L'
p277
sg27
Nsba(ibclass
BInstr
p278
(dp279
g2
Nsg17
S'STR     R2, [R3,#0xFC]'
p280
sg19
S'fc2083e5'
p281
sg21
Vstr r2, [r3, #0xfc]
p282
sg5
L199380L
sg6
Nsg23
S'STR'
p283
sg25
S'0x30ad4L'
p284
sg27
Nsba(ibclass
BInstr
p285
(dp286
g2
Nsg17
S'STR     R2, [R3,#0x108]'
p287
sg19
S'082183e5'
p288
sg21
Vstr r2, [r3, #0x108]
p289
sg5
L199384L
sg6
Nsg23
S'STR'
p290
sg25
S'0x30ad8L'
p291
sg27
Nsba(ibclass
BInstr
p292
(dp293
g2
Nsg17
S'BEQ     loc_30B70'
p294
sg19
S'2300000a'
p295
sg21
Vbeq #0x94
p296
sg5
L199388L
sg6
Nsg23
g82
sg25
S'0x30adcL'
p297
sg27
Nsbasg84
(lp298
S'LDR R1, mem'
p299
aS'MOV R2, #0'
p300
aS'CMP R1, R2'
p301
aS'STR R2, mem'
p302
aS'STR R2, mem'
p303
aS'STR R2, mem'
p304
aS'STR R2, mem'
p305
aS'STR R2, mem'
p306
aS'STR R2, mem'
p307
aS'STR R2, mem'
p308
aS'STR R2, mem'
p309
aS'STR R2, mem'
p310
aS'STR R2, mem'
p311
aS'STR R2, mem'
p312
aS'STR R2, mem'
p313
aS'STR R2, mem'
p314
aS'STR R2, mem'
p315
aS'STR R2, mem'
p316
aS'STR R2, mem'
p317
aS'BEQ func'
p318
asg95
Nsg5
S'0x30a90L'
p319
sg97
(lp320
S'0x30a5cL'
p321
aS'0x30a80L'
p322
asg6
Nsg99
(lp323
S'0x30ae0L'
p324
aS'0x30b70L'
p325
asg103
Nsg104
Nsg105
S'5383bc81c655d31c90ac23b156bf548a'
p326
sg107
S'd0ff50529ad298a08e298f98f86151b4'
p327
sg109
(lp328
g164
ag171
ag178
ag185
ag192
ag199
ag206
ag213
ag220
ag227
ag234
ag241
ag248
ag255
ag262
ag269
ag276
ag283
ag290
ag82
asg111
Nsba(ibclass
BBasicBlock
p329
(dp330
g12
Nsg13
(lp331
(ibclass
BInstr
p332
(dp333
g2
Nsg17
S'MOV     R0, s           ; s'
p334
sg19
S'0400a0e1'
p335
sg21
Vmov r0, r4
p336
sg5
L199392L
sg6
Nsg23
S'MOV'
p337
sg25
S'0x30ae0L'
p338
sg27
Nsba(ibclass
BInstr
p339
(dp340
g2
Nsg17
S'BL      tls1_process_sigalgs'
p341
sg19
S'90feffeb'
p342
sg21
Vbl #0xfffffa48
p343
sg5
L199396L
sg6
Nsg23
S'BL'
p344
sg25
S'0x30ae4L'
p345
sg27
Nsba(ibclass
BInstr
p346
(dp347
g2
Nsg17
S'CMP     R0, #0'
p348
sg19
S'000050e3'
p349
sg21
Vcmp r0, #0
p350
sg5
L199400L
sg6
Nsg23
S'CMP'
p351
sg25
S'0x30ae8L'
p352
sg27
Nsba(ibclass
BInstr
p353
(dp354
g2
Nsg17
S'BEQ     loc_30B10'
p355
sg19
S'0700000a'
p356
sg21
Vbeq #0x24
p357
sg5
L199404L
sg6
Nsg23
g82
sg25
S'0x30aecL'
p358
sg27
Nsbasg84
(lp359
S'MOV R0, s'
p360
aS'BL tls1_process_reggreggs'
p361
aS'CMP R0, #0'
p362
aS'BEQ func'
p363
asg95
Nsg5
S'0x30ae0L'
p364
sg97
(lp365
S'0x30a90L'
p366
asg6
Nsg99
(lp367
S'0x30af0L'
p368
aS'0x30b10L'
p369
asg103
Nsg104
Nsg105
S'75fdea37841bac1a618e2aab315c9307'
p370
sg107
S'453b87b60b703f0fba453a222ad7c20f'
p371
sg109
(lp372
g337
ag344
ag351
ag82
asg111
Nsba(ibclass
BBasicBlock
p373
(dp374
g12
Nsg13
(lp375
(ibclass
BInstr
p376
(dp377
g2
Nsg17
S'LDR     R3, [s,#0x98]'
p378
sg19
S'983094e5'
p379
sg21
Vldr r3, [r4, #0x98]
p380
sg5
L199408L
sg6
Nsg23
S'LDR'
p381
sg25
S'0x30af0L'
p382
sg27
Nsba(ibclass
BInstr
p383
(dp384
g2
Nsg17
S'LDR     R3, [R3,#0x13C]'
p385
sg19
S'3c3193e5'
p386
sg21
Vldr r3, [r3, #0x13c]
p387
sg5
L199412L
sg6
Nsg23
S'LDR'
p388
sg25
S'0x30af4L'
p389
sg27
Nsba(ibclass
BInstr
p390
(dp391
g2
Nsg17
S'CMP     R3, #0'
p392
sg19
S'000053e3'
p393
sg21
Vcmp r3, #0
p394
sg5
L199416L
sg6
Nsg23
S'CMP'
p395
sg25
S'0x30af8L'
p396
sg27
Nsba(ibclass
BInstr
p397
(dp398
g2
Nsg17
S'BEQ     loc_30B48'
p399
sg19
S'1100000a'
p400
sg21
Vbeq #0x4c
p401
sg5
L199420L
sg6
Nsg23
g82
sg25
S'0x30afcL'
p402
sg27
Nsbasg84
(lp403
S'LDR R3, mem'
p404
aS'LDR R3, mem'
p405
aS'CMP R3, #0'
p406
aS'BEQ func'
p407
asg95
Nsg5
S'0x30af0L'
p408
sg97
(lp409
S'0x30ae0L'
p410
asg6
Nsg99
(lp411
S'0x30b00L'
p412
aS'0x30b48L'
p413
asg103
Nsg104
Nsg105
S'd9812e74326a7ebe01ae9e2a00bbb5ee'
p414
sg107
S'8bfb676d081709e8821f9868e74b6036'
p415
sg109
(lp416
g381
ag388
ag395
ag82
asg111
Nsba(ibclass
BBasicBlock
p417
(dp418
g12
Nsg13
(lp419
(ibclass
BInstr
p420
(dp421
g2
Nsg17
S'MOV     R0, #1'
p422
sg19
S'0100a0e3'
p423
sg21
Vmov r0, #1
p424
sg5
L199424L
sg6
Nsg23
S'MOV'
p425
sg25
S'0x30b00L'
p426
sg27
Nsbasg84
(lp427
S'MOV R0, #1'
p428
asg95
Nsg5
S'0x30b00L'
p429
sg97
(lp430
S'0x30af0L'
p431
aS'0x30b70L'
p432
asg6
Nsg99
(lp433
S'0x30b04L'
p434
asg103
Nsg104
Nsg105
S'17b32100aef1fc19670be7fd58bc85df'
p435
sg107
S'849aeebd84b36519533f5326a1b16475'
p436
sg109
(lp437
g425
asg111
Nsba(ibclass
BBasicBlock
p438
(dp439
g12
Nsg13
(lp440
(ibclass
BInstr
p441
(dp442
g2
Nsg17
S'ADD     SP, SP, #0xC'
p443
sg19
S'0cd08de2'
p444
sg21
Vadd sp, sp, #0xc
p445
sg5
L199428L
sg6
Nsg23
S'ADD'
p446
sg25
S'0x30b04L'
p447
sg27
Nsba(ibclass
BInstr
p448
(dp449
g2
Nsg17
S'LDMFD   SP!, {s,R5,LR}'
p450
sg19
S'3040bde8'
p451
sg21
Vpop {r4, r5, lr}
p452
sg5
L199432L
sg6
Nsg23
S'LDM'
p453
sg25
S'0x30b08L'
p454
sg27
Nsba(ibclass
BInstr
p455
(dp456
g2
Nsg17
S'BX      LR'
p457
sg19
S'1eff2fe1'
p458
sg21
Vbx lr
p459
sg5
L199436L
sg6
Nsg23
S'BX'
p460
sg25
S'0x30b0cL'
p461
sg27
Nsbasg84
(lp462
S'ADD SP, SP, #0xC'
p463
aS'LDMFD SP!, {s,R5,LR}'
p464
aS'BX LR'
p465
asg95
Nsg5
S'0x30b04L'
p466
sg97
(lp467
S'0x30b00L'
p468
aS'0x30b34L'
p469
asg6
Nsg99
(lp470
sg103
Nsg104
Nsg105
S'fb02e3799554a1c259ca4724e19b2b8e'
p471
sg107
S'0295ebdd923076b4a79399926084cb09'
p472
sg109
(lp473
g446
ag453
ag460
asg111
Nsba(ibclass
BBasicBlock
p474
(dp475
g12
Nsg13
(lp476
(ibclass
BInstr
p477
(dp478
g2
Nsg17
S'LDR     R3, =(aT1_lib_c - 0x61000)'
p479
sg19
S'68309fe5'
p480
sg21
Vldr r3, [pc, #0x68]
p481
sg5
L199440L
sg6
Nsg23
S'LDR'
p482
sg25
S'0x30b10L'
p483
sg27
Nsba(ibclass
BInstr
p484
(dp485
g2
Nsg17
S'LDR     R12, =0xBA2'
p486
sg19
S'68c09fe5'
p487
sg21
Vldr ip, [pc, #0x68]
p488
sg5
L199444L
sg6
Nsg23
S'LDR'
p489
sg25
S'0x30b14L'
p490
sg27
Nsba(ibclass
BInstr
p491
(dp492
g2
Nsg17
S'MOV     R2, #0x41'
p493
sg19
S'4120a0e3'
p494
sg21
Vmov r2, #0x41
p495
sg5
L199448L
sg6
Nsg23
S'MOV'
p496
sg25
S'0x30b18L'
p497
sg27
Nsba(ibclass
BInstr
p498
(dp499
g2
Nsg17
S'ADD     R3, R5, R3      ; "t1_lib.c"'
p500
sg19
S'033085e0'
p501
sg21
Vadd r3, r5, r3
p502
sg5
L199452L
sg6
Nsg23
S'ADD'
p503
sg25
S'0x30b1cL'
p504
sg27
Nsba(ibclass
BInstr
p505
(dp506
g2
Nsg17
S'MOV     R0, #0x14'
p507
sg19
S'1400a0e3'
p508
sg21
Vmov r0, #0x14
p509
sg5
L199456L
sg6
Nsg23
S'MOV'
p510
sg25
S'0x30b20L'
p511
sg27
Nsba(ibclass
BInstr
p512
(dp513
g2
Nsg17
S'LDR     R1, =0x14F'
p514
sg19
S'5c109fe5'
p515
sg21
Vldr r1, [pc, #0x5c]
p516
sg5
L199460L
sg6
Nsg23
S'LDR'
p517
sg25
S'0x30b24L'
p518
sg27
Nsba(ibclass
BInstr
p519
(dp520
g2
Nsg17
S'STR     R12, [SP,#0x18+var_18]'
p521
sg19
S'00c08de5'
p522
sg21
Vstr ip, [sp]
p523
sg5
L199464L
sg6
Nsg23
S'STR'
p524
sg25
S'0x30b28L'
p525
sg27
Nsba(ibclass
BInstr
p526
(dp527
g2
Nsg17
S'BL      ERR_put_error'
p528
sg19
S'4282ffeb'
p529
sg21
Vbl #0xfffe0910
p530
sg5
L199468L
sg6
Nsg23
S'BL'
p531
sg25
S'0x30b2cL'
p532
sg27
Nsba(ibclass
BInstr
p533
(dp534
g2
Nsg17
S'MOV     R2, #0x50       ; desc'
p535
sg19
S'5020a0e3'
p536
sg21
Vmov r2, #0x50
p537
sg5
L199472L
sg6
Nsg23
S'MOV'
p538
sg25
S'0x30b30L'
p539
sg27
Nsbasg84
(lp540
S'LDR R3, =(aT1_lib_c - address)'
p541
aS'LDR R12, =0xBA2'
p542
aS'MOV R2, #0x41'
p543
aS'ADD R3, R5, R3'
p544
aS'MOV R0, #0x14'
p545
aS'LDR R1, =0x14F'
p546
aS'STR R12, mem'
p547
aS'BL ERR_put_error'
p548
aS'MOV R2, #0x50'
p549
asg95
Nsg5
S'0x30b10L'
p550
sg97
(lp551
S'0x30ae0L'
p552
asg6
Nsg99
(lp553
S'0x30b34L'
p554
asg103
Nsg104
Nsg105
S'5525b3b71750cf91b37cc5ed2742e39f'
p555
sg107
S'acc83e07d44d041abc22a617f40b19f5'
p556
sg109
(lp557
g482
ag489
ag496
ag503
ag510
ag517
ag524
ag531
ag538
asg111
Nsba(ibclass
BBasicBlock
p558
(dp559
g12
Nsg13
(lp560
(ibclass
BInstr
p561
(dp562
g2
Nsg17
S'MOV     R0, s           ; s'
p563
sg19
S'0400a0e1'
p564
sg21
Vmov r0, r4
p565
sg5
L199476L
sg6
Nsg23
S'MOV'
p566
sg25
S'0x30b34L'
p567
sg27
Nsba(ibclass
BInstr
p568
(dp569
g2
Nsg17
S'MOV     R1, #2          ; level'
p570
sg19
S'0210a0e3'
p571
sg21
Vmov r1, #2
p572
sg5
L199480L
sg6
Nsg23
S'MOV'
p573
sg25
S'0x30b38L'
p574
sg27
Nsba(ibclass
BInstr
p575
(dp576
g2
Nsg17
S'BL      ssl3_send_alert'
p577
sg19
S'13d2ffeb'
p578
sg21
Vbl #0xffff4854
p579
sg5
L199484L
sg6
Nsg23
S'BL'
p580
sg25
S'0x30b3cL'
p581
sg27
Nsba(ibclass
BInstr
p582
(dp583
g2
Nsg17
S'MOV     R0, #0'
p584
sg19
S'0000a0e3'
p585
sg21
Vmov r0, #0
p586
sg5
L199488L
sg6
Nsg23
S'MOV'
p587
sg25
S'0x30b40L'
p588
sg27
Nsba(ibclass
BInstr
p589
(dp590
g2
Nsg17
S'B       loc_30B04'
p591
sg19
S'eeffffea'
p592
sg21
Vb #0xffffffc0
p593
sg5
L199492L
sg6
Nsg23
g82
sg25
S'0x30b44L'
p594
sg27
Nsbasg84
(lp595
S'MOV R0, s'
p596
aS'MOV R1, #2'
p597
aS'BL ssl3_send_regert'
p598
aS'MOV R0, #0'
p599
aS'B func'
p600
asg95
Nsg5
S'0x30b34L'
p601
sg97
(lp602
S'0x30b10L'
p603
aS'0x30b48L'
p604
asg6
Nsg99
(lp605
S'0x30b04L'
p606
asg103
Nsg104
Nsg105
S'9f56df9c336a8c856fb600f4341da9ca'
p607
sg107
S'0d6308189e1afd108dbdc30228781a79'
p608
sg109
(lp609
g566
ag573
ag580
ag587
ag82
asg111
Nsba(ibclass
BBasicBlock
p610
(dp611
g12
Nsg13
(lp612
(ibclass
BInstr
p613
(dp614
g2
Nsg17
S'LDR     R3, =(aT1_lib_c - 0x61000)'
p615
sg19
S'30309fe5'
p616
sg21
Vldr r3, [pc, #0x30]
p617
sg5
L199496L
sg6
Nsg23
S'LDR'
p618
sg25
S'0x30b48L'
p619
sg27
Nsba(ibclass
BInstr
p620
(dp621
g2
Nsg17
S'LDR     R12, =0xBA9'
p622
sg19
S'38c09fe5'
p623
sg21
Vldr ip, [pc, #0x38]
p624
sg5
L199500L
sg6
Nsg23
S'LDR'
p625
sg25
S'0x30b4cL'
p626
sg27
Nsba(ibclass
BInstr
p627
(dp628
g2
Nsg17
S'MOV     R2, #0x178'
p629
sg19
S'5e2fa0e3'
p630
sg21
Vmov r2, #0x178
p631
sg5
L199504L
sg6
Nsg23
S'MOV'
p632
sg25
S'0x30b50L'
p633
sg27
Nsba(ibclass
BInstr
p634
(dp635
g2
Nsg17
S'ADD     R3, R5, R3      ; "t1_lib.c"'
p636
sg19
S'033085e0'
p637
sg21
Vadd r3, r5, r3
p638
sg5
L199508L
sg6
Nsg23
S'ADD'
p639
sg25
S'0x30b54L'
p640
sg27
Nsba(ibclass
BInstr
p641
(dp642
g2
Nsg17
S'MOV     R0, #0x14'
p643
sg19
S'1400a0e3'
p644
sg21
Vmov r0, #0x14
p645
sg5
L199512L
sg6
Nsg23
S'MOV'
p646
sg25
S'0x30b58L'
p647
sg27
Nsba(ibclass
BInstr
p648
(dp649
g2
Nsg17
S'LDR     R1, =0x14F'
p650
sg19
S'24109fe5'
p651
sg21
Vldr r1, [pc, #0x24]
p652
sg5
L199516L
sg6
Nsg23
S'LDR'
p653
sg25
S'0x30b5cL'
p654
sg27
Nsba(ibclass
BInstr
p655
(dp656
g2
Nsg17
S'STR     R12, [SP,#0x18+var_18]'
p657
sg19
S'00c08de5'
p658
sg21
Vstr ip, [sp]
p659
sg5
L199520L
sg6
Nsg23
S'STR'
p660
sg25
S'0x30b60L'
p661
sg27
Nsba(ibclass
BInstr
p662
(dp663
g2
Nsg17
S'BL      ERR_put_error'
p664
sg19
S'3482ffeb'
p665
sg21
Vbl #0xfffe08d8
p666
sg5
L199524L
sg6
Nsg23
S'BL'
p667
sg25
S'0x30b64L'
p668
sg27
Nsba(ibclass
BInstr
p669
(dp670
g2
Nsg17
S'MOV     R2, #0x2F'
p671
sg19
S'2f20a0e3'
p672
sg21
Vmov r2, #0x2f
p673
sg5
L199528L
sg6
Nsg23
S'MOV'
p674
sg25
S'0x30b68L'
p675
sg27
Nsba(ibclass
BInstr
p676
(dp677
g2
Nsg17
S'B       err'
p678
sg19
S'f0ffffea'
p679
sg21
Vb #0xffffffc8
p680
sg5
L199532L
sg6
Nsg23
g82
sg25
S'0x30b6cL'
p681
sg27
Nsbasg84
(lp682
S'LDR R3, =(aT1_lib_c - address)'
p683
aS'LDR R12, =0xBA9'
p684
aS'MOV R2, #0x178'
p685
aS'ADD R3, R5, R3'
p686
aS'MOV R0, #0x14'
p687
aS'LDR R1, =0x14F'
p688
aS'STR R12, mem'
p689
aS'BL ERR_put_error'
p690
aS'MOV R2, #0x2F'
p691
aS'B err'
p692
asg95
Nsg5
S'0x30b48L'
p693
sg97
(lp694
S'0x30af0L'
p695
asg6
Nsg99
(lp696
S'0x30b34L'
p697
asg103
Nsg104
Nsg105
S'11a79a9c867237e905a89111c737c309'
p698
sg107
S'deadc9b11891c0a5572c2a21ca4a369d'
p699
sg109
(lp700
g618
ag625
ag632
ag639
ag646
ag653
ag660
ag667
ag674
ag82
asg111
Nsba(ibclass
BBasicBlock
p701
(dp702
g12
Nsg13
(lp703
(ibclass
BInstr
p704
(dp705
g2
Nsg17
S'MOV     R0, R3          ; cert'
p706
sg19
S'0300a0e1'
p707
sg21
Vmov r0, r3
p708
sg5
L199536L
sg6
Nsg23
S'MOV'
p709
sg25
S'0x30b70L'
p710
sg27
Nsba(ibclass
BInstr
p711
(dp712
g2
Nsg17
S'BL      ssl_cert_set_default_md'
p713
sg19
S'064100eb'
p714
sg21
Vbl #0x10420
p715
sg5
L199540L
sg6
Nsg23
S'BL'
p716
sg25
S'0x30b74L'
p717
sg27
Nsba(ibclass
BInstr
p718
(dp719
g2
Nsg17
S'B       loc_30B00'
p720
sg19
S'e0ffffea'
p721
sg21
Vb #0xffffff88
p722
sg5
L199544L
sg6
Nsg23
g82
sg25
S'0x30b78L'
p723
sg27
Nsbasg84
(lp724
S'MOV R0, R3'
p725
aS'BL ssl_cert_set_default_md'
p726
aS'B func'
p727
asg95
Nsg5
S'0x30b70L'
p728
sg97
(lp729
S'0x30a90L'
p730
asg6
Nsg99
(lp731
S'0x30b00L'
p732
asg103
Nsg104
Nsg105
S'f3f645dfcfe38b34211b70b425c07bfe'
p733
sg107
S'c7c3d721ae33ceddfff1854be3426c2e'
p734
sg109
(lp735
g709
ag716
ag82
asg111
Nsbasb.