(ibclass
BFunc
p0
(dp1
S'hash'
p2
NsS'name'
p3
S'ASN1_TYPE_cmp'
p4
sS'start_address'
p5
L934548L
sS'flag'
p6
NsS'program'
p7
NsS'bbs'
p8
(lp9
(ibclass
BBasicBlock
p10
(dp11
S'function'
p12
NsS'binstrs'
p13
(lp14
(ibclass
BInstr
p15
(dp16
g2
NsS'disasm'
p17
S'CMP     a, #0'
p18
sS'bytes'
p19
S'000050e3'
p20
sS'disasm_striped'
p21
Vcmp r0, #0
p22
sg5
L934548L
sg6
NsS'mnem'
p23
S'CMP'
p24
sS'address'
p25
S'0xe4294L'
p26
sS'basicblock'
p27
Nsba(ibclass
BInstr
p28
(dp29
g2
Nsg17
S'CMPNE   b, #0'
p30
sg19
S'00005113'
p31
sg21
Vcmpne r1, #0
p32
sg5
L934552L
sg6
Nsg23
S'CMP'
p33
sg25
S'0xe4298L'
p34
sg27
Nsba(ibclass
BInstr
p35
(dp36
g2
Nsg17
S'STMFD   SP!, {R4,LR}'
p37
sg19
S'10402de9'
p38
sg21
Vpush {r4, lr}
p39
sg5
L934556L
sg6
Nsg23
S'STM'
p40
sg25
S'0xe429cL'
p41
sg27
Nsba(ibclass
BInstr
p42
(dp43
g2
Nsg17
S'MOVNE   R3, #0'
p44
sg19
S'0030a013'
p45
sg21
Vmovne r3, #0
p46
sg5
L934560L
sg6
Nsg23
S'MOV'
p47
sg25
S'0xe42a0L'
p48
sg27
Nsba(ibclass
BInstr
p49
(dp50
g2
Nsg17
S'MOVEQ   R3, #1'
p51
sg19
S'0130a003'
p52
sg21
Vmoveq r3, #1
p53
sg5
L934564L
sg6
Nsg23
S'MOV'
p54
sg25
S'0xe42a4L'
p55
sg27
Nsba(ibclass
BInstr
p56
(dp57
g2
Nsg17
S'BNE     loc_E42B8'
p58
sg19
S'0200001a'
p59
sg21
Vbne #0x10
p60
sg5
L934568L
sg6
Nsg23
S'B'
p61
sg25
S'0xe42a8L'
p62
sg27
NsbasS'disasm_list'
p63
(lp64
S'CMP a, #0'
p65
aS'CMPNE b, #0'
p66
aS'STMFD SP!, {R4,LR}'
p67
aS'MOVNE R3, #0'
p68
aS'MOVEQ R3, #1'
p69
aS'BNE func'
p70
asS'end_address'
p71
Nsg5
S'0xe4294L'
p72
sS'preds'
p73
(lp74
sg6
NsS'succs'
p75
(lp76
S'0xe42acL'
p77
aS'0xe42b8L'
p78
asS'hash_v3'
p79
NsS'flag_v2'
p80
NsS'hash_v1'
p81
S'632673e31676de4efb56daaead73e4c4'
p82
sS'hash_v2'
p83
S'cdb0b9a8bbb8bf5b8ac317d27a2300b4'
p84
sS'mnen_list'
p85
(lp86
g24
ag33
ag40
ag47
ag54
ag61
asS'neighbour_disasm_list'
p87
Nsba(ibclass
BBasicBlock
p88
(dp89
g12
Nsg13
(lp90
(ibclass
BInstr
p91
(dp92
g2
Nsg17
S'MOV     a, #0xFFFFFFFF'
p93
sg19
S'0000e0e3'
p94
sg21
Vmvn r0, #0
p95
sg5
L934572L
sg6
Nsg23
S'MOV'
p96
sg25
S'0xe42acL'
p97
sg27
Nsbasg63
(lp98
S'MOV a, #0xFFFFFFFF'
p99
asg71
Nsg5
S'0xe42acL'
p100
sg73
(lp101
S'0xe4294L'
p102
aS'0xe42b8L'
p103
asg6
Nsg75
(lp104
S'0xe42b0L'
p105
asg79
Nsg80
Nsg81
S'17b32100aef1fc19670be7fd58bc85df'
p106
sg83
S'af8b7561328589b6f07040073f21d595'
p107
sg85
(lp108
g96
asg87
Nsba(ibclass
BBasicBlock
p109
(dp110
g12
Nsg13
(lp111
(ibclass
BInstr
p112
(dp113
g2
Nsg17
S'LDMFD   SP!, {R4,LR}'
p114
sg19
S'1040bde8'
p115
sg21
Vpop {r4, lr}
p116
sg5
L934576L
sg6
Nsg23
S'LDM'
p117
sg25
S'0xe42b0L'
p118
sg27
Nsba(ibclass
BInstr
p119
(dp120
g2
Nsg17
S'BX      LR'
p121
sg19
S'1eff2fe1'
p122
sg21
Vbx lr
p123
sg5
L934580L
sg6
Nsg23
S'BX'
p124
sg25
S'0xe42b4L'
p125
sg27
Nsbasg63
(lp126
S'LDMFD SP!, {R4,LR}'
p127
aS'BX LR'
p128
asg71
Nsg5
S'0xe42b0L'
p129
sg73
(lp130
S'0xe42acL'
p131
aS'0xe42c8L'
p132
aS'0xe42dcL'
p133
aS'0xe42ecL'
p134
asg6
Nsg75
(lp135
sg79
Nsg80
Nsg81
S'1bbf04f23edc7b30d215c55a7294459f'
p136
sg83
S'32aa684f87d80236da5a07ab55e2aaf3'
p137
sg85
(lp138
g117
ag124
asg87
Nsba(ibclass
BBasicBlock
p139
(dp140
g12
Nsg13
(lp141
(ibclass
BInstr
p142
(dp143
g2
Nsg17
S'LDR     R2, [a]'
p144
sg19
S'002090e5'
p145
sg21
Vldr r2, [r0]
p146
sg5
L934584L
sg6
Nsg23
S'LDR'
p147
sg25
S'0xe42b8L'
p148
sg27
Nsba(ibclass
BInstr
p149
(dp150
g2
Nsg17
S'LDR     R12, [b]'
p151
sg19
S'00c091e5'
p152
sg21
Vldr ip, [r1]
p153
sg5
L934588L
sg6
Nsg23
S'LDR'
p154
sg25
S'0xe42bcL'
p155
sg27
Nsba(ibclass
BInstr
p156
(dp157
g2
Nsg17
S'CMP     R2, R12'
p158
sg19
S'0c0052e1'
p159
sg21
Vcmp r2, ip
p160
sg5
L934592L
sg6
Nsg23
S'CMP'
p161
sg25
S'0xe42c0L'
p162
sg27
Nsba(ibclass
BInstr
p163
(dp164
g2
Nsg17
S'BNE     loc_E42AC'
p165
sg19
S'f8ffff1a'
p166
sg21
Vbne #0xffffffe8
p167
sg5
L934596L
sg6
Nsg23
g61
sg25
S'0xe42c4L'
p168
sg27
Nsbasg63
(lp169
S'LDR R2, mem'
p170
aS'LDR R12, mem'
p171
aS'CMP R2, R12'
p172
aS'BNE func'
p173
asg71
Nsg5
S'0xe42b8L'
p174
sg73
(lp175
S'0xe4294L'
p176
asg6
Nsg75
(lp177
S'0xe42acL'
p178
aS'0xe42c8L'
p179
asg79
Nsg80
Nsg81
S'd9812e74326a7ebe01ae9e2a00bbb5ee'
p180
sg83
S'f1ec38f0764a772f7e024865ddedfdda'
p181
sg85
(lp182
g147
ag154
ag161
ag61
asg87
Nsba(ibclass
BBasicBlock
p183
(dp184
g12
Nsg13
(lp185
(ibclass
BInstr
p186
(dp187
g2
Nsg17
S'CMP     R2, #5'
p188
sg19
S'050052e3'
p189
sg21
Vcmp r2, #5
p190
sg5
L934600L
sg6
Nsg23
S'CMP'
p191
sg25
S'0xe42c8L'
p192
sg27
Nsba(ibclass
BInstr
p193
(dp194
g2
Nsg17
S'MOVEQ   a, R3'
p195
sg19
S'0300a001'
p196
sg21
Vmoveq r0, r3
p197
sg5
L934604L
sg6
Nsg23
S'MOV'
p198
sg25
S'0xe42ccL'
p199
sg27
Nsba(ibclass
BInstr
p200
(dp201
g2
Nsg17
S'BEQ     loc_E42B0'
p202
sg19
S'f6ffff0a'
p203
sg21
Vbeq #0xffffffe0
p204
sg5
L934608L
sg6
Nsg23
g61
sg25
S'0xe42d0L'
p205
sg27
Nsbasg63
(lp206
S'CMP R2, #5'
p207
aS'MOVEQ a, R3'
p208
aS'BEQ func'
p209
asg71
Nsg5
S'0xe42c8L'
p210
sg73
(lp211
S'0xe42b8L'
p212
asg6
Nsg75
(lp213
S'0xe42b0L'
p214
aS'0xe42d4L'
p215
asg79
Nsg80
Nsg81
S'e8df9ba4cde3984b4ab59d5bb6791e02'
p216
sg83
S'840042913a6a8a975a49b41db598851e'
p217
sg85
(lp218
g191
ag198
ag61
asg87
Nsba(ibclass
BBasicBlock
p219
(dp220
g12
Nsg13
(lp221
(ibclass
BInstr
p222
(dp223
g2
Nsg17
S'CMP     R2, #6'
p224
sg19
S'060052e3'
p225
sg21
Vcmp r2, #6
p226
sg5
L934612L
sg6
Nsg23
S'CMP'
p227
sg25
S'0xe42d4L'
p228
sg27
Nsba(ibclass
BInstr
p229
(dp230
g2
Nsg17
S'BEQ     loc_E42EC'
p231
sg19
S'0300000a'
p232
sg21
Vbeq #0x14
p233
sg5
L934616L
sg6
Nsg23
g61
sg25
S'0xe42d8L'
p234
sg27
Nsbasg63
(lp235
S'CMP R2, #6'
p236
aS'BEQ func'
p237
asg71
Nsg5
S'0xe42d4L'
p238
sg73
(lp239
S'0xe42c8L'
p240
asg6
Nsg75
(lp241
S'0xe42dcL'
p242
aS'0xe42ecL'
p243
asg79
Nsg80
Nsg81
S'c78fd620a449e3c979d3f3ec12d4ee88'
p244
sg83
S'bf996a57b54cd35925846ee15ad44def'
p245
sg85
(lp246
g227
ag61
asg87
Nsba(ibclass
BBasicBlock
p247
(dp248
g12
Nsg13
(lp249
(ibclass
BInstr
p250
(dp251
g2
Nsg17
S'LDR     b, [b,#4]       ; b'
p252
sg19
S'041091e5'
p253
sg21
Vldr r1, [r1, #4]
p254
sg5
L934620L
sg6
Nsg23
S'LDR'
p255
sg25
S'0xe42dcL'
p256
sg27
Nsba(ibclass
BInstr
p257
(dp258
g2
Nsg17
S'LDR     result, [result,#4]; a'
p259
sg19
S'040090e5'
p260
sg21
Vldr r0, [r0, #4]
p261
sg5
L934624L
sg6
Nsg23
S'LDR'
p262
sg25
S'0xe42e0L'
p263
sg27
Nsba(ibclass
BInstr
p264
(dp265
g2
Nsg17
S'BL      ASN1_STRING_cmp'
p266
sg19
S'4b5900eb'
p267
sg21
Vbl #0x16534
p268
sg5
L934628L
sg6
Nsg23
S'BL'
p269
sg25
S'0xe42e4L'
p270
sg27
Nsba(ibclass
BInstr
p271
(dp272
g2
Nsg17
S'B       loc_E42B0'
p273
sg19
S'f0ffffea'
p274
sg21
Vb #0xffffffc8
p275
sg5
L934632L
sg6
Nsg23
g61
sg25
S'0xe42e8L'
p276
sg27
Nsbasg63
(lp277
S'LDR b, mem'
p278
aS'LDR result, mem'
p279
aS'BL ASN1_STRING_cmp'
p280
aS'B func'
p281
asg71
Nsg5
S'0xe42dcL'
p282
sg73
(lp283
S'0xe42d4L'
p284
asg6
Nsg75
(lp285
S'0xe42b0L'
p286
asg79
Nsg80
Nsg81
S'18f4ca333a91fd107b9d96330593953c'
p287
sg83
S'38d94125199501fe193e418a80c95b66'
p288
sg85
(lp289
g255
ag262
ag269
ag61
asg87
Nsba(ibclass
BBasicBlock
p290
(dp291
g12
Nsg13
(lp292
(ibclass
BInstr
p293
(dp294
g2
Nsg17
S'LDR     b, [b,#4]       ; b'
p295
sg19
S'041091e5'
p296
sg21
Vldr r1, [r1, #4]
p297
sg5
L934636L
sg6
Nsg23
S'LDR'
p298
sg25
S'0xe42ecL'
p299
sg27
Nsba(ibclass
BInstr
p300
(dp301
g2
Nsg17
S'LDR     result, [result,#4]; a'
p302
sg19
S'040090e5'
p303
sg21
Vldr r0, [r0, #4]
p304
sg5
L934640L
sg6
Nsg23
S'LDR'
p305
sg25
S'0xe42f0L'
p306
sg27
Nsba(ibclass
BInstr
p307
(dp308
g2
Nsg17
S'BL      OBJ_cmp'
p309
sg19
S'329cfdeb'
p310
sg21
Vbl #0xfff670d0
p311
sg5
L934644L
sg6
Nsg23
S'BL'
p312
sg25
S'0xe42f4L'
p313
sg27
Nsba(ibclass
BInstr
p314
(dp315
g2
Nsg17
S'B       loc_E42B0'
p316
sg19
S'ecffffea'
p317
sg21
Vb #0xffffffb8
p318
sg5
L934648L
sg6
Nsg23
g61
sg25
S'0xe42f8L'
p319
sg27
Nsbasg63
(lp320
S'LDR b, mem'
p321
aS'LDR result, mem'
p322
aS'BL OBJ_cmp'
p323
aS'B func'
p324
asg71
Nsg5
S'0xe42ecL'
p325
sg73
(lp326
S'0xe42d4L'
p327
asg6
Nsg75
(lp328
S'0xe42b0L'
p329
asg79
Nsg80
Nsg81
S'18f4ca333a91fd107b9d96330593953c'
p330
sg83
S'1529dd7abe2e8c9dd111e65325e42862'
p331
sg85
(lp332
g298
ag305
ag312
ag61
asg87
Nsbasb.