(ibclass
BFunc
p0
(dp1
S'hash'
p2
NsS'name'
p3
S'SSL_SESSION_new'
p4
sS'start_address'
p5
L613536L
sS'flag'
p6
NsS'program'
p7
NsS'bbs'
p8
(lp9
(ibclass
BBasicBlock
p10
(dp11
S'function'
p12
NsS'binstrs'
p13
(lp14
(ibclass
BInstr
p15
(dp16
g2
NsS'disasm'
p17
S'IMPORT SSL_SESSION_new'
p18
sS'bytes'
p19
S'00000000'
p20
sS'disasm_striped'
p21
Vandeq r0, r0, r0
p22
sg5
L613536L
sg6
NsS'mnem'
p23
S'RET'
p24
sS'address'
p25
S'0x95ca0L'
p26
sS'basicblock'
p27
NsbasS'disasm_list'
p28
(lp29
S'IMPORT SSL_SESSION_new'
p30
asS'end_address'
p31
Nsg5
S'0x95ca0L'
p32
sS'preds'
p33
(lp34
sg6
NsS'succs'
p35
(lp36
sS'hash_v3'
p37
NsS'flag_v2'
p38
NsS'hash_v1'
p39
S'fb902bc4807c307b9309f2b528b96f2b'
p40
sS'hash_v2'
p41
S'f2040386e862090b8ae5d68126de561f'
p42
sS'mnen_list'
p43
(lp44
g24
asS'neighbour_disasm_list'
p45
Nsbasb.