(ibclass
BFunc
p0
(dp1
S'hash'
p2
NsS'name'
p3
S'rsa_mgf1_decode'
p4
sS'start_address'
p5
L713316L
sS'flag'
p6
NsS'program'
p7
NsS'bbs'
p8
(lp9
(ibclass
BBasicBlock
p10
(dp11
S'function'
p12
NsS'binstrs'
p13
(lp14
(ibclass
BInstr
p15
(dp16
g2
NsS'disasm'
p17
S'STMFD   SP!, {R4,LR}'
p18
sS'bytes'
p19
S'10402de9'
p20
sS'disasm_striped'
p21
Vpush {r4, lr}
p22
sg5
L713316L
sg6
NsS'mnem'
p23
S'STM'
p24
sS'address'
p25
S'0xae264L'
p26
sS'basicblock'
p27
Nsba(ibclass
BInstr
p28
(dp29
g2
Nsg17
S'SUBS    R4, alg, #0'
p30
sg19
S'004050e2'
p31
sg21
Vsubs r4, r0, #0
p32
sg5
L713320L
sg6
Nsg23
S'SUB'
p33
sg25
S'0xae268L'
p34
sg27
Nsba(ibclass
BInstr
p35
(dp36
g2
Nsg17
S'SUB     SP, SP, #8'
p37
sg19
S'08d04de2'
p38
sg21
Vsub sp, sp, #8
p39
sg5
L713324L
sg6
Nsg23
S'SUB'
p40
sg25
S'0xae26cL'
p41
sg27
Nsba(ibclass
BInstr
p42
(dp43
g2
Nsg17
S'BNE     loc_AE284'
p44
sg19
S'0300001a'
p45
sg21
Vbne #0x14
p46
sg5
L713328L
sg6
Nsg23
S'B'
p47
sg25
S'0xae270L'
p48
sg27
NsbasS'disasm_list'
p49
(lp50
S'STMFD SP!, {R4,LR}'
p51
aS'SUBS R4, regg, #0'
p52
aS'SUB SP, SP, #8'
p53
aS'BNE func'
p54
asS'end_address'
p55
Nsg5
S'0xae264L'
p56
sS'preds'
p57
(lp58
sg6
NsS'succs'
p59
(lp60
S'0xae274L'
p61
aS'0xae284L'
p62
asS'hash_v3'
p63
NsS'flag_v2'
p64
NsS'hash_v1'
p65
S'daf45ee903320495ed7f020832e07033'
p66
sS'hash_v2'
p67
S'5f30b316f40ddec44c25c8c6e5543db7'
p68
sS'mnen_list'
p69
(lp70
g24
ag33
ag40
ag47
asS'neighbour_disasm_list'
p71
Nsba(ibclass
BBasicBlock
p72
(dp73
g12
Nsg13
(lp74
(ibclass
BInstr
p75
(dp76
g2
Nsg17
S'MOV     R0, #0'
p77
sg19
S'0000a0e3'
p78
sg21
Vmov r0, #0
p79
sg5
L713332L
sg6
Nsg23
S'MOV'
p80
sg25
S'0xae274L'
p81
sg27
Nsbasg49
(lp82
S'MOV R0, #0'
p83
asg55
Nsg5
S'0xae274L'
p84
sg57
(lp85
S'0xae264L'
p86
aS'0xae284L'
p87
aS'0xae298L'
p88
asg6
Nsg59
(lp89
S'0xae278L'
p90
asg63
Nsg64
Nsg65
S'17b32100aef1fc19670be7fd58bc85df'
p91
sg67
S'e733d4d75975b8499f45ea9e00b5f330'
p92
sg69
(lp93
g80
asg71
Nsba(ibclass
BBasicBlock
p94
(dp95
g12
Nsg13
(lp96
(ibclass
BInstr
p97
(dp98
g2
Nsg17
S'ADD     SP, SP, #8'
p99
sg19
S'08d08de2'
p100
sg21
Vadd sp, sp, #8
p101
sg5
L713336L
sg6
Nsg23
S'ADD'
p102
sg25
S'0xae278L'
p103
sg27
Nsba(ibclass
BInstr
p104
(dp105
g2
Nsg17
S'LDMFD   SP!, {alg,LR}'
p106
sg19
S'1040bde8'
p107
sg21
Vpop {r4, lr}
p108
sg5
L713340L
sg6
Nsg23
S'LDM'
p109
sg25
S'0xae27cL'
p110
sg27
Nsba(ibclass
BInstr
p111
(dp112
g2
Nsg17
S'BX      LR'
p113
sg19
S'1eff2fe1'
p114
sg21
Vbx lr
p115
sg5
L713344L
sg6
Nsg23
S'BX'
p116
sg25
S'0xae280L'
p117
sg27
Nsbasg49
(lp118
S'ADD SP, SP, #8'
p119
aS'LDMFD SP!, {regg,LR}'
p120
aS'BX LR'
p121
asg55
Nsg5
S'0xae278L'
p122
sg57
(lp123
S'0xae274L'
p124
aS'0xae2a8L'
p125
asg6
Nsg59
(lp126
sg63
Nsg64
Nsg65
S'fb02e3799554a1c259ca4724e19b2b8e'
p127
sg67
S'8d50e7d5ab78ced6327a682d089ad6f4'
p128
sg69
(lp129
g102
ag109
ag116
asg71
Nsba(ibclass
BBasicBlock
p130
(dp131
g12
Nsg13
(lp132
(ibclass
BInstr
p133
(dp134
g2
Nsg17
S'LDR     R0, [alg]       ; a'
p135
sg19
S'000094e5'
p136
sg21
Vldr r0, [r4]
p137
sg5
L713348L
sg6
Nsg23
S'LDR'
p138
sg25
S'0xae284L'
p139
sg27
Nsba(ibclass
BInstr
p140
(dp141
g2
Nsg17
S'BL      OBJ_obj2nid'
p142
sg19
S'4a70feeb'
p143
sg21
Vbl #0xfff9c130
p144
sg5
L713352L
sg6
Nsg23
S'BL'
p145
sg25
S'0xae288L'
p146
sg27
Nsba(ibclass
BInstr
p147
(dp148
g2
Nsg17
S'LDR     R3, =0x38F'
p149
sg19
S'34309fe5'
p150
sg21
Vldr r3, [pc, #0x34]
p151
sg5
L713356L
sg6
Nsg23
S'LDR'
p152
sg25
S'0xae28cL'
p153
sg27
Nsba(ibclass
BInstr
p154
(dp155
g2
Nsg17
S'CMP     R0, R3'
p156
sg19
S'030050e1'
p157
sg21
Vcmp r0, r3
p158
sg5
L713360L
sg6
Nsg23
S'CMP'
p159
sg25
S'0xae290L'
p160
sg27
Nsba(ibclass
BInstr
p161
(dp162
g2
Nsg17
S'BNE     loc_AE274'
p163
sg19
S'f6ffff1a'
p164
sg21
Vbne #0xffffffe0
p165
sg5
L713364L
sg6
Nsg23
g47
sg25
S'0xae294L'
p166
sg27
Nsbasg49
(lp167
S'LDR R0, mem'
p168
aS'BL OBJ_obj2nid'
p169
aS'LDR R3, =0x38F'
p170
aS'CMP R0, R3'
p171
aS'BNE func'
p172
asg55
Nsg5
S'0xae284L'
p173
sg57
(lp174
S'0xae264L'
p175
asg6
Nsg59
(lp176
S'0xae274L'
p177
aS'0xae298L'
p178
asg63
Nsg64
Nsg65
S'e9f989e529ba747da06e8b6a298c2b97'
p179
sg67
S'564b6947b8c90845fd65f307bb774efd'
p180
sg69
(lp181
g138
ag145
ag152
ag159
ag47
asg71
Nsba(ibclass
BBasicBlock
p182
(dp183
g12
Nsg13
(lp184
(ibclass
BInstr
p185
(dp186
g2
Nsg17
S'LDR     R3, [alg,#4]'
p187
sg19
S'043094e5'
p188
sg21
Vldr r3, [r4, #4]
p189
sg5
L713368L
sg6
Nsg23
S'LDR'
p190
sg25
S'0xae298L'
p191
sg27
Nsba(ibclass
BInstr
p192
(dp193
g2
Nsg17
S'LDR     R2, [R3]'
p194
sg19
S'002093e5'
p195
sg21
Vldr r2, [r3]
p196
sg5
L713372L
sg6
Nsg23
S'LDR'
p197
sg25
S'0xae29cL'
p198
sg27
Nsba(ibclass
BInstr
p199
(dp200
g2
Nsg17
S'CMP     R2, #0x10'
p201
sg19
S'100052e3'
p202
sg21
Vcmp r2, #0x10
p203
sg5
L713376L
sg6
Nsg23
S'CMP'
p204
sg25
S'0xae2a0L'
p205
sg27
Nsba(ibclass
BInstr
p206
(dp207
g2
Nsg17
S'BNE     loc_AE274'
p208
sg19
S'f2ffff1a'
p209
sg21
Vbne #0xffffffd0
p210
sg5
L713380L
sg6
Nsg23
g47
sg25
S'0xae2a4L'
p211
sg27
Nsbasg49
(lp212
S'LDR R3, mem'
p213
aS'LDR R2, mem'
p214
aS'CMP R2, #0x10'
p215
aS'BNE func'
p216
asg55
Nsg5
S'0xae298L'
p217
sg57
(lp218
S'0xae284L'
p219
asg6
Nsg59
(lp220
S'0xae274L'
p221
aS'0xae2a8L'
p222
asg63
Nsg64
Nsg65
S'd9812e74326a7ebe01ae9e2a00bbb5ee'
p223
sg67
S'165f85af73c63c8a8eca9b4da7f7c73e'
p224
sg69
(lp225
g190
ag197
ag204
ag47
asg71
Nsba(ibclass
BBasicBlock
p226
(dp227
g12
Nsg13
(lp228
(ibclass
BInstr
p229
(dp230
g2
Nsg17
S'LDR     R2, [R3,#4]'
p231
sg19
S'042093e5'
p232
sg21
Vldr r2, [r3, #4]
p233
sg5
L713384L
sg6
Nsg23
S'LDR'
p234
sg25
S'0xae2a8L'
p235
sg27
Nsba(ibclass
BInstr
p236
(dp237
g2
Nsg17
S'ADD     R1, SP, #0x10+var_8'
p238
sg19
S'08108de2'
p239
sg21
Vadd r1, sp, #8
p240
sg5
L713388L
sg6
Nsg23
S'ADD'
p241
sg25
S'0xae2acL'
p242
sg27
Nsba(ibclass
BInstr
p243
(dp244
g2
Nsg17
S'LDR     R3, [R2,#8]'
p245
sg19
S'083092e5'
p246
sg21
Vldr r3, [r2, #8]
p247
sg5
L713392L
sg6
Nsg23
S'LDR'
p248
sg25
S'0xae2b0L'
p249
sg27
Nsba(ibclass
BInstr
p250
(dp251
g2
Nsg17
S'MOV     R0, #0          ; a'
p252
sg19
S'0000a0e3'
p253
sg21
Vmov r0, #0
p254
sg5
L713396L
sg6
Nsg23
S'MOV'
p255
sg25
S'0xae2b4L'
p256
sg27
Nsba(ibclass
BInstr
p257
(dp258
g2
Nsg17
S'LDR     R2, [R2]        ; len'
p259
sg19
S'002092e5'
p260
sg21
Vldr r2, [r2]
p261
sg5
L713400L
sg6
Nsg23
S'LDR'
p262
sg25
S'0xae2b8L'
p263
sg27
Nsba(ibclass
BInstr
p264
(dp265
g2
Nsg17
S'STR     R3, [R1,#-4]!'
p266
sg19
S'043021e5'
p267
sg21
Vstr r3, [r1, #-4]!
p268
sg5
L713404L
sg6
Nsg23
S'STR'
p269
sg25
S'0xae2bcL'
p270
sg27
Nsba(ibclass
BInstr
p271
(dp272
g2
Nsg17
S'BL      d2i_X509_ALGOR'
p273
sg19
S'18e400eb'
p274
sg21
Vbl #0x39068
p275
sg5
L713408L
sg6
Nsg23
S'BL'
p276
sg25
S'0xae2c0L'
p277
sg27
Nsba(ibclass
BInstr
p278
(dp279
g2
Nsg17
S'B       loc_AE278'
p280
sg19
S'ebffffea'
p281
sg21
Vb #0xffffffb4
p282
sg5
L713412L
sg6
Nsg23
g47
sg25
S'0xae2c4L'
p283
sg27
Nsbasg49
(lp284
S'LDR R2, mem'
p285
aS'ADD R1, SP, #0x10+var_8'
p286
aS'LDR R3, mem'
p287
aS'MOV R0, #0'
p288
aS'LDR R2, mem'
p289
aS'STR R3, mem!'
p290
aS'BL d2i_X509_ALGOR'
p291
aS'B func'
p292
asg55
Nsg5
S'0xae2a8L'
p293
sg57
(lp294
S'0xae298L'
p295
asg6
Nsg59
(lp296
S'0xae278L'
p297
asg63
Nsg64
Nsg65
S'8e90a23868a9c1947b1b982b9d9464b7'
p298
sg67
S'0d807e86df5bf0e9ae6379cdd964d0d3'
p299
sg69
(lp300
g234
ag241
ag248
ag255
ag262
ag269
ag276
ag47
asg71
Nsbasb.