(ibclass
BFunc
p0
(dp1
S'hash'
p2
NsS'name'
p3
S'tls_decrypt_ticket'
p4
sS'start_address'
p5
L184740L
sS'flag'
p6
NsS'program'
p7
NsS'bbs'
p8
(lp9
(ibclass
BBasicBlock
p10
(dp11
S'function'
p12
NsS'binstrs'
p13
(lp14
(ibclass
BInstr
p15
(dp16
g2
NsS'disasm'
p17
S'STMFD   SP!, {R4-R11,LR}'
p18
sS'bytes'
p19
S'f04f2de9'
p20
sS'disasm_striped'
p21
Vpush {r4, r5, r6, r7, r8, sb, sl, fp, lr}
p22
sg5
L184740L
sg6
NsS'mnem'
p23
S'STM'
p24
sS'address'
p25
S'0x2d1a4L'
p26
sS'basicblock'
p27
Nsba(ibclass
BInstr
p28
(dp29
g2
Nsg17
S'LDR     R4, =($_GLOBAL_OFFSET_TABLE_ - 0x2D1B8)'
p30
sg19
S'7c429fe5'
p31
sg21
Vldr r4, [pc, #0x27c]
p32
sg5
L184744L
sg6
Nsg23
S'LDR'
p33
sg25
S'0x2d1a8L'
p34
sg27
Nsba(ibclass
BInstr
p35
(dp36
g2
Nsg17
S'CMP     eticklen, #0x2F'
p37
sg19
S'2f0052e3'
p38
sg21
Vcmp r2, #0x2f
p39
sg5
L184748L
sg6
Nsg23
S'CMP'
p40
sg25
S'0x2d1acL'
p41
sg27
Nsba(ibclass
BInstr
p42
(dp43
g2
Nsg17
S'ADD     R4, PC, R4 ; $_GLOBAL_OFFSET_TABLE_'
p44
sg19
S'04408fe0'
p45
sg21
Vadd r4, pc, r4
p46
sg5
L184752L
sg6
Nsg23
S'ADD'
p47
sg25
S'0x2d1b0L'
p48
sg27
Nsba(ibclass
BInstr
p49
(dp50
g2
Nsg17
S'SUB     SP, SP, #0x1B4'
p51
sg19
S'6ddf4de2'
p52
sg21
Vsub sp, sp, #0x1b4
p53
sg5
L184756L
sg6
Nsg23
S'SUB'
p54
sg25
S'0x2d1b4L'
p55
sg27
Nsba(ibclass
BInstr
p56
(dp57
g2
Nsg17
S'MOV     R5, eticklen'
p58
sg19
S'0250a0e1'
p59
sg21
Vmov r5, r2
p60
sg5
L184760L
sg6
Nsg23
S'MOV'
p61
sg25
S'0x2d1b8L'
p62
sg27
Nsba(ibclass
BInstr
p63
(dp64
g2
Nsg17
S'MOV     R10, s'
p65
sg19
S'00a0a0e1'
p66
sg21
Vmov sl, r0
p67
sg5
L184764L
sg6
Nsg23
S'MOV'
p68
sg25
S'0x2d1bcL'
p69
sg27
Nsba(ibclass
BInstr
p70
(dp71
g2
Nsg17
S'MOV     R7, etick'
p72
sg19
S'0170a0e1'
p73
sg21
Vmov r7, r1
p74
sg5
L184768L
sg6
Nsg23
S'MOV'
p75
sg25
S'0x2d1c0L'
p76
sg27
Nsba(ibclass
BInstr
p77
(dp78
g2
Nsg17
S'MOV     R11, sess_id'
p79
sg19
S'03b0a0e1'
p80
sg21
Vmov fp, r3
p81
sg5
L184772L
sg6
Nsg23
S'MOV'
p82
sg25
S'0x2d1c4L'
p83
sg27
Nsba(ibclass
BInstr
p84
(dp85
g2
Nsg17
S'LDR     R6, [s,#0x170]'
p86
sg19
S'706190e5'
p87
sg21
Vldr r6, [r0, #0x170]
p88
sg5
L184776L
sg6
Nsg23
S'LDR'
p89
sg25
S'0x2d1c8L'
p90
sg27
Nsba(ibclass
BInstr
p91
(dp92
g2
Nsg17
S'BGT     loc_2D1E0'
p93
sg19
S'030000ca'
p94
sg21
Vbgt #0x14
p95
sg5
L184780L
sg6
Nsg23
S'B'
p96
sg25
S'0x2d1ccL'
p97
sg27
NsbasS'disasm_list'
p98
(lp99
S'STMFD SP!, {R4-R11,LR}'
p100
aS'LDR R4, =($_GLOBAL_OFFSET_TABLE_ - 0x2D1B8)'
p101
aS'CMP eticklen, #0x2F'
p102
aS'ADD R4, PC, R4'
p103
aS'SUB SP, SP, #0x1B4'
p104
aS'MOV R5, eticklen'
p105
aS'MOV R10, s'
p106
aS'MOV R7, etick'
p107
aS'MOV R11, sess_id'
p108
aS'LDR R6, mem'
p109
aS'BGT func'
p110
asS'end_address'
p111
Nsg5
S'0x2d1a4L'
p112
sS'preds'
p113
(lp114
sg6
NsS'succs'
p115
(lp116
S'0x2d1d0L'
p117
aS'0x2d1e0L'
p118
asS'hash_v3'
p119
NsS'flag_v2'
p120
NsS'hash_v1'
p121
S'6be4608eb49e9427cda39a857cdc6e25'
p122
sS'hash_v2'
p123
S'72442cda07dfe1b3bd55acc506ee2a93'
p124
sS'mnen_list'
p125
(lp126
g24
ag33
ag40
ag47
ag54
ag61
ag68
ag75
ag82
ag89
ag96
asS'neighbour_disasm_list'
p127
Nsba(ibclass
BBasicBlock
p128
(dp129
g12
Nsg13
(lp130
(ibclass
BInstr
p131
(dp132
g2
Nsg17
S'MOV     rv, #2'
p133
sg19
S'0200a0e3'
p134
sg21
Vmov r0, #2
p135
sg5
L184784L
sg6
Nsg23
S'MOV'
p136
sg25
S'0x2d1d0L'
p137
sg27
Nsbasg98
(lp138
S'MOV rv, #2'
p139
asg111
Nsg5
S'0x2d1d0L'
p140
sg113
(lp141
S'0x2d1a4L'
p142
aS'0x2d204L'
p143
aS'0x2d3f8L'
p144
asg6
Nsg115
(lp145
S'0x2d1d4L'
p146
asg119
Nsg120
Nsg121
S'17b32100aef1fc19670be7fd58bc85df'
p147
sg123
S'4c5b3b98e96aad6c2353bd8a6c28dc4c'
p148
sg125
(lp149
g136
asg127
Nsba(ibclass
BBasicBlock
p150
(dp151
g12
Nsg13
(lp152
(ibclass
BInstr
p153
(dp154
g2
Nsg17
S'ADD     SP, SP, #0x1B4'
p155
sg19
S'6ddf8de2'
p156
sg21
Vadd sp, sp, #0x1b4
p157
sg5
L184788L
sg6
Nsg23
S'ADD'
p158
sg25
S'0x2d1d4L'
p159
sg27
Nsba(ibclass
BInstr
p160
(dp161
g2
Nsg17
S'LDMFD   SP!, {R4-sess_id,LR}'
p162
sg19
S'f04fbde8'
p163
sg21
Vpop {r4, r5, r6, r7, r8, sb, sl, fp, lr}
p164
sg5
L184792L
sg6
Nsg23
S'LDM'
p165
sg25
S'0x2d1d8L'
p166
sg27
Nsba(ibclass
BInstr
p167
(dp168
g2
Nsg17
S'BX      LR'
p169
sg19
S'1eff2fe1'
p170
sg21
Vbx lr
p171
sg5
L184796L
sg6
Nsg23
S'BX'
p172
sg25
S'0x2d1dcL'
p173
sg27
Nsbasg98
(lp174
S'ADD SP, SP, #0x1B4'
p175
aS'LDMFD SP!, {R4-sess_id,LR}'
p176
aS'BX LR'
p177
asg111
Nsg5
S'0x2d1d4L'
p178
sg113
(lp179
S'0x2d1d0L'
p180
aS'0x2d2b4L'
p181
aS'0x2d384L'
p182
aS'0x2d3acL'
p183
aS'0x2d3b4L'
p184
aS'0x2d420L'
p185
asg6
Nsg115
(lp186
sg119
Nsg120
Nsg121
S'fb02e3799554a1c259ca4724e19b2b8e'
p187
sg123
S'fe7adf79262c2a0b9d10b2aa35edf672'
p188
sg125
(lp189
g158
ag165
ag172
asg127
Nsba(ibclass
BBasicBlock
p190
(dp191
g12
Nsg13
(lp192
(ibclass
BInstr
p193
(dp194
g2
Nsg17
S'ADD     R8, SP, #0x1D8+hctx'
p195
sg19
S'08808de2'
p196
sg21
Vadd r8, sp, #8
p197
sg5
L184800L
sg6
Nsg23
S'ADD'
p198
sg25
S'0x2d1e0L'
p199
sg27
Nsba(ibclass
BInstr
p200
(dp201
g2
Nsg17
S'MOV     s, R8'
p202
sg19
S'0800a0e1'
p203
sg21
Vmov r0, r8
p204
sg5
L184804L
sg6
Nsg23
S'MOV'
p205
sg25
S'0x2d1e4L'
p206
sg27
Nsba(ibclass
BInstr
p207
(dp208
g2
Nsg17
S'ADD     R9, SP, #0x1D8+ctx'
p209
sg19
S'd8908de2'
p210
sg21
Vadd sb, sp, #0xd8
p211
sg5
L184808L
sg6
Nsg23
S'ADD'
p212
sg25
S'0x2d1e8L'
p213
sg27
Nsba(ibclass
BInstr
p214
(dp215
g2
Nsg17
S'BL      HMAC_CTX_init'
p216
sg19
S'a38cffeb'
p217
sg21
Vbl #0xfffe3294
p218
sg5
L184812L
sg6
Nsg23
S'BL'
p219
sg25
S'0x2d1ecL'
p220
sg27
Nsba(ibclass
BInstr
p221
(dp222
g2
Nsg17
S'MOV     R0, R9'
p223
sg19
S'0900a0e1'
p224
sg21
Vmov r0, sb
p225
sg5
L184816L
sg6
Nsg23
S'MOV'
p226
sg25
S'0x2d1f0L'
p227
sg27
Nsba(ibclass
BInstr
p228
(dp229
g2
Nsg17
S'BL      EVP_CIPHER_CTX_init'
p230
sg19
S'c88cffeb'
p231
sg21
Vbl #0xfffe3328
p232
sg5
L184820L
sg6
Nsg23
S'BL'
p233
sg25
S'0x2d1f4L'
p234
sg27
Nsba(ibclass
BInstr
p235
(dp236
g2
Nsg17
S'LDR     R12, [tctx,#0x138]'
p237
sg19
S'38c196e5'
p238
sg21
Vldr ip, [r6, #0x138]
p239
sg5
L184824L
sg6
Nsg23
S'LDR'
p240
sg25
S'0x2d1f8L'
p241
sg27
Nsba(ibclass
BInstr
p242
(dp243
g2
Nsg17
S'CMP     R12, #0'
p244
sg19
S'00005ce3'
p245
sg21
Vcmp ip, #0
p246
sg5
L184828L
sg6
Nsg23
S'CMP'
p247
sg25
S'0x2d1fcL'
p248
sg27
Nsba(ibclass
BInstr
p249
(dp250
g2
Nsg17
S'BNE     loc_2D3CC'
p251
sg19
S'7100001a'
p252
sg21
Vbne #0x1cc
p253
sg5
L184832L
sg6
Nsg23
g96
sg25
S'0x2d200L'
p254
sg27
Nsbasg98
(lp255
S'ADD R8, SP, #0x1D8+hctx'
p256
aS'MOV s, R8'
p257
aS'ADD R9, SP, #0x1D8+ctx'
p258
aS'BL HMAC_CTX_init'
p259
aS'MOV R0, R9'
p260
aS'BL EVP_CIPHER_CTX_init'
p261
aS'LDR R12, mem'
p262
aS'CMP R12, #0'
p263
aS'BNE func'
p264
asg111
Nsg5
S'0x2d1e0L'
p265
sg113
(lp266
S'0x2d1a4L'
p267
asg6
Nsg115
(lp268
S'0x2d204L'
p269
aS'0x2d3ccL'
p270
asg119
Nsg120
Nsg121
S'5d6e305c57135b4cd777f0f845c5cdcb'
p271
sg123
S'a8921560e865fbc6a6f9bba23d9fbd8f'
p272
sg125
(lp273
g198
ag205
ag212
ag219
ag226
ag233
ag240
ag247
ag96
asg127
Nsba(ibclass
BBasicBlock
p274
(dp275
g12
Nsg13
(lp276
(ibclass
BInstr
p277
(dp278
g2
Nsg17
S'MOV     R0, etick       ; s1'
p279
sg19
S'0700a0e1'
p280
sg21
Vmov r0, r7
p281
sg5
L184836L
sg6
Nsg23
S'MOV'
p282
sg25
S'0x2d204L'
p283
sg27
Nsba(ibclass
BInstr
p284
(dp285
g2
Nsg17
S'ADD     R1, tctx, #0x108; s2'
p286
sg19
S'421f86e2'
p287
sg21
Vadd r1, r6, #0x108
p288
sg5
L184840L
sg6
Nsg23
S'ADD'
p289
sg25
S'0x2d208L'
p290
sg27
Nsba(ibclass
BInstr
p291
(dp292
g2
Nsg17
S'MOV     R2, #0x10       ; n'
p293
sg19
S'1020a0e3'
p294
sg21
Vmov r2, #0x10
p295
sg5
L184844L
sg6
Nsg23
S'MOV'
p296
sg25
S'0x2d20cL'
p297
sg27
Nsba(ibclass
BInstr
p298
(dp299
g2
Nsg17
S'BL      memcmp'
p300
sg19
S'828cffeb'
p301
sg21
Vbl #0xfffe3210
p302
sg5
L184848L
sg6
Nsg23
S'BL'
p303
sg25
S'0x2d210L'
p304
sg27
Nsba(ibclass
BInstr
p305
(dp306
g2
Nsg17
S'SUBS    s, R0, #0'
p307
sg19
S'00a050e2'
p308
sg21
Vsubs sl, r0, #0
p309
sg5
L184852L
sg6
Nsg23
S'SUB'
p310
sg25
S'0x2d214L'
p311
sg27
Nsba(ibclass
BInstr
p312
(dp313
g2
Nsg17
S'BNE     loc_2D1D0'
p314
sg19
S'ecffff1a'
p315
sg21
Vbne #0xffffffb8
p316
sg5
L184856L
sg6
Nsg23
g96
sg25
S'0x2d218L'
p317
sg27
Nsbasg98
(lp318
S'MOV R0, etick'
p319
aS'ADD R1, tctx, #0x108'
p320
aS'MOV R2, #0x10'
p321
aS'BL memcmp'
p322
aS'SUBS s, R0, #0'
p323
aS'BNE func'
p324
asg111
Nsg5
S'0x2d204L'
p325
sg113
(lp326
S'0x2d1e0L'
p327
asg6
Nsg115
(lp328
S'0x2d1d0L'
p329
aS'0x2d21cL'
p330
asg119
Nsg120
Nsg121
S'28f08877bc73241c6e7c016b0b86dd35'
p331
sg123
S'c7e2286d2a860e860fce284364f07166'
p332
sg125
(lp333
g282
ag289
ag296
ag303
ag310
ag96
asg127
Nsba(ibclass
BBasicBlock
p334
(dp335
g12
Nsg13
(lp336
(ibclass
BInstr
p337
(dp338
g2
Nsg17
S'BL      EVP_sha256'
p339
sg19
S'e88cffeb'
p340
sg21
Vbl #0xfffe33a8
p341
sg5
L184860L
sg6
Nsg23
S'BL'
p342
sg25
S'0x2d21cL'
p343
sg27
Nsba(ibclass
BInstr
p344
(dp345
g2
Nsg17
S'ADD     R1, tctx, #0x118'
p346
sg19
S'461f86e2'
p347
sg21
Vadd r1, r6, #0x118
p348
sg5
L184864L
sg6
Nsg23
S'ADD'
p349
sg25
S'0x2d220L'
p350
sg27
Nsba(ibclass
BInstr
p351
(dp352
g2
Nsg17
S'MOV     R3, R0'
p353
sg19
S'0030a0e1'
p354
sg21
Vmov r3, r0
p355
sg5
L184868L
sg6
Nsg23
S'MOV'
p356
sg25
S'0x2d224L'
p357
sg27
Nsba(ibclass
BInstr
p358
(dp359
g2
Nsg17
S'MOV     R2, #0x10'
p360
sg19
S'1020a0e3'
p361
sg21
Vmov r2, #0x10
p362
sg5
L184872L
sg6
Nsg23
S'MOV'
p363
sg25
S'0x2d228L'
p364
sg27
Nsba(ibclass
BInstr
p365
(dp366
g2
Nsg17
S'MOV     R0, R8'
p367
sg19
S'0800a0e1'
p368
sg21
Vmov r0, r8
p369
sg5
L184876L
sg6
Nsg23
S'MOV'
p370
sg25
S'0x2d22cL'
p371
sg27
Nsba(ibclass
BInstr
p372
(dp373
g2
Nsg17
S'STR     R10, [SP,#0x1D8+var_1D8]'
p374
sg19
S'00a08de5'
p375
sg21
Vstr sl, [sp]
p376
sg5
L184880L
sg6
Nsg23
S'STR'
p377
sg25
S'0x2d230L'
p378
sg27
Nsba(ibclass
BInstr
p379
(dp380
g2
Nsg17
S'BL      HMAC_Init_ex'
p381
sg19
S'118effeb'
p382
sg21
Vbl #0xfffe384c
p383
sg5
L184884L
sg6
Nsg23
S'BL'
p384
sg25
S'0x2d234L'
p385
sg27
Nsba(ibclass
BInstr
p386
(dp387
g2
Nsg17
S'BL      EVP_aes_128_cbc'
p388
sg19
S'2690ffeb'
p389
sg21
Vbl #0xfffe40a0
p390
sg5
L184888L
sg6
Nsg23
S'BL'
p391
sg25
S'0x2d238L'
p392
sg27
Nsba(ibclass
BInstr
p393
(dp394
g2
Nsg17
S'ADD     R12, etick, #0x10'
p395
sg19
S'10c087e2'
p396
sg21
Vadd ip, r7, #0x10
p397
sg5
L184892L
sg6
Nsg23
S'ADD'
p398
sg25
S'0x2d23cL'
p399
sg27
Nsba(ibclass
BInstr
p400
(dp401
g2
Nsg17
S'MOV     R1, R0'
p402
sg19
S'0010a0e1'
p403
sg21
Vmov r1, r0
p404
sg5
L184896L
sg6
Nsg23
S'MOV'
p405
sg25
S'0x2d240L'
p406
sg27
Nsba(ibclass
BInstr
p407
(dp408
g2
Nsg17
S'ADD     R3, tctx, #0x128'
p409
sg19
S'4a3f86e2'
p410
sg21
Vadd r3, r6, #0x128
p411
sg5
L184900L
sg6
Nsg23
S'ADD'
p412
sg25
S'0x2d244L'
p413
sg27
Nsba(ibclass
BInstr
p414
(dp415
g2
Nsg17
S'MOV     R0, R9'
p416
sg19
S'0900a0e1'
p417
sg21
Vmov r0, sb
p418
sg5
L184904L
sg6
Nsg23
S'MOV'
p419
sg25
S'0x2d248L'
p420
sg27
Nsba(ibclass
BInstr
p421
(dp422
g2
Nsg17
S'MOV     R2, R10'
p423
sg19
S'0a20a0e1'
p424
sg21
Vmov r2, sl
p425
sg5
L184908L
sg6
Nsg23
S'MOV'
p426
sg25
S'0x2d24cL'
p427
sg27
Nsba(ibclass
BInstr
p428
(dp429
g2
Nsg17
S'STR     R12, [SP,#0x1D8+var_1D8]'
p430
sg19
S'00c08de5'
p431
sg21
Vstr ip, [sp]
p432
sg5
L184912L
sg6
Nsg23
S'STR'
p433
sg25
S'0x2d250L'
p434
sg27
Nsba(ibclass
BInstr
p435
(dp436
g2
Nsg17
S'BL      EVP_DecryptInit_ex'
p437
sg19
S'9c8effeb'
p438
sg21
Vbl #0xfffe3a78
p439
sg5
L184916L
sg6
Nsg23
S'BL'
p440
sg25
S'0x2d254L'
p441
sg27
Nsbasg98
(lp442
S'BL EVP_sha256'
p443
aS'ADD R1, tctx, #0x118'
p444
aS'MOV R3, R0'
p445
aS'MOV R2, #0x10'
p446
aS'MOV R0, R8'
p447
aS'STR R10, mem'
p448
aS'BL HMAC_Init_ex'
p449
aS'BL EVP_aes_128_cbc'
p450
aS'ADD R12, etick, #0x10'
p451
aS'MOV R1, R0'
p452
aS'ADD R3, tctx, #0x128'
p453
aS'MOV R0, R9'
p454
aS'MOV R2, R10'
p455
aS'STR R12, mem'
p456
aS'BL EVP_DecryptInit_ex'
p457
asg111
Nsg5
S'0x2d21cL'
p458
sg113
(lp459
S'0x2d204L'
p460
asg6
Nsg115
(lp461
S'0x2d258L'
p462
asg119
Nsg120
Nsg121
S'fda53099be4a25583ac4cebe2d399361'
p463
sg123
S'1da7ad403cf2f8a2044918addd42b0b1'
p464
sg125
(lp465
g342
ag349
ag356
ag363
ag370
ag377
ag384
ag391
ag398
ag405
ag412
ag419
ag426
ag433
ag440
asg127
Nsba(ibclass
BBasicBlock
p466
(dp467
g12
Nsg13
(lp468
(ibclass
BInstr
p469
(dp470
g2
Nsg17
S'LDR     rv, [SP,#0x1D8+hctx]'
p471
sg19
S'08009de5'
p472
sg21
Vldr r0, [sp, #8]
p473
sg5
L184920L
sg6
Nsg23
S'LDR'
p474
sg25
S'0x2d258L'
p475
sg27
Nsba(ibclass
BInstr
p476
(dp477
g2
Nsg17
S'BL      EVP_MD_size'
p478
sg19
S'8990ffeb'
p479
sg21
Vbl #0xfffe422c
p480
sg5
L184924L
sg6
Nsg23
S'BL'
p481
sg25
S'0x2d25cL'
p482
sg27
Nsba(ibclass
BInstr
p483
(dp484
g2
Nsg17
S'CMP     R0, #0'
p485
sg19
S'000050e3'
p486
sg21
Vcmp r0, #0
p487
sg5
L184928L
sg6
Nsg23
S'CMP'
p488
sg25
S'0x2d260L'
p489
sg27
Nsba(ibclass
BInstr
p490
(dp491
g2
Nsg17
S'STR     mlen_0, [SP,#0x1D8+p]'
p492
sg19
S'a4018de5'
p493
sg21
Vstr r0, [sp, #0x1a4]
p494
sg5
L184932L
sg6
Nsg23
S'STR'
p495
sg25
S'0x2d264L'
p496
sg27
Nsba(ibclass
BInstr
p497
(dp498
g2
Nsg17
S'BLT     loc_2D3A4'
p499
sg19
S'4d0000ba'
p500
sg21
Vblt #0x13c
p501
sg5
L184936L
sg6
Nsg23
g96
sg25
S'0x2d268L'
p502
sg27
Nsbasg98
(lp503
S'LDR rv, mem'
p504
aS'BL EVP_MD_regze'
p505
aS'CMP R0, #0'
p506
aS'STR mlen_0, mem'
p507
aS'BLT func'
p508
asg111
Nsg5
S'0x2d258L'
p509
sg113
(lp510
S'0x2d21cL'
p511
aS'0x2d3fcL'
p512
asg6
Nsg115
(lp513
S'0x2d26cL'
p514
aS'0x2d3a4L'
p515
asg119
Nsg120
Nsg121
S'ef9c39344d6c7468b4e899380ffbb9db'
p516
sg123
S'1a5b2f698f0b88be8fd4516786f403ad'
p517
sg125
(lp518
g474
ag481
ag488
ag495
ag96
asg127
Nsba(ibclass
BBasicBlock
p519
(dp520
g12
Nsg13
(lp521
(ibclass
BInstr
p522
(dp523
g2
Nsg17
S'RSB     tctx, R0, eticklen'
p524
sg19
S'056060e0'
p525
sg21
Vrsb r6, r0, r5
p526
sg5
L184940L
sg6
Nsg23
S'RSB'
p527
sg25
S'0x2d26cL'
p528
sg27
Nsba(ibclass
BInstr
p529
(dp530
g2
Nsg17
S'MOV     R1, etick'
p531
sg19
S'0710a0e1'
p532
sg21
Vmov r1, r7
p533
sg5
L184944L
sg6
Nsg23
S'MOV'
p534
sg25
S'0x2d270L'
p535
sg27
Nsba(ibclass
BInstr
p536
(dp537
g2
Nsg17
S'MOV     R2, eticklen'
p538
sg19
S'0620a0e1'
p539
sg21
Vmov r2, r6
p540
sg5
L184948L
sg6
Nsg23
S'MOV'
p541
sg25
S'0x2d274L'
p542
sg27
Nsba(ibclass
BInstr
p543
(dp544
g2
Nsg17
S'ADD     R5, SP, #0x1D8+var_74'
p545
sg19
S'595f8de2'
p546
sg21
Vadd r5, sp, #0x164
p547
sg5
L184952L
sg6
Nsg23
S'ADD'
p548
sg25
S'0x2d278L'
p549
sg27
Nsba(ibclass
BInstr
p550
(dp551
g2
Nsg17
S'MOV     R0, R8'
p552
sg19
S'0800a0e1'
p553
sg21
Vmov r0, r8
p554
sg5
L184956L
sg6
Nsg23
S'MOV'
p555
sg25
S'0x2d27cL'
p556
sg27
Nsba(ibclass
BInstr
p557
(dp558
g2
Nsg17
S'BL      HMAC_Update'
p559
sg19
S'fc8cffeb'
p560
sg21
Vbl #0xfffe33f8
p561
sg5
L184960L
sg6
Nsg23
S'BL'
p562
sg25
S'0x2d280L'
p563
sg27
Nsba(ibclass
BInstr
p564
(dp565
g2
Nsg17
S'MOV     R1, R5'
p566
sg19
S'0510a0e1'
p567
sg21
Vmov r1, r5
p568
sg5
L184964L
sg6
Nsg23
S'MOV'
p569
sg25
S'0x2d284L'
p570
sg27
Nsba(ibclass
BInstr
p571
(dp572
g2
Nsg17
S'MOV     R2, #0'
p573
sg19
S'0020a0e3'
p574
sg21
Vmov r2, #0
p575
sg5
L184968L
sg6
Nsg23
S'MOV'
p576
sg25
S'0x2d288L'
p577
sg27
Nsba(ibclass
BInstr
p578
(dp579
g2
Nsg17
S'MOV     R0, R8'
p580
sg19
S'0800a0e1'
p581
sg21
Vmov r0, r8
p582
sg5
L184972L
sg6
Nsg23
S'MOV'
p583
sg25
S'0x2d28cL'
p584
sg27
Nsba(ibclass
BInstr
p585
(dp586
g2
Nsg17
S'BL      HMAC_Final'
p587
sg19
S'798dffeb'
p588
sg21
Vbl #0xfffe35ec
p589
sg5
L184976L
sg6
Nsg23
S'BL'
p590
sg25
S'0x2d290L'
p591
sg27
Nsba(ibclass
BInstr
p592
(dp593
g2
Nsg17
S'MOV     R0, R8'
p594
sg19
S'0800a0e1'
p595
sg21
Vmov r0, r8
p596
sg5
L184980L
sg6
Nsg23
S'MOV'
p597
sg25
S'0x2d294L'
p598
sg27
Nsba(ibclass
BInstr
p599
(dp600
g2
Nsg17
S'BL      HMAC_CTX_cleanup'
p601
sg19
S'798effeb'
p602
sg21
Vbl #0xfffe39ec
p603
sg5
L184984L
sg6
Nsg23
S'BL'
p604
sg25
S'0x2d298L'
p605
sg27
Nsba(ibclass
BInstr
p606
(dp607
g2
Nsg17
S'MOV     R0, R5'
p608
sg19
S'0500a0e1'
p609
sg21
Vmov r0, r5
p610
sg5
L184988L
sg6
Nsg23
S'MOV'
p611
sg25
S'0x2d29cL'
p612
sg27
Nsba(ibclass
BInstr
p613
(dp614
g2
Nsg17
S'ADD     R1, etick, eticklen'
p615
sg19
S'061087e0'
p616
sg21
Vadd r1, r7, r6
p617
sg5
L184992L
sg6
Nsg23
S'ADD'
p618
sg25
S'0x2d2a0L'
p619
sg27
Nsba(ibclass
BInstr
p620
(dp621
g2
Nsg17
S'LDR     R2, [SP,#0x1D8+p]'
p622
sg19
S'a4219de5'
p623
sg21
Vldr r2, [sp, #0x1a4]
p624
sg5
L184996L
sg6
Nsg23
S'LDR'
p625
sg25
S'0x2d2a4L'
p626
sg27
Nsba(ibclass
BInstr
p627
(dp628
g2
Nsg17
S'BL      CRYPTO_memcmp'
p629
sg19
S'a08dffeb'
p630
sg21
Vbl #0xfffe3688
p631
sg5
L185000L
sg6
Nsg23
S'BL'
p632
sg25
S'0x2d2a8L'
p633
sg27
Nsba(ibclass
BInstr
p634
(dp635
g2
Nsg17
S'SUBS    R8, R0, #0'
p636
sg19
S'008050e2'
p637
sg21
Vsubs r8, r0, #0
p638
sg5
L185004L
sg6
Nsg23
S'SUB'
p639
sg25
S'0x2d2acL'
p640
sg27
Nsba(ibclass
BInstr
p641
(dp642
g2
Nsg17
S'BEQ     loc_2D2C4'
p643
sg19
S'0300000a'
p644
sg21
Vbeq #0x14
p645
sg5
L185008L
sg6
Nsg23
g96
sg25
S'0x2d2b0L'
p646
sg27
Nsbasg98
(lp647
S'RSB tctx, R0, eticklen'
p648
aS'MOV R1, etick'
p649
aS'MOV R2, eticklen'
p650
aS'ADD R5, SP, #0x1D8+var_74'
p651
aS'MOV R0, R8'
p652
aS'BL HMAC_Update'
p653
aS'MOV R1, R5'
p654
aS'MOV R2, #0'
p655
aS'MOV R0, R8'
p656
aS'BL HMAC_Finreg'
p657
aS'MOV R0, R8'
p658
aS'BL HMAC_CTX_regeanup'
p659
aS'MOV R0, R5'
p660
aS'ADD R1, etick, eticklen'
p661
aS'LDR R2, mem'
p662
aS'BL CRYPTO_memcmp'
p663
aS'SUBS R8, R0, #0'
p664
aS'BEQ func'
p665
asg111
Nsg5
S'0x2d26cL'
p666
sg113
(lp667
S'0x2d258L'
p668
asg6
Nsg115
(lp669
S'0x2d2b4L'
p670
aS'0x2d2c4L'
p671
asg119
Nsg120
Nsg121
S'45e395526037f2ab88c60c562b5a6c40'
p672
sg123
S'd7e0ede4a099fcbd6e5d431934efb4de'
p673
sg125
(lp674
g527
ag534
ag541
ag548
ag555
ag562
ag569
ag576
ag583
ag590
ag597
ag604
ag611
ag618
ag625
ag632
ag639
ag96
asg127
Nsba(ibclass
BBasicBlock
p675
(dp676
g12
Nsg13
(lp677
(ibclass
BInstr
p678
(dp679
g2
Nsg17
S'MOV     R0, R9'
p680
sg19
S'0900a0e1'
p681
sg21
Vmov r0, sb
p682
sg5
L185012L
sg6
Nsg23
S'MOV'
p683
sg25
S'0x2d2b4L'
p684
sg27
Nsba(ibclass
BInstr
p685
(dp686
g2
Nsg17
S'BL      EVP_CIPHER_CTX_cleanup'
p687
sg19
S'2f8effeb'
p688
sg21
Vbl #0xfffe38c4
p689
sg5
L185016L
sg6
Nsg23
S'BL'
p690
sg25
S'0x2d2b8L'
p691
sg27
Nsba(ibclass
BInstr
p692
(dp693
g2
Nsg17
S'MOV     R0, #2'
p694
sg19
S'0200a0e3'
p695
sg21
Vmov r0, #2
p696
sg5
L185020L
sg6
Nsg23
S'MOV'
p697
sg25
S'0x2d2bcL'
p698
sg27
Nsba(ibclass
BInstr
p699
(dp700
g2
Nsg17
S'B       loc_2D1D4'
p701
sg19
S'c3ffffea'
p702
sg21
Vb #0xffffff14
p703
sg5
L185024L
sg6
Nsg23
g96
sg25
S'0x2d2c0L'
p704
sg27
Nsbasg98
(lp705
S'MOV R0, R9'
p706
aS'BL EVP_CIPHER_CTX_regeanup'
p707
aS'MOV R0, #2'
p708
aS'B func'
p709
asg111
Nsg5
S'0x2d2b4L'
p710
sg113
(lp711
S'0x2d26cL'
p712
asg6
Nsg115
(lp713
S'0x2d1d4L'
p714
asg119
Nsg120
Nsg121
S'cd23e0eb2129bcc2960febbe800808ae'
p715
sg123
S'7389d2a2bba73cad6cb0c51158db2060'
p716
sg125
(lp717
g683
ag690
ag697
ag96
asg127
Nsba(ibclass
BBasicBlock
p718
(dp719
g12
Nsg13
(lp720
(ibclass
BInstr
p721
(dp722
g2
Nsg17
S'MOV     R0, R9'
p723
sg19
S'0900a0e1'
p724
sg21
Vmov r0, sb
p725
sg5
L185028L
sg6
Nsg23
S'MOV'
p726
sg25
S'0x2d2c4L'
p727
sg27
Nsba(ibclass
BInstr
p728
(dp729
g2
Nsg17
S'BL      EVP_CIPHER_CTX_iv_length'
p730
sg19
S'788cffeb'
p731
sg21
Vbl #0xfffe31e8
p732
sg5
L185032L
sg6
Nsg23
S'BL'
p733
sg25
S'0x2d2c8L'
p734
sg27
Nsba(ibclass
BInstr
p735
(dp736
g2
Nsg17
S'ADD     R0, R0, #0x10'
p737
sg19
S'100080e2'
p738
sg21
Vadd r0, r0, #0x10
p739
sg5
L185036L
sg6
Nsg23
S'ADD'
p740
sg25
S'0x2d2ccL'
p741
sg27
Nsba(ibclass
BInstr
p742
(dp743
g2
Nsg17
S'ADD     etick, etick, R0'
p744
sg19
S'007087e0'
p745
sg21
Vadd r7, r7, r0
p746
sg5
L185040L
sg6
Nsg23
S'ADD'
p747
sg25
S'0x2d2d0L'
p748
sg27
Nsba(ibclass
BInstr
p749
(dp750
g2
Nsg17
S'MOV     R0, R9'
p751
sg19
S'0900a0e1'
p752
sg21
Vmov r0, sb
p753
sg5
L185044L
sg6
Nsg23
S'MOV'
p754
sg25
S'0x2d2d4L'
p755
sg27
Nsba(ibclass
BInstr
p756
(dp757
g2
Nsg17
S'STR     R7, [SP,#0x1D8+var_2C]'
p758
sg19
S'ac718de5'
p759
sg21
Vstr r7, [sp, #0x1ac]
p760
sg5
L185048L
sg6
Nsg23
S'STR'
p761
sg25
S'0x2d2d8L'
p762
sg27
Nsba(ibclass
BInstr
p763
(dp764
g2
Nsg17
S'BL      EVP_CIPHER_CTX_iv_length'
p765
sg19
S'738cffeb'
p766
sg21
Vbl #0xfffe31d4
p767
sg5
L185052L
sg6
Nsg23
S'BL'
p768
sg25
S'0x2d2dcL'
p769
sg27
Nsba(ibclass
BInstr
p770
(dp771
g2
Nsg17
S'SUB     eticklen, eticklen, #0x10'
p772
sg19
S'106046e2'
p773
sg21
Vsub r6, r6, #0x10
p774
sg5
L185056L
sg6
Nsg23
S'SUB'
p775
sg25
S'0x2d2e0L'
p776
sg27
Nsba(ibclass
BInstr
p777
(dp778
g2
Nsg17
S'LDR     R1, =(aT1_lib_c - 0x61000)'
p779
sg19
S'44119fe5'
p780
sg21
Vldr r1, [pc, #0x144]
p781
sg5
L185060L
sg6
Nsg23
S'LDR'
p782
sg25
S'0x2d2e4L'
p783
sg27
Nsba(ibclass
BInstr
p784
(dp785
g2
Nsg17
S'RSB     R6, R0, R6'
p786
sg19
S'066060e0'
p787
sg21
Vrsb r6, r0, r6
p788
sg5
L185064L
sg6
Nsg23
S'RSB'
p789
sg25
S'0x2d2e8L'
p790
sg27
Nsba(ibclass
BInstr
p791
(dp792
g2
Nsg17
S'ADD     R1, R4, R1      ; "t1_lib.c"'
p793
sg19
S'011084e0'
p794
sg21
Vadd r1, r4, r1
p795
sg5
L185068L
sg6
Nsg23
S'ADD'
p796
sg25
S'0x2d2ecL'
p797
sg27
Nsba(ibclass
BInstr
p798
(dp799
g2
Nsg17
S'MOV     R0, eticklen'
p800
sg19
S'0600a0e1'
p801
sg21
Vmov r0, r6
p802
sg5
L185072L
sg6
Nsg23
S'MOV'
p803
sg25
S'0x2d2f0L'
p804
sg27
Nsba(ibclass
BInstr
p805
(dp806
g2
Nsg17
S'LDR     R2, =0xD41'
p807
sg19
S'38219fe5'
p808
sg21
Vldr r2, [pc, #0x138]
p809
sg5
L185076L
sg6
Nsg23
S'LDR'
p810
sg25
S'0x2d2f4L'
p811
sg27
Nsba(ibclass
BInstr
p812
(dp813
g2
Nsg17
S'BL      CRYPTO_malloc'
p814
sg19
S'058dffeb'
p815
sg21
Vbl #0xfffe341c
p816
sg5
L185080L
sg6
Nsg23
S'BL'
p817
sg25
S'0x2d2f8L'
p818
sg27
Nsba(ibclass
BInstr
p819
(dp820
g2
Nsg17
S'SUBS    R4, R0, #0'
p821
sg19
S'004050e2'
p822
sg21
Vsubs r4, r0, #0
p823
sg5
L185084L
sg6
Nsg23
S'SUB'
p824
sg25
S'0x2d2fcL'
p825
sg27
Nsba(ibclass
BInstr
p826
(dp827
g2
Nsg17
S'BEQ     loc_2D3A4'
p828
sg19
S'2700000a'
p829
sg21
Vbeq #0xa4
p830
sg5
L185088L
sg6
Nsg23
g96
sg25
S'0x2d300L'
p831
sg27
Nsbasg98
(lp832
S'MOV R0, R9'
p833
aS'BL EVP_CIPHER_CTX_iv_length'
p834
aS'ADD R0, R0, #0x10'
p835
aS'ADD etick, etick, R0'
p836
aS'MOV R0, R9'
p837
aS'STR R7, mem'
p838
aS'BL EVP_CIPHER_CTX_iv_length'
p839
aS'SUB eticklen, eticklen, #0x10'
p840
aS'LDR R1, =(aT1_lib_c - address)'
p841
aS'RSB R6, R0, R6'
p842
aS'ADD R1, R4, R1'
p843
aS'MOV R0, eticklen'
p844
aS'LDR R2, =0xD41'
p845
aS'BL CRYPTO_mregloc'
p846
aS'SUBS R4, R0, #0'
p847
aS'BEQ func'
p848
asg111
Nsg5
S'0x2d2c4L'
p849
sg113
(lp850
S'0x2d26cL'
p851
asg6
Nsg115
(lp852
S'0x2d304L'
p853
aS'0x2d3a4L'
p854
asg119
Nsg120
Nsg121
S'c4cd0a4ca434d9b712c5ea41dfebe63f'
p855
sg123
S'ad9898643a81c9a3a9c2ade4293dfa70'
p856
sg125
(lp857
g726
ag733
ag740
ag747
ag754
ag761
ag768
ag775
ag782
ag789
ag796
ag803
ag810
ag817
ag824
ag96
asg127
Nsba(ibclass
BBasicBlock
p858
(dp859
g12
Nsg13
(lp860
(ibclass
BInstr
p861
(dp862
g2
Nsg17
S'MOV     R1, R4'
p863
sg19
S'0410a0e1'
p864
sg21
Vmov r1, r4
p865
sg5
L185092L
sg6
Nsg23
S'MOV'
p866
sg25
S'0x2d304L'
p867
sg27
Nsba(ibclass
BInstr
p868
(dp869
g2
Nsg17
S'LDR     R3, [SP,#0x1D8+var_2C]'
p870
sg19
S'ac319de5'
p871
sg21
Vldr r3, [sp, #0x1ac]
p872
sg5
L185096L
sg6
Nsg23
S'LDR'
p873
sg25
S'0x2d308L'
p874
sg27
Nsba(ibclass
BInstr
p875
(dp876
g2
Nsg17
S'ADD     R2, SP, #0x1D8+length'
p877
sg19
S'6a2f8de2'
p878
sg21
Vadd r2, sp, #0x1a8
p879
sg5
L185100L
sg6
Nsg23
S'ADD'
p880
sg25
S'0x2d30cL'
p881
sg27
Nsba(ibclass
BInstr
p882
(dp883
g2
Nsg17
S'MOV     R0, R9'
p884
sg19
S'0900a0e1'
p885
sg21
Vmov r0, sb
p886
sg5
L185104L
sg6
Nsg23
S'MOV'
p887
sg25
S'0x2d310L'
p888
sg27
Nsba(ibclass
BInstr
p889
(dp890
g2
Nsg17
S'STR     eticklen, [SP,#0x1D8+var_1D8]'
p891
sg19
S'00608de5'
p892
sg21
Vstr r6, [sp]
p893
sg5
L185108L
sg6
Nsg23
S'STR'
p894
sg25
S'0x2d314L'
p895
sg27
Nsba(ibclass
BInstr
p896
(dp897
g2
Nsg17
S'BL      EVP_DecryptUpdate'
p898
sg19
S'4c8fffeb'
p899
sg21
Vbl #0xfffe3d38
p900
sg5
L185112L
sg6
Nsg23
S'BL'
p901
sg25
S'0x2d318L'
p902
sg27
Nsba(ibclass
BInstr
p903
(dp904
g2
Nsg17
S'LDR     R1, [SP,#0x1D8+length]'
p905
sg19
S'a8119de5'
p906
sg21
Vldr r1, [sp, #0x1a8]
p907
sg5
L185116L
sg6
Nsg23
S'LDR'
p908
sg25
S'0x2d31cL'
p909
sg27
Nsba(ibclass
BInstr
p910
(dp911
g2
Nsg17
S'MOV     R0, R9'
p912
sg19
S'0900a0e1'
p913
sg21
Vmov r0, sb
p914
sg5
L185120L
sg6
Nsg23
S'MOV'
p915
sg25
S'0x2d320L'
p916
sg27
Nsba(ibclass
BInstr
p917
(dp918
g2
Nsg17
S'ADD     R1, R4, R1'
p919
sg19
S'011084e0'
p920
sg21
Vadd r1, r4, r1
p921
sg5
L185124L
sg6
Nsg23
S'ADD'
p922
sg25
S'0x2d324L'
p923
sg27
Nsba(ibclass
BInstr
p924
(dp925
g2
Nsg17
S'ADD     R2, SP, #0x1D8+p'
p926
sg19
S'692f8de2'
p927
sg21
Vadd r2, sp, #0x1a4
p928
sg5
L185128L
sg6
Nsg23
S'ADD'
p929
sg25
S'0x2d328L'
p930
sg27
Nsba(ibclass
BInstr
p931
(dp932
g2
Nsg17
S'BL      EVP_DecryptFinal'
p933
sg19
S'f38bffeb'
p934
sg21
Vbl #0xfffe2fd4
p935
sg5
L185132L
sg6
Nsg23
S'BL'
p936
sg25
S'0x2d32cL'
p937
sg27
Nsba(ibclass
BInstr
p938
(dp939
g2
Nsg17
S'CMP     R0, #0'
p940
sg19
S'000050e3'
p941
sg21
Vcmp r0, #0
p942
sg5
L185136L
sg6
Nsg23
S'CMP'
p943
sg25
S'0x2d330L'
p944
sg27
Nsba(ibclass
BInstr
p945
(dp946
g2
Nsg17
S'BLE     loc_2D3B4'
p947
sg19
S'1e0000da'
p948
sg21
Vble #0x80
p949
sg5
L185140L
sg6
Nsg23
g96
sg25
S'0x2d334L'
p950
sg27
Nsbasg98
(lp951
S'MOV R1, R4'
p952
aS'LDR R3, mem'
p953
aS'ADD R2, SP, #0x1D8+length'
p954
aS'MOV R0, R9'
p955
aS'STR eticklen, mem'
p956
aS'BL EVP_DecryptUpdate'
p957
aS'LDR R1, mem'
p958
aS'MOV R0, R9'
p959
aS'ADD R1, R4, R1'
p960
aS'ADD R2, SP, #0x1D8+p'
p961
aS'BL EVP_DecryptFinreg'
p962
aS'CMP R0, #0'
p963
aS'BLE func'
p964
asg111
Nsg5
S'0x2d304L'
p965
sg113
(lp966
S'0x2d2c4L'
p967
asg6
Nsg115
(lp968
S'0x2d338L'
p969
aS'0x2d3b4L'
p970
asg119
Nsg120
Nsg121
S'68e8992133391d5feafb17eecbc83054'
p971
sg123
S'8a8c1b47ed10de4ad2ed6e2268b7d39e'
p972
sg125
(lp973
g866
ag873
ag880
ag887
ag894
ag901
ag908
ag915
ag922
ag929
ag936
ag943
ag96
asg127
Nsba(ibclass
BBasicBlock
p974
(dp975
g12
Nsg13
(lp976
(ibclass
BInstr
p977
(dp978
g2
Nsg17
S'LDR     R2, [SP,#0x1D8+length]'
p979
sg19
S'a8219de5'
p980
sg21
Vldr r2, [sp, #0x1a8]
p981
sg5
L185144L
sg6
Nsg23
S'LDR'
p982
sg25
S'0x2d338L'
p983
sg27
Nsba(ibclass
BInstr
p984
(dp985
g2
Nsg17
S'LDR     R3, [SP,#0x1D8+p]'
p986
sg19
S'a4319de5'
p987
sg21
Vldr r3, [sp, #0x1a4]
p988
sg5
L185148L
sg6
Nsg23
S'LDR'
p989
sg25
S'0x2d33cL'
p990
sg27
Nsba(ibclass
BInstr
p991
(dp992
g2
Nsg17
S'MOV     R0, R9'
p993
sg19
S'0900a0e1'
p994
sg21
Vmov r0, sb
p995
sg5
L185152L
sg6
Nsg23
S'MOV'
p996
sg25
S'0x2d340L'
p997
sg27
Nsba(ibclass
BInstr
p998
(dp999
g2
Nsg17
S'ADD     R3, R2, R3'
p1000
sg19
S'033082e0'
p1001
sg21
Vadd r3, r2, r3
p1002
sg5
L185156L
sg6
Nsg23
S'ADD'
p1003
sg25
S'0x2d344L'
p1004
sg27
Nsba(ibclass
BInstr
p1005
(dp1006
g2
Nsg17
S'STR     R3, [SP,#0x1D8+length]'
p1007
sg19
S'a8318de5'
p1008
sg21
Vstr r3, [sp, #0x1a8]
p1009
sg5
L185160L
sg6
Nsg23
S'STR'
p1010
sg25
S'0x2d348L'
p1011
sg27
Nsba(ibclass
BInstr
p1012
(dp1013
g2
Nsg17
S'BL      EVP_CIPHER_CTX_cleanup'
p1014
sg19
S'0a8effeb'
p1015
sg21
Vbl #0xfffe3830
p1016
sg5
L185164L
sg6
Nsg23
S'BL'
p1017
sg25
S'0x2d34cL'
p1018
sg27
Nsba(ibclass
BInstr
p1019
(dp1020
g2
Nsg17
S'ADD     R1, SP, #0x1D8+var_28'
p1021
sg19
S'1b1e8de2'
p1022
sg21
Vadd r1, sp, #0x1b0
p1023
sg5
L185168L
sg6
Nsg23
S'ADD'
p1024
sg25
S'0x2d350L'
p1025
sg27
Nsba(ibclass
BInstr
p1026
(dp1027
g2
Nsg17
S'STR     R4, [R1,#-4]!'
p1028
sg19
S'044021e5'
p1029
sg21
Vstr r4, [r1, #-4]!
p1030
sg5
L185172L
sg6
Nsg23
S'STR'
p1031
sg25
S'0x2d354L'
p1032
sg27
Nsba(ibclass
BInstr
p1033
(dp1034
g2
Nsg17
S'LDR     R2, [SP,#0x1D8+length]; length'
p1035
sg19
S'a8219de5'
p1036
sg21
Vldr r2, [sp, #0x1a8]
p1037
sg5
L185176L
sg6
Nsg23
S'LDR'
p1038
sg25
S'0x2d358L'
p1039
sg27
Nsba(ibclass
BInstr
p1040
(dp1041
g2
Nsg17
S'MOV     R0, R8          ; a'
p1042
sg19
S'0800a0e1'
p1043
sg21
Vmov r0, r8
p1044
sg5
L185180L
sg6
Nsg23
S'MOV'
p1045
sg25
S'0x2d35cL'
p1046
sg27
Nsba(ibclass
BInstr
p1047
(dp1048
g2
Nsg17
S'BL      d2i_SSL_SESSION'
p1049
sg19
S'767300eb'
p1050
sg21
Vbl #0x1cde0
p1051
sg5
L185184L
sg6
Nsg23
S'BL'
p1052
sg25
S'0x2d360L'
p1053
sg27
Nsba(ibclass
BInstr
p1054
(dp1055
g2
Nsg17
S'MOV     R5, R0'
p1056
sg19
S'0050a0e1'
p1057
sg21
Vmov r5, r0
p1058
sg5
L185188L
sg6
Nsg23
S'MOV'
p1059
sg25
S'0x2d364L'
p1060
sg27
Nsba(ibclass
BInstr
p1061
(dp1062
g2
Nsg17
S'MOV     R0, R4'
p1063
sg19
S'0400a0e1'
p1064
sg21
Vmov r0, r4
p1065
sg5
L185192L
sg6
Nsg23
S'MOV'
p1066
sg25
S'0x2d368L'
p1067
sg27
Nsba(ibclass
BInstr
p1068
(dp1069
g2
Nsg17
S'BL      CRYPTO_free'
p1070
sg19
S'938dffeb'
p1071
sg21
Vbl #0xfffe3654
p1072
sg5
L185196L
sg6
Nsg23
S'BL'
p1073
sg25
S'0x2d36cL'
p1074
sg27
Nsba(ibclass
BInstr
p1075
(dp1076
g2
Nsg17
S'CMP     sess, #0'
p1077
sg19
S'000055e3'
p1078
sg21
Vcmp r5, #0
p1079
sg5
L185200L
sg6
Nsg23
S'CMP'
p1080
sg25
S'0x2d370L'
p1081
sg27
Nsba(ibclass
BInstr
p1082
(dp1083
g2
Nsg17
S'BEQ     loc_2D420'
p1084
sg19
S'2900000a'
p1085
sg21
Vbeq #0xac
p1086
sg5
L185204L
sg6
Nsg23
g96
sg25
S'0x2d374L'
p1087
sg27
Nsbasg98
(lp1088
S'LDR R2, mem'
p1089
aS'LDR R3, mem'
p1090
aS'MOV R0, R9'
p1091
aS'ADD R3, R2, R3'
p1092
aS'STR R3, mem'
p1093
aS'BL EVP_CIPHER_CTX_regeanup'
p1094
aS'ADD R1, SP, #0x1D8+var_28'
p1095
aS'STR R4, mem!'
p1096
aS'LDR R2, mem'
p1097
aS'MOV R0, R8'
p1098
aS'BL d2i_SSL_SESSION'
p1099
aS'MOV R5, R0'
p1100
aS'MOV R0, R4'
p1101
aS'BL CRYPTO_free'
p1102
aS'CMP sess, #0'
p1103
aS'BEQ func'
p1104
asg111
Nsg5
S'0x2d338L'
p1105
sg113
(lp1106
S'0x2d304L'
p1107
asg6
Nsg115
(lp1108
S'0x2d378L'
p1109
aS'0x2d420L'
p1110
asg119
Nsg120
Nsg121
S'27373ff697bb2af7c65578e937f677a2'
p1111
sg123
S'a0777832cd266fcca294284718926d79'
p1112
sg125
(lp1113
g982
ag989
ag996
ag1003
ag1010
ag1017
ag1024
ag1031
ag1038
ag1045
ag1052
ag1059
ag1066
ag1073
ag1080
ag96
asg127
Nsba(ibclass
BBasicBlock
p1114
(dp1115
g12
Nsg13
(lp1116
(ibclass
BInstr
p1117
(dp1118
g2
Nsg17
S'LDR     R3, [SP,#0x1D8+sesslen]'
p1119
sg19
S'd8319de5'
p1120
sg21
Vldr r3, [sp, #0x1d8]
p1121
sg5
L185208L
sg6
Nsg23
S'LDR'
p1122
sg25
S'0x2d378L'
p1123
sg27
Nsba(ibclass
BInstr
p1124
(dp1125
g2
Nsg17
S'CMP     R3, #0'
p1126
sg19
S'000053e3'
p1127
sg21
Vcmp r3, #0
p1128
sg5
L185212L
sg6
Nsg23
S'CMP'
p1129
sg25
S'0x2d37cL'
p1130
sg27
Nsba(ibclass
BInstr
p1131
(dp1132
g2
Nsg17
S'BNE     loc_2D40C'
p1133
sg19
S'2100001a'
p1134
sg21
Vbne #0x8c
p1135
sg5
L185216L
sg6
Nsg23
g96
sg25
S'0x2d380L'
p1136
sg27
Nsbasg98
(lp1137
S'LDR R3, mem'
p1138
aS'CMP R3, #0'
p1139
aS'BNE func'
p1140
asg111
Nsg5
S'0x2d378L'
p1141
sg113
(lp1142
S'0x2d338L'
p1143
asg6
Nsg115
(lp1144
S'0x2d384L'
p1145
aS'0x2d40cL'
p1146
asg119
Nsg120
Nsg121
S'fa4df767a85c49648339e2dc5c6807f6'
p1147
sg123
S'1bb12c7dd982fd3e3da2842e84d201cf'
p1148
sg125
(lp1149
g1122
ag1129
ag96
asg127
Nsba(ibclass
BBasicBlock
p1150
(dp1151
g12
Nsg13
(lp1152
(ibclass
BInstr
p1153
(dp1154
g2
Nsg17
S'LDR     R3, [SP,#0x1D8+psess]'
p1155
sg19
S'dc319de5'
p1156
sg21
Vldr r3, [sp, #0x1dc]
p1157
sg5
L185220L
sg6
Nsg23
S'LDR'
p1158
sg25
S'0x2d384L'
p1159
sg27
Nsba(ibclass
BInstr
p1160
(dp1161
g2
Nsg17
S'CMP     renew_ticket, #0'
p1162
sg19
S'00005ae3'
p1163
sg21
Vcmp sl, #0
p1164
sg5
L185224L
sg6
Nsg23
S'CMP'
p1165
sg25
S'0x2d388L'
p1166
sg27
Nsba(ibclass
BInstr
p1167
(dp1168
g2
Nsg17
S'STR     sess, [R3]'
p1169
sg19
S'005083e5'
p1170
sg21
Vstr r5, [r3]
p1171
sg5
L185228L
sg6
Nsg23
S'STR'
p1172
sg25
S'0x2d38cL'
p1173
sg27
Nsba(ibclass
BInstr
p1174
(dp1175
g2
Nsg17
S'LDR     R3, [SP,#0x1D8+sesslen]'
p1176
sg19
S'd8319de5'
p1177
sg21
Vldr r3, [sp, #0x1d8]
p1178
sg5
L185232L
sg6
Nsg23
S'LDR'
p1179
sg25
S'0x2d390L'
p1180
sg27
Nsba(ibclass
BInstr
p1181
(dp1182
g2
Nsg17
S'MOVNE   R0, #4'
p1183
sg19
S'0400a013'
p1184
sg21
Vmovne r0, #4
p1185
sg5
L185236L
sg6
Nsg23
S'MOV'
p1186
sg25
S'0x2d394L'
p1187
sg27
Nsba(ibclass
BInstr
p1188
(dp1189
g2
Nsg17
S'STR     R3, [sess,#0x44]'
p1190
sg19
S'443085e5'
p1191
sg21
Vstr r3, [r5, #0x44]
p1192
sg5
L185240L
sg6
Nsg23
S'STR'
p1193
sg25
S'0x2d398L'
p1194
sg27
Nsba(ibclass
BInstr
p1195
(dp1196
g2
Nsg17
S'MOVEQ   R0, #3'
p1197
sg19
S'0300a003'
p1198
sg21
Vmoveq r0, #3
p1199
sg5
L185244L
sg6
Nsg23
S'MOV'
p1200
sg25
S'0x2d39cL'
p1201
sg27
Nsba(ibclass
BInstr
p1202
(dp1203
g2
Nsg17
S'B       loc_2D1D4'
p1204
sg19
S'8bffffea'
p1205
sg21
Vb #0xfffffe34
p1206
sg5
L185248L
sg6
Nsg23
g96
sg25
S'0x2d3a0L'
p1207
sg27
Nsbasg98
(lp1208
S'LDR R3, mem'
p1209
aS'CMP renew_ticket, #0'
p1210
aS'STR sess, mem'
p1211
aS'LDR R3, mem'
p1212
aS'MOVNE R0, #4'
p1213
aS'STR R3, mem'
p1214
aS'MOVEQ R0, #3'
p1215
aS'B func'
p1216
asg111
Nsg5
S'0x2d384L'
p1217
sg113
(lp1218
S'0x2d378L'
p1219
aS'0x2d40cL'
p1220
asg6
Nsg115
(lp1221
S'0x2d1d4L'
p1222
asg119
Nsg120
Nsg121
S'c2e6d58261c64f39f0568765854f4dd8'
p1223
sg123
S'487f551627d3feaa2663ed98c82f802f'
p1224
sg125
(lp1225
g1158
ag1165
ag1172
ag1179
ag1186
ag1193
ag1200
ag96
asg127
Nsba(ibclass
BBasicBlock
p1226
(dp1227
g12
Nsg13
(lp1228
(ibclass
BInstr
p1229
(dp1230
g2
Nsg17
S'MOV     R0, R9'
p1231
sg19
S'0900a0e1'
p1232
sg21
Vmov r0, sb
p1233
sg5
L185252L
sg6
Nsg23
S'MOV'
p1234
sg25
S'0x2d3a4L'
p1235
sg27
Nsba(ibclass
BInstr
p1236
(dp1237
g2
Nsg17
S'BL      EVP_CIPHER_CTX_cleanup'
p1238
sg19
S'f38dffeb'
p1239
sg21
Vbl #0xfffe37d4
p1240
sg5
L185256L
sg6
Nsg23
S'BL'
p1241
sg25
S'0x2d3a8L'
p1242
sg27
Nsbasg98
(lp1243
S'MOV R0, R9'
p1244
aS'BL EVP_CIPHER_CTX_regeanup'
p1245
asg111
Nsg5
S'0x2d3a4L'
p1246
sg113
(lp1247
S'0x2d258L'
p1248
aS'0x2d2c4L'
p1249
asg6
Nsg115
(lp1250
S'0x2d3acL'
p1251
asg119
Nsg120
Nsg121
S'd358f8b13c87ca08ba6d4b865203703e'
p1252
sg123
S'4c747fc013fc93963c1aaa9e39bf3c4a'
p1253
sg125
(lp1254
g1234
ag1241
asg127
Nsba(ibclass
BBasicBlock
p1255
(dp1256
g12
Nsg13
(lp1257
(ibclass
BInstr
p1258
(dp1259
g2
Nsg17
S'MOV     rv, #0xFFFFFFFF'
p1260
sg19
S'0000e0e3'
p1261
sg21
Vmvn r0, #0
p1262
sg5
L185260L
sg6
Nsg23
S'MOV'
p1263
sg25
S'0x2d3acL'
p1264
sg27
Nsba(ibclass
BInstr
p1265
(dp1266
g2
Nsg17
S'B       loc_2D1D4'
p1267
sg19
S'87ffffea'
p1268
sg21
Vb #0xfffffe24
p1269
sg5
L185264L
sg6
Nsg23
g96
sg25
S'0x2d3b0L'
p1270
sg27
Nsbasg98
(lp1271
S'MOV rv, #0xFFFFFFFF'
p1272
aS'B func'
p1273
asg111
Nsg5
S'0x2d3acL'
p1274
sg113
(lp1275
S'0x2d3a4L'
p1276
aS'0x2d3ccL'
p1277
asg6
Nsg115
(lp1278
S'0x2d1d4L'
p1279
asg119
Nsg120
Nsg121
S'b6c4e95ccfe77a95e4cf2019dd3d5574'
p1280
sg123
S'72e4ead8bb9db0ce95f77e94b352893d'
p1281
sg125
(lp1282
g1263
ag96
asg127
Nsba(ibclass
BBasicBlock
p1283
(dp1284
g12
Nsg13
(lp1285
(ibclass
BInstr
p1286
(dp1287
g2
Nsg17
S'MOV     R0, R9'
p1288
sg19
S'0900a0e1'
p1289
sg21
Vmov r0, sb
p1290
sg5
L185268L
sg6
Nsg23
S'MOV'
p1291
sg25
S'0x2d3b4L'
p1292
sg27
Nsba(ibclass
BInstr
p1293
(dp1294
g2
Nsg17
S'BL      EVP_CIPHER_CTX_cleanup'
p1295
sg19
S'ef8dffeb'
p1296
sg21
Vbl #0xfffe37c4
p1297
sg5
L185272L
sg6
Nsg23
S'BL'
p1298
sg25
S'0x2d3b8L'
p1299
sg27
Nsba(ibclass
BInstr
p1300
(dp1301
g2
Nsg17
S'MOV     R0, R4'
p1302
sg19
S'0400a0e1'
p1303
sg21
Vmov r0, r4
p1304
sg5
L185276L
sg6
Nsg23
S'MOV'
p1305
sg25
S'0x2d3bcL'
p1306
sg27
Nsba(ibclass
BInstr
p1307
(dp1308
g2
Nsg17
S'BL      CRYPTO_free'
p1309
sg19
S'7e8dffeb'
p1310
sg21
Vbl #0xfffe3600
p1311
sg5
L185280L
sg6
Nsg23
S'BL'
p1312
sg25
S'0x2d3c0L'
p1313
sg27
Nsba(ibclass
BInstr
p1314
(dp1315
g2
Nsg17
S'MOV     R0, #2'
p1316
sg19
S'0200a0e3'
p1317
sg21
Vmov r0, #2
p1318
sg5
L185284L
sg6
Nsg23
S'MOV'
p1319
sg25
S'0x2d3c4L'
p1320
sg27
Nsba(ibclass
BInstr
p1321
(dp1322
g2
Nsg17
S'B       loc_2D1D4'
p1323
sg19
S'81ffffea'
p1324
sg21
Vb #0xfffffe0c
p1325
sg5
L185288L
sg6
Nsg23
g96
sg25
S'0x2d3c8L'
p1326
sg27
Nsbasg98
(lp1327
S'MOV R0, R9'
p1328
aS'BL EVP_CIPHER_CTX_regeanup'
p1329
aS'MOV R0, R4'
p1330
aS'BL CRYPTO_free'
p1331
aS'MOV R0, #2'
p1332
aS'B func'
p1333
asg111
Nsg5
S'0x2d3b4L'
p1334
sg113
(lp1335
S'0x2d304L'
p1336
asg6
Nsg115
(lp1337
S'0x2d1d4L'
p1338
asg119
Nsg120
Nsg121
S'2cbb9e2a4f47cb0bf9c61c84e8992200'
p1339
sg123
S'f4f9cbba7b9353edc016c59dceba8c2f'
p1340
sg125
(lp1341
g1291
ag1298
ag1305
ag1312
ag1319
ag96
asg127
Nsba(ibclass
BBasicBlock
p1342
(dp1343
g12
Nsg13
(lp1344
(ibclass
BInstr
p1345
(dp1346
g2
Nsg17
S'MOV     R3, #0'
p1347
sg19
S'0030a0e3'
p1348
sg21
Vmov r3, #0
p1349
sg5
L185292L
sg6
Nsg23
S'MOV'
p1350
sg25
S'0x2d3ccL'
p1351
sg27
Nsba(ibclass
BInstr
p1352
(dp1353
g2
Nsg17
S'STR     R3, [SP,#0x1D8+var_1D4]'
p1354
sg19
S'04308de5'
p1355
sg21
Vstr r3, [sp, #4]
p1356
sg5
L185296L
sg6
Nsg23
S'STR'
p1357
sg25
S'0x2d3d0L'
p1358
sg27
Nsba(ibclass
BInstr
p1359
(dp1360
g2
Nsg17
S'STR     R8, [SP,#0x1D8+var_1D8]'
p1361
sg19
S'00808de5'
p1362
sg21
Vstr r8, [sp]
p1363
sg5
L185300L
sg6
Nsg23
S'STR'
p1364
sg25
S'0x2d3d4L'
p1365
sg27
Nsba(ibclass
BInstr
p1366
(dp1367
g2
Nsg17
S'MOV     R0, s'
p1368
sg19
S'0a00a0e1'
p1369
sg21
Vmov r0, sl
p1370
sg5
L185304L
sg6
Nsg23
S'MOV'
p1371
sg25
S'0x2d3d8L'
p1372
sg27
Nsba(ibclass
BInstr
p1373
(dp1374
g2
Nsg17
S'MOV     R1, etick'
p1375
sg19
S'0710a0e1'
p1376
sg21
Vmov r1, r7
p1377
sg5
L185308L
sg6
Nsg23
S'MOV'
p1378
sg25
S'0x2d3dcL'
p1379
sg27
Nsba(ibclass
BInstr
p1380
(dp1381
g2
Nsg17
S'ADD     R2, etick, #0x10'
p1382
sg19
S'102087e2'
p1383
sg21
Vadd r2, r7, #0x10
p1384
sg5
L185312L
sg6
Nsg23
S'ADD'
p1385
sg25
S'0x2d3e0L'
p1386
sg27
Nsba(ibclass
BInstr
p1387
(dp1388
g2
Nsg17
S'MOV     R3, R9'
p1389
sg19
S'0930a0e1'
p1390
sg21
Vmov r3, sb
p1391
sg5
L185316L
sg6
Nsg23
S'MOV'
p1392
sg25
S'0x2d3e4L'
p1393
sg27
Nsba(ibclass
BInstr
p1394
(dp1395
g2
Nsg17
S'MOV     LR, PC'
p1396
sg19
S'0fe0a0e1'
p1397
sg21
Vmov lr, pc
p1398
sg5
L185320L
sg6
Nsg23
S'MOV'
p1399
sg25
S'0x2d3e8L'
p1400
sg27
Nsba(ibclass
BInstr
p1401
(dp1402
g2
Nsg17
S'BX      R12'
p1403
sg19
S'1cff2fe1'
p1404
sg21
Vbx ip
p1405
sg5
L185324L
sg6
Nsg23
S'BX'
p1406
sg25
S'0x2d3ecL'
p1407
sg27
Nsba(ibclass
BInstr
p1408
(dp1409
g2
Nsg17
S'CMP     R0, #0'
p1410
sg19
S'000050e3'
p1411
sg21
Vcmp r0, #0
p1412
sg5
L185328L
sg6
Nsg23
S'CMP'
p1413
sg25
S'0x2d3f0L'
p1414
sg27
Nsba(ibclass
BInstr
p1415
(dp1416
g2
Nsg17
S'BLT     loc_2D3AC'
p1417
sg19
S'ecffffba'
p1418
sg21
Vblt #0xffffffb8
p1419
sg5
L185332L
sg6
Nsg23
g96
sg25
S'0x2d3f4L'
p1420
sg27
Nsbasg98
(lp1421
S'MOV R3, #0'
p1422
aS'STR R3, mem'
p1423
aS'STR R8, mem'
p1424
aS'MOV R0, s'
p1425
aS'MOV R1, etick'
p1426
aS'ADD R2, etick, #0x10'
p1427
aS'MOV R3, R9'
p1428
aS'MOV LR, PC'
p1429
aS'BX R12'
p1430
aS'CMP R0, #0'
p1431
aS'BLT func'
p1432
asg111
Nsg5
S'0x2d3ccL'
p1433
sg113
(lp1434
S'0x2d1e0L'
p1435
asg6
Nsg115
(lp1436
S'0x2d3acL'
p1437
aS'0x2d3f8L'
p1438
asg119
Nsg120
Nsg121
S'cc81606e1cadbb4f1b2cc91f11afccf4'
p1439
sg123
S'566dd9f670474195e5d53bd34e36a70c'
p1440
sg125
(lp1441
g1350
ag1357
ag1364
ag1371
ag1378
ag1385
ag1392
ag1399
ag1406
ag1413
ag96
asg127
Nsba(ibclass
BBasicBlock
p1442
(dp1443
g12
Nsg13
(lp1444
(ibclass
BInstr
p1445
(dp1446
g2
Nsg17
S'BEQ     loc_2D1D0'
p1447
sg19
S'74ffff0a'
p1448
sg21
Vbeq #0xfffffdd8
p1449
sg5
L185336L
sg6
Nsg23
g96
sg25
S'0x2d3f8L'
p1450
sg27
Nsbasg98
(lp1451
S'BEQ func'
p1452
asg111
Nsg5
S'0x2d3f8L'
p1453
sg113
(lp1454
S'0x2d3ccL'
p1455
asg6
Nsg115
(lp1456
S'0x2d1d0L'
p1457
aS'0x2d3fcL'
p1458
asg119
Nsg120
Nsg121
S'9d5ed678fe57bcca610140957afab571'
p1459
sg123
S'bdc70111aae5307dbe421fcc1eac6433'
p1460
sg125
(lp1461
g96
asg127
Nsba(ibclass
BBasicBlock
p1462
(dp1463
g12
Nsg13
(lp1464
(ibclass
BInstr
p1465
(dp1466
g2
Nsg17
S'CMP     rv, #2'
p1467
sg19
S'020050e3'
p1468
sg21
Vcmp r0, #2
p1469
sg5
L185340L
sg6
Nsg23
S'CMP'
p1470
sg25
S'0x2d3fcL'
p1471
sg27
Nsba(ibclass
BInstr
p1472
(dp1473
g2
Nsg17
S'MOVNE   s, #0'
p1474
sg19
S'00a0a013'
p1475
sg21
Vmovne sl, #0
p1476
sg5
L185344L
sg6
Nsg23
S'MOV'
p1477
sg25
S'0x2d400L'
p1478
sg27
Nsba(ibclass
BInstr
p1479
(dp1480
g2
Nsg17
S'MOVEQ   s, #1'
p1481
sg19
S'01a0a003'
p1482
sg21
Vmoveq sl, #1
p1483
sg5
L185348L
sg6
Nsg23
S'MOV'
p1484
sg25
S'0x2d404L'
p1485
sg27
Nsba(ibclass
BInstr
p1486
(dp1487
g2
Nsg17
S'B       loc_2D258'
p1488
sg19
S'92ffffea'
p1489
sg21
Vb #0xfffffe50
p1490
sg5
L185352L
sg6
Nsg23
g96
sg25
S'0x2d408L'
p1491
sg27
Nsbasg98
(lp1492
S'CMP rv, #2'
p1493
aS'MOVNE s, #0'
p1494
aS'MOVEQ s, #1'
p1495
aS'B func'
p1496
asg111
Nsg5
S'0x2d3fcL'
p1497
sg113
(lp1498
S'0x2d3f8L'
p1499
asg6
Nsg115
(lp1500
S'0x2d258L'
p1501
asg119
Nsg120
Nsg121
S'f6479fbb0eca979084f3beb71258267e'
p1502
sg123
S'09153052f76801871381a04e557368df'
p1503
sg125
(lp1504
g1470
ag1477
ag1484
ag96
asg127
Nsba(ibclass
BBasicBlock
p1505
(dp1506
g12
Nsg13
(lp1507
(ibclass
BInstr
p1508
(dp1509
g2
Nsg17
S'MOV     R1, sess_id     ; src'
p1510
sg19
S'0b10a0e1'
p1511
sg21
Vmov r1, fp
p1512
sg5
L185356L
sg6
Nsg23
S'MOV'
p1513
sg25
S'0x2d40cL'
p1514
sg27
Nsba(ibclass
BInstr
p1515
(dp1516
g2
Nsg17
S'ADD     R0, sess, #0x48 ; dest'
p1517
sg19
S'480085e2'
p1518
sg21
Vadd r0, r5, #0x48
p1519
sg5
L185360L
sg6
Nsg23
S'ADD'
p1520
sg25
S'0x2d410L'
p1521
sg27
Nsba(ibclass
BInstr
p1522
(dp1523
g2
Nsg17
S'MOV     R2, R3          ; n'
p1524
sg19
S'0320a0e1'
p1525
sg21
Vmov r2, r3
p1526
sg5
L185364L
sg6
Nsg23
S'MOV'
p1527
sg25
S'0x2d414L'
p1528
sg27
Nsba(ibclass
BInstr
p1529
(dp1530
g2
Nsg17
S'BL      memcpy'
p1531
sg19
S'e98dffeb'
p1532
sg21
Vbl #0xfffe37ac
p1533
sg5
L185368L
sg6
Nsg23
S'BL'
p1534
sg25
S'0x2d418L'
p1535
sg27
Nsba(ibclass
BInstr
p1536
(dp1537
g2
Nsg17
S'B       loc_2D384'
p1538
sg19
S'd8ffffea'
p1539
sg21
Vb #0xffffff68
p1540
sg5
L185372L
sg6
Nsg23
g96
sg25
S'0x2d41cL'
p1541
sg27
Nsbasg98
(lp1542
S'MOV R1, sess_id'
p1543
aS'ADD R0, sess, #0x48'
p1544
aS'MOV R2, R3'
p1545
aS'BL memcpy'
p1546
aS'B func'
p1547
asg111
Nsg5
S'0x2d40cL'
p1548
sg113
(lp1549
S'0x2d378L'
p1550
asg6
Nsg115
(lp1551
S'0x2d384L'
p1552
asg119
Nsg120
Nsg121
S'04d554ef0cd149c00cfb5f0fa2b50d9f'
p1553
sg123
S'7865faa04ddd05201df2c06709a1f0da'
p1554
sg125
(lp1555
g1513
ag1520
ag1527
ag1534
ag96
asg127
Nsba(ibclass
BBasicBlock
p1556
(dp1557
g12
Nsg13
(lp1558
(ibclass
BInstr
p1559
(dp1560
g2
Nsg17
S'BL      ERR_clear_error'
p1561
sg19
S'1b8dffeb'
p1562
sg21
Vbl #0xfffe3474
p1563
sg5
L185376L
sg6
Nsg23
S'BL'
p1564
sg25
S'0x2d420L'
p1565
sg27
Nsba(ibclass
BInstr
p1566
(dp1567
g2
Nsg17
S'MOV     R0, #2'
p1568
sg19
S'0200a0e3'
p1569
sg21
Vmov r0, #2
p1570
sg5
L185380L
sg6
Nsg23
S'MOV'
p1571
sg25
S'0x2d424L'
p1572
sg27
Nsba(ibclass
BInstr
p1573
(dp1574
g2
Nsg17
S'B       loc_2D1D4'
p1575
sg19
S'69ffffea'
p1576
sg21
Vb #0xfffffdac
p1577
sg5
L185384L
sg6
Nsg23
g96
sg25
S'0x2d428L'
p1578
sg27
Nsbasg98
(lp1579
S'BL ERR_regear_error'
p1580
aS'MOV R0, #2'
p1581
aS'B func'
p1582
asg111
Nsg5
S'0x2d420L'
p1583
sg113
(lp1584
S'0x2d338L'
p1585
asg6
Nsg115
(lp1586
S'0x2d1d4L'
p1587
asg119
Nsg120
Nsg121
S'784a337fe2b2b07f8b8369fbd0da5f75'
p1588
sg123
S'e713188f99838cab70c9be783f049e1c'
p1589
sg125
(lp1590
g1564
ag1571
ag96
asg127
Nsbasb.