(ibclass
BFunc
p0
(dp1
S'hash'
p2
NsS'name'
p3
S'BN_to_ASN1_INTEGER'
p4
sS'start_address'
p5
L927108L
sS'flag'
p6
NsS'program'
p7
NsS'bbs'
p8
(lp9
(ibclass
BBasicBlock
p10
(dp11
S'function'
p12
NsS'binstrs'
p13
(lp14
(ibclass
BInstr
p15
(dp16
g2
NsS'disasm'
p17
S'STMFD   SP!, {ret-R8,LR}'
p18
sS'bytes'
p19
S'f0412de9'
p20
sS'disasm_striped'
p21
Vpush {r4, r5, r6, r7, r8, lr}
p22
sg5
L927108L
sg6
NsS'mnem'
p23
S'STM'
p24
sS'address'
p25
S'0xe2584L'
p26
sS'basicblock'
p27
Nsba(ibclass
BInstr
p28
(dp29
g2
Nsg17
S'LDR     R6, =($_GLOBAL_OFFSET_TABLE_ - 0xE2598)'
p30
sg19
S'38619fe5'
p31
sg21
Vldr r6, [pc, #0x138]
p32
sg5
L927112L
sg6
Nsg23
S'LDR'
p33
sg25
S'0xe2588L'
p34
sg27
Nsba(ibclass
BInstr
p35
(dp36
g2
Nsg17
S'SUBS    R7, ai, #0'
p37
sg19
S'007051e2'
p38
sg21
Vsubs r7, r1, #0
p39
sg5
L927116L
sg6
Nsg23
S'SUB'
p40
sg25
S'0xe258cL'
p41
sg27
Nsba(ibclass
BInstr
p42
(dp43
g2
Nsg17
S'ADD     R6, PC, R6 ; $_GLOBAL_OFFSET_TABLE_'
p44
sg19
S'06608fe0'
p45
sg21
Vadd r6, pc, r6
p46
sg5
L927120L
sg6
Nsg23
S'ADD'
p47
sg25
S'0xe2590L'
p48
sg27
Nsba(ibclass
BInstr
p49
(dp50
g2
Nsg17
S'SUB     SP, SP, #8'
p51
sg19
S'08d04de2'
p52
sg21
Vsub sp, sp, #8
p53
sg5
L927124L
sg6
Nsg23
S'SUB'
p54
sg25
S'0xe2594L'
p55
sg27
Nsba(ibclass
BInstr
p56
(dp57
g2
Nsg17
S'MOV     R5, bn'
p58
sg19
S'0050a0e1'
p59
sg21
Vmov r5, r0
p60
sg5
L927128L
sg6
Nsg23
S'MOV'
p61
sg25
S'0xe2598L'
p62
sg27
Nsba(ibclass
BInstr
p63
(dp64
g2
Nsg17
S'MOVNE   ret, R7'
p65
sg19
S'0740a011'
p66
sg21
Vmovne r4, r7
p67
sg5
L927132L
sg6
Nsg23
S'MOV'
p68
sg25
S'0xe259cL'
p69
sg27
Nsba(ibclass
BInstr
p70
(dp71
g2
Nsg17
S'BEQ     loc_E2694'
p72
sg19
S'3b00000a'
p73
sg21
Vbeq #0xf4
p74
sg5
L927136L
sg6
Nsg23
S'B'
p75
sg25
S'0xe25a0L'
p76
sg27
NsbasS'disasm_list'
p77
(lp78
S'STMFD SP!, {ret-R8,LR}'
p79
aS'LDR R6, =($_GLOBAL_OFFSET_TABLE_ - 0xE2598)'
p80
aS'SUBS R7, ai, #0'
p81
aS'ADD R6, PC, R6'
p82
aS'SUB SP, SP, #8'
p83
aS'MOV R5, bn'
p84
aS'MOVNE ret, R7'
p85
aS'BEQ func'
p86
asS'end_address'
p87
Nsg5
S'0xe2584L'
p88
sS'preds'
p89
(lp90
sg6
NsS'succs'
p91
(lp92
S'0xe25a4L'
p93
aS'0xe2694L'
p94
asS'hash_v3'
p95
NsS'flag_v2'
p96
NsS'hash_v1'
p97
S'52d78ae7b3b5764a1741c4e87c30593d'
p98
sS'hash_v2'
p99
S'7fb50dd97d753f23a79623d9aec4666d'
p100
sS'mnen_list'
p101
(lp102
g24
ag33
ag40
ag47
ag54
ag61
ag68
ag75
asS'neighbour_disasm_list'
p103
Nsba(ibclass
BBasicBlock
p104
(dp105
g12
Nsg13
(lp106
(ibclass
BInstr
p107
(dp108
g2
Nsg17
S'LDR     R3, [bn,#0xC]'
p109
sg19
S'0c3095e5'
p110
sg21
Vldr r3, [r5, #0xc]
p111
sg5
L927140L
sg6
Nsg23
S'LDR'
p112
sg25
S'0xe25a4L'
p113
sg27
Nsba(ibclass
BInstr
p114
(dp115
g2
Nsg17
S'MOV     R0, bn          ; a'
p116
sg19
S'0500a0e1'
p117
sg21
Vmov r0, r5
p118
sg5
L927144L
sg6
Nsg23
S'MOV'
p119
sg25
S'0xe25a8L'
p120
sg27
Nsba(ibclass
BInstr
p121
(dp122
g2
Nsg17
S'CMP     R3, #0'
p123
sg19
S'000053e3'
p124
sg21
Vcmp r3, #0
p125
sg5
L927148L
sg6
Nsg23
S'CMP'
p126
sg25
S'0xe25acL'
p127
sg27
Nsba(ibclass
BInstr
p128
(dp129
g2
Nsg17
S'LDRNE   R3, =0x102'
p130
sg19
S'14319f15'
p131
sg21
Vldrne r3, [pc, #0x114]
p132
sg5
L927152L
sg6
Nsg23
S'LDR'
p133
sg25
S'0xe25b0L'
p134
sg27
Nsba(ibclass
BInstr
p135
(dp136
g2
Nsg17
S'MOVEQ   R3, #2'
p137
sg19
S'0230a003'
p138
sg21
Vmoveq r3, #2
p139
sg5
L927156L
sg6
Nsg23
S'MOV'
p140
sg25
S'0xe25b4L'
p141
sg27
Nsba(ibclass
BInstr
p142
(dp143
g2
Nsg17
S'STRNE   R3, [ret,#4]'
p144
sg19
S'04308415'
p145
sg21
Vstrne r3, [r4, #4]
p146
sg5
L927160L
sg6
Nsg23
S'STR'
p147
sg25
S'0xe25b8L'
p148
sg27
Nsba(ibclass
BInstr
p149
(dp150
g2
Nsg17
S'STREQ   R3, [ret,#4]'
p151
sg19
S'04308405'
p152
sg21
Vstreq r3, [r4, #4]
p153
sg5
L927164L
sg6
Nsg23
S'STR'
p154
sg25
S'0xe25bcL'
p155
sg27
Nsba(ibclass
BInstr
p156
(dp157
g2
Nsg17
S'BL      BN_num_bits'
p158
sg19
S'7e9cfeeb'
p159
sg21
Vbl #0xfffa7200
p160
sg5
L927168L
sg6
Nsg23
S'BL'
p161
sg25
S'0xe25c0L'
p162
sg27
Nsba(ibclass
BInstr
p163
(dp164
g2
Nsg17
S'CMP     R0, #0'
p165
sg19
S'000050e3'
p166
sg21
Vcmp r0, #0
p167
sg5
L927172L
sg6
Nsg23
S'CMP'
p168
sg25
S'0xe25c4L'
p169
sg27
Nsba(ibclass
BInstr
p170
(dp171
g2
Nsg17
S'MOVEQ   R3, #3'
p172
sg19
S'0330a003'
p173
sg21
Vmoveq r3, #3
p174
sg5
L927176L
sg6
Nsg23
S'MOV'
p175
sg25
S'0xe25c8L'
p176
sg27
Nsba(ibclass
BInstr
p177
(dp178
g2
Nsg17
S'BNE     loc_E266C'
p179
sg19
S'2600001a'
p180
sg21
Vbne #0xa0
p181
sg5
L927180L
sg6
Nsg23
g75
sg25
S'0xe25ccL'
p182
sg27
Nsbasg77
(lp183
S'LDR R3, mem'
p184
aS'MOV R0, bn'
p185
aS'CMP R3, #0'
p186
aS'LDRNE R3, =0x102'
p187
aS'MOVEQ R3, #2'
p188
aS'STRNE R3, mem'
p189
aS'STREQ R3, mem'
p190
aS'BL BN_num_bits'
p191
aS'CMP R0, #0'
p192
aS'MOVEQ R3, #3'
p193
aS'BNE func'
p194
asg87
Nsg5
S'0xe25a4L'
p195
sg89
(lp196
S'0xe2584L'
p197
aS'0xe2694L'
p198
asg6
Nsg91
(lp199
S'0xe25d0L'
p200
aS'0xe266cL'
p201
asg95
Nsg96
Nsg97
S'7754659d7eaf555d8e909f3a891582a8'
p202
sg99
S'8b18d80331d87d9d9436c8396e9d2939'
p203
sg101
(lp204
g112
ag119
ag126
ag133
ag140
ag147
ag154
ag161
ag168
ag175
ag75
asg103
Nsba(ibclass
BBasicBlock
p205
(dp206
g12
Nsg13
(lp207
(ibclass
BInstr
p208
(dp209
g2
Nsg17
S'LDR     R2, [ret]'
p210
sg19
S'002094e5'
p211
sg21
Vldr r2, [r4]
p212
sg5
L927184L
sg6
Nsg23
S'LDR'
p213
sg25
S'0xe25d0L'
p214
sg27
Nsba(ibclass
BInstr
p215
(dp216
g2
Nsg17
S'CMP     R2, R3'
p217
sg19
S'030052e1'
p218
sg21
Vcmp r2, r3
p219
sg5
L927188L
sg6
Nsg23
S'CMP'
p220
sg25
S'0xe25d4L'
p221
sg27
Nsba(ibclass
BInstr
p222
(dp223
g2
Nsg17
S'LDRGT   R6, [ret,#8]'
p224
sg19
S'086094c5'
p225
sg21
Vldrgt r6, [r4, #8]
p226
sg5
L927192L
sg6
Nsg23
S'LDR'
p227
sg25
S'0xe25d8L'
p228
sg27
Nsba(ibclass
BInstr
p229
(dp230
g2
Nsg17
S'BLE     loc_E2614'
p231
sg19
S'0c0000da'
p232
sg21
Vble #0x38
p233
sg5
L927196L
sg6
Nsg23
g75
sg25
S'0xe25dcL'
p234
sg27
Nsbasg77
(lp235
S'LDR R2, mem'
p236
aS'CMP R2, R3'
p237
aS'LDRGT R6, mem'
p238
aS'BLE func'
p239
asg87
Nsg5
S'0xe25d0L'
p240
sg89
(lp241
S'0xe25a4L'
p242
asg6
Nsg91
(lp243
S'0xe25e0L'
p244
aS'0xe2614L'
p245
asg95
Nsg96
Nsg97
S'4e0264078831c1987b4b9c84f5720857'
p246
sg99
S'0280adec85c3ab39c4d5ade43d3462c9'
p247
sg101
(lp248
g213
ag220
ag227
ag75
asg103
Nsba(ibclass
BBasicBlock
p249
(dp250
g12
Nsg13
(lp251
(ibclass
BInstr
p252
(dp253
g2
Nsg17
S'MOV     j, bn           ; a'
p254
sg19
S'0500a0e1'
p255
sg21
Vmov r0, r5
p256
sg5
L927200L
sg6
Nsg23
S'MOV'
p257
sg25
S'0xe25e0L'
p258
sg27
Nsba(ibclass
BInstr
p259
(dp260
g2
Nsg17
S'MOV     R1, new_data    ; to'
p261
sg19
S'0610a0e1'
p262
sg21
Vmov r1, r6
p263
sg5
L927204L
sg6
Nsg23
S'MOV'
p264
sg25
S'0xe25e4L'
p265
sg27
Nsba(ibclass
BInstr
p266
(dp267
g2
Nsg17
S'BL      BN_bn2bin'
p268
sg19
S'a49cfeeb'
p269
sg21
Vbl #0xfffa7298
p270
sg5
L927208L
sg6
Nsg23
S'BL'
p271
sg25
S'0xe25e8L'
p272
sg27
Nsba(ibclass
BInstr
p273
(dp274
g2
Nsg17
S'CMP     R0, #0'
p275
sg19
S'000050e3'
p276
sg21
Vcmp r0, #0
p277
sg5
L927212L
sg6
Nsg23
S'CMP'
p278
sg25
S'0xe25ecL'
p279
sg27
Nsba(ibclass
BInstr
p280
(dp281
g2
Nsg17
S'STR     R0, [ret]'
p282
sg19
S'000084e5'
p283
sg21
Vstr r0, [r4]
p284
sg5
L927216L
sg6
Nsg23
S'STR'
p285
sg25
S'0xe25f0L'
p286
sg27
Nsba(ibclass
BInstr
p287
(dp288
g2
Nsg17
S'LDREQ   R3, [ret,#8]'
p289
sg19
S'08309405'
p290
sg21
Vldreq r3, [r4, #8]
p291
sg5
L927220L
sg6
Nsg23
S'LDR'
p292
sg25
S'0xe25f4L'
p293
sg27
Nsba(ibclass
BInstr
p294
(dp295
g2
Nsg17
S'STREQB  R0, [R3]'
p296
sg19
S'0000c305'
p297
sg21
Vstrbeq r0, [r3]
p298
sg5
L927224L
sg6
Nsg23
S'STR'
p299
sg25
S'0xe25f8L'
p300
sg27
Nsba(ibclass
BInstr
p301
(dp302
g2
Nsg17
S'MOVEQ   R3, #1'
p303
sg19
S'0130a003'
p304
sg21
Vmoveq r3, #1
p305
sg5
L927228L
sg6
Nsg23
S'MOV'
p306
sg25
S'0xe25fcL'
p307
sg27
Nsba(ibclass
BInstr
p308
(dp309
g2
Nsg17
S'STREQ   R3, [ret]'
p310
sg19
S'00308405'
p311
sg21
Vstreq r3, [r4]
p312
sg5
L927232L
sg6
Nsg23
S'STR'
p313
sg25
S'0xe2600L'
p314
sg27
Nsbasg77
(lp315
S'MOV j, bn'
p316
aS'MOV R1, new_data'
p317
aS'BL BN_bn2bin'
p318
aS'CMP R0, #0'
p319
aS'STR R0, mem'
p320
aS'LDREQ R3, mem'
p321
aS'STREQB R0, mem'
p322
aS'MOVEQ R3, #1'
p323
aS'STREQ R3, mem'
p324
asg87
Nsg5
S'0xe25e0L'
p325
sg89
(lp326
S'0xe25d0L'
p327
aS'0xe2614L'
p328
aS'0xe266cL'
p329
asg6
Nsg91
(lp330
S'0xe2604L'
p331
asg95
Nsg96
Nsg97
S'cdc96cb5728275d3e954aa821a984057'
p332
sg99
S'301a8cff10c625115a72a4955555c045'
p333
sg101
(lp334
g257
ag264
ag271
ag278
ag285
ag292
ag299
ag306
ag313
asg103
Nsba(ibclass
BBasicBlock
p335
(dp336
g12
Nsg13
(lp337
(ibclass
BInstr
p338
(dp339
g2
Nsg17
S'MOV     R0, ret'
p340
sg19
S'0400a0e1'
p341
sg21
Vmov r0, r4
p342
sg5
L927236L
sg6
Nsg23
S'MOV'
p343
sg25
S'0xe2604L'
p344
sg27
Nsba(ibclass
BInstr
p345
(dp346
g2
Nsg17
S'ADD     SP, SP, #8'
p347
sg19
S'08d08de2'
p348
sg21
Vadd sp, sp, #8
p349
sg5
L927240L
sg6
Nsg23
S'ADD'
p350
sg25
S'0xe2608L'
p351
sg27
Nsba(ibclass
BInstr
p352
(dp353
g2
Nsg17
S'LDMFD   SP!, {ret-R8,LR}'
p354
sg19
S'f041bde8'
p355
sg21
Vpop {r4, r5, r6, r7, r8, lr}
p356
sg5
L927244L
sg6
Nsg23
S'LDM'
p357
sg25
S'0xe260cL'
p358
sg27
Nsba(ibclass
BInstr
p359
(dp360
g2
Nsg17
S'BX      LR'
p361
sg19
S'1eff2fe1'
p362
sg21
Vbx lr
p363
sg5
L927248L
sg6
Nsg23
S'BX'
p364
sg25
S'0xe2610L'
p365
sg27
Nsbasg77
(lp366
S'MOV R0, ret'
p367
aS'ADD SP, SP, #8'
p368
aS'LDMFD SP!, {ret-R8,LR}'
p369
aS'BX LR'
p370
asg87
Nsg5
S'0xe2604L'
p371
sg89
(lp372
S'0xe25e0L'
p373
aS'0xe263cL'
p374
aS'0xe26a4L'
p375
asg6
Nsg91
(lp376
sg95
Nsg96
Nsg97
S'bc984d627a05f387655964404c76526b'
p377
sg99
S'ee6f52c0583e5c0b1e93dd0d2a51cf01'
p378
sg101
(lp379
g343
ag350
ag357
ag364
asg103
Nsba(ibclass
BBasicBlock
p380
(dp381
g12
Nsg13
(lp382
(ibclass
BInstr
p383
(dp384
g2
Nsg17
S'LDR     R8, =(aA_int_c - 0x188000)'
p385
sg19
S'b4809fe5'
p386
sg21
Vldr r8, [pc, #0xb4]
p387
sg5
L927252L
sg6
Nsg23
S'LDR'
p388
sg25
S'0xe2614L'
p389
sg27
Nsba(ibclass
BInstr
p390
(dp391
g2
Nsg17
S'ADD     R1, j, #4       ; num'
p392
sg19
S'041080e2'
p393
sg21
Vadd r1, r0, #4
p394
sg5
L927256L
sg6
Nsg23
S'ADD'
p395
sg25
S'0xe2618L'
p396
sg27
Nsba(ibclass
BInstr
p397
(dp398
g2
Nsg17
S'ADD     R8, new_data, R8; "a_int.c"'
p399
sg19
S'088086e0'
p400
sg21
Vadd r8, r6, r8
p401
sg5
L927260L
sg6
Nsg23
S'ADD'
p402
sg25
S'0xe261cL'
p403
sg27
Nsba(ibclass
BInstr
p404
(dp405
g2
Nsg17
S'LDR     j, [ret,#8]     ; str'
p406
sg19
S'080094e5'
p407
sg21
Vldr r0, [r4, #8]
p408
sg5
L927264L
sg6
Nsg23
S'LDR'
p409
sg25
S'0xe2620L'
p410
sg27
Nsba(ibclass
BInstr
p411
(dp412
g2
Nsg17
S'MOV     R2, R8          ; file'
p413
sg19
S'0820a0e1'
p414
sg21
Vmov r2, r8
p415
sg5
L927268L
sg6
Nsg23
S'MOV'
p416
sg25
S'0xe2624L'
p417
sg27
Nsba(ibclass
BInstr
p418
(dp419
g2
Nsg17
S'LDR     R3, =0x1AD      ; line'
p420
sg19
S'a4309fe5'
p421
sg21
Vldr r3, [pc, #0xa4]
p422
sg5
L927272L
sg6
Nsg23
S'LDR'
p423
sg25
S'0xe2628L'
p424
sg27
Nsba(ibclass
BInstr
p425
(dp426
g2
Nsg17
S'BL      CRYPTO_realloc'
p427
sg19
S'ff90fdeb'
p428
sg21
Vbl #0xfff64404
p429
sg5
L927276L
sg6
Nsg23
S'BL'
p430
sg25
S'0xe262cL'
p431
sg27
Nsba(ibclass
BInstr
p432
(dp433
g2
Nsg17
S'SUBS    R6, R0, #0'
p434
sg19
S'006050e2'
p435
sg21
Vsubs r6, r0, #0
p436
sg5
L927280L
sg6
Nsg23
S'SUB'
p437
sg25
S'0xe2630L'
p438
sg27
Nsba(ibclass
BInstr
p439
(dp440
g2
Nsg17
S'STRNE   new_data, [ret,#8]'
p441
sg19
S'08608415'
p442
sg21
Vstrne r6, [r4, #8]
p443
sg5
L927284L
sg6
Nsg23
S'STR'
p444
sg25
S'0xe2634L'
p445
sg27
Nsba(ibclass
BInstr
p446
(dp447
g2
Nsg17
S'BNE     loc_E25E0'
p448
sg19
S'e8ffff1a'
p449
sg21
Vbne #0xffffffa8
p450
sg5
L927288L
sg6
Nsg23
g75
sg25
S'0xe2638L'
p451
sg27
Nsbasg77
(lp452
S'LDR R8, =(aA_int_c - address0)'
p453
aS'ADD R1, j, #4'
p454
aS'ADD R8, new_data, R8'
p455
aS'LDR j, mem'
p456
aS'MOV R2, R8'
p457
aS'LDR R3, =0x1AD'
p458
aS'BL CRYPTO_reregloc'
p459
aS'SUBS R6, R0, #0'
p460
aS'STRNE new_data, mem'
p461
aS'BNE func'
p462
asg87
Nsg5
S'0xe2614L'
p463
sg89
(lp464
S'0xe25d0L'
p465
aS'0xe2690L'
p466
asg6
Nsg91
(lp467
S'0xe25e0L'
p468
aS'0xe263cL'
p469
asg95
Nsg96
Nsg97
S'fa3e44e63424b0ceb90332ebbbd7f938'
p470
sg99
S'ffd069805764c9666a6dafd72e7e69aa'
p471
sg101
(lp472
g388
ag395
ag402
ag409
ag416
ag423
ag430
ag437
ag444
ag75
asg103
Nsba(ibclass
BBasicBlock
p473
(dp474
g12
Nsg13
(lp475
(ibclass
BInstr
p476
(dp477
g2
Nsg17
S'LDR     R12, =0x1AF'
p478
sg19
S'94c09fe5'
p479
sg21
Vldr ip, [pc, #0x94]
p480
sg5
L927292L
sg6
Nsg23
S'LDR'
p481
sg25
S'0xe263cL'
p482
sg27
Nsba(ibclass
BInstr
p483
(dp484
g2
Nsg17
S'MOV     R3, R8          ; file'
p485
sg19
S'0830a0e1'
p486
sg21
Vmov r3, r8
p487
sg5
L927296L
sg6
Nsg23
S'MOV'
p488
sg25
S'0xe2640L'
p489
sg27
Nsba(ibclass
BInstr
p490
(dp491
g2
Nsg17
S'MOV     R0, #0xD        ; lib'
p492
sg19
S'0d00a0e3'
p493
sg21
Vmov r0, #0xd
p494
sg5
L927300L
sg6
Nsg23
S'MOV'
p495
sg25
S'0xe2644L'
p496
sg27
Nsba(ibclass
BInstr
p497
(dp498
g2
Nsg17
S'MOV     R1, #0x8B       ; func'
p499
sg19
S'8b10a0e3'
p500
sg21
Vmov r1, #0x8b
p501
sg5
L927304L
sg6
Nsg23
S'MOV'
p502
sg25
S'0xe2648L'
p503
sg27
Nsba(ibclass
BInstr
p504
(dp505
g2
Nsg17
S'MOV     R2, #0x41       ; reason'
p506
sg19
S'4120a0e3'
p507
sg21
Vmov r2, #0x41
p508
sg5
L927308L
sg6
Nsg23
S'MOV'
p509
sg25
S'0xe264cL'
p510
sg27
Nsba(ibclass
BInstr
p511
(dp512
g2
Nsg17
S'STR     R12, [SP,#0x20+line]; line'
p513
sg19
S'00c08de5'
p514
sg21
Vstr ip, [sp]
p515
sg5
L927312L
sg6
Nsg23
S'STR'
p516
sg25
S'0xe2650L'
p517
sg27
Nsba(ibclass
BInstr
p518
(dp519
g2
Nsg17
S'BL      ERR_put_error'
p520
sg19
S'3bb9ffeb'
p521
sg21
Vbl #0xfffee4f4
p522
sg5
L927316L
sg6
Nsg23
S'BL'
p523
sg25
S'0xe2654L'
p524
sg27
Nsba(ibclass
BInstr
p525
(dp526
g2
Nsg17
S'CMP     ai, ret'
p527
sg19
S'040057e1'
p528
sg21
Vcmp r7, r4
p529
sg5
L927320L
sg6
Nsg23
S'CMP'
p530
sg25
S'0xe2658L'
p531
sg27
Nsba(ibclass
BInstr
p532
(dp533
g2
Nsg17
S'MOVNE   R0, ret         ; a'
p534
sg19
S'0400a011'
p535
sg21
Vmovne r0, r4
p536
sg5
L927324L
sg6
Nsg23
S'MOV'
p537
sg25
S'0xe265cL'
p538
sg27
Nsba(ibclass
BInstr
p539
(dp540
g2
Nsg17
S'BLNE    ASN1_STRING_free'
p541
sg19
S'375c001b'
p542
sg21
Vblne #0x170e4
p543
sg5
L927328L
sg6
Nsg23
S'BL'
p544
sg25
S'0xe2660L'
p545
sg27
Nsba(ibclass
BInstr
p546
(dp547
g2
Nsg17
S'MOV     ret, new_data'
p548
sg19
S'0640a0e1'
p549
sg21
Vmov r4, r6
p550
sg5
L927332L
sg6
Nsg23
S'MOV'
p551
sg25
S'0xe2664L'
p552
sg27
Nsba(ibclass
BInstr
p553
(dp554
g2
Nsg17
S'B       loc_E2604'
p555
sg19
S'e5ffffea'
p556
sg21
Vb #0xffffff9c
p557
sg5
L927336L
sg6
Nsg23
g75
sg25
S'0xe2668L'
p558
sg27
Nsbasg77
(lp559
S'LDR R12, =0x1AF'
p560
aS'MOV R3, R8'
p561
aS'MOV R0, #0xD'
p562
aS'MOV R1, #0x8B'
p563
aS'MOV R2, #0x41'
p564
aS'STR R12, mem'
p565
aS'BL ERR_put_error'
p566
aS'CMP ai, ret'
p567
aS'MOVNE R0, ret'
p568
aS'BLNE ASN1_STRING_free'
p569
aS'MOV ret, new_data'
p570
aS'B func'
p571
asg87
Nsg5
S'0xe263cL'
p572
sg89
(lp573
S'0xe2614L'
p574
asg6
Nsg91
(lp575
S'0xe2604L'
p576
asg95
Nsg96
Nsg97
S'6e6f2571db0e7a90ca9cf50ed6f6a6e0'
p577
sg99
S'a079e046c341cdfddd0c206145589e1f'
p578
sg101
(lp579
g481
ag488
ag495
ag502
ag509
ag516
ag523
ag530
ag537
ag544
ag551
ag75
asg103
Nsba(ibclass
BBasicBlock
p580
(dp581
g12
Nsg13
(lp582
(ibclass
BInstr
p583
(dp584
g2
Nsg17
S'ADD     R3, j, #7'
p585
sg19
S'073080e2'
p586
sg21
Vadd r3, r0, #7
p587
sg5
L927340L
sg6
Nsg23
S'ADD'
p588
sg25
S'0xe266cL'
p589
sg27
Nsba(ibclass
BInstr
p590
(dp591
g2
Nsg17
S'MOVLT   j, R3'
p592
sg19
S'0300a0b1'
p593
sg21
Vmovlt r0, r3
p594
sg5
L927344L
sg6
Nsg23
S'MOV'
p595
sg25
S'0xe2670L'
p596
sg27
Nsba(ibclass
BInstr
p597
(dp598
g2
Nsg17
S'MOV     j, j,ASR#3'
p599
sg19
S'c001a0e1'
p600
sg21
Vasr r0, r0, #3
p601
sg5
L927348L
sg6
Nsg23
S'MOV'
p602
sg25
S'0xe2674L'
p603
sg27
Nsba(ibclass
BInstr
p604
(dp605
g2
Nsg17
S'LDR     R2, [ret]'
p606
sg19
S'002094e5'
p607
sg21
Vldr r2, [r4]
p608
sg5
L927352L
sg6
Nsg23
S'LDR'
p609
sg25
S'0xe2678L'
p610
sg27
Nsba(ibclass
BInstr
p611
(dp612
g2
Nsg17
S'ADD     R3, R0, #4'
p613
sg19
S'043080e2'
p614
sg21
Vadd r3, r0, #4
p615
sg5
L927356L
sg6
Nsg23
S'ADD'
p616
sg25
S'0xe267cL'
p617
sg27
Nsba(ibclass
BInstr
p618
(dp619
g2
Nsg17
S'CMP     R2, R3'
p620
sg19
S'030052e1'
p621
sg21
Vcmp r2, r3
p622
sg5
L927360L
sg6
Nsg23
S'CMP'
p623
sg25
S'0xe2680L'
p624
sg27
Nsba(ibclass
BInstr
p625
(dp626
g2
Nsg17
S'ADD     R0, R0, #1'
p627
sg19
S'010080e2'
p628
sg21
Vadd r0, r0, #1
p629
sg5
L927364L
sg6
Nsg23
S'ADD'
p630
sg25
S'0xe2684L'
p631
sg27
Nsba(ibclass
BInstr
p632
(dp633
g2
Nsg17
S'LDRGT   R6, [ret,#8]'
p634
sg19
S'086094c5'
p635
sg21
Vldrgt r6, [r4, #8]
p636
sg5
L927368L
sg6
Nsg23
S'LDR'
p637
sg25
S'0xe2688L'
p638
sg27
Nsba(ibclass
BInstr
p639
(dp640
g2
Nsg17
S'BGT     loc_E25E0'
p641
sg19
S'd3ffffca'
p642
sg21
Vbgt #0xffffff54
p643
sg5
L927372L
sg6
Nsg23
g75
sg25
S'0xe268cL'
p644
sg27
Nsbasg77
(lp645
S'ADD R3, j, #7'
p646
aS'MOVLT j, R3'
p647
aS'MOV j, j,ASR#3'
p648
aS'LDR R2, mem'
p649
aS'ADD R3, R0, #4'
p650
aS'CMP R2, R3'
p651
aS'ADD R0, R0, #1'
p652
aS'LDRGT R6, mem'
p653
aS'BGT func'
p654
asg87
Nsg5
S'0xe266cL'
p655
sg89
(lp656
S'0xe25a4L'
p657
asg6
Nsg91
(lp658
S'0xe25e0L'
p659
aS'0xe2690L'
p660
asg95
Nsg96
Nsg97
S'70f7d2b6dbbf02f3e4b51a05644ad797'
p661
sg99
S'dd55640611b8ecc594d2c390b4bd08e5'
p662
sg101
(lp663
g588
ag595
ag602
ag609
ag616
ag623
ag630
ag637
ag75
asg103
Nsba(ibclass
BBasicBlock
p664
(dp665
g12
Nsg13
(lp666
(ibclass
BInstr
p667
(dp668
g2
Nsg17
S'B       loc_E2614'
p669
sg19
S'dfffffea'
p670
sg21
Vb #0xffffff84
p671
sg5
L927376L
sg6
Nsg23
g75
sg25
S'0xe2690L'
p672
sg27
Nsbasg77
(lp673
S'B func'
p674
asg87
Nsg5
S'0xe2690L'
p675
sg89
(lp676
S'0xe266cL'
p677
asg6
Nsg91
(lp678
S'0xe2614L'
p679
asg95
Nsg96
Nsg97
S'9d5ed678fe57bcca610140957afab571'
p680
sg99
S'071b057c420e304c628380fd3541c021'
p681
sg101
(lp682
g75
asg103
Nsba(ibclass
BBasicBlock
p683
(dp684
g12
Nsg13
(lp685
(ibclass
BInstr
p686
(dp687
g2
Nsg17
S'MOV     R0, #2          ; type'
p688
sg19
S'0200a0e3'
p689
sg21
Vmov r0, #2
p690
sg5
L927380L
sg6
Nsg23
S'MOV'
p691
sg25
S'0xe2694L'
p692
sg27
Nsba(ibclass
BInstr
p693
(dp694
g2
Nsg17
S'BL      ASN1_STRING_type_new'
p695
sg19
S'525c00eb'
p696
sg21
Vbl #0x17150
p697
sg5
L927384L
sg6
Nsg23
S'BL'
p698
sg25
S'0xe2698L'
p699
sg27
Nsba(ibclass
BInstr
p700
(dp701
g2
Nsg17
S'SUBS    ret, R0, #0'
p702
sg19
S'004050e2'
p703
sg21
Vsubs r4, r0, #0
p704
sg5
L927388L
sg6
Nsg23
S'SUB'
p705
sg25
S'0xe269cL'
p706
sg27
Nsba(ibclass
BInstr
p707
(dp708
g2
Nsg17
S'BNE     loc_E25A4'
p709
sg19
S'bfffff1a'
p710
sg21
Vbne #0xffffff04
p711
sg5
L927392L
sg6
Nsg23
g75
sg25
S'0xe26a0L'
p712
sg27
Nsbasg77
(lp713
S'MOV R0, #2'
p714
aS'BL ASN1_STRING_type_new'
p715
aS'SUBS ret, R0, #0'
p716
aS'BNE func'
p717
asg87
Nsg5
S'0xe2694L'
p718
sg89
(lp719
S'0xe2584L'
p720
asg6
Nsg91
(lp721
S'0xe25a4L'
p722
aS'0xe26a4L'
p723
asg95
Nsg96
Nsg97
S'd712ad407e365d6dc92067cbbdc09d0b'
p724
sg99
S'12dd930883230c0b37d2b25f82f7a05a'
p725
sg101
(lp726
g691
ag698
ag705
ag75
asg103
Nsba(ibclass
BBasicBlock
p727
(dp728
g12
Nsg13
(lp729
(ibclass
BInstr
p730
(dp731
g2
Nsg17
S'LDR     R3, =(aA_int_c - 0x188000)'
p732
sg19
S'24309fe5'
p733
sg21
Vldr r3, [pc, #0x24]
p734
sg5
L927396L
sg6
Nsg23
S'LDR'
p735
sg25
S'0xe26a4L'
p736
sg27
Nsba(ibclass
BInstr
p737
(dp738
g2
Nsg17
S'LDR     R12, =0x1A3'
p739
sg19
S'2cc09fe5'
p740
sg21
Vldr ip, [pc, #0x2c]
p741
sg5
L927400L
sg6
Nsg23
S'LDR'
p742
sg25
S'0xe26a8L'
p743
sg27
Nsba(ibclass
BInstr
p744
(dp745
g2
Nsg17
S'ADD     R3, R6, R3      ; "a_int.c"'
p746
sg19
S'033086e0'
p747
sg21
Vadd r3, r6, r3
p748
sg5
L927404L
sg6
Nsg23
S'ADD'
p749
sg25
S'0xe26acL'
p750
sg27
Nsba(ibclass
BInstr
p751
(dp752
g2
Nsg17
S'MOV     R0, #0xD        ; lib'
p753
sg19
S'0d00a0e3'
p754
sg21
Vmov r0, #0xd
p755
sg5
L927408L
sg6
Nsg23
S'MOV'
p756
sg25
S'0xe26b0L'
p757
sg27
Nsba(ibclass
BInstr
p758
(dp759
g2
Nsg17
S'MOV     R1, #0x8B       ; func'
p760
sg19
S'8b10a0e3'
p761
sg21
Vmov r1, #0x8b
p762
sg5
L927412L
sg6
Nsg23
S'MOV'
p763
sg25
S'0xe26b4L'
p764
sg27
Nsba(ibclass
BInstr
p765
(dp766
g2
Nsg17
S'MOV     R2, #0x3A       ; reason'
p767
sg19
S'3a20a0e3'
p768
sg21
Vmov r2, #0x3a
p769
sg5
L927416L
sg6
Nsg23
S'MOV'
p770
sg25
S'0xe26b8L'
p771
sg27
Nsba(ibclass
BInstr
p772
(dp773
g2
Nsg17
S'STR     R12, [SP,#0x20+line]; line'
p774
sg19
S'00c08de5'
p775
sg21
Vstr ip, [sp]
p776
sg5
L927420L
sg6
Nsg23
S'STR'
p777
sg25
S'0xe26bcL'
p778
sg27
Nsba(ibclass
BInstr
p779
(dp780
g2
Nsg17
S'BL      ERR_put_error'
p781
sg19
S'20b9ffeb'
p782
sg21
Vbl #0xfffee488
p783
sg5
L927424L
sg6
Nsg23
S'BL'
p784
sg25
S'0xe26c0L'
p785
sg27
Nsba(ibclass
BInstr
p786
(dp787
g2
Nsg17
S'B       loc_E2604'
p788
sg19
S'ceffffea'
p789
sg21
Vb #0xffffff40
p790
sg5
L927428L
sg6
Nsg23
g75
sg25
S'0xe26c4L'
p791
sg27
Nsbasg77
(lp792
S'LDR R3, =(aA_int_c - address0)'
p793
aS'LDR R12, =0x1A3'
p794
aS'ADD R3, R6, R3'
p795
aS'MOV R0, #0xD'
p796
aS'MOV R1, #0x8B'
p797
aS'MOV R2, #0x3A'
p798
aS'STR R12, mem'
p799
aS'BL ERR_put_error'
p800
aS'B func'
p801
asg87
Nsg5
S'0xe26a4L'
p802
sg89
(lp803
S'0xe2694L'
p804
asg6
Nsg91
(lp805
S'0xe2604L'
p806
asg95
Nsg96
Nsg97
S'629bdcc4b4759840cfba3eb3682d03ae'
p807
sg99
S'1eadba5d2d397b5d3cb4dc8e56475015'
p808
sg101
(lp809
g735
ag742
ag749
ag756
ag763
ag770
ag777
ag784
ag75
asg103
Nsbasb.