(ibclass
BFunc
p0
(dp1
S'hash'
p2
NsS'name'
p3
S'dtls1_listen'
p4
sS'start_address'
p5
L221260L
sS'flag'
p6
NsS'program'
p7
NsS'bbs'
p8
(lp9
(ibclass
BBasicBlock
p10
(dp11
S'function'
p12
NsS'binstrs'
p13
(lp14
(ibclass
BInstr
p15
(dp16
g2
NsS'disasm'
p17
S'STMFD   SP!, {R4-R6,LR}'
p18
sS'bytes'
p19
S'70402de9'
p20
sS'disasm_striped'
p21
Vpush {r4, r5, r6, lr}
p22
sg5
L221260L
sg6
NsS'mnem'
p23
S'STM'
p24
sS'address'
p25
S'0x3604cL'
p26
sS'basicblock'
p27
Nsba(ibclass
BInstr
p28
(dp29
g2
Nsg17
S'MOV     R4, s'
p30
sg19
S'0040a0e1'
p31
sg21
Vmov r4, r0
p32
sg5
L221264L
sg6
Nsg23
S'MOV'
p33
sg25
S'0x36050L'
p34
sg27
Nsba(ibclass
BInstr
p35
(dp36
g2
Nsg17
S'MOV     R6, client'
p37
sg19
S'0160a0e1'
p38
sg21
Vmov r6, r1
p39
sg5
L221268L
sg6
Nsg23
S'MOV'
p40
sg25
S'0x36054L'
p41
sg27
Nsba(ibclass
BInstr
p42
(dp43
g2
Nsg17
S'BL      SSL_clear'
p44
sg19
S'3e2100eb'
p45
sg21
Vbl #0x8500
p46
sg5
L221272L
sg6
Nsg23
S'BL'
p47
sg25
S'0x36058L'
p48
sg27
Nsba(ibclass
BInstr
p49
(dp50
g2
Nsg17
S'MOV     R1, #0x20       ; cmd'
p51
sg19
S'2010a0e3'
p52
sg21
Vmov r1, #0x20
p53
sg5
L221276L
sg6
Nsg23
S'MOV'
p54
sg25
S'0x3605cL'
p55
sg27
Nsba(ibclass
BInstr
p56
(dp57
g2
Nsg17
S'MOV     R2, #0x2000     ; larg'
p58
sg19
S'022aa0e3'
p59
sg21
Vmov r2, #0x2000
p60
sg5
L221280L
sg6
Nsg23
S'MOV'
p61
sg25
S'0x36060L'
p62
sg27
Nsba(ibclass
BInstr
p63
(dp64
g2
Nsg17
S'MOV     R3, #0          ; parg'
p65
sg19
S'0030a0e3'
p66
sg21
Vmov r3, #0
p67
sg5
L221284L
sg6
Nsg23
S'MOV'
p68
sg25
S'0x36064L'
p69
sg27
Nsba(ibclass
BInstr
p70
(dp71
g2
Nsg17
S'MOV     R0, s           ; s'
p72
sg19
S'0400a0e1'
p73
sg21
Vmov r0, r4
p74
sg5
L221288L
sg6
Nsg23
S'MOV'
p75
sg25
S'0x36068L'
p76
sg27
Nsba(ibclass
BInstr
p77
(dp78
g2
Nsg17
S'BL      SSL_ctrl'
p79
sg19
S'b71400eb'
p80
sg21
Vbl #0x52e4
p81
sg5
L221292L
sg6
Nsg23
S'BL'
p82
sg25
S'0x3606cL'
p83
sg27
Nsba(ibclass
BInstr
p84
(dp85
g2
Nsg17
S'LDR     R3, [s,#0x5C]'
p86
sg19
S'5c3094e5'
p87
sg21
Vldr r3, [r4, #0x5c]
p88
sg5
L221296L
sg6
Nsg23
S'LDR'
p89
sg25
S'0x36070L'
p90
sg27
Nsba(ibclass
BInstr
p91
(dp92
g2
Nsg17
S'MOV     R5, #1'
p93
sg19
S'0150a0e3'
p94
sg21
Vmov r5, #1
p95
sg5
L221300L
sg6
Nsg23
S'MOV'
p96
sg25
S'0x36074L'
p97
sg27
Nsba(ibclass
BInstr
p98
(dp99
g2
Nsg17
S'STR     R5, [R3,#0x254]'
p100
sg19
S'545283e5'
p101
sg21
Vstr r5, [r3, #0x254]
p102
sg5
L221304L
sg6
Nsg23
S'STR'
p103
sg25
S'0x36078L'
p104
sg27
Nsba(ibclass
BInstr
p105
(dp106
g2
Nsg17
S'MOV     R0, s           ; s'
p107
sg19
S'0400a0e1'
p108
sg21
Vmov r0, r4
p109
sg5
L221308L
sg6
Nsg23
S'MOV'
p110
sg25
S'0x3607cL'
p111
sg27
Nsba(ibclass
BInstr
p112
(dp113
g2
Nsg17
S'BL      SSL_accept'
p114
sg19
S'301a00eb'
p115
sg21
Vbl #0x68c8
p116
sg5
L221312L
sg6
Nsg23
S'BL'
p117
sg25
S'0x36080L'
p118
sg27
Nsba(ibclass
BInstr
p119
(dp120
g2
Nsg17
S'CMP     R0, #0'
p121
sg19
S'000050e3'
p122
sg21
Vcmp r0, #0
p123
sg5
L221316L
sg6
Nsg23
S'CMP'
p124
sg25
S'0x36084L'
p125
sg27
Nsba(ibclass
BInstr
p126
(dp127
g2
Nsg17
S'BLE     loc_360A8'
p128
sg19
S'060000da'
p129
sg21
Vble #0x20
p130
sg5
L221320L
sg6
Nsg23
S'B'
p131
sg25
S'0x36088L'
p132
sg27
NsbasS'disasm_list'
p133
(lp134
S'STMFD SP!, {R4-R6,LR}'
p135
aS'MOV R4, s'
p136
aS'MOV R6, regient'
p137
aS'BL SSL_regear'
p138
aS'MOV R1, #0x20'
p139
aS'MOV R2, #0x2000'
p140
aS'MOV R3, #0'
p141
aS'MOV R0, s'
p142
aS'BL SSL_ctrl'
p143
aS'LDR R3, mem'
p144
aS'MOV R5, #1'
p145
aS'STR R5, mem'
p146
aS'MOV R0, s'
p147
aS'BL SSL_accept'
p148
aS'CMP R0, #0'
p149
aS'BLE func'
p150
asS'end_address'
p151
Nsg5
S'0x3604cL'
p152
sS'preds'
p153
(lp154
sg6
NsS'succs'
p155
(lp156
S'0x3608cL'
p157
aS'0x360a8L'
p158
asS'hash_v3'
p159
NsS'flag_v2'
p160
NsS'hash_v1'
p161
S'02b7d1bfd9391763b853298cf2dcfbd4'
p162
sS'hash_v2'
p163
S'8ff60220c9391a34b280fb7ba70b059f'
p164
sS'mnen_list'
p165
(lp166
g24
ag33
ag40
ag47
ag54
ag61
ag68
ag75
ag82
ag89
ag96
ag103
ag110
ag117
ag124
ag131
asS'neighbour_disasm_list'
p167
Nsba(ibclass
BBasicBlock
p168
(dp169
g12
Nsg13
(lp170
(ibclass
BInstr
p171
(dp172
g2
Nsg17
S'MOV     ret, s          ; s'
p173
sg19
S'0400a0e1'
p174
sg21
Vmov r0, r4
p175
sg5
L221324L
sg6
Nsg23
S'MOV'
p176
sg25
S'0x3608cL'
p177
sg27
Nsba(ibclass
BInstr
p178
(dp179
g2
Nsg17
S'BL      SSL_get_rbio'
p180
sg19
S'601400eb'
p181
sg21
Vbl #0x5188
p182
sg5
L221328L
sg6
Nsg23
S'BL'
p183
sg25
S'0x36090L'
p184
sg27
Nsba(ibclass
BInstr
p185
(dp186
g2
Nsg17
S'MOV     R3, client'
p187
sg19
S'0630a0e1'
p188
sg21
Vmov r3, r6
p189
sg5
L221332L
sg6
Nsg23
S'MOV'
p190
sg25
S'0x36094L'
p191
sg27
Nsba(ibclass
BInstr
p192
(dp193
g2
Nsg17
S'MOV     R1, #0x2E'
p194
sg19
S'2e10a0e3'
p195
sg21
Vmov r1, #0x2e
p196
sg5
L221336L
sg6
Nsg23
S'MOV'
p197
sg25
S'0x36098L'
p198
sg27
Nsba(ibclass
BInstr
p199
(dp200
g2
Nsg17
S'MOV     R2, #0'
p201
sg19
S'0020a0e3'
p202
sg21
Vmov r2, #0
p203
sg5
L221340L
sg6
Nsg23
S'MOV'
p204
sg25
S'0x3609cL'
p205
sg27
Nsba(ibclass
BInstr
p206
(dp207
g2
Nsg17
S'BL      BIO_ctrl'
p208
sg19
S'd568ffeb'
p209
sg21
Vbl #0xfffda35c
p210
sg5
L221344L
sg6
Nsg23
S'BL'
p211
sg25
S'0x360a0L'
p212
sg27
Nsba(ibclass
BInstr
p213
(dp214
g2
Nsg17
S'MOV     R0, R5'
p215
sg19
S'0500a0e1'
p216
sg21
Vmov r0, r5
p217
sg5
L221348L
sg6
Nsg23
S'MOV'
p218
sg25
S'0x360a4L'
p219
sg27
Nsbasg133
(lp220
S'MOV ret, s'
p221
aS'BL SSL_get_rbio'
p222
aS'MOV R3, regient'
p223
aS'MOV R1, #0x2E'
p224
aS'MOV R2, #0'
p225
aS'BL BIO_ctrl'
p226
aS'MOV R0, R5'
p227
asg151
Nsg5
S'0x3608cL'
p228
sg153
(lp229
S'0x3604cL'
p230
asg6
Nsg155
(lp231
S'0x360a8L'
p232
asg159
Nsg160
Nsg161
S'476a449ab41a100955b603e015787ca2'
p233
sg163
S'332ad149e5b3d4aa30c48fa8d4540b02'
p234
sg165
(lp235
g176
ag183
ag190
ag197
ag204
ag211
ag218
asg167
Nsba(ibclass
BBasicBlock
p236
(dp237
g12
Nsg13
(lp238
(ibclass
BInstr
p239
(dp240
g2
Nsg17
S'LDMFD   SP!, {s-client,LR}'
p241
sg19
S'7040bde8'
p242
sg21
Vpop {r4, r5, r6, lr}
p243
sg5
L221352L
sg6
Nsg23
S'LDM'
p244
sg25
S'0x360a8L'
p245
sg27
Nsba(ibclass
BInstr
p246
(dp247
g2
Nsg17
S'BX      LR'
p248
sg19
S'1eff2fe1'
p249
sg21
Vbx lr
p250
sg5
L221356L
sg6
Nsg23
S'BX'
p251
sg25
S'0x360acL'
p252
sg27
Nsbasg133
(lp253
S'LDMFD SP!, {s-regient,LR}'
p254
aS'BX LR'
p255
asg151
Nsg5
S'0x360a8L'
p256
sg153
(lp257
S'0x3604cL'
p258
aS'0x3608cL'
p259
asg6
Nsg155
(lp260
sg159
Nsg160
Nsg161
S'1bbf04f23edc7b30d215c55a7294459f'
p261
sg163
S'3b2c85d0e100cb653d4c0810b9e7984d'
p262
sg165
(lp263
g244
ag251
asg167
Nsbasb.