(ibclass
BFunc
p0
(dp1
S'hash'
p2
NsS'name'
p3
S'dtls1_preprocess_fragment'
p4
sS'start_address'
p5
L233764L
sS'flag'
p6
NsS'program'
p7
NsS'bbs'
p8
(lp9
(ibclass
BBasicBlock
p10
(dp11
S'function'
p12
NsS'binstrs'
p13
(lp14
(ibclass
BInstr
p15
(dp16
g2
NsS'disasm'
p17
S'STMFD   SP!, {R4-R8,LR}'
p18
sS'bytes'
p19
S'f0412de9'
p20
sS'disasm_striped'
p21
Vpush {r4, r5, r6, r7, r8, lr}
p22
sg5
L233764L
sg6
NsS'mnem'
p23
S'STM'
p24
sS'address'
p25
S'0x39124L'
p26
sS'basicblock'
p27
Nsba(ibclass
BInstr
p28
(dp29
g2
Nsg17
S'MOV     R5, msg_hdr'
p30
sg19
S'0150a0e1'
p31
sg21
Vmov r5, r1
p32
sg5
L233768L
sg6
Nsg23
S'MOV'
p33
sg25
S'0x39128L'
p34
sg27
Nsba(ibclass
BInstr
p35
(dp36
g2
Nsg17
S'LDR     R3, [R5,#0xC]'
p37
sg19
S'0c3095e5'
p38
sg21
Vldr r3, [r5, #0xc]
p39
sg5
L233772L
sg6
Nsg23
S'LDR'
p40
sg25
S'0x3912cL'
p41
sg27
Nsba(ibclass
BInstr
p42
(dp43
g2
Nsg17
S'LDR     msg_hdr, [msg_hdr,#0x10]'
p44
sg19
S'101091e5'
p45
sg21
Vldr r1, [r1, #0x10]
p46
sg5
L233776L
sg6
Nsg23
S'LDR'
p47
sg25
S'0x39130L'
p48
sg27
Nsba(ibclass
BInstr
p49
(dp50
g2
Nsg17
S'LDR     msg_len, [msg_hdr,#4]'
p51
sg19
S'046095e5'
p52
sg21
Vldr r6, [r5, #4]
p53
sg5
L233780L
sg6
Nsg23
S'LDR'
p54
sg25
S'0x39134L'
p55
sg27
Nsba(ibclass
BInstr
p56
(dp57
g2
Nsg17
S'ADD     R3, R1, R3'
p58
sg19
S'033081e0'
p59
sg21
Vadd r3, r1, r3
p60
sg5
L233784L
sg6
Nsg23
S'ADD'
p61
sg25
S'0x39138L'
p62
sg27
Nsba(ibclass
BInstr
p63
(dp64
g2
Nsg17
S'LDR     R4, =($_GLOBAL_OFFSET_TABLE_ - 0x39150)'
p65
sg19
S'24419fe5'
p66
sg21
Vldr r4, [pc, #0x124]
p67
sg5
L233788L
sg6
Nsg23
S'LDR'
p68
sg25
S'0x3913cL'
p69
sg27
Nsba(ibclass
BInstr
p70
(dp71
g2
Nsg17
S'CMP     msg_len, R3'
p72
sg19
S'030056e1'
p73
sg21
Vcmp r6, r3
p74
sg5
L233792L
sg6
Nsg23
S'CMP'
p75
sg25
S'0x39140L'
p76
sg27
Nsba(ibclass
BInstr
p77
(dp78
g2
Nsg17
S'SUB     SP, SP, #8'
p79
sg19
S'08d04de2'
p80
sg21
Vsub sp, sp, #8
p81
sg5
L233796L
sg6
Nsg23
S'SUB'
p82
sg25
S'0x39144L'
p83
sg27
Nsba(ibclass
BInstr
p84
(dp85
g2
Nsg17
S'ADD     R4, PC, R4 ; $_GLOBAL_OFFSET_TABLE_'
p86
sg19
S'04408fe0'
p87
sg21
Vadd r4, pc, r4
p88
sg5
L233800L
sg6
Nsg23
S'ADD'
p89
sg25
S'0x39148L'
p90
sg27
Nsba(ibclass
BInstr
p91
(dp92
g2
Nsg17
S'MOV     R7, s'
p93
sg19
S'0070a0e1'
p94
sg21
Vmov r7, r0
p95
sg5
L233804L
sg6
Nsg23
S'MOV'
p96
sg25
S'0x3914cL'
p97
sg27
Nsba(ibclass
BInstr
p98
(dp99
g2
Nsg17
S'BCC     loc_391D4'
p100
sg19
S'1f00003a'
p101
sg21
Vblo #0x84
p102
sg5
L233808L
sg6
Nsg23
S'B'
p103
sg25
S'0x39150L'
p104
sg27
NsbasS'disasm_list'
p105
(lp106
S'STMFD SP!, {R4-R8,LR}'
p107
aS'MOV R5, msg_hdr'
p108
aS'LDR R3, mem'
p109
aS'LDR msg_hdr, mem'
p110
aS'LDR msg_len, mem'
p111
aS'ADD R3, R1, R3'
p112
aS'LDR R4, =($_GLOBAL_OFFSET_TABLE_ - address)'
p113
aS'CMP msg_len, R3'
p114
aS'SUB SP, SP, #8'
p115
aS'ADD R4, PC, R4'
p116
aS'MOV R7, s'
p117
aS'BCC func'
p118
asS'end_address'
p119
Nsg5
S'0x39124L'
p120
sS'preds'
p121
(lp122
sg6
NsS'succs'
p123
(lp124
S'0x39154L'
p125
aS'0x391d4L'
p126
asS'hash_v3'
p127
NsS'flag_v2'
p128
NsS'hash_v1'
p129
S'42c775c75b9a15f0c570e7b2d846a4d9'
p130
sS'hash_v2'
p131
S'4a97f2516b3b2c32e22b2efcf6c07e14'
p132
sS'mnen_list'
p133
(lp134
g24
ag33
ag40
ag47
ag54
ag61
ag68
ag75
ag82
ag89
ag96
ag103
asS'neighbour_disasm_list'
p135
Nsba(ibclass
BBasicBlock
p136
(dp137
g12
Nsg13
(lp138
(ibclass
BInstr
p139
(dp140
g2
Nsg17
S'CMP     R3, max'
p141
sg19
S'020053e1'
p142
sg21
Vcmp r3, r2
p143
sg5
L233812L
sg6
Nsg23
S'CMP'
p144
sg25
S'0x39154L'
p145
sg27
Nsba(ibclass
BInstr
p146
(dp147
g2
Nsg17
S'BHI     loc_391A4'
p148
sg19
S'1100008a'
p149
sg21
Vbhi #0x4c
p150
sg5
L233816L
sg6
Nsg23
g103
sg25
S'0x39158L'
p151
sg27
Nsbasg105
(lp152
S'CMP R3, mreg'
p153
aS'BHI func'
p154
asg119
Nsg5
S'0x39154L'
p155
sg121
(lp156
S'0x39124L'
p157
asg6
Nsg123
(lp158
S'0x3915cL'
p159
aS'0x391a4L'
p160
asg127
Nsg128
Nsg129
S'c78fd620a449e3c979d3f3ec12d4ee88'
p161
sg131
S'45dd07cb73ff10e4b8a6dd7832ca318c'
p162
sg133
(lp163
g144
ag103
asg135
Nsba(ibclass
BBasicBlock
p164
(dp165
g12
Nsg13
(lp166
(ibclass
BInstr
p167
(dp168
g2
Nsg17
S'LDR     R3, [R0,#0x5C]'
p169
sg19
S'5c3090e5'
p170
sg21
Vldr r3, [r0, #0x5c]
p171
sg5
L233820L
sg6
Nsg23
S'LDR'
p172
sg25
S'0x3915cL'
p173
sg27
Nsba(ibclass
BInstr
p174
(dp175
g2
Nsg17
S'LDR     R8, [R3,#0x298]'
p176
sg19
S'988293e5'
p177
sg21
Vldr r8, [r3, #0x298]
p178
sg5
L233824L
sg6
Nsg23
S'LDR'
p179
sg25
S'0x39160L'
p180
sg27
Nsba(ibclass
BInstr
p181
(dp182
g2
Nsg17
S'CMP     R8, #0'
p183
sg19
S'000058e3'
p184
sg21
Vcmp r8, #0
p185
sg5
L233828L
sg6
Nsg23
S'CMP'
p186
sg25
S'0x39164L'
p187
sg27
Nsba(ibclass
BInstr
p188
(dp189
g2
Nsg17
S'BEQ     loc_391FC'
p190
sg19
S'2300000a'
p191
sg21
Vbeq #0x94
p192
sg5
L233832L
sg6
Nsg23
g103
sg25
S'0x39168L'
p193
sg27
Nsbasg105
(lp194
S'LDR R3, mem'
p195
aS'LDR R8, mem'
p196
aS'CMP R8, #0'
p197
aS'BEQ func'
p198
asg119
Nsg5
S'0x3915cL'
p199
sg121
(lp200
S'0x39154L'
p201
asg6
Nsg123
(lp202
S'0x3916cL'
p203
aS'0x391fcL'
p204
asg127
Nsg128
Nsg129
S'd9812e74326a7ebe01ae9e2a00bbb5ee'
p205
sg131
S'f320a1aac00399d550f1714b8c5d76d7'
p206
sg133
(lp207
g172
ag179
ag186
ag103
asg135
Nsba(ibclass
BBasicBlock
p208
(dp209
g12
Nsg13
(lp210
(ibclass
BInstr
p211
(dp212
g2
Nsg17
S'LDR     R3, [R3,#0x290]'
p213
sg19
S'903293e5'
p214
sg21
Vldr r3, [r3, #0x290]
p215
sg5
L233836L
sg6
Nsg23
S'LDR'
p216
sg25
S'0x3916cL'
p217
sg27
Nsba(ibclass
BInstr
p218
(dp219
g2
Nsg17
S'CMP     R3, msg_len'
p220
sg19
S'060053e1'
p221
sg21
Vcmp r3, r6
p222
sg5
L233840L
sg6
Nsg23
S'CMP'
p223
sg25
S'0x39170L'
p224
sg27
Nsba(ibclass
BInstr
p225
(dp226
g2
Nsg17
S'MOVEQ   s, #0'
p227
sg19
S'0000a003'
p228
sg21
Vmoveq r0, #0
p229
sg5
L233844L
sg6
Nsg23
S'MOV'
p230
sg25
S'0x39174L'
p231
sg27
Nsba(ibclass
BInstr
p232
(dp233
g2
Nsg17
S'BEQ     loc_391C8'
p234
sg19
S'1200000a'
p235
sg21
Vbeq #0x50
p236
sg5
L233848L
sg6
Nsg23
g103
sg25
S'0x39178L'
p237
sg27
Nsbasg105
(lp238
S'LDR R3, mem'
p239
aS'CMP R3, msg_len'
p240
aS'MOVEQ s, #0'
p241
aS'BEQ func'
p242
asg119
Nsg5
S'0x3916cL'
p243
sg121
(lp244
S'0x3915cL'
p245
asg6
Nsg123
(lp246
S'0x3917cL'
p247
aS'0x391c8L'
p248
asg127
Nsg128
Nsg129
S'f0a84dd7947e5c267432e015f529de0e'
p249
sg131
S'63e4f77e09486e5ff9016a0ec8b916f9'
p250
sg133
(lp251
g216
ag223
ag230
ag103
asg135
Nsba(ibclass
BBasicBlock
p252
(dp253
g12
Nsg13
(lp254
(ibclass
BInstr
p255
(dp256
g2
Nsg17
S'LDR     R3, =(aD1_both_c - 0x61000)'
p257
sg19
S'e8309fe5'
p258
sg21
Vldr r3, [pc, #0xe8]
p259
sg5
L233852L
sg6
Nsg23
S'LDR'
p260
sg25
S'0x3917cL'
p261
sg27
Nsba(ibclass
BInstr
p262
(dp263
g2
Nsg17
S'LDR     R12, =0x237'
p264
sg19
S'e8c09fe5'
p265
sg21
Vldr ip, [pc, #0xe8]
p266
sg5
L233856L
sg6
Nsg23
S'LDR'
p267
sg25
S'0x39180L'
p268
sg27
Nsba(ibclass
BInstr
p269
(dp270
g2
Nsg17
S'MOV     R0, #0x14'
p271
sg19
S'1400a0e3'
p272
sg21
Vmov r0, #0x14
p273
sg5
L233860L
sg6
Nsg23
S'MOV'
p274
sg25
S'0x39184L'
p275
sg27
Nsba(ibclass
BInstr
p276
(dp277
g2
Nsg17
S'ADD     R3, R4, R3      ; "d1_both.c"'
p278
sg19
S'033084e0'
p279
sg21
Vadd r3, r4, r3
p280
sg5
L233864L
sg6
Nsg23
S'ADD'
p281
sg25
S'0x39188L'
p282
sg27
Nsba(ibclass
BInstr
p283
(dp284
g2
Nsg17
S'MOV     R1, #0x120'
p285
sg19
S'121ea0e3'
p286
sg21
Vmov r1, #0x120
p287
sg5
L233868L
sg6
Nsg23
S'MOV'
p288
sg25
S'0x3918cL'
p289
sg27
Nsba(ibclass
BInstr
p290
(dp291
g2
Nsg17
S'MOV     max, #0x98'
p292
sg19
S'9820a0e3'
p293
sg21
Vmov r2, #0x98
p294
sg5
L233872L
sg6
Nsg23
S'MOV'
p295
sg25
S'0x39190L'
p296
sg27
Nsba(ibclass
BInstr
p297
(dp298
g2
Nsg17
S'STR     R12, [SP,#0x20+var_20]'
p299
sg19
S'00c08de5'
p300
sg21
Vstr ip, [sp]
p301
sg5
L233876L
sg6
Nsg23
S'STR'
p302
sg25
S'0x39194L'
p303
sg27
Nsba(ibclass
BInstr
p304
(dp305
g2
Nsg17
S'BL      ERR_put_error'
p306
sg19
S'ab60ffeb'
p307
sg21
Vbl #0xfffd82b4
p308
sg5
L233880L
sg6
Nsg23
S'BL'
p309
sg25
S'0x39198L'
p310
sg27
Nsba(ibclass
BInstr
p311
(dp312
g2
Nsg17
S'MOV     R0, #0x2F'
p313
sg19
S'2f00a0e3'
p314
sg21
Vmov r0, #0x2f
p315
sg5
L233884L
sg6
Nsg23
S'MOV'
p316
sg25
S'0x3919cL'
p317
sg27
Nsba(ibclass
BInstr
p318
(dp319
g2
Nsg17
S'B       loc_391C8'
p320
sg19
S'080000ea'
p321
sg21
Vb #0x28
p322
sg5
L233888L
sg6
Nsg23
g103
sg25
S'0x391a0L'
p323
sg27
Nsbasg105
(lp324
S'LDR R3, =(aD1_both_c - address)'
p325
aS'LDR R12, =0x237'
p326
aS'MOV R0, #0x14'
p327
aS'ADD R3, R4, R3'
p328
aS'MOV R1, #0x120'
p329
aS'MOV mreg, #0x98'
p330
aS'STR R12, mem'
p331
aS'BL ERR_put_error'
p332
aS'MOV R0, #0x2F'
p333
aS'B func'
p334
asg119
Nsg5
S'0x3917cL'
p335
sg121
(lp336
S'0x3916cL'
p337
asg6
Nsg123
(lp338
S'0x391c8L'
p339
asg127
Nsg128
Nsg129
S'1289b044aba5defe7967504e081b2a6d'
p340
sg131
S'773f37e6cc56ca1f0064ad18eddec3aa'
p341
sg133
(lp342
g260
ag267
ag274
ag281
ag288
ag295
ag302
ag309
ag316
ag103
asg135
Nsba(ibclass
BBasicBlock
p343
(dp344
g12
Nsg13
(lp345
(ibclass
BInstr
p346
(dp347
g2
Nsg17
S'LDR     R3, =(aD1_both_c - 0x61000)'
p348
sg19
S'c0309fe5'
p349
sg21
Vldr r3, [pc, #0xc0]
p350
sg5
L233892L
sg6
Nsg23
S'LDR'
p351
sg25
S'0x391a4L'
p352
sg27
Nsba(ibclass
BInstr
p353
(dp354
g2
Nsg17
S'LDR     R12, =0x21E'
p355
sg19
S'c4c09fe5'
p356
sg21
Vldr ip, [pc, #0xc4]
p357
sg5
L233896L
sg6
Nsg23
S'LDR'
p358
sg25
S'0x391a8L'
p359
sg27
Nsba(ibclass
BInstr
p360
(dp361
g2
Nsg17
S'MOV     R0, #0x14'
p362
sg19
S'1400a0e3'
p363
sg21
Vmov r0, #0x14
p364
sg5
L233900L
sg6
Nsg23
S'MOV'
p365
sg25
S'0x391acL'
p366
sg27
Nsba(ibclass
BInstr
p367
(dp368
g2
Nsg17
S'ADD     R3, R4, R3      ; "d1_both.c"'
p369
sg19
S'033084e0'
p370
sg21
Vadd r3, r4, r3
p371
sg5
L233904L
sg6
Nsg23
S'ADD'
p372
sg25
S'0x391b0L'
p373
sg27
Nsba(ibclass
BInstr
p374
(dp375
g2
Nsg17
S'MOV     R1, #0x120'
p376
sg19
S'121ea0e3'
p377
sg21
Vmov r1, #0x120
p378
sg5
L233908L
sg6
Nsg23
S'MOV'
p379
sg25
S'0x391b4L'
p380
sg27
Nsba(ibclass
BInstr
p381
(dp382
g2
Nsg17
S'MOV     max, #0x98'
p383
sg19
S'9820a0e3'
p384
sg21
Vmov r2, #0x98
p385
sg5
L233912L
sg6
Nsg23
S'MOV'
p386
sg25
S'0x391b8L'
p387
sg27
Nsba(ibclass
BInstr
p388
(dp389
g2
Nsg17
S'STR     R12, [SP,#0x20+var_20]'
p390
sg19
S'00c08de5'
p391
sg21
Vstr ip, [sp]
p392
sg5
L233916L
sg6
Nsg23
S'STR'
p393
sg25
S'0x391bcL'
p394
sg27
Nsba(ibclass
BInstr
p395
(dp396
g2
Nsg17
S'BL      ERR_put_error'
p397
sg19
S'a160ffeb'
p398
sg21
Vbl #0xfffd828c
p399
sg5
L233920L
sg6
Nsg23
S'BL'
p400
sg25
S'0x391c0L'
p401
sg27
Nsba(ibclass
BInstr
p402
(dp403
g2
Nsg17
S'MOV     R0, #0x2F'
p404
sg19
S'2f00a0e3'
p405
sg21
Vmov r0, #0x2f
p406
sg5
L233924L
sg6
Nsg23
S'MOV'
p407
sg25
S'0x391c4L'
p408
sg27
Nsbasg105
(lp409
S'LDR R3, =(aD1_both_c - address)'
p410
aS'LDR R12, =0x21E'
p411
aS'MOV R0, #0x14'
p412
aS'ADD R3, R4, R3'
p413
aS'MOV R1, #0x120'
p414
aS'MOV mreg, #0x98'
p415
aS'STR R12, mem'
p416
aS'BL ERR_put_error'
p417
aS'MOV R0, #0x2F'
p418
asg119
Nsg5
S'0x391a4L'
p419
sg121
(lp420
S'0x39154L'
p421
asg6
Nsg123
(lp422
S'0x391c8L'
p423
asg127
Nsg128
Nsg129
S'20abdf4b53cebaaa6eacbe5a8493ad3d'
p424
sg131
S'5b1e0250a19637614469a50e0ea52f74'
p425
sg133
(lp426
g351
ag358
ag365
ag372
ag379
ag386
ag393
ag400
ag407
asg135
Nsba(ibclass
BBasicBlock
p427
(dp428
g12
Nsg13
(lp429
(ibclass
BInstr
p430
(dp431
g2
Nsg17
S'ADD     SP, SP, #8'
p432
sg19
S'08d08de2'
p433
sg21
Vadd sp, sp, #8
p434
sg5
L233928L
sg6
Nsg23
S'ADD'
p435
sg25
S'0x391c8L'
p436
sg27
Nsba(ibclass
BInstr
p437
(dp438
g2
Nsg17
S'LDMFD   SP!, {R4-R8,LR}'
p439
sg19
S'f041bde8'
p440
sg21
Vpop {r4, r5, r6, r7, r8, lr}
p441
sg5
L233932L
sg6
Nsg23
S'LDM'
p442
sg25
S'0x391ccL'
p443
sg27
Nsba(ibclass
BInstr
p444
(dp445
g2
Nsg17
S'BX      LR'
p446
sg19
S'1eff2fe1'
p447
sg21
Vbx lr
p448
sg5
L233936L
sg6
Nsg23
S'BX'
p449
sg25
S'0x391d0L'
p450
sg27
Nsbasg105
(lp451
S'ADD SP, SP, #8'
p452
aS'LDMFD SP!, {R4-R8,LR}'
p453
aS'BX LR'
p454
asg119
Nsg5
S'0x391c8L'
p455
sg121
(lp456
S'0x3916cL'
p457
aS'0x3917cL'
p458
aS'0x391a4L'
p459
aS'0x391d4L'
p460
aS'0x39210L'
p461
aS'0x39240L'
p462
asg6
Nsg123
(lp463
sg127
Nsg128
Nsg129
S'fb02e3799554a1c259ca4724e19b2b8e'
p464
sg131
S'4c8efbd7f571904e3f641facdac38bb9'
p465
sg133
(lp466
g435
ag442
ag449
asg135
Nsba(ibclass
BBasicBlock
p467
(dp468
g12
Nsg13
(lp469
(ibclass
BInstr
p470
(dp471
g2
Nsg17
S'LDR     R3, =(aD1_both_c - 0x61000)'
p472
sg19
S'90309fe5'
p473
sg21
Vldr r3, [pc, #0x90]
p474
sg5
L233940L
sg6
Nsg23
S'LDR'
p475
sg25
S'0x391d4L'
p476
sg27
Nsba(ibclass
BInstr
p477
(dp478
g2
Nsg17
S'LDR     R12, =0x219'
p479
sg19
S'98c09fe5'
p480
sg21
Vldr ip, [pc, #0x98]
p481
sg5
L233944L
sg6
Nsg23
S'LDR'
p482
sg25
S'0x391d8L'
p483
sg27
Nsba(ibclass
BInstr
p484
(dp485
g2
Nsg17
S'MOV     R0, #0x14'
p486
sg19
S'1400a0e3'
p487
sg21
Vmov r0, #0x14
p488
sg5
L233948L
sg6
Nsg23
S'MOV'
p489
sg25
S'0x391dcL'
p490
sg27
Nsba(ibclass
BInstr
p491
(dp492
g2
Nsg17
S'ADD     R3, R4, R3      ; "d1_both.c"'
p493
sg19
S'033084e0'
p494
sg21
Vadd r3, r4, r3
p495
sg5
L233952L
sg6
Nsg23
S'ADD'
p496
sg25
S'0x391e0L'
p497
sg27
Nsba(ibclass
BInstr
p498
(dp499
g2
Nsg17
S'MOV     R1, #0x120'
p500
sg19
S'121ea0e3'
p501
sg21
Vmov r1, #0x120
p502
sg5
L233956L
sg6
Nsg23
S'MOV'
p503
sg25
S'0x391e4L'
p504
sg27
Nsba(ibclass
BInstr
p505
(dp506
g2
Nsg17
S'MOV     max, #0x98'
p507
sg19
S'9820a0e3'
p508
sg21
Vmov r2, #0x98
p509
sg5
L233960L
sg6
Nsg23
S'MOV'
p510
sg25
S'0x391e8L'
p511
sg27
Nsba(ibclass
BInstr
p512
(dp513
g2
Nsg17
S'STR     R12, [SP,#0x20+var_20]'
p514
sg19
S'00c08de5'
p515
sg21
Vstr ip, [sp]
p516
sg5
L233964L
sg6
Nsg23
S'STR'
p517
sg25
S'0x391ecL'
p518
sg27
Nsba(ibclass
BInstr
p519
(dp520
g2
Nsg17
S'BL      ERR_put_error'
p521
sg19
S'9560ffeb'
p522
sg21
Vbl #0xfffd825c
p523
sg5
L233968L
sg6
Nsg23
S'BL'
p524
sg25
S'0x391f0L'
p525
sg27
Nsba(ibclass
BInstr
p526
(dp527
g2
Nsg17
S'MOV     R0, #0x2F'
p528
sg19
S'2f00a0e3'
p529
sg21
Vmov r0, #0x2f
p530
sg5
L233972L
sg6
Nsg23
S'MOV'
p531
sg25
S'0x391f4L'
p532
sg27
Nsba(ibclass
BInstr
p533
(dp534
g2
Nsg17
S'B       loc_391C8'
p535
sg19
S'f2ffffea'
p536
sg21
Vb #0xffffffd0
p537
sg5
L233976L
sg6
Nsg23
g103
sg25
S'0x391f8L'
p538
sg27
Nsbasg105
(lp539
S'LDR R3, =(aD1_both_c - address)'
p540
aS'LDR R12, =0x219'
p541
aS'MOV R0, #0x14'
p542
aS'ADD R3, R4, R3'
p543
aS'MOV R1, #0x120'
p544
aS'MOV mreg, #0x98'
p545
aS'STR R12, mem'
p546
aS'BL ERR_put_error'
p547
aS'MOV R0, #0x2F'
p548
aS'B func'
p549
asg119
Nsg5
S'0x391d4L'
p550
sg121
(lp551
S'0x39124L'
p552
asg6
Nsg123
(lp553
S'0x391c8L'
p554
asg127
Nsg128
Nsg129
S'1289b044aba5defe7967504e081b2a6d'
p555
sg131
S'febdf7ca1cb5f9edc6efe0c653b86fe2'
p556
sg133
(lp557
g475
ag482
ag489
ag496
ag503
ag510
ag517
ag524
ag531
ag103
asg135
Nsba(ibclass
BBasicBlock
p558
(dp559
g12
Nsg13
(lp560
(ibclass
BInstr
p561
(dp562
g2
Nsg17
S'LDR     s, [s,#0x3C]'
p563
sg19
S'3c0090e5'
p564
sg21
Vldr r0, [r0, #0x3c]
p565
sg5
L233980L
sg6
Nsg23
S'LDR'
p566
sg25
S'0x391fcL'
p567
sg27
Nsba(ibclass
BInstr
p568
(dp569
g2
Nsg17
S'ADD     R1, msg_len, #0xC'
p570
sg19
S'0c1086e2'
p571
sg21
Vadd r1, r6, #0xc
p572
sg5
L233984L
sg6
Nsg23
S'ADD'
p573
sg25
S'0x39200L'
p574
sg27
Nsba(ibclass
BInstr
p575
(dp576
g2
Nsg17
S'BL      BUF_MEM_grow_clean'
p577
sg19
S'1c5fffeb'
p578
sg21
Vbl #0xfffd7c78
p579
sg5
L233988L
sg6
Nsg23
S'BL'
p580
sg25
S'0x39204L'
p581
sg27
Nsba(ibclass
BInstr
p582
(dp583
g2
Nsg17
S'CMP     R0, #0'
p584
sg19
S'000050e3'
p585
sg21
Vcmp r0, #0
p586
sg5
L233992L
sg6
Nsg23
S'CMP'
p587
sg25
S'0x39208L'
p588
sg27
Nsba(ibclass
BInstr
p589
(dp590
g2
Nsg17
S'BEQ     loc_39240'
p591
sg19
S'0b00000a'
p592
sg21
Vbeq #0x34
p593
sg5
L233996L
sg6
Nsg23
g103
sg25
S'0x3920cL'
p594
sg27
Nsbasg105
(lp595
S'LDR s, mem'
p596
aS'ADD R1, msg_len, #0xC'
p597
aS'BL BUF_MEM_grow_regean'
p598
aS'CMP R0, #0'
p599
aS'BEQ func'
p600
asg119
Nsg5
S'0x391fcL'
p601
sg121
(lp602
S'0x3915cL'
p603
asg6
Nsg123
(lp604
S'0x39210L'
p605
aS'0x39240L'
p606
asg127
Nsg128
Nsg129
S'a073a5dfe5dfd79020cd607ab6ea626a'
p607
sg131
S'084d2c9355bec3c908431fec5ff788f7'
p608
sg133
(lp609
g566
ag573
ag580
ag587
ag103
asg135
Nsba(ibclass
BBasicBlock
p610
(dp611
g12
Nsg13
(lp612
(ibclass
BInstr
p613
(dp614
g2
Nsg17
S'LDR     R1, [s,#0x58]'
p615
sg19
S'581097e5'
p616
sg21
Vldr r1, [r7, #0x58]
p617
sg5
L234000L
sg6
Nsg23
S'LDR'
p618
sg25
S'0x39210L'
p619
sg27
Nsba(ibclass
BInstr
p620
(dp621
g2
Nsg17
S'LDR     R3, [s,#0x5C]'
p622
sg19
S'5c3097e5'
p623
sg21
Vldr r3, [r7, #0x5c]
p624
sg5
L234004L
sg6
Nsg23
S'LDR'
p625
sg25
S'0x39214L'
p626
sg27
Nsba(ibclass
BInstr
p627
(dp628
g2
Nsg17
S'STR     msg_len, [R1,#0x33C]'
p629
sg19
S'3c6381e5'
p630
sg21
Vstr r6, [r1, #0x33c]
p631
sg5
L234008L
sg6
Nsg23
S'STR'
p632
sg25
S'0x39218L'
p633
sg27
Nsba(ibclass
BInstr
p634
(dp635
g2
Nsg17
S'LDRB    R2, [msg_hdr]'
p636
sg19
S'0020d5e5'
p637
sg21
Vldrb r2, [r5]
p638
sg5
L234012L
sg6
Nsg23
S'LDR'
p639
sg25
S'0x3921cL'
p640
sg27
Nsba(ibclass
BInstr
p641
(dp642
g2
Nsg17
S'LDRH    msg_hdr, [msg_hdr,#8]'
p643
sg19
S'b850d5e1'
p644
sg21
Vldrh r5, [r5, #8]
p645
sg5
L234016L
sg6
Nsg23
S'LDR'
p646
sg25
S'0x39220L'
p647
sg27
Nsba(ibclass
BInstr
p648
(dp649
g2
Nsg17
S'MOV     R0, #0x294'
p650
sg19
S'a50fa0e3'
p651
sg21
Vmov r0, #0x294
p652
sg5
L234020L
sg6
Nsg23
S'MOV'
p653
sg25
S'0x39224L'
p654
sg27
Nsba(ibclass
BInstr
p655
(dp656
g2
Nsg17
S'STRH    R5, [R3,R0]'
p657
sg19
S'b05083e1'
p658
sg21
Vstrh r5, [r3, r0]
p659
sg5
L234024L
sg6
Nsg23
S'STR'
p660
sg25
S'0x39228L'
p661
sg27
Nsba(ibclass
BInstr
p662
(dp663
g2
Nsg17
S'STR     R2, [R1,#0x340]'
p664
sg19
S'402381e5'
p665
sg21
Vstr r2, [r1, #0x340]
p666
sg5
L234028L
sg6
Nsg23
S'STR'
p667
sg25
S'0x3922cL'
p668
sg27
Nsba(ibclass
BInstr
p669
(dp670
g2
Nsg17
S'STR     msg_len, [R3,#0x290]'
p671
sg19
S'906283e5'
p672
sg21
Vstr r6, [r3, #0x290]
p673
sg5
L234032L
sg6
Nsg23
S'STR'
p674
sg25
S'0x39230L'
p675
sg27
Nsba(ibclass
BInstr
p676
(dp677
g2
Nsg17
S'STRB    R2, [R3,#0x28C]'
p678
sg19
S'8c22c3e5'
p679
sg21
Vstrb r2, [r3, #0x28c]
p680
sg5
L234036L
sg6
Nsg23
S'STR'
p681
sg25
S'0x39234L'
p682
sg27
Nsba(ibclass
BInstr
p683
(dp684
g2
Nsg17
S'MOV     R0, R8'
p685
sg19
S'0800a0e1'
p686
sg21
Vmov r0, r8
p687
sg5
L234040L
sg6
Nsg23
S'MOV'
p688
sg25
S'0x39238L'
p689
sg27
Nsba(ibclass
BInstr
p690
(dp691
g2
Nsg17
S'B       loc_391C8'
p692
sg19
S'e1ffffea'
p693
sg21
Vb #0xffffff8c
p694
sg5
L234044L
sg6
Nsg23
g103
sg25
S'0x3923cL'
p695
sg27
Nsbasg105
(lp696
S'LDR R1, mem'
p697
aS'LDR R3, mem'
p698
aS'STR msg_len, mem'
p699
aS'LDRB R2, mem'
p700
aS'LDRH msg_hdr, mem'
p701
aS'MOV R0, #0x294'
p702
aS'STRH R5, mem'
p703
aS'STR R2, mem'
p704
aS'STR msg_len, mem'
p705
aS'STRB R2, mem'
p706
aS'MOV R0, R8'
p707
aS'B func'
p708
asg119
Nsg5
S'0x39210L'
p709
sg121
(lp710
S'0x391fcL'
p711
asg6
Nsg123
(lp712
S'0x391c8L'
p713
asg127
Nsg128
Nsg129
S'75cb897de71def8bf3b08b71cb1eb67e'
p714
sg131
S'ba9c2de9fc4eaef583f786f37a9d59dc'
p715
sg133
(lp716
g618
ag625
ag632
ag639
ag646
ag653
ag660
ag667
ag674
ag681
ag688
ag103
asg135
Nsba(ibclass
BBasicBlock
p717
(dp718
g12
Nsg13
(lp719
(ibclass
BInstr
p720
(dp721
g2
Nsg17
S'LDR     R3, =(aD1_both_c - 0x61000)'
p722
sg19
S'24309fe5'
p723
sg21
Vldr r3, [pc, #0x24]
p724
sg5
L234048L
sg6
Nsg23
S'LDR'
p725
sg25
S'0x39240L'
p726
sg27
Nsba(ibclass
BInstr
p727
(dp728
g2
Nsg17
S'LDR     R12, =0x229'
p729
sg19
S'30c09fe5'
p730
sg21
Vldr ip, [pc, #0x30]
p731
sg5
L234052L
sg6
Nsg23
S'LDR'
p732
sg25
S'0x39244L'
p733
sg27
Nsba(ibclass
BInstr
p734
(dp735
g2
Nsg17
S'MOV     R0, #0x14'
p736
sg19
S'1400a0e3'
p737
sg21
Vmov r0, #0x14
p738
sg5
L234056L
sg6
Nsg23
S'MOV'
p739
sg25
S'0x39248L'
p740
sg27
Nsba(ibclass
BInstr
p741
(dp742
g2
Nsg17
S'ADD     R3, R4, R3      ; "d1_both.c"'
p743
sg19
S'033084e0'
p744
sg21
Vadd r3, r4, r3
p745
sg5
L234060L
sg6
Nsg23
S'ADD'
p746
sg25
S'0x3924cL'
p747
sg27
Nsba(ibclass
BInstr
p748
(dp749
g2
Nsg17
S'MOV     R1, #0x120'
p750
sg19
S'121ea0e3'
p751
sg21
Vmov r1, #0x120
p752
sg5
L234064L
sg6
Nsg23
S'MOV'
p753
sg25
S'0x39250L'
p754
sg27
Nsba(ibclass
BInstr
p755
(dp756
g2
Nsg17
S'MOV     R2, #7'
p757
sg19
S'0720a0e3'
p758
sg21
Vmov r2, #7
p759
sg5
L234068L
sg6
Nsg23
S'MOV'
p760
sg25
S'0x39254L'
p761
sg27
Nsba(ibclass
BInstr
p762
(dp763
g2
Nsg17
S'STR     R12, [SP,#0x20+var_20]'
p764
sg19
S'00c08de5'
p765
sg21
Vstr ip, [sp]
p766
sg5
L234072L
sg6
Nsg23
S'STR'
p767
sg25
S'0x39258L'
p768
sg27
Nsba(ibclass
BInstr
p769
(dp770
g2
Nsg17
S'BL      ERR_put_error'
p771
sg19
S'7a60ffeb'
p772
sg21
Vbl #0xfffd81f0
p773
sg5
L234076L
sg6
Nsg23
S'BL'
p774
sg25
S'0x3925cL'
p775
sg27
Nsba(ibclass
BInstr
p776
(dp777
g2
Nsg17
S'MOV     R0, #0x50'
p778
sg19
S'5000a0e3'
p779
sg21
Vmov r0, #0x50
p780
sg5
L234080L
sg6
Nsg23
S'MOV'
p781
sg25
S'0x39260L'
p782
sg27
Nsba(ibclass
BInstr
p783
(dp784
g2
Nsg17
S'B       loc_391C8'
p785
sg19
S'd7ffffea'
p786
sg21
Vb #0xffffff64
p787
sg5
L234084L
sg6
Nsg23
g103
sg25
S'0x39264L'
p788
sg27
Nsbasg105
(lp789
S'LDR R3, =(aD1_both_c - address)'
p790
aS'LDR R12, =0x229'
p791
aS'MOV R0, #0x14'
p792
aS'ADD R3, R4, R3'
p793
aS'MOV R1, #0x120'
p794
aS'MOV R2, #7'
p795
aS'STR R12, mem'
p796
aS'BL ERR_put_error'
p797
aS'MOV R0, #0x50'
p798
aS'B func'
p799
asg119
Nsg5
S'0x39240L'
p800
sg121
(lp801
S'0x391fcL'
p802
asg6
Nsg123
(lp803
S'0x391c8L'
p804
asg127
Nsg128
Nsg129
S'1289b044aba5defe7967504e081b2a6d'
p805
sg131
S'56352f575812ddddafda6da13fdf27d5'
p806
sg133
(lp807
g725
ag732
ag739
ag746
ag753
ag760
ag767
ag774
ag781
ag103
asg135
Nsbasb.