(ibclass
BFunc
p0
(dp1
S'hash'
p2
NsS'name'
p3
S'doapr_outch'
p4
sS'start_address'
p5
L811540L
sS'flag'
p6
NsS'program'
p7
NsS'bbs'
p8
(lp9
(ibclass
BBasicBlock
p10
(dp11
S'function'
p12
NsS'binstrs'
p13
(lp14
(ibclass
BInstr
p15
(dp16
g2
NsS'disasm'
p17
S'LDR     R12, =($_GLOBAL_OFFSET_TABLE_ - 0xC6228)'
p18
sS'bytes'
p19
S'04c19fe5'
p20
sS'disasm_striped'
p21
Vldr ip, [pc, #0x104]
p22
sg5
L811540L
sg6
NsS'mnem'
p23
S'LDR'
p24
sS'address'
p25
S'0xc6214L'
p26
sS'basicblock'
p27
Nsba(ibclass
BInstr
p28
(dp29
g2
Nsg17
S'STMFD   SP!, {maxlen-R11,LR}'
p30
sg19
S'f84f2de9'
p31
sg21
Vpush {r3, r4, r5, r6, r7, r8, sb, sl, fp, lr}
p32
sg5
L811544L
sg6
Nsg23
S'STM'
p33
sg25
S'0xc6218L'
p34
sg27
Nsba(ibclass
BInstr
p35
(dp36
g2
Nsg17
S'SUBS    R4, buffer, #0'
p37
sg19
S'004051e2'
p38
sg21
Vsubs r4, r1, #0
p39
sg5
L811548L
sg6
Nsg23
S'SUB'
p40
sg25
S'0xc621cL'
p41
sg27
Nsba(ibclass
BInstr
p42
(dp43
g2
Nsg17
S'ADD     R12, PC, R12 ; $_GLOBAL_OFFSET_TABLE_'
p44
sg19
S'0cc08fe0'
p45
sg21
Vadd ip, pc, ip
p46
sg5
L811552L
sg6
Nsg23
S'ADD'
p47
sg25
S'0xc6220L'
p48
sg27
Nsba(ibclass
BInstr
p49
(dp50
g2
Nsg17
S'MOV     R8, sbuffer'
p51
sg19
S'0080a0e1'
p52
sg21
Vmov r8, r0
p53
sg5
L811556L
sg6
Nsg23
S'MOV'
p54
sg25
S'0xc6224L'
p55
sg27
Nsba(ibclass
BInstr
p56
(dp57
g2
Nsg17
S'MOV     R6, currlen'
p58
sg19
S'0260a0e1'
p59
sg21
Vmov r6, r2
p60
sg5
L811560L
sg6
Nsg23
S'MOV'
p61
sg25
S'0xc6228L'
p62
sg27
Nsba(ibclass
BInstr
p63
(dp64
g2
Nsg17
S'MOV     R5, R3'
p65
sg19
S'0350a0e1'
p66
sg21
Vmov r5, r3
p67
sg5
L811564L
sg6
Nsg23
S'MOV'
p68
sg25
S'0xc622cL'
p69
sg27
Nsba(ibclass
BInstr
p70
(dp71
g2
Nsg17
S'LDR     R11, [SP,#0x28+c]'
p72
sg19
S'28b09de5'
p73
sg21
Vldr fp, [sp, #0x28]
p74
sg5
L811568L
sg6
Nsg23
S'LDR'
p75
sg25
S'0xc6230L'
p76
sg27
Nsba(ibclass
BInstr
p77
(dp78
g2
Nsg17
S'BEQ     loc_C630C'
p79
sg19
S'3400000a'
p80
sg21
Vbeq #0xd8
p81
sg5
L811572L
sg6
Nsg23
S'B'
p82
sg25
S'0xc6234L'
p83
sg27
NsbasS'disasm_list'
p84
(lp85
S'LDR R12, =($_GLOBAL_OFFSET_TABLE_ - 0xC6228)'
p86
aS'STMFD SP!, {mreglen-R11,LR}'
p87
aS'SUBS R4, buffer, #0'
p88
aS'ADD R12, PC, R12'
p89
aS'MOV R8, sbuffer'
p90
aS'MOV R6, currlen'
p91
aS'MOV R5, R3'
p92
aS'LDR R11, mem'
p93
aS'BEQ func'
p94
asS'end_address'
p95
Nsg5
S'0xc6214L'
p96
sS'preds'
p97
(lp98
sg6
NsS'succs'
p99
(lp100
S'0xc6238L'
p101
aS'0xc630cL'
p102
asS'hash_v3'
p103
NsS'flag_v2'
p104
NsS'hash_v1'
p105
S'1ddc929b7bbfd1d24da9304b2de6079b'
p106
sS'hash_v2'
p107
S'0686746d9e9f815cba45b8f4172f6524'
p108
sS'mnen_list'
p109
(lp110
g24
ag33
ag40
ag47
ag54
ag61
ag68
ag75
ag82
asS'neighbour_disasm_list'
p111
Nsba(ibclass
BBasicBlock
p112
(dp113
g12
Nsg13
(lp114
(ibclass
BInstr
p115
(dp116
g2
Nsg17
S'LDR     R7, =(aB_print_c - 0x188000)'
p117
sg19
S'e4709fe5'
p118
sg21
Vldr r7, [pc, #0xe4]
p119
sg5
L811576L
sg6
Nsg23
S'LDR'
p120
sg25
S'0xc6238L'
p121
sg27
Nsba(ibclass
BInstr
p122
(dp123
g2
Nsg17
S'LDR     R2, [R2]'
p124
sg19
S'002092e5'
p125
sg21
Vldr r2, [r2]
p126
sg5
L811580L
sg6
Nsg23
S'LDR'
p127
sg25
S'0xc623cL'
p128
sg27
Nsba(ibclass
BInstr
p129
(dp130
g2
Nsg17
S'ADD     R7, R12, R7     ; "b_print.c"'
p131
sg19
S'07708ce0'
p132
sg21
Vadd r7, ip, r7
p133
sg5
L811584L
sg6
Nsg23
S'ADD'
p134
sg25
S'0xc6240L'
p135
sg27
Nsba(ibclass
BInstr
p136
(dp137
g2
Nsg17
S'MOV     R9, #0'
p138
sg19
S'0090a0e3'
p139
sg21
Vmov sb, #0
p140
sg5
L811588L
sg6
Nsg23
S'MOV'
p141
sg25
S'0xc6244L'
p142
sg27
Nsba(ibclass
BInstr
p143
(dp144
g2
Nsg17
S'MOV     R10, #0x400'
p145
sg19
S'01aba0e3'
p146
sg21
Vmov sl, #0x400
p147
sg5
L811592L
sg6
Nsg23
S'MOV'
p148
sg25
S'0xc6248L'
p149
sg27
Nsbasg84
(lp150
S'LDR R7, =(aB_print_c - address0)'
p151
aS'LDR R2, mem'
p152
aS'ADD R7, R12, R7'
p153
aS'MOV R9, #0'
p154
aS'MOV R10, #0x400'
p155
asg95
Nsg5
S'0xc6238L'
p156
sg97
(lp157
S'0xc6214L'
p158
asg6
Nsg99
(lp159
S'0xc624cL'
p160
asg103
Nsg104
Nsg105
S'ea566b9c1acd06645fb8663e31550d92'
p161
sg107
S'ec0c291b8c5f9d75484f08511ffb2364'
p162
sg109
(lp163
g120
ag127
ag134
ag141
ag148
asg111
Nsba(ibclass
BBasicBlock
p164
(dp165
g12
Nsg13
(lp166
(ibclass
BInstr
p167
(dp168
g2
Nsg17
S'LDR     R1, [maxlen]'
p169
sg19
S'001095e5'
p170
sg21
Vldr r1, [r5]
p171
sg5
L811596L
sg6
Nsg23
S'LDR'
p172
sg25
S'0xc624cL'
p173
sg27
Nsba(ibclass
BInstr
p174
(dp175
g2
Nsg17
S'CMP     R2, R1'
p176
sg19
S'010052e1'
p177
sg21
Vcmp r2, r1
p178
sg5
L811600L
sg6
Nsg23
S'CMP'
p179
sg25
S'0xc6250L'
p180
sg27
Nsba(ibclass
BInstr
p181
(dp182
g2
Nsg17
S'BCC     loc_C6294'
p183
sg19
S'0e00003a'
p184
sg21
Vblo #0x40
p185
sg5
L811604L
sg6
Nsg23
g82
sg25
S'0xc6254L'
p186
sg27
Nsbasg84
(lp187
S'LDR R1, mem'
p188
aS'CMP R2, R1'
p189
aS'BCC func'
p190
asg95
Nsg5
S'0xc624cL'
p191
sg97
(lp192
S'0xc6238L'
p193
aS'0xc62e8L'
p194
aS'0xc62f8L'
p195
asg6
Nsg99
(lp196
S'0xc6258L'
p197
aS'0xc6294L'
p198
asg103
Nsg104
Nsg105
S'fa4df767a85c49648339e2dc5c6807f6'
p199
sg107
S'ea3a79df90af248c724004fa7d446643'
p200
sg109
(lp201
g172
ag179
ag82
asg111
Nsba(ibclass
BBasicBlock
p202
(dp203
g12
Nsg13
(lp204
(ibclass
BInstr
p205
(dp206
g2
Nsg17
S'LDR     R0, [buffer]    ; str'
p207
sg19
S'000094e5'
p208
sg21
Vldr r0, [r4]
p209
sg5
L811608L
sg6
Nsg23
S'LDR'
p210
sg25
S'0xc6258L'
p211
sg27
Nsba(ibclass
BInstr
p212
(dp213
g2
Nsg17
S'CMP     R0, #0'
p214
sg19
S'000050e3'
p215
sg21
Vcmp r0, #0
p216
sg5
L811612L
sg6
Nsg23
S'CMP'
p217
sg25
S'0xc625cL'
p218
sg27
Nsba(ibclass
BInstr
p219
(dp220
g2
Nsg17
S'BEQ     loc_C62C0'
p221
sg19
S'1600000a'
p222
sg21
Vbeq #0x60
p223
sg5
L811616L
sg6
Nsg23
g82
sg25
S'0xc6260L'
p224
sg27
Nsbasg84
(lp225
S'LDR R0, mem'
p226
aS'CMP R0, #0'
p227
aS'BEQ func'
p228
asg95
Nsg5
S'0xc6258L'
p229
sg97
(lp230
S'0xc624cL'
p231
aS'0xc6284L'
p232
asg6
Nsg99
(lp233
S'0xc6264L'
p234
aS'0xc62c0L'
p235
asg103
Nsg104
Nsg105
S'fa4df767a85c49648339e2dc5c6807f6'
p236
sg107
S'0297e47d64966638bae7fa6ae2c78adb'
p237
sg109
(lp238
g210
ag217
ag82
asg111
Nsba(ibclass
BBasicBlock
p239
(dp240
g12
Nsg13
(lp241
(ibclass
BInstr
p242
(dp243
g2
Nsg17
S'ADD     R1, R1, #0x400  ; num'
p244
sg19
S'011b81e2'
p245
sg21
Vadd r1, r1, #0x400
p246
sg5
L811620L
sg6
Nsg23
S'ADD'
p247
sg25
S'0xc6264L'
p248
sg27
Nsba(ibclass
BInstr
p249
(dp250
g2
Nsg17
S'STR     R1, [maxlen]'
p251
sg19
S'001085e5'
p252
sg21
Vstr r1, [r5]
p253
sg5
L811624L
sg6
Nsg23
S'STR'
p254
sg25
S'0xc6268L'
p255
sg27
Nsba(ibclass
BInstr
p256
(dp257
g2
Nsg17
S'MOV     R2, R7          ; file'
p258
sg19
S'0720a0e1'
p259
sg21
Vmov r2, r7
p260
sg5
L811628L
sg6
Nsg23
S'MOV'
p261
sg25
S'0xc626cL'
p262
sg27
Nsba(ibclass
BInstr
p263
(dp264
g2
Nsg17
S'MOV     R3, #0x2D4      ; line'
p265
sg19
S'b53fa0e3'
p266
sg21
Vmov r3, #0x2d4
p267
sg5
L811632L
sg6
Nsg23
S'MOV'
p268
sg25
S'0xc6270L'
p269
sg27
Nsba(ibclass
BInstr
p270
(dp271
g2
Nsg17
S'BL      CRYPTO_realloc'
p272
sg19
S'ed01feeb'
p273
sg21
Vbl #0xfff807bc
p274
sg5
L811636L
sg6
Nsg23
S'BL'
p275
sg25
S'0xc6274L'
p276
sg27
Nsba(ibclass
BInstr
p277
(dp278
g2
Nsg17
S'CMP     R0, #0'
p279
sg19
S'000050e3'
p280
sg21
Vcmp r0, #0
p281
sg5
L811640L
sg6
Nsg23
S'CMP'
p282
sg25
S'0xc6278L'
p283
sg27
Nsba(ibclass
BInstr
p284
(dp285
g2
Nsg17
S'STR     R0, [buffer]'
p286
sg19
S'000084e5'
p287
sg21
Vstr r0, [r4]
p288
sg5
L811644L
sg6
Nsg23
S'STR'
p289
sg25
S'0xc627cL'
p290
sg27
Nsba(ibclass
BInstr
p291
(dp292
g2
Nsg17
S'BEQ     loc_C62B8'
p293
sg19
S'0c00000a'
p294
sg21
Vbeq #0x38
p295
sg5
L811648L
sg6
Nsg23
g82
sg25
S'0xc6280L'
p296
sg27
Nsbasg84
(lp297
S'ADD R1, R1, #0x400'
p298
aS'STR R1, mem'
p299
aS'MOV R2, R7'
p300
aS'MOV R3, #0x2D4'
p301
aS'BL CRYPTO_reregloc'
p302
aS'CMP R0, #0'
p303
aS'STR R0, mem'
p304
aS'BEQ func'
p305
asg95
Nsg5
S'0xc6264L'
p306
sg97
(lp307
S'0xc6258L'
p308
asg6
Nsg99
(lp309
S'0xc6284L'
p310
aS'0xc62b8L'
p311
asg103
Nsg104
Nsg105
S'a9b08f0ccfaed2f4ac457a14bbb6b8e7'
p312
sg107
S'e9908f2af54df7756f26516c9a825944'
p313
sg109
(lp314
g247
ag254
ag261
ag268
ag275
ag282
ag289
ag82
asg111
Nsba(ibclass
BBasicBlock
p315
(dp316
g12
Nsg13
(lp317
(ibclass
BInstr
p318
(dp319
g2
Nsg17
S'LDR     R2, [currlen]'
p320
sg19
S'002096e5'
p321
sg21
Vldr r2, [r6]
p322
sg5
L811652L
sg6
Nsg23
S'LDR'
p323
sg25
S'0xc6284L'
p324
sg27
Nsba(ibclass
BInstr
p325
(dp326
g2
Nsg17
S'LDR     R1, [maxlen]'
p327
sg19
S'001095e5'
p328
sg21
Vldr r1, [r5]
p329
sg5
L811656L
sg6
Nsg23
S'LDR'
p330
sg25
S'0xc6288L'
p331
sg27
Nsba(ibclass
BInstr
p332
(dp333
g2
Nsg17
S'CMP     R2, R1'
p334
sg19
S'010052e1'
p335
sg21
Vcmp r2, r1
p336
sg5
L811660L
sg6
Nsg23
S'CMP'
p337
sg25
S'0xc628cL'
p338
sg27
Nsba(ibclass
BInstr
p339
(dp340
g2
Nsg17
S'BCS     loc_C6258'
p341
sg19
S'f0ffff2a'
p342
sg21
Vbhs #0xffffffc8
p343
sg5
L811664L
sg6
Nsg23
g82
sg25
S'0xc6290L'
p344
sg27
Nsbasg84
(lp345
S'LDR R2, mem'
p346
aS'LDR R1, mem'
p347
aS'CMP R2, R1'
p348
aS'BCS func'
p349
asg95
Nsg5
S'0xc6284L'
p350
sg97
(lp351
S'0xc6264L'
p352
asg6
Nsg99
(lp353
S'0xc6258L'
p354
aS'0xc6294L'
p355
asg103
Nsg104
Nsg105
S'd9812e74326a7ebe01ae9e2a00bbb5ee'
p356
sg107
S'4432b41ca0734793f56292c1abfbd8a4'
p357
sg109
(lp358
g323
ag330
ag337
ag82
asg111
Nsba(ibclass
BBasicBlock
p359
(dp360
g12
Nsg13
(lp361
(ibclass
BInstr
p362
(dp363
g2
Nsg17
S'LDR     R3, [sbuffer]'
p364
sg19
S'003098e5'
p365
sg21
Vldr r3, [r8]
p366
sg5
L811668L
sg6
Nsg23
S'LDR'
p367
sg25
S'0xc6294L'
p368
sg27
Nsba(ibclass
BInstr
p369
(dp370
g2
Nsg17
S'CMP     R3, #0'
p371
sg19
S'000053e3'
p372
sg21
Vcmp r3, #0
p373
sg5
L811672L
sg6
Nsg23
S'CMP'
p374
sg25
S'0xc6298L'
p375
sg27
Nsba(ibclass
BInstr
p376
(dp377
g2
Nsg17
S'LDREQ   R1, [buffer]'
p378
sg19
S'00109405'
p379
sg21
Vldreq r1, [r4]
p380
sg5
L811676L
sg6
Nsg23
S'LDR'
p381
sg25
S'0xc629cL'
p382
sg27
Nsba(ibclass
BInstr
p383
(dp384
g2
Nsg17
S'ADDNE   R1, R2, #1'
p385
sg19
S'01108212'
p386
sg21
Vaddne r1, r2, #1
p387
sg5
L811680L
sg6
Nsg23
S'ADD'
p388
sg25
S'0xc62a0L'
p389
sg27
Nsba(ibclass
BInstr
p390
(dp391
g2
Nsg17
S'ADDEQ   R3, R2, #1'
p392
sg19
S'01308202'
p393
sg21
Vaddeq r3, r2, #1
p394
sg5
L811684L
sg6
Nsg23
S'ADD'
p395
sg25
S'0xc62a4L'
p396
sg27
Nsba(ibclass
BInstr
p397
(dp398
g2
Nsg17
S'STRNEB  c_0, [R3,R2]'
p399
sg19
S'02b0c317'
p400
sg21
Vstrbne fp, [r3, r2]
p401
sg5
L811688L
sg6
Nsg23
S'STR'
p402
sg25
S'0xc62a8L'
p403
sg27
Nsba(ibclass
BInstr
p404
(dp405
g2
Nsg17
S'STREQB  R11, [R1,R2]'
p406
sg19
S'02b0c107'
p407
sg21
Vstrbeq fp, [r1, r2]
p408
sg5
L811692L
sg6
Nsg23
S'STR'
p409
sg25
S'0xc62acL'
p410
sg27
Nsba(ibclass
BInstr
p411
(dp412
g2
Nsg17
S'STRNE   R1, [currlen]'
p413
sg19
S'00108615'
p414
sg21
Vstrne r1, [r6]
p415
sg5
L811696L
sg6
Nsg23
S'STR'
p416
sg25
S'0xc62b0L'
p417
sg27
Nsba(ibclass
BInstr
p418
(dp419
g2
Nsg17
S'STREQ   R3, [currlen]'
p420
sg19
S'00308605'
p421
sg21
Vstreq r3, [r6]
p422
sg5
L811700L
sg6
Nsg23
S'STR'
p423
sg25
S'0xc62b4L'
p424
sg27
Nsbasg84
(lp425
S'LDR R3, mem'
p426
aS'CMP R3, #0'
p427
aS'LDREQ R1, mem'
p428
aS'ADDNE R1, R2, #1'
p429
aS'ADDEQ R3, R2, #1'
p430
aS'STRNEB c_0, mem'
p431
aS'STREQB R11, mem'
p432
aS'STRNE R1, mem'
p433
aS'STREQ R3, mem'
p434
asg95
Nsg5
S'0xc6294L'
p435
sg97
(lp436
S'0xc624cL'
p437
aS'0xc6284L'
p438
aS'0xc631cL'
p439
asg6
Nsg99
(lp440
S'0xc62b8L'
p441
asg103
Nsg104
Nsg105
S'ae34ec9345e5962d14fcf2df952a3034'
p442
sg107
S'3967185a4b7672cf1364eda045292122'
p443
sg109
(lp444
g367
ag374
ag381
ag388
ag395
ag402
ag409
ag416
ag423
asg111
Nsba(ibclass
BBasicBlock
p445
(dp446
g12
Nsg13
(lp447
(ibclass
BInstr
p448
(dp449
g2
Nsg17
S'LDMFD   SP!, {R3-R11,LR}'
p450
sg19
S'f84fbde8'
p451
sg21
Vpop {r3, r4, r5, r6, r7, r8, sb, sl, fp, lr}
p452
sg5
L811704L
sg6
Nsg23
S'LDM'
p453
sg25
S'0xc62b8L'
p454
sg27
Nsba(ibclass
BInstr
p455
(dp456
g2
Nsg17
S'BX      LR'
p457
sg19
S'1eff2fe1'
p458
sg21
Vbx lr
p459
sg5
L811708L
sg6
Nsg23
S'BX'
p460
sg25
S'0xc62bcL'
p461
sg27
Nsbasg84
(lp462
S'LDMFD SP!, {R3-R11,LR}'
p463
aS'BX LR'
p464
asg95
Nsg5
S'0xc62b8L'
p465
sg97
(lp466
S'0xc6264L'
p467
aS'0xc6294L'
p468
aS'0xc62c0L'
p469
aS'0xc630cL'
p470
asg6
Nsg99
(lp471
sg103
Nsg104
Nsg105
S'1bbf04f23edc7b30d215c55a7294459f'
p472
sg107
S'e1e1d40e8722409ae01d9ff009231128'
p473
sg109
(lp474
g453
ag460
asg111
Nsba(ibclass
BBasicBlock
p475
(dp476
g12
Nsg13
(lp477
(ibclass
BInstr
p478
(dp479
g2
Nsg17
S'CMP     R1, #0'
p480
sg19
S'000051e3'
p481
sg21
Vcmp r1, #0
p482
sg5
L811712L
sg6
Nsg23
S'CMP'
p483
sg25
S'0xc62c0L'
p484
sg27
Nsba(ibclass
BInstr
p485
(dp486
g2
Nsg17
S'MOVNE   R0, R1'
p487
sg19
S'0100a011'
p488
sg21
Vmovne r0, r1
p489
sg5
L811716L
sg6
Nsg23
S'MOV'
p490
sg25
S'0xc62c4L'
p491
sg27
Nsba(ibclass
BInstr
p492
(dp493
g2
Nsg17
S'STREQ   R10, [maxlen]'
p494
sg19
S'00a08505'
p495
sg21
Vstreq sl, [r5]
p496
sg5
L811720L
sg6
Nsg23
S'STR'
p497
sg25
S'0xc62c8L'
p498
sg27
Nsba(ibclass
BInstr
p499
(dp500
g2
Nsg17
S'MOVEQ   R0, R10         ; num'
p501
sg19
S'0a00a001'
p502
sg21
Vmoveq r0, sl
p503
sg5
L811724L
sg6
Nsg23
S'MOV'
p504
sg25
S'0xc62ccL'
p505
sg27
Nsba(ibclass
BInstr
p506
(dp507
g2
Nsg17
S'MOV     R1, R7          ; file'
p508
sg19
S'0710a0e1'
p509
sg21
Vmov r1, r7
p510
sg5
L811728L
sg6
Nsg23
S'MOV'
p511
sg25
S'0xc62d0L'
p512
sg27
Nsba(ibclass
BInstr
p513
(dp514
g2
Nsg17
S'MOV     R2, #0x2C8      ; line'
p515
sg19
S'b22fa0e3'
p516
sg21
Vmov r2, #0x2c8
p517
sg5
L811732L
sg6
Nsg23
S'MOV'
p518
sg25
S'0xc62d4L'
p519
sg27
Nsba(ibclass
BInstr
p520
(dp521
g2
Nsg17
S'BL      CRYPTO_malloc'
p522
sg19
S'9501feeb'
p523
sg21
Vbl #0xfff8065c
p524
sg5
L811736L
sg6
Nsg23
S'BL'
p525
sg25
S'0xc62d8L'
p526
sg27
Nsba(ibclass
BInstr
p527
(dp528
g2
Nsg17
S'CMP     R0, #0'
p529
sg19
S'000050e3'
p530
sg21
Vcmp r0, #0
p531
sg5
L811740L
sg6
Nsg23
S'CMP'
p532
sg25
S'0xc62dcL'
p533
sg27
Nsba(ibclass
BInstr
p534
(dp535
g2
Nsg17
S'STR     R0, [buffer]'
p536
sg19
S'000084e5'
p537
sg21
Vstr r0, [r4]
p538
sg5
L811744L
sg6
Nsg23
S'STR'
p539
sg25
S'0xc62e0L'
p540
sg27
Nsba(ibclass
BInstr
p541
(dp542
g2
Nsg17
S'BEQ     loc_C62B8'
p543
sg19
S'f3ffff0a'
p544
sg21
Vbeq #0xffffffd4
p545
sg5
L811748L
sg6
Nsg23
g82
sg25
S'0xc62e4L'
p546
sg27
Nsbasg84
(lp547
S'CMP R1, #0'
p548
aS'MOVNE R0, R1'
p549
aS'STREQ R10, mem'
p550
aS'MOVEQ R0, R10'
p551
aS'MOV R1, R7'
p552
aS'MOV R2, #0x2C8'
p553
aS'BL CRYPTO_mregloc'
p554
aS'CMP R0, #0'
p555
aS'STR R0, mem'
p556
aS'BEQ func'
p557
asg95
Nsg5
S'0xc62c0L'
p558
sg97
(lp559
S'0xc6258L'
p560
asg6
Nsg99
(lp561
S'0xc62b8L'
p562
aS'0xc62e8L'
p563
asg103
Nsg104
Nsg105
S'17c8b2a5ba0b43f0df839f7bc1870370'
p564
sg107
S'8d36a5f287480ab9100badb55c3742b4'
p565
sg109
(lp566
g483
ag490
ag497
ag504
ag511
ag518
ag525
ag532
ag539
ag82
asg111
Nsba(ibclass
BBasicBlock
p567
(dp568
g12
Nsg13
(lp569
(ibclass
BInstr
p570
(dp571
g2
Nsg17
S'LDR     R2, [currlen]   ; n'
p572
sg19
S'002096e5'
p573
sg21
Vldr r2, [r6]
p574
sg5
L811752L
sg6
Nsg23
S'LDR'
p575
sg25
S'0xc62e8L'
p576
sg27
Nsba(ibclass
BInstr
p577
(dp578
g2
Nsg17
S'CMP     R2, #0'
p579
sg19
S'000052e3'
p580
sg21
Vcmp r2, #0
p581
sg5
L811756L
sg6
Nsg23
S'CMP'
p582
sg25
S'0xc62ecL'
p583
sg27
Nsba(ibclass
BInstr
p584
(dp585
g2
Nsg17
S'STREQ   R9, [sbuffer]'
p586
sg19
S'00908805'
p587
sg21
Vstreq sb, [r8]
p588
sg5
L811760L
sg6
Nsg23
S'STR'
p589
sg25
S'0xc62f0L'
p590
sg27
Nsba(ibclass
BInstr
p591
(dp592
g2
Nsg17
S'BEQ     loc_C624C'
p593
sg19
S'd4ffff0a'
p594
sg21
Vbeq #0xffffff58
p595
sg5
L811764L
sg6
Nsg23
g82
sg25
S'0xc62f4L'
p596
sg27
Nsbasg84
(lp597
S'LDR R2, mem'
p598
aS'CMP R2, #0'
p599
aS'STREQ R9, mem'
p600
aS'BEQ func'
p601
asg95
Nsg5
S'0xc62e8L'
p602
sg97
(lp603
S'0xc62c0L'
p604
asg6
Nsg99
(lp605
S'0xc624cL'
p606
aS'0xc62f8L'
p607
asg103
Nsg104
Nsg105
S'bcc778ef8f19fc83a4a5e08715b1b172'
p608
sg107
S'5b37fa469e42b86daf95ebb079bea09f'
p609
sg109
(lp610
g575
ag582
ag589
ag82
asg111
Nsba(ibclass
BBasicBlock
p611
(dp612
g12
Nsg13
(lp613
(ibclass
BInstr
p614
(dp615
g2
Nsg17
S'LDR     R1, [sbuffer]   ; src'
p616
sg19
S'001098e5'
p617
sg21
Vldr r1, [r8]
p618
sg5
L811768L
sg6
Nsg23
S'LDR'
p619
sg25
S'0xc62f8L'
p620
sg27
Nsba(ibclass
BInstr
p621
(dp622
g2
Nsg17
S'BL      memcpy'
p623
sg19
S'8efcfdeb'
p624
sg21
Vbl #0xfff7f240
p625
sg5
L811772L
sg6
Nsg23
S'BL'
p626
sg25
S'0xc62fcL'
p627
sg27
Nsba(ibclass
BInstr
p628
(dp629
g2
Nsg17
S'LDR     R2, [currlen]'
p630
sg19
S'002096e5'
p631
sg21
Vldr r2, [r6]
p632
sg5
L811776L
sg6
Nsg23
S'LDR'
p633
sg25
S'0xc6300L'
p634
sg27
Nsba(ibclass
BInstr
p635
(dp636
g2
Nsg17
S'STR     R9, [sbuffer]'
p637
sg19
S'009088e5'
p638
sg21
Vstr sb, [r8]
p639
sg5
L811780L
sg6
Nsg23
S'STR'
p640
sg25
S'0xc6304L'
p641
sg27
Nsba(ibclass
BInstr
p642
(dp643
g2
Nsg17
S'B       loc_C624C'
p644
sg19
S'cfffffea'
p645
sg21
Vb #0xffffff44
p646
sg5
L811784L
sg6
Nsg23
g82
sg25
S'0xc6308L'
p647
sg27
Nsbasg84
(lp648
S'LDR R1, mem'
p649
aS'BL memcpy'
p650
aS'LDR R2, mem'
p651
aS'STR R9, mem'
p652
aS'B func'
p653
asg95
Nsg5
S'0xc62f8L'
p654
sg97
(lp655
S'0xc62e8L'
p656
asg6
Nsg99
(lp657
S'0xc624cL'
p658
asg103
Nsg104
Nsg105
S'261269c32bce0205fd2c619340759169'
p659
sg107
S'91aa20f27fb0c5ac37837af8d03c4b3e'
p660
sg109
(lp661
g619
ag626
ag633
ag640
ag82
asg111
Nsba(ibclass
BBasicBlock
p662
(dp663
g12
Nsg13
(lp664
(ibclass
BInstr
p665
(dp666
g2
Nsg17
S'LDR     R3, [R3]'
p667
sg19
S'003093e5'
p668
sg21
Vldr r3, [r3]
p669
sg5
L811788L
sg6
Nsg23
S'LDR'
p670
sg25
S'0xc630cL'
p671
sg27
Nsba(ibclass
BInstr
p672
(dp673
g2
Nsg17
S'LDR     R2, [R2]'
p674
sg19
S'002092e5'
p675
sg21
Vldr r2, [r2]
p676
sg5
L811792L
sg6
Nsg23
S'LDR'
p677
sg25
S'0xc6310L'
p678
sg27
Nsba(ibclass
BInstr
p679
(dp680
g2
Nsg17
S'CMP     R2, R3'
p681
sg19
S'030052e1'
p682
sg21
Vcmp r2, r3
p683
sg5
L811796L
sg6
Nsg23
S'CMP'
p684
sg25
S'0xc6314L'
p685
sg27
Nsba(ibclass
BInstr
p686
(dp687
g2
Nsg17
S'BCS     loc_C62B8'
p688
sg19
S'e6ffff2a'
p689
sg21
Vbhs #0xffffffa0
p690
sg5
L811800L
sg6
Nsg23
g82
sg25
S'0xc6318L'
p691
sg27
Nsbasg84
(lp692
S'LDR R3, mem'
p693
aS'LDR R2, mem'
p694
aS'CMP R2, R3'
p695
aS'BCS func'
p696
asg95
Nsg5
S'0xc630cL'
p697
sg97
(lp698
S'0xc6214L'
p699
asg6
Nsg99
(lp700
S'0xc62b8L'
p701
aS'0xc631cL'
p702
asg103
Nsg104
Nsg105
S'd9812e74326a7ebe01ae9e2a00bbb5ee'
p703
sg107
S'e0f6e8a4be5b0c0103c93685fcff1c44'
p704
sg109
(lp705
g670
ag677
ag684
ag82
asg111
Nsba(ibclass
BBasicBlock
p706
(dp707
g12
Nsg13
(lp708
(ibclass
BInstr
p709
(dp710
g2
Nsg17
S'B       loc_C6294'
p711
sg19
S'dcffffea'
p712
sg21
Vb #0xffffff78
p713
sg5
L811804L
sg6
Nsg23
g82
sg25
S'0xc631cL'
p714
sg27
Nsbasg84
(lp715
S'B func'
p716
asg95
Nsg5
S'0xc631cL'
p717
sg97
(lp718
S'0xc630cL'
p719
asg6
Nsg99
(lp720
S'0xc6294L'
p721
asg103
Nsg104
Nsg105
S'9d5ed678fe57bcca610140957afab571'
p722
sg107
S'071b057c420e304c628380fd3541c021'
p723
sg109
(lp724
g82
asg111
Nsbasb.