(ibclass
BFunc
p0
(dp1
S'hash'
p2
NsS'name'
p3
S'SRP_user_pwd_free'
p4
sS'start_address'
p5
L1315976L
sS'flag'
p6
NsS'program'
p7
NsS'bbs'
p8
(lp9
(ibclass
BBasicBlock
p10
(dp11
S'function'
p12
NsS'binstrs'
p13
(lp14
(ibclass
BInstr
p15
(dp16
g2
NsS'disasm'
p17
S'STMFD   SP!, {R4,LR}'
p18
sS'bytes'
p19
S'10402de9'
p20
sS'disasm_striped'
p21
Vpush {r4, lr}
p22
sg5
L1315976L
sg6
NsS'mnem'
p23
S'STM'
p24
sS'address'
p25
S'0x141488L'
p26
sS'basicblock'
p27
Nsba(ibclass
BInstr
p28
(dp29
g2
Nsg17
S'SUBS    R4, user_pwd, #0'
p30
sg19
S'004050e2'
p31
sg21
Vsubs r4, r0, #0
p32
sg5
L1315980L
sg6
Nsg23
S'SUB'
p33
sg25
S'0x14148cL'
p34
sg27
Nsba(ibclass
BInstr
p35
(dp36
g2
Nsg17
S'BEQ     loc_1414BC'
p37
sg19
S'0900000a'
p38
sg21
Vbeq #0x2c
p39
sg5
L1315984L
sg6
Nsg23
S'B'
p40
sg25
S'0x141490L'
p41
sg27
NsbasS'disasm_list'
p42
(lp43
S'STMFD SP!, {R4,LR}'
p44
aS'SUBS R4, user_pwd, #0'
p45
aS'BEQ func'
p46
asS'end_address'
p47
Nsg5
S'0x141488L'
p48
sS'preds'
p49
(lp50
sg6
NsS'succs'
p51
(lp52
S'0x141494L'
p53
aS'0x1414bcL'
p54
asS'hash_v3'
p55
NsS'flag_v2'
p56
NsS'hash_v1'
p57
S'd36a86e7d8909d166a460f442eb8fd92'
p58
sS'hash_v2'
p59
S'11b4dbde0da8ce5f33e362e01d676609'
p60
sS'mnen_list'
p61
(lp62
g24
ag33
ag40
asS'neighbour_disasm_list'
p63
Nsba(ibclass
BBasicBlock
p64
(dp65
g12
Nsg13
(lp66
(ibclass
BInstr
p67
(dp68
g2
Nsg17
S'LDR     R0, [user_pwd,#4]; a'
p69
sg19
S'040094e5'
p70
sg21
Vldr r0, [r4, #4]
p71
sg5
L1315988L
sg6
Nsg23
S'LDR'
p72
sg25
S'0x141494L'
p73
sg27
Nsba(ibclass
BInstr
p74
(dp75
g2
Nsg17
S'BL      BN_free'
p76
sg19
S'da22fdeb'
p77
sg21
Vbl #0xfff48b70
p78
sg5
L1315992L
sg6
Nsg23
S'BL'
p79
sg25
S'0x141498L'
p80
sg27
Nsba(ibclass
BInstr
p81
(dp82
g2
Nsg17
S'LDR     R0, [user_pwd,#8]; a'
p83
sg19
S'080094e5'
p84
sg21
Vldr r0, [r4, #8]
p85
sg5
L1315996L
sg6
Nsg23
S'LDR'
p86
sg25
S'0x14149cL'
p87
sg27
Nsba(ibclass
BInstr
p88
(dp89
g2
Nsg17
S'BL      BN_clear_free'
p90
sg19
S'6924fdeb'
p91
sg21
Vbl #0xfff491ac
p92
sg5
L1316000L
sg6
Nsg23
S'BL'
p93
sg25
S'0x1414a0L'
p94
sg27
Nsba(ibclass
BInstr
p95
(dp96
g2
Nsg17
S'LDR     R0, [user_pwd]  ; str'
p97
sg19
S'000094e5'
p98
sg21
Vldr r0, [r4]
p99
sg5
L1316004L
sg6
Nsg23
S'LDR'
p100
sg25
S'0x1414a4L'
p101
sg27
Nsba(ibclass
BInstr
p102
(dp103
g2
Nsg17
S'BL      CRYPTO_free'
p104
sg19
S'b415fceb'
p105
sg21
Vbl #0xfff056d8
p106
sg5
L1316008L
sg6
Nsg23
S'BL'
p107
sg25
S'0x1414a8L'
p108
sg27
Nsba(ibclass
BInstr
p109
(dp110
g2
Nsg17
S'LDR     R0, [user_pwd,#0x14]; str'
p111
sg19
S'140094e5'
p112
sg21
Vldr r0, [r4, #0x14]
p113
sg5
L1316012L
sg6
Nsg23
S'LDR'
p114
sg25
S'0x1414acL'
p115
sg27
Nsba(ibclass
BInstr
p116
(dp117
g2
Nsg17
S'BL      CRYPTO_free'
p118
sg19
S'b215fceb'
p119
sg21
Vbl #0xfff056d0
p120
sg5
L1316016L
sg6
Nsg23
S'BL'
p121
sg25
S'0x1414b0L'
p122
sg27
Nsba(ibclass
BInstr
p123
(dp124
g2
Nsg17
S'MOV     R0, user_pwd    ; str'
p125
sg19
S'0400a0e1'
p126
sg21
Vmov r0, r4
p127
sg5
L1316020L
sg6
Nsg23
S'MOV'
p128
sg25
S'0x1414b4L'
p129
sg27
Nsba(ibclass
BInstr
p130
(dp131
g2
Nsg17
S'BL      CRYPTO_free'
p132
sg19
S'b015fceb'
p133
sg21
Vbl #0xfff056c8
p134
sg5
L1316024L
sg6
Nsg23
S'BL'
p135
sg25
S'0x1414b8L'
p136
sg27
Nsbasg42
(lp137
S'LDR R0, mem'
p138
aS'BL BN_free'
p139
aS'LDR R0, mem'
p140
aS'BL BN_regear_free'
p141
aS'LDR R0, mem'
p142
aS'BL CRYPTO_free'
p143
aS'LDR R0, mem'
p144
aS'BL CRYPTO_free'
p145
aS'MOV R0, user_pwd'
p146
aS'BL CRYPTO_free'
p147
asg47
Nsg5
S'0x141494L'
p148
sg49
(lp149
S'0x141488L'
p150
asg6
Nsg51
(lp151
S'0x1414bcL'
p152
asg55
Nsg56
Nsg57
S'd3fdfca90939cfcb04500fd27b2e6abb'
p153
sg59
S'e39c823bc643b1d0f1ee703c56edcb8d'
p154
sg61
(lp155
g72
ag79
ag86
ag93
ag100
ag107
ag114
ag121
ag128
ag135
asg63
Nsba(ibclass
BBasicBlock
p156
(dp157
g12
Nsg13
(lp158
(ibclass
BInstr
p159
(dp160
g2
Nsg17
S'LDMFD   SP!, {user_pwd,LR}'
p161
sg19
S'1040bde8'
p162
sg21
Vpop {r4, lr}
p163
sg5
L1316028L
sg6
Nsg23
S'LDM'
p164
sg25
S'0x1414bcL'
p165
sg27
Nsba(ibclass
BInstr
p166
(dp167
g2
Nsg17
S'BX      LR'
p168
sg19
S'1eff2fe1'
p169
sg21
Vbx lr
p170
sg5
L1316032L
sg6
Nsg23
S'BX'
p171
sg25
S'0x1414c0L'
p172
sg27
Nsbasg42
(lp173
S'LDMFD SP!, {user_pwd,LR}'
p174
aS'BX LR'
p175
asg47
Nsg5
S'0x1414bcL'
p176
sg49
(lp177
S'0x141488L'
p178
aS'0x141494L'
p179
asg6
Nsg51
(lp180
sg55
Nsg56
Nsg57
S'1bbf04f23edc7b30d215c55a7294459f'
p181
sg59
S'076f727018445a68856d6d7c55f6859d'
p182
sg61
(lp183
g164
ag171
asg63
Nsbasb.