(ibclass
BFunc
p0
(dp1
S'hash'
p2
NsS'name'
p3
S'X509_to_X509_REQ'
p4
sS'start_address'
p5
L1072900L
sS'flag'
p6
NsS'program'
p7
NsS'bbs'
p8
(lp9
(ibclass
BBasicBlock
p10
(dp11
S'function'
p12
NsS'binstrs'
p13
(lp14
(ibclass
BInstr
p15
(dp16
g2
NsS'disasm'
p17
S'STMFD   SP!, {ret-R8,R10,LR}'
p18
sS'bytes'
p19
S'f0452de9'
p20
sS'disasm_striped'
p21
Vpush {r4, r5, r6, r7, r8, sl, lr}
p22
sg5
L1072900L
sg6
NsS'mnem'
p23
S'STM'
p24
sS'address'
p25
S'0x105f04L'
p26
sS'basicblock'
p27
Nsba(ibclass
BInstr
p28
(dp29
g2
Nsg17
S'SUB     SP, SP, #0xC'
p30
sg19
S'0cd04de2'
p31
sg21
Vsub sp, sp, #0xc
p32
sg5
L1072904L
sg6
Nsg23
S'SUB'
p33
sg25
S'0x105f08L'
p34
sg27
Nsba(ibclass
BInstr
p35
(dp36
g2
Nsg17
S'MOV     R7, x'
p37
sg19
S'0070a0e1'
p38
sg21
Vmov r7, r0
p39
sg5
L1072908L
sg6
Nsg23
S'MOV'
p40
sg25
S'0x105f0cL'
p41
sg27
Nsba(ibclass
BInstr
p42
(dp43
g2
Nsg17
S'MOV     R8, pkey'
p44
sg19
S'0180a0e1'
p45
sg21
Vmov r8, r1
p46
sg5
L1072912L
sg6
Nsg23
S'MOV'
p47
sg25
S'0x105f10L'
p48
sg27
Nsba(ibclass
BInstr
p49
(dp50
g2
Nsg17
S'MOV     R10, md'
p51
sg19
S'02a0a0e1'
p52
sg21
Vmov sl, r2
p53
sg5
L1072916L
sg6
Nsg23
S'MOV'
p54
sg25
S'0x105f14L'
p55
sg27
Nsba(ibclass
BInstr
p56
(dp57
g2
Nsg17
S'BL      X509_REQ_new'
p58
sg19
S'9a8bffeb'
p59
sg21
Vbl #0xfffe2e70
p60
sg5
L1072920L
sg6
Nsg23
S'BL'
p61
sg25
S'0x105f18L'
p62
sg27
Nsba(ibclass
BInstr
p63
(dp64
g2
Nsg17
S'LDR     R3, =($_GLOBAL_OFFSET_TABLE_ - 0x105F2C)'
p65
sg19
S'f0309fe5'
p66
sg21
Vldr r3, [pc, #0xf0]
p67
sg5
L1072924L
sg6
Nsg23
S'LDR'
p68
sg25
S'0x105f1cL'
p69
sg27
Nsba(ibclass
BInstr
p70
(dp71
g2
Nsg17
S'SUBS    ret, R0, #0'
p72
sg19
S'004050e2'
p73
sg21
Vsubs r4, r0, #0
p74
sg5
L1072928L
sg6
Nsg23
S'SUB'
p75
sg25
S'0x105f20L'
p76
sg27
Nsba(ibclass
BInstr
p77
(dp78
g2
Nsg17
S'ADD     R3, PC, R3 ; $_GLOBAL_OFFSET_TABLE_'
p79
sg19
S'03308fe0'
p80
sg21
Vadd r3, pc, r3
p81
sg5
L1072932L
sg6
Nsg23
S'ADD'
p82
sg25
S'0x105f24L'
p83
sg27
Nsba(ibclass
BInstr
p84
(dp85
g2
Nsg17
S'BEQ     loc_105FE4'
p86
sg19
S'2d00000a'
p87
sg21
Vbeq #0xbc
p88
sg5
L1072936L
sg6
Nsg23
S'B'
p89
sg25
S'0x105f28L'
p90
sg27
NsbasS'disasm_list'
p91
(lp92
S'STMFD SP!, {ret-R8,R10,LR}'
p93
aS'SUB SP, SP, #0xC'
p94
aS'MOV R7, x'
p95
aS'MOV R8, pkey'
p96
aS'MOV R10, md'
p97
aS'BL X509_REQ_new'
p98
aS'LDR R3, =($_GLOBAL_OFFSET_TABLE_ - 0x105F2C)'
p99
aS'SUBS ret, R0, #0'
p100
aS'ADD R3, PC, R3'
p101
aS'BEQ func'
p102
asS'end_address'
p103
Nsg5
S'0x105f04L'
p104
sS'preds'
p105
(lp106
sg6
NsS'succs'
p107
(lp108
S'0x105f2cL'
p109
aS'0x105fe4L'
p110
asS'hash_v3'
p111
NsS'flag_v2'
p112
NsS'hash_v1'
p113
S'f7fbfbc8a7cdfd6f31e0558fa464475d'
p114
sS'hash_v2'
p115
S'6d431119071bfd6de8057b27587e7f66'
p116
sS'mnen_list'
p117
(lp118
g24
ag33
ag40
ag47
ag54
ag61
ag68
ag75
ag82
ag89
asS'neighbour_disasm_list'
p119
Nsba(ibclass
BBasicBlock
p120
(dp121
g12
Nsg13
(lp122
(ibclass
BInstr
p123
(dp124
g2
Nsg17
S'LDR     R6, [ret]'
p125
sg19
S'006094e5'
p126
sg21
Vldr r6, [r4]
p127
sg5
L1072940L
sg6
Nsg23
S'LDR'
p128
sg25
S'0x105f2cL'
p129
sg27
Nsba(ibclass
BInstr
p130
(dp131
g2
Nsg17
S'LDR     R1, =(aX509_req_c - 0x189000)'
p132
sg19
S'e0109fe5'
p133
sg21
Vldr r1, [pc, #0xe0]
p134
sg5
L1072944L
sg6
Nsg23
S'LDR'
p135
sg25
S'0x105f30L'
p136
sg27
Nsba(ibclass
BInstr
p137
(dp138
g2
Nsg17
S'LDR     R5, [ri,#0xC]'
p139
sg19
S'0c5096e5'
p140
sg21
Vldr r5, [r6, #0xc]
p141
sg5
L1072948L
sg6
Nsg23
S'LDR'
p142
sg25
S'0x105f34L'
p143
sg27
Nsba(ibclass
BInstr
p144
(dp145
g2
Nsg17
S'MOV     R0, #1          ; num'
p146
sg19
S'0100a0e3'
p147
sg21
Vmov r0, #1
p148
sg5
L1072952L
sg6
Nsg23
S'MOV'
p149
sg25
S'0x105f38L'
p150
sg27
Nsba(ibclass
BInstr
p151
(dp152
g2
Nsg17
S'ADD     R1, R3, R1      ; "x509_req.c"'
p153
sg19
S'011083e0'
p154
sg21
Vadd r1, r3, r1
p155
sg5
L1072956L
sg6
Nsg23
S'ADD'
p156
sg25
S'0x105f3cL'
p157
sg27
Nsba(ibclass
BInstr
p158
(dp159
g2
Nsg17
S'STR     R0, [R5]'
p160
sg19
S'000085e5'
p161
sg21
Vstr r0, [r5]
p162
sg5
L1072960L
sg6
Nsg23
S'STR'
p163
sg25
S'0x105f40L'
p164
sg27
Nsba(ibclass
BInstr
p165
(dp166
g2
Nsg17
S'MOV     R2, #0x56       ; line'
p167
sg19
S'5620a0e3'
p168
sg21
Vmov r2, #0x56
p169
sg5
L1072964L
sg6
Nsg23
S'MOV'
p170
sg25
S'0x105f44L'
p171
sg27
Nsba(ibclass
BInstr
p172
(dp173
g2
Nsg17
S'BL      CRYPTO_malloc'
p174
sg19
S'9102fdeb'
p175
sg21
Vbl #0xfff40a4c
p176
sg5
L1072968L
sg6
Nsg23
S'BL'
p177
sg25
S'0x105f48L'
p178
sg27
Nsba(ibclass
BInstr
p179
(dp180
g2
Nsg17
S'LDR     R3, [ri,#0xC]'
p181
sg19
S'0c3096e5'
p182
sg21
Vldr r3, [r6, #0xc]
p183
sg5
L1072972L
sg6
Nsg23
S'LDR'
p184
sg25
S'0x105f4cL'
p185
sg27
Nsba(ibclass
BInstr
p186
(dp187
g2
Nsg17
S'STR     R0, [R5,#8]'
p188
sg19
S'080085e5'
p189
sg21
Vstr r0, [r5, #8]
p190
sg5
L1072976L
sg6
Nsg23
S'STR'
p191
sg25
S'0x105f50L'
p192
sg27
Nsba(ibclass
BInstr
p193
(dp194
g2
Nsg17
S'LDR     R3, [R3,#8]'
p195
sg19
S'083093e5'
p196
sg21
Vldr r3, [r3, #8]
p197
sg5
L1072980L
sg6
Nsg23
S'LDR'
p198
sg25
S'0x105f54L'
p199
sg27
Nsba(ibclass
BInstr
p200
(dp201
g2
Nsg17
S'CMP     R3, #0'
p202
sg19
S'000053e3'
p203
sg21
Vcmp r3, #0
p204
sg5
L1072984L
sg6
Nsg23
S'CMP'
p205
sg25
S'0x105f58L'
p206
sg27
Nsba(ibclass
BInstr
p207
(dp208
g2
Nsg17
S'BEQ     err'
p209
sg19
S'2800000a'
p210
sg21
Vbeq #0xa8
p211
sg5
L1072988L
sg6
Nsg23
g89
sg25
S'0x105f5cL'
p212
sg27
Nsbasg91
(lp213
S'LDR R6, mem'
p214
aS'LDR R1, =(aX509_req_c - address0)'
p215
aS'LDR R5, mem'
p216
aS'MOV R0, #1'
p217
aS'ADD R1, R3, R1'
p218
aS'STR R0, mem'
p219
aS'MOV R2, #0x56'
p220
aS'BL CRYPTO_mregloc'
p221
aS'LDR R3, mem'
p222
aS'STR R0, mem'
p223
aS'LDR R3, mem'
p224
aS'CMP R3, #0'
p225
aS'BEQ err'
p226
asg103
Nsg5
S'0x105f2cL'
p227
sg105
(lp228
S'0x105f04L'
p229
asg6
Nsg107
(lp230
S'0x105f60L'
p231
aS'0x106004L'
p232
asg111
Nsg112
Nsg113
S'23a77d3f879545197dbe691545d0d5fe'
p233
sg115
S'b11697023bf39818ab35428372639cb2'
p234
sg117
(lp235
g128
ag135
ag142
ag149
ag156
ag163
ag170
ag177
ag184
ag191
ag198
ag205
ag89
asg119
Nsba(ibclass
BBasicBlock
p236
(dp237
g12
Nsg13
(lp238
(ibclass
BInstr
p239
(dp240
g2
Nsg17
S'MOV     R2, #0'
p241
sg19
S'0020a0e3'
p242
sg21
Vmov r2, #0
p243
sg5
L1072992L
sg6
Nsg23
S'MOV'
p244
sg25
S'0x105f60L'
p245
sg27
Nsba(ibclass
BInstr
p246
(dp247
g2
Nsg17
S'STRB    R2, [R3]'
p248
sg19
S'0020c3e5'
p249
sg21
Vstrb r2, [r3]
p250
sg5
L1072996L
sg6
Nsg23
S'STR'
p251
sg25
S'0x105f64L'
p252
sg27
Nsba(ibclass
BInstr
p253
(dp254
g2
Nsg17
S'MOV     R0, x           ; a'
p255
sg19
S'0700a0e1'
p256
sg21
Vmov r0, r7
p257
sg5
L1073000L
sg6
Nsg23
S'MOV'
p258
sg25
S'0x105f68L'
p259
sg27
Nsba(ibclass
BInstr
p260
(dp261
g2
Nsg17
S'BL      X509_get_subject_name'
p262
sg19
S'f6faffeb'
p263
sg21
Vbl #0xffffebe0
p264
sg5
L1073004L
sg6
Nsg23
S'BL'
p265
sg25
S'0x105f6cL'
p266
sg27
Nsba(ibclass
BInstr
p267
(dp268
g2
Nsg17
S'MOV     R1, R0          ; name'
p269
sg19
S'0010a0e1'
p270
sg21
Vmov r1, r0
p271
sg5
L1073008L
sg6
Nsg23
S'MOV'
p272
sg25
S'0x105f70L'
p273
sg27
Nsba(ibclass
BInstr
p274
(dp275
g2
Nsg17
S'MOV     R0, ret         ; x'
p276
sg19
S'0400a0e1'
p277
sg21
Vmov r0, r4
p278
sg5
L1073012L
sg6
Nsg23
S'MOV'
p279
sg25
S'0x105f74L'
p280
sg27
Nsba(ibclass
BInstr
p281
(dp282
g2
Nsg17
S'BL      X509_REQ_set_subject_name'
p283
sg19
S'2c0f00eb'
p284
sg21
Vbl #0x3cb8
p285
sg5
L1073016L
sg6
Nsg23
S'BL'
p286
sg25
S'0x105f78L'
p287
sg27
Nsba(ibclass
BInstr
p288
(dp289
g2
Nsg17
S'CMP     R0, #0'
p290
sg19
S'000050e3'
p291
sg21
Vcmp r0, #0
p292
sg5
L1073020L
sg6
Nsg23
S'CMP'
p293
sg25
S'0x105f7cL'
p294
sg27
Nsba(ibclass
BInstr
p295
(dp296
g2
Nsg17
S'BEQ     err'
p297
sg19
S'1f00000a'
p298
sg21
Vbeq #0x84
p299
sg5
L1073024L
sg6
Nsg23
g89
sg25
S'0x105f80L'
p300
sg27
Nsbasg91
(lp301
S'MOV R2, #0'
p302
aS'STRB R2, mem'
p303
aS'MOV R0, x'
p304
aS'BL X509_get_subject_name'
p305
aS'MOV R1, R0'
p306
aS'MOV R0, ret'
p307
aS'BL X509_REQ_set_subject_name'
p308
aS'CMP R0, #0'
p309
aS'BEQ err'
p310
asg103
Nsg5
S'0x105f60L'
p311
sg105
(lp312
S'0x105f2cL'
p313
asg6
Nsg107
(lp314
S'0x105f84L'
p315
aS'0x106004L'
p316
asg111
Nsg112
Nsg113
S'72ac2125ce941caa8eafc59cf5002786'
p317
sg115
S'77bead079c34e04c65f108e2b9540f14'
p318
sg117
(lp319
g244
ag251
ag258
ag265
ag272
ag279
ag286
ag293
ag89
asg119
Nsba(ibclass
BBasicBlock
p320
(dp321
g12
Nsg13
(lp322
(ibclass
BInstr
p323
(dp324
g2
Nsg17
S'MOV     R0, x           ; x'
p325
sg19
S'0700a0e1'
p326
sg21
Vmov r0, r7
p327
sg5
L1073028L
sg6
Nsg23
S'MOV'
p328
sg25
S'0x105f84L'
p329
sg27
Nsba(ibclass
BInstr
p330
(dp331
g2
Nsg17
S'BL      X509_get_pubkey'
p332
sg19
S'4dfbffeb'
p333
sg21
Vbl #0xffffed3c
p334
sg5
L1073032L
sg6
Nsg23
S'BL'
p335
sg25
S'0x105f88L'
p336
sg27
Nsba(ibclass
BInstr
p337
(dp338
g2
Nsg17
S'SUBS    R5, R0, #0'
p339
sg19
S'005050e2'
p340
sg21
Vsubs r5, r0, #0
p341
sg5
L1073036L
sg6
Nsg23
S'SUB'
p342
sg25
S'0x105f8cL'
p343
sg27
Nsba(ibclass
BInstr
p344
(dp345
g2
Nsg17
S'BEQ     err'
p346
sg19
S'1b00000a'
p347
sg21
Vbeq #0x74
p348
sg5
L1073040L
sg6
Nsg23
g89
sg25
S'0x105f90L'
p349
sg27
Nsbasg91
(lp350
S'MOV R0, x'
p351
aS'BL X509_get_pubkey'
p352
aS'SUBS R5, R0, #0'
p353
aS'BEQ err'
p354
asg103
Nsg5
S'0x105f84L'
p355
sg105
(lp356
S'0x105f60L'
p357
asg6
Nsg107
(lp358
S'0x105f94L'
p359
aS'0x106004L'
p360
asg111
Nsg112
Nsg113
S'd712ad407e365d6dc92067cbbdc09d0b'
p361
sg115
S'57fb1e7ed546e75e326ceca7b8e869a7'
p362
sg117
(lp363
g328
ag335
ag342
ag89
asg119
Nsba(ibclass
BBasicBlock
p364
(dp365
g12
Nsg13
(lp366
(ibclass
BInstr
p367
(dp368
g2
Nsg17
S'MOV     R1, pktmp       ; pkey'
p369
sg19
S'0510a0e1'
p370
sg21
Vmov r1, r5
p371
sg5
L1073044L
sg6
Nsg23
S'MOV'
p372
sg25
S'0x105f94L'
p373
sg27
Nsba(ibclass
BInstr
p374
(dp375
g2
Nsg17
S'MOV     R0, ret         ; x'
p376
sg19
S'0400a0e1'
p377
sg21
Vmov r0, r4
p378
sg5
L1073048L
sg6
Nsg23
S'MOV'
p379
sg25
S'0x105f98L'
p380
sg27
Nsba(ibclass
BInstr
p381
(dp382
g2
Nsg17
S'BL      X509_REQ_set_pubkey'
p383
sg19
S'170f00eb'
p384
sg21
Vbl #0x3c64
p385
sg5
L1073052L
sg6
Nsg23
S'BL'
p386
sg25
S'0x105f9cL'
p387
sg27
Nsba(ibclass
BInstr
p388
(dp389
g2
Nsg17
S'MOV     ri, R0'
p390
sg19
S'0060a0e1'
p391
sg21
Vmov r6, r0
p392
sg5
L1073056L
sg6
Nsg23
S'MOV'
p393
sg25
S'0x105fa0L'
p394
sg27
Nsba(ibclass
BInstr
p395
(dp396
g2
Nsg17
S'MOV     R0, pktmp       ; x'
p397
sg19
S'0500a0e1'
p398
sg21
Vmov r0, r5
p399
sg5
L1073060L
sg6
Nsg23
S'MOV'
p400
sg25
S'0x105fa4L'
p401
sg27
Nsba(ibclass
BInstr
p402
(dp403
g2
Nsg17
S'BL      EVP_PKEY_free'
p404
sg19
S'e44fffeb'
p405
sg21
Vbl #0xfffd3f98
p406
sg5
L1073064L
sg6
Nsg23
S'BL'
p407
sg25
S'0x105fa8L'
p408
sg27
Nsba(ibclass
BInstr
p409
(dp410
g2
Nsg17
S'CMP     i, #0'
p411
sg19
S'000056e3'
p412
sg21
Vcmp r6, #0
p413
sg5
L1073068L
sg6
Nsg23
S'CMP'
p414
sg25
S'0x105facL'
p415
sg27
Nsba(ibclass
BInstr
p416
(dp417
g2
Nsg17
S'BEQ     err'
p418
sg19
S'1300000a'
p419
sg21
Vbeq #0x54
p420
sg5
L1073072L
sg6
Nsg23
g89
sg25
S'0x105fb0L'
p421
sg27
Nsbasg91
(lp422
S'MOV R1, pktmp'
p423
aS'MOV R0, ret'
p424
aS'BL X509_REQ_set_pubkey'
p425
aS'MOV ri, R0'
p426
aS'MOV R0, pktmp'
p427
aS'BL EVP_PKEY_free'
p428
aS'CMP i, #0'
p429
aS'BEQ err'
p430
asg103
Nsg5
S'0x105f94L'
p431
sg105
(lp432
S'0x105f84L'
p433
asg6
Nsg107
(lp434
S'0x105fb4L'
p435
aS'0x106004L'
p436
asg111
Nsg112
Nsg113
S'9d4e0fe41e7fe560e9b68b4312b936c6'
p437
sg115
S'9479492891087344371af583db13e078'
p438
sg117
(lp439
g372
ag379
ag386
ag393
ag400
ag407
ag414
ag89
asg119
Nsba(ibclass
BBasicBlock
p440
(dp441
g12
Nsg13
(lp442
(ibclass
BInstr
p443
(dp444
g2
Nsg17
S'CMP     pkey, #0'
p445
sg19
S'000058e3'
p446
sg21
Vcmp r8, #0
p447
sg5
L1073076L
sg6
Nsg23
S'CMP'
p448
sg25
S'0x105fb4L'
p449
sg27
Nsba(ibclass
BInstr
p450
(dp451
g2
Nsg17
S'BEQ     loc_105FD4'
p452
sg19
S'0500000a'
p453
sg21
Vbeq #0x1c
p454
sg5
L1073080L
sg6
Nsg23
g89
sg25
S'0x105fb8L'
p455
sg27
Nsbasg91
(lp456
S'CMP pkey, #0'
p457
aS'BEQ func'
p458
asg103
Nsg5
S'0x105fb4L'
p459
sg105
(lp460
S'0x105f94L'
p461
asg6
Nsg107
(lp462
S'0x105fbcL'
p463
aS'0x105fd4L'
p464
asg111
Nsg112
Nsg113
S'c78fd620a449e3c979d3f3ec12d4ee88'
p465
sg115
S'aa5bf672ce59d2e3d73a87026a23338b'
p466
sg117
(lp467
g448
ag89
asg119
Nsba(ibclass
BBasicBlock
p468
(dp469
g12
Nsg13
(lp470
(ibclass
BInstr
p471
(dp472
g2
Nsg17
S'MOV     R1, pkey        ; pkey'
p473
sg19
S'0810a0e1'
p474
sg21
Vmov r1, r8
p475
sg5
L1073084L
sg6
Nsg23
S'MOV'
p476
sg25
S'0x105fbcL'
p477
sg27
Nsba(ibclass
BInstr
p478
(dp479
g2
Nsg17
S'MOV     R2, md          ; md'
p480
sg19
S'0a20a0e1'
p481
sg21
Vmov r2, sl
p482
sg5
L1073088L
sg6
Nsg23
S'MOV'
p483
sg25
S'0x105fc0L'
p484
sg27
Nsba(ibclass
BInstr
p485
(dp486
g2
Nsg17
S'MOV     R0, ret         ; x'
p487
sg19
S'0400a0e1'
p488
sg21
Vmov r0, r4
p489
sg5
L1073092L
sg6
Nsg23
S'MOV'
p490
sg25
S'0x105fc4L'
p491
sg27
Nsba(ibclass
BInstr
p492
(dp493
g2
Nsg17
S'BL      X509_REQ_sign'
p494
sg19
S'521e00eb'
p495
sg21
Vbl #0x7950
p496
sg5
L1073096L
sg6
Nsg23
S'BL'
p497
sg25
S'0x105fc8L'
p498
sg27
Nsba(ibclass
BInstr
p499
(dp500
g2
Nsg17
S'CMP     R0, #0'
p501
sg19
S'000050e3'
p502
sg21
Vcmp r0, #0
p503
sg5
L1073100L
sg6
Nsg23
S'CMP'
p504
sg25
S'0x105fccL'
p505
sg27
Nsba(ibclass
BInstr
p506
(dp507
g2
Nsg17
S'BEQ     err'
p508
sg19
S'0b00000a'
p509
sg21
Vbeq #0x34
p510
sg5
L1073104L
sg6
Nsg23
g89
sg25
S'0x105fd0L'
p511
sg27
Nsbasg91
(lp512
S'MOV R1, pkey'
p513
aS'MOV R2, md'
p514
aS'MOV R0, ret'
p515
aS'BL X509_REQ_reggn'
p516
aS'CMP R0, #0'
p517
aS'BEQ err'
p518
asg103
Nsg5
S'0x105fbcL'
p519
sg105
(lp520
S'0x105fb4L'
p521
asg6
Nsg107
(lp522
S'0x105fd4L'
p523
aS'0x106004L'
p524
asg111
Nsg112
Nsg113
S'2eec518b5b871155fc1a82b2a05c75f7'
p525
sg115
S'519d87e327084790c4272b9c7067b3c2'
p526
sg117
(lp527
g476
ag483
ag490
ag497
ag504
ag89
asg119
Nsba(ibclass
BBasicBlock
p528
(dp529
g12
Nsg13
(lp530
(ibclass
BInstr
p531
(dp532
g2
Nsg17
S'MOV     R0, ret'
p533
sg19
S'0400a0e1'
p534
sg21
Vmov r0, r4
p535
sg5
L1073108L
sg6
Nsg23
S'MOV'
p536
sg25
S'0x105fd4L'
p537
sg27
Nsba(ibclass
BInstr
p538
(dp539
g2
Nsg17
S'ADD     SP, SP, #0xC'
p540
sg19
S'0cd08de2'
p541
sg21
Vadd sp, sp, #0xc
p542
sg5
L1073112L
sg6
Nsg23
S'ADD'
p543
sg25
S'0x105fd8L'
p544
sg27
Nsba(ibclass
BInstr
p545
(dp546
g2
Nsg17
S'LDMFD   SP!, {ret-pkey,md,LR}'
p547
sg19
S'f045bde8'
p548
sg21
Vpop {r4, r5, r6, r7, r8, sl, lr}
p549
sg5
L1073116L
sg6
Nsg23
S'LDM'
p550
sg25
S'0x105fdcL'
p551
sg27
Nsba(ibclass
BInstr
p552
(dp553
g2
Nsg17
S'BX      LR'
p554
sg19
S'1eff2fe1'
p555
sg21
Vbx lr
p556
sg5
L1073120L
sg6
Nsg23
S'BX'
p557
sg25
S'0x105fe0L'
p558
sg27
Nsbasg91
(lp559
S'MOV R0, ret'
p560
aS'ADD SP, SP, #0xC'
p561
aS'LDMFD SP!, {ret-pkey,md,LR}'
p562
aS'BX LR'
p563
asg103
Nsg5
S'0x105fd4L'
p564
sg105
(lp565
S'0x105fb4L'
p566
aS'0x105fbcL'
p567
aS'0x106004L'
p568
asg6
Nsg107
(lp569
sg111
Nsg112
Nsg113
S'bc984d627a05f387655964404c76526b'
p570
sg115
S'0d56dc3695f6a7b1c3546cdfe1fd80cd'
p571
sg117
(lp572
g536
ag543
ag550
ag557
asg119
Nsba(ibclass
BBasicBlock
p573
(dp574
g12
Nsg13
(lp575
(ibclass
BInstr
p576
(dp577
g2
Nsg17
S'LDR     R2, =(aX509_req_c - 0x189000)'
p578
sg19
S'2c209fe5'
p579
sg21
Vldr r2, [pc, #0x2c]
p580
sg5
L1073124L
sg6
Nsg23
S'LDR'
p581
sg25
S'0x105fe4L'
p582
sg27
Nsba(ibclass
BInstr
p583
(dp584
g2
Nsg17
S'MOV     R12, #0x4F'
p585
sg19
S'4fc0a0e3'
p586
sg21
Vmov ip, #0x4f
p587
sg5
L1073128L
sg6
Nsg23
S'MOV'
p588
sg25
S'0x105fe8L'
p589
sg27
Nsba(ibclass
BInstr
p590
(dp591
g2
Nsg17
S'ADD     R3, R3, R2      ; "x509_req.c"'
p592
sg19
S'023083e0'
p593
sg21
Vadd r3, r3, r2
p594
sg5
L1073132L
sg6
Nsg23
S'ADD'
p595
sg25
S'0x105fecL'
p596
sg27
Nsba(ibclass
BInstr
p597
(dp598
g2
Nsg17
S'MOV     R0, #0xB        ; lib'
p599
sg19
S'0b00a0e3'
p600
sg21
Vmov r0, #0xb
p601
sg5
L1073136L
sg6
Nsg23
S'MOV'
p602
sg25
S'0x105ff0L'
p603
sg27
Nsba(ibclass
BInstr
p604
(dp605
g2
Nsg17
S'MOV     R1, #0x7E       ; func'
p606
sg19
S'7e10a0e3'
p607
sg21
Vmov r1, #0x7e
p608
sg5
L1073140L
sg6
Nsg23
S'MOV'
p609
sg25
S'0x105ff4L'
p610
sg27
Nsba(ibclass
BInstr
p611
(dp612
g2
Nsg17
S'MOV     R2, #0x41       ; reason'
p613
sg19
S'4120a0e3'
p614
sg21
Vmov r2, #0x41
p615
sg5
L1073144L
sg6
Nsg23
S'MOV'
p616
sg25
S'0x105ff8L'
p617
sg27
Nsba(ibclass
BInstr
p618
(dp619
g2
Nsg17
S'STR     R12, [SP,#0x28+line]; line'
p620
sg19
S'00c08de5'
p621
sg21
Vstr ip, [sp]
p622
sg5
L1073148L
sg6
Nsg23
S'STR'
p623
sg25
S'0x105ffcL'
p624
sg27
Nsba(ibclass
BInstr
p625
(dp626
g2
Nsg17
S'BL      ERR_put_error'
p627
sg19
S'2b2fffeb'
p628
sg21
Vbl #0xfffcbcb4
p629
sg5
L1073152L
sg6
Nsg23
S'BL'
p630
sg25
S'0x106000L'
p631
sg27
Nsbasg91
(lp632
S'LDR R2, =(aX509_req_c - address0)'
p633
aS'MOV R12, #0x4F'
p634
aS'ADD R3, R3, R2'
p635
aS'MOV R0, #0xB'
p636
aS'MOV R1, #0x7E'
p637
aS'MOV R2, #0x41'
p638
aS'STR R12, mem'
p639
aS'BL ERR_put_error'
p640
asg103
Nsg5
S'0x105fe4L'
p641
sg105
(lp642
S'0x105f04L'
p643
asg6
Nsg107
(lp644
S'0x106004L'
p645
asg111
Nsg112
Nsg113
S'7e46308c098d94230fbe16197bf47411'
p646
sg115
S'f8de79fe8391dfd5fa342c000cf8efa1'
p647
sg117
(lp648
g581
ag588
ag595
ag602
ag609
ag616
ag623
ag630
asg119
Nsba(ibclass
BBasicBlock
p649
(dp650
g12
Nsg13
(lp651
(ibclass
BInstr
p652
(dp653
g2
Nsg17
S'MOV     R0, ret         ; a'
p654
sg19
S'0400a0e1'
p655
sg21
Vmov r0, r4
p656
sg5
L1073156L
sg6
Nsg23
S'MOV'
p657
sg25
S'0x106004L'
p658
sg27
Nsba(ibclass
BInstr
p659
(dp660
g2
Nsg17
S'BL      X509_REQ_free'
p661
sg19
S'4a8bffeb'
p662
sg21
Vbl #0xfffe2d30
p663
sg5
L1073160L
sg6
Nsg23
S'BL'
p664
sg25
S'0x106008L'
p665
sg27
Nsba(ibclass
BInstr
p666
(dp667
g2
Nsg17
S'MOV     ret, #0'
p668
sg19
S'0040a0e3'
p669
sg21
Vmov r4, #0
p670
sg5
L1073164L
sg6
Nsg23
S'MOV'
p671
sg25
S'0x10600cL'
p672
sg27
Nsba(ibclass
BInstr
p673
(dp674
g2
Nsg17
S'B       loc_105FD4'
p675
sg19
S'efffffea'
p676
sg21
Vb #0xffffffc4
p677
sg5
L1073168L
sg6
Nsg23
g89
sg25
S'0x106010L'
p678
sg27
Nsbasg91
(lp679
S'MOV R0, ret'
p680
aS'BL X509_REQ_free'
p681
aS'MOV ret, #0'
p682
aS'B func'
p683
asg103
Nsg5
S'0x106004L'
p684
sg105
(lp685
S'0x105f2cL'
p686
aS'0x105f60L'
p687
aS'0x105f84L'
p688
aS'0x105f94L'
p689
aS'0x105fbcL'
p690
aS'0x105fe4L'
p691
asg6
Nsg107
(lp692
S'0x105fd4L'
p693
asg111
Nsg112
Nsg113
S'cd23e0eb2129bcc2960febbe800808ae'
p694
sg115
S'7e09efdc5181a771605a4c58d6119e28'
p695
sg117
(lp696
g657
ag664
ag671
ag89
asg119
Nsbasb.