(ibclass
BFunc
p0
(dp1
S'hash'
p2
NsS'name'
p3
S'doapr_outch'
p4
sS'start_address'
p5
L812164L
sS'flag'
p6
NsS'program'
p7
NsS'bbs'
p8
(lp9
(ibclass
BBasicBlock
p10
(dp11
S'function'
p12
NsS'binstrs'
p13
(lp14
(ibclass
BInstr
p15
(dp16
g2
NsS'disasm'
p17
S'LDR     R12, =($_GLOBAL_OFFSET_TABLE_ - 0xC6498)'
p18
sS'bytes'
p19
S'e8c09fe5'
p20
sS'disasm_striped'
p21
Vldr ip, [pc, #0xe8]
p22
sg5
L812164L
sg6
NsS'mnem'
p23
S'LDR'
p24
sS'address'
p25
S'0xc6484L'
p26
sS'basicblock'
p27
Nsba(ibclass
BInstr
p28
(dp29
g2
Nsg17
S'STMFD   SP!, {R4-R8,LR}'
p30
sg19
S'f0412de9'
p31
sg21
Vpush {r4, r5, r6, r7, r8, lr}
p32
sg5
L812168L
sg6
Nsg23
S'STM'
p33
sg25
S'0xc6488L'
p34
sg27
Nsba(ibclass
BInstr
p35
(dp36
g2
Nsg17
S'SUBS    R7, buffer, #0'
p37
sg19
S'007051e2'
p38
sg21
Vsubs r7, r1, #0
p39
sg5
L812172L
sg6
Nsg23
S'SUB'
p40
sg25
S'0xc648cL'
p41
sg27
Nsba(ibclass
BInstr
p42
(dp43
g2
Nsg17
S'ADD     R12, PC, R12 ; $_GLOBAL_OFFSET_TABLE_'
p44
sg19
S'0cc08fe0'
p45
sg21
Vadd ip, pc, ip
p46
sg5
L812176L
sg6
Nsg23
S'ADD'
p47
sg25
S'0xc6490L'
p48
sg27
Nsba(ibclass
BInstr
p49
(dp50
g2
Nsg17
S'MOV     R6, sbuffer'
p51
sg19
S'0060a0e1'
p52
sg21
Vmov r6, r0
p53
sg5
L812180L
sg6
Nsg23
S'MOV'
p54
sg25
S'0xc6494L'
p55
sg27
Nsba(ibclass
BInstr
p56
(dp57
g2
Nsg17
S'MOV     R4, currlen'
p58
sg19
S'0240a0e1'
p59
sg21
Vmov r4, r2
p60
sg5
L812184L
sg6
Nsg23
S'MOV'
p61
sg25
S'0xc6498L'
p62
sg27
Nsba(ibclass
BInstr
p63
(dp64
g2
Nsg17
S'MOV     R5, maxlen'
p65
sg19
S'0350a0e1'
p66
sg21
Vmov r5, r3
p67
sg5
L812188L
sg6
Nsg23
S'MOV'
p68
sg25
S'0xc649cL'
p69
sg27
Nsba(ibclass
BInstr
p70
(dp71
g2
Nsg17
S'LDR     R8, [SP,#0x18+c]'
p72
sg19
S'18809de5'
p73
sg21
Vldr r8, [sp, #0x18]
p74
sg5
L812192L
sg6
Nsg23
S'LDR'
p75
sg25
S'0xc64a0L'
p76
sg27
Nsba(ibclass
BInstr
p77
(dp78
g2
Nsg17
S'BEQ     loc_C651C'
p79
sg19
S'1c00000a'
p80
sg21
Vbeq #0x78
p81
sg5
L812196L
sg6
Nsg23
S'B'
p82
sg25
S'0xc64a4L'
p83
sg27
NsbasS'disasm_list'
p84
(lp85
S'LDR R12, =($_GLOBAL_OFFSET_TABLE_ - 0xC6498)'
p86
aS'STMFD SP!, {R4-R8,LR}'
p87
aS'SUBS R7, buffer, #0'
p88
aS'ADD R12, PC, R12'
p89
aS'MOV R6, sbuffer'
p90
aS'MOV R4, currlen'
p91
aS'MOV R5, mreglen'
p92
aS'LDR R8, mem'
p93
aS'BEQ func'
p94
asS'end_address'
p95
Nsg5
S'0xc6484L'
p96
sS'preds'
p97
(lp98
sg6
NsS'succs'
p99
(lp100
S'0xc64a8L'
p101
aS'0xc651cL'
p102
asS'hash_v3'
p103
NsS'flag_v2'
p104
NsS'hash_v1'
p105
S'1ddc929b7bbfd1d24da9304b2de6079b'
p106
sS'hash_v2'
p107
S'7a2840dbad1dbc16aa00df23fb676726'
p108
sS'mnen_list'
p109
(lp110
g24
ag33
ag40
ag47
ag54
ag61
ag68
ag75
ag82
asS'neighbour_disasm_list'
p111
Nsba(ibclass
BBasicBlock
p112
(dp113
g12
Nsg13
(lp114
(ibclass
BInstr
p115
(dp116
g2
Nsg17
S'LDR     R2, [R2]'
p117
sg19
S'002092e5'
p118
sg21
Vldr r2, [r2]
p119
sg5
L812200L
sg6
Nsg23
S'LDR'
p120
sg25
S'0xc64a8L'
p121
sg27
Nsba(ibclass
BInstr
p122
(dp123
g2
Nsg17
S'LDR     R3, [R3]'
p124
sg19
S'003093e5'
p125
sg21
Vldr r3, [r3]
p126
sg5
L812204L
sg6
Nsg23
S'LDR'
p127
sg25
S'0xc64acL'
p128
sg27
Nsba(ibclass
BInstr
p129
(dp130
g2
Nsg17
S'CMP     R2, R3'
p131
sg19
S'030052e1'
p132
sg21
Vcmp r2, r3
p133
sg5
L812208L
sg6
Nsg23
S'CMP'
p134
sg25
S'0xc64b0L'
p135
sg27
Nsba(ibclass
BInstr
p136
(dp137
g2
Nsg17
S'BEQ     loc_C64EC'
p138
sg19
S'0c00000a'
p139
sg21
Vbeq #0x38
p140
sg5
L812212L
sg6
Nsg23
g82
sg25
S'0xc64b4L'
p141
sg27
Nsbasg84
(lp142
S'LDR R2, mem'
p143
aS'LDR R3, mem'
p144
aS'CMP R2, R3'
p145
aS'BEQ func'
p146
asg95
Nsg5
S'0xc64a8L'
p147
sg97
(lp148
S'0xc6484L'
p149
asg6
Nsg99
(lp150
S'0xc64b8L'
p151
aS'0xc64ecL'
p152
asg103
Nsg104
Nsg105
S'd9812e74326a7ebe01ae9e2a00bbb5ee'
p153
sg107
S'52e59ec3816cc05d1c8a9861a9809b53'
p154
sg109
(lp155
g120
ag127
ag134
ag82
asg111
Nsba(ibclass
BBasicBlock
p156
(dp157
g12
Nsg13
(lp158
(ibclass
BInstr
p159
(dp160
g2
Nsg17
S'CMP     R2, R3'
p161
sg19
S'030052e1'
p162
sg21
Vcmp r2, r3
p163
sg5
L812216L
sg6
Nsg23
S'CMP'
p164
sg25
S'0xc64b8L'
p165
sg27
Nsba(ibclass
BInstr
p166
(dp167
g2
Nsg17
S'BCS     loc_C64E4'
p168
sg19
S'0800002a'
p169
sg21
Vbhs #0x28
p170
sg5
L812220L
sg6
Nsg23
g82
sg25
S'0xc64bcL'
p171
sg27
Nsbasg84
(lp172
S'CMP R2, R3'
p173
aS'BCS func'
p174
asg95
Nsg5
S'0xc64b8L'
p175
sg97
(lp176
S'0xc64a8L'
p177
aS'0xc651cL'
p178
aS'0xc6554L'
p179
asg6
Nsg99
(lp180
S'0xc64c0L'
p181
aS'0xc64e4L'
p182
asg103
Nsg104
Nsg105
S'c78fd620a449e3c979d3f3ec12d4ee88'
p183
sg107
S'9800af0f41e4e2f24cf62f1ab43febd8'
p184
sg109
(lp185
g164
ag82
asg111
Nsba(ibclass
BBasicBlock
p186
(dp187
g12
Nsg13
(lp188
(ibclass
BInstr
p189
(dp190
g2
Nsg17
S'LDR     R3, [sbuffer]'
p191
sg19
S'003096e5'
p192
sg21
Vldr r3, [r6]
p193
sg5
L812224L
sg6
Nsg23
S'LDR'
p194
sg25
S'0xc64c0L'
p195
sg27
Nsba(ibclass
BInstr
p196
(dp197
g2
Nsg17
S'CMP     R3, #0'
p198
sg19
S'000053e3'
p199
sg21
Vcmp r3, #0
p200
sg5
L812228L
sg6
Nsg23
S'CMP'
p201
sg25
S'0xc64c4L'
p202
sg27
Nsba(ibclass
BInstr
p203
(dp204
g2
Nsg17
S'LDREQ   R1, [buffer]'
p205
sg19
S'00109705'
p206
sg21
Vldreq r1, [r7]
p207
sg5
L812232L
sg6
Nsg23
S'LDR'
p208
sg25
S'0xc64c8L'
p209
sg27
Nsba(ibclass
BInstr
p210
(dp211
g2
Nsg17
S'ADDNE   R1, R2, #1'
p212
sg19
S'01108212'
p213
sg21
Vaddne r1, r2, #1
p214
sg5
L812236L
sg6
Nsg23
S'ADD'
p215
sg25
S'0xc64ccL'
p216
sg27
Nsba(ibclass
BInstr
p217
(dp218
g2
Nsg17
S'ADDEQ   R3, R2, #1'
p219
sg19
S'01308202'
p220
sg21
Vaddeq r3, r2, #1
p221
sg5
L812240L
sg6
Nsg23
S'ADD'
p222
sg25
S'0xc64d0L'
p223
sg27
Nsba(ibclass
BInstr
p224
(dp225
g2
Nsg17
S'STRNEB  c_0, [R3,R2]'
p226
sg19
S'0280c317'
p227
sg21
Vstrbne r8, [r3, r2]
p228
sg5
L812244L
sg6
Nsg23
S'STR'
p229
sg25
S'0xc64d4L'
p230
sg27
Nsba(ibclass
BInstr
p231
(dp232
g2
Nsg17
S'STREQB  c_0, [R1,R2]'
p233
sg19
S'0280c107'
p234
sg21
Vstrbeq r8, [r1, r2]
p235
sg5
L812248L
sg6
Nsg23
S'STR'
p236
sg25
S'0xc64d8L'
p237
sg27
Nsba(ibclass
BInstr
p238
(dp239
g2
Nsg17
S'STRNE   R1, [currlen]'
p240
sg19
S'00108415'
p241
sg21
Vstrne r1, [r4]
p242
sg5
L812252L
sg6
Nsg23
S'STR'
p243
sg25
S'0xc64dcL'
p244
sg27
Nsba(ibclass
BInstr
p245
(dp246
g2
Nsg17
S'STREQ   R3, [currlen]'
p247
sg19
S'00308405'
p248
sg21
Vstreq r3, [r4]
p249
sg5
L812256L
sg6
Nsg23
S'STR'
p250
sg25
S'0xc64e0L'
p251
sg27
Nsbasg84
(lp252
S'LDR R3, mem'
p253
aS'CMP R3, #0'
p254
aS'LDREQ R1, mem'
p255
aS'ADDNE R1, R2, #1'
p256
aS'ADDEQ R3, R2, #1'
p257
aS'STRNEB c_0, mem'
p258
aS'STREQB c_0, mem'
p259
aS'STRNE R1, mem'
p260
aS'STREQ R3, mem'
p261
asg95
Nsg5
S'0xc64c0L'
p262
sg97
(lp263
S'0xc64b8L'
p264
asg6
Nsg99
(lp265
S'0xc64e4L'
p266
asg103
Nsg104
Nsg105
S'ae34ec9345e5962d14fcf2df952a3034'
p267
sg107
S'0bb1da9b4886f6b8b1ce332cd8892360'
p268
sg109
(lp269
g194
ag201
ag208
ag215
ag222
ag229
ag236
ag243
ag250
asg111
Nsba(ibclass
BBasicBlock
p270
(dp271
g12
Nsg13
(lp272
(ibclass
BInstr
p273
(dp274
g2
Nsg17
S'LDMFD   SP!, {currlen-c_0,LR}'
p275
sg19
S'f041bde8'
p276
sg21
Vpop {r4, r5, r6, r7, r8, lr}
p277
sg5
L812260L
sg6
Nsg23
S'LDM'
p278
sg25
S'0xc64e4L'
p279
sg27
Nsba(ibclass
BInstr
p280
(dp281
g2
Nsg17
S'BX      LR'
p282
sg19
S'1eff2fe1'
p283
sg21
Vbx lr
p284
sg5
L812264L
sg6
Nsg23
S'BX'
p285
sg25
S'0xc64e8L'
p286
sg27
Nsbasg84
(lp287
S'LDMFD SP!, {currlen-c_0,LR}'
p288
aS'BX LR'
p289
asg95
Nsg5
S'0xc64e4L'
p290
sg97
(lp291
S'0xc64b8L'
p292
aS'0xc64c0L'
p293
aS'0xc6500L'
p294
aS'0xc6528L'
p295
asg6
Nsg99
(lp296
sg103
Nsg104
Nsg105
S'1bbf04f23edc7b30d215c55a7294459f'
p297
sg107
S'50283a76048eb430ecb56b89e7dacbf4'
p298
sg109
(lp299
g278
ag285
asg111
Nsba(ibclass
BBasicBlock
p300
(dp301
g12
Nsg13
(lp302
(ibclass
BInstr
p303
(dp304
g2
Nsg17
S'LDR     R0, [buffer]    ; str'
p305
sg19
S'000097e5'
p306
sg21
Vldr r0, [r7]
p307
sg5
L812268L
sg6
Nsg23
S'LDR'
p308
sg25
S'0xc64ecL'
p309
sg27
Nsba(ibclass
BInstr
p310
(dp311
g2
Nsg17
S'ADD     R1, R2, #0x400  ; num'
p312
sg19
S'011b82e2'
p313
sg21
Vadd r1, r2, #0x400
p314
sg5
L812272L
sg6
Nsg23
S'ADD'
p315
sg25
S'0xc64f0L'
p316
sg27
Nsba(ibclass
BInstr
p317
(dp318
g2
Nsg17
S'CMP     R0, #0'
p319
sg19
S'000050e3'
p320
sg21
Vcmp r0, #0
p321
sg5
L812276L
sg6
Nsg23
S'CMP'
p322
sg25
S'0xc64f4L'
p323
sg27
Nsba(ibclass
BInstr
p324
(dp325
g2
Nsg17
S'STR     R1, [maxlen]'
p326
sg19
S'001085e5'
p327
sg21
Vstr r1, [r5]
p328
sg5
L812280L
sg6
Nsg23
S'STR'
p329
sg25
S'0xc64f8L'
p330
sg27
Nsba(ibclass
BInstr
p331
(dp332
g2
Nsg17
S'BEQ     loc_C6528'
p333
sg19
S'0900000a'
p334
sg21
Vbeq #0x2c
p335
sg5
L812284L
sg6
Nsg23
g82
sg25
S'0xc64fcL'
p336
sg27
Nsbasg84
(lp337
S'LDR R0, mem'
p338
aS'ADD R1, R2, #0x400'
p339
aS'CMP R0, #0'
p340
aS'STR R1, mem'
p341
aS'BEQ func'
p342
asg95
Nsg5
S'0xc64ecL'
p343
sg97
(lp344
S'0xc64a8L'
p345
asg6
Nsg99
(lp346
S'0xc6500L'
p347
aS'0xc6528L'
p348
asg103
Nsg104
Nsg105
S'4ec61fd607a8af912e661d4962fa75d9'
p349
sg107
S'99c14bc301ed53807b51f481993e4247'
p350
sg109
(lp351
g308
ag315
ag322
ag329
ag82
asg111
Nsba(ibclass
BBasicBlock
p352
(dp353
g12
Nsg13
(lp354
(ibclass
BInstr
p355
(dp356
g2
Nsg17
S'LDR     R2, =(aB_print_c - 0x189000)'
p357
sg19
S'70209fe5'
p358
sg21
Vldr r2, [pc, #0x70]
p359
sg5
L812288L
sg6
Nsg23
S'LDR'
p360
sg25
S'0xc6500L'
p361
sg27
Nsba(ibclass
BInstr
p362
(dp363
g2
Nsg17
S'MOV     R3, #0x2D4      ; line'
p364
sg19
S'b53fa0e3'
p365
sg21
Vmov r3, #0x2d4
p366
sg5
L812292L
sg6
Nsg23
S'MOV'
p367
sg25
S'0xc6504L'
p368
sg27
Nsba(ibclass
BInstr
p369
(dp370
g2
Nsg17
S'ADD     R2, R12, R2     ; "b_print.c"'
p371
sg19
S'02208ce0'
p372
sg21
Vadd r2, ip, r2
p373
sg5
L812296L
sg6
Nsg23
S'ADD'
p374
sg25
S'0xc6508L'
p375
sg27
Nsba(ibclass
BInstr
p376
(dp377
g2
Nsg17
S'BL      CRYPTO_realloc'
p378
sg19
S'5f01feeb'
p379
sg21
Vbl #0xfff80584
p380
sg5
L812300L
sg6
Nsg23
S'BL'
p381
sg25
S'0xc650cL'
p382
sg27
Nsba(ibclass
BInstr
p383
(dp384
g2
Nsg17
S'CMP     R0, #0'
p385
sg19
S'000050e3'
p386
sg21
Vcmp r0, #0
p387
sg5
L812304L
sg6
Nsg23
S'CMP'
p388
sg25
S'0xc6510L'
p389
sg27
Nsba(ibclass
BInstr
p390
(dp391
g2
Nsg17
S'STR     R0, [buffer]'
p392
sg19
S'000087e5'
p393
sg21
Vstr r0, [r7]
p394
sg5
L812308L
sg6
Nsg23
S'STR'
p395
sg25
S'0xc6514L'
p396
sg27
Nsba(ibclass
BInstr
p397
(dp398
g2
Nsg17
S'BEQ     loc_C64E4'
p399
sg19
S'f1ffff0a'
p400
sg21
Vbeq #0xffffffcc
p401
sg5
L812312L
sg6
Nsg23
g82
sg25
S'0xc6518L'
p402
sg27
Nsbasg84
(lp403
S'LDR R2, =(aB_print_c - address0)'
p404
aS'MOV R3, #0x2D4'
p405
aS'ADD R2, R12, R2'
p406
aS'BL CRYPTO_reregloc'
p407
aS'CMP R0, #0'
p408
aS'STR R0, mem'
p409
aS'BEQ func'
p410
asg95
Nsg5
S'0xc6500L'
p411
sg97
(lp412
S'0xc64ecL'
p413
asg6
Nsg99
(lp414
S'0xc64e4L'
p415
aS'0xc651cL'
p416
asg103
Nsg104
Nsg105
S'43cd3fef0fc42293353bbb450ad23833'
p417
sg107
S'b08e804dc14f793efd8d6e5ac9f5a04e'
p418
sg109
(lp419
g360
ag367
ag374
ag381
ag388
ag395
ag82
asg111
Nsba(ibclass
BBasicBlock
p420
(dp421
g12
Nsg13
(lp422
(ibclass
BInstr
p423
(dp424
g2
Nsg17
S'LDR     R3, [maxlen]'
p425
sg19
S'003095e5'
p426
sg21
Vldr r3, [r5]
p427
sg5
L812316L
sg6
Nsg23
S'LDR'
p428
sg25
S'0xc651cL'
p429
sg27
Nsba(ibclass
BInstr
p430
(dp431
g2
Nsg17
S'LDR     R2, [currlen]'
p432
sg19
S'002094e5'
p433
sg21
Vldr r2, [r4]
p434
sg5
L812320L
sg6
Nsg23
S'LDR'
p435
sg25
S'0xc6520L'
p436
sg27
Nsba(ibclass
BInstr
p437
(dp438
g2
Nsg17
S'B       loc_C64B8'
p439
sg19
S'e3ffffea'
p440
sg21
Vb #0xffffff94
p441
sg5
L812324L
sg6
Nsg23
g82
sg25
S'0xc6524L'
p442
sg27
Nsbasg84
(lp443
S'LDR R3, mem'
p444
aS'LDR R2, mem'
p445
aS'B func'
p446
asg95
Nsg5
S'0xc651cL'
p447
sg97
(lp448
S'0xc6484L'
p449
aS'0xc6500L'
p450
asg6
Nsg99
(lp451
S'0xc64b8L'
p452
asg103
Nsg104
Nsg105
S'5475768f796b8bef9e1180a7bb8d9996'
p453
sg107
S'a99d81c7c418912ca68aeb95279dee65'
p454
sg109
(lp455
g428
ag435
ag82
asg111
Nsba(ibclass
BBasicBlock
p456
(dp457
g12
Nsg13
(lp458
(ibclass
BInstr
p459
(dp460
g2
Nsg17
S'MOV     R0, R1          ; num'
p461
sg19
S'0100a0e1'
p462
sg21
Vmov r0, r1
p463
sg5
L812328L
sg6
Nsg23
S'MOV'
p464
sg25
S'0xc6528L'
p465
sg27
Nsba(ibclass
BInstr
p466
(dp467
g2
Nsg17
S'LDR     R1, =(aB_print_c - 0x189000)'
p468
sg19
S'44109fe5'
p469
sg21
Vldr r1, [pc, #0x44]
p470
sg5
L812332L
sg6
Nsg23
S'LDR'
p471
sg25
S'0xc652cL'
p472
sg27
Nsba(ibclass
BInstr
p473
(dp474
g2
Nsg17
S'LDR     R2, =0x2C9      ; line'
p475
sg19
S'44209fe5'
p476
sg21
Vldr r2, [pc, #0x44]
p477
sg5
L812336L
sg6
Nsg23
S'LDR'
p478
sg25
S'0xc6530L'
p479
sg27
Nsba(ibclass
BInstr
p480
(dp481
g2
Nsg17
S'ADD     R1, R12, R1     ; "b_print.c"'
p482
sg19
S'01108ce0'
p483
sg21
Vadd r1, ip, r1
p484
sg5
L812340L
sg6
Nsg23
S'ADD'
p485
sg25
S'0xc6534L'
p486
sg27
Nsba(ibclass
BInstr
p487
(dp488
g2
Nsg17
S'BL      CRYPTO_malloc'
p489
sg19
S'1501feeb'
p490
sg21
Vbl #0xfff8045c
p491
sg5
L812344L
sg6
Nsg23
S'BL'
p492
sg25
S'0xc6538L'
p493
sg27
Nsba(ibclass
BInstr
p494
(dp495
g2
Nsg17
S'CMP     R0, #0'
p496
sg19
S'000050e3'
p497
sg21
Vcmp r0, #0
p498
sg5
L812348L
sg6
Nsg23
S'CMP'
p499
sg25
S'0xc653cL'
p500
sg27
Nsba(ibclass
BInstr
p501
(dp502
g2
Nsg17
S'STR     R0, [buffer]'
p503
sg19
S'000087e5'
p504
sg21
Vstr r0, [r7]
p505
sg5
L812352L
sg6
Nsg23
S'STR'
p506
sg25
S'0xc6540L'
p507
sg27
Nsba(ibclass
BInstr
p508
(dp509
g2
Nsg17
S'BEQ     loc_C64E4'
p510
sg19
S'e6ffff0a'
p511
sg21
Vbeq #0xffffffa0
p512
sg5
L812356L
sg6
Nsg23
g82
sg25
S'0xc6544L'
p513
sg27
Nsbasg84
(lp514
S'MOV R0, R1'
p515
aS'LDR R1, =(aB_print_c - address0)'
p516
aS'LDR R2, =0x2C9'
p517
aS'ADD R1, R12, R1'
p518
aS'BL CRYPTO_mregloc'
p519
aS'CMP R0, #0'
p520
aS'STR R0, mem'
p521
aS'BEQ func'
p522
asg95
Nsg5
S'0xc6528L'
p523
sg97
(lp524
S'0xc64ecL'
p525
asg6
Nsg99
(lp526
S'0xc64e4L'
p527
aS'0xc6548L'
p528
asg103
Nsg104
Nsg105
S'1a8c3f425ace769b6cef6b7931eeb2f4'
p529
sg107
S'f15c40746e2d5b965c7b2b4516af4444'
p530
sg109
(lp531
g464
ag471
ag478
ag485
ag492
ag499
ag506
ag82
asg111
Nsba(ibclass
BBasicBlock
p532
(dp533
g12
Nsg13
(lp534
(ibclass
BInstr
p535
(dp536
g2
Nsg17
S'LDR     R2, [currlen]   ; n'
p537
sg19
S'002094e5'
p538
sg21
Vldr r2, [r4]
p539
sg5
L812360L
sg6
Nsg23
S'LDR'
p540
sg25
S'0xc6548L'
p541
sg27
Nsba(ibclass
BInstr
p542
(dp543
g2
Nsg17
S'CMP     R2, #0'
p544
sg19
S'000052e3'
p545
sg21
Vcmp r2, #0
p546
sg5
L812364L
sg6
Nsg23
S'CMP'
p547
sg25
S'0xc654cL'
p548
sg27
Nsba(ibclass
BInstr
p549
(dp550
g2
Nsg17
S'BNE     loc_C6564'
p551
sg19
S'0300001a'
p552
sg21
Vbne #0x14
p553
sg5
L812368L
sg6
Nsg23
g82
sg25
S'0xc6550L'
p554
sg27
Nsbasg84
(lp555
S'LDR R2, mem'
p556
aS'CMP R2, #0'
p557
aS'BNE func'
p558
asg95
Nsg5
S'0xc6548L'
p559
sg97
(lp560
S'0xc6528L'
p561
asg6
Nsg99
(lp562
S'0xc6554L'
p563
aS'0xc6564L'
p564
asg103
Nsg104
Nsg105
S'fa4df767a85c49648339e2dc5c6807f6'
p565
sg107
S'6eb8dc9ae4d45fad4ce4e667e53812a2'
p566
sg109
(lp567
g540
ag547
ag82
asg111
Nsba(ibclass
BBasicBlock
p568
(dp569
g12
Nsg13
(lp570
(ibclass
BInstr
p571
(dp572
g2
Nsg17
S'MOV     R3, #0'
p573
sg19
S'0030a0e3'
p574
sg21
Vmov r3, #0
p575
sg5
L812372L
sg6
Nsg23
S'MOV'
p576
sg25
S'0xc6554L'
p577
sg27
Nsba(ibclass
BInstr
p578
(dp579
g2
Nsg17
S'STR     R3, [sbuffer]'
p580
sg19
S'003086e5'
p581
sg21
Vstr r3, [r6]
p582
sg5
L812376L
sg6
Nsg23
S'STR'
p583
sg25
S'0xc6558L'
p584
sg27
Nsba(ibclass
BInstr
p585
(dp586
g2
Nsg17
S'LDR     R3, [maxlen]'
p587
sg19
S'003095e5'
p588
sg21
Vldr r3, [r5]
p589
sg5
L812380L
sg6
Nsg23
S'LDR'
p590
sg25
S'0xc655cL'
p591
sg27
Nsba(ibclass
BInstr
p592
(dp593
g2
Nsg17
S'B       loc_C64B8'
p594
sg19
S'd4ffffea'
p595
sg21
Vb #0xffffff58
p596
sg5
L812384L
sg6
Nsg23
g82
sg25
S'0xc6560L'
p597
sg27
Nsbasg84
(lp598
S'MOV R3, #0'
p599
aS'STR R3, mem'
p600
aS'LDR R3, mem'
p601
aS'B func'
p602
asg95
Nsg5
S'0xc6554L'
p603
sg97
(lp604
S'0xc6548L'
p605
aS'0xc6564L'
p606
asg6
Nsg99
(lp607
S'0xc64b8L'
p608
asg103
Nsg104
Nsg105
S'a6ef3e35a047c003f9178d264052147b'
p609
sg107
S'33a201e93348066371b72dd6d3c3b64a'
p610
sg109
(lp611
g576
ag583
ag590
ag82
asg111
Nsba(ibclass
BBasicBlock
p612
(dp613
g12
Nsg13
(lp614
(ibclass
BInstr
p615
(dp616
g2
Nsg17
S'LDR     R1, [sbuffer]   ; src'
p617
sg19
S'001096e5'
p618
sg21
Vldr r1, [r6]
p619
sg5
L812388L
sg6
Nsg23
S'LDR'
p620
sg25
S'0xc6564L'
p621
sg27
Nsba(ibclass
BInstr
p622
(dp623
g2
Nsg17
S'BL      memcpy'
p624
sg19
S'0bfcfdeb'
p625
sg21
Vbl #0xfff7f034
p626
sg5
L812392L
sg6
Nsg23
S'BL'
p627
sg25
S'0xc6568L'
p628
sg27
Nsba(ibclass
BInstr
p629
(dp630
g2
Nsg17
S'LDR     R2, [currlen]'
p631
sg19
S'002094e5'
p632
sg21
Vldr r2, [r4]
p633
sg5
L812396L
sg6
Nsg23
S'LDR'
p634
sg25
S'0xc656cL'
p635
sg27
Nsba(ibclass
BInstr
p636
(dp637
g2
Nsg17
S'B       loc_C6554'
p638
sg19
S'f7ffffea'
p639
sg21
Vb #0xffffffe4
p640
sg5
L812400L
sg6
Nsg23
g82
sg25
S'0xc6570L'
p641
sg27
Nsbasg84
(lp642
S'LDR R1, mem'
p643
aS'BL memcpy'
p644
aS'LDR R2, mem'
p645
aS'B func'
p646
asg95
Nsg5
S'0xc6564L'
p647
sg97
(lp648
S'0xc6548L'
p649
asg6
Nsg99
(lp650
S'0xc6554L'
p651
asg103
Nsg104
Nsg105
S'964ccb01aab82351122f2fd2deed6d7e'
p652
sg107
S'd7e619db40a667d4db7eb73b763b5afd'
p653
sg109
(lp654
g620
ag627
ag634
ag82
asg111
Nsbasb.