(ibclass
BFunc
p0
(dp1
S'hash'
p2
NsS'name'
p3
S'ssl3_ctx_ctrl'
p4
sS'start_address'
p5
L141116L
sS'flag'
p6
NsS'program'
p7
NsS'bbs'
p8
(lp9
(ibclass
BBasicBlock
p10
(dp11
S'function'
p12
NsS'binstrs'
p13
(lp14
(ibclass
BInstr
p15
(dp16
g2
NsS'disasm'
p17
S'STMFD   SP!, {R4-cert,LR}'
p18
sS'bytes'
p19
S'f0402de9'
p20
sS'disasm_striped'
p21
Vpush {r4, r5, r6, r7, lr}
p22
sg5
L141116L
sg6
NsS'mnem'
p23
S'STM'
p24
sS'address'
p25
S'0x2273cL'
p26
sS'basicblock'
p27
Nsba(ibclass
BInstr
p28
(dp29
g2
Nsg17
S'LDR     R6, =($_GLOBAL_OFFSET_TABLE_ - 0x22754)'
p30
sg19
S'ec679fe5'
p31
sg21
Vldr r6, [pc, #0x7ec]
p32
sg5
L141120L
sg6
Nsg23
S'LDR'
p33
sg25
S'0x22740L'
p34
sg27
Nsba(ibclass
BInstr
p35
(dp36
g2
Nsg17
S'MOV     R4, ctx'
p37
sg19
S'0040a0e1'
p38
sg21
Vmov r4, r0
p39
sg5
L141124L
sg6
Nsg23
S'MOV'
p40
sg25
S'0x22744L'
p41
sg27
Nsba(ibclass
BInstr
p42
(dp43
g2
Nsg17
S'SUB     ctx, cmd, #1'
p44
sg19
S'010041e2'
p45
sg21
Vsub r0, r1, #1
p46
sg5
L141128L
sg6
Nsg23
S'SUB'
p47
sg25
S'0x22748L'
p48
sg27
Nsba(ibclass
BInstr
p49
(dp50
g2
Nsg17
S'ADD     R6, PC, R6 ; $_GLOBAL_OFFSET_TABLE_'
p51
sg19
S'06608fe0'
p52
sg21
Vadd r6, pc, r6
p53
sg5
L141132L
sg6
Nsg23
S'ADD'
p54
sg25
S'0x2274cL'
p55
sg27
Nsba(ibclass
BInstr
p56
(dp57
g2
Nsg17
S'SUB     SP, SP, #0xC'
p58
sg19
S'0cd04de2'
p59
sg21
Vsub sp, sp, #0xc
p60
sg5
L141136L
sg6
Nsg23
S'SUB'
p61
sg25
S'0x22750L'
p62
sg27
Nsba(ibclass
BInstr
p63
(dp64
g2
Nsg17
S'MOV     R12, larg'
p65
sg19
S'02c0a0e1'
p66
sg21
Vmov ip, r2
p67
sg5
L141140L
sg6
Nsg23
S'MOV'
p68
sg25
S'0x22754L'
p69
sg27
Nsba(ibclass
BInstr
p70
(dp71
g2
Nsg17
S'MOV     R5, parg'
p72
sg19
S'0350a0e1'
p73
sg21
Vmov r5, r3
p74
sg5
L141144L
sg6
Nsg23
S'MOV'
p75
sg25
S'0x22758L'
p76
sg27
Nsba(ibclass
BInstr
p77
(dp78
g2
Nsg17
S'LDR     cert, [ctx,#0xB0]'
p79
sg19
S'b07094e5'
p80
sg21
Vldr r7, [r4, #0xb0]
p81
sg5
L141148L
sg6
Nsg23
S'LDR'
p82
sg25
S'0x2275cL'
p83
sg27
Nsba(ibclass
BInstr
p84
(dp85
g2
Nsg17
S'CMP     R0, #0x74       ; switch 117 cases '
p86
sg19
S'740050e3'
p87
sg21
Vcmp r0, #0x74
p88
sg5
L141152L
sg6
Nsg23
S'CMP'
p89
sg25
S'0x22760L'
p90
sg27
Nsba(ibclass
BInstr
p91
(dp92
g2
Nsg17
S'ADDLS   PC, PC, R0,LSL#2; switch jump'
p93
sg19
S'00f18f90'
p94
sg21
Vaddls pc, pc, r0, lsl #2
p95
sg5
L141156L
sg6
Nsg23
S'ADD'
p96
sg25
S'0x22764L'
p97
sg27
NsbasS'disasm_list'
p98
(lp99
S'STMFD SP!, {R4-cert,LR}'
p100
aS'LDR R6, =($_GLOBAL_OFFSET_TABLE_ - address)'
p101
aS'MOV R4, ctx'
p102
aS'SUB ctx, cmd, #1'
p103
aS'ADD R6, PC, R6'
p104
aS'SUB SP, SP, #0xC'
p105
aS'MOV R12, larg'
p106
aS'MOV R5, parg'
p107
aS'LDR cert, mem'
p108
aS'CMP R0, #0x74'
p109
aS'ADDLS PC, PC, R0,LSL#2'
p110
asS'end_address'
p111
Nsg5
S'0x2273cL'
p112
sS'preds'
p113
(lp114
sg6
NsS'succs'
p115
(lp116
S'0x22768L'
p117
aS'0x2276cL'
p118
aS'0x22770L'
p119
aS'0x22774L'
p120
aS'0x22778L'
p121
aS'0x2277cL'
p122
aS'0x22780L'
p123
aS'0x22784L'
p124
aS'0x22788L'
p125
aS'0x2278cL'
p126
aS'0x22790L'
p127
aS'0x22794L'
p128
aS'0x22798L'
p129
aS'0x2279cL'
p130
aS'0x227a0L'
p131
aS'0x227a4L'
p132
aS'0x227a8L'
p133
aS'0x227acL'
p134
aS'0x227b0L'
p135
aS'0x227b4L'
p136
aS'0x227b8L'
p137
aS'0x227bcL'
p138
aS'0x227c0L'
p139
aS'0x227c4L'
p140
aS'0x227c8L'
p141
aS'0x227ccL'
p142
aS'0x227d0L'
p143
aS'0x227d4L'
p144
aS'0x227d8L'
p145
aS'0x227dcL'
p146
aS'0x227e0L'
p147
aS'0x227e4L'
p148
aS'0x227e8L'
p149
aS'0x227ecL'
p150
aS'0x227f0L'
p151
aS'0x227f4L'
p152
aS'0x227f8L'
p153
aS'0x227fcL'
p154
aS'0x22800L'
p155
aS'0x22804L'
p156
aS'0x22808L'
p157
aS'0x2280cL'
p158
aS'0x22810L'
p159
aS'0x22814L'
p160
aS'0x22818L'
p161
aS'0x2281cL'
p162
aS'0x22820L'
p163
aS'0x22824L'
p164
aS'0x22828L'
p165
aS'0x2282cL'
p166
aS'0x22830L'
p167
aS'0x22834L'
p168
aS'0x22838L'
p169
aS'0x2283cL'
p170
aS'0x22840L'
p171
aS'0x22844L'
p172
aS'0x22848L'
p173
aS'0x2284cL'
p174
aS'0x22850L'
p175
aS'0x22854L'
p176
aS'0x22858L'
p177
aS'0x2285cL'
p178
aS'0x22860L'
p179
aS'0x22864L'
p180
aS'0x22868L'
p181
aS'0x2286cL'
p182
aS'0x22870L'
p183
aS'0x22874L'
p184
aS'0x22878L'
p185
aS'0x2287cL'
p186
aS'0x22880L'
p187
aS'0x22884L'
p188
aS'0x22888L'
p189
aS'0x2288cL'
p190
aS'0x22890L'
p191
aS'0x22894L'
p192
aS'0x22898L'
p193
aS'0x2289cL'
p194
aS'0x228a0L'
p195
aS'0x228a4L'
p196
aS'0x228a8L'
p197
aS'0x228acL'
p198
aS'0x228b0L'
p199
aS'0x228b4L'
p200
aS'0x228b8L'
p201
aS'0x228bcL'
p202
aS'0x228c0L'
p203
aS'0x228c4L'
p204
aS'0x228c8L'
p205
aS'0x228ccL'
p206
aS'0x228d0L'
p207
aS'0x228d4L'
p208
aS'0x228d8L'
p209
aS'0x228dcL'
p210
aS'0x228e0L'
p211
aS'0x228e4L'
p212
aS'0x228e8L'
p213
aS'0x228ecL'
p214
aS'0x228f0L'
p215
aS'0x228f4L'
p216
aS'0x228f8L'
p217
aS'0x228fcL'
p218
aS'0x22900L'
p219
aS'0x22904L'
p220
aS'0x22908L'
p221
aS'0x2290cL'
p222
aS'0x22910L'
p223
aS'0x22914L'
p224
aS'0x22918L'
p225
aS'0x2291cL'
p226
aS'0x22920L'
p227
aS'0x22924L'
p228
aS'0x22928L'
p229
aS'0x2292cL'
p230
aS'0x22930L'
p231
aS'0x22934L'
p232
aS'0x22938L'
p233
aS'0x2293cL'
p234
aS'0x22950L'
p235
aS'0x22960L'
p236
aS'0x22978L'
p237
aS'0x2298cL'
p238
aS'0x229b4L'
p239
aS'0x229ccL'
p240
aS'0x229d8L'
p241
aS'0x22a44L'
p242
aS'0x22a5cL'
p243
aS'0x22a68L'
p244
aS'0x22abcL'
p245
aS'0x22ac8L'
p246
aS'0x22ae4L'
p247
aS'0x22b0cL'
p248
aS'0x22b34L'
p249
aS'0x22b5cL'
p250
aS'0x22b90L'
p251
aS'0x22bc0L'
p252
aS'0x22bfcL'
p253
aS'0x22c10L'
p254
aS'0x22c24L'
p255
aS'0x22c38L'
p256
aS'0x22c44L'
p257
aS'0x22c58L'
p258
aS'0x22c70L'
p259
aS'0x22c88L'
p260
aS'0x22ca0L'
p261
aS'0x22cb8L'
p262
aS'0x22cc8L'
p263
aS'0x22ce0L'
p264
aS'0x22cf0L'
p265
aS'0x22d1cL'
p266
aS'0x22d30L'
p267
aS'0x22d44L'
p268
asS'hash_v3'
p269
NsS'flag_v2'
p270
NsS'hash_v1'
p271
S'dcd8577f11e34bff2fb73ca482aeeadb'
p272
sS'hash_v2'
p273
S'39ff3fde717577746c639ef666496322'
p274
sS'mnen_list'
p275
(lp276
g24
ag33
ag40
ag47
ag54
ag61
ag68
ag75
ag82
ag89
ag96
asS'neighbour_disasm_list'
p277
Nsba(ibclass
BBasicBlock
p278
(dp279
g12
Nsg13
(lp280
(ibclass
BInstr
p281
(dp282
g2
Nsg17
S'B       loc_22950       ; jumptable 00022764 default case'
p283
sg19
S'780000ea'
p284
sg21
Vb #0x1e8
p285
sg5
L141160L
sg6
Nsg23
S'B'
p286
sg25
S'0x22768L'
p287
sg27
Nsbasg98
(lp288
S'B func'
p289
asg111
Nsg5
S'0x22768L'
p290
sg113
(lp291
S'0x2273cL'
p292
asg6
Nsg115
(lp293
S'0x22950L'
p294
asg269
Nsg270
Nsg271
S'9d5ed678fe57bcca610140957afab571'
p295
sg273
S'071b057c420e304c628380fd3541c021'
p296
sg275
(lp297
g286
asg277
Nsba(ibclass
BBasicBlock
p298
(dp299
g12
Nsg13
(lp300
(ibclass
BInstr
p301
(dp302
g2
Nsg17
S'B       loc_22CF0       ; jumptable 00022764 case 0'
p303
sg19
S'5f0100ea'
p304
sg21
Vb #0x584
p305
sg5
L141164L
sg6
Nsg23
g286
sg25
S'0x2276cL'
p306
sg27
Nsbasg98
(lp307
S'B func'
p308
asg111
Nsg5
S'0x2276cL'
p309
sg113
(lp310
S'0x2273cL'
p311
asg6
Nsg115
(lp312
S'0x22cf0L'
p313
asg269
Nsg270
Nsg271
S'9d5ed678fe57bcca610140957afab571'
p314
sg273
S'071b057c420e304c628380fd3541c021'
p315
sg275
(lp316
g286
asg277
Nsba(ibclass
BBasicBlock
p317
(dp318
g12
Nsg13
(lp319
(ibclass
BInstr
p320
(dp321
g2
Nsg17
S'B       loc_22B90       ; jumptable 00022764 case 1'
p322
sg19
S'060100ea'
p323
sg21
Vb #0x420
p324
sg5
L141168L
sg6
Nsg23
g286
sg25
S'0x22770L'
p325
sg27
Nsbasg98
(lp326
S'B func'
p327
asg111
Nsg5
S'0x22770L'
p328
sg113
(lp329
S'0x2273cL'
p330
asg6
Nsg115
(lp331
S'0x22b90L'
p332
asg269
Nsg270
Nsg271
S'9d5ed678fe57bcca610140957afab571'
p333
sg273
S'071b057c420e304c628380fd3541c021'
p334
sg275
(lp335
g286
asg277
Nsba(ibclass
BBasicBlock
p336
(dp337
g12
Nsg13
(lp338
(ibclass
BInstr
p339
(dp340
g2
Nsg17
S'B       loc_22B5C       ; jumptable 00022764 case 2'
p341
sg19
S'f80000ea'
p342
sg21
Vb #0x3e8
p343
sg5
L141172L
sg6
Nsg23
g286
sg25
S'0x22774L'
p344
sg27
Nsbasg98
(lp345
S'B func'
p346
asg111
Nsg5
S'0x22774L'
p347
sg113
(lp348
S'0x2273cL'
p349
asg6
Nsg115
(lp350
S'0x22b5cL'
p351
asg269
Nsg270
Nsg271
S'9d5ed678fe57bcca610140957afab571'
p352
sg273
S'071b057c420e304c628380fd3541c021'
p353
sg275
(lp354
g286
asg277
Nsba(ibclass
BBasicBlock
p355
(dp356
g12
Nsg13
(lp357
(ibclass
BInstr
p358
(dp359
g2
Nsg17
S'B       loc_22BC0       ; jumptable 00022764 case 3'
p360
sg19
S'100100ea'
p361
sg21
Vb #0x448
p362
sg5
L141176L
sg6
Nsg23
g286
sg25
S'0x22778L'
p363
sg27
Nsbasg98
(lp364
S'B func'
p365
asg111
Nsg5
S'0x22778L'
p366
sg113
(lp367
S'0x2273cL'
p368
asg6
Nsg115
(lp369
S'0x22bc0L'
p370
asg269
Nsg270
Nsg271
S'9d5ed678fe57bcca610140957afab571'
p371
sg273
S'071b057c420e304c628380fd3541c021'
p372
sg275
(lp373
g286
asg277
Nsba(ibclass
BBasicBlock
p374
(dp375
g12
Nsg13
(lp376
(ibclass
BInstr
p377
(dp378
g2
Nsg17
S'B       loc_22AE4       ; jumptable 00022764 case 4'
p379
sg19
S'd80000ea'
p380
sg21
Vb #0x368
p381
sg5
L141180L
sg6
Nsg23
g286
sg25
S'0x2277cL'
p382
sg27
Nsbasg98
(lp383
S'B func'
p384
asg111
Nsg5
S'0x2277cL'
p385
sg113
(lp386
S'0x2273cL'
p387
asg6
Nsg115
(lp388
S'0x22ae4L'
p389
asg269
Nsg270
Nsg271
S'9d5ed678fe57bcca610140957afab571'
p390
sg273
S'071b057c420e304c628380fd3541c021'
p391
sg275
(lp392
g286
asg277
Nsba(ibclass
BBasicBlock
p393
(dp394
g12
Nsg13
(lp395
(ibclass
BInstr
p396
(dp397
g2
Nsg17
S'B       loc_22B34       ; jumptable 00022764 case 5'
p398
sg19
S'eb0000ea'
p399
sg21
Vb #0x3b4
p400
sg5
L141184L
sg6
Nsg23
g286
sg25
S'0x22780L'
p401
sg27
Nsbasg98
(lp402
S'B func'
p403
asg111
Nsg5
S'0x22780L'
p404
sg113
(lp405
S'0x2273cL'
p406
asg6
Nsg115
(lp407
S'0x22b34L'
p408
asg269
Nsg270
Nsg271
S'9d5ed678fe57bcca610140957afab571'
p409
sg273
S'071b057c420e304c628380fd3541c021'
p410
sg275
(lp411
g286
asg277
Nsba(ibclass
BBasicBlock
p412
(dp413
g12
Nsg13
(lp414
(ibclass
BInstr
p415
(dp416
g2
Nsg17
S'B       loc_22B0C       ; jumptable 00022764 case 6'
p417
sg19
S'e00000ea'
p418
sg21
Vb #0x388
p419
sg5
L141188L
sg6
Nsg23
g286
sg25
S'0x22784L'
p420
sg27
Nsbasg98
(lp421
S'B func'
p422
asg111
Nsg5
S'0x22784L'
p423
sg113
(lp424
S'0x2273cL'
p425
asg6
Nsg115
(lp426
S'0x22b0cL'
p427
asg269
Nsg270
Nsg271
S'9d5ed678fe57bcca610140957afab571'
p428
sg273
S'071b057c420e304c628380fd3541c021'
p429
sg275
(lp430
g286
asg277
Nsba(ibclass
BBasicBlock
p431
(dp432
g12
Nsg13
(lp433
(ibclass
BInstr
p434
(dp435
g2
Nsg17
S'B       loc_22950       ; jumptable 00022764 default case'
p436
sg19
S'700000ea'
p437
sg21
Vb #0x1c8
p438
sg5
L141192L
sg6
Nsg23
g286
sg25
S'0x22788L'
p439
sg27
Nsbasg98
(lp440
S'B func'
p441
asg111
Nsg5
S'0x22788L'
p442
sg113
(lp443
S'0x2273cL'
p444
asg6
Nsg115
(lp445
S'0x22950L'
p446
asg269
Nsg270
Nsg271
S'9d5ed678fe57bcca610140957afab571'
p447
sg273
S'071b057c420e304c628380fd3541c021'
p448
sg275
(lp449
g286
asg277
Nsba(ibclass
BBasicBlock
p450
(dp451
g12
Nsg13
(lp452
(ibclass
BInstr
p453
(dp454
g2
Nsg17
S'B       loc_22950       ; jumptable 00022764 default case'
p455
sg19
S'6f0000ea'
p456
sg21
Vb #0x1c4
p457
sg5
L141196L
sg6
Nsg23
g286
sg25
S'0x2278cL'
p458
sg27
Nsbasg98
(lp459
S'B func'
p460
asg111
Nsg5
S'0x2278cL'
p461
sg113
(lp462
S'0x2273cL'
p463
asg6
Nsg115
(lp464
S'0x22950L'
p465
asg269
Nsg270
Nsg271
S'9d5ed678fe57bcca610140957afab571'
p466
sg273
S'071b057c420e304c628380fd3541c021'
p467
sg275
(lp468
g286
asg277
Nsba(ibclass
BBasicBlock
p469
(dp470
g12
Nsg13
(lp471
(ibclass
BInstr
p472
(dp473
g2
Nsg17
S'B       loc_22950       ; jumptable 00022764 default case'
p474
sg19
S'6e0000ea'
p475
sg21
Vb #0x1c0
p476
sg5
L141200L
sg6
Nsg23
g286
sg25
S'0x22790L'
p477
sg27
Nsbasg98
(lp478
S'B func'
p479
asg111
Nsg5
S'0x22790L'
p480
sg113
(lp481
S'0x2273cL'
p482
asg6
Nsg115
(lp483
S'0x22950L'
p484
asg269
Nsg270
Nsg271
S'9d5ed678fe57bcca610140957afab571'
p485
sg273
S'071b057c420e304c628380fd3541c021'
p486
sg275
(lp487
g286
asg277
Nsba(ibclass
BBasicBlock
p488
(dp489
g12
Nsg13
(lp490
(ibclass
BInstr
p491
(dp492
g2
Nsg17
S'B       loc_22950       ; jumptable 00022764 default case'
p493
sg19
S'6d0000ea'
p494
sg21
Vb #0x1bc
p495
sg5
L141204L
sg6
Nsg23
g286
sg25
S'0x22794L'
p496
sg27
Nsbasg98
(lp497
S'B func'
p498
asg111
Nsg5
S'0x22794L'
p499
sg113
(lp500
S'0x2273cL'
p501
asg6
Nsg115
(lp502
S'0x22950L'
p503
asg269
Nsg270
Nsg271
S'9d5ed678fe57bcca610140957afab571'
p504
sg273
S'071b057c420e304c628380fd3541c021'
p505
sg275
(lp506
g286
asg277
Nsba(ibclass
BBasicBlock
p507
(dp508
g12
Nsg13
(lp509
(ibclass
BInstr
p510
(dp511
g2
Nsg17
S'B       loc_22950       ; jumptable 00022764 default case'
p512
sg19
S'6c0000ea'
p513
sg21
Vb #0x1b8
p514
sg5
L141208L
sg6
Nsg23
g286
sg25
S'0x22798L'
p515
sg27
Nsbasg98
(lp516
S'B func'
p517
asg111
Nsg5
S'0x22798L'
p518
sg113
(lp519
S'0x2273cL'
p520
asg6
Nsg115
(lp521
S'0x22950L'
p522
asg269
Nsg270
Nsg271
S'9d5ed678fe57bcca610140957afab571'
p523
sg273
S'071b057c420e304c628380fd3541c021'
p524
sg275
(lp525
g286
asg277
Nsba(ibclass
BBasicBlock
p526
(dp527
g12
Nsg13
(lp528
(ibclass
BInstr
p529
(dp530
g2
Nsg17
S'B       loc_22950       ; jumptable 00022764 default case'
p531
sg19
S'6b0000ea'
p532
sg21
Vb #0x1b4
p533
sg5
L141212L
sg6
Nsg23
g286
sg25
S'0x2279cL'
p534
sg27
Nsbasg98
(lp535
S'B func'
p536
asg111
Nsg5
S'0x2279cL'
p537
sg113
(lp538
S'0x2273cL'
p539
asg6
Nsg115
(lp540
S'0x22950L'
p541
asg269
Nsg270
Nsg271
S'9d5ed678fe57bcca610140957afab571'
p542
sg273
S'071b057c420e304c628380fd3541c021'
p543
sg275
(lp544
g286
asg277
Nsba(ibclass
BBasicBlock
p545
(dp546
g12
Nsg13
(lp547
(ibclass
BInstr
p548
(dp549
g2
Nsg17
S'B       loc_22AC8       ; jumptable 00022764 case 13'
p550
sg19
S'c80000ea'
p551
sg21
Vb #0x328
p552
sg5
L141216L
sg6
Nsg23
g286
sg25
S'0x227a0L'
p553
sg27
Nsbasg98
(lp554
S'B func'
p555
asg111
Nsg5
S'0x227a0L'
p556
sg113
(lp557
S'0x2273cL'
p558
asg6
Nsg115
(lp559
S'0x22ac8L'
p560
asg269
Nsg270
Nsg271
S'9d5ed678fe57bcca610140957afab571'
p561
sg273
S'071b057c420e304c628380fd3541c021'
p562
sg275
(lp563
g286
asg277
Nsba(ibclass
BBasicBlock
p564
(dp565
g12
Nsg13
(lp566
(ibclass
BInstr
p567
(dp568
g2
Nsg17
S'B       loc_22950       ; jumptable 00022764 default case'
p569
sg19
S'690000ea'
p570
sg21
Vb #0x1ac
p571
sg5
L141220L
sg6
Nsg23
g286
sg25
S'0x227a4L'
p572
sg27
Nsbasg98
(lp573
S'B func'
p574
asg111
Nsg5
S'0x227a4L'
p575
sg113
(lp576
S'0x2273cL'
p577
asg6
Nsg115
(lp578
S'0x22950L'
p579
asg269
Nsg270
Nsg271
S'9d5ed678fe57bcca610140957afab571'
p580
sg273
S'071b057c420e304c628380fd3541c021'
p581
sg275
(lp582
g286
asg277
Nsba(ibclass
BBasicBlock
p583
(dp584
g12
Nsg13
(lp585
(ibclass
BInstr
p586
(dp587
g2
Nsg17
S'B       loc_22950       ; jumptable 00022764 default case'
p588
sg19
S'680000ea'
p589
sg21
Vb #0x1a8
p590
sg5
L141224L
sg6
Nsg23
g286
sg25
S'0x227a8L'
p591
sg27
Nsbasg98
(lp592
S'B func'
p593
asg111
Nsg5
S'0x227a8L'
p594
sg113
(lp595
S'0x2273cL'
p596
asg6
Nsg115
(lp597
S'0x22950L'
p598
asg269
Nsg270
Nsg271
S'9d5ed678fe57bcca610140957afab571'
p599
sg273
S'071b057c420e304c628380fd3541c021'
p600
sg275
(lp601
g286
asg277
Nsba(ibclass
BBasicBlock
p602
(dp603
g12
Nsg13
(lp604
(ibclass
BInstr
p605
(dp606
g2
Nsg17
S'B       loc_22950       ; jumptable 00022764 default case'
p607
sg19
S'670000ea'
p608
sg21
Vb #0x1a4
p609
sg5
L141228L
sg6
Nsg23
g286
sg25
S'0x227acL'
p610
sg27
Nsbasg98
(lp611
S'B func'
p612
asg111
Nsg5
S'0x227acL'
p613
sg113
(lp614
S'0x2273cL'
p615
asg6
Nsg115
(lp616
S'0x22950L'
p617
asg269
Nsg270
Nsg271
S'9d5ed678fe57bcca610140957afab571'
p618
sg273
S'071b057c420e304c628380fd3541c021'
p619
sg275
(lp620
g286
asg277
Nsba(ibclass
BBasicBlock
p621
(dp622
g12
Nsg13
(lp623
(ibclass
BInstr
p624
(dp625
g2
Nsg17
S'B       loc_22950       ; jumptable 00022764 default case'
p626
sg19
S'660000ea'
p627
sg21
Vb #0x1a0
p628
sg5
L141232L
sg6
Nsg23
g286
sg25
S'0x227b0L'
p629
sg27
Nsbasg98
(lp630
S'B func'
p631
asg111
Nsg5
S'0x227b0L'
p632
sg113
(lp633
S'0x2273cL'
p634
asg6
Nsg115
(lp635
S'0x22950L'
p636
asg269
Nsg270
Nsg271
S'9d5ed678fe57bcca610140957afab571'
p637
sg273
S'071b057c420e304c628380fd3541c021'
p638
sg275
(lp639
g286
asg277
Nsba(ibclass
BBasicBlock
p640
(dp641
g12
Nsg13
(lp642
(ibclass
BInstr
p643
(dp644
g2
Nsg17
S'B       loc_22950       ; jumptable 00022764 default case'
p645
sg19
S'650000ea'
p646
sg21
Vb #0x19c
p647
sg5
L141236L
sg6
Nsg23
g286
sg25
S'0x227b4L'
p648
sg27
Nsbasg98
(lp649
S'B func'
p650
asg111
Nsg5
S'0x227b4L'
p651
sg113
(lp652
S'0x2273cL'
p653
asg6
Nsg115
(lp654
S'0x22950L'
p655
asg269
Nsg270
Nsg271
S'9d5ed678fe57bcca610140957afab571'
p656
sg273
S'071b057c420e304c628380fd3541c021'
p657
sg275
(lp658
g286
asg277
Nsba(ibclass
BBasicBlock
p659
(dp660
g12
Nsg13
(lp661
(ibclass
BInstr
p662
(dp663
g2
Nsg17
S'B       loc_22950       ; jumptable 00022764 default case'
p664
sg19
S'640000ea'
p665
sg21
Vb #0x198
p666
sg5
L141240L
sg6
Nsg23
g286
sg25
S'0x227b8L'
p667
sg27
Nsbasg98
(lp668
S'B func'
p669
asg111
Nsg5
S'0x227b8L'
p670
sg113
(lp671
S'0x2273cL'
p672
asg6
Nsg115
(lp673
S'0x22950L'
p674
asg269
Nsg270
Nsg271
S'9d5ed678fe57bcca610140957afab571'
p675
sg273
S'071b057c420e304c628380fd3541c021'
p676
sg275
(lp677
g286
asg277
Nsba(ibclass
BBasicBlock
p678
(dp679
g12
Nsg13
(lp680
(ibclass
BInstr
p681
(dp682
g2
Nsg17
S'B       loc_22950       ; jumptable 00022764 default case'
p683
sg19
S'630000ea'
p684
sg21
Vb #0x194
p685
sg5
L141244L
sg6
Nsg23
g286
sg25
S'0x227bcL'
p686
sg27
Nsbasg98
(lp687
S'B func'
p688
asg111
Nsg5
S'0x227bcL'
p689
sg113
(lp690
S'0x2273cL'
p691
asg6
Nsg115
(lp692
S'0x22950L'
p693
asg269
Nsg270
Nsg271
S'9d5ed678fe57bcca610140957afab571'
p694
sg273
S'071b057c420e304c628380fd3541c021'
p695
sg275
(lp696
g286
asg277
Nsba(ibclass
BBasicBlock
p697
(dp698
g12
Nsg13
(lp699
(ibclass
BInstr
p700
(dp701
g2
Nsg17
S'B       loc_22950       ; jumptable 00022764 default case'
p702
sg19
S'620000ea'
p703
sg21
Vb #0x190
p704
sg5
L141248L
sg6
Nsg23
g286
sg25
S'0x227c0L'
p705
sg27
Nsbasg98
(lp706
S'B func'
p707
asg111
Nsg5
S'0x227c0L'
p708
sg113
(lp709
S'0x2273cL'
p710
asg6
Nsg115
(lp711
S'0x22950L'
p712
asg269
Nsg270
Nsg271
S'9d5ed678fe57bcca610140957afab571'
p713
sg273
S'071b057c420e304c628380fd3541c021'
p714
sg275
(lp715
g286
asg277
Nsba(ibclass
BBasicBlock
p716
(dp717
g12
Nsg13
(lp718
(ibclass
BInstr
p719
(dp720
g2
Nsg17
S'B       loc_22950       ; jumptable 00022764 default case'
p721
sg19
S'610000ea'
p722
sg21
Vb #0x18c
p723
sg5
L141252L
sg6
Nsg23
g286
sg25
S'0x227c4L'
p724
sg27
Nsbasg98
(lp725
S'B func'
p726
asg111
Nsg5
S'0x227c4L'
p727
sg113
(lp728
S'0x2273cL'
p729
asg6
Nsg115
(lp730
S'0x22950L'
p731
asg269
Nsg270
Nsg271
S'9d5ed678fe57bcca610140957afab571'
p732
sg273
S'071b057c420e304c628380fd3541c021'
p733
sg275
(lp734
g286
asg277
Nsba(ibclass
BBasicBlock
p735
(dp736
g12
Nsg13
(lp737
(ibclass
BInstr
p738
(dp739
g2
Nsg17
S'B       loc_22950       ; jumptable 00022764 default case'
p740
sg19
S'600000ea'
p741
sg21
Vb #0x188
p742
sg5
L141256L
sg6
Nsg23
g286
sg25
S'0x227c8L'
p743
sg27
Nsbasg98
(lp744
S'B func'
p745
asg111
Nsg5
S'0x227c8L'
p746
sg113
(lp747
S'0x2273cL'
p748
asg6
Nsg115
(lp749
S'0x22950L'
p750
asg269
Nsg270
Nsg271
S'9d5ed678fe57bcca610140957afab571'
p751
sg273
S'071b057c420e304c628380fd3541c021'
p752
sg275
(lp753
g286
asg277
Nsba(ibclass
BBasicBlock
p754
(dp755
g12
Nsg13
(lp756
(ibclass
BInstr
p757
(dp758
g2
Nsg17
S'B       loc_22950       ; jumptable 00022764 default case'
p759
sg19
S'5f0000ea'
p760
sg21
Vb #0x184
p761
sg5
L141260L
sg6
Nsg23
g286
sg25
S'0x227ccL'
p762
sg27
Nsbasg98
(lp763
S'B func'
p764
asg111
Nsg5
S'0x227ccL'
p765
sg113
(lp766
S'0x2273cL'
p767
asg6
Nsg115
(lp768
S'0x22950L'
p769
asg269
Nsg270
Nsg271
S'9d5ed678fe57bcca610140957afab571'
p770
sg273
S'071b057c420e304c628380fd3541c021'
p771
sg275
(lp772
g286
asg277
Nsba(ibclass
BBasicBlock
p773
(dp774
g12
Nsg13
(lp775
(ibclass
BInstr
p776
(dp777
g2
Nsg17
S'B       loc_22950       ; jumptable 00022764 default case'
p778
sg19
S'5e0000ea'
p779
sg21
Vb #0x180
p780
sg5
L141264L
sg6
Nsg23
g286
sg25
S'0x227d0L'
p781
sg27
Nsbasg98
(lp782
S'B func'
p783
asg111
Nsg5
S'0x227d0L'
p784
sg113
(lp785
S'0x2273cL'
p786
asg6
Nsg115
(lp787
S'0x22950L'
p788
asg269
Nsg270
Nsg271
S'9d5ed678fe57bcca610140957afab571'
p789
sg273
S'071b057c420e304c628380fd3541c021'
p790
sg275
(lp791
g286
asg277
Nsba(ibclass
BBasicBlock
p792
(dp793
g12
Nsg13
(lp794
(ibclass
BInstr
p795
(dp796
g2
Nsg17
S'B       loc_22950       ; jumptable 00022764 default case'
p797
sg19
S'5d0000ea'
p798
sg21
Vb #0x17c
p799
sg5
L141268L
sg6
Nsg23
g286
sg25
S'0x227d4L'
p800
sg27
Nsbasg98
(lp801
S'B func'
p802
asg111
Nsg5
S'0x227d4L'
p803
sg113
(lp804
S'0x2273cL'
p805
asg6
Nsg115
(lp806
S'0x22950L'
p807
asg269
Nsg270
Nsg271
S'9d5ed678fe57bcca610140957afab571'
p808
sg273
S'071b057c420e304c628380fd3541c021'
p809
sg275
(lp810
g286
asg277
Nsba(ibclass
BBasicBlock
p811
(dp812
g12
Nsg13
(lp813
(ibclass
BInstr
p814
(dp815
g2
Nsg17
S'B       loc_22950       ; jumptable 00022764 default case'
p816
sg19
S'5c0000ea'
p817
sg21
Vb #0x178
p818
sg5
L141272L
sg6
Nsg23
g286
sg25
S'0x227d8L'
p819
sg27
Nsbasg98
(lp820
S'B func'
p821
asg111
Nsg5
S'0x227d8L'
p822
sg113
(lp823
S'0x2273cL'
p824
asg6
Nsg115
(lp825
S'0x22950L'
p826
asg269
Nsg270
Nsg271
S'9d5ed678fe57bcca610140957afab571'
p827
sg273
S'071b057c420e304c628380fd3541c021'
p828
sg275
(lp829
g286
asg277
Nsba(ibclass
BBasicBlock
p830
(dp831
g12
Nsg13
(lp832
(ibclass
BInstr
p833
(dp834
g2
Nsg17
S'B       loc_22950       ; jumptable 00022764 default case'
p835
sg19
S'5b0000ea'
p836
sg21
Vb #0x174
p837
sg5
L141276L
sg6
Nsg23
g286
sg25
S'0x227dcL'
p838
sg27
Nsbasg98
(lp839
S'B func'
p840
asg111
Nsg5
S'0x227dcL'
p841
sg113
(lp842
S'0x2273cL'
p843
asg6
Nsg115
(lp844
S'0x22950L'
p845
asg269
Nsg270
Nsg271
S'9d5ed678fe57bcca610140957afab571'
p846
sg273
S'071b057c420e304c628380fd3541c021'
p847
sg275
(lp848
g286
asg277
Nsba(ibclass
BBasicBlock
p849
(dp850
g12
Nsg13
(lp851
(ibclass
BInstr
p852
(dp853
g2
Nsg17
S'B       loc_22950       ; jumptable 00022764 default case'
p854
sg19
S'5a0000ea'
p855
sg21
Vb #0x170
p856
sg5
L141280L
sg6
Nsg23
g286
sg25
S'0x227e0L'
p857
sg27
Nsbasg98
(lp858
S'B func'
p859
asg111
Nsg5
S'0x227e0L'
p860
sg113
(lp861
S'0x2273cL'
p862
asg6
Nsg115
(lp863
S'0x22950L'
p864
asg269
Nsg270
Nsg271
S'9d5ed678fe57bcca610140957afab571'
p865
sg273
S'071b057c420e304c628380fd3541c021'
p866
sg275
(lp867
g286
asg277
Nsba(ibclass
BBasicBlock
p868
(dp869
g12
Nsg13
(lp870
(ibclass
BInstr
p871
(dp872
g2
Nsg17
S'B       loc_22950       ; jumptable 00022764 default case'
p873
sg19
S'590000ea'
p874
sg21
Vb #0x16c
p875
sg5
L141284L
sg6
Nsg23
g286
sg25
S'0x227e4L'
p876
sg27
Nsbasg98
(lp877
S'B func'
p878
asg111
Nsg5
S'0x227e4L'
p879
sg113
(lp880
S'0x2273cL'
p881
asg6
Nsg115
(lp882
S'0x22950L'
p883
asg269
Nsg270
Nsg271
S'9d5ed678fe57bcca610140957afab571'
p884
sg273
S'071b057c420e304c628380fd3541c021'
p885
sg275
(lp886
g286
asg277
Nsba(ibclass
BBasicBlock
p887
(dp888
g12
Nsg13
(lp889
(ibclass
BInstr
p890
(dp891
g2
Nsg17
S'B       loc_22950       ; jumptable 00022764 default case'
p892
sg19
S'580000ea'
p893
sg21
Vb #0x168
p894
sg5
L141288L
sg6
Nsg23
g286
sg25
S'0x227e8L'
p895
sg27
Nsbasg98
(lp896
S'B func'
p897
asg111
Nsg5
S'0x227e8L'
p898
sg113
(lp899
S'0x2273cL'
p900
asg6
Nsg115
(lp901
S'0x22950L'
p902
asg269
Nsg270
Nsg271
S'9d5ed678fe57bcca610140957afab571'
p903
sg273
S'071b057c420e304c628380fd3541c021'
p904
sg275
(lp905
g286
asg277
Nsba(ibclass
BBasicBlock
p906
(dp907
g12
Nsg13
(lp908
(ibclass
BInstr
p909
(dp910
g2
Nsg17
S'B       loc_22950       ; jumptable 00022764 default case'
p911
sg19
S'570000ea'
p912
sg21
Vb #0x164
p913
sg5
L141292L
sg6
Nsg23
g286
sg25
S'0x227ecL'
p914
sg27
Nsbasg98
(lp915
S'B func'
p916
asg111
Nsg5
S'0x227ecL'
p917
sg113
(lp918
S'0x2273cL'
p919
asg6
Nsg115
(lp920
S'0x22950L'
p921
asg269
Nsg270
Nsg271
S'9d5ed678fe57bcca610140957afab571'
p922
sg273
S'071b057c420e304c628380fd3541c021'
p923
sg275
(lp924
g286
asg277
Nsba(ibclass
BBasicBlock
p925
(dp926
g12
Nsg13
(lp927
(ibclass
BInstr
p928
(dp929
g2
Nsg17
S'B       loc_22950       ; jumptable 00022764 default case'
p930
sg19
S'560000ea'
p931
sg21
Vb #0x160
p932
sg5
L141296L
sg6
Nsg23
g286
sg25
S'0x227f0L'
p933
sg27
Nsbasg98
(lp934
S'B func'
p935
asg111
Nsg5
S'0x227f0L'
p936
sg113
(lp937
S'0x2273cL'
p938
asg6
Nsg115
(lp939
S'0x22950L'
p940
asg269
Nsg270
Nsg271
S'9d5ed678fe57bcca610140957afab571'
p941
sg273
S'071b057c420e304c628380fd3541c021'
p942
sg275
(lp943
g286
asg277
Nsba(ibclass
BBasicBlock
p944
(dp945
g12
Nsg13
(lp946
(ibclass
BInstr
p947
(dp948
g2
Nsg17
S'B       loc_22950       ; jumptable 00022764 default case'
p949
sg19
S'550000ea'
p950
sg21
Vb #0x15c
p951
sg5
L141300L
sg6
Nsg23
g286
sg25
S'0x227f4L'
p952
sg27
Nsbasg98
(lp953
S'B func'
p954
asg111
Nsg5
S'0x227f4L'
p955
sg113
(lp956
S'0x2273cL'
p957
asg6
Nsg115
(lp958
S'0x22950L'
p959
asg269
Nsg270
Nsg271
S'9d5ed678fe57bcca610140957afab571'
p960
sg273
S'071b057c420e304c628380fd3541c021'
p961
sg275
(lp962
g286
asg277
Nsba(ibclass
BBasicBlock
p963
(dp964
g12
Nsg13
(lp965
(ibclass
BInstr
p966
(dp967
g2
Nsg17
S'B       loc_22950       ; jumptable 00022764 default case'
p968
sg19
S'540000ea'
p969
sg21
Vb #0x158
p970
sg5
L141304L
sg6
Nsg23
g286
sg25
S'0x227f8L'
p971
sg27
Nsbasg98
(lp972
S'B func'
p973
asg111
Nsg5
S'0x227f8L'
p974
sg113
(lp975
S'0x2273cL'
p976
asg6
Nsg115
(lp977
S'0x22950L'
p978
asg269
Nsg270
Nsg271
S'9d5ed678fe57bcca610140957afab571'
p979
sg273
S'071b057c420e304c628380fd3541c021'
p980
sg275
(lp981
g286
asg277
Nsba(ibclass
BBasicBlock
p982
(dp983
g12
Nsg13
(lp984
(ibclass
BInstr
p985
(dp986
g2
Nsg17
S'B       loc_22950       ; jumptable 00022764 default case'
p987
sg19
S'530000ea'
p988
sg21
Vb #0x154
p989
sg5
L141308L
sg6
Nsg23
g286
sg25
S'0x227fcL'
p990
sg27
Nsbasg98
(lp991
S'B func'
p992
asg111
Nsg5
S'0x227fcL'
p993
sg113
(lp994
S'0x2273cL'
p995
asg6
Nsg115
(lp996
S'0x22950L'
p997
asg269
Nsg270
Nsg271
S'9d5ed678fe57bcca610140957afab571'
p998
sg273
S'071b057c420e304c628380fd3541c021'
p999
sg275
(lp1000
g286
asg277
Nsba(ibclass
BBasicBlock
p1001
(dp1002
g12
Nsg13
(lp1003
(ibclass
BInstr
p1004
(dp1005
g2
Nsg17
S'B       loc_22950       ; jumptable 00022764 default case'
p1006
sg19
S'520000ea'
p1007
sg21
Vb #0x150
p1008
sg5
L141312L
sg6
Nsg23
g286
sg25
S'0x22800L'
p1009
sg27
Nsbasg98
(lp1010
S'B func'
p1011
asg111
Nsg5
S'0x22800L'
p1012
sg113
(lp1013
S'0x2273cL'
p1014
asg6
Nsg115
(lp1015
S'0x22950L'
p1016
asg269
Nsg270
Nsg271
S'9d5ed678fe57bcca610140957afab571'
p1017
sg273
S'071b057c420e304c628380fd3541c021'
p1018
sg275
(lp1019
g286
asg277
Nsba(ibclass
BBasicBlock
p1020
(dp1021
g12
Nsg13
(lp1022
(ibclass
BInstr
p1023
(dp1024
g2
Nsg17
S'B       loc_22950       ; jumptable 00022764 default case'
p1025
sg19
S'510000ea'
p1026
sg21
Vb #0x14c
p1027
sg5
L141316L
sg6
Nsg23
g286
sg25
S'0x22804L'
p1028
sg27
Nsbasg98
(lp1029
S'B func'
p1030
asg111
Nsg5
S'0x22804L'
p1031
sg113
(lp1032
S'0x2273cL'
p1033
asg6
Nsg115
(lp1034
S'0x22950L'
p1035
asg269
Nsg270
Nsg271
S'9d5ed678fe57bcca610140957afab571'
p1036
sg273
S'071b057c420e304c628380fd3541c021'
p1037
sg275
(lp1038
g286
asg277
Nsba(ibclass
BBasicBlock
p1039
(dp1040
g12
Nsg13
(lp1041
(ibclass
BInstr
p1042
(dp1043
g2
Nsg17
S'B       loc_22950       ; jumptable 00022764 default case'
p1044
sg19
S'500000ea'
p1045
sg21
Vb #0x148
p1046
sg5
L141320L
sg6
Nsg23
g286
sg25
S'0x22808L'
p1047
sg27
Nsbasg98
(lp1048
S'B func'
p1049
asg111
Nsg5
S'0x22808L'
p1050
sg113
(lp1051
S'0x2273cL'
p1052
asg6
Nsg115
(lp1053
S'0x22950L'
p1054
asg269
Nsg270
Nsg271
S'9d5ed678fe57bcca610140957afab571'
p1055
sg273
S'071b057c420e304c628380fd3541c021'
p1056
sg275
(lp1057
g286
asg277
Nsba(ibclass
BBasicBlock
p1058
(dp1059
g12
Nsg13
(lp1060
(ibclass
BInstr
p1061
(dp1062
g2
Nsg17
S'B       loc_22950       ; jumptable 00022764 default case'
p1063
sg19
S'4f0000ea'
p1064
sg21
Vb #0x144
p1065
sg5
L141324L
sg6
Nsg23
g286
sg25
S'0x2280cL'
p1066
sg27
Nsbasg98
(lp1067
S'B func'
p1068
asg111
Nsg5
S'0x2280cL'
p1069
sg113
(lp1070
S'0x2273cL'
p1071
asg6
Nsg115
(lp1072
S'0x22950L'
p1073
asg269
Nsg270
Nsg271
S'9d5ed678fe57bcca610140957afab571'
p1074
sg273
S'071b057c420e304c628380fd3541c021'
p1075
sg275
(lp1076
g286
asg277
Nsba(ibclass
BBasicBlock
p1077
(dp1078
g12
Nsg13
(lp1079
(ibclass
BInstr
p1080
(dp1081
g2
Nsg17
S'B       loc_22950       ; jumptable 00022764 default case'
p1082
sg19
S'4e0000ea'
p1083
sg21
Vb #0x140
p1084
sg5
L141328L
sg6
Nsg23
g286
sg25
S'0x22810L'
p1085
sg27
Nsbasg98
(lp1086
S'B func'
p1087
asg111
Nsg5
S'0x22810L'
p1088
sg113
(lp1089
S'0x2273cL'
p1090
asg6
Nsg115
(lp1091
S'0x22950L'
p1092
asg269
Nsg270
Nsg271
S'9d5ed678fe57bcca610140957afab571'
p1093
sg273
S'071b057c420e304c628380fd3541c021'
p1094
sg275
(lp1095
g286
asg277
Nsba(ibclass
BBasicBlock
p1096
(dp1097
g12
Nsg13
(lp1098
(ibclass
BInstr
p1099
(dp1100
g2
Nsg17
S'B       loc_22950       ; jumptable 00022764 default case'
p1101
sg19
S'4d0000ea'
p1102
sg21
Vb #0x13c
p1103
sg5
L141332L
sg6
Nsg23
g286
sg25
S'0x22814L'
p1104
sg27
Nsbasg98
(lp1105
S'B func'
p1106
asg111
Nsg5
S'0x22814L'
p1107
sg113
(lp1108
S'0x2273cL'
p1109
asg6
Nsg115
(lp1110
S'0x22950L'
p1111
asg269
Nsg270
Nsg271
S'9d5ed678fe57bcca610140957afab571'
p1112
sg273
S'071b057c420e304c628380fd3541c021'
p1113
sg275
(lp1114
g286
asg277
Nsba(ibclass
BBasicBlock
p1115
(dp1116
g12
Nsg13
(lp1117
(ibclass
BInstr
p1118
(dp1119
g2
Nsg17
S'B       loc_22950       ; jumptable 00022764 default case'
p1120
sg19
S'4c0000ea'
p1121
sg21
Vb #0x138
p1122
sg5
L141336L
sg6
Nsg23
g286
sg25
S'0x22818L'
p1123
sg27
Nsbasg98
(lp1124
S'B func'
p1125
asg111
Nsg5
S'0x22818L'
p1126
sg113
(lp1127
S'0x2273cL'
p1128
asg6
Nsg115
(lp1129
S'0x22950L'
p1130
asg269
Nsg270
Nsg271
S'9d5ed678fe57bcca610140957afab571'
p1131
sg273
S'071b057c420e304c628380fd3541c021'
p1132
sg275
(lp1133
g286
asg277
Nsba(ibclass
BBasicBlock
p1134
(dp1135
g12
Nsg13
(lp1136
(ibclass
BInstr
p1137
(dp1138
g2
Nsg17
S'B       loc_22950       ; jumptable 00022764 default case'
p1139
sg19
S'4b0000ea'
p1140
sg21
Vb #0x134
p1141
sg5
L141340L
sg6
Nsg23
g286
sg25
S'0x2281cL'
p1142
sg27
Nsbasg98
(lp1143
S'B func'
p1144
asg111
Nsg5
S'0x2281cL'
p1145
sg113
(lp1146
S'0x2273cL'
p1147
asg6
Nsg115
(lp1148
S'0x22950L'
p1149
asg269
Nsg270
Nsg271
S'9d5ed678fe57bcca610140957afab571'
p1150
sg273
S'071b057c420e304c628380fd3541c021'
p1151
sg275
(lp1152
g286
asg277
Nsba(ibclass
BBasicBlock
p1153
(dp1154
g12
Nsg13
(lp1155
(ibclass
BInstr
p1156
(dp1157
g2
Nsg17
S'B       loc_22950       ; jumptable 00022764 default case'
p1158
sg19
S'4a0000ea'
p1159
sg21
Vb #0x130
p1160
sg5
L141344L
sg6
Nsg23
g286
sg25
S'0x22820L'
p1161
sg27
Nsbasg98
(lp1162
S'B func'
p1163
asg111
Nsg5
S'0x22820L'
p1164
sg113
(lp1165
S'0x2273cL'
p1166
asg6
Nsg115
(lp1167
S'0x22950L'
p1168
asg269
Nsg270
Nsg271
S'9d5ed678fe57bcca610140957afab571'
p1169
sg273
S'071b057c420e304c628380fd3541c021'
p1170
sg275
(lp1171
g286
asg277
Nsba(ibclass
BBasicBlock
p1172
(dp1173
g12
Nsg13
(lp1174
(ibclass
BInstr
p1175
(dp1176
g2
Nsg17
S'B       loc_22950       ; jumptable 00022764 default case'
p1177
sg19
S'490000ea'
p1178
sg21
Vb #0x12c
p1179
sg5
L141348L
sg6
Nsg23
g286
sg25
S'0x22824L'
p1180
sg27
Nsbasg98
(lp1181
S'B func'
p1182
asg111
Nsg5
S'0x22824L'
p1183
sg113
(lp1184
S'0x2273cL'
p1185
asg6
Nsg115
(lp1186
S'0x22950L'
p1187
asg269
Nsg270
Nsg271
S'9d5ed678fe57bcca610140957afab571'
p1188
sg273
S'071b057c420e304c628380fd3541c021'
p1189
sg275
(lp1190
g286
asg277
Nsba(ibclass
BBasicBlock
p1191
(dp1192
g12
Nsg13
(lp1193
(ibclass
BInstr
p1194
(dp1195
g2
Nsg17
S'B       loc_22950       ; jumptable 00022764 default case'
p1196
sg19
S'480000ea'
p1197
sg21
Vb #0x128
p1198
sg5
L141352L
sg6
Nsg23
g286
sg25
S'0x22828L'
p1199
sg27
Nsbasg98
(lp1200
S'B func'
p1201
asg111
Nsg5
S'0x22828L'
p1202
sg113
(lp1203
S'0x2273cL'
p1204
asg6
Nsg115
(lp1205
S'0x22950L'
p1206
asg269
Nsg270
Nsg271
S'9d5ed678fe57bcca610140957afab571'
p1207
sg273
S'071b057c420e304c628380fd3541c021'
p1208
sg275
(lp1209
g286
asg277
Nsba(ibclass
BBasicBlock
p1210
(dp1211
g12
Nsg13
(lp1212
(ibclass
BInstr
p1213
(dp1214
g2
Nsg17
S'B       loc_22950       ; jumptable 00022764 default case'
p1215
sg19
S'470000ea'
p1216
sg21
Vb #0x124
p1217
sg5
L141356L
sg6
Nsg23
g286
sg25
S'0x2282cL'
p1218
sg27
Nsbasg98
(lp1219
S'B func'
p1220
asg111
Nsg5
S'0x2282cL'
p1221
sg113
(lp1222
S'0x2273cL'
p1223
asg6
Nsg115
(lp1224
S'0x22950L'
p1225
asg269
Nsg270
Nsg271
S'9d5ed678fe57bcca610140957afab571'
p1226
sg273
S'071b057c420e304c628380fd3541c021'
p1227
sg275
(lp1228
g286
asg277
Nsba(ibclass
BBasicBlock
p1229
(dp1230
g12
Nsg13
(lp1231
(ibclass
BInstr
p1232
(dp1233
g2
Nsg17
S'B       loc_22950       ; jumptable 00022764 default case'
p1234
sg19
S'460000ea'
p1235
sg21
Vb #0x120
p1236
sg5
L141360L
sg6
Nsg23
g286
sg25
S'0x22830L'
p1237
sg27
Nsbasg98
(lp1238
S'B func'
p1239
asg111
Nsg5
S'0x22830L'
p1240
sg113
(lp1241
S'0x2273cL'
p1242
asg6
Nsg115
(lp1243
S'0x22950L'
p1244
asg269
Nsg270
Nsg271
S'9d5ed678fe57bcca610140957afab571'
p1245
sg273
S'071b057c420e304c628380fd3541c021'
p1246
sg275
(lp1247
g286
asg277
Nsba(ibclass
BBasicBlock
p1248
(dp1249
g12
Nsg13
(lp1250
(ibclass
BInstr
p1251
(dp1252
g2
Nsg17
S'B       loc_22950       ; jumptable 00022764 default case'
p1253
sg19
S'450000ea'
p1254
sg21
Vb #0x11c
p1255
sg5
L141364L
sg6
Nsg23
g286
sg25
S'0x22834L'
p1256
sg27
Nsbasg98
(lp1257
S'B func'
p1258
asg111
Nsg5
S'0x22834L'
p1259
sg113
(lp1260
S'0x2273cL'
p1261
asg6
Nsg115
(lp1262
S'0x22950L'
p1263
asg269
Nsg270
Nsg271
S'9d5ed678fe57bcca610140957afab571'
p1264
sg273
S'071b057c420e304c628380fd3541c021'
p1265
sg275
(lp1266
g286
asg277
Nsba(ibclass
BBasicBlock
p1267
(dp1268
g12
Nsg13
(lp1269
(ibclass
BInstr
p1270
(dp1271
g2
Nsg17
S'B       loc_22950       ; jumptable 00022764 default case'
p1272
sg19
S'440000ea'
p1273
sg21
Vb #0x118
p1274
sg5
L141368L
sg6
Nsg23
g286
sg25
S'0x22838L'
p1275
sg27
Nsbasg98
(lp1276
S'B func'
p1277
asg111
Nsg5
S'0x22838L'
p1278
sg113
(lp1279
S'0x2273cL'
p1280
asg6
Nsg115
(lp1281
S'0x22950L'
p1282
asg269
Nsg270
Nsg271
S'9d5ed678fe57bcca610140957afab571'
p1283
sg273
S'071b057c420e304c628380fd3541c021'
p1284
sg275
(lp1285
g286
asg277
Nsba(ibclass
BBasicBlock
p1286
(dp1287
g12
Nsg13
(lp1288
(ibclass
BInstr
p1289
(dp1290
g2
Nsg17
S'B       loc_22950       ; jumptable 00022764 default case'
p1291
sg19
S'430000ea'
p1292
sg21
Vb #0x114
p1293
sg5
L141372L
sg6
Nsg23
g286
sg25
S'0x2283cL'
p1294
sg27
Nsbasg98
(lp1295
S'B func'
p1296
asg111
Nsg5
S'0x2283cL'
p1297
sg113
(lp1298
S'0x2273cL'
p1299
asg6
Nsg115
(lp1300
S'0x22950L'
p1301
asg269
Nsg270
Nsg271
S'9d5ed678fe57bcca610140957afab571'
p1302
sg273
S'071b057c420e304c628380fd3541c021'
p1303
sg275
(lp1304
g286
asg277
Nsba(ibclass
BBasicBlock
p1305
(dp1306
g12
Nsg13
(lp1307
(ibclass
BInstr
p1308
(dp1309
g2
Nsg17
S'B       loc_22ABC       ; jumptable 00022764 case 53'
p1310
sg19
S'9d0000ea'
p1311
sg21
Vb #0x27c
p1312
sg5
L141376L
sg6
Nsg23
g286
sg25
S'0x22840L'
p1313
sg27
Nsbasg98
(lp1314
S'B func'
p1315
asg111
Nsg5
S'0x22840L'
p1316
sg113
(lp1317
S'0x2273cL'
p1318
asg6
Nsg115
(lp1319
S'0x22abcL'
p1320
asg269
Nsg270
Nsg271
S'9d5ed678fe57bcca610140957afab571'
p1321
sg273
S'071b057c420e304c628380fd3541c021'
p1322
sg275
(lp1323
g286
asg277
Nsba(ibclass
BBasicBlock
p1324
(dp1325
g12
Nsg13
(lp1326
(ibclass
BInstr
p1327
(dp1328
g2
Nsg17
S'B       loc_22950       ; jumptable 00022764 default case'
p1329
sg19
S'410000ea'
p1330
sg21
Vb #0x10c
p1331
sg5
L141380L
sg6
Nsg23
g286
sg25
S'0x22844L'
p1332
sg27
Nsbasg98
(lp1333
S'B func'
p1334
asg111
Nsg5
S'0x22844L'
p1335
sg113
(lp1336
S'0x2273cL'
p1337
asg6
Nsg115
(lp1338
S'0x22950L'
p1339
asg269
Nsg270
Nsg271
S'9d5ed678fe57bcca610140957afab571'
p1340
sg273
S'071b057c420e304c628380fd3541c021'
p1341
sg275
(lp1342
g286
asg277
Nsba(ibclass
BBasicBlock
p1343
(dp1344
g12
Nsg13
(lp1345
(ibclass
BInstr
p1346
(dp1347
g2
Nsg17
S'B       loc_22950       ; jumptable 00022764 default case'
p1348
sg19
S'400000ea'
p1349
sg21
Vb #0x108
p1350
sg5
L141384L
sg6
Nsg23
g286
sg25
S'0x22848L'
p1351
sg27
Nsbasg98
(lp1352
S'B func'
p1353
asg111
Nsg5
S'0x22848L'
p1354
sg113
(lp1355
S'0x2273cL'
p1356
asg6
Nsg115
(lp1357
S'0x22950L'
p1358
asg269
Nsg270
Nsg271
S'9d5ed678fe57bcca610140957afab571'
p1359
sg273
S'071b057c420e304c628380fd3541c021'
p1360
sg275
(lp1361
g286
asg277
Nsba(ibclass
BBasicBlock
p1362
(dp1363
g12
Nsg13
(lp1364
(ibclass
BInstr
p1365
(dp1366
g2
Nsg17
S'B       loc_22950       ; jumptable 00022764 default case'
p1367
sg19
S'3f0000ea'
p1368
sg21
Vb #0x104
p1369
sg5
L141388L
sg6
Nsg23
g286
sg25
S'0x2284cL'
p1370
sg27
Nsbasg98
(lp1371
S'B func'
p1372
asg111
Nsg5
S'0x2284cL'
p1373
sg113
(lp1374
S'0x2273cL'
p1375
asg6
Nsg115
(lp1376
S'0x22950L'
p1377
asg269
Nsg270
Nsg271
S'9d5ed678fe57bcca610140957afab571'
p1378
sg273
S'071b057c420e304c628380fd3541c021'
p1379
sg275
(lp1380
g286
asg277
Nsba(ibclass
BBasicBlock
p1381
(dp1382
g12
Nsg13
(lp1383
(ibclass
BInstr
p1384
(dp1385
g2
Nsg17
S'B       loc_22A68       ; jumptable 00022764 cases 57,58'
p1386
sg19
S'840000ea'
p1387
sg21
Vb #0x218
p1388
sg5
L141392L
sg6
Nsg23
g286
sg25
S'0x22850L'
p1389
sg27
Nsbasg98
(lp1390
S'B func'
p1391
asg111
Nsg5
S'0x22850L'
p1392
sg113
(lp1393
S'0x2273cL'
p1394
asg6
Nsg115
(lp1395
S'0x22a68L'
p1396
asg269
Nsg270
Nsg271
S'9d5ed678fe57bcca610140957afab571'
p1397
sg273
S'071b057c420e304c628380fd3541c021'
p1398
sg275
(lp1399
g286
asg277
Nsba(ibclass
BBasicBlock
p1400
(dp1401
g12
Nsg13
(lp1402
(ibclass
BInstr
p1403
(dp1404
g2
Nsg17
S'B       loc_22A68       ; jumptable 00022764 cases 57,58'
p1405
sg19
S'830000ea'
p1406
sg21
Vb #0x214
p1407
sg5
L141396L
sg6
Nsg23
g286
sg25
S'0x22854L'
p1408
sg27
Nsbasg98
(lp1409
S'B func'
p1410
asg111
Nsg5
S'0x22854L'
p1411
sg113
(lp1412
S'0x2273cL'
p1413
asg6
Nsg115
(lp1414
S'0x22a68L'
p1415
asg269
Nsg270
Nsg271
S'9d5ed678fe57bcca610140957afab571'
p1416
sg273
S'071b057c420e304c628380fd3541c021'
p1417
sg275
(lp1418
g286
asg277
Nsba(ibclass
BBasicBlock
p1419
(dp1420
g12
Nsg13
(lp1421
(ibclass
BInstr
p1422
(dp1423
g2
Nsg17
S'B       loc_22950       ; jumptable 00022764 default case'
p1424
sg19
S'3c0000ea'
p1425
sg21
Vb #0xf8
p1426
sg5
L141400L
sg6
Nsg23
g286
sg25
S'0x22858L'
p1427
sg27
Nsbasg98
(lp1428
S'B func'
p1429
asg111
Nsg5
S'0x22858L'
p1430
sg113
(lp1431
S'0x2273cL'
p1432
asg6
Nsg115
(lp1433
S'0x22950L'
p1434
asg269
Nsg270
Nsg271
S'9d5ed678fe57bcca610140957afab571'
p1435
sg273
S'071b057c420e304c628380fd3541c021'
p1436
sg275
(lp1437
g286
asg277
Nsba(ibclass
BBasicBlock
p1438
(dp1439
g12
Nsg13
(lp1440
(ibclass
BInstr
p1441
(dp1442
g2
Nsg17
S'B       loc_22950       ; jumptable 00022764 default case'
p1443
sg19
S'3b0000ea'
p1444
sg21
Vb #0xf4
p1445
sg5
L141404L
sg6
Nsg23
g286
sg25
S'0x2285cL'
p1446
sg27
Nsbasg98
(lp1447
S'B func'
p1448
asg111
Nsg5
S'0x2285cL'
p1449
sg113
(lp1450
S'0x2273cL'
p1451
asg6
Nsg115
(lp1452
S'0x22950L'
p1453
asg269
Nsg270
Nsg271
S'9d5ed678fe57bcca610140957afab571'
p1454
sg273
S'071b057c420e304c628380fd3541c021'
p1455
sg275
(lp1456
g286
asg277
Nsba(ibclass
BBasicBlock
p1457
(dp1458
g12
Nsg13
(lp1459
(ibclass
BInstr
p1460
(dp1461
g2
Nsg17
S'B       loc_22950       ; jumptable 00022764 default case'
p1462
sg19
S'3a0000ea'
p1463
sg21
Vb #0xf0
p1464
sg5
L141408L
sg6
Nsg23
g286
sg25
S'0x22860L'
p1465
sg27
Nsbasg98
(lp1466
S'B func'
p1467
asg111
Nsg5
S'0x22860L'
p1468
sg113
(lp1469
S'0x2273cL'
p1470
asg6
Nsg115
(lp1471
S'0x22950L'
p1472
asg269
Nsg270
Nsg271
S'9d5ed678fe57bcca610140957afab571'
p1473
sg273
S'071b057c420e304c628380fd3541c021'
p1474
sg275
(lp1475
g286
asg277
Nsba(ibclass
BBasicBlock
p1476
(dp1477
g12
Nsg13
(lp1478
(ibclass
BInstr
p1479
(dp1480
g2
Nsg17
S'B       loc_22950       ; jumptable 00022764 default case'
p1481
sg19
S'390000ea'
p1482
sg21
Vb #0xec
p1483
sg5
L141412L
sg6
Nsg23
g286
sg25
S'0x22864L'
p1484
sg27
Nsbasg98
(lp1485
S'B func'
p1486
asg111
Nsg5
S'0x22864L'
p1487
sg113
(lp1488
S'0x2273cL'
p1489
asg6
Nsg115
(lp1490
S'0x22950L'
p1491
asg269
Nsg270
Nsg271
S'9d5ed678fe57bcca610140957afab571'
p1492
sg273
S'071b057c420e304c628380fd3541c021'
p1493
sg275
(lp1494
g286
asg277
Nsba(ibclass
BBasicBlock
p1495
(dp1496
g12
Nsg13
(lp1497
(ibclass
BInstr
p1498
(dp1499
g2
Nsg17
S'B       loc_22A5C       ; jumptable 00022764 case 63'
p1500
sg19
S'7b0000ea'
p1501
sg21
Vb #0x1f4
p1502
sg5
L141416L
sg6
Nsg23
g286
sg25
S'0x22868L'
p1503
sg27
Nsbasg98
(lp1504
S'B func'
p1505
asg111
Nsg5
S'0x22868L'
p1506
sg113
(lp1507
S'0x2273cL'
p1508
asg6
Nsg115
(lp1509
S'0x22a5cL'
p1510
asg269
Nsg270
Nsg271
S'9d5ed678fe57bcca610140957afab571'
p1511
sg273
S'071b057c420e304c628380fd3541c021'
p1512
sg275
(lp1513
g286
asg277
Nsba(ibclass
BBasicBlock
p1514
(dp1515
g12
Nsg13
(lp1516
(ibclass
BInstr
p1517
(dp1518
g2
Nsg17
S'B       loc_22950       ; jumptable 00022764 default case'
p1519
sg19
S'370000ea'
p1520
sg21
Vb #0xe4
p1521
sg5
L141420L
sg6
Nsg23
g286
sg25
S'0x2286cL'
p1522
sg27
Nsbasg98
(lp1523
S'B func'
p1524
asg111
Nsg5
S'0x2286cL'
p1525
sg113
(lp1526
S'0x2273cL'
p1527
asg6
Nsg115
(lp1528
S'0x22950L'
p1529
asg269
Nsg270
Nsg271
S'9d5ed678fe57bcca610140957afab571'
p1530
sg273
S'071b057c420e304c628380fd3541c021'
p1531
sg275
(lp1532
g286
asg277
Nsba(ibclass
BBasicBlock
p1533
(dp1534
g12
Nsg13
(lp1535
(ibclass
BInstr
p1536
(dp1537
g2
Nsg17
S'B       loc_22950       ; jumptable 00022764 default case'
p1538
sg19
S'360000ea'
p1539
sg21
Vb #0xe0
p1540
sg5
L141424L
sg6
Nsg23
g286
sg25
S'0x22870L'
p1541
sg27
Nsbasg98
(lp1542
S'B func'
p1543
asg111
Nsg5
S'0x22870L'
p1544
sg113
(lp1545
S'0x2273cL'
p1546
asg6
Nsg115
(lp1547
S'0x22950L'
p1548
asg269
Nsg270
Nsg271
S'9d5ed678fe57bcca610140957afab571'
p1549
sg273
S'071b057c420e304c628380fd3541c021'
p1550
sg275
(lp1551
g286
asg277
Nsba(ibclass
BBasicBlock
p1552
(dp1553
g12
Nsg13
(lp1554
(ibclass
BInstr
p1555
(dp1556
g2
Nsg17
S'B       loc_22950       ; jumptable 00022764 default case'
p1557
sg19
S'350000ea'
p1558
sg21
Vb #0xdc
p1559
sg5
L141428L
sg6
Nsg23
g286
sg25
S'0x22874L'
p1560
sg27
Nsbasg98
(lp1561
S'B func'
p1562
asg111
Nsg5
S'0x22874L'
p1563
sg113
(lp1564
S'0x2273cL'
p1565
asg6
Nsg115
(lp1566
S'0x22950L'
p1567
asg269
Nsg270
Nsg271
S'9d5ed678fe57bcca610140957afab571'
p1568
sg273
S'071b057c420e304c628380fd3541c021'
p1569
sg275
(lp1570
g286
asg277
Nsba(ibclass
BBasicBlock
p1571
(dp1572
g12
Nsg13
(lp1573
(ibclass
BInstr
p1574
(dp1575
g2
Nsg17
S'B       loc_22950       ; jumptable 00022764 default case'
p1576
sg19
S'340000ea'
p1577
sg21
Vb #0xd8
p1578
sg5
L141432L
sg6
Nsg23
g286
sg25
S'0x22878L'
p1579
sg27
Nsbasg98
(lp1580
S'B func'
p1581
asg111
Nsg5
S'0x22878L'
p1582
sg113
(lp1583
S'0x2273cL'
p1584
asg6
Nsg115
(lp1585
S'0x22950L'
p1586
asg269
Nsg270
Nsg271
S'9d5ed678fe57bcca610140957afab571'
p1587
sg273
S'071b057c420e304c628380fd3541c021'
p1588
sg275
(lp1589
g286
asg277
Nsba(ibclass
BBasicBlock
p1590
(dp1591
g12
Nsg13
(lp1592
(ibclass
BInstr
p1593
(dp1594
g2
Nsg17
S'B       loc_22950       ; jumptable 00022764 default case'
p1595
sg19
S'330000ea'
p1596
sg21
Vb #0xd4
p1597
sg5
L141436L
sg6
Nsg23
g286
sg25
S'0x2287cL'
p1598
sg27
Nsbasg98
(lp1599
S'B func'
p1600
asg111
Nsg5
S'0x2287cL'
p1601
sg113
(lp1602
S'0x2273cL'
p1603
asg6
Nsg115
(lp1604
S'0x22950L'
p1605
asg269
Nsg270
Nsg271
S'9d5ed678fe57bcca610140957afab571'
p1606
sg273
S'071b057c420e304c628380fd3541c021'
p1607
sg275
(lp1608
g286
asg277
Nsba(ibclass
BBasicBlock
p1609
(dp1610
g12
Nsg13
(lp1611
(ibclass
BInstr
p1612
(dp1613
g2
Nsg17
S'B       loc_22950       ; jumptable 00022764 default case'
p1614
sg19
S'320000ea'
p1615
sg21
Vb #0xd0
p1616
sg5
L141440L
sg6
Nsg23
g286
sg25
S'0x22880L'
p1617
sg27
Nsbasg98
(lp1618
S'B func'
p1619
asg111
Nsg5
S'0x22880L'
p1620
sg113
(lp1621
S'0x2273cL'
p1622
asg6
Nsg115
(lp1623
S'0x22950L'
p1624
asg269
Nsg270
Nsg271
S'9d5ed678fe57bcca610140957afab571'
p1625
sg273
S'071b057c420e304c628380fd3541c021'
p1626
sg275
(lp1627
g286
asg277
Nsba(ibclass
BBasicBlock
p1628
(dp1629
g12
Nsg13
(lp1630
(ibclass
BInstr
p1631
(dp1632
g2
Nsg17
S'B       loc_22950       ; jumptable 00022764 default case'
p1633
sg19
S'310000ea'
p1634
sg21
Vb #0xcc
p1635
sg5
L141444L
sg6
Nsg23
g286
sg25
S'0x22884L'
p1636
sg27
Nsbasg98
(lp1637
S'B func'
p1638
asg111
Nsg5
S'0x22884L'
p1639
sg113
(lp1640
S'0x2273cL'
p1641
asg6
Nsg115
(lp1642
S'0x22950L'
p1643
asg269
Nsg270
Nsg271
S'9d5ed678fe57bcca610140957afab571'
p1644
sg273
S'071b057c420e304c628380fd3541c021'
p1645
sg275
(lp1646
g286
asg277
Nsba(ibclass
BBasicBlock
p1647
(dp1648
g12
Nsg13
(lp1649
(ibclass
BInstr
p1650
(dp1651
g2
Nsg17
S'B       loc_22950       ; jumptable 00022764 default case'
p1652
sg19
S'300000ea'
p1653
sg21
Vb #0xc8
p1654
sg5
L141448L
sg6
Nsg23
g286
sg25
S'0x22888L'
p1655
sg27
Nsbasg98
(lp1656
S'B func'
p1657
asg111
Nsg5
S'0x22888L'
p1658
sg113
(lp1659
S'0x2273cL'
p1660
asg6
Nsg115
(lp1661
S'0x22950L'
p1662
asg269
Nsg270
Nsg271
S'9d5ed678fe57bcca610140957afab571'
p1663
sg273
S'071b057c420e304c628380fd3541c021'
p1664
sg275
(lp1665
g286
asg277
Nsba(ibclass
BBasicBlock
p1666
(dp1667
g12
Nsg13
(lp1668
(ibclass
BInstr
p1669
(dp1670
g2
Nsg17
S'B       loc_22950       ; jumptable 00022764 default case'
p1671
sg19
S'2f0000ea'
p1672
sg21
Vb #0xc4
p1673
sg5
L141452L
sg6
Nsg23
g286
sg25
S'0x2288cL'
p1674
sg27
Nsbasg98
(lp1675
S'B func'
p1676
asg111
Nsg5
S'0x2288cL'
p1677
sg113
(lp1678
S'0x2273cL'
p1679
asg6
Nsg115
(lp1680
S'0x22950L'
p1681
asg269
Nsg270
Nsg271
S'9d5ed678fe57bcca610140957afab571'
p1682
sg273
S'071b057c420e304c628380fd3541c021'
p1683
sg275
(lp1684
g286
asg277
Nsba(ibclass
BBasicBlock
p1685
(dp1686
g12
Nsg13
(lp1687
(ibclass
BInstr
p1688
(dp1689
g2
Nsg17
S'B       loc_22950       ; jumptable 00022764 default case'
p1690
sg19
S'2e0000ea'
p1691
sg21
Vb #0xc0
p1692
sg5
L141456L
sg6
Nsg23
g286
sg25
S'0x22890L'
p1693
sg27
Nsbasg98
(lp1694
S'B func'
p1695
asg111
Nsg5
S'0x22890L'
p1696
sg113
(lp1697
S'0x2273cL'
p1698
asg6
Nsg115
(lp1699
S'0x22950L'
p1700
asg269
Nsg270
Nsg271
S'9d5ed678fe57bcca610140957afab571'
p1701
sg273
S'071b057c420e304c628380fd3541c021'
p1702
sg275
(lp1703
g286
asg277
Nsba(ibclass
BBasicBlock
p1704
(dp1705
g12
Nsg13
(lp1706
(ibclass
BInstr
p1707
(dp1708
g2
Nsg17
S'B       loc_22950       ; jumptable 00022764 default case'
p1709
sg19
S'2d0000ea'
p1710
sg21
Vb #0xbc
p1711
sg5
L141460L
sg6
Nsg23
g286
sg25
S'0x22894L'
p1712
sg27
Nsbasg98
(lp1713
S'B func'
p1714
asg111
Nsg5
S'0x22894L'
p1715
sg113
(lp1716
S'0x2273cL'
p1717
asg6
Nsg115
(lp1718
S'0x22950L'
p1719
asg269
Nsg270
Nsg271
S'9d5ed678fe57bcca610140957afab571'
p1720
sg273
S'071b057c420e304c628380fd3541c021'
p1721
sg275
(lp1722
g286
asg277
Nsba(ibclass
BBasicBlock
p1723
(dp1724
g12
Nsg13
(lp1725
(ibclass
BInstr
p1726
(dp1727
g2
Nsg17
S'B       loc_22950       ; jumptable 00022764 default case'
p1728
sg19
S'2c0000ea'
p1729
sg21
Vb #0xb8
p1730
sg5
L141464L
sg6
Nsg23
g286
sg25
S'0x22898L'
p1731
sg27
Nsbasg98
(lp1732
S'B func'
p1733
asg111
Nsg5
S'0x22898L'
p1734
sg113
(lp1735
S'0x2273cL'
p1736
asg6
Nsg115
(lp1737
S'0x22950L'
p1738
asg269
Nsg270
Nsg271
S'9d5ed678fe57bcca610140957afab571'
p1739
sg273
S'071b057c420e304c628380fd3541c021'
p1740
sg275
(lp1741
g286
asg277
Nsba(ibclass
BBasicBlock
p1742
(dp1743
g12
Nsg13
(lp1744
(ibclass
BInstr
p1745
(dp1746
g2
Nsg17
S'B       loc_22950       ; jumptable 00022764 default case'
p1747
sg19
S'2b0000ea'
p1748
sg21
Vb #0xb4
p1749
sg5
L141468L
sg6
Nsg23
g286
sg25
S'0x2289cL'
p1750
sg27
Nsbasg98
(lp1751
S'B func'
p1752
asg111
Nsg5
S'0x2289cL'
p1753
sg113
(lp1754
S'0x2273cL'
p1755
asg6
Nsg115
(lp1756
S'0x22950L'
p1757
asg269
Nsg270
Nsg271
S'9d5ed678fe57bcca610140957afab571'
p1758
sg273
S'071b057c420e304c628380fd3541c021'
p1759
sg275
(lp1760
g286
asg277
Nsba(ibclass
BBasicBlock
p1761
(dp1762
g12
Nsg13
(lp1763
(ibclass
BInstr
p1764
(dp1765
g2
Nsg17
S'B       loc_22A44       ; jumptable 00022764 case 77'
p1766
sg19
S'670000ea'
p1767
sg21
Vb #0x1a4
p1768
sg5
L141472L
sg6
Nsg23
g286
sg25
S'0x228a0L'
p1769
sg27
Nsbasg98
(lp1770
S'B func'
p1771
asg111
Nsg5
S'0x228a0L'
p1772
sg113
(lp1773
S'0x2273cL'
p1774
asg6
Nsg115
(lp1775
S'0x22a44L'
p1776
asg269
Nsg270
Nsg271
S'9d5ed678fe57bcca610140957afab571'
p1777
sg273
S'071b057c420e304c628380fd3541c021'
p1778
sg275
(lp1779
g286
asg277
Nsba(ibclass
BBasicBlock
p1780
(dp1781
g12
Nsg13
(lp1782
(ibclass
BInstr
p1783
(dp1784
g2
Nsg17
S'B       loc_229D8       ; jumptable 00022764 case 78'
p1785
sg19
S'4b0000ea'
p1786
sg21
Vb #0x134
p1787
sg5
L141476L
sg6
Nsg23
g286
sg25
S'0x228a4L'
p1788
sg27
Nsbasg98
(lp1789
S'B func'
p1790
asg111
Nsg5
S'0x228a4L'
p1791
sg113
(lp1792
S'0x2273cL'
p1793
asg6
Nsg115
(lp1794
S'0x229d8L'
p1795
asg269
Nsg270
Nsg271
S'9d5ed678fe57bcca610140957afab571'
p1796
sg273
S'071b057c420e304c628380fd3541c021'
p1797
sg275
(lp1798
g286
asg277
Nsba(ibclass
BBasicBlock
p1799
(dp1800
g12
Nsg13
(lp1801
(ibclass
BInstr
p1802
(dp1803
g2
Nsg17
S'B       loc_229CC       ; jumptable 00022764 case 79'
p1804
sg19
S'470000ea'
p1805
sg21
Vb #0x124
p1806
sg5
L141480L
sg6
Nsg23
g286
sg25
S'0x228a8L'
p1807
sg27
Nsbasg98
(lp1808
S'B func'
p1809
asg111
Nsg5
S'0x228a8L'
p1810
sg113
(lp1811
S'0x2273cL'
p1812
asg6
Nsg115
(lp1813
S'0x229ccL'
p1814
asg269
Nsg270
Nsg271
S'9d5ed678fe57bcca610140957afab571'
p1815
sg273
S'071b057c420e304c628380fd3541c021'
p1816
sg275
(lp1817
g286
asg277
Nsba(ibclass
BBasicBlock
p1818
(dp1819
g12
Nsg13
(lp1820
(ibclass
BInstr
p1821
(dp1822
g2
Nsg17
S'B       loc_229B4       ; jumptable 00022764 case 80'
p1823
sg19
S'400000ea'
p1824
sg21
Vb #0x108
p1825
sg5
L141484L
sg6
Nsg23
g286
sg25
S'0x228acL'
p1826
sg27
Nsbasg98
(lp1827
S'B func'
p1828
asg111
Nsg5
S'0x228acL'
p1829
sg113
(lp1830
S'0x2273cL'
p1831
asg6
Nsg115
(lp1832
S'0x229b4L'
p1833
asg269
Nsg270
Nsg271
S'9d5ed678fe57bcca610140957afab571'
p1834
sg273
S'071b057c420e304c628380fd3541c021'
p1835
sg275
(lp1836
g286
asg277
Nsba(ibclass
BBasicBlock
p1837
(dp1838
g12
Nsg13
(lp1839
(ibclass
BInstr
p1840
(dp1841
g2
Nsg17
S'B       loc_22960       ; jumptable 00022764 case 81'
p1842
sg19
S'2a0000ea'
p1843
sg21
Vb #0xb0
p1844
sg5
L141488L
sg6
Nsg23
g286
sg25
S'0x228b0L'
p1845
sg27
Nsbasg98
(lp1846
S'B func'
p1847
asg111
Nsg5
S'0x228b0L'
p1848
sg113
(lp1849
S'0x2273cL'
p1850
asg6
Nsg115
(lp1851
S'0x22960L'
p1852
asg269
Nsg270
Nsg271
S'9d5ed678fe57bcca610140957afab571'
p1853
sg273
S'071b057c420e304c628380fd3541c021'
p1854
sg275
(lp1855
g286
asg277
Nsba(ibclass
BBasicBlock
p1856
(dp1857
g12
Nsg13
(lp1858
(ibclass
BInstr
p1859
(dp1860
g2
Nsg17
S'B       loc_2298C       ; jumptable 00022764 case 82'
p1861
sg19
S'340000ea'
p1862
sg21
Vb #0xd8
p1863
sg5
L141492L
sg6
Nsg23
g286
sg25
S'0x228b4L'
p1864
sg27
Nsbasg98
(lp1865
S'B func'
p1866
asg111
Nsg5
S'0x228b4L'
p1867
sg113
(lp1868
S'0x2273cL'
p1869
asg6
Nsg115
(lp1870
S'0x2298cL'
p1871
asg269
Nsg270
Nsg271
S'9d5ed678fe57bcca610140957afab571'
p1872
sg273
S'071b057c420e304c628380fd3541c021'
p1873
sg275
(lp1874
g286
asg277
Nsba(ibclass
BBasicBlock
p1875
(dp1876
g12
Nsg13
(lp1877
(ibclass
BInstr
p1878
(dp1879
g2
Nsg17
S'B       loc_22950       ; jumptable 00022764 default case'
p1880
sg19
S'240000ea'
p1881
sg21
Vb #0x98
p1882
sg5
L141496L
sg6
Nsg23
g286
sg25
S'0x228b8L'
p1883
sg27
Nsbasg98
(lp1884
S'B func'
p1885
asg111
Nsg5
S'0x228b8L'
p1886
sg113
(lp1887
S'0x2273cL'
p1888
asg6
Nsg115
(lp1889
S'0x22950L'
p1890
asg269
Nsg270
Nsg271
S'9d5ed678fe57bcca610140957afab571'
p1891
sg273
S'071b057c420e304c628380fd3541c021'
p1892
sg275
(lp1893
g286
asg277
Nsba(ibclass
BBasicBlock
p1894
(dp1895
g12
Nsg13
(lp1896
(ibclass
BInstr
p1897
(dp1898
g2
Nsg17
S'B       loc_22950       ; jumptable 00022764 default case'
p1899
sg19
S'230000ea'
p1900
sg21
Vb #0x94
p1901
sg5
L141500L
sg6
Nsg23
g286
sg25
S'0x228bcL'
p1902
sg27
Nsbasg98
(lp1903
S'B func'
p1904
asg111
Nsg5
S'0x228bcL'
p1905
sg113
(lp1906
S'0x2273cL'
p1907
asg6
Nsg115
(lp1908
S'0x22950L'
p1909
asg269
Nsg270
Nsg271
S'9d5ed678fe57bcca610140957afab571'
p1910
sg273
S'071b057c420e304c628380fd3541c021'
p1911
sg275
(lp1912
g286
asg277
Nsba(ibclass
BBasicBlock
p1913
(dp1914
g12
Nsg13
(lp1915
(ibclass
BInstr
p1916
(dp1917
g2
Nsg17
S'B       loc_22950       ; jumptable 00022764 default case'
p1918
sg19
S'220000ea'
p1919
sg21
Vb #0x90
p1920
sg5
L141504L
sg6
Nsg23
g286
sg25
S'0x228c0L'
p1921
sg27
Nsbasg98
(lp1922
S'B func'
p1923
asg111
Nsg5
S'0x228c0L'
p1924
sg113
(lp1925
S'0x2273cL'
p1926
asg6
Nsg115
(lp1927
S'0x22950L'
p1928
asg269
Nsg270
Nsg271
S'9d5ed678fe57bcca610140957afab571'
p1929
sg273
S'071b057c420e304c628380fd3541c021'
p1930
sg275
(lp1931
g286
asg277
Nsba(ibclass
BBasicBlock
p1932
(dp1933
g12
Nsg13
(lp1934
(ibclass
BInstr
p1935
(dp1936
g2
Nsg17
S'B       loc_22950       ; jumptable 00022764 default case'
p1937
sg19
S'210000ea'
p1938
sg21
Vb #0x8c
p1939
sg5
L141508L
sg6
Nsg23
g286
sg25
S'0x228c4L'
p1940
sg27
Nsbasg98
(lp1941
S'B func'
p1942
asg111
Nsg5
S'0x228c4L'
p1943
sg113
(lp1944
S'0x2273cL'
p1945
asg6
Nsg115
(lp1946
S'0x22950L'
p1947
asg269
Nsg270
Nsg271
S'9d5ed678fe57bcca610140957afab571'
p1948
sg273
S'071b057c420e304c628380fd3541c021'
p1949
sg275
(lp1950
g286
asg277
Nsba(ibclass
BBasicBlock
p1951
(dp1952
g12
Nsg13
(lp1953
(ibclass
BInstr
p1954
(dp1955
g2
Nsg17
S'B       loc_22C88       ; jumptable 00022764 case 87'
p1956
sg19
S'ee0000ea'
p1957
sg21
Vb #0x3c0
p1958
sg5
L141512L
sg6
Nsg23
g286
sg25
S'0x228c8L'
p1959
sg27
Nsbasg98
(lp1960
S'B func'
p1961
asg111
Nsg5
S'0x228c8L'
p1962
sg113
(lp1963
S'0x2273cL'
p1964
asg6
Nsg115
(lp1965
S'0x22c88L'
p1966
asg269
Nsg270
Nsg271
S'9d5ed678fe57bcca610140957afab571'
p1967
sg273
S'071b057c420e304c628380fd3541c021'
p1968
sg275
(lp1969
g286
asg277
Nsba(ibclass
BBasicBlock
p1970
(dp1971
g12
Nsg13
(lp1972
(ibclass
BInstr
p1973
(dp1974
g2
Nsg17
S'B       loc_22C70       ; jumptable 00022764 case 88'
p1975
sg19
S'e70000ea'
p1976
sg21
Vb #0x3a4
p1977
sg5
L141516L
sg6
Nsg23
g286
sg25
S'0x228ccL'
p1978
sg27
Nsbasg98
(lp1979
S'B func'
p1980
asg111
Nsg5
S'0x228ccL'
p1981
sg113
(lp1982
S'0x2273cL'
p1983
asg6
Nsg115
(lp1984
S'0x22c70L'
p1985
asg269
Nsg270
Nsg271
S'9d5ed678fe57bcca610140957afab571'
p1986
sg273
S'071b057c420e304c628380fd3541c021'
p1987
sg275
(lp1988
g286
asg277
Nsba(ibclass
BBasicBlock
p1989
(dp1990
g12
Nsg13
(lp1991
(ibclass
BInstr
p1992
(dp1993
g2
Nsg17
S'B       loc_22950       ; jumptable 00022764 default case'
p1994
sg19
S'1e0000ea'
p1995
sg21
Vb #0x80
p1996
sg5
L141520L
sg6
Nsg23
g286
sg25
S'0x228d0L'
p1997
sg27
Nsbasg98
(lp1998
S'B func'
p1999
asg111
Nsg5
S'0x228d0L'
p2000
sg113
(lp2001
S'0x2273cL'
p2002
asg6
Nsg115
(lp2003
S'0x22950L'
p2004
asg269
Nsg270
Nsg271
S'9d5ed678fe57bcca610140957afab571'
p2005
sg273
S'071b057c420e304c628380fd3541c021'
p2006
sg275
(lp2007
g286
asg277
Nsba(ibclass
BBasicBlock
p2008
(dp2009
g12
Nsg13
(lp2010
(ibclass
BInstr
p2011
(dp2012
g2
Nsg17
S'B       loc_22C58       ; jumptable 00022764 case 90'
p2013
sg19
S'df0000ea'
p2014
sg21
Vb #0x384
p2015
sg5
L141524L
sg6
Nsg23
g286
sg25
S'0x228d4L'
p2016
sg27
Nsbasg98
(lp2017
S'B func'
p2018
asg111
Nsg5
S'0x228d4L'
p2019
sg113
(lp2020
S'0x2273cL'
p2021
asg6
Nsg115
(lp2022
S'0x22c58L'
p2023
asg269
Nsg270
Nsg271
S'9d5ed678fe57bcca610140957afab571'
p2024
sg273
S'071b057c420e304c628380fd3541c021'
p2025
sg275
(lp2026
g286
asg277
Nsba(ibclass
BBasicBlock
p2027
(dp2028
g12
Nsg13
(lp2029
(ibclass
BInstr
p2030
(dp2031
g2
Nsg17
S'B       loc_22C44       ; jumptable 00022764 case 91'
p2032
sg19
S'd90000ea'
p2033
sg21
Vb #0x36c
p2034
sg5
L141528L
sg6
Nsg23
g286
sg25
S'0x228d8L'
p2035
sg27
Nsbasg98
(lp2036
S'B func'
p2037
asg111
Nsg5
S'0x228d8L'
p2038
sg113
(lp2039
S'0x2273cL'
p2040
asg6
Nsg115
(lp2041
S'0x22c44L'
p2042
asg269
Nsg270
Nsg271
S'9d5ed678fe57bcca610140957afab571'
p2043
sg273
S'071b057c420e304c628380fd3541c021'
p2044
sg275
(lp2045
g286
asg277
Nsba(ibclass
BBasicBlock
p2046
(dp2047
g12
Nsg13
(lp2048
(ibclass
BInstr
p2049
(dp2050
g2
Nsg17
S'B       loc_22950       ; jumptable 00022764 default case'
p2051
sg19
S'1b0000ea'
p2052
sg21
Vb #0x74
p2053
sg5
L141532L
sg6
Nsg23
g286
sg25
S'0x228dcL'
p2054
sg27
Nsbasg98
(lp2055
S'B func'
p2056
asg111
Nsg5
S'0x228dcL'
p2057
sg113
(lp2058
S'0x2273cL'
p2059
asg6
Nsg115
(lp2060
S'0x22950L'
p2061
asg269
Nsg270
Nsg271
S'9d5ed678fe57bcca610140957afab571'
p2062
sg273
S'071b057c420e304c628380fd3541c021'
p2063
sg275
(lp2064
g286
asg277
Nsba(ibclass
BBasicBlock
p2065
(dp2066
g12
Nsg13
(lp2067
(ibclass
BInstr
p2068
(dp2069
g2
Nsg17
S'B       loc_22C38       ; jumptable 00022764 case 93'
p2070
sg19
S'd40000ea'
p2071
sg21
Vb #0x358
p2072
sg5
L141536L
sg6
Nsg23
g286
sg25
S'0x228e0L'
p2073
sg27
Nsbasg98
(lp2074
S'B func'
p2075
asg111
Nsg5
S'0x228e0L'
p2076
sg113
(lp2077
S'0x2273cL'
p2078
asg6
Nsg115
(lp2079
S'0x22c38L'
p2080
asg269
Nsg270
Nsg271
S'9d5ed678fe57bcca610140957afab571'
p2081
sg273
S'071b057c420e304c628380fd3541c021'
p2082
sg275
(lp2083
g286
asg277
Nsba(ibclass
BBasicBlock
p2084
(dp2085
g12
Nsg13
(lp2086
(ibclass
BInstr
p2087
(dp2088
g2
Nsg17
S'B       loc_22950       ; jumptable 00022764 default case'
p2089
sg19
S'190000ea'
p2090
sg21
Vb #0x6c
p2091
sg5
L141540L
sg6
Nsg23
g286
sg25
S'0x228e4L'
p2092
sg27
Nsbasg98
(lp2093
S'B func'
p2094
asg111
Nsg5
S'0x228e4L'
p2095
sg113
(lp2096
S'0x2273cL'
p2097
asg6
Nsg115
(lp2098
S'0x22950L'
p2099
asg269
Nsg270
Nsg271
S'9d5ed678fe57bcca610140957afab571'
p2100
sg273
S'071b057c420e304c628380fd3541c021'
p2101
sg275
(lp2102
g286
asg277
Nsba(ibclass
BBasicBlock
p2103
(dp2104
g12
Nsg13
(lp2105
(ibclass
BInstr
p2106
(dp2107
g2
Nsg17
S'B       loc_22950       ; jumptable 00022764 default case'
p2108
sg19
S'180000ea'
p2109
sg21
Vb #0x68
p2110
sg5
L141544L
sg6
Nsg23
g286
sg25
S'0x228e8L'
p2111
sg27
Nsbasg98
(lp2112
S'B func'
p2113
asg111
Nsg5
S'0x228e8L'
p2114
sg113
(lp2115
S'0x2273cL'
p2116
asg6
Nsg115
(lp2117
S'0x22950L'
p2118
asg269
Nsg270
Nsg271
S'9d5ed678fe57bcca610140957afab571'
p2119
sg273
S'071b057c420e304c628380fd3541c021'
p2120
sg275
(lp2121
g286
asg277
Nsba(ibclass
BBasicBlock
p2122
(dp2123
g12
Nsg13
(lp2124
(ibclass
BInstr
p2125
(dp2126
g2
Nsg17
S'B       loc_22C24       ; jumptable 00022764 case 96'
p2127
sg19
S'cc0000ea'
p2128
sg21
Vb #0x338
p2129
sg5
L141548L
sg6
Nsg23
g286
sg25
S'0x228ecL'
p2130
sg27
Nsbasg98
(lp2131
S'B func'
p2132
asg111
Nsg5
S'0x228ecL'
p2133
sg113
(lp2134
S'0x2273cL'
p2135
asg6
Nsg115
(lp2136
S'0x22c24L'
p2137
asg269
Nsg270
Nsg271
S'9d5ed678fe57bcca610140957afab571'
p2138
sg273
S'071b057c420e304c628380fd3541c021'
p2139
sg275
(lp2140
g286
asg277
Nsba(ibclass
BBasicBlock
p2141
(dp2142
g12
Nsg13
(lp2143
(ibclass
BInstr
p2144
(dp2145
g2
Nsg17
S'B       loc_22C10       ; jumptable 00022764 case 97'
p2146
sg19
S'c60000ea'
p2147
sg21
Vb #0x320
p2148
sg5
L141552L
sg6
Nsg23
g286
sg25
S'0x228f0L'
p2149
sg27
Nsbasg98
(lp2150
S'B func'
p2151
asg111
Nsg5
S'0x228f0L'
p2152
sg113
(lp2153
S'0x2273cL'
p2154
asg6
Nsg115
(lp2155
S'0x22c10L'
p2156
asg269
Nsg270
Nsg271
S'9d5ed678fe57bcca610140957afab571'
p2157
sg273
S'071b057c420e304c628380fd3541c021'
p2158
sg275
(lp2159
g286
asg277
Nsba(ibclass
BBasicBlock
p2160
(dp2161
g12
Nsg13
(lp2162
(ibclass
BInstr
p2163
(dp2164
g2
Nsg17
S'B       loc_22950       ; jumptable 00022764 default case'
p2165
sg19
S'150000ea'
p2166
sg21
Vb #0x5c
p2167
sg5
L141556L
sg6
Nsg23
g286
sg25
S'0x228f4L'
p2168
sg27
Nsbasg98
(lp2169
S'B func'
p2170
asg111
Nsg5
S'0x228f4L'
p2171
sg113
(lp2172
S'0x2273cL'
p2173
asg6
Nsg115
(lp2174
S'0x22950L'
p2175
asg269
Nsg270
Nsg271
S'9d5ed678fe57bcca610140957afab571'
p2176
sg273
S'071b057c420e304c628380fd3541c021'
p2177
sg275
(lp2178
g286
asg277
Nsba(ibclass
BBasicBlock
p2179
(dp2180
g12
Nsg13
(lp2181
(ibclass
BInstr
p2182
(dp2183
g2
Nsg17
S'B       loc_22950       ; jumptable 00022764 default case'
p2184
sg19
S'140000ea'
p2185
sg21
Vb #0x58
p2186
sg5
L141560L
sg6
Nsg23
g286
sg25
S'0x228f8L'
p2187
sg27
Nsbasg98
(lp2188
S'B func'
p2189
asg111
Nsg5
S'0x228f8L'
p2190
sg113
(lp2191
S'0x2273cL'
p2192
asg6
Nsg115
(lp2193
S'0x22950L'
p2194
asg269
Nsg270
Nsg271
S'9d5ed678fe57bcca610140957afab571'
p2195
sg273
S'071b057c420e304c628380fd3541c021'
p2196
sg275
(lp2197
g286
asg277
Nsba(ibclass
BBasicBlock
p2198
(dp2199
g12
Nsg13
(lp2200
(ibclass
BInstr
p2201
(dp2202
g2
Nsg17
S'B       loc_22BFC       ; jumptable 00022764 case 100'
p2203
sg19
S'be0000ea'
p2204
sg21
Vb #0x300
p2205
sg5
L141564L
sg6
Nsg23
g286
sg25
S'0x228fcL'
p2206
sg27
Nsbasg98
(lp2207
S'B func'
p2208
asg111
Nsg5
S'0x228fcL'
p2209
sg113
(lp2210
S'0x2273cL'
p2211
asg6
Nsg115
(lp2212
S'0x22bfcL'
p2213
asg269
Nsg270
Nsg271
S'9d5ed678fe57bcca610140957afab571'
p2214
sg273
S'071b057c420e304c628380fd3541c021'
p2215
sg275
(lp2216
g286
asg277
Nsba(ibclass
BBasicBlock
p2217
(dp2218
g12
Nsg13
(lp2219
(ibclass
BInstr
p2220
(dp2221
g2
Nsg17
S'B       loc_22D30       ; jumptable 00022764 case 101'
p2222
sg19
S'0a0100ea'
p2223
sg21
Vb #0x430
p2224
sg5
L141568L
sg6
Nsg23
g286
sg25
S'0x22900L'
p2225
sg27
Nsbasg98
(lp2226
S'B func'
p2227
asg111
Nsg5
S'0x22900L'
p2228
sg113
(lp2229
S'0x2273cL'
p2230
asg6
Nsg115
(lp2231
S'0x22d30L'
p2232
asg269
Nsg270
Nsg271
S'9d5ed678fe57bcca610140957afab571'
p2233
sg273
S'071b057c420e304c628380fd3541c021'
p2234
sg275
(lp2235
g286
asg277
Nsba(ibclass
BBasicBlock
p2236
(dp2237
g12
Nsg13
(lp2238
(ibclass
BInstr
p2239
(dp2240
g2
Nsg17
S'B       loc_22950       ; jumptable 00022764 default case'
p2241
sg19
S'110000ea'
p2242
sg21
Vb #0x4c
p2243
sg5
L141572L
sg6
Nsg23
g286
sg25
S'0x22904L'
p2244
sg27
Nsbasg98
(lp2245
S'B func'
p2246
asg111
Nsg5
S'0x22904L'
p2247
sg113
(lp2248
S'0x2273cL'
p2249
asg6
Nsg115
(lp2250
S'0x22950L'
p2251
asg269
Nsg270
Nsg271
S'9d5ed678fe57bcca610140957afab571'
p2252
sg273
S'071b057c420e304c628380fd3541c021'
p2253
sg275
(lp2254
g286
asg277
Nsba(ibclass
BBasicBlock
p2255
(dp2256
g12
Nsg13
(lp2257
(ibclass
BInstr
p2258
(dp2259
g2
Nsg17
S'B       loc_22D1C       ; jumptable 00022764 case 103'
p2260
sg19
S'030100ea'
p2261
sg21
Vb #0x414
p2262
sg5
L141576L
sg6
Nsg23
g286
sg25
S'0x22908L'
p2263
sg27
Nsbasg98
(lp2264
S'B func'
p2265
asg111
Nsg5
S'0x22908L'
p2266
sg113
(lp2267
S'0x2273cL'
p2268
asg6
Nsg115
(lp2269
S'0x22d1cL'
p2270
asg269
Nsg270
Nsg271
S'9d5ed678fe57bcca610140957afab571'
p2271
sg273
S'071b057c420e304c628380fd3541c021'
p2272
sg275
(lp2273
g286
asg277
Nsba(ibclass
BBasicBlock
p2274
(dp2275
g12
Nsg13
(lp2276
(ibclass
BInstr
p2277
(dp2278
g2
Nsg17
S'B       loc_22D44       ; jumptable 00022764 case 104'
p2279
sg19
S'0c0100ea'
p2280
sg21
Vb #0x438
p2281
sg5
L141580L
sg6
Nsg23
g286
sg25
S'0x2290cL'
p2282
sg27
Nsbasg98
(lp2283
S'B func'
p2284
asg111
Nsg5
S'0x2290cL'
p2285
sg113
(lp2286
S'0x2273cL'
p2287
asg6
Nsg115
(lp2288
S'0x22d44L'
p2289
asg269
Nsg270
Nsg271
S'9d5ed678fe57bcca610140957afab571'
p2290
sg273
S'071b057c420e304c628380fd3541c021'
p2291
sg275
(lp2292
g286
asg277
Nsba(ibclass
BBasicBlock
p2293
(dp2294
g12
Nsg13
(lp2295
(ibclass
BInstr
p2296
(dp2297
g2
Nsg17
S'B       loc_22CA0       ; jumptable 00022764 case 105'
p2298
sg19
S'e20000ea'
p2299
sg21
Vb #0x390
p2300
sg5
L141584L
sg6
Nsg23
g286
sg25
S'0x22910L'
p2301
sg27
Nsbasg98
(lp2302
S'B func'
p2303
asg111
Nsg5
S'0x22910L'
p2304
sg113
(lp2305
S'0x2273cL'
p2306
asg6
Nsg115
(lp2307
S'0x22ca0L'
p2308
asg269
Nsg270
Nsg271
S'9d5ed678fe57bcca610140957afab571'
p2309
sg273
S'071b057c420e304c628380fd3541c021'
p2310
sg275
(lp2311
g286
asg277
Nsba(ibclass
BBasicBlock
p2312
(dp2313
g12
Nsg13
(lp2314
(ibclass
BInstr
p2315
(dp2316
g2
Nsg17
S'B       loc_22CC8       ; jumptable 00022764 case 106'
p2317
sg19
S'eb0000ea'
p2318
sg21
Vb #0x3b4
p2319
sg5
L141588L
sg6
Nsg23
g286
sg25
S'0x22914L'
p2320
sg27
Nsbasg98
(lp2321
S'B func'
p2322
asg111
Nsg5
S'0x22914L'
p2323
sg113
(lp2324
S'0x2273cL'
p2325
asg6
Nsg115
(lp2326
S'0x22cc8L'
p2327
asg269
Nsg270
Nsg271
S'9d5ed678fe57bcca610140957afab571'
p2328
sg273
S'071b057c420e304c628380fd3541c021'
p2329
sg275
(lp2330
g286
asg277
Nsba(ibclass
BBasicBlock
p2331
(dp2332
g12
Nsg13
(lp2333
(ibclass
BInstr
p2334
(dp2335
g2
Nsg17
S'B       loc_22950       ; jumptable 00022764 default case'
p2336
sg19
S'0c0000ea'
p2337
sg21
Vb #0x38
p2338
sg5
L141592L
sg6
Nsg23
g286
sg25
S'0x22918L'
p2339
sg27
Nsbasg98
(lp2340
S'B func'
p2341
asg111
Nsg5
S'0x22918L'
p2342
sg113
(lp2343
S'0x2273cL'
p2344
asg6
Nsg115
(lp2345
S'0x22950L'
p2346
asg269
Nsg270
Nsg271
S'9d5ed678fe57bcca610140957afab571'
p2347
sg273
S'071b057c420e304c628380fd3541c021'
p2348
sg275
(lp2349
g286
asg277
Nsba(ibclass
BBasicBlock
p2350
(dp2351
g12
Nsg13
(lp2352
(ibclass
BInstr
p2353
(dp2354
g2
Nsg17
S'B       loc_22950       ; jumptable 00022764 default case'
p2355
sg19
S'0b0000ea'
p2356
sg21
Vb #0x34
p2357
sg5
L141596L
sg6
Nsg23
g286
sg25
S'0x2291cL'
p2358
sg27
Nsbasg98
(lp2359
S'B func'
p2360
asg111
Nsg5
S'0x2291cL'
p2361
sg113
(lp2362
S'0x2273cL'
p2363
asg6
Nsg115
(lp2364
S'0x22950L'
p2365
asg269
Nsg270
Nsg271
S'9d5ed678fe57bcca610140957afab571'
p2366
sg273
S'071b057c420e304c628380fd3541c021'
p2367
sg275
(lp2368
g286
asg277
Nsba(ibclass
BBasicBlock
p2369
(dp2370
g12
Nsg13
(lp2371
(ibclass
BInstr
p2372
(dp2373
g2
Nsg17
S'B       loc_22950       ; jumptable 00022764 default case'
p2374
sg19
S'0a0000ea'
p2375
sg21
Vb #0x30
p2376
sg5
L141600L
sg6
Nsg23
g286
sg25
S'0x22920L'
p2377
sg27
Nsbasg98
(lp2378
S'B func'
p2379
asg111
Nsg5
S'0x22920L'
p2380
sg113
(lp2381
S'0x2273cL'
p2382
asg6
Nsg115
(lp2383
S'0x22950L'
p2384
asg269
Nsg270
Nsg271
S'9d5ed678fe57bcca610140957afab571'
p2385
sg273
S'071b057c420e304c628380fd3541c021'
p2386
sg275
(lp2387
g286
asg277
Nsba(ibclass
BBasicBlock
p2388
(dp2389
g12
Nsg13
(lp2390
(ibclass
BInstr
p2391
(dp2392
g2
Nsg17
S'B       loc_22950       ; jumptable 00022764 default case'
p2393
sg19
S'090000ea'
p2394
sg21
Vb #0x2c
p2395
sg5
L141604L
sg6
Nsg23
g286
sg25
S'0x22924L'
p2396
sg27
Nsbasg98
(lp2397
S'B func'
p2398
asg111
Nsg5
S'0x22924L'
p2399
sg113
(lp2400
S'0x2273cL'
p2401
asg6
Nsg115
(lp2402
S'0x22950L'
p2403
asg269
Nsg270
Nsg271
S'9d5ed678fe57bcca610140957afab571'
p2404
sg273
S'071b057c420e304c628380fd3541c021'
p2405
sg275
(lp2406
g286
asg277
Nsba(ibclass
BBasicBlock
p2407
(dp2408
g12
Nsg13
(lp2409
(ibclass
BInstr
p2410
(dp2411
g2
Nsg17
S'B       loc_22950       ; jumptable 00022764 default case'
p2412
sg19
S'080000ea'
p2413
sg21
Vb #0x28
p2414
sg5
L141608L
sg6
Nsg23
g286
sg25
S'0x22928L'
p2415
sg27
Nsbasg98
(lp2416
S'B func'
p2417
asg111
Nsg5
S'0x22928L'
p2418
sg113
(lp2419
S'0x2273cL'
p2420
asg6
Nsg115
(lp2421
S'0x22950L'
p2422
asg269
Nsg270
Nsg271
S'9d5ed678fe57bcca610140957afab571'
p2423
sg273
S'071b057c420e304c628380fd3541c021'
p2424
sg275
(lp2425
g286
asg277
Nsba(ibclass
BBasicBlock
p2426
(dp2427
g12
Nsg13
(lp2428
(ibclass
BInstr
p2429
(dp2430
g2
Nsg17
S'B       loc_22950       ; jumptable 00022764 default case'
p2431
sg19
S'070000ea'
p2432
sg21
Vb #0x24
p2433
sg5
L141612L
sg6
Nsg23
g286
sg25
S'0x2292cL'
p2434
sg27
Nsbasg98
(lp2435
S'B func'
p2436
asg111
Nsg5
S'0x2292cL'
p2437
sg113
(lp2438
S'0x2273cL'
p2439
asg6
Nsg115
(lp2440
S'0x22950L'
p2441
asg269
Nsg270
Nsg271
S'9d5ed678fe57bcca610140957afab571'
p2442
sg273
S'071b057c420e304c628380fd3541c021'
p2443
sg275
(lp2444
g286
asg277
Nsba(ibclass
BBasicBlock
p2445
(dp2446
g12
Nsg13
(lp2447
(ibclass
BInstr
p2448
(dp2449
g2
Nsg17
S'B       loc_22950       ; jumptable 00022764 default case'
p2450
sg19
S'060000ea'
p2451
sg21
Vb #0x20
p2452
sg5
L141616L
sg6
Nsg23
g286
sg25
S'0x22930L'
p2453
sg27
Nsbasg98
(lp2454
S'B func'
p2455
asg111
Nsg5
S'0x22930L'
p2456
sg113
(lp2457
S'0x2273cL'
p2458
asg6
Nsg115
(lp2459
S'0x22950L'
p2460
asg269
Nsg270
Nsg271
S'9d5ed678fe57bcca610140957afab571'
p2461
sg273
S'071b057c420e304c628380fd3541c021'
p2462
sg275
(lp2463
g286
asg277
Nsba(ibclass
BBasicBlock
p2464
(dp2465
g12
Nsg13
(lp2466
(ibclass
BInstr
p2467
(dp2468
g2
Nsg17
S'B       loc_22978       ; jumptable 00022764 case 114'
p2469
sg19
S'0f0000ea'
p2470
sg21
Vb #0x44
p2471
sg5
L141620L
sg6
Nsg23
g286
sg25
S'0x22934L'
p2472
sg27
Nsbasg98
(lp2473
S'B func'
p2474
asg111
Nsg5
S'0x22934L'
p2475
sg113
(lp2476
S'0x2273cL'
p2477
asg6
Nsg115
(lp2478
S'0x22978L'
p2479
asg269
Nsg270
Nsg271
S'9d5ed678fe57bcca610140957afab571'
p2480
sg273
S'071b057c420e304c628380fd3541c021'
p2481
sg275
(lp2482
g286
asg277
Nsba(ibclass
BBasicBlock
p2483
(dp2484
g12
Nsg13
(lp2485
(ibclass
BInstr
p2486
(dp2487
g2
Nsg17
S'B       loc_22CB8       ; jumptable 00022764 case 115'
p2488
sg19
S'de0000ea'
p2489
sg21
Vb #0x380
p2490
sg5
L141624L
sg6
Nsg23
g286
sg25
S'0x22938L'
p2491
sg27
Nsbasg98
(lp2492
S'B func'
p2493
asg111
Nsg5
S'0x22938L'
p2494
sg113
(lp2495
S'0x2273cL'
p2496
asg6
Nsg115
(lp2497
S'0x22cb8L'
p2498
asg269
Nsg270
Nsg271
S'9d5ed678fe57bcca610140957afab571'
p2499
sg273
S'071b057c420e304c628380fd3541c021'
p2500
sg275
(lp2501
g286
asg277
Nsba(ibclass
BBasicBlock
p2502
(dp2503
g12
Nsg13
(lp2504
(ibclass
BInstr
p2505
(dp2506
g2
Nsg17
S'B       loc_22CE0       ; jumptable 00022764 case 116'
p2507
sg19
S'e70000ea'
p2508
sg21
Vb #0x3a4
p2509
sg5
L141628L
sg6
Nsg23
g286
sg25
S'0x2293cL'
p2510
sg27
Nsbasg98
(lp2511
S'B func'
p2512
asg111
Nsg5
S'0x2293cL'
p2513
sg113
(lp2514
S'0x2273cL'
p2515
asg6
Nsg115
(lp2516
S'0x22ce0L'
p2517
asg269
Nsg270
Nsg271
S'9d5ed678fe57bcca610140957afab571'
p2518
sg273
S'071b057c420e304c628380fd3541c021'
p2519
sg275
(lp2520
g286
asg277
Nsba(ibclass
BBasicBlock
p2521
(dp2522
g12
Nsg13
(lp2523
(ibclass
BInstr
p2524
(dp2525
g2
Nsg17
S'BL      sk_new_null'
p2526
sg19
S'11baffeb'
p2527
sg21
Vbl #0xfffee84c
p2528
sg5
L141632L
sg6
Nsg23
S'BL'
p2529
sg25
S'0x22940L'
p2530
sg27
Nsba(ibclass
BInstr
p2531
(dp2532
g2
Nsg17
S'CMP     R0, #0'
p2533
sg19
S'000050e3'
p2534
sg21
Vcmp r0, #0
p2535
sg5
L141636L
sg6
Nsg23
S'CMP'
p2536
sg25
S'0x22944L'
p2537
sg27
Nsba(ibclass
BInstr
p2538
(dp2539
g2
Nsg17
S'STR     R0, [ctx,#0x94]'
p2540
sg19
S'940084e5'
p2541
sg21
Vstr r0, [r4, #0x94]
p2542
sg5
L141640L
sg6
Nsg23
S'STR'
p2543
sg25
S'0x22948L'
p2544
sg27
Nsba(ibclass
BInstr
p2545
(dp2546
g2
Nsg17
S'BNE     loc_22AD4'
p2547
sg19
S'6000001a'
p2548
sg21
Vbne #0x188
p2549
sg5
L141644L
sg6
Nsg23
g286
sg25
S'0x2294cL'
p2550
sg27
Nsbasg98
(lp2551
S'BL sk_new_null'
p2552
aS'CMP R0, #0'
p2553
aS'STR R0, mem'
p2554
aS'BNE func'
p2555
asg111
Nsg5
S'0x22940L'
p2556
sg113
(lp2557
S'0x22ac8L'
p2558
asg6
Nsg115
(lp2559
S'0x22950L'
p2560
aS'0x22ad4L'
p2561
asg269
Nsg270
Nsg271
S'154fbdbd468453543402a65a7994a7ee'
p2562
sg273
S'11d1a0daf7195a2168dc82ef92b761b6'
p2563
sg275
(lp2564
g2529
ag2536
ag2543
ag286
asg277
Nsba(ibclass
BBasicBlock
p2565
(dp2566
g12
Nsg13
(lp2567
(ibclass
BInstr
p2568
(dp2569
g2
Nsg17
S'MOV     R0, #0          ; jumptable 00022764 default case'
p2570
sg19
S'0000a0e3'
p2571
sg21
Vmov r0, #0
p2572
sg5
L141648L
sg6
Nsg23
S'MOV'
p2573
sg25
S'0x22950L'
p2574
sg27
Nsbasg98
(lp2575
S'MOV R0, #0'
p2576
asg111
Nsg5
S'0x22950L'
p2577
sg113
(lp2578
S'0x2273cL'
p2579
aS'0x22768L'
p2580
aS'0x22788L'
p2581
aS'0x2278cL'
p2582
aS'0x22790L'
p2583
aS'0x22794L'
p2584
aS'0x22798L'
p2585
aS'0x2279cL'
p2586
aS'0x227a4L'
p2587
aS'0x227a8L'
p2588
aS'0x227acL'
p2589
aS'0x227b0L'
p2590
aS'0x227b4L'
p2591
aS'0x227b8L'
p2592
aS'0x227bcL'
p2593
aS'0x227c0L'
p2594
aS'0x227c4L'
p2595
aS'0x227c8L'
p2596
aS'0x227ccL'
p2597
aS'0x227d0L'
p2598
aS'0x227d4L'
p2599
aS'0x227d8L'
p2600
aS'0x227dcL'
p2601
aS'0x227e0L'
p2602
aS'0x227e4L'
p2603
aS'0x227e8L'
p2604
aS'0x227ecL'
p2605
aS'0x227f0L'
p2606
aS'0x227f4L'
p2607
aS'0x227f8L'
p2608
aS'0x227fcL'
p2609
aS'0x22800L'
p2610
aS'0x22804L'
p2611
aS'0x22808L'
p2612
aS'0x2280cL'
p2613
aS'0x22810L'
p2614
aS'0x22814L'
p2615
aS'0x22818L'
p2616
aS'0x2281cL'
p2617
aS'0x22820L'
p2618
aS'0x22824L'
p2619
aS'0x22828L'
p2620
aS'0x2282cL'
p2621
aS'0x22830L'
p2622
aS'0x22834L'
p2623
aS'0x22838L'
p2624
aS'0x2283cL'
p2625
aS'0x22844L'
p2626
aS'0x22848L'
p2627
aS'0x2284cL'
p2628
aS'0x22858L'
p2629
aS'0x2285cL'
p2630
aS'0x22860L'
p2631
aS'0x22864L'
p2632
aS'0x2286cL'
p2633
aS'0x22870L'
p2634
aS'0x22874L'
p2635
aS'0x22878L'
p2636
aS'0x2287cL'
p2637
aS'0x22880L'
p2638
aS'0x22884L'
p2639
aS'0x22888L'
p2640
aS'0x2288cL'
p2641
aS'0x22890L'
p2642
aS'0x22894L'
p2643
aS'0x22898L'
p2644
aS'0x2289cL'
p2645
aS'0x228b8L'
p2646
aS'0x228bcL'
p2647
aS'0x228c0L'
p2648
aS'0x228c4L'
p2649
aS'0x228d0L'
p2650
aS'0x228dcL'
p2651
aS'0x228e4L'
p2652
aS'0x228e8L'
p2653
aS'0x228f4L'
p2654
aS'0x228f8L'
p2655
aS'0x22904L'
p2656
aS'0x22918L'
p2657
aS'0x2291cL'
p2658
aS'0x22920L'
p2659
aS'0x22924L'
p2660
aS'0x22928L'
p2661
aS'0x2292cL'
p2662
aS'0x22930L'
p2663
aS'0x22940L'
p2664
aS'0x22cf0L'
p2665
asg6
Nsg115
(lp2666
S'0x22954L'
p2667
asg269
Nsg270
Nsg271
S'17b32100aef1fc19670be7fd58bc85df'
p2668
sg273
S'e733d4d75975b8499f45ea9e00b5f330'
p2669
sg275
(lp2670
g2573
asg277
Nsba(ibclass
BBasicBlock
p2671
(dp2672
g12
Nsg13
(lp2673
(ibclass
BInstr
p2674
(dp2675
g2
Nsg17
S'ADD     SP, SP, #0xC'
p2676
sg19
S'0cd08de2'
p2677
sg21
Vadd sp, sp, #0xc
p2678
sg5
L141652L
sg6
Nsg23
S'ADD'
p2679
sg25
S'0x22954L'
p2680
sg27
Nsba(ibclass
BInstr
p2681
(dp2682
g2
Nsg17
S'LDMFD   SP!, {rsa-cert,LR}'
p2683
sg19
S'f040bde8'
p2684
sg21
Vpop {r4, r5, r6, r7, lr}
p2685
sg5
L141656L
sg6
Nsg23
S'LDM'
p2686
sg25
S'0x22958L'
p2687
sg27
Nsba(ibclass
BInstr
p2688
(dp2689
g2
Nsg17
S'BX      LR'
p2690
sg19
S'1eff2fe1'
p2691
sg21
Vbx lr
p2692
sg5
L141660L
sg6
Nsg23
S'BX'
p2693
sg25
S'0x2295cL'
p2694
sg27
Nsbasg98
(lp2695
S'ADD SP, SP, #0xC'
p2696
aS'LDMFD SP!, {rsa-cert,LR}'
p2697
aS'BX LR'
p2698
asg111
Nsg5
S'0x22954L'
p2699
sg113
(lp2700
S'0x22950L'
p2701
aS'0x22960L'
p2702
aS'0x22978L'
p2703
aS'0x22998L'
p2704
aS'0x229b4L'
p2705
aS'0x229ccL'
p2706
aS'0x22a1cL'
p2707
aS'0x22a44L'
p2708
aS'0x22a5cL'
p2709
aS'0x22a68L'
p2710
aS'0x22a84L'
p2711
aS'0x22abcL'
p2712
aS'0x22ad4L'
p2713
aS'0x22ae4L'
p2714
aS'0x22b0cL'
p2715
aS'0x22b34L'
p2716
aS'0x22b78L'
p2717
aS'0x22ba8L'
p2718
aS'0x22be4L'
p2719
aS'0x22bfcL'
p2720
aS'0x22c10L'
p2721
aS'0x22c24L'
p2722
aS'0x22c38L'
p2723
aS'0x22c44L'
p2724
aS'0x22c58L'
p2725
aS'0x22c78L'
p2726
aS'0x22c90L'
p2727
aS'0x22ca0L'
p2728
aS'0x22cb8L'
p2729
aS'0x22cc8L'
p2730
aS'0x22ce0L'
p2731
aS'0x22d08L'
p2732
aS'0x22d30L'
p2733
aS'0x22d44L'
p2734
aS'0x22d54L'
p2735
aS'0x22d5cL'
p2736
aS'0x22d6cL'
p2737
aS'0x22d7cL'
p2738
aS'0x22da4L'
p2739
aS'0x22dd8L'
p2740
aS'0x22e20L'
p2741
aS'0x22e54L'
p2742
aS'0x22e84L'
p2743
aS'0x22ebcL'
p2744
aS'0x22ee4L'
p2745
aS'0x22f0cL'
p2746
asg6
Nsg115
(lp2747
sg269
Nsg270
Nsg271
S'fb02e3799554a1c259ca4724e19b2b8e'
p2748
sg273
S'82cbf8b32380a1d7bd05e962e6485007'
p2749
sg275
(lp2750
g2679
ag2686
ag2693
asg277
Nsba(ibclass
BBasicBlock
p2751
(dp2752
g12
Nsg13
(lp2753
(ibclass
BInstr
p2754
(dp2755
g2
Nsg17
S'LDR     R3, [ctx,#0x94] ; jumptable 00022764 case 81'
p2756
sg19
S'943094e5'
p2757
sg21
Vldr r3, [r4, #0x94]
p2758
sg5
L141664L
sg6
Nsg23
S'LDR'
p2759
sg25
S'0x22960L'
p2760
sg27
Nsba(ibclass
BInstr
p2761
(dp2762
g2
Nsg17
S'CMP     R2, #0'
p2763
sg19
S'000052e3'
p2764
sg21
Vcmp r2, #0
p2765
sg5
L141668L
sg6
Nsg23
S'CMP'
p2766
sg25
S'0x22964L'
p2767
sg27
Nsba(ibclass
BInstr
p2768
(dp2769
g2
Nsg17
S'CMPEQ   R3, #0'
p2770
sg19
S'00005303'
p2771
sg21
Vcmpeq r3, #0
p2772
sg5
L141672L
sg6
Nsg23
S'CMP'
p2773
sg25
S'0x22968L'
p2774
sg27
Nsba(ibclass
BInstr
p2775
(dp2776
g2
Nsg17
S'STRNE   R3, [parg]'
p2777
sg19
S'00308515'
p2778
sg21
Vstrne r3, [r5]
p2779
sg5
L141676L
sg6
Nsg23
S'STR'
p2780
sg25
S'0x2296cL'
p2781
sg27
Nsba(ibclass
BInstr
p2782
(dp2783
g2
Nsg17
S'MOVNE   R0, #1'
p2784
sg19
S'0100a013'
p2785
sg21
Vmovne r0, #1
p2786
sg5
L141680L
sg6
Nsg23
S'MOV'
p2787
sg25
S'0x22970L'
p2788
sg27
Nsba(ibclass
BInstr
p2789
(dp2790
g2
Nsg17
S'BNE     loc_22954'
p2791
sg19
S'f6ffff1a'
p2792
sg21
Vbne #0xffffffe0
p2793
sg5
L141684L
sg6
Nsg23
g286
sg25
S'0x22974L'
p2794
sg27
Nsbasg98
(lp2795
S'LDR R3, mem'
p2796
aS'CMP R2, #0'
p2797
aS'CMPEQ R3, #0'
p2798
aS'STRNE R3, mem'
p2799
aS'MOVNE R0, #1'
p2800
aS'BNE func'
p2801
asg111
Nsg5
S'0x22960L'
p2802
sg113
(lp2803
S'0x2273cL'
p2804
aS'0x228b0L'
p2805
asg6
Nsg115
(lp2806
S'0x22954L'
p2807
aS'0x22978L'
p2808
asg269
Nsg270
Nsg271
S'4a7f832bb9f838ad617cdc648020ff90'
p2809
sg273
S'26486c5ba86bb9bd0b169f20c242f06c'
p2810
sg275
(lp2811
g2759
ag2766
ag2773
ag2780
ag2787
ag286
asg277
Nsba(ibclass
BBasicBlock
p2812
(dp2813
g12
Nsg13
(lp2814
(ibclass
BInstr
p2815
(dp2816
g2
Nsg17
S'LDR     R3, [cert]      ; jumptable 00022764 case 114'
p2817
sg19
S'003097e5'
p2818
sg21
Vldr r3, [r7]
p2819
sg5
L141688L
sg6
Nsg23
S'LDR'
p2820
sg25
S'0x22978L'
p2821
sg27
Nsba(ibclass
BInstr
p2822
(dp2823
g2
Nsg17
S'MOV     R0, #1'
p2824
sg19
S'0100a0e3'
p2825
sg21
Vmov r0, #1
p2826
sg5
L141692L
sg6
Nsg23
S'MOV'
p2827
sg25
S'0x2297cL'
p2828
sg27
Nsba(ibclass
BInstr
p2829
(dp2830
g2
Nsg17
S'LDR     R3, [R3,#0xC]'
p2831
sg19
S'0c3093e5'
p2832
sg21
Vldr r3, [r3, #0xc]
p2833
sg5
L141696L
sg6
Nsg23
S'LDR'
p2834
sg25
S'0x22980L'
p2835
sg27
Nsba(ibclass
BInstr
p2836
(dp2837
g2
Nsg17
S'STR     R3, [parg]'
p2838
sg19
S'003085e5'
p2839
sg21
Vstr r3, [r5]
p2840
sg5
L141700L
sg6
Nsg23
S'STR'
p2841
sg25
S'0x22984L'
p2842
sg27
Nsba(ibclass
BInstr
p2843
(dp2844
g2
Nsg17
S'B       loc_22954'
p2845
sg19
S'f1ffffea'
p2846
sg21
Vb #0xffffffcc
p2847
sg5
L141704L
sg6
Nsg23
g286
sg25
S'0x22988L'
p2848
sg27
Nsbasg98
(lp2849
S'LDR R3, mem'
p2850
aS'MOV R0, #1'
p2851
aS'LDR R3, mem'
p2852
aS'STR R3, mem'
p2853
aS'B func'
p2854
asg111
Nsg5
S'0x22978L'
p2855
sg113
(lp2856
S'0x2273cL'
p2857
aS'0x22934L'
p2858
aS'0x22960L'
p2859
asg6
Nsg115
(lp2860
S'0x22954L'
p2861
asg269
Nsg270
Nsg271
S'8ac43631b1bd311900daa0fad5800077'
p2862
sg273
S'4d578b5405fd616f98a929a13add82df'
p2863
sg275
(lp2864
g2820
ag2827
ag2834
ag2841
ag286
asg277
Nsba(ibclass
BBasicBlock
p2865
(dp2866
g12
Nsg13
(lp2867
(ibclass
BInstr
p2868
(dp2869
g2
Nsg17
S'LDR     R0, [ctx,#0x94] ; jumptable 00022764 case 82'
p2870
sg19
S'940094e5'
p2871
sg21
Vldr r0, [r4, #0x94]
p2872
sg5
L141708L
sg6
Nsg23
S'LDR'
p2873
sg25
S'0x2298cL'
p2874
sg27
Nsba(ibclass
BInstr
p2875
(dp2876
g2
Nsg17
S'CMP     R0, #0'
p2877
sg19
S'000050e3'
p2878
sg21
Vcmp r0, #0
p2879
sg5
L141712L
sg6
Nsg23
S'CMP'
p2880
sg25
S'0x22990L'
p2881
sg27
Nsba(ibclass
BInstr
p2882
(dp2883
g2
Nsg17
S'BEQ     loc_22D54'
p2884
sg19
S'ee00000a'
p2885
sg21
Vbeq #0x3c0
p2886
sg5
L141716L
sg6
Nsg23
g286
sg25
S'0x22994L'
p2887
sg27
Nsbasg98
(lp2888
S'LDR R0, mem'
p2889
aS'CMP R0, #0'
p2890
aS'BEQ func'
p2891
asg111
Nsg5
S'0x2298cL'
p2892
sg113
(lp2893
S'0x2273cL'
p2894
aS'0x228b4L'
p2895
asg6
Nsg115
(lp2896
S'0x22998L'
p2897
aS'0x22d54L'
p2898
asg269
Nsg270
Nsg271
S'fa4df767a85c49648339e2dc5c6807f6'
p2899
sg273
S'0297e47d64966638bae7fa6ae2c78adb'
p2900
sg275
(lp2901
g2873
ag2880
ag286
asg277
Nsba(ibclass
BBasicBlock
p2902
(dp2903
g12
Nsg13
(lp2904
(ibclass
BInstr
p2905
(dp2906
g2
Nsg17
S'LDR     R3, =(X509_free_ptr_0 - 0x62000)'
p2907
sg19
S'98359fe5'
p2908
sg21
Vldr r3, [pc, #0x598]
p2909
sg5
L141720L
sg6
Nsg23
S'LDR'
p2910
sg25
S'0x22998L'
p2911
sg27
Nsba(ibclass
BInstr
p2912
(dp2913
g2
Nsg17
S'LDR     cmd, [R6,R3] ; __imp_X509_free'
p2914
sg19
S'031096e7'
p2915
sg21
Vldr r1, [r6, r3]
p2916
sg5
L141724L
sg6
Nsg23
S'LDR'
p2917
sg25
S'0x2299cL'
p2918
sg27
Nsba(ibclass
BInstr
p2919
(dp2920
g2
Nsg17
S'BL      sk_pop_free'
p2921
sg19
S'9cb6ffeb'
p2922
sg21
Vbl #0xfffeda78
p2923
sg5
L141728L
sg6
Nsg23
S'BL'
p2924
sg25
S'0x229a0L'
p2925
sg27
Nsba(ibclass
BInstr
p2926
(dp2927
g2
Nsg17
S'MOV     R3, #0'
p2928
sg19
S'0030a0e3'
p2929
sg21
Vmov r3, #0
p2930
sg5
L141732L
sg6
Nsg23
S'MOV'
p2931
sg25
S'0x229a4L'
p2932
sg27
Nsba(ibclass
BInstr
p2933
(dp2934
g2
Nsg17
S'STR     R3, [ctx,#0x94]'
p2935
sg19
S'943084e5'
p2936
sg21
Vstr r3, [r4, #0x94]
p2937
sg5
L141736L
sg6
Nsg23
S'STR'
p2938
sg25
S'0x229a8L'
p2939
sg27
Nsba(ibclass
BInstr
p2940
(dp2941
g2
Nsg17
S'MOV     R0, #1'
p2942
sg19
S'0100a0e3'
p2943
sg21
Vmov r0, #1
p2944
sg5
L141740L
sg6
Nsg23
S'MOV'
p2945
sg25
S'0x229acL'
p2946
sg27
Nsba(ibclass
BInstr
p2947
(dp2948
g2
Nsg17
S'B       loc_22954'
p2949
sg19
S'e7ffffea'
p2950
sg21
Vb #0xffffffa4
p2951
sg5
L141744L
sg6
Nsg23
g286
sg25
S'0x229b0L'
p2952
sg27
Nsbasg98
(lp2953
S'LDR R3, =(X509_free_ptr_0 - address)'
p2954
aS'LDR cmd, mem'
p2955
aS'BL sk_pop_free'
p2956
aS'MOV R3, #0'
p2957
aS'STR R3, mem'
p2958
aS'MOV R0, #1'
p2959
aS'B func'
p2960
asg111
Nsg5
S'0x22998L'
p2961
sg113
(lp2962
S'0x2298cL'
p2963
asg6
Nsg115
(lp2964
S'0x22954L'
p2965
asg269
Nsg270
Nsg271
S'a8cde9ff98aec1ff6646fb7dbf2f6326'
p2966
sg273
S'2ca90c49e9234736128ffdb8b24370b7'
p2967
sg275
(lp2968
g2910
ag2917
ag2924
ag2931
ag2938
ag2945
ag286
asg277
Nsba(ibclass
BBasicBlock
p2969
(dp2970
g12
Nsg13
(lp2971
(ibclass
BInstr
p2972
(dp2973
g2
Nsg17
S'STR     R3, [ctx,#0x198]; jumptable 00022764 case 80'
p2974
sg19
S'983184e5'
p2975
sg21
Vstr r3, [r4, #0x198]
p2976
sg5
L141748L
sg6
Nsg23
S'STR'
p2977
sg25
S'0x229b4L'
p2978
sg27
Nsba(ibclass
BInstr
p2979
(dp2980
g2
Nsg17
S'LDR     R3, =(srp_password_from_info_cb - 0x62000)'
p2981
sg19
S'7c359fe5'
p2982
sg21
Vldr r3, [pc, #0x57c]
p2983
sg5
L141752L
sg6
Nsg23
S'LDR'
p2984
sg25
S'0x229b8L'
p2985
sg27
Nsba(ibclass
BInstr
p2986
(dp2987
g2
Nsg17
S'MOV     R0, #1'
p2988
sg19
S'0100a0e3'
p2989
sg21
Vmov r0, #1
p2990
sg5
L141756L
sg6
Nsg23
S'MOV'
p2991
sg25
S'0x229bcL'
p2992
sg27
Nsba(ibclass
BInstr
p2993
(dp2994
g2
Nsg17
S'ADD     R6, R6, R3 ; srp_password_from_info_cb'
p2995
sg19
S'036086e0'
p2996
sg21
Vadd r6, r6, r3
p2997
sg5
L141760L
sg6
Nsg23
S'ADD'
p2998
sg25
S'0x229c0L'
p2999
sg27
Nsba(ibclass
BInstr
p3000
(dp3001
g2
Nsg17
S'STR     R6, [ctx,#0x170]'
p3002
sg19
S'706184e5'
p3003
sg21
Vstr r6, [r4, #0x170]
p3004
sg5
L141764L
sg6
Nsg23
S'STR'
p3005
sg25
S'0x229c4L'
p3006
sg27
Nsba(ibclass
BInstr
p3007
(dp3008
g2
Nsg17
S'B       loc_22954'
p3009
sg19
S'e1ffffea'
p3010
sg21
Vb #0xffffff8c
p3011
sg5
L141768L
sg6
Nsg23
g286
sg25
S'0x229c8L'
p3012
sg27
Nsbasg98
(lp3013
S'STR R3, mem'
p3014
aS'LDR R3, =(srp_passfuncrom_info_cb - address)'
p3015
aS'MOV R0, #1'
p3016
aS'ADD R6, R6, R3'
p3017
aS'STR R6, mem'
p3018
aS'B func'
p3019
asg111
Nsg5
S'0x229b4L'
p3020
sg113
(lp3021
S'0x2273cL'
p3022
aS'0x228acL'
p3023
asg6
Nsg115
(lp3024
S'0x22954L'
p3025
asg269
Nsg270
Nsg271
S'c69c49c5c3232e6a917b3f91cc54b3a9'
p3026
sg273
S'22a56975b29f7c049b7d7d12a2ba6c49'
p3027
sg275
(lp3028
g2977
ag2984
ag2991
ag2998
ag3005
ag286
asg277
Nsba(ibclass
BBasicBlock
p3029
(dp3030
g12
Nsg13
(lp3031
(ibclass
BInstr
p3032
(dp3033
g2
Nsg17
S'STR     R2, [ctx,#0x19C]; jumptable 00022764 case 79'
p3034
sg19
S'9c2184e5'
p3035
sg21
Vstr r2, [r4, #0x19c]
p3036
sg5
L141772L
sg6
Nsg23
S'STR'
p3037
sg25
S'0x229ccL'
p3038
sg27
Nsba(ibclass
BInstr
p3039
(dp3040
g2
Nsg17
S'MOV     R0, #1'
p3041
sg19
S'0100a0e3'
p3042
sg21
Vmov r0, #1
p3043
sg5
L141776L
sg6
Nsg23
S'MOV'
p3044
sg25
S'0x229d0L'
p3045
sg27
Nsba(ibclass
BInstr
p3046
(dp3047
g2
Nsg17
S'B       loc_22954'
p3048
sg19
S'deffffea'
p3049
sg21
Vb #0xffffff80
p3050
sg5
L141780L
sg6
Nsg23
g286
sg25
S'0x229d4L'
p3051
sg27
Nsbasg98
(lp3052
S'STR R2, mem'
p3053
aS'MOV R0, #1'
p3054
aS'B func'
p3055
asg111
Nsg5
S'0x229ccL'
p3056
sg113
(lp3057
S'0x2273cL'
p3058
aS'0x228a8L'
p3059
asg6
Nsg115
(lp3060
S'0x22954L'
p3061
asg269
Nsg270
Nsg271
S'ae67871e53439720ff237cbdfb357aa2'
p3062
sg273
S'bc363a6efa68de6dbc1187cd3043abb4'
p3063
sg275
(lp3064
g3037
ag3044
ag286
asg277
Nsba(ibclass
BBasicBlock
p3065
(dp3066
g12
Nsg13
(lp3067
(ibclass
BInstr
p3068
(dp3069
g2
Nsg17
S'LDR     R3, [ctx,#0x1A0]; jumptable 00022764 case 78'
p3070
sg19
S'a03194e5'
p3071
sg21
Vldr r3, [r4, #0x1a0]
p3072
sg5
L141784L
sg6
Nsg23
S'LDR'
p3073
sg25
S'0x229d8L'
p3074
sg27
Nsba(ibclass
BInstr
p3075
(dp3076
g2
Nsg17
S'LDR     R0, [ctx,#0x174]'
p3077
sg19
S'740194e5'
p3078
sg21
Vldr r0, [r4, #0x174]
p3079
sg5
L141788L
sg6
Nsg23
S'LDR'
p3080
sg25
S'0x229dcL'
p3081
sg27
Nsba(ibclass
BInstr
p3082
(dp3083
g2
Nsg17
S'ORR     R3, R3, #0x400'
p3084
sg19
S'013b83e3'
p3085
sg21
Vorr r3, r3, #0x400
p3086
sg5
L141792L
sg6
Nsg23
S'ORR'
p3087
sg25
S'0x229e0L'
p3088
sg27
Nsba(ibclass
BInstr
p3089
(dp3090
g2
Nsg17
S'CMP     R0, #0'
p3091
sg19
S'000050e3'
p3092
sg21
Vcmp r0, #0
p3093
sg5
L141796L
sg6
Nsg23
S'CMP'
p3094
sg25
S'0x229e4L'
p3095
sg27
Nsba(ibclass
BInstr
p3096
(dp3097
g2
Nsg17
S'STR     R3, [ctx,#0x1A0]'
p3098
sg19
S'a03184e5'
p3099
sg21
Vstr r3, [r4, #0x1a0]
p3100
sg5
L141800L
sg6
Nsg23
S'STR'
p3101
sg25
S'0x229e8L'
p3102
sg27
Nsba(ibclass
BInstr
p3103
(dp3104
g2
Nsg17
S'BLNE    CRYPTO_free'
p3105
sg19
S'06b8ff1b'
p3106
sg21
Vblne #0xfffee020
p3107
sg5
L141804L
sg6
Nsg23
S'BL'
p3108
sg25
S'0x229ecL'
p3109
sg27
Nsba(ibclass
BInstr
p3110
(dp3111
g2
Nsg17
S'MOV     R3, #0'
p3112
sg19
S'0030a0e3'
p3113
sg21
Vmov r3, #0
p3114
sg5
L141808L
sg6
Nsg23
S'MOV'
p3115
sg25
S'0x229f0L'
p3116
sg27
Nsba(ibclass
BInstr
p3117
(dp3118
g2
Nsg17
S'CMP     parg, #0'
p3119
sg19
S'000055e3'
p3120
sg21
Vcmp r5, #0
p3121
sg5
L141812L
sg6
Nsg23
S'CMP'
p3122
sg25
S'0x229f4L'
p3123
sg27
Nsba(ibclass
BInstr
p3124
(dp3125
g2
Nsg17
S'STR     R3, [ctx,#0x174]'
p3126
sg19
S'743184e5'
p3127
sg21
Vstr r3, [r4, #0x174]
p3128
sg5
L141816L
sg6
Nsg23
S'STR'
p3129
sg25
S'0x229f8L'
p3130
sg27
Nsba(ibclass
BInstr
p3131
(dp3132
g2
Nsg17
S'BEQ     loc_22D54'
p3133
sg19
S'd400000a'
p3134
sg21
Vbeq #0x358
p3135
sg5
L141820L
sg6
Nsg23
g286
sg25
S'0x229fcL'
p3136
sg27
Nsbasg98
(lp3137
S'LDR R3, mem'
p3138
aS'LDR R0, mem'
p3139
aS'ORR R3, R3, #0x400'
p3140
aS'CMP R0, #0'
p3141
aS'STR R3, mem'
p3142
aS'BLNE CRYPTO_free'
p3143
aS'MOV R3, #0'
p3144
aS'CMP parg, #0'
p3145
aS'STR R3, mem'
p3146
aS'BEQ func'
p3147
asg111
Nsg5
S'0x229d8L'
p3148
sg113
(lp3149
S'0x2273cL'
p3150
aS'0x228a4L'
p3151
asg6
Nsg115
(lp3152
S'0x22a00L'
p3153
aS'0x22d54L'
p3154
asg269
Nsg270
Nsg271
S'08fac8391846ae742790ffdc9cafd84d'
p3155
sg273
S'215e0f02fbdeaa7261bc1dadce09aae9'
p3156
sg275
(lp3157
g3073
ag3080
ag3087
ag3094
ag3101
ag3108
ag3115
ag3122
ag3129
ag286
asg277
Nsba(ibclass
BBasicBlock
p3158
(dp3159
g12
Nsg13
(lp3160
(ibclass
BInstr
p3161
(dp3162
g2
Nsg17
S'MOV     R0, parg        ; s'
p3163
sg19
S'0500a0e1'
p3164
sg21
Vmov r0, r5
p3165
sg5
L141824L
sg6
Nsg23
S'MOV'
p3166
sg25
S'0x22a00L'
p3167
sg27
Nsba(ibclass
BInstr
p3168
(dp3169
g2
Nsg17
S'BL      strlen'
p3170
sg19
S'57b8ffeb'
p3171
sg21
Vbl #0xfffee164
p3172
sg5
L141828L
sg6
Nsg23
S'BL'
p3173
sg25
S'0x22a04L'
p3174
sg27
Nsba(ibclass
BInstr
p3175
(dp3176
g2
Nsg17
S'CMP     R0, #0xFF'
p3177
sg19
S'ff0050e3'
p3178
sg21
Vcmp r0, #0xff
p3179
sg5
L141832L
sg6
Nsg23
S'CMP'
p3180
sg25
S'0x22a08L'
p3181
sg27
Nsba(ibclass
BInstr
p3182
(dp3183
g2
Nsg17
S'BHI     loc_22A1C'
p3184
sg19
S'0200008a'
p3185
sg21
Vbhi #0x10
p3186
sg5
L141836L
sg6
Nsg23
g286
sg25
S'0x22a0cL'
p3187
sg27
Nsbasg98
(lp3188
S'MOV R0, parg'
p3189
aS'BL strlen'
p3190
aS'CMP R0, #0xFF'
p3191
aS'BHI func'
p3192
asg111
Nsg5
S'0x22a00L'
p3193
sg113
(lp3194
S'0x229d8L'
p3195
asg6
Nsg115
(lp3196
S'0x22a10L'
p3197
aS'0x22a1cL'
p3198
asg269
Nsg270
Nsg271
S'75fdea37841bac1a618e2aab315c9307'
p3199
sg273
S'd839385413b1032f0c3fdcfbbcee0966'
p3200
sg275
(lp3201
g3166
ag3173
ag3180
ag286
asg277
Nsba(ibclass
BBasicBlock
p3202
(dp3203
g12
Nsg13
(lp3204
(ibclass
BInstr
p3205
(dp3206
g2
Nsg17
S'LDRB    R3, [parg]'
p3207
sg19
S'0030d5e5'
p3208
sg21
Vldrb r3, [r5]
p3209
sg5
L141840L
sg6
Nsg23
S'LDR'
p3210
sg25
S'0x22a10L'
p3211
sg27
Nsba(ibclass
BInstr
p3212
(dp3213
g2
Nsg17
S'CMP     R3, #0'
p3214
sg19
S'000053e3'
p3215
sg21
Vcmp r3, #0
p3216
sg5
L141844L
sg6
Nsg23
S'CMP'
p3217
sg25
S'0x22a14L'
p3218
sg27
Nsba(ibclass
BInstr
p3219
(dp3220
g2
Nsg17
S'BNE     loc_22E08'
p3221
sg19
S'fa00001a'
p3222
sg21
Vbne #0x3f0
p3223
sg5
L141848L
sg6
Nsg23
g286
sg25
S'0x22a18L'
p3224
sg27
Nsbasg98
(lp3225
S'LDRB R3, mem'
p3226
aS'CMP R3, #0'
p3227
aS'BNE func'
p3228
asg111
Nsg5
S'0x22a10L'
p3229
sg113
(lp3230
S'0x22a00L'
p3231
asg6
Nsg115
(lp3232
S'0x22a1cL'
p3233
aS'0x22e08L'
p3234
asg269
Nsg270
Nsg271
S'fa4df767a85c49648339e2dc5c6807f6'
p3235
sg273
S'9b45ba1dc1a480f886132eca35567a26'
p3236
sg275
(lp3237
g3210
ag3217
ag286
asg277
Nsba(ibclass
BBasicBlock
p3238
(dp3239
g12
Nsg13
(lp3240
(ibclass
BInstr
p3241
(dp3242
g2
Nsg17
S'LDR     R3, =(aS3_lib_c - 0x62000)'
p3243
sg19
S'1c359fe5'
p3244
sg21
Vldr r3, [pc, #0x51c]
p3245
sg5
L141852L
sg6
Nsg23
S'LDR'
p3246
sg25
S'0x22a1cL'
p3247
sg27
Nsba(ibclass
BInstr
p3248
(dp3249
g2
Nsg17
S'LDR     R12, =0xEEA'
p3250
sg19
S'1cc59fe5'
p3251
sg21
Vldr ip, [pc, #0x51c]
p3252
sg5
L141856L
sg6
Nsg23
S'LDR'
p3253
sg25
S'0x22a20L'
p3254
sg27
Nsba(ibclass
BInstr
p3255
(dp3256
g2
Nsg17
S'MOV     R0, #0x14'
p3257
sg19
S'1400a0e3'
p3258
sg21
Vmov r0, #0x14
p3259
sg5
L141860L
sg6
Nsg23
S'MOV'
p3260
sg25
S'0x22a24L'
p3261
sg27
Nsba(ibclass
BInstr
p3262
(dp3263
g2
Nsg17
S'ADD     R3, R6, R3      ; "s3_lib.c"'
p3264
sg19
S'033086e0'
p3265
sg21
Vadd r3, r6, r3
p3266
sg5
L141864L
sg6
Nsg23
S'ADD'
p3267
sg25
S'0x22a28L'
p3268
sg27
Nsba(ibclass
BInstr
p3269
(dp3270
g2
Nsg17
S'MOV     R1, #0x85'
p3271
sg19
S'8510a0e3'
p3272
sg21
Vmov r1, #0x85
p3273
sg5
L141868L
sg6
Nsg23
S'MOV'
p3274
sg25
S'0x22a2cL'
p3275
sg27
Nsba(ibclass
BInstr
p3276
(dp3277
g2
Nsg17
S'LDR     R2, =0x165'
p3278
sg19
S'10259fe5'
p3279
sg21
Vldr r2, [pc, #0x510]
p3280
sg5
L141872L
sg6
Nsg23
S'LDR'
p3281
sg25
S'0x22a30L'
p3282
sg27
Nsba(ibclass
BInstr
p3283
(dp3284
g2
Nsg17
S'STR     R12, [SP,#0x20+var_20]'
p3285
sg19
S'00c08de5'
p3286
sg21
Vstr ip, [sp]
p3287
sg5
L141876L
sg6
Nsg23
S'STR'
p3288
sg25
S'0x22a34L'
p3289
sg27
Nsba(ibclass
BInstr
p3290
(dp3291
g2
Nsg17
S'BL      ERR_put_error'
p3292
sg19
S'96baffeb'
p3293
sg21
Vbl #0xfffeea60
p3294
sg5
L141880L
sg6
Nsg23
S'BL'
p3295
sg25
S'0x22a38L'
p3296
sg27
Nsba(ibclass
BInstr
p3297
(dp3298
g2
Nsg17
S'MOV     R0, #0'
p3299
sg19
S'0000a0e3'
p3300
sg21
Vmov r0, #0
p3301
sg5
L141884L
sg6
Nsg23
S'MOV'
p3302
sg25
S'0x22a3cL'
p3303
sg27
Nsba(ibclass
BInstr
p3304
(dp3305
g2
Nsg17
S'B       loc_22954'
p3306
sg19
S'c3ffffea'
p3307
sg21
Vb #0xffffff14
p3308
sg5
L141888L
sg6
Nsg23
g286
sg25
S'0x22a40L'
p3309
sg27
Nsbasg98
(lp3310
S'LDR R3, =(aS3_lib_c - address)'
p3311
aS'LDR R12, =0xEEA'
p3312
aS'MOV R0, #0x14'
p3313
aS'ADD R3, R6, R3'
p3314
aS'MOV R1, #0x85'
p3315
aS'LDR R2, =0x165'
p3316
aS'STR R12, mem'
p3317
aS'BL ERR_put_error'
p3318
aS'MOV R0, #0'
p3319
aS'B func'
p3320
asg111
Nsg5
S'0x22a1cL'
p3321
sg113
(lp3322
S'0x22a00L'
p3323
aS'0x22a10L'
p3324
asg6
Nsg115
(lp3325
S'0x22954L'
p3326
asg269
Nsg270
Nsg271
S'11a79a9c867237e905a89111c737c309'
p3327
sg273
S'561ebf6d03f4085734c4896dfc8630bd'
p3328
sg275
(lp3329
g3246
ag3253
ag3260
ag3267
ag3274
ag3281
ag3288
ag3295
ag3302
ag286
asg277
Nsba(ibclass
BBasicBlock
p3330
(dp3331
g12
Nsg13
(lp3332
(ibclass
BInstr
p3333
(dp3334
g2
Nsg17
S'LDR     R3, [ctx,#0x1A0]; jumptable 00022764 case 77'
p3335
sg19
S'a03194e5'
p3336
sg21
Vldr r3, [r4, #0x1a0]
p3337
sg5
L141892L
sg6
Nsg23
S'LDR'
p3338
sg25
S'0x22a44L'
p3339
sg27
Nsba(ibclass
BInstr
p3340
(dp3341
g2
Nsg17
S'STR     parg, [ctx,#0x164]'
p3342
sg19
S'645184e5'
p3343
sg21
Vstr r5, [r4, #0x164]
p3344
sg5
L141896L
sg6
Nsg23
S'STR'
p3345
sg25
S'0x22a48L'
p3346
sg27
Nsba(ibclass
BInstr
p3347
(dp3348
g2
Nsg17
S'ORR     R3, R3, #0x400'
p3349
sg19
S'013b83e3'
p3350
sg21
Vorr r3, r3, #0x400
p3351
sg5
L141900L
sg6
Nsg23
S'ORR'
p3352
sg25
S'0x22a4cL'
p3353
sg27
Nsba(ibclass
BInstr
p3354
(dp3355
g2
Nsg17
S'STR     R3, [ctx,#0x1A0]'
p3356
sg19
S'a03184e5'
p3357
sg21
Vstr r3, [r4, #0x1a0]
p3358
sg5
L141904L
sg6
Nsg23
S'STR'
p3359
sg25
S'0x22a50L'
p3360
sg27
Nsba(ibclass
BInstr
p3361
(dp3362
g2
Nsg17
S'MOV     R0, #1'
p3363
sg19
S'0100a0e3'
p3364
sg21
Vmov r0, #1
p3365
sg5
L141908L
sg6
Nsg23
S'MOV'
p3366
sg25
S'0x22a54L'
p3367
sg27
Nsba(ibclass
BInstr
p3368
(dp3369
g2
Nsg17
S'B       loc_22954'
p3370
sg19
S'bdffffea'
p3371
sg21
Vb #0xfffffefc
p3372
sg5
L141912L
sg6
Nsg23
g286
sg25
S'0x22a58L'
p3373
sg27
Nsbasg98
(lp3374
S'LDR R3, mem'
p3375
aS'STR parg, mem'
p3376
aS'ORR R3, R3, #0x400'
p3377
aS'STR R3, mem'
p3378
aS'MOV R0, #1'
p3379
aS'B func'
p3380
asg111
Nsg5
S'0x22a44L'
p3381
sg113
(lp3382
S'0x2273cL'
p3383
aS'0x228a0L'
p3384
asg6
Nsg115
(lp3385
S'0x22954L'
p3386
asg269
Nsg270
Nsg271
S'c35ebbf1ffaac3d0979c8491f8f2607f'
p3387
sg273
S'c2b4910940bd889f947500214c933ba5'
p3388
sg275
(lp3389
g3338
ag3345
ag3352
ag3359
ag3366
ag286
asg277
Nsba(ibclass
BBasicBlock
p3390
(dp3391
g12
Nsg13
(lp3392
(ibclass
BInstr
p3393
(dp3394
g2
Nsg17
S'STR     R3, [ctx,#0x140]; jumptable 00022764 case 63'
p3395
sg19
S'403184e5'
p3396
sg21
Vstr r3, [r4, #0x140]
p3397
sg5
L141916L
sg6
Nsg23
S'STR'
p3398
sg25
S'0x22a5cL'
p3399
sg27
Nsba(ibclass
BInstr
p3400
(dp3401
g2
Nsg17
S'MOV     R0, #1'
p3402
sg19
S'0100a0e3'
p3403
sg21
Vmov r0, #1
p3404
sg5
L141920L
sg6
Nsg23
S'MOV'
p3405
sg25
S'0x22a60L'
p3406
sg27
Nsba(ibclass
BInstr
p3407
(dp3408
g2
Nsg17
S'B       loc_22954'
p3409
sg19
S'baffffea'
p3410
sg21
Vb #0xfffffef0
p3411
sg5
L141924L
sg6
Nsg23
g286
sg25
S'0x22a64L'
p3412
sg27
Nsbasg98
(lp3413
S'STR R3, mem'
p3414
aS'MOV R0, #1'
p3415
aS'B func'
p3416
asg111
Nsg5
S'0x22a5cL'
p3417
sg113
(lp3418
S'0x2273cL'
p3419
aS'0x22868L'
p3420
asg6
Nsg115
(lp3421
S'0x22954L'
p3422
asg269
Nsg270
Nsg271
S'ae67871e53439720ff237cbdfb357aa2'
p3423
sg273
S'7e83064976f361062b6a9327df529c54'
p3424
sg275
(lp3425
g3398
ag3405
ag286
asg277
Nsba(ibclass
BBasicBlock
p3426
(dp3427
g12
Nsg13
(lp3428
(ibclass
BInstr
p3429
(dp3430
g2
Nsg17
S'CMP     R3, #0          ; jumptable 00022764 cases 57,58'
p3431
sg19
S'000053e3'
p3432
sg21
Vcmp r3, #0
p3433
sg5
L141928L
sg6
Nsg23
S'CMP'
p3434
sg25
S'0x22a68L'
p3435
sg27
Nsba(ibclass
BInstr
p3436
(dp3437
g2
Nsg17
S'MOVEQ   R0, #0x30'
p3438
sg19
S'3000a003'
p3439
sg21
Vmoveq r0, #0x30
p3440
sg5
L141932L
sg6
Nsg23
S'MOV'
p3441
sg25
S'0x22a6cL'
p3442
sg27
Nsba(ibclass
BInstr
p3443
(dp3444
g2
Nsg17
S'BEQ     loc_22954'
p3445
sg19
S'b7ffff0a'
p3446
sg21
Vbeq #0xfffffee4
p3447
sg5
L141936L
sg6
Nsg23
g286
sg25
S'0x22a70L'
p3448
sg27
Nsbasg98
(lp3449
S'CMP R3, #0'
p3450
aS'MOVEQ R0, #0x30'
p3451
aS'BEQ func'
p3452
asg111
Nsg5
S'0x22a68L'
p3453
sg113
(lp3454
S'0x2273cL'
p3455
aS'0x22850L'
p3456
aS'0x22854L'
p3457
asg6
Nsg115
(lp3458
S'0x22954L'
p3459
aS'0x22a74L'
p3460
asg269
Nsg270
Nsg271
S'e8df9ba4cde3984b4ab59d5bb6791e02'
p3461
sg273
S'b130516e90869e011e4c291634176c33'
p3462
sg275
(lp3463
g3434
ag3441
ag286
asg277
Nsba(ibclass
BBasicBlock
p3464
(dp3465
g12
Nsg13
(lp3466
(ibclass
BInstr
p3467
(dp3468
g2
Nsg17
S'CMP     R2, #0x30'
p3469
sg19
S'300052e3'
p3470
sg21
Vcmp r2, #0x30
p3471
sg5
L141940L
sg6
Nsg23
S'CMP'
p3472
sg25
S'0x22a74L'
p3473
sg27
Nsba(ibclass
BInstr
p3474
(dp3475
g2
Nsg17
S'BNE     loc_22D7C'
p3476
sg19
S'bf00001a'
p3477
sg21
Vbne #0x304
p3478
sg5
L141944L
sg6
Nsg23
g286
sg25
S'0x22a78L'
p3479
sg27
Nsbasg98
(lp3480
S'CMP R2, #0x30'
p3481
aS'BNE func'
p3482
asg111
Nsg5
S'0x22a74L'
p3483
sg113
(lp3484
S'0x22a68L'
p3485
asg6
Nsg115
(lp3486
S'0x22a7cL'
p3487
aS'0x22d7cL'
p3488
asg269
Nsg270
Nsg271
S'c78fd620a449e3c979d3f3ec12d4ee88'
p3489
sg273
S'df3b7abed88d84c207719408a3c9a930'
p3490
sg275
(lp3491
g3472
ag286
asg277
Nsba(ibclass
BBasicBlock
p3492
(dp3493
g12
Nsg13
(lp3494
(ibclass
BInstr
p3495
(dp3496
g2
Nsg17
S'CMP     cmd, #0x3B'
p3497
sg19
S'3b0051e3'
p3498
sg21
Vcmp r1, #0x3b
p3499
sg5
L141948L
sg6
Nsg23
S'CMP'
p3500
sg25
S'0x22a7cL'
p3501
sg27
Nsba(ibclass
BInstr
p3502
(dp3503
g2
Nsg17
S'BEQ     loc_22E84'
p3504
sg19
S'ff00000a'
p3505
sg21
Vbeq #0x404
p3506
sg5
L141952L
sg6
Nsg23
g286
sg25
S'0x22a80L'
p3507
sg27
Nsbasg98
(lp3508
S'CMP cmd, #0x3B'
p3509
aS'BEQ func'
p3510
asg111
Nsg5
S'0x22a7cL'
p3511
sg113
(lp3512
S'0x22a74L'
p3513
asg6
Nsg115
(lp3514
S'0x22a84L'
p3515
aS'0x22e84L'
p3516
asg269
Nsg270
Nsg271
S'c78fd620a449e3c979d3f3ec12d4ee88'
p3517
sg273
S'0ec97c23e5527d42682a04a3a0c7bf26'
p3518
sg275
(lp3519
g3500
ag286
asg277
Nsba(ibclass
BBasicBlock
p3520
(dp3521
g12
Nsg13
(lp3522
(ibclass
BInstr
p3523
(dp3524
g2
Nsg17
S'MOV     R0, parg        ; dest'
p3525
sg19
S'0300a0e1'
p3526
sg21
Vmov r0, r3
p3527
sg5
L141956L
sg6
Nsg23
S'MOV'
p3528
sg25
S'0x22a84L'
p3529
sg27
Nsba(ibclass
BInstr
p3530
(dp3531
g2
Nsg17
S'ADD     cmd, ctx, #0x108; src'
p3532
sg19
S'421f84e2'
p3533
sg21
Vadd r1, r4, #0x108
p3534
sg5
L141960L
sg6
Nsg23
S'ADD'
p3535
sg25
S'0x22a88L'
p3536
sg27
Nsba(ibclass
BInstr
p3537
(dp3538
g2
Nsg17
S'MOV     larg, #0x10     ; n'
p3539
sg19
S'1020a0e3'
p3540
sg21
Vmov r2, #0x10
p3541
sg5
L141964L
sg6
Nsg23
S'MOV'
p3542
sg25
S'0x22a8cL'
p3543
sg27
Nsba(ibclass
BInstr
p3544
(dp3545
g2
Nsg17
S'BL      memcpy'
p3546
sg19
S'5eb8ffeb'
p3547
sg21
Vbl #0xfffee180
p3548
sg5
L141968L
sg6
Nsg23
S'BL'
p3549
sg25
S'0x22a90L'
p3550
sg27
Nsba(ibclass
BInstr
p3551
(dp3552
g2
Nsg17
S'MOV     R2, #0x10       ; n'
p3553
sg19
S'1020a0e3'
p3554
sg21
Vmov r2, #0x10
p3555
sg5
L141972L
sg6
Nsg23
S'MOV'
p3556
sg25
S'0x22a94L'
p3557
sg27
Nsba(ibclass
BInstr
p3558
(dp3559
g2
Nsg17
S'ADD     R1, ctx, #0x118 ; src'
p3560
sg19
S'461f84e2'
p3561
sg21
Vadd r1, r4, #0x118
p3562
sg5
L141976L
sg6
Nsg23
S'ADD'
p3563
sg25
S'0x22a98L'
p3564
sg27
Nsba(ibclass
BInstr
p3565
(dp3566
g2
Nsg17
S'ADD     R0, parg, R2    ; dest'
p3567
sg19
S'020085e0'
p3568
sg21
Vadd r0, r5, r2
p3569
sg5
L141980L
sg6
Nsg23
S'ADD'
p3570
sg25
S'0x22a9cL'
p3571
sg27
Nsba(ibclass
BInstr
p3572
(dp3573
g2
Nsg17
S'BL      memcpy'
p3574
sg19
S'5ab8ffeb'
p3575
sg21
Vbl #0xfffee170
p3576
sg5
L141984L
sg6
Nsg23
S'BL'
p3577
sg25
S'0x22aa0L'
p3578
sg27
Nsba(ibclass
BInstr
p3579
(dp3580
g2
Nsg17
S'ADD     R0, parg, #0x20 ; dest'
p3581
sg19
S'200085e2'
p3582
sg21
Vadd r0, r5, #0x20
p3583
sg5
L141988L
sg6
Nsg23
S'ADD'
p3584
sg25
S'0x22aa4L'
p3585
sg27
Nsba(ibclass
BInstr
p3586
(dp3587
g2
Nsg17
S'ADD     R1, ctx, #0x128 ; src'
p3588
sg19
S'4a1f84e2'
p3589
sg21
Vadd r1, r4, #0x128
p3590
sg5
L141992L
sg6
Nsg23
S'ADD'
p3591
sg25
S'0x22aa8L'
p3592
sg27
Nsba(ibclass
BInstr
p3593
(dp3594
g2
Nsg17
S'MOV     R2, #0x10       ; n'
p3595
sg19
S'1020a0e3'
p3596
sg21
Vmov r2, #0x10
p3597
sg5
L141996L
sg6
Nsg23
S'MOV'
p3598
sg25
S'0x22aacL'
p3599
sg27
Nsba(ibclass
BInstr
p3600
(dp3601
g2
Nsg17
S'BL      memcpy'
p3602
sg19
S'56b8ffeb'
p3603
sg21
Vbl #0xfffee160
p3604
sg5
L142000L
sg6
Nsg23
S'BL'
p3605
sg25
S'0x22ab0L'
p3606
sg27
Nsba(ibclass
BInstr
p3607
(dp3608
g2
Nsg17
S'MOV     R0, #1'
p3609
sg19
S'0100a0e3'
p3610
sg21
Vmov r0, #1
p3611
sg5
L142004L
sg6
Nsg23
S'MOV'
p3612
sg25
S'0x22ab4L'
p3613
sg27
Nsba(ibclass
BInstr
p3614
(dp3615
g2
Nsg17
S'B       loc_22954'
p3616
sg19
S'a5ffffea'
p3617
sg21
Vb #0xfffffe9c
p3618
sg5
L142008L
sg6
Nsg23
g286
sg25
S'0x22ab8L'
p3619
sg27
Nsbasg98
(lp3620
S'MOV R0, parg'
p3621
aS'ADD cmd, ctx, #0x108'
p3622
aS'MOV larg, #0x10'
p3623
aS'BL memcpy'
p3624
aS'MOV R2, #0x10'
p3625
aS'ADD R1, ctx, #0x118'
p3626
aS'ADD R0, parg, R2'
p3627
aS'BL memcpy'
p3628
aS'ADD R0, parg, #0x20'
p3629
aS'ADD R1, ctx, #0x128'
p3630
aS'MOV R2, #0x10'
p3631
aS'BL memcpy'
p3632
aS'MOV R0, #1'
p3633
aS'B func'
p3634
asg111
Nsg5
S'0x22a84L'
p3635
sg113
(lp3636
S'0x22a7cL'
p3637
asg6
Nsg115
(lp3638
S'0x22954L'
p3639
asg269
Nsg270
Nsg271
S'b66f7f58e9eaa27d3b32fb3a0abf3b2d'
p3640
sg273
S'6bed814b6aab4d8d5391b38489de19a4'
p3641
sg275
(lp3642
g3528
ag3535
ag3542
ag3549
ag3556
ag3563
ag3570
ag3577
ag3584
ag3591
ag3598
ag3605
ag3612
ag286
asg277
Nsba(ibclass
BBasicBlock
p3643
(dp3644
g12
Nsg13
(lp3645
(ibclass
BInstr
p3646
(dp3647
g2
Nsg17
S'STR     R3, [ctx,#0x104]; jumptable 00022764 case 53'
p3648
sg19
S'043184e5'
p3649
sg21
Vstr r3, [r4, #0x104]
p3650
sg5
L142012L
sg6
Nsg23
S'STR'
p3651
sg25
S'0x22abcL'
p3652
sg27
Nsba(ibclass
BInstr
p3653
(dp3654
g2
Nsg17
S'MOV     R0, #1'
p3655
sg19
S'0100a0e3'
p3656
sg21
Vmov r0, #1
p3657
sg5
L142016L
sg6
Nsg23
S'MOV'
p3658
sg25
S'0x22ac0L'
p3659
sg27
Nsba(ibclass
BInstr
p3660
(dp3661
g2
Nsg17
S'B       loc_22954'
p3662
sg19
S'a2ffffea'
p3663
sg21
Vb #0xfffffe90
p3664
sg5
L142020L
sg6
Nsg23
g286
sg25
S'0x22ac4L'
p3665
sg27
Nsbasg98
(lp3666
S'STR R3, mem'
p3667
aS'MOV R0, #1'
p3668
aS'B func'
p3669
asg111
Nsg5
S'0x22abcL'
p3670
sg113
(lp3671
S'0x2273cL'
p3672
aS'0x22840L'
p3673
asg6
Nsg115
(lp3674
S'0x22954L'
p3675
asg269
Nsg270
Nsg271
S'ae67871e53439720ff237cbdfb357aa2'
p3676
sg273
S'7e83064976f361062b6a9327df529c54'
p3677
sg275
(lp3678
g3651
ag3658
ag286
asg277
Nsba(ibclass
BBasicBlock
p3679
(dp3680
g12
Nsg13
(lp3681
(ibclass
BInstr
p3682
(dp3683
g2
Nsg17
S'LDR     R0, [ctx,#0x94] ; jumptable 00022764 case 13'
p3684
sg19
S'940094e5'
p3685
sg21
Vldr r0, [r4, #0x94]
p3686
sg5
L142024L
sg6
Nsg23
S'LDR'
p3687
sg25
S'0x22ac8L'
p3688
sg27
Nsba(ibclass
BInstr
p3689
(dp3690
g2
Nsg17
S'CMP     R0, #0'
p3691
sg19
S'000050e3'
p3692
sg21
Vcmp r0, #0
p3693
sg5
L142028L
sg6
Nsg23
S'CMP'
p3694
sg25
S'0x22accL'
p3695
sg27
Nsba(ibclass
BInstr
p3696
(dp3697
g2
Nsg17
S'BEQ     loc_22940'
p3698
sg19
S'9affff0a'
p3699
sg21
Vbeq #0xfffffe70
p3700
sg5
L142032L
sg6
Nsg23
g286
sg25
S'0x22ad0L'
p3701
sg27
Nsbasg98
(lp3702
S'LDR R0, mem'
p3703
aS'CMP R0, #0'
p3704
aS'BEQ func'
p3705
asg111
Nsg5
S'0x22ac8L'
p3706
sg113
(lp3707
S'0x2273cL'
p3708
aS'0x227a0L'
p3709
asg6
Nsg115
(lp3710
S'0x22940L'
p3711
aS'0x22ad4L'
p3712
asg269
Nsg270
Nsg271
S'fa4df767a85c49648339e2dc5c6807f6'
p3713
sg273
S'0297e47d64966638bae7fa6ae2c78adb'
p3714
sg275
(lp3715
g3687
ag3694
ag286
asg277
Nsba(ibclass
BBasicBlock
p3716
(dp3717
g12
Nsg13
(lp3718
(ibclass
BInstr
p3719
(dp3720
g2
Nsg17
S'MOV     cmd, parg'
p3721
sg19
S'0510a0e1'
p3722
sg21
Vmov r1, r5
p3723
sg5
L142036L
sg6
Nsg23
S'MOV'
p3724
sg25
S'0x22ad4L'
p3725
sg27
Nsba(ibclass
BInstr
p3726
(dp3727
g2
Nsg17
S'BL      sk_push'
p3728
sg19
S'77baffeb'
p3729
sg21
Vbl #0xfffee9e4
p3730
sg5
L142040L
sg6
Nsg23
S'BL'
p3731
sg25
S'0x22ad8L'
p3732
sg27
Nsba(ibclass
BInstr
p3733
(dp3734
g2
Nsg17
S'MOV     R0, #1'
p3735
sg19
S'0100a0e3'
p3736
sg21
Vmov r0, #1
p3737
sg5
L142044L
sg6
Nsg23
S'MOV'
p3738
sg25
S'0x22adcL'
p3739
sg27
Nsba(ibclass
BInstr
p3740
(dp3741
g2
Nsg17
S'B       loc_22954'
p3742
sg19
S'9bffffea'
p3743
sg21
Vb #0xfffffe74
p3744
sg5
L142048L
sg6
Nsg23
g286
sg25
S'0x22ae0L'
p3745
sg27
Nsbasg98
(lp3746
S'MOV cmd, parg'
p3747
aS'BL sk_push'
p3748
aS'MOV R0, #1'
p3749
aS'B func'
p3750
asg111
Nsg5
S'0x22ad4L'
p3751
sg113
(lp3752
S'0x22940L'
p3753
aS'0x22ac8L'
p3754
asg6
Nsg115
(lp3755
S'0x22954L'
p3756
asg269
Nsg270
Nsg271
S'cd23e0eb2129bcc2960febbe800808ae'
p3757
sg273
S'18187bc203c5b5d3af77d5a3f87caa2b'
p3758
sg275
(lp3759
g3724
ag3731
ag3738
ag286
asg277
Nsba(ibclass
BBasicBlock
p3760
(dp3761
g12
Nsg13
(lp3762
(ibclass
BInstr
p3763
(dp3764
g2
Nsg17
S'LDR     R3, =(aS3_lib_c - 0x62000); jumptable 00022764 case 4'
p3765
sg19
S'54349fe5'
p3766
sg21
Vldr r3, [pc, #0x454]
p3767
sg5
L142052L
sg6
Nsg23
S'LDR'
p3768
sg25
S'0x22ae4L'
p3769
sg27
Nsba(ibclass
BInstr
p3770
(dp3771
g2
Nsg17
S'LDR     larg, =0xE72'
p3772
sg19
S'5cc49fe5'
p3773
sg21
Vldr ip, [pc, #0x45c]
p3774
sg5
L142056L
sg6
Nsg23
S'LDR'
p3775
sg25
S'0x22ae8L'
p3776
sg27
Nsba(ibclass
BInstr
p3777
(dp3778
g2
Nsg17
S'MOV     R0, #0x14'
p3779
sg19
S'1400a0e3'
p3780
sg21
Vmov r0, #0x14
p3781
sg5
L142060L
sg6
Nsg23
S'MOV'
p3782
sg25
S'0x22aecL'
p3783
sg27
Nsba(ibclass
BInstr
p3784
(dp3785
g2
Nsg17
S'ADD     R3, R6, R3      ; "s3_lib.c"'
p3786
sg19
S'033086e0'
p3787
sg21
Vadd r3, r6, r3
p3788
sg5
L142064L
sg6
Nsg23
S'ADD'
p3789
sg25
S'0x22af0L'
p3790
sg27
Nsba(ibclass
BInstr
p3791
(dp3792
g2
Nsg17
S'MOV     cmd, #0x85'
p3793
sg19
S'8510a0e3'
p3794
sg21
Vmov r1, #0x85
p3795
sg5
L142068L
sg6
Nsg23
S'MOV'
p3796
sg25
S'0x22af4L'
p3797
sg27
Nsba(ibclass
BInstr
p3798
(dp3799
g2
Nsg17
S'MOV     larg, #0x42'
p3800
sg19
S'4220a0e3'
p3801
sg21
Vmov r2, #0x42
p3802
sg5
L142072L
sg6
Nsg23
S'MOV'
p3803
sg25
S'0x22af8L'
p3804
sg27
Nsba(ibclass
BInstr
p3805
(dp3806
g2
Nsg17
S'STR     R12, [SP,#0x20+var_20]'
p3807
sg19
S'00c08de5'
p3808
sg21
Vstr ip, [sp]
p3809
sg5
L142076L
sg6
Nsg23
S'STR'
p3810
sg25
S'0x22afcL'
p3811
sg27
Nsba(ibclass
BInstr
p3812
(dp3813
g2
Nsg17
S'BL      ERR_put_error'
p3814
sg19
S'64baffeb'
p3815
sg21
Vbl #0xfffee998
p3816
sg5
L142080L
sg6
Nsg23
S'BL'
p3817
sg25
S'0x22b00L'
p3818
sg27
Nsba(ibclass
BInstr
p3819
(dp3820
g2
Nsg17
S'MOV     R0, #0'
p3821
sg19
S'0000a0e3'
p3822
sg21
Vmov r0, #0
p3823
sg5
L142084L
sg6
Nsg23
S'MOV'
p3824
sg25
S'0x22b04L'
p3825
sg27
Nsba(ibclass
BInstr
p3826
(dp3827
g2
Nsg17
S'B       loc_22954'
p3828
sg19
S'91ffffea'
p3829
sg21
Vb #0xfffffe4c
p3830
sg5
L142088L
sg6
Nsg23
g286
sg25
S'0x22b08L'
p3831
sg27
Nsbasg98
(lp3832
S'LDR R3, =(aS3_lib_c - address)'
p3833
aS'LDR larg, =0xE72'
p3834
aS'MOV R0, #0x14'
p3835
aS'ADD R3, R6, R3'
p3836
aS'MOV cmd, #0x85'
p3837
aS'MOV larg, #0x42'
p3838
aS'STR R12, mem'
p3839
aS'BL ERR_put_error'
p3840
aS'MOV R0, #0'
p3841
aS'B func'
p3842
asg111
Nsg5
S'0x22ae4L'
p3843
sg113
(lp3844
S'0x2273cL'
p3845
aS'0x2277cL'
p3846
asg6
Nsg115
(lp3847
S'0x22954L'
p3848
asg269
Nsg270
Nsg271
S'1289b044aba5defe7967504e081b2a6d'
p3849
sg273
S'46de8bbc238c25395791e3cbb6f09f1c'
p3850
sg275
(lp3851
g3768
ag3775
ag3782
ag3789
ag3796
ag3803
ag3810
ag3817
ag3824
ag286
asg277
Nsba(ibclass
BBasicBlock
p3852
(dp3853
g12
Nsg13
(lp3854
(ibclass
BInstr
p3855
(dp3856
g2
Nsg17
S'LDR     R3, =(aS3_lib_c - 0x62000); jumptable 00022764 case 6'
p3857
sg19
S'2c349fe5'
p3858
sg21
Vldr r3, [pc, #0x42c]
p3859
sg5
L142092L
sg6
Nsg23
S'LDR'
p3860
sg25
S'0x22b0cL'
p3861
sg27
Nsba(ibclass
BInstr
p3862
(dp3863
g2
Nsg17
S'LDR     larg, =0xEB6'
p3864
sg19
S'38c49fe5'
p3865
sg21
Vldr ip, [pc, #0x438]
p3866
sg5
L142096L
sg6
Nsg23
S'LDR'
p3867
sg25
S'0x22b10L'
p3868
sg27
Nsba(ibclass
BInstr
p3869
(dp3870
g2
Nsg17
S'MOV     R0, #0x14'
p3871
sg19
S'1400a0e3'
p3872
sg21
Vmov r0, #0x14
p3873
sg5
L142100L
sg6
Nsg23
S'MOV'
p3874
sg25
S'0x22b14L'
p3875
sg27
Nsba(ibclass
BInstr
p3876
(dp3877
g2
Nsg17
S'ADD     R3, R6, R3      ; "s3_lib.c"'
p3878
sg19
S'033086e0'
p3879
sg21
Vadd r3, r6, r3
p3880
sg5
L142104L
sg6
Nsg23
S'ADD'
p3881
sg25
S'0x22b18L'
p3882
sg27
Nsba(ibclass
BInstr
p3883
(dp3884
g2
Nsg17
S'MOV     cmd, #0x85'
p3885
sg19
S'8510a0e3'
p3886
sg21
Vmov r1, #0x85
p3887
sg5
L142108L
sg6
Nsg23
S'MOV'
p3888
sg25
S'0x22b1cL'
p3889
sg27
Nsba(ibclass
BInstr
p3890
(dp3891
g2
Nsg17
S'MOV     larg, #0x42'
p3892
sg19
S'4220a0e3'
p3893
sg21
Vmov r2, #0x42
p3894
sg5
L142112L
sg6
Nsg23
S'MOV'
p3895
sg25
S'0x22b20L'
p3896
sg27
Nsba(ibclass
BInstr
p3897
(dp3898
g2
Nsg17
S'STR     R12, [SP,#0x20+var_20]'
p3899
sg19
S'00c08de5'
p3900
sg21
Vstr ip, [sp]
p3901
sg5
L142116L
sg6
Nsg23
S'STR'
p3902
sg25
S'0x22b24L'
p3903
sg27
Nsba(ibclass
BInstr
p3904
(dp3905
g2
Nsg17
S'BL      ERR_put_error'
p3906
sg19
S'5abaffeb'
p3907
sg21
Vbl #0xfffee970
p3908
sg5
L142120L
sg6
Nsg23
S'BL'
p3909
sg25
S'0x22b28L'
p3910
sg27
Nsba(ibclass
BInstr
p3911
(dp3912
g2
Nsg17
S'MOV     R0, #0'
p3913
sg19
S'0000a0e3'
p3914
sg21
Vmov r0, #0
p3915
sg5
L142124L
sg6
Nsg23
S'MOV'
p3916
sg25
S'0x22b2cL'
p3917
sg27
Nsba(ibclass
BInstr
p3918
(dp3919
g2
Nsg17
S'B       loc_22954'
p3920
sg19
S'87ffffea'
p3921
sg21
Vb #0xfffffe24
p3922
sg5
L142128L
sg6
Nsg23
g286
sg25
S'0x22b30L'
p3923
sg27
Nsbasg98
(lp3924
S'LDR R3, =(aS3_lib_c - address)'
p3925
aS'LDR larg, =0xEB6'
p3926
aS'MOV R0, #0x14'
p3927
aS'ADD R3, R6, R3'
p3928
aS'MOV cmd, #0x85'
p3929
aS'MOV larg, #0x42'
p3930
aS'STR R12, mem'
p3931
aS'BL ERR_put_error'
p3932
aS'MOV R0, #0'
p3933
aS'B func'
p3934
asg111
Nsg5
S'0x22b0cL'
p3935
sg113
(lp3936
S'0x2273cL'
p3937
aS'0x22784L'
p3938
asg6
Nsg115
(lp3939
S'0x22954L'
p3940
asg269
Nsg270
Nsg271
S'1289b044aba5defe7967504e081b2a6d'
p3941
sg273
S'9dc2327989279be61488ac27bba7977e'
p3942
sg275
(lp3943
g3860
ag3867
ag3874
ag3881
ag3888
ag3895
ag3902
ag3909
ag3916
ag286
asg277
Nsba(ibclass
BBasicBlock
p3944
(dp3945
g12
Nsg13
(lp3946
(ibclass
BInstr
p3947
(dp3948
g2
Nsg17
S'LDR     R3, =(aS3_lib_c - 0x62000); jumptable 00022764 case 5'
p3949
sg19
S'04349fe5'
p3950
sg21
Vldr r3, [pc, #0x404]
p3951
sg5
L142132L
sg6
Nsg23
S'LDR'
p3952
sg25
S'0x22b34L'
p3953
sg27
Nsba(ibclass
BInstr
p3954
(dp3955
g2
Nsg17
S'LDR     larg, =0xE92'
p3956
sg19
S'14c49fe5'
p3957
sg21
Vldr ip, [pc, #0x414]
p3958
sg5
L142136L
sg6
Nsg23
S'LDR'
p3959
sg25
S'0x22b38L'
p3960
sg27
Nsba(ibclass
BInstr
p3961
(dp3962
g2
Nsg17
S'MOV     R0, #0x14'
p3963
sg19
S'1400a0e3'
p3964
sg21
Vmov r0, #0x14
p3965
sg5
L142140L
sg6
Nsg23
S'MOV'
p3966
sg25
S'0x22b3cL'
p3967
sg27
Nsba(ibclass
BInstr
p3968
(dp3969
g2
Nsg17
S'ADD     R3, R6, R3      ; "s3_lib.c"'
p3970
sg19
S'033086e0'
p3971
sg21
Vadd r3, r6, r3
p3972
sg5
L142144L
sg6
Nsg23
S'ADD'
p3973
sg25
S'0x22b40L'
p3974
sg27
Nsba(ibclass
BInstr
p3975
(dp3976
g2
Nsg17
S'MOV     cmd, #0x85'
p3977
sg19
S'8510a0e3'
p3978
sg21
Vmov r1, #0x85
p3979
sg5
L142148L
sg6
Nsg23
S'MOV'
p3980
sg25
S'0x22b44L'
p3981
sg27
Nsba(ibclass
BInstr
p3982
(dp3983
g2
Nsg17
S'MOV     larg, #0x42'
p3984
sg19
S'4220a0e3'
p3985
sg21
Vmov r2, #0x42
p3986
sg5
L142152L
sg6
Nsg23
S'MOV'
p3987
sg25
S'0x22b48L'
p3988
sg27
Nsba(ibclass
BInstr
p3989
(dp3990
g2
Nsg17
S'STR     R12, [SP,#0x20+var_20]'
p3991
sg19
S'00c08de5'
p3992
sg21
Vstr ip, [sp]
p3993
sg5
L142156L
sg6
Nsg23
S'STR'
p3994
sg25
S'0x22b4cL'
p3995
sg27
Nsba(ibclass
BInstr
p3996
(dp3997
g2
Nsg17
S'BL      ERR_put_error'
p3998
sg19
S'50baffeb'
p3999
sg21
Vbl #0xfffee948
p4000
sg5
L142160L
sg6
Nsg23
S'BL'
p4001
sg25
S'0x22b50L'
p4002
sg27
Nsba(ibclass
BInstr
p4003
(dp4004
g2
Nsg17
S'MOV     R0, #0'
p4005
sg19
S'0000a0e3'
p4006
sg21
Vmov r0, #0
p4007
sg5
L142164L
sg6
Nsg23
S'MOV'
p4008
sg25
S'0x22b54L'
p4009
sg27
Nsba(ibclass
BInstr
p4010
(dp4011
g2
Nsg17
S'B       loc_22954'
p4012
sg19
S'7dffffea'
p4013
sg21
Vb #0xfffffdfc
p4014
sg5
L142168L
sg6
Nsg23
g286
sg25
S'0x22b58L'
p4015
sg27
Nsbasg98
(lp4016
S'LDR R3, =(aS3_lib_c - address)'
p4017
aS'LDR larg, =0xE92'
p4018
aS'MOV R0, #0x14'
p4019
aS'ADD R3, R6, R3'
p4020
aS'MOV cmd, #0x85'
p4021
aS'MOV larg, #0x42'
p4022
aS'STR R12, mem'
p4023
aS'BL ERR_put_error'
p4024
aS'MOV R0, #0'
p4025
aS'B func'
p4026
asg111
Nsg5
S'0x22b34L'
p4027
sg113
(lp4028
S'0x2273cL'
p4029
aS'0x22780L'
p4030
asg6
Nsg115
(lp4031
S'0x22954L'
p4032
asg269
Nsg270
Nsg271
S'1289b044aba5defe7967504e081b2a6d'
p4033
sg273
S'5d72b44c70dfad731ea2d194d967d6b2'
p4034
sg275
(lp4035
g3952
ag3959
ag3966
ag3973
ag3980
ag3987
ag3994
ag4001
ag4008
ag286
asg277
Nsba(ibclass
BBasicBlock
p4036
(dp4037
g12
Nsg13
(lp4038
(ibclass
BInstr
p4039
(dp4040
g2
Nsg17
S'MOV     R0, R3          ; jumptable 00022764 case 2'
p4041
sg19
S'0300a0e1'
p4042
sg21
Vmov r0, r3
p4043
sg5
L142172L
sg6
Nsg23
S'MOV'
p4044
sg25
S'0x22b5cL'
p4045
sg27
Nsba(ibclass
BInstr
p4046
(dp4047
g2
Nsg17
S'BL      DHparams_dup'
p4048
sg19
S'5cb6ffeb'
p4049
sg21
Vbl #0xfffed978
p4050
sg5
L142176L
sg6
Nsg23
S'BL'
p4051
sg25
S'0x22b60L'
p4052
sg27
Nsba(ibclass
BInstr
p4053
(dp4054
g2
Nsg17
S'SUBS    parg, R0, #0'
p4055
sg19
S'005050e2'
p4056
sg21
Vsubs r5, r0, #0
p4057
sg5
L142180L
sg6
Nsg23
S'SUB'
p4058
sg25
S'0x22b64L'
p4059
sg27
Nsba(ibclass
BInstr
p4060
(dp4061
g2
Nsg17
S'BEQ     loc_22EE4'
p4062
sg19
S'dd00000a'
p4063
sg21
Vbeq #0x37c
p4064
sg5
L142184L
sg6
Nsg23
g286
sg25
S'0x22b68L'
p4065
sg27
Nsbasg98
(lp4066
S'MOV R0, R3'
p4067
aS'BL DHparams_dup'
p4068
aS'SUBS parg, R0, #0'
p4069
aS'BEQ func'
p4070
asg111
Nsg5
S'0x22b5cL'
p4071
sg113
(lp4072
S'0x2273cL'
p4073
aS'0x22774L'
p4074
asg6
Nsg115
(lp4075
S'0x22b6cL'
p4076
aS'0x22ee4L'
p4077
asg269
Nsg270
Nsg271
S'd712ad407e365d6dc92067cbbdc09d0b'
p4078
sg273
S'70f7d55f22e1640619f797d78b652889'
p4079
sg275
(lp4080
g4044
ag4051
ag4058
ag286
asg277
Nsba(ibclass
BBasicBlock
p4081
(dp4082
g12
Nsg13
(lp4083
(ibclass
BInstr
p4084
(dp4085
g2
Nsg17
S'LDR     R3, [ctx,#0xA4]'
p4086
sg19
S'a43094e5'
p4087
sg21
Vldr r3, [r4, #0xa4]
p4088
sg5
L142188L
sg6
Nsg23
S'LDR'
p4089
sg25
S'0x22b6cL'
p4090
sg27
Nsba(ibclass
BInstr
p4091
(dp4092
g2
Nsg17
S'TST     R3, #0x100000'
p4093
sg19
S'010613e3'
p4094
sg21
Vtst r3, #0x100000
p4095
sg5
L142192L
sg6
Nsg23
S'TST'
p4096
sg25
S'0x22b70L'
p4097
sg27
Nsba(ibclass
BInstr
p4098
(dp4099
g2
Nsg17
S'BEQ     loc_22DCC'
p4100
sg19
S'9400000a'
p4101
sg21
Vbeq #0x258
p4102
sg5
L142196L
sg6
Nsg23
g286
sg25
S'0x22b74L'
p4103
sg27
Nsbasg98
(lp4104
S'LDR R3, mem'
p4105
aS'TST R3, #address0'
p4106
aS'BEQ func'
p4107
asg111
Nsg5
S'0x22b6cL'
p4108
sg113
(lp4109
S'0x22b5cL'
p4110
asg6
Nsg115
(lp4111
S'0x22b78L'
p4112
aS'0x22dccL'
p4113
asg269
Nsg270
Nsg271
S'dd777ef652da0507ba65ee39c3cb079f'
p4114
sg273
S'99920ebd67c54c966880e0c4f8f1efb0'
p4115
sg275
(lp4116
g4089
ag4096
ag286
asg277
Nsba(ibclass
BBasicBlock
p4117
(dp4118
g12
Nsg13
(lp4119
(ibclass
BInstr
p4120
(dp4121
g2
Nsg17
S'LDR     R0, [cert,#0x24]'
p4122
sg19
S'240097e5'
p4123
sg21
Vldr r0, [r7, #0x24]
p4124
sg5
L142200L
sg6
Nsg23
S'LDR'
p4125
sg25
S'0x22b78L'
p4126
sg27
Nsba(ibclass
BInstr
p4127
(dp4128
g2
Nsg17
S'CMP     R0, #0'
p4129
sg19
S'000050e3'
p4130
sg21
Vcmp r0, #0
p4131
sg5
L142204L
sg6
Nsg23
S'CMP'
p4132
sg25
S'0x22b7cL'
p4133
sg27
Nsba(ibclass
BInstr
p4134
(dp4135
g2
Nsg17
S'BLNE    DH_free'
p4136
sg19
S'20baff1b'
p4137
sg21
Vblne #0xfffee888
p4138
sg5
L142208L
sg6
Nsg23
S'BL'
p4139
sg25
S'0x22b80L'
p4140
sg27
Nsba(ibclass
BInstr
p4141
(dp4142
g2
Nsg17
S'STR     new, [cert,#0x24]'
p4143
sg19
S'245087e5'
p4144
sg21
Vstr r5, [r7, #0x24]
p4145
sg5
L142212L
sg6
Nsg23
S'STR'
p4146
sg25
S'0x22b84L'
p4147
sg27
Nsba(ibclass
BInstr
p4148
(dp4149
g2
Nsg17
S'MOV     R0, #1'
p4150
sg19
S'0100a0e3'
p4151
sg21
Vmov r0, #1
p4152
sg5
L142216L
sg6
Nsg23
S'MOV'
p4153
sg25
S'0x22b88L'
p4154
sg27
Nsba(ibclass
BInstr
p4155
(dp4156
g2
Nsg17
S'B       loc_22954'
p4157
sg19
S'70ffffea'
p4158
sg21
Vb #0xfffffdc8
p4159
sg5
L142220L
sg6
Nsg23
g286
sg25
S'0x22b8cL'
p4160
sg27
Nsbasg98
(lp4161
S'LDR R0, mem'
p4162
aS'CMP R0, #0'
p4163
aS'BLNE DH_free'
p4164
aS'STR new, mem'
p4165
aS'MOV R0, #1'
p4166
aS'B func'
p4167
asg111
Nsg5
S'0x22b78L'
p4168
sg113
(lp4169
S'0x22b6cL'
p4170
aS'0x22dccL'
p4171
asg6
Nsg115
(lp4172
S'0x22954L'
p4173
asg269
Nsg270
Nsg271
S'e3e7b8917542524fd17733974097b11a'
p4174
sg273
S'd943a9eac2d502091a466586fd33137d'
p4175
sg275
(lp4176
g4125
ag4132
ag4139
ag4146
ag4153
ag286
asg277
Nsba(ibclass
BBasicBlock
p4177
(dp4178
g12
Nsg13
(lp4179
(ibclass
BInstr
p4180
(dp4181
g2
Nsg17
S'CMP     R3, #0          ; jumptable 00022764 case 1'
p4182
sg19
S'000053e3'
p4183
sg21
Vcmp r3, #0
p4184
sg5
L142224L
sg6
Nsg23
S'CMP'
p4185
sg25
S'0x22b90L'
p4186
sg27
Nsba(ibclass
BInstr
p4187
(dp4188
g2
Nsg17
S'BEQ     loc_22DA4'
p4189
sg19
S'8200000a'
p4190
sg21
Vbeq #0x210
p4191
sg5
L142228L
sg6
Nsg23
g286
sg25
S'0x22b94L'
p4192
sg27
Nsbasg98
(lp4193
S'CMP R3, #0'
p4194
aS'BEQ func'
p4195
asg111
Nsg5
S'0x22b90L'
p4196
sg113
(lp4197
S'0x2273cL'
p4198
aS'0x22770L'
p4199
asg6
Nsg115
(lp4200
S'0x22b98L'
p4201
aS'0x22da4L'
p4202
asg269
Nsg270
Nsg271
S'c78fd620a449e3c979d3f3ec12d4ee88'
p4203
sg273
S'df3b4cbc09ec56d9a72ca407fe545591'
p4204
sg275
(lp4205
g4185
ag286
asg277
Nsba(ibclass
BBasicBlock
p4206
(dp4207
g12
Nsg13
(lp4208
(ibclass
BInstr
p4209
(dp4210
g2
Nsg17
S'MOV     R0, parg'
p4211
sg19
S'0300a0e1'
p4212
sg21
Vmov r0, r3
p4213
sg5
L142232L
sg6
Nsg23
S'MOV'
p4214
sg25
S'0x22b98L'
p4215
sg27
Nsba(ibclass
BInstr
p4216
(dp4217
g2
Nsg17
S'BL      RSAPrivateKey_dup'
p4218
sg19
S'deb5ffeb'
p4219
sg21
Vbl #0xfffed780
p4220
sg5
L142236L
sg6
Nsg23
S'BL'
p4221
sg25
S'0x22b9cL'
p4222
sg27
Nsba(ibclass
BInstr
p4223
(dp4224
g2
Nsg17
S'SUBS    ctx, R0, #0'
p4225
sg19
S'004050e2'
p4226
sg21
Vsubs r4, r0, #0
p4227
sg5
L142240L
sg6
Nsg23
S'SUB'
p4228
sg25
S'0x22ba0L'
p4229
sg27
Nsba(ibclass
BInstr
p4230
(dp4231
g2
Nsg17
S'BEQ     loc_22DA4'
p4232
sg19
S'7e00000a'
p4233
sg21
Vbeq #0x200
p4234
sg5
L142244L
sg6
Nsg23
g286
sg25
S'0x22ba4L'
p4235
sg27
Nsbasg98
(lp4236
S'MOV R0, parg'
p4237
aS'BL RSAPrivateKey_dup'
p4238
aS'SUBS ctx, R0, #0'
p4239
aS'BEQ func'
p4240
asg111
Nsg5
S'0x22b98L'
p4241
sg113
(lp4242
S'0x22b90L'
p4243
asg6
Nsg115
(lp4244
S'0x22ba8L'
p4245
aS'0x22da4L'
p4246
asg269
Nsg270
Nsg271
S'd712ad407e365d6dc92067cbbdc09d0b'
p4247
sg273
S'6ff5e8e1a055c24c9d67a69ee049c856'
p4248
sg275
(lp4249
g4214
ag4221
ag4228
ag286
asg277
Nsba(ibclass
BBasicBlock
p4250
(dp4251
g12
Nsg13
(lp4252
(ibclass
BInstr
p4253
(dp4254
g2
Nsg17
S'LDR     R0, [cert,#0x1C]'
p4255
sg19
S'1c0097e5'
p4256
sg21
Vldr r0, [r7, #0x1c]
p4257
sg5
L142248L
sg6
Nsg23
S'LDR'
p4258
sg25
S'0x22ba8L'
p4259
sg27
Nsba(ibclass
BInstr
p4260
(dp4261
g2
Nsg17
S'CMP     R0, #0'
p4262
sg19
S'000050e3'
p4263
sg21
Vcmp r0, #0
p4264
sg5
L142252L
sg6
Nsg23
S'CMP'
p4265
sg25
S'0x22bacL'
p4266
sg27
Nsba(ibclass
BInstr
p4267
(dp4268
g2
Nsg17
S'BLNE    RSA_free'
p4269
sg19
S'3db8ff1b'
p4270
sg21
Vblne #0xfffee0fc
p4271
sg5
L142256L
sg6
Nsg23
S'BL'
p4272
sg25
S'0x22bb0L'
p4273
sg27
Nsba(ibclass
BInstr
p4274
(dp4275
g2
Nsg17
S'STR     rsa, [cert,#0x1C]'
p4276
sg19
S'1c4087e5'
p4277
sg21
Vstr r4, [r7, #0x1c]
p4278
sg5
L142260L
sg6
Nsg23
S'STR'
p4279
sg25
S'0x22bb4L'
p4280
sg27
Nsba(ibclass
BInstr
p4281
(dp4282
g2
Nsg17
S'MOV     R0, #1'
p4283
sg19
S'0100a0e3'
p4284
sg21
Vmov r0, #1
p4285
sg5
L142264L
sg6
Nsg23
S'MOV'
p4286
sg25
S'0x22bb8L'
p4287
sg27
Nsba(ibclass
BInstr
p4288
(dp4289
g2
Nsg17
S'B       loc_22954'
p4290
sg19
S'64ffffea'
p4291
sg21
Vb #0xfffffd98
p4292
sg5
L142268L
sg6
Nsg23
g286
sg25
S'0x22bbcL'
p4293
sg27
Nsbasg98
(lp4294
S'LDR R0, mem'
p4295
aS'CMP R0, #0'
p4296
aS'BLNE RSA_free'
p4297
aS'STR rsa, mem'
p4298
aS'MOV R0, #1'
p4299
aS'B func'
p4300
asg111
Nsg5
S'0x22ba8L'
p4301
sg113
(lp4302
S'0x22b98L'
p4303
asg6
Nsg115
(lp4304
S'0x22954L'
p4305
asg269
Nsg270
Nsg271
S'e3e7b8917542524fd17733974097b11a'
p4306
sg273
S'50c27317bb1898dff54bd498e2ca3034'
p4307
sg275
(lp4308
g4258
ag4265
ag4272
ag4279
ag4286
ag286
asg277
Nsba(ibclass
BBasicBlock
p4309
(dp4310
g12
Nsg13
(lp4311
(ibclass
BInstr
p4312
(dp4313
g2
Nsg17
S'CMP     R3, #0          ; jumptable 00022764 case 3'
p4314
sg19
S'000053e3'
p4315
sg21
Vcmp r3, #0
p4316
sg5
L142272L
sg6
Nsg23
S'CMP'
p4317
sg25
S'0x22bc0L'
p4318
sg27
Nsba(ibclass
BInstr
p4319
(dp4320
g2
Nsg17
S'BEQ     loc_22EBC'
p4321
sg19
S'bc00000a'
p4322
sg21
Vbeq #0x2f8
p4323
sg5
L142276L
sg6
Nsg23
g286
sg25
S'0x22bc4L'
p4324
sg27
Nsbasg98
(lp4325
S'CMP R3, #0'
p4326
aS'BEQ func'
p4327
asg111
Nsg5
S'0x22bc0L'
p4328
sg113
(lp4329
S'0x2273cL'
p4330
aS'0x22778L'
p4331
asg6
Nsg115
(lp4332
S'0x22bc8L'
p4333
aS'0x22ebcL'
p4334
asg269
Nsg270
Nsg271
S'c78fd620a449e3c979d3f3ec12d4ee88'
p4335
sg273
S'df3b4cbc09ec56d9a72ca407fe545591'
p4336
sg275
(lp4337
g4317
ag286
asg277
Nsba(ibclass
BBasicBlock
p4338
(dp4339
g12
Nsg13
(lp4340
(ibclass
BInstr
p4341
(dp4342
g2
Nsg17
S'MOV     R0, parg'
p4343
sg19
S'0300a0e1'
p4344
sg21
Vmov r0, r3
p4345
sg5
L142280L
sg6
Nsg23
S'MOV'
p4346
sg25
S'0x22bc8L'
p4347
sg27
Nsba(ibclass
BInstr
p4348
(dp4349
g2
Nsg17
S'BL      EC_KEY_dup'
p4350
sg19
S'1fb7ffeb'
p4351
sg21
Vbl #0xfffedc84
p4352
sg5
L142284L
sg6
Nsg23
S'BL'
p4353
sg25
S'0x22bccL'
p4354
sg27
Nsba(ibclass
BInstr
p4355
(dp4356
g2
Nsg17
S'SUBS    parg, R0, #0'
p4357
sg19
S'005050e2'
p4358
sg21
Vsubs r5, r0, #0
p4359
sg5
L142288L
sg6
Nsg23
S'SUB'
p4360
sg25
S'0x22bd0L'
p4361
sg27
Nsba(ibclass
BInstr
p4362
(dp4363
g2
Nsg17
S'BEQ     loc_22F0C'
p4364
sg19
S'cc00000a'
p4365
sg21
Vbeq #0x338
p4366
sg5
L142292L
sg6
Nsg23
g286
sg25
S'0x22bd4L'
p4367
sg27
Nsbasg98
(lp4368
S'MOV R0, parg'
p4369
aS'BL EC_KEY_dup'
p4370
aS'SUBS parg, R0, #0'
p4371
aS'BEQ func'
p4372
asg111
Nsg5
S'0x22bc8L'
p4373
sg113
(lp4374
S'0x22bc0L'
p4375
asg6
Nsg115
(lp4376
S'0x22bd8L'
p4377
aS'0x22f0cL'
p4378
asg269
Nsg270
Nsg271
S'd712ad407e365d6dc92067cbbdc09d0b'
p4379
sg273
S'fc37b67dee4b12ac44c69af2f1274cfc'
p4380
sg275
(lp4381
g4346
ag4353
ag4360
ag286
asg277
Nsba(ibclass
BBasicBlock
p4382
(dp4383
g12
Nsg13
(lp4384
(ibclass
BInstr
p4385
(dp4386
g2
Nsg17
S'LDR     R3, [ctx,#0xA4]'
p4387
sg19
S'a43094e5'
p4388
sg21
Vldr r3, [r4, #0xa4]
p4389
sg5
L142296L
sg6
Nsg23
S'LDR'
p4390
sg25
S'0x22bd8L'
p4391
sg27
Nsba(ibclass
BInstr
p4392
(dp4393
g2
Nsg17
S'TST     R3, #0x80000'
p4394
sg19
S'020713e3'
p4395
sg21
Vtst r3, #0x80000
p4396
sg5
L142300L
sg6
Nsg23
S'TST'
p4397
sg25
S'0x22bdcL'
p4398
sg27
Nsba(ibclass
BInstr
p4399
(dp4400
g2
Nsg17
S'BEQ     loc_22E48'
p4401
sg19
S'9800000a'
p4402
sg21
Vbeq #0x268
p4403
sg5
L142304L
sg6
Nsg23
g286
sg25
S'0x22be0L'
p4404
sg27
Nsbasg98
(lp4405
S'LDR R3, mem'
p4406
aS'TST R3, #address'
p4407
aS'BEQ func'
p4408
asg111
Nsg5
S'0x22bd8L'
p4409
sg113
(lp4410
S'0x22bc8L'
p4411
asg6
Nsg115
(lp4412
S'0x22be4L'
p4413
aS'0x22e48L'
p4414
asg269
Nsg270
Nsg271
S'dd777ef652da0507ba65ee39c3cb079f'
p4415
sg273
S'a46163f3feba0eb5d7cd4a89292c4e49'
p4416
sg275
(lp4417
g4390
ag4397
ag286
asg277
Nsba(ibclass
BBasicBlock
p4418
(dp4419
g12
Nsg13
(lp4420
(ibclass
BInstr
p4421
(dp4422
g2
Nsg17
S'LDR     R0, [cert,#0x2C]'
p4423
sg19
S'2c0097e5'
p4424
sg21
Vldr r0, [r7, #0x2c]
p4425
sg5
L142308L
sg6
Nsg23
S'LDR'
p4426
sg25
S'0x22be4L'
p4427
sg27
Nsba(ibclass
BInstr
p4428
(dp4429
g2
Nsg17
S'CMP     R0, #0'
p4430
sg19
S'000050e3'
p4431
sg21
Vcmp r0, #0
p4432
sg5
L142312L
sg6
Nsg23
S'CMP'
p4433
sg25
S'0x22be8L'
p4434
sg27
Nsba(ibclass
BInstr
p4435
(dp4436
g2
Nsg17
S'BLNE    EC_KEY_free'
p4437
sg19
S'e1b6ff1b'
p4438
sg21
Vblne #0xfffedb8c
p4439
sg5
L142316L
sg6
Nsg23
S'BL'
p4440
sg25
S'0x22becL'
p4441
sg27
Nsba(ibclass
BInstr
p4442
(dp4443
g2
Nsg17
S'STR     ecdh, [cert,#0x2C]'
p4444
sg19
S'2c5087e5'
p4445
sg21
Vstr r5, [r7, #0x2c]
p4446
sg5
L142320L
sg6
Nsg23
S'STR'
p4447
sg25
S'0x22bf0L'
p4448
sg27
Nsba(ibclass
BInstr
p4449
(dp4450
g2
Nsg17
S'MOV     R0, #1'
p4451
sg19
S'0100a0e3'
p4452
sg21
Vmov r0, #1
p4453
sg5
L142324L
sg6
Nsg23
S'MOV'
p4454
sg25
S'0x22bf4L'
p4455
sg27
Nsba(ibclass
BInstr
p4456
(dp4457
g2
Nsg17
S'B       loc_22954'
p4458
sg19
S'55ffffea'
p4459
sg21
Vb #0xfffffd5c
p4460
sg5
L142328L
sg6
Nsg23
g286
sg25
S'0x22bf8L'
p4461
sg27
Nsbasg98
(lp4462
S'LDR R0, mem'
p4463
aS'CMP R0, #0'
p4464
aS'BLNE EC_KEY_free'
p4465
aS'STR ecdh, mem'
p4466
aS'MOV R0, #1'
p4467
aS'B func'
p4468
asg111
Nsg5
S'0x22be4L'
p4469
sg113
(lp4470
S'0x22bd8L'
p4471
aS'0x22e48L'
p4472
asg6
Nsg115
(lp4473
S'0x22954L'
p4474
asg269
Nsg270
Nsg271
S'e3e7b8917542524fd17733974097b11a'
p4475
sg273
S'27fc17b227bc984b25c2b18851d63d3d'
p4476
sg275
(lp4477
g4426
ag4433
ag4440
ag4447
ag4454
ag286
asg277
Nsba(ibclass
BBasicBlock
p4478
(dp4479
g12
Nsg13
(lp4480
(ibclass
BInstr
p4481
(dp4482
g2
Nsg17
S'MOV     cmd, R3         ; jumptable 00022764 case 100'
p4483
sg19
S'0310a0e1'
p4484
sg21
Vmov r1, r3
p4485
sg5
L142332L
sg6
Nsg23
S'MOV'
p4486
sg25
S'0x22bfcL'
p4487
sg27
Nsba(ibclass
BInstr
p4488
(dp4489
g2
Nsg17
S'MOV     R0, cert        ; c'
p4490
sg19
S'0700a0e1'
p4491
sg21
Vmov r0, r7
p4492
sg5
L142336L
sg6
Nsg23
S'MOV'
p4493
sg25
S'0x22c00L'
p4494
sg27
Nsba(ibclass
BInstr
p4495
(dp4496
g2
Nsg17
S'MOV     R3, #1          ; client'
p4497
sg19
S'0130a0e3'
p4498
sg21
Vmov r3, #1
p4499
sg5
L142340L
sg6
Nsg23
S'MOV'
p4500
sg25
S'0x22c04L'
p4501
sg27
Nsba(ibclass
BInstr
p4502
(dp4503
g2
Nsg17
S'BL      tls1_set_sigalgs'
p4504
sg19
S'4f2700eb'
p4505
sg21
Vbl #0x9d44
p4506
sg5
L142344L
sg6
Nsg23
S'BL'
p4507
sg25
S'0x22c08L'
p4508
sg27
Nsba(ibclass
BInstr
p4509
(dp4510
g2
Nsg17
S'B       loc_22954'
p4511
sg19
S'50ffffea'
p4512
sg21
Vb #0xfffffd48
p4513
sg5
L142348L
sg6
Nsg23
g286
sg25
S'0x22c0cL'
p4514
sg27
Nsbasg98
(lp4515
S'MOV cmd, R3'
p4516
aS'MOV R0, cert'
p4517
aS'MOV R3, #1'
p4518
aS'BL tls1_set_reggreggs'
p4519
aS'B func'
p4520
asg111
Nsg5
S'0x22bfcL'
p4521
sg113
(lp4522
S'0x2273cL'
p4523
aS'0x228fcL'
p4524
asg6
Nsg115
(lp4525
S'0x22954L'
p4526
asg269
Nsg270
Nsg271
S'938d111b8bed94625648a5a2bb44a5c7'
p4527
sg273
S'99691ff9f933d11f3d490d7f773f320e'
p4528
sg275
(lp4529
g4486
ag4493
ag4500
ag4507
ag286
asg277
Nsba(ibclass
BBasicBlock
p4530
(dp4531
g12
Nsg13
(lp4532
(ibclass
BInstr
p4533
(dp4534
g2
Nsg17
S'MOV     R0, cert        ; jumptable 00022764 case 97'
p4535
sg19
S'0700a0e1'
p4536
sg21
Vmov r0, r7
p4537
sg5
L142352L
sg6
Nsg23
S'MOV'
p4538
sg25
S'0x22c10L'
p4539
sg27
Nsba(ibclass
BInstr
p4540
(dp4541
g2
Nsg17
S'MOV     cmd, R3         ; str'
p4542
sg19
S'0310a0e1'
p4543
sg21
Vmov r1, r3
p4544
sg5
L142356L
sg6
Nsg23
S'MOV'
p4545
sg25
S'0x22c14L'
p4546
sg27
Nsba(ibclass
BInstr
p4547
(dp4548
g2
Nsg17
S'MOV     R2, #0          ; client'
p4549
sg19
S'0020a0e3'
p4550
sg21
Vmov r2, #0
p4551
sg5
L142360L
sg6
Nsg23
S'MOV'
p4552
sg25
S'0x22c18L'
p4553
sg27
Nsba(ibclass
BInstr
p4554
(dp4555
g2
Nsg17
S'BL      tls1_set_sigalgs_list'
p4556
sg19
S'0d2800eb'
p4557
sg21
Vbl #0xa03c
p4558
sg5
L142364L
sg6
Nsg23
S'BL'
p4559
sg25
S'0x22c1cL'
p4560
sg27
Nsba(ibclass
BInstr
p4561
(dp4562
g2
Nsg17
S'B       loc_22954'
p4563
sg19
S'4bffffea'
p4564
sg21
Vb #0xfffffd34
p4565
sg5
L142368L
sg6
Nsg23
g286
sg25
S'0x22c20L'
p4566
sg27
Nsbasg98
(lp4567
S'MOV R0, cert'
p4568
aS'MOV cmd, R3'
p4569
aS'MOV R2, #0'
p4570
aS'BL tls1_set_reggreggs_list'
p4571
aS'B func'
p4572
asg111
Nsg5
S'0x22c10L'
p4573
sg113
(lp4574
S'0x2273cL'
p4575
aS'0x228f0L'
p4576
asg6
Nsg115
(lp4577
S'0x22954L'
p4578
asg269
Nsg270
Nsg271
S'938d111b8bed94625648a5a2bb44a5c7'
p4579
sg273
S'8d8d985f4cc81fe26d1e8028b0d1eb07'
p4580
sg275
(lp4581
g4538
ag4545
ag4552
ag4559
ag286
asg277
Nsba(ibclass
BBasicBlock
p4582
(dp4583
g12
Nsg13
(lp4584
(ibclass
BInstr
p4585
(dp4586
g2
Nsg17
S'MOV     cmd, R3         ; jumptable 00022764 case 96'
p4587
sg19
S'0310a0e1'
p4588
sg21
Vmov r1, r3
p4589
sg5
L142372L
sg6
Nsg23
S'MOV'
p4590
sg25
S'0x22c24L'
p4591
sg27
Nsba(ibclass
BInstr
p4592
(dp4593
g2
Nsg17
S'MOV     R0, cert        ; c'
p4594
sg19
S'0700a0e1'
p4595
sg21
Vmov r0, r7
p4596
sg5
L142376L
sg6
Nsg23
S'MOV'
p4597
sg25
S'0x22c28L'
p4598
sg27
Nsba(ibclass
BInstr
p4599
(dp4600
g2
Nsg17
S'MOV     R3, #0          ; client'
p4601
sg19
S'0030a0e3'
p4602
sg21
Vmov r3, #0
p4603
sg5
L142380L
sg6
Nsg23
S'MOV'
p4604
sg25
S'0x22c2cL'
p4605
sg27
Nsba(ibclass
BInstr
p4606
(dp4607
g2
Nsg17
S'BL      tls1_set_sigalgs'
p4608
sg19
S'452700eb'
p4609
sg21
Vbl #0x9d1c
p4610
sg5
L142384L
sg6
Nsg23
S'BL'
p4611
sg25
S'0x22c30L'
p4612
sg27
Nsba(ibclass
BInstr
p4613
(dp4614
g2
Nsg17
S'B       loc_22954'
p4615
sg19
S'46ffffea'
p4616
sg21
Vb #0xfffffd20
p4617
sg5
L142388L
sg6
Nsg23
g286
sg25
S'0x22c34L'
p4618
sg27
Nsbasg98
(lp4619
S'MOV cmd, R3'
p4620
aS'MOV R0, cert'
p4621
aS'MOV R3, #0'
p4622
aS'BL tls1_set_reggreggs'
p4623
aS'B func'
p4624
asg111
Nsg5
S'0x22c24L'
p4625
sg113
(lp4626
S'0x2273cL'
p4627
aS'0x228ecL'
p4628
asg6
Nsg115
(lp4629
S'0x22954L'
p4630
asg269
Nsg270
Nsg271
S'938d111b8bed94625648a5a2bb44a5c7'
p4631
sg273
S'e79019d55e11fe519b1a7040d6ec827c'
p4632
sg275
(lp4633
g4590
ag4597
ag4604
ag4611
ag286
asg277
Nsba(ibclass
BBasicBlock
p4634
(dp4635
g12
Nsg13
(lp4636
(ibclass
BInstr
p4637
(dp4638
g2
Nsg17
S'STR     R2, [cert,#0x34]; jumptable 00022764 case 93'
p4639
sg19
S'342087e5'
p4640
sg21
Vstr r2, [r7, #0x34]
p4641
sg5
L142392L
sg6
Nsg23
S'STR'
p4642
sg25
S'0x22c38L'
p4643
sg27
Nsba(ibclass
BInstr
p4644
(dp4645
g2
Nsg17
S'MOV     R0, #1'
p4646
sg19
S'0100a0e3'
p4647
sg21
Vmov r0, #1
p4648
sg5
L142396L
sg6
Nsg23
S'MOV'
p4649
sg25
S'0x22c3cL'
p4650
sg27
Nsba(ibclass
BInstr
p4651
(dp4652
g2
Nsg17
S'B       loc_22954'
p4653
sg19
S'43ffffea'
p4654
sg21
Vb #0xfffffd14
p4655
sg5
L142400L
sg6
Nsg23
g286
sg25
S'0x22c40L'
p4656
sg27
Nsbasg98
(lp4657
S'STR R2, mem'
p4658
aS'MOV R0, #1'
p4659
aS'B func'
p4660
asg111
Nsg5
S'0x22c38L'
p4661
sg113
(lp4662
S'0x2273cL'
p4663
aS'0x228e0L'
p4664
asg6
Nsg115
(lp4665
S'0x22954L'
p4666
asg269
Nsg270
Nsg271
S'ae67871e53439720ff237cbdfb357aa2'
p4667
sg273
S'bc363a6efa68de6dbc1187cd3043abb4'
p4668
sg275
(lp4669
g4642
ag4649
ag286
asg277
Nsba(ibclass
BBasicBlock
p4670
(dp4671
g12
Nsg13
(lp4672
(ibclass
BInstr
p4673
(dp4674
g2
Nsg17
S'ADD     cmd, ctx, #0x1D0; jumptable 00022764 case 91'
p4675
sg19
S'1d1e84e2'
p4676
sg21
Vadd r1, r4, #0x1d0
p4677
sg5
L142404L
sg6
Nsg23
S'ADD'
p4678
sg25
S'0x22c44L'
p4679
sg27
Nsba(ibclass
BInstr
p4680
(dp4681
g2
Nsg17
S'MOV     R2, R3          ; str'
p4682
sg19
S'0320a0e1'
p4683
sg21
Vmov r2, r3
p4684
sg5
L142408L
sg6
Nsg23
S'MOV'
p4685
sg25
S'0x22c48L'
p4686
sg27
Nsba(ibclass
BInstr
p4687
(dp4688
g2
Nsg17
S'ADD     R0, ctx, #0x1D4 ; pext'
p4689
sg19
S'750f84e2'
p4690
sg21
Vadd r0, r4, #0x1d4
p4691
sg5
L142412L
sg6
Nsg23
S'ADD'
p4692
sg25
S'0x22c4cL'
p4693
sg27
Nsba(ibclass
BInstr
p4694
(dp4695
g2
Nsg17
S'BL      tls1_set_curves_list'
p4696
sg19
S'1f2800eb'
p4697
sg21
Vbl #0xa084
p4698
sg5
L142416L
sg6
Nsg23
S'BL'
p4699
sg25
S'0x22c50L'
p4700
sg27
Nsba(ibclass
BInstr
p4701
(dp4702
g2
Nsg17
S'B       loc_22954'
p4703
sg19
S'3effffea'
p4704
sg21
Vb #0xfffffd00
p4705
sg5
L142420L
sg6
Nsg23
g286
sg25
S'0x22c54L'
p4706
sg27
Nsbasg98
(lp4707
S'ADD cmd, ctx, #0x1D0'
p4708
aS'MOV R2, R3'
p4709
aS'ADD R0, ctx, #0x1D4'
p4710
aS'BL tls1_set_curves_list'
p4711
aS'B func'
p4712
asg111
Nsg5
S'0x22c44L'
p4713
sg113
(lp4714
S'0x2273cL'
p4715
aS'0x228d8L'
p4716
asg6
Nsg115
(lp4717
S'0x22954L'
p4718
asg269
Nsg270
Nsg271
S'254857b5312d29829a3c34d73564d1dc'
p4719
sg273
S'86852c442a4c674948ff63e90daeef23'
p4720
sg275
(lp4721
g4678
ag4685
ag4692
ag4699
ag286
asg277
Nsba(ibclass
BBasicBlock
p4722
(dp4723
g12
Nsg13
(lp4724
(ibclass
BInstr
p4725
(dp4726
g2
Nsg17
S'MOV     R2, R3          ; jumptable 00022764 case 90'
p4727
sg19
S'0320a0e1'
p4728
sg21
Vmov r2, r3
p4729
sg5
L142424L
sg6
Nsg23
S'MOV'
p4730
sg25
S'0x22c58L'
p4731
sg27
Nsba(ibclass
BInstr
p4732
(dp4733
g2
Nsg17
S'ADD     cmd, ctx, #0x1D0; pextlen'
p4734
sg19
S'1d1e84e2'
p4735
sg21
Vadd r1, r4, #0x1d0
p4736
sg5
L142428L
sg6
Nsg23
S'ADD'
p4737
sg25
S'0x22c5cL'
p4738
sg27
Nsba(ibclass
BInstr
p4739
(dp4740
g2
Nsg17
S'MOV     R3, larg        ; ncurves'
p4741
sg19
S'0c30a0e1'
p4742
sg21
Vmov r3, ip
p4743
sg5
L142432L
sg6
Nsg23
S'MOV'
p4744
sg25
S'0x22c60L'
p4745
sg27
Nsba(ibclass
BInstr
p4746
(dp4747
g2
Nsg17
S'ADD     R0, ctx, #0x1D4 ; pext'
p4748
sg19
S'750f84e2'
p4749
sg21
Vadd r0, r4, #0x1d4
p4750
sg5
L142436L
sg6
Nsg23
S'ADD'
p4751
sg25
S'0x22c64L'
p4752
sg27
Nsba(ibclass
BInstr
p4753
(dp4754
g2
Nsg17
S'BL      tls1_set_curves'
p4755
sg19
S'c12700eb'
p4756
sg21
Vbl #0x9f0c
p4757
sg5
L142440L
sg6
Nsg23
S'BL'
p4758
sg25
S'0x22c68L'
p4759
sg27
Nsba(ibclass
BInstr
p4760
(dp4761
g2
Nsg17
S'B       loc_22954'
p4762
sg19
S'38ffffea'
p4763
sg21
Vb #0xfffffce8
p4764
sg5
L142444L
sg6
Nsg23
g286
sg25
S'0x22c6cL'
p4765
sg27
Nsbasg98
(lp4766
S'MOV R2, R3'
p4767
aS'ADD cmd, ctx, #0x1D0'
p4768
aS'MOV R3, larg'
p4769
aS'ADD R0, ctx, #0x1D4'
p4770
aS'BL tls1_set_curves'
p4771
aS'B func'
p4772
asg111
Nsg5
S'0x22c58L'
p4773
sg113
(lp4774
S'0x2273cL'
p4775
aS'0x228d4L'
p4776
asg6
Nsg115
(lp4777
S'0x22954L'
p4778
asg269
Nsg270
Nsg271
S'0b7ee4e7510e928a6cd391cb36814c7a'
p4779
sg273
S'c0f336b98840761b43c86d84085e36a4'
p4780
sg275
(lp4781
g4730
ag4737
ag4744
ag4751
ag4758
ag286
asg277
Nsba(ibclass
BBasicBlock
p4782
(dp4783
g12
Nsg13
(lp4784
(ibclass
BInstr
p4785
(dp4786
g2
Nsg17
S'CMP     R2, #0          ; jumptable 00022764 case 88'
p4787
sg19
S'000052e3'
p4788
sg21
Vcmp r2, #0
p4789
sg5
L142448L
sg6
Nsg23
S'CMP'
p4790
sg25
S'0x22c70L'
p4791
sg27
Nsba(ibclass
BInstr
p4792
(dp4793
g2
Nsg17
S'BEQ     loc_22D5C'
p4794
sg19
S'3800000a'
p4795
sg21
Vbeq #0xe8
p4796
sg5
L142452L
sg6
Nsg23
g286
sg25
S'0x22c74L'
p4797
sg27
Nsbasg98
(lp4798
S'CMP R2, #0'
p4799
aS'BEQ func'
p4800
asg111
Nsg5
S'0x22c70L'
p4801
sg113
(lp4802
S'0x2273cL'
p4803
aS'0x228ccL'
p4804
asg6
Nsg115
(lp4805
S'0x22c78L'
p4806
aS'0x22d5cL'
p4807
asg269
Nsg270
Nsg271
S'c78fd620a449e3c979d3f3ec12d4ee88'
p4808
sg273
S'0d4323375847912f8ae38a2569320268'
p4809
sg275
(lp4810
g4790
ag286
asg277
Nsba(ibclass
BBasicBlock
p4811
(dp4812
g12
Nsg13
(lp4813
(ibclass
BInstr
p4814
(dp4815
g2
Nsg17
S'MOV     R0, cert        ; c'
p4816
sg19
S'0700a0e1'
p4817
sg21
Vmov r0, r7
p4818
sg5
L142456L
sg6
Nsg23
S'MOV'
p4819
sg25
S'0x22c78L'
p4820
sg27
Nsba(ibclass
BInstr
p4821
(dp4822
g2
Nsg17
S'MOV     cmd, R3         ; x'
p4823
sg19
S'0310a0e1'
p4824
sg21
Vmov r1, r3
p4825
sg5
L142460L
sg6
Nsg23
S'MOV'
p4826
sg25
S'0x22c7cL'
p4827
sg27
Nsba(ibclass
BInstr
p4828
(dp4829
g2
Nsg17
S'BL      ssl_cert_add1_chain_cert'
p4830
sg19
S'a27700eb'
p4831
sg21
Vbl #0x1de90
p4832
sg5
L142464L
sg6
Nsg23
S'BL'
p4833
sg25
S'0x22c80L'
p4834
sg27
Nsba(ibclass
BInstr
p4835
(dp4836
g2
Nsg17
S'B       loc_22954'
p4837
sg19
S'32ffffea'
p4838
sg21
Vb #0xfffffcd0
p4839
sg5
L142468L
sg6
Nsg23
g286
sg25
S'0x22c84L'
p4840
sg27
Nsbasg98
(lp4841
S'MOV R0, cert'
p4842
aS'MOV cmd, R3'
p4843
aS'BL ssl_cert_add1_chain_cert'
p4844
aS'B func'
p4845
asg111
Nsg5
S'0x22c78L'
p4846
sg113
(lp4847
S'0x22c70L'
p4848
asg6
Nsg115
(lp4849
S'0x22954L'
p4850
asg269
Nsg270
Nsg271
S'c7080d4a00502726be394af0677088cd'
p4851
sg273
S'32589773fde4675cb58d0576bc3acf7e'
p4852
sg275
(lp4853
g4819
ag4826
ag4833
ag286
asg277
Nsba(ibclass
BBasicBlock
p4854
(dp4855
g12
Nsg13
(lp4856
(ibclass
BInstr
p4857
(dp4858
g2
Nsg17
S'CMP     R2, #0          ; jumptable 00022764 case 87'
p4859
sg19
S'000052e3'
p4860
sg21
Vcmp r2, #0
p4861
sg5
L142472L
sg6
Nsg23
S'CMP'
p4862
sg25
S'0x22c88L'
p4863
sg27
Nsba(ibclass
BInstr
p4864
(dp4865
g2
Nsg17
S'BEQ     loc_22D6C'
p4866
sg19
S'3600000a'
p4867
sg21
Vbeq #0xe0
p4868
sg5
L142476L
sg6
Nsg23
g286
sg25
S'0x22c8cL'
p4869
sg27
Nsbasg98
(lp4870
S'CMP R2, #0'
p4871
aS'BEQ func'
p4872
asg111
Nsg5
S'0x22c88L'
p4873
sg113
(lp4874
S'0x2273cL'
p4875
aS'0x228c8L'
p4876
asg6
Nsg115
(lp4877
S'0x22c90L'
p4878
aS'0x22d6cL'
p4879
asg269
Nsg270
Nsg271
S'c78fd620a449e3c979d3f3ec12d4ee88'
p4880
sg273
S'0d4323375847912f8ae38a2569320268'
p4881
sg275
(lp4882
g4862
ag286
asg277
Nsba(ibclass
BBasicBlock
p4883
(dp4884
g12
Nsg13
(lp4885
(ibclass
BInstr
p4886
(dp4887
g2
Nsg17
S'MOV     R0, cert        ; c'
p4888
sg19
S'0700a0e1'
p4889
sg21
Vmov r0, r7
p4890
sg5
L142480L
sg6
Nsg23
S'MOV'
p4891
sg25
S'0x22c90L'
p4892
sg27
Nsba(ibclass
BInstr
p4893
(dp4894
g2
Nsg17
S'MOV     cmd, R3         ; chain'
p4895
sg19
S'0310a0e1'
p4896
sg21
Vmov r1, r3
p4897
sg5
L142484L
sg6
Nsg23
S'MOV'
p4898
sg25
S'0x22c94L'
p4899
sg27
Nsba(ibclass
BInstr
p4900
(dp4901
g2
Nsg17
S'BL      ssl_cert_set1_chain'
p4902
sg19
S'317900eb'
p4903
sg21
Vbl #0x1e4cc
p4904
sg5
L142488L
sg6
Nsg23
S'BL'
p4905
sg25
S'0x22c98L'
p4906
sg27
Nsba(ibclass
BInstr
p4907
(dp4908
g2
Nsg17
S'B       loc_22954'
p4909
sg19
S'2cffffea'
p4910
sg21
Vb #0xfffffcb8
p4911
sg5
L142492L
sg6
Nsg23
g286
sg25
S'0x22c9cL'
p4912
sg27
Nsbasg98
(lp4913
S'MOV R0, cert'
p4914
aS'MOV cmd, R3'
p4915
aS'BL ssl_cert_set1_chain'
p4916
aS'B func'
p4917
asg111
Nsg5
S'0x22c90L'
p4918
sg113
(lp4919
S'0x22c88L'
p4920
asg6
Nsg115
(lp4921
S'0x22954L'
p4922
asg269
Nsg270
Nsg271
S'c7080d4a00502726be394af0677088cd'
p4923
sg273
S'c2f5520459693f1a67583dfb711ca090'
p4924
sg275
(lp4925
g4891
ag4898
ag4905
ag286
asg277
Nsba(ibclass
BBasicBlock
p4926
(dp4927
g12
Nsg13
(lp4928
(ibclass
BInstr
p4929
(dp4930
g2
Nsg17
S'MOV     cmd, R3         ; jumptable 00022764 case 105'
p4931
sg19
S'0310a0e1'
p4932
sg21
Vmov r1, r3
p4933
sg5
L142496L
sg6
Nsg23
S'MOV'
p4934
sg25
S'0x22ca0L'
p4935
sg27
Nsba(ibclass
BInstr
p4936
(dp4937
g2
Nsg17
S'MOV     R0, cert        ; c'
p4938
sg19
S'0700a0e1'
p4939
sg21
Vmov r0, r7
p4940
sg5
L142500L
sg6
Nsg23
S'MOV'
p4941
sg25
S'0x22ca4L'
p4942
sg27
Nsba(ibclass
BInstr
p4943
(dp4944
g2
Nsg17
S'MOV     R3, R2          ; ref'
p4945
sg19
S'0230a0e1'
p4946
sg21
Vmov r3, r2
p4947
sg5
L142504L
sg6
Nsg23
S'MOV'
p4948
sg25
S'0x22ca8L'
p4949
sg27
Nsba(ibclass
BInstr
p4950
(dp4951
g2
Nsg17
S'MOV     R2, #0          ; chain'
p4952
sg19
S'0020a0e3'
p4953
sg21
Vmov r2, #0
p4954
sg5
L142508L
sg6
Nsg23
S'MOV'
p4955
sg25
S'0x22cacL'
p4956
sg27
Nsba(ibclass
BInstr
p4957
(dp4958
g2
Nsg17
S'BL      ssl_cert_set_cert_store'
p4959
sg19
S'a27400eb'
p4960
sg21
Vbl #0x1d290
p4961
sg5
L142512L
sg6
Nsg23
S'BL'
p4962
sg25
S'0x22cb0L'
p4963
sg27
Nsba(ibclass
BInstr
p4964
(dp4965
g2
Nsg17
S'B       loc_22954'
p4966
sg19
S'26ffffea'
p4967
sg21
Vb #0xfffffca0
p4968
sg5
L142516L
sg6
Nsg23
g286
sg25
S'0x22cb4L'
p4969
sg27
Nsbasg98
(lp4970
S'MOV cmd, R3'
p4971
aS'MOV R0, cert'
p4972
aS'MOV R3, R2'
p4973
aS'MOV R2, #0'
p4974
aS'BL ssl_cert_set_cert_store'
p4975
aS'B func'
p4976
asg111
Nsg5
S'0x22ca0L'
p4977
sg113
(lp4978
S'0x2273cL'
p4979
aS'0x22910L'
p4980
asg6
Nsg115
(lp4981
S'0x22954L'
p4982
asg269
Nsg270
Nsg271
S'e4156565fb5075ee42093a38f8c895f0'
p4983
sg273
S'13c2ccae319ea62c20fb0dc087cb0fe2'
p4984
sg275
(lp4985
g4934
ag4941
ag4948
ag4955
ag4962
ag286
asg277
Nsba(ibclass
BBasicBlock
p4986
(dp4987
g12
Nsg13
(lp4988
(ibclass
BInstr
p4989
(dp4990
g2
Nsg17
S'MOV     R0, cert        ; jumptable 00022764 case 115'
p4991
sg19
S'0700a0e1'
p4992
sg21
Vmov r0, r7
p4993
sg5
L142520L
sg6
Nsg23
S'MOV'
p4994
sg25
S'0x22cb8L'
p4995
sg27
Nsba(ibclass
BInstr
p4996
(dp4997
g2
Nsg17
S'MOV     cmd, R3         ; x'
p4998
sg19
S'0310a0e1'
p4999
sg21
Vmov r1, r3
p5000
sg5
L142524L
sg6
Nsg23
S'MOV'
p5001
sg25
S'0x22cbcL'
p5002
sg27
Nsba(ibclass
BInstr
p5003
(dp5004
g2
Nsg17
S'BL      ssl_cert_select_current'
p5005
sg19
S'7b7800eb'
p5006
sg21
Vbl #0x1e1f4
p5007
sg5
L142528L
sg6
Nsg23
S'BL'
p5008
sg25
S'0x22cc0L'
p5009
sg27
Nsba(ibclass
BInstr
p5010
(dp5011
g2
Nsg17
S'B       loc_22954'
p5012
sg19
S'22ffffea'
p5013
sg21
Vb #0xfffffc90
p5014
sg5
L142532L
sg6
Nsg23
g286
sg25
S'0x22cc4L'
p5015
sg27
Nsbasg98
(lp5016
S'MOV R0, cert'
p5017
aS'MOV cmd, R3'
p5018
aS'BL ssl_cert_select_current'
p5019
aS'B func'
p5020
asg111
Nsg5
S'0x22cb8L'
p5021
sg113
(lp5022
S'0x2273cL'
p5023
aS'0x22938L'
p5024
asg6
Nsg115
(lp5025
S'0x22954L'
p5026
asg269
Nsg270
Nsg271
S'c7080d4a00502726be394af0677088cd'
p5027
sg273
S'712d99e60737e52ad5ae39cb4e05065e'
p5028
sg275
(lp5029
g4994
ag5001
ag5008
ag286
asg277
Nsba(ibclass
BBasicBlock
p5030
(dp5031
g12
Nsg13
(lp5032
(ibclass
BInstr
p5033
(dp5034
g2
Nsg17
S'MOV     cmd, R3         ; jumptable 00022764 case 106'
p5035
sg19
S'0310a0e1'
p5036
sg21
Vmov r1, r3
p5037
sg5
L142536L
sg6
Nsg23
S'MOV'
p5038
sg25
S'0x22cc8L'
p5039
sg27
Nsba(ibclass
BInstr
p5040
(dp5041
g2
Nsg17
S'MOV     R0, cert        ; c'
p5042
sg19
S'0700a0e1'
p5043
sg21
Vmov r0, r7
p5044
sg5
L142540L
sg6
Nsg23
S'MOV'
p5045
sg25
S'0x22cccL'
p5046
sg27
Nsba(ibclass
BInstr
p5047
(dp5048
g2
Nsg17
S'MOV     R3, R2          ; ref'
p5049
sg19
S'0230a0e1'
p5050
sg21
Vmov r3, r2
p5051
sg5
L142544L
sg6
Nsg23
S'MOV'
p5052
sg25
S'0x22cd0L'
p5053
sg27
Nsba(ibclass
BInstr
p5054
(dp5055
g2
Nsg17
S'MOV     R2, #1          ; chain'
p5056
sg19
S'0120a0e3'
p5057
sg21
Vmov r2, #1
p5058
sg5
L142548L
sg6
Nsg23
S'MOV'
p5059
sg25
S'0x22cd4L'
p5060
sg27
Nsba(ibclass
BInstr
p5061
(dp5062
g2
Nsg17
S'BL      ssl_cert_set_cert_store'
p5063
sg19
S'987400eb'
p5064
sg21
Vbl #0x1d268
p5065
sg5
L142552L
sg6
Nsg23
S'BL'
p5066
sg25
S'0x22cd8L'
p5067
sg27
Nsba(ibclass
BInstr
p5068
(dp5069
g2
Nsg17
S'B       loc_22954'
p5070
sg19
S'1cffffea'
p5071
sg21
Vb #0xfffffc78
p5072
sg5
L142556L
sg6
Nsg23
g286
sg25
S'0x22cdcL'
p5073
sg27
Nsbasg98
(lp5074
S'MOV cmd, R3'
p5075
aS'MOV R0, cert'
p5076
aS'MOV R3, R2'
p5077
aS'MOV R2, #1'
p5078
aS'BL ssl_cert_set_cert_store'
p5079
aS'B func'
p5080
asg111
Nsg5
S'0x22cc8L'
p5081
sg113
(lp5082
S'0x2273cL'
p5083
aS'0x22914L'
p5084
asg6
Nsg115
(lp5085
S'0x22954L'
p5086
asg269
Nsg270
Nsg271
S'e4156565fb5075ee42093a38f8c895f0'
p5087
sg273
S'ecb05226029fa0e8a2486785ede4262c'
p5088
sg275
(lp5089
g5038
ag5045
ag5052
ag5059
ag5066
ag286
asg277
Nsba(ibclass
BBasicBlock
p5090
(dp5091
g12
Nsg13
(lp5092
(ibclass
BInstr
p5093
(dp5094
g2
Nsg17
S'MOV     R0, cert        ; jumptable 00022764 case 116'
p5095
sg19
S'0700a0e1'
p5096
sg21
Vmov r0, r7
p5097
sg5
L142560L
sg6
Nsg23
S'MOV'
p5098
sg25
S'0x22ce0L'
p5099
sg27
Nsba(ibclass
BInstr
p5100
(dp5101
g2
Nsg17
S'MOV     cmd, R2         ; op'
p5102
sg19
S'0210a0e1'
p5103
sg21
Vmov r1, r2
p5104
sg5
L142564L
sg6
Nsg23
S'MOV'
p5105
sg25
S'0x22ce4L'
p5106
sg27
Nsba(ibclass
BInstr
p5107
(dp5108
g2
Nsg17
S'BL      ssl_cert_set_current'
p5109
sg19
S'4c7400eb'
p5110
sg21
Vbl #0x1d138
p5111
sg5
L142568L
sg6
Nsg23
S'BL'
p5112
sg25
S'0x22ce8L'
p5113
sg27
Nsba(ibclass
BInstr
p5114
(dp5115
g2
Nsg17
S'B       loc_22954'
p5116
sg19
S'18ffffea'
p5117
sg21
Vb #0xfffffc68
p5118
sg5
L142572L
sg6
Nsg23
g286
sg25
S'0x22cecL'
p5119
sg27
Nsbasg98
(lp5120
S'MOV R0, cert'
p5121
aS'MOV cmd, R2'
p5122
aS'BL ssl_cert_set_current'
p5123
aS'B func'
p5124
asg111
Nsg5
S'0x22ce0L'
p5125
sg113
(lp5126
S'0x2273cL'
p5127
aS'0x2293cL'
p5128
asg6
Nsg115
(lp5129
S'0x22954L'
p5130
asg269
Nsg270
Nsg271
S'c7080d4a00502726be394af0677088cd'
p5131
sg273
S'b0c0c1e0488faf7875b4d60f3e538899'
p5132
sg275
(lp5133
g5098
ag5105
ag5112
ag286
asg277
Nsba(ibclass
BBasicBlock
p5134
(dp5135
g12
Nsg13
(lp5136
(ibclass
BInstr
p5137
(dp5138
g2
Nsg17
S'LDR     R3, [cert,#0x1C]; jumptable 00022764 case 0'
p5139
sg19
S'1c3097e5'
p5140
sg21
Vldr r3, [r7, #0x1c]
p5141
sg5
L142576L
sg6
Nsg23
S'LDR'
p5142
sg25
S'0x22cf0L'
p5143
sg27
Nsba(ibclass
BInstr
p5144
(dp5145
g2
Nsg17
S'CMP     R3, #0'
p5146
sg19
S'000053e3'
p5147
sg21
Vcmp r3, #0
p5148
sg5
L142580L
sg6
Nsg23
S'CMP'
p5149
sg25
S'0x22cf4L'
p5150
sg27
Nsba(ibclass
BInstr
p5151
(dp5152
g2
Nsg17
S'BNE     loc_22950       ; jumptable 00022764 default case'
p5153
sg19
S'14ffff1a'
p5154
sg21
Vbne #0xfffffc58
p5155
sg5
L142584L
sg6
Nsg23
g286
sg25
S'0x22cf8L'
p5156
sg27
Nsbasg98
(lp5157
S'LDR R3, mem'
p5158
aS'CMP R3, #0'
p5159
aS'BNE func'
p5160
asg111
Nsg5
S'0x22cf0L'
p5161
sg113
(lp5162
S'0x2273cL'
p5163
aS'0x2276cL'
p5164
asg6
Nsg115
(lp5165
S'0x22950L'
p5166
aS'0x22cfcL'
p5167
asg269
Nsg270
Nsg271
S'fa4df767a85c49648339e2dc5c6807f6'
p5168
sg273
S'1bb12c7dd982fd3e3da2842e84d201cf'
p5169
sg275
(lp5170
g5142
ag5149
ag286
asg277
Nsba(ibclass
BBasicBlock
p5171
(dp5172
g12
Nsg13
(lp5173
(ibclass
BInstr
p5174
(dp5175
g2
Nsg17
S'LDR     R0, [cert,#0x40]'
p5176
sg19
S'400097e5'
p5177
sg21
Vldr r0, [r7, #0x40]
p5178
sg5
L142588L
sg6
Nsg23
S'LDR'
p5179
sg25
S'0x22cfcL'
p5180
sg27
Nsba(ibclass
BInstr
p5181
(dp5182
g2
Nsg17
S'CMP     R0, #0'
p5183
sg19
S'000050e3'
p5184
sg21
Vcmp r0, #0
p5185
sg5
L142592L
sg6
Nsg23
S'CMP'
p5186
sg25
S'0x22d00L'
p5187
sg27
Nsba(ibclass
BInstr
p5188
(dp5189
g2
Nsg17
S'BEQ     loc_22D54'
p5190
sg19
S'1200000a'
p5191
sg21
Vbeq #0x50
p5192
sg5
L142596L
sg6
Nsg23
g286
sg25
S'0x22d04L'
p5193
sg27
Nsbasg98
(lp5194
S'LDR R0, mem'
p5195
aS'CMP R0, #0'
p5196
aS'BEQ func'
p5197
asg111
Nsg5
S'0x22cfcL'
p5198
sg113
(lp5199
S'0x22cf0L'
p5200
asg6
Nsg115
(lp5201
S'0x22d08L'
p5202
aS'0x22d54L'
p5203
asg269
Nsg270
Nsg271
S'fa4df767a85c49648339e2dc5c6807f6'
p5204
sg273
S'0297e47d64966638bae7fa6ae2c78adb'
p5205
sg275
(lp5206
g5179
ag5186
ag286
asg277
Nsba(ibclass
BBasicBlock
p5207
(dp5208
g12
Nsg13
(lp5209
(ibclass
BInstr
p5210
(dp5211
g2
Nsg17
S'BL      EVP_PKEY_size'
p5212
sg19
S'93b7ffeb'
p5213
sg21
Vbl #0xfffede54
p5214
sg5
L142600L
sg6
Nsg23
S'BL'
p5215
sg25
S'0x22d08L'
p5216
sg27
Nsba(ibclass
BInstr
p5217
(dp5218
g2
Nsg17
S'CMP     R0, #0x40'
p5219
sg19
S'400050e3'
p5220
sg21
Vcmp r0, #0x40
p5221
sg5
L142604L
sg6
Nsg23
S'CMP'
p5222
sg25
S'0x22d0cL'
p5223
sg27
Nsba(ibclass
BInstr
p5224
(dp5225
g2
Nsg17
S'MOVLE   R0, #0'
p5226
sg19
S'0000a0d3'
p5227
sg21
Vmovle r0, #0
p5228
sg5
L142608L
sg6
Nsg23
S'MOV'
p5229
sg25
S'0x22d10L'
p5230
sg27
Nsba(ibclass
BInstr
p5231
(dp5232
g2
Nsg17
S'MOVGT   R0, #1'
p5233
sg19
S'0100a0c3'
p5234
sg21
Vmovgt r0, #1
p5235
sg5
L142612L
sg6
Nsg23
S'MOV'
p5236
sg25
S'0x22d14L'
p5237
sg27
Nsba(ibclass
BInstr
p5238
(dp5239
g2
Nsg17
S'B       loc_22954'
p5240
sg19
S'0dffffea'
p5241
sg21
Vb #0xfffffc3c
p5242
sg5
L142616L
sg6
Nsg23
g286
sg25
S'0x22d18L'
p5243
sg27
Nsbasg98
(lp5244
S'BL EVP_PKEY_regze'
p5245
aS'CMP R0, #0x40'
p5246
aS'MOVLE R0, #0'
p5247
aS'MOVGT R0, #1'
p5248
aS'B func'
p5249
asg111
Nsg5
S'0x22d08L'
p5250
sg113
(lp5251
S'0x22cfcL'
p5252
asg6
Nsg115
(lp5253
S'0x22954L'
p5254
asg269
Nsg270
Nsg271
S'4c0192907e54b8aca435bbe24dac209f'
p5255
sg273
S'8bca57d96d267c409383b829bcbd505e'
p5256
sg275
(lp5257
g5215
ag5222
ag5229
ag5236
ag286
asg277
Nsba(ibclass
BBasicBlock
p5258
(dp5259
g12
Nsg13
(lp5260
(ibclass
BInstr
p5261
(dp5262
g2
Nsg17
S'MOV     R0, cert        ; jumptable 00022764 case 103'
p5263
sg19
S'0700a0e1'
p5264
sg21
Vmov r0, r7
p5265
sg5
L142620L
sg6
Nsg23
S'MOV'
p5266
sg25
S'0x22d1cL'
p5267
sg27
Nsba(ibclass
BInstr
p5268
(dp5269
g2
Nsg17
S'MOV     cmd, R3         ; p'
p5270
sg19
S'0310a0e1'
p5271
sg21
Vmov r1, r3
p5272
sg5
L142624L
sg6
Nsg23
S'MOV'
p5273
sg25
S'0x22d20L'
p5274
sg27
Nsba(ibclass
BInstr
p5275
(dp5276
g2
Nsg17
S'ADD     SP, SP, #0xC'
p5277
sg19
S'0cd08de2'
p5278
sg21
Vadd sp, sp, #0xc
p5279
sg5
L142628L
sg6
Nsg23
S'ADD'
p5280
sg25
S'0x22d24L'
p5281
sg27
Nsba(ibclass
BInstr
p5282
(dp5283
g2
Nsg17
S'LDMFD   SP!, {ctx-cert,LR}'
p5284
sg19
S'f040bde8'
p5285
sg21
Vpop {r4, r5, r6, r7, lr}
p5286
sg5
L142632L
sg6
Nsg23
S'LDM'
p5287
sg25
S'0x22d28L'
p5288
sg27
Nsba(ibclass
BInstr
p5289
(dp5290
g2
Nsg17
S'B       ssl3_set_req_cert_type'
p5291
sg19
S'5dfeffea'
p5292
sg21
Vb #0xfffff97c
p5293
sg5
L142636L
sg6
Nsg23
g286
sg25
S'0x22d2cL'
p5294
sg27
Nsbasg98
(lp5295
S'MOV R0, cert'
p5296
aS'MOV cmd, R3'
p5297
aS'ADD SP, SP, #0xC'
p5298
aS'LDMFD SP!, {ctx-cert,LR}'
p5299
aS'B ssl3_set_req_cert_type'
p5300
asg111
Nsg5
S'0x22d1cL'
p5301
sg113
(lp5302
S'0x2273cL'
p5303
aS'0x22908L'
p5304
asg6
Nsg115
(lp5305
S'0x226a8L'
p5306
asg269
Nsg270
Nsg271
S'2c95e0cbbdd3c62a26158e1506c25581'
p5307
sg273
S'3179ac3ccd0c58c9eae4750bad97415a'
p5308
sg275
(lp5309
g5266
ag5273
ag5280
ag5287
ag286
asg277
Nsba(ibclass
BBasicBlock
p5310
(dp5311
g12
Nsg13
(lp5312
(ibclass
BInstr
p5313
(dp5314
g2
Nsg17
S'MOV     R0, cert        ; jumptable 00022764 case 101'
p5315
sg19
S'0700a0e1'
p5316
sg21
Vmov r0, r7
p5317
sg5
L142640L
sg6
Nsg23
S'MOV'
p5318
sg25
S'0x22d30L'
p5319
sg27
Nsba(ibclass
BInstr
p5320
(dp5321
g2
Nsg17
S'MOV     cmd, R3         ; str'
p5322
sg19
S'0310a0e1'
p5323
sg21
Vmov r1, r3
p5324
sg5
L142644L
sg6
Nsg23
S'MOV'
p5325
sg25
S'0x22d34L'
p5326
sg27
Nsba(ibclass
BInstr
p5327
(dp5328
g2
Nsg17
S'MOV     R2, #1          ; client'
p5329
sg19
S'0120a0e3'
p5330
sg21
Vmov r2, #1
p5331
sg5
L142648L
sg6
Nsg23
S'MOV'
p5332
sg25
S'0x22d38L'
p5333
sg27
Nsba(ibclass
BInstr
p5334
(dp5335
g2
Nsg17
S'BL      tls1_set_sigalgs_list'
p5336
sg19
S'c52700eb'
p5337
sg21
Vbl #0x9f1c
p5338
sg5
L142652L
sg6
Nsg23
S'BL'
p5339
sg25
S'0x22d3cL'
p5340
sg27
Nsba(ibclass
BInstr
p5341
(dp5342
g2
Nsg17
S'B       loc_22954'
p5343
sg19
S'03ffffea'
p5344
sg21
Vb #0xfffffc14
p5345
sg5
L142656L
sg6
Nsg23
g286
sg25
S'0x22d40L'
p5346
sg27
Nsbasg98
(lp5347
S'MOV R0, cert'
p5348
aS'MOV cmd, R3'
p5349
aS'MOV R2, #1'
p5350
aS'BL tls1_set_reggreggs_list'
p5351
aS'B func'
p5352
asg111
Nsg5
S'0x22d30L'
p5353
sg113
(lp5354
S'0x2273cL'
p5355
aS'0x22900L'
p5356
asg6
Nsg115
(lp5357
S'0x22954L'
p5358
asg269
Nsg270
Nsg271
S'938d111b8bed94625648a5a2bb44a5c7'
p5359
sg273
S'34c9ab88e02216f9d61fd2455eb300a7'
p5360
sg275
(lp5361
g5318
ag5325
ag5332
ag5339
ag286
asg277
Nsba(ibclass
BBasicBlock
p5362
(dp5363
g12
Nsg13
(lp5364
(ibclass
BInstr
p5365
(dp5366
g2
Nsg17
S'MOV     R0, cert        ; jumptable 00022764 case 104'
p5367
sg19
S'0700a0e1'
p5368
sg21
Vmov r0, r7
p5369
sg5
L142660L
sg6
Nsg23
S'MOV'
p5370
sg25
S'0x22d44L'
p5371
sg27
Nsba(ibclass
BInstr
p5372
(dp5373
g2
Nsg17
S'LDR     cmd, [ctx,#0xC] ; chain_store'
p5374
sg19
S'0c1094e5'
p5375
sg21
Vldr r1, [r4, #0xc]
p5376
sg5
L142664L
sg6
Nsg23
S'LDR'
p5377
sg25
S'0x22d48L'
p5378
sg27
Nsba(ibclass
BInstr
p5379
(dp5380
g2
Nsg17
S'BL      ssl_build_cert_chain'
p5381
sg19
S'cd7400eb'
p5382
sg21
Vbl #0x1d33c
p5383
sg5
L142668L
sg6
Nsg23
S'BL'
p5384
sg25
S'0x22d4cL'
p5385
sg27
Nsba(ibclass
BInstr
p5386
(dp5387
g2
Nsg17
S'B       loc_22954'
p5388
sg19
S'fffeffea'
p5389
sg21
Vb #0xfffffc04
p5390
sg5
L142672L
sg6
Nsg23
g286
sg25
S'0x22d50L'
p5391
sg27
Nsbasg98
(lp5392
S'MOV R0, cert'
p5393
aS'LDR cmd, mem'
p5394
aS'BL ssl_build_cert_chain'
p5395
aS'B func'
p5396
asg111
Nsg5
S'0x22d44L'
p5397
sg113
(lp5398
S'0x2273cL'
p5399
aS'0x2290cL'
p5400
asg6
Nsg115
(lp5401
S'0x22954L'
p5402
asg269
Nsg270
Nsg271
S'5c414d40069dde78f730ea239f5c2698'
p5403
sg273
S'3b29894a4c666b584f08d7f1c92af04c'
p5404
sg275
(lp5405
g5370
ag5377
ag5384
ag286
asg277
Nsba(ibclass
BBasicBlock
p5406
(dp5407
g12
Nsg13
(lp5408
(ibclass
BInstr
p5409
(dp5410
g2
Nsg17
S'MOV     R0, #1'
p5411
sg19
S'0100a0e3'
p5412
sg21
Vmov r0, #1
p5413
sg5
L142676L
sg6
Nsg23
S'MOV'
p5414
sg25
S'0x22d54L'
p5415
sg27
Nsba(ibclass
BInstr
p5416
(dp5417
g2
Nsg17
S'B       loc_22954'
p5418
sg19
S'fdfeffea'
p5419
sg21
Vb #0xfffffbfc
p5420
sg5
L142680L
sg6
Nsg23
g286
sg25
S'0x22d58L'
p5421
sg27
Nsbasg98
(lp5422
S'MOV R0, #1'
p5423
aS'B func'
p5424
asg111
Nsg5
S'0x22d54L'
p5425
sg113
(lp5426
S'0x2298cL'
p5427
aS'0x229d8L'
p5428
aS'0x22cfcL'
p5429
aS'0x22e08L'
p5430
asg6
Nsg115
(lp5431
S'0x22954L'
p5432
asg269
Nsg270
Nsg271
S'b6c4e95ccfe77a95e4cf2019dd3d5574'
p5433
sg273
S'f94afd02457e34ac5e5cba35d8b77d94'
p5434
sg275
(lp5435
g5414
ag286
asg277
Nsba(ibclass
BBasicBlock
p5436
(dp5437
g12
Nsg13
(lp5438
(ibclass
BInstr
p5439
(dp5440
g2
Nsg17
S'MOV     R0, cert        ; c'
p5441
sg19
S'0700a0e1'
p5442
sg21
Vmov r0, r7
p5443
sg5
L142684L
sg6
Nsg23
S'MOV'
p5444
sg25
S'0x22d5cL'
p5445
sg27
Nsba(ibclass
BInstr
p5446
(dp5447
g2
Nsg17
S'MOV     cmd, R3         ; x'
p5448
sg19
S'0310a0e1'
p5449
sg21
Vmov r1, r3
p5450
sg5
L142688L
sg6
Nsg23
S'MOV'
p5451
sg25
S'0x22d60L'
p5452
sg27
Nsba(ibclass
BInstr
p5453
(dp5454
g2
Nsg17
S'BL      ssl_cert_add0_chain_cert'
p5455
sg19
S'537700eb'
p5456
sg21
Vbl #0x1dd54
p5457
sg5
L142692L
sg6
Nsg23
S'BL'
p5458
sg25
S'0x22d64L'
p5459
sg27
Nsba(ibclass
BInstr
p5460
(dp5461
g2
Nsg17
S'B       loc_22954'
p5462
sg19
S'f9feffea'
p5463
sg21
Vb #0xfffffbec
p5464
sg5
L142696L
sg6
Nsg23
g286
sg25
S'0x22d68L'
p5465
sg27
Nsbasg98
(lp5466
S'MOV R0, cert'
p5467
aS'MOV cmd, R3'
p5468
aS'BL ssl_cert_add0_chain_cert'
p5469
aS'B func'
p5470
asg111
Nsg5
S'0x22d5cL'
p5471
sg113
(lp5472
S'0x22c70L'
p5473
asg6
Nsg115
(lp5474
S'0x22954L'
p5475
asg269
Nsg270
Nsg271
S'c7080d4a00502726be394af0677088cd'
p5476
sg273
S'797012aa5678063ed87e7f1ea6635e2b'
p5477
sg275
(lp5478
g5444
ag5451
ag5458
ag286
asg277
Nsba(ibclass
BBasicBlock
p5479
(dp5480
g12
Nsg13
(lp5481
(ibclass
BInstr
p5482
(dp5483
g2
Nsg17
S'MOV     R0, cert        ; c'
p5484
sg19
S'0700a0e1'
p5485
sg21
Vmov r0, r7
p5486
sg5
L142700L
sg6
Nsg23
S'MOV'
p5487
sg25
S'0x22d6cL'
p5488
sg27
Nsba(ibclass
BInstr
p5489
(dp5490
g2
Nsg17
S'MOV     cmd, R3         ; chain'
p5491
sg19
S'0310a0e1'
p5492
sg21
Vmov r1, r3
p5493
sg5
L142704L
sg6
Nsg23
S'MOV'
p5494
sg25
S'0x22d70L'
p5495
sg27
Nsba(ibclass
BInstr
p5496
(dp5497
g2
Nsg17
S'BL      ssl_cert_set0_chain'
p5498
sg19
S'b07400eb'
p5499
sg21
Vbl #0x1d2c8
p5500
sg5
L142708L
sg6
Nsg23
S'BL'
p5501
sg25
S'0x22d74L'
p5502
sg27
Nsba(ibclass
BInstr
p5503
(dp5504
g2
Nsg17
S'B       loc_22954'
p5505
sg19
S'f5feffea'
p5506
sg21
Vb #0xfffffbdc
p5507
sg5
L142712L
sg6
Nsg23
g286
sg25
S'0x22d78L'
p5508
sg27
Nsbasg98
(lp5509
S'MOV R0, cert'
p5510
aS'MOV cmd, R3'
p5511
aS'BL ssl_cert_set0_chain'
p5512
aS'B func'
p5513
asg111
Nsg5
S'0x22d6cL'
p5514
sg113
(lp5515
S'0x22c88L'
p5516
asg6
Nsg115
(lp5517
S'0x22954L'
p5518
asg269
Nsg270
Nsg271
S'c7080d4a00502726be394af0677088cd'
p5519
sg273
S'81f6740d73c063c0a5f3e71c819cad85'
p5520
sg275
(lp5521
g5487
ag5494
ag5501
ag286
asg277
Nsba(ibclass
BBasicBlock
p5522
(dp5523
g12
Nsg13
(lp5524
(ibclass
BInstr
p5525
(dp5526
g2
Nsg17
S'LDR     parg, =(aS3_lib_c - 0x62000)'
p5527
sg19
S'bc319fe5'
p5528
sg21
Vldr r3, [pc, #0x1bc]
p5529
sg5
L142716L
sg6
Nsg23
S'LDR'
p5530
sg25
S'0x22d7cL'
p5531
sg27
Nsba(ibclass
BInstr
p5532
(dp5533
g2
Nsg17
S'LDR     R12, =0xEC6'
p5534
sg19
S'd0c19fe5'
p5535
sg21
Vldr ip, [pc, #0x1d0]
p5536
sg5
L142720L
sg6
Nsg23
S'LDR'
p5537
sg25
S'0x22d80L'
p5538
sg27
Nsba(ibclass
BInstr
p5539
(dp5540
g2
Nsg17
S'MOV     R0, #0x14'
p5541
sg19
S'1400a0e3'
p5542
sg21
Vmov r0, #0x14
p5543
sg5
L142724L
sg6
Nsg23
S'MOV'
p5544
sg25
S'0x22d84L'
p5545
sg27
Nsba(ibclass
BInstr
p5546
(dp5547
g2
Nsg17
S'ADD     R3, R6, R3      ; "s3_lib.c"'
p5548
sg19
S'033086e0'
p5549
sg21
Vadd r3, r6, r3
p5550
sg5
L142728L
sg6
Nsg23
S'ADD'
p5551
sg25
S'0x22d88L'
p5552
sg27
Nsba(ibclass
BInstr
p5553
(dp5554
g2
Nsg17
S'MOV     cmd, #0x85'
p5555
sg19
S'8510a0e3'
p5556
sg21
Vmov r1, #0x85
p5557
sg5
L142732L
sg6
Nsg23
S'MOV'
p5558
sg25
S'0x22d8cL'
p5559
sg27
Nsba(ibclass
BInstr
p5560
(dp5561
g2
Nsg17
S'LDR     larg, =0x145'
p5562
sg19
S'c4219fe5'
p5563
sg21
Vldr r2, [pc, #0x1c4]
p5564
sg5
L142736L
sg6
Nsg23
S'LDR'
p5565
sg25
S'0x22d90L'
p5566
sg27
Nsba(ibclass
BInstr
p5567
(dp5568
g2
Nsg17
S'STR     R12, [SP,#0x20+var_20]'
p5569
sg19
S'00c08de5'
p5570
sg21
Vstr ip, [sp]
p5571
sg5
L142740L
sg6
Nsg23
S'STR'
p5572
sg25
S'0x22d94L'
p5573
sg27
Nsba(ibclass
BInstr
p5574
(dp5575
g2
Nsg17
S'BL      ERR_put_error'
p5576
sg19
S'beb9ffeb'
p5577
sg21
Vbl #0xfffee700
p5578
sg5
L142744L
sg6
Nsg23
S'BL'
p5579
sg25
S'0x22d98L'
p5580
sg27
Nsba(ibclass
BInstr
p5581
(dp5582
g2
Nsg17
S'MOV     R0, #0'
p5583
sg19
S'0000a0e3'
p5584
sg21
Vmov r0, #0
p5585
sg5
L142748L
sg6
Nsg23
S'MOV'
p5586
sg25
S'0x22d9cL'
p5587
sg27
Nsba(ibclass
BInstr
p5588
(dp5589
g2
Nsg17
S'B       loc_22954'
p5590
sg19
S'ebfeffea'
p5591
sg21
Vb #0xfffffbb4
p5592
sg5
L142752L
sg6
Nsg23
g286
sg25
S'0x22da0L'
p5593
sg27
Nsbasg98
(lp5594
S'LDR parg, =(aS3_lib_c - address)'
p5595
aS'LDR R12, =0xEC6'
p5596
aS'MOV R0, #0x14'
p5597
aS'ADD R3, R6, R3'
p5598
aS'MOV cmd, #0x85'
p5599
aS'LDR larg, =0x145'
p5600
aS'STR R12, mem'
p5601
aS'BL ERR_put_error'
p5602
aS'MOV R0, #0'
p5603
aS'B func'
p5604
asg111
Nsg5
S'0x22d7cL'
p5605
sg113
(lp5606
S'0x22a74L'
p5607
asg6
Nsg115
(lp5608
S'0x22954L'
p5609
asg269
Nsg270
Nsg271
S'11a79a9c867237e905a89111c737c309'
p5610
sg273
S'2ecd8bdaa6fb1d26a7e84544e39f6280'
p5611
sg275
(lp5612
g5530
ag5537
ag5544
ag5551
ag5558
ag5565
ag5572
ag5579
ag5586
ag286
asg277
Nsba(ibclass
BBasicBlock
p5613
(dp5614
g12
Nsg13
(lp5615
(ibclass
BInstr
p5616
(dp5617
g2
Nsg17
S'LDR     R3, =(aS3_lib_c - 0x62000)'
p5618
sg19
S'94319fe5'
p5619
sg21
Vldr r3, [pc, #0x194]
p5620
sg5
L142756L
sg6
Nsg23
S'LDR'
p5621
sg25
S'0x22da4L'
p5622
sg27
Nsba(ibclass
BInstr
p5623
(dp5624
g2
Nsg17
S'LDR     larg, =0xE66'
p5625
sg19
S'b0c19fe5'
p5626
sg21
Vldr ip, [pc, #0x1b0]
p5627
sg5
L142760L
sg6
Nsg23
S'LDR'
p5628
sg25
S'0x22da8L'
p5629
sg27
Nsba(ibclass
BInstr
p5630
(dp5631
g2
Nsg17
S'MOV     R0, #0x14'
p5632
sg19
S'1400a0e3'
p5633
sg21
Vmov r0, #0x14
p5634
sg5
L142764L
sg6
Nsg23
S'MOV'
p5635
sg25
S'0x22dacL'
p5636
sg27
Nsba(ibclass
BInstr
p5637
(dp5638
g2
Nsg17
S'ADD     R3, R6, R3      ; "s3_lib.c"'
p5639
sg19
S'033086e0'
p5640
sg21
Vadd r3, r6, r3
p5641
sg5
L142768L
sg6
Nsg23
S'ADD'
p5642
sg25
S'0x22db0L'
p5643
sg27
Nsba(ibclass
BInstr
p5644
(dp5645
g2
Nsg17
S'MOV     cmd, #0x85'
p5646
sg19
S'8510a0e3'
p5647
sg21
Vmov r1, #0x85
p5648
sg5
L142772L
sg6
Nsg23
S'MOV'
p5649
sg25
S'0x22db4L'
p5650
sg27
Nsba(ibclass
BInstr
p5651
(dp5652
g2
Nsg17
S'MOV     larg, #4'
p5653
sg19
S'0420a0e3'
p5654
sg21
Vmov r2, #4
p5655
sg5
L142776L
sg6
Nsg23
S'MOV'
p5656
sg25
S'0x22db8L'
p5657
sg27
Nsba(ibclass
BInstr
p5658
(dp5659
g2
Nsg17
S'STR     R12, [SP,#0x20+var_20]'
p5660
sg19
S'00c08de5'
p5661
sg21
Vstr ip, [sp]
p5662
sg5
L142780L
sg6
Nsg23
S'STR'
p5663
sg25
S'0x22dbcL'
p5664
sg27
Nsba(ibclass
BInstr
p5665
(dp5666
g2
Nsg17
S'BL      ERR_put_error'
p5667
sg19
S'b4b9ffeb'
p5668
sg21
Vbl #0xfffee6d8
p5669
sg5
L142784L
sg6
Nsg23
S'BL'
p5670
sg25
S'0x22dc0L'
p5671
sg27
Nsba(ibclass
BInstr
p5672
(dp5673
g2
Nsg17
S'MOV     R0, #0'
p5674
sg19
S'0000a0e3'
p5675
sg21
Vmov r0, #0
p5676
sg5
L142788L
sg6
Nsg23
S'MOV'
p5677
sg25
S'0x22dc4L'
p5678
sg27
Nsba(ibclass
BInstr
p5679
(dp5680
g2
Nsg17
S'B       loc_22954'
p5681
sg19
S'e1feffea'
p5682
sg21
Vb #0xfffffb8c
p5683
sg5
L142792L
sg6
Nsg23
g286
sg25
S'0x22dc8L'
p5684
sg27
Nsbasg98
(lp5685
S'LDR R3, =(aS3_lib_c - address)'
p5686
aS'LDR larg, =0xE66'
p5687
aS'MOV R0, #0x14'
p5688
aS'ADD R3, R6, R3'
p5689
aS'MOV cmd, #0x85'
p5690
aS'MOV larg, #4'
p5691
aS'STR R12, mem'
p5692
aS'BL ERR_put_error'
p5693
aS'MOV R0, #0'
p5694
aS'B func'
p5695
asg111
Nsg5
S'0x22da4L'
p5696
sg113
(lp5697
S'0x22b90L'
p5698
aS'0x22b98L'
p5699
asg6
Nsg115
(lp5700
S'0x22954L'
p5701
asg269
Nsg270
Nsg271
S'1289b044aba5defe7967504e081b2a6d'
p5702
sg273
S'd564d6fe227aad646e7393e014aff321'
p5703
sg275
(lp5704
g5621
ag5628
ag5635
ag5642
ag5649
ag5656
ag5663
ag5670
ag5677
ag286
asg277
Nsba(ibclass
BBasicBlock
p5705
(dp5706
g12
Nsg13
(lp5707
(ibclass
BInstr
p5708
(dp5709
g2
Nsg17
S'BL      DH_generate_key'
p5710
sg19
S'b0b7ffeb'
p5711
sg21
Vbl #0xfffedec8
p5712
sg5
L142796L
sg6
Nsg23
S'BL'
p5713
sg25
S'0x22dccL'
p5714
sg27
Nsba(ibclass
BInstr
p5715
(dp5716
g2
Nsg17
S'SUBS    ctx, R0, #0'
p5717
sg19
S'004050e2'
p5718
sg21
Vsubs r4, r0, #0
p5719
sg5
L142800L
sg6
Nsg23
S'SUB'
p5720
sg25
S'0x22dd0L'
p5721
sg27
Nsba(ibclass
BInstr
p5722
(dp5723
g2
Nsg17
S'BNE     loc_22B78'
p5724
sg19
S'67ffff1a'
p5725
sg21
Vbne #0xfffffda4
p5726
sg5
L142804L
sg6
Nsg23
g286
sg25
S'0x22dd4L'
p5727
sg27
Nsbasg98
(lp5728
S'BL DH_generate_key'
p5729
aS'SUBS ctx, R0, #0'
p5730
aS'BNE func'
p5731
asg111
Nsg5
S'0x22dccL'
p5732
sg113
(lp5733
S'0x22b6cL'
p5734
asg6
Nsg115
(lp5735
S'0x22b78L'
p5736
aS'0x22dd8L'
p5737
asg269
Nsg270
Nsg271
S'b0655893861b4069fc8460910fabe5df'
p5738
sg273
S'78a8e13d48f986f102c61bee506aee6c'
p5739
sg275
(lp5740
g5713
ag5720
ag286
asg277
Nsba(ibclass
BBasicBlock
p5741
(dp5742
g12
Nsg13
(lp5743
(ibclass
BInstr
p5744
(dp5745
g2
Nsg17
S'LDR     R3, =(aS3_lib_c - 0x62000)'
p5746
sg19
S'60319fe5'
p5747
sg21
Vldr r3, [pc, #0x160]
p5748
sg5
L142808L
sg6
Nsg23
S'LDR'
p5749
sg25
S'0x22dd8L'
p5750
sg27
Nsba(ibclass
BInstr
p5751
(dp5752
g2
Nsg17
S'LDR     R12, =0xE83'
p5753
sg19
S'80c19fe5'
p5754
sg21
Vldr ip, [pc, #0x180]
p5755
sg5
L142812L
sg6
Nsg23
S'LDR'
p5756
sg25
S'0x22ddcL'
p5757
sg27
Nsba(ibclass
BInstr
p5758
(dp5759
g2
Nsg17
S'ADD     R3, R6, R3      ; "s3_lib.c"'
p5760
sg19
S'033086e0'
p5761
sg21
Vadd r3, r6, r3
p5762
sg5
L142816L
sg6
Nsg23
S'ADD'
p5763
sg25
S'0x22de0L'
p5764
sg27
Nsba(ibclass
BInstr
p5765
(dp5766
g2
Nsg17
S'MOV     R1, #0x85'
p5767
sg19
S'8510a0e3'
p5768
sg21
Vmov r1, #0x85
p5769
sg5
L142820L
sg6
Nsg23
S'MOV'
p5770
sg25
S'0x22de4L'
p5771
sg27
Nsba(ibclass
BInstr
p5772
(dp5773
g2
Nsg17
S'MOV     R2, #5'
p5774
sg19
S'0520a0e3'
p5775
sg21
Vmov r2, #5
p5776
sg5
L142824L
sg6
Nsg23
S'MOV'
p5777
sg25
S'0x22de8L'
p5778
sg27
Nsba(ibclass
BInstr
p5779
(dp5780
g2
Nsg17
S'MOV     R0, #0x14'
p5781
sg19
S'1400a0e3'
p5782
sg21
Vmov r0, #0x14
p5783
sg5
L142828L
sg6
Nsg23
S'MOV'
p5784
sg25
S'0x22decL'
p5785
sg27
Nsba(ibclass
BInstr
p5786
(dp5787
g2
Nsg17
S'STR     R12, [SP,#0x20+var_20]'
p5788
sg19
S'00c08de5'
p5789
sg21
Vstr ip, [sp]
p5790
sg5
L142832L
sg6
Nsg23
S'STR'
p5791
sg25
S'0x22df0L'
p5792
sg27
Nsba(ibclass
BInstr
p5793
(dp5794
g2
Nsg17
S'BL      ERR_put_error'
p5795
sg19
S'a7b9ffeb'
p5796
sg21
Vbl #0xfffee6a4
p5797
sg5
L142836L
sg6
Nsg23
S'BL'
p5798
sg25
S'0x22df4L'
p5799
sg27
Nsba(ibclass
BInstr
p5800
(dp5801
g2
Nsg17
S'MOV     R0, new'
p5802
sg19
S'0500a0e1'
p5803
sg21
Vmov r0, r5
p5804
sg5
L142840L
sg6
Nsg23
S'MOV'
p5805
sg25
S'0x22df8L'
p5806
sg27
Nsba(ibclass
BInstr
p5807
(dp5808
g2
Nsg17
S'BL      DH_free'
p5809
sg19
S'81b9ffeb'
p5810
sg21
Vbl #0xfffee60c
p5811
sg5
L142844L
sg6
Nsg23
S'BL'
p5812
sg25
S'0x22dfcL'
p5813
sg27
Nsba(ibclass
BInstr
p5814
(dp5815
g2
Nsg17
S'MOV     R0, R4'
p5816
sg19
S'0400a0e1'
p5817
sg21
Vmov r0, r4
p5818
sg5
L142848L
sg6
Nsg23
S'MOV'
p5819
sg25
S'0x22e00L'
p5820
sg27
Nsba(ibclass
BInstr
p5821
(dp5822
g2
Nsg17
S'B       loc_22954'
p5823
sg19
S'd2feffea'
p5824
sg21
Vb #0xfffffb50
p5825
sg5
L142852L
sg6
Nsg23
g286
sg25
S'0x22e04L'
p5826
sg27
Nsbasg98
(lp5827
S'LDR R3, =(aS3_lib_c - address)'
p5828
aS'LDR R12, =0xE83'
p5829
aS'ADD R3, R6, R3'
p5830
aS'MOV R1, #0x85'
p5831
aS'MOV R2, #5'
p5832
aS'MOV R0, #0x14'
p5833
aS'STR R12, mem'
p5834
aS'BL ERR_put_error'
p5835
aS'MOV R0, new'
p5836
aS'BL DH_free'
p5837
aS'MOV R0, R4'
p5838
aS'B func'
p5839
asg111
Nsg5
S'0x22dd8L'
p5840
sg113
(lp5841
S'0x22dccL'
p5842
asg6
Nsg115
(lp5843
S'0x22954L'
p5844
asg269
Nsg270
Nsg271
S'501b8de77576b595b805e341bdc50197'
p5845
sg273
S'ddbf286bafe9d2843456afc8f19fd0db'
p5846
sg275
(lp5847
g5749
ag5756
ag5763
ag5770
ag5777
ag5784
ag5791
ag5798
ag5805
ag5812
ag5819
ag286
asg277
Nsba(ibclass
BBasicBlock
p5848
(dp5849
g12
Nsg13
(lp5850
(ibclass
BInstr
p5851
(dp5852
g2
Nsg17
S'MOV     R0, parg'
p5853
sg19
S'0500a0e1'
p5854
sg21
Vmov r0, r5
p5855
sg5
L142856L
sg6
Nsg23
S'MOV'
p5856
sg25
S'0x22e08L'
p5857
sg27
Nsba(ibclass
BInstr
p5858
(dp5859
g2
Nsg17
S'BL      BUF_strdup'
p5860
sg19
S'79b7ffeb'
p5861
sg21
Vbl #0xfffeddec
p5862
sg5
L142860L
sg6
Nsg23
S'BL'
p5863
sg25
S'0x22e0cL'
p5864
sg27
Nsba(ibclass
BInstr
p5865
(dp5866
g2
Nsg17
S'CMP     R0, #0'
p5867
sg19
S'000050e3'
p5868
sg21
Vcmp r0, #0
p5869
sg5
L142864L
sg6
Nsg23
S'CMP'
p5870
sg25
S'0x22e10L'
p5871
sg27
Nsba(ibclass
BInstr
p5872
(dp5873
g2
Nsg17
S'MOV     parg, R0'
p5874
sg19
S'0050a0e1'
p5875
sg21
Vmov r5, r0
p5876
sg5
L142868L
sg6
Nsg23
S'MOV'
p5877
sg25
S'0x22e14L'
p5878
sg27
Nsba(ibclass
BInstr
p5879
(dp5880
g2
Nsg17
S'STR     R0, [ctx,#0x174]'
p5881
sg19
S'740184e5'
p5882
sg21
Vstr r0, [r4, #0x174]
p5883
sg5
L142872L
sg6
Nsg23
S'STR'
p5884
sg25
S'0x22e18L'
p5885
sg27
Nsba(ibclass
BInstr
p5886
(dp5887
g2
Nsg17
S'BNE     loc_22D54'
p5888
sg19
S'ccffff1a'
p5889
sg21
Vbne #0xffffff38
p5890
sg5
L142876L
sg6
Nsg23
g286
sg25
S'0x22e1cL'
p5891
sg27
Nsbasg98
(lp5892
S'MOV R0, parg'
p5893
aS'BL BUF_strdup'
p5894
aS'CMP R0, #0'
p5895
aS'MOV parg, R0'
p5896
aS'STR R0, mem'
p5897
aS'BNE func'
p5898
asg111
Nsg5
S'0x22e08L'
p5899
sg113
(lp5900
S'0x22a10L'
p5901
asg6
Nsg115
(lp5902
S'0x22d54L'
p5903
aS'0x22e20L'
p5904
asg269
Nsg270
Nsg271
S'c913fd2ecfbc98f5cb2fb12fc66dccf5'
p5905
sg273
S'6d990e9069548208470761b1ad4c0358'
p5906
sg275
(lp5907
g5856
ag5863
ag5870
ag5877
ag5884
ag286
asg277
Nsba(ibclass
BBasicBlock
p5908
(dp5909
g12
Nsg13
(lp5910
(ibclass
BInstr
p5911
(dp5912
g2
Nsg17
S'LDR     R3, =(aS3_lib_c - 0x62000)'
p5913
sg19
S'18319fe5'
p5914
sg21
Vldr r3, [pc, #0x118]
p5915
sg5
L142880L
sg6
Nsg23
S'LDR'
p5916
sg25
S'0x22e20L'
p5917
sg27
Nsba(ibclass
BInstr
p5918
(dp5919
g2
Nsg17
S'LDR     R12, =0xEEE'
p5920
sg19
S'3cc19fe5'
p5921
sg21
Vldr ip, [pc, #0x13c]
p5922
sg5
L142884L
sg6
Nsg23
S'LDR'
p5923
sg25
S'0x22e24L'
p5924
sg27
Nsba(ibclass
BInstr
p5925
(dp5926
g2
Nsg17
S'MOV     R0, #0x14'
p5927
sg19
S'1400a0e3'
p5928
sg21
Vmov r0, #0x14
p5929
sg5
L142888L
sg6
Nsg23
S'MOV'
p5930
sg25
S'0x22e28L'
p5931
sg27
Nsba(ibclass
BInstr
p5932
(dp5933
g2
Nsg17
S'ADD     R3, R6, R3      ; "s3_lib.c"'
p5934
sg19
S'033086e0'
p5935
sg21
Vadd r3, r6, r3
p5936
sg5
L142892L
sg6
Nsg23
S'ADD'
p5937
sg25
S'0x22e2cL'
p5938
sg27
Nsba(ibclass
BInstr
p5939
(dp5940
g2
Nsg17
S'MOV     R1, #0x85'
p5941
sg19
S'8510a0e3'
p5942
sg21
Vmov r1, #0x85
p5943
sg5
L142896L
sg6
Nsg23
S'MOV'
p5944
sg25
S'0x22e30L'
p5945
sg27
Nsba(ibclass
BInstr
p5946
(dp5947
g2
Nsg17
S'MOV     R2, #0x44'
p5948
sg19
S'4420a0e3'
p5949
sg21
Vmov r2, #0x44
p5950
sg5
L142900L
sg6
Nsg23
S'MOV'
p5951
sg25
S'0x22e34L'
p5952
sg27
Nsba(ibclass
BInstr
p5953
(dp5954
g2
Nsg17
S'STR     R12, [SP,#0x20+var_20]'
p5955
sg19
S'00c08de5'
p5956
sg21
Vstr ip, [sp]
p5957
sg5
L142904L
sg6
Nsg23
S'STR'
p5958
sg25
S'0x22e38L'
p5959
sg27
Nsba(ibclass
BInstr
p5960
(dp5961
g2
Nsg17
S'BL      ERR_put_error'
p5962
sg19
S'95b9ffeb'
p5963
sg21
Vbl #0xfffee65c
p5964
sg5
L142908L
sg6
Nsg23
S'BL'
p5965
sg25
S'0x22e3cL'
p5966
sg27
Nsba(ibclass
BInstr
p5967
(dp5968
g2
Nsg17
S'MOV     R0, R5'
p5969
sg19
S'0500a0e1'
p5970
sg21
Vmov r0, r5
p5971
sg5
L142912L
sg6
Nsg23
S'MOV'
p5972
sg25
S'0x22e40L'
p5973
sg27
Nsba(ibclass
BInstr
p5974
(dp5975
g2
Nsg17
S'B       loc_22954'
p5976
sg19
S'c2feffea'
p5977
sg21
Vb #0xfffffb10
p5978
sg5
L142916L
sg6
Nsg23
g286
sg25
S'0x22e44L'
p5979
sg27
Nsbasg98
(lp5980
S'LDR R3, =(aS3_lib_c - address)'
p5981
aS'LDR R12, =0xEEE'
p5982
aS'MOV R0, #0x14'
p5983
aS'ADD R3, R6, R3'
p5984
aS'MOV R1, #0x85'
p5985
aS'MOV R2, #0x44'
p5986
aS'STR R12, mem'
p5987
aS'BL ERR_put_error'
p5988
aS'MOV R0, R5'
p5989
aS'B func'
p5990
asg111
Nsg5
S'0x22e20L'
p5991
sg113
(lp5992
S'0x22e08L'
p5993
asg6
Nsg115
(lp5994
S'0x22954L'
p5995
asg269
Nsg270
Nsg271
S'1289b044aba5defe7967504e081b2a6d'
p5996
sg273
S'4d494b7c2b0c35d3b55ce40f9ac52a8b'
p5997
sg275
(lp5998
g5916
ag5923
ag5930
ag5937
ag5944
ag5951
ag5958
ag5965
ag5972
ag286
asg277
Nsba(ibclass
BBasicBlock
p5999
(dp6000
g12
Nsg13
(lp6001
(ibclass
BInstr
p6002
(dp6003
g2
Nsg17
S'BL      EC_KEY_generate_key'
p6004
sg19
S'c3b8ffeb'
p6005
sg21
Vbl #0xfffee314
p6006
sg5
L142920L
sg6
Nsg23
S'BL'
p6007
sg25
S'0x22e48L'
p6008
sg27
Nsba(ibclass
BInstr
p6009
(dp6010
g2
Nsg17
S'SUBS    ctx, R0, #0'
p6011
sg19
S'004050e2'
p6012
sg21
Vsubs r4, r0, #0
p6013
sg5
L142924L
sg6
Nsg23
S'SUB'
p6014
sg25
S'0x22e4cL'
p6015
sg27
Nsba(ibclass
BInstr
p6016
(dp6017
g2
Nsg17
S'BNE     loc_22BE4'
p6018
sg19
S'63ffff1a'
p6019
sg21
Vbne #0xfffffd94
p6020
sg5
L142928L
sg6
Nsg23
g286
sg25
S'0x22e50L'
p6021
sg27
Nsbasg98
(lp6022
S'BL EC_KEY_generate_key'
p6023
aS'SUBS ctx, R0, #0'
p6024
aS'BNE func'
p6025
asg111
Nsg5
S'0x22e48L'
p6026
sg113
(lp6027
S'0x22bd8L'
p6028
asg6
Nsg115
(lp6029
S'0x22be4L'
p6030
aS'0x22e54L'
p6031
asg269
Nsg270
Nsg271
S'b0655893861b4069fc8460910fabe5df'
p6032
sg273
S'e7ba74299b1cd1d7111014eccbba12a7'
p6033
sg275
(lp6034
g6007
ag6014
ag286
asg277
Nsba(ibclass
BBasicBlock
p6035
(dp6036
g12
Nsg13
(lp6037
(ibclass
BInstr
p6038
(dp6039
g2
Nsg17
S'MOV     R0, ecdh'
p6040
sg19
S'0500a0e1'
p6041
sg21
Vmov r0, r5
p6042
sg5
L142932L
sg6
Nsg23
S'MOV'
p6043
sg25
S'0x22e54L'
p6044
sg27
Nsba(ibclass
BInstr
p6045
(dp6046
g2
Nsg17
S'BL      EC_KEY_free'
p6047
sg19
S'46b6ffeb'
p6048
sg21
Vbl #0xfffed920
p6049
sg5
L142936L
sg6
Nsg23
S'BL'
p6050
sg25
S'0x22e58L'
p6051
sg27
Nsba(ibclass
BInstr
p6052
(dp6053
g2
Nsg17
S'LDR     R3, =(aS3_lib_c - 0x62000)'
p6054
sg19
S'dc309fe5'
p6055
sg21
Vldr r3, [pc, #0xdc]
p6056
sg5
L142940L
sg6
Nsg23
S'LDR'
p6057
sg25
S'0x22e5cL'
p6058
sg27
Nsba(ibclass
BInstr
p6059
(dp6060
g2
Nsg17
S'LDR     R12, =0xEA8'
p6061
sg19
S'04c19fe5'
p6062
sg21
Vldr ip, [pc, #0x104]
p6063
sg5
L142944L
sg6
Nsg23
S'LDR'
p6064
sg25
S'0x22e60L'
p6065
sg27
Nsba(ibclass
BInstr
p6066
(dp6067
g2
Nsg17
S'MOV     R0, #0x14'
p6068
sg19
S'1400a0e3'
p6069
sg21
Vmov r0, #0x14
p6070
sg5
L142948L
sg6
Nsg23
S'MOV'
p6071
sg25
S'0x22e64L'
p6072
sg27
Nsba(ibclass
BInstr
p6073
(dp6074
g2
Nsg17
S'ADD     R3, R6, R3      ; "s3_lib.c"'
p6075
sg19
S'033086e0'
p6076
sg21
Vadd r3, r6, r3
p6077
sg5
L142952L
sg6
Nsg23
S'ADD'
p6078
sg25
S'0x22e68L'
p6079
sg27
Nsba(ibclass
BInstr
p6080
(dp6081
g2
Nsg17
S'MOV     R1, #0x85'
p6082
sg19
S'8510a0e3'
p6083
sg21
Vmov r1, #0x85
p6084
sg5
L142956L
sg6
Nsg23
S'MOV'
p6085
sg25
S'0x22e6cL'
p6086
sg27
Nsba(ibclass
BInstr
p6087
(dp6088
g2
Nsg17
S'MOV     R2, #0x2B'
p6089
sg19
S'2b20a0e3'
p6090
sg21
Vmov r2, #0x2b
p6091
sg5
L142960L
sg6
Nsg23
S'MOV'
p6092
sg25
S'0x22e70L'
p6093
sg27
Nsba(ibclass
BInstr
p6094
(dp6095
g2
Nsg17
S'STR     R12, [SP,#0x20+var_20]'
p6096
sg19
S'00c08de5'
p6097
sg21
Vstr ip, [sp]
p6098
sg5
L142964L
sg6
Nsg23
S'STR'
p6099
sg25
S'0x22e74L'
p6100
sg27
Nsba(ibclass
BInstr
p6101
(dp6102
g2
Nsg17
S'BL      ERR_put_error'
p6103
sg19
S'86b9ffeb'
p6104
sg21
Vbl #0xfffee620
p6105
sg5
L142968L
sg6
Nsg23
S'BL'
p6106
sg25
S'0x22e78L'
p6107
sg27
Nsba(ibclass
BInstr
p6108
(dp6109
g2
Nsg17
S'MOV     R0, R4'
p6110
sg19
S'0400a0e1'
p6111
sg21
Vmov r0, r4
p6112
sg5
L142972L
sg6
Nsg23
S'MOV'
p6113
sg25
S'0x22e7cL'
p6114
sg27
Nsba(ibclass
BInstr
p6115
(dp6116
g2
Nsg17
S'B       loc_22954'
p6117
sg19
S'b3feffea'
p6118
sg21
Vb #0xfffffad4
p6119
sg5
L142976L
sg6
Nsg23
g286
sg25
S'0x22e80L'
p6120
sg27
Nsbasg98
(lp6121
S'MOV R0, ecdh'
p6122
aS'BL EC_KEY_free'
p6123
aS'LDR R3, =(aS3_lib_c - address)'
p6124
aS'LDR R12, =0xEA8'
p6125
aS'MOV R0, #0x14'
p6126
aS'ADD R3, R6, R3'
p6127
aS'MOV R1, #0x85'
p6128
aS'MOV R2, #0x2B'
p6129
aS'STR R12, mem'
p6130
aS'BL ERR_put_error'
p6131
aS'MOV R0, R4'
p6132
aS'B func'
p6133
asg111
Nsg5
S'0x22e54L'
p6134
sg113
(lp6135
S'0x22e48L'
p6136
asg6
Nsg115
(lp6137
S'0x22954L'
p6138
asg269
Nsg270
Nsg271
S'e2c9b2e346eb7988b025471295ecac9d'
p6139
sg273
S'3f838298808c001aa55bfd90a50454c6'
p6140
sg275
(lp6141
g6043
ag6050
ag6057
ag6064
ag6071
ag6078
ag6085
ag6092
ag6099
ag6106
ag6113
ag286
asg277
Nsba(ibclass
BBasicBlock
p6142
(dp6143
g12
Nsg13
(lp6144
(ibclass
BInstr
p6145
(dp6146
g2
Nsg17
S'MOV     cmd, parg       ; src'
p6147
sg19
S'0310a0e1'
p6148
sg21
Vmov r1, r3
p6149
sg5
L142980L
sg6
Nsg23
S'MOV'
p6150
sg25
S'0x22e84L'
p6151
sg27
Nsba(ibclass
BInstr
p6152
(dp6153
g2
Nsg17
S'MOV     larg, #0x10     ; n'
p6154
sg19
S'1020a0e3'
p6155
sg21
Vmov r2, #0x10
p6156
sg5
L142984L
sg6
Nsg23
S'MOV'
p6157
sg25
S'0x22e88L'
p6158
sg27
Nsba(ibclass
BInstr
p6159
(dp6160
g2
Nsg17
S'ADD     R0, ctx, #0x108 ; dest'
p6161
sg19
S'420f84e2'
p6162
sg21
Vadd r0, r4, #0x108
p6163
sg5
L142988L
sg6
Nsg23
S'ADD'
p6164
sg25
S'0x22e8cL'
p6165
sg27
Nsba(ibclass
BInstr
p6166
(dp6167
g2
Nsg17
S'BL      memcpy'
p6168
sg19
S'5eb7ffeb'
p6169
sg21
Vbl #0xfffedd80
p6170
sg5
L142992L
sg6
Nsg23
S'BL'
p6171
sg25
S'0x22e90L'
p6172
sg27
Nsba(ibclass
BInstr
p6173
(dp6174
g2
Nsg17
S'ADD     R1, parg, #0x10 ; src'
p6175
sg19
S'101085e2'
p6176
sg21
Vadd r1, r5, #0x10
p6177
sg5
L142996L
sg6
Nsg23
S'ADD'
p6178
sg25
S'0x22e94L'
p6179
sg27
Nsba(ibclass
BInstr
p6180
(dp6181
g2
Nsg17
S'MOV     R2, #0x10       ; n'
p6182
sg19
S'1020a0e3'
p6183
sg21
Vmov r2, #0x10
p6184
sg5
L143000L
sg6
Nsg23
S'MOV'
p6185
sg25
S'0x22e98L'
p6186
sg27
Nsba(ibclass
BInstr
p6187
(dp6188
g2
Nsg17
S'ADD     R0, ctx, #0x118 ; dest'
p6189
sg19
S'460f84e2'
p6190
sg21
Vadd r0, r4, #0x118
p6191
sg5
L143004L
sg6
Nsg23
S'ADD'
p6192
sg25
S'0x22e9cL'
p6193
sg27
Nsba(ibclass
BInstr
p6194
(dp6195
g2
Nsg17
S'BL      memcpy'
p6196
sg19
S'5ab7ffeb'
p6197
sg21
Vbl #0xfffedd70
p6198
sg5
L143008L
sg6
Nsg23
S'BL'
p6199
sg25
S'0x22ea0L'
p6200
sg27
Nsba(ibclass
BInstr
p6201
(dp6202
g2
Nsg17
S'ADD     R0, ctx, #0x128 ; dest'
p6203
sg19
S'4a0f84e2'
p6204
sg21
Vadd r0, r4, #0x128
p6205
sg5
L143012L
sg6
Nsg23
S'ADD'
p6206
sg25
S'0x22ea4L'
p6207
sg27
Nsba(ibclass
BInstr
p6208
(dp6209
g2
Nsg17
S'ADD     R1, parg, #0x20 ; src'
p6210
sg19
S'201085e2'
p6211
sg21
Vadd r1, r5, #0x20
p6212
sg5
L143016L
sg6
Nsg23
S'ADD'
p6213
sg25
S'0x22ea8L'
p6214
sg27
Nsba(ibclass
BInstr
p6215
(dp6216
g2
Nsg17
S'MOV     R2, #0x10       ; n'
p6217
sg19
S'1020a0e3'
p6218
sg21
Vmov r2, #0x10
p6219
sg5
L143020L
sg6
Nsg23
S'MOV'
p6220
sg25
S'0x22eacL'
p6221
sg27
Nsba(ibclass
BInstr
p6222
(dp6223
g2
Nsg17
S'BL      memcpy'
p6224
sg19
S'56b7ffeb'
p6225
sg21
Vbl #0xfffedd60
p6226
sg5
L143024L
sg6
Nsg23
S'BL'
p6227
sg25
S'0x22eb0L'
p6228
sg27
Nsba(ibclass
BInstr
p6229
(dp6230
g2
Nsg17
S'MOV     R0, #1'
p6231
sg19
S'0100a0e3'
p6232
sg21
Vmov r0, #1
p6233
sg5
L143028L
sg6
Nsg23
S'MOV'
p6234
sg25
S'0x22eb4L'
p6235
sg27
Nsba(ibclass
BInstr
p6236
(dp6237
g2
Nsg17
S'B       loc_22954'
p6238
sg19
S'a5feffea'
p6239
sg21
Vb #0xfffffa9c
p6240
sg5
L143032L
sg6
Nsg23
g286
sg25
S'0x22eb8L'
p6241
sg27
Nsbasg98
(lp6242
S'MOV cmd, parg'
p6243
aS'MOV larg, #0x10'
p6244
aS'ADD R0, ctx, #0x108'
p6245
aS'BL memcpy'
p6246
aS'ADD R1, parg, #0x10'
p6247
aS'MOV R2, #0x10'
p6248
aS'ADD R0, ctx, #0x118'
p6249
aS'BL memcpy'
p6250
aS'ADD R0, ctx, #0x128'
p6251
aS'ADD R1, parg, #0x20'
p6252
aS'MOV R2, #0x10'
p6253
aS'BL memcpy'
p6254
aS'MOV R0, #1'
p6255
aS'B func'
p6256
asg111
Nsg5
S'0x22e84L'
p6257
sg113
(lp6258
S'0x22a7cL'
p6259
asg6
Nsg115
(lp6260
S'0x22954L'
p6261
asg269
Nsg270
Nsg271
S'4f56af37e979c6873abdbdef3b4ba672'
p6262
sg273
S'bfa016a45281b4599091d90d3026d636'
p6263
sg275
(lp6264
g6150
ag6157
ag6164
ag6171
ag6178
ag6185
ag6192
ag6199
ag6206
ag6213
ag6220
ag6227
ag6234
ag286
asg277
Nsba(ibclass
BBasicBlock
p6265
(dp6266
g12
Nsg13
(lp6267
(ibclass
BInstr
p6268
(dp6269
g2
Nsg17
S'LDR     parg, =(aS3_lib_c - 0x62000)'
p6270
sg19
S'7c309fe5'
p6271
sg21
Vldr r3, [pc, #0x7c]
p6272
sg5
L143036L
sg6
Nsg23
S'LDR'
p6273
sg25
S'0x22ebcL'
p6274
sg27
Nsba(ibclass
BInstr
p6275
(dp6276
g2
Nsg17
S'LDR     larg, =0xE9D'
p6277
sg19
S'a8c09fe5'
p6278
sg21
Vldr ip, [pc, #0xa8]
p6279
sg5
L143040L
sg6
Nsg23
S'LDR'
p6280
sg25
S'0x22ec0L'
p6281
sg27
Nsba(ibclass
BInstr
p6282
(dp6283
g2
Nsg17
S'MOV     R0, #0x14'
p6284
sg19
S'1400a0e3'
p6285
sg21
Vmov r0, #0x14
p6286
sg5
L143044L
sg6
Nsg23
S'MOV'
p6287
sg25
S'0x22ec4L'
p6288
sg27
Nsba(ibclass
BInstr
p6289
(dp6290
g2
Nsg17
S'ADD     R3, R6, R3      ; "s3_lib.c"'
p6291
sg19
S'033086e0'
p6292
sg21
Vadd r3, r6, r3
p6293
sg5
L143048L
sg6
Nsg23
S'ADD'
p6294
sg25
S'0x22ec8L'
p6295
sg27
Nsba(ibclass
BInstr
p6296
(dp6297
g2
Nsg17
S'MOV     cmd, #0x85'
p6298
sg19
S'8510a0e3'
p6299
sg21
Vmov r1, #0x85
p6300
sg5
L143052L
sg6
Nsg23
S'MOV'
p6301
sg25
S'0x22eccL'
p6302
sg27
Nsba(ibclass
BInstr
p6303
(dp6304
g2
Nsg17
S'MOV     larg, #0x2B'
p6305
sg19
S'2b20a0e3'
p6306
sg21
Vmov r2, #0x2b
p6307
sg5
L143056L
sg6
Nsg23
S'MOV'
p6308
sg25
S'0x22ed0L'
p6309
sg27
Nsba(ibclass
BInstr
p6310
(dp6311
g2
Nsg17
S'STR     R12, [SP,#0x20+var_20]'
p6312
sg19
S'00c08de5'
p6313
sg21
Vstr ip, [sp]
p6314
sg5
L143060L
sg6
Nsg23
S'STR'
p6315
sg25
S'0x22ed4L'
p6316
sg27
Nsba(ibclass
BInstr
p6317
(dp6318
g2
Nsg17
S'BL      ERR_put_error'
p6319
sg19
S'6eb9ffeb'
p6320
sg21
Vbl #0xfffee5c0
p6321
sg5
L143064L
sg6
Nsg23
S'BL'
p6322
sg25
S'0x22ed8L'
p6323
sg27
Nsba(ibclass
BInstr
p6324
(dp6325
g2
Nsg17
S'MOV     R0, parg'
p6326
sg19
S'0500a0e1'
p6327
sg21
Vmov r0, r5
p6328
sg5
L143068L
sg6
Nsg23
S'MOV'
p6329
sg25
S'0x22edcL'
p6330
sg27
Nsba(ibclass
BInstr
p6331
(dp6332
g2
Nsg17
S'B       loc_22954'
p6333
sg19
S'9bfeffea'
p6334
sg21
Vb #0xfffffa74
p6335
sg5
L143072L
sg6
Nsg23
g286
sg25
S'0x22ee0L'
p6336
sg27
Nsbasg98
(lp6337
S'LDR parg, =(aS3_lib_c - address)'
p6338
aS'LDR larg, =0xE9D'
p6339
aS'MOV R0, #0x14'
p6340
aS'ADD R3, R6, R3'
p6341
aS'MOV cmd, #0x85'
p6342
aS'MOV larg, #0x2B'
p6343
aS'STR R12, mem'
p6344
aS'BL ERR_put_error'
p6345
aS'MOV R0, parg'
p6346
aS'B func'
p6347
asg111
Nsg5
S'0x22ebcL'
p6348
sg113
(lp6349
S'0x22bc0L'
p6350
asg6
Nsg115
(lp6351
S'0x22954L'
p6352
asg269
Nsg270
Nsg271
S'1289b044aba5defe7967504e081b2a6d'
p6353
sg273
S'ab26797c53104d76387cecd52ec77067'
p6354
sg275
(lp6355
g6273
ag6280
ag6287
ag6294
ag6301
ag6308
ag6315
ag6322
ag6329
ag286
asg277
Nsba(ibclass
BBasicBlock
p6356
(dp6357
g12
Nsg13
(lp6358
(ibclass
BInstr
p6359
(dp6360
g2
Nsg17
S'LDR     R3, =(aS3_lib_c - 0x62000)'
p6361
sg19
S'54309fe5'
p6362
sg21
Vldr r3, [pc, #0x54]
p6363
sg5
L143076L
sg6
Nsg23
S'LDR'
p6364
sg25
S'0x22ee4L'
p6365
sg27
Nsba(ibclass
BInstr
p6366
(dp6367
g2
Nsg17
S'LDR     R12, =0xE7E'
p6368
sg19
S'84c09fe5'
p6369
sg21
Vldr ip, [pc, #0x84]
p6370
sg5
L143080L
sg6
Nsg23
S'LDR'
p6371
sg25
S'0x22ee8L'
p6372
sg27
Nsba(ibclass
BInstr
p6373
(dp6374
g2
Nsg17
S'MOV     R0, #0x14'
p6375
sg19
S'1400a0e3'
p6376
sg21
Vmov r0, #0x14
p6377
sg5
L143084L
sg6
Nsg23
S'MOV'
p6378
sg25
S'0x22eecL'
p6379
sg27
Nsba(ibclass
BInstr
p6380
(dp6381
g2
Nsg17
S'ADD     R3, R6, R3      ; "s3_lib.c"'
p6382
sg19
S'033086e0'
p6383
sg21
Vadd r3, r6, r3
p6384
sg5
L143088L
sg6
Nsg23
S'ADD'
p6385
sg25
S'0x22ef0L'
p6386
sg27
Nsba(ibclass
BInstr
p6387
(dp6388
g2
Nsg17
S'MOV     R1, #0x85'
p6389
sg19
S'8510a0e3'
p6390
sg21
Vmov r1, #0x85
p6391
sg5
L143092L
sg6
Nsg23
S'MOV'
p6392
sg25
S'0x22ef4L'
p6393
sg27
Nsba(ibclass
BInstr
p6394
(dp6395
g2
Nsg17
S'MOV     R2, #5'
p6396
sg19
S'0520a0e3'
p6397
sg21
Vmov r2, #5
p6398
sg5
L143096L
sg6
Nsg23
S'MOV'
p6399
sg25
S'0x22ef8L'
p6400
sg27
Nsba(ibclass
BInstr
p6401
(dp6402
g2
Nsg17
S'STR     R12, [SP,#0x20+var_20]'
p6403
sg19
S'00c08de5'
p6404
sg21
Vstr ip, [sp]
p6405
sg5
L143100L
sg6
Nsg23
S'STR'
p6406
sg25
S'0x22efcL'
p6407
sg27
Nsba(ibclass
BInstr
p6408
(dp6409
g2
Nsg17
S'BL      ERR_put_error'
p6410
sg19
S'64b9ffeb'
p6411
sg21
Vbl #0xfffee598
p6412
sg5
L143104L
sg6
Nsg23
S'BL'
p6413
sg25
S'0x22f00L'
p6414
sg27
Nsba(ibclass
BInstr
p6415
(dp6416
g2
Nsg17
S'MOV     R0, new'
p6417
sg19
S'0500a0e1'
p6418
sg21
Vmov r0, r5
p6419
sg5
L143108L
sg6
Nsg23
S'MOV'
p6420
sg25
S'0x22f04L'
p6421
sg27
Nsba(ibclass
BInstr
p6422
(dp6423
g2
Nsg17
S'B       loc_22954'
p6424
sg19
S'91feffea'
p6425
sg21
Vb #0xfffffa4c
p6426
sg5
L143112L
sg6
Nsg23
g286
sg25
S'0x22f08L'
p6427
sg27
Nsbasg98
(lp6428
S'LDR R3, =(aS3_lib_c - address)'
p6429
aS'LDR R12, =0xE7E'
p6430
aS'MOV R0, #0x14'
p6431
aS'ADD R3, R6, R3'
p6432
aS'MOV R1, #0x85'
p6433
aS'MOV R2, #5'
p6434
aS'STR R12, mem'
p6435
aS'BL ERR_put_error'
p6436
aS'MOV R0, new'
p6437
aS'B func'
p6438
asg111
Nsg5
S'0x22ee4L'
p6439
sg113
(lp6440
S'0x22b5cL'
p6441
asg6
Nsg115
(lp6442
S'0x22954L'
p6443
asg269
Nsg270
Nsg271
S'1289b044aba5defe7967504e081b2a6d'
p6444
sg273
S'fe5dba5c567d9685bc85c65aa6f0afb2'
p6445
sg275
(lp6446
g6364
ag6371
ag6378
ag6385
ag6392
ag6399
ag6406
ag6413
ag6420
ag286
asg277
Nsba(ibclass
BBasicBlock
p6447
(dp6448
g12
Nsg13
(lp6449
(ibclass
BInstr
p6450
(dp6451
g2
Nsg17
S'LDR     R3, =(aS3_lib_c - 0x62000)'
p6452
sg19
S'2c309fe5'
p6453
sg21
Vldr r3, [pc, #0x2c]
p6454
sg5
L143116L
sg6
Nsg23
S'LDR'
p6455
sg25
S'0x22f0cL'
p6456
sg27
Nsba(ibclass
BInstr
p6457
(dp6458
g2
Nsg17
S'LDR     R12, =0xEA2'
p6459
sg19
S'60c09fe5'
p6460
sg21
Vldr ip, [pc, #0x60]
p6461
sg5
L143120L
sg6
Nsg23
S'LDR'
p6462
sg25
S'0x22f10L'
p6463
sg27
Nsba(ibclass
BInstr
p6464
(dp6465
g2
Nsg17
S'MOV     R0, #0x14'
p6466
sg19
S'1400a0e3'
p6467
sg21
Vmov r0, #0x14
p6468
sg5
L143124L
sg6
Nsg23
S'MOV'
p6469
sg25
S'0x22f14L'
p6470
sg27
Nsba(ibclass
BInstr
p6471
(dp6472
g2
Nsg17
S'ADD     R3, R6, R3      ; "s3_lib.c"'
p6473
sg19
S'033086e0'
p6474
sg21
Vadd r3, r6, r3
p6475
sg5
L143128L
sg6
Nsg23
S'ADD'
p6476
sg25
S'0x22f18L'
p6477
sg27
Nsba(ibclass
BInstr
p6478
(dp6479
g2
Nsg17
S'MOV     R1, #0x85'
p6480
sg19
S'8510a0e3'
p6481
sg21
Vmov r1, #0x85
p6482
sg5
L143132L
sg6
Nsg23
S'MOV'
p6483
sg25
S'0x22f1cL'
p6484
sg27
Nsba(ibclass
BInstr
p6485
(dp6486
g2
Nsg17
S'MOV     R2, #0x10'
p6487
sg19
S'1020a0e3'
p6488
sg21
Vmov r2, #0x10
p6489
sg5
L143136L
sg6
Nsg23
S'MOV'
p6490
sg25
S'0x22f20L'
p6491
sg27
Nsba(ibclass
BInstr
p6492
(dp6493
g2
Nsg17
S'STR     R12, [SP,#0x20+var_20]'
p6494
sg19
S'00c08de5'
p6495
sg21
Vstr ip, [sp]
p6496
sg5
L143140L
sg6
Nsg23
S'STR'
p6497
sg25
S'0x22f24L'
p6498
sg27
Nsba(ibclass
BInstr
p6499
(dp6500
g2
Nsg17
S'BL      ERR_put_error'
p6501
sg19
S'5ab9ffeb'
p6502
sg21
Vbl #0xfffee570
p6503
sg5
L143144L
sg6
Nsg23
S'BL'
p6504
sg25
S'0x22f28L'
p6505
sg27
Nsba(ibclass
BInstr
p6506
(dp6507
g2
Nsg17
S'MOV     R0, ecdh'
p6508
sg19
S'0500a0e1'
p6509
sg21
Vmov r0, r5
p6510
sg5
L143148L
sg6
Nsg23
S'MOV'
p6511
sg25
S'0x22f2cL'
p6512
sg27
Nsba(ibclass
BInstr
p6513
(dp6514
g2
Nsg17
S'B       loc_22954'
p6515
sg19
S'87feffea'
p6516
sg21
Vb #0xfffffa24
p6517
sg5
L143152L
sg6
Nsg23
g286
sg25
S'0x22f30L'
p6518
sg27
Nsbasg98
(lp6519
S'LDR R3, =(aS3_lib_c - address)'
p6520
aS'LDR R12, =0xEA2'
p6521
aS'MOV R0, #0x14'
p6522
aS'ADD R3, R6, R3'
p6523
aS'MOV R1, #0x85'
p6524
aS'MOV R2, #0x10'
p6525
aS'STR R12, mem'
p6526
aS'BL ERR_put_error'
p6527
aS'MOV R0, ecdh'
p6528
aS'B func'
p6529
asg111
Nsg5
S'0x22f0cL'
p6530
sg113
(lp6531
S'0x22bc8L'
p6532
asg6
Nsg115
(lp6533
S'0x22954L'
p6534
asg269
Nsg270
Nsg271
S'1289b044aba5defe7967504e081b2a6d'
p6535
sg273
S'02feb2756eefc3addd75c1c092174a1c'
p6536
sg275
(lp6537
g6455
ag6462
ag6469
ag6476
ag6483
ag6490
ag6497
ag6504
ag6511
ag286
asg277
Nsba(ibclass
BBasicBlock
p6538
(dp6539
g12
Nsg13
(lp6540
(ibclass
BInstr
p6541
(dp6542
g2
Nsg17
S'STMFD   SP!, {R4-R8,LR}'
p6543
sg19
Nsg21
S''
p6544
sg5
L140968L
sg6
Nsg23
S'STM'
p6545
sg25
S'0x226a8L'
p6546
sg27
Nsbasg98
(lp6547
S'STMFD SP!, {R4-R8,LR}'
p6548
asg111
Nsg5
S'0x226a8L'
p6549
sg113
(lp6550
S'0x22d1cL'
p6551
asg6
Nsg115
(lp6552
sg269
Nsg270
Nsg271
S'0c2132b36166716de0d0220567fb911f'
p6553
sg273
S'60e20f987983ac1840fa15a184607eaf'
p6554
sg275
(lp6555
g6545
asg277
Nsbasb.