(ibclass
BFunc
p0
(dp1
S'hash'
p2
NsS'name'
p3
S'PKCS7_set_digest'
p4
sS'start_address'
p5
L1163324L
sS'flag'
p6
NsS'program'
p7
NsS'bbs'
p8
(lp9
(ibclass
BBasicBlock
p10
(dp11
S'function'
p12
NsS'binstrs'
p13
(lp14
(ibclass
BInstr
p15
(dp16
g2
NsS'disasm'
p17
S'STMFD   SP!, {R4-R8,LR}'
p18
sS'bytes'
p19
S'f0412de9'
p20
sS'disasm_striped'
p21
Vpush {r4, r5, r6, r7, r8, lr}
p22
sg5
L1163324L
sg6
NsS'mnem'
p23
S'STM'
p24
sS'address'
p25
S'0x11c03cL'
p26
sS'basicblock'
p27
Nsba(ibclass
BInstr
p28
(dp29
g2
Nsg17
S'LDR     R5, =(_GLOBAL_OFFSET_TABLE_ - 0x11C060)'
p30
sg19
S'bc509fe5'
p31
sg21
Vldr r5, [pc, #0xbc]
p32
sg5
L1163328L
sg6
Nsg23
S'LDR'
p33
sg25
S'0x11c040L'
p34
sg27
Nsba(ibclass
BInstr
p35
(dp36
g2
Nsg17
S'SUB     SP, SP, #8'
p37
sg19
S'08d04de2'
p38
sg21
Vsub sp, sp, #8
p39
sg5
L1163332L
sg6
Nsg23
S'SUB'
p40
sg25
S'0x11c044L'
p41
sg27
Nsba(ibclass
BInstr
p42
(dp43
g2
Nsg17
S'MOV     R6, R0'
p44
sg19
S'0060a0e1'
p45
sg21
Vmov r6, r0
p46
sg5
L1163336L
sg6
Nsg23
S'MOV'
p47
sg25
S'0x11c048L'
p48
sg27
Nsba(ibclass
BInstr
p49
(dp50
g2
Nsg17
S'LDR     R0, [R0,#0x10]'
p51
sg19
S'100090e5'
p52
sg21
Vldr r0, [r0, #0x10]
p53
sg5
L1163340L
sg6
Nsg23
S'LDR'
p54
sg25
S'0x11c04cL'
p55
sg27
Nsba(ibclass
BInstr
p56
(dp57
g2
Nsg17
S'MOV     R8, R1'
p58
sg19
S'0180a0e1'
p59
sg21
Vmov r8, r1
p60
sg5
L1163344L
sg6
Nsg23
S'MOV'
p61
sg25
S'0x11c050L'
p62
sg27
Nsba(ibclass
BInstr
p63
(dp64
g2
Nsg17
S'BL      OBJ_obj2nid'
p65
sg19
S'5d9cfceb'
p66
sg21
Vbl #0xfff2717c
p67
sg5
L1163348L
sg6
Nsg23
S'BL'
p68
sg25
S'0x11c054L'
p69
sg27
Nsba(ibclass
BInstr
p70
(dp71
g2
Nsg17
S'ADD     R5, PC, R5 ; _GLOBAL_OFFSET_TABLE_'
p72
sg19
S'05508fe0'
p73
sg21
Vadd r5, pc, r5
p74
sg5
L1163352L
sg6
Nsg23
S'ADD'
p75
sg25
S'0x11c058L'
p76
sg27
Nsba(ibclass
BInstr
p77
(dp78
g2
Nsg17
S'CMP     R0, #0x19'
p79
sg19
S'190050e3'
p80
sg21
Vcmp r0, #0x19
p81
sg5
L1163356L
sg6
Nsg23
S'CMP'
p82
sg25
S'0x11c05cL'
p83
sg27
Nsba(ibclass
BInstr
p84
(dp85
g2
Nsg17
S'BEQ     loc_11C094'
p86
sg19
S'0b00000a'
p87
sg21
Vbeq #0x34
p88
sg5
L1163360L
sg6
Nsg23
S'B'
p89
sg25
S'0x11c060L'
p90
sg27
NsbasS'disasm_list'
p91
(lp92
S'STMFD SP!, {R4-R8,LR}'
p93
aS'LDR R5, =(_GLOBAL_OFFSET_TABLE_ - 0x11C060)'
p94
aS'SUB SP, SP, #8'
p95
aS'MOV R6, R0'
p96
aS'LDR R0, mem'
p97
aS'MOV R8, R1'
p98
aS'BL OBJ_obj2nid'
p99
aS'ADD R5, PC, R5'
p100
aS'CMP R0, #0x19'
p101
aS'BEQ func'
p102
asS'end_address'
p103
Nsg5
S'0x11c03cL'
p104
sS'preds'
p105
(lp106
sg6
NsS'succs'
p107
(lp108
S'0x11c064L'
p109
aS'0x11c094L'
p110
asS'hash_v3'
p111
NsS'flag_v2'
p112
NsS'hash_v1'
p113
S'9092f3feeb7d97ded8075021053b700f'
p114
sS'hash_v2'
p115
S'cc5c6c3cb72d0d40a9e4249d176854fb'
p116
sS'mnen_list'
p117
(lp118
g24
ag33
ag40
ag47
ag54
ag61
ag68
ag75
ag82
ag89
asS'neighbour_disasm_list'
p119
Nsba(ibclass
BBasicBlock
p120
(dp121
g12
Nsg13
(lp122
(ibclass
BInstr
p123
(dp124
g2
Nsg17
S'LDR     R3, =(aPk7_lib_c - 0x1809D4)'
p125
sg19
S'9c309fe5'
p126
sg21
Vldr r3, [pc, #0x9c]
p127
sg5
L1163364L
sg6
Nsg23
S'LDR'
p128
sg25
S'0x11c064L'
p129
sg27
Nsba(ibclass
BInstr
p130
(dp131
g2
Nsg17
S'LDR     R12, =0x1BA'
p132
sg19
S'9cc09fe5'
p133
sg21
Vldr ip, [pc, #0x9c]
p134
sg5
L1163368L
sg6
Nsg23
S'LDR'
p135
sg25
S'0x11c068L'
p136
sg27
Nsba(ibclass
BInstr
p137
(dp138
g2
Nsg17
S'ADD     R3, R5, R3      ; "pk7_lib.c"'
p139
sg19
S'033085e0'
p140
sg21
Vadd r3, r5, r3
p141
sg5
L1163372L
sg6
Nsg23
S'ADD'
p142
sg25
S'0x11c06cL'
p143
sg27
Nsba(ibclass
BInstr
p144
(dp145
g2
Nsg17
S'MOV     R0, #0x21'
p146
sg19
S'2100a0e3'
p147
sg21
Vmov r0, #0x21
p148
sg5
L1163376L
sg6
Nsg23
S'MOV'
p149
sg25
S'0x11c070L'
p150
sg27
Nsba(ibclass
BInstr
p151
(dp152
g2
Nsg17
S'MOV     R1, #0x7E'
p153
sg19
S'7e10a0e3'
p154
sg21
Vmov r1, #0x7e
p155
sg5
L1163380L
sg6
Nsg23
S'MOV'
p156
sg25
S'0x11c074L'
p157
sg27
Nsba(ibclass
BInstr
p158
(dp159
g2
Nsg17
S'MOV     R2, #0x71'
p160
sg19
S'7120a0e3'
p161
sg21
Vmov r2, #0x71
p162
sg5
L1163384L
sg6
Nsg23
S'MOV'
p163
sg25
S'0x11c078L'
p164
sg27
Nsba(ibclass
BInstr
p165
(dp166
g2
Nsg17
S'STR     R12, [SP,#0x20+var_20]'
p167
sg19
S'00c08de5'
p168
sg21
Vstr ip, [sp]
p169
sg5
L1163388L
sg6
Nsg23
S'STR'
p170
sg25
S'0x11c07cL'
p171
sg27
Nsba(ibclass
BInstr
p172
(dp173
g2
Nsg17
S'BL      ERR_put_error'
p174
sg19
S'24befeeb'
p175
sg21
Vbl #0xfffaf898
p176
sg5
L1163392L
sg6
Nsg23
S'BL'
p177
sg25
S'0x11c080L'
p178
sg27
Nsba(ibclass
BInstr
p179
(dp180
g2
Nsg17
S'MOV     R3, #1'
p181
sg19
S'0130a0e3'
p182
sg21
Vmov r3, #1
p183
sg5
L1163396L
sg6
Nsg23
S'MOV'
p184
sg25
S'0x11c084L'
p185
sg27
Nsbasg91
(lp186
S'LDR R3, =(aPk7_lib_c - 0x1809D4)'
p187
aS'LDR R12, =0x1BA'
p188
aS'ADD R3, R5, R3'
p189
aS'MOV R0, #0x21'
p190
aS'MOV R1, #0x7E'
p191
aS'MOV R2, #0x71'
p192
aS'STR R12, mem'
p193
aS'BL ERR_put_error'
p194
aS'MOV R3, #1'
p195
asg103
Nsg5
S'0x11c064L'
p196
sg105
(lp197
S'0x11c03cL'
p198
asg6
Nsg107
(lp199
S'0x11c088L'
p200
asg111
Nsg112
Nsg113
S'c59b2fe6b3451e1d9932e0fd597556e8'
p201
sg115
S'10ca6a421140d593dca319b8710f8f28'
p202
sg117
(lp203
g128
ag135
ag142
ag149
ag156
ag163
ag170
ag177
ag184
asg119
Nsba(ibclass
BBasicBlock
p204
(dp205
g12
Nsg13
(lp206
(ibclass
BInstr
p207
(dp208
g2
Nsg17
S'MOV     R0, R3'
p209
sg19
S'0300a0e1'
p210
sg21
Vmov r0, r3
p211
sg5
L1163400L
sg6
Nsg23
S'MOV'
p212
sg25
S'0x11c088L'
p213
sg27
Nsba(ibclass
BInstr
p214
(dp215
g2
Nsg17
S'ADD     SP, SP, #8'
p216
sg19
S'08d08de2'
p217
sg21
Vadd sp, sp, #8
p218
sg5
L1163404L
sg6
Nsg23
S'ADD'
p219
sg25
S'0x11c08cL'
p220
sg27
Nsba(ibclass
BInstr
p221
(dp222
g2
Nsg17
S'LDMFD   SP!, {R4-R8,PC}'
p223
sg19
S'f081bde8'
p224
sg21
Vpop {r4, r5, r6, r7, r8, pc}
p225
sg5
L1163408L
sg6
Nsg23
S'LDM'
p226
sg25
S'0x11c090L'
p227
sg27
Nsbasg91
(lp228
S'MOV R0, R3'
p229
aS'ADD SP, SP, #8'
p230
aS'LDMFD SP!, {R4-R8,PC}'
p231
asg103
Nsg5
S'0x11c088L'
p232
sg105
(lp233
S'0x11c064L'
p234
aS'0x11c0b0L'
p235
aS'0x11c0dcL'
p236
asg6
Nsg107
(lp237
sg111
Nsg112
Nsg113
S'e8608f9e90923baa465df19833e21407'
p238
sg115
S'2da61d1efb6ef8f53bf5dc47431f5d74'
p239
sg117
(lp240
g212
ag219
ag226
asg119
Nsba(ibclass
BBasicBlock
p241
(dp242
g12
Nsg13
(lp243
(ibclass
BInstr
p244
(dp245
g2
Nsg17
S'LDR     R3, [R6,#0x14]'
p246
sg19
S'143096e5'
p247
sg21
Vldr r3, [r6, #0x14]
p248
sg5
L1163412L
sg6
Nsg23
S'LDR'
p249
sg25
S'0x11c094L'
p250
sg27
Nsba(ibclass
BInstr
p251
(dp252
g2
Nsg17
S'LDR     R4, [R3,#4]'
p253
sg19
S'044093e5'
p254
sg21
Vldr r4, [r3, #4]
p255
sg5
L1163416L
sg6
Nsg23
S'LDR'
p256
sg25
S'0x11c098L'
p257
sg27
Nsba(ibclass
BInstr
p258
(dp259
g2
Nsg17
S'BL      ASN1_TYPE_new'
p260
sg19
S'263dffeb'
p261
sg21
Vbl #0xfffcf4a0
p262
sg5
L1163420L
sg6
Nsg23
S'BL'
p263
sg25
S'0x11c09cL'
p264
sg27
Nsba(ibclass
BInstr
p265
(dp266
g2
Nsg17
S'CMP     R0, #0'
p267
sg19
S'000050e3'
p268
sg21
Vcmp r0, #0
p269
sg5
L1163424L
sg6
Nsg23
S'CMP'
p270
sg25
S'0x11c0a0L'
p271
sg27
Nsba(ibclass
BInstr
p272
(dp273
g2
Nsg17
S'MOV     R7, R0'
p274
sg19
S'0070a0e1'
p275
sg21
Vmov r7, r0
p276
sg5
L1163428L
sg6
Nsg23
S'MOV'
p277
sg25
S'0x11c0a4L'
p278
sg27
Nsba(ibclass
BInstr
p279
(dp280
g2
Nsg17
S'STR     R0, [R4,#4]'
p281
sg19
S'040084e5'
p282
sg21
Vstr r0, [r4, #4]
p283
sg5
L1163432L
sg6
Nsg23
S'STR'
p284
sg25
S'0x11c0a8L'
p285
sg27
Nsba(ibclass
BInstr
p286
(dp287
g2
Nsg17
S'BEQ     loc_11C0DC'
p288
sg19
S'0a00000a'
p289
sg21
Vbeq #0x30
p290
sg5
L1163436L
sg6
Nsg23
g89
sg25
S'0x11c0acL'
p291
sg27
Nsbasg91
(lp292
S'LDR R3, mem'
p293
aS'LDR R4, mem'
p294
aS'BL ASN1_TYPE_new'
p295
aS'CMP R0, #0'
p296
aS'MOV R7, R0'
p297
aS'STR R0, mem'
p298
aS'BEQ func'
p299
asg103
Nsg5
S'0x11c094L'
p300
sg105
(lp301
S'0x11c03cL'
p302
asg6
Nsg107
(lp303
S'0x11c0b0L'
p304
aS'0x11c0dcL'
p305
asg111
Nsg112
Nsg113
S'61317d6bce132affc1c71a8530a3504b'
p306
sg115
S'55f7a1308007b0dcf7f5874ca16c4332'
p307
sg117
(lp308
g249
ag256
ag263
ag270
ag277
ag284
ag89
asg119
Nsba(ibclass
BBasicBlock
p309
(dp310
g12
Nsg13
(lp311
(ibclass
BInstr
p312
(dp313
g2
Nsg17
S'LDR     R3, [R6,#0x14]'
p314
sg19
S'143096e5'
p315
sg21
Vldr r3, [r6, #0x14]
p316
sg5
L1163440L
sg6
Nsg23
S'LDR'
p317
sg25
S'0x11c0b0L'
p318
sg27
Nsba(ibclass
BInstr
p319
(dp320
g2
Nsg17
S'MOV     R0, R8'
p321
sg19
S'0800a0e1'
p322
sg21
Vmov r0, r8
p323
sg5
L1163444L
sg6
Nsg23
S'MOV'
p324
sg25
S'0x11c0b4L'
p325
sg27
Nsba(ibclass
BInstr
p326
(dp327
g2
Nsg17
S'LDR     R4, [R3,#4]'
p328
sg19
S'044093e5'
p329
sg21
Vldr r4, [r3, #4]
p330
sg5
L1163448L
sg6
Nsg23
S'LDR'
p331
sg25
S'0x11c0b8L'
p332
sg27
Nsba(ibclass
BInstr
p333
(dp334
g2
Nsg17
S'MOV     R3, #5'
p335
sg19
S'0530a0e3'
p336
sg21
Vmov r3, #5
p337
sg5
L1163452L
sg6
Nsg23
S'MOV'
p338
sg25
S'0x11c0bcL'
p339
sg27
Nsba(ibclass
BInstr
p340
(dp341
g2
Nsg17
S'LDR     R2, [R4,#4]'
p342
sg19
S'042094e5'
p343
sg21
Vldr r2, [r4, #4]
p344
sg5
L1163456L
sg6
Nsg23
S'LDR'
p345
sg25
S'0x11c0c0L'
p346
sg27
Nsba(ibclass
BInstr
p347
(dp348
g2
Nsg17
S'STR     R3, [R2]'
p349
sg19
S'003082e5'
p350
sg21
Vstr r3, [r2]
p351
sg5
L1163460L
sg6
Nsg23
S'STR'
p352
sg25
S'0x11c0c4L'
p353
sg27
Nsba(ibclass
BInstr
p354
(dp355
g2
Nsg17
S'BL      EVP_MD_type'
p356
sg19
S'8fe8feeb'
p357
sg21
Vbl #0xfffba244
p358
sg5
L1163464L
sg6
Nsg23
S'BL'
p359
sg25
S'0x11c0c8L'
p360
sg27
Nsba(ibclass
BInstr
p361
(dp362
g2
Nsg17
S'BL      OBJ_nid2obj'
p363
sg19
S'ff9cfceb'
p364
sg21
Vbl #0xfff27404
p365
sg5
L1163468L
sg6
Nsg23
S'BL'
p366
sg25
S'0x11c0ccL'
p367
sg27
Nsba(ibclass
BInstr
p368
(dp369
g2
Nsg17
S'MOV     R3, #1'
p370
sg19
S'0130a0e3'
p371
sg21
Vmov r3, #1
p372
sg5
L1163472L
sg6
Nsg23
S'MOV'
p373
sg25
S'0x11c0d0L'
p374
sg27
Nsba(ibclass
BInstr
p375
(dp376
g2
Nsg17
S'STR     R0, [R4]'
p377
sg19
S'000084e5'
p378
sg21
Vstr r0, [r4]
p379
sg5
L1163476L
sg6
Nsg23
S'STR'
p380
sg25
S'0x11c0d4L'
p381
sg27
Nsba(ibclass
BInstr
p382
(dp383
g2
Nsg17
S'B       loc_11C088'
p384
sg19
S'eaffffea'
p385
sg21
Vb #0xffffffb0
p386
sg5
L1163480L
sg6
Nsg23
g89
sg25
S'0x11c0d8L'
p387
sg27
Nsbasg91
(lp388
S'LDR R3, mem'
p389
aS'MOV R0, R8'
p390
aS'LDR R4, mem'
p391
aS'MOV R3, #5'
p392
aS'LDR R2, mem'
p393
aS'STR R3, mem'
p394
aS'BL EVP_MD_type'
p395
aS'BL OBJ_nid2obj'
p396
aS'MOV R3, #1'
p397
aS'STR R0, mem'
p398
aS'B func'
p399
asg103
Nsg5
S'0x11c0b0L'
p400
sg105
(lp401
S'0x11c094L'
p402
asg6
Nsg107
(lp403
S'0x11c088L'
p404
asg111
Nsg112
Nsg113
S'408812e458589c2e81110dc49d7b3d98'
p405
sg115
S'496ccc8a342bc8c7d7455fa284bbd5bc'
p406
sg117
(lp407
g317
ag324
ag331
ag338
ag345
ag352
ag359
ag366
ag373
ag380
ag89
asg119
Nsba(ibclass
BBasicBlock
p408
(dp409
g12
Nsg13
(lp410
(ibclass
BInstr
p411
(dp412
g2
Nsg17
S'LDR     R3, =(aPk7_lib_c - 0x1809D4)'
p413
sg19
S'24309fe5'
p414
sg21
Vldr r3, [pc, #0x24]
p415
sg5
L1163484L
sg6
Nsg23
S'LDR'
p416
sg25
S'0x11c0dcL'
p417
sg27
Nsba(ibclass
BInstr
p418
(dp419
g2
Nsg17
S'LDR     R12, =0x1B2'
p420
sg19
S'28c09fe5'
p421
sg21
Vldr ip, [pc, #0x28]
p422
sg5
L1163488L
sg6
Nsg23
S'LDR'
p423
sg25
S'0x11c0e0L'
p424
sg27
Nsba(ibclass
BInstr
p425
(dp426
g2
Nsg17
S'ADD     R3, R5, R3      ; "pk7_lib.c"'
p427
sg19
S'033085e0'
p428
sg21
Vadd r3, r5, r3
p429
sg5
L1163492L
sg6
Nsg23
S'ADD'
p430
sg25
S'0x11c0e4L'
p431
sg27
Nsba(ibclass
BInstr
p432
(dp433
g2
Nsg17
S'MOV     R0, #0x21'
p434
sg19
S'2100a0e3'
p435
sg21
Vmov r0, #0x21
p436
sg5
L1163496L
sg6
Nsg23
S'MOV'
p437
sg25
S'0x11c0e8L'
p438
sg27
Nsba(ibclass
BInstr
p439
(dp440
g2
Nsg17
S'MOV     R1, #0x7E'
p441
sg19
S'7e10a0e3'
p442
sg21
Vmov r1, #0x7e
p443
sg5
L1163500L
sg6
Nsg23
S'MOV'
p444
sg25
S'0x11c0ecL'
p445
sg27
Nsba(ibclass
BInstr
p446
(dp447
g2
Nsg17
S'MOV     R2, #0x41'
p448
sg19
S'4120a0e3'
p449
sg21
Vmov r2, #0x41
p450
sg5
L1163504L
sg6
Nsg23
S'MOV'
p451
sg25
S'0x11c0f0L'
p452
sg27
Nsba(ibclass
BInstr
p453
(dp454
g2
Nsg17
S'STR     R12, [SP,#0x20+var_20]'
p455
sg19
S'00c08de5'
p456
sg21
Vstr ip, [sp]
p457
sg5
L1163508L
sg6
Nsg23
S'STR'
p458
sg25
S'0x11c0f4L'
p459
sg27
Nsba(ibclass
BInstr
p460
(dp461
g2
Nsg17
S'BL      ERR_put_error'
p462
sg19
S'06befeeb'
p463
sg21
Vbl #0xfffaf820
p464
sg5
L1163512L
sg6
Nsg23
S'BL'
p465
sg25
S'0x11c0f8L'
p466
sg27
Nsba(ibclass
BInstr
p467
(dp468
g2
Nsg17
S'MOV     R3, R7'
p469
sg19
S'0730a0e1'
p470
sg21
Vmov r3, r7
p471
sg5
L1163516L
sg6
Nsg23
S'MOV'
p472
sg25
S'0x11c0fcL'
p473
sg27
Nsba(ibclass
BInstr
p474
(dp475
g2
Nsg17
S'B       loc_11C088'
p476
sg19
S'e0ffffea'
p477
sg21
Vb #0xffffff88
p478
sg5
L1163520L
sg6
Nsg23
g89
sg25
S'0x11c100L'
p479
sg27
Nsbasg91
(lp480
S'LDR R3, =(aPk7_lib_c - 0x1809D4)'
p481
aS'LDR R12, =0x1B2'
p482
aS'ADD R3, R5, R3'
p483
aS'MOV R0, #0x21'
p484
aS'MOV R1, #0x7E'
p485
aS'MOV R2, #0x41'
p486
aS'STR R12, mem'
p487
aS'BL ERR_put_error'
p488
aS'MOV R3, R7'
p489
aS'B func'
p490
asg103
Nsg5
S'0x11c0dcL'
p491
sg105
(lp492
S'0x11c094L'
p493
asg6
Nsg107
(lp494
S'0x11c088L'
p495
asg111
Nsg112
Nsg113
S'57820e5b3fba6e557e3809e6dadd8562'
p496
sg115
S'22f30603de89dffaf4d60c629d2bb25b'
p497
sg117
(lp498
g416
ag423
ag430
ag437
ag444
ag451
ag458
ag465
ag472
ag89
asg119
Nsbasb.