(ibclass
BFunc
p0
(dp1
S'hash'
p2
NsS'name'
p3
S'X509_cmp_time'
p4
sS'start_address'
p5
L1048724L
sS'flag'
p6
NsS'program'
p7
NsS'bbs'
p8
(lp9
(ibclass
BBasicBlock
p10
(dp11
S'function'
p12
NsS'binstrs'
p13
(lp14
(ibclass
BInstr
p15
(dp16
g2
NsS'disasm'
p17
S'LDR     R3, [R0,#4]'
p18
sS'bytes'
p19
S'043090e5'
p20
sS'disasm_striped'
p21
Vldr r3, [r0, #4]
p22
sg5
L1048724L
sg6
NsS'mnem'
p23
S'LDR'
p24
sS'address'
p25
S'0x100094L'
p26
sS'basicblock'
p27
Nsba(ibclass
BInstr
p28
(dp29
g2
Nsg17
S'STMFD   SP!, {R4-R8,LR}'
p30
sg19
S'f0412de9'
p31
sg21
Vpush {r4, r5, r6, r7, r8, lr}
p32
sg5
L1048728L
sg6
Nsg23
S'STM'
p33
sg25
S'0x100098L'
p34
sg27
Nsba(ibclass
BInstr
p35
(dp36
g2
Nsg17
S'LDR     R4, [R0]'
p37
sg19
S'004090e5'
p38
sg21
Vldr r4, [r0]
p39
sg5
L1048732L
sg6
Nsg23
S'LDR'
p40
sg25
S'0x10009cL'
p41
sg27
Nsba(ibclass
BInstr
p42
(dp43
g2
Nsg17
S'CMP     R3, #0x17'
p44
sg19
S'170053e3'
p45
sg21
Vcmp r3, #0x17
p46
sg5
L1048736L
sg6
Nsg23
S'CMP'
p47
sg25
S'0x1000a0L'
p48
sg27
Nsba(ibclass
BInstr
p49
(dp50
g2
Nsg17
S'SUB     SP, SP, #0x40'
p51
sg19
S'40d04de2'
p52
sg21
Vsub sp, sp, #0x40
p53
sg5
L1048740L
sg6
Nsg23
S'SUB'
p54
sg25
S'0x1000a4L'
p55
sg27
Nsba(ibclass
BInstr
p56
(dp57
g2
Nsg17
S'MOV     R6, R0'
p58
sg19
S'0060a0e1'
p59
sg21
Vmov r6, r0
p60
sg5
L1048744L
sg6
Nsg23
S'MOV'
p61
sg25
S'0x1000a8L'
p62
sg27
Nsba(ibclass
BInstr
p63
(dp64
g2
Nsg17
S'MOV     R8, R1'
p65
sg19
S'0180a0e1'
p66
sg21
Vmov r8, r1
p67
sg5
L1048748L
sg6
Nsg23
S'MOV'
p68
sg25
S'0x1000acL'
p69
sg27
Nsba(ibclass
BInstr
p70
(dp71
g2
Nsg17
S'LDR     R5, [R0,#8]'
p72
sg19
S'085090e5'
p73
sg21
Vldr r5, [r0, #8]
p74
sg5
L1048752L
sg6
Nsg23
S'LDR'
p75
sg25
S'0x1000b0L'
p76
sg27
Nsba(ibclass
BInstr
p77
(dp78
g2
Nsg17
S'BEQ     loc_1002B4'
p79
sg19
S'7e00000a'
p80
sg21
Vbeq #0x200
p81
sg5
L1048756L
sg6
Nsg23
S'B'
p82
sg25
S'0x1000b4L'
p83
sg27
NsbasS'disasm_list'
p84
(lp85
S'LDR R3, mem'
p86
aS'STMFD SP!, {R4-R8,LR}'
p87
aS'LDR R4, mem'
p88
aS'CMP R3, #0x17'
p89
aS'SUB SP, SP, #0x40'
p90
aS'MOV R6, R0'
p91
aS'MOV R8, R1'
p92
aS'LDR R5, mem'
p93
aS'BEQ func'
p94
asS'end_address'
p95
Nsg5
S'0x100094L'
p96
sS'preds'
p97
(lp98
sg6
NsS'succs'
p99
(lp100
S'0x1000b8L'
p101
aS'0x1002b4L'
p102
asS'hash_v3'
p103
NsS'flag_v2'
p104
NsS'hash_v1'
p105
S'8be0f44c294ee00d75a7b0fbec9c704f'
p106
sS'hash_v2'
p107
S'271c633d9f9e73dd3316b0571ed2991a'
p108
sS'mnen_list'
p109
(lp110
g24
ag33
ag40
ag47
ag54
ag61
ag68
ag75
ag82
asS'neighbour_disasm_list'
p111
Nsba(ibclass
BBasicBlock
p112
(dp113
g12
Nsg13
(lp114
(ibclass
BInstr
p115
(dp116
g2
Nsg17
S'CMP     R4, #0x17'
p117
sg19
S'170054e3'
p118
sg21
Vcmp r4, #0x17
p119
sg5
L1048760L
sg6
Nsg23
S'CMP'
p120
sg25
S'0x1000b8L'
p121
sg27
Nsba(ibclass
BInstr
p122
(dp123
g2
Nsg17
S'MOVLE   R3, #0'
p124
sg19
S'0030a0d3'
p125
sg21
Vmovle r3, #0
p126
sg5
L1048764L
sg6
Nsg23
S'MOV'
p127
sg25
S'0x1000bcL'
p128
sg27
Nsba(ibclass
BInstr
p129
(dp130
g2
Nsg17
S'MOVGT   R3, #1'
p131
sg19
S'0130a0c3'
p132
sg21
Vmovgt r3, #1
p133
sg5
L1048768L
sg6
Nsg23
S'MOV'
p134
sg25
S'0x1000c0L'
p135
sg27
Nsba(ibclass
BInstr
p136
(dp137
g2
Nsg17
S'CMP     R4, #0xC'
p138
sg19
S'0c0054e3'
p139
sg21
Vcmp r4, #0xc
p140
sg5
L1048772L
sg6
Nsg23
S'CMP'
p141
sg25
S'0x1000c4L'
p142
sg27
Nsba(ibclass
BInstr
p143
(dp144
g2
Nsg17
S'ORRLE   R3, R3, #1'
p145
sg19
S'013083d3'
p146
sg21
Vorrle r3, r3, #1
p147
sg5
L1048776L
sg6
Nsg23
S'ORR'
p148
sg25
S'0x1000c8L'
p149
sg27
Nsba(ibclass
BInstr
p150
(dp151
g2
Nsg17
S'CMP     R3, #0'
p152
sg19
S'000053e3'
p153
sg21
Vcmp r3, #0
p154
sg5
L1048780L
sg6
Nsg23
S'CMP'
p155
sg25
S'0x1000ccL'
p156
sg27
Nsba(ibclass
BInstr
p157
(dp158
g2
Nsg17
S'BEQ     loc_1000E0'
p159
sg19
S'0200000a'
p160
sg21
Vbeq #0x10
p161
sg5
L1048784L
sg6
Nsg23
g82
sg25
S'0x1000d0L'
p162
sg27
Nsbasg84
(lp163
S'CMP R4, #0x17'
p164
aS'MOVLE R3, #0'
p165
aS'MOVGT R3, #1'
p166
aS'CMP R4, #0xC'
p167
aS'ORRLE R3, R3, #1'
p168
aS'CMP R3, #0'
p169
aS'BEQ func'
p170
asg95
Nsg5
S'0x1000b8L'
p171
sg97
(lp172
S'0x100094L'
p173
asg6
Nsg99
(lp174
S'0x1000d4L'
p175
aS'0x1000e0L'
p176
asg103
Nsg104
Nsg105
S'7225b38da2e14f0d069f1b7c8b589a0e'
p177
sg107
S'276521fe7a7e3ae414bda07d212af244'
p178
sg109
(lp179
g120
ag127
ag134
ag141
ag148
ag155
ag82
asg111
Nsba(ibclass
BBasicBlock
p180
(dp181
g12
Nsg13
(lp182
(ibclass
BInstr
p183
(dp184
g2
Nsg17
S'MOV     R0, #0'
p185
sg19
S'0000a0e3'
p186
sg21
Vmov r0, #0
p187
sg5
L1048788L
sg6
Nsg23
S'MOV'
p188
sg25
S'0x1000d4L'
p189
sg27
Nsbasg84
(lp190
S'MOV R0, #0'
p191
asg95
Nsg5
S'0x1000d4L'
p192
sg97
(lp193
S'0x1000b8L'
p194
aS'0x10014cL'
p195
aS'0x100158L'
p196
aS'0x100160L'
p197
aS'0x100170L'
p198
aS'0x10017cL'
p199
aS'0x100184L'
p200
aS'0x100190L'
p201
aS'0x100198L'
p202
aS'0x1001a4L'
p203
aS'0x100200L'
p204
aS'0x1002b4L'
p205
aS'0x10031cL'
p206
aS'0x1003a8L'
p207
aS'0x1003c0L'
p208
asg6
Nsg99
(lp209
S'0x1000d8L'
p210
asg103
Nsg104
Nsg105
S'17b32100aef1fc19670be7fd58bc85df'
p211
sg107
S'e733d4d75975b8499f45ea9e00b5f330'
p212
sg109
(lp213
g188
asg111
Nsba(ibclass
BBasicBlock
p214
(dp215
g12
Nsg13
(lp216
(ibclass
BInstr
p217
(dp218
g2
Nsg17
S'ADD     SP, SP, #0x40'
p219
sg19
S'40d08de2'
p220
sg21
Vadd sp, sp, #0x40
p221
sg5
L1048792L
sg6
Nsg23
S'ADD'
p222
sg25
S'0x1000d8L'
p223
sg27
Nsba(ibclass
BInstr
p224
(dp225
g2
Nsg17
S'LDMFD   SP!, {R4-R8,PC}'
p226
sg19
S'f081bde8'
p227
sg21
Vpop {r4, r5, r6, r7, r8, pc}
p228
sg5
L1048796L
sg6
Nsg23
S'LDM'
p229
sg25
S'0x1000dcL'
p230
sg27
Nsbasg84
(lp231
S'ADD SP, SP, #0x40'
p232
aS'LDMFD SP!, {R4-R8,PC}'
p233
asg95
Nsg5
S'0x1000d8L'
p234
sg97
(lp235
S'0x1000d4L'
p236
aS'0x100290L'
p237
aS'0x100298L'
p238
aS'0x1002acL'
p239
aS'0x1003d0L'
p240
asg6
Nsg99
(lp241
sg103
Nsg104
Nsg105
S'81dfc9c624f4be428bc11786e0f3e441'
p242
sg107
S'b067b9f835e40a49d0dd405d37886749'
p243
sg109
(lp244
g222
ag229
asg111
Nsba(ibclass
BBasicBlock
p245
(dp246
g12
Nsg13
(lp247
(ibclass
BInstr
p248
(dp249
g2
Nsg17
S'ADD     R7, SP, #0x58+dest'
p250
sg19
S'18708de2'
p251
sg21
Vadd r7, sp, #0x18
p252
sg5
L1048800L
sg6
Nsg23
S'ADD'
p253
sg25
S'0x1000e0L'
p254
sg27
Nsba(ibclass
BInstr
p255
(dp256
g2
Nsg17
S'MOV     R1, R5          ; src'
p257
sg19
S'0510a0e1'
p258
sg21
Vmov r1, r5
p259
sg5
L1048804L
sg6
Nsg23
S'MOV'
p260
sg25
S'0x1000e4L'
p261
sg27
Nsba(ibclass
BInstr
p262
(dp263
g2
Nsg17
S'MOV     R2, #0xC        ; n'
p264
sg19
S'0c20a0e3'
p265
sg21
Vmov r2, #0xc
p266
sg5
L1048808L
sg6
Nsg23
S'MOV'
p267
sg25
S'0x1000e8L'
p268
sg27
Nsba(ibclass
BInstr
p269
(dp270
g2
Nsg17
S'MOV     R0, R7          ; dest'
p271
sg19
S'0700a0e1'
p272
sg21
Vmov r0, r7
p273
sg5
L1048812L
sg6
Nsg23
S'MOV'
p274
sg25
S'0x1000ecL'
p275
sg27
Nsba(ibclass
BInstr
p276
(dp277
g2
Nsg17
S'BL      memcpy'
p278
sg19
S'c2f8fceb'
p279
sg21
Vbl #0xfff3e310
p280
sg5
L1048816L
sg6
Nsg23
S'BL'
p281
sg25
S'0x1000f0L'
p282
sg27
Nsba(ibclass
BInstr
p283
(dp284
g2
Nsg17
S'ADD     R1, R5, #0xC'
p285
sg19
S'0c1085e2'
p286
sg21
Vadd r1, r5, #0xc
p287
sg5
L1048820L
sg6
Nsg23
S'ADD'
p288
sg25
S'0x1000f4L'
p289
sg27
Nsba(ibclass
BInstr
p290
(dp291
g2
Nsg17
S'LDRB    R3, [R1]'
p292
sg19
S'0030d1e5'
p293
sg21
Vldrb r3, [r1]
p294
sg5
L1048824L
sg6
Nsg23
S'LDR'
p295
sg25
S'0x1000f8L'
p296
sg27
Nsba(ibclass
BInstr
p297
(dp298
g2
Nsg17
S'SUB     R0, R4, #0xC'
p299
sg19
S'0c0044e2'
p300
sg21
Vsub r0, r4, #0xc
p301
sg5
L1048828L
sg6
Nsg23
S'SUB'
p302
sg25
S'0x1000fcL'
p303
sg27
Nsba(ibclass
BInstr
p304
(dp305
g2
Nsg17
S'CMP     R3, #0x2D'
p306
sg19
S'2d0053e3'
p307
sg21
Vcmp r3, #0x2d
p308
sg5
L1048832L
sg6
Nsg23
S'CMP'
p309
sg25
S'0x100100L'
p310
sg27
Nsba(ibclass
BInstr
p311
(dp312
g2
Nsg17
S'CMPNE   R3, #0x5A'
p313
sg19
S'5a005313'
p314
sg21
Vcmpne r3, #0x5a
p315
sg5
L1048836L
sg6
Nsg23
S'CMP'
p316
sg25
S'0x100104L'
p317
sg27
Nsba(ibclass
BInstr
p318
(dp319
g2
Nsg17
S'ADD     R2, SP, #0x58+var_34'
p320
sg19
S'24208de2'
p321
sg21
Vadd r2, sp, #0x24
p322
sg5
L1048840L
sg6
Nsg23
S'ADD'
p323
sg25
S'0x100108L'
p324
sg27
Nsba(ibclass
BInstr
p325
(dp326
g2
Nsg17
S'ADD     R12, SP, #0x58+var_33'
p327
sg19
S'25c08de2'
p328
sg21
Vadd ip, sp, #0x25
p329
sg5
L1048844L
sg6
Nsg23
S'ADD'
p330
sg25
S'0x10010cL'
p331
sg27
Nsba(ibclass
BInstr
p332
(dp333
g2
Nsg17
S'ADD     LR, SP, #0x58+var_32'
p334
sg19
S'26e08de2'
p335
sg21
Vadd lr, sp, #0x26
p336
sg5
L1048848L
sg6
Nsg23
S'ADD'
p337
sg25
S'0x100110L'
p338
sg27
Nsba(ibclass
BInstr
p339
(dp340
g2
Nsg17
S'ADD     R4, SP, #0x58+var_31'
p341
sg19
S'27408de2'
p342
sg21
Vadd r4, sp, #0x27
p343
sg5
L1048852L
sg6
Nsg23
S'ADD'
p344
sg25
S'0x100114L'
p345
sg27
Nsba(ibclass
BInstr
p346
(dp347
g2
Nsg17
S'MOVNE   R5, #0'
p348
sg19
S'0050a013'
p349
sg21
Vmovne r5, #0
p350
sg5
L1048856L
sg6
Nsg23
S'MOV'
p351
sg25
S'0x100118L'
p352
sg27
Nsba(ibclass
BInstr
p353
(dp354
g2
Nsg17
S'MOVEQ   R5, #1'
p355
sg19
S'0150a003'
p356
sg21
Vmoveq r5, #1
p357
sg5
L1048860L
sg6
Nsg23
S'MOV'
p358
sg25
S'0x10011cL'
p359
sg27
Nsba(ibclass
BInstr
p360
(dp361
g2
Nsg17
S'BNE     loc_100314'
p362
sg19
S'7b00001a'
p363
sg21
Vbne #0x1f4
p364
sg5
L1048864L
sg6
Nsg23
g82
sg25
S'0x100120L'
p365
sg27
Nsbasg84
(lp366
S'ADD R7, SP, #0x58+dest'
p367
aS'MOV R1, R5'
p368
aS'MOV R2, #0xC'
p369
aS'MOV R0, R7'
p370
aS'BL memcpy'
p371
aS'ADD R1, R5, #0xC'
p372
aS'LDRB R3, mem'
p373
aS'SUB R0, R4, #0xC'
p374
aS'CMP R3, #0x2D'
p375
aS'CMPNE R3, #0x5A'
p376
aS'ADD R2, SP, #0x58+var_34'
p377
aS'ADD R12, SP, #0x58+var_33'
p378
aS'ADD LR, SP, #0x58+var_32'
p379
aS'ADD R4, SP, #0x58+var_31'
p380
aS'MOVNE R5, #0'
p381
aS'MOVEQ R5, #1'
p382
aS'BNE func'
p383
asg95
Nsg5
S'0x1000e0L'
p384
sg97
(lp385
S'0x1000b8L'
p386
asg6
Nsg99
(lp387
S'0x100124L'
p388
aS'0x100314L'
p389
asg103
Nsg104
Nsg105
S'80dc46c8d90b60fd7696c16d6940f95f'
p390
sg107
S'98a9d07e5fa2423468aa9b8a2f7a7200'
p391
sg109
(lp392
g253
ag260
ag267
ag274
ag281
ag288
ag295
ag302
ag309
ag316
ag323
ag330
ag337
ag344
ag351
ag358
ag82
asg111
Nsba(ibclass
BBasicBlock
p393
(dp394
g12
Nsg13
(lp395
(ibclass
BInstr
p396
(dp397
g2
Nsg17
S'MOV     R3, #0x30'
p398
sg19
S'3030a0e3'
p399
sg21
Vmov r3, #0x30
p400
sg5
L1048868L
sg6
Nsg23
S'MOV'
p401
sg25
S'0x100124L'
p402
sg27
Nsba(ibclass
BInstr
p403
(dp404
g2
Nsg17
S'STRB    R3, [R2]'
p405
sg19
S'0030c2e5'
p406
sg21
Vstrb r3, [r2]
p407
sg5
L1048872L
sg6
Nsg23
S'STR'
p408
sg25
S'0x100128L'
p409
sg27
Nsba(ibclass
BInstr
p410
(dp411
g2
Nsg17
S'STRB    R3, [R12]'
p412
sg19
S'0030cce5'
p413
sg21
Vstrb r3, [ip]
p414
sg5
L1048876L
sg6
Nsg23
S'STR'
p415
sg25
S'0x10012cL'
p416
sg27
Nsbasg84
(lp417
S'MOV R3, #0x30'
p418
aS'STRB R3, mem'
p419
aS'STRB R3, mem'
p420
asg95
Nsg5
S'0x100124L'
p421
sg97
(lp422
S'0x1000e0L'
p423
aS'0x1002d0L'
p424
aS'0x100314L'
p425
asg6
Nsg99
(lp426
S'0x100130L'
p427
asg103
Nsg104
Nsg105
S'4bb8b3a5646c553dbd6b1b54422704dd'
p428
sg107
S'a3537607b7c5dfc68fa1dffe43ec81c0'
p429
sg109
(lp430
g401
ag408
ag415
asg111
Nsba(ibclass
BBasicBlock
p431
(dp432
g12
Nsg13
(lp433
(ibclass
BInstr
p434
(dp435
g2
Nsg17
S'MOV     R3, #0x5A'
p436
sg19
S'5a30a0e3'
p437
sg21
Vmov r3, #0x5a
p438
sg5
L1048880L
sg6
Nsg23
S'MOV'
p439
sg25
S'0x100130L'
p440
sg27
Nsba(ibclass
BInstr
p441
(dp442
g2
Nsg17
S'MOV     R2, #0'
p443
sg19
S'0020a0e3'
p444
sg21
Vmov r2, #0
p445
sg5
L1048884L
sg6
Nsg23
S'MOV'
p446
sg25
S'0x100134L'
p447
sg27
Nsba(ibclass
BInstr
p448
(dp449
g2
Nsg17
S'STRB    R3, [LR]'
p450
sg19
S'0030cee5'
p451
sg21
Vstrb r3, [lr]
p452
sg5
L1048888L
sg6
Nsg23
S'STR'
p453
sg25
S'0x100138L'
p454
sg27
Nsba(ibclass
BInstr
p455
(dp456
g2
Nsg17
S'STRB    R2, [R4]'
p457
sg19
S'0020c4e5'
p458
sg21
Vstrb r2, [r4]
p459
sg5
L1048892L
sg6
Nsg23
S'STR'
p460
sg25
S'0x10013cL'
p461
sg27
Nsbasg84
(lp462
S'MOV R3, #0x5A'
p463
aS'MOV R2, #0'
p464
aS'STRB R3, mem'
p465
aS'STRB R2, mem'
p466
asg95
Nsg5
S'0x100130L'
p467
sg97
(lp468
S'0x100124L'
p469
aS'0x10033cL'
p470
aS'0x10036cL'
p471
aS'0x100370L'
p472
asg6
Nsg99
(lp473
S'0x100140L'
p474
asg103
Nsg104
Nsg105
S'097db0acf110add0730a6deacfa380e1'
p475
sg107
S'724ce01f7607632c64a3391db58944ca'
p476
sg109
(lp477
g439
ag446
ag453
ag460
asg111
Nsba(ibclass
BBasicBlock
p478
(dp479
g12
Nsg13
(lp480
(ibclass
BInstr
p481
(dp482
g2
Nsg17
S'LDRB    R12, [R1]'
p483
sg19
S'00c0d1e5'
p484
sg21
Vldrb ip, [r1]
p485
sg5
L1048896L
sg6
Nsg23
S'LDR'
p486
sg25
S'0x100140L'
p487
sg27
Nsba(ibclass
BInstr
p488
(dp489
g2
Nsg17
S'CMP     R12, #0x5A'
p490
sg19
S'5a005ce3'
p491
sg21
Vcmp ip, #0x5a
p492
sg5
L1048900L
sg6
Nsg23
S'CMP'
p493
sg25
S'0x100144L'
p494
sg27
Nsba(ibclass
BInstr
p495
(dp496
g2
Nsg17
S'BEQ     loc_1003C0'
p497
sg19
S'9c00000a'
p498
sg21
Vbeq #0x278
p499
sg5
L1048904L
sg6
Nsg23
g82
sg25
S'0x100148L'
p500
sg27
Nsbasg84
(lp501
S'LDRB R12, mem'
p502
aS'CMP R12, #0x5A'
p503
aS'BEQ func'
p504
asg95
Nsg5
S'0x100140L'
p505
sg97
(lp506
S'0x100130L'
p507
aS'0x1003bcL'
p508
asg6
Nsg99
(lp509
S'0x10014cL'
p510
aS'0x1003c0L'
p511
asg103
Nsg104
Nsg105
S'fa4df767a85c49648339e2dc5c6807f6'
p512
sg107
S'd17713c8603a4ff434249084dc70ec8b'
p513
sg109
(lp514
g486
ag493
ag82
asg111
Nsba(ibclass
BBasicBlock
p515
(dp516
g12
Nsg13
(lp517
(ibclass
BInstr
p518
(dp519
g2
Nsg17
S'CMP     R12, #0x2B'
p520
sg19
S'2b005ce3'
p521
sg21
Vcmp ip, #0x2b
p522
sg5
L1048908L
sg6
Nsg23
S'CMP'
p523
sg25
S'0x10014cL'
p524
sg27
Nsba(ibclass
BInstr
p525
(dp526
g2
Nsg17
S'CMPNE   R12, #0x2D'
p527
sg19
S'2d005c13'
p528
sg21
Vcmpne ip, #0x2d
p529
sg5
L1048912L
sg6
Nsg23
S'CMP'
p530
sg25
S'0x100150L'
p531
sg27
Nsba(ibclass
BInstr
p532
(dp533
g2
Nsg17
S'BNE     loc_1000D4'
p534
sg19
S'deffff1a'
p535
sg21
Vbne #0xffffff80
p536
sg5
L1048916L
sg6
Nsg23
g82
sg25
S'0x100154L'
p537
sg27
Nsbasg84
(lp538
S'CMP R12, #0x2B'
p539
aS'CMPNE R12, #0x2D'
p540
aS'BNE func'
p541
asg95
Nsg5
S'0x10014cL'
p542
sg97
(lp543
S'0x100140L'
p544
asg6
Nsg99
(lp545
S'0x1000d4L'
p546
aS'0x100158L'
p547
asg103
Nsg104
Nsg105
S'0a4fcb39fec118b6dd62df86262f4d67'
p548
sg107
S'34fbe7e53e0fa55767f37c4784210941'
p549
sg109
(lp550
g523
ag530
ag82
asg111
Nsba(ibclass
BBasicBlock
p551
(dp552
g12
Nsg13
(lp553
(ibclass
BInstr
p554
(dp555
g2
Nsg17
S'CMP     R0, #5'
p556
sg19
S'050050e3'
p557
sg21
Vcmp r0, #5
p558
sg5
L1048920L
sg6
Nsg23
S'CMP'
p559
sg25
S'0x100158L'
p560
sg27
Nsba(ibclass
BInstr
p561
(dp562
g2
Nsg17
S'BNE     loc_1000D4'
p563
sg19
S'dcffff1a'
p564
sg21
Vbne #0xffffff78
p565
sg5
L1048924L
sg6
Nsg23
g82
sg25
S'0x10015cL'
p566
sg27
Nsbasg84
(lp567
S'CMP R0, #5'
p568
aS'BNE func'
p569
asg95
Nsg5
S'0x100158L'
p570
sg97
(lp571
S'0x10014cL'
p572
asg6
Nsg99
(lp573
S'0x1000d4L'
p574
aS'0x100160L'
p575
asg103
Nsg104
Nsg105
S'c78fd620a449e3c979d3f3ec12d4ee88'
p576
sg107
S'c70c19536bd9959bdfa434e45f24ab8f'
p577
sg109
(lp578
g559
ag82
asg111
Nsba(ibclass
BBasicBlock
p579
(dp580
g12
Nsg13
(lp581
(ibclass
BInstr
p582
(dp583
g2
Nsg17
S'LDRB    R0, [R1,#1]'
p584
sg19
S'0100d1e5'
p585
sg21
Vldrb r0, [r1, #1]
p586
sg5
L1048928L
sg6
Nsg23
S'LDR'
p587
sg25
S'0x100160L'
p588
sg27
Nsba(ibclass
BInstr
p589
(dp590
g2
Nsg17
S'SUB     R3, R0, #0x30'
p591
sg19
S'303040e2'
p592
sg21
Vsub r3, r0, #0x30
p593
sg5
L1048932L
sg6
Nsg23
S'SUB'
p594
sg25
S'0x100164L'
p595
sg27
Nsba(ibclass
BInstr
p596
(dp597
g2
Nsg17
S'CMP     R3, #9'
p598
sg19
S'090053e3'
p599
sg21
Vcmp r3, #9
p600
sg5
L1048936L
sg6
Nsg23
S'CMP'
p601
sg25
S'0x100168L'
p602
sg27
Nsba(ibclass
BInstr
p603
(dp604
g2
Nsg17
S'BHI     loc_1000D4'
p605
sg19
S'd8ffff8a'
p606
sg21
Vbhi #0xffffff68
p607
sg5
L1048940L
sg6
Nsg23
g82
sg25
S'0x10016cL'
p608
sg27
Nsbasg84
(lp609
S'LDRB R0, mem'
p610
aS'SUB R3, R0, #0x30'
p611
aS'CMP R3, #9'
p612
aS'BHI func'
p613
asg95
Nsg5
S'0x100160L'
p614
sg97
(lp615
S'0x100158L'
p616
asg6
Nsg99
(lp617
S'0x1000d4L'
p618
aS'0x100170L'
p619
asg103
Nsg104
Nsg105
S'dd5dbfa9105770945b09dacfec96972a'
p620
sg107
S'32f95e090a0e0ed34ff67bfa9dd0ec65'
p621
sg109
(lp622
g587
ag594
ag601
ag82
asg111
Nsba(ibclass
BBasicBlock
p623
(dp624
g12
Nsg13
(lp625
(ibclass
BInstr
p626
(dp627
g2
Nsg17
S'LDRB    LR, [R1,#2]'
p628
sg19
S'02e0d1e5'
p629
sg21
Vldrb lr, [r1, #2]
p630
sg5
L1048944L
sg6
Nsg23
S'LDR'
p631
sg25
S'0x100170L'
p632
sg27
Nsba(ibclass
BInstr
p633
(dp634
g2
Nsg17
S'CMP     LR, #0x2F'
p635
sg19
S'2f005ee3'
p636
sg21
Vcmp lr, #0x2f
p637
sg5
L1048948L
sg6
Nsg23
S'CMP'
p638
sg25
S'0x100174L'
p639
sg27
Nsba(ibclass
BInstr
p640
(dp641
g2
Nsg17
S'BLS     loc_1000D4'
p642
sg19
S'd5ffff9a'
p643
sg21
Vbls #0xffffff5c
p644
sg5
L1048952L
sg6
Nsg23
g82
sg25
S'0x100178L'
p645
sg27
Nsbasg84
(lp646
S'LDRB LR, mem'
p647
aS'CMP LR, #0x2F'
p648
aS'BLS func'
p649
asg95
Nsg5
S'0x100170L'
p650
sg97
(lp651
S'0x100160L'
p652
asg6
Nsg99
(lp653
S'0x1000d4L'
p654
aS'0x10017cL'
p655
asg103
Nsg104
Nsg105
S'fa4df767a85c49648339e2dc5c6807f6'
p656
sg107
S'2dcb6ebc2ce8b2f74d8022692d8019ef'
p657
sg109
(lp658
g631
ag638
ag82
asg111
Nsba(ibclass
BBasicBlock
p659
(dp660
g12
Nsg13
(lp661
(ibclass
BInstr
p662
(dp663
g2
Nsg17
S'CMP     LR, #0x39'
p664
sg19
S'39005ee3'
p665
sg21
Vcmp lr, #0x39
p666
sg5
L1048956L
sg6
Nsg23
S'CMP'
p667
sg25
S'0x10017cL'
p668
sg27
Nsba(ibclass
BInstr
p669
(dp670
g2
Nsg17
S'BHI     loc_1000D4'
p671
sg19
S'd3ffff8a'
p672
sg21
Vbhi #0xffffff54
p673
sg5
L1048960L
sg6
Nsg23
g82
sg25
S'0x100180L'
p674
sg27
Nsbasg84
(lp675
S'CMP LR, #0x39'
p676
aS'BHI func'
p677
asg95
Nsg5
S'0x10017cL'
p678
sg97
(lp679
S'0x100170L'
p680
asg6
Nsg99
(lp681
S'0x1000d4L'
p682
aS'0x100184L'
p683
asg103
Nsg104
Nsg105
S'c78fd620a449e3c979d3f3ec12d4ee88'
p684
sg107
S'5dcb081579cce6f176da8a2477bde2f6'
p685
sg109
(lp686
g667
ag82
asg111
Nsba(ibclass
BBasicBlock
p687
(dp688
g12
Nsg13
(lp689
(ibclass
BInstr
p690
(dp691
g2
Nsg17
S'LDRB    R4, [R1,#3]'
p692
sg19
S'0340d1e5'
p693
sg21
Vldrb r4, [r1, #3]
p694
sg5
L1048964L
sg6
Nsg23
S'LDR'
p695
sg25
S'0x100184L'
p696
sg27
Nsba(ibclass
BInstr
p697
(dp698
g2
Nsg17
S'CMP     R4, #0x2F'
p699
sg19
S'2f0054e3'
p700
sg21
Vcmp r4, #0x2f
p701
sg5
L1048968L
sg6
Nsg23
S'CMP'
p702
sg25
S'0x100188L'
p703
sg27
Nsba(ibclass
BInstr
p704
(dp705
g2
Nsg17
S'BLS     loc_1000D4'
p706
sg19
S'd0ffff9a'
p707
sg21
Vbls #0xffffff48
p708
sg5
L1048972L
sg6
Nsg23
g82
sg25
S'0x10018cL'
p709
sg27
Nsbasg84
(lp710
S'LDRB R4, mem'
p711
aS'CMP R4, #0x2F'
p712
aS'BLS func'
p713
asg95
Nsg5
S'0x100184L'
p714
sg97
(lp715
S'0x10017cL'
p716
asg6
Nsg99
(lp717
S'0x1000d4L'
p718
aS'0x100190L'
p719
asg103
Nsg104
Nsg105
S'fa4df767a85c49648339e2dc5c6807f6'
p720
sg107
S'7f63bf47fcb5f4b986b1ad5ceee8037f'
p721
sg109
(lp722
g695
ag702
ag82
asg111
Nsba(ibclass
BBasicBlock
p723
(dp724
g12
Nsg13
(lp725
(ibclass
BInstr
p726
(dp727
g2
Nsg17
S'CMP     R4, #0x39'
p728
sg19
S'390054e3'
p729
sg21
Vcmp r4, #0x39
p730
sg5
L1048976L
sg6
Nsg23
S'CMP'
p731
sg25
S'0x100190L'
p732
sg27
Nsba(ibclass
BInstr
p733
(dp734
g2
Nsg17
S'BHI     loc_1000D4'
p735
sg19
S'ceffff8a'
p736
sg21
Vbhi #0xffffff40
p737
sg5
L1048980L
sg6
Nsg23
g82
sg25
S'0x100194L'
p738
sg27
Nsbasg84
(lp739
S'CMP R4, #0x39'
p740
aS'BHI func'
p741
asg95
Nsg5
S'0x100190L'
p742
sg97
(lp743
S'0x100184L'
p744
asg6
Nsg99
(lp745
S'0x1000d4L'
p746
aS'0x100198L'
p747
asg103
Nsg104
Nsg105
S'c78fd620a449e3c979d3f3ec12d4ee88'
p748
sg107
S'292decd2ddbd9e33f8f98c925075a656'
p749
sg109
(lp750
g731
ag82
asg111
Nsba(ibclass
BBasicBlock
p751
(dp752
g12
Nsg13
(lp753
(ibclass
BInstr
p754
(dp755
g2
Nsg17
S'LDRB    R2, [R1,#4]'
p756
sg19
S'0420d1e5'
p757
sg21
Vldrb r2, [r1, #4]
p758
sg5
L1048984L
sg6
Nsg23
S'LDR'
p759
sg25
S'0x100198L'
p760
sg27
Nsba(ibclass
BInstr
p761
(dp762
g2
Nsg17
S'CMP     R2, #0x2F'
p763
sg19
S'2f0052e3'
p764
sg21
Vcmp r2, #0x2f
p765
sg5
L1048988L
sg6
Nsg23
S'CMP'
p766
sg25
S'0x10019cL'
p767
sg27
Nsba(ibclass
BInstr
p768
(dp769
g2
Nsg17
S'BLS     loc_1000D4'
p770
sg19
S'cbffff9a'
p771
sg21
Vbls #0xffffff34
p772
sg5
L1048992L
sg6
Nsg23
g82
sg25
S'0x1001a0L'
p773
sg27
Nsbasg84
(lp774
S'LDRB R2, mem'
p775
aS'CMP R2, #0x2F'
p776
aS'BLS func'
p777
asg95
Nsg5
S'0x100198L'
p778
sg97
(lp779
S'0x100190L'
p780
asg6
Nsg99
(lp781
S'0x1000d4L'
p782
aS'0x1001a4L'
p783
asg103
Nsg104
Nsg105
S'fa4df767a85c49648339e2dc5c6807f6'
p784
sg107
S'6ba09bda13e1ad3456a131df52b0a0fd'
p785
sg109
(lp786
g759
ag766
ag82
asg111
Nsba(ibclass
BBasicBlock
p787
(dp788
g12
Nsg13
(lp789
(ibclass
BInstr
p790
(dp791
g2
Nsg17
S'CMP     R2, #0x39'
p792
sg19
S'390052e3'
p793
sg21
Vcmp r2, #0x39
p794
sg5
L1048996L
sg6
Nsg23
S'CMP'
p795
sg25
S'0x1001a4L'
p796
sg27
Nsba(ibclass
BInstr
p797
(dp798
g2
Nsg17
S'BHI     loc_1000D4'
p799
sg19
S'c9ffff8a'
p800
sg21
Vbhi #0xffffff2c
p801
sg5
L1049000L
sg6
Nsg23
g82
sg25
S'0x1001a8L'
p802
sg27
Nsbasg84
(lp803
S'CMP R2, #0x39'
p804
aS'BHI func'
p805
asg95
Nsg5
S'0x1001a4L'
p806
sg97
(lp807
S'0x100198L'
p808
asg6
Nsg99
(lp809
S'0x1000d4L'
p810
aS'0x1001acL'
p811
asg103
Nsg104
Nsg105
S'c78fd620a449e3c979d3f3ec12d4ee88'
p812
sg107
S'456ef137245806c4ed0d9b38a3670ee7'
p813
sg109
(lp814
g795
ag82
asg111
Nsba(ibclass
BBasicBlock
p815
(dp816
g12
Nsg13
(lp817
(ibclass
BInstr
p818
(dp819
g2
Nsg17
S'MOV     R1, R0,LSL#5'
p820
sg19
S'8012a0e1'
p821
sg21
Vlsl r1, r0, #5
p822
sg5
L1049004L
sg6
Nsg23
S'MOV'
p823
sg25
S'0x1001acL'
p824
sg27
Nsba(ibclass
BInstr
p825
(dp826
g2
Nsg17
S'MOV     R3, R0,LSL#3'
p827
sg19
S'8031a0e1'
p828
sg21
Vlsl r3, r0, #3
p829
sg5
L1049008L
sg6
Nsg23
S'MOV'
p830
sg25
S'0x1001b0L'
p831
sg27
Nsba(ibclass
BInstr
p832
(dp833
g2
Nsg17
S'ADD     R3, R3, R1'
p834
sg19
S'013083e0'
p835
sg21
Vadd r3, r3, r1
p836
sg5
L1049012L
sg6
Nsg23
S'ADD'
p837
sg25
S'0x1001b4L'
p838
sg27
Nsba(ibclass
BInstr
p839
(dp840
g2
Nsg17
S'MOV     R1, R3,LSL#4'
p841
sg19
S'0312a0e1'
p842
sg21
Vlsl r1, r3, #4
p843
sg5
L1049016L
sg6
Nsg23
S'MOV'
p844
sg25
S'0x1001b8L'
p845
sg27
Nsba(ibclass
BInstr
p846
(dp847
g2
Nsg17
S'SUB     R2, R2, #0x7D00'
p848
sg19
S'7d2c42e2'
p849
sg21
Vsub r2, r2, #0x7d00
p850
sg5
L1049020L
sg6
Nsg23
S'SUB'
p851
sg25
S'0x1001bcL'
p852
sg27
Nsba(ibclass
BInstr
p853
(dp854
g2
Nsg17
S'RSB     R1, R3, R1'
p855
sg19
S'011063e0'
p856
sg21
Vrsb r1, r3, r1
p857
sg5
L1049024L
sg6
Nsg23
S'RSB'
p858
sg25
S'0x1001c0L'
p859
sg27
Nsba(ibclass
BInstr
p860
(dp861
g2
Nsg17
S'SUB     R2, R2, #0xD0'
p862
sg19
S'd02042e2'
p863
sg21
Vsub r2, r2, #0xd0
p864
sg5
L1049028L
sg6
Nsg23
S'SUB'
p865
sg25
S'0x1001c4L'
p866
sg27
Nsba(ibclass
BInstr
p867
(dp868
g2
Nsg17
S'MOV     R0, LR,LSL#6'
p869
sg19
S'0e03a0e1'
p870
sg21
Vlsl r0, lr, #6
p871
sg5
L1049032L
sg6
Nsg23
S'MOV'
p872
sg25
S'0x1001c8L'
p873
sg27
Nsba(ibclass
BInstr
p874
(dp875
g2
Nsg17
S'ADD     R2, R2, R1'
p876
sg19
S'012082e0'
p877
sg21
Vadd r2, r2, r1
p878
sg5
L1049036L
sg6
Nsg23
S'ADD'
p879
sg25
S'0x1001ccL'
p880
sg27
Nsba(ibclass
BInstr
p881
(dp882
g2
Nsg17
S'SUB     R0, R0, LR,LSL#2'
p883
sg19
S'0e0140e0'
p884
sg21
Vsub r0, r0, lr, lsl #2
p885
sg5
L1049040L
sg6
Nsg23
S'SUB'
p886
sg25
S'0x1001d0L'
p887
sg27
Nsba(ibclass
BInstr
p888
(dp889
g2
Nsg17
S'MOV     R1, R4,LSL#3'
p890
sg19
S'8411a0e1'
p891
sg21
Vlsl r1, r4, #3
p892
sg5
L1049044L
sg6
Nsg23
S'MOV'
p893
sg25
S'0x1001d4L'
p894
sg27
Nsba(ibclass
BInstr
p895
(dp896
g2
Nsg17
S'MOV     R3, R4,LSL#1'
p897
sg19
S'8430a0e1'
p898
sg21
Vlsl r3, r4, #1
p899
sg5
L1049048L
sg6
Nsg23
S'MOV'
p900
sg25
S'0x1001d8L'
p901
sg27
Nsba(ibclass
BInstr
p902
(dp903
g2
Nsg17
S'ADD     R3, R3, R1'
p904
sg19
S'013083e0'
p905
sg21
Vadd r3, r3, r1
p906
sg5
L1049052L
sg6
Nsg23
S'ADD'
p907
sg25
S'0x1001dcL'
p908
sg27
Nsba(ibclass
BInstr
p909
(dp910
g2
Nsg17
S'ADD     R2, R2, R0'
p911
sg19
S'002082e0'
p912
sg21
Vadd r2, r2, r0
p913
sg5
L1049056L
sg6
Nsg23
S'ADD'
p914
sg25
S'0x1001e0L'
p915
sg27
Nsba(ibclass
BInstr
p916
(dp917
g2
Nsg17
S'CMP     R12, #0x2D'
p918
sg19
S'2d005ce3'
p919
sg21
Vcmp ip, #0x2d
p920
sg5
L1049060L
sg6
Nsg23
S'CMP'
p921
sg25
S'0x1001e4L'
p922
sg27
Nsba(ibclass
BInstr
p923
(dp924
g2
Nsg17
S'ADD     R0, R2, R3'
p925
sg19
S'030082e0'
p926
sg21
Vadd r0, r2, r3
p927
sg5
L1049064L
sg6
Nsg23
S'ADD'
p928
sg25
S'0x1001e8L'
p929
sg27
Nsba(ibclass
BInstr
p930
(dp931
g2
Nsg17
S'RSBEQ   R2, R0, #0'
p932
sg19
S'00206002'
p933
sg21
Vrsbeq r2, r0, #0
p934
sg5
L1049068L
sg6
Nsg23
S'RSB'
p935
sg25
S'0x1001ecL'
p936
sg27
Nsba(ibclass
BInstr
p937
(dp938
g2
Nsg17
S'MOVNE   R3, R0,LSL#6'
p939
sg19
S'0033a011'
p940
sg21
Vlslne r3, r0, #6
p941
sg5
L1049072L
sg6
Nsg23
S'MOV'
p942
sg25
S'0x1001f0L'
p943
sg27
Nsba(ibclass
BInstr
p944
(dp945
g2
Nsg17
S'MOVEQ   R3, R2,LSL#6'
p946
sg19
S'0233a001'
p947
sg21
Vlsleq r3, r2, #6
p948
sg5
L1049076L
sg6
Nsg23
S'MOV'
p949
sg25
S'0x1001f4L'
p950
sg27
Nsba(ibclass
BInstr
p951
(dp952
g2
Nsg17
S'SUBNE   R1, R3, R0,LSL#2'
p953
sg19
S'00114310'
p954
sg21
Vsubne r1, r3, r0, lsl #2
p955
sg5
L1049080L
sg6
Nsg23
S'SUB'
p956
sg25
S'0x1001f8L'
p957
sg27
Nsba(ibclass
BInstr
p958
(dp959
g2
Nsg17
S'SUBEQ   R1, R3, R2,LSL#2'
p960
sg19
S'02114300'
p961
sg21
Vsubeq r1, r3, r2, lsl #2
p962
sg5
L1049084L
sg6
Nsg23
S'SUB'
p963
sg25
S'0x1001fcL'
p964
sg27
Nsbasg84
(lp965
S'MOV R1, R0,LSL#5'
p966
aS'MOV R3, R0,LSL#3'
p967
aS'ADD R3, R3, R1'
p968
aS'MOV R1, R3,LSL#4'
p969
aS'SUB R2, R2, #0x7D00'
p970
aS'RSB R1, R3, R1'
p971
aS'SUB R2, R2, #0xD0'
p972
aS'MOV R0, LR,LSL#6'
p973
aS'ADD R2, R2, R1'
p974
aS'SUB R0, R0, LR,LSL#2'
p975
aS'MOV R1, R4,LSL#3'
p976
aS'MOV R3, R4,LSL#1'
p977
aS'ADD R3, R3, R1'
p978
aS'ADD R2, R2, R0'
p979
aS'CMP R12, #0x2D'
p980
aS'ADD R0, R2, R3'
p981
aS'RSBEQ R2, R0, #0'
p982
aS'MOVNE R3, R0,LSL#6'
p983
aS'MOVEQ R3, R2,LSL#6'
p984
aS'SUBNE R1, R3, R0,LSL#2'
p985
aS'SUBEQ R1, R3, R2,LSL#2'
p986
asg95
Nsg5
S'0x1001acL'
p987
sg97
(lp988
S'0x1001a4L'
p989
asg6
Nsg99
(lp990
S'0x100200L'
p991
asg103
Nsg104
Nsg105
S'96a4954bb2aafd609f5f5bd796c35b9a'
p992
sg107
S'e931a9b6e880ca25556a160c3ba41ac0'
p993
sg109
(lp994
g823
ag830
ag837
ag844
ag851
ag858
ag865
ag872
ag879
ag886
ag893
ag900
ag907
ag914
ag921
ag928
ag935
ag942
ag949
ag956
ag963
asg111
Nsba(ibclass
BBasicBlock
p995
(dp996
g12
Nsg13
(lp997
(ibclass
BInstr
p998
(dp999
g2
Nsg17
S'LDR     R3, [R6,#4]'
p1000
sg19
S'043096e5'
p1001
sg21
Vldr r3, [r6, #4]
p1002
sg5
L1049088L
sg6
Nsg23
S'LDR'
p1003
sg25
S'0x100200L'
p1004
sg27
Nsba(ibclass
BInstr
p1005
(dp1006
g2
Nsg17
S'MOV     R12, #0'
p1007
sg19
S'00c0a0e3'
p1008
sg21
Vmov ip, #0
p1009
sg5
L1049092L
sg6
Nsg23
S'MOV'
p1010
sg25
S'0x100204L'
p1011
sg27
Nsba(ibclass
BInstr
p1012
(dp1013
g2
Nsg17
S'STR     R3, [SP,#0x58+var_24]'
p1014
sg19
S'34308de5'
p1015
sg21
Vstr r3, [sp, #0x34]
p1016
sg5
L1049096L
sg6
Nsg23
S'STR'
p1017
sg25
S'0x100208L'
p1018
sg27
Nsba(ibclass
BInstr
p1019
(dp1020
g2
Nsg17
S'MOV     R2, R8'
p1021
sg19
S'0820a0e1'
p1022
sg21
Vmov r2, r8
p1023
sg5
L1049100L
sg6
Nsg23
S'MOV'
p1024
sg25
S'0x10020cL'
p1025
sg27
Nsba(ibclass
BInstr
p1026
(dp1027
g2
Nsg17
S'MOV     R3, #0x18'
p1028
sg19
S'1830a0e3'
p1029
sg21
Vmov r3, #0x18
p1030
sg5
L1049104L
sg6
Nsg23
S'MOV'
p1031
sg25
S'0x100210L'
p1032
sg27
Nsba(ibclass
BInstr
p1033
(dp1034
g2
Nsg17
S'ADD     R0, SP, #0x58+var_28'
p1035
sg19
S'30008de2'
p1036
sg21
Vadd r0, sp, #0x30
p1037
sg5
L1049108L
sg6
Nsg23
S'ADD'
p1038
sg25
S'0x100214L'
p1039
sg27
Nsba(ibclass
BInstr
p1040
(dp1041
g2
Nsg17
S'STR     R12, [SP,#0x58+var_1C]'
p1042
sg19
S'3cc08de5'
p1043
sg21
Vstr ip, [sp, #0x3c]
p1044
sg5
L1049112L
sg6
Nsg23
S'STR'
p1045
sg25
S'0x100218L'
p1046
sg27
Nsba(ibclass
BInstr
p1047
(dp1048
g2
Nsg17
S'STR     R3, [SP,#0x58+var_28]'
p1049
sg19
S'30308de5'
p1050
sg21
Vstr r3, [sp, #0x30]
p1051
sg5
L1049116L
sg6
Nsg23
S'STR'
p1052
sg25
S'0x10021cL'
p1053
sg27
Nsba(ibclass
BInstr
p1054
(dp1055
g2
Nsg17
S'STR     SP, [SP,#0x58+var_20]'
p1056
sg19
S'38d08de5'
p1057
sg21
Vstr sp, [sp, #0x38]
p1058
sg5
L1049120L
sg6
Nsg23
S'STR'
p1059
sg25
S'0x100220L'
p1060
sg27
Nsba(ibclass
BInstr
p1061
(dp1062
g2
Nsg17
S'BL      X509_time_adj'
p1063
sg19
S'94ffffeb'
p1064
sg21
Vbl #0xfffffe58
p1065
sg5
L1049124L
sg6
Nsg23
S'BL'
p1066
sg25
S'0x100224L'
p1067
sg27
Nsba(ibclass
BInstr
p1068
(dp1069
g2
Nsg17
S'MOV     R4, SP'
p1070
sg19
S'0d40a0e1'
p1071
sg21
Vmov r4, sp
p1072
sg5
L1049128L
sg6
Nsg23
S'MOV'
p1073
sg25
S'0x100228L'
p1074
sg27
Nsba(ibclass
BInstr
p1075
(dp1076
g2
Nsg17
S'CMP     R0, #0'
p1077
sg19
S'000050e3'
p1078
sg21
Vcmp r0, #0
p1079
sg5
L1049132L
sg6
Nsg23
S'CMP'
p1080
sg25
S'0x10022cL'
p1081
sg27
Nsba(ibclass
BInstr
p1082
(dp1083
g2
Nsg17
S'BEQ     loc_1000D4'
p1084
sg19
S'a7ffff0a'
p1085
sg21
Vbeq #0xfffffea4
p1086
sg5
L1049136L
sg6
Nsg23
g82
sg25
S'0x100230L'
p1087
sg27
Nsbasg84
(lp1088
S'LDR R3, mem'
p1089
aS'MOV R12, #0'
p1090
aS'STR R3, mem'
p1091
aS'MOV R2, R8'
p1092
aS'MOV R3, #0x18'
p1093
aS'ADD R0, SP, #0x58+var_28'
p1094
aS'STR R12, mem'
p1095
aS'STR R3, mem'
p1096
aS'STR SP, mem'
p1097
aS'BL X509_time_adj'
p1098
aS'MOV R4, SP'
p1099
aS'CMP R0, #0'
p1100
aS'BEQ func'
p1101
asg95
Nsg5
S'0x100200L'
p1102
sg97
(lp1103
S'0x1001acL'
p1104
aS'0x1003ccL'
p1105
asg6
Nsg99
(lp1106
S'0x1000d4L'
p1107
aS'0x100234L'
p1108
asg103
Nsg104
Nsg105
S'88e59d7ba31c57db139901dd50251bf8'
p1109
sg107
S'aca3b40c2c6de994889903bd306fd722'
p1110
sg109
(lp1111
g1003
ag1010
ag1017
ag1024
ag1031
ag1038
ag1045
ag1052
ag1059
ag1066
ag1073
ag1080
ag82
asg111
Nsba(ibclass
BBasicBlock
p1112
(dp1113
g12
Nsg13
(lp1114
(ibclass
BInstr
p1115
(dp1116
g2
Nsg17
S'LDR     R3, [R6,#4]'
p1117
sg19
S'043096e5'
p1118
sg21
Vldr r3, [r6, #4]
p1119
sg5
L1049140L
sg6
Nsg23
S'LDR'
p1120
sg25
S'0x100234L'
p1121
sg27
Nsba(ibclass
BInstr
p1122
(dp1123
g2
Nsg17
S'CMP     R3, #0x17'
p1124
sg19
S'170053e3'
p1125
sg21
Vcmp r3, #0x17
p1126
sg5
L1049144L
sg6
Nsg23
S'CMP'
p1127
sg25
S'0x100238L'
p1128
sg27
Nsba(ibclass
BInstr
p1129
(dp1130
g2
Nsg17
S'BNE     loc_100298'
p1131
sg19
S'1500001a'
p1132
sg21
Vbne #0x5c
p1133
sg5
L1049148L
sg6
Nsg23
g82
sg25
S'0x10023cL'
p1134
sg27
Nsbasg84
(lp1135
S'LDR R3, mem'
p1136
aS'CMP R3, #0x17'
p1137
aS'BNE func'
p1138
asg95
Nsg5
S'0x100234L'
p1139
sg97
(lp1140
S'0x100200L'
p1141
asg6
Nsg99
(lp1142
S'0x100240L'
p1143
aS'0x100298L'
p1144
asg103
Nsg104
Nsg105
S'fa4df767a85c49648339e2dc5c6807f6'
p1145
sg107
S'aed8498bf4e248364b6c4d24ef4d8a8f'
p1146
sg109
(lp1147
g1120
ag1127
ag82
asg111
Nsba(ibclass
BBasicBlock
p1148
(dp1149
g12
Nsg13
(lp1150
(ibclass
BInstr
p1151
(dp1152
g2
Nsg17
S'LDRB    R3, [SP,#0x58+dest]'
p1153
sg19
S'1830dde5'
p1154
sg21
Vldrb r3, [sp, #0x18]
p1155
sg5
L1049152L
sg6
Nsg23
S'LDR'
p1156
sg25
S'0x100240L'
p1157
sg27
Nsba(ibclass
BInstr
p1158
(dp1159
g2
Nsg17
S'LDRB    R2, [SP,#0x58+var_3F]'
p1160
sg19
S'1920dde5'
p1161
sg21
Vldrb r2, [sp, #0x19]
p1162
sg5
L1049156L
sg6
Nsg23
S'LDR'
p1163
sg25
S'0x100244L'
p1164
sg27
Nsba(ibclass
BInstr
p1165
(dp1166
g2
Nsg17
S'MOV     R1, R3,LSL#3'
p1167
sg19
S'8311a0e1'
p1168
sg21
Vlsl r1, r3, #3
p1169
sg5
L1049160L
sg6
Nsg23
S'MOV'
p1170
sg25
S'0x100248L'
p1171
sg27
Nsba(ibclass
BInstr
p1172
(dp1173
g2
Nsg17
S'MOV     R3, R3,LSL#1'
p1174
sg19
S'8330a0e1'
p1175
sg21
Vlsl r3, r3, #1
p1176
sg5
L1049164L
sg6
Nsg23
S'MOV'
p1177
sg25
S'0x10024cL'
p1178
sg27
Nsba(ibclass
BInstr
p1179
(dp1180
g2
Nsg17
S'ADD     R3, R3, R1'
p1181
sg19
S'013083e0'
p1182
sg21
Vadd r3, r3, r1
p1183
sg5
L1049168L
sg6
Nsg23
S'ADD'
p1184
sg25
S'0x100250L'
p1185
sg27
Nsba(ibclass
BInstr
p1186
(dp1187
g2
Nsg17
S'SUB     R2, R2, #0x210'
p1188
sg19
S'212e42e2'
p1189
sg21
Vsub r2, r2, #0x210
p1190
sg5
L1049172L
sg6
Nsg23
S'SUB'
p1191
sg25
S'0x100254L'
p1192
sg27
Nsba(ibclass
BInstr
p1193
(dp1194
g2
Nsg17
S'ADD     R0, R2, R3'
p1195
sg19
S'030082e0'
p1196
sg21
Vadd r0, r2, r3
p1197
sg5
L1049176L
sg6
Nsg23
S'ADD'
p1198
sg25
S'0x100258L'
p1199
sg27
Nsba(ibclass
BInstr
p1200
(dp1201
g2
Nsg17
S'LDRB    R3, [SP,#0x58+var_58]'
p1202
sg19
S'0030dde5'
p1203
sg21
Vldrb r3, [sp]
p1204
sg5
L1049180L
sg6
Nsg23
S'LDR'
p1205
sg25
S'0x10025cL'
p1206
sg27
Nsba(ibclass
BInstr
p1207
(dp1208
g2
Nsg17
S'LDRB    R2, [SP,#0x58+var_57]'
p1209
sg19
S'0120dde5'
p1210
sg21
Vldrb r2, [sp, #1]
p1211
sg5
L1049184L
sg6
Nsg23
S'LDR'
p1212
sg25
S'0x100260L'
p1213
sg27
Nsba(ibclass
BInstr
p1214
(dp1215
g2
Nsg17
S'MOV     R1, R3,LSL#3'
p1216
sg19
S'8311a0e1'
p1217
sg21
Vlsl r1, r3, #3
p1218
sg5
L1049188L
sg6
Nsg23
S'MOV'
p1219
sg25
S'0x100264L'
p1220
sg27
Nsba(ibclass
BInstr
p1221
(dp1222
g2
Nsg17
S'MOV     R3, R3,LSL#1'
p1223
sg19
S'8330a0e1'
p1224
sg21
Vlsl r3, r3, #1
p1225
sg5
L1049192L
sg6
Nsg23
S'MOV'
p1226
sg25
S'0x100268L'
p1227
sg27
Nsba(ibclass
BInstr
p1228
(dp1229
g2
Nsg17
S'ADD     R3, R3, R1'
p1230
sg19
S'013083e0'
p1231
sg21
Vadd r3, r3, r1
p1232
sg5
L1049196L
sg6
Nsg23
S'ADD'
p1233
sg25
S'0x10026cL'
p1234
sg27
Nsba(ibclass
BInstr
p1235
(dp1236
g2
Nsg17
S'SUB     R2, R2, #0x210'
p1237
sg19
S'212e42e2'
p1238
sg21
Vsub r2, r2, #0x210
p1239
sg5
L1049200L
sg6
Nsg23
S'SUB'
p1240
sg25
S'0x100270L'
p1241
sg27
Nsba(ibclass
BInstr
p1242
(dp1243
g2
Nsg17
S'ADD     R2, R2, R3'
p1244
sg19
S'032082e0'
p1245
sg21
Vadd r2, r2, r3
p1246
sg5
L1049204L
sg6
Nsg23
S'ADD'
p1247
sg25
S'0x100274L'
p1248
sg27
Nsba(ibclass
BInstr
p1249
(dp1250
g2
Nsg17
S'CMP     R0, #0x31'
p1251
sg19
S'310050e3'
p1252
sg21
Vcmp r0, #0x31
p1253
sg5
L1049208L
sg6
Nsg23
S'CMP'
p1254
sg25
S'0x100278L'
p1255
sg27
Nsba(ibclass
BInstr
p1256
(dp1257
g2
Nsg17
S'ADDLE   R0, R0, #0x64'
p1258
sg19
S'640080d2'
p1259
sg21
Vaddle r0, r0, #0x64
p1260
sg5
L1049212L
sg6
Nsg23
S'ADD'
p1261
sg25
S'0x10027cL'
p1262
sg27
Nsba(ibclass
BInstr
p1263
(dp1264
g2
Nsg17
S'CMP     R2, #0x31'
p1265
sg19
S'310052e3'
p1266
sg21
Vcmp r2, #0x31
p1267
sg5
L1049216L
sg6
Nsg23
S'CMP'
p1268
sg25
S'0x100280L'
p1269
sg27
Nsba(ibclass
BInstr
p1270
(dp1271
g2
Nsg17
S'ADDLE   R2, R2, #0x64'
p1272
sg19
S'642082d2'
p1273
sg21
Vaddle r2, r2, #0x64
p1274
sg5
L1049220L
sg6
Nsg23
S'ADD'
p1275
sg25
S'0x100284L'
p1276
sg27
Nsba(ibclass
BInstr
p1277
(dp1278
g2
Nsg17
S'CMP     R0, R2'
p1279
sg19
S'020050e1'
p1280
sg21
Vcmp r0, r2
p1281
sg5
L1049224L
sg6
Nsg23
S'CMP'
p1282
sg25
S'0x100288L'
p1283
sg27
Nsba(ibclass
BInstr
p1284
(dp1285
g2
Nsg17
S'BLT     loc_1002AC'
p1286
sg19
S'060000ba'
p1287
sg21
Vblt #0x20
p1288
sg5
L1049228L
sg6
Nsg23
g82
sg25
S'0x10028cL'
p1289
sg27
Nsbasg84
(lp1290
S'LDRB R3, mem'
p1291
aS'LDRB R2, mem'
p1292
aS'MOV R1, R3,LSL#3'
p1293
aS'MOV R3, R3,LSL#1'
p1294
aS'ADD R3, R3, R1'
p1295
aS'SUB R2, R2, #0x210'
p1296
aS'ADD R0, R2, R3'
p1297
aS'LDRB R3, mem'
p1298
aS'LDRB R2, mem'
p1299
aS'MOV R1, R3,LSL#3'
p1300
aS'MOV R3, R3,LSL#1'
p1301
aS'ADD R3, R3, R1'
p1302
aS'SUB R2, R2, #0x210'
p1303
aS'ADD R2, R2, R3'
p1304
aS'CMP R0, #0x31'
p1305
aS'ADDLE R0, R0, #0x64'
p1306
aS'CMP R2, #0x31'
p1307
aS'ADDLE R2, R2, #0x64'
p1308
aS'CMP R0, R2'
p1309
aS'BLT func'
p1310
asg95
Nsg5
S'0x100240L'
p1311
sg97
(lp1312
S'0x100234L'
p1313
asg6
Nsg99
(lp1314
S'0x100290L'
p1315
aS'0x1002acL'
p1316
asg103
Nsg104
Nsg105
S'419aaf7ec70b6e5b99536f95c9d5558c'
p1317
sg107
S'91d3bee168560c6022856dcf0dc9e822'
p1318
sg109
(lp1319
g1156
ag1163
ag1170
ag1177
ag1184
ag1191
ag1198
ag1205
ag1212
ag1219
ag1226
ag1233
ag1240
ag1247
ag1254
ag1261
ag1268
ag1275
ag1282
ag82
asg111
Nsba(ibclass
BBasicBlock
p1320
(dp1321
g12
Nsg13
(lp1322
(ibclass
BInstr
p1323
(dp1324
g2
Nsg17
S'MOVGT   R0, #1'
p1325
sg19
S'0100a0c3'
p1326
sg21
Vmovgt r0, #1
p1327
sg5
L1049232L
sg6
Nsg23
S'MOV'
p1328
sg25
S'0x100290L'
p1329
sg27
Nsba(ibclass
BInstr
p1330
(dp1331
g2
Nsg17
S'BGT     loc_1000D8'
p1332
sg19
S'8fffffca'
p1333
sg21
Vbgt #0xfffffe44
p1334
sg5
L1049236L
sg6
Nsg23
g82
sg25
S'0x100294L'
p1335
sg27
Nsbasg84
(lp1336
S'MOVGT R0, #1'
p1337
aS'BGT func'
p1338
asg95
Nsg5
S'0x100290L'
p1339
sg97
(lp1340
S'0x100240L'
p1341
asg6
Nsg99
(lp1342
S'0x1000d8L'
p1343
aS'0x100298L'
p1344
asg103
Nsg104
Nsg105
S'b6c4e95ccfe77a95e4cf2019dd3d5574'
p1345
sg107
S'c06a6612bec428eefcbad3259be9adb3'
p1346
sg109
(lp1347
g1328
ag82
asg111
Nsba(ibclass
BBasicBlock
p1348
(dp1349
g12
Nsg13
(lp1350
(ibclass
BInstr
p1351
(dp1352
g2
Nsg17
S'MOV     R0, R7          ; s1'
p1353
sg19
S'0700a0e1'
p1354
sg21
Vmov r0, r7
p1355
sg5
L1049240L
sg6
Nsg23
S'MOV'
p1356
sg25
S'0x100298L'
p1357
sg27
Nsba(ibclass
BInstr
p1358
(dp1359
g2
Nsg17
S'MOV     R1, SP          ; s2'
p1360
sg19
S'0d10a0e1'
p1361
sg21
Vmov r1, sp
p1362
sg5
L1049244L
sg6
Nsg23
S'MOV'
p1363
sg25
S'0x10029cL'
p1364
sg27
Nsba(ibclass
BInstr
p1365
(dp1366
g2
Nsg17
S'BL      strcmp'
p1367
sg19
S'31f9fceb'
p1368
sg21
Vbl #0xfff3e4cc
p1369
sg5
L1049248L
sg6
Nsg23
S'BL'
p1370
sg25
S'0x1002a0L'
p1371
sg27
Nsba(ibclass
BInstr
p1372
(dp1373
g2
Nsg17
S'CMP     R0, #0'
p1374
sg19
S'000050e3'
p1375
sg21
Vcmp r0, #0
p1376
sg5
L1049252L
sg6
Nsg23
S'CMP'
p1377
sg25
S'0x1002a4L'
p1378
sg27
Nsba(ibclass
BInstr
p1379
(dp1380
g2
Nsg17
S'BNE     loc_1000D8'
p1381
sg19
S'8affff1a'
p1382
sg21
Vbne #0xfffffe30
p1383
sg5
L1049256L
sg6
Nsg23
g82
sg25
S'0x1002a8L'
p1384
sg27
Nsbasg84
(lp1385
S'MOV R0, R7'
p1386
aS'MOV R1, SP'
p1387
aS'BL strcmp'
p1388
aS'CMP R0, #0'
p1389
aS'BNE func'
p1390
asg95
Nsg5
S'0x100298L'
p1391
sg97
(lp1392
S'0x100234L'
p1393
aS'0x100290L'
p1394
asg6
Nsg99
(lp1395
S'0x1000d8L'
p1396
aS'0x1002acL'
p1397
asg103
Nsg104
Nsg105
S'7aa0d384fe1372848624ea012a952b72'
p1398
sg107
S'22fe807c5e80a7b399500c96dd79cbd2'
p1399
sg109
(lp1400
g1356
ag1363
ag1370
ag1377
ag82
asg111
Nsba(ibclass
BBasicBlock
p1401
(dp1402
g12
Nsg13
(lp1403
(ibclass
BInstr
p1404
(dp1405
g2
Nsg17
S'MOV     R0, #0xFFFFFFFF'
p1406
sg19
S'0000e0e3'
p1407
sg21
Vmvn r0, #0
p1408
sg5
L1049260L
sg6
Nsg23
S'MOV'
p1409
sg25
S'0x1002acL'
p1410
sg27
Nsba(ibclass
BInstr
p1411
(dp1412
g2
Nsg17
S'B       loc_1000D8'
p1413
sg19
S'88ffffea'
p1414
sg21
Vb #0xfffffe28
p1415
sg5
L1049264L
sg6
Nsg23
g82
sg25
S'0x1002b0L'
p1416
sg27
Nsbasg84
(lp1417
S'MOV R0, #0xFFFFFFFF'
p1418
aS'B func'
p1419
asg95
Nsg5
S'0x1002acL'
p1420
sg97
(lp1421
S'0x100240L'
p1422
aS'0x100298L'
p1423
asg6
Nsg99
(lp1424
S'0x1000d8L'
p1425
asg103
Nsg104
Nsg105
S'b6c4e95ccfe77a95e4cf2019dd3d5574'
p1426
sg107
S'2cc073a1cbd0f4b90ef6a2c31fac4da7'
p1427
sg109
(lp1428
g1409
ag82
asg111
Nsba(ibclass
BBasicBlock
p1429
(dp1430
g12
Nsg13
(lp1431
(ibclass
BInstr
p1432
(dp1433
g2
Nsg17
S'CMP     R4, #0x11'
p1434
sg19
S'110054e3'
p1435
sg21
Vcmp r4, #0x11
p1436
sg5
L1049268L
sg6
Nsg23
S'CMP'
p1437
sg25
S'0x1002b4L'
p1438
sg27
Nsba(ibclass
BInstr
p1439
(dp1440
g2
Nsg17
S'MOVLE   R3, #0'
p1441
sg19
S'0030a0d3'
p1442
sg21
Vmovle r3, #0
p1443
sg5
L1049272L
sg6
Nsg23
S'MOV'
p1444
sg25
S'0x1002b8L'
p1445
sg27
Nsba(ibclass
BInstr
p1446
(dp1447
g2
Nsg17
S'MOVGT   R3, #1'
p1448
sg19
S'0130a0c3'
p1449
sg21
Vmovgt r3, #1
p1450
sg5
L1049276L
sg6
Nsg23
S'MOV'
p1451
sg25
S'0x1002bcL'
p1452
sg27
Nsba(ibclass
BInstr
p1453
(dp1454
g2
Nsg17
S'CMP     R4, #0xA'
p1455
sg19
S'0a0054e3'
p1456
sg21
Vcmp r4, #0xa
p1457
sg5
L1049280L
sg6
Nsg23
S'CMP'
p1458
sg25
S'0x1002c0L'
p1459
sg27
Nsba(ibclass
BInstr
p1460
(dp1461
g2
Nsg17
S'ORRLE   R3, R3, #1'
p1462
sg19
S'013083d3'
p1463
sg21
Vorrle r3, r3, #1
p1464
sg5
L1049284L
sg6
Nsg23
S'ORR'
p1465
sg25
S'0x1002c4L'
p1466
sg27
Nsba(ibclass
BInstr
p1467
(dp1468
g2
Nsg17
S'CMP     R3, #0'
p1469
sg19
S'000053e3'
p1470
sg21
Vcmp r3, #0
p1471
sg5
L1049288L
sg6
Nsg23
S'CMP'
p1472
sg25
S'0x1002c8L'
p1473
sg27
Nsba(ibclass
BInstr
p1474
(dp1475
g2
Nsg17
S'BNE     loc_1000D4'
p1476
sg19
S'80ffff1a'
p1477
sg21
Vbne #0xfffffe08
p1478
sg5
L1049292L
sg6
Nsg23
g82
sg25
S'0x1002ccL'
p1479
sg27
Nsbasg84
(lp1480
S'CMP R4, #0x11'
p1481
aS'MOVLE R3, #0'
p1482
aS'MOVGT R3, #1'
p1483
aS'CMP R4, #0xA'
p1484
aS'ORRLE R3, R3, #1'
p1485
aS'CMP R3, #0'
p1486
aS'BNE func'
p1487
asg95
Nsg5
S'0x1002b4L'
p1488
sg97
(lp1489
S'0x100094L'
p1490
asg6
Nsg99
(lp1491
S'0x1000d4L'
p1492
aS'0x1002d0L'
p1493
asg103
Nsg104
Nsg105
S'7225b38da2e14f0d069f1b7c8b589a0e'
p1494
sg107
S'ba44358ea1e11f722ef8e42dfce4b764'
p1495
sg109
(lp1496
g1437
ag1444
ag1451
ag1458
ag1465
ag1472
ag82
asg111
Nsba(ibclass
BBasicBlock
p1497
(dp1498
g12
Nsg13
(lp1499
(ibclass
BInstr
p1500
(dp1501
g2
Nsg17
S'ADD     R7, SP, #0x58+dest'
p1502
sg19
S'18708de2'
p1503
sg21
Vadd r7, sp, #0x18
p1504
sg5
L1049296L
sg6
Nsg23
S'ADD'
p1505
sg25
S'0x1002d0L'
p1506
sg27
Nsba(ibclass
BInstr
p1507
(dp1508
g2
Nsg17
S'MOV     R1, R5          ; src'
p1509
sg19
S'0510a0e1'
p1510
sg21
Vmov r1, r5
p1511
sg5
L1049300L
sg6
Nsg23
S'MOV'
p1512
sg25
S'0x1002d4L'
p1513
sg27
Nsba(ibclass
BInstr
p1514
(dp1515
g2
Nsg17
S'MOV     R2, #0xA        ; n'
p1516
sg19
S'0a20a0e3'
p1517
sg21
Vmov r2, #0xa
p1518
sg5
L1049304L
sg6
Nsg23
S'MOV'
p1519
sg25
S'0x1002d8L'
p1520
sg27
Nsba(ibclass
BInstr
p1521
(dp1522
g2
Nsg17
S'MOV     R0, R7          ; dest'
p1523
sg19
S'0700a0e1'
p1524
sg21
Vmov r0, r7
p1525
sg5
L1049308L
sg6
Nsg23
S'MOV'
p1526
sg25
S'0x1002dcL'
p1527
sg27
Nsba(ibclass
BInstr
p1528
(dp1529
g2
Nsg17
S'BL      memcpy'
p1530
sg19
S'46f8fceb'
p1531
sg21
Vbl #0xfff3e120
p1532
sg5
L1049312L
sg6
Nsg23
S'BL'
p1533
sg25
S'0x1002e0L'
p1534
sg27
Nsba(ibclass
BInstr
p1535
(dp1536
g2
Nsg17
S'ADD     R1, R5, #0xA'
p1537
sg19
S'0a1085e2'
p1538
sg21
Vadd r1, r5, #0xa
p1539
sg5
L1049316L
sg6
Nsg23
S'ADD'
p1540
sg25
S'0x1002e4L'
p1541
sg27
Nsba(ibclass
BInstr
p1542
(dp1543
g2
Nsg17
S'LDRB    R3, [R1]'
p1544
sg19
S'0030d1e5'
p1545
sg21
Vldrb r3, [r1]
p1546
sg5
L1049320L
sg6
Nsg23
S'LDR'
p1547
sg25
S'0x1002e8L'
p1548
sg27
Nsba(ibclass
BInstr
p1549
(dp1550
g2
Nsg17
S'SUB     R0, R4, #0xA'
p1551
sg19
S'0a0044e2'
p1552
sg21
Vsub r0, r4, #0xa
p1553
sg5
L1049324L
sg6
Nsg23
S'SUB'
p1554
sg25
S'0x1002ecL'
p1555
sg27
Nsba(ibclass
BInstr
p1556
(dp1557
g2
Nsg17
S'CMP     R3, #0x2D'
p1558
sg19
S'2d0053e3'
p1559
sg21
Vcmp r3, #0x2d
p1560
sg5
L1049328L
sg6
Nsg23
S'CMP'
p1561
sg25
S'0x1002f0L'
p1562
sg27
Nsba(ibclass
BInstr
p1563
(dp1564
g2
Nsg17
S'CMPNE   R3, #0x5A'
p1565
sg19
S'5a005313'
p1566
sg21
Vcmpne r3, #0x5a
p1567
sg5
L1049332L
sg6
Nsg23
S'CMP'
p1568
sg25
S'0x1002f4L'
p1569
sg27
Nsba(ibclass
BInstr
p1570
(dp1571
g2
Nsg17
S'ADD     R2, SP, #0x58+var_36'
p1572
sg19
S'22208de2'
p1573
sg21
Vadd r2, sp, #0x22
p1574
sg5
L1049336L
sg6
Nsg23
S'ADD'
p1575
sg25
S'0x1002f8L'
p1576
sg27
Nsba(ibclass
BInstr
p1577
(dp1578
g2
Nsg17
S'ADD     R12, SP, #0x58+var_35'
p1579
sg19
S'23c08de2'
p1580
sg21
Vadd ip, sp, #0x23
p1581
sg5
L1049340L
sg6
Nsg23
S'ADD'
p1582
sg25
S'0x1002fcL'
p1583
sg27
Nsba(ibclass
BInstr
p1584
(dp1585
g2
Nsg17
S'ADD     LR, SP, #0x58+var_34'
p1586
sg19
S'24e08de2'
p1587
sg21
Vadd lr, sp, #0x24
p1588
sg5
L1049344L
sg6
Nsg23
S'ADD'
p1589
sg25
S'0x100300L'
p1590
sg27
Nsba(ibclass
BInstr
p1591
(dp1592
g2
Nsg17
S'ADD     R4, SP, #0x58+var_33'
p1593
sg19
S'25408de2'
p1594
sg21
Vadd r4, sp, #0x25
p1595
sg5
L1049348L
sg6
Nsg23
S'ADD'
p1596
sg25
S'0x100304L'
p1597
sg27
Nsba(ibclass
BInstr
p1598
(dp1599
g2
Nsg17
S'MOVNE   R5, #0'
p1600
sg19
S'0050a013'
p1601
sg21
Vmovne r5, #0
p1602
sg5
L1049352L
sg6
Nsg23
S'MOV'
p1603
sg25
S'0x100308L'
p1604
sg27
Nsba(ibclass
BInstr
p1605
(dp1606
g2
Nsg17
S'MOVEQ   R5, #1'
p1607
sg19
S'0150a003'
p1608
sg21
Vmoveq r5, #1
p1609
sg5
L1049356L
sg6
Nsg23
S'MOV'
p1610
sg25
S'0x10030cL'
p1611
sg27
Nsba(ibclass
BInstr
p1612
(dp1613
g2
Nsg17
S'BEQ     loc_100124'
p1614
sg19
S'83ffff0a'
p1615
sg21
Vbeq #0xfffffe14
p1616
sg5
L1049360L
sg6
Nsg23
g82
sg25
S'0x100310L'
p1617
sg27
Nsbasg84
(lp1618
S'ADD R7, SP, #0x58+dest'
p1619
aS'MOV R1, R5'
p1620
aS'MOV R2, #0xA'
p1621
aS'MOV R0, R7'
p1622
aS'BL memcpy'
p1623
aS'ADD R1, R5, #0xA'
p1624
aS'LDRB R3, mem'
p1625
aS'SUB R0, R4, #0xA'
p1626
aS'CMP R3, #0x2D'
p1627
aS'CMPNE R3, #0x5A'
p1628
aS'ADD R2, SP, #0x58+var_36'
p1629
aS'ADD R12, SP, #0x58+var_35'
p1630
aS'ADD LR, SP, #0x58+var_34'
p1631
aS'ADD R4, SP, #0x58+var_33'
p1632
aS'MOVNE R5, #0'
p1633
aS'MOVEQ R5, #1'
p1634
aS'BEQ func'
p1635
asg95
Nsg5
S'0x1002d0L'
p1636
sg97
(lp1637
S'0x1002b4L'
p1638
asg6
Nsg99
(lp1639
S'0x100124L'
p1640
aS'0x100314L'
p1641
asg103
Nsg104
Nsg105
S'80dc46c8d90b60fd7696c16d6940f95f'
p1642
sg107
S'e81cf7b052bc5f1d9da901a0c4776d9f'
p1643
sg109
(lp1644
g1505
ag1512
ag1519
ag1526
ag1533
ag1540
ag1547
ag1554
ag1561
ag1568
ag1575
ag1582
ag1589
ag1596
ag1603
ag1610
ag82
asg111
Nsba(ibclass
BBasicBlock
p1645
(dp1646
g12
Nsg13
(lp1647
(ibclass
BInstr
p1648
(dp1649
g2
Nsg17
S'CMP     R3, #0x2B'
p1650
sg19
S'2b0053e3'
p1651
sg21
Vcmp r3, #0x2b
p1652
sg5
L1049364L
sg6
Nsg23
S'CMP'
p1653
sg25
S'0x100314L'
p1654
sg27
Nsba(ibclass
BInstr
p1655
(dp1656
g2
Nsg17
S'BEQ     loc_100124'
p1657
sg19
S'81ffff0a'
p1658
sg21
Vbeq #0xfffffe0c
p1659
sg5
L1049368L
sg6
Nsg23
g82
sg25
S'0x100318L'
p1660
sg27
Nsbasg84
(lp1661
S'CMP R3, #0x2B'
p1662
aS'BEQ func'
p1663
asg95
Nsg5
S'0x100314L'
p1664
sg97
(lp1665
S'0x1000e0L'
p1666
aS'0x1002d0L'
p1667
asg6
Nsg99
(lp1668
S'0x100124L'
p1669
aS'0x10031cL'
p1670
asg103
Nsg104
Nsg105
S'c78fd620a449e3c979d3f3ec12d4ee88'
p1671
sg107
S'1966afb044d37b021a808868349fce09'
p1672
sg109
(lp1673
g1653
ag82
asg111
Nsba(ibclass
BBasicBlock
p1674
(dp1675
g12
Nsg13
(lp1676
(ibclass
BInstr
p1677
(dp1678
g2
Nsg17
S'CMP     R0, #1'
p1679
sg19
S'010050e3'
p1680
sg21
Vcmp r0, #1
p1681
sg5
L1049372L
sg6
Nsg23
S'CMP'
p1682
sg25
S'0x10031cL'
p1683
sg27
Nsba(ibclass
BInstr
p1684
(dp1685
g2
Nsg17
S'BEQ     loc_1000D4'
p1686
sg19
S'6bffff0a'
p1687
sg21
Vbeq #0xfffffdb4
p1688
sg5
L1049376L
sg6
Nsg23
g82
sg25
S'0x100320L'
p1689
sg27
Nsbasg84
(lp1690
S'CMP R0, #1'
p1691
aS'BEQ func'
p1692
asg95
Nsg5
S'0x10031cL'
p1693
sg97
(lp1694
S'0x100314L'
p1695
asg6
Nsg99
(lp1696
S'0x1000d4L'
p1697
aS'0x100324L'
p1698
asg103
Nsg104
Nsg105
S'c78fd620a449e3c979d3f3ec12d4ee88'
p1699
sg107
S'30443c5fcc85df5518eb57d5b1fdc6c9'
p1700
sg109
(lp1701
g1682
ag82
asg111
Nsba(ibclass
BBasicBlock
p1702
(dp1703
g12
Nsg13
(lp1704
(ibclass
BInstr
p1705
(dp1706
g2
Nsg17
S'STRB    R3, [R2]'
p1707
sg19
S'0030c2e5'
p1708
sg21
Vstrb r3, [r2]
p1709
sg5
L1049380L
sg6
Nsg23
S'STR'
p1710
sg25
S'0x100324L'
p1711
sg27
Nsba(ibclass
BInstr
p1712
(dp1713
g2
Nsg17
S'LDRB    R3, [R1,#1]'
p1714
sg19
S'0130d1e5'
p1715
sg21
Vldrb r3, [r1, #1]
p1716
sg5
L1049384L
sg6
Nsg23
S'LDR'
p1717
sg25
S'0x100328L'
p1718
sg27
Nsba(ibclass
BInstr
p1719
(dp1720
g2
Nsg17
S'SUBS    R0, R0, #2'
p1721
sg19
S'020050e2'
p1722
sg21
Vsubs r0, r0, #2
p1723
sg5
L1049388L
sg6
Nsg23
S'SUB'
p1724
sg25
S'0x10032cL'
p1725
sg27
Nsba(ibclass
BInstr
p1726
(dp1727
g2
Nsg17
S'STRB    R3, [R12]'
p1728
sg19
S'0030cce5'
p1729
sg21
Vstrb r3, [ip]
p1730
sg5
L1049392L
sg6
Nsg23
S'STR'
p1731
sg25
S'0x100330L'
p1732
sg27
Nsba(ibclass
BInstr
p1733
(dp1734
g2
Nsg17
S'ADD     R1, R1, #1'
p1735
sg19
S'011081e2'
p1736
sg21
Vadd r1, r1, #1
p1737
sg5
L1049396L
sg6
Nsg23
S'ADD'
p1738
sg25
S'0x100334L'
p1739
sg27
Nsba(ibclass
BInstr
p1740
(dp1741
g2
Nsg17
S'BEQ     loc_1003D0'
p1742
sg19
S'2400000a'
p1743
sg21
Vbeq #0x98
p1744
sg5
L1049400L
sg6
Nsg23
g82
sg25
S'0x100338L'
p1745
sg27
Nsbasg84
(lp1746
S'STRB R3, mem'
p1747
aS'LDRB R3, mem'
p1748
aS'SUBS R0, R0, #2'
p1749
aS'STRB R3, mem'
p1750
aS'ADD R1, R1, #1'
p1751
aS'BEQ func'
p1752
asg95
Nsg5
S'0x100324L'
p1753
sg97
(lp1754
S'0x10031cL'
p1755
asg6
Nsg99
(lp1756
S'0x10033cL'
p1757
aS'0x1003d0L'
p1758
asg103
Nsg104
Nsg105
S'4017f56affc5274a8932da070c09db9b'
p1759
sg107
S'51547497e6939ff1d9be0d00a5d1611d'
p1760
sg109
(lp1761
g1710
ag1717
ag1724
ag1731
ag1738
ag82
asg111
Nsba(ibclass
BBasicBlock
p1762
(dp1763
g12
Nsg13
(lp1764
(ibclass
BInstr
p1765
(dp1766
g2
Nsg17
S'LDRB    R3, [R1,#1]'
p1767
sg19
S'0130d1e5'
p1768
sg21
Vldrb r3, [r1, #1]
p1769
sg5
L1049404L
sg6
Nsg23
S'LDR'
p1770
sg25
S'0x10033cL'
p1771
sg27
Nsba(ibclass
BInstr
p1772
(dp1773
g2
Nsg17
S'ADD     R1, R1, #1'
p1774
sg19
S'011081e2'
p1775
sg21
Vadd r1, r1, #1
p1776
sg5
L1049408L
sg6
Nsg23
S'ADD'
p1777
sg25
S'0x100340L'
p1778
sg27
Nsba(ibclass
BInstr
p1779
(dp1780
g2
Nsg17
S'CMP     R3, #0x2E'
p1781
sg19
S'2e0053e3'
p1782
sg21
Vcmp r3, #0x2e
p1783
sg5
L1049412L
sg6
Nsg23
S'CMP'
p1784
sg25
S'0x100344L'
p1785
sg27
Nsba(ibclass
BInstr
p1786
(dp1787
g2
Nsg17
S'BNE     loc_100130'
p1788
sg19
S'78ffff1a'
p1789
sg21
Vbne #0xfffffde8
p1790
sg5
L1049416L
sg6
Nsg23
g82
sg25
S'0x100348L'
p1791
sg27
Nsbasg84
(lp1792
S'LDRB R3, mem'
p1793
aS'ADD R1, R1, #1'
p1794
aS'CMP R3, #0x2E'
p1795
aS'BNE func'
p1796
asg95
Nsg5
S'0x10033cL'
p1797
sg97
(lp1798
S'0x100324L'
p1799
asg6
Nsg99
(lp1800
S'0x100130L'
p1801
aS'0x10034cL'
p1802
asg103
Nsg104
Nsg105
S'f58179a3884326010ced9866bee49b8f'
p1803
sg107
S'5c8ee52daca0484e2d80d3b66e40c92b'
p1804
sg109
(lp1805
g1770
ag1777
ag1784
ag82
asg111
Nsba(ibclass
BBasicBlock
p1806
(dp1807
g12
Nsg13
(lp1808
(ibclass
BInstr
p1809
(dp1810
g2
Nsg17
S'SUBS    R0, R0, #1'
p1811
sg19
S'010050e2'
p1812
sg21
Vsubs r0, r0, #1
p1813
sg5
L1049420L
sg6
Nsg23
S'SUB'
p1814
sg25
S'0x10034cL'
p1815
sg27
Nsba(ibclass
BInstr
p1816
(dp1817
g2
Nsg17
S'ADD     R1, R1, #1'
p1818
sg19
S'011081e2'
p1819
sg21
Vadd r1, r1, #1
p1820
sg5
L1049424L
sg6
Nsg23
S'ADD'
p1821
sg25
S'0x100350L'
p1822
sg27
Nsba(ibclass
BInstr
p1823
(dp1824
g2
Nsg17
S'BEQ     loc_1003D0'
p1825
sg19
S'1d00000a'
p1826
sg21
Vbeq #0x7c
p1827
sg5
L1049428L
sg6
Nsg23
g82
sg25
S'0x100354L'
p1828
sg27
Nsbasg84
(lp1829
S'SUBS R0, R0, #1'
p1830
aS'ADD R1, R1, #1'
p1831
aS'BEQ func'
p1832
asg95
Nsg5
S'0x10034cL'
p1833
sg97
(lp1834
S'0x10033cL'
p1835
asg6
Nsg99
(lp1836
S'0x100358L'
p1837
aS'0x1003d0L'
p1838
asg103
Nsg104
Nsg105
S'cc015b7221a08a78b989e104eedc801a'
p1839
sg107
S'84a900ecc601b1599fe8910c5fe5b9eb'
p1840
sg109
(lp1841
g1814
ag1821
ag82
asg111
Nsba(ibclass
BBasicBlock
p1842
(dp1843
g12
Nsg13
(lp1844
(ibclass
BInstr
p1845
(dp1846
g2
Nsg17
S'LDRB    R3, [R1]'
p1847
sg19
S'0030d1e5'
p1848
sg21
Vldrb r3, [r1]
p1849
sg5
L1049432L
sg6
Nsg23
S'LDR'
p1850
sg25
S'0x100358L'
p1851
sg27
Nsba(ibclass
BInstr
p1852
(dp1853
g2
Nsg17
S'SUB     R3, R3, #0x30'
p1854
sg19
S'303043e2'
p1855
sg21
Vsub r3, r3, #0x30
p1856
sg5
L1049436L
sg6
Nsg23
S'SUB'
p1857
sg25
S'0x10035cL'
p1858
sg27
Nsba(ibclass
BInstr
p1859
(dp1860
g2
Nsg17
S'CMP     R3, #9'
p1861
sg19
S'090053e3'
p1862
sg21
Vcmp r3, #9
p1863
sg5
L1049440L
sg6
Nsg23
S'CMP'
p1864
sg25
S'0x100360L'
p1865
sg27
Nsba(ibclass
BInstr
p1866
(dp1867
g2
Nsg17
S'MOVLS   R2, R5'
p1868
sg19
S'0520a091'
p1869
sg21
Vmovls r2, r5
p1870
sg5
L1049444L
sg6
Nsg23
S'MOV'
p1871
sg25
S'0x100364L'
p1872
sg27
Nsba(ibclass
BInstr
p1873
(dp1874
g2
Nsg17
S'BLS     loc_100380'
p1875
sg19
S'0400009a'
p1876
sg21
Vbls #0x18
p1877
sg5
L1049448L
sg6
Nsg23
g82
sg25
S'0x100368L'
p1878
sg27
Nsbasg84
(lp1879
S'LDRB R3, mem'
p1880
aS'SUB R3, R3, #0x30'
p1881
aS'CMP R3, #9'
p1882
aS'MOVLS R2, R5'
p1883
aS'BLS func'
p1884
asg95
Nsg5
S'0x100358L'
p1885
sg97
(lp1886
S'0x10034cL'
p1887
asg6
Nsg99
(lp1888
S'0x10036cL'
p1889
aS'0x100380L'
p1890
asg103
Nsg104
Nsg105
S'6b9cd72b3c49691a818af78c1b76583d'
p1891
sg107
S'2a25e453da985b039b0fa570084fc896'
p1892
sg109
(lp1893
g1850
ag1857
ag1864
ag1871
ag82
asg111
Nsba(ibclass
BBasicBlock
p1894
(dp1895
g12
Nsg13
(lp1896
(ibclass
BInstr
p1897
(dp1898
g2
Nsg17
S'B       loc_100130'
p1899
sg19
S'6fffffea'
p1900
sg21
Vb #0xfffffdc4
p1901
sg5
L1049452L
sg6
Nsg23
g82
sg25
S'0x10036cL'
p1902
sg27
Nsbasg84
(lp1903
S'B func'
p1904
asg95
Nsg5
S'0x10036cL'
p1905
sg97
(lp1906
S'0x100358L'
p1907
asg6
Nsg99
(lp1908
S'0x100130L'
p1909
asg103
Nsg104
Nsg105
S'9d5ed678fe57bcca610140957afab571'
p1910
sg107
S'071b057c420e304c628380fd3541c021'
p1911
sg109
(lp1912
g82
asg111
Nsba(ibclass
BBasicBlock
p1913
(dp1914
g12
Nsg13
(lp1915
(ibclass
BInstr
p1916
(dp1917
g2
Nsg17
S'LDRB    R3, [R1]'
p1918
sg19
S'0030d1e5'
p1919
sg21
Vldrb r3, [r1]
p1920
sg5
L1049456L
sg6
Nsg23
S'LDR'
p1921
sg25
S'0x100370L'
p1922
sg27
Nsba(ibclass
BInstr
p1923
(dp1924
g2
Nsg17
S'SUB     R3, R3, #0x30'
p1925
sg19
S'303043e2'
p1926
sg21
Vsub r3, r3, #0x30
p1927
sg5
L1049460L
sg6
Nsg23
S'SUB'
p1928
sg25
S'0x100374L'
p1929
sg27
Nsba(ibclass
BInstr
p1930
(dp1931
g2
Nsg17
S'CMP     R3, #9'
p1932
sg19
S'090053e3'
p1933
sg21
Vcmp r3, #9
p1934
sg5
L1049464L
sg6
Nsg23
S'CMP'
p1935
sg25
S'0x100378L'
p1936
sg27
Nsba(ibclass
BInstr
p1937
(dp1938
g2
Nsg17
S'BHI     loc_100130'
p1939
sg19
S'6bffff8a'
p1940
sg21
Vbhi #0xfffffdb4
p1941
sg5
L1049468L
sg6
Nsg23
g82
sg25
S'0x10037cL'
p1942
sg27
Nsbasg84
(lp1943
S'LDRB R3, mem'
p1944
aS'SUB R3, R3, #0x30'
p1945
aS'CMP R3, #9'
p1946
aS'BHI func'
p1947
asg95
Nsg5
S'0x100370L'
p1948
sg97
(lp1949
S'0x100380L'
p1950
asg6
Nsg99
(lp1951
S'0x100130L'
p1952
aS'0x100380L'
p1953
asg103
Nsg104
Nsg105
S'dd5dbfa9105770945b09dacfec96972a'
p1954
sg107
S'81a945880911df89369e811ee56dd82e'
p1955
sg109
(lp1956
g1921
ag1928
ag1935
ag82
asg111
Nsba(ibclass
BBasicBlock
p1957
(dp1958
g12
Nsg13
(lp1959
(ibclass
BInstr
p1960
(dp1961
g2
Nsg17
S'SUBS    R0, R0, #1'
p1962
sg19
S'010050e2'
p1963
sg21
Vsubs r0, r0, #1
p1964
sg5
L1049472L
sg6
Nsg23
S'SUB'
p1965
sg25
S'0x100380L'
p1966
sg27
Nsba(ibclass
BInstr
p1967
(dp1968
g2
Nsg17
S'MOVEQ   R3, #0'
p1969
sg19
S'0030a003'
p1970
sg21
Vmoveq r3, #0
p1971
sg5
L1049476L
sg6
Nsg23
S'MOV'
p1972
sg25
S'0x100384L'
p1973
sg27
Nsba(ibclass
BInstr
p1974
(dp1975
g2
Nsg17
S'MOVNE   R3, #1'
p1976
sg19
S'0130a013'
p1977
sg21
Vmovne r3, #1
p1978
sg5
L1049480L
sg6
Nsg23
S'MOV'
p1979
sg25
S'0x100388L'
p1980
sg27
Nsba(ibclass
BInstr
p1981
(dp1982
g2
Nsg17
S'ADD     R2, R2, #1'
p1983
sg19
S'012082e2'
p1984
sg21
Vadd r2, r2, #1
p1985
sg5
L1049484L
sg6
Nsg23
S'ADD'
p1986
sg25
S'0x10038cL'
p1987
sg27
Nsba(ibclass
BInstr
p1988
(dp1989
g2
Nsg17
S'CMP     R2, #2'
p1990
sg19
S'020052e3'
p1991
sg21
Vcmp r2, #2
p1992
sg5
L1049488L
sg6
Nsg23
S'CMP'
p1993
sg25
S'0x100390L'
p1994
sg27
Nsba(ibclass
BInstr
p1995
(dp1996
g2
Nsg17
S'MOVGT   R12, #0'
p1997
sg19
S'00c0a0c3'
p1998
sg21
Vmovgt ip, #0
p1999
sg5
L1049492L
sg6
Nsg23
S'MOV'
p2000
sg25
S'0x100394L'
p2001
sg27
Nsba(ibclass
BInstr
p2002
(dp2003
g2
Nsg17
S'ANDLE   R12, R3, #1'
p2004
sg19
S'01c003d2'
p2005
sg21
Vandle ip, r3, #1
p2006
sg5
L1049496L
sg6
Nsg23
S'AND'
p2007
sg25
S'0x100398L'
p2008
sg27
Nsba(ibclass
BInstr
p2009
(dp2010
g2
Nsg17
S'CMP     R12, #0'
p2011
sg19
S'00005ce3'
p2012
sg21
Vcmp ip, #0
p2013
sg5
L1049500L
sg6
Nsg23
S'CMP'
p2014
sg25
S'0x10039cL'
p2015
sg27
Nsba(ibclass
BInstr
p2016
(dp2017
g2
Nsg17
S'ADD     R1, R1, #1'
p2018
sg19
S'011081e2'
p2019
sg21
Vadd r1, r1, #1
p2020
sg5
L1049504L
sg6
Nsg23
S'ADD'
p2021
sg25
S'0x1003a0L'
p2022
sg27
Nsba(ibclass
BInstr
p2023
(dp2024
g2
Nsg17
S'BNE     loc_100370'
p2025
sg19
S'f1ffff1a'
p2026
sg21
Vbne #0xffffffcc
p2027
sg5
L1049508L
sg6
Nsg23
g82
sg25
S'0x1003a4L'
p2028
sg27
Nsbasg84
(lp2029
S'SUBS R0, R0, #1'
p2030
aS'MOVEQ R3, #0'
p2031
aS'MOVNE R3, #1'
p2032
aS'ADD R2, R2, #1'
p2033
aS'CMP R2, #2'
p2034
aS'MOVGT R12, #0'
p2035
aS'ANDLE R12, R3, #1'
p2036
aS'CMP R12, #0'
p2037
aS'ADD R1, R1, #1'
p2038
aS'BNE func'
p2039
asg95
Nsg5
S'0x100380L'
p2040
sg97
(lp2041
S'0x100358L'
p2042
aS'0x100370L'
p2043
asg6
Nsg99
(lp2044
S'0x100370L'
p2045
aS'0x1003a8L'
p2046
asg103
Nsg104
Nsg105
S'931fae2c050a1678be8d6a6c56c9de34'
p2047
sg107
S'fb3d8572a77c2b1c05cad11743d4f2fd'
p2048
sg109
(lp2049
g1965
ag1972
ag1979
ag1986
ag1993
ag2000
ag2007
ag2014
ag2021
ag82
asg111
Nsba(ibclass
BBasicBlock
p2050
(dp2051
g12
Nsg13
(lp2052
(ibclass
BInstr
p2053
(dp2054
g2
Nsg17
S'MOV     R3, #0x5A'
p2055
sg19
S'5a30a0e3'
p2056
sg21
Vmov r3, #0x5a
p2057
sg5
L1049512L
sg6
Nsg23
S'MOV'
p2058
sg25
S'0x1003a8L'
p2059
sg27
Nsba(ibclass
BInstr
p2060
(dp2061
g2
Nsg17
S'CMP     R0, #0'
p2062
sg19
S'000050e3'
p2063
sg21
Vcmp r0, #0
p2064
sg5
L1049516L
sg6
Nsg23
S'CMP'
p2065
sg25
S'0x1003acL'
p2066
sg27
Nsba(ibclass
BInstr
p2067
(dp2068
g2
Nsg17
S'STRB    R3, [LR]'
p2069
sg19
S'0030cee5'
p2070
sg21
Vstrb r3, [lr]
p2071
sg5
L1049520L
sg6
Nsg23
S'STR'
p2072
sg25
S'0x1003b0L'
p2073
sg27
Nsba(ibclass
BInstr
p2074
(dp2075
g2
Nsg17
S'STRB    R12, [R4]'
p2076
sg19
S'00c0c4e5'
p2077
sg21
Vstrb ip, [r4]
p2078
sg5
L1049524L
sg6
Nsg23
S'STR'
p2079
sg25
S'0x1003b4L'
p2080
sg27
Nsba(ibclass
BInstr
p2081
(dp2082
g2
Nsg17
S'BEQ     loc_1000D4'
p2083
sg19
S'45ffff0a'
p2084
sg21
Vbeq #0xfffffd1c
p2085
sg5
L1049528L
sg6
Nsg23
g82
sg25
S'0x1003b8L'
p2086
sg27
Nsbasg84
(lp2087
S'MOV R3, #0x5A'
p2088
aS'CMP R0, #0'
p2089
aS'STRB R3, mem'
p2090
aS'STRB R12, mem'
p2091
aS'BEQ func'
p2092
asg95
Nsg5
S'0x1003a8L'
p2093
sg97
(lp2094
S'0x100380L'
p2095
asg6
Nsg99
(lp2096
S'0x1000d4L'
p2097
aS'0x1003bcL'
p2098
asg103
Nsg104
Nsg105
S'8ea878b8083d4c1f308a35425b45d003'
p2099
sg107
S'f458f6d908e76b53d2a59041cd9706ee'
p2100
sg109
(lp2101
g2058
ag2065
ag2072
ag2079
ag82
asg111
Nsba(ibclass
BBasicBlock
p2102
(dp2103
g12
Nsg13
(lp2104
(ibclass
BInstr
p2105
(dp2106
g2
Nsg17
S'B       loc_100140'
p2107
sg19
S'5fffffea'
p2108
sg21
Vb #0xfffffd84
p2109
sg5
L1049532L
sg6
Nsg23
g82
sg25
S'0x1003bcL'
p2110
sg27
Nsbasg84
(lp2111
S'B func'
p2112
asg95
Nsg5
S'0x1003bcL'
p2113
sg97
(lp2114
S'0x1003a8L'
p2115
asg6
Nsg99
(lp2116
S'0x100140L'
p2117
asg103
Nsg104
Nsg105
S'9d5ed678fe57bcca610140957afab571'
p2118
sg107
S'071b057c420e304c628380fd3541c021'
p2119
sg109
(lp2120
g82
asg111
Nsba(ibclass
BBasicBlock
p2121
(dp2122
g12
Nsg13
(lp2123
(ibclass
BInstr
p2124
(dp2125
g2
Nsg17
S'CMP     R0, #1'
p2126
sg19
S'010050e3'
p2127
sg21
Vcmp r0, #1
p2128
sg5
L1049536L
sg6
Nsg23
S'CMP'
p2129
sg25
S'0x1003c0L'
p2130
sg27
Nsba(ibclass
BInstr
p2131
(dp2132
g2
Nsg17
S'MOVEQ   R1, #0'
p2133
sg19
S'0010a003'
p2134
sg21
Vmoveq r1, #0
p2135
sg5
L1049540L
sg6
Nsg23
S'MOV'
p2136
sg25
S'0x1003c4L'
p2137
sg27
Nsba(ibclass
BInstr
p2138
(dp2139
g2
Nsg17
S'BNE     loc_1000D4'
p2140
sg19
S'41ffff1a'
p2141
sg21
Vbne #0xfffffd0c
p2142
sg5
L1049544L
sg6
Nsg23
g82
sg25
S'0x1003c8L'
p2143
sg27
Nsbasg84
(lp2144
S'CMP R0, #1'
p2145
aS'MOVEQ R1, #0'
p2146
aS'BNE func'
p2147
asg95
Nsg5
S'0x1003c0L'
p2148
sg97
(lp2149
S'0x100140L'
p2150
asg6
Nsg99
(lp2151
S'0x1000d4L'
p2152
aS'0x1003ccL'
p2153
asg103
Nsg104
Nsg105
S'e8df9ba4cde3984b4ab59d5bb6791e02'
p2154
sg107
S'f3e9bc009854f1adaacb40d594d6814e'
p2155
sg109
(lp2156
g2129
ag2136
ag82
asg111
Nsba(ibclass
BBasicBlock
p2157
(dp2158
g12
Nsg13
(lp2159
(ibclass
BInstr
p2160
(dp2161
g2
Nsg17
S'B       loc_100200'
p2162
sg19
S'8bffffea'
p2163
sg21
Vb #0xfffffe34
p2164
sg5
L1049548L
sg6
Nsg23
g82
sg25
S'0x1003ccL'
p2165
sg27
Nsbasg84
(lp2166
S'B func'
p2167
asg95
Nsg5
S'0x1003ccL'
p2168
sg97
(lp2169
S'0x1003c0L'
p2170
asg6
Nsg99
(lp2171
S'0x100200L'
p2172
asg103
Nsg104
Nsg105
S'9d5ed678fe57bcca610140957afab571'
p2173
sg107
S'071b057c420e304c628380fd3541c021'
p2174
sg109
(lp2175
g82
asg111
Nsba(ibclass
BBasicBlock
p2176
(dp2177
g12
Nsg13
(lp2178
(ibclass
BInstr
p2179
(dp2180
g2
Nsg17
S'MOV     R3, #0x5A'
p2181
sg19
S'5a30a0e3'
p2182
sg21
Vmov r3, #0x5a
p2183
sg5
L1049552L
sg6
Nsg23
S'MOV'
p2184
sg25
S'0x1003d0L'
p2185
sg27
Nsba(ibclass
BInstr
p2186
(dp2187
g2
Nsg17
S'STRB    R3, [LR]'
p2188
sg19
S'0030cee5'
p2189
sg21
Vstrb r3, [lr]
p2190
sg5
L1049556L
sg6
Nsg23
S'STR'
p2191
sg25
S'0x1003d4L'
p2192
sg27
Nsba(ibclass
BInstr
p2193
(dp2194
g2
Nsg17
S'STRB    R0, [R4]'
p2195
sg19
S'0000c4e5'
p2196
sg21
Vstrb r0, [r4]
p2197
sg5
L1049560L
sg6
Nsg23
S'STR'
p2198
sg25
S'0x1003d8L'
p2199
sg27
Nsba(ibclass
BInstr
p2200
(dp2201
g2
Nsg17
S'B       loc_1000D8'
p2202
sg19
S'3dffffea'
p2203
sg21
Vb #0xfffffcfc
p2204
sg5
L1049564L
sg6
Nsg23
g82
sg25
S'0x1003dcL'
p2205
sg27
Nsbasg84
(lp2206
S'MOV R3, #0x5A'
p2207
aS'STRB R3, mem'
p2208
aS'STRB R0, mem'
p2209
aS'B func'
p2210
asg95
Nsg5
S'0x1003d0L'
p2211
sg97
(lp2212
S'0x100324L'
p2213
aS'0x10034cL'
p2214
asg6
Nsg99
(lp2215
S'0x1000d8L'
p2216
asg103
Nsg104
Nsg105
S'6ce10f0f38bdde8f59cacb1eeac9f45a'
p2217
sg107
S'47ceb528518fd4f96e96d38e12122ac4'
p2218
sg109
(lp2219
g2184
ag2191
ag2198
ag82
asg111
Nsbasb.