(ibclass
BFunc
p0
(dp1
S'hash'
p2
NsS'name'
p3
S'dtls1_listen'
p4
sS'start_address'
p5
L219100L
sS'flag'
p6
NsS'program'
p7
NsS'bbs'
p8
(lp9
(ibclass
BBasicBlock
p10
(dp11
S'function'
p12
NsS'binstrs'
p13
(lp14
(ibclass
BInstr
p15
(dp16
g2
NsS'disasm'
p17
S'STMFD   SP!, {R4-R6,LR}'
p18
sS'bytes'
p19
S'70402de9'
p20
sS'disasm_striped'
p21
Vpush {r4, r5, r6, lr}
p22
sg5
L219100L
sg6
NsS'mnem'
p23
S'STM'
p24
sS'address'
p25
S'0x357dcL'
p26
sS'basicblock'
p27
Nsba(ibclass
BInstr
p28
(dp29
g2
Nsg17
S'MOV     R4, R0'
p30
sg19
S'0040a0e1'
p31
sg21
Vmov r4, r0
p32
sg5
L219104L
sg6
Nsg23
S'MOV'
p33
sg25
S'0x357e0L'
p34
sg27
Nsba(ibclass
BInstr
p35
(dp36
g2
Nsg17
S'MOV     R6, R1'
p37
sg19
S'0160a0e1'
p38
sg21
Vmov r6, r1
p39
sg5
L219108L
sg6
Nsg23
S'MOV'
p40
sg25
S'0x357e4L'
p41
sg27
Nsba(ibclass
BInstr
p42
(dp43
g2
Nsg17
S'BL      SSL_clear'
p44
sg19
S'292400eb'
p45
sg21
Vbl #0x90ac
p46
sg5
L219112L
sg6
Nsg23
S'BL'
p47
sg25
S'0x357e8L'
p48
sg27
Nsba(ibclass
BInstr
p49
(dp50
g2
Nsg17
S'MOV     R1, #0x20'
p51
sg19
S'2010a0e3'
p52
sg21
Vmov r1, #0x20
p53
sg5
L219116L
sg6
Nsg23
S'MOV'
p54
sg25
S'0x357ecL'
p55
sg27
Nsba(ibclass
BInstr
p56
(dp57
g2
Nsg17
S'MOV     R2, #0x2000'
p58
sg19
S'022aa0e3'
p59
sg21
Vmov r2, #0x2000
p60
sg5
L219120L
sg6
Nsg23
S'MOV'
p61
sg25
S'0x357f0L'
p62
sg27
Nsba(ibclass
BInstr
p63
(dp64
g2
Nsg17
S'MOV     R3, #0'
p65
sg19
S'0030a0e3'
p66
sg21
Vmov r3, #0
p67
sg5
L219124L
sg6
Nsg23
S'MOV'
p68
sg25
S'0x357f4L'
p69
sg27
Nsba(ibclass
BInstr
p70
(dp71
g2
Nsg17
S'MOV     R0, R4'
p72
sg19
S'0400a0e1'
p73
sg21
Vmov r0, r4
p74
sg5
L219128L
sg6
Nsg23
S'MOV'
p75
sg25
S'0x357f8L'
p76
sg27
Nsba(ibclass
BInstr
p77
(dp78
g2
Nsg17
S'BL      SSL_ctrl'
p79
sg19
S'031500eb'
p80
sg21
Vbl #0x5414
p81
sg5
L219132L
sg6
Nsg23
S'BL'
p82
sg25
S'0x357fcL'
p83
sg27
Nsba(ibclass
BInstr
p84
(dp85
g2
Nsg17
S'LDR     R3, [R4,#0x5C]'
p86
sg19
S'5c3094e5'
p87
sg21
Vldr r3, [r4, #0x5c]
p88
sg5
L219136L
sg6
Nsg23
S'LDR'
p89
sg25
S'0x35800L'
p90
sg27
Nsba(ibclass
BInstr
p91
(dp92
g2
Nsg17
S'MOV     R5, #1'
p93
sg19
S'0150a0e3'
p94
sg21
Vmov r5, #1
p95
sg5
L219140L
sg6
Nsg23
S'MOV'
p96
sg25
S'0x35804L'
p97
sg27
Nsba(ibclass
BInstr
p98
(dp99
g2
Nsg17
S'STR     R5, [R3,#0x254]'
p100
sg19
S'545283e5'
p101
sg21
Vstr r5, [r3, #0x254]
p102
sg5
L219144L
sg6
Nsg23
S'STR'
p103
sg25
S'0x35808L'
p104
sg27
Nsba(ibclass
BInstr
p105
(dp106
g2
Nsg17
S'MOV     R0, R4'
p107
sg19
S'0400a0e1'
p108
sg21
Vmov r0, r4
p109
sg5
L219148L
sg6
Nsg23
S'MOV'
p110
sg25
S'0x3580cL'
p111
sg27
Nsba(ibclass
BInstr
p112
(dp113
g2
Nsg17
S'BL      SSL_accept'
p114
sg19
S'6f1a00eb'
p115
sg21
Vbl #0x69c4
p116
sg5
L219152L
sg6
Nsg23
S'BL'
p117
sg25
S'0x35810L'
p118
sg27
Nsba(ibclass
BInstr
p119
(dp120
g2
Nsg17
S'CMP     R0, #0'
p121
sg19
S'000050e3'
p122
sg21
Vcmp r0, #0
p123
sg5
L219156L
sg6
Nsg23
S'CMP'
p124
sg25
S'0x35814L'
p125
sg27
Nsba(ibclass
BInstr
p126
(dp127
g2
Nsg17
S'LDMLEFD SP!, {R4-R6,PC}'
p128
sg19
S'7080bdd8'
p129
sg21
Vpople {r4, r5, r6, pc}
p130
sg5
L219160L
sg6
Nsg23
S'LDM'
p131
sg25
S'0x35818L'
p132
sg27
NsbasS'disasm_list'
p133
(lp134
S'STMFD SP!, {R4-R6,LR}'
p135
aS'MOV R4, R0'
p136
aS'MOV R6, R1'
p137
aS'BL SSL_regear'
p138
aS'MOV R1, #0x20'
p139
aS'MOV R2, #0x2000'
p140
aS'MOV R3, #0'
p141
aS'MOV R0, R4'
p142
aS'BL SSL_ctrl'
p143
aS'LDR R3, mem'
p144
aS'MOV R5, #1'
p145
aS'STR R5, mem'
p146
aS'MOV R0, R4'
p147
aS'BL SSL_accept'
p148
aS'CMP R0, #0'
p149
aS'LDMLEFD SP!, {R4-R6,PC}'
p150
asS'end_address'
p151
Nsg5
S'0x357dcL'
p152
sS'preds'
p153
(lp154
sg6
NsS'succs'
p155
(lp156
S'0x3581cL'
p157
asS'hash_v3'
p158
NsS'flag_v2'
p159
NsS'hash_v1'
p160
S'1018b1b275a52b0313c075f07e8754b1'
p161
sS'hash_v2'
p162
S'0ffb227f168c77144bd183cd8795dfae'
p163
sS'mnen_list'
p164
(lp165
g24
ag33
ag40
ag47
ag54
ag61
ag68
ag75
ag82
ag89
ag96
ag103
ag110
ag117
ag124
ag131
asS'neighbour_disasm_list'
p166
Nsba(ibclass
BBasicBlock
p167
(dp168
g12
Nsg13
(lp169
(ibclass
BInstr
p170
(dp171
g2
Nsg17
S'MOV     R0, R4'
p172
sg19
S'0400a0e1'
p173
sg21
Vmov r0, r4
p174
sg5
L219164L
sg6
Nsg23
S'MOV'
p175
sg25
S'0x3581cL'
p176
sg27
Nsba(ibclass
BInstr
p177
(dp178
g2
Nsg17
S'BL      SSL_get_rbio'
p179
sg19
S'ac1400eb'
p180
sg21
Vbl #0x52b8
p181
sg5
L219168L
sg6
Nsg23
S'BL'
p182
sg25
S'0x35820L'
p183
sg27
Nsba(ibclass
BInstr
p184
(dp185
g2
Nsg17
S'MOV     R3, R6'
p186
sg19
S'0630a0e1'
p187
sg21
Vmov r3, r6
p188
sg5
L219172L
sg6
Nsg23
S'MOV'
p189
sg25
S'0x35824L'
p190
sg27
Nsba(ibclass
BInstr
p191
(dp192
g2
Nsg17
S'MOV     R1, #0x2E'
p193
sg19
S'2e10a0e3'
p194
sg21
Vmov r1, #0x2e
p195
sg5
L219176L
sg6
Nsg23
S'MOV'
p196
sg25
S'0x35828L'
p197
sg27
Nsba(ibclass
BInstr
p198
(dp199
g2
Nsg17
S'MOV     R2, #0'
p200
sg19
S'0020a0e3'
p201
sg21
Vmov r2, #0
p202
sg5
L219180L
sg6
Nsg23
S'MOV'
p203
sg25
S'0x3582cL'
p204
sg27
Nsba(ibclass
BInstr
p205
(dp206
g2
Nsg17
S'BL      BIO_ctrl'
p207
sg19
S'ec63ffeb'
p208
sg21
Vbl #0xfffd8fb8
p209
sg5
L219184L
sg6
Nsg23
S'BL'
p210
sg25
S'0x35830L'
p211
sg27
Nsba(ibclass
BInstr
p212
(dp213
g2
Nsg17
S'MOV     R0, R5'
p214
sg19
S'0500a0e1'
p215
sg21
Vmov r0, r5
p216
sg5
L219188L
sg6
Nsg23
S'MOV'
p217
sg25
S'0x35834L'
p218
sg27
Nsba(ibclass
BInstr
p219
(dp220
g2
Nsg17
S'LDMFD   SP!, {R4-R6,PC}'
p221
sg19
S'7080bde8'
p222
sg21
Vpop {r4, r5, r6, pc}
p223
sg5
L219192L
sg6
Nsg23
S'LDM'
p224
sg25
S'0x35838L'
p225
sg27
Nsbasg133
(lp226
S'MOV R0, R4'
p227
aS'BL SSL_get_rbio'
p228
aS'MOV R3, R6'
p229
aS'MOV R1, #0x2E'
p230
aS'MOV R2, #0'
p231
aS'BL BIO_ctrl'
p232
aS'MOV R0, R5'
p233
aS'LDMFD SP!, {R4-R6,PC}'
p234
asg151
Nsg5
S'0x3581cL'
p235
sg153
(lp236
S'0x357dcL'
p237
asg6
Nsg155
(lp238
sg158
Nsg159
Nsg160
S'779fbec6482553d1156fa83ce092ae35'
p239
sg162
S'6ab4996f7e1f97e19d3ad4e316c7f966'
p240
sg164
(lp241
g175
ag182
ag189
ag196
ag203
ag210
ag217
ag224
asg166
Nsbasb.