(ibclass
BFunc
p0
(dp1
S'hash'
p2
NsS'name'
p3
S'ssl3_send_alert'
p4
sS'start_address'
p5
L146584L
sS'flag'
p6
NsS'program'
p7
NsS'bbs'
p8
(lp9
(ibclass
BBasicBlock
p10
(dp11
S'function'
p12
NsS'binstrs'
p13
(lp14
(ibclass
BInstr
p15
(dp16
g2
NsS'disasm'
p17
S'LDR     R3, [R0,#8]'
p18
sS'bytes'
p19
S'083090e5'
p20
sS'disasm_striped'
p21
Vldr r3, [r0, #8]
p22
sg5
L146584L
sg6
NsS'mnem'
p23
S'LDR'
p24
sS'address'
p25
S'0x23c98L'
p26
sS'basicblock'
p27
Nsba(ibclass
BInstr
p28
(dp29
g2
Nsg17
S'STMFD   SP!, {R4-R6,LR}'
p30
sg19
S'70402de9'
p31
sg21
Vpush {r4, r5, r6, lr}
p32
sg5
L146588L
sg6
Nsg23
S'STM'
p33
sg25
S'0x23c9cL'
p34
sg27
Nsba(ibclass
BInstr
p35
(dp36
g2
Nsg17
S'MOV     R4, R0'
p37
sg19
S'0040a0e1'
p38
sg21
Vmov r4, r0
p39
sg5
L146592L
sg6
Nsg23
S'MOV'
p40
sg25
S'0x23ca0L'
p41
sg27
Nsba(ibclass
BInstr
p42
(dp43
g2
Nsg17
S'MOV     R0, R2'
p44
sg19
S'0200a0e1'
p45
sg21
Vmov r0, r2
p46
sg5
L146596L
sg6
Nsg23
S'MOV'
p47
sg25
S'0x23ca4L'
p48
sg27
Nsba(ibclass
BInstr
p49
(dp50
g2
Nsg17
S'LDR     R2, [R3,#0x64]'
p51
sg19
S'642093e5'
p52
sg21
Vldr r2, [r3, #0x64]
p53
sg5
L146600L
sg6
Nsg23
S'LDR'
p54
sg25
S'0x23ca8L'
p55
sg27
Nsba(ibclass
BInstr
p56
(dp57
g2
Nsg17
S'MOV     R5, R1'
p58
sg19
S'0150a0e1'
p59
sg21
Vmov r5, r1
p60
sg5
L146604L
sg6
Nsg23
S'MOV'
p61
sg25
S'0x23cacL'
p62
sg27
Nsba(ibclass
BInstr
p63
(dp64
g2
Nsg17
S'MOV     LR, PC'
p65
sg19
S'0fe0a0e1'
p66
sg21
Vmov lr, pc
p67
sg5
L146608L
sg6
Nsg23
S'MOV'
p68
sg25
S'0x23cb0L'
p69
sg27
Nsba(ibclass
BInstr
p70
(dp71
g2
Nsg17
S'LDR     PC, [R2,#0x30]'
p72
sg19
S'30f092e5'
p73
sg21
Vldr pc, [r2, #0x30]
p74
sg5
L146612L
sg6
Nsg23
S'LDR'
p75
sg25
S'0x23cb4L'
p76
sg27
Nsba(ibclass
BInstr
p77
(dp78
g2
Nsg17
S'LDR     R3, [R4]'
p79
sg19
S'003094e5'
p80
sg21
Vldr r3, [r4]
p81
sg5
L146616L
sg6
Nsg23
S'LDR'
p82
sg25
S'0x23cb8L'
p83
sg27
Nsba(ibclass
BInstr
p84
(dp85
g2
Nsg17
S'CMP     R3, #0x300'
p86
sg19
S'030c53e3'
p87
sg21
Vcmp r3, #0x300
p88
sg5
L146620L
sg6
Nsg23
S'CMP'
p89
sg25
S'0x23cbcL'
p90
sg27
Nsba(ibclass
BInstr
p91
(dp92
g2
Nsg17
S'CMPEQ   R0, #0x46'
p93
sg19
S'46005003'
p94
sg21
Vcmpeq r0, #0x46
p95
sg5
L146624L
sg6
Nsg23
S'CMP'
p96
sg25
S'0x23cc0L'
p97
sg27
Nsba(ibclass
BInstr
p98
(dp99
g2
Nsg17
S'MOVEQ   R6, #0x28'
p100
sg19
S'2860a003'
p101
sg21
Vmoveq r6, #0x28
p102
sg5
L146628L
sg6
Nsg23
S'MOV'
p103
sg25
S'0x23cc4L'
p104
sg27
Nsba(ibclass
BInstr
p105
(dp106
g2
Nsg17
S'BNE     loc_23D10'
p107
sg19
S'1000001a'
p108
sg21
Vbne #0x48
p109
sg5
L146632L
sg6
Nsg23
S'B'
p110
sg25
S'0x23cc8L'
p111
sg27
NsbasS'disasm_list'
p112
(lp113
S'LDR R3, mem'
p114
aS'STMFD SP!, {R4-R6,LR}'
p115
aS'MOV R4, R0'
p116
aS'MOV R0, R2'
p117
aS'LDR R2, mem'
p118
aS'MOV R5, R1'
p119
aS'MOV LR, PC'
p120
aS'LDR PC, mem'
p121
aS'LDR R3, mem'
p122
aS'CMP R3, #0x300'
p123
aS'CMPEQ R0, #0x46'
p124
aS'MOVEQ R6, #0x28'
p125
aS'BNE func'
p126
asS'end_address'
p127
Nsg5
S'0x23c98L'
p128
sS'preds'
p129
(lp130
sg6
NsS'succs'
p131
(lp132
S'0x23cccL'
p133
aS'0x23d10L'
p134
asS'hash_v3'
p135
NsS'flag_v2'
p136
NsS'hash_v1'
p137
S'eed99e7cfffd667afed176e63e1e9cbb'
p138
sS'hash_v2'
p139
S'64a37b2da4b5302473e484cd237a9b40'
p140
sS'mnen_list'
p141
(lp142
g24
ag33
ag40
ag47
ag54
ag61
ag68
ag75
ag82
ag89
ag96
ag103
ag110
asS'neighbour_disasm_list'
p143
Nsba(ibclass
BBasicBlock
p144
(dp145
g12
Nsg13
(lp146
(ibclass
BInstr
p147
(dp148
g2
Nsg17
S'CMP     R5, #2'
p149
sg19
S'020055e3'
p150
sg21
Vcmp r5, #2
p151
sg5
L146636L
sg6
Nsg23
S'CMP'
p152
sg25
S'0x23cccL'
p153
sg27
Nsba(ibclass
BInstr
p154
(dp155
g2
Nsg17
S'BEQ     loc_23D20'
p156
sg19
S'1200000a'
p157
sg21
Vbeq #0x50
p158
sg5
L146640L
sg6
Nsg23
g110
sg25
S'0x23cd0L'
p159
sg27
Nsbasg112
(lp160
S'CMP R5, #2'
p161
aS'BEQ func'
p162
asg127
Nsg5
S'0x23cccL'
p163
sg129
(lp164
S'0x23c98L'
p165
aS'0x23d38L'
p166
asg6
Nsg131
(lp167
S'0x23cd4L'
p168
aS'0x23d20L'
p169
asg135
Nsg136
Nsg137
S'c78fd620a449e3c979d3f3ec12d4ee88'
p170
sg139
S'1e1650fce1236e3128d8f451c476b4f5'
p171
sg141
(lp172
g152
ag110
asg143
Nsba(ibclass
BBasicBlock
p173
(dp174
g12
Nsg13
(lp175
(ibclass
BInstr
p176
(dp177
g2
Nsg17
S'LDR     R2, [R4,#0x58]'
p178
sg19
S'582094e5'
p179
sg21
Vldr r2, [r4, #0x58]
p180
sg5
L146644L
sg6
Nsg23
S'LDR'
p181
sg25
S'0x23cd4L'
p182
sg27
Nsba(ibclass
BInstr
p183
(dp184
g2
Nsg17
S'MOV     R3, #1'
p185
sg19
S'0130a0e3'
p186
sg21
Vmov r3, #1
p187
sg5
L146648L
sg6
Nsg23
S'MOV'
p188
sg25
S'0x23cd8L'
p189
sg27
Nsba(ibclass
BInstr
p190
(dp191
g2
Nsg17
S'STRB    R5, [R2,#0x190]'
p192
sg19
S'9051c2e5'
p193
sg21
Vstrb r5, [r2, #0x190]
p194
sg5
L146652L
sg6
Nsg23
S'STR'
p195
sg25
S'0x23cdcL'
p196
sg27
Nsba(ibclass
BInstr
p197
(dp198
g2
Nsg17
S'LDR     R1, [R4,#0x58]'
p199
sg19
S'581094e5'
p200
sg21
Vldr r1, [r4, #0x58]
p201
sg5
L146656L
sg6
Nsg23
S'LDR'
p202
sg25
S'0x23ce0L'
p203
sg27
Nsba(ibclass
BInstr
p204
(dp205
g2
Nsg17
S'STR     R3, [R2,#0x18C]'
p206
sg19
S'8c3182e5'
p207
sg21
Vstr r3, [r2, #0x18c]
p208
sg5
L146660L
sg6
Nsg23
S'STR'
p209
sg25
S'0x23ce4L'
p210
sg27
Nsba(ibclass
BInstr
p211
(dp212
g2
Nsg17
S'STRB    R6, [R1,#0x191]'
p213
sg19
S'9161c1e5'
p214
sg21
Vstrb r6, [r1, #0x191]
p215
sg5
L146664L
sg6
Nsg23
S'STR'
p216
sg25
S'0x23ce8L'
p217
sg27
Nsba(ibclass
BInstr
p218
(dp219
g2
Nsg17
S'LDR     R3, [R4,#0x58]'
p220
sg19
S'583094e5'
p221
sg21
Vldr r3, [r4, #0x58]
p222
sg5
L146668L
sg6
Nsg23
S'LDR'
p223
sg25
S'0x23cecL'
p224
sg27
Nsba(ibclass
BInstr
p225
(dp226
g2
Nsg17
S'LDR     R2, [R3,#0x108]'
p227
sg19
S'082193e5'
p228
sg21
Vldr r2, [r3, #0x108]
p229
sg5
L146672L
sg6
Nsg23
S'LDR'
p230
sg25
S'0x23cf0L'
p231
sg27
Nsba(ibclass
BInstr
p232
(dp233
g2
Nsg17
S'CMP     R2, #0'
p234
sg19
S'000052e3'
p235
sg21
Vcmp r2, #0
p236
sg5
L146676L
sg6
Nsg23
S'CMP'
p237
sg25
S'0x23cf4L'
p238
sg27
Nsba(ibclass
BInstr
p239
(dp240
g2
Nsg17
S'BNE     loc_23D18'
p241
sg19
S'0600001a'
p242
sg21
Vbne #0x20
p243
sg5
L146680L
sg6
Nsg23
g110
sg25
S'0x23cf8L'
p244
sg27
Nsbasg112
(lp245
S'LDR R2, mem'
p246
aS'MOV R3, #1'
p247
aS'STRB R5, mem'
p248
aS'LDR R1, mem'
p249
aS'STR R3, mem'
p250
aS'STRB R6, mem'
p251
aS'LDR R3, mem'
p252
aS'LDR R2, mem'
p253
aS'CMP R2, #0'
p254
aS'BNE func'
p255
asg127
Nsg5
S'0x23cd4L'
p256
sg129
(lp257
S'0x23cccL'
p258
aS'0x23d20L'
p259
aS'0x23d2cL'
p260
asg6
Nsg131
(lp261
S'0x23cfcL'
p262
aS'0x23d18L'
p263
asg135
Nsg136
Nsg137
S'51ac2cf2b91447f540d253533c665008'
p264
sg139
S'6cd63ec55b8568b1eafd15186af6f662'
p265
sg141
(lp266
g181
ag188
ag195
ag202
ag209
ag216
ag223
ag230
ag237
ag110
asg143
Nsba(ibclass
BBasicBlock
p267
(dp268
g12
Nsg13
(lp269
(ibclass
BInstr
p270
(dp271
g2
Nsg17
S'MOV     R0, R4'
p272
sg19
S'0400a0e1'
p273
sg21
Vmov r0, r4
p274
sg5
L146684L
sg6
Nsg23
S'MOV'
p275
sg25
S'0x23cfcL'
p276
sg27
Nsba(ibclass
BInstr
p277
(dp278
g2
Nsg17
S'LDR     R3, [R4,#8]'
p279
sg19
S'083094e5'
p280
sg21
Vldr r3, [r4, #8]
p281
sg5
L146688L
sg6
Nsg23
S'LDR'
p282
sg25
S'0x23d00L'
p283
sg27
Nsba(ibclass
BInstr
p284
(dp285
g2
Nsg17
S'MOV     LR, PC'
p286
sg19
S'0fe0a0e1'
p287
sg21
Vmov lr, pc
p288
sg5
L146692L
sg6
Nsg23
S'MOV'
p289
sg25
S'0x23d04L'
p290
sg27
Nsba(ibclass
BInstr
p291
(dp292
g2
Nsg17
S'LDR     PC, [R3,#0x3C]'
p293
sg19
S'3cf093e5'
p294
sg21
Vldr pc, [r3, #0x3c]
p295
sg5
L146696L
sg6
Nsg23
S'LDR'
p296
sg25
S'0x23d08L'
p297
sg27
Nsba(ibclass
BInstr
p298
(dp299
g2
Nsg17
S'LDMFD   SP!, {R4-R6,PC}'
p300
sg19
S'7080bde8'
p301
sg21
Vpop {r4, r5, r6, pc}
p302
sg5
L146700L
sg6
Nsg23
S'LDM'
p303
sg25
S'0x23d0cL'
p304
sg27
Nsbasg112
(lp305
S'MOV R0, R4'
p306
aS'LDR R3, mem'
p307
aS'MOV LR, PC'
p308
aS'LDR PC, mem'
p309
aS'LDMFD SP!, {R4-R6,PC}'
p310
asg127
Nsg5
S'0x23cfcL'
p311
sg129
(lp312
S'0x23cd4L'
p313
asg6
Nsg131
(lp314
sg135
Nsg136
Nsg137
S'e72f19474ca29140b01d6ab296751bb1'
p315
sg139
S'e7e5f7297401e9d7e1a9e74c6c5afbd4'
p316
sg141
(lp317
g275
ag282
ag289
ag296
ag303
asg143
Nsba(ibclass
BBasicBlock
p318
(dp319
g12
Nsg13
(lp320
(ibclass
BInstr
p321
(dp322
g2
Nsg17
S'CMP     R0, #0'
p323
sg19
S'000050e3'
p324
sg21
Vcmp r0, #0
p325
sg5
L146704L
sg6
Nsg23
S'CMP'
p326
sg25
S'0x23d10L'
p327
sg27
Nsba(ibclass
BInstr
p328
(dp329
g2
Nsg17
S'BGE     loc_23D38'
p330
sg19
S'070000aa'
p331
sg21
Vbge #0x24
p332
sg5
L146708L
sg6
Nsg23
g110
sg25
S'0x23d14L'
p333
sg27
Nsbasg112
(lp334
S'CMP R0, #0'
p335
aS'BGE func'
p336
asg127
Nsg5
S'0x23d10L'
p337
sg129
(lp338
S'0x23c98L'
p339
asg6
Nsg131
(lp340
S'0x23d18L'
p341
aS'0x23d38L'
p342
asg135
Nsg136
Nsg137
S'c78fd620a449e3c979d3f3ec12d4ee88'
p343
sg139
S'dd09be0b643f97c46779a90fd0deabe2'
p344
sg141
(lp345
g326
ag110
asg143
Nsba(ibclass
BBasicBlock
p346
(dp347
g12
Nsg13
(lp348
(ibclass
BInstr
p349
(dp350
g2
Nsg17
S'MOV     R0, #0xFFFFFFFF'
p351
sg19
S'0000e0e3'
p352
sg21
Vmvn r0, #0
p353
sg5
L146712L
sg6
Nsg23
S'MOV'
p354
sg25
S'0x23d18L'
p355
sg27
Nsba(ibclass
BInstr
p356
(dp357
g2
Nsg17
S'LDMFD   SP!, {R4-R6,PC}'
p358
sg19
S'7080bde8'
p359
sg21
Vpop {r4, r5, r6, pc}
p360
sg5
L146716L
sg6
Nsg23
S'LDM'
p361
sg25
S'0x23d1cL'
p362
sg27
Nsbasg112
(lp363
S'MOV R0, #0xFFFFFFFF'
p364
aS'LDMFD SP!, {R4-R6,PC}'
p365
asg127
Nsg5
S'0x23d18L'
p366
sg129
(lp367
S'0x23cd4L'
p368
aS'0x23d10L'
p369
asg6
Nsg131
(lp370
sg135
Nsg136
Nsg137
S'775399b5f2078fea03284150c8bb03ad'
p371
sg139
S'8d8f7525ff5db75e2e119c209a66be29'
p372
sg141
(lp373
g354
ag361
asg143
Nsba(ibclass
BBasicBlock
p374
(dp375
g12
Nsg13
(lp376
(ibclass
BInstr
p377
(dp378
g2
Nsg17
S'LDR     R1, [R4,#0xC0]'
p379
sg19
S'c01094e5'
p380
sg21
Vldr r1, [r4, #0xc0]
p381
sg5
L146720L
sg6
Nsg23
S'LDR'
p382
sg25
S'0x23d20L'
p383
sg27
Nsba(ibclass
BInstr
p384
(dp385
g2
Nsg17
S'CMP     R1, #0'
p386
sg19
S'000051e3'
p387
sg21
Vcmp r1, #0
p388
sg5
L146724L
sg6
Nsg23
S'CMP'
p389
sg25
S'0x23d24L'
p390
sg27
Nsba(ibclass
BInstr
p391
(dp392
g2
Nsg17
S'BEQ     loc_23CD4'
p393
sg19
S'e9ffff0a'
p394
sg21
Vbeq #0xffffffac
p395
sg5
L146728L
sg6
Nsg23
g110
sg25
S'0x23d28L'
p396
sg27
Nsbasg112
(lp397
S'LDR R1, mem'
p398
aS'CMP R1, #0'
p399
aS'BEQ func'
p400
asg127
Nsg5
S'0x23d20L'
p401
sg129
(lp402
S'0x23cccL'
p403
asg6
Nsg131
(lp404
S'0x23cd4L'
p405
aS'0x23d2cL'
p406
asg135
Nsg136
Nsg137
S'fa4df767a85c49648339e2dc5c6807f6'
p407
sg139
S'3cf5ec7b62a0a245cffed892e66b806a'
p408
sg141
(lp409
g382
ag389
ag110
asg143
Nsba(ibclass
BBasicBlock
p410
(dp411
g12
Nsg13
(lp412
(ibclass
BInstr
p413
(dp414
g2
Nsg17
S'LDR     R0, [R4,#0xE4]'
p415
sg19
S'e40094e5'
p416
sg21
Vldr r0, [r4, #0xe4]
p417
sg5
L146732L
sg6
Nsg23
S'LDR'
p418
sg25
S'0x23d2cL'
p419
sg27
Nsba(ibclass
BInstr
p420
(dp421
g2
Nsg17
S'BL      SSL_CTX_remove_session'
p422
sg19
S'0b7a00eb'
p423
sg21
Vbl #0x1e834
p424
sg5
L146736L
sg6
Nsg23
S'BL'
p425
sg25
S'0x23d30L'
p426
sg27
Nsba(ibclass
BInstr
p427
(dp428
g2
Nsg17
S'B       loc_23CD4'
p429
sg19
S'e6ffffea'
p430
sg21
Vb #0xffffffa0
p431
sg5
L146740L
sg6
Nsg23
g110
sg25
S'0x23d34L'
p432
sg27
Nsbasg112
(lp433
S'LDR R0, mem'
p434
aS'BL SSL_CTX_remove_sesregon'
p435
aS'B func'
p436
asg127
Nsg5
S'0x23d2cL'
p437
sg129
(lp438
S'0x23d20L'
p439
asg6
Nsg131
(lp440
S'0x23cd4L'
p441
asg135
Nsg136
Nsg137
S'fd7a30a07a6cedc9ea3c9d229827493f'
p442
sg139
S'8557acf30bdca8279ad8f8baba106d87'
p443
sg141
(lp444
g418
ag425
ag110
asg143
Nsba(ibclass
BBasicBlock
p445
(dp446
g12
Nsg13
(lp447
(ibclass
BInstr
p448
(dp449
g2
Nsg17
S'AND     R6, R0, #0xFF'
p450
sg19
S'ff6000e2'
p451
sg21
Vand r6, r0, #0xff
p452
sg5
L146744L
sg6
Nsg23
S'AND'
p453
sg25
S'0x23d38L'
p454
sg27
Nsba(ibclass
BInstr
p455
(dp456
g2
Nsg17
S'B       loc_23CCC'
p457
sg19
S'e2ffffea'
p458
sg21
Vb #0xffffff90
p459
sg5
L146748L
sg6
Nsg23
g110
sg25
S'0x23d3cL'
p460
sg27
Nsbasg112
(lp461
S'AND R6, R0, #0xFF'
p462
aS'B func'
p463
asg127
Nsg5
S'0x23d38L'
p464
sg129
(lp465
S'0x23d10L'
p466
asg6
Nsg131
(lp467
S'0x23cccL'
p468
asg135
Nsg136
Nsg137
S'bf8219677675dddfa4264a27a573d569'
p469
sg139
S'c3988b4207ba016b3817f865f45ed287'
p470
sg141
(lp471
g453
ag110
asg143
Nsbasb.