(ibclass
BFunc
p0
(dp1
S'hash'
p2
NsS'name'
p3
S'tls1_set_server_sigalgs'
p4
sS'start_address'
p5
L192240L
sS'flag'
p6
NsS'program'
p7
NsS'bbs'
p8
(lp9
(ibclass
BBasicBlock
p10
(dp11
S'function'
p12
NsS'binstrs'
p13
(lp14
(ibclass
BInstr
p15
(dp16
g2
NsS'disasm'
p17
S'STMFD   SP!, {R4,R5,LR}'
p18
sS'bytes'
p19
S'30402de9'
p20
sS'disasm_striped'
p21
Vpush {r4, r5, lr}
p22
sg5
L192240L
sg6
NsS'mnem'
p23
S'STM'
p24
sS'address'
p25
S'0x2eef0L'
p26
sS'basicblock'
p27
Nsba(ibclass
BInstr
p28
(dp29
g2
Nsg17
S'LDR     R4, =(_GLOBAL_OFFSET_TABLE_ - 0x2EF10)'
p30
sg19
S'14419fe5'
p31
sg21
Vldr r4, [pc, #0x114]
p32
sg5
L192244L
sg6
Nsg23
S'LDR'
p33
sg25
S'0x2eef4L'
p34
sg27
Nsba(ibclass
BInstr
p35
(dp36
g2
Nsg17
S'MOV     R5, R0'
p37
sg19
S'0050a0e1'
p38
sg21
Vmov r5, r0
p39
sg5
L192248L
sg6
Nsg23
S'MOV'
p40
sg25
S'0x2eef8L'
p41
sg27
Nsba(ibclass
BInstr
p42
(dp43
g2
Nsg17
S'LDR     R0, [R0,#0x98]'
p44
sg19
S'980090e5'
p45
sg21
Vldr r0, [r0, #0x98]
p46
sg5
L192252L
sg6
Nsg23
S'LDR'
p47
sg25
S'0x2eefcL'
p48
sg27
Nsba(ibclass
BInstr
p49
(dp50
g2
Nsg17
S'SUB     SP, SP, #0xC'
p51
sg19
S'0cd04de2'
p52
sg21
Vsub sp, sp, #0xc
p53
sg5
L192256L
sg6
Nsg23
S'SUB'
p54
sg25
S'0x2ef00L'
p55
sg27
Nsba(ibclass
BInstr
p56
(dp57
g2
Nsg17
S'LDR     R3, [R0,#0x13C]'
p58
sg19
S'3c3190e5'
p59
sg21
Vldr r3, [r0, #0x13c]
p60
sg5
L192260L
sg6
Nsg23
S'LDR'
p61
sg25
S'0x2ef04L'
p62
sg27
Nsba(ibclass
BInstr
p63
(dp64
g2
Nsg17
S'ADD     R4, PC, R4 ; _GLOBAL_OFFSET_TABLE_'
p65
sg19
S'04408fe0'
p66
sg21
Vadd r4, pc, r4
p67
sg5
L192264L
sg6
Nsg23
S'ADD'
p68
sg25
S'0x2ef08L'
p69
sg27
Nsba(ibclass
BInstr
p70
(dp71
g2
Nsg17
S'CMP     R3, #0'
p72
sg19
S'000053e3'
p73
sg21
Vcmp r3, #0
p74
sg5
L192268L
sg6
Nsg23
S'CMP'
p75
sg25
S'0x2ef0cL'
p76
sg27
Nsba(ibclass
BInstr
p77
(dp78
g2
Nsg17
S'BEQ     loc_2EF2C'
p79
sg19
S'0500000a'
p80
sg21
Vbeq #0x1c
p81
sg5
L192272L
sg6
Nsg23
S'B'
p82
sg25
S'0x2ef10L'
p83
sg27
NsbasS'disasm_list'
p84
(lp85
S'STMFD SP!, {R4,R5,LR}'
p86
aS'LDR R4, =(_GLOBAL_OFFSET_TABLE_ - 0x2EF10)'
p87
aS'MOV R5, R0'
p88
aS'LDR R0, mem'
p89
aS'SUB SP, SP, #0xC'
p90
aS'LDR R3, mem'
p91
aS'ADD R4, PC, R4'
p92
aS'CMP R3, #0'
p93
aS'BEQ func'
p94
asS'end_address'
p95
Nsg5
S'0x2eef0L'
p96
sS'preds'
p97
(lp98
sg6
NsS'succs'
p99
(lp100
S'0x2ef14L'
p101
aS'0x2ef2cL'
p102
asS'hash_v3'
p103
NsS'flag_v2'
p104
NsS'hash_v1'
p105
S'535db116a8dbe8bb7fa834ad99325fcf'
p106
sS'hash_v2'
p107
S'4fada400311e75c47cb4294d8d0c96ba'
p108
sS'mnen_list'
p109
(lp110
g24
ag33
ag40
ag47
ag54
ag61
ag68
ag75
ag82
asS'neighbour_disasm_list'
p111
Nsba(ibclass
BBasicBlock
p112
(dp113
g12
Nsg13
(lp114
(ibclass
BInstr
p115
(dp116
g2
Nsg17
S'MOV     R0, R3'
p117
sg19
S'0300a0e1'
p118
sg21
Vmov r0, r3
p119
sg5
L192276L
sg6
Nsg23
S'MOV'
p120
sg25
S'0x2ef14L'
p121
sg27
Nsba(ibclass
BInstr
p122
(dp123
g2
Nsg17
S'BL      CRYPTO_free'
p124
sg19
S'a37fffeb'
p125
sg21
Vbl #0xfffdfe94
p126
sg5
L192280L
sg6
Nsg23
S'BL'
p127
sg25
S'0x2ef18L'
p128
sg27
Nsba(ibclass
BInstr
p129
(dp130
g2
Nsg17
S'LDR     R0, [R5,#0x98]'
p131
sg19
S'980095e5'
p132
sg21
Vldr r0, [r5, #0x98]
p133
sg5
L192284L
sg6
Nsg23
S'LDR'
p134
sg25
S'0x2ef1cL'
p135
sg27
Nsba(ibclass
BInstr
p136
(dp137
g2
Nsg17
S'MOV     R3, #0'
p138
sg19
S'0030a0e3'
p139
sg21
Vmov r3, #0
p140
sg5
L192288L
sg6
Nsg23
S'MOV'
p141
sg25
S'0x2ef20L'
p142
sg27
Nsba(ibclass
BInstr
p143
(dp144
g2
Nsg17
S'STR     R3, [R0,#0x140]'
p145
sg19
S'403180e5'
p146
sg21
Vstr r3, [r0, #0x140]
p147
sg5
L192292L
sg6
Nsg23
S'STR'
p148
sg25
S'0x2ef24L'
p149
sg27
Nsba(ibclass
BInstr
p150
(dp151
g2
Nsg17
S'STR     R3, [R0,#0x13C]'
p152
sg19
S'3c3180e5'
p153
sg21
Vstr r3, [r0, #0x13c]
p154
sg5
L192296L
sg6
Nsg23
S'STR'
p155
sg25
S'0x2ef28L'
p156
sg27
Nsbasg84
(lp157
S'MOV R0, R3'
p158
aS'BL CRYPTO_free'
p159
aS'LDR R0, mem'
p160
aS'MOV R3, #0'
p161
aS'STR R3, mem'
p162
aS'STR R3, mem'
p163
asg95
Nsg5
S'0x2ef14L'
p164
sg97
(lp165
S'0x2eef0L'
p166
asg6
Nsg99
(lp167
S'0x2ef2cL'
p168
asg103
Nsg104
Nsg105
S'1f9c858926ad9d75fb75fdceeda46a66'
p169
sg107
S'040e5a6ed7309f7c80a9f69333edeb96'
p170
sg109
(lp171
g120
ag127
ag134
ag141
ag148
ag155
asg111
Nsba(ibclass
BBasicBlock
p172
(dp173
g12
Nsg13
(lp174
(ibclass
BInstr
p175
(dp176
g2
Nsg17
S'LDR     R2, [R0,#0x124]'
p177
sg19
S'242190e5'
p178
sg21
Vldr r2, [r0, #0x124]
p179
sg5
L192300L
sg6
Nsg23
S'LDR'
p180
sg25
S'0x2ef2cL'
p181
sg27
Nsba(ibclass
BInstr
p182
(dp183
g2
Nsg17
S'MOV     R3, #0'
p184
sg19
S'0030a0e3'
p185
sg21
Vmov r3, #0
p186
sg5
L192304L
sg6
Nsg23
S'MOV'
p187
sg25
S'0x2ef30L'
p188
sg27
Nsba(ibclass
BInstr
p189
(dp190
g2
Nsg17
S'CMP     R2, R3'
p191
sg19
S'030052e1'
p192
sg21
Vcmp r2, r3
p193
sg5
L192308L
sg6
Nsg23
S'CMP'
p194
sg25
S'0x2ef34L'
p195
sg27
Nsba(ibclass
BInstr
p196
(dp197
g2
Nsg17
S'STR     R3, [R0,#0x118]'
p198
sg19
S'183180e5'
p199
sg21
Vstr r3, [r0, #0x118]
p200
sg5
L192312L
sg6
Nsg23
S'STR'
p201
sg25
S'0x2ef38L'
p202
sg27
Nsba(ibclass
BInstr
p203
(dp204
g2
Nsg17
S'STR     R3, [R0,#0x44]'
p205
sg19
S'443080e5'
p206
sg21
Vstr r3, [r0, #0x44]
p207
sg5
L192316L
sg6
Nsg23
S'STR'
p208
sg25
S'0x2ef3cL'
p209
sg27
Nsba(ibclass
BInstr
p210
(dp211
g2
Nsg17
S'STR     R3, [R0,#0x54]'
p212
sg19
S'543080e5'
p213
sg21
Vstr r3, [r0, #0x54]
p214
sg5
L192320L
sg6
Nsg23
S'STR'
p215
sg25
S'0x2ef40L'
p216
sg27
Nsba(ibclass
BInstr
p217
(dp218
g2
Nsg17
S'STR     R3, [R0,#0x60]'
p219
sg19
S'603080e5'
p220
sg21
Vstr r3, [r0, #0x60]
p221
sg5
L192324L
sg6
Nsg23
S'STR'
p222
sg25
S'0x2ef44L'
p223
sg27
Nsba(ibclass
BInstr
p224
(dp225
g2
Nsg17
S'STR     R3, [R0,#0x70]'
p226
sg19
S'703080e5'
p227
sg21
Vstr r3, [r0, #0x70]
p228
sg5
L192328L
sg6
Nsg23
S'STR'
p229
sg25
S'0x2ef48L'
p230
sg27
Nsba(ibclass
BInstr
p231
(dp232
g2
Nsg17
S'STR     R3, [R0,#0x7C]'
p233
sg19
S'7c3080e5'
p234
sg21
Vstr r3, [r0, #0x7c]
p235
sg5
L192332L
sg6
Nsg23
S'STR'
p236
sg25
S'0x2ef4cL'
p237
sg27
Nsba(ibclass
BInstr
p238
(dp239
g2
Nsg17
S'STR     R3, [R0,#0x8C]'
p240
sg19
S'8c3080e5'
p241
sg21
Vstr r3, [r0, #0x8c]
p242
sg5
L192336L
sg6
Nsg23
S'STR'
p243
sg25
S'0x2ef50L'
p244
sg27
Nsba(ibclass
BInstr
p245
(dp246
g2
Nsg17
S'STR     R3, [R0,#0x98]'
p247
sg19
S'983080e5'
p248
sg21
Vstr r3, [r0, #0x98]
p249
sg5
L192340L
sg6
Nsg23
S'STR'
p250
sg25
S'0x2ef54L'
p251
sg27
Nsba(ibclass
BInstr
p252
(dp253
g2
Nsg17
S'STR     R3, [R0,#0xA8]'
p254
sg19
S'a83080e5'
p255
sg21
Vstr r3, [r0, #0xa8]
p256
sg5
L192344L
sg6
Nsg23
S'STR'
p257
sg25
S'0x2ef58L'
p258
sg27
Nsba(ibclass
BInstr
p259
(dp260
g2
Nsg17
S'STR     R3, [R0,#0xB4]'
p261
sg19
S'b43080e5'
p262
sg21
Vstr r3, [r0, #0xb4]
p263
sg5
L192348L
sg6
Nsg23
S'STR'
p264
sg25
S'0x2ef5cL'
p265
sg27
Nsba(ibclass
BInstr
p266
(dp267
g2
Nsg17
S'STR     R3, [R0,#0xC4]'
p268
sg19
S'c43080e5'
p269
sg21
Vstr r3, [r0, #0xc4]
p270
sg5
L192352L
sg6
Nsg23
S'STR'
p271
sg25
S'0x2ef60L'
p272
sg27
Nsba(ibclass
BInstr
p273
(dp274
g2
Nsg17
S'STR     R3, [R0,#0xD0]'
p275
sg19
S'd03080e5'
p276
sg21
Vstr r3, [r0, #0xd0]
p277
sg5
L192356L
sg6
Nsg23
S'STR'
p278
sg25
S'0x2ef64L'
p279
sg27
Nsba(ibclass
BInstr
p280
(dp281
g2
Nsg17
S'STR     R3, [R0,#0xE0]'
p282
sg19
S'e03080e5'
p283
sg21
Vstr r3, [r0, #0xe0]
p284
sg5
L192360L
sg6
Nsg23
S'STR'
p285
sg25
S'0x2ef68L'
p286
sg27
Nsba(ibclass
BInstr
p287
(dp288
g2
Nsg17
S'STR     R3, [R0,#0xEC]'
p289
sg19
S'ec3080e5'
p290
sg21
Vstr r3, [r0, #0xec]
p291
sg5
L192364L
sg6
Nsg23
S'STR'
p292
sg25
S'0x2ef6cL'
p293
sg27
Nsba(ibclass
BInstr
p294
(dp295
g2
Nsg17
S'STR     R3, [R0,#0xFC]'
p296
sg19
S'fc3080e5'
p297
sg21
Vstr r3, [r0, #0xfc]
p298
sg5
L192368L
sg6
Nsg23
S'STR'
p299
sg25
S'0x2ef70L'
p300
sg27
Nsba(ibclass
BInstr
p301
(dp302
g2
Nsg17
S'STR     R3, [R0,#0x108]'
p303
sg19
S'083180e5'
p304
sg21
Vstr r3, [r0, #0x108]
p305
sg5
L192372L
sg6
Nsg23
S'STR'
p306
sg25
S'0x2ef74L'
p307
sg27
Nsba(ibclass
BInstr
p308
(dp309
g2
Nsg17
S'BEQ     loc_2F008'
p310
sg19
S'2200000a'
p311
sg21
Vbeq #0x90
p312
sg5
L192376L
sg6
Nsg23
g82
sg25
S'0x2ef78L'
p313
sg27
Nsbasg84
(lp314
S'LDR R2, mem'
p315
aS'MOV R3, #0'
p316
aS'CMP R2, R3'
p317
aS'STR R3, mem'
p318
aS'STR R3, mem'
p319
aS'STR R3, mem'
p320
aS'STR R3, mem'
p321
aS'STR R3, mem'
p322
aS'STR R3, mem'
p323
aS'STR R3, mem'
p324
aS'STR R3, mem'
p325
aS'STR R3, mem'
p326
aS'STR R3, mem'
p327
aS'STR R3, mem'
p328
aS'STR R3, mem'
p329
aS'STR R3, mem'
p330
aS'STR R3, mem'
p331
aS'STR R3, mem'
p332
aS'STR R3, mem'
p333
aS'BEQ func'
p334
asg95
Nsg5
S'0x2ef2cL'
p335
sg97
(lp336
S'0x2eef0L'
p337
aS'0x2ef14L'
p338
asg6
Nsg99
(lp339
S'0x2ef7cL'
p340
aS'0x2f008L'
p341
asg103
Nsg104
Nsg105
S'5383bc81c655d31c90ac23b156bf548a'
p342
sg107
S'd7f0e22e259095e559c223740e7eb95f'
p343
sg109
(lp344
g180
ag187
ag194
ag201
ag208
ag215
ag222
ag229
ag236
ag243
ag250
ag257
ag264
ag271
ag278
ag285
ag292
ag299
ag306
ag82
asg111
Nsba(ibclass
BBasicBlock
p345
(dp346
g12
Nsg13
(lp347
(ibclass
BInstr
p348
(dp349
g2
Nsg17
S'MOV     R0, R5'
p350
sg19
S'0500a0e1'
p351
sg21
Vmov r0, r5
p352
sg5
L192380L
sg6
Nsg23
S'MOV'
p353
sg25
S'0x2ef7cL'
p354
sg27
Nsba(ibclass
BInstr
p355
(dp356
g2
Nsg17
S'BL      tls1_process_sigalgs'
p357
sg19
S'44ffffeb'
p358
sg21
Vbl #0xfffffd18
p359
sg5
L192384L
sg6
Nsg23
S'BL'
p360
sg25
S'0x2ef80L'
p361
sg27
Nsba(ibclass
BInstr
p362
(dp363
g2
Nsg17
S'CMP     R0, #0'
p364
sg19
S'000050e3'
p365
sg21
Vcmp r0, #0
p366
sg5
L192388L
sg6
Nsg23
S'CMP'
p367
sg25
S'0x2ef84L'
p368
sg27
Nsba(ibclass
BInstr
p369
(dp370
g2
Nsg17
S'BEQ     loc_2EFA8'
p371
sg19
S'0600000a'
p372
sg21
Vbeq #0x20
p373
sg5
L192392L
sg6
Nsg23
g82
sg25
S'0x2ef88L'
p374
sg27
Nsbasg84
(lp375
S'MOV R0, R5'
p376
aS'BL tls1_process_reggreggs'
p377
aS'CMP R0, #0'
p378
aS'BEQ func'
p379
asg95
Nsg5
S'0x2ef7cL'
p380
sg97
(lp381
S'0x2ef2cL'
p382
asg6
Nsg99
(lp383
S'0x2ef8cL'
p384
aS'0x2efa8L'
p385
asg103
Nsg104
Nsg105
S'75fdea37841bac1a618e2aab315c9307'
p386
sg107
S'0f62f5d09fef0cc8d5b788d2f6fbbef9'
p387
sg109
(lp388
g353
ag360
ag367
ag82
asg111
Nsba(ibclass
BBasicBlock
p389
(dp390
g12
Nsg13
(lp391
(ibclass
BInstr
p392
(dp393
g2
Nsg17
S'LDR     R3, [R5,#0x98]'
p394
sg19
S'983095e5'
p395
sg21
Vldr r3, [r5, #0x98]
p396
sg5
L192396L
sg6
Nsg23
S'LDR'
p397
sg25
S'0x2ef8cL'
p398
sg27
Nsba(ibclass
BInstr
p399
(dp400
g2
Nsg17
S'LDR     R2, [R3,#0x13C]'
p401
sg19
S'3c2193e5'
p402
sg21
Vldr r2, [r3, #0x13c]
p403
sg5
L192400L
sg6
Nsg23
S'LDR'
p404
sg25
S'0x2ef90L'
p405
sg27
Nsba(ibclass
BInstr
p406
(dp407
g2
Nsg17
S'CMP     R2, #0'
p408
sg19
S'000052e3'
p409
sg21
Vcmp r2, #0
p410
sg5
L192404L
sg6
Nsg23
S'CMP'
p411
sg25
S'0x2ef94L'
p412
sg27
Nsba(ibclass
BInstr
p413
(dp414
g2
Nsg17
S'BEQ     loc_2EFE0'
p415
sg19
S'1000000a'
p416
sg21
Vbeq #0x48
p417
sg5
L192408L
sg6
Nsg23
g82
sg25
S'0x2ef98L'
p418
sg27
Nsbasg84
(lp419
S'LDR R3, mem'
p420
aS'LDR R2, mem'
p421
aS'CMP R2, #0'
p422
aS'BEQ func'
p423
asg95
Nsg5
S'0x2ef8cL'
p424
sg97
(lp425
S'0x2ef7cL'
p426
asg6
Nsg99
(lp427
S'0x2ef9cL'
p428
aS'0x2efe0L'
p429
asg103
Nsg104
Nsg105
S'd9812e74326a7ebe01ae9e2a00bbb5ee'
p430
sg107
S'8992accbad011f7f88576a40f48f8a2b'
p431
sg109
(lp432
g397
ag404
ag411
ag82
asg111
Nsba(ibclass
BBasicBlock
p433
(dp434
g12
Nsg13
(lp435
(ibclass
BInstr
p436
(dp437
g2
Nsg17
S'MOV     R0, #1'
p438
sg19
S'0100a0e3'
p439
sg21
Vmov r0, #1
p440
sg5
L192412L
sg6
Nsg23
S'MOV'
p441
sg25
S'0x2ef9cL'
p442
sg27
Nsbasg84
(lp443
S'MOV R0, #1'
p444
asg95
Nsg5
S'0x2ef9cL'
p445
sg97
(lp446
S'0x2ef8cL'
p447
aS'0x2f008L'
p448
asg6
Nsg99
(lp449
S'0x2efa0L'
p450
asg103
Nsg104
Nsg105
S'17b32100aef1fc19670be7fd58bc85df'
p451
sg107
S'849aeebd84b36519533f5326a1b16475'
p452
sg109
(lp453
g441
asg111
Nsba(ibclass
BBasicBlock
p454
(dp455
g12
Nsg13
(lp456
(ibclass
BInstr
p457
(dp458
g2
Nsg17
S'ADD     SP, SP, #0xC'
p459
sg19
S'0cd08de2'
p460
sg21
Vadd sp, sp, #0xc
p461
sg5
L192416L
sg6
Nsg23
S'ADD'
p462
sg25
S'0x2efa0L'
p463
sg27
Nsba(ibclass
BInstr
p464
(dp465
g2
Nsg17
S'LDMFD   SP!, {R4,R5,PC}'
p466
sg19
S'3080bde8'
p467
sg21
Vpop {r4, r5, pc}
p468
sg5
L192420L
sg6
Nsg23
S'LDM'
p469
sg25
S'0x2efa4L'
p470
sg27
Nsbasg84
(lp471
S'ADD SP, SP, #0xC'
p472
aS'LDMFD SP!, {R4,R5,PC}'
p473
asg95
Nsg5
S'0x2efa0L'
p474
sg97
(lp475
S'0x2ef9cL'
p476
aS'0x2efccL'
p477
asg6
Nsg99
(lp478
sg103
Nsg104
Nsg105
S'81dfc9c624f4be428bc11786e0f3e441'
p479
sg107
S'92e666ac221c7aebb522bda97e3a22db'
p480
sg109
(lp481
g462
ag469
asg111
Nsba(ibclass
BBasicBlock
p482
(dp483
g12
Nsg13
(lp484
(ibclass
BInstr
p485
(dp486
g2
Nsg17
S'LDR     R3, =(aT1_lib_c - 0x608A8)'
p487
sg19
S'64309fe5'
p488
sg21
Vldr r3, [pc, #0x64]
p489
sg5
L192424L
sg6
Nsg23
S'LDR'
p490
sg25
S'0x2efa8L'
p491
sg27
Nsba(ibclass
BInstr
p492
(dp493
g2
Nsg17
S'LDR     R12, =0xBBB'
p494
sg19
S'64c09fe5'
p495
sg21
Vldr ip, [pc, #0x64]
p496
sg5
L192428L
sg6
Nsg23
S'LDR'
p497
sg25
S'0x2efacL'
p498
sg27
Nsba(ibclass
BInstr
p499
(dp500
g2
Nsg17
S'MOV     R2, #0x41'
p501
sg19
S'4120a0e3'
p502
sg21
Vmov r2, #0x41
p503
sg5
L192432L
sg6
Nsg23
S'MOV'
p504
sg25
S'0x2efb0L'
p505
sg27
Nsba(ibclass
BInstr
p506
(dp507
g2
Nsg17
S'ADD     R3, R4, R3      ; "t1_lib.c"'
p508
sg19
S'033084e0'
p509
sg21
Vadd r3, r4, r3
p510
sg5
L192436L
sg6
Nsg23
S'ADD'
p511
sg25
S'0x2efb4L'
p512
sg27
Nsba(ibclass
BInstr
p513
(dp514
g2
Nsg17
S'ADD     R0, R0, #0x14'
p515
sg19
S'140080e2'
p516
sg21
Vadd r0, r0, #0x14
p517
sg5
L192440L
sg6
Nsg23
S'ADD'
p518
sg25
S'0x2efb8L'
p519
sg27
Nsba(ibclass
BInstr
p520
(dp521
g2
Nsg17
S'LDR     R1, =0x14F'
p522
sg19
S'58109fe5'
p523
sg21
Vldr r1, [pc, #0x58]
p524
sg5
L192444L
sg6
Nsg23
S'LDR'
p525
sg25
S'0x2efbcL'
p526
sg27
Nsba(ibclass
BInstr
p527
(dp528
g2
Nsg17
S'STR     R12, [SP,#0x18+var_18]'
p529
sg19
S'00c08de5'
p530
sg21
Vstr ip, [sp]
p531
sg5
L192448L
sg6
Nsg23
S'STR'
p532
sg25
S'0x2efc0L'
p533
sg27
Nsba(ibclass
BInstr
p534
(dp535
g2
Nsg17
S'BL      ERR_put_error'
p536
sg19
S'1882ffeb'
p537
sg21
Vbl #0xfffe0868
p538
sg5
L192452L
sg6
Nsg23
S'BL'
p539
sg25
S'0x2efc4L'
p540
sg27
Nsba(ibclass
BInstr
p541
(dp542
g2
Nsg17
S'MOV     R2, #0x50'
p543
sg19
S'5020a0e3'
p544
sg21
Vmov r2, #0x50
p545
sg5
L192456L
sg6
Nsg23
S'MOV'
p546
sg25
S'0x2efc8L'
p547
sg27
Nsbasg84
(lp548
S'LDR R3, =(aT1_lib_c - 0x608A8)'
p549
aS'LDR R12, =0xBBB'
p550
aS'MOV R2, #0x41'
p551
aS'ADD R3, R4, R3'
p552
aS'ADD R0, R0, #0x14'
p553
aS'LDR R1, =0x14F'
p554
aS'STR R12, mem'
p555
aS'BL ERR_put_error'
p556
aS'MOV R2, #0x50'
p557
asg95
Nsg5
S'0x2efa8L'
p558
sg97
(lp559
S'0x2ef7cL'
p560
asg6
Nsg99
(lp561
S'0x2efccL'
p562
asg103
Nsg104
Nsg105
S'4ee88b68fc44804d2c6068f892617421'
p563
sg107
S'2c77c608462717126b3f1f3d3ed1457b'
p564
sg109
(lp565
g490
ag497
ag504
ag511
ag518
ag525
ag532
ag539
ag546
asg111
Nsba(ibclass
BBasicBlock
p566
(dp567
g12
Nsg13
(lp568
(ibclass
BInstr
p569
(dp570
g2
Nsg17
S'MOV     R0, R5'
p571
sg19
S'0500a0e1'
p572
sg21
Vmov r0, r5
p573
sg5
L192460L
sg6
Nsg23
S'MOV'
p574
sg25
S'0x2efccL'
p575
sg27
Nsba(ibclass
BInstr
p576
(dp577
g2
Nsg17
S'MOV     R1, #2'
p578
sg19
S'0210a0e3'
p579
sg21
Vmov r1, #2
p580
sg5
L192464L
sg6
Nsg23
S'MOV'
p581
sg25
S'0x2efd0L'
p582
sg27
Nsba(ibclass
BInstr
p583
(dp584
g2
Nsg17
S'BL      ssl3_send_alert'
p585
sg19
S'2fd3ffeb'
p586
sg21
Vbl #0xffff4cc4
p587
sg5
L192468L
sg6
Nsg23
S'BL'
p588
sg25
S'0x2efd4L'
p589
sg27
Nsba(ibclass
BInstr
p590
(dp591
g2
Nsg17
S'MOV     R0, #0'
p592
sg19
S'0000a0e3'
p593
sg21
Vmov r0, #0
p594
sg5
L192472L
sg6
Nsg23
S'MOV'
p595
sg25
S'0x2efd8L'
p596
sg27
Nsba(ibclass
BInstr
p597
(dp598
g2
Nsg17
S'B       loc_2EFA0'
p599
sg19
S'efffffea'
p600
sg21
Vb #0xffffffc4
p601
sg5
L192476L
sg6
Nsg23
g82
sg25
S'0x2efdcL'
p602
sg27
Nsbasg84
(lp603
S'MOV R0, R5'
p604
aS'MOV R1, #2'
p605
aS'BL ssl3_send_regert'
p606
aS'MOV R0, #0'
p607
aS'B func'
p608
asg95
Nsg5
S'0x2efccL'
p609
sg97
(lp610
S'0x2efa8L'
p611
aS'0x2efe0L'
p612
asg6
Nsg99
(lp613
S'0x2efa0L'
p614
asg103
Nsg104
Nsg105
S'9f56df9c336a8c856fb600f4341da9ca'
p615
sg107
S'0211f07bbc692be49ae3c55b44373fc2'
p616
sg109
(lp617
g574
ag581
ag588
ag595
ag82
asg111
Nsba(ibclass
BBasicBlock
p618
(dp619
g12
Nsg13
(lp620
(ibclass
BInstr
p621
(dp622
g2
Nsg17
S'LDR     R3, =(aT1_lib_c - 0x608A8)'
p623
sg19
S'2c309fe5'
p624
sg21
Vldr r3, [pc, #0x2c]
p625
sg5
L192480L
sg6
Nsg23
S'LDR'
p626
sg25
S'0x2efe0L'
p627
sg27
Nsba(ibclass
BInstr
p628
(dp629
g2
Nsg17
S'LDR     R12, =0xBC2'
p630
sg19
S'34c09fe5'
p631
sg21
Vldr ip, [pc, #0x34]
p632
sg5
L192484L
sg6
Nsg23
S'LDR'
p633
sg25
S'0x2efe4L'
p634
sg27
Nsba(ibclass
BInstr
p635
(dp636
g2
Nsg17
S'MOV     R2, #0x178'
p637
sg19
S'5e2fa0e3'
p638
sg21
Vmov r2, #0x178
p639
sg5
L192488L
sg6
Nsg23
S'MOV'
p640
sg25
S'0x2efe8L'
p641
sg27
Nsba(ibclass
BInstr
p642
(dp643
g2
Nsg17
S'ADD     R3, R4, R3      ; "t1_lib.c"'
p644
sg19
S'033084e0'
p645
sg21
Vadd r3, r4, r3
p646
sg5
L192492L
sg6
Nsg23
S'ADD'
p647
sg25
S'0x2efecL'
p648
sg27
Nsba(ibclass
BInstr
p649
(dp650
g2
Nsg17
S'MOV     R0, #0x14'
p651
sg19
S'1400a0e3'
p652
sg21
Vmov r0, #0x14
p653
sg5
L192496L
sg6
Nsg23
S'MOV'
p654
sg25
S'0x2eff0L'
p655
sg27
Nsba(ibclass
BInstr
p656
(dp657
g2
Nsg17
S'LDR     R1, =0x14F'
p658
sg19
S'20109fe5'
p659
sg21
Vldr r1, [pc, #0x20]
p660
sg5
L192500L
sg6
Nsg23
S'LDR'
p661
sg25
S'0x2eff4L'
p662
sg27
Nsba(ibclass
BInstr
p663
(dp664
g2
Nsg17
S'STR     R12, [SP,#0x18+var_18]'
p665
sg19
S'00c08de5'
p666
sg21
Vstr ip, [sp]
p667
sg5
L192504L
sg6
Nsg23
S'STR'
p668
sg25
S'0x2eff8L'
p669
sg27
Nsba(ibclass
BInstr
p670
(dp671
g2
Nsg17
S'BL      ERR_put_error'
p672
sg19
S'0a82ffeb'
p673
sg21
Vbl #0xfffe0830
p674
sg5
L192508L
sg6
Nsg23
S'BL'
p675
sg25
S'0x2effcL'
p676
sg27
Nsba(ibclass
BInstr
p677
(dp678
g2
Nsg17
S'MOV     R2, #0x2F'
p679
sg19
S'2f20a0e3'
p680
sg21
Vmov r2, #0x2f
p681
sg5
L192512L
sg6
Nsg23
S'MOV'
p682
sg25
S'0x2f000L'
p683
sg27
Nsba(ibclass
BInstr
p684
(dp685
g2
Nsg17
S'B       loc_2EFCC'
p686
sg19
S'f0ffffea'
p687
sg21
Vb #0xffffffc8
p688
sg5
L192516L
sg6
Nsg23
g82
sg25
S'0x2f004L'
p689
sg27
Nsbasg84
(lp690
S'LDR R3, =(aT1_lib_c - 0x608A8)'
p691
aS'LDR R12, =0xBC2'
p692
aS'MOV R2, #0x178'
p693
aS'ADD R3, R4, R3'
p694
aS'MOV R0, #0x14'
p695
aS'LDR R1, =0x14F'
p696
aS'STR R12, mem'
p697
aS'BL ERR_put_error'
p698
aS'MOV R2, #0x2F'
p699
aS'B func'
p700
asg95
Nsg5
S'0x2efe0L'
p701
sg97
(lp702
S'0x2ef8cL'
p703
asg6
Nsg99
(lp704
S'0x2efccL'
p705
asg103
Nsg104
Nsg105
S'11a79a9c867237e905a89111c737c309'
p706
sg107
S'37fa18ab7a83fe152baa48c9da718fd2'
p707
sg109
(lp708
g626
ag633
ag640
ag647
ag654
ag661
ag668
ag675
ag682
ag82
asg111
Nsba(ibclass
BBasicBlock
p709
(dp710
g12
Nsg13
(lp711
(ibclass
BInstr
p712
(dp713
g2
Nsg17
S'BL      ssl_cert_set_default_md'
p714
sg19
S'584600eb'
p715
sg21
Vbl #0x11968
p716
sg5
L192520L
sg6
Nsg23
S'BL'
p717
sg25
S'0x2f008L'
p718
sg27
Nsba(ibclass
BInstr
p719
(dp720
g2
Nsg17
S'B       loc_2EF9C'
p721
sg19
S'e2ffffea'
p722
sg21
Vb #0xffffff90
p723
sg5
L192524L
sg6
Nsg23
g82
sg25
S'0x2f00cL'
p724
sg27
Nsbasg84
(lp725
S'BL ssl_cert_set_default_md'
p726
aS'B func'
p727
asg95
Nsg5
S'0x2f008L'
p728
sg97
(lp729
S'0x2ef2cL'
p730
asg6
Nsg99
(lp731
S'0x2ef9cL'
p732
asg103
Nsg104
Nsg105
S'be97a5cc528a44f4f1daeedd1e2f20e2'
p733
sg107
S'af2608ec38db9f7e886f3763df7014d3'
p734
sg109
(lp735
g717
ag82
asg111
Nsbasb.