(ibclass
BFunc
p0
(dp1
S'hash'
p2
NsS'name'
p3
S'DH_check_pub_key'
p4
sS'start_address'
p5
L726548L
sS'flag'
p6
NsS'program'
p7
NsS'bbs'
p8
(lp9
(ibclass
BBasicBlock
p10
(dp11
S'function'
p12
NsS'binstrs'
p13
(lp14
(ibclass
BInstr
p15
(dp16
g2
NsS'disasm'
p17
S'MOV     R3, #0'
p18
sS'bytes'
p19
S'0030a0e3'
p20
sS'disasm_striped'
p21
Vmov r3, #0
p22
sg5
L726548L
sg6
NsS'mnem'
p23
S'MOV'
p24
sS'address'
p25
S'0xb1614L'
p26
sS'basicblock'
p27
Nsba(ibclass
BInstr
p28
(dp29
g2
Nsg17
S'STMFD   SP!, {R4-R7,LR}'
p30
sg19
S'f0402de9'
p31
sg21
Vpush {r4, r5, r6, r7, lr}
p32
sg5
L726552L
sg6
Nsg23
S'STM'
p33
sg25
S'0xb1618L'
p34
sg27
Nsba(ibclass
BInstr
p35
(dp36
g2
Nsg17
S'STR     R3, [R2]'
p37
sg19
S'003082e5'
p38
sg21
Vstr r3, [r2]
p39
sg5
L726556L
sg6
Nsg23
S'STR'
p40
sg25
S'0xb161cL'
p41
sg27
Nsba(ibclass
BInstr
p42
(dp43
g2
Nsg17
S'SUB     SP, SP, #4'
p44
sg19
S'04d04de2'
p45
sg21
Vsub sp, sp, #4
p46
sg5
L726560L
sg6
Nsg23
S'SUB'
p47
sg25
S'0xb1620L'
p48
sg27
Nsba(ibclass
BInstr
p49
(dp50
g2
Nsg17
S'MOV     R5, R2'
p51
sg19
S'0250a0e1'
p52
sg21
Vmov r5, r2
p53
sg5
L726564L
sg6
Nsg23
S'MOV'
p54
sg25
S'0xb1624L'
p55
sg27
Nsba(ibclass
BInstr
p56
(dp57
g2
Nsg17
S'MOV     R7, R0'
p58
sg19
S'0070a0e1'
p59
sg21
Vmov r7, r0
p60
sg5
L726568L
sg6
Nsg23
S'MOV'
p61
sg25
S'0xb1628L'
p62
sg27
Nsba(ibclass
BInstr
p63
(dp64
g2
Nsg17
S'MOV     R6, R1'
p65
sg19
S'0160a0e1'
p66
sg21
Vmov r6, r1
p67
sg5
L726572L
sg6
Nsg23
S'MOV'
p68
sg25
S'0xb162cL'
p69
sg27
Nsba(ibclass
BInstr
p70
(dp71
g2
Nsg17
S'BL      BN_new'
p72
sg19
S'3645ffeb'
p73
sg21
Vbl #0xfffd14e0
p74
sg5
L726576L
sg6
Nsg23
S'BL'
p75
sg25
S'0xb1630L'
p76
sg27
Nsba(ibclass
BInstr
p77
(dp78
g2
Nsg17
S'SUBS    R4, R0, #0'
p79
sg19
S'004050e2'
p80
sg21
Vsubs r4, r0, #0
p81
sg5
L726580L
sg6
Nsg23
S'SUB'
p82
sg25
S'0xb1634L'
p83
sg27
Nsba(ibclass
BInstr
p84
(dp85
g2
Nsg17
S'MOVEQ   R0, R4'
p86
sg19
S'0400a001'
p87
sg21
Vmoveq r0, r4
p88
sg5
L726584L
sg6
Nsg23
S'MOV'
p89
sg25
S'0xb1638L'
p90
sg27
Nsba(ibclass
BInstr
p91
(dp92
g2
Nsg17
S'BEQ     loc_B16A4'
p93
sg19
S'1800000a'
p94
sg21
Vbeq #0x68
p95
sg5
L726588L
sg6
Nsg23
S'B'
p96
sg25
S'0xb163cL'
p97
sg27
NsbasS'disasm_list'
p98
(lp99
S'MOV R3, #0'
p100
aS'STMFD SP!, {R4-R7,LR}'
p101
aS'STR R3, mem'
p102
aS'SUB SP, SP, #4'
p103
aS'MOV R5, R2'
p104
aS'MOV R7, R0'
p105
aS'MOV R6, R1'
p106
aS'BL BN_new'
p107
aS'SUBS R4, R0, #0'
p108
aS'MOVEQ R0, R4'
p109
aS'BEQ func'
p110
asS'end_address'
p111
Nsg5
S'0xb1614L'
p112
sS'preds'
p113
(lp114
sg6
NsS'succs'
p115
(lp116
S'0xb1640L'
p117
aS'0xb16a4L'
p118
asS'hash_v3'
p119
NsS'flag_v2'
p120
NsS'hash_v1'
p121
S'74207ed236904e9bc7fc60b84897e875'
p122
sS'hash_v2'
p123
S'bc5233ea875cd4bdd54fae3fdc829e43'
p124
sS'mnen_list'
p125
(lp126
g24
ag33
ag40
ag47
ag54
ag61
ag68
ag75
ag82
ag89
ag96
asS'neighbour_disasm_list'
p127
Nsba(ibclass
BBasicBlock
p128
(dp129
g12
Nsg13
(lp130
(ibclass
BInstr
p131
(dp132
g2
Nsg17
S'MOV     R1, #1'
p133
sg19
S'0110a0e3'
p134
sg21
Vmov r1, #1
p135
sg5
L726592L
sg6
Nsg23
S'MOV'
p136
sg25
S'0xb1640L'
p137
sg27
Nsba(ibclass
BInstr
p138
(dp139
g2
Nsg17
S'BL      BN_set_word'
p140
sg19
S'de44ffeb'
p141
sg21
Vbl #0xfffd1380
p142
sg5
L726596L
sg6
Nsg23
S'BL'
p143
sg25
S'0xb1644L'
p144
sg27
Nsba(ibclass
BInstr
p145
(dp146
g2
Nsg17
S'MOV     R1, R4'
p147
sg19
S'0410a0e1'
p148
sg21
Vmov r1, r4
p149
sg5
L726600L
sg6
Nsg23
S'MOV'
p150
sg25
S'0xb1648L'
p151
sg27
Nsba(ibclass
BInstr
p152
(dp153
g2
Nsg17
S'MOV     R0, R6'
p154
sg19
S'0600a0e1'
p155
sg21
Vmov r0, r6
p156
sg5
L726604L
sg6
Nsg23
S'MOV'
p157
sg25
S'0xb164cL'
p158
sg27
Nsba(ibclass
BInstr
p159
(dp160
g2
Nsg17
S'BL      BN_cmp'
p161
sg19
S'7e42ffeb'
p162
sg21
Vbl #0xfffd0a00
p163
sg5
L726608L
sg6
Nsg23
S'BL'
p164
sg25
S'0xb1650L'
p165
sg27
Nsba(ibclass
BInstr
p166
(dp167
g2
Nsg17
S'LDR     R1, [R7,#8]'
p168
sg19
S'081097e5'
p169
sg21
Vldr r1, [r7, #8]
p170
sg5
L726612L
sg6
Nsg23
S'LDR'
p171
sg25
S'0xb1654L'
p172
sg27
Nsba(ibclass
BInstr
p173
(dp174
g2
Nsg17
S'CMP     R0, #0'
p175
sg19
S'000050e3'
p176
sg21
Vcmp r0, #0
p177
sg5
L726616L
sg6
Nsg23
S'CMP'
p178
sg25
S'0xb1658L'
p179
sg27
Nsba(ibclass
BInstr
p180
(dp181
g2
Nsg17
S'LDRLE   R3, [R5]'
p182
sg19
S'003095d5'
p183
sg21
Vldrle r3, [r5]
p184
sg5
L726620L
sg6
Nsg23
S'LDR'
p185
sg25
S'0xb165cL'
p186
sg27
Nsba(ibclass
BInstr
p187
(dp188
g2
Nsg17
S'MOV     R0, R4'
p189
sg19
S'0400a0e1'
p190
sg21
Vmov r0, r4
p191
sg5
L726624L
sg6
Nsg23
S'MOV'
p192
sg25
S'0xb1660L'
p193
sg27
Nsba(ibclass
BInstr
p194
(dp195
g2
Nsg17
S'ORRLE   R3, R3, #1'
p196
sg19
S'013083d3'
p197
sg21
Vorrle r3, r3, #1
p198
sg5
L726628L
sg6
Nsg23
S'ORR'
p199
sg25
S'0xb1664L'
p200
sg27
Nsba(ibclass
BInstr
p201
(dp202
g2
Nsg17
S'STRLE   R3, [R5]'
p203
sg19
S'003085d5'
p204
sg21
Vstrle r3, [r5]
p205
sg5
L726632L
sg6
Nsg23
S'STR'
p206
sg25
S'0xb1668L'
p207
sg27
Nsba(ibclass
BInstr
p208
(dp209
g2
Nsg17
S'BL      BN_copy'
p210
sg19
S'ea44ffeb'
p211
sg21
Vbl #0xfffd13b0
p212
sg5
L726636L
sg6
Nsg23
S'BL'
p213
sg25
S'0xb166cL'
p214
sg27
Nsba(ibclass
BInstr
p215
(dp216
g2
Nsg17
S'MOV     R1, #1'
p217
sg19
S'0110a0e3'
p218
sg21
Vmov r1, #1
p219
sg5
L726640L
sg6
Nsg23
S'MOV'
p220
sg25
S'0xb1670L'
p221
sg27
Nsba(ibclass
BInstr
p222
(dp223
g2
Nsg17
S'MOV     R0, R4'
p224
sg19
S'0400a0e1'
p225
sg21
Vmov r0, r4
p226
sg5
L726644L
sg6
Nsg23
S'MOV'
p227
sg25
S'0xb1674L'
p228
sg27
Nsba(ibclass
BInstr
p229
(dp230
g2
Nsg17
S'BL      BN_sub_word'
p231
sg19
S'4d55ffeb'
p232
sg21
Vbl #0xfffd553c
p233
sg5
L726648L
sg6
Nsg23
S'BL'
p234
sg25
S'0xb1678L'
p235
sg27
Nsba(ibclass
BInstr
p236
(dp237
g2
Nsg17
S'MOV     R1, R4'
p238
sg19
S'0410a0e1'
p239
sg21
Vmov r1, r4
p240
sg5
L726652L
sg6
Nsg23
S'MOV'
p241
sg25
S'0xb167cL'
p242
sg27
Nsba(ibclass
BInstr
p243
(dp244
g2
Nsg17
S'MOV     R0, R6'
p245
sg19
S'0600a0e1'
p246
sg21
Vmov r0, r6
p247
sg5
L726656L
sg6
Nsg23
S'MOV'
p248
sg25
S'0xb1680L'
p249
sg27
Nsba(ibclass
BInstr
p250
(dp251
g2
Nsg17
S'BL      BN_cmp'
p252
sg19
S'7142ffeb'
p253
sg21
Vbl #0xfffd09cc
p254
sg5
L726660L
sg6
Nsg23
S'BL'
p255
sg25
S'0xb1684L'
p256
sg27
Nsba(ibclass
BInstr
p257
(dp258
g2
Nsg17
S'CMP     R0, #0'
p259
sg19
S'000050e3'
p260
sg21
Vcmp r0, #0
p261
sg5
L726664L
sg6
Nsg23
S'CMP'
p262
sg25
S'0xb1688L'
p263
sg27
Nsba(ibclass
BInstr
p264
(dp265
g2
Nsg17
S'LDRGE   R3, [R5]'
p266
sg19
S'003095a5'
p267
sg21
Vldrge r3, [r5]
p268
sg5
L726668L
sg6
Nsg23
S'LDR'
p269
sg25
S'0xb168cL'
p270
sg27
Nsba(ibclass
BInstr
p271
(dp272
g2
Nsg17
S'MOV     R0, R4'
p273
sg19
S'0400a0e1'
p274
sg21
Vmov r0, r4
p275
sg5
L726672L
sg6
Nsg23
S'MOV'
p276
sg25
S'0xb1690L'
p277
sg27
Nsba(ibclass
BInstr
p278
(dp279
g2
Nsg17
S'ORRGE   R3, R3, #2'
p280
sg19
S'023083a3'
p281
sg21
Vorrge r3, r3, #2
p282
sg5
L726676L
sg6
Nsg23
S'ORR'
p283
sg25
S'0xb1694L'
p284
sg27
Nsba(ibclass
BInstr
p285
(dp286
g2
Nsg17
S'STRGE   R3, [R5]'
p287
sg19
S'003085a5'
p288
sg21
Vstrge r3, [r5]
p289
sg5
L726680L
sg6
Nsg23
S'STR'
p290
sg25
S'0xb1698L'
p291
sg27
Nsba(ibclass
BInstr
p292
(dp293
g2
Nsg17
S'BL      BN_free'
p294
sg19
S'0f44ffeb'
p295
sg21
Vbl #0xfffd1044
p296
sg5
L726684L
sg6
Nsg23
S'BL'
p297
sg25
S'0xb169cL'
p298
sg27
Nsba(ibclass
BInstr
p299
(dp300
g2
Nsg17
S'MOV     R0, #1'
p301
sg19
S'0100a0e3'
p302
sg21
Vmov r0, #1
p303
sg5
L726688L
sg6
Nsg23
S'MOV'
p304
sg25
S'0xb16a0L'
p305
sg27
Nsbasg98
(lp306
S'MOV R1, #1'
p307
aS'BL BN_set_word'
p308
aS'MOV R1, R4'
p309
aS'MOV R0, R6'
p310
aS'BL BN_cmp'
p311
aS'LDR R1, mem'
p312
aS'CMP R0, #0'
p313
aS'LDRLE R3, mem'
p314
aS'MOV R0, R4'
p315
aS'ORRLE R3, R3, #1'
p316
aS'STRLE R3, mem'
p317
aS'BL BN_copy'
p318
aS'MOV R1, #1'
p319
aS'MOV R0, R4'
p320
aS'BL BN_sub_word'
p321
aS'MOV R1, R4'
p322
aS'MOV R0, R6'
p323
aS'BL BN_cmp'
p324
aS'CMP R0, #0'
p325
aS'LDRGE R3, mem'
p326
aS'MOV R0, R4'
p327
aS'ORRGE R3, R3, #2'
p328
aS'STRGE R3, mem'
p329
aS'BL BN_free'
p330
aS'MOV R0, #1'
p331
asg111
Nsg5
S'0xb1640L'
p332
sg113
(lp333
S'0xb1614L'
p334
asg6
Nsg115
(lp335
S'0xb16a4L'
p336
asg119
Nsg120
Nsg121
S'261aa4e9ad059a282502bc7c864aa5fc'
p337
sg123
S'3ae67a9cb9c7f0dfbcad637778d5422a'
p338
sg125
(lp339
g136
ag143
ag150
ag157
ag164
ag171
ag178
ag185
ag192
ag199
ag206
ag213
ag220
ag227
ag234
ag241
ag248
ag255
ag262
ag269
ag276
ag283
ag290
ag297
ag304
asg127
Nsba(ibclass
BBasicBlock
p340
(dp341
g12
Nsg13
(lp342
(ibclass
BInstr
p343
(dp344
g2
Nsg17
S'ADD     SP, SP, #4'
p345
sg19
S'04d08de2'
p346
sg21
Vadd sp, sp, #4
p347
sg5
L726692L
sg6
Nsg23
S'ADD'
p348
sg25
S'0xb16a4L'
p349
sg27
Nsba(ibclass
BInstr
p350
(dp351
g2
Nsg17
S'LDMFD   SP!, {R4-R7,PC}'
p352
sg19
S'f080bde8'
p353
sg21
Vpop {r4, r5, r6, r7, pc}
p354
sg5
L726696L
sg6
Nsg23
S'LDM'
p355
sg25
S'0xb16a8L'
p356
sg27
Nsbasg98
(lp357
S'ADD SP, SP, #4'
p358
aS'LDMFD SP!, {R4-R7,PC}'
p359
asg111
Nsg5
S'0xb16a4L'
p360
sg113
(lp361
S'0xb1614L'
p362
aS'0xb1640L'
p363
asg6
Nsg115
(lp364
sg119
Nsg120
Nsg121
S'81dfc9c624f4be428bc11786e0f3e441'
p365
sg123
S'9a7c3ccff4c9af17691b6a48a6bd453d'
p366
sg125
(lp367
g348
ag355
asg127
Nsbasb.