(ibclass
BFunc
p0
(dp1
S'hash'
p2
NsS'name'
p3
S'PKCS7_ctrl'
p4
sS'start_address'
p5
L1165792L
sS'flag'
p6
NsS'program'
p7
NsS'bbs'
p8
(lp9
(ibclass
BBasicBlock
p10
(dp11
S'function'
p12
NsS'binstrs'
p13
(lp14
(ibclass
BInstr
p15
(dp16
g2
NsS'disasm'
p17
S'STMFD   SP!, {R4-R7,LR}'
p18
sS'bytes'
p19
S'f0402de9'
p20
sS'disasm_striped'
p21
Vpush {r4, r5, r6, r7, lr}
p22
sg5
L1165792L
sg6
NsS'mnem'
p23
S'STM'
p24
sS'address'
p25
S'0x11c9e0L'
p26
sS'basicblock'
p27
Nsba(ibclass
BInstr
p28
(dp29
g2
Nsg17
S'LDR     R4, =(_GLOBAL_OFFSET_TABLE_ - 0x11CA0C)'
p30
sg19
S'30419fe5'
p31
sg21
Vldr r4, [pc, #0x130]
p32
sg5
L1165796L
sg6
Nsg23
S'LDR'
p33
sg25
S'0x11c9e4L'
p34
sg27
Nsba(ibclass
BInstr
p35
(dp36
g2
Nsg17
S'MOV     R5, R1'
p37
sg19
S'0150a0e1'
p38
sg21
Vmov r5, r1
p39
sg5
L1165800L
sg6
Nsg23
S'MOV'
p40
sg25
S'0x11c9e8L'
p41
sg27
Nsba(ibclass
BInstr
p42
(dp43
g2
Nsg17
S'SUB     SP, SP, #0xC'
p44
sg19
S'0cd04de2'
p45
sg21
Vsub sp, sp, #0xc
p46
sg5
L1165804L
sg6
Nsg23
S'SUB'
p47
sg25
S'0x11c9ecL'
p48
sg27
Nsba(ibclass
BInstr
p49
(dp50
g2
Nsg17
S'MOV     R6, R0'
p51
sg19
S'0060a0e1'
p52
sg21
Vmov r6, r0
p53
sg5
L1165808L
sg6
Nsg23
S'MOV'
p54
sg25
S'0x11c9f0L'
p55
sg27
Nsba(ibclass
BInstr
p56
(dp57
g2
Nsg17
S'LDR     R0, [R0,#0x10]'
p58
sg19
S'100090e5'
p59
sg21
Vldr r0, [r0, #0x10]
p60
sg5
L1165812L
sg6
Nsg23
S'LDR'
p61
sg25
S'0x11c9f4L'
p62
sg27
Nsba(ibclass
BInstr
p63
(dp64
g2
Nsg17
S'MOV     R7, R2'
p65
sg19
S'0270a0e1'
p66
sg21
Vmov r7, r2
p67
sg5
L1165816L
sg6
Nsg23
S'MOV'
p68
sg25
S'0x11c9f8L'
p69
sg27
Nsba(ibclass
BInstr
p70
(dp71
g2
Nsg17
S'BL      OBJ_obj2nid'
p72
sg19
S'f399fceb'
p73
sg21
Vbl #0xfff267d4
p74
sg5
L1165820L
sg6
Nsg23
S'BL'
p75
sg25
S'0x11c9fcL'
p76
sg27
Nsba(ibclass
BInstr
p77
(dp78
g2
Nsg17
S'CMP     R5, #1'
p79
sg19
S'010055e3'
p80
sg21
Vcmp r5, #1
p81
sg5
L1165824L
sg6
Nsg23
S'CMP'
p82
sg25
S'0x11ca00L'
p83
sg27
Nsba(ibclass
BInstr
p84
(dp85
g2
Nsg17
S'ADD     R4, PC, R4 ; _GLOBAL_OFFSET_TABLE_'
p86
sg19
S'04408fe0'
p87
sg21
Vadd r4, pc, r4
p88
sg5
L1165828L
sg6
Nsg23
S'ADD'
p89
sg25
S'0x11ca04L'
p90
sg27
Nsba(ibclass
BInstr
p91
(dp92
g2
Nsg17
S'BEQ     loc_11CA40'
p93
sg19
S'0c00000a'
p94
sg21
Vbeq #0x38
p95
sg5
L1165832L
sg6
Nsg23
S'B'
p96
sg25
S'0x11ca08L'
p97
sg27
NsbasS'disasm_list'
p98
(lp99
S'STMFD SP!, {R4-R7,LR}'
p100
aS'LDR R4, =(_GLOBAL_OFFSET_TABLE_ - 0x11CA0C)'
p101
aS'MOV R5, R1'
p102
aS'SUB SP, SP, #0xC'
p103
aS'MOV R6, R0'
p104
aS'LDR R0, mem'
p105
aS'MOV R7, R2'
p106
aS'BL OBJ_obj2nid'
p107
aS'CMP R5, #1'
p108
aS'ADD R4, PC, R4'
p109
aS'BEQ func'
p110
asS'end_address'
p111
Nsg5
S'0x11c9e0L'
p112
sS'preds'
p113
(lp114
sg6
NsS'succs'
p115
(lp116
S'0x11ca0cL'
p117
aS'0x11ca40L'
p118
asS'hash_v3'
p119
NsS'flag_v2'
p120
NsS'hash_v1'
p121
S'148614f864fccd175201563004ed2ee3'
p122
sS'hash_v2'
p123
S'c32cce6a08b7ee296a571101ee0e0be7'
p124
sS'mnen_list'
p125
(lp126
g24
ag33
ag40
ag47
ag54
ag61
ag68
ag75
ag82
ag89
ag96
asS'neighbour_disasm_list'
p127
Nsba(ibclass
BBasicBlock
p128
(dp129
g12
Nsg13
(lp130
(ibclass
BInstr
p131
(dp132
g2
Nsg17
S'CMP     R5, #2'
p133
sg19
S'020055e3'
p134
sg21
Vcmp r5, #2
p135
sg5
L1165836L
sg6
Nsg23
S'CMP'
p136
sg25
S'0x11ca0cL'
p137
sg27
Nsba(ibclass
BInstr
p138
(dp139
g2
Nsg17
S'BEQ     loc_11CA5C'
p140
sg19
S'1100000a'
p141
sg21
Vbeq #0x4c
p142
sg5
L1165840L
sg6
Nsg23
g96
sg25
S'0x11ca10L'
p143
sg27
Nsbasg98
(lp144
S'CMP R5, #2'
p145
aS'BEQ func'
p146
asg111
Nsg5
S'0x11ca0cL'
p147
sg113
(lp148
S'0x11c9e0L'
p149
asg6
Nsg115
(lp150
S'0x11ca14L'
p151
aS'0x11ca5cL'
p152
asg119
Nsg120
Nsg121
S'c78fd620a449e3c979d3f3ec12d4ee88'
p153
sg123
S'1e1650fce1236e3128d8f451c476b4f5'
p154
sg125
(lp155
g136
ag96
asg127
Nsba(ibclass
BBasicBlock
p156
(dp157
g12
Nsg13
(lp158
(ibclass
BInstr
p159
(dp160
g2
Nsg17
S'LDR     R3, =(aPk7_lib_c - 0x1809D4)'
p161
sg19
S'04319fe5'
p162
sg21
Vldr r3, [pc, #0x104]
p163
sg5
L1165844L
sg6
Nsg23
S'LDR'
p164
sg25
S'0x11ca14L'
p165
sg27
Nsba(ibclass
BInstr
p166
(dp167
g2
Nsg17
S'MOV     R0, #0x21'
p168
sg19
S'2100a0e3'
p169
sg21
Vmov r0, #0x21
p170
sg5
L1165848L
sg6
Nsg23
S'MOV'
p171
sg25
S'0x11ca18L'
p172
sg27
Nsba(ibclass
BInstr
p173
(dp174
g2
Nsg17
S'MOV     R12, #0x69'
p175
sg19
S'69c0a0e3'
p176
sg21
Vmov ip, #0x69
p177
sg5
L1165852L
sg6
Nsg23
S'MOV'
p178
sg25
S'0x11ca1cL'
p179
sg27
Nsba(ibclass
BInstr
p180
(dp181
g2
Nsg17
S'ADD     R3, R4, R3      ; "pk7_lib.c"'
p182
sg19
S'033084e0'
p183
sg21
Vadd r3, r4, r3
p184
sg5
L1165856L
sg6
Nsg23
S'ADD'
p185
sg25
S'0x11ca20L'
p186
sg27
Nsba(ibclass
BInstr
p187
(dp188
g2
Nsg17
S'MOV     R1, #0x68'
p189
sg19
S'6810a0e3'
p190
sg21
Vmov r1, #0x68
p191
sg5
L1165860L
sg6
Nsg23
S'MOV'
p192
sg25
S'0x11ca24L'
p193
sg27
Nsba(ibclass
BInstr
p194
(dp195
g2
Nsg17
S'MOV     R2, #0x6E'
p196
sg19
S'6e20a0e3'
p197
sg21
Vmov r2, #0x6e
p198
sg5
L1165864L
sg6
Nsg23
S'MOV'
p199
sg25
S'0x11ca28L'
p200
sg27
Nsba(ibclass
BInstr
p201
(dp202
g2
Nsg17
S'STR     R12, [SP,#0x20+var_20]'
p203
sg19
S'00c08de5'
p204
sg21
Vstr ip, [sp]
p205
sg5
L1165868L
sg6
Nsg23
S'STR'
p206
sg25
S'0x11ca2cL'
p207
sg27
Nsba(ibclass
BInstr
p208
(dp209
g2
Nsg17
S'BL      ERR_put_error'
p210
sg19
S'b8bbfeeb'
p211
sg21
Vbl #0xfffaeee8
p212
sg5
L1165872L
sg6
Nsg23
S'BL'
p213
sg25
S'0x11ca30L'
p214
sg27
Nsba(ibclass
BInstr
p215
(dp216
g2
Nsg17
S'MOV     R0, #0'
p217
sg19
S'0000a0e3'
p218
sg21
Vmov r0, #0
p219
sg5
L1165876L
sg6
Nsg23
S'MOV'
p220
sg25
S'0x11ca34L'
p221
sg27
Nsbasg98
(lp222
S'LDR R3, =(aPk7_lib_c - 0x1809D4)'
p223
aS'MOV R0, #0x21'
p224
aS'MOV R12, #0x69'
p225
aS'ADD R3, R4, R3'
p226
aS'MOV R1, #0x68'
p227
aS'MOV R2, #0x6E'
p228
aS'STR R12, mem'
p229
aS'BL ERR_put_error'
p230
aS'MOV R0, #0'
p231
asg111
Nsg5
S'0x11ca14L'
p232
sg113
(lp233
S'0x11ca0cL'
p234
asg6
Nsg115
(lp235
S'0x11ca38L'
p236
asg119
Nsg120
Nsg121
S'30d30141dcbddf8491d7e79dc3d492f0'
p237
sg123
S'fed164bec40a85d1c71496ced682882c'
p238
sg125
(lp239
g164
ag171
ag178
ag185
ag192
ag199
ag206
ag213
ag220
asg127
Nsba(ibclass
BBasicBlock
p240
(dp241
g12
Nsg13
(lp242
(ibclass
BInstr
p243
(dp244
g2
Nsg17
S'ADD     SP, SP, #0xC'
p245
sg19
S'0cd08de2'
p246
sg21
Vadd sp, sp, #0xc
p247
sg5
L1165880L
sg6
Nsg23
S'ADD'
p248
sg25
S'0x11ca38L'
p249
sg27
Nsba(ibclass
BInstr
p250
(dp251
g2
Nsg17
S'LDMFD   SP!, {R4-R7,PC}'
p252
sg19
S'f080bde8'
p253
sg21
Vpop {r4, r5, r6, r7, pc}
p254
sg5
L1165884L
sg6
Nsg23
S'LDM'
p255
sg25
S'0x11ca3cL'
p256
sg27
Nsbasg98
(lp257
S'ADD SP, SP, #0xC'
p258
aS'LDMFD SP!, {R4-R7,PC}'
p259
asg111
Nsg5
S'0x11ca38L'
p260
sg113
(lp261
S'0x11ca14L'
p262
aS'0x11ca54L'
p263
aS'0x11ca84L'
p264
aS'0x11ca8cL'
p265
aS'0x11cab4L'
p266
aS'0x11caf4L'
p267
asg6
Nsg115
(lp268
sg119
Nsg120
Nsg121
S'81dfc9c624f4be428bc11786e0f3e441'
p269
sg123
S'8bb4d428b932d4c9ead579a7f3136e87'
p270
sg125
(lp271
g248
ag255
asg127
Nsba(ibclass
BBasicBlock
p272
(dp273
g12
Nsg13
(lp274
(ibclass
BInstr
p275
(dp276
g2
Nsg17
S'CMP     R0, #0x16'
p277
sg19
S'160050e3'
p278
sg21
Vcmp r0, #0x16
p279
sg5
L1165888L
sg6
Nsg23
S'CMP'
p280
sg25
S'0x11ca40L'
p281
sg27
Nsba(ibclass
BInstr
p282
(dp283
g2
Nsg17
S'BNE     loc_11CA8C'
p284
sg19
S'1000001a'
p285
sg21
Vbne #0x48
p286
sg5
L1165892L
sg6
Nsg23
g96
sg25
S'0x11ca44L'
p287
sg27
Nsbasg98
(lp288
S'CMP R0, #0x16'
p289
aS'BNE func'
p290
asg111
Nsg5
S'0x11ca40L'
p291
sg113
(lp292
S'0x11c9e0L'
p293
asg6
Nsg115
(lp294
S'0x11ca48L'
p295
aS'0x11ca8cL'
p296
asg119
Nsg120
Nsg121
S'c78fd620a449e3c979d3f3ec12d4ee88'
p297
sg123
S'4156a5814e5236979df25c938e8cfd0d'
p298
sg125
(lp299
g280
ag96
asg127
Nsba(ibclass
BBasicBlock
p300
(dp301
g12
Nsg13
(lp302
(ibclass
BInstr
p303
(dp304
g2
Nsg17
S'CMP     R7, #0'
p305
sg19
S'000057e3'
p306
sg21
Vcmp r7, #0
p307
sg5
L1165896L
sg6
Nsg23
S'CMP'
p308
sg25
S'0x11ca48L'
p309
sg27
Nsba(ibclass
BInstr
p310
(dp311
g2
Nsg17
S'STR     R7, [R6,#0xC]'
p312
sg19
S'0c7086e5'
p313
sg21
Vstr r7, [r6, #0xc]
p314
sg5
L1165900L
sg6
Nsg23
S'STR'
p315
sg25
S'0x11ca4cL'
p316
sg27
Nsba(ibclass
BInstr
p317
(dp318
g2
Nsg17
S'BNE     loc_11CADC'
p319
sg19
S'2100001a'
p320
sg21
Vbne #0x8c
p321
sg5
L1165904L
sg6
Nsg23
g96
sg25
S'0x11ca50L'
p322
sg27
Nsbasg98
(lp323
S'CMP R7, #0'
p324
aS'STR R7, mem'
p325
aS'BNE func'
p326
asg111
Nsg5
S'0x11ca48L'
p327
sg113
(lp328
S'0x11ca40L'
p329
asg6
Nsg115
(lp330
S'0x11ca54L'
p331
aS'0x11cadcL'
p332
asg119
Nsg120
Nsg121
S'9c18586f47b8d66ac181de2d058ff8aa'
p333
sg123
S'27e256544192d230fa92d09c6de3f4a9'
p334
sg125
(lp335
g308
ag315
ag96
asg127
Nsba(ibclass
BBasicBlock
p336
(dp337
g12
Nsg13
(lp338
(ibclass
BInstr
p339
(dp340
g2
Nsg17
S'MOV     R0, R7'
p341
sg19
S'0700a0e1'
p342
sg21
Vmov r0, r7
p343
sg5
L1165908L
sg6
Nsg23
S'MOV'
p344
sg25
S'0x11ca54L'
p345
sg27
Nsba(ibclass
BInstr
p346
(dp347
g2
Nsg17
S'B       loc_11CA38'
p348
sg19
S'f6ffffea'
p349
sg21
Vb #0xffffffe0
p350
sg5
L1165912L
sg6
Nsg23
g96
sg25
S'0x11ca58L'
p351
sg27
Nsbasg98
(lp352
S'MOV R0, R7'
p353
aS'B func'
p354
asg111
Nsg5
S'0x11ca54L'
p355
sg113
(lp356
S'0x11ca48L'
p357
aS'0x11cadcL'
p358
asg6
Nsg115
(lp359
S'0x11ca38L'
p360
asg119
Nsg120
Nsg121
S'b6c4e95ccfe77a95e4cf2019dd3d5574'
p361
sg123
S'7f38e61cd8f96afa14e9135b6250f692'
p362
sg125
(lp363
g344
ag96
asg127
Nsba(ibclass
BBasicBlock
p364
(dp365
g12
Nsg13
(lp366
(ibclass
BInstr
p367
(dp368
g2
Nsg17
S'CMP     R0, #0x16'
p369
sg19
S'160050e3'
p370
sg21
Vcmp r0, #0x16
p371
sg5
L1165916L
sg6
Nsg23
S'CMP'
p372
sg25
S'0x11ca5cL'
p373
sg27
Nsba(ibclass
BInstr
p374
(dp375
g2
Nsg17
S'BNE     loc_11CAB4'
p376
sg19
S'1300001a'
p377
sg21
Vbne #0x54
p378
sg5
L1165920L
sg6
Nsg23
g96
sg25
S'0x11ca60L'
p379
sg27
Nsbasg98
(lp380
S'CMP R0, #0x16'
p381
aS'BNE func'
p382
asg111
Nsg5
S'0x11ca5cL'
p383
sg113
(lp384
S'0x11ca0cL'
p385
asg6
Nsg115
(lp386
S'0x11ca64L'
p387
aS'0x11cab4L'
p388
asg119
Nsg120
Nsg121
S'c78fd620a449e3c979d3f3ec12d4ee88'
p389
sg123
S'4156a5814e5236979df25c938e8cfd0d'
p390
sg125
(lp391
g372
ag96
asg127
Nsba(ibclass
BBasicBlock
p392
(dp393
g12
Nsg13
(lp394
(ibclass
BInstr
p395
(dp396
g2
Nsg17
S'LDR     R3, [R6,#0x14]'
p397
sg19
S'143096e5'
p398
sg21
Vldr r3, [r6, #0x14]
p399
sg5
L1165924L
sg6
Nsg23
S'LDR'
p400
sg25
S'0x11ca64L'
p401
sg27
Nsba(ibclass
BInstr
p402
(dp403
g2
Nsg17
S'CMP     R3, #0'
p404
sg19
S'000053e3'
p405
sg21
Vcmp r3, #0
p406
sg5
L1165928L
sg6
Nsg23
S'CMP'
p407
sg25
S'0x11ca68L'
p408
sg27
Nsba(ibclass
BInstr
p409
(dp410
g2
Nsg17
S'SUBEQ   R0, R0, #0x15'
p411
sg19
S'15004002'
p412
sg21
Vsubeq r0, r0, #0x15
p413
sg5
L1165932L
sg6
Nsg23
S'SUB'
p414
sg25
S'0x11ca6cL'
p415
sg27
Nsba(ibclass
BInstr
p416
(dp417
g2
Nsg17
S'BEQ     loc_11CA84'
p418
sg19
S'0300000a'
p419
sg21
Vbeq #0x14
p420
sg5
L1165936L
sg6
Nsg23
g96
sg25
S'0x11ca70L'
p421
sg27
Nsbasg98
(lp422
S'LDR R3, mem'
p423
aS'CMP R3, #0'
p424
aS'SUBEQ R0, R0, #0x15'
p425
aS'BEQ func'
p426
asg111
Nsg5
S'0x11ca64L'
p427
sg113
(lp428
S'0x11ca5cL'
p429
asg6
Nsg115
(lp430
S'0x11ca74L'
p431
aS'0x11ca84L'
p432
asg119
Nsg120
Nsg121
S'1cdd838a83023b1b74c2949fa6e2b2ae'
p433
sg123
S'052938499fbd5d707c848cff4f0511bc'
p434
sg125
(lp435
g400
ag407
ag414
ag96
asg127
Nsba(ibclass
BBasicBlock
p436
(dp437
g12
Nsg13
(lp438
(ibclass
BInstr
p439
(dp440
g2
Nsg17
S'LDR     R3, [R3,#0x14]'
p441
sg19
S'143093e5'
p442
sg21
Vldr r3, [r3, #0x14]
p443
sg5
L1165940L
sg6
Nsg23
S'LDR'
p444
sg25
S'0x11ca74L'
p445
sg27
Nsba(ibclass
BInstr
p446
(dp447
g2
Nsg17
S'LDR     R2, [R3,#0x14]'
p448
sg19
S'142093e5'
p449
sg21
Vldr r2, [r3, #0x14]
p450
sg5
L1165944L
sg6
Nsg23
S'LDR'
p451
sg25
S'0x11ca78L'
p452
sg27
Nsba(ibclass
BInstr
p453
(dp454
g2
Nsg17
S'RSBS    R0, R2, #1'
p455
sg19
S'010072e2'
p456
sg21
Vrsbs r0, r2, #1
p457
sg5
L1165948L
sg6
Nsg23
S'RSB'
p458
sg25
S'0x11ca7cL'
p459
sg27
Nsba(ibclass
BInstr
p460
(dp461
g2
Nsg17
S'MOVCC   R0, #0'
p462
sg19
S'0000a033'
p463
sg21
Vmovlo r0, #0
p464
sg5
L1165952L
sg6
Nsg23
S'MOV'
p465
sg25
S'0x11ca80L'
p466
sg27
Nsbasg98
(lp467
S'LDR R3, mem'
p468
aS'LDR R2, mem'
p469
aS'RSBS R0, R2, #1'
p470
aS'MOVCC R0, #0'
p471
asg111
Nsg5
S'0x11ca74L'
p472
sg113
(lp473
S'0x11ca64L'
p474
asg6
Nsg115
(lp475
S'0x11ca84L'
p476
asg119
Nsg120
Nsg121
S'db2487d6ca8df8931b32c16cbca6b46e'
p477
sg123
S'9ed4f8c0715505735b25f4e0ae428664'
p478
sg125
(lp479
g444
ag451
ag458
ag465
asg127
Nsba(ibclass
BBasicBlock
p480
(dp481
g12
Nsg13
(lp482
(ibclass
BInstr
p483
(dp484
g2
Nsg17
S'STR     R0, [R6,#0xC]'
p485
sg19
S'0c0086e5'
p486
sg21
Vstr r0, [r6, #0xc]
p487
sg5
L1165956L
sg6
Nsg23
S'STR'
p488
sg25
S'0x11ca84L'
p489
sg27
Nsba(ibclass
BInstr
p490
(dp491
g2
Nsg17
S'B       loc_11CA38'
p492
sg19
S'eaffffea'
p493
sg21
Vb #0xffffffb0
p494
sg5
L1165960L
sg6
Nsg23
g96
sg25
S'0x11ca88L'
p495
sg27
Nsbasg98
(lp496
S'STR R0, mem'
p497
aS'B func'
p498
asg111
Nsg5
S'0x11ca84L'
p499
sg113
(lp500
S'0x11ca64L'
p501
aS'0x11ca74L'
p502
asg6
Nsg115
(lp503
S'0x11ca38L'
p504
asg119
Nsg120
Nsg121
S'bb4d1d0d0e01d20d3b7cbdf52fe2caa6'
p505
sg123
S'7237045aca94826506b7a669bd9d0fd3'
p506
sg125
(lp507
g488
ag96
asg127
Nsba(ibclass
BBasicBlock
p508
(dp509
g12
Nsg13
(lp510
(ibclass
BInstr
p511
(dp512
g2
Nsg17
S'LDR     R3, =(aPk7_lib_c - 0x1809D4)'
p513
sg19
S'8c309fe5'
p514
sg21
Vldr r3, [pc, #0x8c]
p515
sg5
L1165964L
sg6
Nsg23
S'LDR'
p516
sg25
S'0x11ca8cL'
p517
sg27
Nsba(ibclass
BInstr
p518
(dp519
g2
Nsg17
S'MOV     R1, #0x68'
p520
sg19
S'6810a0e3'
p521
sg21
Vmov r1, #0x68
p522
sg5
L1165968L
sg6
Nsg23
S'MOV'
p523
sg25
S'0x11ca90L'
p524
sg27
Nsba(ibclass
BInstr
p525
(dp526
g2
Nsg17
S'MOV     R0, #0x21'
p527
sg19
S'2100a0e3'
p528
sg21
Vmov r0, #0x21
p529
sg5
L1165972L
sg6
Nsg23
S'MOV'
p530
sg25
S'0x11ca94L'
p531
sg27
Nsba(ibclass
BInstr
p532
(dp533
g2
Nsg17
S'MOV     R12, #0x55'
p534
sg19
S'55c0a0e3'
p535
sg21
Vmov ip, #0x55
p536
sg5
L1165976L
sg6
Nsg23
S'MOV'
p537
sg25
S'0x11ca98L'
p538
sg27
Nsba(ibclass
BInstr
p539
(dp540
g2
Nsg17
S'ADD     R3, R4, R3      ; "pk7_lib.c"'
p541
sg19
S'033084e0'
p542
sg21
Vadd r3, r4, r3
p543
sg5
L1165980L
sg6
Nsg23
S'ADD'
p544
sg25
S'0x11ca9cL'
p545
sg27
Nsba(ibclass
BInstr
p546
(dp547
g2
Nsg17
S'MOV     R2, R1'
p548
sg19
S'0120a0e1'
p549
sg21
Vmov r2, r1
p550
sg5
L1165984L
sg6
Nsg23
S'MOV'
p551
sg25
S'0x11caa0L'
p552
sg27
Nsba(ibclass
BInstr
p553
(dp554
g2
Nsg17
S'STR     R12, [SP,#0x20+var_20]'
p555
sg19
S'00c08de5'
p556
sg21
Vstr ip, [sp]
p557
sg5
L1165988L
sg6
Nsg23
S'STR'
p558
sg25
S'0x11caa4L'
p559
sg27
Nsba(ibclass
BInstr
p560
(dp561
g2
Nsg17
S'BL      ERR_put_error'
p562
sg19
S'9abbfeeb'
p563
sg21
Vbl #0xfffaee70
p564
sg5
L1165992L
sg6
Nsg23
S'BL'
p565
sg25
S'0x11caa8L'
p566
sg27
Nsba(ibclass
BInstr
p567
(dp568
g2
Nsg17
S'MOV     R0, #0'
p569
sg19
S'0000a0e3'
p570
sg21
Vmov r0, #0
p571
sg5
L1165996L
sg6
Nsg23
S'MOV'
p572
sg25
S'0x11caacL'
p573
sg27
Nsba(ibclass
BInstr
p574
(dp575
g2
Nsg17
S'B       loc_11CA38'
p576
sg19
S'e0ffffea'
p577
sg21
Vb #0xffffff88
p578
sg5
L1166000L
sg6
Nsg23
g96
sg25
S'0x11cab0L'
p579
sg27
Nsbasg98
(lp580
S'LDR R3, =(aPk7_lib_c - 0x1809D4)'
p581
aS'MOV R1, #0x68'
p582
aS'MOV R0, #0x21'
p583
aS'MOV R12, #0x55'
p584
aS'ADD R3, R4, R3'
p585
aS'MOV R2, R1'
p586
aS'STR R12, mem'
p587
aS'BL ERR_put_error'
p588
aS'MOV R0, #0'
p589
aS'B func'
p590
asg111
Nsg5
S'0x11ca8cL'
p591
sg113
(lp592
S'0x11ca40L'
p593
asg6
Nsg115
(lp594
S'0x11ca38L'
p595
asg119
Nsg120
Nsg121
S'07625b421505b3c57f5bfa0cd588ebe3'
p596
sg123
S'b18b8733c7f95df939f47145f320eebd'
p597
sg125
(lp598
g516
ag523
ag530
ag537
ag544
ag551
ag558
ag565
ag572
ag96
asg127
Nsba(ibclass
BBasicBlock
p599
(dp600
g12
Nsg13
(lp601
(ibclass
BInstr
p602
(dp603
g2
Nsg17
S'LDR     R3, =(aPk7_lib_c - 0x1809D4)'
p604
sg19
S'64309fe5'
p605
sg21
Vldr r3, [pc, #0x64]
p606
sg5
L1166004L
sg6
Nsg23
S'LDR'
p607
sg25
S'0x11cab4L'
p608
sg27
Nsba(ibclass
BInstr
p609
(dp610
g2
Nsg17
S'MOV     R1, #0x68'
p611
sg19
S'6810a0e3'
p612
sg21
Vmov r1, #0x68
p613
sg5
L1166008L
sg6
Nsg23
S'MOV'
p614
sg25
S'0x11cab8L'
p615
sg27
Nsba(ibclass
BInstr
p616
(dp617
g2
Nsg17
S'MOV     R0, #0x21'
p618
sg19
S'2100a0e3'
p619
sg21
Vmov r0, #0x21
p620
sg5
L1166012L
sg6
Nsg23
S'MOV'
p621
sg25
S'0x11cabcL'
p622
sg27
Nsba(ibclass
BInstr
p623
(dp624
g2
Nsg17
S'MOV     R12, #0x63'
p625
sg19
S'63c0a0e3'
p626
sg21
Vmov ip, #0x63
p627
sg5
L1166016L
sg6
Nsg23
S'MOV'
p628
sg25
S'0x11cac0L'
p629
sg27
Nsba(ibclass
BInstr
p630
(dp631
g2
Nsg17
S'ADD     R3, R4, R3      ; "pk7_lib.c"'
p632
sg19
S'033084e0'
p633
sg21
Vadd r3, r4, r3
p634
sg5
L1166020L
sg6
Nsg23
S'ADD'
p635
sg25
S'0x11cac4L'
p636
sg27
Nsba(ibclass
BInstr
p637
(dp638
g2
Nsg17
S'MOV     R2, R1'
p639
sg19
S'0120a0e1'
p640
sg21
Vmov r2, r1
p641
sg5
L1166024L
sg6
Nsg23
S'MOV'
p642
sg25
S'0x11cac8L'
p643
sg27
Nsba(ibclass
BInstr
p644
(dp645
g2
Nsg17
S'STR     R12, [SP,#0x20+var_20]'
p646
sg19
S'00c08de5'
p647
sg21
Vstr ip, [sp]
p648
sg5
L1166028L
sg6
Nsg23
S'STR'
p649
sg25
S'0x11caccL'
p650
sg27
Nsba(ibclass
BInstr
p651
(dp652
g2
Nsg17
S'BL      ERR_put_error'
p653
sg19
S'90bbfeeb'
p654
sg21
Vbl #0xfffaee48
p655
sg5
L1166032L
sg6
Nsg23
S'BL'
p656
sg25
S'0x11cad0L'
p657
sg27
Nsba(ibclass
BInstr
p658
(dp659
g2
Nsg17
S'MOV     R0, #0'
p660
sg19
S'0000a0e3'
p661
sg21
Vmov r0, #0
p662
sg5
L1166036L
sg6
Nsg23
S'MOV'
p663
sg25
S'0x11cad4L'
p664
sg27
Nsba(ibclass
BInstr
p665
(dp666
g2
Nsg17
S'B       loc_11CA38'
p667
sg19
S'd6ffffea'
p668
sg21
Vb #0xffffff60
p669
sg5
L1166040L
sg6
Nsg23
g96
sg25
S'0x11cad8L'
p670
sg27
Nsbasg98
(lp671
S'LDR R3, =(aPk7_lib_c - 0x1809D4)'
p672
aS'MOV R1, #0x68'
p673
aS'MOV R0, #0x21'
p674
aS'MOV R12, #0x63'
p675
aS'ADD R3, R4, R3'
p676
aS'MOV R2, R1'
p677
aS'STR R12, mem'
p678
aS'BL ERR_put_error'
p679
aS'MOV R0, #0'
p680
aS'B func'
p681
asg111
Nsg5
S'0x11cab4L'
p682
sg113
(lp683
S'0x11ca5cL'
p684
asg6
Nsg115
(lp685
S'0x11ca38L'
p686
asg119
Nsg120
Nsg121
S'07625b421505b3c57f5bfa0cd588ebe3'
p687
sg123
S'8f4f0c7d66a9d62ae9b3a3b917d2e23f'
p688
sg125
(lp689
g607
ag614
ag621
ag628
ag635
ag642
ag649
ag656
ag663
ag96
asg127
Nsba(ibclass
BBasicBlock
p690
(dp691
g12
Nsg13
(lp692
(ibclass
BInstr
p693
(dp694
g2
Nsg17
S'LDR     R3, [R6,#0x14]'
p695
sg19
S'143096e5'
p696
sg21
Vldr r3, [r6, #0x14]
p697
sg5
L1166044L
sg6
Nsg23
S'LDR'
p698
sg25
S'0x11cadcL'
p699
sg27
Nsba(ibclass
BInstr
p700
(dp701
g2
Nsg17
S'LDR     R2, [R3,#0x14]'
p702
sg19
S'142093e5'
p703
sg21
Vldr r2, [r3, #0x14]
p704
sg5
L1166048L
sg6
Nsg23
S'LDR'
p705
sg25
S'0x11cae0L'
p706
sg27
Nsba(ibclass
BInstr
p707
(dp708
g2
Nsg17
S'LDR     R0, [R2,#0x10]'
p709
sg19
S'100092e5'
p710
sg21
Vldr r0, [r2, #0x10]
p711
sg5
L1166052L
sg6
Nsg23
S'LDR'
p712
sg25
S'0x11cae4L'
p713
sg27
Nsba(ibclass
BInstr
p714
(dp715
g2
Nsg17
S'BL      OBJ_obj2nid'
p716
sg19
S'b899fceb'
p717
sg21
Vbl #0xfff266e8
p718
sg5
L1166056L
sg6
Nsg23
S'BL'
p719
sg25
S'0x11cae8L'
p720
sg27
Nsba(ibclass
BInstr
p721
(dp722
g2
Nsg17
S'CMP     R0, #0x15'
p723
sg19
S'150050e3'
p724
sg21
Vcmp r0, #0x15
p725
sg5
L1166060L
sg6
Nsg23
S'CMP'
p726
sg25
S'0x11caecL'
p727
sg27
Nsba(ibclass
BInstr
p728
(dp729
g2
Nsg17
S'BNE     loc_11CA54'
p730
sg19
S'd7ffff1a'
p731
sg21
Vbne #0xffffff64
p732
sg5
L1166064L
sg6
Nsg23
g96
sg25
S'0x11caf0L'
p733
sg27
Nsbasg98
(lp734
S'LDR R3, mem'
p735
aS'LDR R2, mem'
p736
aS'LDR R0, mem'
p737
aS'BL OBJ_obj2nid'
p738
aS'CMP R0, #0x15'
p739
aS'BNE func'
p740
asg111
Nsg5
S'0x11cadcL'
p741
sg113
(lp742
S'0x11ca48L'
p743
asg6
Nsg115
(lp744
S'0x11ca54L'
p745
aS'0x11caf4L'
p746
asg119
Nsg120
Nsg121
S'b74ed3259145eb9ccf6d66597cbf8daf'
p747
sg123
S'434fb9b12df29fb3b635fe741ebef8a1'
p748
sg125
(lp749
g698
ag705
ag712
ag719
ag726
ag96
asg127
Nsba(ibclass
BBasicBlock
p750
(dp751
g12
Nsg13
(lp752
(ibclass
BInstr
p753
(dp754
g2
Nsg17
S'LDR     R3, [R6,#0x14]'
p755
sg19
S'143096e5'
p756
sg21
Vldr r3, [r6, #0x14]
p757
sg5
L1166068L
sg6
Nsg23
S'LDR'
p758
sg25
S'0x11caf4L'
p759
sg27
Nsba(ibclass
BInstr
p760
(dp761
g2
Nsg17
S'LDR     R2, [R3,#0x14]'
p762
sg19
S'142093e5'
p763
sg21
Vldr r2, [r3, #0x14]
p764
sg5
L1166072L
sg6
Nsg23
S'LDR'
p765
sg25
S'0x11caf8L'
p766
sg27
Nsba(ibclass
BInstr
p767
(dp768
g2
Nsg17
S'LDR     R0, [R2,#0x14]'
p769
sg19
S'140092e5'
p770
sg21
Vldr r0, [r2, #0x14]
p771
sg5
L1166076L
sg6
Nsg23
S'LDR'
p772
sg25
S'0x11cafcL'
p773
sg27
Nsba(ibclass
BInstr
p774
(dp775
g2
Nsg17
S'BL      ASN1_OCTET_STRING_free'
p776
sg19
S'5c3affeb'
p777
sg21
Vbl #0xfffce978
p778
sg5
L1166080L
sg6
Nsg23
S'BL'
p779
sg25
S'0x11cb00L'
p780
sg27
Nsba(ibclass
BInstr
p781
(dp782
g2
Nsg17
S'LDR     R3, [R6,#0x14]'
p783
sg19
S'143096e5'
p784
sg21
Vldr r3, [r6, #0x14]
p785
sg5
L1166084L
sg6
Nsg23
S'LDR'
p786
sg25
S'0x11cb04L'
p787
sg27
Nsba(ibclass
BInstr
p788
(dp789
g2
Nsg17
S'MOV     R0, R7'
p790
sg19
S'0700a0e1'
p791
sg21
Vmov r0, r7
p792
sg5
L1166088L
sg6
Nsg23
S'MOV'
p793
sg25
S'0x11cb08L'
p794
sg27
Nsba(ibclass
BInstr
p795
(dp796
g2
Nsg17
S'LDR     R2, [R3,#0x14]'
p797
sg19
S'142093e5'
p798
sg21
Vldr r2, [r3, #0x14]
p799
sg5
L1166092L
sg6
Nsg23
S'LDR'
p800
sg25
S'0x11cb0cL'
p801
sg27
Nsba(ibclass
BInstr
p802
(dp803
g2
Nsg17
S'MOV     R3, #0'
p804
sg19
S'0030a0e3'
p805
sg21
Vmov r3, #0
p806
sg5
L1166096L
sg6
Nsg23
S'MOV'
p807
sg25
S'0x11cb10L'
p808
sg27
Nsba(ibclass
BInstr
p809
(dp810
g2
Nsg17
S'STR     R3, [R2,#0x14]'
p811
sg19
S'143082e5'
p812
sg21
Vstr r3, [r2, #0x14]
p813
sg5
L1166100L
sg6
Nsg23
S'STR'
p814
sg25
S'0x11cb14L'
p815
sg27
Nsba(ibclass
BInstr
p816
(dp817
g2
Nsg17
S'B       loc_11CA38'
p818
sg19
S'c6ffffea'
p819
sg21
Vb #0xffffff20
p820
sg5
L1166104L
sg6
Nsg23
g96
sg25
S'0x11cb18L'
p821
sg27
Nsbasg98
(lp822
S'LDR R3, mem'
p823
aS'LDR R2, mem'
p824
aS'LDR R0, mem'
p825
aS'BL ASN1_OCTET_STRING_free'
p826
aS'LDR R3, mem'
p827
aS'MOV R0, R7'
p828
aS'LDR R2, mem'
p829
aS'MOV R3, #0'
p830
aS'STR R3, mem'
p831
aS'B func'
p832
asg111
Nsg5
S'0x11caf4L'
p833
sg113
(lp834
S'0x11cadcL'
p835
asg6
Nsg115
(lp836
S'0x11ca38L'
p837
asg119
Nsg120
Nsg121
S'7b56a4cd4fa87e3cae15d351cd79a0b1'
p838
sg123
S'59520d42c2d313a270463f827a14487d'
p839
sg125
(lp840
g758
ag765
ag772
ag779
ag786
ag793
ag800
ag807
ag814
ag96
asg127
Nsbasb.