(ibclass
BFunc
p0
(dp1
S'hash'
p2
NsS'name'
p3
S'MDC2_Update'
p4
sS'start_address'
p5
L355956L
sS'flag'
p6
NsS'program'
p7
NsS'bbs'
p8
(lp9
(ibclass
BBasicBlock
p10
(dp11
S'function'
p12
NsS'binstrs'
p13
(lp14
(ibclass
BInstr
p15
(dp16
g2
NsS'disasm'
p17
S'LDR     R12, [R0]'
p18
sS'bytes'
p19
S'00c090e5'
p20
sS'disasm_striped'
p21
Vldr ip, [r0]
p22
sg5
L355956L
sg6
NsS'mnem'
p23
S'LDR'
p24
sS'address'
p25
S'0x56e74L'
p26
sS'basicblock'
p27
Nsba(ibclass
BInstr
p28
(dp29
g2
Nsg17
S'STMFD   SP!, {R4-R7,LR}'
p30
sg19
S'f0402de9'
p31
sg21
Vpush {r4, r5, r6, r7, lr}
p32
sg5
L355960L
sg6
Nsg23
S'STM'
p33
sg25
S'0x56e78L'
p34
sg27
Nsba(ibclass
BInstr
p35
(dp36
g2
Nsg17
S'CMP     R12, #0'
p37
sg19
S'00005ce3'
p38
sg21
Vcmp ip, #0
p39
sg5
L355964L
sg6
Nsg23
S'CMP'
p40
sg25
S'0x56e7cL'
p41
sg27
Nsba(ibclass
BInstr
p42
(dp43
g2
Nsg17
S'SUB     SP, SP, #4'
p44
sg19
S'04d04de2'
p45
sg21
Vsub sp, sp, #4
p46
sg5
L355968L
sg6
Nsg23
S'SUB'
p47
sg25
S'0x56e80L'
p48
sg27
Nsba(ibclass
BInstr
p49
(dp50
g2
Nsg17
S'MOV     R6, R0'
p51
sg19
S'0060a0e1'
p52
sg21
Vmov r6, r0
p53
sg5
L355972L
sg6
Nsg23
S'MOV'
p54
sg25
S'0x56e84L'
p55
sg27
Nsba(ibclass
BInstr
p56
(dp57
g2
Nsg17
S'MOV     R7, R1'
p58
sg19
S'0170a0e1'
p59
sg21
Vmov r7, r1
p60
sg5
L355976L
sg6
Nsg23
S'MOV'
p61
sg25
S'0x56e88L'
p62
sg27
Nsba(ibclass
BInstr
p63
(dp64
g2
Nsg17
S'MOV     R5, R2'
p65
sg19
S'0250a0e1'
p66
sg21
Vmov r5, r2
p67
sg5
L355980L
sg6
Nsg23
S'MOV'
p68
sg25
S'0x56e8cL'
p69
sg27
Nsba(ibclass
BInstr
p70
(dp71
g2
Nsg17
S'BEQ     loc_56ED4'
p72
sg19
S'0f00000a'
p73
sg21
Vbeq #0x44
p74
sg5
L355984L
sg6
Nsg23
S'B'
p75
sg25
S'0x56e90L'
p76
sg27
NsbasS'disasm_list'
p77
(lp78
S'LDR R12, mem'
p79
aS'STMFD SP!, {R4-R7,LR}'
p80
aS'CMP R12, #0'
p81
aS'SUB SP, SP, #4'
p82
aS'MOV R6, R0'
p83
aS'MOV R7, R1'
p84
aS'MOV R5, R2'
p85
aS'BEQ func'
p86
asS'end_address'
p87
Nsg5
S'0x56e74L'
p88
sS'preds'
p89
(lp90
sg6
NsS'succs'
p91
(lp92
S'0x56e94L'
p93
aS'0x56ed4L'
p94
asS'hash_v3'
p95
NsS'flag_v2'
p96
NsS'hash_v1'
p97
S'17a6d134e74074475490172d6ec5f1ab'
p98
sS'hash_v2'
p99
S'1b7ce92bf7fa75c2eff9d4a6298f90db'
p100
sS'mnen_list'
p101
(lp102
g24
ag33
ag40
ag47
ag54
ag61
ag68
ag75
asS'neighbour_disasm_list'
p103
Nsba(ibclass
BBasicBlock
p104
(dp105
g12
Nsg13
(lp106
(ibclass
BInstr
p107
(dp108
g2
Nsg17
S'ADD     R3, R2, R12'
p109
sg19
S'0c3082e0'
p110
sg21
Vadd r3, r2, ip
p111
sg5
L355988L
sg6
Nsg23
S'ADD'
p112
sg25
S'0x56e94L'
p113
sg27
Nsba(ibclass
BInstr
p114
(dp115
g2
Nsg17
S'CMP     R3, #7'
p116
sg19
S'070053e3'
p117
sg21
Vcmp r3, #7
p118
sg5
L355992L
sg6
Nsg23
S'CMP'
p119
sg25
S'0x56e98L'
p120
sg27
Nsba(ibclass
BInstr
p121
(dp122
g2
Nsg17
S'BLS     loc_56F04'
p123
sg19
S'1800009a'
p124
sg21
Vbls #0x68
p125
sg5
L355996L
sg6
Nsg23
g75
sg25
S'0x56e9cL'
p126
sg27
Nsbasg77
(lp127
S'ADD R3, R2, R12'
p128
aS'CMP R3, #7'
p129
aS'BLS func'
p130
asg87
Nsg5
S'0x56e94L'
p131
sg89
(lp132
S'0x56e74L'
p133
asg6
Nsg91
(lp134
S'0x56ea0L'
p135
aS'0x56f04L'
p136
asg95
Nsg96
Nsg97
S'b18482ce28e47cedf5ced20c4c995241'
p137
sg99
S'366aacd6f765a945a13df488e34ca408'
p138
sg101
(lp139
g112
ag119
ag75
asg103
Nsba(ibclass
BBasicBlock
p140
(dp141
g12
Nsg13
(lp142
(ibclass
BInstr
p143
(dp144
g2
Nsg17
S'RSB     R4, R12, #8'
p145
sg19
S'08406ce2'
p146
sg21
Vrsb r4, ip, #8
p147
sg5
L356000L
sg6
Nsg23
S'RSB'
p148
sg25
S'0x56ea0L'
p149
sg27
Nsba(ibclass
BInstr
p150
(dp151
g2
Nsg17
S'ADD     R0, R0, R12'
p152
sg19
S'0c0080e0'
p153
sg21
Vadd r0, r0, ip
p154
sg5
L356004L
sg6
Nsg23
S'ADD'
p155
sg25
S'0x56ea4L'
p156
sg27
Nsba(ibclass
BInstr
p157
(dp158
g2
Nsg17
S'MOV     R2, R4          ; n'
p159
sg19
S'0420a0e1'
p160
sg21
Vmov r2, r4
p161
sg5
L356008L
sg6
Nsg23
S'MOV'
p162
sg25
S'0x56ea8L'
p163
sg27
Nsba(ibclass
BInstr
p164
(dp165
g2
Nsg17
S'ADD     R0, R0, #4      ; dest'
p166
sg19
S'040080e2'
p167
sg21
Vadd r0, r0, #4
p168
sg5
L356012L
sg6
Nsg23
S'ADD'
p169
sg25
S'0x56eacL'
p170
sg27
Nsba(ibclass
BInstr
p171
(dp172
g2
Nsg17
S'BL      memcpy'
p173
sg19
S'529dffeb'
p174
sg21
Vbl #0xfffe7550
p175
sg5
L356016L
sg6
Nsg23
S'BL'
p176
sg25
S'0x56eb0L'
p177
sg27
Nsba(ibclass
BInstr
p178
(dp179
g2
Nsg17
S'MOV     R1, R6'
p180
sg19
S'0610a0e1'
p181
sg21
Vmov r1, r6
p182
sg5
L356020L
sg6
Nsg23
S'MOV'
p183
sg25
S'0x56eb4L'
p184
sg27
Nsba(ibclass
BInstr
p185
(dp186
g2
Nsg17
S'MOV     R3, #0'
p187
sg19
S'0030a0e3'
p188
sg21
Vmov r3, #0
p189
sg5
L356024L
sg6
Nsg23
S'MOV'
p190
sg25
S'0x56eb8L'
p191
sg27
Nsba(ibclass
BInstr
p192
(dp193
g2
Nsg17
S'STR     R3, [R1],#4'
p194
sg19
S'043081e4'
p195
sg21
Vstr r3, [r1], #4
p196
sg5
L356028L
sg6
Nsg23
S'STR'
p197
sg25
S'0x56ebcL'
p198
sg27
Nsba(ibclass
BInstr
p199
(dp200
g2
Nsg17
S'MOV     R0, R6'
p201
sg19
S'0600a0e1'
p202
sg21
Vmov r0, r6
p203
sg5
L356032L
sg6
Nsg23
S'MOV'
p204
sg25
S'0x56ec0L'
p205
sg27
Nsba(ibclass
BInstr
p206
(dp207
g2
Nsg17
S'MOV     R2, #8'
p208
sg19
S'0820a0e3'
p209
sg21
Vmov r2, #8
p210
sg5
L356036L
sg6
Nsg23
S'MOV'
p211
sg25
S'0x56ec4L'
p212
sg27
Nsba(ibclass
BInstr
p213
(dp214
g2
Nsg17
S'ADD     R7, R7, R4'
p215
sg19
S'047087e0'
p216
sg21
Vadd r7, r7, r4
p217
sg5
L356040L
sg6
Nsg23
S'ADD'
p218
sg25
S'0x56ec8L'
p219
sg27
Nsba(ibclass
BInstr
p220
(dp221
g2
Nsg17
S'RSB     R5, R4, R5'
p222
sg19
S'055064e0'
p223
sg21
Vrsb r5, r4, r5
p224
sg5
L356044L
sg6
Nsg23
S'RSB'
p225
sg25
S'0x56eccL'
p226
sg27
Nsba(ibclass
BInstr
p227
(dp228
g2
Nsg17
S'BL      sub_56B6C'
p229
sg19
S'25ffffeb'
p230
sg21
Vbl #0xfffffc9c
p231
sg5
L356048L
sg6
Nsg23
S'BL'
p232
sg25
S'0x56ed0L'
p233
sg27
Nsbasg77
(lp234
S'RSB R4, R12, #8'
p235
aS'ADD R0, R0, R12'
p236
aS'MOV R2, R4'
p237
aS'ADD R0, R0, #4'
p238
aS'BL memcpy'
p239
aS'MOV R1, R6'
p240
aS'MOV R3, #0'
p241
aS'STR R3, mem,#4'
p242
aS'MOV R0, R6'
p243
aS'MOV R2, #8'
p244
aS'ADD R7, R7, R4'
p245
aS'RSB R5, R4, R5'
p246
aS'BL func'
p247
asg87
Nsg5
S'0x56ea0L'
p248
sg89
(lp249
S'0x56e94L'
p250
asg6
Nsg91
(lp251
S'0x56ed4L'
p252
asg95
Nsg96
Nsg97
S'b9c4e836f8b24dcf9c48b050e7293e88'
p253
sg99
S'f9d537e59b3f1f1b66365ca949b87840'
p254
sg101
(lp255
g148
ag155
ag162
ag169
ag176
ag183
ag190
ag197
ag204
ag211
ag218
ag225
ag232
asg103
Nsba(ibclass
BBasicBlock
p256
(dp257
g12
Nsg13
(lp258
(ibclass
BInstr
p259
(dp260
g2
Nsg17
S'BICS    R4, R5, #7'
p261
sg19
S'0740d5e3'
p262
sg21
Vbics r4, r5, #7
p263
sg5
L356052L
sg6
Nsg23
S'BIC'
p264
sg25
S'0x56ed4L'
p265
sg27
Nsba(ibclass
BInstr
p266
(dp267
g2
Nsg17
S'BNE     loc_56F20'
p268
sg19
S'1000001a'
p269
sg21
Vbne #0x48
p270
sg5
L356056L
sg6
Nsg23
g75
sg25
S'0x56ed8L'
p271
sg27
Nsbasg77
(lp272
S'BICS R4, R5, #7'
p273
aS'BNE func'
p274
asg87
Nsg5
S'0x56ed4L'
p275
sg89
(lp276
S'0x56e74L'
p277
aS'0x56ea0L'
p278
asg6
Nsg91
(lp279
S'0x56edcL'
p280
aS'0x56f20L'
p281
asg95
Nsg96
Nsg97
S'f7203e970e7696d9a045e36d28adb44e'
p282
sg99
S'c8421b8ccc2f20cd5a60ba5739a7155f'
p283
sg101
(lp284
g264
ag75
asg103
Nsba(ibclass
BBasicBlock
p285
(dp286
g12
Nsg13
(lp287
(ibclass
BInstr
p288
(dp289
g2
Nsg17
S'SUBS    R5, R5, R4'
p290
sg19
S'045055e0'
p291
sg21
Vsubs r5, r5, r4
p292
sg5
L356060L
sg6
Nsg23
S'SUB'
p293
sg25
S'0x56edcL'
p294
sg27
Nsba(ibclass
BInstr
p295
(dp296
g2
Nsg17
S'BEQ     loc_56EF8'
p297
sg19
S'0400000a'
p298
sg21
Vbeq #0x18
p299
sg5
L356064L
sg6
Nsg23
g75
sg25
S'0x56ee0L'
p300
sg27
Nsbasg77
(lp301
S'SUBS R5, R5, R4'
p302
aS'BEQ func'
p303
asg87
Nsg5
S'0x56edcL'
p304
sg89
(lp305
S'0x56ed4L'
p306
aS'0x56f20L'
p307
asg6
Nsg91
(lp308
S'0x56ee4L'
p309
aS'0x56ef8L'
p310
asg95
Nsg96
Nsg97
S'd9cd0befa77024d455f4479512574760'
p311
sg99
S'097a09bf504ef472f086c25fdf919bd1'
p312
sg101
(lp313
g293
ag75
asg103
Nsba(ibclass
BBasicBlock
p314
(dp315
g12
Nsg13
(lp316
(ibclass
BInstr
p317
(dp318
g2
Nsg17
S'ADD     R1, R7, R4      ; src'
p319
sg19
S'041087e0'
p320
sg21
Vadd r1, r7, r4
p321
sg5
L356068L
sg6
Nsg23
S'ADD'
p322
sg25
S'0x56ee4L'
p323
sg27
Nsba(ibclass
BInstr
p324
(dp325
g2
Nsg17
S'ADD     R0, R6, #4      ; dest'
p326
sg19
S'040086e2'
p327
sg21
Vadd r0, r6, #4
p328
sg5
L356072L
sg6
Nsg23
S'ADD'
p329
sg25
S'0x56ee8L'
p330
sg27
Nsba(ibclass
BInstr
p331
(dp332
g2
Nsg17
S'MOV     R2, R5          ; n'
p333
sg19
S'0520a0e1'
p334
sg21
Vmov r2, r5
p335
sg5
L356076L
sg6
Nsg23
S'MOV'
p336
sg25
S'0x56eecL'
p337
sg27
Nsba(ibclass
BInstr
p338
(dp339
g2
Nsg17
S'BL      memcpy'
p340
sg19
S'429dffeb'
p341
sg21
Vbl #0xfffe7510
p342
sg5
L356080L
sg6
Nsg23
S'BL'
p343
sg25
S'0x56ef0L'
p344
sg27
Nsba(ibclass
BInstr
p345
(dp346
g2
Nsg17
S'STR     R5, [R6]'
p347
sg19
S'005086e5'
p348
sg21
Vstr r5, [r6]
p349
sg5
L356084L
sg6
Nsg23
S'STR'
p350
sg25
S'0x56ef4L'
p351
sg27
Nsbasg77
(lp352
S'ADD R1, R7, R4'
p353
aS'ADD R0, R6, #4'
p354
aS'MOV R2, R5'
p355
aS'BL memcpy'
p356
aS'STR R5, mem'
p357
asg87
Nsg5
S'0x56ee4L'
p358
sg89
(lp359
S'0x56edcL'
p360
asg6
Nsg91
(lp361
S'0x56ef8L'
p362
asg95
Nsg96
Nsg97
S'359fa9fbeb0c74df13d9b27966da7c6d'
p363
sg99
S'91c305a41be4b6672ddf305b61dfeaee'
p364
sg101
(lp365
g322
ag329
ag336
ag343
ag350
asg103
Nsba(ibclass
BBasicBlock
p366
(dp367
g12
Nsg13
(lp368
(ibclass
BInstr
p369
(dp370
g2
Nsg17
S'MOV     R0, #1'
p371
sg19
S'0100a0e3'
p372
sg21
Vmov r0, #1
p373
sg5
L356088L
sg6
Nsg23
S'MOV'
p374
sg25
S'0x56ef8L'
p375
sg27
Nsba(ibclass
BInstr
p376
(dp377
g2
Nsg17
S'ADD     SP, SP, #4'
p378
sg19
S'04d08de2'
p379
sg21
Vadd sp, sp, #4
p380
sg5
L356092L
sg6
Nsg23
S'ADD'
p381
sg25
S'0x56efcL'
p382
sg27
Nsba(ibclass
BInstr
p383
(dp384
g2
Nsg17
S'LDMFD   SP!, {R4-R7,PC}'
p385
sg19
S'f080bde8'
p386
sg21
Vpop {r4, r5, r6, r7, pc}
p387
sg5
L356096L
sg6
Nsg23
S'LDM'
p388
sg25
S'0x56f00L'
p389
sg27
Nsbasg77
(lp390
S'MOV R0, #1'
p391
aS'ADD SP, SP, #4'
p392
aS'LDMFD SP!, {R4-R7,PC}'
p393
asg87
Nsg5
S'0x56ef8L'
p394
sg89
(lp395
S'0x56edcL'
p396
aS'0x56ee4L'
p397
aS'0x56f04L'
p398
asg6
Nsg91
(lp399
sg95
Nsg96
Nsg97
S'e8608f9e90923baa465df19833e21407'
p400
sg99
S'3b0d3f5bea31e767f589469ed0f62d20'
p401
sg101
(lp402
g374
ag381
ag388
asg103
Nsba(ibclass
BBasicBlock
p403
(dp404
g12
Nsg13
(lp405
(ibclass
BInstr
p406
(dp407
g2
Nsg17
S'ADD     R0, R0, R12'
p408
sg19
S'0c0080e0'
p409
sg21
Vadd r0, r0, ip
p410
sg5
L356100L
sg6
Nsg23
S'ADD'
p411
sg25
S'0x56f04L'
p412
sg27
Nsba(ibclass
BInstr
p413
(dp414
g2
Nsg17
S'ADD     R0, R0, #4      ; dest'
p415
sg19
S'040080e2'
p416
sg21
Vadd r0, r0, #4
p417
sg5
L356104L
sg6
Nsg23
S'ADD'
p418
sg25
S'0x56f08L'
p419
sg27
Nsba(ibclass
BInstr
p420
(dp421
g2
Nsg17
S'BL      memcpy'
p422
sg19
S'3b9dffeb'
p423
sg21
Vbl #0xfffe74f4
p424
sg5
L356108L
sg6
Nsg23
S'BL'
p425
sg25
S'0x56f0cL'
p426
sg27
Nsba(ibclass
BInstr
p427
(dp428
g2
Nsg17
S'LDR     R3, [R6]'
p429
sg19
S'003096e5'
p430
sg21
Vldr r3, [r6]
p431
sg5
L356112L
sg6
Nsg23
S'LDR'
p432
sg25
S'0x56f10L'
p433
sg27
Nsba(ibclass
BInstr
p434
(dp435
g2
Nsg17
S'ADD     R3, R3, R5'
p436
sg19
S'053083e0'
p437
sg21
Vadd r3, r3, r5
p438
sg5
L356116L
sg6
Nsg23
S'ADD'
p439
sg25
S'0x56f14L'
p440
sg27
Nsba(ibclass
BInstr
p441
(dp442
g2
Nsg17
S'STR     R3, [R6]'
p443
sg19
S'003086e5'
p444
sg21
Vstr r3, [r6]
p445
sg5
L356120L
sg6
Nsg23
S'STR'
p446
sg25
S'0x56f18L'
p447
sg27
Nsba(ibclass
BInstr
p448
(dp449
g2
Nsg17
S'B       loc_56EF8'
p450
sg19
S'f5ffffea'
p451
sg21
Vb #0xffffffdc
p452
sg5
L356124L
sg6
Nsg23
g75
sg25
S'0x56f1cL'
p453
sg27
Nsbasg77
(lp454
S'ADD R0, R0, R12'
p455
aS'ADD R0, R0, #4'
p456
aS'BL memcpy'
p457
aS'LDR R3, mem'
p458
aS'ADD R3, R3, R5'
p459
aS'STR R3, mem'
p460
aS'B func'
p461
asg87
Nsg5
S'0x56f04L'
p462
sg89
(lp463
S'0x56e94L'
p464
asg6
Nsg91
(lp465
S'0x56ef8L'
p466
asg95
Nsg96
Nsg97
S'9d95b4a65cd16ebeb916b74ee54c141c'
p467
sg99
S'291c259c283909353d55352547f4dc47'
p468
sg101
(lp469
g411
ag418
ag425
ag432
ag439
ag446
ag75
asg103
Nsba(ibclass
BBasicBlock
p470
(dp471
g12
Nsg13
(lp472
(ibclass
BInstr
p473
(dp474
g2
Nsg17
S'MOV     R0, R6'
p475
sg19
S'0600a0e1'
p476
sg21
Vmov r0, r6
p477
sg5
L356128L
sg6
Nsg23
S'MOV'
p478
sg25
S'0x56f20L'
p479
sg27
Nsba(ibclass
BInstr
p480
(dp481
g2
Nsg17
S'MOV     R1, R7'
p482
sg19
S'0710a0e1'
p483
sg21
Vmov r1, r7
p484
sg5
L356132L
sg6
Nsg23
S'MOV'
p485
sg25
S'0x56f24L'
p486
sg27
Nsba(ibclass
BInstr
p487
(dp488
g2
Nsg17
S'MOV     R2, R4'
p489
sg19
S'0420a0e1'
p490
sg21
Vmov r2, r4
p491
sg5
L356136L
sg6
Nsg23
S'MOV'
p492
sg25
S'0x56f28L'
p493
sg27
Nsba(ibclass
BInstr
p494
(dp495
g2
Nsg17
S'BL      sub_56B6C'
p496
sg19
S'0effffeb'
p497
sg21
Vbl #0xfffffc40
p498
sg5
L356140L
sg6
Nsg23
S'BL'
p499
sg25
S'0x56f2cL'
p500
sg27
Nsba(ibclass
BInstr
p501
(dp502
g2
Nsg17
S'B       loc_56EDC'
p503
sg19
S'e9ffffea'
p504
sg21
Vb #0xffffffac
p505
sg5
L356144L
sg6
Nsg23
g75
sg25
S'0x56f30L'
p506
sg27
Nsbasg77
(lp507
S'MOV R0, R6'
p508
aS'MOV R1, R7'
p509
aS'MOV R2, R4'
p510
aS'BL func'
p511
aS'B func'
p512
asg87
Nsg5
S'0x56f20L'
p513
sg89
(lp514
S'0x56ed4L'
p515
asg6
Nsg91
(lp516
S'0x56edcL'
p517
asg95
Nsg96
Nsg97
S'938d111b8bed94625648a5a2bb44a5c7'
p518
sg99
S'b4f73338d641cdebde87abc516813ab5'
p519
sg101
(lp520
g478
ag485
ag492
ag499
ag75
asg103
Nsbasb.