(ibclass
BFunc
p0
(dp1
S'hash'
p2
NsS'name'
p3
S'BN_to_ASN1_INTEGER'
p4
sS'start_address'
p5
L903700L
sS'flag'
p6
NsS'program'
p7
NsS'bbs'
p8
(lp9
(ibclass
BBasicBlock
p10
(dp11
S'function'
p12
NsS'binstrs'
p13
(lp14
(ibclass
BInstr
p15
(dp16
g2
NsS'disasm'
p17
S'STMFD   SP!, {R4-R8,LR}'
p18
sS'bytes'
p19
S'f0412de9'
p20
sS'disasm_striped'
p21
Vpush {r4, r5, r6, r7, r8, lr}
p22
sg5
L903700L
sg6
NsS'mnem'
p23
S'STM'
p24
sS'address'
p25
S'0xdca14L'
p26
sS'basicblock'
p27
Nsba(ibclass
BInstr
p28
(dp29
g2
Nsg17
S'LDR     R5, =(_GLOBAL_OFFSET_TABLE_ - 0xDCA28)'
p30
sg19
S'48519fe5'
p31
sg21
Vldr r5, [pc, #0x148]
p32
sg5
L903704L
sg6
Nsg23
S'LDR'
p33
sg25
S'0xdca18L'
p34
sg27
Nsba(ibclass
BInstr
p35
(dp36
g2
Nsg17
S'SUBS    R8, R1, #0'
p37
sg19
S'008051e2'
p38
sg21
Vsubs r8, r1, #0
p39
sg5
L903708L
sg6
Nsg23
S'SUB'
p40
sg25
S'0xdca1cL'
p41
sg27
Nsba(ibclass
BInstr
p42
(dp43
g2
Nsg17
S'ADD     R5, PC, R5 ; _GLOBAL_OFFSET_TABLE_'
p44
sg19
S'05508fe0'
p45
sg21
Vadd r5, pc, r5
p46
sg5
L903712L
sg6
Nsg23
S'ADD'
p47
sg25
S'0xdca20L'
p48
sg27
Nsba(ibclass
BInstr
p49
(dp50
g2
Nsg17
S'SUB     SP, SP, #8'
p51
sg19
S'08d04de2'
p52
sg21
Vsub sp, sp, #8
p53
sg5
L903716L
sg6
Nsg23
S'SUB'
p54
sg25
S'0xdca24L'
p55
sg27
Nsba(ibclass
BInstr
p56
(dp57
g2
Nsg17
S'MOV     R6, R0'
p58
sg19
S'0060a0e1'
p59
sg21
Vmov r6, r0
p60
sg5
L903720L
sg6
Nsg23
S'MOV'
p61
sg25
S'0xdca28L'
p62
sg27
Nsba(ibclass
BInstr
p63
(dp64
g2
Nsg17
S'MOVNE   R4, R8'
p65
sg19
S'0840a011'
p66
sg21
Vmovne r4, r8
p67
sg5
L903724L
sg6
Nsg23
S'MOV'
p68
sg25
S'0xdca2cL'
p69
sg27
Nsba(ibclass
BInstr
p70
(dp71
g2
Nsg17
S'BEQ     loc_DCAFC'
p72
sg19
S'3100000a'
p73
sg21
Vbeq #0xcc
p74
sg5
L903728L
sg6
Nsg23
S'B'
p75
sg25
S'0xdca30L'
p76
sg27
NsbasS'disasm_list'
p77
(lp78
S'STMFD SP!, {R4-R8,LR}'
p79
aS'LDR R5, =(_GLOBAL_OFFSET_TABLE_ - 0xDCA28)'
p80
aS'SUBS R8, R1, #0'
p81
aS'ADD R5, PC, R5'
p82
aS'SUB SP, SP, #8'
p83
aS'MOV R6, R0'
p84
aS'MOVNE R4, R8'
p85
aS'BEQ func'
p86
asS'end_address'
p87
Nsg5
S'0xdca14L'
p88
sS'preds'
p89
(lp90
sg6
NsS'succs'
p91
(lp92
S'0xdca34L'
p93
aS'0xdcafcL'
p94
asS'hash_v3'
p95
NsS'flag_v2'
p96
NsS'hash_v1'
p97
S'52d78ae7b3b5764a1741c4e87c30593d'
p98
sS'hash_v2'
p99
S'710dab42f622c8aaf0e6e07d53e5d845'
p100
sS'mnen_list'
p101
(lp102
g24
ag33
ag40
ag47
ag54
ag61
ag68
ag75
asS'neighbour_disasm_list'
p103
Nsba(ibclass
BBasicBlock
p104
(dp105
g12
Nsg13
(lp106
(ibclass
BInstr
p107
(dp108
g2
Nsg17
S'LDR     R3, [R6,#0xC]'
p109
sg19
S'0c3096e5'
p110
sg21
Vldr r3, [r6, #0xc]
p111
sg5
L903732L
sg6
Nsg23
S'LDR'
p112
sg25
S'0xdca34L'
p113
sg27
Nsba(ibclass
BInstr
p114
(dp115
g2
Nsg17
S'CMP     R3, #0'
p116
sg19
S'000053e3'
p117
sg21
Vcmp r3, #0
p118
sg5
L903736L
sg6
Nsg23
S'CMP'
p119
sg25
S'0xdca38L'
p120
sg27
Nsba(ibclass
BInstr
p121
(dp122
g2
Nsg17
S'BNE     loc_DCAE4'
p123
sg19
S'2800001a'
p124
sg21
Vbne #0xa8
p125
sg5
L903740L
sg6
Nsg23
g75
sg25
S'0xdca3cL'
p126
sg27
Nsbasg77
(lp127
S'LDR R3, mem'
p128
aS'CMP R3, #0'
p129
aS'BNE func'
p130
asg87
Nsg5
S'0xdca34L'
p131
sg89
(lp132
S'0xdca14L'
p133
aS'0xdcafcL'
p134
asg6
Nsg91
(lp135
S'0xdca40L'
p136
aS'0xdcae4L'
p137
asg95
Nsg96
Nsg97
S'fa4df767a85c49648339e2dc5c6807f6'
p138
sg99
S'1bb12c7dd982fd3e3da2842e84d201cf'
p139
sg101
(lp140
g112
ag119
ag75
asg103
Nsba(ibclass
BBasicBlock
p141
(dp142
g12
Nsg13
(lp143
(ibclass
BInstr
p144
(dp145
g2
Nsg17
S'MOV     R3, #2'
p146
sg19
S'0230a0e3'
p147
sg21
Vmov r3, #2
p148
sg5
L903744L
sg6
Nsg23
S'MOV'
p149
sg25
S'0xdca40L'
p150
sg27
Nsba(ibclass
BInstr
p151
(dp152
g2
Nsg17
S'STR     R3, [R4,#4]'
p153
sg19
S'043084e5'
p154
sg21
Vstr r3, [r4, #4]
p155
sg5
L903748L
sg6
Nsg23
S'STR'
p156
sg25
S'0xdca44L'
p157
sg27
Nsbasg77
(lp158
S'MOV R3, #2'
p159
aS'STR R3, mem'
p160
asg87
Nsg5
S'0xdca40L'
p161
sg89
(lp162
S'0xdca34L'
p163
aS'0xdcaf8L'
p164
asg6
Nsg91
(lp165
S'0xdca48L'
p166
asg95
Nsg96
Nsg97
S'3eed647220a7a2b9a25f701446ac2ce1'
p167
sg99
S'edffc6f9f71208034ea57f7142b84ba1'
p168
sg101
(lp169
g149
ag156
asg103
Nsba(ibclass
BBasicBlock
p170
(dp171
g12
Nsg13
(lp172
(ibclass
BInstr
p173
(dp174
g2
Nsg17
S'MOV     R0, R6'
p175
sg19
S'0600a0e1'
p176
sg21
Vmov r0, r6
p177
sg5
L903752L
sg6
Nsg23
S'MOV'
p178
sg25
S'0xdca48L'
p179
sg27
Nsba(ibclass
BInstr
p180
(dp181
g2
Nsg17
S'BL      BN_num_bits'
p182
sg19
S'1195feeb'
p183
sg21
Vbl #0xfffa544c
p184
sg5
L903756L
sg6
Nsg23
S'BL'
p185
sg25
S'0xdca4cL'
p186
sg27
Nsba(ibclass
BInstr
p187
(dp188
g2
Nsg17
S'CMP     R0, #0'
p189
sg19
S'000050e3'
p190
sg21
Vcmp r0, #0
p191
sg5
L903760L
sg6
Nsg23
S'CMP'
p192
sg25
S'0xdca50L'
p193
sg27
Nsba(ibclass
BInstr
p194
(dp195
g2
Nsg17
S'MOVEQ   R2, #3'
p196
sg19
S'0320a003'
p197
sg21
Vmoveq r2, #3
p198
sg5
L903764L
sg6
Nsg23
S'MOV'
p199
sg25
S'0xdca54L'
p200
sg27
Nsba(ibclass
BInstr
p201
(dp202
g2
Nsg17
S'BNE     loc_DCAC0'
p203
sg19
S'1800001a'
p204
sg21
Vbne #0x68
p205
sg5
L903768L
sg6
Nsg23
g75
sg25
S'0xdca58L'
p206
sg27
Nsbasg77
(lp207
S'MOV R0, R6'
p208
aS'BL BN_num_bits'
p209
aS'CMP R0, #0'
p210
aS'MOVEQ R2, #3'
p211
aS'BNE func'
p212
asg87
Nsg5
S'0xdca48L'
p213
sg89
(lp214
S'0xdca40L'
p215
aS'0xdcae4L'
p216
asg6
Nsg91
(lp217
S'0xdca5cL'
p218
aS'0xdcac0L'
p219
asg95
Nsg96
Nsg97
S'64431fe0327d49f8402a22c5ffa00d4f'
p220
sg99
S'cf35e07cee624d2336131736d8bd934b'
p221
sg101
(lp222
g178
ag185
ag192
ag199
ag75
asg103
Nsba(ibclass
BBasicBlock
p223
(dp224
g12
Nsg13
(lp225
(ibclass
BInstr
p226
(dp227
g2
Nsg17
S'LDR     R3, [R4]'
p228
sg19
S'003094e5'
p229
sg21
Vldr r3, [r4]
p230
sg5
L903772L
sg6
Nsg23
S'LDR'
p231
sg25
S'0xdca5cL'
p232
sg27
Nsba(ibclass
BInstr
p233
(dp234
g2
Nsg17
S'CMP     R3, R2'
p235
sg19
S'020053e1'
p236
sg21
Vcmp r3, r2
p237
sg5
L903776L
sg6
Nsg23
S'CMP'
p238
sg25
S'0xdca60L'
p239
sg27
Nsba(ibclass
BInstr
p240
(dp241
g2
Nsg17
S'BGT     loc_DCA90'
p242
sg19
S'090000ca'
p243
sg21
Vbgt #0x2c
p244
sg5
L903780L
sg6
Nsg23
g75
sg25
S'0xdca64L'
p245
sg27
Nsbasg77
(lp246
S'LDR R3, mem'
p247
aS'CMP R3, R2'
p248
aS'BGT func'
p249
asg87
Nsg5
S'0xdca5cL'
p250
sg89
(lp251
S'0xdca48L'
p252
asg6
Nsg91
(lp253
S'0xdca68L'
p254
aS'0xdca90L'
p255
asg95
Nsg96
Nsg97
S'fa4df767a85c49648339e2dc5c6807f6'
p256
sg99
S'2e6bf9aa9ffb7a0554da890d3513b16c'
p257
sg101
(lp258
g231
ag238
ag75
asg103
Nsba(ibclass
BBasicBlock
p259
(dp260
g12
Nsg13
(lp261
(ibclass
BInstr
p262
(dp263
g2
Nsg17
S'LDR     R3, =(aA_int_c - 0x1809D4)'
p264
sg19
S'fc309fe5'
p265
sg21
Vldr r3, [pc, #0xfc]
p266
sg5
L903784L
sg6
Nsg23
S'LDR'
p267
sg25
S'0xdca68L'
p268
sg27
Nsba(ibclass
BInstr
p269
(dp270
g2
Nsg17
S'ADD     R1, R0, #4'
p271
sg19
S'041080e2'
p272
sg21
Vadd r1, r0, #4
p273
sg5
L903788L
sg6
Nsg23
S'ADD'
p274
sg25
S'0xdca6cL'
p275
sg27
Nsba(ibclass
BInstr
p276
(dp277
g2
Nsg17
S'ADD     R7, R5, R3      ; "a_int.c"'
p278
sg19
S'037085e0'
p279
sg21
Vadd r7, r5, r3
p280
sg5
L903792L
sg6
Nsg23
S'ADD'
p281
sg25
S'0xdca70L'
p282
sg27
Nsba(ibclass
BInstr
p283
(dp284
g2
Nsg17
S'LDR     R0, [R4,#8]'
p285
sg19
S'080094e5'
p286
sg21
Vldr r0, [r4, #8]
p287
sg5
L903796L
sg6
Nsg23
S'LDR'
p288
sg25
S'0xdca74L'
p289
sg27
Nsba(ibclass
BInstr
p290
(dp291
g2
Nsg17
S'MOV     R2, R7'
p292
sg19
S'0720a0e1'
p293
sg21
Vmov r2, r7
p294
sg5
L903800L
sg6
Nsg23
S'MOV'
p295
sg25
S'0xdca78L'
p296
sg27
Nsba(ibclass
BInstr
p297
(dp298
g2
Nsg17
S'LDR     R3, =0x1AF'
p299
sg19
S'ec309fe5'
p300
sg21
Vldr r3, [pc, #0xec]
p301
sg5
L903804L
sg6
Nsg23
S'LDR'
p302
sg25
S'0xdca7cL'
p303
sg27
Nsba(ibclass
BInstr
p304
(dp305
g2
Nsg17
S'BL      CRYPTO_realloc'
p306
sg19
S'068cfdeb'
p307
sg21
Vbl #0xfff63020
p308
sg5
L903808L
sg6
Nsg23
S'BL'
p309
sg25
S'0xdca80L'
p310
sg27
Nsba(ibclass
BInstr
p311
(dp312
g2
Nsg17
S'SUBS    R5, R0, #0'
p313
sg19
S'005050e2'
p314
sg21
Vsubs r5, r0, #0
p315
sg5
L903812L
sg6
Nsg23
S'SUB'
p316
sg25
S'0xdca84L'
p317
sg27
Nsba(ibclass
BInstr
p318
(dp319
g2
Nsg17
S'STRNE   R5, [R4,#8]'
p320
sg19
S'08508415'
p321
sg21
Vstrne r5, [r4, #8]
p322
sg5
L903816L
sg6
Nsg23
S'STR'
p323
sg25
S'0xdca88L'
p324
sg27
Nsba(ibclass
BInstr
p325
(dp326
g2
Nsg17
S'BEQ     loc_DCB30'
p327
sg19
S'2700000a'
p328
sg21
Vbeq #0xa4
p329
sg5
L903820L
sg6
Nsg23
g75
sg25
S'0xdca8cL'
p330
sg27
Nsbasg77
(lp331
S'LDR R3, =(aA_int_c - 0x1809D4)'
p332
aS'ADD R1, R0, #4'
p333
aS'ADD R7, R5, R3'
p334
aS'LDR R0, mem'
p335
aS'MOV R2, R7'
p336
aS'LDR R3, =0x1AF'
p337
aS'BL CRYPTO_reregloc'
p338
aS'SUBS R5, R0, #0'
p339
aS'STRNE R5, mem'
p340
aS'BEQ func'
p341
asg87
Nsg5
S'0xdca68L'
p342
sg89
(lp343
S'0xdca5cL'
p344
aS'0xdcae0L'
p345
asg6
Nsg91
(lp346
S'0xdca90L'
p347
aS'0xdcb30L'
p348
asg95
Nsg96
Nsg97
S'fa3e44e63424b0ceb90332ebbbd7f938'
p349
sg99
S'6a0433615a50bfefd3bb6801d99d5b25'
p350
sg101
(lp351
g267
ag274
ag281
ag288
ag295
ag302
ag309
ag316
ag323
ag75
asg103
Nsba(ibclass
BBasicBlock
p352
(dp353
g12
Nsg13
(lp354
(ibclass
BInstr
p355
(dp356
g2
Nsg17
S'MOV     R0, R6'
p357
sg19
S'0600a0e1'
p358
sg21
Vmov r0, r6
p359
sg5
L903824L
sg6
Nsg23
S'MOV'
p360
sg25
S'0xdca90L'
p361
sg27
Nsba(ibclass
BInstr
p362
(dp363
g2
Nsg17
S'LDR     R1, [R4,#8]'
p364
sg19
S'081094e5'
p365
sg21
Vldr r1, [r4, #8]
p366
sg5
L903828L
sg6
Nsg23
S'LDR'
p367
sg25
S'0xdca94L'
p368
sg27
Nsba(ibclass
BInstr
p369
(dp370
g2
Nsg17
S'BL      BN_bn2bin'
p371
sg19
S'2d95feeb'
p372
sg21
Vbl #0xfffa54bc
p373
sg5
L903832L
sg6
Nsg23
S'BL'
p374
sg25
S'0xdca98L'
p375
sg27
Nsba(ibclass
BInstr
p376
(dp377
g2
Nsg17
S'CMP     R0, #0'
p378
sg19
S'000050e3'
p379
sg21
Vcmp r0, #0
p380
sg5
L903836L
sg6
Nsg23
S'CMP'
p381
sg25
S'0xdca9cL'
p382
sg27
Nsba(ibclass
BInstr
p383
(dp384
g2
Nsg17
S'STR     R0, [R4]'
p385
sg19
S'000084e5'
p386
sg21
Vstr r0, [r4]
p387
sg5
L903840L
sg6
Nsg23
S'STR'
p388
sg25
S'0xdcaa0L'
p389
sg27
Nsba(ibclass
BInstr
p390
(dp391
g2
Nsg17
S'LDREQ   R3, [R4,#8]'
p392
sg19
S'08309405'
p393
sg21
Vldreq r3, [r4, #8]
p394
sg5
L903844L
sg6
Nsg23
S'LDR'
p395
sg25
S'0xdcaa4L'
p396
sg27
Nsba(ibclass
BInstr
p397
(dp398
g2
Nsg17
S'MOVEQ   R2, #1'
p399
sg19
S'0120a003'
p400
sg21
Vmoveq r2, #1
p401
sg5
L903848L
sg6
Nsg23
S'MOV'
p402
sg25
S'0xdcaa8L'
p403
sg27
Nsba(ibclass
BInstr
p404
(dp405
g2
Nsg17
S'STREQB  R0, [R3]'
p406
sg19
S'0000c305'
p407
sg21
Vstrbeq r0, [r3]
p408
sg5
L903852L
sg6
Nsg23
S'STR'
p409
sg25
S'0xdcaacL'
p410
sg27
Nsba(ibclass
BInstr
p411
(dp412
g2
Nsg17
S'STREQ   R2, [R4]'
p413
sg19
S'00208405'
p414
sg21
Vstreq r2, [r4]
p415
sg5
L903856L
sg6
Nsg23
S'STR'
p416
sg25
S'0xdcab0L'
p417
sg27
Nsbasg77
(lp418
S'MOV R0, R6'
p419
aS'LDR R1, mem'
p420
aS'BL BN_bn2bin'
p421
aS'CMP R0, #0'
p422
aS'STR R0, mem'
p423
aS'LDREQ R3, mem'
p424
aS'MOVEQ R2, #1'
p425
aS'STREQB R0, mem'
p426
aS'STREQ R2, mem'
p427
asg87
Nsg5
S'0xdca90L'
p428
sg89
(lp429
S'0xdca5cL'
p430
aS'0xdca68L'
p431
aS'0xdcac0L'
p432
asg6
Nsg91
(lp433
S'0xdcab4L'
p434
asg95
Nsg96
Nsg97
S'4ba78a857d19dcbb656c07f80bae0f41'
p435
sg99
S'e5f36c5c826ba51446d8489e06abdd9f'
p436
sg101
(lp437
g360
ag367
ag374
ag381
ag388
ag395
ag402
ag409
ag416
asg103
Nsba(ibclass
BBasicBlock
p438
(dp439
g12
Nsg13
(lp440
(ibclass
BInstr
p441
(dp442
g2
Nsg17
S'MOV     R0, R4'
p443
sg19
S'0400a0e1'
p444
sg21
Vmov r0, r4
p445
sg5
L903860L
sg6
Nsg23
S'MOV'
p446
sg25
S'0xdcab4L'
p447
sg27
Nsba(ibclass
BInstr
p448
(dp449
g2
Nsg17
S'ADD     SP, SP, #8'
p450
sg19
S'08d08de2'
p451
sg21
Vadd sp, sp, #8
p452
sg5
L903864L
sg6
Nsg23
S'ADD'
p453
sg25
S'0xdcab8L'
p454
sg27
Nsba(ibclass
BInstr
p455
(dp456
g2
Nsg17
S'LDMFD   SP!, {R4-R8,PC}'
p457
sg19
S'f081bde8'
p458
sg21
Vpop {r4, r5, r6, r7, r8, pc}
p459
sg5
L903868L
sg6
Nsg23
S'LDM'
p460
sg25
S'0xdcabcL'
p461
sg27
Nsbasg77
(lp462
S'MOV R0, R4'
p463
aS'ADD SP, SP, #8'
p464
aS'LDMFD SP!, {R4-R8,PC}'
p465
asg87
Nsg5
S'0xdcab4L'
p466
sg89
(lp467
S'0xdca90L'
p468
aS'0xdcb0cL'
p469
aS'0xdcb30L'
p470
aS'0xdcb58L'
p471
asg6
Nsg91
(lp472
sg95
Nsg96
Nsg97
S'e8608f9e90923baa465df19833e21407'
p473
sg99
S'3af757462894aea132a8a73ce68160c7'
p474
sg101
(lp475
g446
ag453
ag460
asg103
Nsba(ibclass
BBasicBlock
p476
(dp477
g12
Nsg13
(lp478
(ibclass
BInstr
p479
(dp480
g2
Nsg17
S'ADD     R3, R0, #7'
p481
sg19
S'073080e2'
p482
sg21
Vadd r3, r0, #7
p483
sg5
L903872L
sg6
Nsg23
S'ADD'
p484
sg25
S'0xdcac0L'
p485
sg27
Nsba(ibclass
BInstr
p486
(dp487
g2
Nsg17
S'MOVGE   R3, R0'
p488
sg19
S'0030a0a1'
p489
sg21
Vmovge r3, r0
p490
sg5
L903876L
sg6
Nsg23
S'MOV'
p491
sg25
S'0xdcac4L'
p492
sg27
Nsba(ibclass
BInstr
p493
(dp494
g2
Nsg17
S'MOV     R3, R3,ASR#3'
p495
sg19
S'c331a0e1'
p496
sg21
Vasr r3, r3, #3
p497
sg5
L903880L
sg6
Nsg23
S'MOV'
p498
sg25
S'0xdcac8L'
p499
sg27
Nsba(ibclass
BInstr
p500
(dp501
g2
Nsg17
S'ADD     R2, R3, #4'
p502
sg19
S'042083e2'
p503
sg21
Vadd r2, r3, #4
p504
sg5
L903884L
sg6
Nsg23
S'ADD'
p505
sg25
S'0xdcaccL'
p506
sg27
Nsba(ibclass
BInstr
p507
(dp508
g2
Nsg17
S'ADD     R0, R3, #1'
p509
sg19
S'010083e2'
p510
sg21
Vadd r0, r3, #1
p511
sg5
L903888L
sg6
Nsg23
S'ADD'
p512
sg25
S'0xdcad0L'
p513
sg27
Nsba(ibclass
BInstr
p514
(dp515
g2
Nsg17
S'LDR     R3, [R4]'
p516
sg19
S'003094e5'
p517
sg21
Vldr r3, [r4]
p518
sg5
L903892L
sg6
Nsg23
S'LDR'
p519
sg25
S'0xdcad4L'
p520
sg27
Nsba(ibclass
BInstr
p521
(dp522
g2
Nsg17
S'CMP     R3, R2'
p523
sg19
S'020053e1'
p524
sg21
Vcmp r3, r2
p525
sg5
L903896L
sg6
Nsg23
S'CMP'
p526
sg25
S'0xdcad8L'
p527
sg27
Nsba(ibclass
BInstr
p528
(dp529
g2
Nsg17
S'BGT     loc_DCA90'
p530
sg19
S'ebffffca'
p531
sg21
Vbgt #0xffffffb4
p532
sg5
L903900L
sg6
Nsg23
g75
sg25
S'0xdcadcL'
p533
sg27
Nsbasg77
(lp534
S'ADD R3, R0, #7'
p535
aS'MOVGE R3, R0'
p536
aS'MOV R3, R3,ASR#3'
p537
aS'ADD R2, R3, #4'
p538
aS'ADD R0, R3, #1'
p539
aS'LDR R3, mem'
p540
aS'CMP R3, R2'
p541
aS'BGT func'
p542
asg87
Nsg5
S'0xdcac0L'
p543
sg89
(lp544
S'0xdca48L'
p545
asg6
Nsg91
(lp546
S'0xdca90L'
p547
aS'0xdcae0L'
p548
asg95
Nsg96
Nsg97
S'0316a42441e3128cedd7917199ecb9f8'
p549
sg99
S'c746517a75194a9d09f4d346149dad4d'
p550
sg101
(lp551
g484
ag491
ag498
ag505
ag512
ag519
ag526
ag75
asg103
Nsba(ibclass
BBasicBlock
p552
(dp553
g12
Nsg13
(lp554
(ibclass
BInstr
p555
(dp556
g2
Nsg17
S'B       loc_DCA68'
p557
sg19
S'e0ffffea'
p558
sg21
Vb #0xffffff88
p559
sg5
L903904L
sg6
Nsg23
g75
sg25
S'0xdcae0L'
p560
sg27
Nsbasg77
(lp561
S'B func'
p562
asg87
Nsg5
S'0xdcae0L'
p563
sg89
(lp564
S'0xdcac0L'
p565
asg6
Nsg91
(lp566
S'0xdca68L'
p567
asg95
Nsg96
Nsg97
S'9d5ed678fe57bcca610140957afab571'
p568
sg99
S'071b057c420e304c628380fd3541c021'
p569
sg101
(lp570
g75
asg103
Nsba(ibclass
BBasicBlock
p571
(dp572
g12
Nsg13
(lp573
(ibclass
BInstr
p574
(dp575
g2
Nsg17
S'LDR     R3, [R6,#4]'
p576
sg19
S'043096e5'
p577
sg21
Vldr r3, [r6, #4]
p578
sg5
L903908L
sg6
Nsg23
S'LDR'
p579
sg25
S'0xdcae4L'
p580
sg27
Nsba(ibclass
BInstr
p581
(dp582
g2
Nsg17
S'CMP     R3, #0'
p583
sg19
S'000053e3'
p584
sg21
Vcmp r3, #0
p585
sg5
L903912L
sg6
Nsg23
S'CMP'
p586
sg25
S'0xdcae8L'
p587
sg27
Nsba(ibclass
BInstr
p588
(dp589
g2
Nsg17
S'LDRNE   R3, =0x102'
p590
sg19
S'80309f15'
p591
sg21
Vldrne r3, [pc, #0x80]
p592
sg5
L903916L
sg6
Nsg23
S'LDR'
p593
sg25
S'0xdcaecL'
p594
sg27
Nsba(ibclass
BInstr
p595
(dp596
g2
Nsg17
S'STRNE   R3, [R4,#4]'
p597
sg19
S'04308415'
p598
sg21
Vstrne r3, [r4, #4]
p599
sg5
L903920L
sg6
Nsg23
S'STR'
p600
sg25
S'0xdcaf0L'
p601
sg27
Nsba(ibclass
BInstr
p602
(dp603
g2
Nsg17
S'BNE     loc_DCA48'
p604
sg19
S'd3ffff1a'
p605
sg21
Vbne #0xffffff54
p606
sg5
L903924L
sg6
Nsg23
g75
sg25
S'0xdcaf4L'
p607
sg27
Nsbasg77
(lp608
S'LDR R3, mem'
p609
aS'CMP R3, #0'
p610
aS'LDRNE R3, =0x102'
p611
aS'STRNE R3, mem'
p612
aS'BNE func'
p613
asg87
Nsg5
S'0xdcae4L'
p614
sg89
(lp615
S'0xdca34L'
p616
asg6
Nsg91
(lp617
S'0xdca48L'
p618
aS'0xdcaf8L'
p619
asg95
Nsg96
Nsg97
S'2442af3588ba9c1512b06faf497f1dcb'
p620
sg99
S'01bebd66d3228a7820b573c407aebc50'
p621
sg101
(lp622
g579
ag586
ag593
ag600
ag75
asg103
Nsba(ibclass
BBasicBlock
p623
(dp624
g12
Nsg13
(lp625
(ibclass
BInstr
p626
(dp627
g2
Nsg17
S'B       loc_DCA40'
p628
sg19
S'd0ffffea'
p629
sg21
Vb #0xffffff48
p630
sg5
L903928L
sg6
Nsg23
g75
sg25
S'0xdcaf8L'
p631
sg27
Nsbasg77
(lp632
S'B func'
p633
asg87
Nsg5
S'0xdcaf8L'
p634
sg89
(lp635
S'0xdcae4L'
p636
asg6
Nsg91
(lp637
S'0xdca40L'
p638
asg95
Nsg96
Nsg97
S'9d5ed678fe57bcca610140957afab571'
p639
sg99
S'071b057c420e304c628380fd3541c021'
p640
sg101
(lp641
g75
asg103
Nsba(ibclass
BBasicBlock
p642
(dp643
g12
Nsg13
(lp644
(ibclass
BInstr
p645
(dp646
g2
Nsg17
S'MOV     R0, #2'
p647
sg19
S'0200a0e3'
p648
sg21
Vmov r0, #2
p649
sg5
L903932L
sg6
Nsg23
S'MOV'
p650
sg25
S'0xdcafcL'
p651
sg27
Nsba(ibclass
BInstr
p652
(dp653
g2
Nsg17
S'BL      ASN1_STRING_type_new'
p654
sg19
S'af5a00eb'
p655
sg21
Vbl #0x16ac4
p656
sg5
L903936L
sg6
Nsg23
S'BL'
p657
sg25
S'0xdcb00L'
p658
sg27
Nsba(ibclass
BInstr
p659
(dp660
g2
Nsg17
S'SUBS    R4, R0, #0'
p661
sg19
S'004050e2'
p662
sg21
Vsubs r4, r0, #0
p663
sg5
L903940L
sg6
Nsg23
S'SUB'
p664
sg25
S'0xdcb04L'
p665
sg27
Nsba(ibclass
BInstr
p666
(dp667
g2
Nsg17
S'BNE     loc_DCA34'
p668
sg19
S'c9ffff1a'
p669
sg21
Vbne #0xffffff2c
p670
sg5
L903944L
sg6
Nsg23
g75
sg25
S'0xdcb08L'
p671
sg27
Nsbasg77
(lp672
S'MOV R0, #2'
p673
aS'BL ASN1_STRING_type_new'
p674
aS'SUBS R4, R0, #0'
p675
aS'BNE func'
p676
asg87
Nsg5
S'0xdcafcL'
p677
sg89
(lp678
S'0xdca14L'
p679
asg6
Nsg91
(lp680
S'0xdca34L'
p681
aS'0xdcb0cL'
p682
asg95
Nsg96
Nsg97
S'd712ad407e365d6dc92067cbbdc09d0b'
p683
sg99
S'2434f524180c8907a900eb3d65e56719'
p684
sg101
(lp685
g650
ag657
ag664
ag75
asg103
Nsba(ibclass
BBasicBlock
p686
(dp687
g12
Nsg13
(lp688
(ibclass
BInstr
p689
(dp690
g2
Nsg17
S'LDR     R3, =(aA_int_c - 0x1809D4)'
p691
sg19
S'58309fe5'
p692
sg21
Vldr r3, [pc, #0x58]
p693
sg5
L903948L
sg6
Nsg23
S'LDR'
p694
sg25
S'0xdcb0cL'
p695
sg27
Nsba(ibclass
BInstr
p696
(dp697
g2
Nsg17
S'LDR     R12, =0x1A5'
p698
sg19
S'60c09fe5'
p699
sg21
Vldr ip, [pc, #0x60]
p700
sg5
L903952L
sg6
Nsg23
S'LDR'
p701
sg25
S'0xdcb10L'
p702
sg27
Nsba(ibclass
BInstr
p703
(dp704
g2
Nsg17
S'ADD     R3, R5, R3      ; "a_int.c"'
p705
sg19
S'033085e0'
p706
sg21
Vadd r3, r5, r3
p707
sg5
L903956L
sg6
Nsg23
S'ADD'
p708
sg25
S'0xdcb14L'
p709
sg27
Nsba(ibclass
BInstr
p710
(dp711
g2
Nsg17
S'ADD     R0, R0, #0xD'
p712
sg19
S'0d0080e2'
p713
sg21
Vadd r0, r0, #0xd
p714
sg5
L903960L
sg6
Nsg23
S'ADD'
p715
sg25
S'0xdcb18L'
p716
sg27
Nsba(ibclass
BInstr
p717
(dp718
g2
Nsg17
S'MOV     R1, #0x8B'
p719
sg19
S'8b10a0e3'
p720
sg21
Vmov r1, #0x8b
p721
sg5
L903964L
sg6
Nsg23
S'MOV'
p722
sg25
S'0xdcb1cL'
p723
sg27
Nsba(ibclass
BInstr
p724
(dp725
g2
Nsg17
S'MOV     R2, #0x3A'
p726
sg19
S'3a20a0e3'
p727
sg21
Vmov r2, #0x3a
p728
sg5
L903968L
sg6
Nsg23
S'MOV'
p729
sg25
S'0xdcb20L'
p730
sg27
Nsba(ibclass
BInstr
p731
(dp732
g2
Nsg17
S'STR     R12, [SP,#0x20+var_20]'
p733
sg19
S'00c08de5'
p734
sg21
Vstr ip, [sp]
p735
sg5
L903972L
sg6
Nsg23
S'STR'
p736
sg25
S'0xdcb24L'
p737
sg27
Nsba(ibclass
BInstr
p738
(dp739
g2
Nsg17
S'BL      ERR_put_error'
p740
sg19
S'7abbffeb'
p741
sg21
Vbl #0xfffeedf0
p742
sg5
L903976L
sg6
Nsg23
S'BL'
p743
sg25
S'0xdcb28L'
p744
sg27
Nsba(ibclass
BInstr
p745
(dp746
g2
Nsg17
S'B       loc_DCAB4'
p747
sg19
S'e0ffffea'
p748
sg21
Vb #0xffffff88
p749
sg5
L903980L
sg6
Nsg23
g75
sg25
S'0xdcb2cL'
p750
sg27
Nsbasg77
(lp751
S'LDR R3, =(aA_int_c - 0x1809D4)'
p752
aS'LDR R12, =0x1A5'
p753
aS'ADD R3, R5, R3'
p754
aS'ADD R0, R0, #0xD'
p755
aS'MOV R1, #0x8B'
p756
aS'MOV R2, #0x3A'
p757
aS'STR R12, mem'
p758
aS'BL ERR_put_error'
p759
aS'B func'
p760
asg87
Nsg5
S'0xdcb0cL'
p761
sg89
(lp762
S'0xdcafcL'
p763
asg6
Nsg91
(lp764
S'0xdcab4L'
p765
asg95
Nsg96
Nsg97
S'437971ebd86317094db439fb3413cd85'
p766
sg99
S'83f1ed6e60b1851c1a7554cc90c33792'
p767
sg101
(lp768
g694
ag701
ag708
ag715
ag722
ag729
ag736
ag743
ag75
asg103
Nsba(ibclass
BBasicBlock
p769
(dp770
g12
Nsg13
(lp771
(ibclass
BInstr
p772
(dp773
g2
Nsg17
S'LDR     R12, =0x1B1'
p774
sg19
S'44c09fe5'
p775
sg21
Vldr ip, [pc, #0x44]
p776
sg5
L903984L
sg6
Nsg23
S'LDR'
p777
sg25
S'0xdcb30L'
p778
sg27
Nsba(ibclass
BInstr
p779
(dp780
g2
Nsg17
S'MOV     R3, R7'
p781
sg19
S'0730a0e1'
p782
sg21
Vmov r3, r7
p783
sg5
L903988L
sg6
Nsg23
S'MOV'
p784
sg25
S'0xdcb34L'
p785
sg27
Nsba(ibclass
BInstr
p786
(dp787
g2
Nsg17
S'ADD     R0, R0, #0xD'
p788
sg19
S'0d0080e2'
p789
sg21
Vadd r0, r0, #0xd
p790
sg5
L903992L
sg6
Nsg23
S'ADD'
p791
sg25
S'0xdcb38L'
p792
sg27
Nsba(ibclass
BInstr
p793
(dp794
g2
Nsg17
S'MOV     R1, #0x8B'
p795
sg19
S'8b10a0e3'
p796
sg21
Vmov r1, #0x8b
p797
sg5
L903996L
sg6
Nsg23
S'MOV'
p798
sg25
S'0xdcb3cL'
p799
sg27
Nsba(ibclass
BInstr
p800
(dp801
g2
Nsg17
S'MOV     R2, #0x41'
p802
sg19
S'4120a0e3'
p803
sg21
Vmov r2, #0x41
p804
sg5
L904000L
sg6
Nsg23
S'MOV'
p805
sg25
S'0xdcb40L'
p806
sg27
Nsba(ibclass
BInstr
p807
(dp808
g2
Nsg17
S'STR     R12, [SP,#0x20+var_20]'
p809
sg19
S'00c08de5'
p810
sg21
Vstr ip, [sp]
p811
sg5
L904004L
sg6
Nsg23
S'STR'
p812
sg25
S'0xdcb44L'
p813
sg27
Nsba(ibclass
BInstr
p814
(dp815
g2
Nsg17
S'BL      ERR_put_error'
p816
sg19
S'72bbffeb'
p817
sg21
Vbl #0xfffeedd0
p818
sg5
L904008L
sg6
Nsg23
S'BL'
p819
sg25
S'0xdcb48L'
p820
sg27
Nsba(ibclass
BInstr
p821
(dp822
g2
Nsg17
S'CMP     R8, R4'
p823
sg19
S'040058e1'
p824
sg21
Vcmp r8, r4
p825
sg5
L904012L
sg6
Nsg23
S'CMP'
p826
sg25
S'0xdcb4cL'
p827
sg27
Nsba(ibclass
BInstr
p828
(dp829
g2
Nsg17
S'MOVEQ   R4, R5'
p830
sg19
S'0540a001'
p831
sg21
Vmoveq r4, r5
p832
sg5
L904016L
sg6
Nsg23
S'MOV'
p833
sg25
S'0xdcb50L'
p834
sg27
Nsba(ibclass
BInstr
p835
(dp836
g2
Nsg17
S'BEQ     loc_DCAB4'
p837
sg19
S'd6ffff0a'
p838
sg21
Vbeq #0xffffff60
p839
sg5
L904020L
sg6
Nsg23
g75
sg25
S'0xdcb54L'
p840
sg27
Nsbasg77
(lp841
S'LDR R12, =0x1B1'
p842
aS'MOV R3, R7'
p843
aS'ADD R0, R0, #0xD'
p844
aS'MOV R1, #0x8B'
p845
aS'MOV R2, #0x41'
p846
aS'STR R12, mem'
p847
aS'BL ERR_put_error'
p848
aS'CMP R8, R4'
p849
aS'MOVEQ R4, R5'
p850
aS'BEQ func'
p851
asg87
Nsg5
S'0xdcb30L'
p852
sg89
(lp853
S'0xdca68L'
p854
asg6
Nsg91
(lp855
S'0xdcab4L'
p856
aS'0xdcb58L'
p857
asg95
Nsg96
Nsg97
S'5976b0053e6ae2d55d1ecf6be2ab4efe'
p858
sg99
S'584c7fc00ec6fd16c5f45eca53d61c9b'
p859
sg101
(lp860
g777
ag784
ag791
ag798
ag805
ag812
ag819
ag826
ag833
ag75
asg103
Nsba(ibclass
BBasicBlock
p861
(dp862
g12
Nsg13
(lp863
(ibclass
BInstr
p864
(dp865
g2
Nsg17
S'MOV     R0, R4'
p866
sg19
S'0400a0e1'
p867
sg21
Vmov r0, r4
p868
sg5
L904024L
sg6
Nsg23
S'MOV'
p869
sg25
S'0xdcb58L'
p870
sg27
Nsba(ibclass
BInstr
p871
(dp872
g2
Nsg17
S'BL      ASN1_STRING_free'
p873
sg19
S'705a00eb'
p874
sg21
Vbl #0x169c8
p875
sg5
L904028L
sg6
Nsg23
S'BL'
p876
sg25
S'0xdcb5cL'
p877
sg27
Nsba(ibclass
BInstr
p878
(dp879
g2
Nsg17
S'MOV     R4, R5'
p880
sg19
S'0540a0e1'
p881
sg21
Vmov r4, r5
p882
sg5
L904032L
sg6
Nsg23
S'MOV'
p883
sg25
S'0xdcb60L'
p884
sg27
Nsba(ibclass
BInstr
p885
(dp886
g2
Nsg17
S'B       loc_DCAB4'
p887
sg19
S'd2ffffea'
p888
sg21
Vb #0xffffff50
p889
sg5
L904036L
sg6
Nsg23
g75
sg25
S'0xdcb64L'
p890
sg27
Nsbasg77
(lp891
S'MOV R0, R4'
p892
aS'BL ASN1_STRING_free'
p893
aS'MOV R4, R5'
p894
aS'B func'
p895
asg87
Nsg5
S'0xdcb58L'
p896
sg89
(lp897
S'0xdcb30L'
p898
asg6
Nsg91
(lp899
S'0xdcab4L'
p900
asg95
Nsg96
Nsg97
S'cd23e0eb2129bcc2960febbe800808ae'
p901
sg99
S'72af5b03221319777dd1c435adc95c2a'
p902
sg101
(lp903
g869
ag876
ag883
ag75
asg103
Nsbasb.