(ibclass
BFunc
p0
(dp1
S'hash'
p2
NsS'name'
p3
S'X509_to_X509_REQ'
p4
sS'start_address'
p5
L1043568L
sS'flag'
p6
NsS'program'
p7
NsS'bbs'
p8
(lp9
(ibclass
BBasicBlock
p10
(dp11
S'function'
p12
NsS'binstrs'
p13
(lp14
(ibclass
BInstr
p15
(dp16
g2
NsS'disasm'
p17
S'STMFD   SP!, {R4-R8,R10,LR}'
p18
sS'bytes'
p19
S'f0452de9'
p20
sS'disasm_striped'
p21
Vpush {r4, r5, r6, r7, r8, sl, lr}
p22
sg5
L1043568L
sg6
NsS'mnem'
p23
S'STM'
p24
sS'address'
p25
S'0xfec70L'
p26
sS'basicblock'
p27
Nsba(ibclass
BInstr
p28
(dp29
g2
Nsg17
S'SUB     SP, SP, #0xC'
p30
sg19
S'0cd04de2'
p31
sg21
Vsub sp, sp, #0xc
p32
sg5
L1043572L
sg6
Nsg23
S'SUB'
p33
sg25
S'0xfec74L'
p34
sg27
Nsba(ibclass
BInstr
p35
(dp36
g2
Nsg17
S'MOV     R10, R2'
p37
sg19
S'02a0a0e1'
p38
sg21
Vmov sl, r2
p39
sg5
L1043576L
sg6
Nsg23
S'MOV'
p40
sg25
S'0xfec78L'
p41
sg27
Nsba(ibclass
BInstr
p42
(dp43
g2
Nsg17
S'MOV     R7, R0'
p44
sg19
S'0070a0e1'
p45
sg21
Vmov r7, r0
p46
sg5
L1043580L
sg6
Nsg23
S'MOV'
p47
sg25
S'0xfec7cL'
p48
sg27
Nsba(ibclass
BInstr
p49
(dp50
g2
Nsg17
S'MOV     R8, R1'
p51
sg19
S'0180a0e1'
p52
sg21
Vmov r8, r1
p53
sg5
L1043584L
sg6
Nsg23
S'MOV'
p54
sg25
S'0xfec80L'
p55
sg27
Nsba(ibclass
BInstr
p56
(dp57
g2
Nsg17
S'BL      X509_REQ_new'
p58
sg19
S'068dffeb'
p59
sg21
Vbl #0xfffe3420
p60
sg5
L1043588L
sg6
Nsg23
S'BL'
p61
sg25
S'0xfec84L'
p62
sg27
Nsba(ibclass
BInstr
p63
(dp64
g2
Nsg17
S'LDR     R2, =(_GLOBAL_OFFSET_TABLE_ - 0xFEC94)'
p65
sg19
S'f0209fe5'
p66
sg21
Vldr r2, [pc, #0xf0]
p67
sg5
L1043592L
sg6
Nsg23
S'LDR'
p68
sg25
S'0xfec88L'
p69
sg27
Nsba(ibclass
BInstr
p70
(dp71
g2
Nsg17
S'ADD     R2, PC, R2 ; _GLOBAL_OFFSET_TABLE_'
p72
sg19
S'02208fe0'
p73
sg21
Vadd r2, pc, r2
p74
sg5
L1043596L
sg6
Nsg23
S'ADD'
p75
sg25
S'0xfec8cL'
p76
sg27
Nsba(ibclass
BInstr
p77
(dp78
g2
Nsg17
S'SUBS    R6, R0, #0'
p79
sg19
S'006050e2'
p80
sg21
Vsubs r6, r0, #0
p81
sg5
L1043600L
sg6
Nsg23
S'SUB'
p82
sg25
S'0xfec90L'
p83
sg27
Nsba(ibclass
BInstr
p84
(dp85
g2
Nsg17
S'BEQ     loc_FED5C'
p86
sg19
S'3000000a'
p87
sg21
Vbeq #0xc8
p88
sg5
L1043604L
sg6
Nsg23
S'B'
p89
sg25
S'0xfec94L'
p90
sg27
NsbasS'disasm_list'
p91
(lp92
S'STMFD SP!, {R4-R8,R10,LR}'
p93
aS'SUB SP, SP, #0xC'
p94
aS'MOV R10, R2'
p95
aS'MOV R7, R0'
p96
aS'MOV R8, R1'
p97
aS'BL X509_REQ_new'
p98
aS'LDR R2, =(_GLOBAL_OFFSET_TABLE_ - 0xFEC94)'
p99
aS'ADD R2, PC, R2'
p100
aS'SUBS R6, R0, #0'
p101
aS'BEQ func'
p102
asS'end_address'
p103
Nsg5
S'0xfec70L'
p104
sS'preds'
p105
(lp106
sg6
NsS'succs'
p107
(lp108
S'0xfec98L'
p109
aS'0xfed5cL'
p110
asS'hash_v3'
p111
NsS'flag_v2'
p112
NsS'hash_v1'
p113
S'bf23046041e41a58266955bdc3caedae'
p114
sS'hash_v2'
p115
S'5a1147458bf81eeafbe165e01c48eabc'
p116
sS'mnen_list'
p117
(lp118
g24
ag33
ag40
ag47
ag54
ag61
ag68
ag75
ag82
ag89
asS'neighbour_disasm_list'
p119
Nsba(ibclass
BBasicBlock
p120
(dp121
g12
Nsg13
(lp122
(ibclass
BInstr
p123
(dp124
g2
Nsg17
S'LDR     R4, [R6]'
p125
sg19
S'004096e5'
p126
sg21
Vldr r4, [r6]
p127
sg5
L1043608L
sg6
Nsg23
S'LDR'
p128
sg25
S'0xfec98L'
p129
sg27
Nsba(ibclass
BInstr
p130
(dp131
g2
Nsg17
S'LDR     R1, =(aX509_req_c - 0x1809D4)'
p132
sg19
S'e0109fe5'
p133
sg21
Vldr r1, [pc, #0xe0]
p134
sg5
L1043612L
sg6
Nsg23
S'LDR'
p135
sg25
S'0xfec9cL'
p136
sg27
Nsba(ibclass
BInstr
p137
(dp138
g2
Nsg17
S'LDR     R5, [R4,#0xC]'
p139
sg19
S'0c5094e5'
p140
sg21
Vldr r5, [r4, #0xc]
p141
sg5
L1043616L
sg6
Nsg23
S'LDR'
p142
sg25
S'0xfeca0L'
p143
sg27
Nsba(ibclass
BInstr
p144
(dp145
g2
Nsg17
S'MOV     R0, #1'
p146
sg19
S'0100a0e3'
p147
sg21
Vmov r0, #1
p148
sg5
L1043620L
sg6
Nsg23
S'MOV'
p149
sg25
S'0xfeca4L'
p150
sg27
Nsba(ibclass
BInstr
p151
(dp152
g2
Nsg17
S'ADD     R1, R2, R1      ; "x509_req.c"'
p153
sg19
S'011082e0'
p154
sg21
Vadd r1, r2, r1
p155
sg5
L1043624L
sg6
Nsg23
S'ADD'
p156
sg25
S'0xfeca8L'
p157
sg27
Nsba(ibclass
BInstr
p158
(dp159
g2
Nsg17
S'STR     R0, [R5]'
p160
sg19
S'000085e5'
p161
sg21
Vstr r0, [r5]
p162
sg5
L1043628L
sg6
Nsg23
S'STR'
p163
sg25
S'0xfecacL'
p164
sg27
Nsba(ibclass
BInstr
p165
(dp166
g2
Nsg17
S'MOV     R2, #0x56'
p167
sg19
S'5620a0e3'
p168
sg21
Vmov r2, #0x56
p169
sg5
L1043632L
sg6
Nsg23
S'MOV'
p170
sg25
S'0xfecb0L'
p171
sg27
Nsba(ibclass
BInstr
p172
(dp173
g2
Nsg17
S'BL      CRYPTO_malloc'
p174
sg19
S'3d03fdeb'
p175
sg21
Vbl #0xfff40cfc
p176
sg5
L1043636L
sg6
Nsg23
S'BL'
p177
sg25
S'0xfecb4L'
p178
sg27
Nsba(ibclass
BInstr
p179
(dp180
g2
Nsg17
S'LDR     R3, [R4,#0xC]'
p181
sg19
S'0c3094e5'
p182
sg21
Vldr r3, [r4, #0xc]
p183
sg5
L1043640L
sg6
Nsg23
S'LDR'
p184
sg25
S'0xfecb8L'
p185
sg27
Nsba(ibclass
BInstr
p186
(dp187
g2
Nsg17
S'STR     R0, [R5,#8]'
p188
sg19
S'080085e5'
p189
sg21
Vstr r0, [r5, #8]
p190
sg5
L1043644L
sg6
Nsg23
S'STR'
p191
sg25
S'0xfecbcL'
p192
sg27
Nsba(ibclass
BInstr
p193
(dp194
g2
Nsg17
S'LDR     R2, [R3,#8]'
p195
sg19
S'082093e5'
p196
sg21
Vldr r2, [r3, #8]
p197
sg5
L1043648L
sg6
Nsg23
S'LDR'
p198
sg25
S'0xfecc0L'
p199
sg27
Nsba(ibclass
BInstr
p200
(dp201
g2
Nsg17
S'CMP     R2, #0'
p202
sg19
S'000052e3'
p203
sg21
Vcmp r2, #0
p204
sg5
L1043652L
sg6
Nsg23
S'CMP'
p205
sg25
S'0xfecc4L'
p206
sg27
Nsba(ibclass
BInstr
p207
(dp208
g2
Nsg17
S'BEQ     loc_FECF0'
p209
sg19
S'0800000a'
p210
sg21
Vbeq #0x28
p211
sg5
L1043656L
sg6
Nsg23
g89
sg25
S'0xfecc8L'
p212
sg27
Nsbasg91
(lp213
S'LDR R4, mem'
p214
aS'LDR R1, =(aX509_req_c - 0x1809D4)'
p215
aS'LDR R5, mem'
p216
aS'MOV R0, #1'
p217
aS'ADD R1, R2, R1'
p218
aS'STR R0, mem'
p219
aS'MOV R2, #0x56'
p220
aS'BL CRYPTO_mregloc'
p221
aS'LDR R3, mem'
p222
aS'STR R0, mem'
p223
aS'LDR R2, mem'
p224
aS'CMP R2, #0'
p225
aS'BEQ func'
p226
asg103
Nsg5
S'0xfec98L'
p227
sg105
(lp228
S'0xfec70L'
p229
asg6
Nsg107
(lp230
S'0xfecccL'
p231
aS'0xfecf0L'
p232
asg111
Nsg112
Nsg113
S'23a77d3f879545197dbe691545d0d5fe'
p233
sg115
S'403a698416b6011d7d1f736d873842a0'
p234
sg117
(lp235
g128
ag135
ag142
ag149
ag156
ag163
ag170
ag177
ag184
ag191
ag198
ag205
ag89
asg119
Nsba(ibclass
BBasicBlock
p236
(dp237
g12
Nsg13
(lp238
(ibclass
BInstr
p239
(dp240
g2
Nsg17
S'MOV     R3, #0'
p241
sg19
S'0030a0e3'
p242
sg21
Vmov r3, #0
p243
sg5
L1043660L
sg6
Nsg23
S'MOV'
p244
sg25
S'0xfecccL'
p245
sg27
Nsba(ibclass
BInstr
p246
(dp247
g2
Nsg17
S'STRB    R3, [R2]'
p248
sg19
S'0030c2e5'
p249
sg21
Vstrb r3, [r2]
p250
sg5
L1043664L
sg6
Nsg23
S'STR'
p251
sg25
S'0xfecd0L'
p252
sg27
Nsba(ibclass
BInstr
p253
(dp254
g2
Nsg17
S'MOV     R0, R7'
p255
sg19
S'0700a0e1'
p256
sg21
Vmov r0, r7
p257
sg5
L1043668L
sg6
Nsg23
S'MOV'
p258
sg25
S'0xfecd4L'
p259
sg27
Nsba(ibclass
BInstr
p260
(dp261
g2
Nsg17
S'BL      X509_get_subject_name'
p262
sg19
S'0efbffeb'
p263
sg21
Vbl #0xffffec40
p264
sg5
L1043672L
sg6
Nsg23
S'BL'
p265
sg25
S'0xfecd8L'
p266
sg27
Nsba(ibclass
BInstr
p267
(dp268
g2
Nsg17
S'MOV     R1, R0'
p269
sg19
S'0010a0e1'
p270
sg21
Vmov r1, r0
p271
sg5
L1043676L
sg6
Nsg23
S'MOV'
p272
sg25
S'0xfecdcL'
p273
sg27
Nsba(ibclass
BInstr
p274
(dp275
g2
Nsg17
S'MOV     R0, R6'
p276
sg19
S'0600a0e1'
p277
sg21
Vmov r0, r6
p278
sg5
L1043680L
sg6
Nsg23
S'MOV'
p279
sg25
S'0xfece0L'
p280
sg27
Nsba(ibclass
BInstr
p281
(dp282
g2
Nsg17
S'BL      X509_REQ_set_subject_name'
p283
sg19
S'040f00eb'
p284
sg21
Vbl #0x3c18
p285
sg5
L1043684L
sg6
Nsg23
S'BL'
p286
sg25
S'0xfece4L'
p287
sg27
Nsba(ibclass
BInstr
p288
(dp289
g2
Nsg17
S'CMP     R0, #0'
p290
sg19
S'000050e3'
p291
sg21
Vcmp r0, #0
p292
sg5
L1043688L
sg6
Nsg23
S'CMP'
p293
sg25
S'0xfece8L'
p294
sg27
Nsba(ibclass
BInstr
p295
(dp296
g2
Nsg17
S'BNE     loc_FED08'
p297
sg19
S'0500001a'
p298
sg21
Vbne #0x1c
p299
sg5
L1043692L
sg6
Nsg23
g89
sg25
S'0xfececL'
p300
sg27
Nsbasg91
(lp301
S'MOV R3, #0'
p302
aS'STRB R3, mem'
p303
aS'MOV R0, R7'
p304
aS'BL X509_get_subject_name'
p305
aS'MOV R1, R0'
p306
aS'MOV R0, R6'
p307
aS'BL X509_REQ_set_subject_name'
p308
aS'CMP R0, #0'
p309
aS'BNE func'
p310
asg103
Nsg5
S'0xfecccL'
p311
sg105
(lp312
S'0xfec98L'
p313
asg6
Nsg107
(lp314
S'0xfecf0L'
p315
aS'0xfed08L'
p316
asg111
Nsg112
Nsg113
S'72ac2125ce941caa8eafc59cf5002786'
p317
sg115
S'4055c962ace123a49faa84f5280888d0'
p318
sg117
(lp319
g244
ag251
ag258
ag265
ag272
ag279
ag286
ag293
ag89
asg119
Nsba(ibclass
BBasicBlock
p320
(dp321
g12
Nsg13
(lp322
(ibclass
BInstr
p323
(dp324
g2
Nsg17
S'MOV     R0, R6'
p325
sg19
S'0600a0e1'
p326
sg21
Vmov r0, r6
p327
sg5
L1043696L
sg6
Nsg23
S'MOV'
p328
sg25
S'0xfecf0L'
p329
sg27
Nsba(ibclass
BInstr
p330
(dp331
g2
Nsg17
S'BL      X509_REQ_free'
p332
sg19
S'dc8cffeb'
p333
sg21
Vbl #0xfffe3378
p334
sg5
L1043700L
sg6
Nsg23
S'BL'
p335
sg25
S'0xfecf4L'
p336
sg27
Nsba(ibclass
BInstr
p337
(dp338
g2
Nsg17
S'MOV     R6, #0'
p339
sg19
S'0060a0e3'
p340
sg21
Vmov r6, #0
p341
sg5
L1043704L
sg6
Nsg23
S'MOV'
p342
sg25
S'0xfecf8L'
p343
sg27
Nsbasg91
(lp344
S'MOV R0, R6'
p345
aS'BL X509_REQ_free'
p346
aS'MOV R6, #0'
p347
asg103
Nsg5
S'0xfecf0L'
p348
sg105
(lp349
S'0xfec98L'
p350
aS'0xfecccL'
p351
aS'0xfed08L'
p352
aS'0xfed18L'
p353
aS'0xfed40L'
p354
aS'0xfed5cL'
p355
asg6
Nsg107
(lp356
S'0xfecfcL'
p357
asg111
Nsg112
Nsg113
S'f5aca26e8f695df15220ab59afc1e815'
p358
sg115
S'8614a0b8eeb05b126ea58a0120dd4ee1'
p359
sg117
(lp360
g328
ag335
ag342
asg119
Nsba(ibclass
BBasicBlock
p361
(dp362
g12
Nsg13
(lp363
(ibclass
BInstr
p364
(dp365
g2
Nsg17
S'MOV     R0, R6'
p366
sg19
S'0600a0e1'
p367
sg21
Vmov r0, r6
p368
sg5
L1043708L
sg6
Nsg23
S'MOV'
p369
sg25
S'0xfecfcL'
p370
sg27
Nsba(ibclass
BInstr
p371
(dp372
g2
Nsg17
S'ADD     SP, SP, #0xC'
p373
sg19
S'0cd08de2'
p374
sg21
Vadd sp, sp, #0xc
p375
sg5
L1043712L
sg6
Nsg23
S'ADD'
p376
sg25
S'0xfed00L'
p377
sg27
Nsba(ibclass
BInstr
p378
(dp379
g2
Nsg17
S'LDMFD   SP!, {R4-R8,R10,PC}'
p380
sg19
S'f085bde8'
p381
sg21
Vpop {r4, r5, r6, r7, r8, sl, pc}
p382
sg5
L1043716L
sg6
Nsg23
S'LDM'
p383
sg25
S'0xfed04L'
p384
sg27
Nsbasg91
(lp385
S'MOV R0, R6'
p386
aS'ADD SP, SP, #0xC'
p387
aS'LDMFD SP!, {R4-R8,R10,PC}'
p388
asg103
Nsg5
S'0xfecfcL'
p389
sg105
(lp390
S'0xfecf0L'
p391
aS'0xfed38L'
p392
aS'0xfed58L'
p393
asg6
Nsg107
(lp394
sg111
Nsg112
Nsg113
S'e8608f9e90923baa465df19833e21407'
p395
sg115
S'7891497a6d6603223e82f1d8bc30b93e'
p396
sg117
(lp397
g369
ag376
ag383
asg119
Nsba(ibclass
BBasicBlock
p398
(dp399
g12
Nsg13
(lp400
(ibclass
BInstr
p401
(dp402
g2
Nsg17
S'MOV     R0, R7'
p403
sg19
S'0700a0e1'
p404
sg21
Vmov r0, r7
p405
sg5
L1043720L
sg6
Nsg23
S'MOV'
p406
sg25
S'0xfed08L'
p407
sg27
Nsba(ibclass
BInstr
p408
(dp409
g2
Nsg17
S'BL      X509_get_pubkey'
p410
sg19
S'5efbffeb'
p411
sg21
Vbl #0xffffed80
p412
sg5
L1043724L
sg6
Nsg23
S'BL'
p413
sg25
S'0xfed0cL'
p414
sg27
Nsba(ibclass
BInstr
p415
(dp416
g2
Nsg17
S'SUBS    R5, R0, #0'
p417
sg19
S'005050e2'
p418
sg21
Vsubs r5, r0, #0
p419
sg5
L1043728L
sg6
Nsg23
S'SUB'
p420
sg25
S'0xfed10L'
p421
sg27
Nsba(ibclass
BInstr
p422
(dp423
g2
Nsg17
S'BEQ     loc_FECF0'
p424
sg19
S'f5ffff0a'
p425
sg21
Vbeq #0xffffffdc
p426
sg5
L1043732L
sg6
Nsg23
g89
sg25
S'0xfed14L'
p427
sg27
Nsbasg91
(lp428
S'MOV R0, R7'
p429
aS'BL X509_get_pubkey'
p430
aS'SUBS R5, R0, #0'
p431
aS'BEQ func'
p432
asg103
Nsg5
S'0xfed08L'
p433
sg105
(lp434
S'0xfecccL'
p435
asg6
Nsg107
(lp436
S'0xfecf0L'
p437
aS'0xfed18L'
p438
asg111
Nsg112
Nsg113
S'd712ad407e365d6dc92067cbbdc09d0b'
p439
sg115
S'a278be33773c62f57f7ddb3e016dbc5c'
p440
sg117
(lp441
g406
ag413
ag420
ag89
asg119
Nsba(ibclass
BBasicBlock
p442
(dp443
g12
Nsg13
(lp444
(ibclass
BInstr
p445
(dp446
g2
Nsg17
S'MOV     R1, R5'
p447
sg19
S'0510a0e1'
p448
sg21
Vmov r1, r5
p449
sg5
L1043736L
sg6
Nsg23
S'MOV'
p450
sg25
S'0xfed18L'
p451
sg27
Nsba(ibclass
BInstr
p452
(dp453
g2
Nsg17
S'MOV     R0, R6'
p454
sg19
S'0600a0e1'
p455
sg21
Vmov r0, r6
p456
sg5
L1043740L
sg6
Nsg23
S'MOV'
p457
sg25
S'0xfed1cL'
p458
sg27
Nsba(ibclass
BInstr
p459
(dp460
g2
Nsg17
S'BL      X509_REQ_set_pubkey'
p461
sg19
S'ec0e00eb'
p462
sg21
Vbl #0x3bb8
p463
sg5
L1043744L
sg6
Nsg23
S'BL'
p464
sg25
S'0xfed20L'
p465
sg27
Nsba(ibclass
BInstr
p466
(dp467
g2
Nsg17
S'MOV     R4, R0'
p468
sg19
S'0040a0e1'
p469
sg21
Vmov r4, r0
p470
sg5
L1043748L
sg6
Nsg23
S'MOV'
p471
sg25
S'0xfed24L'
p472
sg27
Nsba(ibclass
BInstr
p473
(dp474
g2
Nsg17
S'MOV     R0, R5'
p475
sg19
S'0500a0e1'
p476
sg21
Vmov r0, r5
p477
sg5
L1043752L
sg6
Nsg23
S'MOV'
p478
sg25
S'0xfed28L'
p479
sg27
Nsba(ibclass
BInstr
p480
(dp481
g2
Nsg17
S'BL      EVP_PKEY_free'
p482
sg19
S'5852ffeb'
p483
sg21
Vbl #0xfffd4968
p484
sg5
L1043756L
sg6
Nsg23
S'BL'
p485
sg25
S'0xfed2cL'
p486
sg27
Nsba(ibclass
BInstr
p487
(dp488
g2
Nsg17
S'CMP     R4, #0'
p489
sg19
S'000054e3'
p490
sg21
Vcmp r4, #0
p491
sg5
L1043760L
sg6
Nsg23
S'CMP'
p492
sg25
S'0xfed30L'
p493
sg27
Nsba(ibclass
BInstr
p494
(dp495
g2
Nsg17
S'BEQ     loc_FECF0'
p496
sg19
S'edffff0a'
p497
sg21
Vbeq #0xffffffbc
p498
sg5
L1043764L
sg6
Nsg23
g89
sg25
S'0xfed34L'
p499
sg27
Nsbasg91
(lp500
S'MOV R1, R5'
p501
aS'MOV R0, R6'
p502
aS'BL X509_REQ_set_pubkey'
p503
aS'MOV R4, R0'
p504
aS'MOV R0, R5'
p505
aS'BL EVP_PKEY_free'
p506
aS'CMP R4, #0'
p507
aS'BEQ func'
p508
asg103
Nsg5
S'0xfed18L'
p509
sg105
(lp510
S'0xfed08L'
p511
asg6
Nsg107
(lp512
S'0xfecf0L'
p513
aS'0xfed38L'
p514
asg111
Nsg112
Nsg113
S'9d4e0fe41e7fe560e9b68b4312b936c6'
p515
sg115
S'da494c11ed55bd5e5561bf392f1e0bbd'
p516
sg117
(lp517
g450
ag457
ag464
ag471
ag478
ag485
ag492
ag89
asg119
Nsba(ibclass
BBasicBlock
p518
(dp519
g12
Nsg13
(lp520
(ibclass
BInstr
p521
(dp522
g2
Nsg17
S'CMP     R8, #0'
p523
sg19
S'000058e3'
p524
sg21
Vcmp r8, #0
p525
sg5
L1043768L
sg6
Nsg23
S'CMP'
p526
sg25
S'0xfed38L'
p527
sg27
Nsba(ibclass
BInstr
p528
(dp529
g2
Nsg17
S'BEQ     loc_FECFC'
p530
sg19
S'eeffff0a'
p531
sg21
Vbeq #0xffffffc0
p532
sg5
L1043772L
sg6
Nsg23
g89
sg25
S'0xfed3cL'
p533
sg27
Nsbasg91
(lp534
S'CMP R8, #0'
p535
aS'BEQ func'
p536
asg103
Nsg5
S'0xfed38L'
p537
sg105
(lp538
S'0xfed18L'
p539
asg6
Nsg107
(lp540
S'0xfecfcL'
p541
aS'0xfed40L'
p542
asg111
Nsg112
Nsg113
S'c78fd620a449e3c979d3f3ec12d4ee88'
p543
sg115
S'6c5677cb0be6c3160734bd3c0233f593'
p544
sg117
(lp545
g526
ag89
asg119
Nsba(ibclass
BBasicBlock
p546
(dp547
g12
Nsg13
(lp548
(ibclass
BInstr
p549
(dp550
g2
Nsg17
S'MOV     R1, R8'
p551
sg19
S'0810a0e1'
p552
sg21
Vmov r1, r8
p553
sg5
L1043776L
sg6
Nsg23
S'MOV'
p554
sg25
S'0xfed40L'
p555
sg27
Nsba(ibclass
BInstr
p556
(dp557
g2
Nsg17
S'MOV     R2, R10'
p558
sg19
S'0a20a0e1'
p559
sg21
Vmov r2, sl
p560
sg5
L1043780L
sg6
Nsg23
S'MOV'
p561
sg25
S'0xfed44L'
p562
sg27
Nsba(ibclass
BInstr
p563
(dp564
g2
Nsg17
S'MOV     R0, R6'
p565
sg19
S'0600a0e1'
p566
sg21
Vmov r0, r6
p567
sg5
L1043784L
sg6
Nsg23
S'MOV'
p568
sg25
S'0xfed48L'
p569
sg27
Nsba(ibclass
BInstr
p570
(dp571
g2
Nsg17
S'BL      X509_REQ_sign'
p572
sg19
S'721d00eb'
p573
sg21
Vbl #0x75d0
p574
sg5
L1043788L
sg6
Nsg23
S'BL'
p575
sg25
S'0xfed4cL'
p576
sg27
Nsba(ibclass
BInstr
p577
(dp578
g2
Nsg17
S'CMP     R0, #0'
p579
sg19
S'000050e3'
p580
sg21
Vcmp r0, #0
p581
sg5
L1043792L
sg6
Nsg23
S'CMP'
p582
sg25
S'0xfed50L'
p583
sg27
Nsba(ibclass
BInstr
p584
(dp585
g2
Nsg17
S'BEQ     loc_FECF0'
p586
sg19
S'e5ffff0a'
p587
sg21
Vbeq #0xffffff9c
p588
sg5
L1043796L
sg6
Nsg23
g89
sg25
S'0xfed54L'
p589
sg27
Nsbasg91
(lp590
S'MOV R1, R8'
p591
aS'MOV R2, R10'
p592
aS'MOV R0, R6'
p593
aS'BL X509_REQ_reggn'
p594
aS'CMP R0, #0'
p595
aS'BEQ func'
p596
asg103
Nsg5
S'0xfed40L'
p597
sg105
(lp598
S'0xfed38L'
p599
asg6
Nsg107
(lp600
S'0xfecf0L'
p601
aS'0xfed58L'
p602
asg111
Nsg112
Nsg113
S'2eec518b5b871155fc1a82b2a05c75f7'
p603
sg115
S'98026093b3abcf75f867c5dbdcd14aeb'
p604
sg117
(lp605
g554
ag561
ag568
ag575
ag582
ag89
asg119
Nsba(ibclass
BBasicBlock
p606
(dp607
g12
Nsg13
(lp608
(ibclass
BInstr
p609
(dp610
g2
Nsg17
S'B       loc_FECFC'
p611
sg19
S'e7ffffea'
p612
sg21
Vb #0xffffffa4
p613
sg5
L1043800L
sg6
Nsg23
g89
sg25
S'0xfed58L'
p614
sg27
Nsbasg91
(lp615
S'B func'
p616
asg103
Nsg5
S'0xfed58L'
p617
sg105
(lp618
S'0xfed40L'
p619
asg6
Nsg107
(lp620
S'0xfecfcL'
p621
asg111
Nsg112
Nsg113
S'9d5ed678fe57bcca610140957afab571'
p622
sg115
S'071b057c420e304c628380fd3541c021'
p623
sg117
(lp624
g89
asg119
Nsba(ibclass
BBasicBlock
p625
(dp626
g12
Nsg13
(lp627
(ibclass
BInstr
p628
(dp629
g2
Nsg17
S'LDR     R3, =(aX509_req_c - 0x1809D4)'
p630
sg19
S'20309fe5'
p631
sg21
Vldr r3, [pc, #0x20]
p632
sg5
L1043804L
sg6
Nsg23
S'LDR'
p633
sg25
S'0xfed5cL'
p634
sg27
Nsba(ibclass
BInstr
p635
(dp636
g2
Nsg17
S'MOV     R12, #0x4F'
p637
sg19
S'4fc0a0e3'
p638
sg21
Vmov ip, #0x4f
p639
sg5
L1043808L
sg6
Nsg23
S'MOV'
p640
sg25
S'0xfed60L'
p641
sg27
Nsba(ibclass
BInstr
p642
(dp643
g2
Nsg17
S'ADD     R3, R2, R3      ; "x509_req.c"'
p644
sg19
S'033082e0'
p645
sg21
Vadd r3, r2, r3
p646
sg5
L1043812L
sg6
Nsg23
S'ADD'
p647
sg25
S'0xfed64L'
p648
sg27
Nsba(ibclass
BInstr
p649
(dp650
g2
Nsg17
S'ADD     R0, R0, #0xB'
p651
sg19
S'0b0080e2'
p652
sg21
Vadd r0, r0, #0xb
p653
sg5
L1043816L
sg6
Nsg23
S'ADD'
p654
sg25
S'0xfed68L'
p655
sg27
Nsba(ibclass
BInstr
p656
(dp657
g2
Nsg17
S'MOV     R1, #0x7E'
p658
sg19
S'7e10a0e3'
p659
sg21
Vmov r1, #0x7e
p660
sg5
L1043820L
sg6
Nsg23
S'MOV'
p661
sg25
S'0xfed6cL'
p662
sg27
Nsba(ibclass
BInstr
p663
(dp664
g2
Nsg17
S'MOV     R2, #0x41'
p665
sg19
S'4120a0e3'
p666
sg21
Vmov r2, #0x41
p667
sg5
L1043824L
sg6
Nsg23
S'MOV'
p668
sg25
S'0xfed70L'
p669
sg27
Nsba(ibclass
BInstr
p670
(dp671
g2
Nsg17
S'STR     R12, [SP,#0x28+var_28]'
p672
sg19
S'00c08de5'
p673
sg21
Vstr ip, [sp]
p674
sg5
L1043828L
sg6
Nsg23
S'STR'
p675
sg25
S'0xfed74L'
p676
sg27
Nsba(ibclass
BInstr
p677
(dp678
g2
Nsg17
S'BL      ERR_put_error'
p679
sg19
S'e632ffeb'
p680
sg21
Vbl #0xfffccba0
p681
sg5
L1043832L
sg6
Nsg23
S'BL'
p682
sg25
S'0xfed78L'
p683
sg27
Nsba(ibclass
BInstr
p684
(dp685
g2
Nsg17
S'B       loc_FECF0'
p686
sg19
S'dbffffea'
p687
sg21
Vb #0xffffff74
p688
sg5
L1043836L
sg6
Nsg23
g89
sg25
S'0xfed7cL'
p689
sg27
Nsbasg91
(lp690
S'LDR R3, =(aX509_req_c - 0x1809D4)'
p691
aS'MOV R12, #0x4F'
p692
aS'ADD R3, R2, R3'
p693
aS'ADD R0, R0, #0xB'
p694
aS'MOV R1, #0x7E'
p695
aS'MOV R2, #0x41'
p696
aS'STR R12, mem'
p697
aS'BL ERR_put_error'
p698
aS'B func'
p699
asg103
Nsg5
S'0xfed5cL'
p700
sg105
(lp701
S'0xfec70L'
p702
asg6
Nsg107
(lp703
S'0xfecf0L'
p704
asg111
Nsg112
Nsg113
S'25fab51656fafa4ba7c031d02a57de2f'
p705
sg115
S'e2b583a348e68880c81fd5abe157c178'
p706
sg117
(lp707
g633
ag640
ag647
ag654
ag661
ag668
ag675
ag682
ag89
asg119
Nsbasb.