(ibclass
BFunc
p0
(dp1
S'hash'
p2
NsS'name'
p3
S'BIO_vsnprintf'
p4
sS'start_address'
p5
L794512L
sS'flag'
p6
NsS'program'
p7
NsS'bbs'
p8
(lp9
(ibclass
BBasicBlock
p10
(dp11
S'function'
p12
NsS'binstrs'
p13
(lp14
(ibclass
BInstr
p15
(dp16
g2
NsS'disasm'
p17
S'STR     LR, [SP,#var_4]!'
p18
sS'bytes'
p19
S'04e02de5'
p20
sS'disasm_striped'
p21
Vstr lr, [sp, #-4]!
p22
sg5
L794512L
sg6
NsS'mnem'
p23
S'STR'
p24
sS'address'
p25
S'0xc1f90L'
p26
sS'basicblock'
p27
Nsba(ibclass
BInstr
p28
(dp29
g2
Nsg17
S'SUB     SP, SP, #0x24'
p30
sg19
S'24d04de2'
p31
sg21
Vsub sp, sp, #0x24
p32
sg5
L794516L
sg6
Nsg23
S'SUB'
p33
sg25
S'0xc1f94L'
p34
sg27
Nsba(ibclass
BInstr
p35
(dp36
g2
Nsg17
S'STR     R0, [SP,#0x28+var_14]'
p37
sg19
S'14008de5'
p38
sg21
Vstr r0, [sp, #0x14]
p39
sg5
L794520L
sg6
Nsg23
S'STR'
p40
sg25
S'0xc1f98L'
p41
sg27
Nsba(ibclass
BInstr
p42
(dp43
g2
Nsg17
S'STR     R1, [SP,#0x28+var_18]'
p44
sg19
S'10108de5'
p45
sg21
Vstr r1, [sp, #0x10]
p46
sg5
L794524L
sg6
Nsg23
S'STR'
p47
sg25
S'0xc1f9cL'
p48
sg27
Nsba(ibclass
BInstr
p49
(dp50
g2
Nsg17
S'ADD     R0, SP, #0x28+var_14'
p51
sg19
S'14008de2'
p52
sg21
Vadd r0, sp, #0x14
p53
sg5
L794528L
sg6
Nsg23
S'ADD'
p54
sg25
S'0xc1fa0L'
p55
sg27
Nsba(ibclass
BInstr
p56
(dp57
g2
Nsg17
S'STMFA   SP, {R2,R3}'
p58
sg19
S'0c008de9'
p59
sg21
Vstmib sp, {r2, r3}
p60
sg5
L794532L
sg6
Nsg23
S'STM'
p61
sg25
S'0xc1fa4L'
p62
sg27
Nsba(ibclass
BInstr
p63
(dp64
g2
Nsg17
S'ADD     R12, SP, #0x28+var_10'
p65
sg19
S'18c08de2'
p66
sg21
Vadd ip, sp, #0x18
p67
sg5
L794536L
sg6
Nsg23
S'ADD'
p68
sg25
S'0xc1fa8L'
p69
sg27
Nsba(ibclass
BInstr
p70
(dp71
g2
Nsg17
S'ADD     R3, SP, #0x28+var_C'
p72
sg19
S'1c308de2'
p73
sg21
Vadd r3, sp, #0x1c
p74
sg5
L794540L
sg6
Nsg23
S'ADD'
p75
sg25
S'0xc1facL'
p76
sg27
Nsba(ibclass
BInstr
p77
(dp78
g2
Nsg17
S'MOV     R1, #0'
p79
sg19
S'0010a0e3'
p80
sg21
Vmov r1, #0
p81
sg5
L794544L
sg6
Nsg23
S'MOV'
p82
sg25
S'0xc1fb0L'
p83
sg27
Nsba(ibclass
BInstr
p84
(dp85
g2
Nsg17
S'ADD     R2, SP, #0x28+var_18'
p86
sg19
S'10208de2'
p87
sg21
Vadd r2, sp, #0x10
p88
sg5
L794548L
sg6
Nsg23
S'ADD'
p89
sg25
S'0xc1fb4L'
p90
sg27
Nsba(ibclass
BInstr
p91
(dp92
g2
Nsg17
S'STR     R12, [SP,#0x28+var_28]'
p93
sg19
S'00c08de5'
p94
sg21
Vstr ip, [sp]
p95
sg5
L794552L
sg6
Nsg23
S'STR'
p96
sg25
S'0xc1fb8L'
p97
sg27
Nsba(ibclass
BInstr
p98
(dp99
g2
Nsg17
S'BL      sub_C01C4'
p100
sg19
S'80f8ffeb'
p101
sg21
Vbl #0xffffe208
p102
sg5
L794556L
sg6
Nsg23
S'BL'
p103
sg25
S'0xc1fbcL'
p104
sg27
Nsba(ibclass
BInstr
p105
(dp106
g2
Nsg17
S'LDR     R3, [SP,#0x28+var_10]'
p107
sg19
S'18309de5'
p108
sg21
Vldr r3, [sp, #0x18]
p109
sg5
L794560L
sg6
Nsg23
S'LDR'
p110
sg25
S'0xc1fc0L'
p111
sg27
Nsba(ibclass
BInstr
p112
(dp113
g2
Nsg17
S'CMP     R3, #0'
p114
sg19
S'000053e3'
p115
sg21
Vcmp r3, #0
p116
sg5
L794564L
sg6
Nsg23
S'CMP'
p117
sg25
S'0xc1fc4L'
p118
sg27
Nsba(ibclass
BInstr
p119
(dp120
g2
Nsg17
S'LDREQ   R3, [SP,#0x28+var_C]'
p121
sg19
S'1c309d05'
p122
sg21
Vldreq r3, [sp, #0x1c]
p123
sg5
L794568L
sg6
Nsg23
S'LDR'
p124
sg25
S'0xc1fc8L'
p125
sg27
Nsba(ibclass
BInstr
p126
(dp127
g2
Nsg17
S'MOVNE   R0, #0xFFFFFFFF'
p128
sg19
S'0000e013'
p129
sg21
Vmvnne r0, #0
p130
sg5
L794572L
sg6
Nsg23
S'MOV'
p131
sg25
S'0xc1fccL'
p132
sg27
Nsba(ibclass
BInstr
p133
(dp134
g2
Nsg17
S'ORREQ   R0, R3, R3,ASR#31'
p135
sg19
S'c30f8301'
p136
sg21
Vorreq r0, r3, r3, asr #31
p137
sg5
L794576L
sg6
Nsg23
S'ORR'
p138
sg25
S'0xc1fd0L'
p139
sg27
Nsba(ibclass
BInstr
p140
(dp141
g2
Nsg17
S'ADD     SP, SP, #0x24'
p142
sg19
S'24d08de2'
p143
sg21
Vadd sp, sp, #0x24
p144
sg5
L794580L
sg6
Nsg23
S'ADD'
p145
sg25
S'0xc1fd4L'
p146
sg27
Nsba(ibclass
BInstr
p147
(dp148
g2
Nsg17
S'LDMFD   SP!, {PC}'
p149
sg19
S'0080bde8'
p150
sg21
Vldm sp!, {pc}
p151
sg5
L794584L
sg6
Nsg23
S'LDM'
p152
sg25
S'0xc1fd8L'
p153
sg27
NsbasS'disasm_list'
p154
(lp155
S'STR LR, mem!'
p156
aS'SUB SP, SP, #0x24'
p157
aS'STR R0, mem'
p158
aS'STR R1, mem'
p159
aS'ADD R0, SP, #0x28+var_14'
p160
aS'STMFA SP, {R2,R3}'
p161
aS'ADD R12, SP, #0x28+var_10'
p162
aS'ADD R3, SP, #0x28+var_C'
p163
aS'MOV R1, #0'
p164
aS'ADD R2, SP, #0x28+var_18'
p165
aS'STR R12, mem'
p166
aS'BL func'
p167
aS'LDR R3, mem'
p168
aS'CMP R3, #0'
p169
aS'LDREQ R3, mem'
p170
aS'MOVNE R0, #0xFFFFFFFF'
p171
aS'ORREQ R0, R3, R3,ASR#31'
p172
aS'ADD SP, SP, #0x24'
p173
aS'LDMFD SP!, {PC}'
p174
asS'end_address'
p175
Nsg5
S'0xc1f90L'
p176
sS'preds'
p177
(lp178
sg6
NsS'succs'
p179
(lp180
sS'hash_v3'
p181
NsS'flag_v2'
p182
NsS'hash_v1'
p183
S'a528aaf0fefa643d3012a865e90b8d2d'
p184
sS'hash_v2'
p185
S'd4e80a53908cf5b04ff4298f26faca26'
p186
sS'mnen_list'
p187
(lp188
g24
ag33
ag40
ag47
ag54
ag61
ag68
ag75
ag82
ag89
ag96
ag103
ag110
ag117
ag124
ag131
ag138
ag145
ag152
asS'neighbour_disasm_list'
p189
Nsbasb.