(ibclass
BFunc
p0
(dp1
S'hash'
p2
NsS'name'
p3
S'ssl3_client_hello'
p4
sS'start_address'
p5
L135008L
sS'flag'
p6
NsS'program'
p7
NsS'bbs'
p8
(lp9
(ibclass
BBasicBlock
p10
(dp11
S'function'
p12
NsS'binstrs'
p13
(lp14
(ibclass
BInstr
p15
(dp16
g2
NsS'disasm'
p17
S'STMFD   SP!, {R4-R11,LR}'
p18
sS'bytes'
p19
S'f04f2de9'
p20
sS'disasm_striped'
p21
Vpush {r4, r5, r6, r7, r8, sb, sl, fp, lr}
p22
sg5
L135008L
sg6
NsS'mnem'
p23
S'STM'
p24
sS'address'
p25
S'0x20f60L'
p26
sS'basicblock'
p27
Nsba(ibclass
BInstr
p28
(dp29
g2
Nsg17
S'LDR     R3, [s,#0x3C]'
p30
sg19
S'3c3090e5'
p31
sg21
Vldr r3, [r0, #0x3c]
p32
sg5
L135012L
sg6
Nsg23
S'LDR'
p33
sg25
S'0x20f64L'
p34
sg27
Nsba(ibclass
BInstr
p35
(dp36
g2
Nsg17
S'LDR     R1, [s,#0x34]'
p37
sg19
S'341090e5'
p38
sg21
Vldr r1, [r0, #0x34]
p39
sg5
L135016L
sg6
Nsg23
S'LDR'
p40
sg25
S'0x20f68L'
p41
sg27
Nsba(ibclass
BInstr
p42
(dp43
g2
Nsg17
S'LDR     R2, =0x1110'
p44
sg19
S'84249fe5'
p45
sg21
Vldr r2, [pc, #0x484]
p46
sg5
L135020L
sg6
Nsg23
S'LDR'
p47
sg25
S'0x20f6cL'
p48
sg27
Nsba(ibclass
BInstr
p49
(dp50
g2
Nsg17
S'LDR     R5, =($_GLOBAL_OFFSET_TABLE_ - 0x20F98)'
p51
sg19
S'84549fe5'
p52
sg21
Vldr r5, [pc, #0x484]
p53
sg5
L135024L
sg6
Nsg23
S'LDR'
p54
sg25
S'0x20f70L'
p55
sg27
Nsba(ibclass
BInstr
p56
(dp57
g2
Nsg17
S'LDR     R3, [R3,#4]'
p58
sg19
S'043093e5'
p59
sg21
Vldr r3, [r3, #4]
p60
sg5
L135028L
sg6
Nsg23
S'LDR'
p61
sg25
S'0x20f74L'
p62
sg27
Nsba(ibclass
BInstr
p63
(dp64
g2
Nsg17
S'SUB     SP, SP, #0x1C'
p65
sg19
S'1cd04de2'
p66
sg21
Vsub sp, sp, #0x1c
p67
sg5
L135032L
sg6
Nsg23
S'SUB'
p68
sg25
S'0x20f78L'
p69
sg27
Nsba(ibclass
BInstr
p70
(dp71
g2
Nsg17
S'CMP     R1, R2'
p72
sg19
S'020051e1'
p73
sg21
Vcmp r1, r2
p74
sg5
L135036L
sg6
Nsg23
S'CMP'
p75
sg25
S'0x20f7cL'
p76
sg27
Nsba(ibclass
BInstr
p77
(dp78
g2
Nsg17
S'MOV     R2, #0'
p79
sg19
S'0020a0e3'
p80
sg21
Vmov r2, #0
p81
sg5
L135040L
sg6
Nsg23
S'MOV'
p82
sg25
S'0x20f80L'
p83
sg27
Nsba(ibclass
BInstr
p84
(dp85
g2
Nsg17
S'STR     R2, [SP,#0x40+al]'
p86
sg19
S'14208de5'
p87
sg21
Vstr r2, [sp, #0x14]
p88
sg5
L135044L
sg6
Nsg23
S'STR'
p89
sg25
S'0x20f84L'
p90
sg27
Nsba(ibclass
BInstr
p91
(dp92
g2
Nsg17
S'STR     R3, [SP,#0x40+var_34]'
p93
sg19
S'0c308de5'
p94
sg21
Vstr r3, [sp, #0xc]
p95
sg5
L135048L
sg6
Nsg23
S'STR'
p96
sg25
S'0x20f88L'
p97
sg27
Nsba(ibclass
BInstr
p98
(dp99
g2
Nsg17
S'MOV     R4, s'
p100
sg19
S'0040a0e1'
p101
sg21
Vmov r4, r0
p102
sg5
L135052L
sg6
Nsg23
S'MOV'
p103
sg25
S'0x20f8cL'
p104
sg27
Nsba(ibclass
BInstr
p105
(dp106
g2
Nsg17
S'ADD     R5, PC, R5 ; $_GLOBAL_OFFSET_TABLE_'
p107
sg19
S'05508fe0'
p108
sg21
Vadd r5, pc, r5
p109
sg5
L135056L
sg6
Nsg23
S'ADD'
p110
sg25
S'0x20f90L'
p111
sg27
Nsba(ibclass
BInstr
p112
(dp113
g2
Nsg17
S'BNE     loc_211F8'
p114
sg19
S'9700001a'
p115
sg21
Vbne #0x264
p116
sg5
L135060L
sg6
Nsg23
S'B'
p117
sg25
S'0x20f94L'
p118
sg27
NsbasS'disasm_list'
p119
(lp120
S'STMFD SP!, {R4-R11,LR}'
p121
aS'LDR R3, mem'
p122
aS'LDR R1, mem'
p123
aS'LDR R2, =0x1110'
p124
aS'LDR R5, =($_GLOBAL_OFFSET_TABLE_ - 0x20F98)'
p125
aS'LDR R3, mem'
p126
aS'SUB SP, SP, #0x1C'
p127
aS'CMP R1, R2'
p128
aS'MOV R2, #0'
p129
aS'STR R2, mem'
p130
aS'STR R3, mem'
p131
aS'MOV R4, s'
p132
aS'ADD R5, PC, R5'
p133
aS'BNE func'
p134
asS'end_address'
p135
Nsg5
S'0x20f60L'
p136
sS'preds'
p137
(lp138
sg6
NsS'succs'
p139
(lp140
S'0x20f98L'
p141
aS'0x211f8L'
p142
asS'hash_v3'
p143
NsS'flag_v2'
p144
NsS'hash_v1'
p145
S'65e87014ff591a4d16ec96059ddf02a5'
p146
sS'hash_v2'
p147
S'9ba1f6dc1bc41df58a995d2a61366bcd'
p148
sS'mnen_list'
p149
(lp150
g24
ag33
ag40
ag47
ag54
ag61
ag68
ag75
ag82
ag89
ag96
ag103
ag110
ag117
asS'neighbour_disasm_list'
p151
Nsba(ibclass
BBasicBlock
p152
(dp153
g12
Nsg13
(lp154
(ibclass
BInstr
p155
(dp156
g2
Nsg17
S'LDR     R3, [R0,#0xC0]'
p157
sg19
S'c03090e5'
p158
sg21
Vldr r3, [r0, #0xc0]
p159
sg5
L135064L
sg6
Nsg23
S'LDR'
p160
sg25
S'0x20f98L'
p161
sg27
Nsba(ibclass
BInstr
p162
(dp163
g2
Nsg17
S'CMP     sess, R2'
p164
sg19
S'020053e1'
p165
sg21
Vcmp r3, r2
p166
sg5
L135068L
sg6
Nsg23
S'CMP'
p167
sg25
S'0x20f9cL'
p168
sg27
Nsba(ibclass
BInstr
p169
(dp170
g2
Nsg17
S'BEQ     loc_20FB4'
p171
sg19
S'0300000a'
p172
sg21
Vbeq #0x14
p173
sg5
L135072L
sg6
Nsg23
g117
sg25
S'0x20fa0L'
p174
sg27
Nsbasg119
(lp175
S'LDR R3, mem'
p176
aS'CMP sess, R2'
p177
aS'BEQ func'
p178
asg135
Nsg5
S'0x20f98L'
p179
sg137
(lp180
S'0x20f60L'
p181
asg6
Nsg139
(lp182
S'0x20fa4L'
p183
aS'0x20fb4L'
p184
asg143
Nsg144
Nsg145
S'fa4df767a85c49648339e2dc5c6807f6'
p185
sg147
S'e8886ce706133cd80278906ce4a719c3'
p186
sg149
(lp187
g160
ag167
ag117
asg151
Nsba(ibclass
BBasicBlock
p188
(dp189
g12
Nsg13
(lp190
(ibclass
BInstr
p191
(dp192
g2
Nsg17
S'LDR     R1, [sess]'
p193
sg19
S'001093e5'
p194
sg21
Vldr r1, [r3]
p195
sg5
L135076L
sg6
Nsg23
S'LDR'
p196
sg25
S'0x20fa4L'
p197
sg27
Nsba(ibclass
BInstr
p198
(dp199
g2
Nsg17
S'LDR     R2, [s]'
p200
sg19
S'002090e5'
p201
sg21
Vldr r2, [r0]
p202
sg5
L135080L
sg6
Nsg23
S'LDR'
p203
sg25
S'0x20fa8L'
p204
sg27
Nsba(ibclass
BInstr
p205
(dp206
g2
Nsg17
S'CMP     R1, R2'
p207
sg19
S'020051e1'
p208
sg21
Vcmp r1, r2
p209
sg5
L135084L
sg6
Nsg23
S'CMP'
p210
sg25
S'0x20facL'
p211
sg27
Nsba(ibclass
BInstr
p212
(dp213
g2
Nsg17
S'BEQ     loc_21294'
p214
sg19
S'b700000a'
p215
sg21
Vbeq #0x2e4
p216
sg5
L135088L
sg6
Nsg23
g117
sg25
S'0x20fb0L'
p217
sg27
Nsbasg119
(lp218
S'LDR R1, mem'
p219
aS'LDR R2, mem'
p220
aS'CMP R1, R2'
p221
aS'BEQ func'
p222
asg135
Nsg5
S'0x20fa4L'
p223
sg137
(lp224
S'0x20f98L'
p225
asg6
Nsg139
(lp226
S'0x20fb4L'
p227
aS'0x21294L'
p228
asg143
Nsg144
Nsg145
S'd9812e74326a7ebe01ae9e2a00bbb5ee'
p229
sg147
S'c4ad283646921b370a0dea628603507b'
p230
sg149
(lp231
g196
ag203
ag210
ag117
asg151
Nsba(ibclass
BBasicBlock
p232
(dp233
g12
Nsg13
(lp234
(ibclass
BInstr
p235
(dp236
g2
Nsg17
S'MOV     s, R4           ; s'
p237
sg19
S'0400a0e1'
p238
sg21
Vmov r0, r4
p239
sg5
L135092L
sg6
Nsg23
S'MOV'
p240
sg25
S'0x20fb4L'
p241
sg27
Nsba(ibclass
BInstr
p242
(dp243
g2
Nsg17
S'MOV     R1, #0          ; session'
p244
sg19
S'0010a0e3'
p245
sg21
Vmov r1, #0
p246
sg5
L135096L
sg6
Nsg23
S'MOV'
p247
sg25
S'0x20fb8L'
p248
sg27
Nsba(ibclass
BInstr
p249
(dp250
g2
Nsg17
S'BL      ssl_get_new_session'
p251
sg19
S'ac8a00eb'
p252
sg21
Vbl #0x22ab8
p253
sg5
L135100L
sg6
Nsg23
S'BL'
p254
sg25
S'0x20fbcL'
p255
sg27
Nsba(ibclass
BInstr
p256
(dp257
g2
Nsg17
S'CMP     R0, #0'
p258
sg19
S'000050e3'
p259
sg21
Vcmp r0, #0
p260
sg5
L135104L
sg6
Nsg23
S'CMP'
p261
sg25
S'0x20fc0L'
p262
sg27
Nsba(ibclass
BInstr
p263
(dp264
g2
Nsg17
S'BEQ     err'
p265
sg19
S'ca00000a'
p266
sg21
Vbeq #0x330
p267
sg5
L135108L
sg6
Nsg23
g117
sg25
S'0x20fc4L'
p268
sg27
Nsbasg119
(lp269
S'MOV s, R4'
p270
aS'MOV R1, #0'
p271
aS'BL ssl_get_new_sesregon'
p272
aS'CMP R0, #0'
p273
aS'BEQ err'
p274
asg135
Nsg5
S'0x20fb4L'
p275
sg137
(lp276
S'0x20f98L'
p277
aS'0x20fa4L'
p278
aS'0x212a0L'
p279
aS'0x212b8L'
p280
asg6
Nsg139
(lp281
S'0x20fc8L'
p282
aS'0x212f4L'
p283
asg143
Nsg144
Nsg145
S'7aa0d384fe1372848624ea012a952b72'
p284
sg147
S'56dc60890e60ad77496f62dcfccb286a'
p285
sg149
(lp286
g240
ag247
ag254
ag261
ag117
asg151
Nsba(ibclass
BBasicBlock
p287
(dp288
g12
Nsg13
(lp289
(ibclass
BInstr
p290
(dp291
g2
Nsg17
S'LDR     R0, [s,#8]'
p292
sg19
S'080094e5'
p293
sg21
Vldr r0, [r4, #8]
p294
sg5
L135112L
sg6
Nsg23
S'LDR'
p295
sg25
S'0x20fc8L'
p296
sg27
Nsba(ibclass
BInstr
p297
(dp298
g2
Nsg17
S'LDR     R3, =0x1FFFF'
p299
sg19
S'2c349fe5'
p300
sg21
Vldr r3, [pc, #0x42c]
p301
sg5
L135116L
sg6
Nsg23
S'LDR'
p302
sg25
S'0x20fccL'
p303
sg27
Nsba(ibclass
BInstr
p304
(dp305
g2
Nsg17
S'LDR     R2, [R0]'
p306
sg19
S'002090e5'
p307
sg21
Vldr r2, [r0]
p308
sg5
L135120L
sg6
Nsg23
S'LDR'
p309
sg25
S'0x20fd0L'
p310
sg27
Nsba(ibclass
BInstr
p311
(dp312
g2
Nsg17
S'CMP     R2, R3'
p313
sg19
S'030052e1'
p314
sg21
Vcmp r2, r3
p315
sg5
L135124L
sg6
Nsg23
S'CMP'
p316
sg25
S'0x20fd4L'
p317
sg27
Nsba(ibclass
BInstr
p318
(dp319
g2
Nsg17
S'BEQ     loc_21244'
p320
sg19
S'9900000a'
p321
sg21
Vbeq #0x26c
p322
sg5
L135128L
sg6
Nsg23
g117
sg25
S'0x20fd8L'
p323
sg27
Nsbasg119
(lp324
S'LDR R0, mem'
p325
aS'LDR R3, =0x1FFFF'
p326
aS'LDR R2, mem'
p327
aS'CMP R2, R3'
p328
aS'BEQ func'
p329
asg135
Nsg5
S'0x20fc8L'
p330
sg137
(lp331
S'0x20fb4L'
p332
aS'0x212acL'
p333
asg6
Nsg139
(lp334
S'0x20fdcL'
p335
aS'0x21244L'
p336
asg143
Nsg144
Nsg145
S'62ab725e690add4ef7a7c08f744b1387'
p337
sg147
S'858c5e0529a22dde760c61238c43f39b'
p338
sg149
(lp339
g295
ag302
ag309
ag316
ag117
asg151
Nsba(ibclass
BBasicBlock
p340
(dp341
g12
Nsg13
(lp342
(ibclass
BInstr
p343
(dp344
g2
Nsg17
S'LDR     R12, [R0,#0x64]'
p345
sg19
S'64c090e5'
p346
sg21
Vldr ip, [r0, #0x64]
p347
sg5
L135132L
sg6
Nsg23
S'LDR'
p348
sg25
S'0x20fdcL'
p349
sg27
Nsba(ibclass
BInstr
p350
(dp351
g2
Nsg17
S'LDR     R2, [s,#0x58]'
p352
sg19
S'582094e5'
p353
sg21
Vldr r2, [r4, #0x58]
p354
sg5
L135136L
sg6
Nsg23
S'LDR'
p355
sg25
S'0x20fe0L'
p356
sg27
Nsba(ibclass
BInstr
p357
(dp358
g2
Nsg17
S'LDR     R3, [R12,#0x38]'
p359
sg19
S'38309ce5'
p360
sg21
Vldr r3, [ip, #0x38]
p361
sg5
L135140L
sg6
Nsg23
S'LDR'
p362
sg25
S'0x20fe4L'
p363
sg27
Nsba(ibclass
BInstr
p364
(dp365
g2
Nsg17
S'TST     R3, #8'
p366
sg19
S'080013e3'
p367
sg21
Vtst r3, #8
p368
sg5
L135144L
sg6
Nsg23
S'TST'
p369
sg25
S'0x20fe8L'
p370
sg27
Nsba(ibclass
BInstr
p371
(dp372
g2
Nsg17
S'BEQ     loc_2121C'
p373
sg19
S'8a00000a'
p374
sg21
Vbeq #0x230
p375
sg5
L135148L
sg6
Nsg23
g117
sg25
S'0x20fecL'
p376
sg27
Nsbasg119
(lp377
S'LDR R12, mem'
p378
aS'LDR R2, mem'
p379
aS'LDR R3, mem'
p380
aS'TST R3, #8'
p381
aS'BEQ func'
p382
asg135
Nsg5
S'0x20fdcL'
p383
sg137
(lp384
S'0x20fc8L'
p385
asg6
Nsg139
(lp386
S'0x20ff0L'
p387
aS'0x2121cL'
p388
asg143
Nsg144
Nsg145
S'21aa54f108f9798f430e2d5c3ae9bac4'
p389
sg147
S'c387dbd4b541e674f1e489873352aa07'
p390
sg149
(lp391
g348
ag355
ag362
ag369
ag117
asg151
Nsba(ibclass
BBasicBlock
p392
(dp393
g12
Nsg13
(lp394
(ibclass
BInstr
p395
(dp396
g2
Nsg17
S'MOV     R1, R2'
p397
sg19
S'0210a0e1'
p398
sg21
Vmov r1, r2
p399
sg5
L135152L
sg6
Nsg23
S'MOV'
p400
sg25
S'0x20ff0L'
p401
sg27
Nsba(ibclass
BInstr
p402
(dp403
g2
Nsg17
S'MOV     R3, #0'
p404
sg19
S'0030a0e3'
p405
sg21
Vmov r3, #0
p406
sg5
L135156L
sg6
Nsg23
S'MOV'
p407
sg25
S'0x20ff4L'
p408
sg27
Nsba(ibclass
BInstr
p409
(dp410
g2
Nsg17
S'B       loc_21008'
p411
sg19
S'020000ea'
p412
sg21
Vb #0x10
p413
sg5
L135160L
sg6
Nsg23
g117
sg25
S'0x20ff8L'
p414
sg27
Nsbasg119
(lp415
S'MOV R1, R2'
p416
aS'MOV R3, #0'
p417
aS'B func'
p418
asg135
Nsg5
S'0x20ff0L'
p419
sg137
(lp420
S'0x20fdcL'
p421
aS'0x21290L'
p422
asg6
Nsg139
(lp423
S'0x21008L'
p424
asg143
Nsg144
Nsg145
S'7391dd723071525ee502f0c2742c56af'
p425
sg147
S'383a4b8695121b7f595b6a02a79b3393'
p426
sg149
(lp427
g400
ag407
ag117
asg151
Nsba(ibclass
BBasicBlock
p428
(dp429
g12
Nsg13
(lp430
(ibclass
BInstr
p431
(dp432
g2
Nsg17
S'CMP     idx, #0x20'
p433
sg19
S'200053e3'
p434
sg21
Vcmp r3, #0x20
p435
sg5
L135164L
sg6
Nsg23
S'CMP'
p436
sg25
S'0x20ffcL'
p437
sg27
Nsba(ibclass
BInstr
p438
(dp439
g2
Nsg17
S'ADD     R1, R1, #1'
p440
sg19
S'011081e2'
p441
sg21
Vadd r1, r1, #1
p442
sg5
L135168L
sg6
Nsg23
S'ADD'
p443
sg25
S'0x21000L'
p444
sg27
Nsba(ibclass
BInstr
p445
(dp446
g2
Nsg17
S'BEQ     loc_2121C'
p447
sg19
S'8400000a'
p448
sg21
Vbeq #0x218
p449
sg5
L135172L
sg6
Nsg23
g117
sg25
S'0x21004L'
p450
sg27
Nsbasg119
(lp451
S'CMP ireg, #0x20'
p452
aS'ADD R1, R1, #1'
p453
aS'BEQ func'
p454
asg135
Nsg5
S'0x20ffcL'
p455
sg137
(lp456
S'0x21008L'
p457
asg6
Nsg139
(lp458
S'0x21008L'
p459
aS'0x2121cL'
p460
asg143
Nsg144
Nsg145
S'0038db8468b20ad3114d0dbf040b8ed0'
p461
sg147
S'd2949037c8ead2f2d0c80f45269f1b2a'
p462
sg149
(lp463
g436
ag443
ag117
asg151
Nsba(ibclass
BBasicBlock
p464
(dp465
g12
Nsg13
(lp466
(ibclass
BInstr
p467
(dp468
g2
Nsg17
S'LDRB    R0, [R1,#0xC0]'
p469
sg19
S'c000d1e5'
p470
sg21
Vldrb r0, [r1, #0xc0]
p471
sg5
L135176L
sg6
Nsg23
S'LDR'
p472
sg25
S'0x21008L'
p473
sg27
Nsba(ibclass
BInstr
p474
(dp475
g2
Nsg17
S'ADD     idx, idx, #1'
p476
sg19
S'013083e2'
p477
sg21
Vadd r3, r3, #1
p478
sg5
L135180L
sg6
Nsg23
S'ADD'
p479
sg25
S'0x2100cL'
p480
sg27
Nsba(ibclass
BInstr
p481
(dp482
g2
Nsg17
S'CMP     R0, #0'
p483
sg19
S'000050e3'
p484
sg21
Vcmp r0, #0
p485
sg5
L135184L
sg6
Nsg23
S'CMP'
p486
sg25
S'0x21010L'
p487
sg27
Nsba(ibclass
BInstr
p488
(dp489
g2
Nsg17
S'BEQ     loc_20FFC'
p490
sg19
S'f8ffff0a'
p491
sg21
Vbeq #0xffffffe8
p492
sg5
L135188L
sg6
Nsg23
g117
sg25
S'0x21014L'
p493
sg27
Nsbasg119
(lp494
S'LDRB R0, mem'
p495
aS'ADD ireg, ireg, #1'
p496
aS'CMP R0, #0'
p497
aS'BEQ func'
p498
asg135
Nsg5
S'0x21008L'
p499
sg137
(lp500
S'0x20ff0L'
p501
aS'0x20ffcL'
p502
asg6
Nsg139
(lp503
S'0x20ffcL'
p504
aS'0x21018L'
p505
asg143
Nsg144
Nsg145
S'f58179a3884326010ced9866bee49b8f'
p506
sg147
S'bf5e434564dbaad83b93563f92a2129e'
p507
sg149
(lp508
g472
ag479
ag486
ag117
asg151
Nsba(ibclass
BBasicBlock
p509
(dp510
g12
Nsg13
(lp511
(ibclass
BInstr
p512
(dp513
g2
Nsg17
S'LDR     idx, [s,#0x3C]'
p514
sg19
S'3c3094e5'
p515
sg21
Vldr r3, [r4, #0x3c]
p516
sg5
L135192L
sg6
Nsg23
S'LDR'
p517
sg25
S'0x21018L'
p518
sg27
Nsba(ibclass
BInstr
p519
(dp520
g2
Nsg17
S'LDR     R2, [s,#0x110]'
p521
sg19
S'102194e5'
p522
sg21
Vldr r2, [r4, #0x110]
p523
sg5
L135196L
sg6
Nsg23
S'LDR'
p524
sg25
S'0x2101cL'
p525
sg27
Nsba(ibclass
BInstr
p526
(dp527
g2
Nsg17
S'LDR     R7, [R3,#4]'
p528
sg19
S'047093e5'
p529
sg21
Vldr r7, [r3, #4]
p530
sg5
L135200L
sg6
Nsg23
S'LDR'
p531
sg25
S'0x21020L'
p532
sg27
Nsba(ibclass
BInstr
p533
(dp534
g2
Nsg17
S'LDR     R3, [R12,#0x3C]'
p535
sg19
S'3c309ce5'
p536
sg21
Vldr r3, [ip, #0x3c]
p537
sg5
L135204L
sg6
Nsg23
S'LDR'
p538
sg25
S'0x21024L'
p539
sg27
Nsba(ibclass
BInstr
p540
(dp541
g2
Nsg17
S'MOV     R2, R2,ASR#8'
p542
sg19
S'4224a0e1'
p543
sg21
Vasr r2, r2, #8
p544
sg5
L135208L
sg6
Nsg23
S'MOV'
p545
sg25
S'0x21028L'
p546
sg27
Nsba(ibclass
BInstr
p547
(dp548
g2
Nsg17
S'STRB    R2, [R7,R3]'
p549
sg19
S'0320c7e7'
p550
sg21
Vstrb r2, [r7, r3]
p551
sg5
L135212L
sg6
Nsg23
S'STR'
p552
sg25
S'0x2102cL'
p553
sg27
Nsba(ibclass
BInstr
p554
(dp555
g2
Nsg17
S'LDR     R2, [s,#0x110]'
p556
sg19
S'102194e5'
p557
sg21
Vldr r2, [r4, #0x110]
p558
sg5
L135216L
sg6
Nsg23
S'LDR'
p559
sg25
S'0x21030L'
p560
sg27
Nsba(ibclass
BInstr
p561
(dp562
g2
Nsg17
S'ADD     R7, R7, R3'
p563
sg19
S'037087e0'
p564
sg21
Vadd r7, r7, r3
p565
sg5
L135220L
sg6
Nsg23
S'ADD'
p566
sg25
S'0x21034L'
p567
sg27
Nsba(ibclass
BInstr
p568
(dp569
g2
Nsg17
S'STRB    R2, [p,#1]'
p570
sg19
S'0120c7e5'
p571
sg21
Vstrb r2, [r7, #1]
p572
sg5
L135224L
sg6
Nsg23
S'STR'
p573
sg25
S'0x21038L'
p574
sg27
Nsba(ibclass
BInstr
p575
(dp576
g2
Nsg17
S'LDR     R1, [s,#0x58]'
p577
sg19
S'581094e5'
p578
sg21
Vldr r1, [r4, #0x58]
p579
sg5
L135228L
sg6
Nsg23
S'LDR'
p580
sg25
S'0x2103cL'
p581
sg27
Nsba(ibclass
BInstr
p582
(dp583
g2
Nsg17
S'ADD     R0, p, #2       ; dest'
p584
sg19
S'020087e2'
p585
sg21
Vadd r0, r7, #2
p586
sg5
L135232L
sg6
Nsg23
S'ADD'
p587
sg25
S'0x21040L'
p588
sg27
Nsba(ibclass
BInstr
p589
(dp590
g2
Nsg17
S'ADD     R1, R1, #0xC0   ; src'
p591
sg19
S'c01081e2'
p592
sg21
Vadd r1, r1, #0xc0
p593
sg5
L135236L
sg6
Nsg23
S'ADD'
p594
sg25
S'0x21044L'
p595
sg27
Nsba(ibclass
BInstr
p596
(dp597
g2
Nsg17
S'MOV     R2, #0x20       ; n'
p598
sg19
S'2020a0e3'
p599
sg21
Vmov r2, #0x20
p600
sg5
L135240L
sg6
Nsg23
S'MOV'
p601
sg25
S'0x21048L'
p602
sg27
Nsba(ibclass
BInstr
p603
(dp604
g2
Nsg17
S'BL      memcpy'
p605
sg19
S'ecbeffeb'
p606
sg21
Vbl #0xfffefbb8
p607
sg5
L135244L
sg6
Nsg23
S'BL'
p608
sg25
S'0x2104cL'
p609
sg27
Nsba(ibclass
BInstr
p610
(dp611
g2
Nsg17
S'LDR     R3, [s,#0x28]'
p612
sg19
S'283094e5'
p613
sg21
Vldr r3, [r4, #0x28]
p614
sg5
L135248L
sg6
Nsg23
S'LDR'
p615
sg25
S'0x21050L'
p616
sg27
Nsba(ibclass
BInstr
p617
(dp618
g2
Nsg17
S'CMP     R3, #0'
p619
sg19
S'000053e3'
p620
sg21
Vcmp r3, #0
p621
sg5
L135252L
sg6
Nsg23
S'CMP'
p622
sg25
S'0x21054L'
p623
sg27
Nsba(ibclass
BInstr
p624
(dp625
g2
Nsg17
S'MOVNE   R3, #0'
p626
sg19
S'0030a013'
p627
sg21
Vmovne r3, #0
p628
sg5
L135256L
sg6
Nsg23
S'MOV'
p629
sg25
S'0x21058L'
p630
sg27
Nsba(ibclass
BInstr
p631
(dp632
g2
Nsg17
S'STRNEB  R3, [p,#0x22]'
p633
sg19
S'2230c715'
p634
sg21
Vstrbne r3, [r7, #0x22]
p635
sg5
L135260L
sg6
Nsg23
S'STR'
p636
sg25
S'0x2105cL'
p637
sg27
Nsba(ibclass
BInstr
p638
(dp639
g2
Nsg17
S'ADDNE   R6, p, #0x23'
p640
sg19
S'23608712'
p641
sg21
Vaddne r6, r7, #0x23
p642
sg5
L135264L
sg6
Nsg23
S'ADD'
p643
sg25
S'0x21060L'
p644
sg27
Nsba(ibclass
BInstr
p645
(dp646
g2
Nsg17
S'BNE     loc_210A0'
p647
sg19
S'0d00001a'
p648
sg21
Vbne #0x3c
p649
sg5
L135268L
sg6
Nsg23
g117
sg25
S'0x21064L'
p650
sg27
Nsbasg119
(lp651
S'LDR ireg, mem'
p652
aS'LDR R2, mem'
p653
aS'LDR R7, mem'
p654
aS'LDR R3, mem'
p655
aS'MOV R2, R2,ASR#8'
p656
aS'STRB R2, mem'
p657
aS'LDR R2, mem'
p658
aS'ADD R7, R7, R3'
p659
aS'STRB R2, mem'
p660
aS'LDR R1, mem'
p661
aS'ADD R0, p, #2'
p662
aS'ADD R1, R1, #0xC0'
p663
aS'MOV R2, #0x20'
p664
aS'BL memcpy'
p665
aS'LDR R3, mem'
p666
aS'CMP R3, #0'
p667
aS'MOVNE R3, #0'
p668
aS'STRNEB R3, mem'
p669
aS'ADDNE R6, p, #0x23'
p670
aS'BNE func'
p671
asg135
Nsg5
S'0x21018L'
p672
sg137
(lp673
S'0x21008L'
p674
aS'0x21238L'
p675
asg6
Nsg139
(lp676
S'0x21068L'
p677
aS'0x210a0L'
p678
asg143
Nsg144
Nsg145
S'9019f5f25fe08929f366b42154b8f91b'
p679
sg147
S'f1e87931ba9bfc386d2ccb9a9201469d'
p680
sg149
(lp681
g517
ag524
ag531
ag538
ag545
ag552
ag559
ag566
ag573
ag580
ag587
ag594
ag601
ag608
ag615
ag622
ag629
ag636
ag643
ag117
asg151
Nsba(ibclass
BBasicBlock
p682
(dp683
g12
Nsg13
(lp684
(ibclass
BInstr
p685
(dp686
g2
Nsg17
S'LDR     R3, [s,#0xC0]'
p687
sg19
S'c03094e5'
p688
sg21
Vldr r3, [r4, #0xc0]
p689
sg5
L135272L
sg6
Nsg23
S'LDR'
p690
sg25
S'0x21068L'
p691
sg27
Nsba(ibclass
BInstr
p692
(dp693
g2
Nsg17
S'ADD     p, R7, #0x23'
p694
sg19
S'236087e2'
p695
sg21
Vadd r6, r7, #0x23
p696
sg5
L135276L
sg6
Nsg23
S'ADD'
p697
sg25
S'0x2106cL'
p698
sg27
Nsba(ibclass
BInstr
p699
(dp700
g2
Nsg17
S'LDR     R8, [R3,#0x44]'
p701
sg19
S'448093e5'
p702
sg21
Vldr r8, [r3, #0x44]
p703
sg5
L135280L
sg6
Nsg23
S'LDR'
p704
sg25
S'0x21070L'
p705
sg27
Nsba(ibclass
BInstr
p706
(dp707
g2
Nsg17
S'CMP     R8, #0'
p708
sg19
S'000058e3'
p709
sg21
Vcmp r8, #0
p710
sg5
L135284L
sg6
Nsg23
S'CMP'
p711
sg25
S'0x21074L'
p712
sg27
Nsba(ibclass
BInstr
p713
(dp714
g2
Nsg17
S'STRB    R8, [R7,#0x22]'
p715
sg19
S'2280c7e5'
p716
sg21
Vstrb r8, [r7, #0x22]
p717
sg5
L135288L
sg6
Nsg23
S'STR'
p718
sg25
S'0x21078L'
p719
sg27
Nsba(ibclass
BInstr
p720
(dp721
g2
Nsg17
S'BEQ     loc_210A0'
p722
sg19
S'0700000a'
p723
sg21
Vbeq #0x24
p724
sg5
L135292L
sg6
Nsg23
g117
sg25
S'0x2107cL'
p725
sg27
Nsbasg119
(lp726
S'LDR R3, mem'
p727
aS'ADD p, R7, #0x23'
p728
aS'LDR R8, mem'
p729
aS'CMP R8, #0'
p730
aS'STRB R8, mem'
p731
aS'BEQ func'
p732
asg135
Nsg5
S'0x21068L'
p733
sg137
(lp734
S'0x21018L'
p735
asg6
Nsg139
(lp736
S'0x21080L'
p737
aS'0x210a0L'
p738
asg143
Nsg144
Nsg145
S'3b1b7afb9c6f2d751c4b4c4d226add68'
p739
sg147
S'43eca14bc3e3c4ee9b62da9d03df4d27'
p740
sg149
(lp741
g690
ag697
ag704
ag711
ag718
ag117
asg151
Nsba(ibclass
BBasicBlock
p742
(dp743
g12
Nsg13
(lp744
(ibclass
BInstr
p745
(dp746
g2
Nsg17
S'CMP     R8, #0x20'
p747
sg19
S'200058e3'
p748
sg21
Vcmp r8, #0x20
p749
sg5
L135296L
sg6
Nsg23
S'CMP'
p750
sg25
S'0x21080L'
p751
sg27
Nsba(ibclass
BInstr
p752
(dp753
g2
Nsg17
S'BGT     loc_21334'
p754
sg19
S'aa0000ca'
p755
sg21
Vbgt #0x2b0
p756
sg5
L135300L
sg6
Nsg23
g117
sg25
S'0x21084L'
p757
sg27
Nsbasg119
(lp758
S'CMP R8, #0x20'
p759
aS'BGT func'
p760
asg135
Nsg5
S'0x21080L'
p761
sg137
(lp762
S'0x21068L'
p763
asg6
Nsg139
(lp764
S'0x21088L'
p765
aS'0x21334L'
p766
asg143
Nsg144
Nsg145
S'c78fd620a449e3c979d3f3ec12d4ee88'
p767
sg147
S'9f4ea5edbf3a26c09f982b8779056bbd'
p768
sg149
(lp769
g750
ag117
asg151
Nsba(ibclass
BBasicBlock
p770
(dp771
g12
Nsg13
(lp772
(ibclass
BInstr
p773
(dp774
g2
Nsg17
S'LDR     R1, [s,#0xC0]'
p775
sg19
S'c01094e5'
p776
sg21
Vldr r1, [r4, #0xc0]
p777
sg5
L135304L
sg6
Nsg23
S'LDR'
p778
sg25
S'0x21088L'
p779
sg27
Nsba(ibclass
BInstr
p780
(dp781
g2
Nsg17
S'MOV     R0, R6          ; dest'
p782
sg19
S'0600a0e1'
p783
sg21
Vmov r0, r6
p784
sg5
L135308L
sg6
Nsg23
S'MOV'
p785
sg25
S'0x2108cL'
p786
sg27
Nsba(ibclass
BInstr
p787
(dp788
g2
Nsg17
S'ADD     R1, R1, #0x48   ; src'
p789
sg19
S'481081e2'
p790
sg21
Vadd r1, r1, #0x48
p791
sg5
L135312L
sg6
Nsg23
S'ADD'
p792
sg25
S'0x21090L'
p793
sg27
Nsba(ibclass
BInstr
p794
(dp795
g2
Nsg17
S'MOV     R2, R8          ; n'
p796
sg19
S'0820a0e1'
p797
sg21
Vmov r2, r8
p798
sg5
L135316L
sg6
Nsg23
S'MOV'
p799
sg25
S'0x21094L'
p800
sg27
Nsba(ibclass
BInstr
p801
(dp802
g2
Nsg17
S'BL      memcpy'
p803
sg19
S'd9beffeb'
p804
sg21
Vbl #0xfffefb6c
p805
sg5
L135320L
sg6
Nsg23
S'BL'
p806
sg25
S'0x21098L'
p807
sg27
Nsba(ibclass
BInstr
p808
(dp809
g2
Nsg17
S'ADD     R6, R6, R8'
p810
sg19
S'086086e0'
p811
sg21
Vadd r6, r6, r8
p812
sg5
L135324L
sg6
Nsg23
S'ADD'
p813
sg25
S'0x2109cL'
p814
sg27
Nsbasg119
(lp815
S'LDR R1, mem'
p816
aS'MOV R0, R6'
p817
aS'ADD R1, R1, #0x48'
p818
aS'MOV R2, R8'
p819
aS'BL memcpy'
p820
aS'ADD R6, R6, R8'
p821
asg135
Nsg5
S'0x21088L'
p822
sg137
(lp823
S'0x21080L'
p824
asg6
Nsg139
(lp825
S'0x210a0L'
p826
asg143
Nsg144
Nsg145
S'7664f5d52395a530506caeb747e72151'
p827
sg147
S'dfedb9d006e518371a79a982ef4358bd'
p828
sg149
(lp829
g778
ag785
ag792
ag799
ag806
ag813
asg151
Nsba(ibclass
BBasicBlock
p830
(dp831
g12
Nsg13
(lp832
(ibclass
BInstr
p833
(dp834
g2
Nsg17
S'LDR     R3, [s,#8]'
p835
sg19
S'083094e5'
p836
sg21
Vldr r3, [r4, #8]
p837
sg5
L135328L
sg6
Nsg23
S'LDR'
p838
sg25
S'0x210a0L'
p839
sg27
Nsba(ibclass
BInstr
p840
(dp841
g2
Nsg17
S'LDR     R3, [R3,#0x64]'
p842
sg19
S'643093e5'
p843
sg21
Vldr r3, [r3, #0x64]
p844
sg5
L135332L
sg6
Nsg23
S'LDR'
p845
sg25
S'0x210a4L'
p846
sg27
Nsba(ibclass
BInstr
p847
(dp848
g2
Nsg17
S'LDR     R3, [R3,#0x38]'
p849
sg19
S'383093e5'
p850
sg21
Vldr r3, [r3, #0x38]
p851
sg5
L135336L
sg6
Nsg23
S'LDR'
p852
sg25
S'0x210a8L'
p853
sg27
Nsba(ibclass
BInstr
p854
(dp855
g2
Nsg17
S'TST     R3, #8'
p856
sg19
S'080013e3'
p857
sg21
Vtst r3, #8
p858
sg5
L135340L
sg6
Nsg23
S'TST'
p859
sg25
S'0x210acL'
p860
sg27
Nsba(ibclass
BInstr
p861
(dp862
g2
Nsg17
S'BEQ     loc_210E8'
p863
sg19
S'0c00000a'
p864
sg21
Vbeq #0x38
p865
sg5
L135344L
sg6
Nsg23
g117
sg25
S'0x210b0L'
p866
sg27
Nsbasg119
(lp867
S'LDR R3, mem'
p868
aS'LDR R3, mem'
p869
aS'LDR R3, mem'
p870
aS'TST R3, #8'
p871
aS'BEQ func'
p872
asg135
Nsg5
S'0x210a0L'
p873
sg137
(lp874
S'0x21018L'
p875
aS'0x21068L'
p876
aS'0x21088L'
p877
asg6
Nsg139
(lp878
S'0x210b4L'
p879
aS'0x210e8L'
p880
asg143
Nsg144
Nsg145
S'21aa54f108f9798f430e2d5c3ae9bac4'
p881
sg147
S'6e25525dd780f31b403f6e921f458b1c'
p882
sg149
(lp883
g838
ag845
ag852
ag859
ag117
asg151
Nsba(ibclass
BBasicBlock
p884
(dp885
g12
Nsg13
(lp886
(ibclass
BInstr
p887
(dp888
g2
Nsg17
S'LDR     R3, [s,#0x5C]'
p889
sg19
S'5c3094e5'
p890
sg21
Vldr r3, [r4, #0x5c]
p891
sg5
L135348L
sg6
Nsg23
S'LDR'
p892
sg25
S'0x210b4L'
p893
sg27
Nsba(ibclass
BInstr
p894
(dp895
g2
Nsg17
S'LDR     R3, [R3,#0x204]'
p896
sg19
S'043293e5'
p897
sg21
Vldr r3, [r3, #0x204]
p898
sg5
L135352L
sg6
Nsg23
S'LDR'
p899
sg25
S'0x210b8L'
p900
sg27
Nsba(ibclass
BInstr
p901
(dp902
g2
Nsg17
S'CMP     R3, #0x100'
p903
sg19
S'010c53e3'
p904
sg21
Vcmp r3, #0x100
p905
sg5
L135356L
sg6
Nsg23
S'CMP'
p906
sg25
S'0x210bcL'
p907
sg27
Nsba(ibclass
BInstr
p908
(dp909
g2
Nsg17
S'BHI     loc_21310'
p910
sg19
S'9200008a'
p911
sg21
Vbhi #0x250
p912
sg5
L135360L
sg6
Nsg23
g117
sg25
S'0x210c0L'
p913
sg27
Nsbasg119
(lp914
S'LDR R3, mem'
p915
aS'LDR R3, mem'
p916
aS'CMP R3, #0x100'
p917
aS'BHI func'
p918
asg135
Nsg5
S'0x210b4L'
p919
sg137
(lp920
S'0x210a0L'
p921
asg6
Nsg139
(lp922
S'0x210c4L'
p923
aS'0x21310L'
p924
asg143
Nsg144
Nsg145
S'd9812e74326a7ebe01ae9e2a00bbb5ee'
p925
sg147
S'dec398bd62fe739df2a1291651fb9926'
p926
sg149
(lp927
g892
ag899
ag906
ag117
asg151
Nsba(ibclass
BBasicBlock
p928
(dp929
g12
Nsg13
(lp930
(ibclass
BInstr
p931
(dp932
g2
Nsg17
S'STRB    R3, [p],#1'
p933
sg19
S'0130c6e4'
p934
sg21
Vstrb r3, [r6], #1
p935
sg5
L135364L
sg6
Nsg23
S'STR'
p936
sg25
S'0x210c4L'
p937
sg27
Nsba(ibclass
BInstr
p938
(dp939
g2
Nsg17
S'LDR     R1, [s,#0x5C]'
p940
sg19
S'5c1094e5'
p941
sg21
Vldr r1, [r4, #0x5c]
p942
sg5
L135368L
sg6
Nsg23
S'LDR'
p943
sg25
S'0x210c8L'
p944
sg27
Nsba(ibclass
BInstr
p945
(dp946
g2
Nsg17
S'MOV     R0, p           ; dest'
p947
sg19
S'0600a0e1'
p948
sg21
Vmov r0, r6
p949
sg5
L135372L
sg6
Nsg23
S'MOV'
p950
sg25
S'0x210ccL'
p951
sg27
Nsba(ibclass
BInstr
p952
(dp953
g2
Nsg17
S'LDR     R2, [R1,#0x204] ; n'
p954
sg19
S'042291e5'
p955
sg21
Vldr r2, [r1, #0x204]
p956
sg5
L135376L
sg6
Nsg23
S'LDR'
p957
sg25
S'0x210d0L'
p958
sg27
Nsba(ibclass
BInstr
p959
(dp960
g2
Nsg17
S'ADD     R1, R1, #4      ; src'
p961
sg19
S'041081e2'
p962
sg21
Vadd r1, r1, #4
p963
sg5
L135380L
sg6
Nsg23
S'ADD'
p964
sg25
S'0x210d4L'
p965
sg27
Nsba(ibclass
BInstr
p966
(dp967
g2
Nsg17
S'BL      memcpy'
p968
sg19
S'c9beffeb'
p969
sg21
Vbl #0xfffefb2c
p970
sg5
L135384L
sg6
Nsg23
S'BL'
p971
sg25
S'0x210d8L'
p972
sg27
Nsba(ibclass
BInstr
p973
(dp974
g2
Nsg17
S'LDR     R3, [s,#0x5C]'
p975
sg19
S'5c3094e5'
p976
sg21
Vldr r3, [r4, #0x5c]
p977
sg5
L135388L
sg6
Nsg23
S'LDR'
p978
sg25
S'0x210dcL'
p979
sg27
Nsba(ibclass
BInstr
p980
(dp981
g2
Nsg17
S'LDR     R3, [R3,#0x204]'
p982
sg19
S'043293e5'
p983
sg21
Vldr r3, [r3, #0x204]
p984
sg5
L135392L
sg6
Nsg23
S'LDR'
p985
sg25
S'0x210e0L'
p986
sg27
Nsba(ibclass
BInstr
p987
(dp988
g2
Nsg17
S'ADD     p, p, R3'
p989
sg19
S'036086e0'
p990
sg21
Vadd r6, r6, r3
p991
sg5
L135396L
sg6
Nsg23
S'ADD'
p992
sg25
S'0x210e4L'
p993
sg27
Nsbasg119
(lp994
S'STRB R3, mem,#1'
p995
aS'LDR R1, mem'
p996
aS'MOV R0, p'
p997
aS'LDR R2, mem'
p998
aS'ADD R1, R1, #4'
p999
aS'BL memcpy'
p1000
aS'LDR R3, mem'
p1001
aS'LDR R3, mem'
p1002
aS'ADD p, p, R3'
p1003
asg135
Nsg5
S'0x210c4L'
p1004
sg137
(lp1005
S'0x210b4L'
p1006
asg6
Nsg139
(lp1007
S'0x210e8L'
p1008
asg143
Nsg144
Nsg145
S'82138053e8457e44f0e0561d0cc05c0a'
p1009
sg147
S'cd2199f8c75b02fe90ccdf30bcca7fc3'
p1010
sg149
(lp1011
g936
ag943
ag950
ag957
ag964
ag971
ag978
ag985
ag992
asg151
Nsba(ibclass
BBasicBlock
p1012
(dp1013
g12
Nsg13
(lp1014
(ibclass
BInstr
p1015
(dp1016
g2
Nsg17
S'MOV     R0, s           ; s'
p1017
sg19
S'0400a0e1'
p1018
sg21
Vmov r0, r4
p1019
sg5
L135400L
sg6
Nsg23
S'MOV'
p1020
sg25
S'0x210e8L'
p1021
sg27
Nsba(ibclass
BInstr
p1022
(dp1023
g2
Nsg17
S'BL      SSL_get_ciphers'
p1024
sg19
S'106c00eb'
p1025
sg21
Vbl #0x1b048
p1026
sg5
L135404L
sg6
Nsg23
S'BL'
p1027
sg25
S'0x210ecL'
p1028
sg27
Nsba(ibclass
BInstr
p1029
(dp1030
g2
Nsg17
S'ADD     R8, p, #2'
p1031
sg19
S'028086e2'
p1032
sg21
Vadd r8, r6, #2
p1033
sg5
L135408L
sg6
Nsg23
S'ADD'
p1034
sg25
S'0x210f0L'
p1035
sg27
Nsba(ibclass
BInstr
p1036
(dp1037
g2
Nsg17
S'MOV     R1, R0          ; sk'
p1038
sg19
S'0010a0e1'
p1039
sg21
Vmov r1, r0
p1040
sg5
L135412L
sg6
Nsg23
S'MOV'
p1041
sg25
S'0x210f4L'
p1042
sg27
Nsba(ibclass
BInstr
p1043
(dp1044
g2
Nsg17
S'MOV     R2, R8          ; p'
p1045
sg19
S'0820a0e1'
p1046
sg21
Vmov r2, r8
p1047
sg5
L135416L
sg6
Nsg23
S'MOV'
p1048
sg25
S'0x210f8L'
p1049
sg27
Nsba(ibclass
BInstr
p1050
(dp1051
g2
Nsg17
S'MOV     R0, s           ; s'
p1052
sg19
S'0400a0e1'
p1053
sg21
Vmov r0, r4
p1054
sg5
L135420L
sg6
Nsg23
S'MOV'
p1055
sg25
S'0x210fcL'
p1056
sg27
Nsba(ibclass
BInstr
p1057
(dp1058
g2
Nsg17
S'MOV     R3, #0          ; put_cb'
p1059
sg19
S'0030a0e3'
p1060
sg21
Vmov r3, #0
p1061
sg5
L135424L
sg6
Nsg23
S'MOV'
p1062
sg25
S'0x21100L'
p1063
sg27
Nsba(ibclass
BInstr
p1064
(dp1065
g2
Nsg17
S'BL      ssl_cipher_list_to_bytes'
p1066
sg19
S'037500eb'
p1067
sg21
Vbl #0x1d414
p1068
sg5
L135428L
sg6
Nsg23
S'BL'
p1069
sg25
S'0x21104L'
p1070
sg27
Nsba(ibclass
BInstr
p1071
(dp1072
g2
Nsg17
S'SUBS    R11, R0, #0'
p1073
sg19
S'00b050e2'
p1074
sg21
Vsubs fp, r0, #0
p1075
sg5
L135432L
sg6
Nsg23
S'SUB'
p1076
sg25
S'0x21108L'
p1077
sg27
Nsba(ibclass
BInstr
p1078
(dp1079
g2
Nsg17
S'BEQ     loc_21358'
p1080
sg19
S'9100000a'
p1081
sg21
Vbeq #0x24c
p1082
sg5
L135436L
sg6
Nsg23
g117
sg25
S'0x2110cL'
p1083
sg27
Nsbasg119
(lp1084
S'MOV R0, s'
p1085
aS'BL SSL_get_ciphers'
p1086
aS'ADD R8, p, #2'
p1087
aS'MOV R1, R0'
p1088
aS'MOV R2, R8'
p1089
aS'MOV R0, s'
p1090
aS'MOV R3, #0'
p1091
aS'BL ssl_cipher_list_to_bytes'
p1092
aS'SUBS R11, R0, #0'
p1093
aS'BEQ func'
p1094
asg135
Nsg5
S'0x210e8L'
p1095
sg137
(lp1096
S'0x210a0L'
p1097
aS'0x210c4L'
p1098
asg6
Nsg139
(lp1099
S'0x21110L'
p1100
aS'0x21358L'
p1101
asg143
Nsg144
Nsg145
S'16e7af98e446fa0c6076b2a6bb5d05b2'
p1102
sg147
S'b8e79c9aefe2a2e1f61ab5ff93929510'
p1103
sg149
(lp1104
g1020
ag1027
ag1034
ag1041
ag1048
ag1055
ag1062
ag1069
ag1076
ag117
asg151
Nsba(ibclass
BBasicBlock
p1105
(dp1106
g12
Nsg13
(lp1107
(ibclass
BInstr
p1108
(dp1109
g2
Nsg17
S'MOV     R3, i,ASR#8'
p1110
sg19
S'4b34a0e1'
p1111
sg21
Vasr r3, fp, #8
p1112
sg5
L135440L
sg6
Nsg23
S'MOV'
p1113
sg25
S'0x21110L'
p1114
sg27
Nsba(ibclass
BInstr
p1115
(dp1116
g2
Nsg17
S'STRB    R3, [p]'
p1117
sg19
S'0030c6e5'
p1118
sg21
Vstrb r3, [r6]
p1119
sg5
L135444L
sg6
Nsg23
S'STR'
p1120
sg25
S'0x21114L'
p1121
sg27
Nsba(ibclass
BInstr
p1122
(dp1123
g2
Nsg17
S'STRB    i, [p,#1]'
p1124
sg19
S'01b0c6e5'
p1125
sg21
Vstrb fp, [r6, #1]
p1126
sg5
L135448L
sg6
Nsg23
S'STR'
p1127
sg25
S'0x21118L'
p1128
sg27
Nsba(ibclass
BInstr
p1129
(dp1130
g2
Nsg17
S'LDR     p, [s,#0x100]'
p1131
sg19
S'006194e5'
p1132
sg21
Vldr r6, [r4, #0x100]
p1133
sg5
L135452L
sg6
Nsg23
S'LDR'
p1134
sg25
S'0x2111cL'
p1135
sg27
Nsba(ibclass
BInstr
p1136
(dp1137
g2
Nsg17
S'ADD     R10, R8, R11'
p1138
sg19
S'0ba088e0'
p1139
sg21
Vadd sl, r8, fp
p1140
sg5
L135456L
sg6
Nsg23
S'ADD'
p1141
sg25
S'0x21120L'
p1142
sg27
Nsba(ibclass
BInstr
p1143
(dp1144
g2
Nsg17
S'ANDS    R6, R6, #0x20000'
p1145
sg19
S'026816e2'
p1146
sg21
Vands r6, r6, #0x20000
p1147
sg5
L135460L
sg6
Nsg23
S'AND'
p1148
sg25
S'0x21124L'
p1149
sg27
Nsba(ibclass
BInstr
p1150
(dp1151
g2
Nsg17
S'BNE     loc_2118C'
p1152
sg19
S'1700001a'
p1153
sg21
Vbne #0x64
p1154
sg5
L135464L
sg6
Nsg23
g117
sg25
S'0x21128L'
p1155
sg27
Nsbasg119
(lp1156
S'MOV R3, i,ASR#8'
p1157
aS'STRB R3, mem'
p1158
aS'STRB i, mem'
p1159
aS'LDR p, mem'
p1160
aS'ADD R10, R8, R11'
p1161
aS'ANDS R6, R6, #address'
p1162
aS'BNE func'
p1163
asg135
Nsg5
S'0x21110L'
p1164
sg137
(lp1165
S'0x210e8L'
p1166
asg6
Nsg139
(lp1167
S'0x2112cL'
p1168
aS'0x2118cL'
p1169
asg143
Nsg144
Nsg145
S'50adadec7d287267195a11b758ab9be6'
p1170
sg147
S'81f974cc53b99e286caf17dc4d4cfbc1'
p1171
sg149
(lp1172
g1113
ag1120
ag1127
ag1134
ag1141
ag1148
ag117
asg151
Nsba(ibclass
BBasicBlock
p1173
(dp1174
g12
Nsg13
(lp1175
(ibclass
BInstr
p1176
(dp1177
g2
Nsg17
S'LDR     R3, [s,#0xE4]'
p1178
sg19
S'e43094e5'
p1179
sg21
Vldr r3, [r4, #0xe4]
p1180
sg5
L135468L
sg6
Nsg23
S'LDR'
p1181
sg25
S'0x2112cL'
p1182
sg27
Nsba(ibclass
BInstr
p1183
(dp1184
g2
Nsg17
S'LDR     R0, [R3,#0x98]'
p1185
sg19
S'980093e5'
p1186
sg21
Vldr r0, [r3, #0x98]
p1187
sg5
L135472L
sg6
Nsg23
S'LDR'
p1188
sg25
S'0x21130L'
p1189
sg27
Nsba(ibclass
BInstr
p1190
(dp1191
g2
Nsg17
S'CMP     R0, #0'
p1192
sg19
S'000050e3'
p1193
sg21
Vcmp r0, #0
p1194
sg5
L135476L
sg6
Nsg23
S'CMP'
p1195
sg25
S'0x21134L'
p1196
sg27
Nsba(ibclass
BInstr
p1197
(dp1198
g2
Nsg17
S'BEQ     loc_2118C'
p1199
sg19
S'1300000a'
p1200
sg21
Vbeq #0x54
p1201
sg5
L135480L
sg6
Nsg23
g117
sg25
S'0x21138L'
p1202
sg27
Nsbasg119
(lp1203
S'LDR R3, mem'
p1204
aS'LDR R0, mem'
p1205
aS'CMP R0, #0'
p1206
aS'BEQ func'
p1207
asg135
Nsg5
S'0x2112cL'
p1208
sg137
(lp1209
S'0x21110L'
p1210
asg6
Nsg139
(lp1211
S'0x2113cL'
p1212
aS'0x2118cL'
p1213
asg143
Nsg144
Nsg145
S'd9812e74326a7ebe01ae9e2a00bbb5ee'
p1214
sg147
S'21e6738b0dea251e7e8aae1752e26080'
p1215
sg149
(lp1216
g1181
ag1188
ag1195
ag117
asg151
Nsba(ibclass
BBasicBlock
p1217
(dp1218
g12
Nsg13
(lp1219
(ibclass
BInstr
p1220
(dp1221
g2
Nsg17
S'BL      sk_num'
p1222
sg19
S'3abfffeb'
p1223
sg21
Vbl #0xfffefcf0
p1224
sg5
L135484L
sg6
Nsg23
S'BL'
p1225
sg25
S'0x2113cL'
p1226
sg27
Nsba(ibclass
BInstr
p1227
(dp1228
g2
Nsg17
S'ADD     R3, R0, #1'
p1229
sg19
S'013080e2'
p1230
sg21
Vadd r3, r0, #1
p1231
sg5
L135488L
sg6
Nsg23
S'ADD'
p1232
sg25
S'0x21140L'
p1233
sg27
Nsba(ibclass
BInstr
p1234
(dp1235
g2
Nsg17
S'CMP     j, #0'
p1236
sg19
S'000050e3'
p1237
sg21
Vcmp r0, #0
p1238
sg5
L135492L
sg6
Nsg23
S'CMP'
p1239
sg25
S'0x21144L'
p1240
sg27
Nsba(ibclass
BInstr
p1241
(dp1242
g2
Nsg17
S'STRB    R3, [R8,i]'
p1243
sg19
S'0b30c8e7'
p1244
sg21
Vstrb r3, [r8, fp]
p1245
sg5
L135496L
sg6
Nsg23
S'STR'
p1246
sg25
S'0x21148L'
p1247
sg27
Nsba(ibclass
BInstr
p1248
(dp1249
g2
Nsg17
S'MOV     R9, j'
p1250
sg19
S'0090a0e1'
p1251
sg21
Vmov sb, r0
p1252
sg5
L135500L
sg6
Nsg23
S'MOV'
p1253
sg25
S'0x2114cL'
p1254
sg27
Nsba(ibclass
BInstr
p1255
(dp1256
g2
Nsg17
S'ADD     i, p, #1'
p1257
sg19
S'01b08ae2'
p1258
sg21
Vadd fp, sl, #1
p1259
sg5
L135504L
sg6
Nsg23
S'ADD'
p1260
sg25
S'0x21150L'
p1261
sg27
Nsba(ibclass
BInstr
p1262
(dp1263
g2
Nsg17
S'BLE     loc_21198'
p1264
sg19
S'0f0000da'
p1265
sg21
Vble #0x44
p1266
sg5
L135508L
sg6
Nsg23
g117
sg25
S'0x21154L'
p1267
sg27
Nsbasg119
(lp1268
S'BL sk_num'
p1269
aS'ADD R3, R0, #1'
p1270
aS'CMP j, #0'
p1271
aS'STRB R3, mem'
p1272
aS'MOV R9, j'
p1273
aS'ADD i, p, #1'
p1274
aS'BLE func'
p1275
asg135
Nsg5
S'0x2113cL'
p1276
sg137
(lp1277
S'0x2112cL'
p1278
asg6
Nsg139
(lp1279
S'0x21158L'
p1280
aS'0x21198L'
p1281
asg143
Nsg144
Nsg145
S'50b38ffbe35e83380ea1447ac40f183d'
p1282
sg147
S'f642e039ed632b1ef3f09cedaab5456d'
p1283
sg149
(lp1284
g1225
ag1232
ag1239
ag1246
ag1253
ag1260
ag117
asg151
Nsba(ibclass
BBasicBlock
p1285
(dp1286
g12
Nsg13
(lp1287
(ibclass
BInstr
p1288
(dp1289
g2
Nsg17
S'MOV     R8, #1'
p1290
sg19
S'0180a0e3'
p1291
sg21
Vmov r8, #1
p1292
sg5
L135512L
sg6
Nsg23
S'MOV'
p1293
sg25
S'0x21158L'
p1294
sg27
Nsbasg119
(lp1295
S'MOV R8, #1'
p1296
asg135
Nsg5
S'0x21158L'
p1297
sg137
(lp1298
S'0x2113cL'
p1299
asg6
Nsg139
(lp1300
S'0x2115cL'
p1301
asg143
Nsg144
Nsg145
S'17b32100aef1fc19670be7fd58bc85df'
p1302
sg147
S'a5f4d8fe4175dce9dee8de46a393515f'
p1303
sg149
(lp1304
g1293
asg151
Nsba(ibclass
BBasicBlock
p1305
(dp1306
g12
Nsg13
(lp1307
(ibclass
BInstr
p1308
(dp1309
g2
Nsg17
S'LDR     R3, [s,#0xE4]'
p1310
sg19
S'e43094e5'
p1311
sg21
Vldr r3, [r4, #0xe4]
p1312
sg5
L135516L
sg6
Nsg23
S'LDR'
p1313
sg25
S'0x2115cL'
p1314
sg27
Nsba(ibclass
BInstr
p1315
(dp1316
g2
Nsg17
S'MOV     R1, R6'
p1317
sg19
S'0610a0e1'
p1318
sg21
Vmov r1, r6
p1319
sg5
L135520L
sg6
Nsg23
S'MOV'
p1320
sg25
S'0x21160L'
p1321
sg27
Nsba(ibclass
BInstr
p1322
(dp1323
g2
Nsg17
S'LDR     R0, [R3,#0x98]'
p1324
sg19
S'980093e5'
p1325
sg21
Vldr r0, [r3, #0x98]
p1326
sg5
L135524L
sg6
Nsg23
S'LDR'
p1327
sg25
S'0x21164L'
p1328
sg27
Nsba(ibclass
BInstr
p1329
(dp1330
g2
Nsg17
S'BL      sk_value'
p1331
sg19
S'49bdffeb'
p1332
sg21
Vbl #0xfffef52c
p1333
sg5
L135528L
sg6
Nsg23
S'BL'
p1334
sg25
S'0x21168L'
p1335
sg27
Nsba(ibclass
BInstr
p1336
(dp1337
g2
Nsg17
S'ADD     i, i, #1'
p1338
sg19
S'016086e2'
p1339
sg21
Vadd r6, r6, #1
p1340
sg5
L135532L
sg6
Nsg23
S'ADD'
p1341
sg25
S'0x2116cL'
p1342
sg27
Nsba(ibclass
BInstr
p1343
(dp1344
g2
Nsg17
S'LDR     R3, [R0]'
p1345
sg19
S'003090e5'
p1346
sg21
Vldr r3, [r0]
p1347
sg5
L135536L
sg6
Nsg23
S'LDR'
p1348
sg25
S'0x21170L'
p1349
sg27
Nsba(ibclass
BInstr
p1350
(dp1351
g2
Nsg17
S'CMP     R9, i'
p1352
sg19
S'060059e1'
p1353
sg21
Vcmp sb, r6
p1354
sg5
L135540L
sg6
Nsg23
S'CMP'
p1355
sg25
S'0x21174L'
p1356
sg27
Nsba(ibclass
BInstr
p1357
(dp1358
g2
Nsg17
S'STRB    R3, [R10,R8]'
p1359
sg19
S'0830cae7'
p1360
sg21
Vstrb r3, [sl, r8]
p1361
sg5
L135544L
sg6
Nsg23
S'STR'
p1362
sg25
S'0x21178L'
p1363
sg27
Nsba(ibclass
BInstr
p1364
(dp1365
g2
Nsg17
S'ADD     R8, R8, #1'
p1366
sg19
S'018088e2'
p1367
sg21
Vadd r8, r8, #1
p1368
sg5
L135548L
sg6
Nsg23
S'ADD'
p1369
sg25
S'0x2117cL'
p1370
sg27
Nsba(ibclass
BInstr
p1371
(dp1372
g2
Nsg17
S'BGT     loc_2115C'
p1373
sg19
S'f5ffffca'
p1374
sg21
Vbgt #0xffffffdc
p1375
sg5
L135552L
sg6
Nsg23
g117
sg25
S'0x21180L'
p1376
sg27
Nsbasg119
(lp1377
S'LDR R3, mem'
p1378
aS'MOV R1, R6'
p1379
aS'LDR R0, mem'
p1380
aS'BL sk_vregue'
p1381
aS'ADD i, i, #1'
p1382
aS'LDR R3, mem'
p1383
aS'CMP R9, i'
p1384
aS'STRB R3, mem'
p1385
aS'ADD R8, R8, #1'
p1386
aS'BGT func'
p1387
asg135
Nsg5
S'0x2115cL'
p1388
sg137
(lp1389
S'0x21158L'
p1390
aS'0x2115cL'
p1391
asg6
Nsg139
(lp1392
S'0x21184L'
p1393
aS'0x2115cL'
p1394
asg143
Nsg144
Nsg145
S'475069b55ee4f6ae06b8dcf50dea0d12'
p1395
sg147
S'9cfc0ee72d83ad1a0de2a552efcce73c'
p1396
sg149
(lp1397
g1313
ag1320
ag1327
ag1334
ag1341
ag1348
ag1355
ag1362
ag1369
ag117
asg151
Nsba(ibclass
BBasicBlock
p1398
(dp1399
g12
Nsg13
(lp1400
(ibclass
BInstr
p1401
(dp1402
g2
Nsg17
S'ADD     R11, R11, R9'
p1403
sg19
S'09b08be0'
p1404
sg21
Vadd fp, fp, sb
p1405
sg5
L135556L
sg6
Nsg23
S'ADD'
p1406
sg25
S'0x21184L'
p1407
sg27
Nsba(ibclass
BInstr
p1408
(dp1409
g2
Nsg17
S'B       loc_21198'
p1410
sg19
S'020000ea'
p1411
sg21
Vb #0x10
p1412
sg5
L135560L
sg6
Nsg23
g117
sg25
S'0x21188L'
p1413
sg27
Nsbasg119
(lp1414
S'ADD R11, R11, R9'
p1415
aS'B func'
p1416
asg135
Nsg5
S'0x21184L'
p1417
sg137
(lp1418
S'0x2115cL'
p1419
asg6
Nsg139
(lp1420
S'0x21198L'
p1421
asg143
Nsg144
Nsg145
S'f59ed0fb4617df9a98cc94b1d7075f92'
p1422
sg147
S'7c50e13a9c36ce2e0955ce0ef0f66c39'
p1423
sg149
(lp1424
g1406
ag117
asg151
Nsba(ibclass
BBasicBlock
p1425
(dp1426
g12
Nsg13
(lp1427
(ibclass
BInstr
p1428
(dp1429
g2
Nsg17
S'MOV     R3, #1'
p1430
sg19
S'0130a0e3'
p1431
sg21
Vmov r3, #1
p1432
sg5
L135564L
sg6
Nsg23
S'MOV'
p1433
sg25
S'0x2118cL'
p1434
sg27
Nsba(ibclass
BInstr
p1435
(dp1436
g2
Nsg17
S'STRB    R3, [R8,i]'
p1437
sg19
S'0b30c8e7'
p1438
sg21
Vstrb r3, [r8, fp]
p1439
sg5
L135568L
sg6
Nsg23
S'STR'
p1440
sg25
S'0x21190L'
p1441
sg27
Nsba(ibclass
BInstr
p1442
(dp1443
g2
Nsg17
S'ADD     i, p, R3'
p1444
sg19
S'03b08ae0'
p1445
sg21
Vadd fp, sl, r3
p1446
sg5
L135572L
sg6
Nsg23
S'ADD'
p1447
sg25
S'0x21194L'
p1448
sg27
Nsbasg119
(lp1449
S'MOV R3, #1'
p1450
aS'STRB R3, mem'
p1451
aS'ADD i, p, R3'
p1452
asg135
Nsg5
S'0x2118cL'
p1453
sg137
(lp1454
S'0x21110L'
p1455
aS'0x2112cL'
p1456
asg6
Nsg139
(lp1457
S'0x21198L'
p1458
asg143
Nsg144
Nsg145
S'94141225c0b08c090d2deacd212da60f'
p1459
sg147
S'd3ba85e53dc01612553343eddcab62e5'
p1460
sg149
(lp1461
g1433
ag1440
ag1447
asg151
Nsba(ibclass
BBasicBlock
p1462
(dp1463
g12
Nsg13
(lp1464
(ibclass
BInstr
p1465
(dp1466
g2
Nsg17
S'MOV     R3, #0'
p1467
sg19
S'0030a0e3'
p1468
sg21
Vmov r3, #0
p1469
sg5
L135576L
sg6
Nsg23
S'MOV'
p1470
sg25
S'0x21198L'
p1471
sg27
Nsba(ibclass
BInstr
p1472
(dp1473
g2
Nsg17
S'STRB    R3, [p]'
p1474
sg19
S'0030cbe5'
p1475
sg21
Vstrb r3, [fp]
p1476
sg5
L135580L
sg6
Nsg23
S'STR'
p1477
sg25
S'0x2119cL'
p1478
sg27
Nsba(ibclass
BInstr
p1479
(dp1480
g2
Nsg17
S'MOV     R0, s           ; s'
p1481
sg19
S'0400a0e1'
p1482
sg21
Vmov r0, r4
p1483
sg5
L135584L
sg6
Nsg23
S'MOV'
p1484
sg25
S'0x211a0L'
p1485
sg27
Nsba(ibclass
BInstr
p1486
(dp1487
g2
Nsg17
S'BL      ssl_prepare_clienthello_tlsext'
p1488
sg19
S'542e00eb'
p1489
sg21
Vbl #0xb958
p1490
sg5
L135588L
sg6
Nsg23
S'BL'
p1491
sg25
S'0x211a4L'
p1492
sg27
Nsba(ibclass
BInstr
p1493
(dp1494
g2
Nsg17
S'CMP     R0, #0'
p1495
sg19
S'000050e3'
p1496
sg21
Vcmp r0, #0
p1497
sg5
L135592L
sg6
Nsg23
S'CMP'
p1498
sg25
S'0x211a8L'
p1499
sg27
Nsba(ibclass
BInstr
p1500
(dp1501
g2
Nsg17
S'BLE     loc_212D4'
p1502
sg19
S'480000da'
p1503
sg21
Vble #0x128
p1504
sg5
L135596L
sg6
Nsg23
g117
sg25
S'0x211acL'
p1505
sg27
Nsbasg119
(lp1506
S'MOV R3, #0'
p1507
aS'STRB R3, mem'
p1508
aS'MOV R0, s'
p1509
aS'BL ssl_prepare_regienthello_tlsext'
p1510
aS'CMP R0, #0'
p1511
aS'BLE func'
p1512
asg135
Nsg5
S'0x21198L'
p1513
sg137
(lp1514
S'0x2113cL'
p1515
aS'0x21184L'
p1516
aS'0x2118cL'
p1517
asg6
Nsg139
(lp1518
S'0x211b0L'
p1519
aS'0x212d4L'
p1520
asg143
Nsg144
Nsg145
S'31ccd80cc817c0468acb0ba0218bfd3e'
p1521
sg147
S'66a99031cfc690b56a56fe00d09d390e'
p1522
sg149
(lp1523
g1470
ag1477
ag1484
ag1491
ag1498
ag117
asg151
Nsba(ibclass
BBasicBlock
p1524
(dp1525
g12
Nsg13
(lp1526
(ibclass
BInstr
p1527
(dp1528
g2
Nsg17
S'LDR     R3, [SP,#0x40+var_34]'
p1529
sg19
S'0c309de5'
p1530
sg21
Vldr r3, [sp, #0xc]
p1531
sg5
L135600L
sg6
Nsg23
S'LDR'
p1532
sg25
S'0x211b0L'
p1533
sg27
Nsba(ibclass
BInstr
p1534
(dp1535
g2
Nsg17
S'ADD     R1, p, #1       ; buf'
p1536
sg19
S'01108be2'
p1537
sg21
Vadd r1, fp, #1
p1538
sg5
L135604L
sg6
Nsg23
S'ADD'
p1539
sg25
S'0x211b4L'
p1540
sg27
Nsba(ibclass
BInstr
p1541
(dp1542
g2
Nsg17
S'ADD     R2, R3, #0x4000 ; limit'
p1543
sg19
S'012983e2'
p1544
sg21
Vadd r2, r3, #0x4000
p1545
sg5
L135608L
sg6
Nsg23
S'ADD'
p1546
sg25
S'0x211b8L'
p1547
sg27
Nsba(ibclass
BInstr
p1548
(dp1549
g2
Nsg17
S'MOV     R0, s           ; s'
p1550
sg19
S'0400a0e1'
p1551
sg21
Vmov r0, r4
p1552
sg5
L135612L
sg6
Nsg23
S'MOV'
p1553
sg25
S'0x211bcL'
p1554
sg27
Nsba(ibclass
BInstr
p1555
(dp1556
g2
Nsg17
S'ADD     R3, SP, #0x40+al; al'
p1557
sg19
S'14308de2'
p1558
sg21
Vadd r3, sp, #0x14
p1559
sg5
L135616L
sg6
Nsg23
S'ADD'
p1560
sg25
S'0x211c0L'
p1561
sg27
Nsba(ibclass
BInstr
p1562
(dp1563
g2
Nsg17
S'BL      ssl_add_clienthello_tlsext'
p1564
sg19
S'3e3b00eb'
p1565
sg21
Vbl #0xed00
p1566
sg5
L135620L
sg6
Nsg23
S'BL'
p1567
sg25
S'0x211c4L'
p1568
sg27
Nsba(ibclass
BInstr
p1569
(dp1570
g2
Nsg17
S'SUBS    R2, R0, #0'
p1571
sg19
S'002050e2'
p1572
sg21
Vsubs r2, r0, #0
p1573
sg5
L135624L
sg6
Nsg23
S'SUB'
p1574
sg25
S'0x211c8L'
p1575
sg27
Nsba(ibclass
BInstr
p1576
(dp1577
g2
Nsg17
S'BEQ     loc_2137C'
p1578
sg19
S'6a00000a'
p1579
sg21
Vbeq #0x1b0
p1580
sg5
L135628L
sg6
Nsg23
g117
sg25
S'0x211ccL'
p1581
sg27
Nsbasg119
(lp1582
S'LDR R3, mem'
p1583
aS'ADD R1, p, #1'
p1584
aS'ADD R2, R3, #0x4000'
p1585
aS'MOV R0, s'
p1586
aS'ADD R3, SP, #0x40+reg'
p1587
aS'BL ssl_add_regienthello_tlsext'
p1588
aS'SUBS R2, R0, #0'
p1589
aS'BEQ func'
p1590
asg135
Nsg5
S'0x211b0L'
p1591
sg137
(lp1592
S'0x21198L'
p1593
asg6
Nsg139
(lp1594
S'0x211d0L'
p1595
aS'0x2137cL'
p1596
asg143
Nsg144
Nsg145
S'0c4bb7a9496ee7291ef6a2ec471db863'
p1597
sg147
S'82331ed7764242f4f03e2b4aa495c3ad'
p1598
sg149
(lp1599
g1532
ag1539
ag1546
ag1553
ag1560
ag1567
ag1574
ag117
asg151
Nsba(ibclass
BBasicBlock
p1600
(dp1601
g12
Nsg13
(lp1602
(ibclass
BInstr
p1603
(dp1604
g2
Nsg17
S'LDR     R3, [s,#8]'
p1605
sg19
S'083094e5'
p1606
sg21
Vldr r3, [r4, #8]
p1607
sg5
L135632L
sg6
Nsg23
S'LDR'
p1608
sg25
S'0x211d0L'
p1609
sg27
Nsba(ibclass
BInstr
p1610
(dp1611
g2
Nsg17
S'RSB     p, R7, p'
p1612
sg19
S'022067e0'
p1613
sg21
Vrsb r2, r7, r2
p1614
sg5
L135636L
sg6
Nsg23
S'RSB'
p1615
sg25
S'0x211d4L'
p1616
sg27
Nsba(ibclass
BInstr
p1617
(dp1618
g2
Nsg17
S'LDR     R3, [R3,#0x64]'
p1619
sg19
S'643093e5'
p1620
sg21
Vldr r3, [r3, #0x64]
p1621
sg5
L135640L
sg6
Nsg23
S'LDR'
p1622
sg25
S'0x211d8L'
p1623
sg27
Nsba(ibclass
BInstr
p1624
(dp1625
g2
Nsg17
S'MOV     R0, s'
p1626
sg19
S'0400a0e1'
p1627
sg21
Vmov r0, r4
p1628
sg5
L135644L
sg6
Nsg23
S'MOV'
p1629
sg25
S'0x211dcL'
p1630
sg27
Nsba(ibclass
BInstr
p1631
(dp1632
g2
Nsg17
S'MOV     R1, #1'
p1633
sg19
S'0110a0e3'
p1634
sg21
Vmov r1, #1
p1635
sg5
L135648L
sg6
Nsg23
S'MOV'
p1636
sg25
S'0x211e0L'
p1637
sg27
Nsba(ibclass
BInstr
p1638
(dp1639
g2
Nsg17
S'LDR     R12, [R3,#0x40]'
p1640
sg19
S'40c093e5'
p1641
sg21
Vldr ip, [r3, #0x40]
p1642
sg5
L135652L
sg6
Nsg23
S'LDR'
p1643
sg25
S'0x211e4L'
p1644
sg27
Nsba(ibclass
BInstr
p1645
(dp1646
g2
Nsg17
S'MOV     LR, PC'
p1647
sg19
S'0fe0a0e1'
p1648
sg21
Vmov lr, pc
p1649
sg5
L135656L
sg6
Nsg23
S'MOV'
p1650
sg25
S'0x211e8L'
p1651
sg27
Nsba(ibclass
BInstr
p1652
(dp1653
g2
Nsg17
S'BX      R12'
p1654
sg19
S'1cff2fe1'
p1655
sg21
Vbx ip
p1656
sg5
L135660L
sg6
Nsg23
S'BX'
p1657
sg25
S'0x211ecL'
p1658
sg27
Nsba(ibclass
BInstr
p1659
(dp1660
g2
Nsg17
S'LDR     R3, =0x1111'
p1661
sg19
S'0c329fe5'
p1662
sg21
Vldr r3, [pc, #0x20c]
p1663
sg5
L135664L
sg6
Nsg23
S'LDR'
p1664
sg25
S'0x211f0L'
p1665
sg27
Nsba(ibclass
BInstr
p1666
(dp1667
g2
Nsg17
S'STR     R3, [s,#0x34]'
p1668
sg19
S'343084e5'
p1669
sg21
Vstr r3, [r4, #0x34]
p1670
sg5
L135668L
sg6
Nsg23
S'STR'
p1671
sg25
S'0x211f4L'
p1672
sg27
Nsbasg119
(lp1673
S'LDR R3, mem'
p1674
aS'RSB p, R7, p'
p1675
aS'LDR R3, mem'
p1676
aS'MOV R0, s'
p1677
aS'MOV R1, #1'
p1678
aS'LDR R12, mem'
p1679
aS'MOV LR, PC'
p1680
aS'BX R12'
p1681
aS'LDR R3, =0x1111'
p1682
aS'STR R3, mem'
p1683
asg135
Nsg5
S'0x211d0L'
p1684
sg137
(lp1685
S'0x211b0L'
p1686
asg6
Nsg139
(lp1687
S'0x211f8L'
p1688
asg143
Nsg144
Nsg145
S'c5fc95c6c6cfaf1399a45e279449661b'
p1689
sg147
S'605c016126cbcd545dfb7b92db2f94bd'
p1690
sg149
(lp1691
g1608
ag1615
ag1622
ag1629
ag1636
ag1643
ag1650
ag1657
ag1664
ag1671
asg151
Nsba(ibclass
BBasicBlock
p1692
(dp1693
g12
Nsg13
(lp1694
(ibclass
BInstr
p1695
(dp1696
g2
Nsg17
S'LDR     R3, [s,#8]'
p1697
sg19
S'083094e5'
p1698
sg21
Vldr r3, [r4, #8]
p1699
sg5
L135672L
sg6
Nsg23
S'LDR'
p1700
sg25
S'0x211f8L'
p1701
sg27
Nsba(ibclass
BInstr
p1702
(dp1703
g2
Nsg17
S'MOV     R0, s'
p1704
sg19
S'0400a0e1'
p1705
sg21
Vmov r0, r4
p1706
sg5
L135676L
sg6
Nsg23
S'MOV'
p1707
sg25
S'0x211fcL'
p1708
sg27
Nsba(ibclass
BInstr
p1709
(dp1710
g2
Nsg17
S'LDR     R3, [R3,#0x64]'
p1711
sg19
S'643093e5'
p1712
sg21
Vldr r3, [r3, #0x64]
p1713
sg5
L135680L
sg6
Nsg23
S'LDR'
p1714
sg25
S'0x21200L'
p1715
sg27
Nsba(ibclass
BInstr
p1716
(dp1717
g2
Nsg17
S'LDR     R12, [R3,#0x44]'
p1718
sg19
S'44c093e5'
p1719
sg21
Vldr ip, [r3, #0x44]
p1720
sg5
L135684L
sg6
Nsg23
S'LDR'
p1721
sg25
S'0x21204L'
p1722
sg27
Nsba(ibclass
BInstr
p1723
(dp1724
g2
Nsg17
S'MOV     LR, PC'
p1725
sg19
S'0fe0a0e1'
p1726
sg21
Vmov lr, pc
p1727
sg5
L135688L
sg6
Nsg23
S'MOV'
p1728
sg25
S'0x21208L'
p1729
sg27
Nsba(ibclass
BInstr
p1730
(dp1731
g2
Nsg17
S'BX      R12'
p1732
sg19
S'1cff2fe1'
p1733
sg21
Vbx ip
p1734
sg5
L135692L
sg6
Nsg23
S'BX'
p1735
sg25
S'0x2120cL'
p1736
sg27
Nsbasg119
(lp1737
S'LDR R3, mem'
p1738
aS'MOV R0, s'
p1739
aS'LDR R3, mem'
p1740
aS'LDR R12, mem'
p1741
aS'MOV LR, PC'
p1742
aS'BX R12'
p1743
asg135
Nsg5
S'0x211f8L'
p1744
sg137
(lp1745
S'0x20f60L'
p1746
aS'0x211d0L'
p1747
asg6
Nsg139
(lp1748
S'0x21210L'
p1749
asg143
Nsg144
Nsg145
S'85fe973a31fa7593ec56a98c6e6cc4c0'
p1750
sg147
S'91654a83513e35ceb2b7cd77942bee30'
p1751
sg149
(lp1752
g1700
ag1707
ag1714
ag1721
ag1728
ag1735
asg151
Nsba(ibclass
BBasicBlock
p1753
(dp1754
g12
Nsg13
(lp1755
(ibclass
BInstr
p1756
(dp1757
g2
Nsg17
S'ADD     SP, SP, #0x1C'
p1758
sg19
S'1cd08de2'
p1759
sg21
Vadd sp, sp, #0x1c
p1760
sg5
L135696L
sg6
Nsg23
S'ADD'
p1761
sg25
S'0x21210L'
p1762
sg27
Nsba(ibclass
BInstr
p1763
(dp1764
g2
Nsg17
S'LDMFD   SP!, {s-R11,LR}'
p1765
sg19
S'f04fbde8'
p1766
sg21
Vpop {r4, r5, r6, r7, r8, sb, sl, fp, lr}
p1767
sg5
L135700L
sg6
Nsg23
S'LDM'
p1768
sg25
S'0x21214L'
p1769
sg27
Nsba(ibclass
BInstr
p1770
(dp1771
g2
Nsg17
S'BX      LR'
p1772
sg19
S'1eff2fe1'
p1773
sg21
Vbx lr
p1774
sg5
L135704L
sg6
Nsg23
S'BX'
p1775
sg25
S'0x21218L'
p1776
sg27
Nsbasg119
(lp1777
S'ADD SP, SP, #0x1C'
p1778
aS'LDMFD SP!, {s-R11,LR}'
p1779
aS'BX LR'
p1780
asg135
Nsg5
S'0x21210L'
p1781
sg137
(lp1782
S'0x211f8L'
p1783
aS'0x212f4L'
p1784
asg6
Nsg139
(lp1785
sg143
Nsg144
Nsg145
S'fb02e3799554a1c259ca4724e19b2b8e'
p1786
sg147
S'17dc889ff89f4777cb1f481216848ff3'
p1787
sg149
(lp1788
g1761
ag1768
ag1775
asg151
Nsba(ibclass
BBasicBlock
p1789
(dp1790
g12
Nsg13
(lp1791
(ibclass
BInstr
p1792
(dp1793
g2
Nsg17
S'ADD     R2, R2, #0xC0   ; result'
p1794
sg19
S'c02082e2'
p1795
sg21
Vadd r2, r2, #0xc0
p1796
sg5
L135708L
sg6
Nsg23
S'ADD'
p1797
sg25
S'0x2121cL'
p1798
sg27
Nsba(ibclass
BInstr
p1799
(dp1800
g2
Nsg17
S'MOV     R0, s           ; s'
p1801
sg19
S'0400a0e1'
p1802
sg21
Vmov r0, r4
p1803
sg5
L135712L
sg6
Nsg23
S'MOV'
p1804
sg25
S'0x21220L'
p1805
sg27
Nsba(ibclass
BInstr
p1806
(dp1807
g2
Nsg17
S'MOV     R1, #0          ; server'
p1808
sg19
S'0010a0e3'
p1809
sg21
Vmov r1, #0
p1810
sg5
L135716L
sg6
Nsg23
S'MOV'
p1811
sg25
S'0x21224L'
p1812
sg27
Nsba(ibclass
BInstr
p1813
(dp1814
g2
Nsg17
S'MOV     idx, #0x20      ; len'
p1815
sg19
S'2030a0e3'
p1816
sg21
Vmov r3, #0x20
p1817
sg5
L135720L
sg6
Nsg23
S'MOV'
p1818
sg25
S'0x21228L'
p1819
sg27
Nsba(ibclass
BInstr
p1820
(dp1821
g2
Nsg17
S'BL      ssl_fill_hello_random'
p1822
sg19
S'952700eb'
p1823
sg21
Vbl #0x9e5c
p1824
sg5
L135724L
sg6
Nsg23
S'BL'
p1825
sg25
S'0x2122cL'
p1826
sg27
Nsba(ibclass
BInstr
p1827
(dp1828
g2
Nsg17
S'CMP     R0, #0'
p1829
sg19
S'000050e3'
p1830
sg21
Vcmp r0, #0
p1831
sg5
L135728L
sg6
Nsg23
S'CMP'
p1832
sg25
S'0x21230L'
p1833
sg27
Nsba(ibclass
BInstr
p1834
(dp1835
g2
Nsg17
S'BLE     err'
p1836
sg19
S'2e0000da'
p1837
sg21
Vble #0xc0
p1838
sg5
L135732L
sg6
Nsg23
g117
sg25
S'0x21234L'
p1839
sg27
Nsbasg119
(lp1840
S'ADD R2, R2, #0xC0'
p1841
aS'MOV R0, s'
p1842
aS'MOV R1, #0'
p1843
aS'MOV ireg, #0x20'
p1844
aS'BL ssl_fill_hello_random'
p1845
aS'CMP R0, #0'
p1846
aS'BLE err'
p1847
asg135
Nsg5
S'0x2121cL'
p1848
sg137
(lp1849
S'0x20fdcL'
p1850
aS'0x20ffcL'
p1851
aS'0x2127cL'
p1852
asg6
Nsg139
(lp1853
S'0x21238L'
p1854
aS'0x212f4L'
p1855
asg143
Nsg144
Nsg145
S'fa94fcde90e3c8eb4d551e7e051b8845'
p1856
sg147
S'26e0f7481df4a9ea4521a435f02e2e50'
p1857
sg149
(lp1858
g1797
ag1804
ag1811
ag1818
ag1825
ag1832
ag117
asg151
Nsba(ibclass
BBasicBlock
p1859
(dp1860
g12
Nsg13
(lp1861
(ibclass
BInstr
p1862
(dp1863
g2
Nsg17
S'LDR     R3, [s,#8]'
p1864
sg19
S'083094e5'
p1865
sg21
Vldr r3, [r4, #8]
p1866
sg5
L135736L
sg6
Nsg23
S'LDR'
p1867
sg25
S'0x21238L'
p1868
sg27
Nsba(ibclass
BInstr
p1869
(dp1870
g2
Nsg17
S'LDR     R12, [R3,#0x64]'
p1871
sg19
S'64c093e5'
p1872
sg21
Vldr ip, [r3, #0x64]
p1873
sg5
L135740L
sg6
Nsg23
S'LDR'
p1874
sg25
S'0x2123cL'
p1875
sg27
Nsba(ibclass
BInstr
p1876
(dp1877
g2
Nsg17
S'B       loc_21018'
p1878
sg19
S'74ffffea'
p1879
sg21
Vb #0xfffffdd8
p1880
sg5
L135744L
sg6
Nsg23
g117
sg25
S'0x21240L'
p1881
sg27
Nsbasg119
(lp1882
S'LDR R3, mem'
p1883
aS'LDR R12, mem'
p1884
aS'B func'
p1885
asg135
Nsg5
S'0x21238L'
p1886
sg137
(lp1887
S'0x2121cL'
p1888
asg6
Nsg139
(lp1889
S'0x21018L'
p1890
asg143
Nsg144
Nsg145
S'5475768f796b8bef9e1180a7bb8d9996'
p1891
sg147
S'58b96f0e5e1de92ee42ccf8687759af1'
p1892
sg149
(lp1893
g1867
ag1874
ag117
asg151
Nsba(ibclass
BBasicBlock
p1894
(dp1895
g12
Nsg13
(lp1896
(ibclass
BInstr
p1897
(dp1898
g2
Nsg17
S'LDR     R3, [s,#0x100]'
p1899
sg19
S'003194e5'
p1900
sg21
Vldr r3, [r4, #0x100]
p1901
sg5
L135748L
sg6
Nsg23
S'LDR'
p1902
sg25
S'0x21244L'
p1903
sg27
Nsba(ibclass
BInstr
p1904
(dp1905
g2
Nsg17
S'TST     options, #0x8000000'
p1906
sg19
S'020313e3'
p1907
sg21
Vtst r3, #0x8000000
p1908
sg5
L135752L
sg6
Nsg23
S'TST'
p1909
sg25
S'0x21248L'
p1910
sg27
Nsba(ibclass
BInstr
p1911
(dp1912
g2
Nsg17
S'BEQ     loc_212BC'
p1913
sg19
S'1a00000a'
p1914
sg21
Vbeq #0x70
p1915
sg5
L135756L
sg6
Nsg23
g117
sg25
S'0x2124cL'
p1916
sg27
Nsbasg119
(lp1917
S'LDR R3, mem'
p1918
aS'TST options, #address00'
p1919
aS'BEQ func'
p1920
asg135
Nsg5
S'0x21244L'
p1921
sg137
(lp1922
S'0x20fc8L'
p1923
asg6
Nsg139
(lp1924
S'0x21250L'
p1925
aS'0x212bcL'
p1926
asg143
Nsg144
Nsg145
S'dd777ef652da0507ba65ee39c3cb079f'
p1927
sg147
S'afb9038aad66a5889e59f1b7f66a00f1'
p1928
sg149
(lp1929
g1902
ag1909
ag117
asg151
Nsba(ibclass
BBasicBlock
p1930
(dp1931
g12
Nsg13
(lp1932
(ibclass
BInstr
p1933
(dp1934
g2
Nsg17
S'LDR     R2, [s,#0x98]'
p1935
sg19
S'982094e5'
p1936
sg21
Vldr r2, [r4, #0x98]
p1937
sg5
L135760L
sg6
Nsg23
S'LDR'
p1938
sg25
S'0x21250L'
p1939
sg27
Nsba(ibclass
BInstr
p1940
(dp1941
g2
Nsg17
S'LDR     R2, [R2,#0x38]'
p1942
sg19
S'382092e5'
p1943
sg21
Vldr r2, [r2, #0x38]
p1944
sg5
L135764L
sg6
Nsg23
S'LDR'
p1945
sg25
S'0x21254L'
p1946
sg27
Nsba(ibclass
BInstr
p1947
(dp1948
g2
Nsg17
S'TST     R2, #0x30000'
p1949
sg19
S'030812e3'
p1950
sg21
Vtst r2, #0x30000
p1951
sg5
L135768L
sg6
Nsg23
S'TST'
p1952
sg25
S'0x21258L'
p1953
sg27
Nsba(ibclass
BInstr
p1954
(dp1955
g2
Nsg17
S'BNE     loc_213D4'
p1956
sg19
S'5c00001a'
p1957
sg21
Vbne #0x178
p1958
sg5
L135772L
sg6
Nsg23
g117
sg25
S'0x2125cL'
p1959
sg27
Nsbasg119
(lp1960
S'LDR R2, mem'
p1961
aS'LDR R2, mem'
p1962
aS'TST R2, #address'
p1963
aS'BNE func'
p1964
asg135
Nsg5
S'0x21250L'
p1965
sg137
(lp1966
S'0x21244L'
p1967
asg6
Nsg139
(lp1968
S'0x21260L'
p1969
aS'0x213d4L'
p1970
asg143
Nsg144
Nsg145
S'bcbc3ff397a8076230c09c4ff976d546'
p1971
sg147
S'a10bc2f3178761fe9041ca74f14830f8'
p1972
sg149
(lp1973
g1938
ag1945
ag1952
ag117
asg151
Nsba(ibclass
BBasicBlock
p1974
(dp1975
g12
Nsg13
(lp1976
(ibclass
BInstr
p1977
(dp1978
g2
Nsg17
S'TST     options, #0x4000000'
p1979
sg19
S'010313e3'
p1980
sg21
Vtst r3, #0x4000000
p1981
sg5
L135776L
sg6
Nsg23
S'TST'
p1982
sg25
S'0x21260L'
p1983
sg27
Nsba(ibclass
BInstr
p1984
(dp1985
g2
Nsg17
S'BNE     loc_213B0'
p1986
sg19
S'5100001a'
p1987
sg21
Vbne #0x14c
p1988
sg5
L135780L
sg6
Nsg23
g117
sg25
S'0x21264L'
p1989
sg27
Nsbasg119
(lp1990
S'TST options, #address00'
p1991
aS'BNE func'
p1992
asg135
Nsg5
S'0x21260L'
p1993
sg137
(lp1994
S'0x21250L'
p1995
asg6
Nsg139
(lp1996
S'0x21268L'
p1997
aS'0x213b0L'
p1998
asg143
Nsg144
Nsg145
S'fb2fb5c9c8b413efe0bf449ec730a69b'
p1999
sg147
S'b5c2ddfc32089ea84ca075e2879d31de'
p2000
sg149
(lp2001
g1982
ag117
asg151
Nsba(ibclass
BBasicBlock
p2002
(dp2003
g12
Nsg13
(lp2004
(ibclass
BInstr
p2005
(dp2006
g2
Nsg17
S'BL      DTLSv1_client_method'
p2007
sg19
S'cb5200eb'
p2008
sg21
Vbl #0x14b34
p2009
sg5
L135784L
sg6
Nsg23
S'BL'
p2010
sg25
S'0x21268L'
p2011
sg27
Nsba(ibclass
BInstr
p2012
(dp2013
g2
Nsg17
S'LDR     R3, =0xFEFF'
p2014
sg19
S'94319fe5'
p2015
sg21
Vldr r3, [pc, #0x194]
p2016
sg5
L135788L
sg6
Nsg23
S'LDR'
p2017
sg25
S'0x2126cL'
p2018
sg27
Nsba(ibclass
BInstr
p2019
(dp2020
g2
Nsg17
S'STR     R0, [s,#8]'
p2021
sg19
S'080084e5'
p2022
sg21
Vstr r0, [r4, #8]
p2023
sg5
L135792L
sg6
Nsg23
S'STR'
p2024
sg25
S'0x21270L'
p2025
sg27
Nsba(ibclass
BInstr
p2026
(dp2027
g2
Nsg17
S'STR     R3, [s]'
p2028
sg19
S'003084e5'
p2029
sg21
Vstr r3, [r4]
p2030
sg5
L135796L
sg6
Nsg23
S'STR'
p2031
sg25
S'0x21274L'
p2032
sg27
Nsba(ibclass
BInstr
p2033
(dp2034
g2
Nsg17
S'STR     R3, [s,#0x110]'
p2035
sg19
S'103184e5'
p2036
sg21
Vstr r3, [r4, #0x110]
p2037
sg5
L135800L
sg6
Nsg23
S'STR'
p2038
sg25
S'0x21278L'
p2039
sg27
Nsbasg119
(lp2040
S'BL DTLSv1_regient_method'
p2041
aS'LDR R3, =0xFEFF'
p2042
aS'STR R0, mem'
p2043
aS'STR R3, mem'
p2044
aS'STR R3, mem'
p2045
asg135
Nsg5
S'0x21268L'
p2046
sg137
(lp2047
S'0x21260L'
p2048
asg6
Nsg139
(lp2049
S'0x2127cL'
p2050
asg143
Nsg144
Nsg145
S'192f566c75dcb01747a1eecc1ea67482'
p2051
sg147
S'3b3211d19fe860ce384f576189f17d18'
p2052
sg149
(lp2053
g2010
ag2017
ag2024
ag2031
ag2038
asg151
Nsba(ibclass
BBasicBlock
p2054
(dp2055
g12
Nsg13
(lp2056
(ibclass
BInstr
p2057
(dp2058
g2
Nsg17
S'LDR     R12, [R0,#0x64]'
p2059
sg19
S'64c090e5'
p2060
sg21
Vldr ip, [r0, #0x64]
p2061
sg5
L135804L
sg6
Nsg23
S'LDR'
p2062
sg25
S'0x2127cL'
p2063
sg27
Nsba(ibclass
BInstr
p2064
(dp2065
g2
Nsg17
S'LDR     R2, [s,#0x58]'
p2066
sg19
S'582094e5'
p2067
sg21
Vldr r2, [r4, #0x58]
p2068
sg5
L135808L
sg6
Nsg23
S'LDR'
p2069
sg25
S'0x21280L'
p2070
sg27
Nsba(ibclass
BInstr
p2071
(dp2072
g2
Nsg17
S'LDR     R3, [R12,#0x38]'
p2073
sg19
S'38309ce5'
p2074
sg21
Vldr r3, [ip, #0x38]
p2075
sg5
L135812L
sg6
Nsg23
S'LDR'
p2076
sg25
S'0x21284L'
p2077
sg27
Nsba(ibclass
BInstr
p2078
(dp2079
g2
Nsg17
S'TST     R3, #8'
p2080
sg19
S'080013e3'
p2081
sg21
Vtst r3, #8
p2082
sg5
L135816L
sg6
Nsg23
S'TST'
p2083
sg25
S'0x21288L'
p2084
sg27
Nsba(ibclass
BInstr
p2085
(dp2086
g2
Nsg17
S'BEQ     loc_2121C'
p2087
sg19
S'e2ffff0a'
p2088
sg21
Vbeq #0xffffff90
p2089
sg5
L135820L
sg6
Nsg23
g117
sg25
S'0x2128cL'
p2090
sg27
Nsbasg119
(lp2091
S'LDR R12, mem'
p2092
aS'LDR R2, mem'
p2093
aS'LDR R3, mem'
p2094
aS'TST R3, #8'
p2095
aS'BEQ func'
p2096
asg135
Nsg5
S'0x2127cL'
p2097
sg137
(lp2098
S'0x21268L'
p2099
aS'0x212c4L'
p2100
asg6
Nsg139
(lp2101
S'0x2121cL'
p2102
aS'0x21290L'
p2103
asg143
Nsg144
Nsg145
S'21aa54f108f9798f430e2d5c3ae9bac4'
p2104
sg147
S'c387dbd4b541e674f1e489873352aa07'
p2105
sg149
(lp2106
g2062
ag2069
ag2076
ag2083
ag117
asg151
Nsba(ibclass
BBasicBlock
p2107
(dp2108
g12
Nsg13
(lp2109
(ibclass
BInstr
p2110
(dp2111
g2
Nsg17
S'B       loc_20FF0'
p2112
sg19
S'56ffffea'
p2113
sg21
Vb #0xfffffd60
p2114
sg5
L135824L
sg6
Nsg23
g117
sg25
S'0x21290L'
p2115
sg27
Nsbasg119
(lp2116
S'B func'
p2117
asg135
Nsg5
S'0x21290L'
p2118
sg137
(lp2119
S'0x2127cL'
p2120
asg6
Nsg139
(lp2121
S'0x20ff0L'
p2122
asg143
Nsg144
Nsg145
S'9d5ed678fe57bcca610140957afab571'
p2123
sg147
S'071b057c420e304c628380fd3541c021'
p2124
sg149
(lp2125
g117
asg151
Nsba(ibclass
BBasicBlock
p2126
(dp2127
g12
Nsg13
(lp2128
(ibclass
BInstr
p2129
(dp2130
g2
Nsg17
S'LDR     R2, [sess,#0x44]'
p2131
sg19
S'442093e5'
p2132
sg21
Vldr r2, [r3, #0x44]
p2133
sg5
L135828L
sg6
Nsg23
S'LDR'
p2134
sg25
S'0x21294L'
p2135
sg27
Nsba(ibclass
BInstr
p2136
(dp2137
g2
Nsg17
S'CMP     R2, #0'
p2138
sg19
S'000052e3'
p2139
sg21
Vcmp r2, #0
p2140
sg5
L135832L
sg6
Nsg23
S'CMP'
p2141
sg25
S'0x21298L'
p2142
sg27
Nsba(ibclass
BInstr
p2143
(dp2144
g2
Nsg17
S'BNE     loc_212AC'
p2145
sg19
S'0200001a'
p2146
sg21
Vbne #0x10
p2147
sg5
L135836L
sg6
Nsg23
g117
sg25
S'0x2129cL'
p2148
sg27
Nsbasg119
(lp2149
S'LDR R2, mem'
p2150
aS'CMP R2, #0'
p2151
aS'BNE func'
p2152
asg135
Nsg5
S'0x21294L'
p2153
sg137
(lp2154
S'0x20fa4L'
p2155
asg6
Nsg139
(lp2156
S'0x212a0L'
p2157
aS'0x212acL'
p2158
asg143
Nsg144
Nsg145
S'fa4df767a85c49648339e2dc5c6807f6'
p2159
sg147
S'6eb8dc9ae4d45fad4ce4e667e53812a2'
p2160
sg149
(lp2161
g2134
ag2141
ag117
asg151
Nsba(ibclass
BBasicBlock
p2162
(dp2163
g12
Nsg13
(lp2164
(ibclass
BInstr
p2165
(dp2166
g2
Nsg17
S'LDR     R2, [sess,#0xE4]'
p2167
sg19
S'e42093e5'
p2168
sg21
Vldr r2, [r3, #0xe4]
p2169
sg5
L135840L
sg6
Nsg23
S'LDR'
p2170
sg25
S'0x212a0L'
p2171
sg27
Nsba(ibclass
BInstr
p2172
(dp2173
g2
Nsg17
S'CMP     R2, #0'
p2174
sg19
S'000052e3'
p2175
sg21
Vcmp r2, #0
p2176
sg5
L135844L
sg6
Nsg23
S'CMP'
p2177
sg25
S'0x212a4L'
p2178
sg27
Nsba(ibclass
BInstr
p2179
(dp2180
g2
Nsg17
S'BEQ     loc_20FB4'
p2181
sg19
S'41ffff0a'
p2182
sg21
Vbeq #0xfffffd0c
p2183
sg5
L135848L
sg6
Nsg23
g117
sg25
S'0x212a8L'
p2184
sg27
Nsbasg119
(lp2185
S'LDR R2, mem'
p2186
aS'CMP R2, #0'
p2187
aS'BEQ func'
p2188
asg135
Nsg5
S'0x212a0L'
p2189
sg137
(lp2190
S'0x21294L'
p2191
asg6
Nsg139
(lp2192
S'0x20fb4L'
p2193
aS'0x212acL'
p2194
asg143
Nsg144
Nsg145
S'fa4df767a85c49648339e2dc5c6807f6'
p2195
sg147
S'89bb0c615f1e9e21325ad7eb7b948cfd'
p2196
sg149
(lp2197
g2170
ag2177
ag117
asg151
Nsba(ibclass
BBasicBlock
p2198
(dp2199
g12
Nsg13
(lp2200
(ibclass
BInstr
p2201
(dp2202
g2
Nsg17
S'LDR     sess, [sess,#0x94]'
p2203
sg19
S'943093e5'
p2204
sg21
Vldr r3, [r3, #0x94]
p2205
sg5
L135852L
sg6
Nsg23
S'LDR'
p2206
sg25
S'0x212acL'
p2207
sg27
Nsba(ibclass
BInstr
p2208
(dp2209
g2
Nsg17
S'CMP     R3, #0'
p2210
sg19
S'000053e3'
p2211
sg21
Vcmp r3, #0
p2212
sg5
L135856L
sg6
Nsg23
S'CMP'
p2213
sg25
S'0x212b0L'
p2214
sg27
Nsba(ibclass
BInstr
p2215
(dp2216
g2
Nsg17
S'BEQ     loc_20FC8'
p2217
sg19
S'43ffff0a'
p2218
sg21
Vbeq #0xfffffd14
p2219
sg5
L135860L
sg6
Nsg23
g117
sg25
S'0x212b4L'
p2220
sg27
Nsbasg119
(lp2221
S'LDR sess, mem'
p2222
aS'CMP R3, #0'
p2223
aS'BEQ func'
p2224
asg135
Nsg5
S'0x212acL'
p2225
sg137
(lp2226
S'0x21294L'
p2227
aS'0x212a0L'
p2228
asg6
Nsg139
(lp2229
S'0x20fc8L'
p2230
aS'0x212b8L'
p2231
asg143
Nsg144
Nsg145
S'fa4df767a85c49648339e2dc5c6807f6'
p2232
sg147
S'2419cbb1b7e8eaf1dc75f204a5dca187'
p2233
sg149
(lp2234
g2206
ag2213
ag117
asg151
Nsba(ibclass
BBasicBlock
p2235
(dp2236
g12
Nsg13
(lp2237
(ibclass
BInstr
p2238
(dp2239
g2
Nsg17
S'B       loc_20FB4'
p2240
sg19
S'3dffffea'
p2241
sg21
Vb #0xfffffcfc
p2242
sg5
L135864L
sg6
Nsg23
g117
sg25
S'0x212b8L'
p2243
sg27
Nsbasg119
(lp2244
S'B func'
p2245
asg135
Nsg5
S'0x212b8L'
p2246
sg137
(lp2247
S'0x212acL'
p2248
asg6
Nsg139
(lp2249
S'0x20fb4L'
p2250
asg143
Nsg144
Nsg145
S'9d5ed678fe57bcca610140957afab571'
p2251
sg147
S'071b057c420e304c628380fd3541c021'
p2252
sg149
(lp2253
g117
asg151
Nsba(ibclass
BBasicBlock
p2254
(dp2255
g12
Nsg13
(lp2256
(ibclass
BInstr
p2257
(dp2258
g2
Nsg17
S'TST     options, #0x4000000'
p2259
sg19
S'010313e3'
p2260
sg21
Vtst r3, #0x4000000
p2261
sg5
L135868L
sg6
Nsg23
S'TST'
p2262
sg25
S'0x212bcL'
p2263
sg27
Nsba(ibclass
BInstr
p2264
(dp2265
g2
Nsg17
S'BNE     loc_21304'
p2266
sg19
S'0f00001a'
p2267
sg21
Vbne #0x44
p2268
sg5
L135872L
sg6
Nsg23
g117
sg25
S'0x212c0L'
p2269
sg27
Nsbasg119
(lp2270
S'TST options, #address00'
p2271
aS'BNE func'
p2272
asg135
Nsg5
S'0x212bcL'
p2273
sg137
(lp2274
S'0x21244L'
p2275
asg6
Nsg139
(lp2276
S'0x212c4L'
p2277
aS'0x21304L'
p2278
asg143
Nsg144
Nsg145
S'fb2fb5c9c8b413efe0bf449ec730a69b'
p2279
sg147
S'b5c2ddfc32089ea84ca075e2879d31de'
p2280
sg149
(lp2281
g2262
ag117
asg151
Nsba(ibclass
BBasicBlock
p2282
(dp2283
g12
Nsg13
(lp2284
(ibclass
BInstr
p2285
(dp2286
g2
Nsg17
S'LDR     options, =0xFEFD'
p2287
sg19
S'40319fe5'
p2288
sg21
Vldr r3, [pc, #0x140]
p2289
sg5
L135876L
sg6
Nsg23
S'LDR'
p2290
sg25
S'0x212c4L'
p2291
sg27
Nsba(ibclass
BInstr
p2292
(dp2293
g2
Nsg17
S'STR     R3, [s]'
p2294
sg19
S'003084e5'
p2295
sg21
Vstr r3, [r4]
p2296
sg5
L135880L
sg6
Nsg23
S'STR'
p2297
sg25
S'0x212c8L'
p2298
sg27
Nsba(ibclass
BInstr
p2299
(dp2300
g2
Nsg17
S'STR     R3, [s,#0x110]'
p2301
sg19
S'103184e5'
p2302
sg21
Vstr r3, [r4, #0x110]
p2303
sg5
L135884L
sg6
Nsg23
S'STR'
p2304
sg25
S'0x212ccL'
p2305
sg27
Nsba(ibclass
BInstr
p2306
(dp2307
g2
Nsg17
S'B       loc_2127C'
p2308
sg19
S'e9ffffea'
p2309
sg21
Vb #0xffffffac
p2310
sg5
L135888L
sg6
Nsg23
g117
sg25
S'0x212d0L'
p2311
sg27
Nsbasg119
(lp2312
S'LDR options, =0xFEFD'
p2313
aS'STR R3, mem'
p2314
aS'STR R3, mem'
p2315
aS'B func'
p2316
asg135
Nsg5
S'0x212c4L'
p2317
sg137
(lp2318
S'0x212bcL'
p2319
aS'0x21304L'
p2320
asg6
Nsg139
(lp2321
S'0x2127cL'
p2322
asg143
Nsg144
Nsg145
S'780c37d187b2e75087179b618cca47c1'
p2323
sg147
S'83060797b468293ae8aac94d24e3c272'
p2324
sg149
(lp2325
g2290
ag2297
ag2304
ag117
asg151
Nsba(ibclass
BBasicBlock
p2326
(dp2327
g12
Nsg13
(lp2328
(ibclass
BInstr
p2329
(dp2330
g2
Nsg17
S'LDR     R3, =(aS3_clnt_c - 0x62000)'
p2331
sg19
S'34319fe5'
p2332
sg21
Vldr r3, [pc, #0x134]
p2333
sg5
L135892L
sg6
Nsg23
S'LDR'
p2334
sg25
S'0x212d4L'
p2335
sg27
Nsba(ibclass
BInstr
p2336
(dp2337
g2
Nsg17
S'LDR     R12, =0x365'
p2338
sg19
S'34c19fe5'
p2339
sg21
Vldr ip, [pc, #0x134]
p2340
sg5
L135896L
sg6
Nsg23
S'LDR'
p2341
sg25
S'0x212d8L'
p2342
sg27
Nsba(ibclass
BInstr
p2343
(dp2344
g2
Nsg17
S'ADD     R3, R5, R3      ; "s3_clnt.c"'
p2345
sg19
S'033085e0'
p2346
sg21
Vadd r3, r5, r3
p2347
sg5
L135900L
sg6
Nsg23
S'ADD'
p2348
sg25
S'0x212dcL'
p2349
sg27
Nsba(ibclass
BInstr
p2350
(dp2351
g2
Nsg17
S'MOV     R0, #0x14'
p2352
sg19
S'1400a0e3'
p2353
sg21
Vmov r0, #0x14
p2354
sg5
L135904L
sg6
Nsg23
S'MOV'
p2355
sg25
S'0x212e0L'
p2356
sg27
Nsba(ibclass
BInstr
p2357
(dp2358
g2
Nsg17
S'MOV     R1, #0x83'
p2359
sg19
S'8310a0e3'
p2360
sg21
Vmov r1, #0x83
p2361
sg5
L135908L
sg6
Nsg23
S'MOV'
p2362
sg25
S'0x212e4L'
p2363
sg27
Nsba(ibclass
BInstr
p2364
(dp2365
g2
Nsg17
S'MOV     R2, #0xE2'
p2366
sg19
S'e220a0e3'
p2367
sg21
Vmov r2, #0xe2
p2368
sg5
L135912L
sg6
Nsg23
S'MOV'
p2369
sg25
S'0x212e8L'
p2370
sg27
Nsba(ibclass
BInstr
p2371
(dp2372
g2
Nsg17
S'STR     R12, [SP,#0x40+var_40]'
p2373
sg19
S'00c08de5'
p2374
sg21
Vstr ip, [sp]
p2375
sg5
L135916L
sg6
Nsg23
S'STR'
p2376
sg25
S'0x212ecL'
p2377
sg27
Nsba(ibclass
BInstr
p2378
(dp2379
g2
Nsg17
S'BL      ERR_put_error'
p2380
sg19
S'65c0ffeb'
p2381
sg21
Vbl #0xffff019c
p2382
sg5
L135920L
sg6
Nsg23
S'BL'
p2383
sg25
S'0x212f0L'
p2384
sg27
Nsbasg119
(lp2385
S'LDR R3, =(aS3_regnt_c - address)'
p2386
aS'LDR R12, =0x365'
p2387
aS'ADD R3, R5, R3'
p2388
aS'MOV R0, #0x14'
p2389
aS'MOV R1, #0x83'
p2390
aS'MOV R2, #0xE2'
p2391
aS'STR R12, mem'
p2392
aS'BL ERR_put_error'
p2393
asg135
Nsg5
S'0x212d4L'
p2394
sg137
(lp2395
S'0x21198L'
p2396
asg6
Nsg139
(lp2397
S'0x212f4L'
p2398
asg143
Nsg144
Nsg145
S'5ac1293ccc02f0739e6c786b267a7b66'
p2399
sg147
S'48bb43b3a2b8cbb7651c417b5fd722c6'
p2400
sg149
(lp2401
g2334
ag2341
ag2348
ag2355
ag2362
ag2369
ag2376
ag2383
asg151
Nsba(ibclass
BBasicBlock
p2402
(dp2403
g12
Nsg13
(lp2404
(ibclass
BInstr
p2405
(dp2406
g2
Nsg17
S'MOV     R3, #5'
p2407
sg19
S'0530a0e3'
p2408
sg21
Vmov r3, #5
p2409
sg5
L135924L
sg6
Nsg23
S'MOV'
p2410
sg25
S'0x212f4L'
p2411
sg27
Nsba(ibclass
BInstr
p2412
(dp2413
g2
Nsg17
S'STR     R3, [s,#0x34]'
p2414
sg19
S'343084e5'
p2415
sg21
Vstr r3, [r4, #0x34]
p2416
sg5
L135928L
sg6
Nsg23
S'STR'
p2417
sg25
S'0x212f8L'
p2418
sg27
Nsba(ibclass
BInstr
p2419
(dp2420
g2
Nsg17
S'MOV     R0, #0xFFFFFFFF'
p2421
sg19
S'0000e0e3'
p2422
sg21
Vmvn r0, #0
p2423
sg5
L135932L
sg6
Nsg23
S'MOV'
p2424
sg25
S'0x212fcL'
p2425
sg27
Nsba(ibclass
BInstr
p2426
(dp2427
g2
Nsg17
S'B       loc_21210'
p2428
sg19
S'c2ffffea'
p2429
sg21
Vb #0xffffff10
p2430
sg5
L135936L
sg6
Nsg23
g117
sg25
S'0x21300L'
p2431
sg27
Nsbasg119
(lp2432
S'MOV R3, #5'
p2433
aS'STR R3, mem'
p2434
aS'MOV R0, #0xFFFFFFFF'
p2435
aS'B func'
p2436
asg135
Nsg5
S'0x212f4L'
p2437
sg137
(lp2438
S'0x20fb4L'
p2439
aS'0x2121cL'
p2440
aS'0x212d4L'
p2441
aS'0x21310L'
p2442
aS'0x21334L'
p2443
aS'0x21358L'
p2444
aS'0x2137cL'
p2445
aS'0x213b0L'
p2446
aS'0x213d4L'
p2447
asg6
Nsg139
(lp2448
S'0x21210L'
p2449
asg143
Nsg144
Nsg145
S'fe11ddbc5fdbccacf4376a1a3bfc01b7'
p2450
sg147
S'2849ab17dd208c2b1b0a304fb6b80d8b'
p2451
sg149
(lp2452
g2410
ag2417
ag2424
ag117
asg151
Nsba(ibclass
BBasicBlock
p2453
(dp2454
g12
Nsg13
(lp2455
(ibclass
BInstr
p2456
(dp2457
g2
Nsg17
S'BL      DTLSv1_2_client_method'
p2458
sg19
S'ab5200eb'
p2459
sg21
Vbl #0x14ab4
p2460
sg5
L135940L
sg6
Nsg23
S'BL'
p2461
sg25
S'0x21304L'
p2462
sg27
Nsba(ibclass
BInstr
p2463
(dp2464
g2
Nsg17
S'STR     R0, [s,#8]'
p2465
sg19
S'080084e5'
p2466
sg21
Vstr r0, [r4, #8]
p2467
sg5
L135944L
sg6
Nsg23
S'STR'
p2468
sg25
S'0x21308L'
p2469
sg27
Nsba(ibclass
BInstr
p2470
(dp2471
g2
Nsg17
S'B       loc_212C4'
p2472
sg19
S'ecffffea'
p2473
sg21
Vb #0xffffffb8
p2474
sg5
L135948L
sg6
Nsg23
g117
sg25
S'0x2130cL'
p2475
sg27
Nsbasg119
(lp2476
S'BL DTLSv1_2_regient_method'
p2477
aS'STR R0, mem'
p2478
aS'B func'
p2479
asg135
Nsg5
S'0x21304L'
p2480
sg137
(lp2481
S'0x212bcL'
p2482
asg6
Nsg139
(lp2483
S'0x212c4L'
p2484
asg143
Nsg144
Nsg145
S'664b1ed67af59c189a325cad25cc5589'
p2485
sg147
S'7e86e5d8b21f6aa37a6d7d7999eda1e3'
p2486
sg149
(lp2487
g2461
ag2468
ag117
asg151
Nsba(ibclass
BBasicBlock
p2488
(dp2489
g12
Nsg13
(lp2490
(ibclass
BInstr
p2491
(dp2492
g2
Nsg17
S'LDR     R3, =(aS3_clnt_c - 0x62000)'
p2493
sg19
S'f8309fe5'
p2494
sg21
Vldr r3, [pc, #0xf8]
p2495
sg5
L135952L
sg6
Nsg23
S'LDR'
p2496
sg25
S'0x21310L'
p2497
sg27
Nsba(ibclass
BInstr
p2498
(dp2499
g2
Nsg17
S'LDR     R12, =0x335'
p2500
sg19
S'fcc09fe5'
p2501
sg21
Vldr ip, [pc, #0xfc]
p2502
sg5
L135956L
sg6
Nsg23
S'LDR'
p2503
sg25
S'0x21314L'
p2504
sg27
Nsba(ibclass
BInstr
p2505
(dp2506
g2
Nsg17
S'ADD     R3, R5, R3      ; "s3_clnt.c"'
p2507
sg19
S'033085e0'
p2508
sg21
Vadd r3, r5, r3
p2509
sg5
L135960L
sg6
Nsg23
S'ADD'
p2510
sg25
S'0x21318L'
p2511
sg27
Nsba(ibclass
BInstr
p2512
(dp2513
g2
Nsg17
S'MOV     R0, #0x14'
p2514
sg19
S'1400a0e3'
p2515
sg21
Vmov r0, #0x14
p2516
sg5
L135964L
sg6
Nsg23
S'MOV'
p2517
sg25
S'0x2131cL'
p2518
sg27
Nsba(ibclass
BInstr
p2519
(dp2520
g2
Nsg17
S'MOV     R1, #0x83'
p2521
sg19
S'8310a0e3'
p2522
sg21
Vmov r1, #0x83
p2523
sg5
L135968L
sg6
Nsg23
S'MOV'
p2524
sg25
S'0x21320L'
p2525
sg27
Nsba(ibclass
BInstr
p2526
(dp2527
g2
Nsg17
S'MOV     R2, #0x44'
p2528
sg19
S'4420a0e3'
p2529
sg21
Vmov r2, #0x44
p2530
sg5
L135972L
sg6
Nsg23
S'MOV'
p2531
sg25
S'0x21324L'
p2532
sg27
Nsba(ibclass
BInstr
p2533
(dp2534
g2
Nsg17
S'STR     R12, [SP,#0x40+var_40]'
p2535
sg19
S'00c08de5'
p2536
sg21
Vstr ip, [sp]
p2537
sg5
L135976L
sg6
Nsg23
S'STR'
p2538
sg25
S'0x21328L'
p2539
sg27
Nsba(ibclass
BInstr
p2540
(dp2541
g2
Nsg17
S'BL      ERR_put_error'
p2542
sg19
S'56c0ffeb'
p2543
sg21
Vbl #0xffff0160
p2544
sg5
L135980L
sg6
Nsg23
S'BL'
p2545
sg25
S'0x2132cL'
p2546
sg27
Nsba(ibclass
BInstr
p2547
(dp2548
g2
Nsg17
S'B       err'
p2549
sg19
S'efffffea'
p2550
sg21
Vb #0xffffffc4
p2551
sg5
L135984L
sg6
Nsg23
g117
sg25
S'0x21330L'
p2552
sg27
Nsbasg119
(lp2553
S'LDR R3, =(aS3_regnt_c - address)'
p2554
aS'LDR R12, =0x335'
p2555
aS'ADD R3, R5, R3'
p2556
aS'MOV R0, #0x14'
p2557
aS'MOV R1, #0x83'
p2558
aS'MOV R2, #0x44'
p2559
aS'STR R12, mem'
p2560
aS'BL ERR_put_error'
p2561
aS'B err'
p2562
asg135
Nsg5
S'0x21310L'
p2563
sg137
(lp2564
S'0x210b4L'
p2565
asg6
Nsg139
(lp2566
S'0x212f4L'
p2567
asg143
Nsg144
Nsg145
S'629bdcc4b4759840cfba3eb3682d03ae'
p2568
sg147
S'28032204c57523365d82f95221b2d827'
p2569
sg149
(lp2570
g2496
ag2503
ag2510
ag2517
ag2524
ag2531
ag2538
ag2545
ag117
asg151
Nsba(ibclass
BBasicBlock
p2571
(dp2572
g12
Nsg13
(lp2573
(ibclass
BInstr
p2574
(dp2575
g2
Nsg17
S'LDR     R3, =(aS3_clnt_c - 0x62000)'
p2576
sg19
S'd4309fe5'
p2577
sg21
Vldr r3, [pc, #0xd4]
p2578
sg5
L135988L
sg6
Nsg23
S'LDR'
p2579
sg25
S'0x21334L'
p2580
sg27
Nsba(ibclass
BInstr
p2581
(dp2582
g2
Nsg17
S'LDR     R12, =0x32B'
p2583
sg19
S'dcc09fe5'
p2584
sg21
Vldr ip, [pc, #0xdc]
p2585
sg5
L135992L
sg6
Nsg23
S'LDR'
p2586
sg25
S'0x21338L'
p2587
sg27
Nsba(ibclass
BInstr
p2588
(dp2589
g2
Nsg17
S'ADD     R3, R5, R3      ; "s3_clnt.c"'
p2590
sg19
S'033085e0'
p2591
sg21
Vadd r3, r5, r3
p2592
sg5
L135996L
sg6
Nsg23
S'ADD'
p2593
sg25
S'0x2133cL'
p2594
sg27
Nsba(ibclass
BInstr
p2595
(dp2596
g2
Nsg17
S'MOV     R0, #0x14'
p2597
sg19
S'1400a0e3'
p2598
sg21
Vmov r0, #0x14
p2599
sg5
L136000L
sg6
Nsg23
S'MOV'
p2600
sg25
S'0x21340L'
p2601
sg27
Nsba(ibclass
BInstr
p2602
(dp2603
g2
Nsg17
S'MOV     R1, #0x83'
p2604
sg19
S'8310a0e3'
p2605
sg21
Vmov r1, #0x83
p2606
sg5
L136004L
sg6
Nsg23
S'MOV'
p2607
sg25
S'0x21344L'
p2608
sg27
Nsba(ibclass
BInstr
p2609
(dp2610
g2
Nsg17
S'MOV     R2, #0x44'
p2611
sg19
S'4420a0e3'
p2612
sg21
Vmov r2, #0x44
p2613
sg5
L136008L
sg6
Nsg23
S'MOV'
p2614
sg25
S'0x21348L'
p2615
sg27
Nsba(ibclass
BInstr
p2616
(dp2617
g2
Nsg17
S'STR     R12, [SP,#0x40+var_40]'
p2618
sg19
S'00c08de5'
p2619
sg21
Vstr ip, [sp]
p2620
sg5
L136012L
sg6
Nsg23
S'STR'
p2621
sg25
S'0x2134cL'
p2622
sg27
Nsba(ibclass
BInstr
p2623
(dp2624
g2
Nsg17
S'BL      ERR_put_error'
p2625
sg19
S'4dc0ffeb'
p2626
sg21
Vbl #0xffff013c
p2627
sg5
L136016L
sg6
Nsg23
S'BL'
p2628
sg25
S'0x21350L'
p2629
sg27
Nsba(ibclass
BInstr
p2630
(dp2631
g2
Nsg17
S'B       err'
p2632
sg19
S'e6ffffea'
p2633
sg21
Vb #0xffffffa0
p2634
sg5
L136020L
sg6
Nsg23
g117
sg25
S'0x21354L'
p2635
sg27
Nsbasg119
(lp2636
S'LDR R3, =(aS3_regnt_c - address)'
p2637
aS'LDR R12, =0x32B'
p2638
aS'ADD R3, R5, R3'
p2639
aS'MOV R0, #0x14'
p2640
aS'MOV R1, #0x83'
p2641
aS'MOV R2, #0x44'
p2642
aS'STR R12, mem'
p2643
aS'BL ERR_put_error'
p2644
aS'B err'
p2645
asg135
Nsg5
S'0x21334L'
p2646
sg137
(lp2647
S'0x21080L'
p2648
asg6
Nsg139
(lp2649
S'0x212f4L'
p2650
asg143
Nsg144
Nsg145
S'629bdcc4b4759840cfba3eb3682d03ae'
p2651
sg147
S'8d1966b0111346f69d221ea4f15b789b'
p2652
sg149
(lp2653
g2579
ag2586
ag2593
ag2600
ag2607
ag2614
ag2621
ag2628
ag117
asg151
Nsba(ibclass
BBasicBlock
p2654
(dp2655
g12
Nsg13
(lp2656
(ibclass
BInstr
p2657
(dp2658
g2
Nsg17
S'LDR     R3, =(aS3_clnt_c - 0x62000)'
p2659
sg19
S'b0309fe5'
p2660
sg21
Vldr r3, [pc, #0xb0]
p2661
sg5
L136024L
sg6
Nsg23
S'LDR'
p2662
sg25
S'0x21358L'
p2663
sg27
Nsba(ibclass
BInstr
p2664
(dp2665
g2
Nsg17
S'MOV     R12, #0x340'
p2666
sg19
S'0dcda0e3'
p2667
sg21
Vmov ip, #0x340
p2668
sg5
L136028L
sg6
Nsg23
S'MOV'
p2669
sg25
S'0x2135cL'
p2670
sg27
Nsba(ibclass
BInstr
p2671
(dp2672
g2
Nsg17
S'ADD     R3, R5, R3      ; "s3_clnt.c"'
p2673
sg19
S'033085e0'
p2674
sg21
Vadd r3, r5, r3
p2675
sg5
L136032L
sg6
Nsg23
S'ADD'
p2676
sg25
S'0x21360L'
p2677
sg27
Nsba(ibclass
BInstr
p2678
(dp2679
g2
Nsg17
S'MOV     R0, #0x14'
p2680
sg19
S'1400a0e3'
p2681
sg21
Vmov r0, #0x14
p2682
sg5
L136036L
sg6
Nsg23
S'MOV'
p2683
sg25
S'0x21364L'
p2684
sg27
Nsba(ibclass
BInstr
p2685
(dp2686
g2
Nsg17
S'MOV     R1, #0x83'
p2687
sg19
S'8310a0e3'
p2688
sg21
Vmov r1, #0x83
p2689
sg5
L136040L
sg6
Nsg23
S'MOV'
p2690
sg25
S'0x21368L'
p2691
sg27
Nsba(ibclass
BInstr
p2692
(dp2693
g2
Nsg17
S'MOV     R2, #0xB5'
p2694
sg19
S'b520a0e3'
p2695
sg21
Vmov r2, #0xb5
p2696
sg5
L136044L
sg6
Nsg23
S'MOV'
p2697
sg25
S'0x2136cL'
p2698
sg27
Nsba(ibclass
BInstr
p2699
(dp2700
g2
Nsg17
S'STR     R12, [SP,#0x40+var_40]'
p2701
sg19
S'00c08de5'
p2702
sg21
Vstr ip, [sp]
p2703
sg5
L136048L
sg6
Nsg23
S'STR'
p2704
sg25
S'0x21370L'
p2705
sg27
Nsba(ibclass
BInstr
p2706
(dp2707
g2
Nsg17
S'BL      ERR_put_error'
p2708
sg19
S'44c0ffeb'
p2709
sg21
Vbl #0xffff0118
p2710
sg5
L136052L
sg6
Nsg23
S'BL'
p2711
sg25
S'0x21374L'
p2712
sg27
Nsba(ibclass
BInstr
p2713
(dp2714
g2
Nsg17
S'B       err'
p2715
sg19
S'ddffffea'
p2716
sg21
Vb #0xffffff7c
p2717
sg5
L136056L
sg6
Nsg23
g117
sg25
S'0x21378L'
p2718
sg27
Nsbasg119
(lp2719
S'LDR R3, =(aS3_regnt_c - address)'
p2720
aS'MOV R12, #0x340'
p2721
aS'ADD R3, R5, R3'
p2722
aS'MOV R0, #0x14'
p2723
aS'MOV R1, #0x83'
p2724
aS'MOV R2, #0xB5'
p2725
aS'STR R12, mem'
p2726
aS'BL ERR_put_error'
p2727
aS'B err'
p2728
asg135
Nsg5
S'0x21358L'
p2729
sg137
(lp2730
S'0x210e8L'
p2731
asg6
Nsg139
(lp2732
S'0x212f4L'
p2733
asg143
Nsg144
Nsg145
S'cc6f706714f447d61003b78a58ad12d8'
p2734
sg147
S'9474422938a921ac1f5ddb1b132c2e8f'
p2735
sg149
(lp2736
g2662
ag2669
ag2676
ag2683
ag2690
ag2697
ag2704
ag2711
ag117
asg151
Nsba(ibclass
BBasicBlock
p2737
(dp2738
g12
Nsg13
(lp2739
(ibclass
BInstr
p2740
(dp2741
g2
Nsg17
S'LDR     p, [SP,#0x40+al]; desc'
p2742
sg19
S'14209de5'
p2743
sg21
Vldr r2, [sp, #0x14]
p2744
sg5
L136060L
sg6
Nsg23
S'LDR'
p2745
sg25
S'0x2137cL'
p2746
sg27
Nsba(ibclass
BInstr
p2747
(dp2748
g2
Nsg17
S'MOV     R0, s           ; s'
p2749
sg19
S'0400a0e1'
p2750
sg21
Vmov r0, r4
p2751
sg5
L136064L
sg6
Nsg23
S'MOV'
p2752
sg25
S'0x21380L'
p2753
sg27
Nsba(ibclass
BInstr
p2754
(dp2755
g2
Nsg17
S'MOV     R1, #2          ; level'
p2756
sg19
S'0210a0e3'
p2757
sg21
Vmov r1, #2
p2758
sg5
L136068L
sg6
Nsg23
S'MOV'
p2759
sg25
S'0x21384L'
p2760
sg27
Nsba(ibclass
BInstr
p2761
(dp2762
g2
Nsg17
S'BL      ssl3_send_alert'
p2763
sg19
S'ef1200eb'
p2764
sg21
Vbl #0x4bc4
p2765
sg5
L136072L
sg6
Nsg23
S'BL'
p2766
sg25
S'0x21388L'
p2767
sg27
Nsba(ibclass
BInstr
p2768
(dp2769
g2
Nsg17
S'LDR     R3, =(aS3_clnt_c - 0x62000)'
p2770
sg19
S'7c309fe5'
p2771
sg21
Vldr r3, [pc, #0x7c]
p2772
sg5
L136076L
sg6
Nsg23
S'LDR'
p2773
sg25
S'0x2138cL'
p2774
sg27
Nsba(ibclass
BInstr
p2775
(dp2776
g2
Nsg17
S'MOV     R12, #0x36C'
p2777
sg19
S'dbcfa0e3'
p2778
sg21
Vmov ip, #0x36c
p2779
sg5
L136080L
sg6
Nsg23
S'MOV'
p2780
sg25
S'0x21390L'
p2781
sg27
Nsba(ibclass
BInstr
p2782
(dp2783
g2
Nsg17
S'ADD     R3, R5, R3      ; "s3_clnt.c"'
p2784
sg19
S'033085e0'
p2785
sg21
Vadd r3, r5, r3
p2786
sg5
L136084L
sg6
Nsg23
S'ADD'
p2787
sg25
S'0x21394L'
p2788
sg27
Nsba(ibclass
BInstr
p2789
(dp2790
g2
Nsg17
S'MOV     R0, #0x14'
p2791
sg19
S'1400a0e3'
p2792
sg21
Vmov r0, #0x14
p2793
sg5
L136088L
sg6
Nsg23
S'MOV'
p2794
sg25
S'0x21398L'
p2795
sg27
Nsba(ibclass
BInstr
p2796
(dp2797
g2
Nsg17
S'MOV     R1, #0x83'
p2798
sg19
S'8310a0e3'
p2799
sg21
Vmov r1, #0x83
p2800
sg5
L136092L
sg6
Nsg23
S'MOV'
p2801
sg25
S'0x2139cL'
p2802
sg27
Nsba(ibclass
BInstr
p2803
(dp2804
g2
Nsg17
S'MOV     R2, #0x44'
p2805
sg19
S'4420a0e3'
p2806
sg21
Vmov r2, #0x44
p2807
sg5
L136096L
sg6
Nsg23
S'MOV'
p2808
sg25
S'0x213a0L'
p2809
sg27
Nsba(ibclass
BInstr
p2810
(dp2811
g2
Nsg17
S'STR     R12, [SP,#0x40+var_40]'
p2812
sg19
S'00c08de5'
p2813
sg21
Vstr ip, [sp]
p2814
sg5
L136100L
sg6
Nsg23
S'STR'
p2815
sg25
S'0x213a4L'
p2816
sg27
Nsba(ibclass
BInstr
p2817
(dp2818
g2
Nsg17
S'BL      ERR_put_error'
p2819
sg19
S'37c0ffeb'
p2820
sg21
Vbl #0xffff00e4
p2821
sg5
L136104L
sg6
Nsg23
S'BL'
p2822
sg25
S'0x213a8L'
p2823
sg27
Nsba(ibclass
BInstr
p2824
(dp2825
g2
Nsg17
S'B       err'
p2826
sg19
S'd0ffffea'
p2827
sg21
Vb #0xffffff48
p2828
sg5
L136108L
sg6
Nsg23
g117
sg25
S'0x213acL'
p2829
sg27
Nsbasg119
(lp2830
S'LDR p, mem'
p2831
aS'MOV R0, s'
p2832
aS'MOV R1, #2'
p2833
aS'BL ssl3_send_regert'
p2834
aS'LDR R3, =(aS3_regnt_c - address)'
p2835
aS'MOV R12, #0x36C'
p2836
aS'ADD R3, R5, R3'
p2837
aS'MOV R0, #0x14'
p2838
aS'MOV R1, #0x83'
p2839
aS'MOV R2, #0x44'
p2840
aS'STR R12, mem'
p2841
aS'BL ERR_put_error'
p2842
aS'B err'
p2843
asg135
Nsg5
S'0x2137cL'
p2844
sg137
(lp2845
S'0x211b0L'
p2846
asg6
Nsg139
(lp2847
S'0x212f4L'
p2848
asg143
Nsg144
Nsg145
S'3f2181aae8bb426de03a2dd097564dfc'
p2849
sg147
S'11ae0648fb441230e089d6690a79fe43'
p2850
sg149
(lp2851
g2745
ag2752
ag2759
ag2766
ag2773
ag2780
ag2787
ag2794
ag2801
ag2808
ag2815
ag2822
ag117
asg151
Nsba(ibclass
BBasicBlock
p2852
(dp2853
g12
Nsg13
(lp2854
(ibclass
BInstr
p2855
(dp2856
g2
Nsg17
S'LDR     options, =(aS3_clnt_c - 0x62000)'
p2857
sg19
S'58309fe5'
p2858
sg21
Vldr r3, [pc, #0x58]
p2859
sg5
L136112L
sg6
Nsg23
S'LDR'
p2860
sg25
S'0x213b0L'
p2861
sg27
Nsba(ibclass
BInstr
p2862
(dp2863
g2
Nsg17
S'LDR     R12, =0x2CB'
p2864
sg19
S'64c09fe5'
p2865
sg21
Vldr ip, [pc, #0x64]
p2866
sg5
L136116L
sg6
Nsg23
S'LDR'
p2867
sg25
S'0x213b4L'
p2868
sg27
Nsba(ibclass
BInstr
p2869
(dp2870
g2
Nsg17
S'ADD     R3, R5, R3      ; "s3_clnt.c"'
p2871
sg19
S'033085e0'
p2872
sg21
Vadd r3, r5, r3
p2873
sg5
L136120L
sg6
Nsg23
S'ADD'
p2874
sg25
S'0x213b8L'
p2875
sg27
Nsba(ibclass
BInstr
p2876
(dp2877
g2
Nsg17
S'MOV     R0, #0x14'
p2878
sg19
S'1400a0e3'
p2879
sg21
Vmov r0, #0x14
p2880
sg5
L136124L
sg6
Nsg23
S'MOV'
p2881
sg25
S'0x213bcL'
p2882
sg27
Nsba(ibclass
BInstr
p2883
(dp2884
g2
Nsg17
S'MOV     R1, #0x83'
p2885
sg19
S'8310a0e3'
p2886
sg21
Vmov r1, #0x83
p2887
sg5
L136128L
sg6
Nsg23
S'MOV'
p2888
sg25
S'0x213c0L'
p2889
sg27
Nsba(ibclass
BInstr
p2890
(dp2891
g2
Nsg17
S'LDR     R2, =0x10A'
p2892
sg19
S'58209fe5'
p2893
sg21
Vldr r2, [pc, #0x58]
p2894
sg5
L136132L
sg6
Nsg23
S'LDR'
p2895
sg25
S'0x213c4L'
p2896
sg27
Nsba(ibclass
BInstr
p2897
(dp2898
g2
Nsg17
S'STR     R12, [SP,#0x40+var_40]'
p2899
sg19
S'00c08de5'
p2900
sg21
Vstr ip, [sp]
p2901
sg5
L136136L
sg6
Nsg23
S'STR'
p2902
sg25
S'0x213c8L'
p2903
sg27
Nsba(ibclass
BInstr
p2904
(dp2905
g2
Nsg17
S'BL      ERR_put_error'
p2906
sg19
S'2ec0ffeb'
p2907
sg21
Vbl #0xffff00c0
p2908
sg5
L136140L
sg6
Nsg23
S'BL'
p2909
sg25
S'0x213ccL'
p2910
sg27
Nsba(ibclass
BInstr
p2911
(dp2912
g2
Nsg17
S'B       err'
p2913
sg19
S'c7ffffea'
p2914
sg21
Vb #0xffffff24
p2915
sg5
L136144L
sg6
Nsg23
g117
sg25
S'0x213d0L'
p2916
sg27
Nsbasg119
(lp2917
S'LDR options, =(aS3_regnt_c - address)'
p2918
aS'LDR R12, =0x2CB'
p2919
aS'ADD R3, R5, R3'
p2920
aS'MOV R0, #0x14'
p2921
aS'MOV R1, #0x83'
p2922
aS'LDR R2, =0x10A'
p2923
aS'STR R12, mem'
p2924
aS'BL ERR_put_error'
p2925
aS'B err'
p2926
asg135
Nsg5
S'0x213b0L'
p2927
sg137
(lp2928
S'0x21260L'
p2929
asg6
Nsg139
(lp2930
S'0x212f4L'
p2931
asg143
Nsg144
Nsg145
S'1679493277906bee40f90cd9dd4101f7'
p2932
sg147
S'45a80b00c93fa5fe21a2347a431dd48b'
p2933
sg149
(lp2934
g2860
ag2867
ag2874
ag2881
ag2888
ag2895
ag2902
ag2909
ag117
asg151
Nsba(ibclass
BBasicBlock
p2935
(dp2936
g12
Nsg13
(lp2937
(ibclass
BInstr
p2938
(dp2939
g2
Nsg17
S'LDR     options, =(aS3_clnt_c - 0x62000)'
p2940
sg19
S'34309fe5'
p2941
sg21
Vldr r3, [pc, #0x34]
p2942
sg5
L136148L
sg6
Nsg23
S'LDR'
p2943
sg25
S'0x213d4L'
p2944
sg27
Nsba(ibclass
BInstr
p2945
(dp2946
g2
Nsg17
S'MOV     R12, #0x2C4'
p2947
sg19
S'b1cfa0e3'
p2948
sg21
Vmov ip, #0x2c4
p2949
sg5
L136152L
sg6
Nsg23
S'MOV'
p2950
sg25
S'0x213d8L'
p2951
sg27
Nsba(ibclass
BInstr
p2952
(dp2953
g2
Nsg17
S'ADD     R3, R5, R3      ; "s3_clnt.c"'
p2954
sg19
S'033085e0'
p2955
sg21
Vadd r3, r5, r3
p2956
sg5
L136156L
sg6
Nsg23
S'ADD'
p2957
sg25
S'0x213dcL'
p2958
sg27
Nsba(ibclass
BInstr
p2959
(dp2960
g2
Nsg17
S'MOV     R0, #0x14'
p2961
sg19
S'1400a0e3'
p2962
sg21
Vmov r0, #0x14
p2963
sg5
L136160L
sg6
Nsg23
S'MOV'
p2964
sg25
S'0x213e0L'
p2965
sg27
Nsba(ibclass
BInstr
p2966
(dp2967
g2
Nsg17
S'MOV     R1, #0x83'
p2968
sg19
S'8310a0e3'
p2969
sg21
Vmov r1, #0x83
p2970
sg5
L136164L
sg6
Nsg23
S'MOV'
p2971
sg25
S'0x213e4L'
p2972
sg27
Nsba(ibclass
BInstr
p2973
(dp2974
g2
Nsg17
S'LDR     R2, =0x183'
p2975
sg19
S'38209fe5'
p2976
sg21
Vldr r2, [pc, #0x38]
p2977
sg5
L136168L
sg6
Nsg23
S'LDR'
p2978
sg25
S'0x213e8L'
p2979
sg27
Nsba(ibclass
BInstr
p2980
(dp2981
g2
Nsg17
S'STR     R12, [SP,#0x40+var_40]'
p2982
sg19
S'00c08de5'
p2983
sg21
Vstr ip, [sp]
p2984
sg5
L136172L
sg6
Nsg23
S'STR'
p2985
sg25
S'0x213ecL'
p2986
sg27
Nsba(ibclass
BInstr
p2987
(dp2988
g2
Nsg17
S'BL      ERR_put_error'
p2989
sg19
S'25c0ffeb'
p2990
sg21
Vbl #0xffff009c
p2991
sg5
L136176L
sg6
Nsg23
S'BL'
p2992
sg25
S'0x213f0L'
p2993
sg27
Nsba(ibclass
BInstr
p2994
(dp2995
g2
Nsg17
S'B       err'
p2996
sg19
S'beffffea'
p2997
sg21
Vb #0xffffff00
p2998
sg5
L136180L
sg6
Nsg23
g117
sg25
S'0x213f4L'
p2999
sg27
Nsbasg119
(lp3000
S'LDR options, =(aS3_regnt_c - address)'
p3001
aS'MOV R12, #0x2C4'
p3002
aS'ADD R3, R5, R3'
p3003
aS'MOV R0, #0x14'
p3004
aS'MOV R1, #0x83'
p3005
aS'LDR R2, =0x183'
p3006
aS'STR R12, mem'
p3007
aS'BL ERR_put_error'
p3008
aS'B err'
p3009
asg135
Nsg5
S'0x213d4L'
p3010
sg137
(lp3011
S'0x21250L'
p3012
asg6
Nsg139
(lp3013
S'0x212f4L'
p3014
asg143
Nsg144
Nsg145
S'3344c291595225fd2c1bdb32536656cc'
p3015
sg147
S'91390d3e02e61ec555dfca41a9128b47'
p3016
sg149
(lp3017
g2943
ag2950
ag2957
ag2964
ag2971
ag2978
ag2985
ag2992
ag117
asg151
Nsbasb.