(ibclass
BFunc
p0
(dp1
S'hash'
p2
NsS'name'
p3
S'dsa_sign_setup'
p4
sS'start_address'
p5
L736484L
sS'flag'
p6
NsS'program'
p7
NsS'bbs'
p8
(lp9
(ibclass
BBasicBlock
p10
(dp11
S'function'
p12
NsS'binstrs'
p13
(lp14
(ibclass
BInstr
p15
(dp16
g2
NsS'disasm'
p17
S'STMFD   SP!, {R4-R11,LR}'
p18
sS'bytes'
p19
S'f04f2de9'
p20
sS'disasm_striped'
p21
Vpush {r4, r5, r6, r7, r8, sb, sl, fp, lr}
p22
sg5
L736484L
sg6
NsS'mnem'
p23
S'STM'
p24
sS'address'
p25
S'0xb3ce4L'
p26
sS'basicblock'
p27
Nsba(ibclass
BInstr
p28
(dp29
g2
Nsg17
S'MOV     R4, dsa'
p30
sg19
S'0040a0e1'
p31
sg21
Vmov r4, r0
p32
sg5
L736488L
sg6
Nsg23
S'MOV'
p33
sg25
S'0xb3ce8L'
p34
sg27
Nsba(ibclass
BInstr
p35
(dp36
g2
Nsg17
S'LDR     dsa, [dsa,#0xC]'
p37
sg19
S'0c0090e5'
p38
sg21
Vldr r0, [r0, #0xc]
p39
sg5
L736492L
sg6
Nsg23
S'LDR'
p40
sg25
S'0xb3cecL'
p41
sg27
Nsba(ibclass
BInstr
p42
(dp43
g2
Nsg17
S'LDR     R6, =($_GLOBAL_OFFSET_TABLE_ - 0xB3D04)'
p44
sg19
S'e0629fe5'
p45
sg21
Vldr r6, [pc, #0x2e0]
p46
sg5
L736496L
sg6
Nsg23
S'LDR'
p47
sg25
S'0xb3cf0L'
p48
sg27
Nsba(ibclass
BInstr
p49
(dp50
g2
Nsg17
S'SUB     SP, SP, #0x44'
p51
sg19
S'44d04de2'
p52
sg21
Vsub sp, sp, #0x44
p53
sg5
L736500L
sg6
Nsg23
S'SUB'
p54
sg25
S'0xb3cf4L'
p55
sg27
Nsba(ibclass
BInstr
p56
(dp57
g2
Nsg17
S'CMP     R0, #0'
p58
sg19
S'000050e3'
p59
sg21
Vcmp r0, #0
p60
sg5
L736504L
sg6
Nsg23
S'CMP'
p61
sg25
S'0xb3cf8L'
p62
sg27
Nsba(ibclass
BInstr
p63
(dp64
g2
Nsg17
S'ADD     R6, PC, R6 ; $_GLOBAL_OFFSET_TABLE_'
p65
sg19
S'06608fe0'
p66
sg21
Vadd r6, pc, r6
p67
sg5
L736508L
sg6
Nsg23
S'ADD'
p68
sg25
S'0xb3cfcL'
p69
sg27
Nsba(ibclass
BInstr
p70
(dp71
g2
Nsg17
S'MOV     R7, ctx_in'
p72
sg19
S'0170a0e1'
p73
sg21
Vmov r7, r1
p74
sg5
L736512L
sg6
Nsg23
S'MOV'
p75
sg25
S'0xb3d00L'
p76
sg27
Nsba(ibclass
BInstr
p77
(dp78
g2
Nsg17
S'MOV     R11, kinvp'
p79
sg19
S'02b0a0e1'
p80
sg21
Vmov fp, r2
p81
sg5
L736516L
sg6
Nsg23
S'MOV'
p82
sg25
S'0xb3d04L'
p83
sg27
Nsba(ibclass
BInstr
p84
(dp85
g2
Nsg17
S'STR     rp, [SP,#0x68+var_54]'
p86
sg19
S'14308de5'
p87
sg21
Vstr r3, [sp, #0x14]
p88
sg5
L736520L
sg6
Nsg23
S'STR'
p89
sg25
S'0xb3d08L'
p90
sg27
Nsba(ibclass
BInstr
p91
(dp92
g2
Nsg17
S'BEQ     loc_B3E34'
p93
sg19
S'4800000a'
p94
sg21
Vbeq #0x128
p95
sg5
L736524L
sg6
Nsg23
S'B'
p96
sg25
S'0xb3d0cL'
p97
sg27
NsbasS'disasm_list'
p98
(lp99
S'STMFD SP!, {R4-R11,LR}'
p100
aS'MOV R4, dsa'
p101
aS'LDR dsa, mem'
p102
aS'LDR R6, =($_GLOBAL_OFFSET_TABLE_ - 0xB3D04)'
p103
aS'SUB SP, SP, #0x44'
p104
aS'CMP R0, #0'
p105
aS'ADD R6, PC, R6'
p106
aS'MOV R7, ctx_in'
p107
aS'MOV R11, kinvp'
p108
aS'STR rp, mem'
p109
aS'BEQ func'
p110
asS'end_address'
p111
Nsg5
S'0xb3ce4L'
p112
sS'preds'
p113
(lp114
sg6
NsS'succs'
p115
(lp116
S'0xb3d10L'
p117
aS'0xb3e34L'
p118
asS'hash_v3'
p119
NsS'flag_v2'
p120
NsS'hash_v1'
p121
S'86f2a15681e4f9ddc01335464f001f51'
p122
sS'hash_v2'
p123
S'adc1505b633468ca9c9dadeaa8a2b008'
p124
sS'mnen_list'
p125
(lp126
g24
ag33
ag40
ag47
ag54
ag61
ag68
ag75
ag82
ag89
ag96
asS'neighbour_disasm_list'
p127
Nsba(ibclass
BBasicBlock
p128
(dp129
g12
Nsg13
(lp130
(ibclass
BInstr
p131
(dp132
g2
Nsg17
S'LDR     rp, [dsa,#0x10]'
p133
sg19
S'103094e5'
p134
sg21
Vldr r3, [r4, #0x10]
p135
sg5
L736528L
sg6
Nsg23
S'LDR'
p136
sg25
S'0xb3d10L'
p137
sg27
Nsba(ibclass
BInstr
p138
(dp139
g2
Nsg17
S'CMP     R3, #0'
p140
sg19
S'000053e3'
p141
sg21
Vcmp r3, #0
p142
sg5
L736532L
sg6
Nsg23
S'CMP'
p143
sg25
S'0xb3d14L'
p144
sg27
Nsba(ibclass
BInstr
p145
(dp146
g2
Nsg17
S'BEQ     loc_B3E34'
p147
sg19
S'4500000a'
p148
sg21
Vbeq #0x11c
p149
sg5
L736536L
sg6
Nsg23
g96
sg25
S'0xb3d18L'
p150
sg27
Nsbasg98
(lp151
S'LDR rp, mem'
p152
aS'CMP R3, #0'
p153
aS'BEQ func'
p154
asg111
Nsg5
S'0xb3d10L'
p155
sg113
(lp156
S'0xb3ce4L'
p157
asg6
Nsg115
(lp158
S'0xb3d1cL'
p159
aS'0xb3e34L'
p160
asg119
Nsg120
Nsg121
S'fa4df767a85c49648339e2dc5c6807f6'
p161
sg123
S'313a1768978969237d1d4e2da4b14a69'
p162
sg125
(lp163
g136
ag143
ag96
asg127
Nsba(ibclass
BBasicBlock
p164
(dp165
g12
Nsg13
(lp166
(ibclass
BInstr
p167
(dp168
g2
Nsg17
S'LDR     R3, [dsa,#0x14]'
p169
sg19
S'143094e5'
p170
sg21
Vldr r3, [r4, #0x14]
p171
sg5
L736540L
sg6
Nsg23
S'LDR'
p172
sg25
S'0xb3d1cL'
p173
sg27
Nsba(ibclass
BInstr
p174
(dp175
g2
Nsg17
S'CMP     R3, #0'
p176
sg19
S'000053e3'
p177
sg21
Vcmp r3, #0
p178
sg5
L736544L
sg6
Nsg23
S'CMP'
p179
sg25
S'0xb3d20L'
p180
sg27
Nsba(ibclass
BInstr
p181
(dp182
g2
Nsg17
S'BEQ     loc_B3E34'
p183
sg19
S'4200000a'
p184
sg21
Vbeq #0x110
p185
sg5
L736548L
sg6
Nsg23
g96
sg25
S'0xb3d24L'
p186
sg27
Nsbasg98
(lp187
S'LDR R3, mem'
p188
aS'CMP R3, #0'
p189
aS'BEQ func'
p190
asg111
Nsg5
S'0xb3d1cL'
p191
sg113
(lp192
S'0xb3d10L'
p193
asg6
Nsg115
(lp194
S'0xb3d28L'
p195
aS'0xb3e34L'
p196
asg119
Nsg120
Nsg121
S'fa4df767a85c49648339e2dc5c6807f6'
p197
sg123
S'23ae957b98072c06eeee750a1243ddb5'
p198
sg125
(lp199
g172
ag179
ag96
asg127
Nsba(ibclass
BBasicBlock
p200
(dp201
g12
Nsg13
(lp202
(ibclass
BInstr
p203
(dp204
g2
Nsg17
S'ADD     R5, SP, #0x68+k'
p205
sg19
S'2c508de2'
p206
sg21
Vadd r5, sp, #0x2c
p207
sg5
L736552L
sg6
Nsg23
S'ADD'
p208
sg25
S'0xb3d28L'
p209
sg27
Nsba(ibclass
BInstr
p210
(dp211
g2
Nsg17
S'MOV     R0, R5          ; a'
p212
sg19
S'0500a0e1'
p213
sg21
Vmov r0, r5
p214
sg5
L736556L
sg6
Nsg23
S'MOV'
p215
sg25
S'0xb3d2cL'
p216
sg27
Nsba(ibclass
BInstr
p217
(dp218
g2
Nsg17
S'ADD     R8, SP, #0x68+kq'
p219
sg19
S'18808de2'
p220
sg21
Vadd r8, sp, #0x18
p221
sg5
L736560L
sg6
Nsg23
S'ADD'
p222
sg25
S'0xb3d30L'
p223
sg27
Nsba(ibclass
BInstr
p224
(dp225
g2
Nsg17
S'BL      BN_init'
p226
sg19
S'a858ffeb'
p227
sg21
Vbl #0xfffd62a8
p228
sg5
L736564L
sg6
Nsg23
S'BL'
p229
sg25
S'0xb3d34L'
p230
sg27
Nsba(ibclass
BInstr
p231
(dp232
g2
Nsg17
S'MOV     R0, R8          ; a'
p233
sg19
S'0800a0e1'
p234
sg21
Vmov r0, r8
p235
sg5
L736568L
sg6
Nsg23
S'MOV'
p236
sg25
S'0xb3d38L'
p237
sg27
Nsba(ibclass
BInstr
p238
(dp239
g2
Nsg17
S'BL      BN_init'
p240
sg19
S'a658ffeb'
p241
sg21
Vbl #0xfffd62a0
p242
sg5
L736572L
sg6
Nsg23
S'BL'
p243
sg25
S'0xb3d3cL'
p244
sg27
Nsba(ibclass
BInstr
p245
(dp246
g2
Nsg17
S'CMP     ctx_in, #0'
p247
sg19
S'000057e3'
p248
sg21
Vcmp r7, #0
p249
sg5
L736576L
sg6
Nsg23
S'CMP'
p250
sg25
S'0xb3d40L'
p251
sg27
Nsba(ibclass
BInstr
p252
(dp253
g2
Nsg17
S'MOVNE   R9, ctx_in'
p254
sg19
S'0790a011'
p255
sg21
Vmovne sb, r7
p256
sg5
L736580L
sg6
Nsg23
S'MOV'
p257
sg25
S'0xb3d44L'
p258
sg27
Nsba(ibclass
BInstr
p259
(dp260
g2
Nsg17
S'BEQ     loc_B3F54'
p261
sg19
S'8100000a'
p262
sg21
Vbeq #0x20c
p263
sg5
L736584L
sg6
Nsg23
g96
sg25
S'0xb3d48L'
p264
sg27
Nsbasg98
(lp265
S'ADD R5, SP, #0x68+k'
p266
aS'MOV R0, R5'
p267
aS'ADD R8, SP, #0x68+kq'
p268
aS'BL BN_init'
p269
aS'MOV R0, R8'
p270
aS'BL BN_init'
p271
aS'CMP ctx_in, #0'
p272
aS'MOVNE R9, ctx_in'
p273
aS'BEQ func'
p274
asg111
Nsg5
S'0xb3d28L'
p275
sg113
(lp276
S'0xb3d1cL'
p277
asg6
Nsg115
(lp278
S'0xb3d4cL'
p279
aS'0xb3f54L'
p280
asg119
Nsg120
Nsg121
S'deccc115cd7c0a0f6f9457b5c5c03a39'
p281
sg123
S'b653d4ea78cfad86cd70872cf18c9309'
p282
sg125
(lp283
g208
ag215
ag222
ag229
ag236
ag243
ag250
ag257
ag96
asg127
Nsba(ibclass
BBasicBlock
p284
(dp285
g12
Nsg13
(lp286
(ibclass
BInstr
p287
(dp288
g2
Nsg17
S'BL      BN_new'
p289
sg19
S'ad59ffeb'
p290
sg21
Vbl #0xfffd66bc
p291
sg5
L736588L
sg6
Nsg23
S'BL'
p292
sg25
S'0xb3d4cL'
p293
sg27
Nsba(ibclass
BInstr
p294
(dp295
g2
Nsg17
S'SUBS    R10, R0, #0'
p296
sg19
S'00a050e2'
p297
sg21
Vsubs sl, r0, #0
p298
sg5
L736592L
sg6
Nsg23
S'SUB'
p299
sg25
S'0xb3d50L'
p300
sg27
Nsba(ibclass
BInstr
p301
(dp302
g2
Nsg17
S'BEQ     err'
p303
sg19
S'8100000a'
p304
sg21
Vbeq #0x20c
p305
sg5
L736596L
sg6
Nsg23
g96
sg25
S'0xb3d54L'
p306
sg27
Nsbasg98
(lp307
S'BL BN_new'
p308
aS'SUBS R10, R0, #0'
p309
aS'BEQ err'
p310
asg111
Nsg5
S'0xb3d4cL'
p311
sg113
(lp312
S'0xb3d28L'
p313
aS'0xb3f54L'
p314
asg6
Nsg115
(lp315
S'0xb3d58L'
p316
aS'0xb3f60L'
p317
asg119
Nsg120
Nsg121
S'b0655893861b4069fc8460910fabe5df'
p318
sg123
S'ad885c58af44e1890d6062d7e0732d77'
p319
sg125
(lp320
g292
ag299
ag96
asg127
Nsba(ibclass
BBasicBlock
p321
(dp322
g12
Nsg13
(lp323
(ibclass
BInstr
p324
(dp325
g2
Nsg17
S'MOV     R0, R5          ; r'
p326
sg19
S'0500a0e1'
p327
sg21
Vmov r0, r5
p328
sg5
L736600L
sg6
Nsg23
S'MOV'
p329
sg25
S'0xb3d58L'
p330
sg27
Nsba(ibclass
BInstr
p331
(dp332
g2
Nsg17
S'LDR     R1, [dsa,#0x10] ; range'
p333
sg19
S'101094e5'
p334
sg21
Vldr r1, [r4, #0x10]
p335
sg5
L736604L
sg6
Nsg23
S'LDR'
p336
sg25
S'0xb3d5cL'
p337
sg27
Nsba(ibclass
BInstr
p338
(dp339
g2
Nsg17
S'BL      BN_rand_range'
p340
sg19
S'7267ffeb'
p341
sg21
Vbl #0xfffd9dd0
p342
sg5
L736608L
sg6
Nsg23
S'BL'
p343
sg25
S'0xb3d60L'
p344
sg27
Nsba(ibclass
BInstr
p345
(dp346
g2
Nsg17
S'CMP     R0, #0'
p347
sg19
S'000050e3'
p348
sg21
Vcmp r0, #0
p349
sg5
L736612L
sg6
Nsg23
S'CMP'
p350
sg25
S'0xb3d64L'
p351
sg27
Nsba(ibclass
BInstr
p352
(dp353
g2
Nsg17
S'BEQ     loc_B3DE0'
p354
sg19
S'1c00000a'
p355
sg21
Vbeq #0x78
p356
sg5
L736616L
sg6
Nsg23
g96
sg25
S'0xb3d68L'
p357
sg27
Nsbasg98
(lp358
S'MOV R0, R5'
p359
aS'LDR R1, mem'
p360
aS'BL BN_rand_range'
p361
aS'CMP R0, #0'
p362
aS'BEQ func'
p363
asg111
Nsg5
S'0xb3d58L'
p364
sg113
(lp365
S'0xb3d4cL'
p366
aS'0xb3d6cL'
p367
asg6
Nsg115
(lp368
S'0xb3d6cL'
p369
aS'0xb3de0L'
p370
asg119
Nsg120
Nsg121
S'5e6680f2a57ef95724a28611d18e027e'
p371
sg123
S'96a1614e31fd22147e9026894c318c2d'
p372
sg125
(lp373
g329
ag336
ag343
ag350
ag96
asg127
Nsba(ibclass
BBasicBlock
p374
(dp375
g12
Nsg13
(lp376
(ibclass
BInstr
p377
(dp378
g2
Nsg17
S'LDR     R3, [SP,#0x68+k.top]'
p379
sg19
S'30309de5'
p380
sg21
Vldr r3, [sp, #0x30]
p381
sg5
L736620L
sg6
Nsg23
S'LDR'
p382
sg25
S'0xb3d6cL'
p383
sg27
Nsba(ibclass
BInstr
p384
(dp385
g2
Nsg17
S'CMP     R3, #0'
p386
sg19
S'000053e3'
p387
sg21
Vcmp r3, #0
p388
sg5
L736624L
sg6
Nsg23
S'CMP'
p389
sg25
S'0xb3d70L'
p390
sg27
Nsba(ibclass
BInstr
p391
(dp392
g2
Nsg17
S'BEQ     loc_B3D58'
p393
sg19
S'f7ffff0a'
p394
sg21
Vbeq #0xffffffe4
p395
sg5
L736628L
sg6
Nsg23
g96
sg25
S'0xb3d74L'
p396
sg27
Nsbasg98
(lp397
S'LDR R3, mem'
p398
aS'CMP R3, #0'
p399
aS'BEQ func'
p400
asg111
Nsg5
S'0xb3d6cL'
p401
sg113
(lp402
S'0xb3d58L'
p403
asg6
Nsg115
(lp404
S'0xb3d58L'
p405
aS'0xb3d78L'
p406
asg119
Nsg120
Nsg121
S'fa4df767a85c49648339e2dc5c6807f6'
p407
sg123
S'23ae957b98072c06eeee750a1243ddb5'
p408
sg125
(lp409
g382
ag389
ag96
asg127
Nsba(ibclass
BBasicBlock
p410
(dp411
g12
Nsg13
(lp412
(ibclass
BInstr
p413
(dp414
g2
Nsg17
S'LDR     R3, [dsa,#0x28]'
p415
sg19
S'283094e5'
p416
sg21
Vldr r3, [r4, #0x28]
p417
sg5
L736632L
sg6
Nsg23
S'LDR'
p418
sg25
S'0xb3d78L'
p419
sg27
Nsba(ibclass
BInstr
p420
(dp421
g2
Nsg17
S'ANDS    R2, R3, #2'
p422
sg19
S'022013e2'
p423
sg21
Vands r2, r3, #2
p424
sg5
L736636L
sg6
Nsg23
S'AND'
p425
sg25
S'0xb3d7cL'
p426
sg27
Nsba(ibclass
BInstr
p427
(dp428
g2
Nsg17
S'LDREQ   R1, [SP,#0x68+k.flags]'
p429
sg19
S'3c109d05'
p430
sg21
Vldreq r1, [sp, #0x3c]
p431
sg5
L736640L
sg6
Nsg23
S'LDR'
p432
sg25
S'0xb3d80L'
p433
sg27
Nsba(ibclass
BInstr
p434
(dp435
g2
Nsg17
S'ORREQ   R1, R1, #4'
p436
sg19
S'04108103'
p437
sg21
Vorreq r1, r1, #4
p438
sg5
L736644L
sg6
Nsg23
S'ORR'
p439
sg25
S'0xb3d84L'
p440
sg27
Nsba(ibclass
BInstr
p441
(dp442
g2
Nsg17
S'STREQ   R1, [SP,#0x68+k.flags]'
p443
sg19
S'3c108d05'
p444
sg21
Vstreq r1, [sp, #0x3c]
p445
sg5
L736648L
sg6
Nsg23
S'STR'
p446
sg25
S'0xb3d88L'
p447
sg27
Nsba(ibclass
BInstr
p448
(dp449
g2
Nsg17
S'TST     R3, #1'
p450
sg19
S'010013e3'
p451
sg21
Vtst r3, #1
p452
sg5
L736652L
sg6
Nsg23
S'TST'
p453
sg25
S'0xb3d8cL'
p454
sg27
Nsba(ibclass
BInstr
p455
(dp456
g2
Nsg17
S'BNE     loc_B3ECC'
p457
sg19
S'4d00001a'
p458
sg21
Vbne #0x13c
p459
sg5
L736656L
sg6
Nsg23
g96
sg25
S'0xb3d90L'
p460
sg27
Nsbasg98
(lp461
S'LDR R3, mem'
p462
aS'ANDS R2, R3, #2'
p463
aS'LDREQ R1, mem'
p464
aS'ORREQ R1, R1, #4'
p465
aS'STREQ R1, mem'
p466
aS'TST R3, #1'
p467
aS'BNE func'
p468
asg111
Nsg5
S'0xb3d78L'
p469
sg113
(lp470
S'0xb3d6cL'
p471
asg6
Nsg115
(lp472
S'0xb3d94L'
p473
aS'0xb3eccL'
p474
asg119
Nsg120
Nsg121
S'62266f92a9f1ac7cd59fa959c3b05e5c'
p475
sg123
S'438ac37d8d1ca4dcf47741ff12236547'
p476
sg125
(lp477
g418
ag425
ag432
ag439
ag446
ag453
ag96
asg127
Nsba(ibclass
BBasicBlock
p478
(dp479
g12
Nsg13
(lp480
(ibclass
BInstr
p481
(dp482
g2
Nsg17
S'CMP     R2, #0'
p483
sg19
S'000052e3'
p484
sg21
Vcmp r2, #0
p485
sg5
L736660L
sg6
Nsg23
S'CMP'
p486
sg25
S'0xb3d94L'
p487
sg27
Nsba(ibclass
BInstr
p488
(dp489
g2
Nsg17
S'MOVNE   R3, R5'
p490
sg19
S'0530a011'
p491
sg21
Vmovne r3, r5
p492
sg5
L736664L
sg6
Nsg23
S'MOV'
p493
sg25
S'0xb3d98L'
p494
sg27
Nsba(ibclass
BInstr
p495
(dp496
g2
Nsg17
S'BEQ     loc_B3EFC'
p497
sg19
S'5600000a'
p498
sg21
Vbeq #0x160
p499
sg5
L736668L
sg6
Nsg23
g96
sg25
S'0xb3d9cL'
p500
sg27
Nsbasg98
(lp501
S'CMP R2, #0'
p502
aS'MOVNE R3, R5'
p503
aS'BEQ func'
p504
asg111
Nsg5
S'0xb3d94L'
p505
sg113
(lp506
S'0xb3d78L'
p507
asg6
Nsg115
(lp508
S'0xb3da0L'
p509
aS'0xb3efcL'
p510
asg119
Nsg120
Nsg121
S'e8df9ba4cde3984b4ab59d5bb6791e02'
p511
sg123
S'991a3420e3a21060d4beb4b36958e745'
p512
sg125
(lp513
g486
ag493
ag96
asg127
Nsba(ibclass
BBasicBlock
p514
(dp515
g12
Nsg13
(lp516
(ibclass
BInstr
p517
(dp518
g2
Nsg17
S'LDR     R2, [dsa,#0x3C]'
p519
sg19
S'3c2094e5'
p520
sg21
Vldr r2, [r4, #0x3c]
p521
sg5
L736672L
sg6
Nsg23
S'LDR'
p522
sg25
S'0xb3da0L'
p523
sg27
Nsba(ibclass
BInstr
p524
(dp525
g2
Nsg17
S'LDR     R12, [R2,#0x14]'
p526
sg19
S'14c092e5'
p527
sg21
Vldr ip, [r2, #0x14]
p528
sg5
L736676L
sg6
Nsg23
S'LDR'
p529
sg25
S'0xb3da4L'
p530
sg27
Nsba(ibclass
BInstr
p531
(dp532
g2
Nsg17
S'CMP     R12, #0'
p533
sg19
S'00005ce3'
p534
sg21
Vcmp ip, #0
p535
sg5
L736680L
sg6
Nsg23
S'CMP'
p536
sg25
S'0xb3da8L'
p537
sg27
Nsba(ibclass
BInstr
p538
(dp539
g2
Nsg17
S'BEQ     loc_B3FA8'
p540
sg19
S'7d00000a'
p541
sg21
Vbeq #0x1fc
p542
sg5
L736684L
sg6
Nsg23
g96
sg25
S'0xb3dacL'
p543
sg27
Nsbasg98
(lp544
S'LDR R2, mem'
p545
aS'LDR R12, mem'
p546
aS'CMP R12, #0'
p547
aS'BEQ func'
p548
asg111
Nsg5
S'0xb3da0L'
p549
sg113
(lp550
S'0xb3d94L'
p551
aS'0xb3ee8L'
p552
aS'0xb3f4cL'
p553
aS'0xb3fa0L'
p554
asg6
Nsg115
(lp555
S'0xb3db0L'
p556
aS'0xb3fa8L'
p557
asg119
Nsg120
Nsg121
S'd9812e74326a7ebe01ae9e2a00bbb5ee'
p558
sg123
S'a985ff50a085bee5119eee72dc5c2d8a'
p559
sg125
(lp560
g522
ag529
ag536
ag96
asg127
Nsba(ibclass
BBasicBlock
p561
(dp562
g12
Nsg13
(lp563
(ibclass
BInstr
p564
(dp565
g2
Nsg17
S'LDR     R0, [dsa,#0xC]'
p566
sg19
S'0c0094e5'
p567
sg21
Vldr r0, [r4, #0xc]
p568
sg5
L736688L
sg6
Nsg23
S'LDR'
p569
sg25
S'0xb3db0L'
p570
sg27
Nsba(ibclass
BInstr
p571
(dp572
g2
Nsg17
S'LDR     R1, [dsa,#0x2C]'
p573
sg19
S'2c1094e5'
p574
sg21
Vldr r1, [r4, #0x2c]
p575
sg5
L736692L
sg6
Nsg23
S'LDR'
p576
sg25
S'0xb3db4L'
p577
sg27
Nsba(ibclass
BInstr
p578
(dp579
g2
Nsg17
S'LDR     R2, [dsa,#0x14]'
p580
sg19
S'142094e5'
p581
sg21
Vldr r2, [r4, #0x14]
p582
sg5
L736696L
sg6
Nsg23
S'LDR'
p583
sg25
S'0xb3db8L'
p584
sg27
Nsba(ibclass
BInstr
p585
(dp586
g2
Nsg17
S'STR     R0, [SP,#0x68+line]'
p587
sg19
S'00008de5'
p588
sg21
Vstr r0, [sp]
p589
sg5
L736700L
sg6
Nsg23
S'STR'
p590
sg25
S'0xb3dbcL'
p591
sg27
Nsba(ibclass
BInstr
p592
(dp593
g2
Nsg17
S'STR     R1, [SP,#0x68+var_60]'
p594
sg19
S'08108de5'
p595
sg21
Vstr r1, [sp, #8]
p596
sg5
L736704L
sg6
Nsg23
S'STR'
p597
sg25
S'0xb3dc0L'
p598
sg27
Nsba(ibclass
BInstr
p599
(dp600
g2
Nsg17
S'STR     ctx, [SP,#0x68+var_64]'
p601
sg19
S'04908de5'
p602
sg21
Vstr sb, [sp, #4]
p603
sg5
L736708L
sg6
Nsg23
S'STR'
p604
sg25
S'0xb3dc4L'
p605
sg27
Nsba(ibclass
BInstr
p606
(dp607
g2
Nsg17
S'MOV     R0, dsa'
p608
sg19
S'0400a0e1'
p609
sg21
Vmov r0, r4
p610
sg5
L736712L
sg6
Nsg23
S'MOV'
p611
sg25
S'0xb3dc8L'
p612
sg27
Nsba(ibclass
BInstr
p613
(dp614
g2
Nsg17
S'MOV     R1, r'
p615
sg19
S'0a10a0e1'
p616
sg21
Vmov r1, sl
p617
sg5
L736716L
sg6
Nsg23
S'MOV'
p618
sg25
S'0xb3dccL'
p619
sg27
Nsba(ibclass
BInstr
p620
(dp621
g2
Nsg17
S'MOV     LR, PC'
p622
sg19
S'0fe0a0e1'
p623
sg21
Vmov lr, pc
p624
sg5
L736720L
sg6
Nsg23
S'MOV'
p625
sg25
S'0xb3dd0L'
p626
sg27
Nsba(ibclass
BInstr
p627
(dp628
g2
Nsg17
S'BX      R12'
p629
sg19
S'1cff2fe1'
p630
sg21
Vbx ip
p631
sg5
L736724L
sg6
Nsg23
S'BX'
p632
sg25
S'0xb3dd4L'
p633
sg27
Nsbasg98
(lp634
S'LDR R0, mem'
p635
aS'LDR R1, mem'
p636
aS'LDR R2, mem'
p637
aS'STR R0, mem'
p638
aS'STR R1, mem'
p639
aS'STR ctx, mem'
p640
aS'MOV R0, dsa'
p641
aS'MOV R1, r'
p642
aS'MOV LR, PC'
p643
aS'BX R12'
p644
asg111
Nsg5
S'0xb3db0L'
p645
sg113
(lp646
S'0xb3da0L'
p647
asg6
Nsg115
(lp648
S'0xb3dd8L'
p649
asg119
Nsg120
Nsg121
S'128cccb00f35535214887518cf0b5b36'
p650
sg123
S'5e7297c5b4dbd7b8c71da41e7bfa2969'
p651
sg125
(lp652
g569
ag576
ag583
ag590
ag597
ag604
ag611
ag618
ag625
ag632
asg127
Nsba(ibclass
BBasicBlock
p653
(dp654
g12
Nsg13
(lp655
(ibclass
BInstr
p656
(dp657
g2
Nsg17
S'CMP     R0, #0'
p658
sg19
S'000050e3'
p659
sg21
Vcmp r0, #0
p660
sg5
L736728L
sg6
Nsg23
S'CMP'
p661
sg25
S'0xb3dd8L'
p662
sg27
Nsba(ibclass
BInstr
p663
(dp664
g2
Nsg17
S'BNE     loc_B3E5C'
p665
sg19
S'1e00001a'
p666
sg21
Vbne #0x80
p667
sg5
L736732L
sg6
Nsg23
g96
sg25
S'0xb3ddcL'
p668
sg27
Nsbasg98
(lp669
S'CMP R0, #0'
p670
aS'BNE func'
p671
asg111
Nsg5
S'0xb3dd8L'
p672
sg113
(lp673
S'0xb3db0L'
p674
aS'0xb3fa8L'
p675
asg6
Nsg115
(lp676
S'0xb3de0L'
p677
aS'0xb3e5cL'
p678
asg119
Nsg120
Nsg121
S'c78fd620a449e3c979d3f3ec12d4ee88'
p679
sg123
S'fe97206a9e5b1782829e1849389749db'
p680
sg125
(lp681
g661
ag96
asg127
Nsba(ibclass
BBasicBlock
p682
(dp683
g12
Nsg13
(lp684
(ibclass
BInstr
p685
(dp686
g2
Nsg17
S'LDR     R3, =(aDsa_ossl_c - 0x189000)'
p687
sg19
S'f4319fe5'
p688
sg21
Vldr r3, [pc, #0x1f4]
p689
sg5
L736736L
sg6
Nsg23
S'LDR'
p690
sg25
S'0xb3de0L'
p691
sg27
Nsba(ibclass
BInstr
p692
(dp693
g2
Nsg17
S'MOV     R12, #0x130'
p694
sg19
S'13cea0e3'
p695
sg21
Vmov ip, #0x130
p696
sg5
L736740L
sg6
Nsg23
S'MOV'
p697
sg25
S'0xb3de4L'
p698
sg27
Nsba(ibclass
BInstr
p699
(dp700
g2
Nsg17
S'MOV     R1, #0x6B       ; func'
p701
sg19
S'6b10a0e3'
p702
sg21
Vmov r1, #0x6b
p703
sg5
L736744L
sg6
Nsg23
S'MOV'
p704
sg25
S'0xb3de8L'
p705
sg27
Nsba(ibclass
BInstr
p706
(dp707
g2
Nsg17
S'ADD     R3, R6, R3      ; "dsa_ossl.c"'
p708
sg19
S'033086e0'
p709
sg21
Vadd r3, r6, r3
p710
sg5
L736748L
sg6
Nsg23
S'ADD'
p711
sg25
S'0xb3decL'
p712
sg27
Nsba(ibclass
BInstr
p713
(dp714
g2
Nsg17
S'MOV     R2, #3          ; reason'
p715
sg19
S'0320a0e3'
p716
sg21
Vmov r2, #3
p717
sg5
L736752L
sg6
Nsg23
S'MOV'
p718
sg25
S'0xb3df0L'
p719
sg27
Nsba(ibclass
BInstr
p720
(dp721
g2
Nsg17
S'MOV     _tmp_res53, #0xA; lib'
p722
sg19
S'0a00a0e3'
p723
sg21
Vmov r0, #0xa
p724
sg5
L736756L
sg6
Nsg23
S'MOV'
p725
sg25
S'0xb3df4L'
p726
sg27
Nsba(ibclass
BInstr
p727
(dp728
g2
Nsg17
S'STR     R12, [SP,#0x68+line]; line'
p729
sg19
S'00c08de5'
p730
sg21
Vstr ip, [sp]
p731
sg5
L736760L
sg6
Nsg23
S'STR'
p732
sg25
S'0xb3df8L'
p733
sg27
Nsba(ibclass
BInstr
p734
(dp735
g2
Nsg17
S'BL      ERR_put_error'
p736
sg19
S'ac7700eb'
p737
sg21
Vbl #0x1deb8
p738
sg5
L736764L
sg6
Nsg23
S'BL'
p739
sg25
S'0xb3dfcL'
p740
sg27
Nsba(ibclass
BInstr
p741
(dp742
g2
Nsg17
S'MOV     R0, r           ; a'
p743
sg19
S'0a00a0e1'
p744
sg21
Vmov r0, sl
p745
sg5
L736768L
sg6
Nsg23
S'MOV'
p746
sg25
S'0xb3e00L'
p747
sg27
Nsba(ibclass
BInstr
p748
(dp749
g2
Nsg17
S'BL      BN_clear_free'
p750
sg19
S'0e5affeb'
p751
sg21
Vbl #0xfffd6840
p752
sg5
L736772L
sg6
Nsg23
S'BL'
p753
sg25
S'0xb3e04L'
p754
sg27
Nsba(ibclass
BInstr
p755
(dp756
g2
Nsg17
S'MOV     kinv, #0'
p757
sg19
S'0040a0e3'
p758
sg21
Vmov r4, #0
p759
sg5
L736776L
sg6
Nsg23
S'MOV'
p760
sg25
S'0xb3e08L'
p761
sg27
Nsbasg98
(lp762
S'LDR R3, =(aDsa_ossl_c - address0)'
p763
aS'MOV R12, #0x130'
p764
aS'MOV R1, #0x6B'
p765
aS'ADD R3, R6, R3'
p766
aS'MOV R2, #3'
p767
aS'MOV _tmp_res53, #0xA'
p768
aS'STR R12, mem'
p769
aS'BL ERR_put_error'
p770
aS'MOV R0, r'
p771
aS'BL BN_regear_free'
p772
aS'MOV kinv, #0'
p773
asg111
Nsg5
S'0xb3de0L'
p774
sg113
(lp775
S'0xb3d58L'
p776
aS'0xb3dd8L'
p777
aS'0xb3e5cL'
p778
aS'0xb3e7cL'
p779
aS'0xb3eccL'
p780
aS'0xb3efcL'
p781
aS'0xb3f10L'
p782
aS'0xb3f88L'
p783
asg6
Nsg115
(lp784
S'0xb3e0cL'
p785
asg119
Nsg120
Nsg121
S'3c0b5b59394ea9dd5ac0b0bf6b397125'
p786
sg123
S'e777f41caae1e036451a125977a12a19'
p787
sg125
(lp788
g690
ag697
ag704
ag711
ag718
ag725
ag732
ag739
ag746
ag753
ag760
asg127
Nsba(ibclass
BBasicBlock
p789
(dp790
g12
Nsg13
(lp791
(ibclass
BInstr
p792
(dp793
g2
Nsg17
S'CMP     ctx_in, #0'
p794
sg19
S'000057e3'
p795
sg21
Vcmp r7, #0
p796
sg5
L736780L
sg6
Nsg23
S'CMP'
p797
sg25
S'0xb3e0cL'
p798
sg27
Nsba(ibclass
BInstr
p799
(dp800
g2
Nsg17
S'BEQ     loc_B3FCC'
p801
sg19
S'6d00000a'
p802
sg21
Vbeq #0x1bc
p803
sg5
L736784L
sg6
Nsg23
g96
sg25
S'0xb3e10L'
p804
sg27
Nsbasg98
(lp805
S'CMP ctx_in, #0'
p806
aS'BEQ func'
p807
asg111
Nsg5
S'0xb3e0cL'
p808
sg113
(lp809
S'0xb3de0L'
p810
aS'0xb3ec0L'
p811
aS'0xb3f60L'
p812
asg6
Nsg115
(lp813
S'0xb3e14L'
p814
aS'0xb3fccL'
p815
asg119
Nsg120
Nsg121
S'c78fd620a449e3c979d3f3ec12d4ee88'
p816
sg123
S'067e16b32ce63ba35d1e795903322bf2'
p817
sg125
(lp818
g797
ag96
asg127
Nsba(ibclass
BBasicBlock
p819
(dp820
g12
Nsg13
(lp821
(ibclass
BInstr
p822
(dp823
g2
Nsg17
S'MOV     R0, R5          ; a'
p824
sg19
S'0500a0e1'
p825
sg21
Vmov r0, r5
p826
sg5
L736788L
sg6
Nsg23
S'MOV'
p827
sg25
S'0xb3e14L'
p828
sg27
Nsba(ibclass
BInstr
p829
(dp830
g2
Nsg17
S'BL      BN_clear_free'
p831
sg19
S'095affeb'
p832
sg21
Vbl #0xfffd682c
p833
sg5
L736792L
sg6
Nsg23
S'BL'
p834
sg25
S'0xb3e18L'
p835
sg27
Nsba(ibclass
BInstr
p836
(dp837
g2
Nsg17
S'MOV     R0, R8          ; a'
p838
sg19
S'0800a0e1'
p839
sg21
Vmov r0, r8
p840
sg5
L736796L
sg6
Nsg23
S'MOV'
p841
sg25
S'0xb3e1cL'
p842
sg27
Nsba(ibclass
BInstr
p843
(dp844
g2
Nsg17
S'BL      BN_clear_free'
p845
sg19
S'075affeb'
p846
sg21
Vbl #0xfffd6824
p847
sg5
L736800L
sg6
Nsg23
S'BL'
p848
sg25
S'0xb3e20L'
p849
sg27
Nsbasg98
(lp850
S'MOV R0, R5'
p851
aS'BL BN_regear_free'
p852
aS'MOV R0, R8'
p853
aS'BL BN_regear_free'
p854
asg111
Nsg5
S'0xb3e14L'
p855
sg113
(lp856
S'0xb3e0cL'
p857
aS'0xb3fccL'
p858
asg6
Nsg115
(lp859
S'0xb3e24L'
p860
asg119
Nsg120
Nsg121
S'e410c53a38863ab40fce08231445bca1'
p861
sg123
S'0ea4319d2ec6169509e2c667c0224006'
p862
sg125
(lp863
g827
ag834
ag841
ag848
asg127
Nsba(ibclass
BBasicBlock
p864
(dp865
g12
Nsg13
(lp866
(ibclass
BInstr
p867
(dp868
g2
Nsg17
S'MOV     R0, ret'
p869
sg19
S'0400a0e1'
p870
sg21
Vmov r0, r4
p871
sg5
L736804L
sg6
Nsg23
S'MOV'
p872
sg25
S'0xb3e24L'
p873
sg27
Nsba(ibclass
BInstr
p874
(dp875
g2
Nsg17
S'ADD     SP, SP, #0x44'
p876
sg19
S'44d08de2'
p877
sg21
Vadd sp, sp, #0x44
p878
sg5
L736808L
sg6
Nsg23
S'ADD'
p879
sg25
S'0xb3e28L'
p880
sg27
Nsba(ibclass
BInstr
p881
(dp882
g2
Nsg17
S'LDMFD   SP!, {ret-kinvp,LR}'
p883
sg19
S'f04fbde8'
p884
sg21
Vpop {r4, r5, r6, r7, r8, sb, sl, fp, lr}
p885
sg5
L736812L
sg6
Nsg23
S'LDM'
p886
sg25
S'0xb3e2cL'
p887
sg27
Nsba(ibclass
BInstr
p888
(dp889
g2
Nsg17
S'BX      LR              ; ctx'
p890
sg19
S'1eff2fe1'
p891
sg21
Vbx lr
p892
sg5
L736816L
sg6
Nsg23
S'BX'
p893
sg25
S'0xb3e30L'
p894
sg27
Nsbasg98
(lp895
S'MOV R0, ret'
p896
aS'ADD SP, SP, #0x44'
p897
aS'LDMFD SP!, {ret-kinvp,LR}'
p898
aS'BX LR'
p899
asg111
Nsg5
S'0xb3e24L'
p900
sg113
(lp901
S'0xb3e14L'
p902
aS'0xb3e34L'
p903
asg6
Nsg115
(lp904
sg119
Nsg120
Nsg121
S'bc984d627a05f387655964404c76526b'
p905
sg123
S'a363c64248f4ffe951e958864782e84a'
p906
sg125
(lp907
g872
ag879
ag886
ag893
asg127
Nsba(ibclass
BBasicBlock
p908
(dp909
g12
Nsg13
(lp910
(ibclass
BInstr
p911
(dp912
g2
Nsg17
S'LDR     rp, =(aDsa_ossl_c - 0x189000)'
p913
sg19
S'a0319fe5'
p914
sg21
Vldr r3, [pc, #0x1a0]
p915
sg5
L736820L
sg6
Nsg23
S'LDR'
p916
sg25
S'0xb3e34L'
p917
sg27
Nsba(ibclass
BInstr
p918
(dp919
g2
Nsg17
S'MOV     R12, #0xE6'
p920
sg19
S'e6c0a0e3'
p921
sg21
Vmov ip, #0xe6
p922
sg5
L736824L
sg6
Nsg23
S'MOV'
p923
sg25
S'0xb3e38L'
p924
sg27
Nsba(ibclass
BInstr
p925
(dp926
g2
Nsg17
S'ADD     R3, R6, R3      ; "dsa_ossl.c"'
p927
sg19
S'033086e0'
p928
sg21
Vadd r3, r6, r3
p929
sg5
L736828L
sg6
Nsg23
S'ADD'
p930
sg25
S'0xb3e3cL'
p931
sg27
Nsba(ibclass
BInstr
p932
(dp933
g2
Nsg17
S'MOV     R0, #0xA        ; lib'
p934
sg19
S'0a00a0e3'
p935
sg21
Vmov r0, #0xa
p936
sg5
L736832L
sg6
Nsg23
S'MOV'
p937
sg25
S'0xb3e40L'
p938
sg27
Nsba(ibclass
BInstr
p939
(dp940
g2
Nsg17
S'MOV     R1, #0x6B       ; func'
p941
sg19
S'6b10a0e3'
p942
sg21
Vmov r1, #0x6b
p943
sg5
L736836L
sg6
Nsg23
S'MOV'
p944
sg25
S'0xb3e44L'
p945
sg27
Nsba(ibclass
BInstr
p946
(dp947
g2
Nsg17
S'MOV     R2, #0x65       ; reason'
p948
sg19
S'6520a0e3'
p949
sg21
Vmov r2, #0x65
p950
sg5
L736840L
sg6
Nsg23
S'MOV'
p951
sg25
S'0xb3e48L'
p952
sg27
Nsba(ibclass
BInstr
p953
(dp954
g2
Nsg17
S'STR     R12, [SP,#0x68+line]; line'
p955
sg19
S'00c08de5'
p956
sg21
Vstr ip, [sp]
p957
sg5
L736844L
sg6
Nsg23
S'STR'
p958
sg25
S'0xb3e4cL'
p959
sg27
Nsba(ibclass
BInstr
p960
(dp961
g2
Nsg17
S'MOV     dsa, #0'
p962
sg19
S'0040a0e3'
p963
sg21
Vmov r4, #0
p964
sg5
L736848L
sg6
Nsg23
S'MOV'
p965
sg25
S'0xb3e50L'
p966
sg27
Nsba(ibclass
BInstr
p967
(dp968
g2
Nsg17
S'BL      ERR_put_error'
p969
sg19
S'967700eb'
p970
sg21
Vbl #0x1de60
p971
sg5
L736852L
sg6
Nsg23
S'BL'
p972
sg25
S'0xb3e54L'
p973
sg27
Nsba(ibclass
BInstr
p974
(dp975
g2
Nsg17
S'B       loc_B3E24'
p976
sg19
S'f1ffffea'
p977
sg21
Vb #0xffffffcc
p978
sg5
L736856L
sg6
Nsg23
g96
sg25
S'0xb3e58L'
p979
sg27
Nsbasg98
(lp980
S'LDR rp, =(aDsa_ossl_c - address0)'
p981
aS'MOV R12, #0xE6'
p982
aS'ADD R3, R6, R3'
p983
aS'MOV R0, #0xA'
p984
aS'MOV R1, #0x6B'
p985
aS'MOV R2, #0x65'
p986
aS'STR R12, mem'
p987
aS'MOV dsa, #0'
p988
aS'BL ERR_put_error'
p989
aS'B func'
p990
asg111
Nsg5
S'0xb3e34L'
p991
sg113
(lp992
S'0xb3ce4L'
p993
aS'0xb3d10L'
p994
aS'0xb3d1cL'
p995
asg6
Nsg115
(lp996
S'0xb3e24L'
p997
asg119
Nsg120
Nsg121
S'e46f60b10587202272c23597ac8967c1'
p998
sg123
S'3e142d3df4cc703db65e4efa0e8b4f81'
p999
sg125
(lp1000
g916
ag923
ag930
ag937
ag944
ag951
ag958
ag965
ag972
ag96
asg127
Nsba(ibclass
BBasicBlock
p1001
(dp1002
g12
Nsg13
(lp1003
(ibclass
BInstr
p1004
(dp1005
g2
Nsg17
S'LDR     R3, [dsa,#0x10] ; divisor'
p1006
sg19
S'103094e5'
p1007
sg21
Vldr r3, [r4, #0x10]
p1008
sg5
L736860L
sg6
Nsg23
S'LDR'
p1009
sg25
S'0xb3e5cL'
p1010
sg27
Nsba(ibclass
BInstr
p1011
(dp1012
g2
Nsg17
S'MOV     _tmp_res53, #0  ; dv'
p1013
sg19
S'0000a0e3'
p1014
sg21
Vmov r0, #0
p1015
sg5
L736864L
sg6
Nsg23
S'MOV'
p1016
sg25
S'0xb3e60L'
p1017
sg27
Nsba(ibclass
BInstr
p1018
(dp1019
g2
Nsg17
S'MOV     R1, r           ; rm'
p1020
sg19
S'0a10a0e1'
p1021
sg21
Vmov r1, sl
p1022
sg5
L736868L
sg6
Nsg23
S'MOV'
p1023
sg25
S'0xb3e64L'
p1024
sg27
Nsba(ibclass
BInstr
p1025
(dp1026
g2
Nsg17
S'MOV     R2, r           ; num'
p1027
sg19
S'0a20a0e1'
p1028
sg21
Vmov r2, sl
p1029
sg5
L736872L
sg6
Nsg23
S'MOV'
p1030
sg25
S'0xb3e68L'
p1031
sg27
Nsba(ibclass
BInstr
p1032
(dp1033
g2
Nsg17
S'STR     ctx, [SP,#0x68+line]; ctx'
p1034
sg19
S'00908de5'
p1035
sg21
Vstr sb, [sp]
p1036
sg5
L736876L
sg6
Nsg23
S'STR'
p1037
sg25
S'0xb3e6cL'
p1038
sg27
Nsba(ibclass
BInstr
p1039
(dp1040
g2
Nsg17
S'BL      BN_div'
p1041
sg19
S'ca4dffeb'
p1042
sg21
Vbl #0xfffd3730
p1043
sg5
L736880L
sg6
Nsg23
S'BL'
p1044
sg25
S'0xb3e70L'
p1045
sg27
Nsba(ibclass
BInstr
p1046
(dp1047
g2
Nsg17
S'CMP     R0, #0'
p1048
sg19
S'000050e3'
p1049
sg21
Vcmp r0, #0
p1050
sg5
L736884L
sg6
Nsg23
S'CMP'
p1051
sg25
S'0xb3e74L'
p1052
sg27
Nsba(ibclass
BInstr
p1053
(dp1054
g2
Nsg17
S'BEQ     loc_B3DE0'
p1055
sg19
S'd8ffff0a'
p1056
sg21
Vbeq #0xffffff68
p1057
sg5
L736888L
sg6
Nsg23
g96
sg25
S'0xb3e78L'
p1058
sg27
Nsbasg98
(lp1059
S'LDR R3, mem'
p1060
aS'MOV _tmp_res53, #0'
p1061
aS'MOV R1, r'
p1062
aS'MOV R2, r'
p1063
aS'STR ctx, mem'
p1064
aS'BL BN_regv'
p1065
aS'CMP R0, #0'
p1066
aS'BEQ func'
p1067
asg111
Nsg5
S'0xb3e5cL'
p1068
sg113
(lp1069
S'0xb3dd8L'
p1070
asg6
Nsg115
(lp1071
S'0xb3de0L'
p1072
aS'0xb3e7cL'
p1073
asg119
Nsg120
Nsg121
S'572fd594e0a9b08fdf8ca0f9307e19f1'
p1074
sg123
S'a3a59dda466f950513590fbb3bcc089e'
p1075
sg125
(lp1076
g1009
ag1016
ag1023
ag1030
ag1037
ag1044
ag1051
ag96
asg127
Nsba(ibclass
BBasicBlock
p1077
(dp1078
g12
Nsg13
(lp1079
(ibclass
BInstr
p1080
(dp1081
g2
Nsg17
S'LDR     R2, [dsa,#0x10] ; n'
p1082
sg19
S'102094e5'
p1083
sg21
Vldr r2, [r4, #0x10]
p1084
sg5
L736892L
sg6
Nsg23
S'LDR'
p1085
sg25
S'0xb3e7cL'
p1086
sg27
Nsba(ibclass
BInstr
p1087
(dp1088
g2
Nsg17
S'MOV     R0, #0          ; in'
p1089
sg19
S'0000a0e3'
p1090
sg21
Vmov r0, #0
p1091
sg5
L736896L
sg6
Nsg23
S'MOV'
p1092
sg25
S'0xb3e80L'
p1093
sg27
Nsba(ibclass
BInstr
p1094
(dp1095
g2
Nsg17
S'MOV     R1, R5          ; a'
p1096
sg19
S'0510a0e1'
p1097
sg21
Vmov r1, r5
p1098
sg5
L736900L
sg6
Nsg23
S'MOV'
p1099
sg25
S'0xb3e84L'
p1100
sg27
Nsba(ibclass
BInstr
p1101
(dp1102
g2
Nsg17
S'MOV     R3, ctx         ; ctx'
p1103
sg19
S'0930a0e1'
p1104
sg21
Vmov r3, sb
p1105
sg5
L736904L
sg6
Nsg23
S'MOV'
p1106
sg25
S'0xb3e88L'
p1107
sg27
Nsba(ibclass
BInstr
p1108
(dp1109
g2
Nsg17
S'BL      BN_mod_inverse'
p1110
sg19
S'726effeb'
p1111
sg21
Vbl #0xfffdb9d0
p1112
sg5
L736908L
sg6
Nsg23
S'BL'
p1113
sg25
S'0xb3e8cL'
p1114
sg27
Nsba(ibclass
BInstr
p1115
(dp1116
g2
Nsg17
S'SUBS    dsa, R0, #0'
p1117
sg19
S'004050e2'
p1118
sg21
Vsubs r4, r0, #0
p1119
sg5
L736912L
sg6
Nsg23
S'SUB'
p1120
sg25
S'0xb3e90L'
p1121
sg27
Nsba(ibclass
BInstr
p1122
(dp1123
g2
Nsg17
S'BEQ     loc_B3DE0'
p1124
sg19
S'd1ffff0a'
p1125
sg21
Vbeq #0xffffff4c
p1126
sg5
L736916L
sg6
Nsg23
g96
sg25
S'0xb3e94L'
p1127
sg27
Nsbasg98
(lp1128
S'LDR R2, mem'
p1129
aS'MOV R0, #0'
p1130
aS'MOV R1, R5'
p1131
aS'MOV R3, ctx'
p1132
aS'BL BN_mod_inverse'
p1133
aS'SUBS dsa, R0, #0'
p1134
aS'BEQ func'
p1135
asg111
Nsg5
S'0xb3e7cL'
p1136
sg113
(lp1137
S'0xb3e5cL'
p1138
asg6
Nsg115
(lp1139
S'0xb3de0L'
p1140
aS'0xb3e98L'
p1141
asg119
Nsg120
Nsg121
S'9e414d2413b52f495785f4e8f99bbb7d'
p1142
sg123
S'ca96580a9e161ee6f3af27dc27be3616'
p1143
sg125
(lp1144
g1085
ag1092
ag1099
ag1106
ag1113
ag1120
ag96
asg127
Nsba(ibclass
BBasicBlock
p1145
(dp1146
g12
Nsg13
(lp1147
(ibclass
BInstr
p1148
(dp1149
g2
Nsg17
S'LDR     R0, [kinvp]     ; a'
p1150
sg19
S'00009be5'
p1151
sg21
Vldr r0, [fp]
p1152
sg5
L736920L
sg6
Nsg23
S'LDR'
p1153
sg25
S'0xb3e98L'
p1154
sg27
Nsba(ibclass
BInstr
p1155
(dp1156
g2
Nsg17
S'CMP     R0, #0'
p1157
sg19
S'000050e3'
p1158
sg21
Vcmp r0, #0
p1159
sg5
L736924L
sg6
Nsg23
S'CMP'
p1160
sg25
S'0xb3e9cL'
p1161
sg27
Nsba(ibclass
BInstr
p1162
(dp1163
g2
Nsg17
S'BLNE    BN_clear_free'
p1164
sg19
S'e759ff1b'
p1165
sg21
Vblne #0xfffd67a4
p1166
sg5
L736928L
sg6
Nsg23
S'BL'
p1167
sg25
S'0xb3ea0L'
p1168
sg27
Nsba(ibclass
BInstr
p1169
(dp1170
g2
Nsg17
S'LDR     R3, [SP,#0x68+var_54]'
p1171
sg19
S'14309de5'
p1172
sg21
Vldr r3, [sp, #0x14]
p1173
sg5
L736932L
sg6
Nsg23
S'LDR'
p1174
sg25
S'0xb3ea4L'
p1175
sg27
Nsba(ibclass
BInstr
p1176
(dp1177
g2
Nsg17
S'STR     kinv, [kinvp]'
p1178
sg19
S'00408be5'
p1179
sg21
Vstr r4, [fp]
p1180
sg5
L736936L
sg6
Nsg23
S'STR'
p1181
sg25
S'0xb3ea8L'
p1182
sg27
Nsba(ibclass
BInstr
p1183
(dp1184
g2
Nsg17
S'LDR     R0, [R3]        ; a'
p1185
sg19
S'000093e5'
p1186
sg21
Vldr r0, [r3]
p1187
sg5
L736940L
sg6
Nsg23
S'LDR'
p1188
sg25
S'0xb3eacL'
p1189
sg27
Nsba(ibclass
BInstr
p1190
(dp1191
g2
Nsg17
S'CMP     R0, #0'
p1192
sg19
S'000050e3'
p1193
sg21
Vcmp r0, #0
p1194
sg5
L736944L
sg6
Nsg23
S'CMP'
p1195
sg25
S'0xb3eb0L'
p1196
sg27
Nsba(ibclass
BInstr
p1197
(dp1198
g2
Nsg17
S'BEQ     loc_B3EC0'
p1199
sg19
S'0100000a'
p1200
sg21
Vbeq #0xc
p1201
sg5
L736948L
sg6
Nsg23
g96
sg25
S'0xb3eb4L'
p1202
sg27
Nsbasg98
(lp1203
S'LDR R0, mem'
p1204
aS'CMP R0, #0'
p1205
aS'BLNE BN_regear_free'
p1206
aS'LDR R3, mem'
p1207
aS'STR kinv, mem'
p1208
aS'LDR R0, mem'
p1209
aS'CMP R0, #0'
p1210
aS'BEQ func'
p1211
asg111
Nsg5
S'0xb3e98L'
p1212
sg113
(lp1213
S'0xb3e7cL'
p1214
asg6
Nsg115
(lp1215
S'0xb3eb8L'
p1216
aS'0xb3ec0L'
p1217
asg119
Nsg120
Nsg121
S'428f4b5ba507508759b6baf09bcebe56'
p1218
sg123
S'34e07c21a40d1ef97910eba2851ab202'
p1219
sg125
(lp1220
g1153
ag1160
ag1167
ag1174
ag1181
ag1188
ag1195
ag96
asg127
Nsba(ibclass
BBasicBlock
p1221
(dp1222
g12
Nsg13
(lp1223
(ibclass
BInstr
p1224
(dp1225
g2
Nsg17
S'BL      BN_clear_free'
p1226
sg19
S'e159ffeb'
p1227
sg21
Vbl #0xfffd678c
p1228
sg5
L736952L
sg6
Nsg23
S'BL'
p1229
sg25
S'0xb3eb8L'
p1230
sg27
Nsba(ibclass
BInstr
p1231
(dp1232
g2
Nsg17
S'LDR     R3, [SP,#0x68+var_54]'
p1233
sg19
S'14309de5'
p1234
sg21
Vldr r3, [sp, #0x14]
p1235
sg5
L736956L
sg6
Nsg23
S'LDR'
p1236
sg25
S'0xb3ebcL'
p1237
sg27
Nsbasg98
(lp1238
S'BL BN_regear_free'
p1239
aS'LDR R3, mem'
p1240
asg111
Nsg5
S'0xb3eb8L'
p1241
sg113
(lp1242
S'0xb3e98L'
p1243
asg6
Nsg115
(lp1244
S'0xb3ec0L'
p1245
asg119
Nsg120
Nsg121
S'cbf3912bd89daf020a9b6d8e96fa8e4c'
p1246
sg123
S'292a078b498c1b26203878e350b8af73'
p1247
sg125
(lp1248
g1229
ag1236
asg127
Nsba(ibclass
BBasicBlock
p1249
(dp1250
g12
Nsg13
(lp1251
(ibclass
BInstr
p1252
(dp1253
g2
Nsg17
S'STR     r, [R3]'
p1254
sg19
S'00a083e5'
p1255
sg21
Vstr sl, [r3]
p1256
sg5
L736960L
sg6
Nsg23
S'STR'
p1257
sg25
S'0xb3ec0L'
p1258
sg27
Nsba(ibclass
BInstr
p1259
(dp1260
g2
Nsg17
S'MOV     kinv, #1'
p1261
sg19
S'0140a0e3'
p1262
sg21
Vmov r4, #1
p1263
sg5
L736964L
sg6
Nsg23
S'MOV'
p1264
sg25
S'0xb3ec4L'
p1265
sg27
Nsba(ibclass
BInstr
p1266
(dp1267
g2
Nsg17
S'B       loc_B3E0C'
p1268
sg19
S'cfffffea'
p1269
sg21
Vb #0xffffff44
p1270
sg5
L736968L
sg6
Nsg23
g96
sg25
S'0xb3ec8L'
p1271
sg27
Nsbasg98
(lp1272
S'STR r, mem'
p1273
aS'MOV kinv, #1'
p1274
aS'B func'
p1275
asg111
Nsg5
S'0xb3ec0L'
p1276
sg113
(lp1277
S'0xb3e98L'
p1278
aS'0xb3eb8L'
p1279
asg6
Nsg115
(lp1280
S'0xb3e0cL'
p1281
asg119
Nsg120
Nsg121
S'ae67871e53439720ff237cbdfb357aa2'
p1282
sg123
S'ce9b8f438cb65ba7124f7506d6debcba'
p1283
sg125
(lp1284
g1257
ag1264
ag96
asg127
Nsba(ibclass
BBasicBlock
p1285
(dp1286
g12
Nsg13
(lp1287
(ibclass
BInstr
p1288
(dp1289
g2
Nsg17
S'ADD     R0, dsa, #0x2C  ; pmont'
p1290
sg19
S'2c0084e2'
p1291
sg21
Vadd r0, r4, #0x2c
p1292
sg5
L736972L
sg6
Nsg23
S'ADD'
p1293
sg25
S'0xb3eccL'
p1294
sg27
Nsba(ibclass
BInstr
p1295
(dp1296
g2
Nsg17
S'MOV     R1, #8          ; lock'
p1297
sg19
S'0810a0e3'
p1298
sg21
Vmov r1, #8
p1299
sg5
L736976L
sg6
Nsg23
S'MOV'
p1300
sg25
S'0xb3ed0L'
p1301
sg27
Nsba(ibclass
BInstr
p1302
(dp1303
g2
Nsg17
S'LDR     R2, [dsa,#0xC]  ; mod'
p1304
sg19
S'0c2094e5'
p1305
sg21
Vldr r2, [r4, #0xc]
p1306
sg5
L736980L
sg6
Nsg23
S'LDR'
p1307
sg25
S'0xb3ed4L'
p1308
sg27
Nsba(ibclass
BInstr
p1309
(dp1310
g2
Nsg17
S'MOV     R3, ctx         ; ctx'
p1311
sg19
S'0930a0e1'
p1312
sg21
Vmov r3, sb
p1313
sg5
L736984L
sg6
Nsg23
S'MOV'
p1314
sg25
S'0xb3ed8L'
p1315
sg27
Nsba(ibclass
BInstr
p1316
(dp1317
g2
Nsg17
S'BL      BN_MONT_CTX_set_locked'
p1318
sg19
S'6c7dffeb'
p1319
sg21
Vbl #0xfffdf5b8
p1320
sg5
L736988L
sg6
Nsg23
S'BL'
p1321
sg25
S'0xb3edcL'
p1322
sg27
Nsba(ibclass
BInstr
p1323
(dp1324
g2
Nsg17
S'CMP     R0, #0'
p1325
sg19
S'000050e3'
p1326
sg21
Vcmp r0, #0
p1327
sg5
L736992L
sg6
Nsg23
S'CMP'
p1328
sg25
S'0xb3ee0L'
p1329
sg27
Nsba(ibclass
BInstr
p1330
(dp1331
g2
Nsg17
S'BEQ     loc_B3DE0'
p1332
sg19
S'bdffff0a'
p1333
sg21
Vbeq #0xfffffefc
p1334
sg5
L736996L
sg6
Nsg23
g96
sg25
S'0xb3ee4L'
p1335
sg27
Nsbasg98
(lp1336
S'ADD R0, dsa, #0x2C'
p1337
aS'MOV R1, #8'
p1338
aS'LDR R2, mem'
p1339
aS'MOV R3, ctx'
p1340
aS'BL BN_MONT_CTX_set_locked'
p1341
aS'CMP R0, #0'
p1342
aS'BEQ func'
p1343
asg111
Nsg5
S'0xb3eccL'
p1344
sg113
(lp1345
S'0xb3d78L'
p1346
asg6
Nsg115
(lp1347
S'0xb3de0L'
p1348
aS'0xb3ee8L'
p1349
asg119
Nsg120
Nsg121
S'0ab79c1d5f7072647952d016d5459ff4'
p1350
sg123
S'b6613530ce3d779b12b2ac06011d83b8'
p1351
sg125
(lp1352
g1293
ag1300
ag1307
ag1314
ag1321
ag1328
ag96
asg127
Nsba(ibclass
BBasicBlock
p1353
(dp1354
g12
Nsg13
(lp1355
(ibclass
BInstr
p1356
(dp1357
g2
Nsg17
S'LDR     R2, [dsa,#0x28]'
p1358
sg19
S'282094e5'
p1359
sg21
Vldr r2, [r4, #0x28]
p1360
sg5
L737000L
sg6
Nsg23
S'LDR'
p1361
sg25
S'0xb3ee8L'
p1362
sg27
Nsba(ibclass
BInstr
p1363
(dp1364
g2
Nsg17
S'AND     R2, R2, #2'
p1365
sg19
S'022002e2'
p1366
sg21
Vand r2, r2, #2
p1367
sg5
L737004L
sg6
Nsg23
S'AND'
p1368
sg25
S'0xb3eecL'
p1369
sg27
Nsba(ibclass
BInstr
p1370
(dp1371
g2
Nsg17
S'CMP     R2, #0'
p1372
sg19
S'000052e3'
p1373
sg21
Vcmp r2, #0
p1374
sg5
L737008L
sg6
Nsg23
S'CMP'
p1375
sg25
S'0xb3ef0L'
p1376
sg27
Nsba(ibclass
BInstr
p1377
(dp1378
g2
Nsg17
S'MOVNE   R3, R5'
p1379
sg19
S'0530a011'
p1380
sg21
Vmovne r3, r5
p1381
sg5
L737012L
sg6
Nsg23
S'MOV'
p1382
sg25
S'0xb3ef4L'
p1383
sg27
Nsba(ibclass
BInstr
p1384
(dp1385
g2
Nsg17
S'BNE     loc_B3DA0'
p1386
sg19
S'a8ffff1a'
p1387
sg21
Vbne #0xfffffea8
p1388
sg5
L737016L
sg6
Nsg23
g96
sg25
S'0xb3ef8L'
p1389
sg27
Nsbasg98
(lp1390
S'LDR R2, mem'
p1391
aS'AND R2, R2, #2'
p1392
aS'CMP R2, #0'
p1393
aS'MOVNE R3, R5'
p1394
aS'BNE func'
p1395
asg111
Nsg5
S'0xb3ee8L'
p1396
sg113
(lp1397
S'0xb3eccL'
p1398
asg6
Nsg115
(lp1399
S'0xb3da0L'
p1400
aS'0xb3efcL'
p1401
asg119
Nsg120
Nsg121
S'51704e5ca208f35794dfdaf5d09cd887'
p1402
sg123
S'de6354d1ba820c7d4a26b1454232686d'
p1403
sg125
(lp1404
g1361
ag1368
ag1375
ag1382
ag96
asg127
Nsba(ibclass
BBasicBlock
p1405
(dp1406
g12
Nsg13
(lp1407
(ibclass
BInstr
p1408
(dp1409
g2
Nsg17
S'MOV     R0, R8          ; a'
p1410
sg19
S'0800a0e1'
p1411
sg21
Vmov r0, r8
p1412
sg5
L737020L
sg6
Nsg23
S'MOV'
p1413
sg25
S'0xb3efcL'
p1414
sg27
Nsba(ibclass
BInstr
p1415
(dp1416
g2
Nsg17
S'MOV     R1, R5          ; b'
p1417
sg19
S'0510a0e1'
p1418
sg21
Vmov r1, r5
p1419
sg5
L737024L
sg6
Nsg23
S'MOV'
p1420
sg25
S'0xb3f00L'
p1421
sg27
Nsba(ibclass
BInstr
p1422
(dp1423
g2
Nsg17
S'BL      BN_copy'
p1424
sg19
S'0559ffeb'
p1425
sg21
Vbl #0xfffd641c
p1426
sg5
L737028L
sg6
Nsg23
S'BL'
p1427
sg25
S'0xb3f04L'
p1428
sg27
Nsba(ibclass
BInstr
p1429
(dp1430
g2
Nsg17
S'CMP     R0, #0'
p1431
sg19
S'000050e3'
p1432
sg21
Vcmp r0, #0
p1433
sg5
L737032L
sg6
Nsg23
S'CMP'
p1434
sg25
S'0xb3f08L'
p1435
sg27
Nsba(ibclass
BInstr
p1436
(dp1437
g2
Nsg17
S'BEQ     loc_B3DE0'
p1438
sg19
S'b3ffff0a'
p1439
sg21
Vbeq #0xfffffed4
p1440
sg5
L737036L
sg6
Nsg23
g96
sg25
S'0xb3f0cL'
p1441
sg27
Nsbasg98
(lp1442
S'MOV R0, R8'
p1443
aS'MOV R1, R5'
p1444
aS'BL BN_copy'
p1445
aS'CMP R0, #0'
p1446
aS'BEQ func'
p1447
asg111
Nsg5
S'0xb3efcL'
p1448
sg113
(lp1449
S'0xb3d94L'
p1450
aS'0xb3ee8L'
p1451
asg6
Nsg115
(lp1452
S'0xb3de0L'
p1453
aS'0xb3f10L'
p1454
asg119
Nsg120
Nsg121
S'7aa0d384fe1372848624ea012a952b72'
p1455
sg123
S'869b82631b00f72ae6d6c438f073a322'
p1456
sg125
(lp1457
g1413
ag1420
ag1427
ag1434
ag96
asg127
Nsba(ibclass
BBasicBlock
p1458
(dp1459
g12
Nsg13
(lp1460
(ibclass
BInstr
p1461
(dp1462
g2
Nsg17
S'MOV     R0, R8          ; r'
p1463
sg19
S'0800a0e1'
p1464
sg21
Vmov r0, r8
p1465
sg5
L737040L
sg6
Nsg23
S'MOV'
p1466
sg25
S'0xb3f10L'
p1467
sg27
Nsba(ibclass
BInstr
p1468
(dp1469
g2
Nsg17
S'MOV     R1, R8          ; a'
p1470
sg19
S'0810a0e1'
p1471
sg21
Vmov r1, r8
p1472
sg5
L737044L
sg6
Nsg23
S'MOV'
p1473
sg25
S'0xb3f14L'
p1474
sg27
Nsba(ibclass
BInstr
p1475
(dp1476
g2
Nsg17
S'LDR     R2, [dsa,#0x10] ; b'
p1477
sg19
S'102094e5'
p1478
sg21
Vldr r2, [r4, #0x10]
p1479
sg5
L737048L
sg6
Nsg23
S'LDR'
p1480
sg25
S'0xb3f18L'
p1481
sg27
Nsba(ibclass
BInstr
p1482
(dp1483
g2
Nsg17
S'BL      BN_add'
p1484
sg19
S'764dffeb'
p1485
sg21
Vbl #0xfffd35e0
p1486
sg5
L737052L
sg6
Nsg23
S'BL'
p1487
sg25
S'0xb3f1cL'
p1488
sg27
Nsba(ibclass
BInstr
p1489
(dp1490
g2
Nsg17
S'CMP     R0, #0'
p1491
sg19
S'000050e3'
p1492
sg21
Vcmp r0, #0
p1493
sg5
L737056L
sg6
Nsg23
S'CMP'
p1494
sg25
S'0xb3f20L'
p1495
sg27
Nsba(ibclass
BInstr
p1496
(dp1497
g2
Nsg17
S'BEQ     loc_B3DE0'
p1498
sg19
S'adffff0a'
p1499
sg21
Vbeq #0xfffffebc
p1500
sg5
L737060L
sg6
Nsg23
g96
sg25
S'0xb3f24L'
p1501
sg27
Nsbasg98
(lp1502
S'MOV R0, R8'
p1503
aS'MOV R1, R8'
p1504
aS'LDR R2, mem'
p1505
aS'BL BN_add'
p1506
aS'CMP R0, #0'
p1507
aS'BEQ func'
p1508
asg111
Nsg5
S'0xb3f10L'
p1509
sg113
(lp1510
S'0xb3efcL'
p1511
asg6
Nsg115
(lp1512
S'0xb3de0L'
p1513
aS'0xb3f28L'
p1514
asg119
Nsg120
Nsg121
S'16aec9b5a021a8d68bd6e4f91b33cb77'
p1515
sg123
S'5be1338b205d7346e37da9f3163d5331'
p1516
sg125
(lp1517
g1466
ag1473
ag1480
ag1487
ag1494
ag96
asg127
Nsba(ibclass
BBasicBlock
p1518
(dp1519
g12
Nsg13
(lp1520
(ibclass
BInstr
p1521
(dp1522
g2
Nsg17
S'MOV     R0, R8          ; a'
p1523
sg19
S'0800a0e1'
p1524
sg21
Vmov r0, r8
p1525
sg5
L737064L
sg6
Nsg23
S'MOV'
p1526
sg25
S'0xb3f28L'
p1527
sg27
Nsba(ibclass
BInstr
p1528
(dp1529
g2
Nsg17
S'BL      BN_num_bits'
p1530
sg19
S'4d56ffeb'
p1531
sg21
Vbl #0xfffd593c
p1532
sg5
L737068L
sg6
Nsg23
S'BL'
p1533
sg25
S'0xb3f2cL'
p1534
sg27
Nsba(ibclass
BInstr
p1535
(dp1536
g2
Nsg17
S'MOV     R3, R0'
p1537
sg19
S'0030a0e1'
p1538
sg21
Vmov r3, r0
p1539
sg5
L737072L
sg6
Nsg23
S'MOV'
p1540
sg25
S'0xb3f30L'
p1541
sg27
Nsba(ibclass
BInstr
p1542
(dp1543
g2
Nsg17
S'LDR     R0, [dsa,#0x10] ; a'
p1544
sg19
S'100094e5'
p1545
sg21
Vldr r0, [r4, #0x10]
p1546
sg5
L737076L
sg6
Nsg23
S'LDR'
p1547
sg25
S'0xb3f34L'
p1548
sg27
Nsba(ibclass
BInstr
p1549
(dp1550
g2
Nsg17
S'STR     R3, [SP,#0x68+var_58]'
p1551
sg19
S'10308de5'
p1552
sg21
Vstr r3, [sp, #0x10]
p1553
sg5
L737080L
sg6
Nsg23
S'STR'
p1554
sg25
S'0xb3f38L'
p1555
sg27
Nsba(ibclass
BInstr
p1556
(dp1557
g2
Nsg17
S'BL      BN_num_bits'
p1558
sg19
S'4956ffeb'
p1559
sg21
Vbl #0xfffd592c
p1560
sg5
L737084L
sg6
Nsg23
S'BL'
p1561
sg25
S'0xb3f3cL'
p1562
sg27
Nsba(ibclass
BInstr
p1563
(dp1564
g2
Nsg17
S'LDR     R3, [SP,#0x68+var_58]'
p1565
sg19
S'10309de5'
p1566
sg21
Vldr r3, [sp, #0x10]
p1567
sg5
L737088L
sg6
Nsg23
S'LDR'
p1568
sg25
S'0xb3f40L'
p1569
sg27
Nsba(ibclass
BInstr
p1570
(dp1571
g2
Nsg17
S'CMP     R3, R0'
p1572
sg19
S'000053e1'
p1573
sg21
Vcmp r3, r0
p1574
sg5
L737092L
sg6
Nsg23
S'CMP'
p1575
sg25
S'0xb3f44L'
p1576
sg27
Nsba(ibclass
BInstr
p1577
(dp1578
g2
Nsg17
S'BLE     loc_B3F88'
p1579
sg19
S'0e0000da'
p1580
sg21
Vble #0x40
p1581
sg5
L737096L
sg6
Nsg23
g96
sg25
S'0xb3f48L'
p1582
sg27
Nsbasg98
(lp1583
S'MOV R0, R8'
p1584
aS'BL BN_num_bits'
p1585
aS'MOV R3, R0'
p1586
aS'LDR R0, mem'
p1587
aS'STR R3, mem'
p1588
aS'BL BN_num_bits'
p1589
aS'LDR R3, mem'
p1590
aS'CMP R3, R0'
p1591
aS'BLE func'
p1592
asg111
Nsg5
S'0xb3f28L'
p1593
sg113
(lp1594
S'0xb3f10L'
p1595
asg6
Nsg115
(lp1596
S'0xb3f4cL'
p1597
aS'0xb3f88L'
p1598
asg119
Nsg120
Nsg121
S'b839c6a2bdb9d35d18e10d10fbb0db5d'
p1599
sg123
S'ef02c0f3d46cefb4f09fe2edceb46046'
p1600
sg125
(lp1601
g1526
ag1533
ag1540
ag1547
ag1554
ag1561
ag1568
ag1575
ag96
asg127
Nsba(ibclass
BBasicBlock
p1602
(dp1603
g12
Nsg13
(lp1604
(ibclass
BInstr
p1605
(dp1606
g2
Nsg17
S'MOV     R3, R8'
p1607
sg19
S'0830a0e1'
p1608
sg21
Vmov r3, r8
p1609
sg5
L737100L
sg6
Nsg23
S'MOV'
p1610
sg25
S'0xb3f4cL'
p1611
sg27
Nsba(ibclass
BInstr
p1612
(dp1613
g2
Nsg17
S'B       loc_B3DA0'
p1614
sg19
S'92ffffea'
p1615
sg21
Vb #0xfffffe50
p1616
sg5
L737104L
sg6
Nsg23
g96
sg25
S'0xb3f50L'
p1617
sg27
Nsbasg98
(lp1618
S'MOV R3, R8'
p1619
aS'B func'
p1620
asg111
Nsg5
S'0xb3f4cL'
p1621
sg113
(lp1622
S'0xb3f28L'
p1623
asg6
Nsg115
(lp1624
S'0xb3da0L'
p1625
asg119
Nsg120
Nsg121
S'b6c4e95ccfe77a95e4cf2019dd3d5574'
p1626
sg123
S'09027cdfeef452a6da5969d4bc5887d6'
p1627
sg125
(lp1628
g1610
ag96
asg127
Nsba(ibclass
BBasicBlock
p1629
(dp1630
g12
Nsg13
(lp1631
(ibclass
BInstr
p1632
(dp1633
g2
Nsg17
S'BL      BN_CTX_new'
p1634
sg19
S'f359ffeb'
p1635
sg21
Vbl #0xfffd67d4
p1636
sg5
L737108L
sg6
Nsg23
S'BL'
p1637
sg25
S'0xb3f54L'
p1638
sg27
Nsba(ibclass
BInstr
p1639
(dp1640
g2
Nsg17
S'SUBS    ctx, R0, #0'
p1641
sg19
S'009050e2'
p1642
sg21
Vsubs sb, r0, #0
p1643
sg5
L737112L
sg6
Nsg23
S'SUB'
p1644
sg25
S'0xb3f58L'
p1645
sg27
Nsba(ibclass
BInstr
p1646
(dp1647
g2
Nsg17
S'BNE     loc_B3D4C'
p1648
sg19
S'7affff1a'
p1649
sg21
Vbne #0xfffffdf0
p1650
sg5
L737116L
sg6
Nsg23
g96
sg25
S'0xb3f5cL'
p1651
sg27
Nsbasg98
(lp1652
S'BL BN_CTX_new'
p1653
aS'SUBS ctx, R0, #0'
p1654
aS'BNE func'
p1655
asg111
Nsg5
S'0xb3f54L'
p1656
sg113
(lp1657
S'0xb3d28L'
p1658
asg6
Nsg115
(lp1659
S'0xb3d4cL'
p1660
aS'0xb3f60L'
p1661
asg119
Nsg120
Nsg121
S'b0655893861b4069fc8460910fabe5df'
p1662
sg123
S'1b6e8338fa82e0505dcdd5bf99cabbcf'
p1663
sg125
(lp1664
g1637
ag1644
ag96
asg127
Nsba(ibclass
BBasicBlock
p1665
(dp1666
g12
Nsg13
(lp1667
(ibclass
BInstr
p1668
(dp1669
g2
Nsg17
S'LDR     R3, =(aDsa_ossl_c - 0x189000)'
p1670
sg19
S'74309fe5'
p1671
sg21
Vldr r3, [pc, #0x74]
p1672
sg5
L737120L
sg6
Nsg23
S'LDR'
p1673
sg25
S'0xb3f60L'
p1674
sg27
Nsba(ibclass
BInstr
p1675
(dp1676
g2
Nsg17
S'MOV     R12, #0x130'
p1677
sg19
S'13cea0e3'
p1678
sg21
Vmov ip, #0x130
p1679
sg5
L737124L
sg6
Nsg23
S'MOV'
p1680
sg25
S'0xb3f64L'
p1681
sg27
Nsba(ibclass
BInstr
p1682
(dp1683
g2
Nsg17
S'ADD     R3, R6, R3      ; "dsa_ossl.c"'
p1684
sg19
S'033086e0'
p1685
sg21
Vadd r3, r6, r3
p1686
sg5
L737128L
sg6
Nsg23
S'ADD'
p1687
sg25
S'0xb3f68L'
p1688
sg27
Nsba(ibclass
BInstr
p1689
(dp1690
g2
Nsg17
S'MOV     R0, #0xA        ; lib'
p1691
sg19
S'0a00a0e3'
p1692
sg21
Vmov r0, #0xa
p1693
sg5
L737132L
sg6
Nsg23
S'MOV'
p1694
sg25
S'0xb3f6cL'
p1695
sg27
Nsba(ibclass
BInstr
p1696
(dp1697
g2
Nsg17
S'MOV     R1, #0x6B       ; func'
p1698
sg19
S'6b10a0e3'
p1699
sg21
Vmov r1, #0x6b
p1700
sg5
L737136L
sg6
Nsg23
S'MOV'
p1701
sg25
S'0xb3f70L'
p1702
sg27
Nsba(ibclass
BInstr
p1703
(dp1704
g2
Nsg17
S'MOV     R2, #3          ; reason'
p1705
sg19
S'0320a0e3'
p1706
sg21
Vmov r2, #3
p1707
sg5
L737140L
sg6
Nsg23
S'MOV'
p1708
sg25
S'0xb3f74L'
p1709
sg27
Nsba(ibclass
BInstr
p1710
(dp1711
g2
Nsg17
S'STR     R12, [SP,#0x68+line]; line'
p1712
sg19
S'00c08de5'
p1713
sg21
Vstr ip, [sp]
p1714
sg5
L737144L
sg6
Nsg23
S'STR'
p1715
sg25
S'0xb3f78L'
p1716
sg27
Nsba(ibclass
BInstr
p1717
(dp1718
g2
Nsg17
S'MOV     dsa, #0'
p1719
sg19
S'0040a0e3'
p1720
sg21
Vmov r4, #0
p1721
sg5
L737148L
sg6
Nsg23
S'MOV'
p1722
sg25
S'0xb3f7cL'
p1723
sg27
Nsba(ibclass
BInstr
p1724
(dp1725
g2
Nsg17
S'BL      ERR_put_error'
p1726
sg19
S'4b7700eb'
p1727
sg21
Vbl #0x1dd34
p1728
sg5
L737152L
sg6
Nsg23
S'BL'
p1729
sg25
S'0xb3f80L'
p1730
sg27
Nsba(ibclass
BInstr
p1731
(dp1732
g2
Nsg17
S'B       loc_B3E0C'
p1733
sg19
S'a0ffffea'
p1734
sg21
Vb #0xfffffe88
p1735
sg5
L737156L
sg6
Nsg23
g96
sg25
S'0xb3f84L'
p1736
sg27
Nsbasg98
(lp1737
S'LDR R3, =(aDsa_ossl_c - address0)'
p1738
aS'MOV R12, #0x130'
p1739
aS'ADD R3, R6, R3'
p1740
aS'MOV R0, #0xA'
p1741
aS'MOV R1, #0x6B'
p1742
aS'MOV R2, #3'
p1743
aS'STR R12, mem'
p1744
aS'MOV dsa, #0'
p1745
aS'BL ERR_put_error'
p1746
aS'B func'
p1747
asg111
Nsg5
S'0xb3f60L'
p1748
sg113
(lp1749
S'0xb3d4cL'
p1750
aS'0xb3f54L'
p1751
asg6
Nsg115
(lp1752
S'0xb3e0cL'
p1753
asg119
Nsg120
Nsg121
S'e46f60b10587202272c23597ac8967c1'
p1754
sg123
S'5485e9ea4c783b19baa34b00d60742cf'
p1755
sg125
(lp1756
g1673
ag1680
ag1687
ag1694
ag1701
ag1708
ag1715
ag1722
ag1729
ag96
asg127
Nsba(ibclass
BBasicBlock
p1757
(dp1758
g12
Nsg13
(lp1759
(ibclass
BInstr
p1760
(dp1761
g2
Nsg17
S'MOV     R0, R8          ; r'
p1762
sg19
S'0800a0e1'
p1763
sg21
Vmov r0, r8
p1764
sg5
L737160L
sg6
Nsg23
S'MOV'
p1765
sg25
S'0xb3f88L'
p1766
sg27
Nsba(ibclass
BInstr
p1767
(dp1768
g2
Nsg17
S'MOV     R1, R8          ; a'
p1769
sg19
S'0810a0e1'
p1770
sg21
Vmov r1, r8
p1771
sg5
L737164L
sg6
Nsg23
S'MOV'
p1772
sg25
S'0xb3f8cL'
p1773
sg27
Nsba(ibclass
BInstr
p1774
(dp1775
g2
Nsg17
S'LDR     R2, [dsa,#0x10] ; b'
p1776
sg19
S'102094e5'
p1777
sg21
Vldr r2, [r4, #0x10]
p1778
sg5
L737168L
sg6
Nsg23
S'LDR'
p1779
sg25
S'0xb3f90L'
p1780
sg27
Nsba(ibclass
BInstr
p1781
(dp1782
g2
Nsg17
S'BL      BN_add'
p1783
sg19
S'584dffeb'
p1784
sg21
Vbl #0xfffd3568
p1785
sg5
L737172L
sg6
Nsg23
S'BL'
p1786
sg25
S'0xb3f94L'
p1787
sg27
Nsba(ibclass
BInstr
p1788
(dp1789
g2
Nsg17
S'CMP     R0, #0'
p1790
sg19
S'000050e3'
p1791
sg21
Vcmp r0, #0
p1792
sg5
L737176L
sg6
Nsg23
S'CMP'
p1793
sg25
S'0xb3f98L'
p1794
sg27
Nsba(ibclass
BInstr
p1795
(dp1796
g2
Nsg17
S'BEQ     loc_B3DE0'
p1797
sg19
S'8fffff0a'
p1798
sg21
Vbeq #0xfffffe44
p1799
sg5
L737180L
sg6
Nsg23
g96
sg25
S'0xb3f9cL'
p1800
sg27
Nsbasg98
(lp1801
S'MOV R0, R8'
p1802
aS'MOV R1, R8'
p1803
aS'LDR R2, mem'
p1804
aS'BL BN_add'
p1805
aS'CMP R0, #0'
p1806
aS'BEQ func'
p1807
asg111
Nsg5
S'0xb3f88L'
p1808
sg113
(lp1809
S'0xb3f28L'
p1810
asg6
Nsg115
(lp1811
S'0xb3de0L'
p1812
aS'0xb3fa0L'
p1813
asg119
Nsg120
Nsg121
S'16aec9b5a021a8d68bd6e4f91b33cb77'
p1814
sg123
S'5be1338b205d7346e37da9f3163d5331'
p1815
sg125
(lp1816
g1765
ag1772
ag1779
ag1786
ag1793
ag96
asg127
Nsba(ibclass
BBasicBlock
p1817
(dp1818
g12
Nsg13
(lp1819
(ibclass
BInstr
p1820
(dp1821
g2
Nsg17
S'MOV     R3, R8'
p1822
sg19
S'0830a0e1'
p1823
sg21
Vmov r3, r8
p1824
sg5
L737184L
sg6
Nsg23
S'MOV'
p1825
sg25
S'0xb3fa0L'
p1826
sg27
Nsba(ibclass
BInstr
p1827
(dp1828
g2
Nsg17
S'B       loc_B3DA0'
p1829
sg19
S'7dffffea'
p1830
sg21
Vb #0xfffffdfc
p1831
sg5
L737188L
sg6
Nsg23
g96
sg25
S'0xb3fa4L'
p1832
sg27
Nsbasg98
(lp1833
S'MOV R3, R8'
p1834
aS'B func'
p1835
asg111
Nsg5
S'0xb3fa0L'
p1836
sg113
(lp1837
S'0xb3f88L'
p1838
asg6
Nsg115
(lp1839
S'0xb3da0L'
p1840
asg119
Nsg120
Nsg121
S'b6c4e95ccfe77a95e4cf2019dd3d5574'
p1841
sg123
S'09027cdfeef452a6da5969d4bc5887d6'
p1842
sg125
(lp1843
g1825
ag96
asg127
Nsba(ibclass
BBasicBlock
p1844
(dp1845
g12
Nsg13
(lp1846
(ibclass
BInstr
p1847
(dp1848
g2
Nsg17
S'LDR     R0, [dsa,#0xC]'
p1849
sg19
S'0c0094e5'
p1850
sg21
Vldr r0, [r4, #0xc]
p1851
sg5
L737192L
sg6
Nsg23
S'LDR'
p1852
sg25
S'0xb3fa8L'
p1853
sg27
Nsba(ibclass
BInstr
p1854
(dp1855
g2
Nsg17
S'LDR     R12, [dsa,#0x2C]'
p1856
sg19
S'2cc094e5'
p1857
sg21
Vldr ip, [r4, #0x2c]
p1858
sg5
L737196L
sg6
Nsg23
S'LDR'
p1859
sg25
S'0xb3facL'
p1860
sg27
Nsba(ibclass
BInstr
p1861
(dp1862
g2
Nsg17
S'LDR     R1, [dsa,#0x14] ; a'
p1863
sg19
S'141094e5'
p1864
sg21
Vldr r1, [r4, #0x14]
p1865
sg5
L737200L
sg6
Nsg23
S'LDR'
p1866
sg25
S'0xb3fb0L'
p1867
sg27
Nsba(ibclass
BInstr
p1868
(dp1869
g2
Nsg17
S'MOV     R2, K           ; p'
p1870
sg19
S'0320a0e1'
p1871
sg21
Vmov r2, r3
p1872
sg5
L737204L
sg6
Nsg23
S'MOV'
p1873
sg25
S'0xb3fb4L'
p1874
sg27
Nsba(ibclass
BInstr
p1875
(dp1876
g2
Nsg17
S'MOV     K, R0           ; m'
p1877
sg19
S'0030a0e1'
p1878
sg21
Vmov r3, r0
p1879
sg5
L737208L
sg6
Nsg23
S'MOV'
p1880
sg25
S'0xb3fb8L'
p1881
sg27
Nsba(ibclass
BInstr
p1882
(dp1883
g2
Nsg17
S'MOV     R0, r           ; rr'
p1884
sg19
S'0a00a0e1'
p1885
sg21
Vmov r0, sl
p1886
sg5
L737212L
sg6
Nsg23
S'MOV'
p1887
sg25
S'0xb3fbcL'
p1888
sg27
Nsba(ibclass
BInstr
p1889
(dp1890
g2
Nsg17
S'STMEA   SP, {ctx,R12}'
p1891
sg19
S'00128de8'
p1892
sg21
Vstm sp, {sb, ip}
p1893
sg5
L737216L
sg6
Nsg23
S'STM'
p1894
sg25
S'0xb3fc0L'
p1895
sg27
Nsba(ibclass
BInstr
p1896
(dp1897
g2
Nsg17
S'BL      BN_mod_exp_mont'
p1898
sg19
S'eb52ffeb'
p1899
sg21
Vbl #0xfffd4bb4
p1900
sg5
L737220L
sg6
Nsg23
S'BL'
p1901
sg25
S'0xb3fc4L'
p1902
sg27
Nsba(ibclass
BInstr
p1903
(dp1904
g2
Nsg17
S'B       loc_B3DD8'
p1905
sg19
S'82ffffea'
p1906
sg21
Vb #0xfffffe10
p1907
sg5
L737224L
sg6
Nsg23
g96
sg25
S'0xb3fc8L'
p1908
sg27
Nsbasg98
(lp1909
S'LDR R0, mem'
p1910
aS'LDR R12, mem'
p1911
aS'LDR R1, mem'
p1912
aS'MOV R2, K'
p1913
aS'MOV K, R0'
p1914
aS'MOV R0, r'
p1915
aS'STMEA SP, {ctx,R12}'
p1916
aS'BL BN_mod_exp_mont'
p1917
aS'B func'
p1918
asg111
Nsg5
S'0xb3fa8L'
p1919
sg113
(lp1920
S'0xb3da0L'
p1921
asg6
Nsg115
(lp1922
S'0xb3dd8L'
p1923
asg119
Nsg120
Nsg121
S'af202a39b0a0df9c55108b11a8719e03'
p1924
sg123
S'b99ed4e67fe28e3de701485c28607ac1'
p1925
sg125
(lp1926
g1852
ag1859
ag1866
ag1873
ag1880
ag1887
ag1894
ag1901
ag96
asg127
Nsba(ibclass
BBasicBlock
p1927
(dp1928
g12
Nsg13
(lp1929
(ibclass
BInstr
p1930
(dp1931
g2
Nsg17
S'MOV     R0, ctx         ; ctx'
p1932
sg19
S'0900a0e1'
p1933
sg21
Vmov r0, sb
p1934
sg5
L737228L
sg6
Nsg23
S'MOV'
p1935
sg25
S'0xb3fccL'
p1936
sg27
Nsba(ibclass
BInstr
p1937
(dp1938
g2
Nsg17
S'BL      BN_CTX_free'
p1939
sg19
S'c45affeb'
p1940
sg21
Vbl #0xfffd6b18
p1941
sg5
L737232L
sg6
Nsg23
S'BL'
p1942
sg25
S'0xb3fd0L'
p1943
sg27
Nsba(ibclass
BInstr
p1944
(dp1945
g2
Nsg17
S'B       loc_B3E14'
p1946
sg19
S'8effffea'
p1947
sg21
Vb #0xfffffe40
p1948
sg5
L737236L
sg6
Nsg23
g96
sg25
S'0xb3fd4L'
p1949
sg27
Nsbasg98
(lp1950
S'MOV R0, ctx'
p1951
aS'BL BN_CTX_free'
p1952
aS'B func'
p1953
asg111
Nsg5
S'0xb3fccL'
p1954
sg113
(lp1955
S'0xb3e0cL'
p1956
asg6
Nsg115
(lp1957
S'0xb3e14L'
p1958
asg119
Nsg120
Nsg121
S'f3f645dfcfe38b34211b70b425c07bfe'
p1959
sg123
S'eae9f780f77902b9f32170c7db5dff5a'
p1960
sg125
(lp1961
g1935
ag1942
ag96
asg127
Nsbasb.