(ibclass
BFunc
p0
(dp1
S'hash'
p2
NsS'name'
p3
S'DH_check_pub_key'
p4
sS'start_address'
p5
L754420L
sS'flag'
p6
NsS'program'
p7
NsS'bbs'
p8
(lp9
(ibclass
BBasicBlock
p10
(dp11
S'function'
p12
NsS'binstrs'
p13
(lp14
(ibclass
BInstr
p15
(dp16
g2
NsS'disasm'
p17
S'STMFD   SP!, {ctx-R8,LR}'
p18
sS'bytes'
p19
S'f0412de9'
p20
sS'disasm_striped'
p21
Vpush {r4, r5, r6, r7, r8, lr}
p22
sg5
L754420L
sg6
NsS'mnem'
p23
S'STM'
p24
sS'address'
p25
S'0xb82f4L'
p26
sS'basicblock'
p27
Nsba(ibclass
BInstr
p28
(dp29
g2
Nsg17
S'MOV     R3, #0'
p30
sg19
S'0030a0e3'
p31
sg21
Vmov r3, #0
p32
sg5
L754424L
sg6
Nsg23
S'MOV'
p33
sg25
S'0xb82f8L'
p34
sg27
Nsba(ibclass
BInstr
p35
(dp36
g2
Nsg17
S'SUB     SP, SP, #8'
p37
sg19
S'08d04de2'
p38
sg21
Vsub sp, sp, #8
p39
sg5
L754428L
sg6
Nsg23
S'SUB'
p40
sg25
S'0xb82fcL'
p41
sg27
Nsba(ibclass
BInstr
p42
(dp43
g2
Nsg17
S'STR     R3, [ret]'
p44
sg19
S'003082e5'
p45
sg21
Vstr r3, [r2]
p46
sg5
L754432L
sg6
Nsg23
S'STR'
p47
sg25
S'0xb8300L'
p48
sg27
Nsba(ibclass
BInstr
p49
(dp50
g2
Nsg17
S'MOV     R5, ret'
p51
sg19
S'0250a0e1'
p52
sg21
Vmov r5, r2
p53
sg5
L754436L
sg6
Nsg23
S'MOV'
p54
sg25
S'0xb8304L'
p55
sg27
Nsba(ibclass
BInstr
p56
(dp57
g2
Nsg17
S'MOV     R8, dh'
p58
sg19
S'0080a0e1'
p59
sg21
Vmov r8, r0
p60
sg5
L754440L
sg6
Nsg23
S'MOV'
p61
sg25
S'0xb8308L'
p62
sg27
Nsba(ibclass
BInstr
p63
(dp64
g2
Nsg17
S'MOV     R7, pub_key'
p65
sg19
S'0170a0e1'
p66
sg21
Vmov r7, r1
p67
sg5
L754444L
sg6
Nsg23
S'MOV'
p68
sg25
S'0xb830cL'
p69
sg27
Nsba(ibclass
BInstr
p70
(dp71
g2
Nsg17
S'BL      BN_CTX_new'
p72
sg19
S'3849ffeb'
p73
sg21
Vbl #0xfffd24e8
p74
sg5
L754448L
sg6
Nsg23
S'BL'
p75
sg25
S'0xb8310L'
p76
sg27
Nsba(ibclass
BInstr
p77
(dp78
g2
Nsg17
S'SUBS    ctx, R0, #0'
p79
sg19
S'004050e2'
p80
sg21
Vsubs r4, r0, #0
p81
sg5
L754452L
sg6
Nsg23
S'SUB'
p82
sg25
S'0xb8314L'
p83
sg27
Nsba(ibclass
BInstr
p84
(dp85
g2
Nsg17
S'MOVEQ   R6, ctx'
p86
sg19
S'0460a001'
p87
sg21
Vmoveq r6, r4
p88
sg5
L754456L
sg6
Nsg23
S'MOV'
p89
sg25
S'0xb8318L'
p90
sg27
Nsba(ibclass
BInstr
p91
(dp92
g2
Nsg17
S'BEQ     loc_B83C8'
p93
sg19
S'2900000a'
p94
sg21
Vbeq #0xac
p95
sg5
L754460L
sg6
Nsg23
S'B'
p96
sg25
S'0xb831cL'
p97
sg27
NsbasS'disasm_list'
p98
(lp99
S'STMFD SP!, {ctx-R8,LR}'
p100
aS'MOV R3, #0'
p101
aS'SUB SP, SP, #8'
p102
aS'STR R3, mem'
p103
aS'MOV R5, ret'
p104
aS'MOV R8, dh'
p105
aS'MOV R7, pub_key'
p106
aS'BL BN_CTX_new'
p107
aS'SUBS ctx, R0, #0'
p108
aS'MOVEQ R6, ctx'
p109
aS'BEQ func'
p110
asS'end_address'
p111
Nsg5
S'0xb82f4L'
p112
sS'preds'
p113
(lp114
sg6
NsS'succs'
p115
(lp116
S'0xb8320L'
p117
aS'0xb83c8L'
p118
asS'hash_v3'
p119
NsS'flag_v2'
p120
NsS'hash_v1'
p121
S'5d944d6dacbbe76b6072cdc181ba4171'
p122
sS'hash_v2'
p123
S'654dd724d13cdacc5f0f7f4899f1e4d2'
p124
sS'mnen_list'
p125
(lp126
g24
ag33
ag40
ag47
ag54
ag61
ag68
ag75
ag82
ag89
ag96
asS'neighbour_disasm_list'
p127
Nsba(ibclass
BBasicBlock
p128
(dp129
g12
Nsg13
(lp130
(ibclass
BInstr
p131
(dp132
g2
Nsg17
S'BL      BN_CTX_start'
p133
sg19
S'dd49ffeb'
p134
sg21
Vbl #0xfffd277c
p135
sg5
L754464L
sg6
Nsg23
S'BL'
p136
sg25
S'0xb8320L'
p137
sg27
Nsba(ibclass
BInstr
p138
(dp139
g2
Nsg17
S'MOV     R0, ctx         ; ctx'
p140
sg19
S'0400a0e1'
p141
sg21
Vmov r0, r4
p142
sg5
L754468L
sg6
Nsg23
S'MOV'
p143
sg25
S'0xb8324L'
p144
sg27
Nsba(ibclass
BInstr
p145
(dp146
g2
Nsg17
S'BL      BN_CTX_get'
p147
sg19
S'5849ffeb'
p148
sg21
Vbl #0xfffd2568
p149
sg5
L754472L
sg6
Nsg23
S'BL'
p150
sg25
S'0xb8328L'
p151
sg27
Nsba(ibclass
BInstr
p152
(dp153
g2
Nsg17
S'SUBS    ok, R0, #0'
p154
sg19
S'006050e2'
p155
sg21
Vsubs r6, r0, #0
p156
sg5
L754476L
sg6
Nsg23
S'SUB'
p157
sg25
S'0xb832cL'
p158
sg27
Nsba(ibclass
BInstr
p159
(dp160
g2
Nsg17
S'BEQ     loc_B83B4'
p161
sg19
S'1f00000a'
p162
sg21
Vbeq #0x84
p163
sg5
L754480L
sg6
Nsg23
g96
sg25
S'0xb8330L'
p164
sg27
Nsbasg98
(lp165
S'BL BN_CTX_start'
p166
aS'MOV R0, ctx'
p167
aS'BL BN_CTX_get'
p168
aS'SUBS ok, R0, #0'
p169
aS'BEQ func'
p170
asg111
Nsg5
S'0xb8320L'
p171
sg113
(lp172
S'0xb82f4L'
p173
asg6
Nsg115
(lp174
S'0xb8334L'
p175
aS'0xb83b4L'
p176
asg119
Nsg120
Nsg121
S'b94f660e0edf97df65779787a871dc55'
p177
sg123
S'2ed19e984b175adaeaf5aa719b409c02'
p178
sg125
(lp179
g136
ag143
ag150
ag157
ag96
asg127
Nsba(ibclass
BBasicBlock
p180
(dp181
g12
Nsg13
(lp182
(ibclass
BInstr
p183
(dp184
g2
Nsg17
S'MOV     R1, #1          ; w'
p185
sg19
S'0110a0e3'
p186
sg21
Vmov r1, #1
p187
sg5
L754484L
sg6
Nsg23
S'MOV'
p188
sg25
S'0xb8334L'
p189
sg27
Nsba(ibclass
BInstr
p190
(dp191
g2
Nsg17
S'BL      BN_set_word'
p192
sg19
S'1748ffeb'
p193
sg21
Vbl #0xfffd2064
p194
sg5
L754488L
sg6
Nsg23
S'BL'
p195
sg25
S'0xb8338L'
p196
sg27
Nsba(ibclass
BInstr
p197
(dp198
g2
Nsg17
S'MOV     R1, tmp         ; b'
p199
sg19
S'0610a0e1'
p200
sg21
Vmov r1, r6
p201
sg5
L754492L
sg6
Nsg23
S'MOV'
p202
sg25
S'0xb833cL'
p203
sg27
Nsba(ibclass
BInstr
p204
(dp205
g2
Nsg17
S'MOV     R0, pub_key     ; a'
p206
sg19
S'0700a0e1'
p207
sg21
Vmov r0, r7
p208
sg5
L754496L
sg6
Nsg23
S'MOV'
p209
sg25
S'0xb8340L'
p210
sg27
Nsba(ibclass
BInstr
p211
(dp212
g2
Nsg17
S'BL      BN_cmp'
p213
sg19
S'e945ffeb'
p214
sg21
Vbl #0xfffd17ac
p215
sg5
L754500L
sg6
Nsg23
S'BL'
p216
sg25
S'0xb8344L'
p217
sg27
Nsba(ibclass
BInstr
p218
(dp219
g2
Nsg17
S'CMP     R0, #0'
p220
sg19
S'000050e3'
p221
sg21
Vcmp r0, #0
p222
sg5
L754504L
sg6
Nsg23
S'CMP'
p223
sg25
S'0xb8348L'
p224
sg27
Nsba(ibclass
BInstr
p225
(dp226
g2
Nsg17
S'LDRLE   R3, [ret]'
p227
sg19
S'003095d5'
p228
sg21
Vldrle r3, [r5]
p229
sg5
L754508L
sg6
Nsg23
S'LDR'
p230
sg25
S'0xb834cL'
p231
sg27
Nsba(ibclass
BInstr
p232
(dp233
g2
Nsg17
S'LDR     R1, [dh,#8]     ; b'
p234
sg19
S'081098e5'
p235
sg21
Vldr r1, [r8, #8]
p236
sg5
L754512L
sg6
Nsg23
S'LDR'
p237
sg25
S'0xb8350L'
p238
sg27
Nsba(ibclass
BInstr
p239
(dp240
g2
Nsg17
S'ORRLE   R3, R3, #1'
p241
sg19
S'013083d3'
p242
sg21
Vorrle r3, r3, #1
p243
sg5
L754516L
sg6
Nsg23
S'ORR'
p244
sg25
S'0xb8354L'
p245
sg27
Nsba(ibclass
BInstr
p246
(dp247
g2
Nsg17
S'STRLE   R3, [ret]'
p248
sg19
S'003085d5'
p249
sg21
Vstrle r3, [r5]
p250
sg5
L754520L
sg6
Nsg23
S'STR'
p251
sg25
S'0xb8358L'
p252
sg27
Nsba(ibclass
BInstr
p253
(dp254
g2
Nsg17
S'MOV     R0, tmp         ; a'
p255
sg19
S'0600a0e1'
p256
sg21
Vmov r0, r6
p257
sg5
L754524L
sg6
Nsg23
S'MOV'
p258
sg25
S'0xb835cL'
p259
sg27
Nsba(ibclass
BInstr
p260
(dp261
g2
Nsg17
S'BL      BN_copy'
p262
sg19
S'2248ffeb'
p263
sg21
Vbl #0xfffd2090
p264
sg5
L754528L
sg6
Nsg23
S'BL'
p265
sg25
S'0xb8360L'
p266
sg27
Nsba(ibclass
BInstr
p267
(dp268
g2
Nsg17
S'MOV     R1, #1          ; w'
p269
sg19
S'0110a0e3'
p270
sg21
Vmov r1, #1
p271
sg5
L754532L
sg6
Nsg23
S'MOV'
p272
sg25
S'0xb8364L'
p273
sg27
Nsba(ibclass
BInstr
p274
(dp275
g2
Nsg17
S'MOV     R0, tmp         ; a'
p276
sg19
S'0600a0e1'
p277
sg21
Vmov r0, r6
p278
sg5
L754536L
sg6
Nsg23
S'MOV'
p279
sg25
S'0xb8368L'
p280
sg27
Nsba(ibclass
BInstr
p281
(dp282
g2
Nsg17
S'BL      BN_sub_word'
p283
sg19
S'4658ffeb'
p284
sg21
Vbl #0xfffd6120
p285
sg5
L754540L
sg6
Nsg23
S'BL'
p286
sg25
S'0xb836cL'
p287
sg27
Nsba(ibclass
BInstr
p288
(dp289
g2
Nsg17
S'MOV     R0, pub_key     ; a'
p290
sg19
S'0700a0e1'
p291
sg21
Vmov r0, r7
p292
sg5
L754544L
sg6
Nsg23
S'MOV'
p293
sg25
S'0xb8370L'
p294
sg27
Nsba(ibclass
BInstr
p295
(dp296
g2
Nsg17
S'MOV     R1, tmp         ; b'
p297
sg19
S'0610a0e1'
p298
sg21
Vmov r1, r6
p299
sg5
L754548L
sg6
Nsg23
S'MOV'
p300
sg25
S'0xb8374L'
p301
sg27
Nsba(ibclass
BInstr
p302
(dp303
g2
Nsg17
S'BL      BN_cmp'
p304
sg19
S'dc45ffeb'
p305
sg21
Vbl #0xfffd1778
p306
sg5
L754552L
sg6
Nsg23
S'BL'
p307
sg25
S'0xb8378L'
p308
sg27
Nsba(ibclass
BInstr
p309
(dp310
g2
Nsg17
S'CMP     R0, #0'
p311
sg19
S'000050e3'
p312
sg21
Vcmp r0, #0
p313
sg5
L754556L
sg6
Nsg23
S'CMP'
p314
sg25
S'0xb837cL'
p315
sg27
Nsba(ibclass
BInstr
p316
(dp317
g2
Nsg17
S'LDRGE   R3, [ret]'
p318
sg19
S'003095a5'
p319
sg21
Vldrge r3, [r5]
p320
sg5
L754560L
sg6
Nsg23
S'LDR'
p321
sg25
S'0xb8380L'
p322
sg27
Nsba(ibclass
BInstr
p323
(dp324
g2
Nsg17
S'LDR     R2, [dh,#0x24]  ; p'
p325
sg19
S'242098e5'
p326
sg21
Vldr r2, [r8, #0x24]
p327
sg5
L754564L
sg6
Nsg23
S'LDR'
p328
sg25
S'0xb8384L'
p329
sg27
Nsba(ibclass
BInstr
p330
(dp331
g2
Nsg17
S'ORRGE   R3, R3, #2'
p332
sg19
S'023083a3'
p333
sg21
Vorrge r3, r3, #2
p334
sg5
L754568L
sg6
Nsg23
S'ORR'
p335
sg25
S'0xb8388L'
p336
sg27
Nsba(ibclass
BInstr
p337
(dp338
g2
Nsg17
S'STRGE   R3, [ret]'
p339
sg19
S'003085a5'
p340
sg21
Vstrge r3, [r5]
p341
sg5
L754572L
sg6
Nsg23
S'STR'
p342
sg25
S'0xb838cL'
p343
sg27
Nsba(ibclass
BInstr
p344
(dp345
g2
Nsg17
S'CMP     R2, #0'
p346
sg19
S'000052e3'
p347
sg21
Vcmp r2, #0
p348
sg5
L754576L
sg6
Nsg23
S'CMP'
p349
sg25
S'0xb8390L'
p350
sg27
Nsba(ibclass
BInstr
p351
(dp352
g2
Nsg17
S'BEQ     loc_B8414'
p353
sg19
S'1e00000a'
p354
sg21
Vbeq #0x80
p355
sg5
L754580L
sg6
Nsg23
g96
sg25
S'0xb8394L'
p356
sg27
Nsbasg98
(lp357
S'MOV R1, #1'
p358
aS'BL BN_set_word'
p359
aS'MOV R1, tmp'
p360
aS'MOV R0, pub_key'
p361
aS'BL BN_cmp'
p362
aS'CMP R0, #0'
p363
aS'LDRLE R3, mem'
p364
aS'LDR R1, mem'
p365
aS'ORRLE R3, R3, #1'
p366
aS'STRLE R3, mem'
p367
aS'MOV R0, tmp'
p368
aS'BL BN_copy'
p369
aS'MOV R1, #1'
p370
aS'MOV R0, tmp'
p371
aS'BL BN_sub_word'
p372
aS'MOV R0, pub_key'
p373
aS'MOV R1, tmp'
p374
aS'BL BN_cmp'
p375
aS'CMP R0, #0'
p376
aS'LDRGE R3, mem'
p377
aS'LDR R2, mem'
p378
aS'ORRGE R3, R3, #2'
p379
aS'STRGE R3, mem'
p380
aS'CMP R2, #0'
p381
aS'BEQ func'
p382
asg111
Nsg5
S'0xb8334L'
p383
sg113
(lp384
S'0xb8320L'
p385
asg6
Nsg115
(lp386
S'0xb8398L'
p387
aS'0xb8414L'
p388
asg119
Nsg120
Nsg121
S'77b1dc38f216453988f0a1ffe508f011'
p389
sg123
S'a5bf3a0b58a0a5941fedce1ff0792c11'
p390
sg125
(lp391
g188
ag195
ag202
ag209
ag216
ag223
ag230
ag237
ag244
ag251
ag258
ag265
ag272
ag279
ag286
ag293
ag300
ag307
ag314
ag321
ag328
ag335
ag342
ag349
ag96
asg127
Nsba(ibclass
BBasicBlock
p392
(dp393
g12
Nsg13
(lp394
(ibclass
BInstr
p395
(dp396
g2
Nsg17
S'LDR     R3, [dh,#8]     ; m'
p397
sg19
S'083098e5'
p398
sg21
Vldr r3, [r8, #8]
p399
sg5
L754584L
sg6
Nsg23
S'LDR'
p400
sg25
S'0xb8398L'
p401
sg27
Nsba(ibclass
BInstr
p402
(dp403
g2
Nsg17
S'MOV     R1, pub_key     ; a'
p404
sg19
S'0710a0e1'
p405
sg21
Vmov r1, r7
p406
sg5
L754588L
sg6
Nsg23
S'MOV'
p407
sg25
S'0xb839cL'
p408
sg27
Nsba(ibclass
BInstr
p409
(dp410
g2
Nsg17
S'MOV     R0, tmp         ; r'
p411
sg19
S'0600a0e1'
p412
sg21
Vmov r0, r6
p413
sg5
L754592L
sg6
Nsg23
S'MOV'
p414
sg25
S'0xb83a0L'
p415
sg27
Nsba(ibclass
BInstr
p416
(dp417
g2
Nsg17
S'STR     ctx, [SP,#0x20+var_20]; ctx'
p418
sg19
S'00408de5'
p419
sg21
Vstr r4, [sp]
p420
sg5
L754596L
sg6
Nsg23
S'STR'
p421
sg25
S'0xb83a4L'
p422
sg27
Nsba(ibclass
BInstr
p423
(dp424
g2
Nsg17
S'BL      BN_mod_exp'
p425
sg19
S'5844ffeb'
p426
sg21
Vbl #0xfffd1168
p427
sg5
L754600L
sg6
Nsg23
S'BL'
p428
sg25
S'0xb83a8L'
p429
sg27
Nsba(ibclass
BInstr
p430
(dp431
g2
Nsg17
S'CMP     R0, #0'
p432
sg19
S'000050e3'
p433
sg21
Vcmp r0, #0
p434
sg5
L754604L
sg6
Nsg23
S'CMP'
p435
sg25
S'0xb83acL'
p436
sg27
Nsba(ibclass
BInstr
p437
(dp438
g2
Nsg17
S'BNE     loc_B83D8'
p439
sg19
S'0800001a'
p440
sg21
Vbne #0x28
p441
sg5
L754608L
sg6
Nsg23
g96
sg25
S'0xb83b0L'
p442
sg27
Nsbasg98
(lp443
S'LDR R3, mem'
p444
aS'MOV R1, pub_key'
p445
aS'MOV R0, tmp'
p446
aS'STR ctx, mem'
p447
aS'BL BN_mod_exp'
p448
aS'CMP R0, #0'
p449
aS'BNE func'
p450
asg111
Nsg5
S'0xb8398L'
p451
sg113
(lp452
S'0xb8334L'
p453
asg6
Nsg115
(lp454
S'0xb83b4L'
p455
aS'0xb83d8L'
p456
asg119
Nsg120
Nsg121
S'35159970ef7589b68dd916fa3437d1cd'
p457
sg123
S'3550ef55805f72ed981de6441a6973b1'
p458
sg125
(lp459
g400
ag407
ag414
ag421
ag428
ag435
ag96
asg127
Nsba(ibclass
BBasicBlock
p460
(dp461
g12
Nsg13
(lp462
(ibclass
BInstr
p463
(dp464
g2
Nsg17
S'MOV     tmp, #0'
p465
sg19
S'0060a0e3'
p466
sg21
Vmov r6, #0
p467
sg5
L754612L
sg6
Nsg23
S'MOV'
p468
sg25
S'0xb83b4L'
p469
sg27
Nsbasg98
(lp470
S'MOV tmp, #0'
p471
asg111
Nsg5
S'0xb83b4L'
p472
sg113
(lp473
S'0xb8320L'
p474
aS'0xb8398L'
p475
asg6
Nsg115
(lp476
S'0xb83b8L'
p477
asg119
Nsg120
Nsg121
S'17b32100aef1fc19670be7fd58bc85df'
p478
sg123
S'9cdab855e53d6e132d6cfd69436487a3'
p479
sg125
(lp480
g468
asg127
Nsba(ibclass
BBasicBlock
p481
(dp482
g12
Nsg13
(lp483
(ibclass
BInstr
p484
(dp485
g2
Nsg17
S'MOV     R0, ctx         ; ctx'
p486
sg19
S'0400a0e1'
p487
sg21
Vmov r0, r4
p488
sg5
L754616L
sg6
Nsg23
S'MOV'
p489
sg25
S'0xb83b8L'
p490
sg27
Nsba(ibclass
BInstr
p491
(dp492
g2
Nsg17
S'BL      BN_CTX_end'
p493
sg19
S'ec48ffeb'
p494
sg21
Vbl #0xfffd23b8
p495
sg5
L754620L
sg6
Nsg23
S'BL'
p496
sg25
S'0xb83bcL'
p497
sg27
Nsba(ibclass
BInstr
p498
(dp499
g2
Nsg17
S'MOV     R0, ctx         ; ctx'
p500
sg19
S'0400a0e1'
p501
sg21
Vmov r0, r4
p502
sg5
L754624L
sg6
Nsg23
S'MOV'
p503
sg25
S'0xb83c0L'
p504
sg27
Nsba(ibclass
BInstr
p505
(dp506
g2
Nsg17
S'BL      BN_CTX_free'
p507
sg19
S'fb49ffeb'
p508
sg21
Vbl #0xfffd27f4
p509
sg5
L754628L
sg6
Nsg23
S'BL'
p510
sg25
S'0xb83c4L'
p511
sg27
Nsbasg98
(lp512
S'MOV R0, ctx'
p513
aS'BL BN_CTX_end'
p514
aS'MOV R0, ctx'
p515
aS'BL BN_CTX_free'
p516
asg111
Nsg5
S'0xb83b8L'
p517
sg113
(lp518
S'0xb83b4L'
p519
aS'0xb83e4L'
p520
aS'0xb8414L'
p521
asg6
Nsg115
(lp522
S'0xb83c8L'
p523
asg119
Nsg120
Nsg121
S'e410c53a38863ab40fce08231445bca1'
p524
sg123
S'b6839ceffd63cfa557993332f87e59e7'
p525
sg125
(lp526
g489
ag496
ag503
ag510
asg127
Nsba(ibclass
BBasicBlock
p527
(dp528
g12
Nsg13
(lp529
(ibclass
BInstr
p530
(dp531
g2
Nsg17
S'MOV     R0, ok'
p532
sg19
S'0600a0e1'
p533
sg21
Vmov r0, r6
p534
sg5
L754632L
sg6
Nsg23
S'MOV'
p535
sg25
S'0xb83c8L'
p536
sg27
Nsba(ibclass
BInstr
p537
(dp538
g2
Nsg17
S'ADD     SP, SP, #8'
p539
sg19
S'08d08de2'
p540
sg21
Vadd sp, sp, #8
p541
sg5
L754636L
sg6
Nsg23
S'ADD'
p542
sg25
S'0xb83ccL'
p543
sg27
Nsba(ibclass
BInstr
p544
(dp545
g2
Nsg17
S'LDMFD   SP!, {ctx-dh,LR}'
p546
sg19
S'f041bde8'
p547
sg21
Vpop {r4, r5, r6, r7, r8, lr}
p548
sg5
L754640L
sg6
Nsg23
S'LDM'
p549
sg25
S'0xb83d0L'
p550
sg27
Nsba(ibclass
BInstr
p551
(dp552
g2
Nsg17
S'BX      LR'
p553
sg19
S'1eff2fe1'
p554
sg21
Vbx lr
p555
sg5
L754644L
sg6
Nsg23
S'BX'
p556
sg25
S'0xb83d4L'
p557
sg27
Nsbasg98
(lp558
S'MOV R0, ok'
p559
aS'ADD SP, SP, #8'
p560
aS'LDMFD SP!, {ctx-dh,LR}'
p561
aS'BX LR'
p562
asg111
Nsg5
S'0xb83c8L'
p563
sg113
(lp564
S'0xb82f4L'
p565
aS'0xb83b8L'
p566
asg6
Nsg115
(lp567
sg119
Nsg120
Nsg121
S'bc984d627a05f387655964404c76526b'
p568
sg123
S'cce1e3285580e3e7e1a65a92029e1830'
p569
sg125
(lp570
g535
ag542
ag549
ag556
asg127
Nsba(ibclass
BBasicBlock
p571
(dp572
g12
Nsg13
(lp573
(ibclass
BInstr
p574
(dp575
g2
Nsg17
S'LDR     R3, [tmp,#4]'
p576
sg19
S'043096e5'
p577
sg21
Vldr r3, [r6, #4]
p578
sg5
L754648L
sg6
Nsg23
S'LDR'
p579
sg25
S'0xb83d8L'
p580
sg27
Nsba(ibclass
BInstr
p581
(dp582
g2
Nsg17
S'CMP     R3, #1'
p583
sg19
S'010053e3'
p584
sg21
Vcmp r3, #1
p585
sg5
L754652L
sg6
Nsg23
S'CMP'
p586
sg25
S'0xb83dcL'
p587
sg27
Nsba(ibclass
BInstr
p588
(dp589
g2
Nsg17
S'BEQ     loc_B83F8'
p590
sg19
S'0400000a'
p591
sg21
Vbeq #0x18
p592
sg5
L754656L
sg6
Nsg23
g96
sg25
S'0xb83e0L'
p593
sg27
Nsbasg98
(lp594
S'LDR R3, mem'
p595
aS'CMP R3, #1'
p596
aS'BEQ func'
p597
asg111
Nsg5
S'0xb83d8L'
p598
sg113
(lp599
S'0xb8398L'
p600
asg6
Nsg115
(lp601
S'0xb83e4L'
p602
aS'0xb83f8L'
p603
asg119
Nsg120
Nsg121
S'fa4df767a85c49648339e2dc5c6807f6'
p604
sg123
S'ce8a49feb8f48932c0a5bd70ca943b14'
p605
sg125
(lp606
g579
ag586
ag96
asg127
Nsba(ibclass
BBasicBlock
p607
(dp608
g12
Nsg13
(lp609
(ibclass
BInstr
p610
(dp611
g2
Nsg17
S'LDR     R3, [ret]'
p612
sg19
S'003095e5'
p613
sg21
Vldr r3, [r5]
p614
sg5
L754660L
sg6
Nsg23
S'LDR'
p615
sg25
S'0xb83e4L'
p616
sg27
Nsba(ibclass
BInstr
p617
(dp618
g2
Nsg17
S'MOV     tmp, #1'
p619
sg19
S'0160a0e3'
p620
sg21
Vmov r6, #1
p621
sg5
L754664L
sg6
Nsg23
S'MOV'
p622
sg25
S'0xb83e8L'
p623
sg27
Nsba(ibclass
BInstr
p624
(dp625
g2
Nsg17
S'ORR     R3, R3, #3'
p626
sg19
S'033083e3'
p627
sg21
Vorr r3, r3, #3
p628
sg5
L754668L
sg6
Nsg23
S'ORR'
p629
sg25
S'0xb83ecL'
p630
sg27
Nsba(ibclass
BInstr
p631
(dp632
g2
Nsg17
S'STR     R3, [ret]'
p633
sg19
S'003085e5'
p634
sg21
Vstr r3, [r5]
p635
sg5
L754672L
sg6
Nsg23
S'STR'
p636
sg25
S'0xb83f0L'
p637
sg27
Nsba(ibclass
BInstr
p638
(dp639
g2
Nsg17
S'B       loc_B83B8'
p640
sg19
S'efffffea'
p641
sg21
Vb #0xffffffc4
p642
sg5
L754676L
sg6
Nsg23
g96
sg25
S'0xb83f4L'
p643
sg27
Nsbasg98
(lp644
S'LDR R3, mem'
p645
aS'MOV tmp, #1'
p646
aS'ORR R3, R3, #3'
p647
aS'STR R3, mem'
p648
aS'B func'
p649
asg111
Nsg5
S'0xb83e4L'
p650
sg113
(lp651
S'0xb83d8L'
p652
aS'0xb83f8L'
p653
aS'0xb8408L'
p654
asg6
Nsg115
(lp655
S'0xb83b8L'
p656
asg119
Nsg120
Nsg121
S'acf9768900bb62ffb1c3e61c9634661b'
p657
sg123
S'ba4d5d8d5b23d3b0c05a26389af8a2d6'
p658
sg125
(lp659
g615
ag622
ag629
ag636
ag96
asg127
Nsba(ibclass
BBasicBlock
p660
(dp661
g12
Nsg13
(lp662
(ibclass
BInstr
p663
(dp664
g2
Nsg17
S'LDR     R3, [tmp]'
p665
sg19
S'003096e5'
p666
sg21
Vldr r3, [r6]
p667
sg5
L754680L
sg6
Nsg23
S'LDR'
p668
sg25
S'0xb83f8L'
p669
sg27
Nsba(ibclass
BInstr
p670
(dp671
g2
Nsg17
S'LDR     R3, [R3]'
p672
sg19
S'003093e5'
p673
sg21
Vldr r3, [r3]
p674
sg5
L754684L
sg6
Nsg23
S'LDR'
p675
sg25
S'0xb83fcL'
p676
sg27
Nsba(ibclass
BInstr
p677
(dp678
g2
Nsg17
S'CMP     R3, #1'
p679
sg19
S'010053e3'
p680
sg21
Vcmp r3, #1
p681
sg5
L754688L
sg6
Nsg23
S'CMP'
p682
sg25
S'0xb8400L'
p683
sg27
Nsba(ibclass
BInstr
p684
(dp685
g2
Nsg17
S'BNE     loc_B83E4'
p686
sg19
S'f6ffff1a'
p687
sg21
Vbne #0xffffffe0
p688
sg5
L754692L
sg6
Nsg23
g96
sg25
S'0xb8404L'
p689
sg27
Nsbasg98
(lp690
S'LDR R3, mem'
p691
aS'LDR R3, mem'
p692
aS'CMP R3, #1'
p693
aS'BNE func'
p694
asg111
Nsg5
S'0xb83f8L'
p695
sg113
(lp696
S'0xb83d8L'
p697
asg6
Nsg115
(lp698
S'0xb83e4L'
p699
aS'0xb8408L'
p700
asg119
Nsg120
Nsg121
S'd9812e74326a7ebe01ae9e2a00bbb5ee'
p701
sg123
S'1896dc58675ee8c5066de9e3675ed5f1'
p702
sg125
(lp703
g668
ag675
ag682
ag96
asg127
Nsba(ibclass
BBasicBlock
p704
(dp705
g12
Nsg13
(lp706
(ibclass
BInstr
p707
(dp708
g2
Nsg17
S'LDR     R3, [tmp,#0xC]'
p709
sg19
S'0c3096e5'
p710
sg21
Vldr r3, [r6, #0xc]
p711
sg5
L754696L
sg6
Nsg23
S'LDR'
p712
sg25
S'0xb8408L'
p713
sg27
Nsba(ibclass
BInstr
p714
(dp715
g2
Nsg17
S'CMP     R3, #0'
p716
sg19
S'000053e3'
p717
sg21
Vcmp r3, #0
p718
sg5
L754700L
sg6
Nsg23
S'CMP'
p719
sg25
S'0xb840cL'
p720
sg27
Nsba(ibclass
BInstr
p721
(dp722
g2
Nsg17
S'BNE     loc_B83E4'
p723
sg19
S'f3ffff1a'
p724
sg21
Vbne #0xffffffd4
p725
sg5
L754704L
sg6
Nsg23
g96
sg25
S'0xb8410L'
p726
sg27
Nsbasg98
(lp727
S'LDR R3, mem'
p728
aS'CMP R3, #0'
p729
aS'BNE func'
p730
asg111
Nsg5
S'0xb8408L'
p731
sg113
(lp732
S'0xb83f8L'
p733
asg6
Nsg115
(lp734
S'0xb83e4L'
p735
aS'0xb8414L'
p736
asg119
Nsg120
Nsg121
S'fa4df767a85c49648339e2dc5c6807f6'
p737
sg123
S'1bb12c7dd982fd3e3da2842e84d201cf'
p738
sg125
(lp739
g712
ag719
ag96
asg127
Nsba(ibclass
BBasicBlock
p740
(dp741
g12
Nsg13
(lp742
(ibclass
BInstr
p743
(dp744
g2
Nsg17
S'MOV     tmp, #1'
p745
sg19
S'0160a0e3'
p746
sg21
Vmov r6, #1
p747
sg5
L754708L
sg6
Nsg23
S'MOV'
p748
sg25
S'0xb8414L'
p749
sg27
Nsba(ibclass
BInstr
p750
(dp751
g2
Nsg17
S'B       loc_B83B8'
p752
sg19
S'e6ffffea'
p753
sg21
Vb #0xffffffa0
p754
sg5
L754712L
sg6
Nsg23
g96
sg25
S'0xb8418L'
p755
sg27
Nsbasg98
(lp756
S'MOV tmp, #1'
p757
aS'B func'
p758
asg111
Nsg5
S'0xb8414L'
p759
sg113
(lp760
S'0xb8334L'
p761
aS'0xb8408L'
p762
asg6
Nsg115
(lp763
S'0xb83b8L'
p764
asg119
Nsg120
Nsg121
S'b6c4e95ccfe77a95e4cf2019dd3d5574'
p765
sg123
S'64a124c6c45d4f2b719a8b6dc37089b9'
p766
sg125
(lp767
g748
ag96
asg127
Nsbasb.