(ibclass
BFunc
p0
(dp1
S'hash'
p2
NsS'name'
p3
S'ssl_srp_server_param_cb'
p4
sS'start_address'
p5
L269804L
sS'flag'
p6
NsS'program'
p7
NsS'bbs'
p8
(lp9
(ibclass
BBasicBlock
p10
(dp11
S'function'
p12
NsS'binstrs'
p13
(lp14
(ibclass
BInstr
p15
(dp16
g2
NsS'disasm'
p17
S'STMFD   SP!, {R4-R6,LR}'
p18
sS'bytes'
p19
S'70402de9'
p20
sS'disasm_striped'
p21
Vpush {r4, r5, r6, lr}
p22
sg5
L269804L
sg6
NsS'mnem'
p23
S'STM'
p24
sS'address'
p25
S'0x41decL'
p26
sS'basicblock'
p27
Nsba(ibclass
BInstr
p28
(dp29
g2
Nsg17
S'MOV     R5, arg'
p30
sg19
S'0250a0e1'
p31
sg21
Vmov r5, r2
p32
sg5
L269808L
sg6
Nsg23
S'MOV'
p33
sg25
S'0x41df0L'
p34
sg27
Nsba(ibclass
BInstr
p35
(dp36
g2
Nsg17
S'LDR     arg, [arg]'
p37
sg19
S'002092e5'
p38
sg21
Vldr r2, [r2]
p39
sg5
L269812L
sg6
Nsg23
S'LDR'
p40
sg25
S'0x41df4L'
p41
sg27
Nsba(ibclass
BInstr
p42
(dp43
g2
Nsg17
S'LDR     R4, =(_GLOBAL_OFFSET_TABLE_ - 0x41E08)'
p44
sg19
S'f0409fe5'
p45
sg21
Vldr r4, [pc, #0xf0]
p46
sg5
L269816L
sg6
Nsg23
S'LDR'
p47
sg25
S'0x41df8L'
p48
sg27
Nsba(ibclass
BInstr
p49
(dp50
g2
Nsg17
S'CMP     R2, #0'
p51
sg19
S'000052e3'
p52
sg21
Vcmp r2, #0
p53
sg5
L269820L
sg6
Nsg23
S'CMP'
p54
sg25
S'0x41dfcL'
p55
sg27
Nsba(ibclass
BInstr
p56
(dp57
g2
Nsg17
S'ADD     R4, PC, R4 ; _GLOBAL_OFFSET_TABLE_'
p58
sg19
S'04408fe0'
p59
sg21
Vadd r4, pc, r4
p60
sg5
L269824L
sg6
Nsg23
S'ADD'
p61
sg25
S'0x41e00L'
p62
sg27
Nsba(ibclass
BInstr
p63
(dp64
g2
Nsg17
S'SUB     SP, SP, #8'
p65
sg19
S'08d04de2'
p66
sg21
Vsub sp, sp, #8
p67
sg5
L269828L
sg6
Nsg23
S'SUB'
p68
sg25
S'0x41e04L'
p69
sg27
Nsba(ibclass
BInstr
p70
(dp71
g2
Nsg17
S'MOV     R6, ad'
p72
sg19
S'0160a0e1'
p73
sg21
Vmov r6, r1
p74
sg5
L269832L
sg6
Nsg23
S'MOV'
p75
sg25
S'0x41e08L'
p76
sg27
Nsba(ibclass
BInstr
p77
(dp78
g2
Nsg17
S'MOV     LR, s'
p79
sg19
S'00e0a0e1'
p80
sg21
Vmov lr, r0
p81
sg5
L269836L
sg6
Nsg23
S'MOV'
p82
sg25
S'0x41e0cL'
p83
sg27
Nsba(ibclass
BInstr
p84
(dp85
g2
Nsg17
S'BEQ     loc_41EB8'
p86
sg19
S'2800000a'
p87
sg21
Vbeq #0xa8
p88
sg5
L269840L
sg6
Nsg23
S'B'
p89
sg25
S'0x41e10L'
p90
sg27
NsbasS'disasm_list'
p91
(lp92
S'STMFD SP!, {R4-R6,LR}'
p93
aS'MOV R5, arg'
p94
aS'LDR arg, mem'
p95
aS'LDR R4, =(_GLOBAL_OFFSET_TABLE_ - 0x41E08)'
p96
aS'CMP R2, #0'
p97
aS'ADD R4, PC, R4'
p98
aS'SUB SP, SP, #8'
p99
aS'MOV R6, ad'
p100
aS'MOV LR, s'
p101
aS'BEQ func'
p102
asS'end_address'
p103
Nsg5
S'0x41decL'
p104
sS'preds'
p105
(lp106
sg6
NsS'succs'
p107
(lp108
S'0x41e14L'
p109
aS'0x41eb8L'
p110
asS'hash_v3'
p111
NsS'flag_v2'
p112
NsS'hash_v1'
p113
S'19e4b6601a926ba895b10fcd981ed34d'
p114
sS'hash_v2'
p115
S'9a38e0eca97817e480e2714236467505'
p116
sS'mnen_list'
p117
(lp118
g24
ag33
ag40
ag47
ag54
ag61
ag68
ag75
ag82
ag89
asS'neighbour_disasm_list'
p119
Nsba(ibclass
BBasicBlock
p120
(dp121
g12
Nsg13
(lp122
(ibclass
BInstr
p123
(dp124
g2
Nsg17
S'LDR     R12, [arg,#8]'
p125
sg19
S'08c095e5'
p126
sg21
Vldr ip, [r5, #8]
p127
sg5
L269844L
sg6
Nsg23
S'LDR'
p128
sg25
S'0x41e14L'
p129
sg27
Nsba(ibclass
BInstr
p130
(dp131
g2
Nsg17
S'CMP     R12, #0'
p132
sg19
S'00005ce3'
p133
sg21
Vcmp ip, #0
p134
sg5
L269848L
sg6
Nsg23
S'CMP'
p135
sg25
S'0x41e18L'
p136
sg27
Nsba(ibclass
BInstr
p137
(dp138
g2
Nsg17
S'BEQ     loc_41E98'
p139
sg19
S'1d00000a'
p140
sg21
Vbeq #0x7c
p141
sg5
L269852L
sg6
Nsg23
g89
sg25
S'0x41e1cL'
p142
sg27
Nsbasg91
(lp143
S'LDR R12, mem'
p144
aS'CMP R12, #0'
p145
aS'BEQ func'
p146
asg103
Nsg5
S'0x41e14L'
p147
sg105
(lp148
S'0x41decL'
p149
asg6
Nsg107
(lp150
S'0x41e20L'
p151
aS'0x41e98L'
p152
asg111
Nsg112
Nsg113
S'fa4df767a85c49648339e2dc5c6807f6'
p153
sg115
S'ce17f0c79ad34aea3b6392a14450c181'
p154
sg117
(lp155
g128
ag135
ag89
asg119
Nsba(ibclass
BBasicBlock
p156
(dp157
g12
Nsg13
(lp158
(ibclass
BInstr
p159
(dp160
g2
Nsg17
S'LDR     R0, [R12,#8]'
p161
sg19
S'08009ce5'
p162
sg21
Vldr r0, [ip, #8]
p163
sg5
L269856L
sg6
Nsg23
S'LDR'
p164
sg25
S'0x41e20L'
p165
sg27
Nsba(ibclass
BInstr
p166
(dp167
g2
Nsg17
S'LDR     R3, [R12,#4]'
p168
sg19
S'04309ce5'
p169
sg21
Vldr r3, [ip, #4]
p170
sg5
L269860L
sg6
Nsg23
S'LDR'
p171
sg25
S'0x41e24L'
p172
sg27
Nsba(ibclass
BInstr
p173
(dp174
g2
Nsg17
S'LDR     R1, [R12,#0x10]'
p175
sg19
S'10109ce5'
p176
sg21
Vldr r1, [ip, #0x10]
p177
sg5
L269864L
sg6
Nsg23
S'LDR'
p178
sg25
S'0x41e28L'
p179
sg27
Nsba(ibclass
BInstr
p180
(dp181
g2
Nsg17
S'LDR     R2, [R12,#0xC]'
p182
sg19
S'0c209ce5'
p183
sg21
Vldr r2, [ip, #0xc]
p184
sg5
L269868L
sg6
Nsg23
S'LDR'
p185
sg25
S'0x41e2cL'
p186
sg27
Nsba(ibclass
BInstr
p187
(dp188
g2
Nsg17
S'STR     R0, [SP,#0x18+var_18]'
p189
sg19
S'00008de5'
p190
sg21
Vstr r0, [sp]
p191
sg5
L269872L
sg6
Nsg23
S'STR'
p192
sg25
S'0x41e30L'
p193
sg27
Nsba(ibclass
BInstr
p194
(dp195
g2
Nsg17
S'LDR     R12, [R12,#0x14]'
p196
sg19
S'14c09ce5'
p197
sg21
Vldr ip, [ip, #0x14]
p198
sg5
L269876L
sg6
Nsg23
S'LDR'
p199
sg25
S'0x41e34L'
p200
sg27
Nsba(ibclass
BInstr
p201
(dp202
g2
Nsg17
S'MOV     R0, LR'
p203
sg19
S'0e00a0e1'
p204
sg21
Vmov r0, lr
p205
sg5
L269880L
sg6
Nsg23
S'MOV'
p206
sg25
S'0x41e38L'
p207
sg27
Nsba(ibclass
BInstr
p208
(dp209
g2
Nsg17
S'STR     R12, [SP,#0x18+var_14]'
p210
sg19
S'04c08de5'
p211
sg21
Vstr ip, [sp, #4]
p212
sg5
L269884L
sg6
Nsg23
S'STR'
p213
sg25
S'0x41e3cL'
p214
sg27
Nsba(ibclass
BInstr
p215
(dp216
g2
Nsg17
S'BL      SSL_set_srp_server_param'
p217
sg19
S'0168ffeb'
p218
sg21
Vbl #0xfffda00c
p219
sg5
L269888L
sg6
Nsg23
S'BL'
p220
sg25
S'0x41e40L'
p221
sg27
Nsba(ibclass
BInstr
p222
(dp223
g2
Nsg17
S'CMP     R0, #0'
p224
sg19
S'000050e3'
p225
sg21
Vcmp r0, #0
p226
sg5
L269892L
sg6
Nsg23
S'CMP'
p227
sg25
S'0x41e44L'
p228
sg27
Nsba(ibclass
BInstr
p229
(dp230
g2
Nsg17
S'MOVLT   R3, #0x50'
p231
sg19
S'5030a0b3'
p232
sg21
Vmovlt r3, #0x50
p233
sg5
L269896L
sg6
Nsg23
S'MOV'
p234
sg25
S'0x41e48L'
p235
sg27
Nsba(ibclass
BInstr
p236
(dp237
g2
Nsg17
S'STRLT   R3, [ad]'
p238
sg19
S'003086b5'
p239
sg21
Vstrlt r3, [r6]
p240
sg5
L269900L
sg6
Nsg23
S'STR'
p241
sg25
S'0x41e4cL'
p242
sg27
Nsba(ibclass
BInstr
p243
(dp244
g2
Nsg17
S'MOVLT   R0, #2'
p245
sg19
S'0200a0b3'
p246
sg21
Vmovlt r0, #2
p247
sg5
L269904L
sg6
Nsg23
S'MOV'
p248
sg25
S'0x41e50L'
p249
sg27
Nsba(ibclass
BInstr
p250
(dp251
g2
Nsg17
S'BGE     loc_41E64'
p252
sg19
S'020000aa'
p253
sg21
Vbge #0x10
p254
sg5
L269908L
sg6
Nsg23
g89
sg25
S'0x41e54L'
p255
sg27
Nsbasg91
(lp256
S'LDR R0, mem'
p257
aS'LDR R3, mem'
p258
aS'LDR R1, mem'
p259
aS'LDR R2, mem'
p260
aS'STR R0, mem'
p261
aS'LDR R12, mem'
p262
aS'MOV R0, LR'
p263
aS'STR R12, mem'
p264
aS'BL SSL_set_srp_server_param'
p265
aS'CMP R0, #0'
p266
aS'MOVLT R3, #0x50'
p267
aS'STRLT R3, mem'
p268
aS'MOVLT R0, #2'
p269
aS'BGE func'
p270
asg103
Nsg5
S'0x41e20L'
p271
sg105
(lp272
S'0x41e14L'
p273
aS'0x41eb8L'
p274
asg6
Nsg107
(lp275
S'0x41e58L'
p276
aS'0x41e64L'
p277
asg111
Nsg112
Nsg113
S'4a4b449b7dffa1b59469943c7ab537bd'
p278
sg115
S'b0802033b0fe997943801ed3e64ac196'
p279
sg117
(lp280
g164
ag171
ag178
ag185
ag192
ag199
ag206
ag213
ag220
ag227
ag234
ag241
ag248
ag89
asg119
Nsba(ibclass
BBasicBlock
p281
(dp282
g12
Nsg13
(lp283
(ibclass
BInstr
p284
(dp285
g2
Nsg17
S'ADD     SP, SP, #8'
p286
sg19
S'08d08de2'
p287
sg21
Vadd sp, sp, #8
p288
sg5
L269912L
sg6
Nsg23
S'ADD'
p289
sg25
S'0x41e58L'
p290
sg27
Nsba(ibclass
BInstr
p291
(dp292
g2
Nsg17
S'LDMFD   SP!, {R4-ad,LR}'
p293
sg19
S'7040bde8'
p294
sg21
Vpop {r4, r5, r6, lr}
p295
sg5
L269916L
sg6
Nsg23
S'LDM'
p296
sg25
S'0x41e5cL'
p297
sg27
Nsba(ibclass
BInstr
p298
(dp299
g2
Nsg17
S'BX      LR'
p300
sg19
S'1eff2fe1'
p301
sg21
Vbx lr
p302
sg5
L269920L
sg6
Nsg23
S'BX'
p303
sg25
S'0x41e60L'
p304
sg27
Nsbasg91
(lp305
S'ADD SP, SP, #8'
p306
aS'LDMFD SP!, {R4-ad,LR}'
p307
aS'BX LR'
p308
asg103
Nsg5
S'0x41e58L'
p309
sg105
(lp310
S'0x41e20L'
p311
aS'0x41e64L'
p312
aS'0x41e98L'
p313
aS'0x41ec4L'
p314
asg6
Nsg107
(lp315
sg111
Nsg112
Nsg113
S'fb02e3799554a1c259ca4724e19b2b8e'
p316
sg115
S'efbeee697a77d464622c8184994818a2'
p317
sg117
(lp318
g289
ag296
ag303
asg119
Nsba(ibclass
BBasicBlock
p319
(dp320
g12
Nsg13
(lp321
(ibclass
BInstr
p322
(dp323
g2
Nsg17
S'LDR     R2, =(bio_err_ptr - 0x92000)'
p324
sg19
S'88209fe5'
p325
sg21
Vldr r2, [pc, #0x88]
p326
sg5
L269924L
sg6
Nsg23
S'LDR'
p327
sg25
S'0x41e64L'
p328
sg27
Nsba(ibclass
BInstr
p329
(dp330
g2
Nsg17
S'LDR     R3, [arg,#8]'
p331
sg19
S'083095e5'
p332
sg21
Vldr r3, [r5, #8]
p333
sg5
L269928L
sg6
Nsg23
S'LDR'
p334
sg25
S'0x41e68L'
p335
sg27
Nsba(ibclass
BInstr
p336
(dp337
g2
Nsg17
S'LDR     R2, [R4,R2] ; bio_err'
p338
sg19
S'022094e7'
p339
sg21
Vldr r2, [r4, r2]
p340
sg5
L269932L
sg6
Nsg23
S'LDR'
p341
sg25
S'0x41e6cL'
p342
sg27
Nsba(ibclass
BInstr
p343
(dp344
g2
Nsg17
S'LDR     R1, =(aSrpParametersS - 0x92000)'
p345
sg19
S'80109fe5'
p346
sg21
Vldr r1, [pc, #0x80]
p347
sg5
L269936L
sg6
Nsg23
S'LDR'
p348
sg25
S'0x41e70L'
p349
sg27
Nsba(ibclass
BInstr
p350
(dp351
g2
Nsg17
S'LDR     R0, [R2]'
p352
sg19
S'000092e5'
p353
sg21
Vldr r0, [r2]
p354
sg5
L269940L
sg6
Nsg23
S'LDR'
p355
sg25
S'0x41e74L'
p356
sg27
Nsba(ibclass
BInstr
p357
(dp358
g2
Nsg17
S'ADD     R1, R4, R1      ; "SRP parameters set: username = \\"%s\\" i"...'
p359
sg19
S'011084e0'
p360
sg21
Vadd r1, r4, r1
p361
sg5
L269944L
sg6
Nsg23
S'ADD'
p362
sg25
S'0x41e78L'
p363
sg27
Nsba(ibclass
BInstr
p364
(dp365
g2
Nsg17
S'LDR     R3, [R3,#0x14]'
p366
sg19
S'143093e5'
p367
sg21
Vldr r3, [r3, #0x14]
p368
sg5
L269948L
sg6
Nsg23
S'LDR'
p369
sg25
S'0x41e7cL'
p370
sg27
Nsba(ibclass
BInstr
p371
(dp372
g2
Nsg17
S'LDR     R2, [arg]'
p373
sg19
S'002095e5'
p374
sg21
Vldr r2, [r5]
p375
sg5
L269952L
sg6
Nsg23
S'LDR'
p376
sg25
S'0x41e80L'
p377
sg27
Nsba(ibclass
BInstr
p378
(dp379
g2
Nsg17
S'BL      BIO_printf'
p380
sg19
S'c367ffeb'
p381
sg21
Vbl #0xfffd9f14
p382
sg5
L269956L
sg6
Nsg23
S'BL'
p383
sg25
S'0x41e84L'
p384
sg27
Nsba(ibclass
BInstr
p385
(dp386
g2
Nsg17
S'MOV     R0, #0'
p387
sg19
S'0000a0e3'
p388
sg21
Vmov r0, #0
p389
sg5
L269960L
sg6
Nsg23
S'MOV'
p390
sg25
S'0x41e88L'
p391
sg27
Nsba(ibclass
BInstr
p392
(dp393
g2
Nsg17
S'STR     R0, [arg]'
p394
sg19
S'000085e5'
p395
sg21
Vstr r0, [r5]
p396
sg5
L269964L
sg6
Nsg23
S'STR'
p397
sg25
S'0x41e8cL'
p398
sg27
Nsba(ibclass
BInstr
p399
(dp400
g2
Nsg17
S'STR     R0, [arg,#8]'
p401
sg19
S'080085e5'
p402
sg21
Vstr r0, [r5, #8]
p403
sg5
L269968L
sg6
Nsg23
S'STR'
p404
sg25
S'0x41e90L'
p405
sg27
Nsba(ibclass
BInstr
p406
(dp407
g2
Nsg17
S'B       loc_41E58'
p408
sg19
S'efffffea'
p409
sg21
Vb #0xffffffc4
p410
sg5
L269972L
sg6
Nsg23
g89
sg25
S'0x41e94L'
p411
sg27
Nsbasg91
(lp412
S'LDR R2, =(bio_err_ptr - address)'
p413
aS'LDR R3, mem'
p414
aS'LDR R2, mem'
p415
aS'LDR R1, =(aSrpParametersS - address)'
p416
aS'LDR R0, mem'
p417
aS'ADD R1, R4, R1'
p418
aS'LDR R3, mem'
p419
aS'LDR R2, mem'
p420
aS'BL BIO_printf'
p421
aS'MOV R0, #0'
p422
aS'STR R0, mem'
p423
aS'STR R0, mem'
p424
aS'B func'
p425
asg103
Nsg5
S'0x41e64L'
p426
sg105
(lp427
S'0x41e20L'
p428
asg6
Nsg107
(lp429
S'0x41e58L'
p430
asg111
Nsg112
Nsg113
S'0ad69a5af85c632e494661e6583818aa'
p431
sg115
S'901b2645dda6b674cb0876e61a14c7b2'
p432
sg117
(lp433
g327
ag334
ag341
ag348
ag355
ag362
ag369
ag376
ag383
ag390
ag397
ag404
ag89
asg119
Nsba(ibclass
BBasicBlock
p434
(dp435
g12
Nsg13
(lp436
(ibclass
BInstr
p437
(dp438
g2
Nsg17
S'LDR     R3, =(bio_err_ptr - 0x92000)'
p439
sg19
S'54309fe5'
p440
sg21
Vldr r3, [pc, #0x54]
p441
sg5
L269976L
sg6
Nsg23
S'LDR'
p442
sg25
S'0x41e98L'
p443
sg27
Nsba(ibclass
BInstr
p444
(dp445
g2
Nsg17
S'LDR     R1, =(aUserSDoesnTExi - 0x92000)'
p446
sg19
S'58109fe5'
p447
sg21
Vldr r1, [pc, #0x58]
p448
sg5
L269980L
sg6
Nsg23
S'LDR'
p449
sg25
S'0x41e9cL'
p450
sg27
Nsba(ibclass
BInstr
p451
(dp452
g2
Nsg17
S'LDR     R3, [R4,R3] ; bio_err'
p453
sg19
S'033094e7'
p454
sg21
Vldr r3, [r4, r3]
p455
sg5
L269984L
sg6
Nsg23
S'LDR'
p456
sg25
S'0x41ea0L'
p457
sg27
Nsba(ibclass
BInstr
p458
(dp459
g2
Nsg17
S'ADD     R1, R4, R1      ; "User %s doesn\'t exist\\n"'
p460
sg19
S'011084e0'
p461
sg21
Vadd r1, r4, r1
p462
sg5
L269988L
sg6
Nsg23
S'ADD'
p463
sg25
S'0x41ea4L'
p464
sg27
Nsba(ibclass
BInstr
p465
(dp466
g2
Nsg17
S'LDR     R0, [R3]'
p467
sg19
S'000093e5'
p468
sg21
Vldr r0, [r3]
p469
sg5
L269992L
sg6
Nsg23
S'LDR'
p470
sg25
S'0x41ea8L'
p471
sg27
Nsba(ibclass
BInstr
p472
(dp473
g2
Nsg17
S'BL      BIO_printf'
p474
sg19
S'b967ffeb'
p475
sg21
Vbl #0xfffd9eec
p476
sg5
L269996L
sg6
Nsg23
S'BL'
p477
sg25
S'0x41eacL'
p478
sg27
Nsba(ibclass
BInstr
p479
(dp480
g2
Nsg17
S'MOV     R0, #2'
p481
sg19
S'0200a0e3'
p482
sg21
Vmov r0, #2
p483
sg5
L270000L
sg6
Nsg23
S'MOV'
p484
sg25
S'0x41eb0L'
p485
sg27
Nsba(ibclass
BInstr
p486
(dp487
g2
Nsg17
S'B       loc_41E58'
p488
sg19
S'e7ffffea'
p489
sg21
Vb #0xffffffa4
p490
sg5
L270004L
sg6
Nsg23
g89
sg25
S'0x41eb4L'
p491
sg27
Nsbasg91
(lp492
S'LDR R3, =(bio_err_ptr - address)'
p493
aS'LDR R1, =(aUserSDoesnTExi - address)'
p494
aS'LDR R3, mem'
p495
aS'ADD R1, R4, R1'
p496
aS'LDR R0, mem'
p497
aS'BL BIO_printf'
p498
aS'MOV R0, #2'
p499
aS'B func'
p500
asg103
Nsg5
S'0x41e98L'
p501
sg105
(lp502
S'0x41e14L'
p503
asg6
Nsg107
(lp504
S'0x41e58L'
p505
asg111
Nsg112
Nsg113
S'a5f68b67f4230b08d97bc8e0fa26c34e'
p506
sg115
S'ef5cd4db5b1b656381e83361053f6dbf'
p507
sg117
(lp508
g442
ag449
ag456
ag463
ag470
ag477
ag484
ag89
asg119
Nsba(ibclass
BBasicBlock
p509
(dp510
g12
Nsg13
(lp511
(ibclass
BInstr
p512
(dp513
g2
Nsg17
S'LDR     R12, [arg,#8]'
p514
sg19
S'08c095e5'
p515
sg21
Vldr ip, [r5, #8]
p516
sg5
L270008L
sg6
Nsg23
S'LDR'
p517
sg25
S'0x41eb8L'
p518
sg27
Nsba(ibclass
BInstr
p519
(dp520
g2
Nsg17
S'CMP     R12, #0'
p521
sg19
S'00005ce3'
p522
sg21
Vcmp ip, #0
p523
sg5
L270012L
sg6
Nsg23
S'CMP'
p524
sg25
S'0x41ebcL'
p525
sg27
Nsba(ibclass
BInstr
p526
(dp527
g2
Nsg17
S'BNE     loc_41E20'
p528
sg19
S'd6ffff1a'
p529
sg21
Vbne #0xffffff60
p530
sg5
L270016L
sg6
Nsg23
g89
sg25
S'0x41ec0L'
p531
sg27
Nsbasg91
(lp532
S'LDR R12, mem'
p533
aS'CMP R12, #0'
p534
aS'BNE func'
p535
asg103
Nsg5
S'0x41eb8L'
p536
sg105
(lp537
S'0x41decL'
p538
asg6
Nsg107
(lp539
S'0x41e20L'
p540
aS'0x41ec4L'
p541
asg111
Nsg112
Nsg113
S'fa4df767a85c49648339e2dc5c6807f6'
p542
sg115
S'3603b179e4855ed48ebf2f679641e589'
p543
sg117
(lp544
g517
ag524
ag89
asg119
Nsba(ibclass
BBasicBlock
p545
(dp546
g12
Nsg13
(lp547
(ibclass
BInstr
p548
(dp549
g2
Nsg17
S'BL      SSL_get_srp_username'
p550
sg19
S'8169ffeb'
p551
sg21
Vbl #0xfffda60c
p552
sg5
L270020L
sg6
Nsg23
S'BL'
p553
sg25
S'0x41ec4L'
p554
sg27
Nsba(ibclass
BInstr
p555
(dp556
g2
Nsg17
S'LDR     R3, =(bio_err_ptr - 0x92000)'
p557
sg19
S'24309fe5'
p558
sg21
Vldr r3, [pc, #0x24]
p559
sg5
L270024L
sg6
Nsg23
S'LDR'
p560
sg25
S'0x41ec8L'
p561
sg27
Nsba(ibclass
BInstr
p562
(dp563
g2
Nsg17
S'LDR     R1, =(aSrpUsernameS - 0x92000)'
p564
sg19
S'2c109fe5'
p565
sg21
Vldr r1, [pc, #0x2c]
p566
sg5
L270028L
sg6
Nsg23
S'LDR'
p567
sg25
S'0x41eccL'
p568
sg27
Nsba(ibclass
BInstr
p569
(dp570
g2
Nsg17
S'LDR     R3, [R4,R3] ; bio_err'
p571
sg19
S'033094e7'
p572
sg21
Vldr r3, [r4, r3]
p573
sg5
L270032L
sg6
Nsg23
S'LDR'
p574
sg25
S'0x41ed0L'
p575
sg27
Nsba(ibclass
BInstr
p576
(dp577
g2
Nsg17
S'MOV     R2, R0'
p578
sg19
S'0020a0e1'
p579
sg21
Vmov r2, r0
p580
sg5
L270036L
sg6
Nsg23
S'MOV'
p581
sg25
S'0x41ed4L'
p582
sg27
Nsba(ibclass
BInstr
p583
(dp584
g2
Nsg17
S'STR     R0, [arg]'
p585
sg19
S'000085e5'
p586
sg21
Vstr r0, [r5]
p587
sg5
L270040L
sg6
Nsg23
S'STR'
p588
sg25
S'0x41ed8L'
p589
sg27
Nsba(ibclass
BInstr
p590
(dp591
g2
Nsg17
S'ADD     R1, R4, R1      ; "SRP username = \\"%s\\"\\n"'
p592
sg19
S'011084e0'
p593
sg21
Vadd r1, r4, r1
p594
sg5
L270044L
sg6
Nsg23
S'ADD'
p595
sg25
S'0x41edcL'
p596
sg27
Nsba(ibclass
BInstr
p597
(dp598
g2
Nsg17
S'LDR     R0, [R3]'
p599
sg19
S'000093e5'
p600
sg21
Vldr r0, [r3]
p601
sg5
L270048L
sg6
Nsg23
S'LDR'
p602
sg25
S'0x41ee0L'
p603
sg27
Nsba(ibclass
BInstr
p604
(dp605
g2
Nsg17
S'BL      BIO_printf'
p606
sg19
S'ab67ffeb'
p607
sg21
Vbl #0xfffd9eb4
p608
sg5
L270052L
sg6
Nsg23
S'BL'
p609
sg25
S'0x41ee4L'
p610
sg27
Nsba(ibclass
BInstr
p611
(dp612
g2
Nsg17
S'MOV     R0, #0xFFFFFFFF'
p613
sg19
S'0000e0e3'
p614
sg21
Vmvn r0, #0
p615
sg5
L270056L
sg6
Nsg23
S'MOV'
p616
sg25
S'0x41ee8L'
p617
sg27
Nsba(ibclass
BInstr
p618
(dp619
g2
Nsg17
S'B       loc_41E58'
p620
sg19
S'd9ffffea'
p621
sg21
Vb #0xffffff6c
p622
sg5
L270060L
sg6
Nsg23
g89
sg25
S'0x41eecL'
p623
sg27
Nsbasg91
(lp624
S'BL SSL_get_srp_username'
p625
aS'LDR R3, =(bio_err_ptr - address)'
p626
aS'LDR R1, =(aSrpUsernameS - address)'
p627
aS'LDR R3, mem'
p628
aS'MOV R2, R0'
p629
aS'STR R0, mem'
p630
aS'ADD R1, R4, R1'
p631
aS'LDR R0, mem'
p632
aS'BL BIO_printf'
p633
aS'MOV R0, #0xFFFFFFFF'
p634
aS'B func'
p635
asg103
Nsg5
S'0x41ec4L'
p636
sg105
(lp637
S'0x41eb8L'
p638
asg6
Nsg107
(lp639
S'0x41e58L'
p640
asg111
Nsg112
Nsg113
S'cda158db7d8e50e6bdb8e44eb4219a3a'
p641
sg115
S'b9bda93f06641a59f5f354240dce2e63'
p642
sg117
(lp643
g553
ag560
ag567
ag574
ag581
ag588
ag595
ag602
ag609
ag616
ag89
asg119
Nsbasb.