(ibclass
BFunc
p0
(dp1
S'hash'
p2
NsS'name'
p3
S'tls1_set_server_sigalgs'
p4
sS'start_address'
p5
L179476L
sS'flag'
p6
NsS'program'
p7
NsS'bbs'
p8
(lp9
(ibclass
BBasicBlock
p10
(dp11
S'function'
p12
NsS'binstrs'
p13
(lp14
(ibclass
BInstr
p15
(dp16
g2
NsS'disasm'
p17
S'STMFD   SP!, {R4,R5,LR}'
p18
sS'bytes'
p19
S'30402de9'
p20
sS'disasm_striped'
p21
Vpush {r4, r5, lr}
p22
sg5
L179476L
sg6
NsS'mnem'
p23
S'STM'
p24
sS'address'
p25
S'0x2bd14L'
p26
sS'basicblock'
p27
Nsba(ibclass
BInstr
p28
(dp29
g2
Nsg17
S'LDR     R3, [s,#0x98]'
p30
sg19
S'983090e5'
p31
sg21
Vldr r3, [r0, #0x98]
p32
sg5
L179480L
sg6
Nsg23
S'LDR'
p33
sg25
S'0x2bd18L'
p34
sg27
Nsba(ibclass
BInstr
p35
(dp36
g2
Nsg17
S'MOV     R4, s'
p37
sg19
S'0040a0e1'
p38
sg21
Vmov r4, r0
p39
sg5
L179484L
sg6
Nsg23
S'MOV'
p40
sg25
S'0x2bd1cL'
p41
sg27
Nsba(ibclass
BInstr
p42
(dp43
g2
Nsg17
S'LDR     s, [R3,#0x13C]'
p44
sg19
S'3c0193e5'
p45
sg21
Vldr r0, [r3, #0x13c]
p46
sg5
L179488L
sg6
Nsg23
S'LDR'
p47
sg25
S'0x2bd20L'
p48
sg27
Nsba(ibclass
BInstr
p49
(dp50
g2
Nsg17
S'LDR     R5, =($_GLOBAL_OFFSET_TABLE_ - 0x2BD38)'
p51
sg19
S'0c519fe5'
p52
sg21
Vldr r5, [pc, #0x10c]
p53
sg5
L179492L
sg6
Nsg23
S'LDR'
p54
sg25
S'0x2bd24L'
p55
sg27
Nsba(ibclass
BInstr
p56
(dp57
g2
Nsg17
S'CMP     R0, #0'
p58
sg19
S'000050e3'
p59
sg21
Vcmp r0, #0
p60
sg5
L179496L
sg6
Nsg23
S'CMP'
p61
sg25
S'0x2bd28L'
p62
sg27
Nsba(ibclass
BInstr
p63
(dp64
g2
Nsg17
S'SUB     SP, SP, #0xC'
p65
sg19
S'0cd04de2'
p66
sg21
Vsub sp, sp, #0xc
p67
sg5
L179500L
sg6
Nsg23
S'SUB'
p68
sg25
S'0x2bd2cL'
p69
sg27
Nsba(ibclass
BInstr
p70
(dp71
g2
Nsg17
S'ADD     R5, PC, R5 ; $_GLOBAL_OFFSET_TABLE_'
p72
sg19
S'05508fe0'
p73
sg21
Vadd r5, pc, r5
p74
sg5
L179504L
sg6
Nsg23
S'ADD'
p75
sg25
S'0x2bd30L'
p76
sg27
Nsba(ibclass
BInstr
p77
(dp78
g2
Nsg17
S'BEQ     loc_2BD4C'
p79
sg19
S'0400000a'
p80
sg21
Vbeq #0x18
p81
sg5
L179508L
sg6
Nsg23
S'B'
p82
sg25
S'0x2bd34L'
p83
sg27
NsbasS'disasm_list'
p84
(lp85
S'STMFD SP!, {R4,R5,LR}'
p86
aS'LDR R3, mem'
p87
aS'MOV R4, s'
p88
aS'LDR s, mem'
p89
aS'LDR R5, =($_GLOBAL_OFFSET_TABLE_ - 0x2BD38)'
p90
aS'CMP R0, #0'
p91
aS'SUB SP, SP, #0xC'
p92
aS'ADD R5, PC, R5'
p93
aS'BEQ func'
p94
asS'end_address'
p95
Nsg5
S'0x2bd14L'
p96
sS'preds'
p97
(lp98
sg6
NsS'succs'
p99
(lp100
S'0x2bd38L'
p101
aS'0x2bd4cL'
p102
asS'hash_v3'
p103
NsS'flag_v2'
p104
NsS'hash_v1'
p105
S'dbdf083da6cf9ec57971cd3e75d296c5'
p106
sS'hash_v2'
p107
S'bbbcadd6654c74f0982842345512045f'
p108
sS'mnen_list'
p109
(lp110
g24
ag33
ag40
ag47
ag54
ag61
ag68
ag75
ag82
asS'neighbour_disasm_list'
p111
Nsba(ibclass
BBasicBlock
p112
(dp113
g12
Nsg13
(lp114
(ibclass
BInstr
p115
(dp116
g2
Nsg17
S'BL      CRYPTO_free'
p117
sg19
S'f290ffeb'
p118
sg21
Vbl #0xfffe43d0
p119
sg5
L179512L
sg6
Nsg23
S'BL'
p120
sg25
S'0x2bd38L'
p121
sg27
Nsba(ibclass
BInstr
p122
(dp123
g2
Nsg17
S'LDR     R3, [s,#0x98]'
p124
sg19
S'983094e5'
p125
sg21
Vldr r3, [r4, #0x98]
p126
sg5
L179516L
sg6
Nsg23
S'LDR'
p127
sg25
S'0x2bd3cL'
p128
sg27
Nsba(ibclass
BInstr
p129
(dp130
g2
Nsg17
S'MOV     R2, #0'
p131
sg19
S'0020a0e3'
p132
sg21
Vmov r2, #0
p133
sg5
L179520L
sg6
Nsg23
S'MOV'
p134
sg25
S'0x2bd40L'
p135
sg27
Nsba(ibclass
BInstr
p136
(dp137
g2
Nsg17
S'STR     R2, [R3,#0x140]'
p138
sg19
S'402183e5'
p139
sg21
Vstr r2, [r3, #0x140]
p140
sg5
L179524L
sg6
Nsg23
S'STR'
p141
sg25
S'0x2bd44L'
p142
sg27
Nsba(ibclass
BInstr
p143
(dp144
g2
Nsg17
S'STR     R2, [R3,#0x13C]'
p145
sg19
S'3c2183e5'
p146
sg21
Vstr r2, [r3, #0x13c]
p147
sg5
L179528L
sg6
Nsg23
S'STR'
p148
sg25
S'0x2bd48L'
p149
sg27
Nsbasg84
(lp150
S'BL CRYPTO_free'
p151
aS'LDR R3, mem'
p152
aS'MOV R2, #0'
p153
aS'STR R2, mem'
p154
aS'STR R2, mem'
p155
asg95
Nsg5
S'0x2bd38L'
p156
sg97
(lp157
S'0x2bd14L'
p158
asg6
Nsg99
(lp159
S'0x2bd4cL'
p160
asg103
Nsg104
Nsg105
S'3d26584a9df0cf715d12d076409b78fe'
p161
sg107
S'4ee69d0c5840dc57a37b55f53406238d'
p162
sg109
(lp163
g120
ag127
ag134
ag141
ag148
asg111
Nsba(ibclass
BBasicBlock
p164
(dp165
g12
Nsg13
(lp166
(ibclass
BInstr
p167
(dp168
g2
Nsg17
S'LDR     R1, [R3,#0x124]'
p169
sg19
S'241193e5'
p170
sg21
Vldr r1, [r3, #0x124]
p171
sg5
L179532L
sg6
Nsg23
S'LDR'
p172
sg25
S'0x2bd4cL'
p173
sg27
Nsba(ibclass
BInstr
p174
(dp175
g2
Nsg17
S'MOV     R2, #0'
p176
sg19
S'0020a0e3'
p177
sg21
Vmov r2, #0
p178
sg5
L179536L
sg6
Nsg23
S'MOV'
p179
sg25
S'0x2bd50L'
p180
sg27
Nsba(ibclass
BInstr
p181
(dp182
g2
Nsg17
S'CMP     R1, R2'
p183
sg19
S'020051e1'
p184
sg21
Vcmp r1, r2
p185
sg5
L179540L
sg6
Nsg23
S'CMP'
p186
sg25
S'0x2bd54L'
p187
sg27
Nsba(ibclass
BInstr
p188
(dp189
g2
Nsg17
S'STR     R2, [R3,#0x118]'
p190
sg19
S'182183e5'
p191
sg21
Vstr r2, [r3, #0x118]
p192
sg5
L179544L
sg6
Nsg23
S'STR'
p193
sg25
S'0x2bd58L'
p194
sg27
Nsba(ibclass
BInstr
p195
(dp196
g2
Nsg17
S'STR     R2, [R3,#0x44]'
p197
sg19
S'442083e5'
p198
sg21
Vstr r2, [r3, #0x44]
p199
sg5
L179548L
sg6
Nsg23
S'STR'
p200
sg25
S'0x2bd5cL'
p201
sg27
Nsba(ibclass
BInstr
p202
(dp203
g2
Nsg17
S'STR     R2, [R3,#0x54]'
p204
sg19
S'542083e5'
p205
sg21
Vstr r2, [r3, #0x54]
p206
sg5
L179552L
sg6
Nsg23
S'STR'
p207
sg25
S'0x2bd60L'
p208
sg27
Nsba(ibclass
BInstr
p209
(dp210
g2
Nsg17
S'STR     R2, [R3,#0x60]'
p211
sg19
S'602083e5'
p212
sg21
Vstr r2, [r3, #0x60]
p213
sg5
L179556L
sg6
Nsg23
S'STR'
p214
sg25
S'0x2bd64L'
p215
sg27
Nsba(ibclass
BInstr
p216
(dp217
g2
Nsg17
S'STR     R2, [R3,#0x70]'
p218
sg19
S'702083e5'
p219
sg21
Vstr r2, [r3, #0x70]
p220
sg5
L179560L
sg6
Nsg23
S'STR'
p221
sg25
S'0x2bd68L'
p222
sg27
Nsba(ibclass
BInstr
p223
(dp224
g2
Nsg17
S'STR     R2, [R3,#0x7C]'
p225
sg19
S'7c2083e5'
p226
sg21
Vstr r2, [r3, #0x7c]
p227
sg5
L179564L
sg6
Nsg23
S'STR'
p228
sg25
S'0x2bd6cL'
p229
sg27
Nsba(ibclass
BInstr
p230
(dp231
g2
Nsg17
S'STR     R2, [R3,#0x8C]'
p232
sg19
S'8c2083e5'
p233
sg21
Vstr r2, [r3, #0x8c]
p234
sg5
L179568L
sg6
Nsg23
S'STR'
p235
sg25
S'0x2bd70L'
p236
sg27
Nsba(ibclass
BInstr
p237
(dp238
g2
Nsg17
S'STR     R2, [R3,#0x98]'
p239
sg19
S'982083e5'
p240
sg21
Vstr r2, [r3, #0x98]
p241
sg5
L179572L
sg6
Nsg23
S'STR'
p242
sg25
S'0x2bd74L'
p243
sg27
Nsba(ibclass
BInstr
p244
(dp245
g2
Nsg17
S'STR     R2, [R3,#0xA8]'
p246
sg19
S'a82083e5'
p247
sg21
Vstr r2, [r3, #0xa8]
p248
sg5
L179576L
sg6
Nsg23
S'STR'
p249
sg25
S'0x2bd78L'
p250
sg27
Nsba(ibclass
BInstr
p251
(dp252
g2
Nsg17
S'STR     R2, [R3,#0xB4]'
p253
sg19
S'b42083e5'
p254
sg21
Vstr r2, [r3, #0xb4]
p255
sg5
L179580L
sg6
Nsg23
S'STR'
p256
sg25
S'0x2bd7cL'
p257
sg27
Nsba(ibclass
BInstr
p258
(dp259
g2
Nsg17
S'STR     R2, [R3,#0xC4]'
p260
sg19
S'c42083e5'
p261
sg21
Vstr r2, [r3, #0xc4]
p262
sg5
L179584L
sg6
Nsg23
S'STR'
p263
sg25
S'0x2bd80L'
p264
sg27
Nsba(ibclass
BInstr
p265
(dp266
g2
Nsg17
S'STR     R2, [R3,#0xD0]'
p267
sg19
S'd02083e5'
p268
sg21
Vstr r2, [r3, #0xd0]
p269
sg5
L179588L
sg6
Nsg23
S'STR'
p270
sg25
S'0x2bd84L'
p271
sg27
Nsba(ibclass
BInstr
p272
(dp273
g2
Nsg17
S'STR     R2, [R3,#0xE0]'
p274
sg19
S'e02083e5'
p275
sg21
Vstr r2, [r3, #0xe0]
p276
sg5
L179592L
sg6
Nsg23
S'STR'
p277
sg25
S'0x2bd88L'
p278
sg27
Nsba(ibclass
BInstr
p279
(dp280
g2
Nsg17
S'STR     R2, [R3,#0xEC]'
p281
sg19
S'ec2083e5'
p282
sg21
Vstr r2, [r3, #0xec]
p283
sg5
L179596L
sg6
Nsg23
S'STR'
p284
sg25
S'0x2bd8cL'
p285
sg27
Nsba(ibclass
BInstr
p286
(dp287
g2
Nsg17
S'STR     R2, [R3,#0xFC]'
p288
sg19
S'fc2083e5'
p289
sg21
Vstr r2, [r3, #0xfc]
p290
sg5
L179600L
sg6
Nsg23
S'STR'
p291
sg25
S'0x2bd90L'
p292
sg27
Nsba(ibclass
BInstr
p293
(dp294
g2
Nsg17
S'STR     R2, [R3,#0x108]'
p295
sg19
S'082183e5'
p296
sg21
Vstr r2, [r3, #0x108]
p297
sg5
L179604L
sg6
Nsg23
S'STR'
p298
sg25
S'0x2bd94L'
p299
sg27
Nsba(ibclass
BInstr
p300
(dp301
g2
Nsg17
S'BEQ     loc_2BE2C'
p302
sg19
S'2300000a'
p303
sg21
Vbeq #0x94
p304
sg5
L179608L
sg6
Nsg23
g82
sg25
S'0x2bd98L'
p305
sg27
Nsbasg84
(lp306
S'LDR R1, mem'
p307
aS'MOV R2, #0'
p308
aS'CMP R1, R2'
p309
aS'STR R2, mem'
p310
aS'STR R2, mem'
p311
aS'STR R2, mem'
p312
aS'STR R2, mem'
p313
aS'STR R2, mem'
p314
aS'STR R2, mem'
p315
aS'STR R2, mem'
p316
aS'STR R2, mem'
p317
aS'STR R2, mem'
p318
aS'STR R2, mem'
p319
aS'STR R2, mem'
p320
aS'STR R2, mem'
p321
aS'STR R2, mem'
p322
aS'STR R2, mem'
p323
aS'STR R2, mem'
p324
aS'STR R2, mem'
p325
aS'BEQ func'
p326
asg95
Nsg5
S'0x2bd4cL'
p327
sg97
(lp328
S'0x2bd14L'
p329
aS'0x2bd38L'
p330
asg6
Nsg99
(lp331
S'0x2bd9cL'
p332
aS'0x2be2cL'
p333
asg103
Nsg104
Nsg105
S'5383bc81c655d31c90ac23b156bf548a'
p334
sg107
S'd0ff50529ad298a08e298f98f86151b4'
p335
sg109
(lp336
g172
ag179
ag186
ag193
ag200
ag207
ag214
ag221
ag228
ag235
ag242
ag249
ag256
ag263
ag270
ag277
ag284
ag291
ag298
ag82
asg111
Nsba(ibclass
BBasicBlock
p337
(dp338
g12
Nsg13
(lp339
(ibclass
BInstr
p340
(dp341
g2
Nsg17
S'MOV     R0, s           ; s'
p342
sg19
S'0400a0e1'
p343
sg21
Vmov r0, r4
p344
sg5
L179612L
sg6
Nsg23
S'MOV'
p345
sg25
S'0x2bd9cL'
p346
sg27
Nsba(ibclass
BInstr
p347
(dp348
g2
Nsg17
S'BL      tls1_process_sigalgs'
p349
sg19
S'8ffeffeb'
p350
sg21
Vbl #0xfffffa44
p351
sg5
L179616L
sg6
Nsg23
S'BL'
p352
sg25
S'0x2bda0L'
p353
sg27
Nsba(ibclass
BInstr
p354
(dp355
g2
Nsg17
S'CMP     R0, #0'
p356
sg19
S'000050e3'
p357
sg21
Vcmp r0, #0
p358
sg5
L179620L
sg6
Nsg23
S'CMP'
p359
sg25
S'0x2bda4L'
p360
sg27
Nsba(ibclass
BInstr
p361
(dp362
g2
Nsg17
S'BEQ     loc_2BDCC'
p363
sg19
S'0700000a'
p364
sg21
Vbeq #0x24
p365
sg5
L179624L
sg6
Nsg23
g82
sg25
S'0x2bda8L'
p366
sg27
Nsbasg84
(lp367
S'MOV R0, s'
p368
aS'BL tls1_process_reggreggs'
p369
aS'CMP R0, #0'
p370
aS'BEQ func'
p371
asg95
Nsg5
S'0x2bd9cL'
p372
sg97
(lp373
S'0x2bd4cL'
p374
asg6
Nsg99
(lp375
S'0x2bdacL'
p376
aS'0x2bdccL'
p377
asg103
Nsg104
Nsg105
S'75fdea37841bac1a618e2aab315c9307'
p378
sg107
S'453b87b60b703f0fba453a222ad7c20f'
p379
sg109
(lp380
g345
ag352
ag359
ag82
asg111
Nsba(ibclass
BBasicBlock
p381
(dp382
g12
Nsg13
(lp383
(ibclass
BInstr
p384
(dp385
g2
Nsg17
S'LDR     R3, [s,#0x98]'
p386
sg19
S'983094e5'
p387
sg21
Vldr r3, [r4, #0x98]
p388
sg5
L179628L
sg6
Nsg23
S'LDR'
p389
sg25
S'0x2bdacL'
p390
sg27
Nsba(ibclass
BInstr
p391
(dp392
g2
Nsg17
S'LDR     R3, [R3,#0x13C]'
p393
sg19
S'3c3193e5'
p394
sg21
Vldr r3, [r3, #0x13c]
p395
sg5
L179632L
sg6
Nsg23
S'LDR'
p396
sg25
S'0x2bdb0L'
p397
sg27
Nsba(ibclass
BInstr
p398
(dp399
g2
Nsg17
S'CMP     R3, #0'
p400
sg19
S'000053e3'
p401
sg21
Vcmp r3, #0
p402
sg5
L179636L
sg6
Nsg23
S'CMP'
p403
sg25
S'0x2bdb4L'
p404
sg27
Nsba(ibclass
BInstr
p405
(dp406
g2
Nsg17
S'BEQ     loc_2BE04'
p407
sg19
S'1100000a'
p408
sg21
Vbeq #0x4c
p409
sg5
L179640L
sg6
Nsg23
g82
sg25
S'0x2bdb8L'
p410
sg27
Nsbasg84
(lp411
S'LDR R3, mem'
p412
aS'LDR R3, mem'
p413
aS'CMP R3, #0'
p414
aS'BEQ func'
p415
asg95
Nsg5
S'0x2bdacL'
p416
sg97
(lp417
S'0x2bd9cL'
p418
asg6
Nsg99
(lp419
S'0x2bdbcL'
p420
aS'0x2be04L'
p421
asg103
Nsg104
Nsg105
S'd9812e74326a7ebe01ae9e2a00bbb5ee'
p422
sg107
S'8bfb676d081709e8821f9868e74b6036'
p423
sg109
(lp424
g389
ag396
ag403
ag82
asg111
Nsba(ibclass
BBasicBlock
p425
(dp426
g12
Nsg13
(lp427
(ibclass
BInstr
p428
(dp429
g2
Nsg17
S'MOV     R0, #1'
p430
sg19
S'0100a0e3'
p431
sg21
Vmov r0, #1
p432
sg5
L179644L
sg6
Nsg23
S'MOV'
p433
sg25
S'0x2bdbcL'
p434
sg27
Nsbasg84
(lp435
S'MOV R0, #1'
p436
asg95
Nsg5
S'0x2bdbcL'
p437
sg97
(lp438
S'0x2bdacL'
p439
aS'0x2be2cL'
p440
asg6
Nsg99
(lp441
S'0x2bdc0L'
p442
asg103
Nsg104
Nsg105
S'17b32100aef1fc19670be7fd58bc85df'
p443
sg107
S'849aeebd84b36519533f5326a1b16475'
p444
sg109
(lp445
g433
asg111
Nsba(ibclass
BBasicBlock
p446
(dp447
g12
Nsg13
(lp448
(ibclass
BInstr
p449
(dp450
g2
Nsg17
S'ADD     SP, SP, #0xC'
p451
sg19
S'0cd08de2'
p452
sg21
Vadd sp, sp, #0xc
p453
sg5
L179648L
sg6
Nsg23
S'ADD'
p454
sg25
S'0x2bdc0L'
p455
sg27
Nsba(ibclass
BInstr
p456
(dp457
g2
Nsg17
S'LDMFD   SP!, {s,R5,LR}'
p458
sg19
S'3040bde8'
p459
sg21
Vpop {r4, r5, lr}
p460
sg5
L179652L
sg6
Nsg23
S'LDM'
p461
sg25
S'0x2bdc4L'
p462
sg27
Nsba(ibclass
BInstr
p463
(dp464
g2
Nsg17
S'BX      LR'
p465
sg19
S'1eff2fe1'
p466
sg21
Vbx lr
p467
sg5
L179656L
sg6
Nsg23
S'BX'
p468
sg25
S'0x2bdc8L'
p469
sg27
Nsbasg84
(lp470
S'ADD SP, SP, #0xC'
p471
aS'LDMFD SP!, {s,R5,LR}'
p472
aS'BX LR'
p473
asg95
Nsg5
S'0x2bdc0L'
p474
sg97
(lp475
S'0x2bdbcL'
p476
aS'0x2bdf0L'
p477
asg6
Nsg99
(lp478
sg103
Nsg104
Nsg105
S'fb02e3799554a1c259ca4724e19b2b8e'
p479
sg107
S'0295ebdd923076b4a79399926084cb09'
p480
sg109
(lp481
g454
ag461
ag468
asg111
Nsba(ibclass
BBasicBlock
p482
(dp483
g12
Nsg13
(lp484
(ibclass
BInstr
p485
(dp486
g2
Nsg17
S'LDR     R3, =(aT1_lib_c - 0x5B000)'
p487
sg19
S'68309fe5'
p488
sg21
Vldr r3, [pc, #0x68]
p489
sg5
L179660L
sg6
Nsg23
S'LDR'
p490
sg25
S'0x2bdccL'
p491
sg27
Nsba(ibclass
BInstr
p492
(dp493
g2
Nsg17
S'LDR     R12, =0xBBB'
p494
sg19
S'68c09fe5'
p495
sg21
Vldr ip, [pc, #0x68]
p496
sg5
L179664L
sg6
Nsg23
S'LDR'
p497
sg25
S'0x2bdd0L'
p498
sg27
Nsba(ibclass
BInstr
p499
(dp500
g2
Nsg17
S'MOV     R2, #0x41'
p501
sg19
S'4120a0e3'
p502
sg21
Vmov r2, #0x41
p503
sg5
L179668L
sg6
Nsg23
S'MOV'
p504
sg25
S'0x2bdd4L'
p505
sg27
Nsba(ibclass
BInstr
p506
(dp507
g2
Nsg17
S'ADD     R3, R5, R3      ; "t1_lib.c"'
p508
sg19
S'033085e0'
p509
sg21
Vadd r3, r5, r3
p510
sg5
L179672L
sg6
Nsg23
S'ADD'
p511
sg25
S'0x2bdd8L'
p512
sg27
Nsba(ibclass
BInstr
p513
(dp514
g2
Nsg17
S'MOV     R0, #0x14'
p515
sg19
S'1400a0e3'
p516
sg21
Vmov r0, #0x14
p517
sg5
L179676L
sg6
Nsg23
S'MOV'
p518
sg25
S'0x2bddcL'
p519
sg27
Nsba(ibclass
BInstr
p520
(dp521
g2
Nsg17
S'LDR     R1, =0x14F'
p522
sg19
S'5c109fe5'
p523
sg21
Vldr r1, [pc, #0x5c]
p524
sg5
L179680L
sg6
Nsg23
S'LDR'
p525
sg25
S'0x2bde0L'
p526
sg27
Nsba(ibclass
BInstr
p527
(dp528
g2
Nsg17
S'STR     R12, [SP,#0x18+var_18]'
p529
sg19
S'00c08de5'
p530
sg21
Vstr ip, [sp]
p531
sg5
L179684L
sg6
Nsg23
S'STR'
p532
sg25
S'0x2bde4L'
p533
sg27
Nsba(ibclass
BInstr
p534
(dp535
g2
Nsg17
S'BL      ERR_put_error'
p536
sg19
S'6393ffeb'
p537
sg21
Vbl #0xfffe4d94
p538
sg5
L179688L
sg6
Nsg23
S'BL'
p539
sg25
S'0x2bde8L'
p540
sg27
Nsba(ibclass
BInstr
p541
(dp542
g2
Nsg17
S'MOV     R2, #0x50       ; desc'
p543
sg19
S'5020a0e3'
p544
sg21
Vmov r2, #0x50
p545
sg5
L179692L
sg6
Nsg23
S'MOV'
p546
sg25
S'0x2bdecL'
p547
sg27
Nsbasg84
(lp548
S'LDR R3, =(aT1_lib_c - 0x5B000)'
p549
aS'LDR R12, =0xBBB'
p550
aS'MOV R2, #0x41'
p551
aS'ADD R3, R5, R3'
p552
aS'MOV R0, #0x14'
p553
aS'LDR R1, =0x14F'
p554
aS'STR R12, mem'
p555
aS'BL ERR_put_error'
p556
aS'MOV R2, #0x50'
p557
asg95
Nsg5
S'0x2bdccL'
p558
sg97
(lp559
S'0x2bd9cL'
p560
asg6
Nsg99
(lp561
S'0x2bdf0L'
p562
asg103
Nsg104
Nsg105
S'5525b3b71750cf91b37cc5ed2742e39f'
p563
sg107
S'e50be6908cb2b328e1f75081051a783f'
p564
sg109
(lp565
g490
ag497
ag504
ag511
ag518
ag525
ag532
ag539
ag546
asg111
Nsba(ibclass
BBasicBlock
p566
(dp567
g12
Nsg13
(lp568
(ibclass
BInstr
p569
(dp570
g2
Nsg17
S'MOV     R0, s           ; s'
p571
sg19
S'0400a0e1'
p572
sg21
Vmov r0, r4
p573
sg5
L179696L
sg6
Nsg23
S'MOV'
p574
sg25
S'0x2bdf0L'
p575
sg27
Nsba(ibclass
BInstr
p576
(dp577
g2
Nsg17
S'MOV     R1, #2          ; level'
p578
sg19
S'0210a0e3'
p579
sg21
Vmov r1, #2
p580
sg5
L179700L
sg6
Nsg23
S'MOV'
p581
sg25
S'0x2bdf4L'
p582
sg27
Nsba(ibclass
BInstr
p583
(dp584
g2
Nsg17
S'BL      ssl3_send_alert'
p585
sg19
S'00d2ffeb'
p586
sg21
Vbl #0xffff4808
p587
sg5
L179704L
sg6
Nsg23
S'BL'
p588
sg25
S'0x2bdf8L'
p589
sg27
Nsba(ibclass
BInstr
p590
(dp591
g2
Nsg17
S'MOV     R0, #0'
p592
sg19
S'0000a0e3'
p593
sg21
Vmov r0, #0
p594
sg5
L179708L
sg6
Nsg23
S'MOV'
p595
sg25
S'0x2bdfcL'
p596
sg27
Nsba(ibclass
BInstr
p597
(dp598
g2
Nsg17
S'B       loc_2BDC0'
p599
sg19
S'eeffffea'
p600
sg21
Vb #0xffffffc0
p601
sg5
L179712L
sg6
Nsg23
g82
sg25
S'0x2be00L'
p602
sg27
Nsbasg84
(lp603
S'MOV R0, s'
p604
aS'MOV R1, #2'
p605
aS'BL ssl3_send_regert'
p606
aS'MOV R0, #0'
p607
aS'B func'
p608
asg95
Nsg5
S'0x2bdf0L'
p609
sg97
(lp610
S'0x2bdccL'
p611
aS'0x2be04L'
p612
asg6
Nsg99
(lp613
S'0x2bdc0L'
p614
asg103
Nsg104
Nsg105
S'9f56df9c336a8c856fb600f4341da9ca'
p615
sg107
S'0d6308189e1afd108dbdc30228781a79'
p616
sg109
(lp617
g574
ag581
ag588
ag595
ag82
asg111
Nsba(ibclass
BBasicBlock
p618
(dp619
g12
Nsg13
(lp620
(ibclass
BInstr
p621
(dp622
g2
Nsg17
S'LDR     R3, =(aT1_lib_c - 0x5B000)'
p623
sg19
S'30309fe5'
p624
sg21
Vldr r3, [pc, #0x30]
p625
sg5
L179716L
sg6
Nsg23
S'LDR'
p626
sg25
S'0x2be04L'
p627
sg27
Nsba(ibclass
BInstr
p628
(dp629
g2
Nsg17
S'LDR     R12, =0xBC2'
p630
sg19
S'38c09fe5'
p631
sg21
Vldr ip, [pc, #0x38]
p632
sg5
L179720L
sg6
Nsg23
S'LDR'
p633
sg25
S'0x2be08L'
p634
sg27
Nsba(ibclass
BInstr
p635
(dp636
g2
Nsg17
S'MOV     R2, #0x178'
p637
sg19
S'5e2fa0e3'
p638
sg21
Vmov r2, #0x178
p639
sg5
L179724L
sg6
Nsg23
S'MOV'
p640
sg25
S'0x2be0cL'
p641
sg27
Nsba(ibclass
BInstr
p642
(dp643
g2
Nsg17
S'ADD     R3, R5, R3      ; "t1_lib.c"'
p644
sg19
S'033085e0'
p645
sg21
Vadd r3, r5, r3
p646
sg5
L179728L
sg6
Nsg23
S'ADD'
p647
sg25
S'0x2be10L'
p648
sg27
Nsba(ibclass
BInstr
p649
(dp650
g2
Nsg17
S'MOV     R0, #0x14'
p651
sg19
S'1400a0e3'
p652
sg21
Vmov r0, #0x14
p653
sg5
L179732L
sg6
Nsg23
S'MOV'
p654
sg25
S'0x2be14L'
p655
sg27
Nsba(ibclass
BInstr
p656
(dp657
g2
Nsg17
S'LDR     R1, =0x14F'
p658
sg19
S'24109fe5'
p659
sg21
Vldr r1, [pc, #0x24]
p660
sg5
L179736L
sg6
Nsg23
S'LDR'
p661
sg25
S'0x2be18L'
p662
sg27
Nsba(ibclass
BInstr
p663
(dp664
g2
Nsg17
S'STR     R12, [SP,#0x18+var_18]'
p665
sg19
S'00c08de5'
p666
sg21
Vstr ip, [sp]
p667
sg5
L179740L
sg6
Nsg23
S'STR'
p668
sg25
S'0x2be1cL'
p669
sg27
Nsba(ibclass
BInstr
p670
(dp671
g2
Nsg17
S'BL      ERR_put_error'
p672
sg19
S'5593ffeb'
p673
sg21
Vbl #0xfffe4d5c
p674
sg5
L179744L
sg6
Nsg23
S'BL'
p675
sg25
S'0x2be20L'
p676
sg27
Nsba(ibclass
BInstr
p677
(dp678
g2
Nsg17
S'MOV     R2, #0x2F'
p679
sg19
S'2f20a0e3'
p680
sg21
Vmov r2, #0x2f
p681
sg5
L179748L
sg6
Nsg23
S'MOV'
p682
sg25
S'0x2be24L'
p683
sg27
Nsba(ibclass
BInstr
p684
(dp685
g2
Nsg17
S'B       err'
p686
sg19
S'f0ffffea'
p687
sg21
Vb #0xffffffc8
p688
sg5
L179752L
sg6
Nsg23
g82
sg25
S'0x2be28L'
p689
sg27
Nsbasg84
(lp690
S'LDR R3, =(aT1_lib_c - 0x5B000)'
p691
aS'LDR R12, =0xBC2'
p692
aS'MOV R2, #0x178'
p693
aS'ADD R3, R5, R3'
p694
aS'MOV R0, #0x14'
p695
aS'LDR R1, =0x14F'
p696
aS'STR R12, mem'
p697
aS'BL ERR_put_error'
p698
aS'MOV R2, #0x2F'
p699
aS'B err'
p700
asg95
Nsg5
S'0x2be04L'
p701
sg97
(lp702
S'0x2bdacL'
p703
asg6
Nsg99
(lp704
S'0x2bdf0L'
p705
asg103
Nsg104
Nsg105
S'11a79a9c867237e905a89111c737c309'
p706
sg107
S'03d3b4e5788c2cc12d5356b9838bf0ca'
p707
sg109
(lp708
g626
ag633
ag640
ag647
ag654
ag661
ag668
ag675
ag682
ag82
asg111
Nsba(ibclass
BBasicBlock
p709
(dp710
g12
Nsg13
(lp711
(ibclass
BInstr
p712
(dp713
g2
Nsg17
S'MOV     R0, R3          ; cert'
p714
sg19
S'0300a0e1'
p715
sg21
Vmov r0, r3
p716
sg5
L179756L
sg6
Nsg23
S'MOV'
p717
sg25
S'0x2be2cL'
p718
sg27
Nsba(ibclass
BInstr
p719
(dp720
g2
Nsg17
S'BL      ssl_cert_set_default_md'
p721
sg19
S'114100eb'
p722
sg21
Vbl #0x1044c
p723
sg5
L179760L
sg6
Nsg23
S'BL'
p724
sg25
S'0x2be30L'
p725
sg27
Nsba(ibclass
BInstr
p726
(dp727
g2
Nsg17
S'B       loc_2BDBC'
p728
sg19
S'e0ffffea'
p729
sg21
Vb #0xffffff88
p730
sg5
L179764L
sg6
Nsg23
g82
sg25
S'0x2be34L'
p731
sg27
Nsbasg84
(lp732
S'MOV R0, R3'
p733
aS'BL ssl_cert_set_default_md'
p734
aS'B func'
p735
asg95
Nsg5
S'0x2be2cL'
p736
sg97
(lp737
S'0x2bd4cL'
p738
asg6
Nsg99
(lp739
S'0x2bdbcL'
p740
asg103
Nsg104
Nsg105
S'f3f645dfcfe38b34211b70b425c07bfe'
p741
sg107
S'c7c3d721ae33ceddfff1854be3426c2e'
p742
sg109
(lp743
g717
ag724
ag82
asg111
Nsbasb.