(ibclass
BFunc
p0
(dp1
S'hash'
p2
NsS'name'
p3
S'PKCS7_dataInit'
p4
sS'start_address'
p5
L1204508L
sS'flag'
p6
NsS'program'
p7
NsS'bbs'
p8
(lp9
(ibclass
BBasicBlock
p10
(dp11
S'function'
p12
NsS'binstrs'
p13
(lp14
(ibclass
BInstr
p15
(dp16
g2
NsS'disasm'
p17
S'STMFD   SP!, {R4-R11,LR}'
p18
sS'bytes'
p19
S'f04f2de9'
p20
sS'disasm_striped'
p21
Vpush {r4, r5, r6, r7, r8, sb, sl, fp, lr}
p22
sg5
L1204508L
sg6
NsS'mnem'
p23
S'STM'
p24
sS'address'
p25
S'0x12611cL'
p26
sS'basicblock'
p27
Nsba(ibclass
BInstr
p28
(dp29
g2
Nsg17
S'LDR     R5, =($_GLOBAL_OFFSET_TABLE_ - 0x126138)'
p30
sg19
S'18579fe5'
p31
sg21
Vldr r5, [pc, #0x718]
p32
sg5
L1204512L
sg6
Nsg23
S'LDR'
p33
sg25
S'0x126120L'
p34
sg27
Nsba(ibclass
BInstr
p35
(dp36
g2
Nsg17
S'SUB     SP, SP, #0x8C'
p37
sg19
S'8cd04de2'
p38
sg21
Vsub sp, sp, #0x8c
p39
sg5
L1204516L
sg6
Nsg23
S'SUB'
p40
sg25
S'0x126124L'
p41
sg27
Nsba(ibclass
BInstr
p42
(dp43
g2
Nsg17
S'MOV     R8, #0'
p44
sg19
S'0080a0e3'
p45
sg21
Vmov r8, #0
p46
sg5
L1204520L
sg6
Nsg23
S'MOV'
p47
sg25
S'0x126128L'
p48
sg27
Nsba(ibclass
BInstr
p49
(dp50
g2
Nsg17
S'SUBS    R4, p7, #0'
p51
sg19
S'004050e2'
p52
sg21
Vsubs r4, r0, #0
p53
sg5
L1204524L
sg6
Nsg23
S'SUB'
p54
sg25
S'0x12612cL'
p55
sg27
Nsba(ibclass
BInstr
p56
(dp57
g2
Nsg17
S'ADD     R5, PC, R5 ; $_GLOBAL_OFFSET_TABLE_'
p58
sg19
S'05508fe0'
p59
sg21
Vadd r5, pc, r5
p60
sg5
L1204528L
sg6
Nsg23
S'ADD'
p61
sg25
S'0x126130L'
p62
sg27
Nsba(ibclass
BInstr
p63
(dp64
g2
Nsg17
S'MOV     R6, bio'
p65
sg19
S'0160a0e1'
p66
sg21
Vmov r6, r1
p67
sg5
L1204532L
sg6
Nsg23
S'MOV'
p68
sg25
S'0x126134L'
p69
sg27
Nsba(ibclass
BInstr
p70
(dp71
g2
Nsg17
S'STR     R8, [SP,#0xB0+pbio]'
p72
sg19
S'84808de5'
p73
sg21
Vstr r8, [sp, #0x84]
p74
sg5
L1204536L
sg6
Nsg23
S'STR'
p75
sg25
S'0x126138L'
p76
sg27
Nsba(ibclass
BInstr
p77
(dp78
g2
Nsg17
S'BEQ     loc_1266FC'
p79
sg19
S'6e01000a'
p80
sg21
Vbeq #0x5c0
p81
sg5
L1204540L
sg6
Nsg23
S'B'
p82
sg25
S'0x12613cL'
p83
sg27
NsbasS'disasm_list'
p84
(lp85
S'STMFD SP!, {R4-R11,LR}'
p86
aS'LDR R5, =($_GLOBAL_OFFSET_TABLE_ - address8)'
p87
aS'SUB SP, SP, #0x8C'
p88
aS'MOV R8, #0'
p89
aS'SUBS R4, p7, #0'
p90
aS'ADD R5, PC, R5'
p91
aS'MOV R6, bio'
p92
aS'STR R8, mem'
p93
aS'BEQ func'
p94
asS'end_address'
p95
Nsg5
S'0x12611cL'
p96
sS'preds'
p97
(lp98
sg6
NsS'succs'
p99
(lp100
S'0x126140L'
p101
aS'0x1266fcL'
p102
asS'hash_v3'
p103
NsS'flag_v2'
p104
NsS'hash_v1'
p105
S'96c133272de4543382a1fdfdc01c7a3a'
p106
sS'hash_v2'
p107
S'0325987e64de4b8b9c6438581d0c1ddb'
p108
sS'mnen_list'
p109
(lp110
g24
ag33
ag40
ag47
ag54
ag61
ag68
ag75
ag82
asS'neighbour_disasm_list'
p111
Nsba(ibclass
BBasicBlock
p112
(dp113
g12
Nsg13
(lp114
(ibclass
BInstr
p115
(dp116
g2
Nsg17
S'LDR     R7, [p7,#0x14]'
p117
sg19
S'147094e5'
p118
sg21
Vldr r7, [r4, #0x14]
p119
sg5
L1204544L
sg6
Nsg23
S'LDR'
p120
sg25
S'0x126140L'
p121
sg27
Nsba(ibclass
BInstr
p122
(dp123
g2
Nsg17
S'CMP     R7, #0'
p124
sg19
S'000057e3'
p125
sg21
Vcmp r7, #0
p126
sg5
L1204548L
sg6
Nsg23
S'CMP'
p127
sg25
S'0x126144L'
p128
sg27
Nsba(ibclass
BInstr
p129
(dp130
g2
Nsg17
S'BEQ     loc_12661C'
p131
sg19
S'3301000a'
p132
sg21
Vbeq #0x4d4
p133
sg5
L1204552L
sg6
Nsg23
g82
sg25
S'0x126148L'
p134
sg27
Nsbasg84
(lp135
S'LDR R7, mem'
p136
aS'CMP R7, #0'
p137
aS'BEQ func'
p138
asg95
Nsg5
S'0x126140L'
p139
sg97
(lp140
S'0x12611cL'
p141
asg6
Nsg99
(lp142
S'0x12614cL'
p143
aS'0x12661cL'
p144
asg103
Nsg104
Nsg105
S'fa4df767a85c49648339e2dc5c6807f6'
p145
sg107
S'2ed9ee88657f4599e85aa8950c7bd5f3'
p146
sg109
(lp147
g120
ag127
ag82
asg111
Nsba(ibclass
BBasicBlock
p148
(dp149
g12
Nsg13
(lp150
(ibclass
BInstr
p151
(dp152
g2
Nsg17
S'LDR     R0, [p7,#0x10]  ; a'
p153
sg19
S'100094e5'
p154
sg21
Vldr r0, [r4, #0x10]
p155
sg5
L1204556L
sg6
Nsg23
S'LDR'
p156
sg25
S'0x12614cL'
p157
sg27
Nsba(ibclass
BInstr
p158
(dp159
g2
Nsg17
S'BL      OBJ_obj2nid'
p160
sg19
S'ce90fceb'
p161
sg21
Vbl #0xfff24340
p162
sg5
L1204560L
sg6
Nsg23
S'BL'
p163
sg25
S'0x126150L'
p164
sg27
Nsba(ibclass
BInstr
p165
(dp166
g2
Nsg17
S'SUB     R0, R0, #0x15'
p167
sg19
S'150040e2'
p168
sg21
Vsub r0, r0, #0x15
p169
sg5
L1204564L
sg6
Nsg23
S'SUB'
p170
sg25
S'0x126154L'
p171
sg27
Nsba(ibclass
BInstr
p172
(dp173
g2
Nsg17
S'STR     R8, [p7,#8]'
p174
sg19
S'088084e5'
p175
sg21
Vstr r8, [r4, #8]
p176
sg5
L1204568L
sg6
Nsg23
S'STR'
p177
sg25
S'0x126158L'
p178
sg27
Nsba(ibclass
BInstr
p179
(dp180
g2
Nsg17
S'CMP     R0, #4          ; switch 5 cases '
p181
sg19
S'040050e3'
p182
sg21
Vcmp r0, #4
p183
sg5
L1204572L
sg6
Nsg23
S'CMP'
p184
sg25
S'0x12615cL'
p185
sg27
Nsba(ibclass
BInstr
p186
(dp187
g2
Nsg17
S'ADDLS   PC, PC, R0,LSL#2; switch jump'
p188
sg19
S'00f18f90'
p189
sg21
Vaddls pc, pc, r0, lsl #2
p190
sg5
L1204576L
sg6
Nsg23
S'ADD'
p191
sg25
S'0x126160L'
p192
sg27
Nsbasg84
(lp193
S'LDR R0, mem'
p194
aS'BL OBJ_obj2nid'
p195
aS'SUB R0, R0, #0x15'
p196
aS'STR R8, mem'
p197
aS'CMP R0, #4'
p198
aS'ADDLS PC, PC, R0,LSL#2'
p199
asg95
Nsg5
S'0x12614cL'
p200
sg97
(lp201
S'0x126140L'
p202
asg6
Nsg99
(lp203
S'0x126164L'
p204
aS'0x126168L'
p205
aS'0x12616cL'
p206
aS'0x126170L'
p207
aS'0x126174L'
p208
aS'0x126178L'
p209
aS'0x12617cL'
p210
aS'0x126444L'
p211
aS'0x126460L'
p212
aS'0x12649cL'
p213
aS'0x1264f0L'
p214
aS'0x12654cL'
p215
asg103
Nsg104
Nsg105
S'fae930948cc2312a0c548fb82a77b546'
p216
sg107
S'48564cad4b5fa0d5ea7161ab5fd8341c'
p217
sg109
(lp218
g156
ag163
ag170
ag177
ag184
ag191
asg111
Nsba(ibclass
BBasicBlock
p219
(dp220
g12
Nsg13
(lp221
(ibclass
BInstr
p222
(dp223
g2
Nsg17
S'B       loc_12654C      ; jumptable 00126160 default case'
p224
sg19
S'f80000ea'
p225
sg21
Vb #0x3e8
p226
sg5
L1204580L
sg6
Nsg23
g82
sg25
S'0x126164L'
p227
sg27
Nsbasg84
(lp228
S'B func'
p229
asg95
Nsg5
S'0x126164L'
p230
sg97
(lp231
S'0x12614cL'
p232
asg6
Nsg99
(lp233
S'0x12654cL'
p234
asg103
Nsg104
Nsg105
S'9d5ed678fe57bcca610140957afab571'
p235
sg107
S'071b057c420e304c628380fd3541c021'
p236
sg109
(lp237
g82
asg111
Nsba(ibclass
BBasicBlock
p238
(dp239
g12
Nsg13
(lp240
(ibclass
BInstr
p241
(dp242
g2
Nsg17
S'B       loc_126444      ; jumptable 00126160 case 0'
p243
sg19
S'b50000ea'
p244
sg21
Vb #0x2dc
p245
sg5
L1204584L
sg6
Nsg23
g82
sg25
S'0x126168L'
p246
sg27
Nsbasg84
(lp247
S'B func'
p248
asg95
Nsg5
S'0x126168L'
p249
sg97
(lp250
S'0x12614cL'
p251
asg6
Nsg99
(lp252
S'0x126444L'
p253
asg103
Nsg104
Nsg105
S'9d5ed678fe57bcca610140957afab571'
p254
sg107
S'071b057c420e304c628380fd3541c021'
p255
sg109
(lp256
g82
asg111
Nsba(ibclass
BBasicBlock
p257
(dp258
g12
Nsg13
(lp259
(ibclass
BInstr
p260
(dp261
g2
Nsg17
S'B       loc_126460      ; jumptable 00126160 case 1'
p262
sg19
S'bb0000ea'
p263
sg21
Vb #0x2f4
p264
sg5
L1204588L
sg6
Nsg23
g82
sg25
S'0x12616cL'
p265
sg27
Nsbasg84
(lp266
S'B func'
p267
asg95
Nsg5
S'0x12616cL'
p268
sg97
(lp269
S'0x12614cL'
p270
asg6
Nsg99
(lp271
S'0x126460L'
p272
asg103
Nsg104
Nsg105
S'9d5ed678fe57bcca610140957afab571'
p273
sg107
S'071b057c420e304c628380fd3541c021'
p274
sg109
(lp275
g82
asg111
Nsba(ibclass
BBasicBlock
p276
(dp277
g12
Nsg13
(lp278
(ibclass
BInstr
p279
(dp280
g2
Nsg17
S'B       loc_12649C      ; jumptable 00126160 case 2'
p281
sg19
S'c90000ea'
p282
sg21
Vb #0x32c
p283
sg5
L1204592L
sg6
Nsg23
g82
sg25
S'0x126170L'
p284
sg27
Nsbasg84
(lp285
S'B func'
p286
asg95
Nsg5
S'0x126170L'
p287
sg97
(lp288
S'0x12614cL'
p289
asg6
Nsg99
(lp290
S'0x12649cL'
p291
asg103
Nsg104
Nsg105
S'9d5ed678fe57bcca610140957afab571'
p292
sg107
S'071b057c420e304c628380fd3541c021'
p293
sg109
(lp294
g82
asg111
Nsba(ibclass
BBasicBlock
p295
(dp296
g12
Nsg13
(lp297
(ibclass
BInstr
p298
(dp299
g2
Nsg17
S'B       loc_1264F0      ; jumptable 00126160 case 3'
p300
sg19
S'dd0000ea'
p301
sg21
Vb #0x37c
p302
sg5
L1204596L
sg6
Nsg23
g82
sg25
S'0x126174L'
p303
sg27
Nsbasg84
(lp304
S'B func'
p305
asg95
Nsg5
S'0x126174L'
p306
sg97
(lp307
S'0x12614cL'
p308
asg6
Nsg99
(lp309
S'0x1264f0L'
p310
asg103
Nsg104
Nsg105
S'9d5ed678fe57bcca610140957afab571'
p311
sg107
S'071b057c420e304c628380fd3541c021'
p312
sg109
(lp313
g82
asg111
Nsba(ibclass
BBasicBlock
p314
(dp315
g12
Nsg13
(lp316
(ibclass
BInstr
p317
(dp318
g2
Nsg17
S'B       loc_12617C      ; jumptable 00126160 case 4'
p319
sg19
S'ffffffea'
p320
sg21
Vb #4
p321
sg5
L1204600L
sg6
Nsg23
g82
sg25
S'0x126178L'
p322
sg27
Nsbasg84
(lp323
S'B func'
p324
asg95
Nsg5
S'0x126178L'
p325
sg97
(lp326
S'0x12614cL'
p327
asg6
Nsg99
(lp328
S'0x12617cL'
p329
asg103
Nsg104
Nsg105
S'9d5ed678fe57bcca610140957afab571'
p330
sg107
S'071b057c420e304c628380fd3541c021'
p331
sg109
(lp332
g82
asg111
Nsba(ibclass
BBasicBlock
p333
(dp334
g12
Nsg13
(lp335
(ibclass
BInstr
p336
(dp337
g2
Nsg17
S'LDR     R3, [p7,#0x14]  ; jumptable 00126160 case 4'
p338
sg19
S'143094e5'
p339
sg21
Vldr r3, [r4, #0x14]
p340
sg5
L1204604L
sg6
Nsg23
S'LDR'
p341
sg25
S'0x12617cL'
p342
sg27
Nsba(ibclass
BInstr
p343
(dp344
g2
Nsg17
S'LDR     R7, [R3,#8]'
p345
sg19
S'087093e5'
p346
sg21
Vldr r7, [r3, #8]
p347
sg5
L1204608L
sg6
Nsg23
S'LDR'
p348
sg25
S'0x126180L'
p349
sg27
Nsba(ibclass
BInstr
p350
(dp351
g2
Nsg17
S'LDR     R11, [R3,#4]'
p352
sg19
S'04b093e5'
p353
sg21
Vldr fp, [r3, #4]
p354
sg5
L1204612L
sg6
Nsg23
S'LDR'
p355
sg25
S'0x126184L'
p356
sg27
Nsba(ibclass
BInstr
p357
(dp358
g2
Nsg17
S'LDR     R0, [R7,#0x10]  ; a'
p359
sg19
S'100097e5'
p360
sg21
Vldr r0, [r7, #0x10]
p361
sg5
L1204616L
sg6
Nsg23
S'LDR'
p362
sg25
S'0x126188L'
p363
sg27
Nsba(ibclass
BInstr
p364
(dp365
g2
Nsg17
S'BL      OBJ_obj2nid'
p366
sg19
S'bf90fceb'
p367
sg21
Vbl #0xfff24304
p368
sg5
L1204620L
sg6
Nsg23
S'BL'
p369
sg25
S'0x12618cL'
p370
sg27
Nsba(ibclass
BInstr
p371
(dp372
g2
Nsg17
S'CMP     R0, #0x15'
p373
sg19
S'150050e3'
p374
sg21
Vcmp r0, #0x15
p375
sg5
L1204624L
sg6
Nsg23
S'CMP'
p376
sg25
S'0x126190L'
p377
sg27
Nsba(ibclass
BInstr
p378
(dp379
g2
Nsg17
S'BNE     loc_126694'
p380
sg19
S'3e01001a'
p381
sg21
Vbne #0x500
p382
sg5
L1204628L
sg6
Nsg23
g82
sg25
S'0x126194L'
p383
sg27
Nsbasg84
(lp384
S'LDR R3, mem'
p385
aS'LDR R7, mem'
p386
aS'LDR R11, mem'
p387
aS'LDR R0, mem'
p388
aS'BL OBJ_obj2nid'
p389
aS'CMP R0, #0x15'
p390
aS'BNE func'
p391
asg95
Nsg5
S'0x12617cL'
p392
sg97
(lp393
S'0x12614cL'
p394
aS'0x126178L'
p395
asg6
Nsg99
(lp396
S'0x126198L'
p397
aS'0x126694L'
p398
asg103
Nsg104
Nsg105
S'd2bb55dae52963d9ba6ebb165d5b1611'
p399
sg107
S'c55836a070241b07aed106ff818420f5'
p400
sg109
(lp401
g341
ag348
ag355
ag362
ag369
ag376
ag82
asg111
Nsba(ibclass
BBasicBlock
p402
(dp403
g12
Nsg13
(lp404
(ibclass
BInstr
p405
(dp406
g2
Nsg17
S'LDR     R7, [R7,#0x14]'
p407
sg19
S'147097e5'
p408
sg21
Vldr r7, [r7, #0x14]
p409
sg5
L1204632L
sg6
Nsg23
S'LDR'
p410
sg25
S'0x126198L'
p411
sg27
Nsba(ibclass
BInstr
p412
(dp413
g2
Nsg17
S'STR     R7, [SP,#0xB0+var_A0]'
p414
sg19
S'10708de5'
p415
sg21
Vstr r7, [sp, #0x10]
p416
sg5
L1204636L
sg6
Nsg23
S'STR'
p417
sg25
S'0x12619cL'
p418
sg27
Nsbasg84
(lp419
S'LDR R7, mem'
p420
aS'STR R7, mem'
p421
asg95
Nsg5
S'0x126198L'
p422
sg97
(lp423
S'0x12617cL'
p424
asg6
Nsg99
(lp425
S'0x1261a0L'
p426
asg103
Nsg104
Nsg105
S'f2c00f06cb6622818f2abed867fd0979'
p427
sg107
S'31c96277b083e5cedcbb0e52723b18a1'
p428
sg109
(lp429
g410
ag417
asg111
Nsba(ibclass
BBasicBlock
p430
(dp431
g12
Nsg13
(lp432
(ibclass
BInstr
p433
(dp434
g2
Nsg17
S'MOV     R10, #0'
p435
sg19
S'00a0a0e3'
p436
sg21
Vmov sl, #0
p437
sg5
L1204640L
sg6
Nsg23
S'MOV'
p438
sg25
S'0x1261a0L'
p439
sg27
Nsba(ibclass
BInstr
p440
(dp441
g2
Nsg17
S'STR     R10, [SP,#0xB0+outlen]'
p442
sg19
S'0ca08de5'
p443
sg21
Vstr sl, [sp, #0xc]
p444
sg5
L1204644L
sg6
Nsg23
S'STR'
p445
sg25
S'0x1261a4L'
p446
sg27
Nsba(ibclass
BInstr
p447
(dp448
g2
Nsg17
S'STR     R10, [SP,#0xB0+st]'
p449
sg19
S'14a08de5'
p450
sg21
Vstr sl, [sp, #0x14]
p451
sg5
L1204648L
sg6
Nsg23
S'STR'
p452
sg25
S'0x1261a8L'
p453
sg27
Nsba(ibclass
BInstr
p454
(dp455
g2
Nsg17
S'MOV     R8, R10'
p456
sg19
S'0a80a0e1'
p457
sg21
Vmov r8, sl
p458
sg5
L1204652L
sg6
Nsg23
S'MOV'
p459
sg25
S'0x1261acL'
p460
sg27
Nsbasg84
(lp461
S'MOV R10, #0'
p462
aS'STR R10, mem'
p463
aS'STR R10, mem'
p464
aS'MOV R8, R10'
p465
asg95
Nsg5
S'0x1261a0L'
p466
sg97
(lp467
S'0x126198L'
p468
aS'0x1266b4L'
p469
aS'0x1267f8L'
p470
asg6
Nsg99
(lp471
S'0x1261b0L'
p472
asg103
Nsg104
Nsg105
S'72e543039b9bedbf3d506c1e42ea844a'
p473
sg107
S'75a9a8db5341840a0363bef952d37fc6'
p474
sg109
(lp475
g438
ag445
ag452
ag459
asg111
Nsba(ibclass
BBasicBlock
p476
(dp477
g12
Nsg13
(lp478
(ibclass
BInstr
p479
(dp480
g2
Nsg17
S'MOV     R7, #0'
p481
sg19
S'0070a0e3'
p482
sg21
Vmov r7, #0
p483
sg5
L1204656L
sg6
Nsg23
S'MOV'
p484
sg25
S'0x1261b0L'
p485
sg27
Nsba(ibclass
BInstr
p486
(dp487
g2
Nsg17
S'ADD     R9, SP, #0xB0+pbio'
p488
sg19
S'84908de2'
p489
sg21
Vadd sb, sp, #0x84
p490
sg5
L1204660L
sg6
Nsg23
S'ADD'
p491
sg25
S'0x1261b4L'
p492
sg27
Nsba(ibclass
BInstr
p493
(dp494
g2
Nsg17
S'B       loc_1261D8'
p495
sg19
S'060000ea'
p496
sg21
Vb #0x20
p497
sg5
L1204664L
sg6
Nsg23
g82
sg25
S'0x1261b8L'
p498
sg27
Nsbasg84
(lp499
S'MOV R7, #0'
p500
aS'ADD R9, SP, #0xB0+pbio'
p501
aS'B func'
p502
asg95
Nsg5
S'0x1261b0L'
p503
sg97
(lp504
S'0x1261a0L'
p505
aS'0x126444L'
p506
aS'0x126484L'
p507
aS'0x12649cL'
p508
aS'0x1264f0L'
p509
asg6
Nsg99
(lp510
S'0x1261d8L'
p511
asg103
Nsg104
Nsg105
S'c38040646bd9e3ea11ba7f53f10d9b0a'
p512
sg107
S'14b62fe342cc06f2a2d29cf7be4b7d2f'
p513
sg109
(lp514
g484
ag491
ag82
asg111
Nsba(ibclass
BBasicBlock
p515
(dp516
g12
Nsg13
(lp517
(ibclass
BInstr
p518
(dp519
g2
Nsg17
S'BL      sk_value'
p520
sg19
S'a89afeeb'
p521
sg21
Vbl #0xfffa6aa8
p522
sg5
L1204668L
sg6
Nsg23
S'BL'
p523
sg25
S'0x1261bcL'
p524
sg27
Nsba(ibclass
BInstr
p525
(dp526
g2
Nsg17
S'MOV     R1, R0          ; alg'
p527
sg19
S'0010a0e1'
p528
sg21
Vmov r1, r0
p529
sg5
L1204672L
sg6
Nsg23
S'MOV'
p530
sg25
S'0x1261c0L'
p531
sg27
Nsba(ibclass
BInstr
p532
(dp533
g2
Nsg17
S'MOV     R0, R9          ; pbio'
p534
sg19
S'0900a0e1'
p535
sg21
Vmov r0, sb
p536
sg5
L1204676L
sg6
Nsg23
S'MOV'
p537
sg25
S'0x1261c4L'
p538
sg27
Nsba(ibclass
BInstr
p539
(dp540
g2
Nsg17
S'BL      PKCS7_bio_add_digest'
p541
sg19
S'9afdffeb'
p542
sg21
Vbl #0xfffff670
p543
sg5
L1204680L
sg6
Nsg23
S'BL'
p544
sg25
S'0x1261c8L'
p545
sg27
Nsba(ibclass
BInstr
p546
(dp547
g2
Nsg17
S'CMP     R0, #0'
p548
sg19
S'000050e3'
p549
sg21
Vcmp r0, #0
p550
sg5
L1204684L
sg6
Nsg23
S'CMP'
p551
sg25
S'0x1261ccL'
p552
sg27
Nsba(ibclass
BInstr
p553
(dp554
g2
Nsg17
S'BEQ     err'
p555
sg19
S'f300000a'
p556
sg21
Vbeq #0x3d4
p557
sg5
L1204688L
sg6
Nsg23
g82
sg25
S'0x1261d0L'
p558
sg27
Nsbasg84
(lp559
S'BL sk_vregue'
p560
aS'MOV R1, R0'
p561
aS'MOV R0, R9'
p562
aS'BL PKCS7_bio_add_reggest'
p563
aS'CMP R0, #0'
p564
aS'BEQ err'
p565
asg95
Nsg5
S'0x1261bcL'
p566
sg97
(lp567
S'0x1261d8L'
p568
asg6
Nsg99
(lp569
S'0x1261d4L'
p570
aS'0x1265a4L'
p571
asg103
Nsg104
Nsg105
S'69d2a44a57df8c3ccdba0c61c4bdc987'
p572
sg107
S'1f99918430de3cb10ba1dc17544d6937'
p573
sg109
(lp574
g523
ag530
ag537
ag544
ag551
ag82
asg111
Nsba(ibclass
BBasicBlock
p575
(dp576
g12
Nsg13
(lp577
(ibclass
BInstr
p578
(dp579
g2
Nsg17
S'ADD     i, i, #1'
p580
sg19
S'017087e2'
p581
sg21
Vadd r7, r7, #1
p582
sg5
L1204692L
sg6
Nsg23
S'ADD'
p583
sg25
S'0x1261d4L'
p584
sg27
Nsbasg84
(lp585
S'ADD i, i, #1'
p586
asg95
Nsg5
S'0x1261d4L'
p587
sg97
(lp588
S'0x1261bcL'
p589
asg6
Nsg99
(lp590
S'0x1261d8L'
p591
asg103
Nsg104
Nsg105
S'9eeb52badb613229884838847294b90d'
p592
sg107
S'65c60829f24da594153308b8629b637d'
p593
sg109
(lp594
g583
asg111
Nsba(ibclass
BBasicBlock
p595
(dp596
g12
Nsg13
(lp597
(ibclass
BInstr
p598
(dp599
g2
Nsg17
S'MOV     R0, md_sk       ; st'
p600
sg19
S'0a00a0e1'
p601
sg21
Vmov r0, sl
p602
sg5
L1204696L
sg6
Nsg23
S'MOV'
p603
sg25
S'0x1261d8L'
p604
sg27
Nsba(ibclass
BInstr
p605
(dp606
g2
Nsg17
S'BL      sk_num'
p607
sg19
S'9c9afeeb'
p608
sg21
Vbl #0xfffa6a78
p609
sg5
L1204700L
sg6
Nsg23
S'BL'
p610
sg25
S'0x1261dcL'
p611
sg27
Nsba(ibclass
BInstr
p612
(dp613
g2
Nsg17
S'CMP     i, R0'
p614
sg19
S'000057e1'
p615
sg21
Vcmp r7, r0
p616
sg5
L1204704L
sg6
Nsg23
S'CMP'
p617
sg25
S'0x1261e0L'
p618
sg27
Nsba(ibclass
BInstr
p619
(dp620
g2
Nsg17
S'MOV     R1, i           ; i'
p621
sg19
S'0710a0e1'
p622
sg21
Vmov r1, r7
p623
sg5
L1204708L
sg6
Nsg23
S'MOV'
p624
sg25
S'0x1261e4L'
p625
sg27
Nsba(ibclass
BInstr
p626
(dp627
g2
Nsg17
S'MOV     R0, R10         ; st'
p628
sg19
S'0a00a0e1'
p629
sg21
Vmov r0, sl
p630
sg5
L1204712L
sg6
Nsg23
S'MOV'
p631
sg25
S'0x1261e8L'
p632
sg27
Nsba(ibclass
BInstr
p633
(dp634
g2
Nsg17
S'BLT     loc_1261BC'
p635
sg19
S'f2ffffba'
p636
sg21
Vblt #0xffffffd0
p637
sg5
L1204716L
sg6
Nsg23
g82
sg25
S'0x1261ecL'
p638
sg27
Nsbasg84
(lp639
S'MOV R0, md_sk'
p640
aS'BL sk_num'
p641
aS'CMP i, R0'
p642
aS'MOV R1, i'
p643
aS'MOV R0, R10'
p644
aS'BLT func'
p645
asg95
Nsg5
S'0x1261d8L'
p646
sg97
(lp647
S'0x1261b0L'
p648
aS'0x1261d4L'
p649
asg6
Nsg99
(lp650
S'0x1261bcL'
p651
aS'0x1261f0L'
p652
asg103
Nsg104
Nsg105
S'77bdd897e6df48f7a62bf44d331af04f'
p653
sg107
S'b830fb9634f7376b327279af8b5679ca'
p654
sg109
(lp655
g603
ag610
ag617
ag624
ag631
ag82
asg111
Nsba(ibclass
BBasicBlock
p656
(dp657
g12
Nsg13
(lp658
(ibclass
BInstr
p659
(dp660
g2
Nsg17
S'CMP     xa, #0'
p661
sg19
S'00005be3'
p662
sg21
Vcmp fp, #0
p663
sg5
L1204720L
sg6
Nsg23
S'CMP'
p664
sg25
S'0x1261f0L'
p665
sg27
Nsba(ibclass
BInstr
p666
(dp667
g2
Nsg17
S'BEQ     loc_12620C'
p668
sg19
S'0400000a'
p669
sg21
Vbeq #0x18
p670
sg5
L1204724L
sg6
Nsg23
g82
sg25
S'0x1261f4L'
p671
sg27
Nsbasg84
(lp672
S'CMP xa, #0'
p673
aS'BEQ func'
p674
asg95
Nsg5
S'0x1261f0L'
p675
sg97
(lp676
S'0x1261d8L'
p677
asg6
Nsg99
(lp678
S'0x1261f8L'
p679
aS'0x12620cL'
p680
asg103
Nsg104
Nsg105
S'c78fd620a449e3c979d3f3ec12d4ee88'
p681
sg107
S'd45c1999b3a6f6f1c533c429ad6e46ba'
p682
sg109
(lp683
g664
ag82
asg111
Nsba(ibclass
BBasicBlock
p684
(dp685
g12
Nsg13
(lp686
(ibclass
BInstr
p687
(dp688
g2
Nsg17
S'MOV     R1, xa          ; alg'
p689
sg19
S'0b10a0e1'
p690
sg21
Vmov r1, fp
p691
sg5
L1204728L
sg6
Nsg23
S'MOV'
p692
sg25
S'0x1261f8L'
p693
sg27
Nsba(ibclass
BInstr
p694
(dp695
g2
Nsg17
S'ADD     R0, SP, #0xB0+pbio; pbio'
p696
sg19
S'84008de2'
p697
sg21
Vadd r0, sp, #0x84
p698
sg5
L1204732L
sg6
Nsg23
S'ADD'
p699
sg25
S'0x1261fcL'
p700
sg27
Nsba(ibclass
BInstr
p701
(dp702
g2
Nsg17
S'BL      PKCS7_bio_add_digest'
p703
sg19
S'8cfdffeb'
p704
sg21
Vbl #0xfffff638
p705
sg5
L1204736L
sg6
Nsg23
S'BL'
p706
sg25
S'0x126200L'
p707
sg27
Nsba(ibclass
BInstr
p708
(dp709
g2
Nsg17
S'CMP     R0, #0'
p710
sg19
S'000050e3'
p711
sg21
Vcmp r0, #0
p712
sg5
L1204740L
sg6
Nsg23
S'CMP'
p713
sg25
S'0x126204L'
p714
sg27
Nsba(ibclass
BInstr
p715
(dp716
g2
Nsg17
S'BEQ     err'
p717
sg19
S'e500000a'
p718
sg21
Vbeq #0x39c
p719
sg5
L1204744L
sg6
Nsg23
g82
sg25
S'0x126208L'
p720
sg27
Nsbasg84
(lp721
S'MOV R1, xa'
p722
aS'ADD R0, SP, #0xB0+pbio'
p723
aS'BL PKCS7_bio_add_reggest'
p724
aS'CMP R0, #0'
p725
aS'BEQ err'
p726
asg95
Nsg5
S'0x1261f8L'
p727
sg97
(lp728
S'0x1261f0L'
p729
asg6
Nsg99
(lp730
S'0x12620cL'
p731
aS'0x1265a4L'
p732
asg103
Nsg104
Nsg105
S'77bdb303d3b5fb7c2a7cd02551e339ec'
p733
sg107
S'd29cefa39c3d17c3e02aef4ce0eed021'
p734
sg109
(lp735
g692
ag699
ag706
ag713
ag82
asg111
Nsba(ibclass
BBasicBlock
p736
(dp737
g12
Nsg13
(lp738
(ibclass
BInstr
p739
(dp740
g2
Nsg17
S'CMP     evp_cipher, #0'
p741
sg19
S'000058e3'
p742
sg21
Vcmp r8, #0
p743
sg5
L1204748L
sg6
Nsg23
S'CMP'
p744
sg25
S'0x12620cL'
p745
sg27
Nsba(ibclass
BInstr
p746
(dp747
g2
Nsg17
S'BEQ     loc_1265D4'
p748
sg19
S'ef00000a'
p749
sg21
Vbeq #0x3c4
p750
sg5
L1204752L
sg6
Nsg23
g82
sg25
S'0x126210L'
p751
sg27
Nsbasg84
(lp752
S'CMP evp_cipher, #0'
p753
aS'BEQ func'
p754
asg95
Nsg5
S'0x12620cL'
p755
sg97
(lp756
S'0x1261f0L'
p757
aS'0x1261f8L'
p758
asg6
Nsg99
(lp759
S'0x126214L'
p760
aS'0x1265d4L'
p761
asg103
Nsg104
Nsg105
S'c78fd620a449e3c979d3f3ec12d4ee88'
p762
sg107
S'ff6c8d48d0411a77dfc0a1e32cd4986f'
p763
sg109
(lp764
g744
ag82
asg111
Nsba(ibclass
BBasicBlock
p765
(dp766
g12
Nsg13
(lp767
(ibclass
BInstr
p768
(dp769
g2
Nsg17
S'BL      BIO_f_cipher'
p770
sg19
S'03d7feeb'
p771
sg21
Vbl #0xfffb5c14
p772
sg5
L1204756L
sg6
Nsg23
S'BL'
p773
sg25
S'0x126214L'
p774
sg27
Nsba(ibclass
BInstr
p775
(dp776
g2
Nsg17
S'BL      BIO_new'
p777
sg19
S'6b75feeb'
p778
sg21
Vbl #0xfff9d5b4
p779
sg5
L1204760L
sg6
Nsg23
S'BL'
p780
sg25
S'0x126218L'
p781
sg27
Nsba(ibclass
BInstr
p782
(dp783
g2
Nsg17
S'SUBS    i, R0, #0'
p784
sg19
S'007050e2'
p785
sg21
Vsubs r7, r0, #0
p786
sg5
L1204764L
sg6
Nsg23
S'SUB'
p787
sg25
S'0x12621cL'
p788
sg27
Nsba(ibclass
BInstr
p789
(dp790
g2
Nsg17
S'BEQ     loc_1265F8'
p791
sg19
S'f400000a'
p792
sg21
Vbeq #0x3d8
p793
sg5
L1204768L
sg6
Nsg23
g82
sg25
S'0x126220L'
p794
sg27
Nsbasg84
(lp795
S'BL BIO_f_cipher'
p796
aS'BL BIO_new'
p797
aS'SUBS i, R0, #0'
p798
aS'BEQ func'
p799
asg95
Nsg5
S'0x126214L'
p800
sg97
(lp801
S'0x12620cL'
p802
asg6
Nsg99
(lp803
S'0x126224L'
p804
aS'0x1265f8L'
p805
asg103
Nsg104
Nsg105
S'd9f5b60a4b04eb8c2ea7aecd1328250c'
p806
sg107
S'1d8219c0f15149671584b63fbe25c992'
p807
sg109
(lp808
g773
ag780
ag787
ag82
asg111
Nsba(ibclass
BBasicBlock
p809
(dp810
g12
Nsg13
(lp811
(ibclass
BInstr
p812
(dp813
g2
Nsg17
S'MOV     R1, #0x81       ; cmd'
p814
sg19
S'8110a0e3'
p815
sg21
Vmov r1, #0x81
p816
sg5
L1204772L
sg6
Nsg23
S'MOV'
p817
sg25
S'0x126224L'
p818
sg27
Nsba(ibclass
BInstr
p819
(dp820
g2
Nsg17
S'MOV     R2, #0          ; larg'
p821
sg19
S'0020a0e3'
p822
sg21
Vmov r2, #0
p823
sg5
L1204776L
sg6
Nsg23
S'MOV'
p824
sg25
S'0x126228L'
p825
sg27
Nsba(ibclass
BInstr
p826
(dp827
g2
Nsg17
S'ADD     R3, SP, #0xB0+parg; parg'
p828
sg19
S'80308de2'
p829
sg21
Vadd r3, sp, #0x80
p830
sg5
L1204780L
sg6
Nsg23
S'ADD'
p831
sg25
S'0x12622cL'
p832
sg27
Nsba(ibclass
BInstr
p833
(dp834
g2
Nsg17
S'BL      BIO_ctrl'
p835
sg19
S'2873feeb'
p836
sg21
Vbl #0xfff9cca8
p837
sg5
L1204784L
sg6
Nsg23
S'BL'
p838
sg25
S'0x126230L'
p839
sg27
Nsba(ibclass
BInstr
p840
(dp841
g2
Nsg17
S'MOV     R0, evp_cipher  ; cipher'
p842
sg19
S'0800a0e1'
p843
sg21
Vmov r0, r8
p844
sg5
L1204788L
sg6
Nsg23
S'MOV'
p845
sg25
S'0x126234L'
p846
sg27
Nsba(ibclass
BInstr
p847
(dp848
g2
Nsg17
S'BL      EVP_CIPHER_key_length'
p849
sg19
S'2edbfeeb'
p850
sg21
Vbl #0xfffb6cc0
p851
sg5
L1204792L
sg6
Nsg23
S'BL'
p852
sg25
S'0x126238L'
p853
sg27
Nsba(ibclass
BInstr
p854
(dp855
g2
Nsg17
S'STR     R0, [SP,#0xB0+inlen]'
p856
sg19
S'18008de5'
p857
sg21
Vstr r0, [sp, #0x18]
p858
sg5
L1204796L
sg6
Nsg23
S'STR'
p859
sg25
S'0x12623cL'
p860
sg27
Nsba(ibclass
BInstr
p861
(dp862
g2
Nsg17
S'MOV     R0, evp_cipher  ; cipher'
p863
sg19
S'0800a0e1'
p864
sg21
Vmov r0, r8
p865
sg5
L1204800L
sg6
Nsg23
S'MOV'
p866
sg25
S'0x126240L'
p867
sg27
Nsba(ibclass
BInstr
p868
(dp869
g2
Nsg17
S'BL      EVP_CIPHER_iv_length'
p870
sg19
S'26dbfeeb'
p871
sg21
Vbl #0xfffb6ca0
p872
sg5
L1204804L
sg6
Nsg23
S'BL'
p873
sg25
S'0x126244L'
p874
sg27
Nsba(ibclass
BInstr
p875
(dp876
g2
Nsg17
S'MOV     R9, R0'
p877
sg19
S'0090a0e1'
p878
sg21
Vmov sb, r0
p879
sg5
L1204808L
sg6
Nsg23
S'MOV'
p880
sg25
S'0x126248L'
p881
sg27
Nsba(ibclass
BInstr
p882
(dp883
g2
Nsg17
S'MOV     R0, evp_cipher  ; ctx'
p884
sg19
S'0800a0e1'
p885
sg21
Vmov r0, r8
p886
sg5
L1204812L
sg6
Nsg23
S'MOV'
p887
sg25
S'0x12624cL'
p888
sg27
Nsba(ibclass
BInstr
p889
(dp890
g2
Nsg17
S'BL      EVP_CIPHER_type'
p891
sg19
S'69dbfeeb'
p892
sg21
Vbl #0xfffb6dac
p893
sg5
L1204816L
sg6
Nsg23
S'BL'
p894
sg25
S'0x126250L'
p895
sg27
Nsba(ibclass
BInstr
p896
(dp897
g2
Nsg17
S'BL      OBJ_nid2obj'
p898
sg19
S'5091fceb'
p899
sg21
Vbl #0xfff24548
p900
sg5
L1204820L
sg6
Nsg23
S'BL'
p901
sg25
S'0x126254L'
p902
sg27
Nsba(ibclass
BInstr
p903
(dp904
g2
Nsg17
S'LDR     R12, [SP,#0xB0+outlen]'
p905
sg19
S'0cc09de5'
p906
sg21
Vldr ip, [sp, #0xc]
p907
sg5
L1204824L
sg6
Nsg23
S'LDR'
p908
sg25
S'0x126258L'
p909
sg27
Nsba(ibclass
BInstr
p910
(dp911
g2
Nsg17
S'CMP     ivlen, #0'
p912
sg19
S'000059e3'
p913
sg21
Vcmp sb, #0
p914
sg5
L1204828L
sg6
Nsg23
S'CMP'
p915
sg25
S'0x12625cL'
p916
sg27
Nsba(ibclass
BInstr
p917
(dp918
g2
Nsg17
S'STR     R0, [R12]'
p919
sg19
S'00008ce5'
p920
sg21
Vstr r0, [ip]
p921
sg5
L1204832L
sg6
Nsg23
S'STR'
p922
sg25
S'0x126260L'
p923
sg27
Nsba(ibclass
BInstr
p924
(dp925
g2
Nsg17
S'BLE     loc_12627C'
p926
sg19
S'040000da'
p927
sg21
Vble #0x18
p928
sg5
L1204836L
sg6
Nsg23
g82
sg25
S'0x126264L'
p929
sg27
Nsbasg84
(lp930
S'MOV R1, #0x81'
p931
aS'MOV R2, #0'
p932
aS'ADD R3, SP, #0xB0+parg'
p933
aS'BL BIO_ctrl'
p934
aS'MOV R0, evp_cipher'
p935
aS'BL EVP_CIPHER_key_length'
p936
aS'STR R0, mem'
p937
aS'MOV R0, evp_cipher'
p938
aS'BL EVP_CIPHER_iv_length'
p939
aS'MOV R9, R0'
p940
aS'MOV R0, evp_cipher'
p941
aS'BL EVP_CIPHER_type'
p942
aS'BL OBJ_nid2obj'
p943
aS'LDR R12, mem'
p944
aS'CMP ivlen, #0'
p945
aS'STR R0, mem'
p946
aS'BLE func'
p947
asg95
Nsg5
S'0x126224L'
p948
sg97
(lp949
S'0x126214L'
p950
asg6
Nsg99
(lp951
S'0x126268L'
p952
aS'0x12627cL'
p953
asg103
Nsg104
Nsg105
S'4fdfa4021883ae9172d7f30e94e1fdfe'
p954
sg107
S'67b5ca96839df80677e0c0aedbb1251b'
p955
sg109
(lp956
g817
ag824
ag831
ag838
ag845
ag852
ag859
ag866
ag873
ag880
ag887
ag894
ag901
ag908
ag915
ag922
ag82
asg111
Nsba(ibclass
BBasicBlock
p957
(dp958
g12
Nsg13
(lp959
(ibclass
BInstr
p960
(dp961
g2
Nsg17
S'ADD     R0, SP, #0xB0+ctx; buf'
p962
sg19
S'6c008de2'
p963
sg21
Vadd r0, sp, #0x6c
p964
sg5
L1204840L
sg6
Nsg23
S'ADD'
p965
sg25
S'0x126268L'
p966
sg27
Nsba(ibclass
BInstr
p967
(dp968
g2
Nsg17
S'MOV     R1, ivlen       ; num'
p969
sg19
S'0910a0e1'
p970
sg21
Vmov r1, sb
p971
sg5
L1204844L
sg6
Nsg23
S'MOV'
p972
sg25
S'0x12626cL'
p973
sg27
Nsba(ibclass
BInstr
p974
(dp975
g2
Nsg17
S'BL      RAND_pseudo_bytes'
p976
sg19
S'f8a3feeb'
p977
sg21
Vbl #0xfffa8fe8
p978
sg5
L1204848L
sg6
Nsg23
S'BL'
p979
sg25
S'0x126270L'
p980
sg27
Nsba(ibclass
BInstr
p981
(dp982
g2
Nsg17
S'CMP     R0, #0'
p983
sg19
S'000050e3'
p984
sg21
Vcmp r0, #0
p985
sg5
L1204852L
sg6
Nsg23
S'CMP'
p986
sg25
S'0x126274L'
p987
sg27
Nsba(ibclass
BInstr
p988
(dp989
g2
Nsg17
S'BLE     loc_126570'
p990
sg19
S'bc0000da'
p991
sg21
Vble #0x2f8
p992
sg5
L1204856L
sg6
Nsg23
g82
sg25
S'0x126278L'
p993
sg27
Nsbasg84
(lp994
S'ADD R0, SP, #0xB0+ctx'
p995
aS'MOV R1, ivlen'
p996
aS'BL RAND_pseudo_bytes'
p997
aS'CMP R0, #0'
p998
aS'BLE func'
p999
asg95
Nsg5
S'0x126268L'
p1000
sg97
(lp1001
S'0x126224L'
p1002
asg6
Nsg99
(lp1003
S'0x12627cL'
p1004
aS'0x126570L'
p1005
asg103
Nsg104
Nsg105
S'0c7e006c4d59d82ccfa4a4f10df418ed'
p1006
sg107
S'd4867bf5894b8346bbe7c144b56e3bc5'
p1007
sg109
(lp1008
g965
ag972
ag979
ag986
ag82
asg111
Nsba(ibclass
BBasicBlock
p1009
(dp1010
g12
Nsg13
(lp1011
(ibclass
BInstr
p1012
(dp1013
g2
Nsg17
S'MOV     R10, #0'
p1014
sg19
S'00a0a0e3'
p1015
sg21
Vmov sl, #0
p1016
sg5
L1204860L
sg6
Nsg23
S'MOV'
p1017
sg25
S'0x12627cL'
p1018
sg27
Nsba(ibclass
BInstr
p1019
(dp1020
g2
Nsg17
S'MOV     R1, evp_cipher  ; cipher'
p1021
sg19
S'0810a0e1'
p1022
sg21
Vmov r1, r8
p1023
sg5
L1204864L
sg6
Nsg23
S'MOV'
p1024
sg25
S'0x126280L'
p1025
sg27
Nsba(ibclass
BInstr
p1026
(dp1027
g2
Nsg17
S'LDR     R0, [SP,#0xB0+parg]; ctx'
p1028
sg19
S'80009de5'
p1029
sg21
Vldr r0, [sp, #0x80]
p1030
sg5
L1204868L
sg6
Nsg23
S'LDR'
p1031
sg25
S'0x126284L'
p1032
sg27
Nsba(ibclass
BInstr
p1033
(dp1034
g2
Nsg17
S'MOV     evp_cipher, #1'
p1035
sg19
S'0180a0e3'
p1036
sg21
Vmov r8, #1
p1037
sg5
L1204872L
sg6
Nsg23
S'MOV'
p1038
sg25
S'0x126288L'
p1039
sg27
Nsba(ibclass
BInstr
p1040
(dp1041
g2
Nsg17
S'MOV     R2, R10         ; impl'
p1042
sg19
S'0a20a0e1'
p1043
sg21
Vmov r2, sl
p1044
sg5
L1204876L
sg6
Nsg23
S'MOV'
p1045
sg25
S'0x12628cL'
p1046
sg27
Nsba(ibclass
BInstr
p1047
(dp1048
g2
Nsg17
S'MOV     R3, R10         ; key'
p1049
sg19
S'0a30a0e1'
p1050
sg21
Vmov r3, sl
p1051
sg5
L1204880L
sg6
Nsg23
S'MOV'
p1052
sg25
S'0x126290L'
p1053
sg27
Nsba(ibclass
BInstr
p1054
(dp1055
g2
Nsg17
S'STR     R10, [SP,#0xB0+iv]; iv'
p1056
sg19
S'00a08de5'
p1057
sg21
Vstr sl, [sp]
p1058
sg5
L1204884L
sg6
Nsg23
S'STR'
p1059
sg25
S'0x126294L'
p1060
sg27
Nsba(ibclass
BInstr
p1061
(dp1062
g2
Nsg17
S'STR     R8, [SP,#0xB0+enc]; enc'
p1063
sg19
S'04808de5'
p1064
sg21
Vstr r8, [sp, #4]
p1065
sg5
L1204888L
sg6
Nsg23
S'STR'
p1066
sg25
S'0x126298L'
p1067
sg27
Nsba(ibclass
BInstr
p1068
(dp1069
g2
Nsg17
S'BL      EVP_CipherInit_ex'
p1070
sg19
S'b9b7feeb'
p1071
sg21
Vbl #0xfffadeec
p1072
sg5
L1204892L
sg6
Nsg23
S'BL'
p1073
sg25
S'0x12629cL'
p1074
sg27
Nsba(ibclass
BInstr
p1075
(dp1076
g2
Nsg17
S'CMP     R0, R10'
p1077
sg19
S'0a0050e1'
p1078
sg21
Vcmp r0, sl
p1079
sg5
L1204896L
sg6
Nsg23
S'CMP'
p1080
sg25
S'0x1262a0L'
p1081
sg27
Nsba(ibclass
BInstr
p1082
(dp1083
g2
Nsg17
S'BLE     loc_126570'
p1084
sg19
S'b10000da'
p1085
sg21
Vble #0x2cc
p1086
sg5
L1204900L
sg6
Nsg23
g82
sg25
S'0x1262a4L'
p1087
sg27
Nsbasg84
(lp1088
S'MOV R10, #0'
p1089
aS'MOV R1, evp_cipher'
p1090
aS'LDR R0, mem'
p1091
aS'MOV evp_cipher, #1'
p1092
aS'MOV R2, R10'
p1093
aS'MOV R3, R10'
p1094
aS'STR R10, mem'
p1095
aS'STR R8, mem'
p1096
aS'BL EVP_CipherInit_ex'
p1097
aS'CMP R0, R10'
p1098
aS'BLE func'
p1099
asg95
Nsg5
S'0x12627cL'
p1100
sg97
(lp1101
S'0x126224L'
p1102
aS'0x126268L'
p1103
asg6
Nsg99
(lp1104
S'0x1262a8L'
p1105
aS'0x126570L'
p1106
asg103
Nsg104
Nsg105
S'7176a20b381bb646c8403a7d12fe4371'
p1107
sg107
S'9fe791a709afdad3027de0534f5212fa'
p1108
sg109
(lp1109
g1017
ag1024
ag1031
ag1038
ag1045
ag1052
ag1059
ag1066
ag1073
ag1080
ag82
asg111
Nsba(ibclass
BBasicBlock
p1110
(dp1111
g12
Nsg13
(lp1112
(ibclass
BInstr
p1113
(dp1114
g2
Nsg17
S'ADD     xa, SP, #0xB0+key'
p1115
sg19
S'2cb08de2'
p1116
sg21
Vadd fp, sp, #0x2c
p1117
sg5
L1204904L
sg6
Nsg23
S'ADD'
p1118
sg25
S'0x1262a8L'
p1119
sg27
Nsba(ibclass
BInstr
p1120
(dp1121
g2
Nsg17
S'LDR     R0, [SP,#0xB0+parg]; ctx'
p1122
sg19
S'80009de5'
p1123
sg21
Vldr r0, [sp, #0x80]
p1124
sg5
L1204908L
sg6
Nsg23
S'LDR'
p1125
sg25
S'0x1262acL'
p1126
sg27
Nsba(ibclass
BInstr
p1127
(dp1128
g2
Nsg17
S'MOV     R1, R11         ; key'
p1129
sg19
S'0b10a0e1'
p1130
sg21
Vmov r1, fp
p1131
sg5
L1204912L
sg6
Nsg23
S'MOV'
p1132
sg25
S'0x1262b0L'
p1133
sg27
Nsba(ibclass
BInstr
p1134
(dp1135
g2
Nsg17
S'BL      EVP_CIPHER_CTX_rand_key'
p1136
sg19
S'e7b4feeb'
p1137
sg21
Vbl #0xfffad3a4
p1138
sg5
L1204916L
sg6
Nsg23
S'BL'
p1139
sg25
S'0x1262b4L'
p1140
sg27
Nsba(ibclass
BInstr
p1141
(dp1142
g2
Nsg17
S'CMP     R0, R10'
p1143
sg19
S'0a0050e1'
p1144
sg21
Vcmp r0, sl
p1145
sg5
L1204920L
sg6
Nsg23
S'CMP'
p1146
sg25
S'0x1262b8L'
p1147
sg27
Nsba(ibclass
BInstr
p1148
(dp1149
g2
Nsg17
S'BLE     loc_126570'
p1150
sg19
S'ab0000da'
p1151
sg21
Vble #0x2b4
p1152
sg5
L1204924L
sg6
Nsg23
g82
sg25
S'0x1262bcL'
p1153
sg27
Nsbasg84
(lp1154
S'ADD xa, SP, #0xB0+key'
p1155
aS'LDR R0, mem'
p1156
aS'MOV R1, R11'
p1157
aS'BL EVP_CIPHER_CTX_rand_key'
p1158
aS'CMP R0, R10'
p1159
aS'BLE func'
p1160
asg95
Nsg5
S'0x1262a8L'
p1161
sg97
(lp1162
S'0x12627cL'
p1163
asg6
Nsg99
(lp1164
S'0x1262c0L'
p1165
aS'0x126570L'
p1166
asg103
Nsg104
Nsg105
S'a455922df13b47457dc8e2b459315092'
p1167
sg107
S'78d68ac28af1e8a00bbd34d9c0d96029'
p1168
sg109
(lp1169
g1118
ag1125
ag1132
ag1139
ag1146
ag82
asg111
Nsba(ibclass
BBasicBlock
p1170
(dp1171
g12
Nsg13
(lp1172
(ibclass
BInstr
p1173
(dp1174
g2
Nsg17
S'ADD     R12, SP, #0xB0+ctx'
p1175
sg19
S'6cc08de2'
p1176
sg21
Vadd ip, sp, #0x6c
p1177
sg5
L1204928L
sg6
Nsg23
S'ADD'
p1178
sg25
S'0x1262c0L'
p1179
sg27
Nsba(ibclass
BInstr
p1180
(dp1181
g2
Nsg17
S'MOV     R1, R10         ; cipher'
p1182
sg19
S'0a10a0e1'
p1183
sg21
Vmov r1, sl
p1184
sg5
L1204932L
sg6
Nsg23
S'MOV'
p1185
sg25
S'0x1262c4L'
p1186
sg27
Nsba(ibclass
BInstr
p1187
(dp1188
g2
Nsg17
S'LDR     R0, [SP,#0xB0+parg]; ctx'
p1189
sg19
S'80009de5'
p1190
sg21
Vldr r0, [sp, #0x80]
p1191
sg5
L1204936L
sg6
Nsg23
S'LDR'
p1192
sg25
S'0x1262c8L'
p1193
sg27
Nsba(ibclass
BInstr
p1194
(dp1195
g2
Nsg17
S'MOV     R2, R10         ; impl'
p1196
sg19
S'0a20a0e1'
p1197
sg21
Vmov r2, sl
p1198
sg5
L1204940L
sg6
Nsg23
S'MOV'
p1199
sg25
S'0x1262ccL'
p1200
sg27
Nsba(ibclass
BInstr
p1201
(dp1202
g2
Nsg17
S'MOV     R3, R11         ; key'
p1203
sg19
S'0b30a0e1'
p1204
sg21
Vmov r3, fp
p1205
sg5
L1204944L
sg6
Nsg23
S'MOV'
p1206
sg25
S'0x1262d0L'
p1207
sg27
Nsba(ibclass
BInstr
p1208
(dp1209
g2
Nsg17
S'STR     R12, [SP,#0xB0+iv]; iv'
p1210
sg19
S'00c08de5'
p1211
sg21
Vstr ip, [sp]
p1212
sg5
L1204948L
sg6
Nsg23
S'STR'
p1213
sg25
S'0x1262d4L'
p1214
sg27
Nsba(ibclass
BInstr
p1215
(dp1216
g2
Nsg17
S'STR     R8, [SP,#0xB0+enc]; enc'
p1217
sg19
S'04808de5'
p1218
sg21
Vstr r8, [sp, #4]
p1219
sg5
L1204952L
sg6
Nsg23
S'STR'
p1220
sg25
S'0x1262d8L'
p1221
sg27
Nsba(ibclass
BInstr
p1222
(dp1223
g2
Nsg17
S'BL      EVP_CipherInit_ex'
p1224
sg19
S'a9b7feeb'
p1225
sg21
Vbl #0xfffadeac
p1226
sg5
L1204956L
sg6
Nsg23
S'BL'
p1227
sg25
S'0x1262dcL'
p1228
sg27
Nsba(ibclass
BInstr
p1229
(dp1230
g2
Nsg17
S'CMP     R0, R10'
p1231
sg19
S'0a0050e1'
p1232
sg21
Vcmp r0, sl
p1233
sg5
L1204960L
sg6
Nsg23
S'CMP'
p1234
sg25
S'0x1262e0L'
p1235
sg27
Nsba(ibclass
BInstr
p1236
(dp1237
g2
Nsg17
S'BLE     loc_126570'
p1238
sg19
S'a10000da'
p1239
sg21
Vble #0x28c
p1240
sg5
L1204964L
sg6
Nsg23
g82
sg25
S'0x1262e4L'
p1241
sg27
Nsbasg84
(lp1242
S'ADD R12, SP, #0xB0+ctx'
p1243
aS'MOV R1, R10'
p1244
aS'LDR R0, mem'
p1245
aS'MOV R2, R10'
p1246
aS'MOV R3, R11'
p1247
aS'STR R12, mem'
p1248
aS'STR R8, mem'
p1249
aS'BL EVP_CipherInit_ex'
p1250
aS'CMP R0, R10'
p1251
aS'BLE func'
p1252
asg95
Nsg5
S'0x1262c0L'
p1253
sg97
(lp1254
S'0x1262a8L'
p1255
asg6
Nsg99
(lp1256
S'0x1262e8L'
p1257
aS'0x126570L'
p1258
asg103
Nsg104
Nsg105
S'cd46b4326929f8b03f2a659775f72344'
p1259
sg107
S'41319b6768076d54d8ee2df2504d70aa'
p1260
sg109
(lp1261
g1178
ag1185
ag1192
ag1199
ag1206
ag1213
ag1220
ag1227
ag1234
ag82
asg111
Nsba(ibclass
BBasicBlock
p1262
(dp1263
g12
Nsg13
(lp1264
(ibclass
BInstr
p1265
(dp1266
g2
Nsg17
S'CMP     ivlen, R10'
p1267
sg19
S'0a0059e1'
p1268
sg21
Vcmp sb, sl
p1269
sg5
L1204968L
sg6
Nsg23
S'CMP'
p1270
sg25
S'0x1262e8L'
p1271
sg27
Nsba(ibclass
BInstr
p1272
(dp1273
g2
Nsg17
S'BLE     loc_126310'
p1274
sg19
S'070000da'
p1275
sg21
Vble #0x24
p1276
sg5
L1204972L
sg6
Nsg23
g82
sg25
S'0x1262ecL'
p1277
sg27
Nsbasg84
(lp1278
S'CMP ivlen, R10'
p1279
aS'BLE func'
p1280
asg95
Nsg5
S'0x1262e8L'
p1281
sg97
(lp1282
S'0x1262c0L'
p1283
asg6
Nsg99
(lp1284
S'0x1262f0L'
p1285
aS'0x126310L'
p1286
asg103
Nsg104
Nsg105
S'c78fd620a449e3c979d3f3ec12d4ee88'
p1287
sg107
S'62e6fa0570e56bf0dd5f7230afe940e1'
p1288
sg109
(lp1289
g1270
ag82
asg111
Nsba(ibclass
BBasicBlock
p1290
(dp1291
g12
Nsg13
(lp1292
(ibclass
BInstr
p1293
(dp1294
g2
Nsg17
S'LDR     R3, [SP,#0xB0+outlen]'
p1295
sg19
S'0c309de5'
p1296
sg21
Vldr r3, [sp, #0xc]
p1297
sg5
L1204976L
sg6
Nsg23
S'LDR'
p1298
sg25
S'0x1262f0L'
p1299
sg27
Nsba(ibclass
BInstr
p1300
(dp1301
g2
Nsg17
S'LDR     R1, [R3,#4]     ; type'
p1302
sg19
S'041093e5'
p1303
sg21
Vldr r1, [r3, #4]
p1304
sg5
L1204980L
sg6
Nsg23
S'LDR'
p1305
sg25
S'0x1262f4L'
p1306
sg27
Nsba(ibclass
BInstr
p1307
(dp1308
g2
Nsg17
S'CMP     R1, #0'
p1309
sg19
S'000051e3'
p1310
sg21
Vcmp r1, #0
p1311
sg5
L1204984L
sg6
Nsg23
S'CMP'
p1312
sg25
S'0x1262f8L'
p1313
sg27
Nsba(ibclass
BInstr
p1314
(dp1315
g2
Nsg17
S'BEQ     loc_1267C8'
p1316
sg19
S'3101000a'
p1317
sg21
Vbeq #0x4cc
p1318
sg5
L1204988L
sg6
Nsg23
g82
sg25
S'0x1262fcL'
p1319
sg27
Nsbasg84
(lp1320
S'LDR R3, mem'
p1321
aS'LDR R1, mem'
p1322
aS'CMP R1, #0'
p1323
aS'BEQ func'
p1324
asg95
Nsg5
S'0x1262f0L'
p1325
sg97
(lp1326
S'0x1262e8L'
p1327
asg6
Nsg99
(lp1328
S'0x126300L'
p1329
aS'0x1267c8L'
p1330
asg103
Nsg104
Nsg105
S'd9812e74326a7ebe01ae9e2a00bbb5ee'
p1331
sg107
S'297d9e4f05d4cc89b1d1caae7ead95f0'
p1332
sg109
(lp1333
g1298
ag1305
ag1312
ag82
asg111
Nsba(ibclass
BBasicBlock
p1334
(dp1335
g12
Nsg13
(lp1336
(ibclass
BInstr
p1337
(dp1338
g2
Nsg17
S'LDR     R0, [SP,#0xB0+parg]; c'
p1339
sg19
S'80009de5'
p1340
sg21
Vldr r0, [sp, #0x80]
p1341
sg5
L1204992L
sg6
Nsg23
S'LDR'
p1342
sg25
S'0x126300L'
p1343
sg27
Nsba(ibclass
BInstr
p1344
(dp1345
g2
Nsg17
S'BL      EVP_CIPHER_param_to_asn1'
p1346
sg19
S'f6dbfeeb'
p1347
sg21
Vbl #0xfffb6fe0
p1348
sg5
L1204996L
sg6
Nsg23
S'BL'
p1349
sg25
S'0x126304L'
p1350
sg27
Nsba(ibclass
BInstr
p1351
(dp1352
g2
Nsg17
S'CMP     R0, #0'
p1353
sg19
S'000050e3'
p1354
sg21
Vcmp r0, #0
p1355
sg5
L1205000L
sg6
Nsg23
S'CMP'
p1356
sg25
S'0x126308L'
p1357
sg27
Nsba(ibclass
BInstr
p1358
(dp1359
g2
Nsg17
S'BLT     loc_126570'
p1360
sg19
S'970000ba'
p1361
sg21
Vblt #0x264
p1362
sg5
L1205004L
sg6
Nsg23
g82
sg25
S'0x12630cL'
p1363
sg27
Nsbasg84
(lp1364
S'LDR R0, mem'
p1365
aS'BL EVP_CIPHER_param_to_asn1'
p1366
aS'CMP R0, #0'
p1367
aS'BLT func'
p1368
asg95
Nsg5
S'0x126300L'
p1369
sg97
(lp1370
S'0x1262f0L'
p1371
aS'0x1267c8L'
p1372
asg6
Nsg99
(lp1373
S'0x126310L'
p1374
aS'0x126570L'
p1375
asg103
Nsg104
Nsg105
S'9c84acac36444e95dce0b0aa0635b01b'
p1376
sg107
S'665a1f3c9446cbc0da247ce7774f96ef'
p1377
sg109
(lp1378
g1342
ag1349
ag1356
ag82
asg111
Nsba(ibclass
BBasicBlock
p1379
(dp1380
g12
Nsg13
(lp1381
(ibclass
BInstr
p1382
(dp1383
g2
Nsg17
S'LDR     R3, =(aPk7_doit_c - 0x18A000)'
p1384
sg19
S'2c359fe5'
p1385
sg21
Vldr r3, [pc, #0x52c]
p1386
sg5
L1205008L
sg6
Nsg23
S'LDR'
p1387
sg25
S'0x126310L'
p1388
sg27
Nsba(ibclass
BInstr
p1389
(dp1390
g2
Nsg17
S'ADD     R1, SP, #0xB0+out'
p1391
sg19
S'7c108de2'
p1392
sg21
Vadd r1, sp, #0x7c
p1393
sg5
L1205012L
sg6
Nsg23
S'ADD'
p1394
sg25
S'0x126314L'
p1395
sg27
Nsba(ibclass
BInstr
p1396
(dp1397
g2
Nsg17
S'ADD     R3, R5, R3      ; "pk7_doit.c"'
p1398
sg19
S'033085e0'
p1399
sg21
Vadd r3, r5, r3
p1400
sg5
L1205016L
sg6
Nsg23
S'ADD'
p1401
sg25
S'0x126318L'
p1402
sg27
Nsba(ibclass
BInstr
p1403
(dp1404
g2
Nsg17
S'STR     bio, [SP,#0xB0+var_8C]'
p1405
sg19
S'24608de5'
p1406
sg21
Vstr r6, [sp, #0x24]
p1407
sg5
L1205020L
sg6
Nsg23
S'STR'
p1408
sg25
S'0x12631cL'
p1409
sg27
Nsba(ibclass
BInstr
p1410
(dp1411
g2
Nsg17
S'MOV     R8, #0'
p1412
sg19
S'0080a0e3'
p1413
sg21
Vmov r8, #0
p1414
sg5
L1205024L
sg6
Nsg23
S'MOV'
p1415
sg25
S'0x126320L'
p1416
sg27
Nsba(ibclass
BInstr
p1417
(dp1418
g2
Nsg17
S'STR     R3, [SP,#0xB0+file]'
p1419
sg19
S'1c308de5'
p1420
sg21
Vstr r3, [sp, #0x1c]
p1421
sg5
L1205028L
sg6
Nsg23
S'STR'
p1422
sg25
S'0x126324L'
p1423
sg27
Nsba(ibclass
BInstr
p1424
(dp1425
g2
Nsg17
S'STR     R1, [SP,#0xB0+outlen]'
p1426
sg19
S'0c108de5'
p1427
sg21
Vstr r1, [sp, #0xc]
p1428
sg5
L1205032L
sg6
Nsg23
S'STR'
p1429
sg25
S'0x126328L'
p1430
sg27
Nsba(ibclass
BInstr
p1431
(dp1432
g2
Nsg17
S'STR     p7, [SP,#0xB0+var_90]'
p1433
sg19
S'20408de5'
p1434
sg21
Vstr r4, [sp, #0x20]
p1435
sg5
L1205036L
sg6
Nsg23
S'STR'
p1436
sg25
S'0x12632cL'
p1437
sg27
Nsba(ibclass
BInstr
p1438
(dp1439
g2
Nsg17
S'LDR     bio, [SP,#0xB0+st]'
p1440
sg19
S'14609de5'
p1441
sg21
Vldr r6, [sp, #0x14]
p1442
sg5
L1205040L
sg6
Nsg23
S'LDR'
p1443
sg25
S'0x126330L'
p1444
sg27
Nsba(ibclass
BInstr
p1445
(dp1446
g2
Nsg17
S'B       loc_1263F0'
p1447
sg19
S'2d0000ea'
p1448
sg21
Vb #0xbc
p1449
sg5
L1205044L
sg6
Nsg23
g82
sg25
S'0x126334L'
p1450
sg27
Nsbasg84
(lp1451
S'LDR R3, =(aPk7_doit_c - 0x18A000)'
p1452
aS'ADD R1, SP, #0xB0+out'
p1453
aS'ADD R3, R5, R3'
p1454
aS'STR bio, mem'
p1455
aS'MOV R8, #0'
p1456
aS'STR R3, mem'
p1457
aS'STR R1, mem'
p1458
aS'STR p7, mem'
p1459
aS'LDR bio, mem'
p1460
aS'B func'
p1461
asg95
Nsg5
S'0x126310L'
p1462
sg97
(lp1463
S'0x1262e8L'
p1464
aS'0x126300L'
p1465
asg6
Nsg99
(lp1466
S'0x1263f0L'
p1467
asg103
Nsg104
Nsg105
S'8d4886f64fb0d6e04adb23dbd39ad698'
p1468
sg107
S'f102216c746f6cf6e97cfb421e9e3bcb'
p1469
sg109
(lp1470
g1387
ag1394
ag1401
ag1408
ag1415
ag1422
ag1429
ag1436
ag1443
ag82
asg111
Nsba(ibclass
BBasicBlock
p1471
(dp1472
g12
Nsg13
(lp1473
(ibclass
BInstr
p1474
(dp1475
g2
Nsg17
S'MOV     R12, #0'
p1476
sg19
S'00c0a0e3'
p1477
sg21
Vmov ip, #0
p1478
sg5
L1205048L
sg6
Nsg23
S'MOV'
p1479
sg25
S'0x126338L'
p1480
sg27
Nsba(ibclass
BInstr
p1481
(dp1482
g2
Nsg17
S'MOV     R0, R10         ; ctx'
p1483
sg19
S'0a00a0e1'
p1484
sg21
Vmov r0, sl
p1485
sg5
L1205052L
sg6
Nsg23
S'MOV'
p1486
sg25
S'0x12633cL'
p1487
sg27
Nsba(ibclass
BInstr
p1488
(dp1489
g2
Nsg17
S'MOV     R1, #0xFFFFFFFF ; keytype'
p1490
sg19
S'0010e0e3'
p1491
sg21
Vmvn r1, #0
p1492
sg5
L1205056L
sg6
Nsg23
S'MOV'
p1493
sg25
S'0x126340L'
p1494
sg27
Nsba(ibclass
BInstr
p1495
(dp1496
g2
Nsg17
S'MOV     R2, #0x100      ; optype'
p1497
sg19
S'012ca0e3'
p1498
sg21
Vmov r2, #0x100
p1499
sg5
L1205060L
sg6
Nsg23
S'MOV'
p1500
sg25
S'0x126344L'
p1501
sg27
Nsba(ibclass
BInstr
p1502
(dp1503
g2
Nsg17
S'MOV     R3, #3          ; cmd'
p1504
sg19
S'0330a0e3'
p1505
sg21
Vmov r3, #3
p1506
sg5
L1205064L
sg6
Nsg23
S'MOV'
p1507
sg25
S'0x126348L'
p1508
sg27
Nsba(ibclass
BInstr
p1509
(dp1510
g2
Nsg17
S'STR     R12, [SP,#0xB0+iv]; p1'
p1511
sg19
S'00c08de5'
p1512
sg21
Vstr ip, [sp]
p1513
sg5
L1205068L
sg6
Nsg23
S'STR'
p1514
sg25
S'0x12634cL'
p1515
sg27
Nsba(ibclass
BInstr
p1516
(dp1517
g2
Nsg17
S'STR     R4, [SP,#0xB0+enc]; p2'
p1518
sg19
S'04408de5'
p1519
sg21
Vstr r4, [sp, #4]
p1520
sg5
L1205072L
sg6
Nsg23
S'STR'
p1521
sg25
S'0x126350L'
p1522
sg27
Nsba(ibclass
BInstr
p1523
(dp1524
g2
Nsg17
S'BL      EVP_PKEY_CTX_ctrl'
p1525
sg19
S'8fe4feeb'
p1526
sg21
Vbl #0xfffb9244
p1527
sg5
L1205076L
sg6
Nsg23
S'BL'
p1528
sg25
S'0x126354L'
p1529
sg27
Nsba(ibclass
BInstr
p1530
(dp1531
g2
Nsg17
S'CMP     R0, #0'
p1532
sg19
S'000050e3'
p1533
sg21
Vcmp r0, #0
p1534
sg5
L1205080L
sg6
Nsg23
S'CMP'
p1535
sg25
S'0x126358L'
p1536
sg27
Nsba(ibclass
BInstr
p1537
(dp1538
g2
Nsg17
S'BLE     loc_126644'
p1539
sg19
S'b80000da'
p1540
sg21
Vble #0x2e8
p1541
sg5
L1205084L
sg6
Nsg23
g82
sg25
S'0x12635cL'
p1542
sg27
Nsbasg84
(lp1543
S'MOV R12, #0'
p1544
aS'MOV R0, R10'
p1545
aS'MOV R1, #0xFFFFFFFF'
p1546
aS'MOV R2, #0x100'
p1547
aS'MOV R3, #3'
p1548
aS'STR R12, mem'
p1549
aS'STR R4, mem'
p1550
aS'BL EVP_PKEY_CTX_ctrl'
p1551
aS'CMP R0, #0'
p1552
aS'BLE func'
p1553
asg95
Nsg5
S'0x126338L'
p1554
sg97
(lp1555
S'0x126430L'
p1556
asg6
Nsg99
(lp1557
S'0x126360L'
p1558
aS'0x126644L'
p1559
asg103
Nsg104
Nsg105
S'66bef984849dc981423d1b841d00ffd0'
p1560
sg107
S'c8eed9d3791332c1ed4c84cbbadf9bf1'
p1561
sg109
(lp1562
g1479
ag1486
ag1493
ag1500
ag1507
ag1514
ag1521
ag1528
ag1535
ag82
asg111
Nsba(ibclass
BBasicBlock
p1563
(dp1564
g12
Nsg13
(lp1565
(ibclass
BInstr
p1566
(dp1567
g2
Nsg17
S'LDR     R12, [SP,#0xB0+inlen]'
p1568
sg19
S'18c09de5'
p1569
sg21
Vldr ip, [sp, #0x18]
p1570
sg5
L1205088L
sg6
Nsg23
S'LDR'
p1571
sg25
S'0x126360L'
p1572
sg27
Nsba(ibclass
BInstr
p1573
(dp1574
g2
Nsg17
S'MOV     R0, R10         ; ctx'
p1575
sg19
S'0a00a0e1'
p1576
sg21
Vmov r0, sl
p1577
sg5
L1205092L
sg6
Nsg23
S'MOV'
p1578
sg25
S'0x126364L'
p1579
sg27
Nsba(ibclass
BInstr
p1580
(dp1581
g2
Nsg17
S'MOV     R1, #0          ; out'
p1582
sg19
S'0010a0e3'
p1583
sg21
Vmov r1, #0
p1584
sg5
L1205096L
sg6
Nsg23
S'MOV'
p1585
sg25
S'0x126368L'
p1586
sg27
Nsba(ibclass
BInstr
p1587
(dp1588
g2
Nsg17
S'LDR     R2, [SP,#0xB0+outlen]; outlen'
p1589
sg19
S'0c209de5'
p1590
sg21
Vldr r2, [sp, #0xc]
p1591
sg5
L1205100L
sg6
Nsg23
S'LDR'
p1592
sg25
S'0x12636cL'
p1593
sg27
Nsba(ibclass
BInstr
p1594
(dp1595
g2
Nsg17
S'MOV     R3, R11         ; in'
p1596
sg19
S'0b30a0e1'
p1597
sg21
Vmov r3, fp
p1598
sg5
L1205104L
sg6
Nsg23
S'MOV'
p1599
sg25
S'0x126370L'
p1600
sg27
Nsba(ibclass
BInstr
p1601
(dp1602
g2
Nsg17
S'STR     R12, [SP,#0xB0+iv]; inlen'
p1603
sg19
S'00c08de5'
p1604
sg21
Vstr ip, [sp]
p1605
sg5
L1205108L
sg6
Nsg23
S'STR'
p1606
sg25
S'0x126374L'
p1607
sg27
Nsba(ibclass
BInstr
p1608
(dp1609
g2
Nsg17
S'BL      EVP_PKEY_encrypt'
p1610
sg19
S'28e8feeb'
p1611
sg21
Vbl #0xfffba0a8
p1612
sg5
L1205112L
sg6
Nsg23
S'BL'
p1613
sg25
S'0x126378L'
p1614
sg27
Nsba(ibclass
BInstr
p1615
(dp1616
g2
Nsg17
S'CMP     R0, #0'
p1617
sg19
S'000050e3'
p1618
sg21
Vcmp r0, #0
p1619
sg5
L1205116L
sg6
Nsg23
S'CMP'
p1620
sg25
S'0x12637cL'
p1621
sg27
Nsba(ibclass
BInstr
p1622
(dp1623
g2
Nsg17
S'BLE     loc_12643C'
p1624
sg19
S'2d0000da'
p1625
sg21
Vble #0xbc
p1626
sg5
L1205120L
sg6
Nsg23
g82
sg25
S'0x126380L'
p1627
sg27
Nsbasg84
(lp1628
S'LDR R12, mem'
p1629
aS'MOV R0, R10'
p1630
aS'MOV R1, #0'
p1631
aS'LDR R2, mem'
p1632
aS'MOV R3, R11'
p1633
aS'STR R12, mem'
p1634
aS'BL EVP_PKEY_encrypt'
p1635
aS'CMP R0, #0'
p1636
aS'BLE func'
p1637
asg95
Nsg5
S'0x126360L'
p1638
sg97
(lp1639
S'0x126338L'
p1640
asg6
Nsg99
(lp1641
S'0x126384L'
p1642
aS'0x12643cL'
p1643
asg103
Nsg104
Nsg105
S'8f7174c6803840c9018494611418358b'
p1644
sg107
S'ea2db2306ebb8f7c45ff15485cb14029'
p1645
sg109
(lp1646
g1571
ag1578
ag1585
ag1592
ag1599
ag1606
ag1613
ag1620
ag82
asg111
Nsba(ibclass
BBasicBlock
p1647
(dp1648
g12
Nsg13
(lp1649
(ibclass
BInstr
p1650
(dp1651
g2
Nsg17
S'LDR     R0, [SP,#0xB0+out]; num'
p1652
sg19
S'7c009de5'
p1653
sg21
Vldr r0, [sp, #0x7c]
p1654
sg5
L1205124L
sg6
Nsg23
S'LDR'
p1655
sg25
S'0x126384L'
p1656
sg27
Nsba(ibclass
BInstr
p1657
(dp1658
g2
Nsg17
S'LDR     R1, [SP,#0xB0+file]; file'
p1659
sg19
S'1c109de5'
p1660
sg21
Vldr r1, [sp, #0x1c]
p1661
sg5
L1205128L
sg6
Nsg23
S'LDR'
p1662
sg25
S'0x126388L'
p1663
sg27
Nsba(ibclass
BInstr
p1664
(dp1665
g2
Nsg17
S'MOV     R2, #0xA7       ; line'
p1666
sg19
S'a720a0e3'
p1667
sg21
Vmov r2, #0xa7
p1668
sg5
L1205132L
sg6
Nsg23
S'MOV'
p1669
sg25
S'0x12638cL'
p1670
sg27
Nsba(ibclass
BInstr
p1671
(dp1672
g2
Nsg17
S'BL      CRYPTO_malloc'
p1673
sg19
S'9981fceb'
p1674
sg21
Vbl #0xfff2066c
p1675
sg5
L1205136L
sg6
Nsg23
S'BL'
p1676
sg25
S'0x126390L'
p1677
sg27
Nsba(ibclass
BInstr
p1678
(dp1679
g2
Nsg17
S'SUBS    R5, R0, #0'
p1680
sg19
S'005050e2'
p1681
sg21
Vsubs r5, r0, #0
p1682
sg5
L1205140L
sg6
Nsg23
S'SUB'
p1683
sg25
S'0x126394L'
p1684
sg27
Nsba(ibclass
BInstr
p1685
(dp1686
g2
Nsg17
S'BEQ     loc_126788'
p1687
sg19
S'fa00000a'
p1688
sg21
Vbeq #0x3f0
p1689
sg5
L1205144L
sg6
Nsg23
g82
sg25
S'0x126398L'
p1690
sg27
Nsbasg84
(lp1691
S'LDR R0, mem'
p1692
aS'LDR R1, mem'
p1693
aS'MOV R2, #0xA7'
p1694
aS'BL CRYPTO_mregloc'
p1695
aS'SUBS R5, R0, #0'
p1696
aS'BEQ func'
p1697
asg95
Nsg5
S'0x126384L'
p1698
sg97
(lp1699
S'0x126360L'
p1700
asg6
Nsg99
(lp1701
S'0x12639cL'
p1702
aS'0x126788L'
p1703
asg103
Nsg104
Nsg105
S'a98c7683da3b2e5f079cd852689a6207'
p1704
sg107
S'ecfc025408e55b989f47eab7b6206a14'
p1705
sg109
(lp1706
g1655
ag1662
ag1669
ag1676
ag1683
ag82
asg111
Nsba(ibclass
BBasicBlock
p1707
(dp1708
g12
Nsg13
(lp1709
(ibclass
BInstr
p1710
(dp1711
g2
Nsg17
S'LDR     R12, [SP,#0xB0+inlen]'
p1712
sg19
S'18c09de5'
p1713
sg21
Vldr ip, [sp, #0x18]
p1714
sg5
L1205148L
sg6
Nsg23
S'LDR'
p1715
sg25
S'0x12639cL'
p1716
sg27
Nsba(ibclass
BInstr
p1717
(dp1718
g2
Nsg17
S'MOV     R0, R10         ; ctx'
p1719
sg19
S'0a00a0e1'
p1720
sg21
Vmov r0, sl
p1721
sg5
L1205152L
sg6
Nsg23
S'MOV'
p1722
sg25
S'0x1263a0L'
p1723
sg27
Nsba(ibclass
BInstr
p1724
(dp1725
g2
Nsg17
S'MOV     R1, R5          ; out'
p1726
sg19
S'0510a0e1'
p1727
sg21
Vmov r1, r5
p1728
sg5
L1205156L
sg6
Nsg23
S'MOV'
p1729
sg25
S'0x1263a4L'
p1730
sg27
Nsba(ibclass
BInstr
p1731
(dp1732
g2
Nsg17
S'LDR     R2, [SP,#0xB0+outlen]; outlen'
p1733
sg19
S'0c209de5'
p1734
sg21
Vldr r2, [sp, #0xc]
p1735
sg5
L1205160L
sg6
Nsg23
S'LDR'
p1736
sg25
S'0x1263a8L'
p1737
sg27
Nsba(ibclass
BInstr
p1738
(dp1739
g2
Nsg17
S'MOV     R3, R11         ; in'
p1740
sg19
S'0b30a0e1'
p1741
sg21
Vmov r3, fp
p1742
sg5
L1205164L
sg6
Nsg23
S'MOV'
p1743
sg25
S'0x1263acL'
p1744
sg27
Nsba(ibclass
BInstr
p1745
(dp1746
g2
Nsg17
S'STR     R12, [SP,#0xB0+iv]; inlen'
p1747
sg19
S'00c08de5'
p1748
sg21
Vstr ip, [sp]
p1749
sg5
L1205168L
sg6
Nsg23
S'STR'
p1750
sg25
S'0x1263b0L'
p1751
sg27
Nsba(ibclass
BInstr
p1752
(dp1753
g2
Nsg17
S'BL      EVP_PKEY_encrypt'
p1754
sg19
S'19e8feeb'
p1755
sg21
Vbl #0xfffba06c
p1756
sg5
L1205172L
sg6
Nsg23
S'BL'
p1757
sg25
S'0x1263b4L'
p1758
sg27
Nsba(ibclass
BInstr
p1759
(dp1760
g2
Nsg17
S'CMP     R0, #0'
p1761
sg19
S'000050e3'
p1762
sg21
Vcmp r0, #0
p1763
sg5
L1205176L
sg6
Nsg23
S'CMP'
p1764
sg25
S'0x1263b8L'
p1765
sg27
Nsba(ibclass
BInstr
p1766
(dp1767
g2
Nsg17
S'BLE     loc_1266C0'
p1768
sg19
S'bf0000da'
p1769
sg21
Vble #0x304
p1770
sg5
L1205180L
sg6
Nsg23
g82
sg25
S'0x1263bcL'
p1771
sg27
Nsbasg84
(lp1772
S'LDR R12, mem'
p1773
aS'MOV R0, R10'
p1774
aS'MOV R1, R5'
p1775
aS'LDR R2, mem'
p1776
aS'MOV R3, R11'
p1777
aS'STR R12, mem'
p1778
aS'BL EVP_PKEY_encrypt'
p1779
aS'CMP R0, #0'
p1780
aS'BLE func'
p1781
asg95
Nsg5
S'0x12639cL'
p1782
sg97
(lp1783
S'0x126384L'
p1784
asg6
Nsg99
(lp1785
S'0x1263c0L'
p1786
aS'0x1266c0L'
p1787
asg103
Nsg104
Nsg105
S'8f7174c6803840c9018494611418358b'
p1788
sg107
S'cb293a4e9f2c4254cc3d1dd7e38372f3'
p1789
sg109
(lp1790
g1715
ag1722
ag1729
ag1736
ag1743
ag1750
ag1757
ag1764
ag82
asg111
Nsba(ibclass
BBasicBlock
p1791
(dp1792
g12
Nsg13
(lp1793
(ibclass
BInstr
p1794
(dp1795
g2
Nsg17
S'LDR     R0, [R4,#0xC]   ; str'
p1796
sg19
S'0c0094e5'
p1797
sg21
Vldr r0, [r4, #0xc]
p1798
sg5
L1205184L
sg6
Nsg23
S'LDR'
p1799
sg25
S'0x1263c0L'
p1800
sg27
Nsba(ibclass
BInstr
p1801
(dp1802
g2
Nsg17
S'MOV     R1, R5          ; data'
p1803
sg19
S'0510a0e1'
p1804
sg21
Vmov r1, r5
p1805
sg5
L1205188L
sg6
Nsg23
S'MOV'
p1806
sg25
S'0x1263c4L'
p1807
sg27
Nsba(ibclass
BInstr
p1808
(dp1809
g2
Nsg17
S'LDR     R2, [SP,#0xB0+out]; len'
p1810
sg19
S'7c209de5'
p1811
sg21
Vldr r2, [sp, #0x7c]
p1812
sg5
L1205192L
sg6
Nsg23
S'LDR'
p1813
sg25
S'0x1263c8L'
p1814
sg27
Nsba(ibclass
BInstr
p1815
(dp1816
g2
Nsg17
S'BL      ASN1_STRING_set0'
p1817
sg19
S'8252ffeb'
p1818
sg21
Vbl #0xfffd4a10
p1819
sg5
L1205196L
sg6
Nsg23
S'BL'
p1820
sg25
S'0x1263ccL'
p1821
sg27
Nsba(ibclass
BInstr
p1822
(dp1823
g2
Nsg17
S'MOV     R4, #1'
p1824
sg19
S'0140a0e3'
p1825
sg21
Vmov r4, #1
p1826
sg5
L1205200L
sg6
Nsg23
S'MOV'
p1827
sg25
S'0x1263d0L'
p1828
sg27
Nsbasg84
(lp1829
S'LDR R0, mem'
p1830
aS'MOV R1, R5'
p1831
aS'LDR R2, mem'
p1832
aS'BL ASN1_STRING_set0'
p1833
aS'MOV R4, #1'
p1834
asg95
Nsg5
S'0x1263c0L'
p1835
sg97
(lp1836
S'0x12639cL'
p1837
asg6
Nsg99
(lp1838
S'0x1263d4L'
p1839
asg103
Nsg104
Nsg105
S'0730fc78ee4838939acb925d6ff0b8e3'
p1840
sg107
S'88eb807392de5d99ffd2442f7011c449'
p1841
sg109
(lp1842
g1799
ag1806
ag1813
ag1820
ag1827
asg111
Nsba(ibclass
BBasicBlock
p1843
(dp1844
g12
Nsg13
(lp1845
(ibclass
BInstr
p1846
(dp1847
g2
Nsg17
S'MOV     R0, R9          ; x'
p1848
sg19
S'0900a0e1'
p1849
sg21
Vmov r0, sb
p1850
sg5
L1205204L
sg6
Nsg23
S'MOV'
p1851
sg25
S'0x1263d4L'
p1852
sg27
Nsba(ibclass
BInstr
p1853
(dp1854
g2
Nsg17
S'BL      EVP_PKEY_free'
p1855
sg19
S'e6cffeeb'
p1856
sg21
Vbl #0xfffb3fa0
p1857
sg5
L1205208L
sg6
Nsg23
S'BL'
p1858
sg25
S'0x1263d8L'
p1859
sg27
Nsba(ibclass
BInstr
p1860
(dp1861
g2
Nsg17
S'MOV     R0, R10         ; ctx'
p1862
sg19
S'0a00a0e1'
p1863
sg21
Vmov r0, sl
p1864
sg5
L1205212L
sg6
Nsg23
S'MOV'
p1865
sg25
S'0x1263dcL'
p1866
sg27
Nsba(ibclass
BInstr
p1867
(dp1868
g2
Nsg17
S'BL      EVP_PKEY_CTX_free'
p1869
sg19
S'01e5feeb'
p1870
sg21
Vbl #0xfffb940c
p1871
sg5
L1205216L
sg6
Nsg23
S'BL'
p1872
sg25
S'0x1263e0L'
p1873
sg27
Nsba(ibclass
BInstr
p1874
(dp1875
g2
Nsg17
S'CMP     R4, #0'
p1876
sg19
S'000054e3'
p1877
sg21
Vcmp r4, #0
p1878
sg5
L1205220L
sg6
Nsg23
S'CMP'
p1879
sg25
S'0x1263e4L'
p1880
sg27
Nsba(ibclass
BInstr
p1881
(dp1882
g2
Nsg17
S'BEQ     loc_126570'
p1883
sg19
S'6000000a'
p1884
sg21
Vbeq #0x188
p1885
sg5
L1205224L
sg6
Nsg23
g82
sg25
S'0x1263e8L'
p1886
sg27
Nsbasg84
(lp1887
S'MOV R0, R9'
p1888
aS'BL EVP_PKEY_free'
p1889
aS'MOV R0, R10'
p1890
aS'BL EVP_PKEY_CTX_free'
p1891
aS'CMP R4, #0'
p1892
aS'BEQ func'
p1893
asg95
Nsg5
S'0x1263d4L'
p1894
sg97
(lp1895
S'0x1263c0L'
p1896
aS'0x12643cL'
p1897
aS'0x126644L'
p1898
aS'0x126788L'
p1899
asg6
Nsg99
(lp1900
S'0x1263ecL'
p1901
aS'0x126570L'
p1902
asg103
Nsg104
Nsg105
S'5c63c89ad32b3e5d9c15360c009571ce'
p1903
sg107
S'a52a04f13f8fe77416585b2df2b0492b'
p1904
sg109
(lp1905
g1851
ag1858
ag1865
ag1872
ag1879
ag82
asg111
Nsba(ibclass
BBasicBlock
p1906
(dp1907
g12
Nsg13
(lp1908
(ibclass
BInstr
p1909
(dp1910
g2
Nsg17
S'ADD     i, i, #1'
p1911
sg19
S'018088e2'
p1912
sg21
Vadd r8, r8, #1
p1913
sg5
L1205228L
sg6
Nsg23
S'ADD'
p1914
sg25
S'0x1263ecL'
p1915
sg27
Nsbasg84
(lp1916
S'ADD i, i, #1'
p1917
asg95
Nsg5
S'0x1263ecL'
p1918
sg97
(lp1919
S'0x1263d4L'
p1920
asg6
Nsg99
(lp1921
S'0x1263f0L'
p1922
asg103
Nsg104
Nsg105
S'9eeb52badb613229884838847294b90d'
p1923
sg107
S'65c60829f24da594153308b8629b637d'
p1924
sg109
(lp1925
g1914
asg111
Nsba(ibclass
BBasicBlock
p1926
(dp1927
g12
Nsg13
(lp1928
(ibclass
BInstr
p1929
(dp1930
g2
Nsg17
S'MOV     R0, rsk         ; st'
p1931
sg19
S'0600a0e1'
p1932
sg21
Vmov r0, r6
p1933
sg5
L1205232L
sg6
Nsg23
S'MOV'
p1934
sg25
S'0x1263f0L'
p1935
sg27
Nsba(ibclass
BInstr
p1936
(dp1937
g2
Nsg17
S'BL      sk_num'
p1938
sg19
S'169afeeb'
p1939
sg21
Vbl #0xfffa6860
p1940
sg5
L1205236L
sg6
Nsg23
S'BL'
p1941
sg25
S'0x1263f4L'
p1942
sg27
Nsba(ibclass
BInstr
p1943
(dp1944
g2
Nsg17
S'CMP     i, R0'
p1945
sg19
S'000058e1'
p1946
sg21
Vcmp r8, r0
p1947
sg5
L1205240L
sg6
Nsg23
S'CMP'
p1948
sg25
S'0x1263f8L'
p1949
sg27
Nsba(ibclass
BInstr
p1950
(dp1951
g2
Nsg17
S'BGE     loc_1265AC'
p1952
sg19
S'6a0000aa'
p1953
sg21
Vbge #0x1b0
p1954
sg5
L1205244L
sg6
Nsg23
g82
sg25
S'0x1263fcL'
p1955
sg27
Nsbasg84
(lp1956
S'MOV R0, rsk'
p1957
aS'BL sk_num'
p1958
aS'CMP i, R0'
p1959
aS'BGE func'
p1960
asg95
Nsg5
S'0x1263f0L'
p1961
sg97
(lp1962
S'0x126310L'
p1963
aS'0x1263ecL'
p1964
asg6
Nsg99
(lp1965
S'0x126400L'
p1966
aS'0x1265acL'
p1967
asg103
Nsg104
Nsg105
S'75fdea37841bac1a618e2aab315c9307'
p1968
sg107
S'9754228770d15ffd9012ba80a6ee1cea'
p1969
sg109
(lp1970
g1934
ag1941
ag1948
ag82
asg111
Nsba(ibclass
BBasicBlock
p1971
(dp1972
g12
Nsg13
(lp1973
(ibclass
BInstr
p1974
(dp1975
g2
Nsg17
S'MOV     R1, i           ; i'
p1976
sg19
S'0810a0e1'
p1977
sg21
Vmov r1, r8
p1978
sg5
L1205248L
sg6
Nsg23
S'MOV'
p1979
sg25
S'0x126400L'
p1980
sg27
Nsba(ibclass
BInstr
p1981
(dp1982
g2
Nsg17
S'MOV     R0, rsk         ; st'
p1983
sg19
S'0600a0e1'
p1984
sg21
Vmov r0, r6
p1985
sg5
L1205252L
sg6
Nsg23
S'MOV'
p1986
sg25
S'0x126404L'
p1987
sg27
Nsba(ibclass
BInstr
p1988
(dp1989
g2
Nsg17
S'BL      sk_value'
p1990
sg19
S'159afeeb'
p1991
sg21
Vbl #0xfffa685c
p1992
sg5
L1205256L
sg6
Nsg23
S'BL'
p1993
sg25
S'0x126408L'
p1994
sg27
Nsba(ibclass
BInstr
p1995
(dp1996
g2
Nsg17
S'MOV     p7, R0'
p1997
sg19
S'0040a0e1'
p1998
sg21
Vmov r4, r0
p1999
sg5
L1205260L
sg6
Nsg23
S'MOV'
p2000
sg25
S'0x12640cL'
p2001
sg27
Nsba(ibclass
BInstr
p2002
(dp2003
g2
Nsg17
S'LDR     R0, [R0,#0x10]  ; x'
p2004
sg19
S'100090e5'
p2005
sg21
Vldr r0, [r0, #0x10]
p2006
sg5
L1205264L
sg6
Nsg23
S'LDR'
p2007
sg25
S'0x126410L'
p2008
sg27
Nsba(ibclass
BInstr
p2009
(dp2010
g2
Nsg17
S'BL      X509_get_pubkey'
p2011
sg19
S'8b7bffeb'
p2012
sg21
Vbl #0xfffdee34
p2013
sg5
L1205268L
sg6
Nsg23
S'BL'
p2014
sg25
S'0x126414L'
p2015
sg27
Nsba(ibclass
BInstr
p2016
(dp2017
g2
Nsg17
S'SUBS    ivlen, R0, #0'
p2018
sg19
S'009050e2'
p2019
sg21
Vsubs sb, r0, #0
p2020
sg5
L1205272L
sg6
Nsg23
S'SUB'
p2021
sg25
S'0x126418L'
p2022
sg27
Nsba(ibclass
BInstr
p2023
(dp2024
g2
Nsg17
S'BEQ     loc_126570'
p2025
sg19
S'5300000a'
p2026
sg21
Vbeq #0x154
p2027
sg5
L1205276L
sg6
Nsg23
g82
sg25
S'0x12641cL'
p2028
sg27
Nsbasg84
(lp2029
S'MOV R1, i'
p2030
aS'MOV R0, rsk'
p2031
aS'BL sk_vregue'
p2032
aS'MOV p7, R0'
p2033
aS'LDR R0, mem'
p2034
aS'BL X509_get_pubkey'
p2035
aS'SUBS ivlen, R0, #0'
p2036
aS'BEQ func'
p2037
asg95
Nsg5
S'0x126400L'
p2038
sg97
(lp2039
S'0x1263f0L'
p2040
asg6
Nsg99
(lp2041
S'0x126420L'
p2042
aS'0x126570L'
p2043
asg103
Nsg104
Nsg105
S'f7d9bfc44670b89f824eb8aa6b0327cf'
p2044
sg107
S'a1ffb2a0718982f3994d9bb14d20fa88'
p2045
sg109
(lp2046
g1979
ag1986
ag1993
ag2000
ag2007
ag2014
ag2021
ag82
asg111
Nsba(ibclass
BBasicBlock
p2047
(dp2048
g12
Nsg13
(lp2049
(ibclass
BInstr
p2050
(dp2051
g2
Nsg17
S'MOV     R1, #0          ; e'
p2052
sg19
S'0010a0e3'
p2053
sg21
Vmov r1, #0
p2054
sg5
L1205280L
sg6
Nsg23
S'MOV'
p2055
sg25
S'0x126420L'
p2056
sg27
Nsba(ibclass
BInstr
p2057
(dp2058
g2
Nsg17
S'BL      EVP_PKEY_CTX_new'
p2059
sg19
S'56e6feeb'
p2060
sg21
Vbl #0xfffb9960
p2061
sg5
L1205284L
sg6
Nsg23
S'BL'
p2062
sg25
S'0x126424L'
p2063
sg27
Nsba(ibclass
BInstr
p2064
(dp2065
g2
Nsg17
S'SUBS    R10, R0, #0'
p2066
sg19
S'00a050e2'
p2067
sg21
Vsubs sl, r0, #0
p2068
sg5
L1205288L
sg6
Nsg23
S'SUB'
p2069
sg25
S'0x126428L'
p2070
sg27
Nsba(ibclass
BInstr
p2071
(dp2072
g2
Nsg17
S'BEQ     loc_126570'
p2073
sg19
S'4f00000a'
p2074
sg21
Vbeq #0x144
p2075
sg5
L1205292L
sg6
Nsg23
g82
sg25
S'0x12642cL'
p2076
sg27
Nsbasg84
(lp2077
S'MOV R1, #0'
p2078
aS'BL EVP_PKEY_CTX_new'
p2079
aS'SUBS R10, R0, #0'
p2080
aS'BEQ func'
p2081
asg95
Nsg5
S'0x126420L'
p2082
sg97
(lp2083
S'0x126400L'
p2084
asg6
Nsg99
(lp2085
S'0x126430L'
p2086
aS'0x126570L'
p2087
asg103
Nsg104
Nsg105
S'd712ad407e365d6dc92067cbbdc09d0b'
p2088
sg107
S'72660b118f9db668ea1b9d0d354550a1'
p2089
sg109
(lp2090
g2055
ag2062
ag2069
ag82
asg111
Nsba(ibclass
BBasicBlock
p2091
(dp2092
g12
Nsg13
(lp2093
(ibclass
BInstr
p2094
(dp2095
g2
Nsg17
S'BL      EVP_PKEY_encrypt_init'
p2096
sg19
S'a2e6feeb'
p2097
sg21
Vbl #0xfffb9a90
p2098
sg5
L1205296L
sg6
Nsg23
S'BL'
p2099
sg25
S'0x126430L'
p2100
sg27
Nsba(ibclass
BInstr
p2101
(dp2102
g2
Nsg17
S'CMP     R0, #0'
p2103
sg19
S'000050e3'
p2104
sg21
Vcmp r0, #0
p2105
sg5
L1205300L
sg6
Nsg23
S'CMP'
p2106
sg25
S'0x126434L'
p2107
sg27
Nsba(ibclass
BInstr
p2108
(dp2109
g2
Nsg17
S'BGT     loc_126338'
p2110
sg19
S'beffffca'
p2111
sg21
Vbgt #0xffffff00
p2112
sg5
L1205304L
sg6
Nsg23
g82
sg25
S'0x126438L'
p2113
sg27
Nsbasg84
(lp2114
S'BL EVP_PKEY_encrypt_init'
p2115
aS'CMP R0, #0'
p2116
aS'BGT func'
p2117
asg95
Nsg5
S'0x126430L'
p2118
sg97
(lp2119
S'0x126420L'
p2120
asg6
Nsg99
(lp2121
S'0x126338L'
p2122
aS'0x12643cL'
p2123
asg103
Nsg104
Nsg105
S'69d7efeb6b17b849bb98dfd646fddc4d'
p2124
sg107
S'bd533d7536159dc596c6403ccbf91055'
p2125
sg109
(lp2126
g2099
ag2106
ag82
asg111
Nsba(ibclass
BBasicBlock
p2127
(dp2128
g12
Nsg13
(lp2129
(ibclass
BInstr
p2130
(dp2131
g2
Nsg17
S'MOV     R4, #0'
p2132
sg19
S'0040a0e3'
p2133
sg21
Vmov r4, #0
p2134
sg5
L1205308L
sg6
Nsg23
S'MOV'
p2135
sg25
S'0x12643cL'
p2136
sg27
Nsba(ibclass
BInstr
p2137
(dp2138
g2
Nsg17
S'B       loc_1263D4'
p2139
sg19
S'e3ffffea'
p2140
sg21
Vb #0xffffff94
p2141
sg5
L1205312L
sg6
Nsg23
g82
sg25
S'0x126440L'
p2142
sg27
Nsbasg84
(lp2143
S'MOV R4, #0'
p2144
aS'B func'
p2145
asg95
Nsg5
S'0x12643cL'
p2146
sg97
(lp2147
S'0x126360L'
p2148
aS'0x126430L'
p2149
asg6
Nsg99
(lp2150
S'0x1263d4L'
p2151
asg103
Nsg104
Nsg105
S'b6c4e95ccfe77a95e4cf2019dd3d5574'
p2152
sg107
S'70c79d1079f5ffbc83aa77f4b574894b'
p2153
sg109
(lp2154
g2135
ag82
asg111
Nsba(ibclass
BBasicBlock
p2155
(dp2156
g12
Nsg13
(lp2157
(ibclass
BInstr
p2158
(dp2159
g2
Nsg17
S'MOV     R10, #0         ; jumptable 00126160 case 0'
p2160
sg19
S'00a0a0e3'
p2161
sg21
Vmov sl, #0
p2162
sg5
L1205316L
sg6
Nsg23
S'MOV'
p2163
sg25
S'0x126444L'
p2164
sg27
Nsba(ibclass
BInstr
p2165
(dp2166
g2
Nsg17
S'STR     R10, [SP,#0xB0+var_A0]'
p2167
sg19
S'10a08de5'
p2168
sg21
Vstr sl, [sp, #0x10]
p2169
sg5
L1205320L
sg6
Nsg23
S'STR'
p2170
sg25
S'0x126448L'
p2171
sg27
Nsba(ibclass
BInstr
p2172
(dp2173
g2
Nsg17
S'STR     R10, [SP,#0xB0+outlen]'
p2174
sg19
S'0ca08de5'
p2175
sg21
Vstr sl, [sp, #0xc]
p2176
sg5
L1205324L
sg6
Nsg23
S'STR'
p2177
sg25
S'0x12644cL'
p2178
sg27
Nsba(ibclass
BInstr
p2179
(dp2180
g2
Nsg17
S'STR     R10, [SP,#0xB0+st]'
p2181
sg19
S'14a08de5'
p2182
sg21
Vstr sl, [sp, #0x14]
p2183
sg5
L1205328L
sg6
Nsg23
S'STR'
p2184
sg25
S'0x126450L'
p2185
sg27
Nsba(ibclass
BInstr
p2186
(dp2187
g2
Nsg17
S'MOV     R8, R10'
p2188
sg19
S'0a80a0e1'
p2189
sg21
Vmov r8, sl
p2190
sg5
L1205332L
sg6
Nsg23
S'MOV'
p2191
sg25
S'0x126454L'
p2192
sg27
Nsba(ibclass
BInstr
p2193
(dp2194
g2
Nsg17
S'MOV     R11, R10'
p2195
sg19
S'0ab0a0e1'
p2196
sg21
Vmov fp, sl
p2197
sg5
L1205336L
sg6
Nsg23
S'MOV'
p2198
sg25
S'0x126458L'
p2199
sg27
Nsba(ibclass
BInstr
p2200
(dp2201
g2
Nsg17
S'B       loc_1261B0'
p2202
sg19
S'53ffffea'
p2203
sg21
Vb #0xfffffd54
p2204
sg5
L1205340L
sg6
Nsg23
g82
sg25
S'0x12645cL'
p2205
sg27
Nsbasg84
(lp2206
S'MOV R10, #0'
p2207
aS'STR R10, mem'
p2208
aS'STR R10, mem'
p2209
aS'STR R10, mem'
p2210
aS'MOV R8, R10'
p2211
aS'MOV R11, R10'
p2212
aS'B func'
p2213
asg95
Nsg5
S'0x126444L'
p2214
sg97
(lp2215
S'0x12614cL'
p2216
aS'0x126168L'
p2217
asg6
Nsg99
(lp2218
S'0x1261b0L'
p2219
asg103
Nsg104
Nsg105
S'be9774ccd99d02beea4ffeeada54e16a'
p2220
sg107
S'80044f1faea069efcfb98748d8404d81'
p2221
sg109
(lp2222
g2163
ag2170
ag2177
ag2184
ag2191
ag2198
ag82
asg111
Nsba(ibclass
BBasicBlock
p2223
(dp2224
g12
Nsg13
(lp2225
(ibclass
BInstr
p2226
(dp2227
g2
Nsg17
S'LDR     R3, [p7,#0x14]  ; jumptable 00126160 case 1'
p2228
sg19
S'143094e5'
p2229
sg21
Vldr r3, [r4, #0x14]
p2230
sg5
L1205344L
sg6
Nsg23
S'LDR'
p2231
sg25
S'0x126460L'
p2232
sg27
Nsba(ibclass
BInstr
p2233
(dp2234
g2
Nsg17
S'LDR     R7, [R3,#0x14]'
p2235
sg19
S'147093e5'
p2236
sg21
Vldr r7, [r3, #0x14]
p2237
sg5
L1205348L
sg6
Nsg23
S'LDR'
p2238
sg25
S'0x126464L'
p2239
sg27
Nsba(ibclass
BInstr
p2240
(dp2241
g2
Nsg17
S'LDR     R10, [R3,#4]'
p2242
sg19
S'04a093e5'
p2243
sg21
Vldr sl, [r3, #4]
p2244
sg5
L1205352L
sg6
Nsg23
S'LDR'
p2245
sg25
S'0x126468L'
p2246
sg27
Nsba(ibclass
BInstr
p2247
(dp2248
g2
Nsg17
S'LDR     R0, [R7,#0x10]  ; a'
p2249
sg19
S'100097e5'
p2250
sg21
Vldr r0, [r7, #0x10]
p2251
sg5
L1205356L
sg6
Nsg23
S'LDR'
p2252
sg25
S'0x12646cL'
p2253
sg27
Nsba(ibclass
BInstr
p2254
(dp2255
g2
Nsg17
S'BL      OBJ_obj2nid'
p2256
sg19
S'0690fceb'
p2257
sg21
Vbl #0xfff24020
p2258
sg5
L1205360L
sg6
Nsg23
S'BL'
p2259
sg25
S'0x126470L'
p2260
sg27
Nsba(ibclass
BInstr
p2261
(dp2262
g2
Nsg17
S'CMP     R0, #0x15'
p2263
sg19
S'150050e3'
p2264
sg21
Vcmp r0, #0x15
p2265
sg5
L1205364L
sg6
Nsg23
S'CMP'
p2266
sg25
S'0x126474L'
p2267
sg27
Nsba(ibclass
BInstr
p2268
(dp2269
g2
Nsg17
S'BNE     loc_126668'
p2270
sg19
S'7a00001a'
p2271
sg21
Vbne #0x1f0
p2272
sg5
L1205368L
sg6
Nsg23
g82
sg25
S'0x126478L'
p2273
sg27
Nsbasg84
(lp2274
S'LDR R3, mem'
p2275
aS'LDR R7, mem'
p2276
aS'LDR R10, mem'
p2277
aS'LDR R0, mem'
p2278
aS'BL OBJ_obj2nid'
p2279
aS'CMP R0, #0x15'
p2280
aS'BNE func'
p2281
asg95
Nsg5
S'0x126460L'
p2282
sg97
(lp2283
S'0x12614cL'
p2284
aS'0x12616cL'
p2285
asg6
Nsg99
(lp2286
S'0x12647cL'
p2287
aS'0x126668L'
p2288
asg103
Nsg104
Nsg105
S'd2bb55dae52963d9ba6ebb165d5b1611'
p2289
sg107
S'7a41a3d25d3c69d5c52cc55f8937f1b5'
p2290
sg109
(lp2291
g2231
ag2238
ag2245
ag2252
ag2259
ag2266
ag82
asg111
Nsba(ibclass
BBasicBlock
p2292
(dp2293
g12
Nsg13
(lp2294
(ibclass
BInstr
p2295
(dp2296
g2
Nsg17
S'LDR     R7, [R7,#0x14]'
p2297
sg19
S'147097e5'
p2298
sg21
Vldr r7, [r7, #0x14]
p2299
sg5
L1205372L
sg6
Nsg23
S'LDR'
p2300
sg25
S'0x12647cL'
p2301
sg27
Nsba(ibclass
BInstr
p2302
(dp2303
g2
Nsg17
S'STR     R7, [SP,#0xB0+var_A0]'
p2304
sg19
S'10708de5'
p2305
sg21
Vstr r7, [sp, #0x10]
p2306
sg5
L1205376L
sg6
Nsg23
S'STR'
p2307
sg25
S'0x126480L'
p2308
sg27
Nsbasg84
(lp2309
S'LDR R7, mem'
p2310
aS'STR R7, mem'
p2311
asg95
Nsg5
S'0x12647cL'
p2312
sg97
(lp2313
S'0x126460L'
p2314
asg6
Nsg99
(lp2315
S'0x126484L'
p2316
asg103
Nsg104
Nsg105
S'f2c00f06cb6622818f2abed867fd0979'
p2317
sg107
S'31c96277b083e5cedcbb0e52723b18a1'
p2318
sg109
(lp2319
g2300
ag2307
asg111
Nsba(ibclass
BBasicBlock
p2320
(dp2321
g12
Nsg13
(lp2322
(ibclass
BInstr
p2323
(dp2324
g2
Nsg17
S'MOV     R3, #0'
p2325
sg19
S'0030a0e3'
p2326
sg21
Vmov r3, #0
p2327
sg5
L1205380L
sg6
Nsg23
S'MOV'
p2328
sg25
S'0x126484L'
p2329
sg27
Nsba(ibclass
BInstr
p2330
(dp2331
g2
Nsg17
S'STR     R3, [SP,#0xB0+outlen]'
p2332
sg19
S'0c308de5'
p2333
sg21
Vstr r3, [sp, #0xc]
p2334
sg5
L1205384L
sg6
Nsg23
S'STR'
p2335
sg25
S'0x126488L'
p2336
sg27
Nsba(ibclass
BInstr
p2337
(dp2338
g2
Nsg17
S'STR     R3, [SP,#0xB0+st]'
p2339
sg19
S'14308de5'
p2340
sg21
Vstr r3, [sp, #0x14]
p2341
sg5
L1205388L
sg6
Nsg23
S'STR'
p2342
sg25
S'0x12648cL'
p2343
sg27
Nsba(ibclass
BInstr
p2344
(dp2345
g2
Nsg17
S'MOV     R8, R3'
p2346
sg19
S'0380a0e1'
p2347
sg21
Vmov r8, r3
p2348
sg5
L1205392L
sg6
Nsg23
S'MOV'
p2349
sg25
S'0x126490L'
p2350
sg27
Nsba(ibclass
BInstr
p2351
(dp2352
g2
Nsg17
S'MOV     R11, R3'
p2353
sg19
S'03b0a0e1'
p2354
sg21
Vmov fp, r3
p2355
sg5
L1205396L
sg6
Nsg23
S'MOV'
p2356
sg25
S'0x126494L'
p2357
sg27
Nsba(ibclass
BInstr
p2358
(dp2359
g2
Nsg17
S'B       loc_1261B0'
p2360
sg19
S'44ffffea'
p2361
sg21
Vb #0xfffffd18
p2362
sg5
L1205400L
sg6
Nsg23
g82
sg25
S'0x126498L'
p2363
sg27
Nsbasg84
(lp2364
S'MOV R3, #0'
p2365
aS'STR R3, mem'
p2366
aS'STR R3, mem'
p2367
aS'MOV R8, R3'
p2368
aS'MOV R11, R3'
p2369
aS'B func'
p2370
asg95
Nsg5
S'0x126484L'
p2371
sg97
(lp2372
S'0x12647cL'
p2373
aS'0x126688L'
p2374
aS'0x126810L'
p2375
asg6
Nsg99
(lp2376
S'0x1261b0L'
p2377
asg103
Nsg104
Nsg105
S'd0cd50a7d3c3ecab9f6f70d983c5dfa0'
p2378
sg107
S'9f8a84fc971ece6304fd19002f2cd422'
p2379
sg109
(lp2380
g2328
ag2335
ag2342
ag2349
ag2356
ag82
asg111
Nsba(ibclass
BBasicBlock
p2381
(dp2382
g12
Nsg13
(lp2383
(ibclass
BInstr
p2384
(dp2385
g2
Nsg17
S'LDR     R2, [p7,#0x14]  ; jumptable 00126160 case 2'
p2386
sg19
S'142094e5'
p2387
sg21
Vldr r2, [r4, #0x14]
p2388
sg5
L1205404L
sg6
Nsg23
S'LDR'
p2389
sg25
S'0x12649cL'
p2390
sg27
Nsba(ibclass
BInstr
p2391
(dp2392
g2
Nsg17
S'LDMIB   R2, {R2,R3}'
p2393
sg19
S'0c0092e9'
p2394
sg21
Vldmib r2, {r2, r3}
p2395
sg5
L1205408L
sg6
Nsg23
S'LDM'
p2396
sg25
S'0x1264a0L'
p2397
sg27
Nsba(ibclass
BInstr
p2398
(dp2399
g2
Nsg17
S'LDR     R8, [R3,#0xC]'
p2400
sg19
S'0c8093e5'
p2401
sg21
Vldr r8, [r3, #0xc]
p2402
sg5
L1205412L
sg6
Nsg23
S'LDR'
p2403
sg25
S'0x1264a4L'
p2404
sg27
Nsba(ibclass
BInstr
p2405
(dp2406
g2
Nsg17
S'LDR     R3, [R3,#4]'
p2407
sg19
S'043093e5'
p2408
sg21
Vldr r3, [r3, #4]
p2409
sg5
L1205416L
sg6
Nsg23
S'LDR'
p2410
sg25
S'0x1264a8L'
p2411
sg27
Nsba(ibclass
BInstr
p2412
(dp2413
g2
Nsg17
S'CMP     evp_cipher, #0'
p2414
sg19
S'000058e3'
p2415
sg21
Vcmp r8, #0
p2416
sg5
L1205420L
sg6
Nsg23
S'CMP'
p2417
sg25
S'0x1264acL'
p2418
sg27
Nsba(ibclass
BInstr
p2419
(dp2420
g2
Nsg17
S'MOVNE   R10, #0'
p2421
sg19
S'00a0a013'
p2422
sg21
Vmovne sl, #0
p2423
sg5
L1205424L
sg6
Nsg23
S'MOV'
p2424
sg25
S'0x1264b0L'
p2425
sg27
Nsba(ibclass
BInstr
p2426
(dp2427
g2
Nsg17
S'STR     R2, [SP,#0xB0+st]'
p2428
sg19
S'14208de5'
p2429
sg21
Vstr r2, [sp, #0x14]
p2430
sg5
L1205428L
sg6
Nsg23
S'STR'
p2431
sg25
S'0x1264b4L'
p2432
sg27
Nsba(ibclass
BInstr
p2433
(dp2434
g2
Nsg17
S'STR     R3, [SP,#0xB0+outlen]'
p2435
sg19
S'0c308de5'
p2436
sg21
Vstr r3, [sp, #0xc]
p2437
sg5
L1205432L
sg6
Nsg23
S'STR'
p2438
sg25
S'0x1264b8L'
p2439
sg27
Nsba(ibclass
BInstr
p2440
(dp2441
g2
Nsg17
S'STRNE   R10, [SP,#0xB0+var_A0]'
p2442
sg19
S'10a08d15'
p2443
sg21
Vstrne sl, [sp, #0x10]
p2444
sg5
L1205436L
sg6
Nsg23
S'STR'
p2445
sg25
S'0x1264bcL'
p2446
sg27
Nsba(ibclass
BInstr
p2447
(dp2448
g2
Nsg17
S'MOVNE   R11, R10'
p2449
sg19
S'0ab0a011'
p2450
sg21
Vmovne fp, sl
p2451
sg5
L1205440L
sg6
Nsg23
S'MOV'
p2452
sg25
S'0x1264c0L'
p2453
sg27
Nsba(ibclass
BInstr
p2454
(dp2455
g2
Nsg17
S'BNE     loc_1261B0'
p2456
sg19
S'39ffff1a'
p2457
sg21
Vbne #0xfffffcec
p2458
sg5
L1205444L
sg6
Nsg23
g82
sg25
S'0x1264c4L'
p2459
sg27
Nsbasg84
(lp2460
S'LDR R2, mem'
p2461
aS'LDMIB R2, {R2,R3}'
p2462
aS'LDR R8, mem'
p2463
aS'LDR R3, mem'
p2464
aS'CMP evp_cipher, #0'
p2465
aS'MOVNE R10, #0'
p2466
aS'STR R2, mem'
p2467
aS'STR R3, mem'
p2468
aS'STRNE R10, mem'
p2469
aS'MOVNE R11, R10'
p2470
aS'BNE func'
p2471
asg95
Nsg5
S'0x12649cL'
p2472
sg97
(lp2473
S'0x12614cL'
p2474
aS'0x126170L'
p2475
asg6
Nsg99
(lp2476
S'0x1261b0L'
p2477
aS'0x1264c8L'
p2478
asg103
Nsg104
Nsg105
S'1bf810a28c8b3c86378ebba475dd38f0'
p2479
sg107
S'25422225244f853b48f1e418dce23942'
p2480
sg109
(lp2481
g2389
ag2396
ag2403
ag2410
ag2417
ag2424
ag2431
ag2438
ag2445
ag2452
ag82
asg111
Nsba(ibclass
BBasicBlock
p2482
(dp2483
g12
Nsg13
(lp2484
(ibclass
BInstr
p2485
(dp2486
g2
Nsg17
S'LDR     R3, =(aPk7_doit_c - 0x18A000)'
p2487
sg19
S'74339fe5'
p2488
sg21
Vldr r3, [pc, #0x374]
p2489
sg5
L1205448L
sg6
Nsg23
S'LDR'
p2490
sg25
S'0x1264c8L'
p2491
sg27
Nsba(ibclass
BInstr
p2492
(dp2493
g2
Nsg17
S'LDR     R12, =0x132'
p2494
sg19
S'74c39fe5'
p2495
sg21
Vldr ip, [pc, #0x374]
p2496
sg5
L1205452L
sg6
Nsg23
S'LDR'
p2497
sg25
S'0x1264ccL'
p2498
sg27
Nsba(ibclass
BInstr
p2499
(dp2500
g2
Nsg17
S'ADD     R3, R5, R3      ; "pk7_doit.c"'
p2501
sg19
S'033085e0'
p2502
sg21
Vadd r3, r5, r3
p2503
sg5
L1205456L
sg6
Nsg23
S'ADD'
p2504
sg25
S'0x1264d0L'
p2505
sg27
Nsba(ibclass
BInstr
p2506
(dp2507
g2
Nsg17
S'MOV     R0, #0x21       ; lib'
p2508
sg19
S'2100a0e3'
p2509
sg21
Vmov r0, #0x21
p2510
sg5
L1205460L
sg6
Nsg23
S'MOV'
p2511
sg25
S'0x1264d4L'
p2512
sg27
Nsba(ibclass
BInstr
p2513
(dp2514
g2
Nsg17
S'MOV     R1, #0x69       ; func'
p2515
sg19
S'6910a0e3'
p2516
sg21
Vmov r1, #0x69
p2517
sg5
L1205464L
sg6
Nsg23
S'MOV'
p2518
sg25
S'0x1264d8L'
p2519
sg27
Nsba(ibclass
BInstr
p2520
(dp2521
g2
Nsg17
S'MOV     R2, #0x74       ; reason'
p2522
sg19
S'7420a0e3'
p2523
sg21
Vmov r2, #0x74
p2524
sg5
L1205468L
sg6
Nsg23
S'MOV'
p2525
sg25
S'0x1264dcL'
p2526
sg27
Nsba(ibclass
BInstr
p2527
(dp2528
g2
Nsg17
S'STR     R12, [SP,#0xB0+iv]; line'
p2529
sg19
S'00c08de5'
p2530
sg21
Vstr ip, [sp]
p2531
sg5
L1205472L
sg6
Nsg23
S'STR'
p2532
sg25
S'0x1264e0L'
p2533
sg27
Nsba(ibclass
BInstr
p2534
(dp2535
g2
Nsg17
S'MOV     R7, evp_cipher'
p2536
sg19
S'0870a0e1'
p2537
sg21
Vmov r7, r8
p2538
sg5
L1205476L
sg6
Nsg23
S'MOV'
p2539
sg25
S'0x1264e4L'
p2540
sg27
Nsba(ibclass
BInstr
p2541
(dp2542
g2
Nsg17
S'BL      ERR_put_error'
p2543
sg19
S'61affeeb'
p2544
sg21
Vbl #0xfffabd8c
p2545
sg5
L1205480L
sg6
Nsg23
S'BL'
p2546
sg25
S'0x1264e8L'
p2547
sg27
Nsba(ibclass
BInstr
p2548
(dp2549
g2
Nsg17
S'B       loc_126570'
p2550
sg19
S'1f0000ea'
p2551
sg21
Vb #0x84
p2552
sg5
L1205484L
sg6
Nsg23
g82
sg25
S'0x1264ecL'
p2553
sg27
Nsbasg84
(lp2554
S'LDR R3, =(aPk7_doit_c - 0x18A000)'
p2555
aS'LDR R12, =0x132'
p2556
aS'ADD R3, R5, R3'
p2557
aS'MOV R0, #0x21'
p2558
aS'MOV R1, #0x69'
p2559
aS'MOV R2, #0x74'
p2560
aS'STR R12, mem'
p2561
aS'MOV R7, evp_cipher'
p2562
aS'BL ERR_put_error'
p2563
aS'B func'
p2564
asg95
Nsg5
S'0x1264c8L'
p2565
sg97
(lp2566
S'0x12649cL'
p2567
asg6
Nsg99
(lp2568
S'0x126570L'
p2569
asg103
Nsg104
Nsg105
S'fe27006a92427acdbaf2f54381e5307e'
p2570
sg107
S'8dd9da282cffc76589c3fcdb46830dca'
p2571
sg109
(lp2572
g2490
ag2497
ag2504
ag2511
ag2518
ag2525
ag2532
ag2539
ag2546
ag82
asg111
Nsba(ibclass
BBasicBlock
p2573
(dp2574
g12
Nsg13
(lp2575
(ibclass
BInstr
p2576
(dp2577
g2
Nsg17
S'LDR     R3, [p7,#0x14]  ; jumptable 00126160 case 3'
p2578
sg19
S'143094e5'
p2579
sg21
Vldr r3, [r4, #0x14]
p2580
sg5
L1205488L
sg6
Nsg23
S'LDR'
p2581
sg25
S'0x1264f0L'
p2582
sg27
Nsba(ibclass
BInstr
p2583
(dp2584
g2
Nsg17
S'LDR     R2, [R3,#0x14]'
p2585
sg19
S'142093e5'
p2586
sg21
Vldr r2, [r3, #0x14]
p2587
sg5
L1205492L
sg6
Nsg23
S'LDR'
p2588
sg25
S'0x1264f4L'
p2589
sg27
Nsba(ibclass
BInstr
p2590
(dp2591
g2
Nsg17
S'LDR     R12, [R3,#0x18]'
p2592
sg19
S'18c093e5'
p2593
sg21
Vldr ip, [r3, #0x18]
p2594
sg5
L1205496L
sg6
Nsg23
S'LDR'
p2595
sg25
S'0x1264f8L'
p2596
sg27
Nsba(ibclass
BInstr
p2597
(dp2598
g2
Nsg17
S'LDR     R8, [R2,#0xC]'
p2599
sg19
S'0c8092e5'
p2600
sg21
Vldr r8, [r2, #0xc]
p2601
sg5
L1205500L
sg6
Nsg23
S'LDR'
p2602
sg25
S'0x1264fcL'
p2603
sg27
Nsba(ibclass
BInstr
p2604
(dp2605
g2
Nsg17
S'LDR     R2, [R2,#4]'
p2606
sg19
S'042092e5'
p2607
sg21
Vldr r2, [r2, #4]
p2608
sg5
L1205504L
sg6
Nsg23
S'LDR'
p2609
sg25
S'0x126500L'
p2610
sg27
Nsba(ibclass
BInstr
p2611
(dp2612
g2
Nsg17
S'CMP     evp_cipher, #0'
p2613
sg19
S'000058e3'
p2614
sg21
Vcmp r8, #0
p2615
sg5
L1205508L
sg6
Nsg23
S'CMP'
p2616
sg25
S'0x126504L'
p2617
sg27
Nsba(ibclass
BInstr
p2618
(dp2619
g2
Nsg17
S'MOVNE   R1, #0'
p2620
sg19
S'0010a013'
p2621
sg21
Vmovne r1, #0
p2622
sg5
L1205512L
sg6
Nsg23
S'MOV'
p2623
sg25
S'0x126508L'
p2624
sg27
Nsba(ibclass
BInstr
p2625
(dp2626
g2
Nsg17
S'STR     R12, [SP,#0xB0+st]'
p2627
sg19
S'14c08de5'
p2628
sg21
Vstr ip, [sp, #0x14]
p2629
sg5
L1205516L
sg6
Nsg23
S'STR'
p2630
sg25
S'0x12650cL'
p2631
sg27
Nsba(ibclass
BInstr
p2632
(dp2633
g2
Nsg17
S'LDR     R10, [R3,#4]'
p2634
sg19
S'04a093e5'
p2635
sg21
Vldr sl, [r3, #4]
p2636
sg5
L1205520L
sg6
Nsg23
S'LDR'
p2637
sg25
S'0x126510L'
p2638
sg27
Nsba(ibclass
BInstr
p2639
(dp2640
g2
Nsg17
S'STR     R2, [SP,#0xB0+outlen]'
p2641
sg19
S'0c208de5'
p2642
sg21
Vstr r2, [sp, #0xc]
p2643
sg5
L1205524L
sg6
Nsg23
S'STR'
p2644
sg25
S'0x126514L'
p2645
sg27
Nsba(ibclass
BInstr
p2646
(dp2647
g2
Nsg17
S'STRNE   R1, [SP,#0xB0+var_A0]'
p2648
sg19
S'10108d15'
p2649
sg21
Vstrne r1, [sp, #0x10]
p2650
sg5
L1205528L
sg6
Nsg23
S'STR'
p2651
sg25
S'0x126518L'
p2652
sg27
Nsba(ibclass
BInstr
p2653
(dp2654
g2
Nsg17
S'MOVNE   R11, R1'
p2655
sg19
S'01b0a011'
p2656
sg21
Vmovne fp, r1
p2657
sg5
L1205532L
sg6
Nsg23
S'MOV'
p2658
sg25
S'0x12651cL'
p2659
sg27
Nsba(ibclass
BInstr
p2660
(dp2661
g2
Nsg17
S'BNE     loc_1261B0'
p2662
sg19
S'22ffff1a'
p2663
sg21
Vbne #0xfffffc90
p2664
sg5
L1205536L
sg6
Nsg23
g82
sg25
S'0x126520L'
p2665
sg27
Nsbasg84
(lp2666
S'LDR R3, mem'
p2667
aS'LDR R2, mem'
p2668
aS'LDR R12, mem'
p2669
aS'LDR R8, mem'
p2670
aS'LDR R2, mem'
p2671
aS'CMP evp_cipher, #0'
p2672
aS'MOVNE R1, #0'
p2673
aS'STR R12, mem'
p2674
aS'LDR R10, mem'
p2675
aS'STR R2, mem'
p2676
aS'STRNE R1, mem'
p2677
aS'MOVNE R11, R1'
p2678
aS'BNE func'
p2679
asg95
Nsg5
S'0x1264f0L'
p2680
sg97
(lp2681
S'0x12614cL'
p2682
aS'0x126174L'
p2683
asg6
Nsg99
(lp2684
S'0x1261b0L'
p2685
aS'0x126524L'
p2686
asg103
Nsg104
Nsg105
S'2f979dddb4cf4705478518486e5f1035'
p2687
sg107
S'619083bebda46501240db62dc7830b8b'
p2688
sg109
(lp2689
g2581
ag2588
ag2595
ag2602
ag2609
ag2616
ag2623
ag2630
ag2637
ag2644
ag2651
ag2658
ag82
asg111
Nsba(ibclass
BBasicBlock
p2690
(dp2691
g12
Nsg13
(lp2692
(ibclass
BInstr
p2693
(dp2694
g2
Nsg17
S'LDR     R3, =(aPk7_doit_c - 0x18A000)'
p2695
sg19
S'18339fe5'
p2696
sg21
Vldr r3, [pc, #0x318]
p2697
sg5
L1205540L
sg6
Nsg23
S'LDR'
p2698
sg25
S'0x126524L'
p2699
sg27
Nsba(ibclass
BInstr
p2700
(dp2701
g2
Nsg17
S'LDR     R12, =0x129'
p2702
sg19
S'1cc39fe5'
p2703
sg21
Vldr ip, [pc, #0x31c]
p2704
sg5
L1205544L
sg6
Nsg23
S'LDR'
p2705
sg25
S'0x126528L'
p2706
sg27
Nsba(ibclass
BInstr
p2707
(dp2708
g2
Nsg17
S'ADD     R3, R5, R3      ; "pk7_doit.c"'
p2709
sg19
S'033085e0'
p2710
sg21
Vadd r3, r5, r3
p2711
sg5
L1205548L
sg6
Nsg23
S'ADD'
p2712
sg25
S'0x12652cL'
p2713
sg27
Nsba(ibclass
BInstr
p2714
(dp2715
g2
Nsg17
S'MOV     R0, #0x21       ; lib'
p2716
sg19
S'2100a0e3'
p2717
sg21
Vmov r0, #0x21
p2718
sg5
L1205552L
sg6
Nsg23
S'MOV'
p2719
sg25
S'0x126530L'
p2720
sg27
Nsba(ibclass
BInstr
p2721
(dp2722
g2
Nsg17
S'MOV     R1, #0x69       ; func'
p2723
sg19
S'6910a0e3'
p2724
sg21
Vmov r1, #0x69
p2725
sg5
L1205556L
sg6
Nsg23
S'MOV'
p2726
sg25
S'0x126534L'
p2727
sg27
Nsba(ibclass
BInstr
p2728
(dp2729
g2
Nsg17
S'MOV     R2, #0x74       ; reason'
p2730
sg19
S'7420a0e3'
p2731
sg21
Vmov r2, #0x74
p2732
sg5
L1205560L
sg6
Nsg23
S'MOV'
p2733
sg25
S'0x126538L'
p2734
sg27
Nsba(ibclass
BInstr
p2735
(dp2736
g2
Nsg17
S'STR     R12, [SP,#0xB0+iv]; line'
p2737
sg19
S'00c08de5'
p2738
sg21
Vstr ip, [sp]
p2739
sg5
L1205564L
sg6
Nsg23
S'STR'
p2740
sg25
S'0x12653cL'
p2741
sg27
Nsba(ibclass
BInstr
p2742
(dp2743
g2
Nsg17
S'MOV     R7, evp_cipher'
p2744
sg19
S'0870a0e1'
p2745
sg21
Vmov r7, r8
p2746
sg5
L1205568L
sg6
Nsg23
S'MOV'
p2747
sg25
S'0x126540L'
p2748
sg27
Nsba(ibclass
BInstr
p2749
(dp2750
g2
Nsg17
S'BL      ERR_put_error'
p2751
sg19
S'4aaffeeb'
p2752
sg21
Vbl #0xfffabd30
p2753
sg5
L1205572L
sg6
Nsg23
S'BL'
p2754
sg25
S'0x126544L'
p2755
sg27
Nsba(ibclass
BInstr
p2756
(dp2757
g2
Nsg17
S'B       loc_126570'
p2758
sg19
S'080000ea'
p2759
sg21
Vb #0x28
p2760
sg5
L1205576L
sg6
Nsg23
g82
sg25
S'0x126548L'
p2761
sg27
Nsbasg84
(lp2762
S'LDR R3, =(aPk7_doit_c - 0x18A000)'
p2763
aS'LDR R12, =0x129'
p2764
aS'ADD R3, R5, R3'
p2765
aS'MOV R0, #0x21'
p2766
aS'MOV R1, #0x69'
p2767
aS'MOV R2, #0x74'
p2768
aS'STR R12, mem'
p2769
aS'MOV R7, evp_cipher'
p2770
aS'BL ERR_put_error'
p2771
aS'B func'
p2772
asg95
Nsg5
S'0x126524L'
p2773
sg97
(lp2774
S'0x1264f0L'
p2775
asg6
Nsg99
(lp2776
S'0x126570L'
p2777
asg103
Nsg104
Nsg105
S'fe27006a92427acdbaf2f54381e5307e'
p2778
sg107
S'df39b73bc68ef6309e89b234572d08a1'
p2779
sg109
(lp2780
g2698
ag2705
ag2712
ag2719
ag2726
ag2733
ag2740
ag2747
ag2754
ag82
asg111
Nsba(ibclass
BBasicBlock
p2781
(dp2782
g12
Nsg13
(lp2783
(ibclass
BInstr
p2784
(dp2785
g2
Nsg17
S'LDR     R3, =(aPk7_doit_c - 0x18A000); jumptable 00126160 default case'
p2786
sg19
S'f0329fe5'
p2787
sg21
Vldr r3, [pc, #0x2f0]
p2788
sg5
L1205580L
sg6
Nsg23
S'LDR'
p2789
sg25
S'0x12654cL'
p2790
sg27
Nsba(ibclass
BInstr
p2791
(dp2792
g2
Nsg17
S'LDR     R12, =0x13D'
p2793
sg19
S'f8c29fe5'
p2794
sg21
Vldr ip, [pc, #0x2f8]
p2795
sg5
L1205584L
sg6
Nsg23
S'LDR'
p2796
sg25
S'0x126550L'
p2797
sg27
Nsba(ibclass
BInstr
p2798
(dp2799
g2
Nsg17
S'ADD     R3, R5, R3      ; "pk7_doit.c"'
p2800
sg19
S'033085e0'
p2801
sg21
Vadd r3, r5, r3
p2802
sg5
L1205588L
sg6
Nsg23
S'ADD'
p2803
sg25
S'0x126554L'
p2804
sg27
Nsba(ibclass
BInstr
p2805
(dp2806
g2
Nsg17
S'MOV     R0, #0x21       ; lib'
p2807
sg19
S'2100a0e3'
p2808
sg21
Vmov r0, #0x21
p2809
sg5
L1205592L
sg6
Nsg23
S'MOV'
p2810
sg25
S'0x126558L'
p2811
sg27
Nsba(ibclass
BInstr
p2812
(dp2813
g2
Nsg17
S'MOV     R1, #0x69       ; func'
p2814
sg19
S'6910a0e3'
p2815
sg21
Vmov r1, #0x69
p2816
sg5
L1205596L
sg6
Nsg23
S'MOV'
p2817
sg25
S'0x12655cL'
p2818
sg27
Nsba(ibclass
BInstr
p2819
(dp2820
g2
Nsg17
S'MOV     R2, #0x70       ; reason'
p2821
sg19
S'7020a0e3'
p2822
sg21
Vmov r2, #0x70
p2823
sg5
L1205600L
sg6
Nsg23
S'MOV'
p2824
sg25
S'0x126560L'
p2825
sg27
Nsba(ibclass
BInstr
p2826
(dp2827
g2
Nsg17
S'STR     R12, [SP,#0xB0+iv]; line'
p2828
sg19
S'00c08de5'
p2829
sg21
Vstr ip, [sp]
p2830
sg5
L1205604L
sg6
Nsg23
S'STR'
p2831
sg25
S'0x126564L'
p2832
sg27
Nsba(ibclass
BInstr
p2833
(dp2834
g2
Nsg17
S'BL      ERR_put_error'
p2835
sg19
S'41affeeb'
p2836
sg21
Vbl #0xfffabd0c
p2837
sg5
L1205608L
sg6
Nsg23
S'BL'
p2838
sg25
S'0x126568L'
p2839
sg27
Nsba(ibclass
BInstr
p2840
(dp2841
g2
Nsg17
S'MOV     R7, #0'
p2842
sg19
S'0070a0e3'
p2843
sg21
Vmov r7, #0
p2844
sg5
L1205612L
sg6
Nsg23
S'MOV'
p2845
sg25
S'0x12656cL'
p2846
sg27
Nsbasg84
(lp2847
S'LDR R3, =(aPk7_doit_c - 0x18A000)'
p2848
aS'LDR R12, =0x13D'
p2849
aS'ADD R3, R5, R3'
p2850
aS'MOV R0, #0x21'
p2851
aS'MOV R1, #0x69'
p2852
aS'MOV R2, #0x70'
p2853
aS'STR R12, mem'
p2854
aS'BL ERR_put_error'
p2855
aS'MOV R7, #0'
p2856
asg95
Nsg5
S'0x12654cL'
p2857
sg97
(lp2858
S'0x12614cL'
p2859
aS'0x126164L'
p2860
asg6
Nsg99
(lp2861
S'0x126570L'
p2862
asg103
Nsg104
Nsg105
S'c59b2fe6b3451e1d9932e0fd597556e8'
p2863
sg107
S'47a1b457a03c90cd83fe6ae488355539'
p2864
sg109
(lp2865
g2789
ag2796
ag2803
ag2810
ag2817
ag2824
ag2831
ag2838
ag2845
asg111
Nsba(ibclass
BBasicBlock
p2866
(dp2867
g12
Nsg13
(lp2868
(ibclass
BInstr
p2869
(dp2870
g2
Nsg17
S'LDR     R0, [SP,#0xB0+pbio]; bio'
p2871
sg19
S'84009de5'
p2872
sg21
Vldr r0, [sp, #0x84]
p2873
sg5
L1205616L
sg6
Nsg23
S'LDR'
p2874
sg25
S'0x126570L'
p2875
sg27
Nsba(ibclass
BInstr
p2876
(dp2877
g2
Nsg17
S'CMP     R0, #0'
p2878
sg19
S'000050e3'
p2879
sg21
Vcmp r0, #0
p2880
sg5
L1205620L
sg6
Nsg23
S'CMP'
p2881
sg25
S'0x126574L'
p2882
sg27
Nsba(ibclass
BInstr
p2883
(dp2884
g2
Nsg17
S'BLNE    BIO_free_all'
p2885
sg19
S'5c74fe1b'
p2886
sg21
Vblne #0xfff9d178
p2887
sg5
L1205624L
sg6
Nsg23
S'BL'
p2888
sg25
S'0x126578L'
p2889
sg27
Nsba(ibclass
BInstr
p2890
(dp2891
g2
Nsg17
S'CMP     btmp, #0'
p2892
sg19
S'000057e3'
p2893
sg21
Vcmp r7, #0
p2894
sg5
L1205628L
sg6
Nsg23
S'CMP'
p2895
sg25
S'0x12657cL'
p2896
sg27
Nsba(ibclass
BInstr
p2897
(dp2898
g2
Nsg17
S'MOVEQ   rsk, btmp'
p2899
sg19
S'0760a001'
p2900
sg21
Vmoveq r6, r7
p2901
sg5
L1205632L
sg6
Nsg23
S'MOV'
p2902
sg25
S'0x126580L'
p2903
sg27
Nsba(ibclass
BInstr
p2904
(dp2905
g2
Nsg17
S'BEQ     loc_126594'
p2906
sg19
S'0200000a'
p2907
sg21
Vbeq #0x10
p2908
sg5
L1205636L
sg6
Nsg23
g82
sg25
S'0x126584L'
p2909
sg27
Nsbasg84
(lp2910
S'LDR R0, mem'
p2911
aS'CMP R0, #0'
p2912
aS'BLNE BIO_free_regl'
p2913
aS'CMP btmp, #0'
p2914
aS'MOVEQ rsk, btmp'
p2915
aS'BEQ func'
p2916
asg95
Nsg5
S'0x126570L'
p2917
sg97
(lp2918
S'0x126268L'
p2919
aS'0x12627cL'
p2920
aS'0x1262a8L'
p2921
aS'0x1262c0L'
p2922
aS'0x126300L'
p2923
aS'0x1263d4L'
p2924
aS'0x126400L'
p2925
aS'0x126420L'
p2926
aS'0x1264c8L'
p2927
aS'0x126524L'
p2928
aS'0x12654cL'
p2929
aS'0x1265a4L'
p2930
aS'0x1265f8L'
p2931
aS'0x1266c0L'
p2932
aS'0x1267e0L'
p2933
asg6
Nsg99
(lp2934
S'0x126588L'
p2935
aS'0x126594L'
p2936
asg103
Nsg104
Nsg105
S'e0572a68625a21e7501d1d645aeba08c'
p2937
sg107
S'277b8b1cf240f903608e511ebd42ef87'
p2938
sg109
(lp2939
g2874
ag2881
ag2888
ag2895
ag2902
ag82
asg111
Nsba(ibclass
BBasicBlock
p2940
(dp2941
g12
Nsg13
(lp2942
(ibclass
BInstr
p2943
(dp2944
g2
Nsg17
S'MOV     R0, btmp        ; bio'
p2945
sg19
S'0700a0e1'
p2946
sg21
Vmov r0, r7
p2947
sg5
L1205640L
sg6
Nsg23
S'MOV'
p2948
sg25
S'0x126588L'
p2949
sg27
Nsba(ibclass
BInstr
p2950
(dp2951
g2
Nsg17
S'BL      BIO_free_all'
p2952
sg19
S'5774feeb'
p2953
sg21
Vbl #0xfff9d164
p2954
sg5
L1205644L
sg6
Nsg23
S'BL'
p2955
sg25
S'0x12658cL'
p2956
sg27
Nsba(ibclass
BInstr
p2957
(dp2958
g2
Nsg17
S'MOV     bio, #0'
p2959
sg19
S'0060a0e3'
p2960
sg21
Vmov r6, #0
p2961
sg5
L1205648L
sg6
Nsg23
S'MOV'
p2962
sg25
S'0x126590L'
p2963
sg27
Nsbasg84
(lp2964
S'MOV R0, btmp'
p2965
aS'BL BIO_free_regl'
p2966
aS'MOV bio, #0'
p2967
asg95
Nsg5
S'0x126588L'
p2968
sg97
(lp2969
S'0x126570L'
p2970
asg6
Nsg99
(lp2971
S'0x126594L'
p2972
asg103
Nsg104
Nsg105
S'f5aca26e8f695df15220ab59afc1e815'
p2973
sg107
S'0d3a47135959ffa058e59de05fd4ee3d'
p2974
sg109
(lp2975
g2948
ag2955
ag2962
asg111
Nsba(ibclass
BBasicBlock
p2976
(dp2977
g12
Nsg13
(lp2978
(ibclass
BInstr
p2979
(dp2980
g2
Nsg17
S'MOV     R0, bio'
p2981
sg19
S'0600a0e1'
p2982
sg21
Vmov r0, r6
p2983
sg5
L1205652L
sg6
Nsg23
S'MOV'
p2984
sg25
S'0x126594L'
p2985
sg27
Nsba(ibclass
BInstr
p2986
(dp2987
g2
Nsg17
S'ADD     SP, SP, #0x8C'
p2988
sg19
S'8cd08de2'
p2989
sg21
Vadd sp, sp, #0x8c
p2990
sg5
L1205656L
sg6
Nsg23
S'ADD'
p2991
sg25
S'0x126598L'
p2992
sg27
Nsba(ibclass
BInstr
p2993
(dp2994
g2
Nsg17
S'LDMFD   SP!, {p7-xa,LR}'
p2995
sg19
S'f04fbde8'
p2996
sg21
Vpop {r4, r5, r6, r7, r8, sb, sl, fp, lr}
p2997
sg5
L1205660L
sg6
Nsg23
S'LDM'
p2998
sg25
S'0x12659cL'
p2999
sg27
Nsba(ibclass
BInstr
p3000
(dp3001
g2
Nsg17
S'BX      LR'
p3002
sg19
S'1eff2fe1'
p3003
sg21
Vbx lr
p3004
sg5
L1205664L
sg6
Nsg23
S'BX'
p3005
sg25
S'0x1265a0L'
p3006
sg27
Nsbasg84
(lp3007
S'MOV R0, bio'
p3008
aS'ADD SP, SP, #0x8C'
p3009
aS'LDMFD SP!, {p7-xa,LR}'
p3010
aS'BX LR'
p3011
asg95
Nsg5
S'0x126594L'
p3012
sg97
(lp3013
S'0x126570L'
p3014
aS'0x126588L'
p3015
aS'0x1265dcL'
p3016
aS'0x1265e8L'
p3017
aS'0x12661cL'
p3018
aS'0x1266fcL'
p3019
asg6
Nsg99
(lp3020
sg103
Nsg104
Nsg105
S'bc984d627a05f387655964404c76526b'
p3021
sg107
S'96ad7e1e31b7957521dee40a33cdaa86'
p3022
sg109
(lp3023
g2984
ag2991
ag2998
ag3005
asg111
Nsba(ibclass
BBasicBlock
p3024
(dp3025
g12
Nsg13
(lp3026
(ibclass
BInstr
p3027
(dp3028
g2
Nsg17
S'MOV     btmp, #0'
p3029
sg19
S'0070a0e3'
p3030
sg21
Vmov r7, #0
p3031
sg5
L1205668L
sg6
Nsg23
S'MOV'
p3032
sg25
S'0x1265a4L'
p3033
sg27
Nsba(ibclass
BInstr
p3034
(dp3035
g2
Nsg17
S'B       loc_126570'
p3036
sg19
S'f0ffffea'
p3037
sg21
Vb #0xffffffc8
p3038
sg5
L1205672L
sg6
Nsg23
g82
sg25
S'0x1265a8L'
p3039
sg27
Nsbasg84
(lp3040
S'MOV btmp, #0'
p3041
aS'B func'
p3042
asg95
Nsg5
S'0x1265a4L'
p3043
sg97
(lp3044
S'0x1261bcL'
p3045
aS'0x1261f8L'
p3046
aS'0x126764L'
p3047
asg6
Nsg99
(lp3048
S'0x126570L'
p3049
asg103
Nsg104
Nsg105
S'b6c4e95ccfe77a95e4cf2019dd3d5574'
p3050
sg107
S'efe1d23dbafd425cba07a5dace1dcdbb'
p3051
sg109
(lp3052
g3032
ag82
asg111
Nsba(ibclass
BBasicBlock
p3053
(dp3054
g12
Nsg13
(lp3055
(ibclass
BInstr
p3056
(dp3057
g2
Nsg17
S'MOV     R0, R11         ; ptr'
p3058
sg19
S'0b00a0e1'
p3059
sg21
Vmov r0, fp
p3060
sg5
L1205676L
sg6
Nsg23
S'MOV'
p3061
sg25
S'0x1265acL'
p3062
sg27
Nsba(ibclass
BInstr
p3063
(dp3064
g2
Nsg17
S'LDR     R1, [SP,#0xB0+inlen]; len'
p3065
sg19
S'18109de5'
p3066
sg21
Vldr r1, [sp, #0x18]
p3067
sg5
L1205680L
sg6
Nsg23
S'LDR'
p3068
sg25
S'0x1265b0L'
p3069
sg27
Nsba(ibclass
BInstr
p3070
(dp3071
g2
Nsg17
S'LDR     p7, [SP,#0xB0+var_90]'
p3072
sg19
S'20409de5'
p3073
sg21
Vldr r4, [sp, #0x20]
p3074
sg5
L1205684L
sg6
Nsg23
S'LDR'
p3075
sg25
S'0x1265b4L'
p3076
sg27
Nsba(ibclass
BInstr
p3077
(dp3078
g2
Nsg17
S'LDR     rsk, [SP,#0xB0+var_8C]'
p3079
sg19
S'24609de5'
p3080
sg21
Vldr r6, [sp, #0x24]
p3081
sg5
L1205688L
sg6
Nsg23
S'LDR'
p3082
sg25
S'0x1265b8L'
p3083
sg27
Nsba(ibclass
BInstr
p3084
(dp3085
g2
Nsg17
S'BL      OPENSSL_cleanse'
p3086
sg19
S'538cfceb'
p3087
sg21
Vbl #0xfff23154
p3088
sg5
L1205692L
sg6
Nsg23
S'BL'
p3089
sg25
S'0x1265bcL'
p3090
sg27
Nsba(ibclass
BInstr
p3091
(dp3092
g2
Nsg17
S'LDR     R0, [SP,#0xB0+pbio]; b'
p3093
sg19
S'84009de5'
p3094
sg21
Vldr r0, [sp, #0x84]
p3095
sg5
L1205696L
sg6
Nsg23
S'LDR'
p3096
sg25
S'0x1265c0L'
p3097
sg27
Nsba(ibclass
BInstr
p3098
(dp3099
g2
Nsg17
S'CMP     R0, #0'
p3100
sg19
S'000050e3'
p3101
sg21
Vcmp r0, #0
p3102
sg5
L1205700L
sg6
Nsg23
S'CMP'
p3103
sg25
S'0x1265c4L'
p3104
sg27
Nsba(ibclass
BInstr
p3105
(dp3106
g2
Nsg17
S'STREQ   btmp, [SP,#0xB0+pbio]'
p3107
sg19
S'84708d05'
p3108
sg21
Vstreq r7, [sp, #0x84]
p3109
sg5
L1205704L
sg6
Nsg23
S'STR'
p3110
sg25
S'0x1265c8L'
p3111
sg27
Nsba(ibclass
BInstr
p3112
(dp3113
g2
Nsg17
S'MOVNE   R1, btmp        ; bio'
p3114
sg19
S'0710a011'
p3115
sg21
Vmovne r1, r7
p3116
sg5
L1205708L
sg6
Nsg23
S'MOV'
p3117
sg25
S'0x1265ccL'
p3118
sg27
Nsba(ibclass
BInstr
p3119
(dp3120
g2
Nsg17
S'BLNE    BIO_push'
p3121
sg19
S'9572fe1b'
p3122
sg21
Vblne #0xfff9ca5c
p3123
sg5
L1205712L
sg6
Nsg23
S'BL'
p3124
sg25
S'0x1265d0L'
p3125
sg27
Nsbasg84
(lp3126
S'MOV R0, R11'
p3127
aS'LDR R1, mem'
p3128
aS'LDR p7, mem'
p3129
aS'LDR rsk, mem'
p3130
aS'BL OPENSSL_regeanse'
p3131
aS'LDR R0, mem'
p3132
aS'CMP R0, #0'
p3133
aS'STREQ btmp, mem'
p3134
aS'MOVNE R1, btmp'
p3135
aS'BLNE BIO_push'
p3136
asg95
Nsg5
S'0x1265acL'
p3137
sg97
(lp3138
S'0x1263f0L'
p3139
asg6
Nsg99
(lp3140
S'0x1265d4L'
p3141
asg103
Nsg104
Nsg105
S'1dce07d23e17fdc0ca63b03416c5667b'
p3142
sg107
S'7f255aefe522e9d3e18468f6da586b4f'
p3143
sg109
(lp3144
g3061
ag3068
ag3075
ag3082
ag3089
ag3096
ag3103
ag3110
ag3117
ag3124
asg111
Nsba(ibclass
BBasicBlock
p3145
(dp3146
g12
Nsg13
(lp3147
(ibclass
BInstr
p3148
(dp3149
g2
Nsg17
S'CMP     bio, #0'
p3150
sg19
S'000056e3'
p3151
sg21
Vcmp r6, #0
p3152
sg5
L1205716L
sg6
Nsg23
S'CMP'
p3153
sg25
S'0x1265d4L'
p3154
sg27
Nsba(ibclass
BInstr
p3155
(dp3156
g2
Nsg17
S'BEQ     loc_12673C'
p3157
sg19
S'5700000a'
p3158
sg21
Vbeq #0x164
p3159
sg5
L1205720L
sg6
Nsg23
g82
sg25
S'0x1265d8L'
p3160
sg27
Nsbasg84
(lp3161
S'CMP bio, #0'
p3162
aS'BEQ func'
p3163
asg95
Nsg5
S'0x1265d4L'
p3164
sg97
(lp3165
S'0x12620cL'
p3166
aS'0x1265acL'
p3167
asg6
Nsg99
(lp3168
S'0x1265dcL'
p3169
aS'0x12673cL'
p3170
asg103
Nsg104
Nsg105
S'c78fd620a449e3c979d3f3ec12d4ee88'
p3171
sg107
S'2d8d48b4997c68c8a71c4c19cc5b8897'
p3172
sg109
(lp3173
g3153
ag82
asg111
Nsba(ibclass
BBasicBlock
p3174
(dp3175
g12
Nsg13
(lp3176
(ibclass
BInstr
p3177
(dp3178
g2
Nsg17
S'LDR     R0, [SP,#0xB0+pbio]; b'
p3179
sg19
S'84009de5'
p3180
sg21
Vldr r0, [sp, #0x84]
p3181
sg5
L1205724L
sg6
Nsg23
S'LDR'
p3182
sg25
S'0x1265dcL'
p3183
sg27
Nsba(ibclass
BInstr
p3184
(dp3185
g2
Nsg17
S'CMP     R0, #0'
p3186
sg19
S'000050e3'
p3187
sg21
Vcmp r0, #0
p3188
sg5
L1205728L
sg6
Nsg23
S'CMP'
p3189
sg25
S'0x1265e0L'
p3190
sg27
Nsba(ibclass
BInstr
p3191
(dp3192
g2
Nsg17
S'BEQ     loc_126594'
p3193
sg19
S'eaffff0a'
p3194
sg21
Vbeq #0xffffffb0
p3195
sg5
L1205732L
sg6
Nsg23
g82
sg25
S'0x1265e4L'
p3196
sg27
Nsbasg84
(lp3197
S'LDR R0, mem'
p3198
aS'CMP R0, #0'
p3199
aS'BEQ func'
p3200
asg95
Nsg5
S'0x1265dcL'
p3201
sg97
(lp3202
S'0x1265d4L'
p3203
aS'0x126774L'
p3204
aS'0x1267bcL'
p3205
asg6
Nsg99
(lp3206
S'0x126594L'
p3207
aS'0x1265e8L'
p3208
asg103
Nsg104
Nsg105
S'fa4df767a85c49648339e2dc5c6807f6'
p3209
sg107
S'0297e47d64966638bae7fa6ae2c78adb'
p3210
sg109
(lp3211
g3182
ag3189
ag82
asg111
Nsba(ibclass
BBasicBlock
p3212
(dp3213
g12
Nsg13
(lp3214
(ibclass
BInstr
p3215
(dp3216
g2
Nsg17
S'MOV     R1, bio         ; bio'
p3217
sg19
S'0610a0e1'
p3218
sg21
Vmov r1, r6
p3219
sg5
L1205736L
sg6
Nsg23
S'MOV'
p3220
sg25
S'0x1265e8L'
p3221
sg27
Nsba(ibclass
BInstr
p3222
(dp3223
g2
Nsg17
S'BL      BIO_push'
p3224
sg19
S'8e72feeb'
p3225
sg21
Vbl #0xfff9ca40
p3226
sg5
L1205740L
sg6
Nsg23
S'BL'
p3227
sg25
S'0x1265ecL'
p3228
sg27
Nsba(ibclass
BInstr
p3229
(dp3230
g2
Nsg17
S'LDR     bio, [SP,#0xB0+pbio]'
p3231
sg19
S'84609de5'
p3232
sg21
Vldr r6, [sp, #0x84]
p3233
sg5
L1205744L
sg6
Nsg23
S'LDR'
p3234
sg25
S'0x1265f0L'
p3235
sg27
Nsba(ibclass
BInstr
p3236
(dp3237
g2
Nsg17
S'B       loc_126594'
p3238
sg19
S'e6ffffea'
p3239
sg21
Vb #0xffffffa0
p3240
sg5
L1205748L
sg6
Nsg23
g82
sg25
S'0x1265f4L'
p3241
sg27
Nsbasg84
(lp3242
S'MOV R1, bio'
p3243
aS'BL BIO_push'
p3244
aS'LDR bio, mem'
p3245
aS'B func'
p3246
asg95
Nsg5
S'0x1265e8L'
p3247
sg97
(lp3248
S'0x1265dcL'
p3249
asg6
Nsg99
(lp3250
S'0x126594L'
p3251
asg103
Nsg104
Nsg105
S'9f1ce39eeee51eac32156caeb04077bd'
p3252
sg107
S'f538268d64b8c426a8ab91283769b9f2'
p3253
sg109
(lp3254
g3220
ag3227
ag3234
ag82
asg111
Nsba(ibclass
BBasicBlock
p3255
(dp3256
g12
Nsg13
(lp3257
(ibclass
BInstr
p3258
(dp3259
g2
Nsg17
S'LDR     R3, =(aPk7_doit_c - 0x18A000)'
p3260
sg19
S'44329fe5'
p3261
sg21
Vldr r3, [pc, #0x244]
p3262
sg5
L1205752L
sg6
Nsg23
S'LDR'
p3263
sg25
S'0x1265f8L'
p3264
sg27
Nsba(ibclass
BInstr
p3265
(dp3266
g2
Nsg17
S'LDR     R12, =0x14F'
p3267
sg19
S'50c29fe5'
p3268
sg21
Vldr ip, [pc, #0x250]
p3269
sg5
L1205756L
sg6
Nsg23
S'LDR'
p3270
sg25
S'0x1265fcL'
p3271
sg27
Nsba(ibclass
BInstr
p3272
(dp3273
g2
Nsg17
S'ADD     R3, R5, R3      ; "pk7_doit.c"'
p3274
sg19
S'033085e0'
p3275
sg21
Vadd r3, r5, r3
p3276
sg5
L1205760L
sg6
Nsg23
S'ADD'
p3277
sg25
S'0x126600L'
p3278
sg27
Nsba(ibclass
BInstr
p3279
(dp3280
g2
Nsg17
S'MOV     R0, #0x21       ; lib'
p3281
sg19
S'2100a0e3'
p3282
sg21
Vmov r0, #0x21
p3283
sg5
L1205764L
sg6
Nsg23
S'MOV'
p3284
sg25
S'0x126604L'
p3285
sg27
Nsba(ibclass
BInstr
p3286
(dp3287
g2
Nsg17
S'MOV     R1, #0x69       ; func'
p3288
sg19
S'6910a0e3'
p3289
sg21
Vmov r1, #0x69
p3290
sg5
L1205768L
sg6
Nsg23
S'MOV'
p3291
sg25
S'0x126608L'
p3292
sg27
Nsba(ibclass
BInstr
p3293
(dp3294
g2
Nsg17
S'MOV     R2, #0x20       ; reason'
p3295
sg19
S'2020a0e3'
p3296
sg21
Vmov r2, #0x20
p3297
sg5
L1205772L
sg6
Nsg23
S'MOV'
p3298
sg25
S'0x12660cL'
p3299
sg27
Nsba(ibclass
BInstr
p3300
(dp3301
g2
Nsg17
S'STR     R12, [SP,#0xB0+iv]; line'
p3302
sg19
S'00c08de5'
p3303
sg21
Vstr ip, [sp]
p3304
sg5
L1205776L
sg6
Nsg23
S'STR'
p3305
sg25
S'0x126610L'
p3306
sg27
Nsba(ibclass
BInstr
p3307
(dp3308
g2
Nsg17
S'BL      ERR_put_error'
p3309
sg19
S'16affeeb'
p3310
sg21
Vbl #0xfffabc60
p3311
sg5
L1205780L
sg6
Nsg23
S'BL'
p3312
sg25
S'0x126614L'
p3313
sg27
Nsba(ibclass
BInstr
p3314
(dp3315
g2
Nsg17
S'B       loc_126570'
p3316
sg19
S'd4ffffea'
p3317
sg21
Vb #0xffffff58
p3318
sg5
L1205784L
sg6
Nsg23
g82
sg25
S'0x126618L'
p3319
sg27
Nsbasg84
(lp3320
S'LDR R3, =(aPk7_doit_c - 0x18A000)'
p3321
aS'LDR R12, =0x14F'
p3322
aS'ADD R3, R5, R3'
p3323
aS'MOV R0, #0x21'
p3324
aS'MOV R1, #0x69'
p3325
aS'MOV R2, #0x20'
p3326
aS'STR R12, mem'
p3327
aS'BL ERR_put_error'
p3328
aS'B func'
p3329
asg95
Nsg5
S'0x1265f8L'
p3330
sg97
(lp3331
S'0x126214L'
p3332
asg6
Nsg99
(lp3333
S'0x126570L'
p3334
asg103
Nsg104
Nsg105
S'629bdcc4b4759840cfba3eb3682d03ae'
p3335
sg107
S'6e364e9de75cf752e13cdd4631991fb3'
p3336
sg109
(lp3337
g3263
ag3270
ag3277
ag3284
ag3291
ag3298
ag3305
ag3312
ag82
asg111
Nsba(ibclass
BBasicBlock
p3338
(dp3339
g12
Nsg13
(lp3340
(ibclass
BInstr
p3341
(dp3342
g2
Nsg17
S'LDR     R3, =(aPk7_doit_c - 0x18A000)'
p3343
sg19
S'20329fe5'
p3344
sg21
Vldr r3, [pc, #0x220]
p3345
sg5
L1205788L
sg6
Nsg23
S'LDR'
p3346
sg25
S'0x12661cL'
p3347
sg27
Nsba(ibclass
BInstr
p3348
(dp3349
g2
Nsg17
S'LDR     R12, =0x117'
p3350
sg19
S'30c29fe5'
p3351
sg21
Vldr ip, [pc, #0x230]
p3352
sg5
L1205792L
sg6
Nsg23
S'LDR'
p3353
sg25
S'0x126620L'
p3354
sg27
Nsba(ibclass
BInstr
p3355
(dp3356
g2
Nsg17
S'ADD     R3, R5, R3      ; "pk7_doit.c"'
p3357
sg19
S'033085e0'
p3358
sg21
Vadd r3, r5, r3
p3359
sg5
L1205796L
sg6
Nsg23
S'ADD'
p3360
sg25
S'0x126624L'
p3361
sg27
Nsba(ibclass
BInstr
p3362
(dp3363
g2
Nsg17
S'MOV     R0, #0x21       ; lib'
p3364
sg19
S'2100a0e3'
p3365
sg21
Vmov r0, #0x21
p3366
sg5
L1205800L
sg6
Nsg23
S'MOV'
p3367
sg25
S'0x126628L'
p3368
sg27
Nsba(ibclass
BInstr
p3369
(dp3370
g2
Nsg17
S'MOV     R1, #0x69       ; func'
p3371
sg19
S'6910a0e3'
p3372
sg21
Vmov r1, #0x69
p3373
sg5
L1205804L
sg6
Nsg23
S'MOV'
p3374
sg25
S'0x12662cL'
p3375
sg27
Nsba(ibclass
BInstr
p3376
(dp3377
g2
Nsg17
S'MOV     R2, #0x7A       ; reason'
p3378
sg19
S'7a20a0e3'
p3379
sg21
Vmov r2, #0x7a
p3380
sg5
L1205808L
sg6
Nsg23
S'MOV'
p3381
sg25
S'0x126630L'
p3382
sg27
Nsba(ibclass
BInstr
p3383
(dp3384
g2
Nsg17
S'STR     R12, [SP,#0xB0+iv]; line'
p3385
sg19
S'00c08de5'
p3386
sg21
Vstr ip, [sp]
p3387
sg5
L1205812L
sg6
Nsg23
S'STR'
p3388
sg25
S'0x126634L'
p3389
sg27
Nsba(ibclass
BInstr
p3390
(dp3391
g2
Nsg17
S'MOV     bio, R7'
p3392
sg19
S'0760a0e1'
p3393
sg21
Vmov r6, r7
p3394
sg5
L1205816L
sg6
Nsg23
S'MOV'
p3395
sg25
S'0x126638L'
p3396
sg27
Nsba(ibclass
BInstr
p3397
(dp3398
g2
Nsg17
S'BL      ERR_put_error'
p3399
sg19
S'0caffeeb'
p3400
sg21
Vbl #0xfffabc38
p3401
sg5
L1205820L
sg6
Nsg23
S'BL'
p3402
sg25
S'0x12663cL'
p3403
sg27
Nsba(ibclass
BInstr
p3404
(dp3405
g2
Nsg17
S'B       loc_126594'
p3406
sg19
S'd3ffffea'
p3407
sg21
Vb #0xffffff54
p3408
sg5
L1205824L
sg6
Nsg23
g82
sg25
S'0x126640L'
p3409
sg27
Nsbasg84
(lp3410
S'LDR R3, =(aPk7_doit_c - 0x18A000)'
p3411
aS'LDR R12, =0x117'
p3412
aS'ADD R3, R5, R3'
p3413
aS'MOV R0, #0x21'
p3414
aS'MOV R1, #0x69'
p3415
aS'MOV R2, #0x7A'
p3416
aS'STR R12, mem'
p3417
aS'MOV bio, R7'
p3418
aS'BL ERR_put_error'
p3419
aS'B func'
p3420
asg95
Nsg5
S'0x12661cL'
p3421
sg97
(lp3422
S'0x126140L'
p3423
asg6
Nsg99
(lp3424
S'0x126594L'
p3425
asg103
Nsg104
Nsg105
S'fe27006a92427acdbaf2f54381e5307e'
p3426
sg107
S'082d18949d212706b10339825b007088'
p3427
sg109
(lp3428
g3346
ag3353
ag3360
ag3367
ag3374
ag3381
ag3388
ag3395
ag3402
ag82
asg111
Nsba(ibclass
BBasicBlock
p3429
(dp3430
g12
Nsg13
(lp3431
(ibclass
BInstr
p3432
(dp3433
g2
Nsg17
S'MOV     R12, #0xA0'
p3434
sg19
S'a0c0a0e3'
p3435
sg21
Vmov ip, #0xa0
p3436
sg5
L1205828L
sg6
Nsg23
S'MOV'
p3437
sg25
S'0x126644L'
p3438
sg27
Nsba(ibclass
BInstr
p3439
(dp3440
g2
Nsg17
S'MOV     R0, #0x21       ; lib'
p3441
sg19
S'2100a0e3'
p3442
sg21
Vmov r0, #0x21
p3443
sg5
L1205832L
sg6
Nsg23
S'MOV'
p3444
sg25
S'0x126648L'
p3445
sg27
Nsba(ibclass
BInstr
p3446
(dp3447
g2
Nsg17
S'MOV     R1, #0x84       ; func'
p3448
sg19
S'8410a0e3'
p3449
sg21
Vmov r1, #0x84
p3450
sg5
L1205836L
sg6
Nsg23
S'MOV'
p3451
sg25
S'0x12664cL'
p3452
sg27
Nsba(ibclass
BInstr
p3453
(dp3454
g2
Nsg17
S'MOV     R2, #0x98       ; reason'
p3455
sg19
S'9820a0e3'
p3456
sg21
Vmov r2, #0x98
p3457
sg5
L1205840L
sg6
Nsg23
S'MOV'
p3458
sg25
S'0x126650L'
p3459
sg27
Nsba(ibclass
BInstr
p3460
(dp3461
g2
Nsg17
S'LDR     R3, [SP,#0xB0+file]; file'
p3462
sg19
S'1c309de5'
p3463
sg21
Vldr r3, [sp, #0x1c]
p3464
sg5
L1205844L
sg6
Nsg23
S'LDR'
p3465
sg25
S'0x126654L'
p3466
sg27
Nsba(ibclass
BInstr
p3467
(dp3468
g2
Nsg17
S'STR     R12, [SP,#0xB0+iv]; line'
p3469
sg19
S'00c08de5'
p3470
sg21
Vstr ip, [sp]
p3471
sg5
L1205848L
sg6
Nsg23
S'STR'
p3472
sg25
S'0x126658L'
p3473
sg27
Nsba(ibclass
BInstr
p3474
(dp3475
g2
Nsg17
S'MOV     R4, #0'
p3476
sg19
S'0040a0e3'
p3477
sg21
Vmov r4, #0
p3478
sg5
L1205852L
sg6
Nsg23
S'MOV'
p3479
sg25
S'0x12665cL'
p3480
sg27
Nsba(ibclass
BInstr
p3481
(dp3482
g2
Nsg17
S'BL      ERR_put_error'
p3483
sg19
S'03affeeb'
p3484
sg21
Vbl #0xfffabc14
p3485
sg5
L1205856L
sg6
Nsg23
S'BL'
p3486
sg25
S'0x126660L'
p3487
sg27
Nsba(ibclass
BInstr
p3488
(dp3489
g2
Nsg17
S'B       loc_1263D4'
p3490
sg19
S'5affffea'
p3491
sg21
Vb #0xfffffd70
p3492
sg5
L1205860L
sg6
Nsg23
g82
sg25
S'0x126664L'
p3493
sg27
Nsbasg84
(lp3494
S'MOV R12, #0xA0'
p3495
aS'MOV R0, #0x21'
p3496
aS'MOV R1, #0x84'
p3497
aS'MOV R2, #0x98'
p3498
aS'LDR R3, mem'
p3499
aS'STR R12, mem'
p3500
aS'MOV R4, #0'
p3501
aS'BL ERR_put_error'
p3502
aS'B func'
p3503
asg95
Nsg5
S'0x126644L'
p3504
sg97
(lp3505
S'0x126338L'
p3506
asg6
Nsg99
(lp3507
S'0x1263d4L'
p3508
asg103
Nsg104
Nsg105
S'bfda0a6cb34277c2f71251bffbc65cce'
p3509
sg107
S'f8886aac1313cbeff00b3430ec4a9abc'
p3510
sg109
(lp3511
g3437
ag3444
ag3451
ag3458
ag3465
ag3472
ag3479
ag3486
ag82
asg111
Nsba(ibclass
BBasicBlock
p3512
(dp3513
g12
Nsg13
(lp3514
(ibclass
BInstr
p3515
(dp3516
g2
Nsg17
S'LDR     R0, [R7,#0x10]  ; a'
p3517
sg19
S'100097e5'
p3518
sg21
Vldr r0, [r7, #0x10]
p3519
sg5
L1205864L
sg6
Nsg23
S'LDR'
p3520
sg25
S'0x126668L'
p3521
sg27
Nsba(ibclass
BInstr
p3522
(dp3523
g2
Nsg17
S'BL      OBJ_obj2nid'
p3524
sg19
S'878ffceb'
p3525
sg21
Vbl #0xfff23e24
p3526
sg5
L1205868L
sg6
Nsg23
S'BL'
p3527
sg25
S'0x12666cL'
p3528
sg27
Nsba(ibclass
BInstr
p3529
(dp3530
g2
Nsg17
S'SUB     R0, R0, #0x15'
p3531
sg19
S'150040e2'
p3532
sg21
Vsub r0, r0, #0x15
p3533
sg5
L1205872L
sg6
Nsg23
S'SUB'
p3534
sg25
S'0x126670L'
p3535
sg27
Nsba(ibclass
BInstr
p3536
(dp3537
g2
Nsg17
S'CMP     R0, #5'
p3538
sg19
S'050050e3'
p3539
sg21
Vcmp r0, #5
p3540
sg5
L1205876L
sg6
Nsg23
S'CMP'
p3541
sg25
S'0x126674L'
p3542
sg27
Nsba(ibclass
BInstr
p3543
(dp3544
g2
Nsg17
S'BLS     loc_1266E4'
p3545
sg19
S'1900009a'
p3546
sg21
Vbls #0x6c
p3547
sg5
L1205880L
sg6
Nsg23
g82
sg25
S'0x126678L'
p3548
sg27
Nsbasg84
(lp3549
S'LDR R0, mem'
p3550
aS'BL OBJ_obj2nid'
p3551
aS'SUB R0, R0, #0x15'
p3552
aS'CMP R0, #5'
p3553
aS'BLS func'
p3554
asg95
Nsg5
S'0x126668L'
p3555
sg97
(lp3556
S'0x126460L'
p3557
asg6
Nsg99
(lp3558
S'0x12667cL'
p3559
aS'0x1266e4L'
p3560
asg103
Nsg104
Nsg105
S'94c1d3193960df536bb00b397930de70'
p3561
sg107
S'78c76559191954b3839731e5ec2d1c14'
p3562
sg109
(lp3563
g3520
ag3527
ag3534
ag3541
ag82
asg111
Nsba(ibclass
BBasicBlock
p3564
(dp3565
g12
Nsg13
(lp3566
(ibclass
BInstr
p3567
(dp3568
g2
Nsg17
S'LDR     R3, [R7,#0x14]'
p3569
sg19
S'143097e5'
p3570
sg21
Vldr r3, [r7, #0x14]
p3571
sg5
L1205884L
sg6
Nsg23
S'LDR'
p3572
sg25
S'0x12667cL'
p3573
sg27
Nsba(ibclass
BInstr
p3574
(dp3575
g2
Nsg17
S'CMP     R3, #0'
p3576
sg19
S'000053e3'
p3577
sg21
Vcmp r3, #0
p3578
sg5
L1205888L
sg6
Nsg23
S'CMP'
p3579
sg25
S'0x126680L'
p3580
sg27
Nsba(ibclass
BInstr
p3581
(dp3582
g2
Nsg17
S'BNE     loc_1267FC'
p3583
sg19
S'5c00001a'
p3584
sg21
Vbne #0x178
p3585
sg5
L1205892L
sg6
Nsg23
g82
sg25
S'0x126684L'
p3586
sg27
Nsbasg84
(lp3587
S'LDR R3, mem'
p3588
aS'CMP R3, #0'
p3589
aS'BNE func'
p3590
asg95
Nsg5
S'0x12667cL'
p3591
sg97
(lp3592
S'0x126668L'
p3593
aS'0x1266f8L'
p3594
asg6
Nsg99
(lp3595
S'0x126688L'
p3596
aS'0x1267fcL'
p3597
asg103
Nsg104
Nsg105
S'fa4df767a85c49648339e2dc5c6807f6'
p3598
sg107
S'1bb12c7dd982fd3e3da2842e84d201cf'
p3599
sg109
(lp3600
g3572
ag3579
ag82
asg111
Nsba(ibclass
BBasicBlock
p3601
(dp3602
g12
Nsg13
(lp3603
(ibclass
BInstr
p3604
(dp3605
g2
Nsg17
S'MOV     R1, #0'
p3606
sg19
S'0010a0e3'
p3607
sg21
Vmov r1, #0
p3608
sg5
L1205896L
sg6
Nsg23
S'MOV'
p3609
sg25
S'0x126688L'
p3610
sg27
Nsba(ibclass
BInstr
p3611
(dp3612
g2
Nsg17
S'STR     R1, [SP,#0xB0+var_A0]'
p3613
sg19
S'10108de5'
p3614
sg21
Vstr r1, [sp, #0x10]
p3615
sg5
L1205900L
sg6
Nsg23
S'STR'
p3616
sg25
S'0x12668cL'
p3617
sg27
Nsba(ibclass
BInstr
p3618
(dp3619
g2
Nsg17
S'B       loc_126484'
p3620
sg19
S'7bffffea'
p3621
sg21
Vb #0xfffffdf4
p3622
sg5
L1205904L
sg6
Nsg23
g82
sg25
S'0x126690L'
p3623
sg27
Nsbasg84
(lp3624
S'MOV R1, #0'
p3625
aS'STR R1, mem'
p3626
aS'B func'
p3627
asg95
Nsg5
S'0x126688L'
p3628
sg97
(lp3629
S'0x12667cL'
p3630
aS'0x1266e4L'
p3631
aS'0x1267fcL'
p3632
asg6
Nsg99
(lp3633
S'0x126484L'
p3634
asg103
Nsg104
Nsg105
S'72443b0f4ef3252e4ab9bd0d02263e9f'
p3635
sg107
S'24250da5cf6bdd878e5861ca5756a22f'
p3636
sg109
(lp3637
g3609
ag3616
ag82
asg111
Nsba(ibclass
BBasicBlock
p3638
(dp3639
g12
Nsg13
(lp3640
(ibclass
BInstr
p3641
(dp3642
g2
Nsg17
S'LDR     R0, [R7,#0x10]  ; a'
p3643
sg19
S'100097e5'
p3644
sg21
Vldr r0, [r7, #0x10]
p3645
sg5
L1205908L
sg6
Nsg23
S'LDR'
p3646
sg25
S'0x126694L'
p3647
sg27
Nsba(ibclass
BInstr
p3648
(dp3649
g2
Nsg17
S'BL      OBJ_obj2nid'
p3650
sg19
S'7c8ffceb'
p3651
sg21
Vbl #0xfff23df8
p3652
sg5
L1205912L
sg6
Nsg23
S'BL'
p3653
sg25
S'0x126698L'
p3654
sg27
Nsba(ibclass
BInstr
p3655
(dp3656
g2
Nsg17
S'SUB     R0, R0, #0x15'
p3657
sg19
S'150040e2'
p3658
sg21
Vsub r0, r0, #0x15
p3659
sg5
L1205916L
sg6
Nsg23
S'SUB'
p3660
sg25
S'0x12669cL'
p3661
sg27
Nsba(ibclass
BInstr
p3662
(dp3663
g2
Nsg17
S'CMP     R0, #5'
p3664
sg19
S'050050e3'
p3665
sg21
Vcmp r0, #5
p3666
sg5
L1205920L
sg6
Nsg23
S'CMP'
p3667
sg25
S'0x1266a0L'
p3668
sg27
Nsba(ibclass
BInstr
p3669
(dp3670
g2
Nsg17
S'BLS     loc_126724'
p3671
sg19
S'1e00009a'
p3672
sg21
Vbls #0x80
p3673
sg5
L1205924L
sg6
Nsg23
g82
sg25
S'0x1266a4L'
p3674
sg27
Nsbasg84
(lp3675
S'LDR R0, mem'
p3676
aS'BL OBJ_obj2nid'
p3677
aS'SUB R0, R0, #0x15'
p3678
aS'CMP R0, #5'
p3679
aS'BLS func'
p3680
asg95
Nsg5
S'0x126694L'
p3681
sg97
(lp3682
S'0x12617cL'
p3683
asg6
Nsg99
(lp3684
S'0x1266a8L'
p3685
aS'0x126724L'
p3686
asg103
Nsg104
Nsg105
S'94c1d3193960df536bb00b397930de70'
p3687
sg107
S'78c76559191954b3839731e5ec2d1c14'
p3688
sg109
(lp3689
g3646
ag3653
ag3660
ag3667
ag82
asg111
Nsba(ibclass
BBasicBlock
p3690
(dp3691
g12
Nsg13
(lp3692
(ibclass
BInstr
p3693
(dp3694
g2
Nsg17
S'LDR     R3, [R7,#0x14]'
p3695
sg19
S'143097e5'
p3696
sg21
Vldr r3, [r7, #0x14]
p3697
sg5
L1205928L
sg6
Nsg23
S'LDR'
p3698
sg25
S'0x1266a8L'
p3699
sg27
Nsba(ibclass
BInstr
p3700
(dp3701
g2
Nsg17
S'CMP     R3, #0'
p3702
sg19
S'000053e3'
p3703
sg21
Vcmp r3, #0
p3704
sg5
L1205932L
sg6
Nsg23
S'CMP'
p3705
sg25
S'0x1266acL'
p3706
sg27
Nsba(ibclass
BInstr
p3707
(dp3708
g2
Nsg17
S'BNE     loc_1267E4'
p3709
sg19
S'4b00001a'
p3710
sg21
Vbne #0x134
p3711
sg5
L1205936L
sg6
Nsg23
g82
sg25
S'0x1266b0L'
p3712
sg27
Nsbasg84
(lp3713
S'LDR R3, mem'
p3714
aS'CMP R3, #0'
p3715
aS'BNE func'
p3716
asg95
Nsg5
S'0x1266a8L'
p3717
sg97
(lp3718
S'0x126694L'
p3719
aS'0x126738L'
p3720
asg6
Nsg99
(lp3721
S'0x1266b4L'
p3722
aS'0x1267e4L'
p3723
asg103
Nsg104
Nsg105
S'fa4df767a85c49648339e2dc5c6807f6'
p3724
sg107
S'1bb12c7dd982fd3e3da2842e84d201cf'
p3725
sg109
(lp3726
g3698
ag3705
ag82
asg111
Nsba(ibclass
BBasicBlock
p3727
(dp3728
g12
Nsg13
(lp3729
(ibclass
BInstr
p3730
(dp3731
g2
Nsg17
S'MOV     R3, #0'
p3732
sg19
S'0030a0e3'
p3733
sg21
Vmov r3, #0
p3734
sg5
L1205940L
sg6
Nsg23
S'MOV'
p3735
sg25
S'0x1266b4L'
p3736
sg27
Nsba(ibclass
BInstr
p3737
(dp3738
g2
Nsg17
S'STR     R3, [SP,#0xB0+var_A0]'
p3739
sg19
S'10308de5'
p3740
sg21
Vstr r3, [sp, #0x10]
p3741
sg5
L1205944L
sg6
Nsg23
S'STR'
p3742
sg25
S'0x1266b8L'
p3743
sg27
Nsba(ibclass
BInstr
p3744
(dp3745
g2
Nsg17
S'B       loc_1261A0'
p3746
sg19
S'b7feffea'
p3747
sg21
Vb #0xfffffae4
p3748
sg5
L1205948L
sg6
Nsg23
g82
sg25
S'0x1266bcL'
p3749
sg27
Nsbasg84
(lp3750
S'MOV R3, #0'
p3751
aS'STR R3, mem'
p3752
aS'B func'
p3753
asg95
Nsg5
S'0x1266b4L'
p3754
sg97
(lp3755
S'0x1266a8L'
p3756
aS'0x126724L'
p3757
aS'0x1267e4L'
p3758
asg6
Nsg99
(lp3759
S'0x1261a0L'
p3760
asg103
Nsg104
Nsg105
S'72443b0f4ef3252e4ab9bd0d02263e9f'
p3761
sg107
S'c818bafc6dec94768f156ee969d4555c'
p3762
sg109
(lp3763
g3735
ag3742
ag82
asg111
Nsba(ibclass
BBasicBlock
p3764
(dp3765
g12
Nsg13
(lp3766
(ibclass
BInstr
p3767
(dp3768
g2
Nsg17
S'MOV     R0, R9          ; x'
p3769
sg19
S'0900a0e1'
p3770
sg21
Vmov r0, sb
p3771
sg5
L1205952L
sg6
Nsg23
S'MOV'
p3772
sg25
S'0x1266c0L'
p3773
sg27
Nsba(ibclass
BInstr
p3774
(dp3775
g2
Nsg17
S'STR     R5, [SP,#0xB0+str]'
p3776
sg19
S'08508de5'
p3777
sg21
Vstr r5, [sp, #8]
p3778
sg5
L1205956L
sg6
Nsg23
S'STR'
p3779
sg25
S'0x1266c4L'
p3780
sg27
Nsba(ibclass
BInstr
p3781
(dp3782
g2
Nsg17
S'BL      EVP_PKEY_free'
p3783
sg19
S'2acffeeb'
p3784
sg21
Vbl #0xfffb3cb0
p3785
sg5
L1205960L
sg6
Nsg23
S'BL'
p3786
sg25
S'0x1266c8L'
p3787
sg27
Nsba(ibclass
BInstr
p3788
(dp3789
g2
Nsg17
S'MOV     R0, R10         ; ctx'
p3790
sg19
S'0a00a0e1'
p3791
sg21
Vmov r0, sl
p3792
sg5
L1205964L
sg6
Nsg23
S'MOV'
p3793
sg25
S'0x1266ccL'
p3794
sg27
Nsba(ibclass
BInstr
p3795
(dp3796
g2
Nsg17
S'BL      EVP_PKEY_CTX_free'
p3797
sg19
S'45e4feeb'
p3798
sg21
Vbl #0xfffb911c
p3799
sg5
L1205968L
sg6
Nsg23
S'BL'
p3800
sg25
S'0x1266d0L'
p3801
sg27
Nsba(ibclass
BInstr
p3802
(dp3803
g2
Nsg17
S'LDR     R12, [SP,#0xB0+str]'
p3804
sg19
S'08c09de5'
p3805
sg21
Vldr ip, [sp, #8]
p3806
sg5
L1205972L
sg6
Nsg23
S'LDR'
p3807
sg25
S'0x1266d4L'
p3808
sg27
Nsba(ibclass
BInstr
p3809
(dp3810
g2
Nsg17
S'MOV     R0, R12         ; str'
p3811
sg19
S'0c00a0e1'
p3812
sg21
Vmov r0, ip
p3813
sg5
L1205976L
sg6
Nsg23
S'MOV'
p3814
sg25
S'0x1266d8L'
p3815
sg27
Nsba(ibclass
BInstr
p3816
(dp3817
g2
Nsg17
S'BL      CRYPTO_free'
p3818
sg19
S'4181fceb'
p3819
sg21
Vbl #0xfff2050c
p3820
sg5
L1205980L
sg6
Nsg23
S'BL'
p3821
sg25
S'0x1266dcL'
p3822
sg27
Nsba(ibclass
BInstr
p3823
(dp3824
g2
Nsg17
S'B       loc_126570'
p3825
sg19
S'a2ffffea'
p3826
sg21
Vb #0xfffffe90
p3827
sg5
L1205984L
sg6
Nsg23
g82
sg25
S'0x1266e0L'
p3828
sg27
Nsbasg84
(lp3829
S'MOV R0, R9'
p3830
aS'STR R5, mem'
p3831
aS'BL EVP_PKEY_free'
p3832
aS'MOV R0, R10'
p3833
aS'BL EVP_PKEY_CTX_free'
p3834
aS'LDR R12, mem'
p3835
aS'MOV R0, R12'
p3836
aS'BL CRYPTO_free'
p3837
aS'B func'
p3838
asg95
Nsg5
S'0x1266c0L'
p3839
sg97
(lp3840
S'0x12639cL'
p3841
asg6
Nsg99
(lp3842
S'0x126570L'
p3843
asg103
Nsg104
Nsg105
S'7cc828239055e2718cbcca5d189dff28'
p3844
sg107
S'f2130a4c5015522c71c7f21aeac22bea'
p3845
sg109
(lp3846
g3772
ag3779
ag3786
ag3793
ag3800
ag3807
ag3814
ag3821
ag82
asg111
Nsba(ibclass
BBasicBlock
p3847
(dp3848
g12
Nsg13
(lp3849
(ibclass
BInstr
p3850
(dp3851
g2
Nsg17
S'LDR     R3, =(CSWTCH.119 - 0x18A000)'
p3852
sg19
S'70319fe5'
p3853
sg21
Vldr r3, [pc, #0x170]
p3854
sg5
L1205988L
sg6
Nsg23
S'LDR'
p3855
sg25
S'0x1266e4L'
p3856
sg27
Nsba(ibclass
BInstr
p3857
(dp3858
g2
Nsg17
S'ADD     R3, R5, R3 ; CSWTCH.119'
p3859
sg19
S'033085e0'
p3860
sg21
Vadd r3, r5, r3
p3861
sg5
L1205992L
sg6
Nsg23
S'ADD'
p3862
sg25
S'0x1266e8L'
p3863
sg27
Nsba(ibclass
BInstr
p3864
(dp3865
g2
Nsg17
S'LDR     R3, [R3,R0,LSL#2]'
p3866
sg19
S'003193e7'
p3867
sg21
Vldr r3, [r3, r0, lsl #2]
p3868
sg5
L1205996L
sg6
Nsg23
S'LDR'
p3869
sg25
S'0x1266ecL'
p3870
sg27
Nsba(ibclass
BInstr
p3871
(dp3872
g2
Nsg17
S'CMP     R3, #0'
p3873
sg19
S'000053e3'
p3874
sg21
Vcmp r3, #0
p3875
sg5
L1206000L
sg6
Nsg23
S'CMP'
p3876
sg25
S'0x1266f0L'
p3877
sg27
Nsba(ibclass
BInstr
p3878
(dp3879
g2
Nsg17
S'BEQ     loc_126688'
p3880
sg19
S'e3ffff0a'
p3881
sg21
Vbeq #0xffffff94
p3882
sg5
L1206004L
sg6
Nsg23
g82
sg25
S'0x1266f4L'
p3883
sg27
Nsbasg84
(lp3884
S'LDR R3, =(CSWTCH.119 - 0x18A000)'
p3885
aS'ADD R3, R5, R3'
p3886
aS'LDR R3, mem'
p3887
aS'CMP R3, #0'
p3888
aS'BEQ func'
p3889
asg95
Nsg5
S'0x1266e4L'
p3890
sg97
(lp3891
S'0x126668L'
p3892
asg6
Nsg99
(lp3893
S'0x126688L'
p3894
aS'0x1266f8L'
p3895
asg103
Nsg104
Nsg105
S'c8d8769671f0936f4b7e985b7a5fdef4'
p3896
sg107
S'2c270f8bf25236a622d56eebadeccad8'
p3897
sg109
(lp3898
g3855
ag3862
ag3869
ag3876
ag82
asg111
Nsba(ibclass
BBasicBlock
p3899
(dp3900
g12
Nsg13
(lp3901
(ibclass
BInstr
p3902
(dp3903
g2
Nsg17
S'B       loc_12667C'
p3904
sg19
S'dfffffea'
p3905
sg21
Vb #0xffffff84
p3906
sg5
L1206008L
sg6
Nsg23
g82
sg25
S'0x1266f8L'
p3907
sg27
Nsbasg84
(lp3908
S'B func'
p3909
asg95
Nsg5
S'0x1266f8L'
p3910
sg97
(lp3911
S'0x1266e4L'
p3912
asg6
Nsg99
(lp3913
S'0x12667cL'
p3914
asg103
Nsg104
Nsg105
S'9d5ed678fe57bcca610140957afab571'
p3915
sg107
S'071b057c420e304c628380fd3541c021'
p3916
sg109
(lp3917
g82
asg111
Nsba(ibclass
BBasicBlock
p3918
(dp3919
g12
Nsg13
(lp3920
(ibclass
BInstr
p3921
(dp3922
g2
Nsg17
S'LDR     R3, =(aPk7_doit_c - 0x18A000)'
p3923
sg19
S'40319fe5'
p3924
sg21
Vldr r3, [pc, #0x140]
p3925
sg5
L1206012L
sg6
Nsg23
S'LDR'
p3926
sg25
S'0x1266fcL'
p3927
sg27
Nsba(ibclass
BInstr
p3928
(dp3929
g2
Nsg17
S'LDR     R12, =0x109'
p3930
sg19
S'58c19fe5'
p3931
sg21
Vldr ip, [pc, #0x158]
p3932
sg5
L1206016L
sg6
Nsg23
S'LDR'
p3933
sg25
S'0x126700L'
p3934
sg27
Nsba(ibclass
BInstr
p3935
(dp3936
g2
Nsg17
S'ADD     R3, R5, R3      ; "pk7_doit.c"'
p3937
sg19
S'033085e0'
p3938
sg21
Vadd r3, r5, r3
p3939
sg5
L1206020L
sg6
Nsg23
S'ADD'
p3940
sg25
S'0x126704L'
p3941
sg27
Nsba(ibclass
BInstr
p3942
(dp3943
g2
Nsg17
S'ADD     R0, R0, #0x21   ; lib'
p3944
sg19
S'210080e2'
p3945
sg21
Vadd r0, r0, #0x21
p3946
sg5
L1206024L
sg6
Nsg23
S'ADD'
p3947
sg25
S'0x126708L'
p3948
sg27
Nsba(ibclass
BInstr
p3949
(dp3950
g2
Nsg17
S'MOV     R1, #0x69       ; func'
p3951
sg19
S'6910a0e3'
p3952
sg21
Vmov r1, #0x69
p3953
sg5
L1206028L
sg6
Nsg23
S'MOV'
p3954
sg25
S'0x12670cL'
p3955
sg27
Nsba(ibclass
BInstr
p3956
(dp3957
g2
Nsg17
S'MOV     R2, #0x8F       ; reason'
p3958
sg19
S'8f20a0e3'
p3959
sg21
Vmov r2, #0x8f
p3960
sg5
L1206032L
sg6
Nsg23
S'MOV'
p3961
sg25
S'0x126710L'
p3962
sg27
Nsba(ibclass
BInstr
p3963
(dp3964
g2
Nsg17
S'STR     R12, [SP,#0xB0+iv]; line'
p3965
sg19
S'00c08de5'
p3966
sg21
Vstr ip, [sp]
p3967
sg5
L1206036L
sg6
Nsg23
S'STR'
p3968
sg25
S'0x126714L'
p3969
sg27
Nsba(ibclass
BInstr
p3970
(dp3971
g2
Nsg17
S'MOV     bio, p7'
p3972
sg19
S'0460a0e1'
p3973
sg21
Vmov r6, r4
p3974
sg5
L1206040L
sg6
Nsg23
S'MOV'
p3975
sg25
S'0x126718L'
p3976
sg27
Nsba(ibclass
BInstr
p3977
(dp3978
g2
Nsg17
S'BL      ERR_put_error'
p3979
sg19
S'd4aefeeb'
p3980
sg21
Vbl #0xfffabb58
p3981
sg5
L1206044L
sg6
Nsg23
S'BL'
p3982
sg25
S'0x12671cL'
p3983
sg27
Nsba(ibclass
BInstr
p3984
(dp3985
g2
Nsg17
S'B       loc_126594'
p3986
sg19
S'9bffffea'
p3987
sg21
Vb #0xfffffe74
p3988
sg5
L1206048L
sg6
Nsg23
g82
sg25
S'0x126720L'
p3989
sg27
Nsbasg84
(lp3990
S'LDR R3, =(aPk7_doit_c - 0x18A000)'
p3991
aS'LDR R12, =0x109'
p3992
aS'ADD R3, R5, R3'
p3993
aS'ADD R0, R0, #0x21'
p3994
aS'MOV R1, #0x69'
p3995
aS'MOV R2, #0x8F'
p3996
aS'STR R12, mem'
p3997
aS'MOV bio, p7'
p3998
aS'BL ERR_put_error'
p3999
aS'B func'
p4000
asg95
Nsg5
S'0x1266fcL'
p4001
sg97
(lp4002
S'0x12611cL'
p4003
asg6
Nsg99
(lp4004
S'0x126594L'
p4005
asg103
Nsg104
Nsg105
S'5b4c59471bef66493312eaa9f9e36e18'
p4006
sg107
S'2b699189300616e8082bd35035f6730b'
p4007
sg109
(lp4008
g3926
ag3933
ag3940
ag3947
ag3954
ag3961
ag3968
ag3975
ag3982
ag82
asg111
Nsba(ibclass
BBasicBlock
p4009
(dp4010
g12
Nsg13
(lp4011
(ibclass
BInstr
p4012
(dp4013
g2
Nsg17
S'LDR     R3, =(CSWTCH.119 - 0x18A000)'
p4014
sg19
S'30319fe5'
p4015
sg21
Vldr r3, [pc, #0x130]
p4016
sg5
L1206052L
sg6
Nsg23
S'LDR'
p4017
sg25
S'0x126724L'
p4018
sg27
Nsba(ibclass
BInstr
p4019
(dp4020
g2
Nsg17
S'ADD     R3, R5, R3 ; CSWTCH.119'
p4021
sg19
S'033085e0'
p4022
sg21
Vadd r3, r5, r3
p4023
sg5
L1206056L
sg6
Nsg23
S'ADD'
p4024
sg25
S'0x126728L'
p4025
sg27
Nsba(ibclass
BInstr
p4026
(dp4027
g2
Nsg17
S'LDR     R3, [R3,R0,LSL#2]'
p4028
sg19
S'003193e7'
p4029
sg21
Vldr r3, [r3, r0, lsl #2]
p4030
sg5
L1206060L
sg6
Nsg23
S'LDR'
p4031
sg25
S'0x12672cL'
p4032
sg27
Nsba(ibclass
BInstr
p4033
(dp4034
g2
Nsg17
S'CMP     R3, #0'
p4035
sg19
S'000053e3'
p4036
sg21
Vcmp r3, #0
p4037
sg5
L1206064L
sg6
Nsg23
S'CMP'
p4038
sg25
S'0x126730L'
p4039
sg27
Nsba(ibclass
BInstr
p4040
(dp4041
g2
Nsg17
S'BEQ     loc_1266B4'
p4042
sg19
S'deffff0a'
p4043
sg21
Vbeq #0xffffff80
p4044
sg5
L1206068L
sg6
Nsg23
g82
sg25
S'0x126734L'
p4045
sg27
Nsbasg84
(lp4046
S'LDR R3, =(CSWTCH.119 - 0x18A000)'
p4047
aS'ADD R3, R5, R3'
p4048
aS'LDR R3, mem'
p4049
aS'CMP R3, #0'
p4050
aS'BEQ func'
p4051
asg95
Nsg5
S'0x126724L'
p4052
sg97
(lp4053
S'0x126694L'
p4054
asg6
Nsg99
(lp4055
S'0x1266b4L'
p4056
aS'0x126738L'
p4057
asg103
Nsg104
Nsg105
S'c8d8769671f0936f4b7e985b7a5fdef4'
p4058
sg107
S'2c270f8bf25236a622d56eebadeccad8'
p4059
sg109
(lp4060
g4017
ag4024
ag4031
ag4038
ag82
asg111
Nsba(ibclass
BBasicBlock
p4061
(dp4062
g12
Nsg13
(lp4063
(ibclass
BInstr
p4064
(dp4065
g2
Nsg17
S'B       loc_1266A8'
p4066
sg19
S'daffffea'
p4067
sg21
Vb #0xffffff70
p4068
sg5
L1206072L
sg6
Nsg23
g82
sg25
S'0x126738L'
p4069
sg27
Nsbasg84
(lp4070
S'B func'
p4071
asg95
Nsg5
S'0x126738L'
p4072
sg97
(lp4073
S'0x126724L'
p4074
asg6
Nsg99
(lp4075
S'0x1266a8L'
p4076
asg103
Nsg104
Nsg105
S'9d5ed678fe57bcca610140957afab571'
p4077
sg107
S'071b057c420e304c628380fd3541c021'
p4078
sg109
(lp4079
g82
asg111
Nsba(ibclass
BBasicBlock
p4080
(dp4081
g12
Nsg13
(lp4082
(ibclass
BInstr
p4083
(dp4084
g2
Nsg17
S'LDR     R0, [p7,#0x10]  ; a'
p4085
sg19
S'100094e5'
p4086
sg21
Vldr r0, [r4, #0x10]
p4087
sg5
L1206076L
sg6
Nsg23
S'LDR'
p4088
sg25
S'0x12673cL'
p4089
sg27
Nsba(ibclass
BInstr
p4090
(dp4091
g2
Nsg17
S'BL      OBJ_obj2nid'
p4092
sg19
S'528ffceb'
p4093
sg21
Vbl #0xfff23d50
p4094
sg5
L1206080L
sg6
Nsg23
S'BL'
p4095
sg25
S'0x126740L'
p4096
sg27
Nsba(ibclass
BInstr
p4097
(dp4098
g2
Nsg17
S'CMP     R0, #0x16'
p4099
sg19
S'160050e3'
p4100
sg21
Vcmp r0, #0x16
p4101
sg5
L1206084L
sg6
Nsg23
S'CMP'
p4102
sg25
S'0x126744L'
p4103
sg27
Nsba(ibclass
BInstr
p4104
(dp4105
g2
Nsg17
S'BEQ     loc_126814'
p4106
sg19
S'3100000a'
p4107
sg21
Vbeq #0xcc
p4108
sg5
L1206088L
sg6
Nsg23
g82
sg25
S'0x126748L'
p4109
sg27
Nsbasg84
(lp4110
S'LDR R0, mem'
p4111
aS'BL OBJ_obj2nid'
p4112
aS'CMP R0, #0x16'
p4113
aS'BEQ func'
p4114
asg95
Nsg5
S'0x12673cL'
p4115
sg97
(lp4116
S'0x1265d4L'
p4117
asg6
Nsg99
(lp4118
S'0x12674cL'
p4119
aS'0x126814L'
p4120
asg103
Nsg104
Nsg105
S'9c84acac36444e95dce0b0aa0635b01b'
p4121
sg107
S'2ef20ab377c70e03762bd95ce2d4f75f'
p4122
sg109
(lp4123
g4088
ag4095
ag4102
ag82
asg111
Nsba(ibclass
BBasicBlock
p4124
(dp4125
g12
Nsg13
(lp4126
(ibclass
BInstr
p4127
(dp4128
g2
Nsg17
S'LDR     R1, [SP,#0xB0+var_A0]'
p4129
sg19
S'10109de5'
p4130
sg21
Vldr r1, [sp, #0x10]
p4131
sg5
L1206092L
sg6
Nsg23
S'LDR'
p4132
sg25
S'0x12674cL'
p4133
sg27
Nsba(ibclass
BInstr
p4134
(dp4135
g2
Nsg17
S'CMP     R1, #0'
p4136
sg19
S'000051e3'
p4137
sg21
Vcmp r1, #0
p4138
sg5
L1206096L
sg6
Nsg23
S'CMP'
p4139
sg25
S'0x126750L'
p4140
sg27
Nsba(ibclass
BInstr
p4141
(dp4142
g2
Nsg17
S'BEQ     loc_126764'
p4143
sg19
S'0200000a'
p4144
sg21
Vbeq #0x10
p4145
sg5
L1206100L
sg6
Nsg23
g82
sg25
S'0x126754L'
p4146
sg27
Nsbasg84
(lp4147
S'LDR R1, mem'
p4148
aS'CMP R1, #0'
p4149
aS'BEQ func'
p4150
asg95
Nsg5
S'0x12674cL'
p4151
sg97
(lp4152
S'0x12673cL'
p4153
aS'0x126814L'
p4154
asg6
Nsg99
(lp4155
S'0x126758L'
p4156
aS'0x126764L'
p4157
asg103
Nsg104
Nsg105
S'fa4df767a85c49648339e2dc5c6807f6'
p4158
sg107
S'3cf5ec7b62a0a245cffed892e66b806a'
p4159
sg109
(lp4160
g4132
ag4139
ag82
asg111
Nsba(ibclass
BBasicBlock
p4161
(dp4162
g12
Nsg13
(lp4163
(ibclass
BInstr
p4164
(dp4165
g2
Nsg17
S'LDR     R1, [R1]        ; len'
p4166
sg19
S'001091e5'
p4167
sg21
Vldr r1, [r1]
p4168
sg5
L1206104L
sg6
Nsg23
S'LDR'
p4169
sg25
S'0x126758L'
p4170
sg27
Nsba(ibclass
BInstr
p4171
(dp4172
g2
Nsg17
S'CMP     R1, #0'
p4173
sg19
S'000051e3'
p4174
sg21
Vcmp r1, #0
p4175
sg5
L1206108L
sg6
Nsg23
S'CMP'
p4176
sg25
S'0x12675cL'
p4177
sg27
Nsba(ibclass
BInstr
p4178
(dp4179
g2
Nsg17
S'BGT     loc_1267AC'
p4180
sg19
S'110000ca'
p4181
sg21
Vbgt #0x4c
p4182
sg5
L1206112L
sg6
Nsg23
g82
sg25
S'0x126760L'
p4183
sg27
Nsbasg84
(lp4184
S'LDR R1, mem'
p4185
aS'CMP R1, #0'
p4186
aS'BGT func'
p4187
asg95
Nsg5
S'0x126758L'
p4188
sg97
(lp4189
S'0x12674cL'
p4190
asg6
Nsg99
(lp4191
S'0x126764L'
p4192
aS'0x1267acL'
p4193
asg103
Nsg104
Nsg105
S'fa4df767a85c49648339e2dc5c6807f6'
p4194
sg107
S'5749e0a5ccd83ad4b789ba5f89e8d5cf'
p4195
sg109
(lp4196
g4169
ag4176
ag82
asg111
Nsba(ibclass
BBasicBlock
p4197
(dp4198
g12
Nsg13
(lp4199
(ibclass
BInstr
p4200
(dp4201
g2
Nsg17
S'BL      BIO_s_mem'
p4202
sg19
S'3575feeb'
p4203
sg21
Vbl #0xfff9d4dc
p4204
sg5
L1206116L
sg6
Nsg23
S'BL'
p4205
sg25
S'0x126764L'
p4206
sg27
Nsba(ibclass
BInstr
p4207
(dp4208
g2
Nsg17
S'BL      BIO_new'
p4209
sg19
S'1774feeb'
p4210
sg21
Vbl #0xfff9d064
p4211
sg5
L1206120L
sg6
Nsg23
S'BL'
p4212
sg25
S'0x126768L'
p4213
sg27
Nsba(ibclass
BInstr
p4214
(dp4215
g2
Nsg17
S'SUBS    bio, R0, #0'
p4216
sg19
S'006050e2'
p4217
sg21
Vsubs r6, r0, #0
p4218
sg5
L1206124L
sg6
Nsg23
S'SUB'
p4219
sg25
S'0x12676cL'
p4220
sg27
Nsba(ibclass
BInstr
p4221
(dp4222
g2
Nsg17
S'BEQ     err'
p4223
sg19
S'8bffff0a'
p4224
sg21
Vbeq #0xfffffe34
p4225
sg5
L1206128L
sg6
Nsg23
g82
sg25
S'0x126770L'
p4226
sg27
Nsbasg84
(lp4227
S'BL BIO_s_mem'
p4228
aS'BL BIO_new'
p4229
aS'SUBS bio, R0, #0'
p4230
aS'BEQ err'
p4231
asg95
Nsg5
S'0x126764L'
p4232
sg97
(lp4233
S'0x12674cL'
p4234
aS'0x126758L'
p4235
aS'0x1267c4L'
p4236
asg6
Nsg99
(lp4237
S'0x1265a4L'
p4238
aS'0x126774L'
p4239
asg103
Nsg104
Nsg105
S'd9f5b60a4b04eb8c2ea7aecd1328250c'
p4240
sg107
S'66f8f124c2afd264221df392212b66cb'
p4241
sg109
(lp4242
g4205
ag4212
ag4219
ag82
asg111
Nsba(ibclass
BBasicBlock
p4243
(dp4244
g12
Nsg13
(lp4245
(ibclass
BInstr
p4246
(dp4247
g2
Nsg17
S'MOV     R2, #0          ; larg'
p4248
sg19
S'0020a0e3'
p4249
sg21
Vmov r2, #0
p4250
sg5
L1206132L
sg6
Nsg23
S'MOV'
p4251
sg25
S'0x126774L'
p4252
sg27
Nsba(ibclass
BInstr
p4253
(dp4254
g2
Nsg17
S'MOV     R1, #0x82       ; cmd'
p4255
sg19
S'8210a0e3'
p4256
sg21
Vmov r1, #0x82
p4257
sg5
L1206136L
sg6
Nsg23
S'MOV'
p4258
sg25
S'0x126778L'
p4259
sg27
Nsba(ibclass
BInstr
p4260
(dp4261
g2
Nsg17
S'MOV     R3, R2          ; parg'
p4262
sg19
S'0230a0e1'
p4263
sg21
Vmov r3, r2
p4264
sg5
L1206140L
sg6
Nsg23
S'MOV'
p4265
sg25
S'0x12677cL'
p4266
sg27
Nsba(ibclass
BInstr
p4267
(dp4268
g2
Nsg17
S'BL      BIO_ctrl'
p4269
sg19
S'd471feeb'
p4270
sg21
Vbl #0xfff9c758
p4271
sg5
L1206144L
sg6
Nsg23
S'BL'
p4272
sg25
S'0x126780L'
p4273
sg27
Nsba(ibclass
BInstr
p4274
(dp4275
g2
Nsg17
S'B       loc_1265DC'
p4276
sg19
S'94ffffea'
p4277
sg21
Vb #0xfffffe58
p4278
sg5
L1206148L
sg6
Nsg23
g82
sg25
S'0x126784L'
p4279
sg27
Nsbasg84
(lp4280
S'MOV R2, #0'
p4281
aS'MOV R1, #0x82'
p4282
aS'MOV R3, R2'
p4283
aS'BL BIO_ctrl'
p4284
aS'B func'
p4285
asg95
Nsg5
S'0x126774L'
p4286
sg97
(lp4287
S'0x126764L'
p4288
asg6
Nsg99
(lp4289
S'0x1265dcL'
p4290
asg103
Nsg104
Nsg105
S'938d111b8bed94625648a5a2bb44a5c7'
p4291
sg107
S'ed64fbc2d9aa966fe5f151221c304149'
p4292
sg109
(lp4293
g4251
ag4258
ag4265
ag4272
ag82
asg111
Nsba(ibclass
BBasicBlock
p4294
(dp4295
g12
Nsg13
(lp4296
(ibclass
BInstr
p4297
(dp4298
g2
Nsg17
S'MOV     R12, #0xAA'
p4299
sg19
S'aac0a0e3'
p4300
sg21
Vmov ip, #0xaa
p4301
sg5
L1206152L
sg6
Nsg23
S'MOV'
p4302
sg25
S'0x126788L'
p4303
sg27
Nsba(ibclass
BInstr
p4304
(dp4305
g2
Nsg17
S'ADD     R0, R0, #0x21   ; lib'
p4306
sg19
S'210080e2'
p4307
sg21
Vadd r0, r0, #0x21
p4308
sg5
L1206156L
sg6
Nsg23
S'ADD'
p4309
sg25
S'0x12678cL'
p4310
sg27
Nsba(ibclass
BInstr
p4311
(dp4312
g2
Nsg17
S'MOV     R1, #0x84       ; func'
p4313
sg19
S'8410a0e3'
p4314
sg21
Vmov r1, #0x84
p4315
sg5
L1206160L
sg6
Nsg23
S'MOV'
p4316
sg25
S'0x126790L'
p4317
sg27
Nsba(ibclass
BInstr
p4318
(dp4319
g2
Nsg17
S'MOV     R2, #0x41       ; reason'
p4320
sg19
S'4120a0e3'
p4321
sg21
Vmov r2, #0x41
p4322
sg5
L1206164L
sg6
Nsg23
S'MOV'
p4323
sg25
S'0x126794L'
p4324
sg27
Nsba(ibclass
BInstr
p4325
(dp4326
g2
Nsg17
S'LDR     R3, [SP,#0xB0+file]; file'
p4327
sg19
S'1c309de5'
p4328
sg21
Vldr r3, [sp, #0x1c]
p4329
sg5
L1206168L
sg6
Nsg23
S'LDR'
p4330
sg25
S'0x126798L'
p4331
sg27
Nsba(ibclass
BInstr
p4332
(dp4333
g2
Nsg17
S'STR     R12, [SP,#0xB0+iv]; line'
p4334
sg19
S'00c08de5'
p4335
sg21
Vstr ip, [sp]
p4336
sg5
L1206172L
sg6
Nsg23
S'STR'
p4337
sg25
S'0x12679cL'
p4338
sg27
Nsba(ibclass
BInstr
p4339
(dp4340
g2
Nsg17
S'MOV     R4, #0'
p4341
sg19
S'0040a0e3'
p4342
sg21
Vmov r4, #0
p4343
sg5
L1206176L
sg6
Nsg23
S'MOV'
p4344
sg25
S'0x1267a0L'
p4345
sg27
Nsba(ibclass
BInstr
p4346
(dp4347
g2
Nsg17
S'BL      ERR_put_error'
p4348
sg19
S'b2aefeeb'
p4349
sg21
Vbl #0xfffabad0
p4350
sg5
L1206180L
sg6
Nsg23
S'BL'
p4351
sg25
S'0x1267a4L'
p4352
sg27
Nsba(ibclass
BInstr
p4353
(dp4354
g2
Nsg17
S'B       loc_1263D4'
p4355
sg19
S'09ffffea'
p4356
sg21
Vb #0xfffffc2c
p4357
sg5
L1206184L
sg6
Nsg23
g82
sg25
S'0x1267a8L'
p4358
sg27
Nsbasg84
(lp4359
S'MOV R12, #0xAA'
p4360
aS'ADD R0, R0, #0x21'
p4361
aS'MOV R1, #0x84'
p4362
aS'MOV R2, #0x41'
p4363
aS'LDR R3, mem'
p4364
aS'STR R12, mem'
p4365
aS'MOV R4, #0'
p4366
aS'BL ERR_put_error'
p4367
aS'B func'
p4368
asg95
Nsg5
S'0x126788L'
p4369
sg97
(lp4370
S'0x126384L'
p4371
asg6
Nsg99
(lp4372
S'0x1263d4L'
p4373
asg103
Nsg104
Nsg105
S'49bfa7fc2b74f885c48f351900030642'
p4374
sg107
S'19842a07d4296abc8a4d3727cf7223b7'
p4375
sg109
(lp4376
g4302
ag4309
ag4316
ag4323
ag4330
ag4337
ag4344
ag4351
ag82
asg111
Nsba(ibclass
BBasicBlock
p4377
(dp4378
g12
Nsg13
(lp4379
(ibclass
BInstr
p4380
(dp4381
g2
Nsg17
S'LDR     R3, [SP,#0xB0+var_A0]'
p4382
sg19
S'10309de5'
p4383
sg21
Vldr r3, [sp, #0x10]
p4384
sg5
L1206188L
sg6
Nsg23
S'LDR'
p4385
sg25
S'0x1267acL'
p4386
sg27
Nsba(ibclass
BInstr
p4387
(dp4388
g2
Nsg17
S'LDR     R0, [R3,#8]     ; buf'
p4389
sg19
S'080093e5'
p4390
sg21
Vldr r0, [r3, #8]
p4391
sg5
L1206192L
sg6
Nsg23
S'LDR'
p4392
sg25
S'0x1267b0L'
p4393
sg27
Nsba(ibclass
BInstr
p4394
(dp4395
g2
Nsg17
S'BL      BIO_new_mem_buf'
p4396
sg19
S'2875feeb'
p4397
sg21
Vbl #0xfff9d4a8
p4398
sg5
L1206196L
sg6
Nsg23
S'BL'
p4399
sg25
S'0x1267b4L'
p4400
sg27
Nsba(ibclass
BInstr
p4401
(dp4402
g2
Nsg17
S'MOV     bio, R0'
p4403
sg19
S'0060a0e1'
p4404
sg21
Vmov r6, r0
p4405
sg5
L1206200L
sg6
Nsg23
S'MOV'
p4406
sg25
S'0x1267b8L'
p4407
sg27
Nsbasg84
(lp4408
S'LDR R3, mem'
p4409
aS'LDR R0, mem'
p4410
aS'BL BIO_new_mem_buf'
p4411
aS'MOV bio, R0'
p4412
asg95
Nsg5
S'0x1267acL'
p4413
sg97
(lp4414
S'0x126758L'
p4415
asg6
Nsg99
(lp4416
S'0x1267bcL'
p4417
asg103
Nsg104
Nsg105
S'4ad124b3270f6f7b3d6a81fef9b9957a'
p4418
sg107
S'0ed85cce9568e80b046cd784884348b3'
p4419
sg109
(lp4420
g4385
ag4392
ag4399
ag4406
asg111
Nsba(ibclass
BBasicBlock
p4421
(dp4422
g12
Nsg13
(lp4423
(ibclass
BInstr
p4424
(dp4425
g2
Nsg17
S'CMP     bio, #0'
p4426
sg19
S'000056e3'
p4427
sg21
Vcmp r6, #0
p4428
sg5
L1206204L
sg6
Nsg23
S'CMP'
p4429
sg25
S'0x1267bcL'
p4430
sg27
Nsba(ibclass
BInstr
p4431
(dp4432
g2
Nsg17
S'BNE     loc_1265DC'
p4433
sg19
S'85ffff1a'
p4434
sg21
Vbne #0xfffffe1c
p4435
sg5
L1206208L
sg6
Nsg23
g82
sg25
S'0x1267c0L'
p4436
sg27
Nsbasg84
(lp4437
S'CMP bio, #0'
p4438
aS'BNE func'
p4439
asg95
Nsg5
S'0x1267bcL'
p4440
sg97
(lp4441
S'0x1267acL'
p4442
aS'0x126830L'
p4443
asg6
Nsg99
(lp4444
S'0x1265dcL'
p4445
aS'0x1267c4L'
p4446
asg103
Nsg104
Nsg105
S'c78fd620a449e3c979d3f3ec12d4ee88'
p4447
sg107
S'4b9e2922833288454167ea4195a3766c'
p4448
sg109
(lp4449
g4429
ag82
asg111
Nsba(ibclass
BBasicBlock
p4450
(dp4451
g12
Nsg13
(lp4452
(ibclass
BInstr
p4453
(dp4454
g2
Nsg17
S'B       loc_126764'
p4455
sg19
S'e6ffffea'
p4456
sg21
Vb #0xffffffa0
p4457
sg5
L1206212L
sg6
Nsg23
g82
sg25
S'0x1267c4L'
p4458
sg27
Nsbasg84
(lp4459
S'B func'
p4460
asg95
Nsg5
S'0x1267c4L'
p4461
sg97
(lp4462
S'0x1267bcL'
p4463
asg6
Nsg99
(lp4464
S'0x126764L'
p4465
asg103
Nsg104
Nsg105
S'9d5ed678fe57bcca610140957afab571'
p4466
sg107
S'071b057c420e304c628380fd3541c021'
p4467
sg109
(lp4468
g82
asg111
Nsba(ibclass
BBasicBlock
p4469
(dp4470
g12
Nsg13
(lp4471
(ibclass
BInstr
p4472
(dp4473
g2
Nsg17
S'BL      ASN1_TYPE_new'
p4474
sg19
S'7831ffeb'
p4475
sg21
Vbl #0xfffcc5e8
p4476
sg5
L1206216L
sg6
Nsg23
S'BL'
p4477
sg25
S'0x1267c8L'
p4478
sg27
Nsba(ibclass
BInstr
p4479
(dp4480
g2
Nsg17
S'LDR     R12, [SP,#0xB0+outlen]'
p4481
sg19
S'0cc09de5'
p4482
sg21
Vldr ip, [sp, #0xc]
p4483
sg5
L1206220L
sg6
Nsg23
S'LDR'
p4484
sg25
S'0x1267ccL'
p4485
sg27
Nsba(ibclass
BInstr
p4486
(dp4487
g2
Nsg17
S'CMP     R0, #0'
p4488
sg19
S'000050e3'
p4489
sg21
Vcmp r0, #0
p4490
sg5
L1206224L
sg6
Nsg23
S'CMP'
p4491
sg25
S'0x1267d0L'
p4492
sg27
Nsba(ibclass
BInstr
p4493
(dp4494
g2
Nsg17
S'MOV     R1, R0'
p4495
sg19
S'0010a0e1'
p4496
sg21
Vmov r1, r0
p4497
sg5
L1206228L
sg6
Nsg23
S'MOV'
p4498
sg25
S'0x1267d4L'
p4499
sg27
Nsba(ibclass
BInstr
p4500
(dp4501
g2
Nsg17
S'STR     R0, [R12,#4]'
p4502
sg19
S'04008ce5'
p4503
sg21
Vstr r0, [ip, #4]
p4504
sg5
L1206232L
sg6
Nsg23
S'STR'
p4505
sg25
S'0x1267d8L'
p4506
sg27
Nsba(ibclass
BInstr
p4507
(dp4508
g2
Nsg17
S'BNE     loc_126300'
p4509
sg19
S'c7feff1a'
p4510
sg21
Vbne #0xfffffb24
p4511
sg5
L1206236L
sg6
Nsg23
g82
sg25
S'0x1267dcL'
p4512
sg27
Nsbasg84
(lp4513
S'BL ASN1_TYPE_new'
p4514
aS'LDR R12, mem'
p4515
aS'CMP R0, #0'
p4516
aS'MOV R1, R0'
p4517
aS'STR R0, mem'
p4518
aS'BNE func'
p4519
asg95
Nsg5
S'0x1267c8L'
p4520
sg97
(lp4521
S'0x1262f0L'
p4522
asg6
Nsg99
(lp4523
S'0x126300L'
p4524
aS'0x1267e0L'
p4525
asg103
Nsg104
Nsg105
S'379d2158795672edc4fe519ab85ca275'
p4526
sg107
S'b7e0c15c38d0e37d39c2686ad872c7b7'
p4527
sg109
(lp4528
g4477
ag4484
ag4491
ag4498
ag4505
ag82
asg111
Nsba(ibclass
BBasicBlock
p4529
(dp4530
g12
Nsg13
(lp4531
(ibclass
BInstr
p4532
(dp4533
g2
Nsg17
S'B       loc_126570'
p4534
sg19
S'62ffffea'
p4535
sg21
Vb #0xfffffd90
p4536
sg5
L1206240L
sg6
Nsg23
g82
sg25
S'0x1267e0L'
p4537
sg27
Nsbasg84
(lp4538
S'B func'
p4539
asg95
Nsg5
S'0x1267e0L'
p4540
sg97
(lp4541
S'0x1267c8L'
p4542
asg6
Nsg99
(lp4543
S'0x126570L'
p4544
asg103
Nsg104
Nsg105
S'9d5ed678fe57bcca610140957afab571'
p4545
sg107
S'071b057c420e304c628380fd3541c021'
p4546
sg109
(lp4547
g82
asg111
Nsba(ibclass
BBasicBlock
p4548
(dp4549
g12
Nsg13
(lp4550
(ibclass
BInstr
p4551
(dp4552
g2
Nsg17
S'LDR     R2, [R3]'
p4553
sg19
S'002093e5'
p4554
sg21
Vldr r2, [r3]
p4555
sg5
L1206244L
sg6
Nsg23
S'LDR'
p4556
sg25
S'0x1267e4L'
p4557
sg27
Nsba(ibclass
BInstr
p4558
(dp4559
g2
Nsg17
S'CMP     R2, #4'
p4560
sg19
S'040052e3'
p4561
sg21
Vcmp r2, #4
p4562
sg5
L1206248L
sg6
Nsg23
S'CMP'
p4563
sg25
S'0x1267e8L'
p4564
sg27
Nsba(ibclass
BInstr
p4565
(dp4566
g2
Nsg17
S'LDREQ   R3, [R3,#4]'
p4567
sg19
S'04309305'
p4568
sg21
Vldreq r3, [r3, #4]
p4569
sg5
L1206252L
sg6
Nsg23
S'LDR'
p4570
sg25
S'0x1267ecL'
p4571
sg27
Nsba(ibclass
BInstr
p4572
(dp4573
g2
Nsg17
S'STREQ   R3, [SP,#0xB0+var_A0]'
p4574
sg19
S'10308d05'
p4575
sg21
Vstreq r3, [sp, #0x10]
p4576
sg5
L1206256L
sg6
Nsg23
S'STR'
p4577
sg25
S'0x1267f0L'
p4578
sg27
Nsba(ibclass
BInstr
p4579
(dp4580
g2
Nsg17
S'BNE     loc_1266B4'
p4581
sg19
S'aeffff1a'
p4582
sg21
Vbne #0xfffffec0
p4583
sg5
L1206260L
sg6
Nsg23
g82
sg25
S'0x1267f4L'
p4584
sg27
Nsbasg84
(lp4585
S'LDR R2, mem'
p4586
aS'CMP R2, #4'
p4587
aS'LDREQ R3, mem'
p4588
aS'STREQ R3, mem'
p4589
aS'BNE func'
p4590
asg95
Nsg5
S'0x1267e4L'
p4591
sg97
(lp4592
S'0x1266a8L'
p4593
asg6
Nsg99
(lp4594
S'0x1266b4L'
p4595
aS'0x1267f8L'
p4596
asg103
Nsg104
Nsg105
S'2442af3588ba9c1512b06faf497f1dcb'
p4597
sg107
S'85ab71bad4ba5879233a16373bdedd11'
p4598
sg109
(lp4599
g4556
ag4563
ag4570
ag4577
ag82
asg111
Nsba(ibclass
BBasicBlock
p4600
(dp4601
g12
Nsg13
(lp4602
(ibclass
BInstr
p4603
(dp4604
g2
Nsg17
S'B       loc_1261A0'
p4605
sg19
S'68feffea'
p4606
sg21
Vb #0xfffff9a8
p4607
sg5
L1206264L
sg6
Nsg23
g82
sg25
S'0x1267f8L'
p4608
sg27
Nsbasg84
(lp4609
S'B func'
p4610
asg95
Nsg5
S'0x1267f8L'
p4611
sg97
(lp4612
S'0x1267e4L'
p4613
asg6
Nsg99
(lp4614
S'0x1261a0L'
p4615
asg103
Nsg104
Nsg105
S'9d5ed678fe57bcca610140957afab571'
p4616
sg107
S'071b057c420e304c628380fd3541c021'
p4617
sg109
(lp4618
g82
asg111
Nsba(ibclass
BBasicBlock
p4619
(dp4620
g12
Nsg13
(lp4621
(ibclass
BInstr
p4622
(dp4623
g2
Nsg17
S'LDR     R2, [R3]'
p4624
sg19
S'002093e5'
p4625
sg21
Vldr r2, [r3]
p4626
sg5
L1206268L
sg6
Nsg23
S'LDR'
p4627
sg25
S'0x1267fcL'
p4628
sg27
Nsba(ibclass
BInstr
p4629
(dp4630
g2
Nsg17
S'CMP     R2, #4'
p4631
sg19
S'040052e3'
p4632
sg21
Vcmp r2, #4
p4633
sg5
L1206272L
sg6
Nsg23
S'CMP'
p4634
sg25
S'0x126800L'
p4635
sg27
Nsba(ibclass
BInstr
p4636
(dp4637
g2
Nsg17
S'LDREQ   R3, [R3,#4]'
p4638
sg19
S'04309305'
p4639
sg21
Vldreq r3, [r3, #4]
p4640
sg5
L1206276L
sg6
Nsg23
S'LDR'
p4641
sg25
S'0x126804L'
p4642
sg27
Nsba(ibclass
BInstr
p4643
(dp4644
g2
Nsg17
S'STREQ   R3, [SP,#0xB0+var_A0]'
p4645
sg19
S'10308d05'
p4646
sg21
Vstreq r3, [sp, #0x10]
p4647
sg5
L1206280L
sg6
Nsg23
S'STR'
p4648
sg25
S'0x126808L'
p4649
sg27
Nsba(ibclass
BInstr
p4650
(dp4651
g2
Nsg17
S'BNE     loc_126688'
p4652
sg19
S'9dffff1a'
p4653
sg21
Vbne #0xfffffe7c
p4654
sg5
L1206284L
sg6
Nsg23
g82
sg25
S'0x12680cL'
p4655
sg27
Nsbasg84
(lp4656
S'LDR R2, mem'
p4657
aS'CMP R2, #4'
p4658
aS'LDREQ R3, mem'
p4659
aS'STREQ R3, mem'
p4660
aS'BNE func'
p4661
asg95
Nsg5
S'0x1267fcL'
p4662
sg97
(lp4663
S'0x12667cL'
p4664
asg6
Nsg99
(lp4665
S'0x126688L'
p4666
aS'0x126810L'
p4667
asg103
Nsg104
Nsg105
S'2442af3588ba9c1512b06faf497f1dcb'
p4668
sg107
S'85ab71bad4ba5879233a16373bdedd11'
p4669
sg109
(lp4670
g4627
ag4634
ag4641
ag4648
ag82
asg111
Nsba(ibclass
BBasicBlock
p4671
(dp4672
g12
Nsg13
(lp4673
(ibclass
BInstr
p4674
(dp4675
g2
Nsg17
S'B       loc_126484'
p4676
sg19
S'1bffffea'
p4677
sg21
Vb #0xfffffc74
p4678
sg5
L1206288L
sg6
Nsg23
g82
sg25
S'0x126810L'
p4679
sg27
Nsbasg84
(lp4680
S'B func'
p4681
asg95
Nsg5
S'0x126810L'
p4682
sg97
(lp4683
S'0x1267fcL'
p4684
asg6
Nsg99
(lp4685
S'0x126484L'
p4686
asg103
Nsg104
Nsg105
S'9d5ed678fe57bcca610140957afab571'
p4687
sg107
S'071b057c420e304c628380fd3541c021'
p4688
sg109
(lp4689
g82
asg111
Nsba(ibclass
BBasicBlock
p4690
(dp4691
g12
Nsg13
(lp4692
(ibclass
BInstr
p4693
(dp4694
g2
Nsg17
S'MOV     R2, bio         ; larg'
p4695
sg19
S'0620a0e1'
p4696
sg21
Vmov r2, r6
p4697
sg5
L1206292L
sg6
Nsg23
S'MOV'
p4698
sg25
S'0x126814L'
p4699
sg27
Nsba(ibclass
BInstr
p4700
(dp4701
g2
Nsg17
S'MOV     R0, p7          ; p7'
p4702
sg19
S'0400a0e1'
p4703
sg21
Vmov r0, r4
p4704
sg5
L1206296L
sg6
Nsg23
S'MOV'
p4705
sg25
S'0x126818L'
p4706
sg27
Nsba(ibclass
BInstr
p4707
(dp4708
g2
Nsg17
S'MOV     R1, #2          ; cmd'
p4709
sg19
S'0210a0e3'
p4710
sg21
Vmov r1, #2
p4711
sg5
L1206300L
sg6
Nsg23
S'MOV'
p4712
sg25
S'0x12681cL'
p4713
sg27
Nsba(ibclass
BInstr
p4714
(dp4715
g2
Nsg17
S'MOV     R3, bio         ; parg'
p4716
sg19
S'0630a0e1'
p4717
sg21
Vmov r3, r6
p4718
sg5
L1206304L
sg6
Nsg23
S'MOV'
p4719
sg25
S'0x126820L'
p4720
sg27
Nsba(ibclass
BInstr
p4721
(dp4722
g2
Nsg17
S'BL      PKCS7_ctrl'
p4723
sg19
S'5ef8ffeb'
p4724
sg21
Vbl #0xffffe180
p4725
sg5
L1206308L
sg6
Nsg23
S'BL'
p4726
sg25
S'0x126824L'
p4727
sg27
Nsba(ibclass
BInstr
p4728
(dp4729
g2
Nsg17
S'CMP     R0, #0'
p4730
sg19
S'000050e3'
p4731
sg21
Vcmp r0, #0
p4732
sg5
L1206312L
sg6
Nsg23
S'CMP'
p4733
sg25
S'0x126828L'
p4734
sg27
Nsba(ibclass
BInstr
p4735
(dp4736
g2
Nsg17
S'BEQ     loc_12674C'
p4737
sg19
S'c6ffff0a'
p4738
sg21
Vbeq #0xffffff20
p4739
sg5
L1206316L
sg6
Nsg23
g82
sg25
S'0x12682cL'
p4740
sg27
Nsbasg84
(lp4741
S'MOV R2, bio'
p4742
aS'MOV R0, p7'
p4743
aS'MOV R1, #2'
p4744
aS'MOV R3, bio'
p4745
aS'BL PKCS7_ctrl'
p4746
aS'CMP R0, #0'
p4747
aS'BEQ func'
p4748
asg95
Nsg5
S'0x126814L'
p4749
sg97
(lp4750
S'0x12673cL'
p4751
asg6
Nsg99
(lp4752
S'0x12674cL'
p4753
aS'0x126830L'
p4754
asg103
Nsg104
Nsg105
S'676b575ab6362ce643145c1a9b7658a0'
p4755
sg107
S'6dda87e9b688f1fde873d738c5f09d6f'
p4756
sg109
(lp4757
g4698
ag4705
ag4712
ag4719
ag4726
ag4733
ag82
asg111
Nsba(ibclass
BBasicBlock
p4758
(dp4759
g12
Nsg13
(lp4760
(ibclass
BInstr
p4761
(dp4762
g2
Nsg17
S'BL      BIO_s_null'
p4763
sg19
S'3876feeb'
p4764
sg21
Vbl #0xfff9d8e8
p4765
sg5
L1206320L
sg6
Nsg23
S'BL'
p4766
sg25
S'0x126830L'
p4767
sg27
Nsba(ibclass
BInstr
p4768
(dp4769
g2
Nsg17
S'BL      BIO_new'
p4770
sg19
S'e473feeb'
p4771
sg21
Vbl #0xfff9cf98
p4772
sg5
L1206324L
sg6
Nsg23
S'BL'
p4773
sg25
S'0x126834L'
p4774
sg27
Nsba(ibclass
BInstr
p4775
(dp4776
g2
Nsg17
S'MOV     R6, R0'
p4777
sg19
S'0060a0e1'
p4778
sg21
Vmov r6, r0
p4779
sg5
L1206328L
sg6
Nsg23
S'MOV'
p4780
sg25
S'0x126838L'
p4781
sg27
Nsba(ibclass
BInstr
p4782
(dp4783
g2
Nsg17
S'B       loc_1267BC'
p4784
sg19
S'deffffea'
p4785
sg21
Vb #0xffffff80
p4786
sg5
L1206332L
sg6
Nsg23
g82
sg25
S'0x12683cL'
p4787
sg27
Nsbasg84
(lp4788
S'BL BIO_s_null'
p4789
aS'BL BIO_new'
p4790
aS'MOV R6, R0'
p4791
aS'B func'
p4792
asg95
Nsg5
S'0x126830L'
p4793
sg97
(lp4794
S'0x126814L'
p4795
asg6
Nsg99
(lp4796
S'0x1267bcL'
p4797
asg103
Nsg104
Nsg105
S'e67e9b59afd48ba3d5ca798831a9d3b3'
p4798
sg107
S'873d5865ae04c802c05b44af2259209c'
p4799
sg109
(lp4800
g4766
ag4773
ag4780
ag82
asg111
Nsbasb.