(ibclass
BFunc
p0
(dp1
S'hash'
p2
NsS'name'
p3
S'BIO_vsnprintf'
p4
sS'start_address'
p5
L822500L
sS'flag'
p6
NsS'program'
p7
NsS'bbs'
p8
(lp9
(ibclass
BBasicBlock
p10
(dp11
S'function'
p12
NsS'binstrs'
p13
(lp14
(ibclass
BInstr
p15
(dp16
g2
NsS'disasm'
p17
S'STR     LR, [SP,#var_4]!'
p18
sS'bytes'
p19
S'04e02de5'
p20
sS'disasm_striped'
p21
Vstr lr, [sp, #-4]!
p22
sg5
L822500L
sg6
NsS'mnem'
p23
S'STR'
p24
sS'address'
p25
S'0xc8ce4L'
p26
sS'basicblock'
p27
Nsba(ibclass
BInstr
p28
(dp29
g2
Nsg17
S'SUB     SP, SP, #0x24'
p30
sg19
S'24d04de2'
p31
sg21
Vsub sp, sp, #0x24
p32
sg5
L822504L
sg6
Nsg23
S'SUB'
p33
sg25
S'0xc8ce8L'
p34
sg27
Nsba(ibclass
BInstr
p35
(dp36
g2
Nsg17
S'STR     buf, [SP,#0x28+retlen]'
p37
sg19
S'14008de5'
p38
sg21
Vstr r0, [sp, #0x14]
p39
sg5
L822508L
sg6
Nsg23
S'STR'
p40
sg25
S'0xc8cecL'
p41
sg27
Nsba(ibclass
BInstr
p42
(dp43
g2
Nsg17
S'STR     n, [SP,#0x28+truncated]'
p44
sg19
S'10108de5'
p45
sg21
Vstr r1, [sp, #0x10]
p46
sg5
L822512L
sg6
Nsg23
S'STR'
p47
sg25
S'0xc8cf0L'
p48
sg27
Nsba(ibclass
BInstr
p49
(dp50
g2
Nsg17
S'STMFA   SP, {format,args}'
p51
sg19
S'0c008de9'
p52
sg21
Vstmib sp, {r2, r3}
p53
sg5
L822516L
sg6
Nsg23
S'STM'
p54
sg25
S'0xc8cf4L'
p55
sg27
Nsba(ibclass
BInstr
p56
(dp57
g2
Nsg17
S'ADD     R12, SP, #0x28+var_10'
p58
sg19
S'18c08de2'
p59
sg21
Vadd ip, sp, #0x18
p60
sg5
L822520L
sg6
Nsg23
S'ADD'
p61
sg25
S'0xc8cf8L'
p62
sg27
Nsba(ibclass
BInstr
p63
(dp64
g2
Nsg17
S'ADD     buf, SP, #0x28+retlen; sbuffer'
p65
sg19
S'14008de2'
p66
sg21
Vadd r0, sp, #0x14
p67
sg5
L822524L
sg6
Nsg23
S'ADD'
p68
sg25
S'0xc8cfcL'
p69
sg27
Nsba(ibclass
BInstr
p70
(dp71
g2
Nsg17
S'MOV     n, #0           ; buffer'
p72
sg19
S'0010a0e3'
p73
sg21
Vmov r1, #0
p74
sg5
L822528L
sg6
Nsg23
S'MOV'
p75
sg25
S'0xc8d00L'
p76
sg27
Nsba(ibclass
BInstr
p77
(dp78
g2
Nsg17
S'ADD     format, SP, #0x28+truncated; maxlen'
p79
sg19
S'10208de2'
p80
sg21
Vadd r2, sp, #0x10
p81
sg5
L822532L
sg6
Nsg23
S'ADD'
p82
sg25
S'0xc8d04L'
p83
sg27
Nsba(ibclass
BInstr
p84
(dp85
g2
Nsg17
S'ADD     args, SP, #0x28+var_C; retlen'
p86
sg19
S'1c308de2'
p87
sg21
Vadd r3, sp, #0x1c
p88
sg5
L822536L
sg6
Nsg23
S'ADD'
p89
sg25
S'0xc8d08L'
p90
sg27
Nsba(ibclass
BInstr
p91
(dp92
g2
Nsg17
S'STR     R12, [SP,#0x28+var_28]; truncated'
p93
sg19
S'00c08de5'
p94
sg21
Vstr ip, [sp]
p95
sg5
L822540L
sg6
Nsg23
S'STR'
p96
sg25
S'0xc8d0cL'
p97
sg27
Nsba(ibclass
BInstr
p98
(dp99
g2
Nsg17
S'BL      _dopr'
p100
sg19
S'08f9ffeb'
p101
sg21
Vbl #0xffffe428
p102
sg5
L822544L
sg6
Nsg23
S'BL'
p103
sg25
S'0xc8d10L'
p104
sg27
Nsba(ibclass
BInstr
p105
(dp106
g2
Nsg17
S'CMP     R0, #0'
p107
sg19
S'000050e3'
p108
sg21
Vcmp r0, #0
p109
sg5
L822548L
sg6
Nsg23
S'CMP'
p110
sg25
S'0xc8d14L'
p111
sg27
Nsba(ibclass
BInstr
p112
(dp113
g2
Nsg17
S'BNE     loc_C8D2C'
p114
sg19
S'0300001a'
p115
sg21
Vbne #0x14
p116
sg5
L822552L
sg6
Nsg23
S'B'
p117
sg25
S'0xc8d18L'
p118
sg27
NsbasS'disasm_list'
p119
(lp120
S'STR LR, mem!'
p121
aS'SUB SP, SP, #0x24'
p122
aS'STR buf, mem'
p123
aS'STR n, mem'
p124
aS'STMFA SP, {format,args}'
p125
aS'ADD R12, SP, #0x28+var_10'
p126
aS'ADD buf, SP, #0x28+retlen'
p127
aS'MOV n, #0'
p128
aS'ADD format, SP, #0x28+truncated'
p129
aS'ADD args, SP, #0x28+var_C'
p130
aS'STR R12, mem'
p131
aS'BL _dopr'
p132
aS'CMP R0, #0'
p133
aS'BNE func'
p134
asS'end_address'
p135
Nsg5
S'0xc8ce4L'
p136
sS'preds'
p137
(lp138
sg6
NsS'succs'
p139
(lp140
S'0xc8d1cL'
p141
aS'0xc8d2cL'
p142
asS'hash_v3'
p143
NsS'flag_v2'
p144
NsS'hash_v1'
p145
S'f5b9f9b35c7902b5151c3aac9c5370df'
p146
sS'hash_v2'
p147
S'6bca99eecc51ceecd255527c5bb7d5d3'
p148
sS'mnen_list'
p149
(lp150
g24
ag33
ag40
ag47
ag54
ag61
ag68
ag75
ag82
ag89
ag96
ag103
ag110
ag117
asS'neighbour_disasm_list'
p151
Nsba(ibclass
BBasicBlock
p152
(dp153
g12
Nsg13
(lp154
(ibclass
BInstr
p155
(dp156
g2
Nsg17
S'MOV     R0, #0xFFFFFFFF'
p157
sg19
S'0000e0e3'
p158
sg21
Vmvn r0, #0
p159
sg5
L822556L
sg6
Nsg23
S'MOV'
p160
sg25
S'0xc8d1cL'
p161
sg27
Nsbasg119
(lp162
S'MOV R0, #0xFFFFFFFF'
p163
asg135
Nsg5
S'0xc8d1cL'
p164
sg137
(lp165
S'0xc8ce4L'
p166
aS'0xc8d2cL'
p167
asg6
Nsg139
(lp168
S'0xc8d20L'
p169
asg143
Nsg144
Nsg145
S'17b32100aef1fc19670be7fd58bc85df'
p170
sg147
S'2f6c832f29d27f833f88b986f303094f'
p171
sg149
(lp172
g160
asg151
Nsba(ibclass
BBasicBlock
p173
(dp174
g12
Nsg13
(lp175
(ibclass
BInstr
p176
(dp177
g2
Nsg17
S'ADD     SP, SP, #0x24'
p178
sg19
S'24d08de2'
p179
sg21
Vadd sp, sp, #0x24
p180
sg5
L822560L
sg6
Nsg23
S'ADD'
p181
sg25
S'0xc8d20L'
p182
sg27
Nsba(ibclass
BInstr
p183
(dp184
g2
Nsg17
S'LDR     LR, [SP+4+var_4],#4'
p185
sg19
S'04e09de4'
p186
sg21
Vpop {lr}
p187
sg5
L822564L
sg6
Nsg23
S'LDR'
p188
sg25
S'0xc8d24L'
p189
sg27
Nsba(ibclass
BInstr
p190
(dp191
g2
Nsg17
S'BX      LR'
p192
sg19
S'1eff2fe1'
p193
sg21
Vbx lr
p194
sg5
L822568L
sg6
Nsg23
S'BX'
p195
sg25
S'0xc8d28L'
p196
sg27
Nsbasg119
(lp197
S'ADD SP, SP, #0x24'
p198
aS'LDR LR, mem,#4'
p199
aS'BX LR'
p200
asg135
Nsg5
S'0xc8d20L'
p201
sg137
(lp202
S'0xc8d1cL'
p203
aS'0xc8d38L'
p204
asg6
Nsg139
(lp205
sg143
Nsg144
Nsg145
S'cf5dc1670d5601cff1696432a15e7c57'
p206
sg147
S'2ac36ae4f8444c194057eb4ae86184a5'
p207
sg149
(lp208
g181
ag188
ag195
asg151
Nsba(ibclass
BBasicBlock
p209
(dp210
g12
Nsg13
(lp211
(ibclass
BInstr
p212
(dp213
g2
Nsg17
S'LDR     R3, [SP,#0x28+var_10]'
p214
sg19
S'18309de5'
p215
sg21
Vldr r3, [sp, #0x18]
p216
sg5
L822572L
sg6
Nsg23
S'LDR'
p217
sg25
S'0xc8d2cL'
p218
sg27
Nsba(ibclass
BInstr
p219
(dp220
g2
Nsg17
S'CMP     R3, #0'
p221
sg19
S'000053e3'
p222
sg21
Vcmp r3, #0
p223
sg5
L822576L
sg6
Nsg23
S'CMP'
p224
sg25
S'0xc8d30L'
p225
sg27
Nsba(ibclass
BInstr
p226
(dp227
g2
Nsg17
S'BNE     loc_C8D1C'
p228
sg19
S'f8ffff1a'
p229
sg21
Vbne #0xffffffe8
p230
sg5
L822580L
sg6
Nsg23
g117
sg25
S'0xc8d34L'
p231
sg27
Nsbasg119
(lp232
S'LDR R3, mem'
p233
aS'CMP R3, #0'
p234
aS'BNE func'
p235
asg135
Nsg5
S'0xc8d2cL'
p236
sg137
(lp237
S'0xc8ce4L'
p238
asg6
Nsg139
(lp239
S'0xc8d1cL'
p240
aS'0xc8d38L'
p241
asg143
Nsg144
Nsg145
S'fa4df767a85c49648339e2dc5c6807f6'
p242
sg147
S'1bb12c7dd982fd3e3da2842e84d201cf'
p243
sg149
(lp244
g217
ag224
ag117
asg151
Nsba(ibclass
BBasicBlock
p245
(dp246
g12
Nsg13
(lp247
(ibclass
BInstr
p248
(dp249
g2
Nsg17
S'LDR     R0, [SP,#0x28+var_C]'
p250
sg19
S'1c009de5'
p251
sg21
Vldr r0, [sp, #0x1c]
p252
sg5
L822584L
sg6
Nsg23
S'LDR'
p253
sg25
S'0xc8d38L'
p254
sg27
Nsba(ibclass
BInstr
p255
(dp256
g2
Nsg17
S'ORR     R0, R0, R0,ASR#31'
p257
sg19
S'c00f80e1'
p258
sg21
Vorr r0, r0, r0, asr #31
p259
sg5
L822588L
sg6
Nsg23
S'ORR'
p260
sg25
S'0xc8d3cL'
p261
sg27
Nsba(ibclass
BInstr
p262
(dp263
g2
Nsg17
S'B       loc_C8D20'
p264
sg19
S'f6ffffea'
p265
sg21
Vb #0xffffffe0
p266
sg5
L822592L
sg6
Nsg23
g117
sg25
S'0xc8d40L'
p267
sg27
Nsbasg119
(lp268
S'LDR R0, mem'
p269
aS'ORR R0, R0, R0,ASR#31'
p270
aS'B func'
p271
asg135
Nsg5
S'0xc8d38L'
p272
sg137
(lp273
S'0xc8d2cL'
p274
asg6
Nsg139
(lp275
S'0xc8d20L'
p276
asg143
Nsg144
Nsg145
S'57a9818f64e2b63e818edde552c81a5b'
p277
sg147
S'0f005ac8480302cb6a02cd719641c971'
p278
sg149
(lp279
g253
ag260
ag117
asg151
Nsbasb.