(ibclass
BFunc
p0
(dp1
S'hash'
p2
NsS'name'
p3
S'BN_to_ASN1_INTEGER'
p4
sS'start_address'
p5
L933064L
sS'flag'
p6
NsS'program'
p7
NsS'bbs'
p8
(lp9
(ibclass
BBasicBlock
p10
(dp11
S'function'
p12
NsS'binstrs'
p13
(lp14
(ibclass
BInstr
p15
(dp16
g2
NsS'disasm'
p17
S'STMFD   SP!, {ret-R8,LR}'
p18
sS'bytes'
p19
S'f0412de9'
p20
sS'disasm_striped'
p21
Vpush {r4, r5, r6, r7, r8, lr}
p22
sg5
L933064L
sg6
NsS'mnem'
p23
S'STM'
p24
sS'address'
p25
S'0xe3cc8L'
p26
sS'basicblock'
p27
Nsba(ibclass
BInstr
p28
(dp29
g2
Nsg17
S'LDR     R6, =($_GLOBAL_OFFSET_TABLE_ - 0xE3CDC)'
p30
sg19
S'4c619fe5'
p31
sg21
Vldr r6, [pc, #0x14c]
p32
sg5
L933068L
sg6
Nsg23
S'LDR'
p33
sg25
S'0xe3cccL'
p34
sg27
Nsba(ibclass
BInstr
p35
(dp36
g2
Nsg17
S'SUBS    R7, ai, #0'
p37
sg19
S'007051e2'
p38
sg21
Vsubs r7, r1, #0
p39
sg5
L933072L
sg6
Nsg23
S'SUB'
p40
sg25
S'0xe3cd0L'
p41
sg27
Nsba(ibclass
BInstr
p42
(dp43
g2
Nsg17
S'ADD     R6, PC, R6 ; $_GLOBAL_OFFSET_TABLE_'
p44
sg19
S'06608fe0'
p45
sg21
Vadd r6, pc, r6
p46
sg5
L933076L
sg6
Nsg23
S'ADD'
p47
sg25
S'0xe3cd4L'
p48
sg27
Nsba(ibclass
BInstr
p49
(dp50
g2
Nsg17
S'SUB     SP, SP, #8'
p51
sg19
S'08d04de2'
p52
sg21
Vsub sp, sp, #8
p53
sg5
L933080L
sg6
Nsg23
S'SUB'
p54
sg25
S'0xe3cd8L'
p55
sg27
Nsba(ibclass
BInstr
p56
(dp57
g2
Nsg17
S'MOV     R5, bn'
p58
sg19
S'0050a0e1'
p59
sg21
Vmov r5, r0
p60
sg5
L933084L
sg6
Nsg23
S'MOV'
p61
sg25
S'0xe3cdcL'
p62
sg27
Nsba(ibclass
BInstr
p63
(dp64
g2
Nsg17
S'MOVNE   ret, R7'
p65
sg19
S'0740a011'
p66
sg21
Vmovne r4, r7
p67
sg5
L933088L
sg6
Nsg23
S'MOV'
p68
sg25
S'0xe3ce0L'
p69
sg27
Nsba(ibclass
BInstr
p70
(dp71
g2
Nsg17
S'BEQ     loc_E3DEC'
p72
sg19
S'4000000a'
p73
sg21
Vbeq #0x108
p74
sg5
L933092L
sg6
Nsg23
S'B'
p75
sg25
S'0xe3ce4L'
p76
sg27
NsbasS'disasm_list'
p77
(lp78
S'STMFD SP!, {ret-R8,LR}'
p79
aS'LDR R6, =($_GLOBAL_OFFSET_TABLE_ - 0xE3CDC)'
p80
aS'SUBS R7, ai, #0'
p81
aS'ADD R6, PC, R6'
p82
aS'SUB SP, SP, #8'
p83
aS'MOV R5, bn'
p84
aS'MOVNE ret, R7'
p85
aS'BEQ func'
p86
asS'end_address'
p87
Nsg5
S'0xe3cc8L'
p88
sS'preds'
p89
(lp90
sg6
NsS'succs'
p91
(lp92
S'0xe3ce8L'
p93
aS'0xe3decL'
p94
asS'hash_v3'
p95
NsS'flag_v2'
p96
NsS'hash_v1'
p97
S'52d78ae7b3b5764a1741c4e87c30593d'
p98
sS'hash_v2'
p99
S'd2f20489566bf797228fed37cfbca9fa'
p100
sS'mnen_list'
p101
(lp102
g24
ag33
ag40
ag47
ag54
ag61
ag68
ag75
asS'neighbour_disasm_list'
p103
Nsba(ibclass
BBasicBlock
p104
(dp105
g12
Nsg13
(lp106
(ibclass
BInstr
p107
(dp108
g2
Nsg17
S'LDR     R3, [bn,#0xC]'
p109
sg19
S'0c3095e5'
p110
sg21
Vldr r3, [r5, #0xc]
p111
sg5
L933096L
sg6
Nsg23
S'LDR'
p112
sg25
S'0xe3ce8L'
p113
sg27
Nsba(ibclass
BInstr
p114
(dp115
g2
Nsg17
S'CMP     R3, #0'
p116
sg19
S'000053e3'
p117
sg21
Vcmp r3, #0
p118
sg5
L933100L
sg6
Nsg23
S'CMP'
p119
sg25
S'0xe3cecL'
p120
sg27
Nsba(ibclass
BInstr
p121
(dp122
g2
Nsg17
S'BNE     loc_E3DD4'
p123
sg19
S'3700001a'
p124
sg21
Vbne #0xe4
p125
sg5
L933104L
sg6
Nsg23
g75
sg25
S'0xe3cf0L'
p126
sg27
Nsbasg77
(lp127
S'LDR R3, mem'
p128
aS'CMP R3, #0'
p129
aS'BNE func'
p130
asg87
Nsg5
S'0xe3ce8L'
p131
sg89
(lp132
S'0xe3cc8L'
p133
aS'0xe3decL'
p134
asg6
Nsg91
(lp135
S'0xe3cf4L'
p136
aS'0xe3dd4L'
p137
asg95
Nsg96
Nsg97
S'fa4df767a85c49648339e2dc5c6807f6'
p138
sg99
S'1bb12c7dd982fd3e3da2842e84d201cf'
p139
sg101
(lp140
g112
ag119
ag75
asg103
Nsba(ibclass
BBasicBlock
p141
(dp142
g12
Nsg13
(lp143
(ibclass
BInstr
p144
(dp145
g2
Nsg17
S'MOV     R3, #2'
p146
sg19
S'0230a0e3'
p147
sg21
Vmov r3, #2
p148
sg5
L933108L
sg6
Nsg23
S'MOV'
p149
sg25
S'0xe3cf4L'
p150
sg27
Nsba(ibclass
BInstr
p151
(dp152
g2
Nsg17
S'STR     R3, [ret,#4]'
p153
sg19
S'043084e5'
p154
sg21
Vstr r3, [r4, #4]
p155
sg5
L933112L
sg6
Nsg23
S'STR'
p156
sg25
S'0xe3cf8L'
p157
sg27
Nsbasg77
(lp158
S'MOV R3, #2'
p159
aS'STR R3, mem'
p160
asg87
Nsg5
S'0xe3cf4L'
p161
sg89
(lp162
S'0xe3ce8L'
p163
aS'0xe3de8L'
p164
asg6
Nsg91
(lp165
S'0xe3cfcL'
p166
asg95
Nsg96
Nsg97
S'3eed647220a7a2b9a25f701446ac2ce1'
p167
sg99
S'edffc6f9f71208034ea57f7142b84ba1'
p168
sg101
(lp169
g149
ag156
asg103
Nsba(ibclass
BBasicBlock
p170
(dp171
g12
Nsg13
(lp172
(ibclass
BInstr
p173
(dp174
g2
Nsg17
S'MOV     R0, bn          ; a'
p175
sg19
S'0500a0e1'
p176
sg21
Vmov r0, r5
p177
sg5
L933116L
sg6
Nsg23
S'MOV'
p178
sg25
S'0xe3cfcL'
p179
sg27
Nsba(ibclass
BInstr
p180
(dp181
g2
Nsg17
S'BL      BN_num_bits'
p182
sg19
S'3a97feeb'
p183
sg21
Vbl #0xfffa5cf0
p184
sg5
L933120L
sg6
Nsg23
S'BL'
p185
sg25
S'0xe3d00L'
p186
sg27
Nsba(ibclass
BInstr
p187
(dp188
g2
Nsg17
S'CMP     R0, #0'
p189
sg19
S'000050e3'
p190
sg21
Vcmp r0, #0
p191
sg5
L933124L
sg6
Nsg23
S'CMP'
p192
sg25
S'0xe3d04L'
p193
sg27
Nsba(ibclass
BInstr
p194
(dp195
g2
Nsg17
S'MOVEQ   R3, #3'
p196
sg19
S'0330a003'
p197
sg21
Vmoveq r3, #3
p198
sg5
L933128L
sg6
Nsg23
S'MOV'
p199
sg25
S'0xe3d08L'
p200
sg27
Nsba(ibclass
BInstr
p201
(dp202
g2
Nsg17
S'BNE     loc_E3DAC'
p203
sg19
S'2600001a'
p204
sg21
Vbne #0xa0
p205
sg5
L933132L
sg6
Nsg23
g75
sg25
S'0xe3d0cL'
p206
sg27
Nsbasg77
(lp207
S'MOV R0, bn'
p208
aS'BL BN_num_bits'
p209
aS'CMP R0, #0'
p210
aS'MOVEQ R3, #3'
p211
aS'BNE func'
p212
asg87
Nsg5
S'0xe3cfcL'
p213
sg89
(lp214
S'0xe3cf4L'
p215
aS'0xe3dd4L'
p216
asg6
Nsg91
(lp217
S'0xe3d10L'
p218
aS'0xe3dacL'
p219
asg95
Nsg96
Nsg97
S'64431fe0327d49f8402a22c5ffa00d4f'
p220
sg99
S'85f886ce290e7222d4d12ef0a8152adc'
p221
sg101
(lp222
g178
ag185
ag192
ag199
ag75
asg103
Nsba(ibclass
BBasicBlock
p223
(dp224
g12
Nsg13
(lp225
(ibclass
BInstr
p226
(dp227
g2
Nsg17
S'LDR     R2, [ret]'
p228
sg19
S'002094e5'
p229
sg21
Vldr r2, [r4]
p230
sg5
L933136L
sg6
Nsg23
S'LDR'
p231
sg25
S'0xe3d10L'
p232
sg27
Nsba(ibclass
BInstr
p233
(dp234
g2
Nsg17
S'CMP     R2, R3'
p235
sg19
S'030052e1'
p236
sg21
Vcmp r2, r3
p237
sg5
L933140L
sg6
Nsg23
S'CMP'
p238
sg25
S'0xe3d14L'
p239
sg27
Nsba(ibclass
BInstr
p240
(dp241
g2
Nsg17
S'LDRGT   R6, [ret,#8]'
p242
sg19
S'086094c5'
p243
sg21
Vldrgt r6, [r4, #8]
p244
sg5
L933144L
sg6
Nsg23
S'LDR'
p245
sg25
S'0xe3d18L'
p246
sg27
Nsba(ibclass
BInstr
p247
(dp248
g2
Nsg17
S'BLE     loc_E3D54'
p249
sg19
S'0c0000da'
p250
sg21
Vble #0x38
p251
sg5
L933148L
sg6
Nsg23
g75
sg25
S'0xe3d1cL'
p252
sg27
Nsbasg77
(lp253
S'LDR R2, mem'
p254
aS'CMP R2, R3'
p255
aS'LDRGT R6, mem'
p256
aS'BLE func'
p257
asg87
Nsg5
S'0xe3d10L'
p258
sg89
(lp259
S'0xe3cfcL'
p260
asg6
Nsg91
(lp261
S'0xe3d20L'
p262
aS'0xe3d54L'
p263
asg95
Nsg96
Nsg97
S'4e0264078831c1987b4b9c84f5720857'
p264
sg99
S'0280adec85c3ab39c4d5ade43d3462c9'
p265
sg101
(lp266
g231
ag238
ag245
ag75
asg103
Nsba(ibclass
BBasicBlock
p267
(dp268
g12
Nsg13
(lp269
(ibclass
BInstr
p270
(dp271
g2
Nsg17
S'MOV     j, bn           ; a'
p272
sg19
S'0500a0e1'
p273
sg21
Vmov r0, r5
p274
sg5
L933152L
sg6
Nsg23
S'MOV'
p275
sg25
S'0xe3d20L'
p276
sg27
Nsba(ibclass
BInstr
p277
(dp278
g2
Nsg17
S'MOV     R1, new_data    ; to'
p279
sg19
S'0610a0e1'
p280
sg21
Vmov r1, r6
p281
sg5
L933156L
sg6
Nsg23
S'MOV'
p282
sg25
S'0xe3d24L'
p283
sg27
Nsba(ibclass
BInstr
p284
(dp285
g2
Nsg17
S'BL      BN_bn2bin'
p286
sg19
S'6097feeb'
p287
sg21
Vbl #0xfffa5d88
p288
sg5
L933160L
sg6
Nsg23
S'BL'
p289
sg25
S'0xe3d28L'
p290
sg27
Nsba(ibclass
BInstr
p291
(dp292
g2
Nsg17
S'CMP     R0, #0'
p293
sg19
S'000050e3'
p294
sg21
Vcmp r0, #0
p295
sg5
L933164L
sg6
Nsg23
S'CMP'
p296
sg25
S'0xe3d2cL'
p297
sg27
Nsba(ibclass
BInstr
p298
(dp299
g2
Nsg17
S'STR     R0, [ret]'
p300
sg19
S'000084e5'
p301
sg21
Vstr r0, [r4]
p302
sg5
L933168L
sg6
Nsg23
S'STR'
p303
sg25
S'0xe3d30L'
p304
sg27
Nsba(ibclass
BInstr
p305
(dp306
g2
Nsg17
S'LDREQ   R3, [ret,#8]'
p307
sg19
S'08309405'
p308
sg21
Vldreq r3, [r4, #8]
p309
sg5
L933172L
sg6
Nsg23
S'LDR'
p310
sg25
S'0xe3d34L'
p311
sg27
Nsba(ibclass
BInstr
p312
(dp313
g2
Nsg17
S'STREQB  R0, [R3]'
p314
sg19
S'0000c305'
p315
sg21
Vstrbeq r0, [r3]
p316
sg5
L933176L
sg6
Nsg23
S'STR'
p317
sg25
S'0xe3d38L'
p318
sg27
Nsba(ibclass
BInstr
p319
(dp320
g2
Nsg17
S'MOVEQ   R3, #1'
p321
sg19
S'0130a003'
p322
sg21
Vmoveq r3, #1
p323
sg5
L933180L
sg6
Nsg23
S'MOV'
p324
sg25
S'0xe3d3cL'
p325
sg27
Nsba(ibclass
BInstr
p326
(dp327
g2
Nsg17
S'STREQ   R3, [ret]'
p328
sg19
S'00308405'
p329
sg21
Vstreq r3, [r4]
p330
sg5
L933184L
sg6
Nsg23
S'STR'
p331
sg25
S'0xe3d40L'
p332
sg27
Nsbasg77
(lp333
S'MOV j, bn'
p334
aS'MOV R1, new_data'
p335
aS'BL BN_bn2bin'
p336
aS'CMP R0, #0'
p337
aS'STR R0, mem'
p338
aS'LDREQ R3, mem'
p339
aS'STREQB R0, mem'
p340
aS'MOVEQ R3, #1'
p341
aS'STREQ R3, mem'
p342
asg87
Nsg5
S'0xe3d20L'
p343
sg89
(lp344
S'0xe3d10L'
p345
aS'0xe3d54L'
p346
aS'0xe3dacL'
p347
asg6
Nsg91
(lp348
S'0xe3d44L'
p349
asg95
Nsg96
Nsg97
S'cdc96cb5728275d3e954aa821a984057'
p350
sg99
S'301a8cff10c625115a72a4955555c045'
p351
sg101
(lp352
g275
ag282
ag289
ag296
ag303
ag310
ag317
ag324
ag331
asg103
Nsba(ibclass
BBasicBlock
p353
(dp354
g12
Nsg13
(lp355
(ibclass
BInstr
p356
(dp357
g2
Nsg17
S'MOV     R0, ret'
p358
sg19
S'0400a0e1'
p359
sg21
Vmov r0, r4
p360
sg5
L933188L
sg6
Nsg23
S'MOV'
p361
sg25
S'0xe3d44L'
p362
sg27
Nsba(ibclass
BInstr
p363
(dp364
g2
Nsg17
S'ADD     SP, SP, #8'
p365
sg19
S'08d08de2'
p366
sg21
Vadd sp, sp, #8
p367
sg5
L933192L
sg6
Nsg23
S'ADD'
p368
sg25
S'0xe3d48L'
p369
sg27
Nsba(ibclass
BInstr
p370
(dp371
g2
Nsg17
S'LDMFD   SP!, {ret-R8,LR}'
p372
sg19
S'f041bde8'
p373
sg21
Vpop {r4, r5, r6, r7, r8, lr}
p374
sg5
L933196L
sg6
Nsg23
S'LDM'
p375
sg25
S'0xe3d4cL'
p376
sg27
Nsba(ibclass
BInstr
p377
(dp378
g2
Nsg17
S'BX      LR'
p379
sg19
S'1eff2fe1'
p380
sg21
Vbx lr
p381
sg5
L933200L
sg6
Nsg23
S'BX'
p382
sg25
S'0xe3d50L'
p383
sg27
Nsbasg77
(lp384
S'MOV R0, ret'
p385
aS'ADD SP, SP, #8'
p386
aS'LDMFD SP!, {ret-R8,LR}'
p387
aS'BX LR'
p388
asg87
Nsg5
S'0xe3d44L'
p389
sg89
(lp390
S'0xe3d20L'
p391
aS'0xe3d7cL'
p392
aS'0xe3dfcL'
p393
asg6
Nsg91
(lp394
sg95
Nsg96
Nsg97
S'bc984d627a05f387655964404c76526b'
p395
sg99
S'ee6f52c0583e5c0b1e93dd0d2a51cf01'
p396
sg101
(lp397
g361
ag368
ag375
ag382
asg103
Nsba(ibclass
BBasicBlock
p398
(dp399
g12
Nsg13
(lp400
(ibclass
BInstr
p401
(dp402
g2
Nsg17
S'LDR     R8, =(aA_int_c - 0x18A000)'
p403
sg19
S'c8809fe5'
p404
sg21
Vldr r8, [pc, #0xc8]
p405
sg5
L933204L
sg6
Nsg23
S'LDR'
p406
sg25
S'0xe3d54L'
p407
sg27
Nsba(ibclass
BInstr
p408
(dp409
g2
Nsg17
S'ADD     R1, j, #4       ; num'
p410
sg19
S'041080e2'
p411
sg21
Vadd r1, r0, #4
p412
sg5
L933208L
sg6
Nsg23
S'ADD'
p413
sg25
S'0xe3d58L'
p414
sg27
Nsba(ibclass
BInstr
p415
(dp416
g2
Nsg17
S'ADD     R8, new_data, R8; "a_int.c"'
p417
sg19
S'088086e0'
p418
sg21
Vadd r8, r6, r8
p419
sg5
L933212L
sg6
Nsg23
S'ADD'
p420
sg25
S'0xe3d5cL'
p421
sg27
Nsba(ibclass
BInstr
p422
(dp423
g2
Nsg17
S'LDR     j, [ret,#8]     ; str'
p424
sg19
S'080094e5'
p425
sg21
Vldr r0, [r4, #8]
p426
sg5
L933216L
sg6
Nsg23
S'LDR'
p427
sg25
S'0xe3d60L'
p428
sg27
Nsba(ibclass
BInstr
p429
(dp430
g2
Nsg17
S'MOV     R2, R8          ; file'
p431
sg19
S'0820a0e1'
p432
sg21
Vmov r2, r8
p433
sg5
L933220L
sg6
Nsg23
S'MOV'
p434
sg25
S'0xe3d64L'
p435
sg27
Nsba(ibclass
BInstr
p436
(dp437
g2
Nsg17
S'LDR     R3, =0x1AF      ; line'
p438
sg19
S'b8309fe5'
p439
sg21
Vldr r3, [pc, #0xb8]
p440
sg5
L933224L
sg6
Nsg23
S'LDR'
p441
sg25
S'0xe3d68L'
p442
sg27
Nsba(ibclass
BInstr
p443
(dp444
g2
Nsg17
S'BL      CRYPTO_realloc'
p445
sg19
S'518bfdeb'
p446
sg21
Vbl #0xfff62d4c
p447
sg5
L933228L
sg6
Nsg23
S'BL'
p448
sg25
S'0xe3d6cL'
p449
sg27
Nsba(ibclass
BInstr
p450
(dp451
g2
Nsg17
S'SUBS    R6, R0, #0'
p452
sg19
S'006050e2'
p453
sg21
Vsubs r6, r0, #0
p454
sg5
L933232L
sg6
Nsg23
S'SUB'
p455
sg25
S'0xe3d70L'
p456
sg27
Nsba(ibclass
BInstr
p457
(dp458
g2
Nsg17
S'STRNE   new_data, [ret,#8]'
p459
sg19
S'08608415'
p460
sg21
Vstrne r6, [r4, #8]
p461
sg5
L933236L
sg6
Nsg23
S'STR'
p462
sg25
S'0xe3d74L'
p463
sg27
Nsba(ibclass
BInstr
p464
(dp465
g2
Nsg17
S'BNE     loc_E3D20'
p466
sg19
S'e8ffff1a'
p467
sg21
Vbne #0xffffffa8
p468
sg5
L933240L
sg6
Nsg23
g75
sg25
S'0xe3d78L'
p469
sg27
Nsbasg77
(lp470
S'LDR R8, =(aA_int_c - 0x18A000)'
p471
aS'ADD R1, j, #4'
p472
aS'ADD R8, new_data, R8'
p473
aS'LDR j, mem'
p474
aS'MOV R2, R8'
p475
aS'LDR R3, =0x1AF'
p476
aS'BL CRYPTO_reregloc'
p477
aS'SUBS R6, R0, #0'
p478
aS'STRNE new_data, mem'
p479
aS'BNE func'
p480
asg87
Nsg5
S'0xe3d54L'
p481
sg89
(lp482
S'0xe3d10L'
p483
aS'0xe3dd0L'
p484
asg6
Nsg91
(lp485
S'0xe3d20L'
p486
aS'0xe3d7cL'
p487
asg95
Nsg96
Nsg97
S'fa3e44e63424b0ceb90332ebbbd7f938'
p488
sg99
S'839f1ddae74d74a4ad49be5c6659c19d'
p489
sg101
(lp490
g406
ag413
ag420
ag427
ag434
ag441
ag448
ag455
ag462
ag75
asg103
Nsba(ibclass
BBasicBlock
p491
(dp492
g12
Nsg13
(lp493
(ibclass
BInstr
p494
(dp495
g2
Nsg17
S'LDR     R12, =0x1B1'
p496
sg19
S'a8c09fe5'
p497
sg21
Vldr ip, [pc, #0xa8]
p498
sg5
L933244L
sg6
Nsg23
S'LDR'
p499
sg25
S'0xe3d7cL'
p500
sg27
Nsba(ibclass
BInstr
p501
(dp502
g2
Nsg17
S'MOV     R3, R8          ; file'
p503
sg19
S'0830a0e1'
p504
sg21
Vmov r3, r8
p505
sg5
L933248L
sg6
Nsg23
S'MOV'
p506
sg25
S'0xe3d80L'
p507
sg27
Nsba(ibclass
BInstr
p508
(dp509
g2
Nsg17
S'MOV     R0, #0xD        ; lib'
p510
sg19
S'0d00a0e3'
p511
sg21
Vmov r0, #0xd
p512
sg5
L933252L
sg6
Nsg23
S'MOV'
p513
sg25
S'0xe3d84L'
p514
sg27
Nsba(ibclass
BInstr
p515
(dp516
g2
Nsg17
S'MOV     R1, #0x8B       ; func'
p517
sg19
S'8b10a0e3'
p518
sg21
Vmov r1, #0x8b
p519
sg5
L933256L
sg6
Nsg23
S'MOV'
p520
sg25
S'0xe3d88L'
p521
sg27
Nsba(ibclass
BInstr
p522
(dp523
g2
Nsg17
S'MOV     R2, #0x41       ; reason'
p524
sg19
S'4120a0e3'
p525
sg21
Vmov r2, #0x41
p526
sg5
L933260L
sg6
Nsg23
S'MOV'
p527
sg25
S'0xe3d8cL'
p528
sg27
Nsba(ibclass
BInstr
p529
(dp530
g2
Nsg17
S'STR     R12, [SP,#0x20+line]; line'
p531
sg19
S'00c08de5'
p532
sg21
Vstr ip, [sp]
p533
sg5
L933264L
sg6
Nsg23
S'STR'
p534
sg25
S'0xe3d90L'
p535
sg27
Nsba(ibclass
BInstr
p536
(dp537
g2
Nsg17
S'BL      ERR_put_error'
p538
sg19
S'a4b9ffeb'
p539
sg21
Vbl #0xfffee698
p540
sg5
L933268L
sg6
Nsg23
S'BL'
p541
sg25
S'0xe3d94L'
p542
sg27
Nsba(ibclass
BInstr
p543
(dp544
g2
Nsg17
S'CMP     ai, ret'
p545
sg19
S'040057e1'
p546
sg21
Vcmp r7, r4
p547
sg5
L933272L
sg6
Nsg23
S'CMP'
p548
sg25
S'0xe3d98L'
p549
sg27
Nsba(ibclass
BInstr
p550
(dp551
g2
Nsg17
S'MOVNE   R0, ret         ; a'
p552
sg19
S'0400a011'
p553
sg21
Vmovne r0, r4
p554
sg5
L933276L
sg6
Nsg23
S'MOV'
p555
sg25
S'0xe3d9cL'
p556
sg27
Nsba(ibclass
BInstr
p557
(dp558
g2
Nsg17
S'BLNE    ASN1_STRING_free'
p559
sg19
S'7d5d001b'
p560
sg21
Vblne #0x175fc
p561
sg5
L933280L
sg6
Nsg23
S'BL'
p562
sg25
S'0xe3da0L'
p563
sg27
Nsba(ibclass
BInstr
p564
(dp565
g2
Nsg17
S'MOV     ret, new_data'
p566
sg19
S'0640a0e1'
p567
sg21
Vmov r4, r6
p568
sg5
L933284L
sg6
Nsg23
S'MOV'
p569
sg25
S'0xe3da4L'
p570
sg27
Nsba(ibclass
BInstr
p571
(dp572
g2
Nsg17
S'B       loc_E3D44'
p573
sg19
S'e5ffffea'
p574
sg21
Vb #0xffffff9c
p575
sg5
L933288L
sg6
Nsg23
g75
sg25
S'0xe3da8L'
p576
sg27
Nsbasg77
(lp577
S'LDR R12, =0x1B1'
p578
aS'MOV R3, R8'
p579
aS'MOV R0, #0xD'
p580
aS'MOV R1, #0x8B'
p581
aS'MOV R2, #0x41'
p582
aS'STR R12, mem'
p583
aS'BL ERR_put_error'
p584
aS'CMP ai, ret'
p585
aS'MOVNE R0, ret'
p586
aS'BLNE ASN1_STRING_free'
p587
aS'MOV ret, new_data'
p588
aS'B func'
p589
asg87
Nsg5
S'0xe3d7cL'
p590
sg89
(lp591
S'0xe3d54L'
p592
asg6
Nsg91
(lp593
S'0xe3d44L'
p594
asg95
Nsg96
Nsg97
S'6e6f2571db0e7a90ca9cf50ed6f6a6e0'
p595
sg99
S'89e77236910de50cabb9aea5ed7ed8af'
p596
sg101
(lp597
g499
ag506
ag513
ag520
ag527
ag534
ag541
ag548
ag555
ag562
ag569
ag75
asg103
Nsba(ibclass
BBasicBlock
p598
(dp599
g12
Nsg13
(lp600
(ibclass
BInstr
p601
(dp602
g2
Nsg17
S'ADD     R3, j, #7'
p603
sg19
S'073080e2'
p604
sg21
Vadd r3, r0, #7
p605
sg5
L933292L
sg6
Nsg23
S'ADD'
p606
sg25
S'0xe3dacL'
p607
sg27
Nsba(ibclass
BInstr
p608
(dp609
g2
Nsg17
S'MOVLT   j, R3'
p610
sg19
S'0300a0b1'
p611
sg21
Vmovlt r0, r3
p612
sg5
L933296L
sg6
Nsg23
S'MOV'
p613
sg25
S'0xe3db0L'
p614
sg27
Nsba(ibclass
BInstr
p615
(dp616
g2
Nsg17
S'MOV     j, j,ASR#3'
p617
sg19
S'c001a0e1'
p618
sg21
Vasr r0, r0, #3
p619
sg5
L933300L
sg6
Nsg23
S'MOV'
p620
sg25
S'0xe3db4L'
p621
sg27
Nsba(ibclass
BInstr
p622
(dp623
g2
Nsg17
S'LDR     R2, [ret]'
p624
sg19
S'002094e5'
p625
sg21
Vldr r2, [r4]
p626
sg5
L933304L
sg6
Nsg23
S'LDR'
p627
sg25
S'0xe3db8L'
p628
sg27
Nsba(ibclass
BInstr
p629
(dp630
g2
Nsg17
S'ADD     R3, R0, #4'
p631
sg19
S'043080e2'
p632
sg21
Vadd r3, r0, #4
p633
sg5
L933308L
sg6
Nsg23
S'ADD'
p634
sg25
S'0xe3dbcL'
p635
sg27
Nsba(ibclass
BInstr
p636
(dp637
g2
Nsg17
S'CMP     R2, R3'
p638
sg19
S'030052e1'
p639
sg21
Vcmp r2, r3
p640
sg5
L933312L
sg6
Nsg23
S'CMP'
p641
sg25
S'0xe3dc0L'
p642
sg27
Nsba(ibclass
BInstr
p643
(dp644
g2
Nsg17
S'ADD     R0, R0, #1'
p645
sg19
S'010080e2'
p646
sg21
Vadd r0, r0, #1
p647
sg5
L933316L
sg6
Nsg23
S'ADD'
p648
sg25
S'0xe3dc4L'
p649
sg27
Nsba(ibclass
BInstr
p650
(dp651
g2
Nsg17
S'LDRGT   R6, [ret,#8]'
p652
sg19
S'086094c5'
p653
sg21
Vldrgt r6, [r4, #8]
p654
sg5
L933320L
sg6
Nsg23
S'LDR'
p655
sg25
S'0xe3dc8L'
p656
sg27
Nsba(ibclass
BInstr
p657
(dp658
g2
Nsg17
S'BGT     loc_E3D20'
p659
sg19
S'd3ffffca'
p660
sg21
Vbgt #0xffffff54
p661
sg5
L933324L
sg6
Nsg23
g75
sg25
S'0xe3dccL'
p662
sg27
Nsbasg77
(lp663
S'ADD R3, j, #7'
p664
aS'MOVLT j, R3'
p665
aS'MOV j, j,ASR#3'
p666
aS'LDR R2, mem'
p667
aS'ADD R3, R0, #4'
p668
aS'CMP R2, R3'
p669
aS'ADD R0, R0, #1'
p670
aS'LDRGT R6, mem'
p671
aS'BGT func'
p672
asg87
Nsg5
S'0xe3dacL'
p673
sg89
(lp674
S'0xe3cfcL'
p675
asg6
Nsg91
(lp676
S'0xe3d20L'
p677
aS'0xe3dd0L'
p678
asg95
Nsg96
Nsg97
S'70f7d2b6dbbf02f3e4b51a05644ad797'
p679
sg99
S'dd55640611b8ecc594d2c390b4bd08e5'
p680
sg101
(lp681
g606
ag613
ag620
ag627
ag634
ag641
ag648
ag655
ag75
asg103
Nsba(ibclass
BBasicBlock
p682
(dp683
g12
Nsg13
(lp684
(ibclass
BInstr
p685
(dp686
g2
Nsg17
S'B       loc_E3D54'
p687
sg19
S'dfffffea'
p688
sg21
Vb #0xffffff84
p689
sg5
L933328L
sg6
Nsg23
g75
sg25
S'0xe3dd0L'
p690
sg27
Nsbasg77
(lp691
S'B func'
p692
asg87
Nsg5
S'0xe3dd0L'
p693
sg89
(lp694
S'0xe3dacL'
p695
asg6
Nsg91
(lp696
S'0xe3d54L'
p697
asg95
Nsg96
Nsg97
S'9d5ed678fe57bcca610140957afab571'
p698
sg99
S'071b057c420e304c628380fd3541c021'
p699
sg101
(lp700
g75
asg103
Nsba(ibclass
BBasicBlock
p701
(dp702
g12
Nsg13
(lp703
(ibclass
BInstr
p704
(dp705
g2
Nsg17
S'LDR     R3, [bn,#4]'
p706
sg19
S'043095e5'
p707
sg21
Vldr r3, [r5, #4]
p708
sg5
L933332L
sg6
Nsg23
S'LDR'
p709
sg25
S'0xe3dd4L'
p710
sg27
Nsba(ibclass
BInstr
p711
(dp712
g2
Nsg17
S'CMP     R3, #0'
p713
sg19
S'000053e3'
p714
sg21
Vcmp r3, #0
p715
sg5
L933336L
sg6
Nsg23
S'CMP'
p716
sg25
S'0xe3dd8L'
p717
sg27
Nsba(ibclass
BInstr
p718
(dp719
g2
Nsg17
S'LDRNE   R3, =0x102'
p720
sg19
S'4c309f15'
p721
sg21
Vldrne r3, [pc, #0x4c]
p722
sg5
L933340L
sg6
Nsg23
S'LDR'
p723
sg25
S'0xe3ddcL'
p724
sg27
Nsba(ibclass
BInstr
p725
(dp726
g2
Nsg17
S'STRNE   R3, [ret,#4]'
p727
sg19
S'04308415'
p728
sg21
Vstrne r3, [r4, #4]
p729
sg5
L933344L
sg6
Nsg23
S'STR'
p730
sg25
S'0xe3de0L'
p731
sg27
Nsba(ibclass
BInstr
p732
(dp733
g2
Nsg17
S'BNE     loc_E3CFC'
p734
sg19
S'c4ffff1a'
p735
sg21
Vbne #0xffffff18
p736
sg5
L933348L
sg6
Nsg23
g75
sg25
S'0xe3de4L'
p737
sg27
Nsbasg77
(lp738
S'LDR R3, mem'
p739
aS'CMP R3, #0'
p740
aS'LDRNE R3, =0x102'
p741
aS'STRNE R3, mem'
p742
aS'BNE func'
p743
asg87
Nsg5
S'0xe3dd4L'
p744
sg89
(lp745
S'0xe3ce8L'
p746
asg6
Nsg91
(lp747
S'0xe3cfcL'
p748
aS'0xe3de8L'
p749
asg95
Nsg96
Nsg97
S'2442af3588ba9c1512b06faf497f1dcb'
p750
sg99
S'01bebd66d3228a7820b573c407aebc50'
p751
sg101
(lp752
g709
ag716
ag723
ag730
ag75
asg103
Nsba(ibclass
BBasicBlock
p753
(dp754
g12
Nsg13
(lp755
(ibclass
BInstr
p756
(dp757
g2
Nsg17
S'B       loc_E3CF4'
p758
sg19
S'c1ffffea'
p759
sg21
Vb #0xffffff0c
p760
sg5
L933352L
sg6
Nsg23
g75
sg25
S'0xe3de8L'
p761
sg27
Nsbasg77
(lp762
S'B func'
p763
asg87
Nsg5
S'0xe3de8L'
p764
sg89
(lp765
S'0xe3dd4L'
p766
asg6
Nsg91
(lp767
S'0xe3cf4L'
p768
asg95
Nsg96
Nsg97
S'9d5ed678fe57bcca610140957afab571'
p769
sg99
S'071b057c420e304c628380fd3541c021'
p770
sg101
(lp771
g75
asg103
Nsba(ibclass
BBasicBlock
p772
(dp773
g12
Nsg13
(lp774
(ibclass
BInstr
p775
(dp776
g2
Nsg17
S'MOV     R0, #2          ; type'
p777
sg19
S'0200a0e3'
p778
sg21
Vmov r0, #2
p779
sg5
L933356L
sg6
Nsg23
S'MOV'
p780
sg25
S'0xe3decL'
p781
sg27
Nsba(ibclass
BInstr
p782
(dp783
g2
Nsg17
S'BL      ASN1_STRING_type_new'
p784
sg19
S'925d00eb'
p785
sg21
Vbl #0x17650
p786
sg5
L933360L
sg6
Nsg23
S'BL'
p787
sg25
S'0xe3df0L'
p788
sg27
Nsba(ibclass
BInstr
p789
(dp790
g2
Nsg17
S'SUBS    ret, R0, #0'
p791
sg19
S'004050e2'
p792
sg21
Vsubs r4, r0, #0
p793
sg5
L933364L
sg6
Nsg23
S'SUB'
p794
sg25
S'0xe3df4L'
p795
sg27
Nsba(ibclass
BInstr
p796
(dp797
g2
Nsg17
S'BNE     loc_E3CE8'
p798
sg19
S'baffff1a'
p799
sg21
Vbne #0xfffffef0
p800
sg5
L933368L
sg6
Nsg23
g75
sg25
S'0xe3df8L'
p801
sg27
Nsbasg77
(lp802
S'MOV R0, #2'
p803
aS'BL ASN1_STRING_type_new'
p804
aS'SUBS ret, R0, #0'
p805
aS'BNE func'
p806
asg87
Nsg5
S'0xe3decL'
p807
sg89
(lp808
S'0xe3cc8L'
p809
asg6
Nsg91
(lp810
S'0xe3ce8L'
p811
aS'0xe3dfcL'
p812
asg95
Nsg96
Nsg97
S'd712ad407e365d6dc92067cbbdc09d0b'
p813
sg99
S'12dd930883230c0b37d2b25f82f7a05a'
p814
sg101
(lp815
g780
ag787
ag794
ag75
asg103
Nsba(ibclass
BBasicBlock
p816
(dp817
g12
Nsg13
(lp818
(ibclass
BInstr
p819
(dp820
g2
Nsg17
S'LDR     R3, =(aA_int_c - 0x18A000)'
p821
sg19
S'20309fe5'
p822
sg21
Vldr r3, [pc, #0x20]
p823
sg5
L933372L
sg6
Nsg23
S'LDR'
p824
sg25
S'0xe3dfcL'
p825
sg27
Nsba(ibclass
BInstr
p826
(dp827
g2
Nsg17
S'LDR     R12, =0x1A5'
p828
sg19
S'2cc09fe5'
p829
sg21
Vldr ip, [pc, #0x2c]
p830
sg5
L933376L
sg6
Nsg23
S'LDR'
p831
sg25
S'0xe3e00L'
p832
sg27
Nsba(ibclass
BInstr
p833
(dp834
g2
Nsg17
S'ADD     R3, R6, R3      ; "a_int.c"'
p835
sg19
S'033086e0'
p836
sg21
Vadd r3, r6, r3
p837
sg5
L933380L
sg6
Nsg23
S'ADD'
p838
sg25
S'0xe3e04L'
p839
sg27
Nsba(ibclass
BInstr
p840
(dp841
g2
Nsg17
S'MOV     R0, #0xD        ; lib'
p842
sg19
S'0d00a0e3'
p843
sg21
Vmov r0, #0xd
p844
sg5
L933384L
sg6
Nsg23
S'MOV'
p845
sg25
S'0xe3e08L'
p846
sg27
Nsba(ibclass
BInstr
p847
(dp848
g2
Nsg17
S'MOV     R1, #0x8B       ; func'
p849
sg19
S'8b10a0e3'
p850
sg21
Vmov r1, #0x8b
p851
sg5
L933388L
sg6
Nsg23
S'MOV'
p852
sg25
S'0xe3e0cL'
p853
sg27
Nsba(ibclass
BInstr
p854
(dp855
g2
Nsg17
S'MOV     R2, #0x3A       ; reason'
p856
sg19
S'3a20a0e3'
p857
sg21
Vmov r2, #0x3a
p858
sg5
L933392L
sg6
Nsg23
S'MOV'
p859
sg25
S'0xe3e10L'
p860
sg27
Nsba(ibclass
BInstr
p861
(dp862
g2
Nsg17
S'STR     R12, [SP,#0x20+line]; line'
p863
sg19
S'00c08de5'
p864
sg21
Vstr ip, [sp]
p865
sg5
L933396L
sg6
Nsg23
S'STR'
p866
sg25
S'0xe3e14L'
p867
sg27
Nsba(ibclass
BInstr
p868
(dp869
g2
Nsg17
S'BL      ERR_put_error'
p870
sg19
S'83b9ffeb'
p871
sg21
Vbl #0xfffee614
p872
sg5
L933400L
sg6
Nsg23
S'BL'
p873
sg25
S'0xe3e18L'
p874
sg27
Nsba(ibclass
BInstr
p875
(dp876
g2
Nsg17
S'B       loc_E3D44'
p877
sg19
S'c8ffffea'
p878
sg21
Vb #0xffffff28
p879
sg5
L933404L
sg6
Nsg23
g75
sg25
S'0xe3e1cL'
p880
sg27
Nsbasg77
(lp881
S'LDR R3, =(aA_int_c - 0x18A000)'
p882
aS'LDR R12, =0x1A5'
p883
aS'ADD R3, R6, R3'
p884
aS'MOV R0, #0xD'
p885
aS'MOV R1, #0x8B'
p886
aS'MOV R2, #0x3A'
p887
aS'STR R12, mem'
p888
aS'BL ERR_put_error'
p889
aS'B func'
p890
asg87
Nsg5
S'0xe3dfcL'
p891
sg89
(lp892
S'0xe3decL'
p893
asg6
Nsg91
(lp894
S'0xe3d44L'
p895
asg95
Nsg96
Nsg97
S'629bdcc4b4759840cfba3eb3682d03ae'
p896
sg99
S'fb4f21d2ddd0635691b978d40dde5f9e'
p897
sg101
(lp898
g824
ag831
ag838
ag845
ag852
ag859
ag866
ag873
ag75
asg103
Nsbasb.