(ibclass
BFunc
p0
(dp1
S'hash'
p2
NsS'name'
p3
S'ssl_srp_server_param_cb'
p4
sS'start_address'
p5
L270296L
sS'flag'
p6
NsS'program'
p7
NsS'bbs'
p8
(lp9
(ibclass
BBasicBlock
p10
(dp11
S'function'
p12
NsS'binstrs'
p13
(lp14
(ibclass
BInstr
p15
(dp16
g2
NsS'disasm'
p17
S'STMFD   SP!, {p-R6,LR}'
p18
sS'bytes'
p19
S'70402de9'
p20
sS'disasm_striped'
p21
Vpush {r4, r5, r6, lr}
p22
sg5
L270296L
sg6
NsS'mnem'
p23
S'STM'
p24
sS'address'
p25
S'0x41fd8L'
p26
sS'basicblock'
p27
Nsba(ibclass
BInstr
p28
(dp29
g2
Nsg17
S'MOV     p, arg'
p30
sg19
S'0240a0e1'
p31
sg21
Vmov r4, r2
p32
sg5
L270300L
sg6
Nsg23
S'MOV'
p33
sg25
S'0x41fdcL'
p34
sg27
Nsba(ibclass
BInstr
p35
(dp36
g2
Nsg17
S'LDR     arg, [arg]'
p37
sg19
S'002092e5'
p38
sg21
Vldr r2, [r2]
p39
sg5
L270304L
sg6
Nsg23
S'LDR'
p40
sg25
S'0x41fe0L'
p41
sg27
Nsba(ibclass
BInstr
p42
(dp43
g2
Nsg17
S'LDR     R5, =(_GLOBAL_OFFSET_TABLE_ - 0x41FF4)'
p44
sg19
S'fc509fe5'
p45
sg21
Vldr r5, [pc, #0xfc]
p46
sg5
L270308L
sg6
Nsg23
S'LDR'
p47
sg25
S'0x41fe4L'
p48
sg27
Nsba(ibclass
BInstr
p49
(dp50
g2
Nsg17
S'CMP     R2, #0'
p51
sg19
S'000052e3'
p52
sg21
Vcmp r2, #0
p53
sg5
L270312L
sg6
Nsg23
S'CMP'
p54
sg25
S'0x41fe8L'
p55
sg27
Nsba(ibclass
BInstr
p56
(dp57
g2
Nsg17
S'ADD     R5, PC, R5 ; _GLOBAL_OFFSET_TABLE_'
p58
sg19
S'05508fe0'
p59
sg21
Vadd r5, pc, r5
p60
sg5
L270316L
sg6
Nsg23
S'ADD'
p61
sg25
S'0x41fecL'
p62
sg27
Nsba(ibclass
BInstr
p63
(dp64
g2
Nsg17
S'SUB     SP, SP, #8'
p65
sg19
S'08d04de2'
p66
sg21
Vsub sp, sp, #8
p67
sg5
L270320L
sg6
Nsg23
S'SUB'
p68
sg25
S'0x41ff0L'
p69
sg27
Nsba(ibclass
BInstr
p70
(dp71
g2
Nsg17
S'MOV     R6, ad'
p72
sg19
S'0160a0e1'
p73
sg21
Vmov r6, r1
p74
sg5
L270324L
sg6
Nsg23
S'MOV'
p75
sg25
S'0x41ff4L'
p76
sg27
Nsba(ibclass
BInstr
p77
(dp78
g2
Nsg17
S'MOV     LR, s'
p79
sg19
S'00e0a0e1'
p80
sg21
Vmov lr, r0
p81
sg5
L270328L
sg6
Nsg23
S'MOV'
p82
sg25
S'0x41ff8L'
p83
sg27
Nsba(ibclass
BInstr
p84
(dp85
g2
Nsg17
S'BEQ     loc_42090'
p86
sg19
S'2300000a'
p87
sg21
Vbeq #0x94
p88
sg5
L270332L
sg6
Nsg23
S'B'
p89
sg25
S'0x41ffcL'
p90
sg27
NsbasS'disasm_list'
p91
(lp92
S'STMFD SP!, {p-R6,LR}'
p93
aS'MOV p, arg'
p94
aS'LDR arg, mem'
p95
aS'LDR R5, =(_GLOBAL_OFFSET_TABLE_ - 0x41FF4)'
p96
aS'CMP R2, #0'
p97
aS'ADD R5, PC, R5'
p98
aS'SUB SP, SP, #8'
p99
aS'MOV R6, ad'
p100
aS'MOV LR, s'
p101
aS'BEQ func'
p102
asS'end_address'
p103
Nsg5
S'0x41fd8L'
p104
sS'preds'
p105
(lp106
sg6
NsS'succs'
p107
(lp108
S'0x42000L'
p109
aS'0x42090L'
p110
asS'hash_v3'
p111
NsS'flag_v2'
p112
NsS'hash_v1'
p113
S'19e4b6601a926ba895b10fcd981ed34d'
p114
sS'hash_v2'
p115
S'0cd8b3b8871e5a8d238345ccd03ec972'
p116
sS'mnen_list'
p117
(lp118
g24
ag33
ag40
ag47
ag54
ag61
ag68
ag75
ag82
ag89
asS'neighbour_disasm_list'
p119
Nsba(ibclass
BBasicBlock
p120
(dp121
g12
Nsg13
(lp122
(ibclass
BInstr
p123
(dp124
g2
Nsg17
S'LDR     R12, [p,#8]'
p125
sg19
S'08c094e5'
p126
sg21
Vldr ip, [r4, #8]
p127
sg5
L270336L
sg6
Nsg23
S'LDR'
p128
sg25
S'0x42000L'
p129
sg27
Nsba(ibclass
BInstr
p130
(dp131
g2
Nsg17
S'CMP     R12, #0'
p132
sg19
S'00005ce3'
p133
sg21
Vcmp ip, #0
p134
sg5
L270340L
sg6
Nsg23
S'CMP'
p135
sg25
S'0x42004L'
p136
sg27
Nsba(ibclass
BInstr
p137
(dp138
g2
Nsg17
S'BEQ     loc_420C8'
p139
sg19
S'2e00000a'
p140
sg21
Vbeq #0xc0
p141
sg5
L270344L
sg6
Nsg23
g89
sg25
S'0x42008L'
p142
sg27
Nsbasg91
(lp143
S'LDR R12, mem'
p144
aS'CMP R12, #0'
p145
aS'BEQ func'
p146
asg103
Nsg5
S'0x42000L'
p147
sg105
(lp148
S'0x41fd8L'
p149
asg6
Nsg107
(lp150
S'0x4200cL'
p151
aS'0x420c8L'
p152
asg111
Nsg112
Nsg113
S'fa4df767a85c49648339e2dc5c6807f6'
p153
sg115
S'ce17f0c79ad34aea3b6392a14450c181'
p154
sg117
(lp155
g128
ag135
ag89
asg119
Nsba(ibclass
BBasicBlock
p156
(dp157
g12
Nsg13
(lp158
(ibclass
BInstr
p159
(dp160
g2
Nsg17
S'LDR     R0, [R12,#8]'
p161
sg19
S'08009ce5'
p162
sg21
Vldr r0, [ip, #8]
p163
sg5
L270348L
sg6
Nsg23
S'LDR'
p164
sg25
S'0x4200cL'
p165
sg27
Nsba(ibclass
BInstr
p166
(dp167
g2
Nsg17
S'LDR     R3, [R12,#4]'
p168
sg19
S'04309ce5'
p169
sg21
Vldr r3, [ip, #4]
p170
sg5
L270352L
sg6
Nsg23
S'LDR'
p171
sg25
S'0x42010L'
p172
sg27
Nsba(ibclass
BInstr
p173
(dp174
g2
Nsg17
S'LDR     R1, [R12,#0x10]'
p175
sg19
S'10109ce5'
p176
sg21
Vldr r1, [ip, #0x10]
p177
sg5
L270356L
sg6
Nsg23
S'LDR'
p178
sg25
S'0x42014L'
p179
sg27
Nsba(ibclass
BInstr
p180
(dp181
g2
Nsg17
S'LDR     R2, [R12,#0xC]'
p182
sg19
S'0c209ce5'
p183
sg21
Vldr r2, [ip, #0xc]
p184
sg5
L270360L
sg6
Nsg23
S'LDR'
p185
sg25
S'0x42018L'
p186
sg27
Nsba(ibclass
BInstr
p187
(dp188
g2
Nsg17
S'STR     R0, [SP,#0x18+var_18]'
p189
sg19
S'00008de5'
p190
sg21
Vstr r0, [sp]
p191
sg5
L270364L
sg6
Nsg23
S'STR'
p192
sg25
S'0x4201cL'
p193
sg27
Nsba(ibclass
BInstr
p194
(dp195
g2
Nsg17
S'LDR     R12, [R12,#0x14]'
p196
sg19
S'14c09ce5'
p197
sg21
Vldr ip, [ip, #0x14]
p198
sg5
L270368L
sg6
Nsg23
S'LDR'
p199
sg25
S'0x42020L'
p200
sg27
Nsba(ibclass
BInstr
p201
(dp202
g2
Nsg17
S'MOV     R0, LR'
p203
sg19
S'0e00a0e1'
p204
sg21
Vmov r0, lr
p205
sg5
L270372L
sg6
Nsg23
S'MOV'
p206
sg25
S'0x42024L'
p207
sg27
Nsba(ibclass
BInstr
p208
(dp209
g2
Nsg17
S'STR     R12, [SP,#0x18+var_14]'
p210
sg19
S'04c08de5'
p211
sg21
Vstr ip, [sp, #4]
p212
sg5
L270376L
sg6
Nsg23
S'STR'
p213
sg25
S'0x42028L'
p214
sg27
Nsba(ibclass
BInstr
p215
(dp216
g2
Nsg17
S'BL      SSL_set_srp_server_param'
p217
sg19
S'bd67ffeb'
p218
sg21
Vbl #0xfffd9efc
p219
sg5
L270380L
sg6
Nsg23
S'BL'
p220
sg25
S'0x4202cL'
p221
sg27
Nsba(ibclass
BInstr
p222
(dp223
g2
Nsg17
S'CMP     R0, #0'
p224
sg19
S'000050e3'
p225
sg21
Vcmp r0, #0
p226
sg5
L270384L
sg6
Nsg23
S'CMP'
p227
sg25
S'0x42030L'
p228
sg27
Nsba(ibclass
BInstr
p229
(dp230
g2
Nsg17
S'MOVLT   R3, #0x50'
p231
sg19
S'5030a0b3'
p232
sg21
Vmovlt r3, #0x50
p233
sg5
L270388L
sg6
Nsg23
S'MOV'
p234
sg25
S'0x42034L'
p235
sg27
Nsba(ibclass
BInstr
p236
(dp237
g2
Nsg17
S'STRLT   R3, [ad]'
p238
sg19
S'003086b5'
p239
sg21
Vstrlt r3, [r6]
p240
sg5
L270392L
sg6
Nsg23
S'STR'
p241
sg25
S'0x42038L'
p242
sg27
Nsba(ibclass
BInstr
p243
(dp244
g2
Nsg17
S'MOVLT   R5, #2'
p245
sg19
S'0250a0b3'
p246
sg21
Vmovlt r5, #2
p247
sg5
L270396L
sg6
Nsg23
S'MOV'
p248
sg25
S'0x4203cL'
p249
sg27
Nsba(ibclass
BInstr
p250
(dp251
g2
Nsg17
S'BLT     err'
p252
sg19
S'090000ba'
p253
sg21
Vblt #0x2c
p254
sg5
L270400L
sg6
Nsg23
g89
sg25
S'0x42040L'
p255
sg27
Nsbasg91
(lp256
S'LDR R0, mem'
p257
aS'LDR R3, mem'
p258
aS'LDR R1, mem'
p259
aS'LDR R2, mem'
p260
aS'STR R0, mem'
p261
aS'LDR R12, mem'
p262
aS'MOV R0, LR'
p263
aS'STR R12, mem'
p264
aS'BL SSL_set_srp_server_param'
p265
aS'CMP R0, #0'
p266
aS'MOVLT R3, #0x50'
p267
aS'STRLT R3, mem'
p268
aS'MOVLT R5, #2'
p269
aS'BLT err'
p270
asg103
Nsg5
S'0x4200cL'
p271
sg105
(lp272
S'0x42000L'
p273
aS'0x42090L'
p274
asg6
Nsg107
(lp275
S'0x42044L'
p276
aS'0x4206cL'
p277
asg111
Nsg112
Nsg113
S'4a4b449b7dffa1b59469943c7ab537bd'
p278
sg115
S'db3fd275e0bef54d8243027c561ce0ab'
p279
sg117
(lp280
g164
ag171
ag178
ag185
ag192
ag199
ag206
ag213
ag220
ag227
ag234
ag241
ag248
ag89
asg119
Nsba(ibclass
BBasicBlock
p281
(dp282
g12
Nsg13
(lp283
(ibclass
BInstr
p284
(dp285
g2
Nsg17
S'LDR     R2, =(bio_err_ptr - 0x93000)'
p286
sg19
S'a0209fe5'
p287
sg21
Vldr r2, [pc, #0xa0]
p288
sg5
L270404L
sg6
Nsg23
S'LDR'
p289
sg25
S'0x42044L'
p290
sg27
Nsba(ibclass
BInstr
p291
(dp292
g2
Nsg17
S'LDR     R3, [p,#8]'
p293
sg19
S'083094e5'
p294
sg21
Vldr r3, [r4, #8]
p295
sg5
L270408L
sg6
Nsg23
S'LDR'
p296
sg25
S'0x42048L'
p297
sg27
Nsba(ibclass
BInstr
p298
(dp299
g2
Nsg17
S'LDR     R2, [ret,R2] ; bio_err'
p300
sg19
S'022095e7'
p301
sg21
Vldr r2, [r5, r2]
p302
sg5
L270412L
sg6
Nsg23
S'LDR'
p303
sg25
S'0x4204cL'
p304
sg27
Nsba(ibclass
BInstr
p305
(dp306
g2
Nsg17
S'LDR     R1, =(aSrpParametersS - 0x93000)'
p307
sg19
S'98109fe5'
p308
sg21
Vldr r1, [pc, #0x98]
p309
sg5
L270416L
sg6
Nsg23
S'LDR'
p310
sg25
S'0x42050L'
p311
sg27
Nsba(ibclass
BInstr
p312
(dp313
g2
Nsg17
S'LDR     R0, [R2]'
p314
sg19
S'000092e5'
p315
sg21
Vldr r0, [r2]
p316
sg5
L270420L
sg6
Nsg23
S'LDR'
p317
sg25
S'0x42054L'
p318
sg27
Nsba(ibclass
BInstr
p319
(dp320
g2
Nsg17
S'ADD     R1, R5, R1      ; "SRP parameters set: username = \\"%s\\" i"...'
p321
sg19
S'011085e0'
p322
sg21
Vadd r1, r5, r1
p323
sg5
L270424L
sg6
Nsg23
S'ADD'
p324
sg25
S'0x42058L'
p325
sg27
Nsba(ibclass
BInstr
p326
(dp327
g2
Nsg17
S'LDR     R3, [R3,#0x14]'
p328
sg19
S'143093e5'
p329
sg21
Vldr r3, [r3, #0x14]
p330
sg5
L270428L
sg6
Nsg23
S'LDR'
p331
sg25
S'0x4205cL'
p332
sg27
Nsba(ibclass
BInstr
p333
(dp334
g2
Nsg17
S'LDR     R2, [p]'
p335
sg19
S'002094e5'
p336
sg21
Vldr r2, [r4]
p337
sg5
L270432L
sg6
Nsg23
S'LDR'
p338
sg25
S'0x42060L'
p339
sg27
Nsba(ibclass
BInstr
p340
(dp341
g2
Nsg17
S'BL      BIO_printf'
p342
sg19
S'8267ffeb'
p343
sg21
Vbl #0xfffd9e10
p344
sg5
L270436L
sg6
Nsg23
S'BL'
p345
sg25
S'0x42064L'
p346
sg27
Nsba(ibclass
BInstr
p347
(dp348
g2
Nsg17
S'MOV     R5, #0'
p349
sg19
S'0050a0e3'
p350
sg21
Vmov r5, #0
p351
sg5
L270440L
sg6
Nsg23
S'MOV'
p352
sg25
S'0x42068L'
p353
sg27
Nsbasg91
(lp354
S'LDR R2, =(bio_err_ptr - address)'
p355
aS'LDR R3, mem'
p356
aS'LDR R2, mem'
p357
aS'LDR R1, =(aSrpParametersS - address)'
p358
aS'LDR R0, mem'
p359
aS'ADD R1, R5, R1'
p360
aS'LDR R3, mem'
p361
aS'LDR R2, mem'
p362
aS'BL BIO_printf'
p363
aS'MOV R5, #0'
p364
asg103
Nsg5
S'0x42044L'
p365
sg105
(lp366
S'0x4200cL'
p367
asg6
Nsg107
(lp368
S'0x4206cL'
p369
asg111
Nsg112
Nsg113
S'ea106f1e916fbd435f37d669276c4553'
p370
sg115
S'01a7685df1a5bdfb269c924604c9be74'
p371
sg117
(lp372
g289
ag296
ag303
ag310
ag317
ag324
ag331
ag338
ag345
ag352
asg119
Nsba(ibclass
BBasicBlock
p373
(dp374
g12
Nsg13
(lp375
(ibclass
BInstr
p376
(dp377
g2
Nsg17
S'LDR     R0, [p,#8]'
p378
sg19
S'080094e5'
p379
sg21
Vldr r0, [r4, #8]
p380
sg5
L270444L
sg6
Nsg23
S'LDR'
p381
sg25
S'0x4206cL'
p382
sg27
Nsba(ibclass
BInstr
p383
(dp384
g2
Nsg17
S'BL      SRP_user_pwd_free'
p385
sg19
S'7e6bffeb'
p386
sg21
Vbl #0xfffdae00
p387
sg5
L270448L
sg6
Nsg23
S'BL'
p388
sg25
S'0x42070L'
p389
sg27
Nsba(ibclass
BInstr
p390
(dp391
g2
Nsg17
S'MOV     R3, #0'
p392
sg19
S'0030a0e3'
p393
sg21
Vmov r3, #0
p394
sg5
L270452L
sg6
Nsg23
S'MOV'
p395
sg25
S'0x42074L'
p396
sg27
Nsba(ibclass
BInstr
p397
(dp398
g2
Nsg17
S'STR     R3, [p]'
p399
sg19
S'003084e5'
p400
sg21
Vstr r3, [r4]
p401
sg5
L270456L
sg6
Nsg23
S'STR'
p402
sg25
S'0x42078L'
p403
sg27
Nsba(ibclass
BInstr
p404
(dp405
g2
Nsg17
S'STR     R3, [p,#8]'
p406
sg19
S'083084e5'
p407
sg21
Vstr r3, [r4, #8]
p408
sg5
L270460L
sg6
Nsg23
S'STR'
p409
sg25
S'0x4207cL'
p410
sg27
Nsbasg91
(lp411
S'LDR R0, mem'
p412
aS'BL SRP_user_pwd_free'
p413
aS'MOV R3, #0'
p414
aS'STR R3, mem'
p415
aS'STR R3, mem'
p416
asg103
Nsg5
S'0x4206cL'
p417
sg105
(lp418
S'0x4200cL'
p419
aS'0x42044L'
p420
aS'0x420c8L'
p421
asg6
Nsg107
(lp422
S'0x42080L'
p423
asg111
Nsg112
Nsg113
S'096efa1757b476cbb46136815f266e03'
p424
sg115
S'77cbf408537aa88ca3ab973a31afdb74'
p425
sg117
(lp426
g381
ag388
ag395
ag402
ag409
asg119
Nsba(ibclass
BBasicBlock
p427
(dp428
g12
Nsg13
(lp429
(ibclass
BInstr
p430
(dp431
g2
Nsg17
S'MOV     R0, ret'
p432
sg19
S'0500a0e1'
p433
sg21
Vmov r0, r5
p434
sg5
L270464L
sg6
Nsg23
S'MOV'
p435
sg25
S'0x42080L'
p436
sg27
Nsba(ibclass
BInstr
p437
(dp438
g2
Nsg17
S'ADD     SP, SP, #8'
p439
sg19
S'08d08de2'
p440
sg21
Vadd sp, sp, #8
p441
sg5
L270468L
sg6
Nsg23
S'ADD'
p442
sg25
S'0x42084L'
p443
sg27
Nsba(ibclass
BInstr
p444
(dp445
g2
Nsg17
S'LDMFD   SP!, {p-ad,LR}'
p446
sg19
S'7040bde8'
p447
sg21
Vpop {r4, r5, r6, lr}
p448
sg5
L270472L
sg6
Nsg23
S'LDM'
p449
sg25
S'0x42088L'
p450
sg27
Nsba(ibclass
BInstr
p451
(dp452
g2
Nsg17
S'BX      LR'
p453
sg19
S'1eff2fe1'
p454
sg21
Vbx lr
p455
sg5
L270476L
sg6
Nsg23
S'BX'
p456
sg25
S'0x4208cL'
p457
sg27
Nsbasg91
(lp458
S'MOV R0, ret'
p459
aS'ADD SP, SP, #8'
p460
aS'LDMFD SP!, {p-ad,LR}'
p461
aS'BX LR'
p462
asg103
Nsg5
S'0x42080L'
p463
sg105
(lp464
S'0x4206cL'
p465
aS'0x4209cL'
p466
asg6
Nsg107
(lp467
sg111
Nsg112
Nsg113
S'bc984d627a05f387655964404c76526b'
p468
sg115
S'16665eb70c76ac6d1267672fc962356d'
p469
sg117
(lp470
g435
ag442
ag449
ag456
asg119
Nsba(ibclass
BBasicBlock
p471
(dp472
g12
Nsg13
(lp473
(ibclass
BInstr
p474
(dp475
g2
Nsg17
S'LDR     R12, [p,#8]'
p476
sg19
S'08c094e5'
p477
sg21
Vldr ip, [r4, #8]
p478
sg5
L270480L
sg6
Nsg23
S'LDR'
p479
sg25
S'0x42090L'
p480
sg27
Nsba(ibclass
BInstr
p481
(dp482
g2
Nsg17
S'CMP     R12, #0'
p483
sg19
S'00005ce3'
p484
sg21
Vcmp ip, #0
p485
sg5
L270484L
sg6
Nsg23
S'CMP'
p486
sg25
S'0x42094L'
p487
sg27
Nsba(ibclass
BInstr
p488
(dp489
g2
Nsg17
S'BNE     loc_4200C'
p490
sg19
S'dbffff1a'
p491
sg21
Vbne #0xffffff74
p492
sg5
L270488L
sg6
Nsg23
g89
sg25
S'0x42098L'
p493
sg27
Nsbasg91
(lp494
S'LDR R12, mem'
p495
aS'CMP R12, #0'
p496
aS'BNE func'
p497
asg103
Nsg5
S'0x42090L'
p498
sg105
(lp499
S'0x41fd8L'
p500
asg6
Nsg107
(lp501
S'0x4200cL'
p502
aS'0x4209cL'
p503
asg111
Nsg112
Nsg113
S'fa4df767a85c49648339e2dc5c6807f6'
p504
sg115
S'3603b179e4855ed48ebf2f679641e589'
p505
sg117
(lp506
g479
ag486
ag89
asg119
Nsba(ibclass
BBasicBlock
p507
(dp508
g12
Nsg13
(lp509
(ibclass
BInstr
p510
(dp511
g2
Nsg17
S'BL      SSL_get_srp_username'
p512
sg19
S'4569ffeb'
p513
sg21
Vbl #0xfffda51c
p514
sg5
L270492L
sg6
Nsg23
S'BL'
p515
sg25
S'0x4209cL'
p516
sg27
Nsba(ibclass
BInstr
p517
(dp518
g2
Nsg17
S'LDR     R3, =(bio_err_ptr - 0x93000)'
p519
sg19
S'44309fe5'
p520
sg21
Vldr r3, [pc, #0x44]
p521
sg5
L270496L
sg6
Nsg23
S'LDR'
p522
sg25
S'0x420a0L'
p523
sg27
Nsba(ibclass
BInstr
p524
(dp525
g2
Nsg17
S'LDR     R1, =(aSrpUsernameS - 0x93000)'
p526
sg19
S'48109fe5'
p527
sg21
Vldr r1, [pc, #0x48]
p528
sg5
L270500L
sg6
Nsg23
S'LDR'
p529
sg25
S'0x420a4L'
p530
sg27
Nsba(ibclass
BInstr
p531
(dp532
g2
Nsg17
S'LDR     R3, [R5,R3] ; bio_err'
p533
sg19
S'033095e7'
p534
sg21
Vldr r3, [r5, r3]
p535
sg5
L270504L
sg6
Nsg23
S'LDR'
p536
sg25
S'0x420a8L'
p537
sg27
Nsba(ibclass
BInstr
p538
(dp539
g2
Nsg17
S'MOV     R2, R0'
p540
sg19
S'0020a0e1'
p541
sg21
Vmov r2, r0
p542
sg5
L270508L
sg6
Nsg23
S'MOV'
p543
sg25
S'0x420acL'
p544
sg27
Nsba(ibclass
BInstr
p545
(dp546
g2
Nsg17
S'STR     R0, [p]'
p547
sg19
S'000084e5'
p548
sg21
Vstr r0, [r4]
p549
sg5
L270512L
sg6
Nsg23
S'STR'
p550
sg25
S'0x420b0L'
p551
sg27
Nsba(ibclass
BInstr
p552
(dp553
g2
Nsg17
S'ADD     R1, R5, R1      ; "SRP username = \\"%s\\"\\n"'
p554
sg19
S'011085e0'
p555
sg21
Vadd r1, r5, r1
p556
sg5
L270516L
sg6
Nsg23
S'ADD'
p557
sg25
S'0x420b4L'
p558
sg27
Nsba(ibclass
BInstr
p559
(dp560
g2
Nsg17
S'LDR     R0, [R3]'
p561
sg19
S'000093e5'
p562
sg21
Vldr r0, [r3]
p563
sg5
L270520L
sg6
Nsg23
S'LDR'
p564
sg25
S'0x420b8L'
p565
sg27
Nsba(ibclass
BInstr
p566
(dp567
g2
Nsg17
S'BL      BIO_printf'
p568
sg19
S'6c67ffeb'
p569
sg21
Vbl #0xfffd9db8
p570
sg5
L270524L
sg6
Nsg23
S'BL'
p571
sg25
S'0x420bcL'
p572
sg27
Nsba(ibclass
BInstr
p573
(dp574
g2
Nsg17
S'MOV     R5, #0xFFFFFFFF'
p575
sg19
S'0050e0e3'
p576
sg21
Vmvn r5, #0
p577
sg5
L270528L
sg6
Nsg23
S'MOV'
p578
sg25
S'0x420c0L'
p579
sg27
Nsba(ibclass
BInstr
p580
(dp581
g2
Nsg17
S'B       loc_42080'
p582
sg19
S'edffffea'
p583
sg21
Vb #0xffffffbc
p584
sg5
L270532L
sg6
Nsg23
g89
sg25
S'0x420c4L'
p585
sg27
Nsbasg91
(lp586
S'BL SSL_get_srp_username'
p587
aS'LDR R3, =(bio_err_ptr - address)'
p588
aS'LDR R1, =(aSrpUsernameS - address)'
p589
aS'LDR R3, mem'
p590
aS'MOV R2, R0'
p591
aS'STR R0, mem'
p592
aS'ADD R1, R5, R1'
p593
aS'LDR R0, mem'
p594
aS'BL BIO_printf'
p595
aS'MOV R5, #0xFFFFFFFF'
p596
aS'B func'
p597
asg103
Nsg5
S'0x4209cL'
p598
sg105
(lp599
S'0x42090L'
p600
asg6
Nsg107
(lp601
S'0x42080L'
p602
asg111
Nsg112
Nsg113
S'cda158db7d8e50e6bdb8e44eb4219a3a'
p603
sg115
S'54a0441046b96524cb28d8fb3002e1ec'
p604
sg117
(lp605
g515
ag522
ag529
ag536
ag543
ag550
ag557
ag564
ag571
ag578
ag89
asg119
Nsba(ibclass
BBasicBlock
p606
(dp607
g12
Nsg13
(lp608
(ibclass
BInstr
p609
(dp610
g2
Nsg17
S'LDR     R3, =(bio_err_ptr - 0x93000)'
p611
sg19
S'1c309fe5'
p612
sg21
Vldr r3, [pc, #0x1c]
p613
sg5
L270536L
sg6
Nsg23
S'LDR'
p614
sg25
S'0x420c8L'
p615
sg27
Nsba(ibclass
BInstr
p616
(dp617
g2
Nsg17
S'LDR     R1, =(aUserSDoesnTExi - 0x93000)'
p618
sg19
S'24109fe5'
p619
sg21
Vldr r1, [pc, #0x24]
p620
sg5
L270540L
sg6
Nsg23
S'LDR'
p621
sg25
S'0x420ccL'
p622
sg27
Nsba(ibclass
BInstr
p623
(dp624
g2
Nsg17
S'LDR     R3, [R5,R3] ; bio_err'
p625
sg19
S'033095e7'
p626
sg21
Vldr r3, [r5, r3]
p627
sg5
L270544L
sg6
Nsg23
S'LDR'
p628
sg25
S'0x420d0L'
p629
sg27
Nsba(ibclass
BInstr
p630
(dp631
g2
Nsg17
S'ADD     R1, R5, R1      ; "User %s doesn\'t exist\\n"'
p632
sg19
S'011085e0'
p633
sg21
Vadd r1, r5, r1
p634
sg5
L270548L
sg6
Nsg23
S'ADD'
p635
sg25
S'0x420d4L'
p636
sg27
Nsba(ibclass
BInstr
p637
(dp638
g2
Nsg17
S'LDR     R0, [R3]'
p639
sg19
S'000093e5'
p640
sg21
Vldr r0, [r3]
p641
sg5
L270552L
sg6
Nsg23
S'LDR'
p642
sg25
S'0x420d8L'
p643
sg27
Nsba(ibclass
BInstr
p644
(dp645
g2
Nsg17
S'BL      BIO_printf'
p646
sg19
S'6467ffeb'
p647
sg21
Vbl #0xfffd9d98
p648
sg5
L270556L
sg6
Nsg23
S'BL'
p649
sg25
S'0x420dcL'
p650
sg27
Nsba(ibclass
BInstr
p651
(dp652
g2
Nsg17
S'MOV     R5, #2'
p653
sg19
S'0250a0e3'
p654
sg21
Vmov r5, #2
p655
sg5
L270560L
sg6
Nsg23
S'MOV'
p656
sg25
S'0x420e0L'
p657
sg27
Nsba(ibclass
BInstr
p658
(dp659
g2
Nsg17
S'B       err'
p660
sg19
S'e0ffffea'
p661
sg21
Vb #0xffffff88
p662
sg5
L270564L
sg6
Nsg23
g89
sg25
S'0x420e4L'
p663
sg27
Nsbasg91
(lp664
S'LDR R3, =(bio_err_ptr - address)'
p665
aS'LDR R1, =(aUserSDoesnTExi - address)'
p666
aS'LDR R3, mem'
p667
aS'ADD R1, R5, R1'
p668
aS'LDR R0, mem'
p669
aS'BL BIO_printf'
p670
aS'MOV R5, #2'
p671
aS'B err'
p672
asg103
Nsg5
S'0x420c8L'
p673
sg105
(lp674
S'0x42000L'
p675
asg6
Nsg107
(lp676
S'0x4206cL'
p677
asg111
Nsg112
Nsg113
S'a5f68b67f4230b08d97bc8e0fa26c34e'
p678
sg115
S'a905b8a1e099d51a5cd44ea0141aa920'
p679
sg117
(lp680
g614
ag621
ag628
ag635
ag642
ag649
ag656
ag89
asg119
Nsbasb.