(ibclass
BFunc
p0
(dp1
S'hash'
p2
NsS'name'
p3
S'BN_bn2dec'
p4
sS'start_address'
p5
L590272L
sS'flag'
p6
NsS'program'
p7
NsS'bbs'
p8
(lp9
(ibclass
BBasicBlock
p10
(dp11
S'function'
p12
NsS'binstrs'
p13
(lp14
(ibclass
BInstr
p15
(dp16
g2
NsS'disasm'
p17
S'STMFD   SP!, {R4-R11,LR}'
p18
sS'bytes'
p19
S'f04f2de9'
p20
sS'disasm_striped'
p21
Vpush {r4, r5, r6, r7, r8, sb, sl, fp, lr}
p22
sg5
L590272L
sg6
NsS'mnem'
p23
S'STM'
p24
sS'address'
p25
S'0x901c0L'
p26
sS'basicblock'
p27
Nsba(ibclass
BInstr
p28
(dp29
g2
Nsg17
S'SUB     SP, SP, #0x14'
p30
sg19
S'14d04de2'
p31
sg21
Vsub sp, sp, #0x14
p32
sg5
L590276L
sg6
Nsg23
S'SUB'
p33
sg25
S'0x901c4L'
p34
sg27
Nsba(ibclass
BInstr
p35
(dp36
g2
Nsg17
S'MOV     R8, a'
p37
sg19
S'0080a0e1'
p38
sg21
Vmov r8, r0
p39
sg5
L590280L
sg6
Nsg23
S'MOV'
p40
sg25
S'0x901c8L'
p41
sg27
Nsba(ibclass
BInstr
p42
(dp43
g2
Nsg17
S'BL      BN_num_bits'
p44
sg19
S'73efffeb'
p45
sg21
Vbl #0xffffbdd4
p46
sg5
L590284L
sg6
Nsg23
S'BL'
p47
sg25
S'0x901ccL'
p48
sg27
Nsba(ibclass
BInstr
p49
(dp50
g2
Nsg17
S'LDR     R2, =0x10624DD3'
p51
sg19
S'2c229fe5'
p52
sg21
Vldr r2, [pc, #0x22c]
p53
sg5
L590288L
sg6
Nsg23
S'LDR'
p54
sg25
S'0x901d0L'
p55
sg27
Nsba(ibclass
BInstr
p56
(dp57
g2
Nsg17
S'ADD     R0, R0, R0,LSL#1'
p58
sg19
S'800080e0'
p59
sg21
Vadd r0, r0, r0, lsl #1
p60
sg5
L590292L
sg6
Nsg23
S'ADD'
p61
sg25
S'0x901d4L'
p62
sg27
Nsba(ibclass
BInstr
p63
(dp64
g2
Nsg17
S'SMULL   R1, R3, R2, R0'
p65
sg19
S'9210c3e0'
p66
sg21
Vsmull r1, r3, r2, r0
p67
sg5
L590296L
sg6
Nsg23
S'SMULL'
p68
sg25
S'0x901d8L'
p69
sg27
Nsba(ibclass
BInstr
p70
(dp71
g2
Nsg17
S'LDR     R1, =0x66666667'
p72
sg19
S'24129fe5'
p73
sg21
Vldr r1, [pc, #0x224]
p74
sg5
L590300L
sg6
Nsg23
S'LDR'
p75
sg25
S'0x901dcL'
p76
sg27
Nsba(ibclass
BInstr
p77
(dp78
g2
Nsg17
S'LDR     R9, =($_GLOBAL_OFFSET_TABLE_ - 0x90218)'
p79
sg19
S'24929fe5'
p80
sg21
Vldr sb, [pc, #0x224]
p81
sg5
L590304L
sg6
Nsg23
S'LDR'
p82
sg25
S'0x901e0L'
p83
sg27
Nsba(ibclass
BInstr
p84
(dp85
g2
Nsg17
S'SMULL   R12, R2, R1, R0'
p86
sg19
S'91c0c2e0'
p87
sg21
Vsmull ip, r2, r1, r0
p88
sg5
L590308L
sg6
Nsg23
S'SMULL'
p89
sg25
S'0x901e4L'
p90
sg27
Nsba(ibclass
BInstr
p91
(dp92
g2
Nsg17
S'MOV     R0, R0,ASR#31'
p93
sg19
S'c00fa0e1'
p94
sg21
Vasr r0, r0, #0x1f
p95
sg5
L590312L
sg6
Nsg23
S'MOV'
p96
sg25
S'0x901e8L'
p97
sg27
Nsba(ibclass
BInstr
p98
(dp99
g2
Nsg17
S'RSB     R3, R0, R3,ASR#6'
p100
sg19
S'433360e0'
p101
sg21
Vrsb r3, r0, r3, asr #6
p102
sg5
L590316L
sg6
Nsg23
S'RSB'
p103
sg25
S'0x901ecL'
p104
sg27
Nsba(ibclass
BInstr
p105
(dp106
g2
Nsg17
S'RSB     R0, R0, R2,ASR#2'
p107
sg19
S'420160e0'
p108
sg21
Vrsb r0, r0, r2, asr #2
p109
sg5
L590320L
sg6
Nsg23
S'RSB'
p110
sg25
S'0x901f0L'
p111
sg27
Nsba(ibclass
BInstr
p112
(dp113
g2
Nsg17
S'ADD     R5, R0, R3'
p114
sg19
S'035080e0'
p115
sg21
Vadd r5, r0, r3
p116
sg5
L590324L
sg6
Nsg23
S'ADD'
p117
sg25
S'0x901f4L'
p118
sg27
Nsba(ibclass
BInstr
p119
(dp120
g2
Nsg17
S'LDR     R3, =0x6BCA1AF3'
p121
sg19
S'10329fe5'
p122
sg21
Vldr r3, [pc, #0x210]
p123
sg5
L590328L
sg6
Nsg23
S'LDR'
p124
sg25
S'0x901f8L'
p125
sg27
Nsba(ibclass
BInstr
p126
(dp127
g2
Nsg17
S'ADD     R1, R5, #2'
p128
sg19
S'021085e2'
p129
sg21
Vadd r1, r5, #2
p130
sg5
L590332L
sg6
Nsg23
S'ADD'
p131
sg25
S'0x901fcL'
p132
sg27
Nsba(ibclass
BInstr
p133
(dp134
g2
Nsg17
S'SMULL   R2, R10, R3, R1'
p135
sg19
S'9321cae0'
p136
sg21
Vsmull r2, sl, r3, r1
p137
sg5
L590336L
sg6
Nsg23
S'SMULL'
p138
sg25
S'0x90200L'
p139
sg27
Nsba(ibclass
BInstr
p140
(dp141
g2
Nsg17
S'LDR     R4, =(aBn_print_c - 0x18E000)'
p142
sg19
S'08429fe5'
p143
sg21
Vldr r4, [pc, #0x208]
p144
sg5
L590340L
sg6
Nsg23
S'LDR'
p145
sg25
S'0x90204L'
p146
sg27
Nsba(ibclass
BInstr
p147
(dp148
g2
Nsg17
S'MOV     R3, R1,ASR#31'
p149
sg19
S'c13fa0e1'
p150
sg21
Vasr r3, r1, #0x1f
p151
sg5
L590344L
sg6
Nsg23
S'MOV'
p152
sg25
S'0x90208L'
p153
sg27
Nsba(ibclass
BInstr
p154
(dp155
g2
Nsg17
S'RSB     R10, R3, R10,ASR#3'
p156
sg19
S'caa163e0'
p157
sg21
Vrsb sl, r3, sl, asr #3
p158
sg5
L590348L
sg6
Nsg23
S'RSB'
p159
sg25
S'0x9020cL'
p160
sg27
Nsba(ibclass
BInstr
p161
(dp162
g2
Nsg17
S'ADD     R9, PC, R9 ; $_GLOBAL_OFFSET_TABLE_'
p163
sg19
S'09908fe0'
p164
sg21
Vadd sb, pc, sb
p165
sg5
L590352L
sg6
Nsg23
S'ADD'
p166
sg25
S'0x90210L'
p167
sg27
Nsba(ibclass
BInstr
p168
(dp169
g2
Nsg17
S'ADD     R4, R9, R4      ; "bn_print.c"'
p170
sg19
S'044089e0'
p171
sg21
Vadd r4, sb, r4
p172
sg5
L590356L
sg6
Nsg23
S'ADD'
p173
sg25
S'0x90214L'
p174
sg27
Nsba(ibclass
BInstr
p175
(dp176
g2
Nsg17
S'ADD     R10, R10, #1'
p177
sg19
S'01a08ae2'
p178
sg21
Vadd sl, sl, #1
p179
sg5
L590360L
sg6
Nsg23
S'ADD'
p180
sg25
S'0x90218L'
p181
sg27
Nsba(ibclass
BInstr
p182
(dp183
g2
Nsg17
S'STR     R1, [SP,#0x38+var_2C]'
p184
sg19
S'0c108de5'
p185
sg21
Vstr r1, [sp, #0xc]
p186
sg5
L590364L
sg6
Nsg23
S'STR'
p187
sg25
S'0x9021cL'
p188
sg27
Nsba(ibclass
BInstr
p189
(dp190
g2
Nsg17
S'MOV     R2, #0x78       ; line'
p191
sg19
S'7820a0e3'
p192
sg21
Vmov r2, #0x78
p193
sg5
L590368L
sg6
Nsg23
S'MOV'
p194
sg25
S'0x90220L'
p195
sg27
Nsba(ibclass
BInstr
p196
(dp197
g2
Nsg17
S'MOV     R1, R4          ; file'
p198
sg19
S'0410a0e1'
p199
sg21
Vmov r1, r4
p200
sg5
L590372L
sg6
Nsg23
S'MOV'
p201
sg25
S'0x90224L'
p202
sg27
Nsba(ibclass
BInstr
p203
(dp204
g2
Nsg17
S'MOV     R0, bn_data_num,LSL#2; num'
p205
sg19
S'0a01a0e1'
p206
sg21
Vlsl r0, sl, #2
p207
sg5
L590376L
sg6
Nsg23
S'MOV'
p208
sg25
S'0x90228L'
p209
sg27
Nsba(ibclass
BInstr
p210
(dp211
g2
Nsg17
S'BL      CRYPTO_malloc'
p212
sg19
S'21e3feeb'
p213
sg21
Vbl #0xfffb8c8c
p214
sg5
L590380L
sg6
Nsg23
S'BL'
p215
sg25
S'0x9022cL'
p216
sg27
Nsba(ibclass
BInstr
p217
(dp218
g2
Nsg17
S'MOV     R1, R4          ; file'
p219
sg19
S'0410a0e1'
p220
sg21
Vmov r1, r4
p221
sg5
L590384L
sg6
Nsg23
S'MOV'
p222
sg25
S'0x90230L'
p223
sg27
Nsba(ibclass
BInstr
p224
(dp225
g2
Nsg17
S'MOV     bn_data, R0'
p226
sg19
S'0070a0e1'
p227
sg21
Vmov r7, r0
p228
sg5
L590388L
sg6
Nsg23
S'MOV'
p229
sg25
S'0x90234L'
p230
sg27
Nsba(ibclass
BInstr
p231
(dp232
g2
Nsg17
S'MOV     R2, #0x79       ; line'
p233
sg19
S'7920a0e3'
p234
sg21
Vmov r2, #0x79
p235
sg5
L590392L
sg6
Nsg23
S'MOV'
p236
sg25
S'0x90238L'
p237
sg27
Nsba(ibclass
BInstr
p238
(dp239
g2
Nsg17
S'ADD     R0, R5, #5      ; num'
p240
sg19
S'050085e2'
p241
sg21
Vadd r0, r5, #5
p242
sg5
L590396L
sg6
Nsg23
S'ADD'
p243
sg25
S'0x9023cL'
p244
sg27
Nsba(ibclass
BInstr
p245
(dp246
g2
Nsg17
S'BL      CRYPTO_malloc'
p247
sg19
S'1ce3feeb'
p248
sg21
Vbl #0xfffb8c78
p249
sg5
L590400L
sg6
Nsg23
S'BL'
p250
sg25
S'0x90240L'
p251
sg27
Nsba(ibclass
BInstr
p252
(dp253
g2
Nsg17
S'CMP     R0, #0'
p254
sg19
S'000050e3'
p255
sg21
Vcmp r0, #0
p256
sg5
L590404L
sg6
Nsg23
S'CMP'
p257
sg25
S'0x90244L'
p258
sg27
Nsba(ibclass
BInstr
p259
(dp260
g2
Nsg17
S'CMPNE   bn_data, #0'
p261
sg19
S'00005713'
p262
sg21
Vcmpne r7, #0
p263
sg5
L590408L
sg6
Nsg23
S'CMP'
p264
sg25
S'0x90248L'
p265
sg27
Nsba(ibclass
BInstr
p266
(dp267
g2
Nsg17
S'MOV     R6, buf'
p268
sg19
S'0060a0e1'
p269
sg21
Vmov r6, r0
p270
sg5
L590412L
sg6
Nsg23
S'MOV'
p271
sg25
S'0x9024cL'
p272
sg27
Nsba(ibclass
BInstr
p273
(dp274
g2
Nsg17
S'BNE     loc_902AC'
p275
sg19
S'1500001a'
p276
sg21
Vbne #0x5c
p277
sg5
L590416L
sg6
Nsg23
S'B'
p278
sg25
S'0x90250L'
p279
sg27
NsbasS'disasm_list'
p280
(lp281
S'STMFD SP!, {R4-R11,LR}'
p282
aS'SUB SP, SP, #0x14'
p283
aS'MOV R8, a'
p284
aS'BL BN_num_bits'
p285
aS'LDR R2, =addressDD3'
p286
aS'ADD R0, R0, R0,LSL#1'
p287
aS'SMULL R1, R3, R2, R0'
p288
aS'LDR R1, =address667'
p289
aS'LDR R9, =($_GLOBAL_OFFSET_TABLE_ - address)'
p290
aS'SMULL R12, R2, R1, R0'
p291
aS'MOV R0, R0,ASR#31'
p292
aS'RSB R3, R0, R3,ASR#6'
p293
aS'RSB R0, R0, R2,ASR#2'
p294
aS'ADD R5, R0, R3'
p295
aS'LDR R3, =0x6BCA1AF3'
p296
aS'ADD R1, R5, #2'
p297
aS'SMULL R2, R10, R3, R1'
p298
aS'LDR R4, =(aBn_print_c - 0x18E000)'
p299
aS'MOV R3, R1,ASR#31'
p300
aS'RSB R10, R3, R10,ASR#3'
p301
aS'ADD R9, PC, R9'
p302
aS'ADD R4, R9, R4'
p303
aS'ADD R10, R10, #1'
p304
aS'STR R1, mem'
p305
aS'MOV R2, #0x78'
p306
aS'MOV R1, R4'
p307
aS'MOV R0, bn_data_num,LSL#2'
p308
aS'BL CRYPTO_mregloc'
p309
aS'MOV R1, R4'
p310
aS'MOV bn_data, R0'
p311
aS'MOV R2, #0x79'
p312
aS'ADD R0, R5, #5'
p313
aS'BL CRYPTO_mregloc'
p314
aS'CMP R0, #0'
p315
aS'CMPNE bn_data, #0'
p316
aS'MOV R6, buf'
p317
aS'BNE func'
p318
asS'end_address'
p319
Nsg5
S'0x901c0L'
p320
sS'preds'
p321
(lp322
sg6
NsS'succs'
p323
(lp324
S'0x90254L'
p325
aS'0x902acL'
p326
asS'hash_v3'
p327
NsS'flag_v2'
p328
NsS'hash_v1'
p329
S'5a567f633eeda5136814aba9775ba84c'
p330
sS'hash_v2'
p331
S'bbe97ff3f6afdf121025e4f3b0082142'
p332
sS'mnen_list'
p333
(lp334
g24
ag33
ag40
ag47
ag54
ag61
ag68
ag75
ag82
ag89
ag96
ag103
ag110
ag117
ag124
ag131
ag138
ag145
ag152
ag159
ag166
ag173
ag180
ag187
ag194
ag201
ag208
ag215
ag222
ag229
ag236
ag243
ag250
ag257
ag264
ag271
ag278
asS'neighbour_disasm_list'
p335
Nsba(ibclass
BBasicBlock
p336
(dp337
g12
Nsg13
(lp338
(ibclass
BInstr
p339
(dp340
g2
Nsg17
S'MOV     R3, R4          ; file'
p341
sg19
S'0430a0e1'
p342
sg21
Vmov r3, r4
p343
sg5
L590420L
sg6
Nsg23
S'MOV'
p344
sg25
S'0x90254L'
p345
sg27
Nsba(ibclass
BInstr
p346
(dp347
g2
Nsg17
S'MOV     R12, #0x7B'
p348
sg19
S'7bc0a0e3'
p349
sg21
Vmov ip, #0x7b
p350
sg5
L590424L
sg6
Nsg23
S'MOV'
p351
sg25
S'0x90258L'
p352
sg27
Nsba(ibclass
BInstr
p353
(dp354
g2
Nsg17
S'MOV     R0, #3          ; lib'
p355
sg19
S'0300a0e3'
p356
sg21
Vmov r0, #3
p357
sg5
L590428L
sg6
Nsg23
S'MOV'
p358
sg25
S'0x9025cL'
p359
sg27
Nsba(ibclass
BInstr
p360
(dp361
g2
Nsg17
S'MOV     R1, #0x68       ; func'
p362
sg19
S'6810a0e3'
p363
sg21
Vmov r1, #0x68
p364
sg5
L590432L
sg6
Nsg23
S'MOV'
p365
sg25
S'0x90260L'
p366
sg27
Nsba(ibclass
BInstr
p367
(dp368
g2
Nsg17
S'MOV     R2, #0x41       ; reason'
p369
sg19
S'4120a0e3'
p370
sg21
Vmov r2, #0x41
p371
sg5
L590436L
sg6
Nsg23
S'MOV'
p372
sg25
S'0x90264L'
p373
sg27
Nsba(ibclass
BInstr
p374
(dp375
g2
Nsg17
S'STR     R12, [SP,#0x38+line]; line'
p376
sg19
S'00c08de5'
p377
sg21
Vstr ip, [sp]
p378
sg5
L590440L
sg6
Nsg23
S'STR'
p379
sg25
S'0x90268L'
p380
sg27
Nsba(ibclass
BInstr
p381
(dp382
g2
Nsg17
S'BL      ERR_put_error'
p383
sg19
S'c21601eb'
p384
sg21
Vbl #0x45b10
p385
sg5
L590444L
sg6
Nsg23
S'BL'
p386
sg25
S'0x9026cL'
p387
sg27
Nsba(ibclass
BInstr
p388
(dp389
g2
Nsg17
S'SUBS    R5, R6, #0'
p390
sg19
S'005056e2'
p391
sg21
Vsubs r5, r6, #0
p392
sg5
L590448L
sg6
Nsg23
S'SUB'
p393
sg25
S'0x90270L'
p394
sg27
Nsba(ibclass
BInstr
p395
(dp396
g2
Nsg17
S'MOVNE   R5, #1'
p397
sg19
S'0150a013'
p398
sg21
Vmovne r5, #1
p399
sg5
L590452L
sg6
Nsg23
S'MOV'
p400
sg25
S'0x90274L'
p401
sg27
Nsba(ibclass
BInstr
p402
(dp403
g2
Nsg17
S'MOV     R4, #0'
p404
sg19
S'0040a0e3'
p405
sg21
Vmov r4, #0
p406
sg5
L590456L
sg6
Nsg23
S'MOV'
p407
sg25
S'0x90278L'
p408
sg27
Nsbasg280
(lp409
S'MOV R3, R4'
p410
aS'MOV R12, #0x7B'
p411
aS'MOV R0, #3'
p412
aS'MOV R1, #0x68'
p413
aS'MOV R2, #0x41'
p414
aS'STR R12, mem'
p415
aS'BL ERR_put_error'
p416
aS'SUBS R5, R6, #0'
p417
aS'MOVNE R5, #1'
p418
aS'MOV R4, #0'
p419
asg319
Nsg5
S'0x90254L'
p420
sg321
(lp421
S'0x901c0L'
p422
asg6
Nsg323
(lp423
S'0x9027cL'
p424
asg327
Nsg328
Nsg329
S'fe8e7e48334ccbc1f941b13c954bfae8'
p425
sg331
S'32b29ef447c0fde3802257c0b7161485'
p426
sg333
(lp427
g344
ag351
ag358
ag365
ag372
ag379
ag386
ag393
ag400
ag407
asg335
Nsba(ibclass
BBasicBlock
p428
(dp429
g12
Nsg13
(lp430
(ibclass
BInstr
p431
(dp432
g2
Nsg17
S'CMP     bn_data, #0'
p433
sg19
S'000057e3'
p434
sg21
Vcmp r7, #0
p435
sg5
L590460L
sg6
Nsg23
S'CMP'
p436
sg25
S'0x9027cL'
p437
sg27
Nsba(ibclass
BInstr
p438
(dp439
g2
Nsg17
S'MOVNE   R0, bn_data     ; str'
p440
sg19
S'0700a011'
p441
sg21
Vmovne r0, r7
p442
sg5
L590464L
sg6
Nsg23
S'MOV'
p443
sg25
S'0x90280L'
p444
sg27
Nsba(ibclass
BInstr
p445
(dp446
g2
Nsg17
S'BLNE    CRYPTO_free'
p447
sg19
S'7fe3fe1b'
p448
sg21
Vblne #0xfffb8e04
p449
sg5
L590468L
sg6
Nsg23
S'BL'
p450
sg25
S'0x90284L'
p451
sg27
Nsba(ibclass
BInstr
p452
(dp453
g2
Nsg17
S'CMP     t, #0'
p454
sg19
S'000054e3'
p455
sg21
Vcmp r4, #0
p456
sg5
L590472L
sg6
Nsg23
S'CMP'
p457
sg25
S'0x90288L'
p458
sg27
Nsba(ibclass
BInstr
p459
(dp460
g2
Nsg17
S'MOVNE   R0, t           ; a'
p461
sg19
S'0400a011'
p462
sg21
Vmovne r0, r4
p463
sg5
L590476L
sg6
Nsg23
S'MOV'
p464
sg25
S'0x9028cL'
p465
sg27
Nsba(ibclass
BInstr
p466
(dp467
g2
Nsg17
S'BLNE    BN_free'
p468
sg19
S'82f1ff1b'
p469
sg21
Vblne #0xffffc610
p470
sg5
L590480L
sg6
Nsg23
S'BL'
p471
sg25
S'0x90290L'
p472
sg27
Nsba(ibclass
BInstr
p473
(dp474
g2
Nsg17
S'CMP     R5, #0'
p475
sg19
S'000055e3'
p476
sg21
Vcmp r5, #0
p477
sg5
L590484L
sg6
Nsg23
S'CMP'
p478
sg25
S'0x90294L'
p479
sg27
Nsba(ibclass
BInstr
p480
(dp481
g2
Nsg17
S'BNE     loc_903F4'
p482
sg19
S'5500001a'
p483
sg21
Vbne #0x15c
p484
sg5
L590488L
sg6
Nsg23
g278
sg25
S'0x90298L'
p485
sg27
Nsbasg280
(lp486
S'CMP bn_data, #0'
p487
aS'MOVNE R0, bn_data'
p488
aS'BLNE CRYPTO_free'
p489
aS'CMP t, #0'
p490
aS'MOVNE R0, t'
p491
aS'BLNE BN_free'
p492
aS'CMP R5, #0'
p493
aS'BNE func'
p494
asg319
Nsg5
S'0x9027cL'
p495
sg321
(lp496
S'0x90254L'
p497
aS'0x902bcL'
p498
aS'0x902f4L'
p499
aS'0x90334L'
p500
aS'0x903ecL'
p501
asg6
Nsg323
(lp502
S'0x9029cL'
p503
aS'0x903f4L'
p504
asg327
Nsg328
Nsg329
S'69643ca70f9f673d42d4133c8b74ff22'
p505
sg331
S'2e0511957b2af433b6381843643f69dc'
p506
sg333
(lp507
g436
ag443
ag450
ag457
ag464
ag471
ag478
ag278
asg335
Nsba(ibclass
BBasicBlock
p508
(dp509
g12
Nsg13
(lp510
(ibclass
BInstr
p511
(dp512
g2
Nsg17
S'MOV     R0, R6'
p513
sg19
S'0600a0e1'
p514
sg21
Vmov r0, r6
p515
sg5
L590492L
sg6
Nsg23
S'MOV'
p516
sg25
S'0x9029cL'
p517
sg27
Nsba(ibclass
BInstr
p518
(dp519
g2
Nsg17
S'ADD     SP, SP, #0x14'
p520
sg19
S'14d08de2'
p521
sg21
Vadd sp, sp, #0x14
p522
sg5
L590496L
sg6
Nsg23
S'ADD'
p523
sg25
S'0x902a0L'
p524
sg27
Nsba(ibclass
BInstr
p525
(dp526
g2
Nsg17
S'LDMFD   SP!, {t-R11,LR}'
p527
sg19
S'f04fbde8'
p528
sg21
Vpop {r4, r5, r6, r7, r8, sb, sl, fp, lr}
p529
sg5
L590500L
sg6
Nsg23
S'LDM'
p530
sg25
S'0x902a4L'
p531
sg27
Nsba(ibclass
BInstr
p532
(dp533
g2
Nsg17
S'BX      LR              ; format'
p534
sg19
S'1eff2fe1'
p535
sg21
Vbx lr
p536
sg5
L590504L
sg6
Nsg23
S'BX'
p537
sg25
S'0x902a8L'
p538
sg27
Nsbasg280
(lp539
S'MOV R0, R6'
p540
aS'ADD SP, SP, #0x14'
p541
aS'LDMFD SP!, {t-R11,LR}'
p542
aS'BX LR'
p543
asg319
Nsg5
S'0x9029cL'
p544
sg321
(lp545
S'0x9027cL'
p546
aS'0x903f4L'
p547
asg6
Nsg323
(lp548
sg327
Nsg328
Nsg329
S'bc984d627a05f387655964404c76526b'
p549
sg331
S'367518de20c323c49070218ccbf70960'
p550
sg333
(lp551
g516
ag523
ag530
ag537
asg335
Nsba(ibclass
BBasicBlock
p552
(dp553
g12
Nsg13
(lp554
(ibclass
BInstr
p555
(dp556
g2
Nsg17
S'MOV     R0, a           ; a'
p557
sg19
S'0800a0e1'
p558
sg21
Vmov r0, r8
p559
sg5
L590508L
sg6
Nsg23
S'MOV'
p560
sg25
S'0x902acL'
p561
sg27
Nsba(ibclass
BInstr
p562
(dp563
g2
Nsg17
S'BL      BN_dup'
p564
sg19
S'faf2ffeb'
p565
sg21
Vbl #0xffffcbf0
p566
sg5
L590512L
sg6
Nsg23
S'BL'
p567
sg25
S'0x902b0L'
p568
sg27
Nsba(ibclass
BInstr
p569
(dp570
g2
Nsg17
S'SUBS    R4, R0, #0'
p571
sg19
S'004050e2'
p572
sg21
Vsubs r4, r0, #0
p573
sg5
L590516L
sg6
Nsg23
S'SUB'
p574
sg25
S'0x902b4L'
p575
sg27
Nsba(ibclass
BInstr
p576
(dp577
g2
Nsg17
S'BEQ     err'
p578
sg19
S'0d00000a'
p579
sg21
Vbeq #0x3c
p580
sg5
L590520L
sg6
Nsg23
g278
sg25
S'0x902b8L'
p581
sg27
Nsbasg280
(lp582
S'MOV R0, a'
p583
aS'BL BN_dup'
p584
aS'SUBS R4, R0, #0'
p585
aS'BEQ err'
p586
asg319
Nsg5
S'0x902acL'
p587
sg321
(lp588
S'0x901c0L'
p589
asg6
Nsg323
(lp590
S'0x902bcL'
p591
aS'0x902f4L'
p592
asg327
Nsg328
Nsg329
S'd712ad407e365d6dc92067cbbdc09d0b'
p593
sg331
S'21f6ade1d5a108a580ed21f58fa04602'
p594
sg333
(lp595
g560
ag567
ag574
ag278
asg335
Nsba(ibclass
BBasicBlock
p596
(dp597
g12
Nsg13
(lp598
(ibclass
BInstr
p599
(dp600
g2
Nsg17
S'LDR     R5, [t,#4]'
p601
sg19
S'045094e5'
p602
sg21
Vldr r5, [r4, #4]
p603
sg5
L590524L
sg6
Nsg23
S'LDR'
p604
sg25
S'0x902bcL'
p605
sg27
Nsba(ibclass
BInstr
p606
(dp607
g2
Nsg17
S'CMP     R5, #0'
p608
sg19
S'000055e3'
p609
sg21
Vcmp r5, #0
p610
sg5
L590528L
sg6
Nsg23
S'CMP'
p611
sg25
S'0x902c0L'
p612
sg27
Nsba(ibclass
BInstr
p613
(dp614
g2
Nsg17
S'MOVEQ   R3, #0x30'
p615
sg19
S'3030a003'
p616
sg21
Vmoveq r3, #0x30
p617
sg5
L590532L
sg6
Nsg23
S'MOV'
p618
sg25
S'0x902c4L'
p619
sg27
Nsba(ibclass
BInstr
p620
(dp621
g2
Nsg17
S'STREQB  R3, [R6]'
p622
sg19
S'0030c605'
p623
sg21
Vstrbeq r3, [r6]
p624
sg5
L590536L
sg6
Nsg23
S'STR'
p625
sg25
S'0x902c8L'
p626
sg27
Nsba(ibclass
BInstr
p627
(dp628
g2
Nsg17
S'STREQB  R5, [R6,#1]'
p629
sg19
S'0150c605'
p630
sg21
Vstrbeq r5, [r6, #1]
p631
sg5
L590540L
sg6
Nsg23
S'STR'
p632
sg25
S'0x902ccL'
p633
sg27
Nsba(ibclass
BInstr
p634
(dp635
g2
Nsg17
S'BEQ     loc_9027C'
p636
sg19
S'e9ffff0a'
p637
sg21
Vbeq #0xffffffac
p638
sg5
L590544L
sg6
Nsg23
g278
sg25
S'0x902d0L'
p639
sg27
Nsbasg280
(lp640
S'LDR R5, mem'
p641
aS'CMP R5, #0'
p642
aS'MOVEQ R3, #0x30'
p643
aS'STREQB R3, mem'
p644
aS'STREQB R5, mem'
p645
aS'BEQ func'
p646
asg319
Nsg5
S'0x902bcL'
p647
sg321
(lp648
S'0x902acL'
p649
asg6
Nsg323
(lp650
S'0x9027cL'
p651
aS'0x902d4L'
p652
asg327
Nsg328
Nsg329
S'ad449469d2044f57092ef50b52b578ce'
p653
sg331
S'6eed9b10602359d14e158b276d40817b'
p654
sg333
(lp655
g604
ag611
ag618
ag625
ag632
ag278
asg335
Nsba(ibclass
BBasicBlock
p656
(dp657
g12
Nsg13
(lp658
(ibclass
BInstr
p659
(dp660
g2
Nsg17
S'LDR     R3, [t,#0xC]'
p661
sg19
S'0c3094e5'
p662
sg21
Vldr r3, [r4, #0xc]
p663
sg5
L590548L
sg6
Nsg23
S'LDR'
p664
sg25
S'0x902d4L'
p665
sg27
Nsba(ibclass
BInstr
p666
(dp667
g2
Nsg17
S'CMP     R3, #0'
p668
sg19
S'000053e3'
p669
sg21
Vcmp r3, #0
p670
sg5
L590552L
sg6
Nsg23
S'CMP'
p671
sg25
S'0x902d8L'
p672
sg27
Nsba(ibclass
BInstr
p673
(dp674
g2
Nsg17
S'MOVEQ   a, R6'
p675
sg19
S'0680a001'
p676
sg21
Vmoveq r8, r6
p677
sg5
L590556L
sg6
Nsg23
S'MOV'
p678
sg25
S'0x902dcL'
p679
sg27
Nsba(ibclass
BInstr
p680
(dp681
g2
Nsg17
S'BNE     loc_9033C'
p682
sg19
S'1500001a'
p683
sg21
Vbne #0x5c
p684
sg5
L590560L
sg6
Nsg23
g278
sg25
S'0x902e0L'
p685
sg27
Nsbasg280
(lp686
S'LDR R3, mem'
p687
aS'CMP R3, #0'
p688
aS'MOVEQ a, R6'
p689
aS'BNE func'
p690
asg319
Nsg5
S'0x902d4L'
p691
sg321
(lp692
S'0x902bcL'
p693
asg6
Nsg323
(lp694
S'0x902e4L'
p695
aS'0x9033cL'
p696
asg327
Nsg328
Nsg329
S'f0a84dd7947e5c267432e015f529de0e'
p697
sg331
S'4730b7e3b0fc3df550eb3e87794aecfa'
p698
sg333
(lp699
g664
ag671
ag678
ag278
asg335
Nsba(ibclass
BBasicBlock
p700
(dp701
g12
Nsg13
(lp702
(ibclass
BInstr
p703
(dp704
g2
Nsg17
S'CMP     bn_data_num, #0'
p705
sg19
S'00005ae3'
p706
sg21
Vcmp sl, #0
p707
sg5
L590564L
sg6
Nsg23
S'CMP'
p708
sg25
S'0x902e4L'
p709
sg27
Nsba(ibclass
BInstr
p710
(dp711
g2
Nsg17
S'MOVGT   lp, bn_data'
p712
sg19
S'0750a0c1'
p713
sg21
Vmovgt r5, r7
p714
sg5
L590568L
sg6
Nsg23
S'MOV'
p715
sg25
S'0x902e8L'
p716
sg27
Nsba(ibclass
BInstr
p717
(dp718
g2
Nsg17
S'MOVGT   R11, #4'
p719
sg19
S'04b0a0c3'
p720
sg21
Vmovgt fp, #4
p721
sg5
L590572L
sg6
Nsg23
S'MOV'
p722
sg25
S'0x902ecL'
p723
sg27
Nsba(ibclass
BInstr
p724
(dp725
g2
Nsg17
S'BGT     loc_90318'
p726
sg19
S'080000ca'
p727
sg21
Vbgt #0x28
p728
sg5
L590576L
sg6
Nsg23
g278
sg25
S'0x902f0L'
p729
sg27
Nsbasg280
(lp730
S'CMP bn_data_num, #0'
p731
aS'MOVGT lp, bn_data'
p732
aS'MOVGT R11, #4'
p733
aS'BGT func'
p734
asg319
Nsg5
S'0x902e4L'
p735
sg321
(lp736
S'0x902d4L'
p737
aS'0x9033cL'
p738
asg6
Nsg323
(lp739
S'0x902f4L'
p740
aS'0x90318L'
p741
asg327
Nsg328
Nsg329
S'f6479fbb0eca979084f3beb71258267e'
p742
sg331
S'948eabac27679fe998b9e5c4bb9d12f4'
p743
sg333
(lp744
g708
ag715
ag722
ag278
asg335
Nsba(ibclass
BBasicBlock
p745
(dp746
g12
Nsg13
(lp747
(ibclass
BInstr
p748
(dp749
g2
Nsg17
S'MOV     lp, #1'
p750
sg19
S'0150a0e3'
p751
sg21
Vmov r5, #1
p752
sg5
L590580L
sg6
Nsg23
S'MOV'
p753
sg25
S'0x902f4L'
p754
sg27
Nsba(ibclass
BInstr
p755
(dp756
g2
Nsg17
S'B       loc_9027C'
p757
sg19
S'dfffffea'
p758
sg21
Vb #0xffffff84
p759
sg5
L590584L
sg6
Nsg23
g278
sg25
S'0x902f8L'
p760
sg27
Nsbasg280
(lp761
S'MOV lp, #1'
p762
aS'B func'
p763
asg319
Nsg5
S'0x902f4L'
p764
sg321
(lp765
S'0x902acL'
p766
aS'0x902e4L'
p767
aS'0x9030cL'
p768
asg6
Nsg323
(lp769
S'0x9027cL'
p770
asg327
Nsg328
Nsg329
S'b6c4e95ccfe77a95e4cf2019dd3d5574'
p771
sg331
S'84952f40e7b90a66e4fd44d2ba014f88'
p772
sg333
(lp773
g753
ag278
asg335
Nsba(ibclass
BBasicBlock
p774
(dp775
g12
Nsg13
(lp776
(ibclass
BInstr
p777
(dp778
g2
Nsg17
S'LDR     R2, [t,#4]'
p779
sg19
S'042094e5'
p780
sg21
Vldr r2, [r4, #4]
p781
sg5
L590588L
sg6
Nsg23
S'LDR'
p782
sg25
S'0x902fcL'
p783
sg27
Nsba(ibclass
BInstr
p784
(dp785
g2
Nsg17
S'ADD     lp, lp, #4'
p786
sg19
S'045085e2'
p787
sg21
Vadd r5, r5, #4
p788
sg5
L590592L
sg6
Nsg23
S'ADD'
p789
sg25
S'0x90300L'
p790
sg27
Nsba(ibclass
BInstr
p791
(dp792
g2
Nsg17
S'CMP     R2, #0'
p793
sg19
S'000052e3'
p794
sg21
Vcmp r2, #0
p795
sg5
L590596L
sg6
Nsg23
S'CMP'
p796
sg25
S'0x90304L'
p797
sg27
Nsba(ibclass
BInstr
p798
(dp799
g2
Nsg17
S'BEQ     loc_90358'
p800
sg19
S'1200000a'
p801
sg21
Vbeq #0x50
p802
sg5
L590600L
sg6
Nsg23
g278
sg25
S'0x90308L'
p803
sg27
Nsbasg280
(lp804
S'LDR R2, mem'
p805
aS'ADD lp, lp, #4'
p806
aS'CMP R2, #0'
p807
aS'BEQ func'
p808
asg319
Nsg5
S'0x902fcL'
p809
sg321
(lp810
S'0x90318L'
p811
asg6
Nsg323
(lp812
S'0x9030cL'
p813
aS'0x90358L'
p814
asg327
Nsg328
Nsg329
S'f58179a3884326010ced9866bee49b8f'
p815
sg331
S'565aa6573ce3b5c00b780e276b6234ac'
p816
sg333
(lp817
g782
ag789
ag796
ag278
asg335
Nsba(ibclass
BBasicBlock
p818
(dp819
g12
Nsg13
(lp820
(ibclass
BInstr
p821
(dp822
g2
Nsg17
S'CMP     bn_data_num, R3'
p823
sg19
S'03005ae1'
p824
sg21
Vcmp sl, r3
p825
sg5
L590604L
sg6
Nsg23
S'CMP'
p826
sg25
S'0x9030cL'
p827
sg27
Nsba(ibclass
BInstr
p828
(dp829
g2
Nsg17
S'ADD     R11, R11, #4'
p830
sg19
S'04b08be2'
p831
sg21
Vadd fp, fp, #4
p832
sg5
L590608L
sg6
Nsg23
S'ADD'
p833
sg25
S'0x90310L'
p834
sg27
Nsba(ibclass
BInstr
p835
(dp836
g2
Nsg17
S'BLE     err'
p837
sg19
S'f6ffffda'
p838
sg21
Vble #0xffffffe0
p839
sg5
L590612L
sg6
Nsg23
g278
sg25
S'0x90314L'
p840
sg27
Nsbasg280
(lp841
S'CMP bn_data_num, R3'
p842
aS'ADD R11, R11, #4'
p843
aS'BLE err'
p844
asg319
Nsg5
S'0x9030cL'
p845
sg321
(lp846
S'0x902fcL'
p847
asg6
Nsg323
(lp848
S'0x902f4L'
p849
aS'0x90318L'
p850
asg327
Nsg328
Nsg329
S'0038db8468b20ad3114d0dbf040b8ed0'
p851
sg331
S'8f26891190f09dda4792089b5104a59e'
p852
sg333
(lp853
g826
ag833
ag278
asg335
Nsba(ibclass
BBasicBlock
p854
(dp855
g12
Nsg13
(lp856
(ibclass
BInstr
p857
(dp858
g2
Nsg17
S'MOV     R0, t           ; a'
p859
sg19
S'0400a0e1'
p860
sg21
Vmov r0, r4
p861
sg5
L590616L
sg6
Nsg23
S'MOV'
p862
sg25
S'0x90318L'
p863
sg27
Nsba(ibclass
BInstr
p864
(dp865
g2
Nsg17
S'LDR     R1, =0x89E80000 ; w'
p866
sg19
S'f4109fe5'
p867
sg21
Vldr r1, [pc, #0xf4]
p868
sg5
L590620L
sg6
Nsg23
S'LDR'
p869
sg25
S'0x9031cL'
p870
sg27
Nsba(ibclass
BInstr
p871
(dp872
g2
Nsg17
S'BL      BN_div_word'
p873
sg19
S'e70300eb'
p874
sg21
Vbl #0xfa4
p875
sg5
L590624L
sg6
Nsg23
S'BL'
p876
sg25
S'0x90320L'
p877
sg27
Nsba(ibclass
BInstr
p878
(dp879
g2
Nsg17
S'CMN     R0, #1'
p880
sg19
S'010070e3'
p881
sg21
Vcmn r0, #1
p882
sg5
L590628L
sg6
Nsg23
S'CMN'
p883
sg25
S'0x90324L'
p884
sg27
Nsba(ibclass
BInstr
p885
(dp886
g2
Nsg17
S'MOV     R3, R11,ASR#2'
p887
sg19
S'4b31a0e1'
p888
sg21
Vasr r3, fp, #2
p889
sg5
L590632L
sg6
Nsg23
S'MOV'
p890
sg25
S'0x90328L'
p891
sg27
Nsba(ibclass
BInstr
p892
(dp893
g2
Nsg17
S'STR     R0, [lp]'
p894
sg19
S'000085e5'
p895
sg21
Vstr r0, [r5]
p896
sg5
L590636L
sg6
Nsg23
S'STR'
p897
sg25
S'0x9032cL'
p898
sg27
Nsba(ibclass
BInstr
p899
(dp900
g2
Nsg17
S'BNE     loc_902FC'
p901
sg19
S'f1ffff1a'
p902
sg21
Vbne #0xffffffcc
p903
sg5
L590640L
sg6
Nsg23
g278
sg25
S'0x90330L'
p904
sg27
Nsbasg280
(lp905
S'MOV R0, t'
p906
aS'LDR R1, =0x89E80000'
p907
aS'BL BN_regv_word'
p908
aS'CMN R0, #1'
p909
aS'MOV R3, R11,ASR#2'
p910
aS'STR R0, mem'
p911
aS'BNE func'
p912
asg319
Nsg5
S'0x90318L'
p913
sg321
(lp914
S'0x902e4L'
p915
aS'0x9030cL'
p916
asg6
Nsg323
(lp917
S'0x902fcL'
p918
aS'0x90334L'
p919
asg327
Nsg328
Nsg329
S'dcc9a3910bba05b7f15dd7405454e9d5'
p920
sg331
S'd8d34cf208baeadc9b0fd7d22653f349'
p921
sg333
(lp922
g862
ag869
ag876
ag883
ag890
ag897
ag278
asg335
Nsba(ibclass
BBasicBlock
p923
(dp924
g12
Nsg13
(lp925
(ibclass
BInstr
p926
(dp927
g2
Nsg17
S'MOV     lp, #1'
p928
sg19
S'0150a0e3'
p929
sg21
Vmov r5, #1
p930
sg5
L590644L
sg6
Nsg23
S'MOV'
p931
sg25
S'0x90334L'
p932
sg27
Nsba(ibclass
BInstr
p933
(dp934
g2
Nsg17
S'B       loc_9027C'
p935
sg19
S'cfffffea'
p936
sg21
Vb #0xffffff44
p937
sg5
L590648L
sg6
Nsg23
g278
sg25
S'0x90338L'
p938
sg27
Nsbasg280
(lp939
S'MOV lp, #1'
p940
aS'B func'
p941
asg319
Nsg5
S'0x90334L'
p942
sg321
(lp943
S'0x90318L'
p944
asg6
Nsg323
(lp945
S'0x9027cL'
p946
asg327
Nsg328
Nsg329
S'b6c4e95ccfe77a95e4cf2019dd3d5574'
p947
sg331
S'84952f40e7b90a66e4fd44d2ba014f88'
p948
sg333
(lp949
g931
ag278
asg335
Nsba(ibclass
BBasicBlock
p950
(dp951
g12
Nsg13
(lp952
(ibclass
BInstr
p953
(dp954
g2
Nsg17
S'MOV     R3, #0x2D'
p955
sg19
S'2d30a0e3'
p956
sg21
Vmov r3, #0x2d
p957
sg5
L590652L
sg6
Nsg23
S'MOV'
p958
sg25
S'0x9033cL'
p959
sg27
Nsba(ibclass
BInstr
p960
(dp961
g2
Nsg17
S'MOV     p, R6'
p962
sg19
S'0680a0e1'
p963
sg21
Vmov r8, r6
p964
sg5
L590656L
sg6
Nsg23
S'MOV'
p965
sg25
S'0x90340L'
p966
sg27
Nsba(ibclass
BInstr
p967
(dp968
g2
Nsg17
S'STRB    R3, [p],#1'
p969
sg19
S'0130c8e4'
p970
sg21
Vstrb r3, [r8], #1
p971
sg5
L590660L
sg6
Nsg23
S'STR'
p972
sg25
S'0x90344L'
p973
sg27
Nsba(ibclass
BInstr
p974
(dp975
g2
Nsg17
S'LDR     R3, [t,#4]'
p976
sg19
S'043094e5'
p977
sg21
Vldr r3, [r4, #4]
p978
sg5
L590664L
sg6
Nsg23
S'LDR'
p979
sg25
S'0x90348L'
p980
sg27
Nsba(ibclass
BInstr
p981
(dp982
g2
Nsg17
S'CMP     R3, #0'
p983
sg19
S'000053e3'
p984
sg21
Vcmp r3, #0
p985
sg5
L590668L
sg6
Nsg23
S'CMP'
p986
sg25
S'0x9034cL'
p987
sg27
Nsba(ibclass
BInstr
p988
(dp989
g2
Nsg17
S'MOVEQ   R5, bn_data'
p990
sg19
S'0750a001'
p991
sg21
Vmoveq r5, r7
p992
sg5
L590672L
sg6
Nsg23
S'MOV'
p993
sg25
S'0x90350L'
p994
sg27
Nsba(ibclass
BInstr
p995
(dp996
g2
Nsg17
S'BNE     loc_902E4'
p997
sg19
S'e2ffff1a'
p998
sg21
Vbne #0xffffff90
p999
sg5
L590676L
sg6
Nsg23
g278
sg25
S'0x90354L'
p1000
sg27
Nsbasg280
(lp1001
S'MOV R3, #0x2D'
p1002
aS'MOV p, R6'
p1003
aS'STRB R3, mem,#1'
p1004
aS'LDR R3, mem'
p1005
aS'CMP R3, #0'
p1006
aS'MOVEQ R5, bn_data'
p1007
aS'BNE func'
p1008
asg319
Nsg5
S'0x9033cL'
p1009
sg321
(lp1010
S'0x902d4L'
p1011
asg6
Nsg323
(lp1012
S'0x902e4L'
p1013
aS'0x90358L'
p1014
asg327
Nsg328
Nsg329
S'6dbe0b1f9a9d4a7efa4c4bacb65a4013'
p1015
sg331
S'b4407ff0410c3399f1b4c3857bc74f07'
p1016
sg333
(lp1017
g958
ag965
ag972
ag979
ag986
ag993
ag278
asg335
Nsba(ibclass
BBasicBlock
p1018
(dp1019
g12
Nsg13
(lp1020
(ibclass
BInstr
p1021
(dp1022
g2
Nsg17
S'LDR     R3, [SP,#0x38+var_2C]'
p1023
sg19
S'0c309de5'
p1024
sg21
Vldr r3, [sp, #0xc]
p1025
sg5
L590680L
sg6
Nsg23
S'LDR'
p1026
sg25
S'0x90358L'
p1027
sg27
Nsba(ibclass
BInstr
p1028
(dp1029
g2
Nsg17
S'LDR     R2, =(aLu - 0x18E000)'
p1030
sg19
S'b8209fe5'
p1031
sg21
Vldr r2, [pc, #0xb8]
p1032
sg5
L590684L
sg6
Nsg23
S'LDR'
p1033
sg25
S'0x9035cL'
p1034
sg27
Nsba(ibclass
BInstr
p1035
(dp1036
g2
Nsg17
S'ADD     bn_data_num, R3, #3'
p1037
sg19
S'03a083e2'
p1038
sg21
Vadd sl, r3, #3
p1039
sg5
L590688L
sg6
Nsg23
S'ADD'
p1040
sg25
S'0x90360L'
p1041
sg27
Nsba(ibclass
BInstr
p1042
(dp1043
g2
Nsg17
S'RSB     R1, p, R6'
p1044
sg19
S'061068e0'
p1045
sg21
Vrsb r1, r8, r6
p1046
sg5
L590692L
sg6
Nsg23
S'RSB'
p1047
sg25
S'0x90364L'
p1048
sg27
Nsba(ibclass
BInstr
p1049
(dp1050
g2
Nsg17
S'LDR     R3, [lp,#-4]'
p1051
sg19
S'043015e5'
p1052
sg21
Vldr r3, [r5, #-4]
p1053
sg5
L590696L
sg6
Nsg23
S'LDR'
p1054
sg25
S'0x90368L'
p1055
sg27
Nsba(ibclass
BInstr
p1056
(dp1057
g2
Nsg17
S'ADD     R1, R1, R10     ; n'
p1058
sg19
S'0a1081e0'
p1059
sg21
Vadd r1, r1, sl
p1060
sg5
L590700L
sg6
Nsg23
S'ADD'
p1061
sg25
S'0x9036cL'
p1062
sg27
Nsba(ibclass
BInstr
p1063
(dp1064
g2
Nsg17
S'ADD     R2, R9, R2      ; "%lu"'
p1065
sg19
S'022089e0'
p1066
sg21
Vadd r2, sb, r2
p1067
sg5
L590704L
sg6
Nsg23
S'ADD'
p1068
sg25
S'0x90370L'
p1069
sg27
Nsba(ibclass
BInstr
p1070
(dp1071
g2
Nsg17
S'MOV     R0, p           ; buf'
p1072
sg19
S'0800a0e1'
p1073
sg21
Vmov r0, r8
p1074
sg5
L590708L
sg6
Nsg23
S'MOV'
p1075
sg25
S'0x90374L'
p1076
sg27
Nsba(ibclass
BInstr
p1077
(dp1078
g2
Nsg17
S'BL      BIO_snprintf'
p1079
sg19
S'3cf100eb'
p1080
sg21
Vbl #0x3c4f8
p1081
sg5
L590712L
sg6
Nsg23
S'BL'
p1082
sg25
S'0x90378L'
p1083
sg27
Nsba(ibclass
BInstr
p1084
(dp1085
g2
Nsg17
S'LDRB    R3, [p]'
p1086
sg19
S'0030d8e5'
p1087
sg21
Vldrb r3, [r8]
p1088
sg5
L590716L
sg6
Nsg23
S'LDR'
p1089
sg25
S'0x9037cL'
p1090
sg27
Nsba(ibclass
BInstr
p1091
(dp1092
g2
Nsg17
S'SUB     lp, lp, #4'
p1093
sg19
S'045045e2'
p1094
sg21
Vsub r5, r5, #4
p1095
sg5
L590720L
sg6
Nsg23
S'SUB'
p1096
sg25
S'0x90380L'
p1097
sg27
Nsba(ibclass
BInstr
p1098
(dp1099
g2
Nsg17
S'CMP     R3, #0'
p1100
sg19
S'000053e3'
p1101
sg21
Vcmp r3, #0
p1102
sg5
L590724L
sg6
Nsg23
S'CMP'
p1103
sg25
S'0x90384L'
p1104
sg27
Nsba(ibclass
BInstr
p1105
(dp1106
g2
Nsg17
S'BEQ     loc_90398'
p1107
sg19
S'0200000a'
p1108
sg21
Vbeq #0x10
p1109
sg5
L590728L
sg6
Nsg23
g278
sg25
S'0x90388L'
p1110
sg27
Nsbasg280
(lp1111
S'LDR R3, mem'
p1112
aS'LDR R2, =(aLu - 0x18E000)'
p1113
aS'ADD bn_data_num, R3, #3'
p1114
aS'RSB R1, p, R6'
p1115
aS'LDR R3, mem'
p1116
aS'ADD R1, R1, R10'
p1117
aS'ADD R2, R9, R2'
p1118
aS'MOV R0, p'
p1119
aS'BL BIO_snprintf'
p1120
aS'LDRB R3, mem'
p1121
aS'SUB lp, lp, #4'
p1122
aS'CMP R3, #0'
p1123
aS'BEQ func'
p1124
asg319
Nsg5
S'0x90358L'
p1125
sg321
(lp1126
S'0x902fcL'
p1127
aS'0x9033cL'
p1128
asg6
Nsg323
(lp1129
S'0x9038cL'
p1130
aS'0x90398L'
p1131
asg327
Nsg328
Nsg329
S'18ac2c921b4ba77ff4fdcc4b4b55b48f'
p1132
sg331
S'452f0424ae388d04b290807b3607fcbb'
p1133
sg333
(lp1134
g1026
ag1033
ag1040
ag1047
ag1054
ag1061
ag1068
ag1075
ag1082
ag1089
ag1096
ag1103
ag278
asg335
Nsba(ibclass
BBasicBlock
p1135
(dp1136
g12
Nsg13
(lp1137
(ibclass
BInstr
p1138
(dp1139
g2
Nsg17
S'LDRB    R3, [p,#1]!'
p1140
sg19
S'0130f8e5'
p1141
sg21
Vldrb r3, [r8, #1]!
p1142
sg5
L590732L
sg6
Nsg23
S'LDR'
p1143
sg25
S'0x9038cL'
p1144
sg27
Nsba(ibclass
BInstr
p1145
(dp1146
g2
Nsg17
S'CMP     R3, #0'
p1147
sg19
S'000053e3'
p1148
sg21
Vcmp r3, #0
p1149
sg5
L590736L
sg6
Nsg23
S'CMP'
p1150
sg25
S'0x90390L'
p1151
sg27
Nsba(ibclass
BInstr
p1152
(dp1153
g2
Nsg17
S'BNE     loc_9038C'
p1154
sg19
S'fcffff1a'
p1155
sg21
Vbne #0xfffffff8
p1156
sg5
L590740L
sg6
Nsg23
g278
sg25
S'0x90394L'
p1157
sg27
Nsbasg280
(lp1158
S'LDRB R3, mem!'
p1159
aS'CMP R3, #0'
p1160
aS'BNE func'
p1161
asg319
Nsg5
S'0x9038cL'
p1162
sg321
(lp1163
S'0x90358L'
p1164
aS'0x9038cL'
p1165
asg6
Nsg323
(lp1166
S'0x90398L'
p1167
aS'0x9038cL'
p1168
asg327
Nsg328
Nsg329
S'fa4df767a85c49648339e2dc5c6807f6'
p1169
sg331
S'e6698e091cc0badcb6080ff8fc9650d3'
p1170
sg333
(lp1171
g1143
ag1150
ag278
asg335
Nsba(ibclass
BBasicBlock
p1172
(dp1173
g12
Nsg13
(lp1174
(ibclass
BInstr
p1175
(dp1176
g2
Nsg17
S'CMP     bn_data, lp'
p1177
sg19
S'050057e1'
p1178
sg21
Vcmp r7, r5
p1179
sg5
L590744L
sg6
Nsg23
S'CMP'
p1180
sg25
S'0x90398L'
p1181
sg27
Nsba(ibclass
BInstr
p1182
(dp1183
g2
Nsg17
S'BEQ     loc_903EC'
p1184
sg19
S'1200000a'
p1185
sg21
Vbeq #0x50
p1186
sg5
L590748L
sg6
Nsg23
g278
sg25
S'0x9039cL'
p1187
sg27
Nsbasg280
(lp1188
S'CMP bn_data, lp'
p1189
aS'BEQ func'
p1190
asg319
Nsg5
S'0x90398L'
p1191
sg321
(lp1192
S'0x90358L'
p1193
aS'0x9038cL'
p1194
asg6
Nsg323
(lp1195
S'0x903a0L'
p1196
aS'0x903ecL'
p1197
asg327
Nsg328
Nsg329
S'c78fd620a449e3c979d3f3ec12d4ee88'
p1198
sg331
S'5109ae093ae1c2a85e172a5fe1688bf7'
p1199
sg333
(lp1200
g1180
ag278
asg335
Nsba(ibclass
BBasicBlock
p1201
(dp1202
g12
Nsg13
(lp1203
(ibclass
BInstr
p1204
(dp1205
g2
Nsg17
S'LDR     R3, =(a019lu - 0x18E000)'
p1206
sg19
S'78309fe5'
p1207
sg21
Vldr r3, [pc, #0x78]
p1208
sg5
L590752L
sg6
Nsg23
S'LDR'
p1209
sg25
S'0x903a0L'
p1210
sg27
Nsba(ibclass
BInstr
p1211
(dp1212
g2
Nsg17
S'ADD     R9, R9, R3      ; "%019lu"'
p1213
sg19
S'039089e0'
p1214
sg21
Vadd sb, sb, r3
p1215
sg5
L590756L
sg6
Nsg23
S'ADD'
p1216
sg25
S'0x903a4L'
p1217
sg27
Nsba(ibclass
BInstr
p1218
(dp1219
g2
Nsg17
S'B       loc_903B8'
p1220
sg19
S'020000ea'
p1221
sg21
Vb #0x10
p1222
sg5
L590760L
sg6
Nsg23
g278
sg25
S'0x903a8L'
p1223
sg27
Nsbasg280
(lp1224
S'LDR R3, =(a019lu - 0x18E000)'
p1225
aS'ADD R9, R9, R3'
p1226
aS'B func'
p1227
asg319
Nsg5
S'0x903a0L'
p1228
sg321
(lp1229
S'0x90398L'
p1230
asg6
Nsg323
(lp1231
S'0x903b8L'
p1232
asg327
Nsg328
Nsg329
S'1f772b94e4d1ce83f9f07a3453286354'
p1233
sg331
S'ecedf2c27526509a2bc782732303a2f3'
p1234
sg333
(lp1235
g1209
ag1216
ag278
asg335
Nsba(ibclass
BBasicBlock
p1236
(dp1237
g12
Nsg13
(lp1238
(ibclass
BInstr
p1239
(dp1240
g2
Nsg17
S'SUB     R5, R5, #4'
p1241
sg19
S'045045e2'
p1242
sg21
Vsub r5, r5, #4
p1243
sg5
L590764L
sg6
Nsg23
S'SUB'
p1244
sg25
S'0x903acL'
p1245
sg27
Nsba(ibclass
BInstr
p1246
(dp1247
g2
Nsg17
S'CMP     bn_data, R5'
p1248
sg19
S'050057e1'
p1249
sg21
Vcmp r7, r5
p1250
sg5
L590768L
sg6
Nsg23
S'CMP'
p1251
sg25
S'0x903b0L'
p1252
sg27
Nsba(ibclass
BInstr
p1253
(dp1254
g2
Nsg17
S'BEQ     loc_903EC'
p1255
sg19
S'0c00000a'
p1256
sg21
Vbeq #0x38
p1257
sg5
L590772L
sg6
Nsg23
g278
sg25
S'0x903b4L'
p1258
sg27
Nsbasg280
(lp1259
S'SUB R5, R5, #4'
p1260
aS'CMP bn_data, R5'
p1261
aS'BEQ func'
p1262
asg319
Nsg5
S'0x903acL'
p1263
sg321
(lp1264
S'0x903b8L'
p1265
aS'0x903dcL'
p1266
asg6
Nsg323
(lp1267
S'0x903b8L'
p1268
aS'0x903ecL'
p1269
asg327
Nsg328
Nsg329
S'894b8d3668dd4d870658172bcc02b6af'
p1270
sg331
S'28ac421d489d12eb08ad8b3c8a7889ea'
p1271
sg333
(lp1272
g1244
ag1251
ag278
asg335
Nsba(ibclass
BBasicBlock
p1273
(dp1274
g12
Nsg13
(lp1275
(ibclass
BInstr
p1276
(dp1277
g2
Nsg17
S'RSB     R1, p, R6'
p1278
sg19
S'061068e0'
p1279
sg21
Vrsb r1, r8, r6
p1280
sg5
L590776L
sg6
Nsg23
S'RSB'
p1281
sg25
S'0x903b8L'
p1282
sg27
Nsba(ibclass
BInstr
p1283
(dp1284
g2
Nsg17
S'LDR     R3, [lp,#-4]'
p1285
sg19
S'043015e5'
p1286
sg21
Vldr r3, [r5, #-4]
p1287
sg5
L590780L
sg6
Nsg23
S'LDR'
p1288
sg25
S'0x903bcL'
p1289
sg27
Nsba(ibclass
BInstr
p1290
(dp1291
g2
Nsg17
S'ADD     R1, R1, R10     ; n'
p1292
sg19
S'0a1081e0'
p1293
sg21
Vadd r1, r1, sl
p1294
sg5
L590784L
sg6
Nsg23
S'ADD'
p1295
sg25
S'0x903c0L'
p1296
sg27
Nsba(ibclass
BInstr
p1297
(dp1298
g2
Nsg17
S'MOV     R0, p           ; buf'
p1299
sg19
S'0800a0e1'
p1300
sg21
Vmov r0, r8
p1301
sg5
L590788L
sg6
Nsg23
S'MOV'
p1302
sg25
S'0x903c4L'
p1303
sg27
Nsba(ibclass
BInstr
p1304
(dp1305
g2
Nsg17
S'MOV     R2, R9'
p1306
sg19
S'0920a0e1'
p1307
sg21
Vmov r2, sb
p1308
sg5
L590792L
sg6
Nsg23
S'MOV'
p1309
sg25
S'0x903c8L'
p1310
sg27
Nsba(ibclass
BInstr
p1311
(dp1312
g2
Nsg17
S'BL      BIO_snprintf'
p1313
sg19
S'27f100eb'
p1314
sg21
Vbl #0x3c4a4
p1315
sg5
L590796L
sg6
Nsg23
S'BL'
p1316
sg25
S'0x903ccL'
p1317
sg27
Nsba(ibclass
BInstr
p1318
(dp1319
g2
Nsg17
S'LDRB    R3, [p]'
p1320
sg19
S'0030d8e5'
p1321
sg21
Vldrb r3, [r8]
p1322
sg5
L590800L
sg6
Nsg23
S'LDR'
p1323
sg25
S'0x903d0L'
p1324
sg27
Nsba(ibclass
BInstr
p1325
(dp1326
g2
Nsg17
S'CMP     R3, #0'
p1327
sg19
S'000053e3'
p1328
sg21
Vcmp r3, #0
p1329
sg5
L590804L
sg6
Nsg23
S'CMP'
p1330
sg25
S'0x903d4L'
p1331
sg27
Nsba(ibclass
BInstr
p1332
(dp1333
g2
Nsg17
S'BEQ     loc_903AC'
p1334
sg19
S'f3ffff0a'
p1335
sg21
Vbeq #0xffffffd4
p1336
sg5
L590808L
sg6
Nsg23
g278
sg25
S'0x903d8L'
p1337
sg27
Nsbasg280
(lp1338
S'RSB R1, p, R6'
p1339
aS'LDR R3, mem'
p1340
aS'ADD R1, R1, R10'
p1341
aS'MOV R0, p'
p1342
aS'MOV R2, R9'
p1343
aS'BL BIO_snprintf'
p1344
aS'LDRB R3, mem'
p1345
aS'CMP R3, #0'
p1346
aS'BEQ func'
p1347
asg319
Nsg5
S'0x903b8L'
p1348
sg321
(lp1349
S'0x903a0L'
p1350
aS'0x903acL'
p1351
asg6
Nsg323
(lp1352
S'0x903acL'
p1353
aS'0x903dcL'
p1354
asg327
Nsg328
Nsg329
S'c7f0ae7c6bfa73181c0e9787c6e1e046'
p1355
sg331
S'fb87269662466f4d953a066a945ee2dd'
p1356
sg333
(lp1357
g1281
ag1288
ag1295
ag1302
ag1309
ag1316
ag1323
ag1330
ag278
asg335
Nsba(ibclass
BBasicBlock
p1358
(dp1359
g12
Nsg13
(lp1360
(ibclass
BInstr
p1361
(dp1362
g2
Nsg17
S'LDRB    R3, [p,#1]!'
p1363
sg19
S'0130f8e5'
p1364
sg21
Vldrb r3, [r8, #1]!
p1365
sg5
L590812L
sg6
Nsg23
S'LDR'
p1366
sg25
S'0x903dcL'
p1367
sg27
Nsba(ibclass
BInstr
p1368
(dp1369
g2
Nsg17
S'CMP     R3, #0'
p1370
sg19
S'000053e3'
p1371
sg21
Vcmp r3, #0
p1372
sg5
L590816L
sg6
Nsg23
S'CMP'
p1373
sg25
S'0x903e0L'
p1374
sg27
Nsba(ibclass
BInstr
p1375
(dp1376
g2
Nsg17
S'BEQ     loc_903AC'
p1377
sg19
S'f0ffff0a'
p1378
sg21
Vbeq #0xffffffc8
p1379
sg5
L590820L
sg6
Nsg23
g278
sg25
S'0x903e4L'
p1380
sg27
Nsbasg280
(lp1381
S'LDRB R3, mem!'
p1382
aS'CMP R3, #0'
p1383
aS'BEQ func'
p1384
asg319
Nsg5
S'0x903dcL'
p1385
sg321
(lp1386
S'0x903b8L'
p1387
aS'0x903e8L'
p1388
asg6
Nsg323
(lp1389
S'0x903acL'
p1390
aS'0x903e8L'
p1391
asg327
Nsg328
Nsg329
S'fa4df767a85c49648339e2dc5c6807f6'
p1392
sg331
S'2c3d4ab10b7a948844cd5d7016e2220a'
p1393
sg333
(lp1394
g1366
ag1373
ag278
asg335
Nsba(ibclass
BBasicBlock
p1395
(dp1396
g12
Nsg13
(lp1397
(ibclass
BInstr
p1398
(dp1399
g2
Nsg17
S'B       loc_903DC'
p1400
sg19
S'fbffffea'
p1401
sg21
Vb #0xfffffff4
p1402
sg5
L590824L
sg6
Nsg23
g278
sg25
S'0x903e8L'
p1403
sg27
Nsbasg280
(lp1404
S'B func'
p1405
asg319
Nsg5
S'0x903e8L'
p1406
sg321
(lp1407
S'0x903dcL'
p1408
asg6
Nsg323
(lp1409
S'0x903dcL'
p1410
asg327
Nsg328
Nsg329
S'9d5ed678fe57bcca610140957afab571'
p1411
sg331
S'071b057c420e304c628380fd3541c021'
p1412
sg333
(lp1413
g278
asg335
Nsba(ibclass
BBasicBlock
p1414
(dp1415
g12
Nsg13
(lp1416
(ibclass
BInstr
p1417
(dp1418
g2
Nsg17
S'MOV     lp, #0'
p1419
sg19
S'0050a0e3'
p1420
sg21
Vmov r5, #0
p1421
sg5
L590828L
sg6
Nsg23
S'MOV'
p1422
sg25
S'0x903ecL'
p1423
sg27
Nsba(ibclass
BInstr
p1424
(dp1425
g2
Nsg17
S'B       loc_9027C'
p1426
sg19
S'a1ffffea'
p1427
sg21
Vb #0xfffffe8c
p1428
sg5
L590832L
sg6
Nsg23
g278
sg25
S'0x903f0L'
p1429
sg27
Nsbasg280
(lp1430
S'MOV lp, #0'
p1431
aS'B func'
p1432
asg319
Nsg5
S'0x903ecL'
p1433
sg321
(lp1434
S'0x90398L'
p1435
aS'0x903acL'
p1436
asg6
Nsg323
(lp1437
S'0x9027cL'
p1438
asg327
Nsg328
Nsg329
S'b6c4e95ccfe77a95e4cf2019dd3d5574'
p1439
sg331
S'920bb211242053b734be2da74f27baf3'
p1440
sg333
(lp1441
g1422
ag278
asg335
Nsba(ibclass
BBasicBlock
p1442
(dp1443
g12
Nsg13
(lp1444
(ibclass
BInstr
p1445
(dp1446
g2
Nsg17
S'MOV     R0, R6          ; str'
p1447
sg19
S'0600a0e1'
p1448
sg21
Vmov r0, r6
p1449
sg5
L590836L
sg6
Nsg23
S'MOV'
p1450
sg25
S'0x903f4L'
p1451
sg27
Nsba(ibclass
BInstr
p1452
(dp1453
g2
Nsg17
S'BL      CRYPTO_free'
p1454
sg19
S'22e3feeb'
p1455
sg21
Vbl #0xfffb8c90
p1456
sg5
L590840L
sg6
Nsg23
S'BL'
p1457
sg25
S'0x903f8L'
p1458
sg27
Nsba(ibclass
BInstr
p1459
(dp1460
g2
Nsg17
S'MOV     R6, #0'
p1461
sg19
S'0060a0e3'
p1462
sg21
Vmov r6, #0
p1463
sg5
L590844L
sg6
Nsg23
S'MOV'
p1464
sg25
S'0x903fcL'
p1465
sg27
Nsba(ibclass
BInstr
p1466
(dp1467
g2
Nsg17
S'B       loc_9029C'
p1468
sg19
S'a5ffffea'
p1469
sg21
Vb #0xfffffe9c
p1470
sg5
L590848L
sg6
Nsg23
g278
sg25
S'0x90400L'
p1471
sg27
Nsbasg280
(lp1472
S'MOV R0, R6'
p1473
aS'BL CRYPTO_free'
p1474
aS'MOV R6, #0'
p1475
aS'B func'
p1476
asg319
Nsg5
S'0x903f4L'
p1477
sg321
(lp1478
S'0x9027cL'
p1479
asg6
Nsg323
(lp1480
S'0x9029cL'
p1481
asg327
Nsg328
Nsg329
S'cd23e0eb2129bcc2960febbe800808ae'
p1482
sg331
S'71312245661aa7d25ac45ad7d77b0a97'
p1483
sg333
(lp1484
g1450
ag1457
ag1464
ag278
asg335
Nsbasb.