(ibclass
BFunc
p0
(dp1
S'hash'
p2
NsS'name'
p3
S'DH_check_pub_key'
p4
sS'start_address'
p5
L769804L
sS'flag'
p6
NsS'program'
p7
NsS'bbs'
p8
(lp9
(ibclass
BBasicBlock
p10
(dp11
S'function'
p12
NsS'binstrs'
p13
(lp14
(ibclass
BInstr
p15
(dp16
g2
NsS'disasm'
p17
S'STMFD   SP!, {ctx-R8,LR}'
p18
sS'bytes'
p19
S'f0412de9'
p20
sS'disasm_striped'
p21
Vpush {r4, r5, r6, r7, r8, lr}
p22
sg5
L769804L
sg6
NsS'mnem'
p23
S'STM'
p24
sS'address'
p25
S'0xbbf0cL'
p26
sS'basicblock'
p27
Nsba(ibclass
BInstr
p28
(dp29
g2
Nsg17
S'MOV     R3, #0'
p30
sg19
S'0030a0e3'
p31
sg21
Vmov r3, #0
p32
sg5
L769808L
sg6
Nsg23
S'MOV'
p33
sg25
S'0xbbf10L'
p34
sg27
Nsba(ibclass
BInstr
p35
(dp36
g2
Nsg17
S'SUB     SP, SP, #8'
p37
sg19
S'08d04de2'
p38
sg21
Vsub sp, sp, #8
p39
sg5
L769812L
sg6
Nsg23
S'SUB'
p40
sg25
S'0xbbf14L'
p41
sg27
Nsba(ibclass
BInstr
p42
(dp43
g2
Nsg17
S'STR     R3, [ret]'
p44
sg19
S'003082e5'
p45
sg21
Vstr r3, [r2]
p46
sg5
L769816L
sg6
Nsg23
S'STR'
p47
sg25
S'0xbbf18L'
p48
sg27
Nsba(ibclass
BInstr
p49
(dp50
g2
Nsg17
S'MOV     R5, ret'
p51
sg19
S'0250a0e1'
p52
sg21
Vmov r5, r2
p53
sg5
L769820L
sg6
Nsg23
S'MOV'
p54
sg25
S'0xbbf1cL'
p55
sg27
Nsba(ibclass
BInstr
p56
(dp57
g2
Nsg17
S'MOV     R8, dh'
p58
sg19
S'0080a0e1'
p59
sg21
Vmov r8, r0
p60
sg5
L769824L
sg6
Nsg23
S'MOV'
p61
sg25
S'0xbbf20L'
p62
sg27
Nsba(ibclass
BInstr
p63
(dp64
g2
Nsg17
S'MOV     R7, pub_key'
p65
sg19
S'0170a0e1'
p66
sg21
Vmov r7, r1
p67
sg5
L769828L
sg6
Nsg23
S'MOV'
p68
sg25
S'0xbbf24L'
p69
sg27
Nsba(ibclass
BInstr
p70
(dp71
g2
Nsg17
S'BL      BN_CTX_new'
p72
sg19
S'3144ffeb'
p73
sg21
Vbl #0xfffd10cc
p74
sg5
L769832L
sg6
Nsg23
S'BL'
p75
sg25
S'0xbbf28L'
p76
sg27
Nsba(ibclass
BInstr
p77
(dp78
g2
Nsg17
S'SUBS    ctx, R0, #0'
p79
sg19
S'004050e2'
p80
sg21
Vsubs r4, r0, #0
p81
sg5
L769836L
sg6
Nsg23
S'SUB'
p82
sg25
S'0xbbf2cL'
p83
sg27
Nsba(ibclass
BInstr
p84
(dp85
g2
Nsg17
S'MOVEQ   R6, ctx'
p86
sg19
S'0460a001'
p87
sg21
Vmoveq r6, r4
p88
sg5
L769840L
sg6
Nsg23
S'MOV'
p89
sg25
S'0xbbf30L'
p90
sg27
Nsba(ibclass
BInstr
p91
(dp92
g2
Nsg17
S'BEQ     loc_BBF70'
p93
sg19
S'0d00000a'
p94
sg21
Vbeq #0x3c
p95
sg5
L769844L
sg6
Nsg23
S'B'
p96
sg25
S'0xbbf34L'
p97
sg27
NsbasS'disasm_list'
p98
(lp99
S'STMFD SP!, {ctx-R8,LR}'
p100
aS'MOV R3, #0'
p101
aS'SUB SP, SP, #8'
p102
aS'STR R3, mem'
p103
aS'MOV R5, ret'
p104
aS'MOV R8, dh'
p105
aS'MOV R7, pub_key'
p106
aS'BL BN_CTX_new'
p107
aS'SUBS ctx, R0, #0'
p108
aS'MOVEQ R6, ctx'
p109
aS'BEQ func'
p110
asS'end_address'
p111
Nsg5
S'0xbbf0cL'
p112
sS'preds'
p113
(lp114
sg6
NsS'succs'
p115
(lp116
S'0xbbf38L'
p117
aS'0xbbf70L'
p118
asS'hash_v3'
p119
NsS'flag_v2'
p120
NsS'hash_v1'
p121
S'5d944d6dacbbe76b6072cdc181ba4171'
p122
sS'hash_v2'
p123
S'654dd724d13cdacc5f0f7f4899f1e4d2'
p124
sS'mnen_list'
p125
(lp126
g24
ag33
ag40
ag47
ag54
ag61
ag68
ag75
ag82
ag89
ag96
asS'neighbour_disasm_list'
p127
Nsba(ibclass
BBasicBlock
p128
(dp129
g12
Nsg13
(lp130
(ibclass
BInstr
p131
(dp132
g2
Nsg17
S'BL      BN_CTX_start'
p133
sg19
S'd644ffeb'
p134
sg21
Vbl #0xfffd1360
p135
sg5
L769848L
sg6
Nsg23
S'BL'
p136
sg25
S'0xbbf38L'
p137
sg27
Nsba(ibclass
BInstr
p138
(dp139
g2
Nsg17
S'MOV     R0, ctx         ; ctx'
p140
sg19
S'0400a0e1'
p141
sg21
Vmov r0, r4
p142
sg5
L769852L
sg6
Nsg23
S'MOV'
p143
sg25
S'0xbbf3cL'
p144
sg27
Nsba(ibclass
BInstr
p145
(dp146
g2
Nsg17
S'BL      BN_CTX_get'
p147
sg19
S'5144ffeb'
p148
sg21
Vbl #0xfffd114c
p149
sg5
L769856L
sg6
Nsg23
S'BL'
p150
sg25
S'0xbbf40L'
p151
sg27
Nsba(ibclass
BInstr
p152
(dp153
g2
Nsg17
S'SUBS    ok, R0, #0'
p154
sg19
S'006050e2'
p155
sg21
Vsubs r6, r0, #0
p156
sg5
L769860L
sg6
Nsg23
S'SUB'
p157
sg25
S'0xbbf44L'
p158
sg27
Nsba(ibclass
BInstr
p159
(dp160
g2
Nsg17
S'BEQ     loc_BBF5C'
p161
sg19
S'0300000a'
p162
sg21
Vbeq #0x14
p163
sg5
L769864L
sg6
Nsg23
g96
sg25
S'0xbbf48L'
p164
sg27
Nsbasg98
(lp165
S'BL BN_CTX_start'
p166
aS'MOV R0, ctx'
p167
aS'BL BN_CTX_get'
p168
aS'SUBS ok, R0, #0'
p169
aS'BEQ func'
p170
asg111
Nsg5
S'0xbbf38L'
p171
sg113
(lp172
S'0xbbf0cL'
p173
asg6
Nsg115
(lp174
S'0xbbf4cL'
p175
aS'0xbbf5cL'
p176
asg119
Nsg120
Nsg121
S'b94f660e0edf97df65779787a871dc55'
p177
sg123
S'2ed19e984b175adaeaf5aa719b409c02'
p178
sg125
(lp179
g136
ag143
ag150
ag157
ag96
asg127
Nsba(ibclass
BBasicBlock
p180
(dp181
g12
Nsg13
(lp182
(ibclass
BInstr
p183
(dp184
g2
Nsg17
S'MOV     R1, #1          ; w'
p185
sg19
S'0110a0e3'
p186
sg21
Vmov r1, #1
p187
sg5
L769868L
sg6
Nsg23
S'MOV'
p188
sg25
S'0xbbf4cL'
p189
sg27
Nsba(ibclass
BInstr
p190
(dp191
g2
Nsg17
S'BL      BN_set_word'
p192
sg19
S'1e43ffeb'
p193
sg21
Vbl #0xfffd0c80
p194
sg5
L769872L
sg6
Nsg23
S'BL'
p195
sg25
S'0xbbf50L'
p196
sg27
Nsba(ibclass
BInstr
p197
(dp198
g2
Nsg17
S'CMP     R0, #0'
p199
sg19
S'000050e3'
p200
sg21
Vcmp r0, #0
p201
sg5
L769876L
sg6
Nsg23
S'CMP'
p202
sg25
S'0xbbf54L'
p203
sg27
Nsba(ibclass
BInstr
p204
(dp205
g2
Nsg17
S'BNE     loc_BBF80'
p206
sg19
S'0800001a'
p207
sg21
Vbne #0x28
p208
sg5
L769880L
sg6
Nsg23
g96
sg25
S'0xbbf58L'
p209
sg27
Nsbasg98
(lp210
S'MOV R1, #1'
p211
aS'BL BN_set_word'
p212
aS'CMP R0, #0'
p213
aS'BNE func'
p214
asg111
Nsg5
S'0xbbf4cL'
p215
sg113
(lp216
S'0xbbf38L'
p217
asg6
Nsg115
(lp218
S'0xbbf5cL'
p219
aS'0xbbf80L'
p220
asg119
Nsg120
Nsg121
S'75fdea37841bac1a618e2aab315c9307'
p221
sg123
S'776553b9be8375d3b2da6179a742506c'
p222
sg125
(lp223
g188
ag195
ag202
ag96
asg127
Nsba(ibclass
BBasicBlock
p224
(dp225
g12
Nsg13
(lp226
(ibclass
BInstr
p227
(dp228
g2
Nsg17
S'MOV     tmp, #0'
p229
sg19
S'0060a0e3'
p230
sg21
Vmov r6, #0
p231
sg5
L769884L
sg6
Nsg23
S'MOV'
p232
sg25
S'0xbbf5cL'
p233
sg27
Nsbasg98
(lp234
S'MOV tmp, #0'
p235
asg111
Nsg5
S'0xbbf5cL'
p236
sg113
(lp237
S'0xbbf38L'
p238
aS'0xbbf4cL'
p239
aS'0xbbf80L'
p240
aS'0xbbfb0L'
p241
aS'0xbbfecL'
p242
asg6
Nsg115
(lp243
S'0xbbf60L'
p244
asg119
Nsg120
Nsg121
S'17b32100aef1fc19670be7fd58bc85df'
p245
sg123
S'9cdab855e53d6e132d6cfd69436487a3'
p246
sg125
(lp247
g232
asg127
Nsba(ibclass
BBasicBlock
p248
(dp249
g12
Nsg13
(lp250
(ibclass
BInstr
p251
(dp252
g2
Nsg17
S'MOV     R0, ctx         ; ctx'
p253
sg19
S'0400a0e1'
p254
sg21
Vmov r0, r4
p255
sg5
L769888L
sg6
Nsg23
S'MOV'
p256
sg25
S'0xbbf60L'
p257
sg27
Nsba(ibclass
BInstr
p258
(dp259
g2
Nsg17
S'BL      BN_CTX_end'
p260
sg19
S'0144ffeb'
p261
sg21
Vbl #0xfffd100c
p262
sg5
L769892L
sg6
Nsg23
S'BL'
p263
sg25
S'0xbbf64L'
p264
sg27
Nsba(ibclass
BInstr
p265
(dp266
g2
Nsg17
S'MOV     R0, ctx         ; ctx'
p267
sg19
S'0400a0e1'
p268
sg21
Vmov r0, r4
p269
sg5
L769896L
sg6
Nsg23
S'MOV'
p270
sg25
S'0xbbf68L'
p271
sg27
Nsba(ibclass
BInstr
p272
(dp273
g2
Nsg17
S'BL      BN_CTX_free'
p274
sg19
S'1045ffeb'
p275
sg21
Vbl #0xfffd1448
p276
sg5
L769900L
sg6
Nsg23
S'BL'
p277
sg25
S'0xbbf6cL'
p278
sg27
Nsbasg98
(lp279
S'MOV R0, ctx'
p280
aS'BL BN_CTX_end'
p281
aS'MOV R0, ctx'
p282
aS'BL BN_CTX_free'
p283
asg111
Nsg5
S'0xbbf60L'
p284
sg113
(lp285
S'0xbbf5cL'
p286
aS'0xbc014L'
p287
aS'0xbc044L'
p288
asg6
Nsg115
(lp289
S'0xbbf70L'
p290
asg119
Nsg120
Nsg121
S'e410c53a38863ab40fce08231445bca1'
p291
sg123
S'b6839ceffd63cfa557993332f87e59e7'
p292
sg125
(lp293
g256
ag263
ag270
ag277
asg127
Nsba(ibclass
BBasicBlock
p294
(dp295
g12
Nsg13
(lp296
(ibclass
BInstr
p297
(dp298
g2
Nsg17
S'MOV     R0, ok'
p299
sg19
S'0600a0e1'
p300
sg21
Vmov r0, r6
p301
sg5
L769904L
sg6
Nsg23
S'MOV'
p302
sg25
S'0xbbf70L'
p303
sg27
Nsba(ibclass
BInstr
p304
(dp305
g2
Nsg17
S'ADD     SP, SP, #8'
p306
sg19
S'08d08de2'
p307
sg21
Vadd sp, sp, #8
p308
sg5
L769908L
sg6
Nsg23
S'ADD'
p309
sg25
S'0xbbf74L'
p310
sg27
Nsba(ibclass
BInstr
p311
(dp312
g2
Nsg17
S'LDMFD   SP!, {ctx-dh,LR}'
p313
sg19
S'f041bde8'
p314
sg21
Vpop {r4, r5, r6, r7, r8, lr}
p315
sg5
L769912L
sg6
Nsg23
S'LDM'
p316
sg25
S'0xbbf78L'
p317
sg27
Nsba(ibclass
BInstr
p318
(dp319
g2
Nsg17
S'BX      LR'
p320
sg19
S'1eff2fe1'
p321
sg21
Vbx lr
p322
sg5
L769916L
sg6
Nsg23
S'BX'
p323
sg25
S'0xbbf7cL'
p324
sg27
Nsbasg98
(lp325
S'MOV R0, ok'
p326
aS'ADD SP, SP, #8'
p327
aS'LDMFD SP!, {ctx-dh,LR}'
p328
aS'BX LR'
p329
asg111
Nsg5
S'0xbbf70L'
p330
sg113
(lp331
S'0xbbf0cL'
p332
aS'0xbbf60L'
p333
asg6
Nsg115
(lp334
sg119
Nsg120
Nsg121
S'bc984d627a05f387655964404c76526b'
p335
sg123
S'cce1e3285580e3e7e1a65a92029e1830'
p336
sg125
(lp337
g302
ag309
ag316
ag323
asg127
Nsba(ibclass
BBasicBlock
p338
(dp339
g12
Nsg13
(lp340
(ibclass
BInstr
p341
(dp342
g2
Nsg17
S'MOV     R1, tmp         ; b'
p343
sg19
S'0610a0e1'
p344
sg21
Vmov r1, r6
p345
sg5
L769920L
sg6
Nsg23
S'MOV'
p346
sg25
S'0xbbf80L'
p347
sg27
Nsba(ibclass
BInstr
p348
(dp349
g2
Nsg17
S'MOV     R0, pub_key     ; a'
p350
sg19
S'0700a0e1'
p351
sg21
Vmov r0, r7
p352
sg5
L769924L
sg6
Nsg23
S'MOV'
p353
sg25
S'0xbbf84L'
p354
sg27
Nsba(ibclass
BInstr
p355
(dp356
g2
Nsg17
S'BL      BN_cmp'
p357
sg19
S'7240ffeb'
p358
sg21
Vbl #0xfffd01d0
p359
sg5
L769928L
sg6
Nsg23
S'BL'
p360
sg25
S'0xbbf88L'
p361
sg27
Nsba(ibclass
BInstr
p362
(dp363
g2
Nsg17
S'CMP     R0, #0'
p364
sg19
S'000050e3'
p365
sg21
Vcmp r0, #0
p366
sg5
L769932L
sg6
Nsg23
S'CMP'
p367
sg25
S'0xbbf8cL'
p368
sg27
Nsba(ibclass
BInstr
p369
(dp370
g2
Nsg17
S'LDRLE   R3, [ret]'
p371
sg19
S'003095d5'
p372
sg21
Vldrle r3, [r5]
p373
sg5
L769936L
sg6
Nsg23
S'LDR'
p374
sg25
S'0xbbf90L'
p375
sg27
Nsba(ibclass
BInstr
p376
(dp377
g2
Nsg17
S'MOV     R0, tmp         ; a'
p378
sg19
S'0600a0e1'
p379
sg21
Vmov r0, r6
p380
sg5
L769940L
sg6
Nsg23
S'MOV'
p381
sg25
S'0xbbf94L'
p382
sg27
Nsba(ibclass
BInstr
p383
(dp384
g2
Nsg17
S'ORRLE   R3, R3, #1'
p385
sg19
S'013083d3'
p386
sg21
Vorrle r3, r3, #1
p387
sg5
L769944L
sg6
Nsg23
S'ORR'
p388
sg25
S'0xbbf98L'
p389
sg27
Nsba(ibclass
BInstr
p390
(dp391
g2
Nsg17
S'STRLE   R3, [ret]'
p392
sg19
S'003085d5'
p393
sg21
Vstrle r3, [r5]
p394
sg5
L769948L
sg6
Nsg23
S'STR'
p395
sg25
S'0xbbf9cL'
p396
sg27
Nsba(ibclass
BInstr
p397
(dp398
g2
Nsg17
S'LDR     R1, [dh,#8]     ; b'
p399
sg19
S'081098e5'
p400
sg21
Vldr r1, [r8, #8]
p401
sg5
L769952L
sg6
Nsg23
S'LDR'
p402
sg25
S'0xbbfa0L'
p403
sg27
Nsba(ibclass
BInstr
p404
(dp405
g2
Nsg17
S'BL      BN_copy'
p406
sg19
S'1e43ffeb'
p407
sg21
Vbl #0xfffd0c80
p408
sg5
L769956L
sg6
Nsg23
S'BL'
p409
sg25
S'0xbbfa4L'
p410
sg27
Nsba(ibclass
BInstr
p411
(dp412
g2
Nsg17
S'CMP     R0, #0'
p413
sg19
S'000050e3'
p414
sg21
Vcmp r0, #0
p415
sg5
L769960L
sg6
Nsg23
S'CMP'
p416
sg25
S'0xbbfa8L'
p417
sg27
Nsba(ibclass
BInstr
p418
(dp419
g2
Nsg17
S'BEQ     loc_BBF5C'
p420
sg19
S'eaffff0a'
p421
sg21
Vbeq #0xffffffb0
p422
sg5
L769964L
sg6
Nsg23
g96
sg25
S'0xbbfacL'
p423
sg27
Nsbasg98
(lp424
S'MOV R1, tmp'
p425
aS'MOV R0, pub_key'
p426
aS'BL BN_cmp'
p427
aS'CMP R0, #0'
p428
aS'LDRLE R3, mem'
p429
aS'MOV R0, tmp'
p430
aS'ORRLE R3, R3, #1'
p431
aS'STRLE R3, mem'
p432
aS'LDR R1, mem'
p433
aS'BL BN_copy'
p434
aS'CMP R0, #0'
p435
aS'BEQ func'
p436
asg111
Nsg5
S'0xbbf80L'
p437
sg113
(lp438
S'0xbbf4cL'
p439
asg6
Nsg115
(lp440
S'0xbbf5cL'
p441
aS'0xbbfb0L'
p442
asg119
Nsg120
Nsg121
S'edaef3ccecd68fdca29296602d6680b1'
p443
sg123
S'8c1fcbf78d00d90ac80cbcd9a3cfefa2'
p444
sg125
(lp445
g346
ag353
ag360
ag367
ag374
ag381
ag388
ag395
ag402
ag409
ag416
ag96
asg127
Nsba(ibclass
BBasicBlock
p446
(dp447
g12
Nsg13
(lp448
(ibclass
BInstr
p449
(dp450
g2
Nsg17
S'MOV     R0, tmp         ; a'
p451
sg19
S'0600a0e1'
p452
sg21
Vmov r0, r6
p453
sg5
L769968L
sg6
Nsg23
S'MOV'
p454
sg25
S'0xbbfb0L'
p455
sg27
Nsba(ibclass
BInstr
p456
(dp457
g2
Nsg17
S'MOV     R1, #1          ; w'
p458
sg19
S'0110a0e3'
p459
sg21
Vmov r1, #1
p460
sg5
L769972L
sg6
Nsg23
S'MOV'
p461
sg25
S'0xbbfb4L'
p462
sg27
Nsba(ibclass
BInstr
p463
(dp464
g2
Nsg17
S'BL      BN_sub_word'
p465
sg19
S'4154ffeb'
p466
sg21
Vbl #0xfffd510c
p467
sg5
L769976L
sg6
Nsg23
S'BL'
p468
sg25
S'0xbbfb8L'
p469
sg27
Nsba(ibclass
BInstr
p470
(dp471
g2
Nsg17
S'CMP     R0, #0'
p472
sg19
S'000050e3'
p473
sg21
Vcmp r0, #0
p474
sg5
L769980L
sg6
Nsg23
S'CMP'
p475
sg25
S'0xbbfbcL'
p476
sg27
Nsba(ibclass
BInstr
p477
(dp478
g2
Nsg17
S'BEQ     loc_BBF5C'
p479
sg19
S'e5ffff0a'
p480
sg21
Vbeq #0xffffff9c
p481
sg5
L769984L
sg6
Nsg23
g96
sg25
S'0xbbfc0L'
p482
sg27
Nsbasg98
(lp483
S'MOV R0, tmp'
p484
aS'MOV R1, #1'
p485
aS'BL BN_sub_word'
p486
aS'CMP R0, #0'
p487
aS'BEQ func'
p488
asg111
Nsg5
S'0xbbfb0L'
p489
sg113
(lp490
S'0xbbf80L'
p491
asg6
Nsg115
(lp492
S'0xbbf5cL'
p493
aS'0xbbfc4L'
p494
asg119
Nsg120
Nsg121
S'7aa0d384fe1372848624ea012a952b72'
p495
sg123
S'e5cca005c3d867ab54e1272f1bb0c061'
p496
sg125
(lp497
g454
ag461
ag468
ag475
ag96
asg127
Nsba(ibclass
BBasicBlock
p498
(dp499
g12
Nsg13
(lp500
(ibclass
BInstr
p501
(dp502
g2
Nsg17
S'MOV     R0, pub_key     ; a'
p503
sg19
S'0700a0e1'
p504
sg21
Vmov r0, r7
p505
sg5
L769988L
sg6
Nsg23
S'MOV'
p506
sg25
S'0xbbfc4L'
p507
sg27
Nsba(ibclass
BInstr
p508
(dp509
g2
Nsg17
S'MOV     R1, tmp         ; b'
p510
sg19
S'0610a0e1'
p511
sg21
Vmov r1, r6
p512
sg5
L769992L
sg6
Nsg23
S'MOV'
p513
sg25
S'0xbbfc8L'
p514
sg27
Nsba(ibclass
BInstr
p515
(dp516
g2
Nsg17
S'BL      BN_cmp'
p517
sg19
S'6140ffeb'
p518
sg21
Vbl #0xfffd018c
p519
sg5
L769996L
sg6
Nsg23
S'BL'
p520
sg25
S'0xbbfccL'
p521
sg27
Nsba(ibclass
BInstr
p522
(dp523
g2
Nsg17
S'CMP     R0, #0'
p524
sg19
S'000050e3'
p525
sg21
Vcmp r0, #0
p526
sg5
L770000L
sg6
Nsg23
S'CMP'
p527
sg25
S'0xbbfd0L'
p528
sg27
Nsba(ibclass
BInstr
p529
(dp530
g2
Nsg17
S'LDRGE   R3, [ret]'
p531
sg19
S'003095a5'
p532
sg21
Vldrge r3, [r5]
p533
sg5
L770004L
sg6
Nsg23
S'LDR'
p534
sg25
S'0xbbfd4L'
p535
sg27
Nsba(ibclass
BInstr
p536
(dp537
g2
Nsg17
S'LDR     R2, [dh,#0x24]  ; p'
p538
sg19
S'242098e5'
p539
sg21
Vldr r2, [r8, #0x24]
p540
sg5
L770008L
sg6
Nsg23
S'LDR'
p541
sg25
S'0xbbfd8L'
p542
sg27
Nsba(ibclass
BInstr
p543
(dp544
g2
Nsg17
S'ORRGE   R3, R3, #2'
p545
sg19
S'023083a3'
p546
sg21
Vorrge r3, r3, #2
p547
sg5
L770012L
sg6
Nsg23
S'ORR'
p548
sg25
S'0xbbfdcL'
p549
sg27
Nsba(ibclass
BInstr
p550
(dp551
g2
Nsg17
S'STRGE   R3, [ret]'
p552
sg19
S'003085a5'
p553
sg21
Vstrge r3, [r5]
p554
sg5
L770016L
sg6
Nsg23
S'STR'
p555
sg25
S'0xbbfe0L'
p556
sg27
Nsba(ibclass
BInstr
p557
(dp558
g2
Nsg17
S'CMP     R2, #0'
p559
sg19
S'000052e3'
p560
sg21
Vcmp r2, #0
p561
sg5
L770020L
sg6
Nsg23
S'CMP'
p562
sg25
S'0xbbfe4L'
p563
sg27
Nsba(ibclass
BInstr
p564
(dp565
g2
Nsg17
S'BEQ     loc_BC044'
p566
sg19
S'1500000a'
p567
sg21
Vbeq #0x5c
p568
sg5
L770024L
sg6
Nsg23
g96
sg25
S'0xbbfe8L'
p569
sg27
Nsbasg98
(lp570
S'MOV R0, pub_key'
p571
aS'MOV R1, tmp'
p572
aS'BL BN_cmp'
p573
aS'CMP R0, #0'
p574
aS'LDRGE R3, mem'
p575
aS'LDR R2, mem'
p576
aS'ORRGE R3, R3, #2'
p577
aS'STRGE R3, mem'
p578
aS'CMP R2, #0'
p579
aS'BEQ func'
p580
asg111
Nsg5
S'0xbbfc4L'
p581
sg113
(lp582
S'0xbbfb0L'
p583
asg6
Nsg115
(lp584
S'0xbbfecL'
p585
aS'0xbc044L'
p586
asg119
Nsg120
Nsg121
S'239319bf983b9c85b479be2202c650e3'
p587
sg123
S'd2af1d5433140a209593236e7c474f9e'
p588
sg125
(lp589
g506
ag513
ag520
ag527
ag534
ag541
ag548
ag555
ag562
ag96
asg127
Nsba(ibclass
BBasicBlock
p590
(dp591
g12
Nsg13
(lp592
(ibclass
BInstr
p593
(dp594
g2
Nsg17
S'LDR     R3, [dh,#8]     ; m'
p595
sg19
S'083098e5'
p596
sg21
Vldr r3, [r8, #8]
p597
sg5
L770028L
sg6
Nsg23
S'LDR'
p598
sg25
S'0xbbfecL'
p599
sg27
Nsba(ibclass
BInstr
p600
(dp601
g2
Nsg17
S'MOV     R1, pub_key     ; a'
p602
sg19
S'0710a0e1'
p603
sg21
Vmov r1, r7
p604
sg5
L770032L
sg6
Nsg23
S'MOV'
p605
sg25
S'0xbbff0L'
p606
sg27
Nsba(ibclass
BInstr
p607
(dp608
g2
Nsg17
S'MOV     R0, tmp         ; r'
p609
sg19
S'0600a0e1'
p610
sg21
Vmov r0, r6
p611
sg5
L770036L
sg6
Nsg23
S'MOV'
p612
sg25
S'0xbbff4L'
p613
sg27
Nsba(ibclass
BInstr
p614
(dp615
g2
Nsg17
S'STR     ctx, [SP,#0x20+var_20]; ctx'
p616
sg19
S'00408de5'
p617
sg21
Vstr r4, [sp]
p618
sg5
L770040L
sg6
Nsg23
S'STR'
p619
sg25
S'0xbbff8L'
p620
sg27
Nsba(ibclass
BInstr
p621
(dp622
g2
Nsg17
S'BL      BN_mod_exp'
p623
sg19
S'ed3effeb'
p624
sg21
Vbl #0xfffcfbbc
p625
sg5
L770044L
sg6
Nsg23
S'BL'
p626
sg25
S'0xbbffcL'
p627
sg27
Nsba(ibclass
BInstr
p628
(dp629
g2
Nsg17
S'CMP     R0, #0'
p630
sg19
S'000050e3'
p631
sg21
Vcmp r0, #0
p632
sg5
L770048L
sg6
Nsg23
S'CMP'
p633
sg25
S'0xbc000L'
p634
sg27
Nsba(ibclass
BInstr
p635
(dp636
g2
Nsg17
S'BEQ     loc_BBF5C'
p637
sg19
S'd4ffff0a'
p638
sg21
Vbeq #0xffffff58
p639
sg5
L770052L
sg6
Nsg23
g96
sg25
S'0xbc004L'
p640
sg27
Nsbasg98
(lp641
S'LDR R3, mem'
p642
aS'MOV R1, pub_key'
p643
aS'MOV R0, tmp'
p644
aS'STR ctx, mem'
p645
aS'BL BN_mod_exp'
p646
aS'CMP R0, #0'
p647
aS'BEQ func'
p648
asg111
Nsg5
S'0xbbfecL'
p649
sg113
(lp650
S'0xbbfc4L'
p651
asg6
Nsg115
(lp652
S'0xbbf5cL'
p653
aS'0xbc008L'
p654
asg119
Nsg120
Nsg121
S'35159970ef7589b68dd916fa3437d1cd'
p655
sg123
S'79d088912d81a9662b30f602c19baf54'
p656
sg125
(lp657
g598
ag605
ag612
ag619
ag626
ag633
ag96
asg127
Nsba(ibclass
BBasicBlock
p658
(dp659
g12
Nsg13
(lp660
(ibclass
BInstr
p661
(dp662
g2
Nsg17
S'LDR     R3, [tmp,#4]'
p663
sg19
S'043096e5'
p664
sg21
Vldr r3, [r6, #4]
p665
sg5
L770056L
sg6
Nsg23
S'LDR'
p666
sg25
S'0xbc008L'
p667
sg27
Nsba(ibclass
BInstr
p668
(dp669
g2
Nsg17
S'CMP     R3, #1'
p670
sg19
S'010053e3'
p671
sg21
Vcmp r3, #1
p672
sg5
L770060L
sg6
Nsg23
S'CMP'
p673
sg25
S'0xbc00cL'
p674
sg27
Nsba(ibclass
BInstr
p675
(dp676
g2
Nsg17
S'BEQ     loc_BC028'
p677
sg19
S'0400000a'
p678
sg21
Vbeq #0x18
p679
sg5
L770064L
sg6
Nsg23
g96
sg25
S'0xbc010L'
p680
sg27
Nsbasg98
(lp681
S'LDR R3, mem'
p682
aS'CMP R3, #1'
p683
aS'BEQ func'
p684
asg111
Nsg5
S'0xbc008L'
p685
sg113
(lp686
S'0xbbfecL'
p687
asg6
Nsg115
(lp688
S'0xbc014L'
p689
aS'0xbc028L'
p690
asg119
Nsg120
Nsg121
S'fa4df767a85c49648339e2dc5c6807f6'
p691
sg123
S'ce8a49feb8f48932c0a5bd70ca943b14'
p692
sg125
(lp693
g666
ag673
ag96
asg127
Nsba(ibclass
BBasicBlock
p694
(dp695
g12
Nsg13
(lp696
(ibclass
BInstr
p697
(dp698
g2
Nsg17
S'LDR     R3, [ret]'
p699
sg19
S'003095e5'
p700
sg21
Vldr r3, [r5]
p701
sg5
L770068L
sg6
Nsg23
S'LDR'
p702
sg25
S'0xbc014L'
p703
sg27
Nsba(ibclass
BInstr
p704
(dp705
g2
Nsg17
S'MOV     tmp, #1'
p706
sg19
S'0160a0e3'
p707
sg21
Vmov r6, #1
p708
sg5
L770072L
sg6
Nsg23
S'MOV'
p709
sg25
S'0xbc018L'
p710
sg27
Nsba(ibclass
BInstr
p711
(dp712
g2
Nsg17
S'ORR     R3, R3, #4'
p713
sg19
S'043083e3'
p714
sg21
Vorr r3, r3, #4
p715
sg5
L770076L
sg6
Nsg23
S'ORR'
p716
sg25
S'0xbc01cL'
p717
sg27
Nsba(ibclass
BInstr
p718
(dp719
g2
Nsg17
S'STR     R3, [ret]'
p720
sg19
S'003085e5'
p721
sg21
Vstr r3, [r5]
p722
sg5
L770080L
sg6
Nsg23
S'STR'
p723
sg25
S'0xbc020L'
p724
sg27
Nsba(ibclass
BInstr
p725
(dp726
g2
Nsg17
S'B       loc_BBF60'
p727
sg19
S'cdffffea'
p728
sg21
Vb #0xffffff3c
p729
sg5
L770084L
sg6
Nsg23
g96
sg25
S'0xbc024L'
p730
sg27
Nsbasg98
(lp731
S'LDR R3, mem'
p732
aS'MOV tmp, #1'
p733
aS'ORR R3, R3, #4'
p734
aS'STR R3, mem'
p735
aS'B func'
p736
asg111
Nsg5
S'0xbc014L'
p737
sg113
(lp738
S'0xbc008L'
p739
aS'0xbc028L'
p740
aS'0xbc038L'
p741
asg6
Nsg115
(lp742
S'0xbbf60L'
p743
asg119
Nsg120
Nsg121
S'acf9768900bb62ffb1c3e61c9634661b'
p744
sg123
S'74e39bce85e11b7b912be3dd9656b9e5'
p745
sg125
(lp746
g702
ag709
ag716
ag723
ag96
asg127
Nsba(ibclass
BBasicBlock
p747
(dp748
g12
Nsg13
(lp749
(ibclass
BInstr
p750
(dp751
g2
Nsg17
S'LDR     R3, [tmp]'
p752
sg19
S'003096e5'
p753
sg21
Vldr r3, [r6]
p754
sg5
L770088L
sg6
Nsg23
S'LDR'
p755
sg25
S'0xbc028L'
p756
sg27
Nsba(ibclass
BInstr
p757
(dp758
g2
Nsg17
S'LDR     R3, [R3]'
p759
sg19
S'003093e5'
p760
sg21
Vldr r3, [r3]
p761
sg5
L770092L
sg6
Nsg23
S'LDR'
p762
sg25
S'0xbc02cL'
p763
sg27
Nsba(ibclass
BInstr
p764
(dp765
g2
Nsg17
S'CMP     R3, #1'
p766
sg19
S'010053e3'
p767
sg21
Vcmp r3, #1
p768
sg5
L770096L
sg6
Nsg23
S'CMP'
p769
sg25
S'0xbc030L'
p770
sg27
Nsba(ibclass
BInstr
p771
(dp772
g2
Nsg17
S'BNE     loc_BC014'
p773
sg19
S'f6ffff1a'
p774
sg21
Vbne #0xffffffe0
p775
sg5
L770100L
sg6
Nsg23
g96
sg25
S'0xbc034L'
p776
sg27
Nsbasg98
(lp777
S'LDR R3, mem'
p778
aS'LDR R3, mem'
p779
aS'CMP R3, #1'
p780
aS'BNE func'
p781
asg111
Nsg5
S'0xbc028L'
p782
sg113
(lp783
S'0xbc008L'
p784
asg6
Nsg115
(lp785
S'0xbc014L'
p786
aS'0xbc038L'
p787
asg119
Nsg120
Nsg121
S'd9812e74326a7ebe01ae9e2a00bbb5ee'
p788
sg123
S'1896dc58675ee8c5066de9e3675ed5f1'
p789
sg125
(lp790
g755
ag762
ag769
ag96
asg127
Nsba(ibclass
BBasicBlock
p791
(dp792
g12
Nsg13
(lp793
(ibclass
BInstr
p794
(dp795
g2
Nsg17
S'LDR     R3, [tmp,#0xC]'
p796
sg19
S'0c3096e5'
p797
sg21
Vldr r3, [r6, #0xc]
p798
sg5
L770104L
sg6
Nsg23
S'LDR'
p799
sg25
S'0xbc038L'
p800
sg27
Nsba(ibclass
BInstr
p801
(dp802
g2
Nsg17
S'CMP     R3, #0'
p803
sg19
S'000053e3'
p804
sg21
Vcmp r3, #0
p805
sg5
L770108L
sg6
Nsg23
S'CMP'
p806
sg25
S'0xbc03cL'
p807
sg27
Nsba(ibclass
BInstr
p808
(dp809
g2
Nsg17
S'BNE     loc_BC014'
p810
sg19
S'f3ffff1a'
p811
sg21
Vbne #0xffffffd4
p812
sg5
L770112L
sg6
Nsg23
g96
sg25
S'0xbc040L'
p813
sg27
Nsbasg98
(lp814
S'LDR R3, mem'
p815
aS'CMP R3, #0'
p816
aS'BNE func'
p817
asg111
Nsg5
S'0xbc038L'
p818
sg113
(lp819
S'0xbc028L'
p820
asg6
Nsg115
(lp821
S'0xbc014L'
p822
aS'0xbc044L'
p823
asg119
Nsg120
Nsg121
S'fa4df767a85c49648339e2dc5c6807f6'
p824
sg123
S'1bb12c7dd982fd3e3da2842e84d201cf'
p825
sg125
(lp826
g799
ag806
ag96
asg127
Nsba(ibclass
BBasicBlock
p827
(dp828
g12
Nsg13
(lp829
(ibclass
BInstr
p830
(dp831
g2
Nsg17
S'MOV     tmp, #1'
p832
sg19
S'0160a0e3'
p833
sg21
Vmov r6, #1
p834
sg5
L770116L
sg6
Nsg23
S'MOV'
p835
sg25
S'0xbc044L'
p836
sg27
Nsba(ibclass
BInstr
p837
(dp838
g2
Nsg17
S'B       loc_BBF60'
p839
sg19
S'c4ffffea'
p840
sg21
Vb #0xffffff18
p841
sg5
L770120L
sg6
Nsg23
g96
sg25
S'0xbc048L'
p842
sg27
Nsbasg98
(lp843
S'MOV tmp, #1'
p844
aS'B func'
p845
asg111
Nsg5
S'0xbc044L'
p846
sg113
(lp847
S'0xbbfc4L'
p848
aS'0xbc038L'
p849
asg6
Nsg115
(lp850
S'0xbbf60L'
p851
asg119
Nsg120
Nsg121
S'b6c4e95ccfe77a95e4cf2019dd3d5574'
p852
sg123
S'64a124c6c45d4f2b719a8b6dc37089b9'
p853
sg125
(lp854
g835
ag96
asg127
Nsbasb.