(ibclass
BFunc
p0
(dp1
S'hash'
p2
NsS'name'
p3
S'ASN1_item_ex_d2i'
p4
sS'start_address'
p5
L1009924L
sS'flag'
p6
NsS'program'
p7
NsS'bbs'
p8
(lp9
(ibclass
BBasicBlock
p10
(dp11
S'function'
p12
NsS'binstrs'
p13
(lp14
(ibclass
BInstr
p15
(dp16
g2
NsS'disasm'
p17
S'STR     LR, [SP,#var_4]!'
p18
sS'bytes'
p19
S'04e02de5'
p20
sS'disasm_striped'
p21
Vstr lr, [sp, #-4]!
p22
sg5
L1009924L
sg6
NsS'mnem'
p23
S'STR'
p24
sS'address'
p25
S'0xf6904L'
p26
sS'basicblock'
p27
Nsba(ibclass
BInstr
p28
(dp29
g2
Nsg17
S'SUB     SP, SP, #0x1C'
p30
sg19
S'1cd04de2'
p31
sg21
Vsub sp, sp, #0x1c
p32
sg5
L1009928L
sg6
Nsg23
S'SUB'
p33
sg25
S'0xf6908L'
p34
sg27
Nsba(ibclass
BInstr
p35
(dp36
g2
Nsg17
S'LDRB    R12, [SP,#0x20+opt]'
p37
sg19
S'28c0dde5'
p38
sg21
Vldrb ip, [sp, #0x28]
p39
sg5
L1009932L
sg6
Nsg23
S'LDR'
p40
sg25
S'0xf690cL'
p41
sg27
Nsba(ibclass
BInstr
p42
(dp43
g2
Nsg17
S'LDR     LR, [SP,#0x20+tag]'
p44
sg19
S'20e09de5'
p45
sg21
Vldr lr, [sp, #0x20]
p46
sg5
L1009936L
sg6
Nsg23
S'LDR'
p47
sg25
S'0xf6910L'
p48
sg27
Nsba(ibclass
BInstr
p49
(dp50
g2
Nsg17
S'STR     opt_0, [SP,#0x20+var_18]; opt'
p51
sg19
S'08c08de5'
p52
sg21
Vstr ip, [sp, #8]
p53
sg5
L1009940L
sg6
Nsg23
S'STR'
p54
sg25
S'0xf6914L'
p55
sg27
Nsba(ibclass
BInstr
p56
(dp57
g2
Nsg17
S'LDR     opt_0, [SP,#0x20+ctx]'
p58
sg19
S'2cc09de5'
p59
sg21
Vldr ip, [sp, #0x2c]
p60
sg5
L1009944L
sg6
Nsg23
S'LDR'
p61
sg25
S'0xf6918L'
p62
sg27
Nsba(ibclass
BInstr
p63
(dp64
g2
Nsg17
S'STR     LR, [SP,#0x20+var_20]; tag'
p65
sg19
S'00e08de5'
p66
sg21
Vstr lr, [sp]
p67
sg5
L1009948L
sg6
Nsg23
S'STR'
p68
sg25
S'0xf691cL'
p69
sg27
Nsba(ibclass
BInstr
p70
(dp71
g2
Nsg17
S'LDR     LR, [SP,#0x20+aclass]'
p72
sg19
S'24e09de5'
p73
sg21
Vldr lr, [sp, #0x24]
p74
sg5
L1009952L
sg6
Nsg23
S'LDR'
p75
sg25
S'0xf6920L'
p76
sg27
Nsba(ibclass
BInstr
p77
(dp78
g2
Nsg17
S'STR     R12, [SP,#0x20+var_14]; ctx'
p79
sg19
S'0cc08de5'
p80
sg21
Vstr ip, [sp, #0xc]
p81
sg5
L1009956L
sg6
Nsg23
S'STR'
p82
sg25
S'0xf6924L'
p83
sg27
Nsba(ibclass
BInstr
p84
(dp85
g2
Nsg17
S'MOV     R12, #0'
p86
sg19
S'00c0a0e3'
p87
sg21
Vmov ip, #0
p88
sg5
L1009960L
sg6
Nsg23
S'MOV'
p89
sg25
S'0xf6928L'
p90
sg27
Nsba(ibclass
BInstr
p91
(dp92
g2
Nsg17
S'STR     LR, [SP,#0x20+var_1C]; aclass'
p93
sg19
S'04e08de5'
p94
sg21
Vstr lr, [sp, #4]
p95
sg5
L1009964L
sg6
Nsg23
S'STR'
p96
sg25
S'0xf692cL'
p97
sg27
Nsba(ibclass
BInstr
p98
(dp99
g2
Nsg17
S'STR     R12, [SP,#0x20+depth]; depth'
p100
sg19
S'10c08de5'
p101
sg21
Vstr ip, [sp, #0x10]
p102
sg5
L1009968L
sg6
Nsg23
S'STR'
p103
sg25
S'0xf6930L'
p104
sg27
Nsba(ibclass
BInstr
p105
(dp106
g2
Nsg17
S'BL      asn1_item_ex_d2i'
p107
sg19
S'69fbffeb'
p108
sg21
Vbl #0xffffedac
p109
sg5
L1009972L
sg6
Nsg23
S'BL'
p110
sg25
S'0xf6934L'
p111
sg27
Nsba(ibclass
BInstr
p112
(dp113
g2
Nsg17
S'ADD     SP, SP, #0x1C'
p114
sg19
S'1cd08de2'
p115
sg21
Vadd sp, sp, #0x1c
p116
sg5
L1009976L
sg6
Nsg23
S'ADD'
p117
sg25
S'0xf6938L'
p118
sg27
Nsba(ibclass
BInstr
p119
(dp120
g2
Nsg17
S'LDR     LR, [SP+4+var_4],#4'
p121
sg19
S'04e09de4'
p122
sg21
Vpop {lr}
p123
sg5
L1009980L
sg6
Nsg23
S'LDR'
p124
sg25
S'0xf693cL'
p125
sg27
Nsba(ibclass
BInstr
p126
(dp127
g2
Nsg17
S'BX      LR'
p128
sg19
S'1eff2fe1'
p129
sg21
Vbx lr
p130
sg5
L1009984L
sg6
Nsg23
S'BX'
p131
sg25
S'0xf6940L'
p132
sg27
NsbasS'disasm_list'
p133
(lp134
S'STR LR, mem!'
p135
aS'SUB SP, SP, #0x1C'
p136
aS'LDRB R12, mem'
p137
aS'LDR LR, mem'
p138
aS'STR opt_0, mem'
p139
aS'LDR opt_0, mem'
p140
aS'STR LR, mem'
p141
aS'LDR LR, mem'
p142
aS'STR R12, mem'
p143
aS'MOV R12, #0'
p144
aS'STR LR, mem'
p145
aS'STR R12, mem'
p146
aS'BL asn1_item_ex_d2i'
p147
aS'ADD SP, SP, #0x1C'
p148
aS'LDR LR, mem,#4'
p149
aS'BX LR'
p150
asS'end_address'
p151
Nsg5
S'0xf6904L'
p152
sS'preds'
p153
(lp154
sg6
NsS'succs'
p155
(lp156
sS'hash_v3'
p157
NsS'flag_v2'
p158
NsS'hash_v1'
p159
S'940b7575efd140ca852dbbaedccc33a3'
p160
sS'hash_v2'
p161
S'4e333be828ee2132b095559a43517753'
p162
sS'mnen_list'
p163
(lp164
g24
ag33
ag40
ag47
ag54
ag61
ag68
ag75
ag82
ag89
ag96
ag103
ag110
ag117
ag124
ag131
asS'neighbour_disasm_list'
p165
Nsbasb.