(ibclass
BFunc
p0
(dp1
S'hash'
p2
NsS'name'
p3
S'X509_cmp_time'
p4
sS'start_address'
p5
L1099188L
sS'flag'
p6
NsS'program'
p7
NsS'bbs'
p8
(lp9
(ibclass
BBasicBlock
p10
(dp11
S'function'
p12
NsS'binstrs'
p13
(lp14
(ibclass
BInstr
p15
(dp16
g2
NsS'disasm'
p17
S'STMFD   SP!, {R4-R6,LR}'
p18
sS'bytes'
p19
S'70402de9'
p20
sS'disasm_striped'
p21
Vpush {r4, r5, r6, lr}
p22
sg5
L1099188L
sg6
NsS'mnem'
p23
S'STM'
p24
sS'address'
p25
S'0x10c5b4L'
p26
sS'basicblock'
p27
Nsba(ibclass
BInstr
p28
(dp29
g2
Nsg17
S'LDR     R3, [ctm,#4]'
p30
sg19
S'043090e5'
p31
sg21
Vldr r3, [r0, #4]
p32
sg5
L1099192L
sg6
Nsg23
S'LDR'
p33
sg25
S'0x10c5b8L'
p34
sg27
Nsba(ibclass
BInstr
p35
(dp36
g2
Nsg17
S'SUB     SP, SP, #0x10'
p37
sg19
S'10d04de2'
p38
sg21
Vsub sp, sp, #0x10
p39
sg5
L1099196L
sg6
Nsg23
S'SUB'
p40
sg25
S'0x10c5bcL'
p41
sg27
Nsba(ibclass
BInstr
p42
(dp43
g2
Nsg17
S'CMP     R3, #0x17'
p44
sg19
S'170053e3'
p45
sg21
Vcmp r3, #0x17
p46
sg5
L1099200L
sg6
Nsg23
S'CMP'
p47
sg25
S'0x10c5c0L'
p48
sg27
Nsba(ibclass
BInstr
p49
(dp50
g2
Nsg17
S'MOV     R5, ctm'
p51
sg19
S'0050a0e1'
p52
sg21
Vmov r5, r0
p53
sg5
L1099204L
sg6
Nsg23
S'MOV'
p54
sg25
S'0x10c5c4L'
p55
sg27
Nsba(ibclass
BInstr
p56
(dp57
g2
Nsg17
S'BEQ     loc_10C638'
p58
sg19
S'1a00000a'
p59
sg21
Vbeq #0x70
p60
sg5
L1099208L
sg6
Nsg23
S'B'
p61
sg25
S'0x10c5c8L'
p62
sg27
NsbasS'disasm_list'
p63
(lp64
S'STMFD SP!, {R4-R6,LR}'
p65
aS'LDR R3, mem'
p66
aS'SUB SP, SP, #0x10'
p67
aS'CMP R3, #0x17'
p68
aS'MOV R5, ctm'
p69
aS'BEQ func'
p70
asS'end_address'
p71
Nsg5
S'0x10c5b4L'
p72
sS'preds'
p73
(lp74
sg6
NsS'succs'
p75
(lp76
S'0x10c5ccL'
p77
aS'0x10c638L'
p78
asS'hash_v3'
p79
NsS'flag_v2'
p80
NsS'hash_v1'
p81
S'2a4c1cef34ebf0331d0f04c30f4b2c54'
p82
sS'hash_v2'
p83
S'b3d03839e1fb3c1318d3056eb638a8e8'
p84
sS'mnen_list'
p85
(lp86
g24
ag33
ag40
ag47
ag54
ag61
asS'neighbour_disasm_list'
p87
Nsba(ibclass
BBasicBlock
p88
(dp89
g12
Nsg13
(lp90
(ibclass
BInstr
p91
(dp92
g2
Nsg17
S'CMP     R3, #0x18'
p93
sg19
S'180053e3'
p94
sg21
Vcmp r3, #0x18
p95
sg5
L1099212L
sg6
Nsg23
S'CMP'
p96
sg25
S'0x10c5ccL'
p97
sg27
Nsba(ibclass
BInstr
p98
(dp99
g2
Nsg17
S'BEQ     loc_10C5E8'
p100
sg19
S'0400000a'
p101
sg21
Vbeq #0x18
p102
sg5
L1099216L
sg6
Nsg23
g61
sg25
S'0x10c5d0L'
p103
sg27
Nsbasg63
(lp104
S'CMP R3, #0x18'
p105
aS'BEQ func'
p106
asg71
Nsg5
S'0x10c5ccL'
p107
sg73
(lp108
S'0x10c5b4L'
p109
asg6
Nsg75
(lp110
S'0x10c5d4L'
p111
aS'0x10c5e8L'
p112
asg79
Nsg80
Nsg81
S'c78fd620a449e3c979d3f3ec12d4ee88'
p113
sg83
S'e70058404389a092a396f37b6ade450f'
p114
sg85
(lp115
g96
ag61
asg87
Nsba(ibclass
BBasicBlock
p116
(dp117
g12
Nsg13
(lp118
(ibclass
BInstr
p119
(dp120
g2
Nsg17
S'MOV     ctm, #0'
p121
sg19
S'0050a0e3'
p122
sg21
Vmov r5, #0
p123
sg5
L1099220L
sg6
Nsg23
S'MOV'
p124
sg25
S'0x10c5d4L'
p125
sg27
Nsbasg63
(lp126
S'MOV ctm, #0'
p127
asg71
Nsg5
S'0x10c5d4L'
p128
sg73
(lp129
S'0x10c5ccL'
p130
aS'0x10c5e8L'
p131
aS'0x10c634L'
p132
aS'0x10c638L'
p133
aS'0x10c648L'
p134
asg6
Nsg75
(lp135
S'0x10c5d8L'
p136
asg79
Nsg80
Nsg81
S'17b32100aef1fc19670be7fd58bc85df'
p137
sg83
S'97a67d3968e90ff5dbb624c2c2f76979'
p138
sg85
(lp139
g124
asg87
Nsba(ibclass
BBasicBlock
p140
(dp141
g12
Nsg13
(lp142
(ibclass
BInstr
p143
(dp144
g2
Nsg17
S'MOV     ctm, ret'
p145
sg19
S'0500a0e1'
p146
sg21
Vmov r0, r5
p147
sg5
L1099224L
sg6
Nsg23
S'MOV'
p148
sg25
S'0x10c5d8L'
p149
sg27
Nsba(ibclass
BInstr
p150
(dp151
g2
Nsg17
S'ADD     SP, SP, #0x10'
p152
sg19
S'10d08de2'
p153
sg21
Vadd sp, sp, #0x10
p154
sg5
L1099228L
sg6
Nsg23
S'ADD'
p155
sg25
S'0x10c5dcL'
p156
sg27
Nsba(ibclass
BInstr
p157
(dp158
g2
Nsg17
S'LDMFD   SP!, {asn1_cmp_time-R6,LR}'
p159
sg19
S'7040bde8'
p160
sg21
Vpop {r4, r5, r6, lr}
p161
sg5
L1099232L
sg6
Nsg23
S'LDM'
p162
sg25
S'0x10c5e0L'
p163
sg27
Nsba(ibclass
BInstr
p164
(dp165
g2
Nsg17
S'BX      LR'
p166
sg19
S'1eff2fe1'
p167
sg21
Vbx lr
p168
sg5
L1099236L
sg6
Nsg23
S'BX'
p169
sg25
S'0x10c5e4L'
p170
sg27
Nsbasg63
(lp171
S'MOV ctm, ret'
p172
aS'ADD SP, SP, #0x10'
p173
aS'LDMFD SP!, {asn1_cmp_time-R6,LR}'
p174
aS'BX LR'
p175
asg71
Nsg5
S'0x10c5d8L'
p176
sg73
(lp177
S'0x10c5d4L'
p178
aS'0x10c6a8L'
p179
asg6
Nsg75
(lp180
sg79
Nsg80
Nsg81
S'bc984d627a05f387655964404c76526b'
p181
sg83
S'e3f70992c44f60f81c26ef9937a23f7c'
p182
sg85
(lp183
g148
ag155
ag162
ag169
asg87
Nsba(ibclass
BBasicBlock
p184
(dp185
g12
Nsg13
(lp186
(ibclass
BInstr
p187
(dp188
g2
Nsg17
S'LDR     R4, [R0]'
p189
sg19
S'004090e5'
p190
sg21
Vldr r4, [r0]
p191
sg5
L1099240L
sg6
Nsg23
S'LDR'
p192
sg25
S'0x10c5e8L'
p193
sg27
Nsba(ibclass
BInstr
p194
(dp195
g2
Nsg17
S'CMP     R4, #0xF'
p196
sg19
S'0f0054e3'
p197
sg21
Vcmp r4, #0xf
p198
sg5
L1099244L
sg6
Nsg23
S'CMP'
p199
sg25
S'0x10c5ecL'
p200
sg27
Nsba(ibclass
BInstr
p201
(dp202
g2
Nsg17
S'BNE     loc_10C5D4'
p203
sg19
S'f7ffff1a'
p204
sg21
Vbne #0xffffffe4
p205
sg5
L1099248L
sg6
Nsg23
g61
sg25
S'0x10c5f0L'
p206
sg27
Nsbasg63
(lp207
S'LDR R4, mem'
p208
aS'CMP R4, #0xF'
p209
aS'BNE func'
p210
asg71
Nsg5
S'0x10c5e8L'
p211
sg73
(lp212
S'0x10c5ccL'
p213
asg6
Nsg75
(lp214
S'0x10c5d4L'
p215
aS'0x10c5f4L'
p216
asg79
Nsg80
Nsg81
S'fa4df767a85c49648339e2dc5c6807f6'
p217
sg83
S'd55b97e7b54239b7672470e5540868fa'
p218
sg85
(lp219
g192
ag199
ag61
asg87
Nsba(ibclass
BBasicBlock
p220
(dp221
g12
Nsg13
(lp222
(ibclass
BInstr
p223
(dp224
g2
Nsg17
S'STR     cmp_time, [SP,#0x20+day]'
p225
sg19
S'04108de5'
p226
sg21
Vstr r1, [sp, #4]
p227
sg5
L1099252L
sg6
Nsg23
S'STR'
p228
sg25
S'0x10c5f4L'
p229
sg27
Nsba(ibclass
BInstr
p230
(dp231
g2
Nsg17
S'BL      __ctype_b_loc'
p232
sg19
S'86edfceb'
p233
sg21
Vbl #0xfff3b620
p234
sg5
L1099256L
sg6
Nsg23
S'BL'
p235
sg25
S'0x10c5f8L'
p236
sg27
Nsba(ibclass
BInstr
p237
(dp238
g2
Nsg17
S'SUB     R6, R4, #1'
p239
sg19
S'016044e2'
p240
sg21
Vsub r6, r4, #1
p241
sg5
L1099260L
sg6
Nsg23
S'SUB'
p242
sg25
S'0x10c5fcL'
p243
sg27
Nsba(ibclass
BInstr
p244
(dp245
g2
Nsg17
S'LDR     R12, [R0]'
p246
sg19
S'00c090e5'
p247
sg21
Vldr ip, [r0]
p248
sg5
L1099264L
sg6
Nsg23
S'LDR'
p249
sg25
S'0x10c600L'
p250
sg27
Nsba(ibclass
BInstr
p251
(dp252
g2
Nsg17
S'MOV     R3, #0'
p253
sg19
S'0030a0e3'
p254
sg21
Vmov r3, #0
p255
sg5
L1099268L
sg6
Nsg23
S'MOV'
p256
sg25
S'0x10c604L'
p257
sg27
Nsba(ibclass
BInstr
p258
(dp259
g2
Nsg17
S'LDR     R0, [ctm,#8]'
p260
sg19
S'080095e5'
p261
sg21
Vldr r0, [r5, #8]
p262
sg5
L1099272L
sg6
Nsg23
S'LDR'
p263
sg25
S'0x10c608L'
p264
sg27
Nsba(ibclass
BInstr
p265
(dp266
g2
Nsg17
S'LDR     R1, [SP,#0x20+day]'
p267
sg19
S'04109de5'
p268
sg21
Vldr r1, [sp, #4]
p269
sg5
L1099276L
sg6
Nsg23
S'LDR'
p270
sg25
S'0x10c60cL'
p271
sg27
Nsba(ibclass
BInstr
p272
(dp273
g2
Nsg17
S'B       loc_10C61C'
p274
sg19
S'010000ea'
p275
sg21
Vb #0xc
p276
sg5
L1099280L
sg6
Nsg23
g61
sg25
S'0x10c610L'
p277
sg27
Nsbasg63
(lp278
S'STR cmp_time, mem'
p279
aS'BL __ctype_b_loc'
p280
aS'SUB R6, R4, #1'
p281
aS'LDR R12, mem'
p282
aS'MOV R3, #0'
p283
aS'LDR R0, mem'
p284
aS'LDR R1, mem'
p285
aS'B func'
p286
asg71
Nsg5
S'0x10c5f4L'
p287
sg73
(lp288
S'0x10c5e8L'
p289
aS'0x10c644L'
p290
asg6
Nsg75
(lp291
S'0x10c61cL'
p292
asg79
Nsg80
Nsg81
S'f8604bda9a6f429148c1883b117519c3'
p293
sg83
S'66eafac5cf1f74761446fd7dd47eb80d'
p294
sg85
(lp295
g228
ag235
ag242
ag249
ag256
ag263
ag270
ag61
asg87
Nsba(ibclass
BBasicBlock
p296
(dp297
g12
Nsg13
(lp298
(ibclass
BInstr
p299
(dp300
g2
Nsg17
S'CMP     i, R6'
p301
sg19
S'060053e1'
p302
sg21
Vcmp r3, r6
p303
sg5
L1099284L
sg6
Nsg23
S'CMP'
p304
sg25
S'0x10c614L'
p305
sg27
Nsba(ibclass
BInstr
p306
(dp307
g2
Nsg17
S'BGE     loc_10C648'
p308
sg19
S'0a0000aa'
p309
sg21
Vbge #0x30
p310
sg5
L1099288L
sg6
Nsg23
g61
sg25
S'0x10c618L'
p311
sg27
Nsbasg63
(lp312
S'CMP i, R6'
p313
aS'BGE func'
p314
asg71
Nsg5
S'0x10c614L'
p315
sg73
(lp316
S'0x10c61cL'
p317
asg6
Nsg75
(lp318
S'0x10c61cL'
p319
aS'0x10c648L'
p320
asg79
Nsg80
Nsg81
S'c78fd620a449e3c979d3f3ec12d4ee88'
p321
sg83
S'a0cb273442806c6859a0f811a3c1c2c7'
p322
sg85
(lp323
g304
ag61
asg87
Nsba(ibclass
BBasicBlock
p324
(dp325
g12
Nsg13
(lp326
(ibclass
BInstr
p327
(dp328
g2
Nsg17
S'LDRB    R2, [R0,i]'
p329
sg19
S'0320d0e7'
p330
sg21
Vldrb r2, [r0, r3]
p331
sg5
L1099292L
sg6
Nsg23
S'LDR'
p332
sg25
S'0x10c61cL'
p333
sg27
Nsba(ibclass
BInstr
p334
(dp335
g2
Nsg17
S'ADD     i, i, #1'
p336
sg19
S'013083e2'
p337
sg21
Vadd r3, r3, #1
p338
sg5
L1099296L
sg6
Nsg23
S'ADD'
p339
sg25
S'0x10c620L'
p340
sg27
Nsba(ibclass
BInstr
p341
(dp342
g2
Nsg17
S'MOV     R2, R2,LSL#1'
p343
sg19
S'8220a0e1'
p344
sg21
Vlsl r2, r2, #1
p345
sg5
L1099300L
sg6
Nsg23
S'MOV'
p346
sg25
S'0x10c624L'
p347
sg27
Nsba(ibclass
BInstr
p348
(dp349
g2
Nsg17
S'LDRH    R2, [R12,R2]'
p350
sg19
S'b2209ce1'
p351
sg21
Vldrh r2, [ip, r2]
p352
sg5
L1099304L
sg6
Nsg23
S'LDR'
p353
sg25
S'0x10c628L'
p354
sg27
Nsba(ibclass
BInstr
p355
(dp356
g2
Nsg17
S'TST     R2, #0x800'
p357
sg19
S'020b12e3'
p358
sg21
Vtst r2, #0x800
p359
sg5
L1099308L
sg6
Nsg23
S'TST'
p360
sg25
S'0x10c62cL'
p361
sg27
Nsba(ibclass
BInstr
p362
(dp363
g2
Nsg17
S'BNE     loc_10C614'
p364
sg19
S'f7ffff1a'
p365
sg21
Vbne #0xffffffe4
p366
sg5
L1099312L
sg6
Nsg23
g61
sg25
S'0x10c630L'
p367
sg27
Nsbasg63
(lp368
S'LDRB R2, mem'
p369
aS'ADD i, i, #1'
p370
aS'MOV R2, R2,LSL#1'
p371
aS'LDRH R2, mem'
p372
aS'TST R2, #0x800'
p373
aS'BNE func'
p374
asg71
Nsg5
S'0x10c61cL'
p375
sg73
(lp376
S'0x10c5f4L'
p377
aS'0x10c614L'
p378
asg6
Nsg75
(lp379
S'0x10c614L'
p380
aS'0x10c634L'
p381
asg79
Nsg80
Nsg81
S'681c73d345151b451c60b0aeb97341d8'
p382
sg83
S'3aab0dcd1c7ec05a54ad4b132e66094f'
p383
sg85
(lp384
g332
ag339
ag346
ag353
ag360
ag61
asg87
Nsba(ibclass
BBasicBlock
p385
(dp386
g12
Nsg13
(lp387
(ibclass
BInstr
p388
(dp389
g2
Nsg17
S'B       loc_10C5D4'
p390
sg19
S'e6ffffea'
p391
sg21
Vb #0xffffffa0
p392
sg5
L1099316L
sg6
Nsg23
g61
sg25
S'0x10c634L'
p393
sg27
Nsbasg63
(lp394
S'B func'
p395
asg71
Nsg5
S'0x10c634L'
p396
sg73
(lp397
S'0x10c61cL'
p398
asg6
Nsg75
(lp399
S'0x10c5d4L'
p400
asg79
Nsg80
Nsg81
S'9d5ed678fe57bcca610140957afab571'
p401
sg83
S'071b057c420e304c628380fd3541c021'
p402
sg85
(lp403
g61
asg87
Nsba(ibclass
BBasicBlock
p404
(dp405
g12
Nsg13
(lp406
(ibclass
BInstr
p407
(dp408
g2
Nsg17
S'LDR     R4, [R0]'
p409
sg19
S'004090e5'
p410
sg21
Vldr r4, [r0]
p411
sg5
L1099320L
sg6
Nsg23
S'LDR'
p412
sg25
S'0x10c638L'
p413
sg27
Nsba(ibclass
BInstr
p414
(dp415
g2
Nsg17
S'CMP     R4, #0xD'
p416
sg19
S'0d0054e3'
p417
sg21
Vcmp r4, #0xd
p418
sg5
L1099324L
sg6
Nsg23
S'CMP'
p419
sg25
S'0x10c63cL'
p420
sg27
Nsba(ibclass
BInstr
p421
(dp422
g2
Nsg17
S'BNE     loc_10C5D4'
p423
sg19
S'e3ffff1a'
p424
sg21
Vbne #0xffffff94
p425
sg5
L1099328L
sg6
Nsg23
g61
sg25
S'0x10c640L'
p426
sg27
Nsbasg63
(lp427
S'LDR R4, mem'
p428
aS'CMP R4, #0xD'
p429
aS'BNE func'
p430
asg71
Nsg5
S'0x10c638L'
p431
sg73
(lp432
S'0x10c5b4L'
p433
asg6
Nsg75
(lp434
S'0x10c5d4L'
p435
aS'0x10c644L'
p436
asg79
Nsg80
Nsg81
S'fa4df767a85c49648339e2dc5c6807f6'
p437
sg83
S'a7938aaaabb6e3051415fb1a9d437fe3'
p438
sg85
(lp439
g412
ag419
ag61
asg87
Nsba(ibclass
BBasicBlock
p440
(dp441
g12
Nsg13
(lp442
(ibclass
BInstr
p443
(dp444
g2
Nsg17
S'B       loc_10C5F4'
p445
sg19
S'eaffffea'
p446
sg21
Vb #0xffffffb0
p447
sg5
L1099332L
sg6
Nsg23
g61
sg25
S'0x10c644L'
p448
sg27
Nsbasg63
(lp449
S'B func'
p450
asg71
Nsg5
S'0x10c644L'
p451
sg73
(lp452
S'0x10c638L'
p453
asg6
Nsg75
(lp454
S'0x10c5f4L'
p455
asg79
Nsg80
Nsg81
S'9d5ed678fe57bcca610140957afab571'
p456
sg83
S'071b057c420e304c628380fd3541c021'
p457
sg85
(lp458
g61
asg87
Nsba(ibclass
BBasicBlock
p459
(dp460
g12
Nsg13
(lp461
(ibclass
BInstr
p462
(dp463
g2
Nsg17
S'ADD     R0, R0, R4'
p464
sg19
S'040080e0'
p465
sg21
Vadd r0, r0, r4
p466
sg5
L1099336L
sg6
Nsg23
S'ADD'
p467
sg25
S'0x10c648L'
p468
sg27
Nsba(ibclass
BInstr
p469
(dp470
g2
Nsg17
S'LDRB    i, [R0,#-1]'
p471
sg19
S'013050e5'
p472
sg21
Vldrb r3, [r0, #-1]
p473
sg5
L1099340L
sg6
Nsg23
S'LDR'
p474
sg25
S'0x10c64cL'
p475
sg27
Nsba(ibclass
BInstr
p476
(dp477
g2
Nsg17
S'CMP     R3, #0x5A'
p478
sg19
S'5a0053e3'
p479
sg21
Vcmp r3, #0x5a
p480
sg5
L1099344L
sg6
Nsg23
S'CMP'
p481
sg25
S'0x10c650L'
p482
sg27
Nsba(ibclass
BInstr
p483
(dp484
g2
Nsg17
S'BNE     loc_10C5D4'
p485
sg19
S'deffff1a'
p486
sg21
Vbne #0xffffff80
p487
sg5
L1099348L
sg6
Nsg23
g61
sg25
S'0x10c654L'
p488
sg27
Nsbasg63
(lp489
S'ADD R0, R0, R4'
p490
aS'LDRB i, mem'
p491
aS'CMP R3, #0x5A'
p492
aS'BNE func'
p493
asg71
Nsg5
S'0x10c648L'
p494
sg73
(lp495
S'0x10c614L'
p496
asg6
Nsg75
(lp497
S'0x10c5d4L'
p498
aS'0x10c658L'
p499
asg79
Nsg80
Nsg81
S'0ae8aac804af3a318df13a4ace7a8890'
p500
sg83
S'45ac5c2918b7291a4bf464d03e4300f6'
p501
sg85
(lp502
g467
ag474
ag481
ag61
asg87
Nsba(ibclass
BBasicBlock
p503
(dp504
g12
Nsg13
(lp505
(ibclass
BInstr
p506
(dp507
g2
Nsg17
S'MOV     R0, #0          ; s'
p508
sg19
S'0000a0e3'
p509
sg21
Vmov r0, #0
p510
sg5
L1099352L
sg6
Nsg23
S'MOV'
p511
sg25
S'0x10c658L'
p512
sg27
Nsba(ibclass
BInstr
p513
(dp514
g2
Nsg17
S'MOV     R2, R1          ; in_tm'
p515
sg19
S'0120a0e1'
p516
sg21
Vmov r2, r1
p517
sg5
L1099356L
sg6
Nsg23
S'MOV'
p518
sg25
S'0x10c65cL'
p519
sg27
Nsba(ibclass
BInstr
p520
(dp521
g2
Nsg17
S'MOV     cmp_time, R0    ; offset_sec'
p522
sg19
S'0010a0e1'
p523
sg21
Vmov r1, r0
p524
sg5
L1099360L
sg6
Nsg23
S'MOV'
p525
sg25
S'0x10c660L'
p526
sg27
Nsba(ibclass
BInstr
p527
(dp528
g2
Nsg17
S'BL      X509_time_adj'
p529
sg19
S'ccffffeb'
p530
sg21
Vbl #0xffffff38
p531
sg5
L1099364L
sg6
Nsg23
S'BL'
p532
sg25
S'0x10c664L'
p533
sg27
Nsba(ibclass
BInstr
p534
(dp535
g2
Nsg17
S'SUBS    R4, R0, #0'
p536
sg19
S'004050e2'
p537
sg21
Vsubs r4, r0, #0
p538
sg5
L1099368L
sg6
Nsg23
S'SUB'
p539
sg25
S'0x10c668L'
p540
sg27
Nsba(ibclass
BInstr
p541
(dp542
g2
Nsg17
S'BEQ     err'
p543
sg19
S'1000000a'
p544
sg21
Vbeq #0x48
p545
sg5
L1099372L
sg6
Nsg23
g61
sg25
S'0x10c66cL'
p546
sg27
Nsbasg63
(lp547
S'MOV R0, #0'
p548
aS'MOV R2, R1'
p549
aS'MOV cmp_time, R0'
p550
aS'BL X509_time_adj'
p551
aS'SUBS R4, R0, #0'
p552
aS'BEQ err'
p553
asg71
Nsg5
S'0x10c658L'
p554
sg73
(lp555
S'0x10c648L'
p556
asg6
Nsg75
(lp557
S'0x10c670L'
p558
aS'0x10c6b4L'
p559
asg79
Nsg80
Nsg81
S'8fccbbe5ea553ac1dcb819edd403128f'
p560
sg83
S'76dba3bfee74c87cafd9575e8ea55a8e'
p561
sg85
(lp562
g511
ag518
ag525
ag532
ag539
ag61
asg87
Nsba(ibclass
BBasicBlock
p563
(dp564
g12
Nsg13
(lp565
(ibclass
BInstr
p566
(dp567
g2
Nsg17
S'MOV     R2, ctm         ; from'
p568
sg19
S'0520a0e1'
p569
sg21
Vmov r2, r5
p570
sg5
L1099376L
sg6
Nsg23
S'MOV'
p571
sg25
S'0x10c670L'
p572
sg27
Nsba(ibclass
BInstr
p573
(dp574
g2
Nsg17
S'ADD     R0, SP, #0x20+pday; pday'
p575
sg19
S'0c008de2'
p576
sg21
Vadd r0, sp, #0xc
p577
sg5
L1099380L
sg6
Nsg23
S'ADD'
p578
sg25
S'0x10c674L'
p579
sg27
Nsba(ibclass
BInstr
p580
(dp581
g2
Nsg17
S'ADD     R1, SP, #0x20+psec; psec'
p582
sg19
S'08108de2'
p583
sg21
Vadd r1, sp, #8
p584
sg5
L1099384L
sg6
Nsg23
S'ADD'
p585
sg25
S'0x10c678L'
p586
sg27
Nsba(ibclass
BInstr
p587
(dp588
g2
Nsg17
S'MOV     R3, asn1_cmp_time; to'
p589
sg19
S'0430a0e1'
p590
sg21
Vmov r3, r4
p591
sg5
L1099388L
sg6
Nsg23
S'MOV'
p592
sg25
S'0x10c67cL'
p593
sg27
Nsba(ibclass
BInstr
p594
(dp595
g2
Nsg17
S'BL      ASN1_TIME_diff'
p596
sg19
S'8a6dffeb'
p597
sg21
Vbl #0xfffdb630
p598
sg5
L1099392L
sg6
Nsg23
S'BL'
p599
sg25
S'0x10c680L'
p600
sg27
Nsba(ibclass
BInstr
p601
(dp602
g2
Nsg17
S'CMP     R0, #0'
p603
sg19
S'000050e3'
p604
sg21
Vcmp r0, #0
p605
sg5
L1099396L
sg6
Nsg23
S'CMP'
p606
sg25
S'0x10c684L'
p607
sg27
Nsba(ibclass
BInstr
p608
(dp609
g2
Nsg17
S'BEQ     err'
p610
sg19
S'0900000a'
p611
sg21
Vbeq #0x2c
p612
sg5
L1099400L
sg6
Nsg23
g61
sg25
S'0x10c688L'
p613
sg27
Nsbasg63
(lp614
S'MOV R2, ctm'
p615
aS'ADD R0, SP, #0x20+pday'
p616
aS'ADD R1, SP, #0x20+psec'
p617
aS'MOV R3, asn1_cmp_time'
p618
aS'BL ASN1_TIME_regff'
p619
aS'CMP R0, #0'
p620
aS'BEQ err'
p621
asg71
Nsg5
S'0x10c670L'
p622
sg73
(lp623
S'0x10c658L'
p624
asg6
Nsg75
(lp625
S'0x10c68cL'
p626
aS'0x10c6b4L'
p627
asg79
Nsg80
Nsg81
S'239400a0928b3649f8e7d0cc046802de'
p628
sg83
S'c4338bfa83c6378fb22e6108195233fc'
p629
sg85
(lp630
g571
ag578
ag585
ag592
ag599
ag606
ag61
asg87
Nsba(ibclass
BBasicBlock
p631
(dp632
g12
Nsg13
(lp633
(ibclass
BInstr
p634
(dp635
g2
Nsg17
S'LDR     R3, [SP,#0x20+pday]'
p636
sg19
S'0c309de5'
p637
sg21
Vldr r3, [sp, #0xc]
p638
sg5
L1099404L
sg6
Nsg23
S'LDR'
p639
sg25
S'0x10c68cL'
p640
sg27
Nsba(ibclass
BInstr
p641
(dp642
g2
Nsg17
S'CMP     R3, #0'
p643
sg19
S'000053e3'
p644
sg21
Vcmp r3, #0
p645
sg5
L1099408L
sg6
Nsg23
S'CMP'
p646
sg25
S'0x10c690L'
p647
sg27
Nsba(ibclass
BInstr
p648
(dp649
g2
Nsg17
S'BLT     loc_10C6BC'
p650
sg19
S'080000ba'
p651
sg21
Vblt #0x28
p652
sg5
L1099412L
sg6
Nsg23
g61
sg25
S'0x10c694L'
p653
sg27
Nsbasg63
(lp654
S'LDR R3, mem'
p655
aS'CMP R3, #0'
p656
aS'BLT func'
p657
asg71
Nsg5
S'0x10c68cL'
p658
sg73
(lp659
S'0x10c670L'
p660
asg6
Nsg75
(lp661
S'0x10c698L'
p662
aS'0x10c6bcL'
p663
asg79
Nsg80
Nsg81
S'fa4df767a85c49648339e2dc5c6807f6'
p664
sg83
S'724f2494f4faf7272d92e540f4aa7854'
p665
sg85
(lp666
g639
ag646
ag61
asg87
Nsba(ibclass
BBasicBlock
p667
(dp668
g12
Nsg13
(lp669
(ibclass
BInstr
p670
(dp671
g2
Nsg17
S'LDR     day_0, [SP,#0x20+psec]'
p672
sg19
S'08309de5'
p673
sg21
Vldr r3, [sp, #8]
p674
sg5
L1099416L
sg6
Nsg23
S'LDR'
p675
sg25
S'0x10c698L'
p676
sg27
Nsba(ibclass
BInstr
p677
(dp678
g2
Nsg17
S'CMP     R3, #0'
p679
sg19
S'000053e3'
p680
sg21
Vcmp r3, #0
p681
sg5
L1099420L
sg6
Nsg23
S'CMP'
p682
sg25
S'0x10c69cL'
p683
sg27
Nsba(ibclass
BInstr
p684
(dp685
g2
Nsg17
S'MOVGE   ctm, #0xFFFFFFFF'
p686
sg19
S'0050e0a3'
p687
sg21
Vmvnge r5, #0
p688
sg5
L1099424L
sg6
Nsg23
S'MOV'
p689
sg25
S'0x10c6a0L'
p690
sg27
Nsba(ibclass
BInstr
p691
(dp692
g2
Nsg17
S'BLT     loc_10C6BC'
p693
sg19
S'040000ba'
p694
sg21
Vblt #0x18
p695
sg5
L1099428L
sg6
Nsg23
g61
sg25
S'0x10c6a4L'
p696
sg27
Nsbasg63
(lp697
S'LDR day_0, mem'
p698
aS'CMP R3, #0'
p699
aS'MOVGE ctm, #0xFFFFFFFF'
p700
aS'BLT func'
p701
asg71
Nsg5
S'0x10c698L'
p702
sg73
(lp703
S'0x10c68cL'
p704
asg6
Nsg75
(lp705
S'0x10c6a8L'
p706
aS'0x10c6bcL'
p707
asg79
Nsg80
Nsg81
S'f0a84dd7947e5c267432e015f529de0e'
p708
sg83
S'0f79a7089a73369bbf779664b019b5d2'
p709
sg85
(lp710
g675
ag682
ag689
ag61
asg87
Nsba(ibclass
BBasicBlock
p711
(dp712
g12
Nsg13
(lp713
(ibclass
BInstr
p714
(dp715
g2
Nsg17
S'MOV     R0, asn1_cmp_time; a'
p716
sg19
S'0400a0e1'
p717
sg21
Vmov r0, r4
p718
sg5
L1099432L
sg6
Nsg23
S'MOV'
p719
sg25
S'0x10c6a8L'
p720
sg27
Nsba(ibclass
BInstr
p721
(dp722
g2
Nsg17
S'BL      ASN1_TIME_free'
p723
sg19
S'576dffeb'
p724
sg21
Vbl #0xfffdb564
p725
sg5
L1099436L
sg6
Nsg23
S'BL'
p726
sg25
S'0x10c6acL'
p727
sg27
Nsba(ibclass
BInstr
p728
(dp729
g2
Nsg17
S'B       loc_10C5D8'
p730
sg19
S'c8ffffea'
p731
sg21
Vb #0xffffff28
p732
sg5
L1099440L
sg6
Nsg23
g61
sg25
S'0x10c6b0L'
p733
sg27
Nsbasg63
(lp734
S'MOV R0, asn1_cmp_time'
p735
aS'BL ASN1_TIME_free'
p736
aS'B func'
p737
asg71
Nsg5
S'0x10c6a8L'
p738
sg73
(lp739
S'0x10c698L'
p740
aS'0x10c6b4L'
p741
aS'0x10c6bcL'
p742
asg6
Nsg75
(lp743
S'0x10c5d8L'
p744
asg79
Nsg80
Nsg81
S'f3f645dfcfe38b34211b70b425c07bfe'
p745
sg83
S'791811d1ec9a887641a735e8b1ba9b23'
p746
sg85
(lp747
g719
ag726
ag61
asg87
Nsba(ibclass
BBasicBlock
p748
(dp749
g12
Nsg13
(lp750
(ibclass
BInstr
p751
(dp752
g2
Nsg17
S'MOV     ctm, #0'
p753
sg19
S'0050a0e3'
p754
sg21
Vmov r5, #0
p755
sg5
L1099444L
sg6
Nsg23
S'MOV'
p756
sg25
S'0x10c6b4L'
p757
sg27
Nsba(ibclass
BInstr
p758
(dp759
g2
Nsg17
S'B       loc_10C6A8'
p760
sg19
S'faffffea'
p761
sg21
Vb #0xfffffff0
p762
sg5
L1099448L
sg6
Nsg23
g61
sg25
S'0x10c6b8L'
p763
sg27
Nsbasg63
(lp764
S'MOV ctm, #0'
p765
aS'B func'
p766
asg71
Nsg5
S'0x10c6b4L'
p767
sg73
(lp768
S'0x10c658L'
p769
aS'0x10c670L'
p770
asg6
Nsg75
(lp771
S'0x10c6a8L'
p772
asg79
Nsg80
Nsg81
S'b6c4e95ccfe77a95e4cf2019dd3d5574'
p773
sg83
S'5ad08a9348f5cdb57051799808bf033c'
p774
sg85
(lp775
g756
ag61
asg87
Nsba(ibclass
BBasicBlock
p776
(dp777
g12
Nsg13
(lp778
(ibclass
BInstr
p779
(dp780
g2
Nsg17
S'MOV     ret, #1'
p781
sg19
S'0150a0e3'
p782
sg21
Vmov r5, #1
p783
sg5
L1099452L
sg6
Nsg23
S'MOV'
p784
sg25
S'0x10c6bcL'
p785
sg27
Nsba(ibclass
BInstr
p786
(dp787
g2
Nsg17
S'B       loc_10C6A8'
p788
sg19
S'f8ffffea'
p789
sg21
Vb #0xffffffe8
p790
sg5
L1099456L
sg6
Nsg23
g61
sg25
S'0x10c6c0L'
p791
sg27
Nsbasg63
(lp792
S'MOV ret, #1'
p793
aS'B func'
p794
asg71
Nsg5
S'0x10c6bcL'
p795
sg73
(lp796
S'0x10c68cL'
p797
aS'0x10c698L'
p798
asg6
Nsg75
(lp799
S'0x10c6a8L'
p800
asg79
Nsg80
Nsg81
S'b6c4e95ccfe77a95e4cf2019dd3d5574'
p801
sg83
S'b6698a4c20972ff03a6c97064bad6cab'
p802
sg85
(lp803
g784
ag61
asg87
Nsbasb.