(ibclass
BFunc
p0
(dp1
S'hash'
p2
NsS'name'
p3
S'fmtint'
p4
sS'start_address'
p5
L829196L
sS'flag'
p6
NsS'program'
p7
NsS'bbs'
p8
(lp9
(ibclass
BBasicBlock
p10
(dp11
S'function'
p12
NsS'binstrs'
p13
(lp14
(ibclass
BInstr
p15
(dp16
g2
NsS'disasm'
p17
S'STMFD   SP!, {R4-R11,LR}'
p18
sS'bytes'
p19
S'f04f2de9'
p20
sS'disasm_striped'
p21
Vpush {r4, r5, r6, r7, r8, sb, sl, fp, lr}
p22
sg5
L829196L
sg6
NsS'mnem'
p23
S'STM'
p24
sS'address'
p25
S'0xca70cL'
p26
sS'basicblock'
p27
Nsba(ibclass
BInstr
p28
(dp29
g2
Nsg17
S'LDR     R12, =0xC48C8'
p30
sg19
S'14c99fe5'
p31
sg21
Vldr ip, [pc, #0x914]
p32
sg5
L829200L
sg6
Nsg23
S'LDR'
p33
sg25
S'0xca710L'
p34
sg27
Nsba(ibclass
BInstr
p35
(dp36
g2
Nsg17
S'SUB     SP, SP, #0x3C'
p37
sg19
S'3cd04de2'
p38
sg21
Vsub sp, sp, #0x3c
p39
sg5
L829204L
sg6
Nsg23
S'SUB'
p40
sg25
S'0xca714L'
p41
sg27
Nsba(ibclass
BInstr
p42
(dp43
g2
Nsg17
S'STR     R12, [SP,#0x60+var_58]'
p44
sg19
S'08c08de5'
p45
sg21
Vstr ip, [sp, #8]
p46
sg5
L829208L
sg6
Nsg23
S'STR'
p47
sg25
S'0xca718L'
p48
sg27
Nsba(ibclass
BInstr
p49
(dp50
g2
Nsg17
S'LDR     R12, [SP,#0x60+flags]'
p51
sg19
S'70c09de5'
p52
sg21
Vldr ip, [sp, #0x70]
p53
sg5
L829212L
sg6
Nsg23
S'LDR'
p54
sg25
S'0xca71cL'
p55
sg27
Nsba(ibclass
BInstr
p56
(dp57
g2
Nsg17
S'STR     sbuffer, [SP,#0x60+var_4C]'
p58
sg19
S'14008de5'
p59
sg21
Vstr r0, [sp, #0x14]
p60
sg5
L829216L
sg6
Nsg23
S'STR'
p61
sg25
S'0xca720L'
p62
sg27
Nsba(ibclass
BInstr
p63
(dp64
g2
Nsg17
S'TST     R12, #0x40'
p65
sg19
S'40001ce3'
p66
sg21
Vtst ip, #0x40
p67
sg5
L829220L
sg6
Nsg23
S'TST'
p68
sg25
S'0xca724L'
p69
sg27
Nsba(ibclass
BInstr
p70
(dp71
g2
Nsg17
S'LDR     R12, [SP,#0x60+var_58]'
p72
sg19
S'08c09de5'
p73
sg21
Vldr ip, [sp, #8]
p74
sg5
L829224L
sg6
Nsg23
S'LDR'
p75
sg25
S'0xca728L'
p76
sg27
Nsba(ibclass
BInstr
p77
(dp78
g2
Nsg17
S'MOV     R6, buffer'
p79
sg19
S'0160a0e1'
p80
sg21
Vmov r6, r1
p81
sg5
L829228L
sg6
Nsg23
S'MOV'
p82
sg25
S'0xca72cL'
p83
sg27
Nsba(ibclass
BInstr
p84
(dp85
g2
Nsg17
S'ADD     R12, PC, R12'
p86
sg19
S'0cc08fe0'
p87
sg21
Vadd ip, pc, ip
p88
sg5
L829232L
sg6
Nsg23
S'ADD'
p89
sg25
S'0xca730L'
p90
sg27
Nsba(ibclass
BInstr
p91
(dp92
g2
Nsg17
S'STR     R12, [SP,#0x60+var_58]'
p93
sg19
S'08c08de5'
p94
sg21
Vstr ip, [sp, #8]
p95
sg5
L829236L
sg6
Nsg23
S'STR'
p96
sg25
S'0xca734L'
p97
sg27
Nsba(ibclass
BInstr
p98
(dp99
g2
Nsg17
S'LDR     R12, [SP,#0x60+max]'
p100
sg19
S'6cc09de5'
p101
sg21
Vldr ip, [sp, #0x6c]
p102
sg5
L829240L
sg6
Nsg23
S'LDR'
p103
sg25
S'0xca738L'
p104
sg27
Nsba(ibclass
BInstr
p105
(dp106
g2
Nsg17
S'MOV     R8, currlen'
p107
sg19
S'0280a0e1'
p108
sg21
Vmov r8, r2
p109
sg5
L829244L
sg6
Nsg23
S'MOV'
p110
sg25
S'0xca73cL'
p111
sg27
Nsba(ibclass
BInstr
p112
(dp113
g2
Nsg17
S'BIC     R12, R12, R12,ASR#31'
p114
sg19
S'cccfcce1'
p115
sg21
Vbic ip, ip, ip, asr #31
p116
sg5
L829248L
sg6
Nsg23
S'BIC'
p117
sg25
S'0xca740L'
p118
sg27
Nsba(ibclass
BInstr
p119
(dp120
g2
Nsg17
S'MOV     R7, maxlen'
p121
sg19
S'0370a0e1'
p122
sg21
Vmov r7, r3
p123
sg5
L829252L
sg6
Nsg23
S'MOV'
p124
sg25
S'0xca744L'
p125
sg27
Nsba(ibclass
BInstr
p126
(dp127
g2
Nsg17
S'STR     R12, [SP,#0x60+var_54]'
p128
sg19
S'0cc08de5'
p129
sg21
Vstr ip, [sp, #0xc]
p130
sg5
L829256L
sg6
Nsg23
S'STR'
p131
sg25
S'0xca748L'
p132
sg27
Nsba(ibclass
BInstr
p133
(dp134
g2
Nsg17
S'LDR     R11, [SP,#0x60+max_0]'
p135
sg19
S'64b09de5'
p136
sg21
Vldr fp, [sp, #0x64]
p137
sg5
L829260L
sg6
Nsg23
S'LDR'
p138
sg25
S'0xca74cL'
p139
sg27
Nsba(ibclass
BInstr
p140
(dp141
g2
Nsg17
S'LDR     R9, [SP,#0x60+min_0]'
p142
sg19
S'60909de5'
p143
sg21
Vldr sb, [sp, #0x60]
p144
sg5
L829264L
sg6
Nsg23
S'LDR'
p145
sg25
S'0xca750L'
p146
sg27
Nsba(ibclass
BInstr
p147
(dp148
g2
Nsg17
S'BNE     loc_CA788'
p149
sg19
S'0b00001a'
p150
sg21
Vbne #0x34
p151
sg5
L829268L
sg6
Nsg23
S'B'
p152
sg25
S'0xca754L'
p153
sg27
NsbasS'disasm_list'
p154
(lp155
S'STMFD SP!, {R4-R11,LR}'
p156
aS'LDR R12, =0xC48C8'
p157
aS'SUB SP, SP, #0x3C'
p158
aS'STR R12, mem'
p159
aS'LDR R12, mem'
p160
aS'STR sbuffer, mem'
p161
aS'TST R12, #0x40'
p162
aS'LDR R12, mem'
p163
aS'MOV R6, buffer'
p164
aS'ADD R12, PC, R12'
p165
aS'STR R12, mem'
p166
aS'LDR R12, mem'
p167
aS'MOV R8, currlen'
p168
aS'BIC R12, R12, R12,ASR#31'
p169
aS'MOV R7, mreglen'
p170
aS'STR R12, mem'
p171
aS'LDR R11, mem'
p172
aS'LDR R9, mem'
p173
aS'BNE func'
p174
asS'end_address'
p175
Nsg5
S'0xca70cL'
p176
sS'preds'
p177
(lp178
sg6
NsS'succs'
p179
(lp180
S'0xca758L'
p181
aS'0xca788L'
p182
asS'hash_v3'
p183
NsS'flag_v2'
p184
NsS'hash_v1'
p185
S'ad5db7614f70b18a7d3a6bf96cf9ded2'
p186
sS'hash_v2'
p187
S'a3a6ab362c0928fb13ff9e233d3c9536'
p188
sS'mnen_list'
p189
(lp190
g24
ag33
ag40
ag47
ag54
ag61
ag68
ag75
ag82
ag89
ag96
ag103
ag110
ag117
ag124
ag131
ag138
ag145
ag152
asS'neighbour_disasm_list'
p191
Nsba(ibclass
BBasicBlock
p192
(dp193
g12
Nsg13
(lp194
(ibclass
BInstr
p195
(dp196
g2
Nsg17
S'CMP     uvalue, #0'
p197
sg19
S'000059e3'
p198
sg21
Vcmp sb, #0
p199
sg5
L829272L
sg6
Nsg23
S'CMP'
p200
sg25
S'0xca758L'
p201
sg27
Nsba(ibclass
BInstr
p202
(dp203
g2
Nsg17
S'BLT     loc_CAC4C'
p204
sg19
S'3a0100ba'
p205
sg21
Vblt #0x4f0
p206
sg5
L829276L
sg6
Nsg23
g152
sg25
S'0xca75cL'
p207
sg27
Nsbasg154
(lp208
S'CMP uvregue, #0'
p209
aS'BLT func'
p210
asg175
Nsg5
S'0xca758L'
p211
sg177
(lp212
S'0xca70cL'
p213
asg6
Nsg179
(lp214
S'0xca760L'
p215
aS'0xcac4cL'
p216
asg183
Nsg184
Nsg185
S'c78fd620a449e3c979d3f3ec12d4ee88'
p217
sg187
S'a388cde0e49f86463819eafbc45984ed'
p218
sg189
(lp219
g200
ag152
asg191
Nsba(ibclass
BBasicBlock
p220
(dp221
g12
Nsg13
(lp222
(ibclass
BInstr
p223
(dp224
g2
Nsg17
S'LDR     R2, [SP,#0x60+flags]'
p225
sg19
S'70209de5'
p226
sg21
Vldr r2, [sp, #0x70]
p227
sg5
L829280L
sg6
Nsg23
S'LDR'
p228
sg25
S'0xca760L'
p229
sg27
Nsba(ibclass
BInstr
p230
(dp231
g2
Nsg17
S'TST     R2, #2'
p232
sg19
S'020012e3'
p233
sg21
Vtst r2, #2
p234
sg5
L829284L
sg6
Nsg23
S'TST'
p235
sg25
S'0xca764L'
p236
sg27
Nsba(ibclass
BInstr
p237
(dp238
g2
Nsg17
S'BNE     loc_CABDC'
p239
sg19
S'1b01001a'
p240
sg21
Vbne #0x474
p241
sg5
L829288L
sg6
Nsg23
g152
sg25
S'0xca768L'
p242
sg27
Nsbasg154
(lp243
S'LDR R2, mem'
p244
aS'TST R2, #2'
p245
aS'BNE func'
p246
asg175
Nsg5
S'0xca760L'
p247
sg177
(lp248
S'0xca758L'
p249
asg6
Nsg179
(lp250
S'0xca76cL'
p251
aS'0xcabdcL'
p252
asg183
Nsg184
Nsg185
S'dd777ef652da0507ba65ee39c3cb079f'
p253
sg187
S'ab7ae40f2df80c82d70ca55831065060'
p254
sg189
(lp255
g228
ag235
ag152
asg191
Nsba(ibclass
BBasicBlock
p256
(dp257
g12
Nsg13
(lp258
(ibclass
BInstr
p259
(dp260
g2
Nsg17
S'TST     R2, #4'
p261
sg19
S'040012e3'
p262
sg21
Vtst r2, #4
p263
sg5
L829292L
sg6
Nsg23
S'TST'
p264
sg25
S'0xca76cL'
p265
sg27
Nsba(ibclass
BInstr
p266
(dp267
g2
Nsg17
S'BEQ     loc_CA788'
p268
sg19
S'0400000a'
p269
sg21
Vbeq #0x18
p270
sg5
L829296L
sg6
Nsg23
g152
sg25
S'0xca770L'
p271
sg27
Nsbasg154
(lp272
S'TST R2, #4'
p273
aS'BEQ func'
p274
asg175
Nsg5
S'0xca76cL'
p275
sg177
(lp276
S'0xca760L'
p277
asg6
Nsg179
(lp278
S'0xca774L'
p279
aS'0xca788L'
p280
asg183
Nsg184
Nsg185
S'fb2fb5c9c8b413efe0bf449ec730a69b'
p281
sg187
S'c3a67cec73d63a1d2b18c9091a1ad439'
p282
sg189
(lp283
g264
ag152
asg191
Nsba(ibclass
BBasicBlock
p284
(dp285
g12
Nsg13
(lp286
(ibclass
BInstr
p287
(dp288
g2
Nsg17
S'MOV     R1, #1'
p289
sg19
S'0110a0e3'
p290
sg21
Vmov r1, #1
p291
sg5
L829300L
sg6
Nsg23
S'MOV'
p292
sg25
S'0xca774L'
p293
sg27
Nsba(ibclass
BInstr
p294
(dp295
g2
Nsg17
S'MOV     R2, #0x20'
p296
sg19
S'2020a0e3'
p297
sg21
Vmov r2, #0x20
p298
sg5
L829304L
sg6
Nsg23
S'MOV'
p299
sg25
S'0xca778L'
p300
sg27
Nsba(ibclass
BInstr
p301
(dp302
g2
Nsg17
S'STR     R1, [SP,#0x60+var_50]'
p303
sg19
S'10108de5'
p304
sg21
Vstr r1, [sp, #0x10]
p305
sg5
L829308L
sg6
Nsg23
S'STR'
p306
sg25
S'0xca77cL'
p307
sg27
Nsba(ibclass
BInstr
p308
(dp309
g2
Nsg17
S'STR     R2, [SP,#0x60+var_3C]'
p310
sg19
S'24208de5'
p311
sg21
Vstr r2, [sp, #0x24]
p312
sg5
L829312L
sg6
Nsg23
S'STR'
p313
sg25
S'0xca780L'
p314
sg27
Nsba(ibclass
BInstr
p315
(dp316
g2
Nsg17
S'B       loc_CA794'
p317
sg19
S'020000ea'
p318
sg21
Vb #0x10
p319
sg5
L829316L
sg6
Nsg23
g152
sg25
S'0xca784L'
p320
sg27
Nsbasg154
(lp321
S'MOV R1, #1'
p322
aS'MOV R2, #0x20'
p323
aS'STR R1, mem'
p324
aS'STR R2, mem'
p325
aS'B func'
p326
asg175
Nsg5
S'0xca774L'
p327
sg177
(lp328
S'0xca76cL'
p329
asg6
Nsg179
(lp330
S'0xca794L'
p331
asg183
Nsg184
Nsg185
S'0f1d387745181cdfb6c8466268862fa4'
p332
sg187
S'6b6179e551ddc8c9bc13f42307a495fc'
p333
sg189
(lp334
g292
ag299
ag306
ag313
ag152
asg191
Nsba(ibclass
BBasicBlock
p335
(dp336
g12
Nsg13
(lp337
(ibclass
BInstr
p338
(dp339
g2
Nsg17
S'MOV     R3, #0'
p340
sg19
S'0030a0e3'
p341
sg21
Vmov r3, #0
p342
sg5
L829320L
sg6
Nsg23
S'MOV'
p343
sg25
S'0xca788L'
p344
sg27
Nsba(ibclass
BInstr
p345
(dp346
g2
Nsg17
S'STR     R3, [SP,#0x60+var_50]'
p347
sg19
S'10308de5'
p348
sg21
Vstr r3, [sp, #0x10]
p349
sg5
L829324L
sg6
Nsg23
S'STR'
p350
sg25
S'0xca78cL'
p351
sg27
Nsba(ibclass
BInstr
p352
(dp353
g2
Nsg17
S'STR     R3, [SP,#0x60+var_3C]'
p354
sg19
S'24308de5'
p355
sg21
Vstr r3, [sp, #0x24]
p356
sg5
L829328L
sg6
Nsg23
S'STR'
p357
sg25
S'0xca790L'
p358
sg27
Nsbasg154
(lp359
S'MOV R3, #0'
p360
aS'STR R3, mem'
p361
aS'STR R3, mem'
p362
asg175
Nsg5
S'0xca788L'
p363
sg177
(lp364
S'0xca70cL'
p365
aS'0xca76cL'
p366
asg6
Nsg179
(lp367
S'0xca794L'
p368
asg183
Nsg184
Nsg185
S'4bb8b3a5646c553dbd6b1b54422704dd'
p369
sg187
S'00f4325cb5b7133deaddcc6b944d20fc'
p370
sg189
(lp371
g343
ag350
ag357
asg191
Nsba(ibclass
BBasicBlock
p372
(dp373
g12
Nsg13
(lp374
(ibclass
BInstr
p375
(dp376
g2
Nsg17
S'LDR     R12, [SP,#0x60+flags]'
p377
sg19
S'70c09de5'
p378
sg21
Vldr ip, [sp, #0x70]
p379
sg5
L829332L
sg6
Nsg23
S'LDR'
p380
sg25
S'0xca794L'
p381
sg27
Nsba(ibclass
BInstr
p382
(dp383
g2
Nsg17
S'ANDS    R5, R12, #8'
p384
sg19
S'08501ce2'
p385
sg21
Vands r5, ip, #8
p386
sg5
L829336L
sg6
Nsg23
S'AND'
p387
sg25
S'0xca798L'
p388
sg27
Nsba(ibclass
BInstr
p389
(dp390
g2
Nsg17
S'BNE     loc_CAAA8'
p391
sg19
S'c100001a'
p392
sg21
Vbne #0x30c
p393
sg5
L829340L
sg6
Nsg23
g152
sg25
S'0xca79cL'
p394
sg27
Nsbasg154
(lp395
S'LDR R12, mem'
p396
aS'ANDS R5, R12, #8'
p397
aS'BNE func'
p398
asg175
Nsg5
S'0xca794L'
p399
sg177
(lp400
S'0xca774L'
p401
aS'0xca788L'
p402
aS'0xcabdcL'
p403
aS'0xcac4cL'
p404
asg6
Nsg179
(lp405
S'0xca7a0L'
p406
aS'0xcaaa8L'
p407
asg183
Nsg184
Nsg185
S'a49988e3e623a5804c3c74b8f032fe79'
p408
sg187
S'693cc8471028b6a8ea044c7c5aa79101'
p409
sg189
(lp410
g380
ag387
ag152
asg191
Nsba(ibclass
BBasicBlock
p411
(dp412
g12
Nsg13
(lp413
(ibclass
BInstr
p414
(dp415
g2
Nsg17
S'LDR     R3, =0xFFFE0374'
p416
sg19
S'88389fe5'
p417
sg21
Vldr r3, [pc, #0x888]
p418
sg5
L829344L
sg6
Nsg23
S'LDR'
p419
sg25
S'0xca7a0L'
p420
sg27
Nsba(ibclass
BInstr
p421
(dp422
g2
Nsg17
S'LDR     sbuffer, [SP,#0x60+var_58]'
p423
sg19
S'08009de5'
p424
sg21
Vldr r0, [sp, #8]
p425
sg5
L829348L
sg6
Nsg23
S'LDR'
p426
sg25
S'0xca7a4L'
p427
sg27
Nsba(ibclass
BInstr
p428
(dp429
g2
Nsg17
S'STR     R5, [SP,#0x60+var_44]'
p430
sg19
S'1c508de5'
p431
sg21
Vstr r5, [sp, #0x1c]
p432
sg5
L829352L
sg6
Nsg23
S'STR'
p433
sg25
S'0xca7a8L'
p434
sg27
Nsba(ibclass
BInstr
p435
(dp436
g2
Nsg17
S'ADD     R3, R0, R3'
p437
sg19
S'033080e0'
p438
sg21
Vadd r3, r0, r3
p439
sg5
L829356L
sg6
Nsg23
S'ADD'
p440
sg25
S'0xca7acL'
p441
sg27
Nsba(ibclass
BInstr
p442
(dp443
g2
Nsg17
S'STR     R3, [SP,#0x60+var_48]'
p444
sg19
S'18308de5'
p445
sg21
Vstr r3, [sp, #0x18]
p446
sg5
L829360L
sg6
Nsg23
S'STR'
p447
sg25
S'0xca7b0L'
p448
sg27
Nsbasg154
(lp449
S'LDR R3, =0xFFFE0374'
p450
aS'LDR sbuffer, mem'
p451
aS'STR R5, mem'
p452
aS'ADD R3, R0, R3'
p453
aS'STR R3, mem'
p454
asg175
Nsg5
S'0xca7a0L'
p455
sg177
(lp456
S'0xca794L'
p457
asg6
Nsg179
(lp458
S'0xca7b4L'
p459
asg183
Nsg184
Nsg185
S'0f8ba222cd7d414e0c3106e3b4d24faf'
p460
sg187
S'801ec3446b81dfcc8b626dabdfa5fcce'
p461
sg189
(lp462
g419
ag426
ag433
ag440
ag447
asg191
Nsba(ibclass
BBasicBlock
p463
(dp464
g12
Nsg13
(lp465
(ibclass
BInstr
p466
(dp467
g2
Nsg17
S'LDR     R1, [SP,#0x60+flags]'
p468
sg19
S'70109de5'
p469
sg21
Vldr r1, [sp, #0x70]
p470
sg5
L829364L
sg6
Nsg23
S'LDR'
p471
sg25
S'0xca7b4L'
p472
sg27
Nsba(ibclass
BInstr
p473
(dp474
g2
Nsg17
S'ANDS    R4, R1, #0x20'
p475
sg19
S'204011e2'
p476
sg21
Vands r4, r1, #0x20
p477
sg5
L829368L
sg6
Nsg23
S'AND'
p478
sg25
S'0xca7b8L'
p479
sg27
Nsba(ibclass
BInstr
p480
(dp481
g2
Nsg17
S'BNE     loc_CAA3C'
p482
sg19
S'9e00001a'
p483
sg21
Vbne #0x280
p484
sg5
L829372L
sg6
Nsg23
g152
sg25
S'0xca7bcL'
p485
sg27
Nsbasg154
(lp486
S'LDR R1, mem'
p487
aS'ANDS R4, R1, #0x20'
p488
aS'BNE func'
p489
asg175
Nsg5
S'0xca7b4L'
p490
sg177
(lp491
S'0xca7a0L'
p492
aS'0xcaaccL'
p493
aS'0xcad48L'
p494
asg6
Nsg179
(lp495
S'0xca7c0L'
p496
aS'0xcaa3cL'
p497
asg183
Nsg184
Nsg185
S'a49988e3e623a5804c3c74b8f032fe79'
p498
sg187
S'20a6abce552eb7ca31fa16ceeec14de9'
p499
sg189
(lp500
g471
ag478
ag152
asg191
Nsba(ibclass
BBasicBlock
p501
(dp502
g12
Nsg13
(lp503
(ibclass
BInstr
p504
(dp505
g2
Nsg17
S'LDR     R3, =0xFFFDD458'
p506
sg19
S'6c389fe5'
p507
sg21
Vldr r3, [pc, #0x86c]
p508
sg5
L829376L
sg6
Nsg23
S'LDR'
p509
sg25
S'0xca7c0L'
p510
sg27
Nsba(ibclass
BInstr
p511
(dp512
g2
Nsg17
S'LDR     R2, [SP,#0x60+var_58]'
p513
sg19
S'08209de5'
p514
sg21
Vldr r2, [sp, #8]
p515
sg5
L829380L
sg6
Nsg23
S'LDR'
p516
sg25
S'0xca7c4L'
p517
sg27
Nsba(ibclass
BInstr
p518
(dp519
g2
Nsg17
S'STR     buffer, [SP,#0x60+var_40]'
p520
sg19
S'20608de5'
p521
sg21
Vstr r6, [sp, #0x20]
p522
sg5
L829384L
sg6
Nsg23
S'STR'
p523
sg25
S'0xca7c8L'
p524
sg27
Nsba(ibclass
BInstr
p525
(dp526
g2
Nsg17
S'ADD     R3, R2, R3'
p527
sg19
S'033082e0'
p528
sg21
Vadd r3, r2, r3
p529
sg5
L829388L
sg6
Nsg23
S'ADD'
p530
sg25
S'0xca7ccL'
p531
sg27
Nsba(ibclass
BInstr
p532
(dp533
g2
Nsg17
S'ADD     R10, SP, #0x60+convert'
p534
sg19
S'28a08de2'
p535
sg21
Vadd sl, sp, #0x28
p536
sg5
L829392L
sg6
Nsg23
S'ADD'
p537
sg25
S'0xca7d0L'
p538
sg27
Nsba(ibclass
BInstr
p539
(dp540
g2
Nsg17
S'MOV     buffer, R3'
p541
sg19
S'0360a0e1'
p542
sg21
Vmov r6, r3
p543
sg5
L829396L
sg6
Nsg23
S'MOV'
p544
sg25
S'0xca7d4L'
p545
sg27
Nsba(ibclass
BInstr
p546
(dp547
g2
Nsg17
S'B       loc_CA7E0'
p548
sg19
S'000000ea'
p549
sg21
Vb #8
p550
sg5
L829400L
sg6
Nsg23
g152
sg25
S'0xca7d8L'
p551
sg27
Nsbasg154
(lp552
S'LDR R3, =0xFFFDD458'
p553
aS'LDR R2, mem'
p554
aS'STR buffer, mem'
p555
aS'ADD R3, R2, R3'
p556
aS'ADD R10, SP, #0x60+convert'
p557
aS'MOV buffer, R3'
p558
aS'B func'
p559
asg175
Nsg5
S'0xca7c0L'
p560
sg177
(lp561
S'0xca7b4L'
p562
asg6
Nsg179
(lp563
S'0xca7e0L'
p564
asg183
Nsg184
Nsg185
S'10050d1214964090a949a76aa894e0f0'
p565
sg187
S'a06f0636aa4836e7b1c811023075dd6b'
p566
sg189
(lp567
g509
ag516
ag523
ag530
ag537
ag544
ag152
asg191
Nsba(ibclass
BBasicBlock
p568
(dp569
g12
Nsg13
(lp570
(ibclass
BInstr
p571
(dp572
g2
Nsg17
S'MOV     R4, place'
p573
sg19
S'0540a0e1'
p574
sg21
Vmov r4, r5
p575
sg5
L829404L
sg6
Nsg23
S'MOV'
p576
sg25
S'0xca7dcL'
p577
sg27
Nsbasg154
(lp578
S'MOV R4, place'
p579
asg175
Nsg5
S'0xca7dcL'
p580
sg177
(lp581
S'0xca7e0L'
p582
asg6
Nsg179
(lp583
S'0xca7e0L'
p584
asg183
Nsg184
Nsg185
S'17b32100aef1fc19670be7fd58bc85df'
p585
sg187
S'edbfd0bce6c6bf5dd57f6e4c1f147182'
p586
sg189
(lp587
g576
asg191
Nsba(ibclass
BBasicBlock
p588
(dp589
g12
Nsg13
(lp590
(ibclass
BInstr
p591
(dp592
g2
Nsg17
S'MOV     sbuffer, uvalue'
p593
sg19
S'0900a0e1'
p594
sg21
Vmov r0, sb
p595
sg5
L829408L
sg6
Nsg23
S'MOV'
p596
sg25
S'0xca7e0L'
p597
sg27
Nsba(ibclass
BInstr
p598
(dp599
g2
Nsg17
S'MOV     R1, base_0'
p600
sg19
S'0b10a0e1'
p601
sg21
Vmov r1, fp
p602
sg5
L829412L
sg6
Nsg23
S'MOV'
p603
sg25
S'0xca7e4L'
p604
sg27
Nsba(ibclass
BInstr
p605
(dp606
g2
Nsg17
S'BL      __aeabi_uidivmod'
p607
sg19
S'01f901eb'
p608
sg21
Vbl #0x7e40c
p609
sg5
L829416L
sg6
Nsg23
S'BL'
p610
sg25
S'0xca7e8L'
p611
sg27
Nsba(ibclass
BInstr
p612
(dp613
g2
Nsg17
S'LDRB    R3, [R6,R1]'
p614
sg19
S'0130d6e7'
p615
sg21
Vldrb r3, [r6, r1]
p616
sg5
L829420L
sg6
Nsg23
S'LDR'
p617
sg25
S'0xca7ecL'
p618
sg27
Nsba(ibclass
BInstr
p619
(dp620
g2
Nsg17
S'MOV     R0, uvalue'
p621
sg19
S'0900a0e1'
p622
sg21
Vmov r0, sb
p623
sg5
L829424L
sg6
Nsg23
S'MOV'
p624
sg25
S'0xca7f0L'
p625
sg27
Nsba(ibclass
BInstr
p626
(dp627
g2
Nsg17
S'STRB    R3, [R10,place]'
p628
sg19
S'0430cae7'
p629
sg21
Vstrb r3, [sl, r4]
p630
sg5
L829428L
sg6
Nsg23
S'STR'
p631
sg25
S'0xca7f4L'
p632
sg27
Nsba(ibclass
BInstr
p633
(dp634
g2
Nsg17
S'MOV     R1, base_0'
p635
sg19
S'0b10a0e1'
p636
sg21
Vmov r1, fp
p637
sg5
L829432L
sg6
Nsg23
S'MOV'
p638
sg25
S'0xca7f8L'
p639
sg27
Nsba(ibclass
BInstr
p640
(dp641
g2
Nsg17
S'BL      __udivsi3'
p642
sg19
S'bdf801eb'
p643
sg21
Vbl #0x7e2fc
p644
sg5
L829436L
sg6
Nsg23
S'BL'
p645
sg25
S'0xca7fcL'
p646
sg27
Nsba(ibclass
BInstr
p647
(dp648
g2
Nsg17
S'ADD     R5, place, #1'
p649
sg19
S'015084e2'
p650
sg21
Vadd r5, r4, #1
p651
sg5
L829440L
sg6
Nsg23
S'ADD'
p652
sg25
S'0xca800L'
p653
sg27
Nsba(ibclass
BInstr
p654
(dp655
g2
Nsg17
S'SUBS    R3, R0, #0'
p656
sg19
S'003050e2'
p657
sg21
Vsubs r3, r0, #0
p658
sg5
L829444L
sg6
Nsg23
S'SUB'
p659
sg25
S'0xca804L'
p660
sg27
Nsba(ibclass
BInstr
p661
(dp662
g2
Nsg17
S'MOVNE   R3, #1'
p663
sg19
S'0130a013'
p664
sg21
Vmovne r3, #1
p665
sg5
L829448L
sg6
Nsg23
S'MOV'
p666
sg25
S'0xca808L'
p667
sg27
Nsba(ibclass
BInstr
p668
(dp669
g2
Nsg17
S'CMP     place, #0xE'
p670
sg19
S'0e0055e3'
p671
sg21
Vcmp r5, #0xe
p672
sg5
L829452L
sg6
Nsg23
S'CMP'
p673
sg25
S'0xca80cL'
p674
sg27
Nsba(ibclass
BInstr
p675
(dp676
g2
Nsg17
S'MOVGT   R3, #0'
p677
sg19
S'0030a0c3'
p678
sg21
Vmovgt r3, #0
p679
sg5
L829456L
sg6
Nsg23
S'MOV'
p680
sg25
S'0xca810L'
p681
sg27
Nsba(ibclass
BInstr
p682
(dp683
g2
Nsg17
S'CMP     R3, #0'
p684
sg19
S'000053e3'
p685
sg21
Vcmp r3, #0
p686
sg5
L829460L
sg6
Nsg23
S'CMP'
p687
sg25
S'0xca814L'
p688
sg27
Nsba(ibclass
BInstr
p689
(dp690
g2
Nsg17
S'MOV     uvalue, R0'
p691
sg19
S'0090a0e1'
p692
sg21
Vmov sb, r0
p693
sg5
L829464L
sg6
Nsg23
S'MOV'
p694
sg25
S'0xca818L'
p695
sg27
Nsba(ibclass
BInstr
p696
(dp697
g2
Nsg17
S'BNE     loc_CA7DC'
p698
sg19
S'eeffff1a'
p699
sg21
Vbne #0xffffffc0
p700
sg5
L829468L
sg6
Nsg23
g152
sg25
S'0xca81cL'
p701
sg27
Nsbasg154
(lp702
S'MOV sbuffer, uvregue'
p703
aS'MOV R1, base_0'
p704
aS'BL __aeabi_uiregvmod'
p705
aS'LDRB R3, mem'
p706
aS'MOV R0, uvregue'
p707
aS'STRB R3, mem'
p708
aS'MOV R1, base_0'
p709
aS'BL __uregvreg3'
p710
aS'ADD R5, place, #1'
p711
aS'SUBS R3, R0, #0'
p712
aS'MOVNE R3, #1'
p713
aS'CMP place, #0xE'
p714
aS'MOVGT R3, #0'
p715
aS'CMP R3, #0'
p716
aS'MOV uvregue, R0'
p717
aS'BNE func'
p718
asg175
Nsg5
S'0xca7e0L'
p719
sg177
(lp720
S'0xca7c0L'
p721
aS'0xca7dcL'
p722
asg6
Nsg179
(lp723
S'0xca7dcL'
p724
aS'0xca820L'
p725
asg183
Nsg184
Nsg185
S'd570c7c547e84ed7b996407ce2272870'
p726
sg187
S'063628874aee35112c9a773488e15ea3'
p727
sg189
(lp728
g596
ag603
ag610
ag617
ag624
ag631
ag638
ag645
ag652
ag659
ag666
ag673
ag680
ag687
ag694
ag152
asg191
Nsba(ibclass
BBasicBlock
p729
(dp730
g12
Nsg13
(lp731
(ibclass
BInstr
p732
(dp733
g2
Nsg17
S'CMP     place, #0xF'
p734
sg19
S'0f0055e3'
p735
sg21
Vcmp r5, #0xf
p736
sg5
L829472L
sg6
Nsg23
S'CMP'
p737
sg25
S'0xca820L'
p738
sg27
Nsba(ibclass
BInstr
p739
(dp740
g2
Nsg17
S'LDR     R3, [SP,#0x60+var_54]'
p741
sg19
S'0c309de5'
p742
sg21
Vldr r3, [sp, #0xc]
p743
sg5
L829476L
sg6
Nsg23
S'LDR'
p744
sg25
S'0xca824L'
p745
sg27
Nsba(ibclass
BInstr
p746
(dp747
g2
Nsg17
S'MOVNE   R4, place'
p748
sg19
S'0540a011'
p749
sg21
Vmovne r4, r5
p750
sg5
L829480L
sg6
Nsg23
S'MOV'
p751
sg25
S'0xca828L'
p752
sg27
Nsba(ibclass
BInstr
p753
(dp754
g2
Nsg17
S'LDR     R2, [SP,#0x60+flags_0]'
p755
sg19
S'68209de5'
p756
sg21
Vldr r2, [sp, #0x68]
p757
sg5
L829484L
sg6
Nsg23
S'LDR'
p758
sg25
S'0xca82cL'
p759
sg27
Nsba(ibclass
BInstr
p760
(dp761
g2
Nsg17
S'CMP     R3, R4'
p762
sg19
S'040053e1'
p763
sg21
Vcmp r3, r4
p764
sg5
L829488L
sg6
Nsg23
S'CMP'
p765
sg25
S'0xca830L'
p766
sg27
Nsba(ibclass
BInstr
p767
(dp768
g2
Nsg17
S'MOVLT   R3, R4'
p769
sg19
S'0430a0b1'
p770
sg21
Vmovlt r3, r4
p771
sg5
L829492L
sg6
Nsg23
S'MOV'
p772
sg25
S'0xca834L'
p773
sg27
Nsba(ibclass
BInstr
p774
(dp775
g2
Nsg17
S'LDR     R0, [SP,#0x60+var_50]'
p776
sg19
S'10009de5'
p777
sg21
Vldr r0, [sp, #0x10]
p778
sg5
L829496L
sg6
Nsg23
S'LDR'
p779
sg25
S'0xca838L'
p780
sg27
Nsba(ibclass
BInstr
p781
(dp782
g2
Nsg17
S'RSB     R3, R3, R2'
p783
sg19
S'023063e0'
p784
sg21
Vrsb r3, r3, r2
p785
sg5
L829500L
sg6
Nsg23
S'RSB'
p786
sg25
S'0xca83cL'
p787
sg27
Nsba(ibclass
BInstr
p788
(dp789
g2
Nsg17
S'RSB     place, R0, R3'
p790
sg19
S'035060e0'
p791
sg21
Vrsb r5, r0, r3
p792
sg5
L829504L
sg6
Nsg23
S'RSB'
p793
sg25
S'0xca840L'
p794
sg27
Nsba(ibclass
BInstr
p795
(dp796
g2
Nsg17
S'LDR     R1, [SP,#0x60+var_44]'
p797
sg19
S'1c109de5'
p798
sg21
Vldr r1, [sp, #0x1c]
p799
sg5
L829508L
sg6
Nsg23
S'LDR'
p800
sg25
S'0xca844L'
p801
sg27
Nsba(ibclass
BInstr
p802
(dp803
g2
Nsg17
S'LDR     R2, [SP,#0x60+flags]'
p804
sg19
S'70209de5'
p805
sg21
Vldr r2, [sp, #0x70]
p806
sg5
L829512L
sg6
Nsg23
S'LDR'
p807
sg25
S'0xca848L'
p808
sg27
Nsba(ibclass
BInstr
p809
(dp810
g2
Nsg17
S'LDR     R0, [SP,#0x60+var_54]'
p811
sg19
S'0c009de5'
p812
sg21
Vldr r0, [sp, #0xc]
p813
sg5
L829516L
sg6
Nsg23
S'LDR'
p814
sg25
S'0xca84cL'
p815
sg27
Nsba(ibclass
BInstr
p816
(dp817
g2
Nsg17
S'ADD     R12, SP, #0x60+var_28'
p818
sg19
S'38c08de2'
p819
sg21
Vadd ip, sp, #0x38
p820
sg5
L829520L
sg6
Nsg23
S'ADD'
p821
sg25
S'0xca850L'
p822
sg27
Nsba(ibclass
BInstr
p823
(dp824
g2
Nsg17
S'RSB     R5, R1, R5'
p825
sg19
S'055061e0'
p826
sg21
Vrsb r5, r1, r5
p827
sg5
L829524L
sg6
Nsg23
S'RSB'
p828
sg25
S'0xca854L'
p829
sg27
Nsba(ibclass
BInstr
p830
(dp831
g2
Nsg17
S'ADD     R3, R12, place'
p832
sg19
S'04308ce0'
p833
sg21
Vadd r3, ip, r4
p834
sg5
L829528L
sg6
Nsg23
S'ADD'
p835
sg25
S'0xca858L'
p836
sg27
Nsba(ibclass
BInstr
p837
(dp838
g2
Nsg17
S'MOV     R1, #0'
p839
sg19
S'0010a0e3'
p840
sg21
Vmov r1, #0
p841
sg5
L829532L
sg6
Nsg23
S'MOV'
p842
sg25
S'0xca85cL'
p843
sg27
Nsba(ibclass
BInstr
p844
(dp845
g2
Nsg17
S'RSB     R12, place, R0'
p846
sg19
S'00c064e0'
p847
sg21
Vrsb ip, r4, r0
p848
sg5
L829536L
sg6
Nsg23
S'RSB'
p849
sg25
S'0xca860L'
p850
sg27
Nsba(ibclass
BInstr
p851
(dp852
g2
Nsg17
S'TST     R2, #0x10'
p853
sg19
S'100012e3'
p854
sg21
Vtst r2, #0x10
p855
sg5
L829540L
sg6
Nsg23
S'TST'
p856
sg25
S'0xca864L'
p857
sg27
Nsba(ibclass
BInstr
p858
(dp859
g2
Nsg17
S'LDR     R6, [SP,#0x60+var_40]'
p860
sg19
S'20609de5'
p861
sg21
Vldr r6, [sp, #0x20]
p862
sg5
L829544L
sg6
Nsg23
S'LDR'
p863
sg25
S'0xca868L'
p864
sg27
Nsba(ibclass
BInstr
p865
(dp866
g2
Nsg17
S'STRB    R1, [R3,#-0x10]'
p867
sg19
S'101043e5'
p868
sg21
Vstrb r1, [r3, #-0x10]
p869
sg5
L829548L
sg6
Nsg23
S'STR'
p870
sg25
S'0xca86cL'
p871
sg27
Nsba(ibclass
BInstr
p872
(dp873
g2
Nsg17
S'BIC     zpadlen, zpadlen, zpadlen,ASR#31'
p874
sg19
S'cccfcce1'
p875
sg21
Vbic ip, ip, ip, asr #31
p876
sg5
L829552L
sg6
Nsg23
S'BIC'
p877
sg25
S'0xca870L'
p878
sg27
Nsba(ibclass
BInstr
p879
(dp880
g2
Nsg17
S'BIC     spadlen, spadlen, spadlen,ASR#31'
p881
sg19
S'c55fc5e1'
p882
sg21
Vbic r5, r5, r5, asr #31
p883
sg5
L829556L
sg6
Nsg23
S'BIC'
p884
sg25
S'0xca874L'
p885
sg27
Nsba(ibclass
BInstr
p886
(dp887
g2
Nsg17
S'BEQ     loc_CA888'
p888
sg19
S'0200000a'
p889
sg21
Vbeq #0x10
p890
sg5
L829560L
sg6
Nsg23
g152
sg25
S'0xca878L'
p891
sg27
Nsbasg154
(lp892
S'CMP place, #0xF'
p893
aS'LDR R3, mem'
p894
aS'MOVNE R4, place'
p895
aS'LDR R2, mem'
p896
aS'CMP R3, R4'
p897
aS'MOVLT R3, R4'
p898
aS'LDR R0, mem'
p899
aS'RSB R3, R3, R2'
p900
aS'RSB place, R0, R3'
p901
aS'LDR R1, mem'
p902
aS'LDR R2, mem'
p903
aS'LDR R0, mem'
p904
aS'ADD R12, SP, #0x60+var_28'
p905
aS'RSB R5, R1, R5'
p906
aS'ADD R3, R12, place'
p907
aS'MOV R1, #0'
p908
aS'RSB R12, place, R0'
p909
aS'TST R2, #0x10'
p910
aS'LDR R6, mem'
p911
aS'STRB R1, mem'
p912
aS'BIC zparegen, zparegen, zparegen,ASR#31'
p913
aS'BIC regaregen, regaregen, regaregen,ASR#31'
p914
aS'BEQ func'
p915
asg175
Nsg5
S'0xca820L'
p916
sg177
(lp917
S'0xca7e0L'
p918
aS'0xcaaa4L'
p919
asg6
Nsg179
(lp920
S'0xca87cL'
p921
aS'0xca888L'
p922
asg183
Nsg184
Nsg185
S'bafbf7fa4092cef923f29c88d990a8a7'
p923
sg187
S'cedf3fd4144b99796c49ab433e297f10'
p924
sg189
(lp925
g737
ag744
ag751
ag758
ag765
ag772
ag779
ag786
ag793
ag800
ag807
ag814
ag821
ag828
ag835
ag842
ag849
ag856
ag863
ag870
ag877
ag884
ag152
asg191
Nsba(ibclass
BBasicBlock
p926
(dp927
g12
Nsg13
(lp928
(ibclass
BInstr
p929
(dp930
g2
Nsg17
S'CMP     zpadlen, spadlen'
p931
sg19
S'05005ce1'
p932
sg21
Vcmp ip, r5
p933
sg5
L829564L
sg6
Nsg23
S'CMP'
p934
sg25
S'0xca87cL'
p935
sg27
Nsba(ibclass
BInstr
p936
(dp937
g2
Nsg17
S'MOVLT   zpadlen, spadlen'
p938
sg19
S'05c0a0b1'
p939
sg21
Vmovlt ip, r5
p940
sg5
L829568L
sg6
Nsg23
S'MOV'
p941
sg25
S'0xca880L'
p942
sg27
Nsba(ibclass
BInstr
p943
(dp944
g2
Nsg17
S'MOV     spadlen, R1'
p945
sg19
S'0150a0e1'
p946
sg21
Vmov r5, r1
p947
sg5
L829572L
sg6
Nsg23
S'MOV'
p948
sg25
S'0xca884L'
p949
sg27
Nsbasg154
(lp950
S'CMP zparegen, regaregen'
p951
aS'MOVLT zparegen, regaregen'
p952
aS'MOV regaregen, R1'
p953
asg175
Nsg5
S'0xca87cL'
p954
sg177
(lp955
S'0xca820L'
p956
asg6
Nsg179
(lp957
S'0xca888L'
p958
asg183
Nsg184
Nsg185
S'e4cb814146ae2d9ca585b298603b5d99'
p959
sg187
S'aa9e93298ab9f68304279186b4ffc1ec'
p960
sg189
(lp961
g934
ag941
ag948
asg191
Nsba(ibclass
BBasicBlock
p962
(dp963
g12
Nsg13
(lp964
(ibclass
BInstr
p965
(dp966
g2
Nsg17
S'LDR     R2, [SP,#0x60+flags]'
p967
sg19
S'70209de5'
p968
sg21
Vldr r2, [sp, #0x70]
p969
sg5
L829576L
sg6
Nsg23
S'LDR'
p970
sg25
S'0xca888L'
p971
sg27
Nsba(ibclass
BInstr
p972
(dp973
g2
Nsg17
S'ANDS    R1, R2, #1'
p974
sg19
S'011012e2'
p975
sg21
Vands r1, r2, #1
p976
sg5
L829580L
sg6
Nsg23
S'AND'
p977
sg25
S'0xca88cL'
p978
sg27
Nsba(ibclass
BInstr
p979
(dp980
g2
Nsg17
S'RSBNE   spadlen, spadlen, #0'
p981
sg19
S'00506512'
p982
sg21
Vrsbne r5, r5, #0
p983
sg5
L829584L
sg6
Nsg23
S'RSB'
p984
sg25
S'0xca890L'
p985
sg27
Nsba(ibclass
BInstr
p986
(dp987
g2
Nsg17
S'BNE     loc_CA970'
p988
sg19
S'3500001a'
p989
sg21
Vbne #0xdc
p990
sg5
L829588L
sg6
Nsg23
g152
sg25
S'0xca894L'
p991
sg27
Nsbasg154
(lp992
S'LDR R2, mem'
p993
aS'ANDS R1, R2, #1'
p994
aS'RSBNE regaregen, regaregen, #0'
p995
aS'BNE func'
p996
asg175
Nsg5
S'0xca888L'
p997
sg177
(lp998
S'0xca820L'
p999
aS'0xca87cL'
p1000
asg6
Nsg179
(lp1001
S'0xca898L'
p1002
aS'0xca970L'
p1003
asg183
Nsg184
Nsg185
S'39261392ba96419448ffac241dcb8830'
p1004
sg187
S'2b0b7a4bfea6bb48186959f2a58fddcd'
p1005
sg189
(lp1006
g970
ag977
ag984
ag152
asg191
Nsba(ibclass
BBasicBlock
p1007
(dp1008
g12
Nsg13
(lp1009
(ibclass
BInstr
p1010
(dp1011
g2
Nsg17
S'CMP     spadlen, #0'
p1012
sg19
S'000055e3'
p1013
sg21
Vcmp r5, #0
p1014
sg5
L829592L
sg6
Nsg23
S'CMP'
p1015
sg25
S'0xca898L'
p1016
sg27
Nsba(ibclass
BInstr
p1017
(dp1018
g2
Nsg17
S'BLE     loc_CA970'
p1019
sg19
S'330000da'
p1020
sg21
Vble #0xd4
p1021
sg5
L829596L
sg6
Nsg23
g152
sg25
S'0xca89cL'
p1022
sg27
Nsbasg154
(lp1023
S'CMP regaregen, #0'
p1024
aS'BLE func'
p1025
asg175
Nsg5
S'0xca898L'
p1026
sg177
(lp1027
S'0xca888L'
p1028
asg6
Nsg179
(lp1029
S'0xca8a0L'
p1030
aS'0xca970L'
p1031
asg183
Nsg184
Nsg185
S'c78fd620a449e3c979d3f3ec12d4ee88'
p1032
sg187
S'42988aa26904e0cfa25509684df26c26'
p1033
sg189
(lp1034
g1015
ag152
asg191
Nsba(ibclass
BBasicBlock
p1035
(dp1036
g12
Nsg13
(lp1037
(ibclass
BInstr
p1038
(dp1039
g2
Nsg17
S'LDR     R3, =0xFFFDD46C'
p1040
sg19
S'90379fe5'
p1041
sg21
Vldr r3, [pc, #0x790]
p1042
sg5
L829600L
sg6
Nsg23
S'LDR'
p1043
sg25
S'0xca8a0L'
p1044
sg27
Nsba(ibclass
BInstr
p1045
(dp1046
g2
Nsg17
S'LDR     R0, [SP,#0x60+var_58]'
p1047
sg19
S'08009de5'
p1048
sg21
Vldr r0, [sp, #8]
p1049
sg5
L829604L
sg6
Nsg23
S'LDR'
p1050
sg25
S'0xca8a4L'
p1051
sg27
Nsba(ibclass
BInstr
p1052
(dp1053
g2
Nsg17
S'STR     place, [SP,#0x60+var_50]'
p1054
sg19
S'10408de5'
p1055
sg21
Vstr r4, [sp, #0x10]
p1056
sg5
L829608L
sg6
Nsg23
S'STR'
p1057
sg25
S'0xca8a8L'
p1058
sg27
Nsba(ibclass
BInstr
p1059
(dp1060
g2
Nsg17
S'ADD     R3, R0, R3'
p1061
sg19
S'033080e0'
p1062
sg21
Vadd r3, r0, r3
p1063
sg5
L829612L
sg6
Nsg23
S'ADD'
p1064
sg25
S'0xca8acL'
p1065
sg27
Nsba(ibclass
BInstr
p1066
(dp1067
g2
Nsg17
S'LDR     R2, [currlen]'
p1068
sg19
S'002098e5'
p1069
sg21
Vldr r2, [r8]
p1070
sg5
L829616L
sg6
Nsg23
S'LDR'
p1071
sg25
S'0xca8b0L'
p1072
sg27
Nsba(ibclass
BInstr
p1073
(dp1074
g2
Nsg17
S'LDR     base_0, =0x7FFFFBFF'
p1075
sg19
S'80b79fe5'
p1076
sg21
Vldr fp, [pc, #0x780]
p1077
sg5
L829620L
sg6
Nsg23
S'LDR'
p1078
sg25
S'0xca8b4L'
p1079
sg27
Nsba(ibclass
BInstr
p1080
(dp1081
g2
Nsg17
S'STR     R3, [SP,#0x60+file]'
p1082
sg19
S'04308de5'
p1083
sg21
Vstr r3, [sp, #4]
p1084
sg5
L829624L
sg6
Nsg23
S'STR'
p1085
sg25
S'0xca8b8L'
p1086
sg27
Nsba(ibclass
BInstr
p1087
(dp1088
g2
Nsg17
S'MOV     uvalue, #0x20'
p1089
sg19
S'2090a0e3'
p1090
sg21
Vmov sb, #0x20
p1091
sg5
L829628L
sg6
Nsg23
S'MOV'
p1092
sg25
S'0xca8bcL'
p1093
sg27
Nsba(ibclass
BInstr
p1094
(dp1095
g2
Nsg17
S'STR     zpadlen, [SP,#0x60+var_54]'
p1096
sg19
S'0cc08de5'
p1097
sg21
Vstr ip, [sp, #0xc]
p1098
sg5
L829632L
sg6
Nsg23
S'STR'
p1099
sg25
S'0xca8c0L'
p1100
sg27
Nsba(ibclass
BInstr
p1101
(dp1102
g2
Nsg17
S'LDR     place, [SP,#0x60+var_4C]'
p1103
sg19
S'14409de5'
p1104
sg21
Vldr r4, [sp, #0x14]
p1105
sg5
L829636L
sg6
Nsg23
S'LDR'
p1106
sg25
S'0xca8c4L'
p1107
sg27
Nsba(ibclass
BInstr
p1108
(dp1109
g2
Nsg17
S'B       loc_CA8F8'
p1110
sg19
S'0a0000ea'
p1111
sg21
Vb #0x30
p1112
sg5
L829640L
sg6
Nsg23
g152
sg25
S'0xca8c8L'
p1113
sg27
Nsbasg154
(lp1114
S'LDR R3, =0xFFFDD46C'
p1115
aS'LDR R0, mem'
p1116
aS'STR place, mem'
p1117
aS'ADD R3, R0, R3'
p1118
aS'LDR R2, mem'
p1119
aS'LDR base_0, =0x7FFFFBFF'
p1120
aS'STR R3, mem'
p1121
aS'MOV uvregue, #0x20'
p1122
aS'STR zparegen, mem'
p1123
aS'LDR place, mem'
p1124
aS'B func'
p1125
asg175
Nsg5
S'0xca8a0L'
p1126
sg177
(lp1127
S'0xca898L'
p1128
asg6
Nsg179
(lp1129
S'0xca8f8L'
p1130
asg183
Nsg184
Nsg185
S'095a9edb19b114728483ac27403e6732'
p1131
sg187
S'e4ff7371792af3d660f25d7dc7046dc5'
p1132
sg189
(lp1133
g1043
ag1050
ag1057
ag1064
ag1071
ag1078
ag1085
ag1092
ag1099
ag1106
ag152
asg191
Nsba(ibclass
BBasicBlock
p1134
(dp1135
g12
Nsg13
(lp1136
(ibclass
BInstr
p1137
(dp1138
g2
Nsg17
S'CMP     R2, R3'
p1139
sg19
S'030052e1'
p1140
sg21
Vcmp r2, r3
p1141
sg5
L829644L
sg6
Nsg23
S'CMP'
p1142
sg25
S'0xca8ccL'
p1143
sg27
Nsba(ibclass
BInstr
p1144
(dp1145
g2
Nsg17
S'BCS     loc_CA8EC'
p1146
sg19
S'0500002a'
p1147
sg21
Vbhs #0x1c
p1148
sg5
L829648L
sg6
Nsg23
g152
sg25
S'0xca8d0L'
p1149
sg27
Nsbasg154
(lp1150
S'CMP R2, R3'
p1151
aS'BCS func'
p1152
asg175
Nsg5
S'0xca8ccL'
p1153
sg177
(lp1154
S'0xca900L'
p1155
aS'0xca93cL'
p1156
aS'0xca94cL'
p1157
aS'0xcab0cL'
p1158
asg6
Nsg179
(lp1159
S'0xca8d4L'
p1160
aS'0xca8ecL'
p1161
asg183
Nsg184
Nsg185
S'c78fd620a449e3c979d3f3ec12d4ee88'
p1162
sg187
S'9800af0f41e4e2f24cf62f1ab43febd8'
p1163
sg189
(lp1164
g1142
ag152
asg191
Nsba(ibclass
BBasicBlock
p1165
(dp1166
g12
Nsg13
(lp1167
(ibclass
BInstr
p1168
(dp1169
g2
Nsg17
S'LDR     R3, [sbuffer]'
p1170
sg19
S'003094e5'
p1171
sg21
Vldr r3, [r4]
p1172
sg5
L829652L
sg6
Nsg23
S'LDR'
p1173
sg25
S'0xca8d4L'
p1174
sg27
Nsba(ibclass
BInstr
p1175
(dp1176
g2
Nsg17
S'CMP     R3, #0'
p1177
sg19
S'000053e3'
p1178
sg21
Vcmp r3, #0
p1179
sg5
L829656L
sg6
Nsg23
S'CMP'
p1180
sg25
S'0xca8d8L'
p1181
sg27
Nsba(ibclass
BInstr
p1182
(dp1183
g2
Nsg17
S'LDREQ   R3, [buffer]'
p1184
sg19
S'00309605'
p1185
sg21
Vldreq r3, [r6]
p1186
sg5
L829660L
sg6
Nsg23
S'LDR'
p1187
sg25
S'0xca8dcL'
p1188
sg27
Nsba(ibclass
BInstr
p1189
(dp1190
g2
Nsg17
S'STRB    R9, [R3,R2]'
p1191
sg19
S'0290c3e7'
p1192
sg21
Vstrb sb, [r3, r2]
p1193
sg5
L829664L
sg6
Nsg23
S'STR'
p1194
sg25
S'0xca8e0L'
p1195
sg27
Nsba(ibclass
BInstr
p1196
(dp1197
g2
Nsg17
S'ADD     R2, R2, #1'
p1198
sg19
S'012082e2'
p1199
sg21
Vadd r2, r2, #1
p1200
sg5
L829668L
sg6
Nsg23
S'ADD'
p1201
sg25
S'0xca8e4L'
p1202
sg27
Nsba(ibclass
BInstr
p1203
(dp1204
g2
Nsg17
S'STR     R2, [currlen]'
p1205
sg19
S'002088e5'
p1206
sg21
Vstr r2, [r8]
p1207
sg5
L829672L
sg6
Nsg23
S'STR'
p1208
sg25
S'0xca8e8L'
p1209
sg27
Nsbasg154
(lp1210
S'LDR R3, mem'
p1211
aS'CMP R3, #0'
p1212
aS'LDREQ R3, mem'
p1213
aS'STRB R9, mem'
p1214
aS'ADD R2, R2, #1'
p1215
aS'STR R2, mem'
p1216
asg175
Nsg5
S'0xca8d4L'
p1217
sg177
(lp1218
S'0xca8ccL'
p1219
asg6
Nsg179
(lp1220
S'0xca8ecL'
p1221
asg183
Nsg184
Nsg185
S'0f75e56b74bfbf576cf1af70ab8a4eaa'
p1222
sg187
S'cb009e7d87ac5c94dcca9691d0307ea8'
p1223
sg189
(lp1224
g1173
ag1180
ag1187
ag1194
ag1201
ag1208
asg191
Nsba(ibclass
BBasicBlock
p1225
(dp1226
g12
Nsg13
(lp1227
(ibclass
BInstr
p1228
(dp1229
g2
Nsg17
S'SUB     spadlen, spadlen, #1'
p1230
sg19
S'015045e2'
p1231
sg21
Vsub r5, r5, #1
p1232
sg5
L829676L
sg6
Nsg23
S'SUB'
p1233
sg25
S'0xca8ecL'
p1234
sg27
Nsba(ibclass
BInstr
p1235
(dp1236
g2
Nsg17
S'CMP     spadlen, #0'
p1237
sg19
S'000055e3'
p1238
sg21
Vcmp r5, #0
p1239
sg5
L829680L
sg6
Nsg23
S'CMP'
p1240
sg25
S'0xca8f0L'
p1241
sg27
Nsba(ibclass
BInstr
p1242
(dp1243
g2
Nsg17
S'BLE     loc_CA968'
p1244
sg19
S'1b0000da'
p1245
sg21
Vble #0x74
p1246
sg5
L829684L
sg6
Nsg23
g152
sg25
S'0xca8f4L'
p1247
sg27
Nsbasg154
(lp1248
S'SUB regaregen, regaregen, #1'
p1249
aS'CMP regaregen, #0'
p1250
aS'BLE func'
p1251
asg175
Nsg5
S'0xca8ecL'
p1252
sg177
(lp1253
S'0xca8ccL'
p1254
aS'0xca8d4L'
p1255
asg6
Nsg179
(lp1256
S'0xca8f8L'
p1257
aS'0xca968L'
p1258
asg183
Nsg184
Nsg185
S'894b8d3668dd4d870658172bcc02b6af'
p1259
sg187
S'b5b295f70b30b71e334ef25cc306b96d'
p1260
sg189
(lp1261
g1233
ag1240
ag152
asg191
Nsba(ibclass
BBasicBlock
p1262
(dp1263
g12
Nsg13
(lp1264
(ibclass
BInstr
p1265
(dp1266
g2
Nsg17
S'CMP     buffer, #0'
p1267
sg19
S'000056e3'
p1268
sg21
Vcmp r6, #0
p1269
sg5
L829688L
sg6
Nsg23
S'CMP'
p1270
sg25
S'0xca8f8L'
p1271
sg27
Nsba(ibclass
BInstr
p1272
(dp1273
g2
Nsg17
S'BEQ     loc_CA94C'
p1274
sg19
S'1200000a'
p1275
sg21
Vbeq #0x50
p1276
sg5
L829692L
sg6
Nsg23
g152
sg25
S'0xca8fcL'
p1277
sg27
Nsbasg154
(lp1278
S'CMP buffer, #0'
p1279
aS'BEQ func'
p1280
asg175
Nsg5
S'0xca8f8L'
p1281
sg177
(lp1282
S'0xca8a0L'
p1283
aS'0xca8ecL'
p1284
asg6
Nsg179
(lp1285
S'0xca900L'
p1286
aS'0xca94cL'
p1287
asg183
Nsg184
Nsg185
S'c78fd620a449e3c979d3f3ec12d4ee88'
p1288
sg187
S'506074e0b5ecdf16dda3e737c36bbc81'
p1289
sg189
(lp1290
g1270
ag152
asg191
Nsba(ibclass
BBasicBlock
p1291
(dp1292
g12
Nsg13
(lp1293
(ibclass
BInstr
p1294
(dp1295
g2
Nsg17
S'LDR     R3, [maxlen]'
p1296
sg19
S'003097e5'
p1297
sg21
Vldr r3, [r7]
p1298
sg5
L829696L
sg6
Nsg23
S'LDR'
p1299
sg25
S'0xca900L'
p1300
sg27
Nsba(ibclass
BInstr
p1301
(dp1302
g2
Nsg17
S'CMP     R3, R2'
p1303
sg19
S'020053e1'
p1304
sg21
Vcmp r3, r2
p1305
sg5
L829700L
sg6
Nsg23
S'CMP'
p1306
sg25
S'0xca904L'
p1307
sg27
Nsba(ibclass
BInstr
p1308
(dp1309
g2
Nsg17
S'BNE     loc_CA8CC'
p1310
sg19
S'efffff1a'
p1311
sg21
Vbne #0xffffffc4
p1312
sg5
L829704L
sg6
Nsg23
g152
sg25
S'0xca908L'
p1313
sg27
Nsbasg154
(lp1314
S'LDR R3, mem'
p1315
aS'CMP R3, R2'
p1316
aS'BNE func'
p1317
asg175
Nsg5
S'0xca900L'
p1318
sg177
(lp1319
S'0xca8f8L'
p1320
asg6
Nsg179
(lp1321
S'0xca8ccL'
p1322
aS'0xca90cL'
p1323
asg183
Nsg184
Nsg185
S'fa4df767a85c49648339e2dc5c6807f6'
p1324
sg187
S'e2e29a9ed7cf579e472c732e92893fd5'
p1325
sg189
(lp1326
g1299
ag1306
ag152
asg191
Nsba(ibclass
BBasicBlock
p1327
(dp1328
g12
Nsg13
(lp1329
(ibclass
BInstr
p1330
(dp1331
g2
Nsg17
S'CMP     R2, R11'
p1332
sg19
S'0b0052e1'
p1333
sg21
Vcmp r2, fp
p1334
sg5
L829708L
sg6
Nsg23
S'CMP'
p1335
sg25
S'0xca90cL'
p1336
sg27
Nsba(ibclass
BInstr
p1337
(dp1338
g2
Nsg17
S'BHI     loc_CA958'
p1339
sg19
S'1000008a'
p1340
sg21
Vbhi #0x48
p1341
sg5
L829712L
sg6
Nsg23
g152
sg25
S'0xca910L'
p1342
sg27
Nsbasg154
(lp1343
S'CMP R2, R11'
p1344
aS'BHI func'
p1345
asg175
Nsg5
S'0xca90cL'
p1346
sg177
(lp1347
S'0xca900L'
p1348
asg6
Nsg179
(lp1349
S'0xca914L'
p1350
aS'0xca958L'
p1351
asg183
Nsg184
Nsg185
S'c78fd620a449e3c979d3f3ec12d4ee88'
p1352
sg187
S'7095ab6fcf0bd6bc0c34bc210b18b2d9'
p1353
sg189
(lp1354
g1335
ag152
asg191
Nsba(ibclass
BBasicBlock
p1355
(dp1356
g12
Nsg13
(lp1357
(ibclass
BInstr
p1358
(dp1359
g2
Nsg17
S'LDR     R0, [buffer]    ; str'
p1360
sg19
S'000096e5'
p1361
sg21
Vldr r0, [r6]
p1362
sg5
L829716L
sg6
Nsg23
S'LDR'
p1363
sg25
S'0xca914L'
p1364
sg27
Nsba(ibclass
BInstr
p1365
(dp1366
g2
Nsg17
S'ADD     R1, R2, #0x400  ; num'
p1367
sg19
S'011b82e2'
p1368
sg21
Vadd r1, r2, #0x400
p1369
sg5
L829720L
sg6
Nsg23
S'ADD'
p1370
sg25
S'0xca918L'
p1371
sg27
Nsba(ibclass
BInstr
p1372
(dp1373
g2
Nsg17
S'CMP     R0, #0'
p1374
sg19
S'000050e3'
p1375
sg21
Vcmp r0, #0
p1376
sg5
L829724L
sg6
Nsg23
S'CMP'
p1377
sg25
S'0xca91cL'
p1378
sg27
Nsba(ibclass
BInstr
p1379
(dp1380
g2
Nsg17
S'STR     R1, [maxlen]'
p1381
sg19
S'001087e5'
p1382
sg21
Vstr r1, [r7]
p1383
sg5
L829728L
sg6
Nsg23
S'STR'
p1384
sg25
S'0xca920L'
p1385
sg27
Nsba(ibclass
BInstr
p1386
(dp1387
g2
Nsg17
S'BEQ     loc_CAAE4'
p1388
sg19
S'6e00000a'
p1389
sg21
Vbeq #0x1c0
p1390
sg5
L829732L
sg6
Nsg23
g152
sg25
S'0xca924L'
p1391
sg27
Nsbasg154
(lp1392
S'LDR R0, mem'
p1393
aS'ADD R1, R2, #0x400'
p1394
aS'CMP R0, #0'
p1395
aS'STR R1, mem'
p1396
aS'BEQ func'
p1397
asg175
Nsg5
S'0xca914L'
p1398
sg177
(lp1399
S'0xca90cL'
p1400
asg6
Nsg179
(lp1401
S'0xca928L'
p1402
aS'0xcaae4L'
p1403
asg183
Nsg184
Nsg185
S'4ec61fd607a8af912e661d4962fa75d9'
p1404
sg187
S'99c14bc301ed53807b51f481993e4247'
p1405
sg189
(lp1406
g1363
ag1370
ag1377
ag1384
ag152
asg191
Nsba(ibclass
BBasicBlock
p1407
(dp1408
g12
Nsg13
(lp1409
(ibclass
BInstr
p1410
(dp1411
g2
Nsg17
S'LDR     R2, [SP,#0x60+file]; file'
p1412
sg19
S'04209de5'
p1413
sg21
Vldr r2, [sp, #4]
p1414
sg5
L829736L
sg6
Nsg23
S'LDR'
p1415
sg25
S'0xca928L'
p1416
sg27
Nsba(ibclass
BInstr
p1417
(dp1418
g2
Nsg17
S'LDR     R3, =0x303      ; line'
p1419
sg19
S'0c379fe5'
p1420
sg21
Vldr r3, [pc, #0x70c]
p1421
sg5
L829740L
sg6
Nsg23
S'LDR'
p1422
sg25
S'0xca92cL'
p1423
sg27
Nsba(ibclass
BInstr
p1424
(dp1425
g2
Nsg17
S'BL      CRYPTO_realloc'
p1426
sg19
S'aaf9fdeb'
p1427
sg21
Vbl #0xfff7e6b0
p1428
sg5
L829744L
sg6
Nsg23
S'BL'
p1429
sg25
S'0xca930L'
p1430
sg27
Nsba(ibclass
BInstr
p1431
(dp1432
g2
Nsg17
S'CMP     R0, #0'
p1433
sg19
S'000050e3'
p1434
sg21
Vcmp r0, #0
p1435
sg5
L829748L
sg6
Nsg23
S'CMP'
p1436
sg25
S'0xca934L'
p1437
sg27
Nsba(ibclass
BInstr
p1438
(dp1439
g2
Nsg17
S'BEQ     loc_CA958'
p1440
sg19
S'0600000a'
p1441
sg21
Vbeq #0x20
p1442
sg5
L829752L
sg6
Nsg23
g152
sg25
S'0xca938L'
p1443
sg27
Nsbasg154
(lp1444
S'LDR R2, mem'
p1445
aS'LDR R3, =0x303'
p1446
aS'BL CRYPTO_reregloc'
p1447
aS'CMP R0, #0'
p1448
aS'BEQ func'
p1449
asg175
Nsg5
S'0xca928L'
p1450
sg177
(lp1451
S'0xca914L'
p1452
asg6
Nsg179
(lp1453
S'0xca93cL'
p1454
aS'0xca958L'
p1455
asg183
Nsg184
Nsg185
S'98df8d58a70aefeb372f52f820175ac9'
p1456
sg187
S'da6a129b3c8a597725b8046b4ca7a93e'
p1457
sg189
(lp1458
g1415
ag1422
ag1429
ag1436
ag152
asg191
Nsba(ibclass
BBasicBlock
p1459
(dp1460
g12
Nsg13
(lp1461
(ibclass
BInstr
p1462
(dp1463
g2
Nsg17
S'LDR     R2, [currlen]'
p1464
sg19
S'002098e5'
p1465
sg21
Vldr r2, [r8]
p1466
sg5
L829756L
sg6
Nsg23
S'LDR'
p1467
sg25
S'0xca93cL'
p1468
sg27
Nsba(ibclass
BInstr
p1469
(dp1470
g2
Nsg17
S'LDR     R3, [maxlen]'
p1471
sg19
S'003097e5'
p1472
sg21
Vldr r3, [r7]
p1473
sg5
L829760L
sg6
Nsg23
S'LDR'
p1474
sg25
S'0xca940L'
p1475
sg27
Nsba(ibclass
BInstr
p1476
(dp1477
g2
Nsg17
S'STR     R0, [buffer]'
p1478
sg19
S'000086e5'
p1479
sg21
Vstr r0, [r6]
p1480
sg5
L829764L
sg6
Nsg23
S'STR'
p1481
sg25
S'0xca944L'
p1482
sg27
Nsba(ibclass
BInstr
p1483
(dp1484
g2
Nsg17
S'B       loc_CA8CC'
p1485
sg19
S'dfffffea'
p1486
sg21
Vb #0xffffff84
p1487
sg5
L829768L
sg6
Nsg23
g152
sg25
S'0xca948L'
p1488
sg27
Nsbasg154
(lp1489
S'LDR R2, mem'
p1490
aS'LDR R3, mem'
p1491
aS'STR R0, mem'
p1492
aS'B func'
p1493
asg175
Nsg5
S'0xca93cL'
p1494
sg177
(lp1495
S'0xca928L'
p1496
asg6
Nsg179
(lp1497
S'0xca8ccL'
p1498
asg183
Nsg184
Nsg185
S'254797143989388d9207e7f4139e3257'
p1499
sg187
S'533d0ebc2a4ad8644106e9313d030cba'
p1500
sg189
(lp1501
g1467
ag1474
ag1481
ag152
asg191
Nsba(ibclass
BBasicBlock
p1502
(dp1503
g12
Nsg13
(lp1504
(ibclass
BInstr
p1505
(dp1506
g2
Nsg17
S'LDR     R2, [currlen]'
p1507
sg19
S'002098e5'
p1508
sg21
Vldr r2, [r8]
p1509
sg5
L829772L
sg6
Nsg23
S'LDR'
p1510
sg25
S'0xca94cL'
p1511
sg27
Nsba(ibclass
BInstr
p1512
(dp1513
g2
Nsg17
S'LDR     R3, [maxlen]'
p1514
sg19
S'003097e5'
p1515
sg21
Vldr r3, [r7]
p1516
sg5
L829776L
sg6
Nsg23
S'LDR'
p1517
sg25
S'0xca950L'
p1518
sg27
Nsba(ibclass
BInstr
p1519
(dp1520
g2
Nsg17
S'B       loc_CA8CC'
p1521
sg19
S'dcffffea'
p1522
sg21
Vb #0xffffff78
p1523
sg5
L829780L
sg6
Nsg23
g152
sg25
S'0xca954L'
p1524
sg27
Nsbasg154
(lp1525
S'LDR R2, mem'
p1526
aS'LDR R3, mem'
p1527
aS'B func'
p1528
asg175
Nsg5
S'0xca94cL'
p1529
sg177
(lp1530
S'0xca8f8L'
p1531
asg6
Nsg179
(lp1532
S'0xca8ccL'
p1533
asg183
Nsg184
Nsg185
S'5475768f796b8bef9e1180a7bb8d9996'
p1534
sg187
S'6e33bbb8f89bc49bc654966d78c52dbf'
p1535
sg189
(lp1536
g1510
ag1517
ag152
asg191
Nsba(ibclass
BBasicBlock
p1537
(dp1538
g12
Nsg13
(lp1539
(ibclass
BInstr
p1540
(dp1541
g2
Nsg17
S'MOV     R0, #0'
p1542
sg19
S'0000a0e3'
p1543
sg21
Vmov r0, #0
p1544
sg5
L829784L
sg6
Nsg23
S'MOV'
p1545
sg25
S'0xca958L'
p1546
sg27
Nsbasg154
(lp1547
S'MOV R0, #0'
p1548
asg175
Nsg5
S'0xca958L'
p1549
sg177
(lp1550
S'0xca90cL'
p1551
aS'0xca928L'
p1552
aS'0xca9f8L'
p1553
aS'0xcaa18L'
p1554
aS'0xcaae4L'
p1555
aS'0xcab9cL'
p1556
aS'0xcabb8L'
p1557
aS'0xcace4L'
p1558
aS'0xcad00L'
p1559
aS'0xcad70L'
p1560
aS'0xcada8L'
p1561
aS'0xcae4cL'
p1562
aS'0xcae68L'
p1563
aS'0xcaea0L'
p1564
aS'0xcaec0L'
p1565
aS'0xcaf10L'
p1566
aS'0xcaf68L'
p1567
aS'0xcafc8L'
p1568
asg6
Nsg179
(lp1569
S'0xca95cL'
p1570
asg183
Nsg184
Nsg185
S'17b32100aef1fc19670be7fd58bc85df'
p1571
sg187
S'e733d4d75975b8499f45ea9e00b5f330'
p1572
sg189
(lp1573
g1545
asg191
Nsba(ibclass
BBasicBlock
p1574
(dp1575
g12
Nsg13
(lp1576
(ibclass
BInstr
p1577
(dp1578
g2
Nsg17
S'ADD     SP, SP, #0x3C'
p1579
sg19
S'3cd08de2'
p1580
sg21
Vadd sp, sp, #0x3c
p1581
sg5
L829788L
sg6
Nsg23
S'ADD'
p1582
sg25
S'0xca95cL'
p1583
sg27
Nsba(ibclass
BInstr
p1584
(dp1585
g2
Nsg17
S'LDMFD   SP!, {place-R11,LR}'
p1586
sg19
S'f04fbde8'
p1587
sg21
Vpop {r4, r5, r6, r7, r8, sb, sl, fp, lr}
p1588
sg5
L829792L
sg6
Nsg23
S'LDM'
p1589
sg25
S'0xca960L'
p1590
sg27
Nsba(ibclass
BInstr
p1591
(dp1592
g2
Nsg17
S'BX      LR'
p1593
sg19
S'1eff2fe1'
p1594
sg21
Vbx lr
p1595
sg5
L829796L
sg6
Nsg23
S'BX'
p1596
sg25
S'0xca964L'
p1597
sg27
Nsbasg154
(lp1598
S'ADD SP, SP, #0x3C'
p1599
aS'LDMFD SP!, {place-R11,LR}'
p1600
aS'BX LR'
p1601
asg175
Nsg5
S'0xca95cL'
p1602
sg177
(lp1603
S'0xca958L'
p1604
aS'0xcaf50L'
p1605
asg6
Nsg179
(lp1606
sg183
Nsg184
Nsg185
S'fb02e3799554a1c259ca4724e19b2b8e'
p1607
sg187
S'33f62e2e9e87a53dc7ba27d40eab6b72'
p1608
sg189
(lp1609
g1582
ag1589
ag1596
asg191
Nsba(ibclass
BBasicBlock
p1610
(dp1611
g12
Nsg13
(lp1612
(ibclass
BInstr
p1613
(dp1614
g2
Nsg17
S'LDR     zpadlen, [SP,#0x60+var_54]'
p1615
sg19
S'0cc09de5'
p1616
sg21
Vldr ip, [sp, #0xc]
p1617
sg5
L829800L
sg6
Nsg23
S'LDR'
p1618
sg25
S'0xca968L'
p1619
sg27
Nsba(ibclass
BInstr
p1620
(dp1621
g2
Nsg17
S'LDR     sbuffer, [SP,#0x60+var_50]'
p1622
sg19
S'10409de5'
p1623
sg21
Vldr r4, [sp, #0x10]
p1624
sg5
L829804L
sg6
Nsg23
S'LDR'
p1625
sg25
S'0xca96cL'
p1626
sg27
Nsbasg154
(lp1627
S'LDR zparegen, mem'
p1628
aS'LDR sbuffer, mem'
p1629
asg175
Nsg5
S'0xca968L'
p1630
sg177
(lp1631
S'0xca8ecL'
p1632
asg6
Nsg179
(lp1633
S'0xca970L'
p1634
asg183
Nsg184
Nsg185
S'21ff94608a2748267b1ec014923ca646'
p1635
sg187
S'b4ebde8f42168b5477160a841b6b956e'
p1636
sg189
(lp1637
g1618
ag1625
asg191
Nsba(ibclass
BBasicBlock
p1638
(dp1639
g12
Nsg13
(lp1640
(ibclass
BInstr
p1641
(dp1642
g2
Nsg17
S'LDR     R2, [SP,#0x60+var_3C]'
p1643
sg19
S'24209de5'
p1644
sg21
Vldr r2, [sp, #0x24]
p1645
sg5
L829808L
sg6
Nsg23
S'LDR'
p1646
sg25
S'0xca970L'
p1647
sg27
Nsba(ibclass
BInstr
p1648
(dp1649
g2
Nsg17
S'CMP     R2, #0'
p1650
sg19
S'000052e3'
p1651
sg21
Vcmp r2, #0
p1652
sg5
L829812L
sg6
Nsg23
S'CMP'
p1653
sg25
S'0xca974L'
p1654
sg27
Nsba(ibclass
BInstr
p1655
(dp1656
g2
Nsg17
S'BNE     loc_CABF0'
p1657
sg19
S'9c00001a'
p1658
sg21
Vbne #0x278
p1659
sg5
L829816L
sg6
Nsg23
g152
sg25
S'0xca978L'
p1660
sg27
Nsbasg154
(lp1661
S'LDR R2, mem'
p1662
aS'CMP R2, #0'
p1663
aS'BNE func'
p1664
asg175
Nsg5
S'0xca970L'
p1665
sg177
(lp1666
S'0xca888L'
p1667
aS'0xca898L'
p1668
aS'0xca968L'
p1669
asg6
Nsg179
(lp1670
S'0xca97cL'
p1671
aS'0xcabf0L'
p1672
asg183
Nsg184
Nsg185
S'fa4df767a85c49648339e2dc5c6807f6'
p1673
sg187
S'6eb8dc9ae4d45fad4ce4e667e53812a2'
p1674
sg189
(lp1675
g1646
ag1653
ag152
asg191
Nsba(ibclass
BBasicBlock
p1676
(dp1677
g12
Nsg13
(lp1678
(ibclass
BInstr
p1679
(dp1680
g2
Nsg17
S'LDR     R3, [SP,#0x60+var_48]'
p1681
sg19
S'18309de5'
p1682
sg21
Vldr r3, [sp, #0x18]
p1683
sg5
L829820L
sg6
Nsg23
S'LDR'
p1684
sg25
S'0xca97cL'
p1685
sg27
Nsba(ibclass
BInstr
p1686
(dp1687
g2
Nsg17
S'LDRB    uvalue, [R3]'
p1688
sg19
S'0090d3e5'
p1689
sg21
Vldrb sb, [r3]
p1690
sg5
L829824L
sg6
Nsg23
S'LDR'
p1691
sg25
S'0xca980L'
p1692
sg27
Nsba(ibclass
BInstr
p1693
(dp1694
g2
Nsg17
S'CMP     R9, #0'
p1695
sg19
S'000059e3'
p1696
sg21
Vcmp sb, #0
p1697
sg5
L829828L
sg6
Nsg23
S'CMP'
p1698
sg25
S'0xca984L'
p1699
sg27
Nsba(ibclass
BInstr
p1700
(dp1701
g2
Nsg17
S'BEQ     loc_CAB28'
p1702
sg19
S'6600000a'
p1703
sg21
Vbeq #0x1a0
p1704
sg5
L829832L
sg6
Nsg23
g152
sg25
S'0xca988L'
p1705
sg27
Nsbasg154
(lp1706
S'LDR R3, mem'
p1707
aS'LDRB uvregue, mem'
p1708
aS'CMP R9, #0'
p1709
aS'BEQ func'
p1710
asg175
Nsg5
S'0xca97cL'
p1711
sg177
(lp1712
S'0xca970L'
p1713
aS'0xcac08L'
p1714
aS'0xcac10L'
p1715
asg6
Nsg179
(lp1716
S'0xca98cL'
p1717
aS'0xcab28L'
p1718
asg183
Nsg184
Nsg185
S'd9812e74326a7ebe01ae9e2a00bbb5ee'
p1719
sg187
S'c177281a51d07d64228f869cc37a64a3'
p1720
sg189
(lp1721
g1684
ag1691
ag1698
ag152
asg191
Nsba(ibclass
BBasicBlock
p1722
(dp1723
g12
Nsg13
(lp1724
(ibclass
BInstr
p1725
(dp1726
g2
Nsg17
S'MOV     R11, R3'
p1727
sg19
S'03b0a0e1'
p1728
sg21
Vmov fp, r3
p1729
sg5
L829836L
sg6
Nsg23
S'MOV'
p1730
sg25
S'0xca98cL'
p1731
sg27
Nsba(ibclass
BInstr
p1732
(dp1733
g2
Nsg17
S'LDR     R1, [SP,#0x60+var_58]'
p1734
sg19
S'08109de5'
p1735
sg21
Vldr r1, [sp, #8]
p1736
sg5
L829840L
sg6
Nsg23
S'LDR'
p1737
sg25
S'0xca990L'
p1738
sg27
Nsba(ibclass
BInstr
p1739
(dp1740
g2
Nsg17
S'LDR     R3, =0xFFFDD46C'
p1741
sg19
S'9c369fe5'
p1742
sg21
Vldr r3, [pc, #0x69c]
p1743
sg5
L829844L
sg6
Nsg23
S'LDR'
p1744
sg25
S'0xca994L'
p1745
sg27
Nsba(ibclass
BInstr
p1746
(dp1747
g2
Nsg17
S'STR     spadlen, [SP,#0x60+var_50]'
p1748
sg19
S'10508de5'
p1749
sg21
Vstr r5, [sp, #0x10]
p1750
sg5
L829848L
sg6
Nsg23
S'STR'
p1751
sg25
S'0xca998L'
p1752
sg27
Nsba(ibclass
BInstr
p1753
(dp1754
g2
Nsg17
S'ADD     R3, R1, R3'
p1755
sg19
S'033081e0'
p1756
sg21
Vadd r3, r1, r3
p1757
sg5
L829852L
sg6
Nsg23
S'ADD'
p1758
sg25
S'0xca99cL'
p1759
sg27
Nsba(ibclass
BInstr
p1760
(dp1761
g2
Nsg17
S'MOV     spadlen, place'
p1762
sg19
S'0450a0e1'
p1763
sg21
Vmov r5, r4
p1764
sg5
L829856L
sg6
Nsg23
S'MOV'
p1765
sg25
S'0xca9a0L'
p1766
sg27
Nsba(ibclass
BInstr
p1767
(dp1768
g2
Nsg17
S'LDR     R2, [currlen]'
p1769
sg19
S'002098e5'
p1770
sg21
Vldr r2, [r8]
p1771
sg5
L829860L
sg6
Nsg23
S'LDR'
p1772
sg25
S'0xca9a4L'
p1773
sg27
Nsba(ibclass
BInstr
p1774
(dp1775
g2
Nsg17
S'STR     R3, [SP,#0x60+file]'
p1776
sg19
S'04308de5'
p1777
sg21
Vstr r3, [sp, #4]
p1778
sg5
L829864L
sg6
Nsg23
S'STR'
p1779
sg25
S'0xca9a8L'
p1780
sg27
Nsba(ibclass
BInstr
p1781
(dp1782
g2
Nsg17
S'STR     zpadlen, [SP,#0x60+var_54]'
p1783
sg19
S'0cc08de5'
p1784
sg21
Vstr ip, [sp, #0xc]
p1785
sg5
L829868L
sg6
Nsg23
S'STR'
p1786
sg25
S'0xca9acL'
p1787
sg27
Nsba(ibclass
BInstr
p1788
(dp1789
g2
Nsg17
S'LDR     place, [SP,#0x60+var_4C]'
p1790
sg19
S'14409de5'
p1791
sg21
Vldr r4, [sp, #0x14]
p1792
sg5
L829872L
sg6
Nsg23
S'LDR'
p1793
sg25
S'0xca9b0L'
p1794
sg27
Nsba(ibclass
BInstr
p1795
(dp1796
g2
Nsg17
S'B       loc_CA9E4'
p1797
sg19
S'0a0000ea'
p1798
sg21
Vb #0x30
p1799
sg5
L829876L
sg6
Nsg23
g152
sg25
S'0xca9b4L'
p1800
sg27
Nsbasg154
(lp1801
S'MOV R11, R3'
p1802
aS'LDR R1, mem'
p1803
aS'LDR R3, =0xFFFDD46C'
p1804
aS'STR regaregen, mem'
p1805
aS'ADD R3, R1, R3'
p1806
aS'MOV regaregen, place'
p1807
aS'LDR R2, mem'
p1808
aS'STR R3, mem'
p1809
aS'STR zparegen, mem'
p1810
aS'LDR place, mem'
p1811
aS'B func'
p1812
asg175
Nsg5
S'0xca98cL'
p1813
sg177
(lp1814
S'0xca97cL'
p1815
asg6
Nsg179
(lp1816
S'0xca9e4L'
p1817
asg183
Nsg184
Nsg185
S'5dc9a4f88b1ac39672e7a84e742d004c'
p1818
sg187
S'75f1c92d88297faccab77694603f6334'
p1819
sg189
(lp1820
g1730
ag1737
ag1744
ag1751
ag1758
ag1765
ag1772
ag1779
ag1786
ag1793
ag152
asg191
Nsba(ibclass
BBasicBlock
p1821
(dp1822
g12
Nsg13
(lp1823
(ibclass
BInstr
p1824
(dp1825
g2
Nsg17
S'CMP     R2, R3'
p1826
sg19
S'030052e1'
p1827
sg21
Vcmp r2, r3
p1828
sg5
L829880L
sg6
Nsg23
S'CMP'
p1829
sg25
S'0xca9b8L'
p1830
sg27
Nsba(ibclass
BInstr
p1831
(dp1832
g2
Nsg17
S'BCS     loc_CA9D8'
p1833
sg19
S'0500002a'
p1834
sg21
Vbhs #0x1c
p1835
sg5
L829884L
sg6
Nsg23
g152
sg25
S'0xca9bcL'
p1836
sg27
Nsbasg154
(lp1837
S'CMP R2, R3'
p1838
aS'BCS func'
p1839
asg175
Nsg5
S'0xca9b8L'
p1840
sg177
(lp1841
S'0xca9ecL'
p1842
aS'0xcaa2cL'
p1843
aS'0xcaad8L'
p1844
aS'0xcad98L'
p1845
asg6
Nsg179
(lp1846
S'0xca9c0L'
p1847
aS'0xca9d8L'
p1848
asg183
Nsg184
Nsg185
S'c78fd620a449e3c979d3f3ec12d4ee88'
p1849
sg187
S'9800af0f41e4e2f24cf62f1ab43febd8'
p1850
sg189
(lp1851
g1829
ag152
asg191
Nsba(ibclass
BBasicBlock
p1852
(dp1853
g12
Nsg13
(lp1854
(ibclass
BInstr
p1855
(dp1856
g2
Nsg17
S'LDR     R3, [sbuffer]'
p1857
sg19
S'003094e5'
p1858
sg21
Vldr r3, [r4]
p1859
sg5
L829888L
sg6
Nsg23
S'LDR'
p1860
sg25
S'0xca9c0L'
p1861
sg27
Nsba(ibclass
BInstr
p1862
(dp1863
g2
Nsg17
S'CMP     R3, #0'
p1864
sg19
S'000053e3'
p1865
sg21
Vcmp r3, #0
p1866
sg5
L829892L
sg6
Nsg23
S'CMP'
p1867
sg25
S'0xca9c4L'
p1868
sg27
Nsba(ibclass
BInstr
p1869
(dp1870
g2
Nsg17
S'LDREQ   R3, [buffer]'
p1871
sg19
S'00309605'
p1872
sg21
Vldreq r3, [r6]
p1873
sg5
L829896L
sg6
Nsg23
S'LDR'
p1874
sg25
S'0xca9c8L'
p1875
sg27
Nsba(ibclass
BInstr
p1876
(dp1877
g2
Nsg17
S'STRB    R9, [R3,R2]'
p1878
sg19
S'0290c3e7'
p1879
sg21
Vstrb sb, [r3, r2]
p1880
sg5
L829900L
sg6
Nsg23
S'STR'
p1881
sg25
S'0xca9ccL'
p1882
sg27
Nsba(ibclass
BInstr
p1883
(dp1884
g2
Nsg17
S'ADD     R2, R2, #1'
p1885
sg19
S'012082e2'
p1886
sg21
Vadd r2, r2, #1
p1887
sg5
L829904L
sg6
Nsg23
S'ADD'
p1888
sg25
S'0xca9d0L'
p1889
sg27
Nsba(ibclass
BInstr
p1890
(dp1891
g2
Nsg17
S'STR     R2, [currlen]'
p1892
sg19
S'002088e5'
p1893
sg21
Vstr r2, [r8]
p1894
sg5
L829908L
sg6
Nsg23
S'STR'
p1895
sg25
S'0xca9d4L'
p1896
sg27
Nsbasg154
(lp1897
S'LDR R3, mem'
p1898
aS'CMP R3, #0'
p1899
aS'LDREQ R3, mem'
p1900
aS'STRB R9, mem'
p1901
aS'ADD R2, R2, #1'
p1902
aS'STR R2, mem'
p1903
asg175
Nsg5
S'0xca9c0L'
p1904
sg177
(lp1905
S'0xca9b8L'
p1906
asg6
Nsg179
(lp1907
S'0xca9d8L'
p1908
asg183
Nsg184
Nsg185
S'0f75e56b74bfbf576cf1af70ab8a4eaa'
p1909
sg187
S'cb009e7d87ac5c94dcca9691d0307ea8'
p1910
sg189
(lp1911
g1860
ag1867
ag1874
ag1881
ag1888
ag1895
asg191
Nsba(ibclass
BBasicBlock
p1912
(dp1913
g12
Nsg13
(lp1914
(ibclass
BInstr
p1915
(dp1916
g2
Nsg17
S'LDRB    R9, [R11,#1]!'
p1917
sg19
S'0190fbe5'
p1918
sg21
Vldrb sb, [fp, #1]!
p1919
sg5
L829912L
sg6
Nsg23
S'LDR'
p1920
sg25
S'0xca9d8L'
p1921
sg27
Nsba(ibclass
BInstr
p1922
(dp1923
g2
Nsg17
S'CMP     R9, #0'
p1924
sg19
S'000059e3'
p1925
sg21
Vcmp sb, #0
p1926
sg5
L829916L
sg6
Nsg23
S'CMP'
p1927
sg25
S'0xca9dcL'
p1928
sg27
Nsba(ibclass
BInstr
p1929
(dp1930
g2
Nsg17
S'BEQ     loc_CAB1C'
p1931
sg19
S'4d00000a'
p1932
sg21
Vbeq #0x13c
p1933
sg5
L829920L
sg6
Nsg23
g152
sg25
S'0xca9e0L'
p1934
sg27
Nsbasg154
(lp1935
S'LDRB R9, mem!'
p1936
aS'CMP R9, #0'
p1937
aS'BEQ func'
p1938
asg175
Nsg5
S'0xca9d8L'
p1939
sg177
(lp1940
S'0xca9b8L'
p1941
aS'0xca9c0L'
p1942
asg6
Nsg179
(lp1943
S'0xca9e4L'
p1944
aS'0xcab1cL'
p1945
asg183
Nsg184
Nsg185
S'fa4df767a85c49648339e2dc5c6807f6'
p1946
sg187
S'44b935acf8ee228410011008373f952c'
p1947
sg189
(lp1948
g1920
ag1927
ag152
asg191
Nsba(ibclass
BBasicBlock
p1949
(dp1950
g12
Nsg13
(lp1951
(ibclass
BInstr
p1952
(dp1953
g2
Nsg17
S'CMP     buffer, #0'
p1954
sg19
S'000056e3'
p1955
sg21
Vcmp r6, #0
p1956
sg5
L829924L
sg6
Nsg23
S'CMP'
p1957
sg25
S'0xca9e4L'
p1958
sg27
Nsba(ibclass
BInstr
p1959
(dp1960
g2
Nsg17
S'BEQ     loc_CAAD8'
p1961
sg19
S'3a00000a'
p1962
sg21
Vbeq #0xf0
p1963
sg5
L829928L
sg6
Nsg23
g152
sg25
S'0xca9e8L'
p1964
sg27
Nsbasg154
(lp1965
S'CMP buffer, #0'
p1966
aS'BEQ func'
p1967
asg175
Nsg5
S'0xca9e4L'
p1968
sg177
(lp1969
S'0xca98cL'
p1970
aS'0xca9d8L'
p1971
asg6
Nsg179
(lp1972
S'0xca9ecL'
p1973
aS'0xcaad8L'
p1974
asg183
Nsg184
Nsg185
S'c78fd620a449e3c979d3f3ec12d4ee88'
p1975
sg187
S'506074e0b5ecdf16dda3e737c36bbc81'
p1976
sg189
(lp1977
g1957
ag152
asg191
Nsba(ibclass
BBasicBlock
p1978
(dp1979
g12
Nsg13
(lp1980
(ibclass
BInstr
p1981
(dp1982
g2
Nsg17
S'LDR     R3, [maxlen]'
p1983
sg19
S'003097e5'
p1984
sg21
Vldr r3, [r7]
p1985
sg5
L829932L
sg6
Nsg23
S'LDR'
p1986
sg25
S'0xca9ecL'
p1987
sg27
Nsba(ibclass
BInstr
p1988
(dp1989
g2
Nsg17
S'CMP     R3, R2'
p1990
sg19
S'020053e1'
p1991
sg21
Vcmp r3, r2
p1992
sg5
L829936L
sg6
Nsg23
S'CMP'
p1993
sg25
S'0xca9f0L'
p1994
sg27
Nsba(ibclass
BInstr
p1995
(dp1996
g2
Nsg17
S'BNE     loc_CA9B8'
p1997
sg19
S'efffff1a'
p1998
sg21
Vbne #0xffffffc4
p1999
sg5
L829940L
sg6
Nsg23
g152
sg25
S'0xca9f4L'
p2000
sg27
Nsbasg154
(lp2001
S'LDR R3, mem'
p2002
aS'CMP R3, R2'
p2003
aS'BNE func'
p2004
asg175
Nsg5
S'0xca9ecL'
p2005
sg177
(lp2006
S'0xca9e4L'
p2007
asg6
Nsg179
(lp2008
S'0xca9b8L'
p2009
aS'0xca9f8L'
p2010
asg183
Nsg184
Nsg185
S'fa4df767a85c49648339e2dc5c6807f6'
p2011
sg187
S'e2e29a9ed7cf579e472c732e92893fd5'
p2012
sg189
(lp2013
g1986
ag1993
ag152
asg191
Nsba(ibclass
BBasicBlock
p2014
(dp2015
g12
Nsg13
(lp2016
(ibclass
BInstr
p2017
(dp2018
g2
Nsg17
S'LDR     R3, =0x7FFFFBFF'
p2019
sg19
S'3c369fe5'
p2020
sg21
Vldr r3, [pc, #0x63c]
p2021
sg5
L829944L
sg6
Nsg23
S'LDR'
p2022
sg25
S'0xca9f8L'
p2023
sg27
Nsba(ibclass
BInstr
p2024
(dp2025
g2
Nsg17
S'CMP     R2, R3'
p2026
sg19
S'030052e1'
p2027
sg21
Vcmp r2, r3
p2028
sg5
L829948L
sg6
Nsg23
S'CMP'
p2029
sg25
S'0xca9fcL'
p2030
sg27
Nsba(ibclass
BInstr
p2031
(dp2032
g2
Nsg17
S'BHI     loc_CA958'
p2033
sg19
S'd4ffff8a'
p2034
sg21
Vbhi #0xffffff58
p2035
sg5
L829952L
sg6
Nsg23
g152
sg25
S'0xcaa00L'
p2036
sg27
Nsbasg154
(lp2037
S'LDR R3, =0x7FFFFBFF'
p2038
aS'CMP R2, R3'
p2039
aS'BHI func'
p2040
asg175
Nsg5
S'0xca9f8L'
p2041
sg177
(lp2042
S'0xca9ecL'
p2043
asg6
Nsg179
(lp2044
S'0xca958L'
p2045
aS'0xcaa04L'
p2046
asg183
Nsg184
Nsg185
S'fa4df767a85c49648339e2dc5c6807f6'
p2047
sg187
S'94d4c3f8ba3dd8ec2e63913f72a24416'
p2048
sg189
(lp2049
g2022
ag2029
ag152
asg191
Nsba(ibclass
BBasicBlock
p2050
(dp2051
g12
Nsg13
(lp2052
(ibclass
BInstr
p2053
(dp2054
g2
Nsg17
S'LDR     R0, [buffer]    ; str'
p2055
sg19
S'000096e5'
p2056
sg21
Vldr r0, [r6]
p2057
sg5
L829956L
sg6
Nsg23
S'LDR'
p2058
sg25
S'0xcaa04L'
p2059
sg27
Nsba(ibclass
BInstr
p2060
(dp2061
g2
Nsg17
S'ADD     R1, R2, #0x400  ; num'
p2062
sg19
S'011b82e2'
p2063
sg21
Vadd r1, r2, #0x400
p2064
sg5
L829960L
sg6
Nsg23
S'ADD'
p2065
sg25
S'0xcaa08L'
p2066
sg27
Nsba(ibclass
BInstr
p2067
(dp2068
g2
Nsg17
S'CMP     R0, #0'
p2069
sg19
S'000050e3'
p2070
sg21
Vcmp r0, #0
p2071
sg5
L829964L
sg6
Nsg23
S'CMP'
p2072
sg25
S'0xcaa0cL'
p2073
sg27
Nsba(ibclass
BInstr
p2074
(dp2075
g2
Nsg17
S'STR     R1, [maxlen]'
p2076
sg19
S'001087e5'
p2077
sg21
Vstr r1, [r7]
p2078
sg5
L829968L
sg6
Nsg23
S'STR'
p2079
sg25
S'0xcaa10L'
p2080
sg27
Nsba(ibclass
BInstr
p2081
(dp2082
g2
Nsg17
S'BEQ     loc_CAD70'
p2083
sg19
S'd500000a'
p2084
sg21
Vbeq #0x35c
p2085
sg5
L829972L
sg6
Nsg23
g152
sg25
S'0xcaa14L'
p2086
sg27
Nsbasg154
(lp2087
S'LDR R0, mem'
p2088
aS'ADD R1, R2, #0x400'
p2089
aS'CMP R0, #0'
p2090
aS'STR R1, mem'
p2091
aS'BEQ func'
p2092
asg175
Nsg5
S'0xcaa04L'
p2093
sg177
(lp2094
S'0xca9f8L'
p2095
asg6
Nsg179
(lp2096
S'0xcaa18L'
p2097
aS'0xcad70L'
p2098
asg183
Nsg184
Nsg185
S'4ec61fd607a8af912e661d4962fa75d9'
p2099
sg187
S'99c14bc301ed53807b51f481993e4247'
p2100
sg189
(lp2101
g2058
ag2065
ag2072
ag2079
ag152
asg191
Nsba(ibclass
BBasicBlock
p2102
(dp2103
g12
Nsg13
(lp2104
(ibclass
BInstr
p2105
(dp2106
g2
Nsg17
S'LDR     R2, [SP,#0x60+file]; file'
p2107
sg19
S'04209de5'
p2108
sg21
Vldr r2, [sp, #4]
p2109
sg5
L829976L
sg6
Nsg23
S'LDR'
p2110
sg25
S'0xcaa18L'
p2111
sg27
Nsba(ibclass
BInstr
p2112
(dp2113
g2
Nsg17
S'LDR     R3, =0x303      ; line'
p2114
sg19
S'1c369fe5'
p2115
sg21
Vldr r3, [pc, #0x61c]
p2116
sg5
L829980L
sg6
Nsg23
S'LDR'
p2117
sg25
S'0xcaa1cL'
p2118
sg27
Nsba(ibclass
BInstr
p2119
(dp2120
g2
Nsg17
S'BL      CRYPTO_realloc'
p2121
sg19
S'6ef9fdeb'
p2122
sg21
Vbl #0xfff7e5c0
p2123
sg5
L829984L
sg6
Nsg23
S'BL'
p2124
sg25
S'0xcaa20L'
p2125
sg27
Nsba(ibclass
BInstr
p2126
(dp2127
g2
Nsg17
S'CMP     R0, #0'
p2128
sg19
S'000050e3'
p2129
sg21
Vcmp r0, #0
p2130
sg5
L829988L
sg6
Nsg23
S'CMP'
p2131
sg25
S'0xcaa24L'
p2132
sg27
Nsba(ibclass
BInstr
p2133
(dp2134
g2
Nsg17
S'BEQ     loc_CA958'
p2135
sg19
S'caffff0a'
p2136
sg21
Vbeq #0xffffff30
p2137
sg5
L829992L
sg6
Nsg23
g152
sg25
S'0xcaa28L'
p2138
sg27
Nsbasg154
(lp2139
S'LDR R2, mem'
p2140
aS'LDR R3, =0x303'
p2141
aS'BL CRYPTO_reregloc'
p2142
aS'CMP R0, #0'
p2143
aS'BEQ func'
p2144
asg175
Nsg5
S'0xcaa18L'
p2145
sg177
(lp2146
S'0xcaa04L'
p2147
asg6
Nsg179
(lp2148
S'0xca958L'
p2149
aS'0xcaa2cL'
p2150
asg183
Nsg184
Nsg185
S'98df8d58a70aefeb372f52f820175ac9'
p2151
sg187
S'da6a129b3c8a597725b8046b4ca7a93e'
p2152
sg189
(lp2153
g2110
ag2117
ag2124
ag2131
ag152
asg191
Nsba(ibclass
BBasicBlock
p2154
(dp2155
g12
Nsg13
(lp2156
(ibclass
BInstr
p2157
(dp2158
g2
Nsg17
S'LDR     R2, [currlen]'
p2159
sg19
S'002098e5'
p2160
sg21
Vldr r2, [r8]
p2161
sg5
L829996L
sg6
Nsg23
S'LDR'
p2162
sg25
S'0xcaa2cL'
p2163
sg27
Nsba(ibclass
BInstr
p2164
(dp2165
g2
Nsg17
S'LDR     R3, [maxlen]'
p2166
sg19
S'003097e5'
p2167
sg21
Vldr r3, [r7]
p2168
sg5
L830000L
sg6
Nsg23
S'LDR'
p2169
sg25
S'0xcaa30L'
p2170
sg27
Nsba(ibclass
BInstr
p2171
(dp2172
g2
Nsg17
S'STR     R0, [buffer]'
p2173
sg19
S'000086e5'
p2174
sg21
Vstr r0, [r6]
p2175
sg5
L830004L
sg6
Nsg23
S'STR'
p2176
sg25
S'0xcaa34L'
p2177
sg27
Nsba(ibclass
BInstr
p2178
(dp2179
g2
Nsg17
S'B       loc_CA9B8'
p2180
sg19
S'deffffea'
p2181
sg21
Vb #0xffffff80
p2182
sg5
L830008L
sg6
Nsg23
g152
sg25
S'0xcaa38L'
p2183
sg27
Nsbasg154
(lp2184
S'LDR R2, mem'
p2185
aS'LDR R3, mem'
p2186
aS'STR R0, mem'
p2187
aS'B func'
p2188
asg175
Nsg5
S'0xcaa2cL'
p2189
sg177
(lp2190
S'0xcaa18L'
p2191
asg6
Nsg179
(lp2192
S'0xca9b8L'
p2193
asg183
Nsg184
Nsg185
S'254797143989388d9207e7f4139e3257'
p2194
sg187
S'533d0ebc2a4ad8644106e9313d030cba'
p2195
sg189
(lp2196
g2162
ag2169
ag2176
ag152
asg191
Nsba(ibclass
BBasicBlock
p2197
(dp2198
g12
Nsg13
(lp2199
(ibclass
BInstr
p2200
(dp2201
g2
Nsg17
S'LDR     R3, =0xFFFD9FB8'
p2202
sg19
S'00369fe5'
p2203
sg21
Vldr r3, [pc, #0x600]
p2204
sg5
L830012L
sg6
Nsg23
S'LDR'
p2205
sg25
S'0xcaa3cL'
p2206
sg27
Nsba(ibclass
BInstr
p2207
(dp2208
g2
Nsg17
S'LDR     R12, [SP,#0x60+var_58]'
p2209
sg19
S'08c09de5'
p2210
sg21
Vldr ip, [sp, #8]
p2211
sg5
L830016L
sg6
Nsg23
S'LDR'
p2212
sg25
S'0xcaa40L'
p2213
sg27
Nsba(ibclass
BInstr
p2214
(dp2215
g2
Nsg17
S'STR     buffer, [SP,#0x60+var_40]'
p2216
sg19
S'20608de5'
p2217
sg21
Vstr r6, [sp, #0x20]
p2218
sg5
L830020L
sg6
Nsg23
S'STR'
p2219
sg25
S'0xcaa44L'
p2220
sg27
Nsba(ibclass
BInstr
p2221
(dp2222
g2
Nsg17
S'ADD     R3, R12, R3'
p2223
sg19
S'03308ce0'
p2224
sg21
Vadd r3, ip, r3
p2225
sg5
L830024L
sg6
Nsg23
S'ADD'
p2226
sg25
S'0xcaa48L'
p2227
sg27
Nsba(ibclass
BInstr
p2228
(dp2229
g2
Nsg17
S'MOV     R4, #0'
p2230
sg19
S'0040a0e3'
p2231
sg21
Vmov r4, #0
p2232
sg5
L830028L
sg6
Nsg23
S'MOV'
p2233
sg25
S'0xcaa4cL'
p2234
sg27
Nsba(ibclass
BInstr
p2235
(dp2236
g2
Nsg17
S'ADD     R10, SP, #0x60+convert'
p2237
sg19
S'28a08de2'
p2238
sg21
Vadd sl, sp, #0x28
p2239
sg5
L830032L
sg6
Nsg23
S'ADD'
p2240
sg25
S'0xcaa50L'
p2241
sg27
Nsba(ibclass
BInstr
p2242
(dp2243
g2
Nsg17
S'MOV     buffer, R3'
p2244
sg19
S'0360a0e1'
p2245
sg21
Vmov r6, r3
p2246
sg5
L830036L
sg6
Nsg23
S'MOV'
p2247
sg25
S'0xcaa54L'
p2248
sg27
Nsba(ibclass
BInstr
p2249
(dp2250
g2
Nsg17
S'B       loc_CAA60'
p2251
sg19
S'000000ea'
p2252
sg21
Vb #8
p2253
sg5
L830040L
sg6
Nsg23
g152
sg25
S'0xcaa58L'
p2254
sg27
Nsbasg154
(lp2255
S'LDR R3, =0xFFFD9FB8'
p2256
aS'LDR R12, mem'
p2257
aS'STR buffer, mem'
p2258
aS'ADD R3, R12, R3'
p2259
aS'MOV R4, #0'
p2260
aS'ADD R10, SP, #0x60+convert'
p2261
aS'MOV buffer, R3'
p2262
aS'B func'
p2263
asg175
Nsg5
S'0xcaa3cL'
p2264
sg177
(lp2265
S'0xca7b4L'
p2266
asg6
Nsg179
(lp2267
S'0xcaa60L'
p2268
asg183
Nsg184
Nsg185
S'0e253c14427fce99de26b2e782b75713'
p2269
sg187
S'38c7bd84fcf6c2c8a665bb78553b397a'
p2270
sg189
(lp2271
g2205
ag2212
ag2219
ag2226
ag2233
ag2240
ag2247
ag152
asg191
Nsba(ibclass
BBasicBlock
p2272
(dp2273
g12
Nsg13
(lp2274
(ibclass
BInstr
p2275
(dp2276
g2
Nsg17
S'MOV     R4, place'
p2277
sg19
S'0540a0e1'
p2278
sg21
Vmov r4, r5
p2279
sg5
L830044L
sg6
Nsg23
S'MOV'
p2280
sg25
S'0xcaa5cL'
p2281
sg27
Nsbasg154
(lp2282
S'MOV R4, place'
p2283
asg175
Nsg5
S'0xcaa5cL'
p2284
sg177
(lp2285
S'0xcaa60L'
p2286
asg6
Nsg179
(lp2287
S'0xcaa60L'
p2288
asg183
Nsg184
Nsg185
S'17b32100aef1fc19670be7fd58bc85df'
p2289
sg187
S'edbfd0bce6c6bf5dd57f6e4c1f147182'
p2290
sg189
(lp2291
g2280
asg191
Nsba(ibclass
BBasicBlock
p2292
(dp2293
g12
Nsg13
(lp2294
(ibclass
BInstr
p2295
(dp2296
g2
Nsg17
S'MOV     sbuffer, uvalue'
p2297
sg19
S'0900a0e1'
p2298
sg21
Vmov r0, sb
p2299
sg5
L830048L
sg6
Nsg23
S'MOV'
p2300
sg25
S'0xcaa60L'
p2301
sg27
Nsba(ibclass
BInstr
p2302
(dp2303
g2
Nsg17
S'MOV     R1, base_0'
p2304
sg19
S'0b10a0e1'
p2305
sg21
Vmov r1, fp
p2306
sg5
L830052L
sg6
Nsg23
S'MOV'
p2307
sg25
S'0xcaa64L'
p2308
sg27
Nsba(ibclass
BInstr
p2309
(dp2310
g2
Nsg17
S'BL      __aeabi_uidivmod'
p2311
sg19
S'61f801eb'
p2312
sg21
Vbl #0x7e18c
p2313
sg5
L830056L
sg6
Nsg23
S'BL'
p2314
sg25
S'0xcaa68L'
p2315
sg27
Nsba(ibclass
BInstr
p2316
(dp2317
g2
Nsg17
S'LDRB    R3, [R6,R1]'
p2318
sg19
S'0130d6e7'
p2319
sg21
Vldrb r3, [r6, r1]
p2320
sg5
L830060L
sg6
Nsg23
S'LDR'
p2321
sg25
S'0xcaa6cL'
p2322
sg27
Nsba(ibclass
BInstr
p2323
(dp2324
g2
Nsg17
S'MOV     R0, uvalue'
p2325
sg19
S'0900a0e1'
p2326
sg21
Vmov r0, sb
p2327
sg5
L830064L
sg6
Nsg23
S'MOV'
p2328
sg25
S'0xcaa70L'
p2329
sg27
Nsba(ibclass
BInstr
p2330
(dp2331
g2
Nsg17
S'STRB    R3, [R10,place]'
p2332
sg19
S'0430cae7'
p2333
sg21
Vstrb r3, [sl, r4]
p2334
sg5
L830068L
sg6
Nsg23
S'STR'
p2335
sg25
S'0xcaa74L'
p2336
sg27
Nsba(ibclass
BInstr
p2337
(dp2338
g2
Nsg17
S'MOV     R1, base_0'
p2339
sg19
S'0b10a0e1'
p2340
sg21
Vmov r1, fp
p2341
sg5
L830072L
sg6
Nsg23
S'MOV'
p2342
sg25
S'0xcaa78L'
p2343
sg27
Nsba(ibclass
BInstr
p2344
(dp2345
g2
Nsg17
S'BL      __udivsi3'
p2346
sg19
S'1df801eb'
p2347
sg21
Vbl #0x7e07c
p2348
sg5
L830076L
sg6
Nsg23
S'BL'
p2349
sg25
S'0xcaa7cL'
p2350
sg27
Nsba(ibclass
BInstr
p2351
(dp2352
g2
Nsg17
S'ADD     R5, place, #1'
p2353
sg19
S'015084e2'
p2354
sg21
Vadd r5, r4, #1
p2355
sg5
L830080L
sg6
Nsg23
S'ADD'
p2356
sg25
S'0xcaa80L'
p2357
sg27
Nsba(ibclass
BInstr
p2358
(dp2359
g2
Nsg17
S'CMP     place, #0xE'
p2360
sg19
S'0e0055e3'
p2361
sg21
Vcmp r5, #0xe
p2362
sg5
L830084L
sg6
Nsg23
S'CMP'
p2363
sg25
S'0xcaa84L'
p2364
sg27
Nsba(ibclass
BInstr
p2365
(dp2366
g2
Nsg17
S'MOVGT   R3, #0'
p2367
sg19
S'0030a0c3'
p2368
sg21
Vmovgt r3, #0
p2369
sg5
L830088L
sg6
Nsg23
S'MOV'
p2370
sg25
S'0xcaa88L'
p2371
sg27
Nsba(ibclass
BInstr
p2372
(dp2373
g2
Nsg17
S'MOVLE   R3, #1'
p2374
sg19
S'0130a0d3'
p2375
sg21
Vmovle r3, #1
p2376
sg5
L830092L
sg6
Nsg23
S'MOV'
p2377
sg25
S'0xcaa8cL'
p2378
sg27
Nsba(ibclass
BInstr
p2379
(dp2380
g2
Nsg17
S'CMP     R0, #0'
p2381
sg19
S'000050e3'
p2382
sg21
Vcmp r0, #0
p2383
sg5
L830096L
sg6
Nsg23
S'CMP'
p2384
sg25
S'0xcaa90L'
p2385
sg27
Nsba(ibclass
BInstr
p2386
(dp2387
g2
Nsg17
S'MOVEQ   R3, #0'
p2388
sg19
S'0030a003'
p2389
sg21
Vmoveq r3, #0
p2390
sg5
L830100L
sg6
Nsg23
S'MOV'
p2391
sg25
S'0xcaa94L'
p2392
sg27
Nsba(ibclass
BInstr
p2393
(dp2394
g2
Nsg17
S'CMP     R3, #0'
p2395
sg19
S'000053e3'
p2396
sg21
Vcmp r3, #0
p2397
sg5
L830104L
sg6
Nsg23
S'CMP'
p2398
sg25
S'0xcaa98L'
p2399
sg27
Nsba(ibclass
BInstr
p2400
(dp2401
g2
Nsg17
S'MOV     uvalue, R0'
p2402
sg19
S'0090a0e1'
p2403
sg21
Vmov sb, r0
p2404
sg5
L830108L
sg6
Nsg23
S'MOV'
p2405
sg25
S'0xcaa9cL'
p2406
sg27
Nsba(ibclass
BInstr
p2407
(dp2408
g2
Nsg17
S'BNE     loc_CAA5C'
p2409
sg19
S'edffff1a'
p2410
sg21
Vbne #0xffffffbc
p2411
sg5
L830112L
sg6
Nsg23
g152
sg25
S'0xcaaa0L'
p2412
sg27
Nsbasg154
(lp2413
S'MOV sbuffer, uvregue'
p2414
aS'MOV R1, base_0'
p2415
aS'BL __aeabi_uiregvmod'
p2416
aS'LDRB R3, mem'
p2417
aS'MOV R0, uvregue'
p2418
aS'STRB R3, mem'
p2419
aS'MOV R1, base_0'
p2420
aS'BL __uregvreg3'
p2421
aS'ADD R5, place, #1'
p2422
aS'CMP place, #0xE'
p2423
aS'MOVGT R3, #0'
p2424
aS'MOVLE R3, #1'
p2425
aS'CMP R0, #0'
p2426
aS'MOVEQ R3, #0'
p2427
aS'CMP R3, #0'
p2428
aS'MOV uvregue, R0'
p2429
aS'BNE func'
p2430
asg175
Nsg5
S'0xcaa60L'
p2431
sg177
(lp2432
S'0xcaa3cL'
p2433
aS'0xcaa5cL'
p2434
asg6
Nsg179
(lp2435
S'0xcaa5cL'
p2436
aS'0xcaaa4L'
p2437
asg183
Nsg184
Nsg185
S'025f98a7037e40bbb0daf8940d92f2e6'
p2438
sg187
S'1bbe16c6f608312ffeb90031c38cfa9d'
p2439
sg189
(lp2440
g2300
ag2307
ag2314
ag2321
ag2328
ag2335
ag2342
ag2349
ag2356
ag2363
ag2370
ag2377
ag2384
ag2391
ag2398
ag2405
ag152
asg191
Nsba(ibclass
BBasicBlock
p2441
(dp2442
g12
Nsg13
(lp2443
(ibclass
BInstr
p2444
(dp2445
g2
Nsg17
S'B       loc_CA820'
p2446
sg19
S'5dffffea'
p2447
sg21
Vb #0xfffffd7c
p2448
sg5
L830116L
sg6
Nsg23
g152
sg25
S'0xcaaa4L'
p2449
sg27
Nsbasg154
(lp2450
S'B func'
p2451
asg175
Nsg5
S'0xcaaa4L'
p2452
sg177
(lp2453
S'0xcaa60L'
p2454
asg6
Nsg179
(lp2455
S'0xca820L'
p2456
asg183
Nsg184
Nsg185
S'9d5ed678fe57bcca610140957afab571'
p2457
sg187
S'071b057c420e304c628380fd3541c021'
p2458
sg189
(lp2459
g152
asg191
Nsba(ibclass
BBasicBlock
p2460
(dp2461
g12
Nsg13
(lp2462
(ibclass
BInstr
p2463
(dp2464
g2
Nsg17
S'CMP     base_0, #8'
p2465
sg19
S'08005be3'
p2466
sg21
Vcmp fp, #8
p2467
sg5
L830120L
sg6
Nsg23
S'CMP'
p2468
sg25
S'0xcaaa8L'
p2469
sg27
Nsba(ibclass
BInstr
p2470
(dp2471
g2
Nsg17
S'BEQ     loc_CAC34'
p2472
sg19
S'6000000a'
p2473
sg21
Vbeq #0x188
p2474
sg5
L830124L
sg6
Nsg23
g152
sg25
S'0xcaaacL'
p2475
sg27
Nsbasg154
(lp2476
S'CMP base_0, #8'
p2477
aS'BEQ func'
p2478
asg175
Nsg5
S'0xcaaa8L'
p2479
sg177
(lp2480
S'0xca794L'
p2481
asg6
Nsg179
(lp2482
S'0xcaab0L'
p2483
aS'0xcac34L'
p2484
asg183
Nsg184
Nsg185
S'c78fd620a449e3c979d3f3ec12d4ee88'
p2485
sg187
S'477c05166c4334c078c5b5a9d36c8a90'
p2486
sg189
(lp2487
g2468
ag152
asg191
Nsba(ibclass
BBasicBlock
p2488
(dp2489
g12
Nsg13
(lp2490
(ibclass
BInstr
p2491
(dp2492
g2
Nsg17
S'CMP     base_0, #0x10'
p2493
sg19
S'10005be3'
p2494
sg21
Vcmp fp, #0x10
p2495
sg5
L830128L
sg6
Nsg23
S'CMP'
p2496
sg25
S'0xcaab0L'
p2497
sg27
Nsba(ibclass
BInstr
p2498
(dp2499
g2
Nsg17
S'BEQ     loc_CAD48'
p2500
sg19
S'a300000a'
p2501
sg21
Vbeq #0x294
p2502
sg5
L830132L
sg6
Nsg23
g152
sg25
S'0xcaab4L'
p2503
sg27
Nsbasg154
(lp2504
S'CMP base_0, #0x10'
p2505
aS'BEQ func'
p2506
asg175
Nsg5
S'0xcaab0L'
p2507
sg177
(lp2508
S'0xcaaa8L'
p2509
asg6
Nsg179
(lp2510
S'0xcaab8L'
p2511
aS'0xcad48L'
p2512
asg183
Nsg184
Nsg185
S'c78fd620a449e3c979d3f3ec12d4ee88'
p2513
sg187
S'209d62fe55504cece0166891be870c4e'
p2514
sg189
(lp2515
g2496
ag152
asg191
Nsba(ibclass
BBasicBlock
p2516
(dp2517
g12
Nsg13
(lp2518
(ibclass
BInstr
p2519
(dp2520
g2
Nsg17
S'LDR     sbuffer, [SP,#0x60+var_58]'
p2521
sg19
S'08009de5'
p2522
sg21
Vldr r0, [sp, #8]
p2523
sg5
L830136L
sg6
Nsg23
S'LDR'
p2524
sg25
S'0xcaab8L'
p2525
sg27
Nsba(ibclass
BInstr
p2526
(dp2527
g2
Nsg17
S'LDR     R3, =0xFFFE0374'
p2528
sg19
S'6c359fe5'
p2529
sg21
Vldr r3, [pc, #0x56c]
p2530
sg5
L830140L
sg6
Nsg23
S'LDR'
p2531
sg25
S'0xcaabcL'
p2532
sg27
Nsba(ibclass
BInstr
p2533
(dp2534
g2
Nsg17
S'ADD     R3, R0, R3'
p2535
sg19
S'033080e0'
p2536
sg21
Vadd r3, r0, r3
p2537
sg5
L830144L
sg6
Nsg23
S'ADD'
p2538
sg25
S'0xcaac0L'
p2539
sg27
Nsba(ibclass
BInstr
p2540
(dp2541
g2
Nsg17
S'STR     R3, [SP,#0x60+var_48]'
p2542
sg19
S'18308de5'
p2543
sg21
Vstr r3, [sp, #0x18]
p2544
sg5
L830148L
sg6
Nsg23
S'STR'
p2545
sg25
S'0xcaac4L'
p2546
sg27
Nsba(ibclass
BInstr
p2547
(dp2548
g2
Nsg17
S'MOV     R0, R3          ; s'
p2549
sg19
S'0300a0e1'
p2550
sg21
Vmov r0, r3
p2551
sg5
L830152L
sg6
Nsg23
S'MOV'
p2552
sg25
S'0xcaac8L'
p2553
sg27
Nsbasg154
(lp2554
S'LDR sbuffer, mem'
p2555
aS'LDR R3, =0xFFFE0374'
p2556
aS'ADD R3, R0, R3'
p2557
aS'STR R3, mem'
p2558
aS'MOV R0, R3'
p2559
asg175
Nsg5
S'0xcaab8L'
p2560
sg177
(lp2561
S'0xcaab0L'
p2562
asg6
Nsg179
(lp2563
S'0xcaaccL'
p2564
asg183
Nsg184
Nsg185
S'3afedf5092bceb28456c7de1474b7623'
p2565
sg187
S'805b197bb50e0c963f2e5b08d44cd4ef'
p2566
sg189
(lp2567
g2524
ag2531
ag2538
ag2545
ag2552
asg191
Nsba(ibclass
BBasicBlock
p2568
(dp2569
g12
Nsg13
(lp2570
(ibclass
BInstr
p2571
(dp2572
g2
Nsg17
S'BL      strlen'
p2573
sg19
S'0ff4fdeb'
p2574
sg21
Vbl #0xfff7d044
p2575
sg5
L830156L
sg6
Nsg23
S'BL'
p2576
sg25
S'0xcaaccL'
p2577
sg27
Nsba(ibclass
BInstr
p2578
(dp2579
g2
Nsg17
S'STR     R0, [SP,#0x60+var_44]'
p2580
sg19
S'1c008de5'
p2581
sg21
Vstr r0, [sp, #0x1c]
p2582
sg5
L830160L
sg6
Nsg23
S'STR'
p2583
sg25
S'0xcaad0L'
p2584
sg27
Nsba(ibclass
BInstr
p2585
(dp2586
g2
Nsg17
S'B       loc_CA7B4'
p2587
sg19
S'36ffffea'
p2588
sg21
Vb #0xfffffce0
p2589
sg5
L830164L
sg6
Nsg23
g152
sg25
S'0xcaad4L'
p2590
sg27
Nsbasg154
(lp2591
S'BL strlen'
p2592
aS'STR R0, mem'
p2593
aS'B func'
p2594
asg175
Nsg5
S'0xcaaccL'
p2595
sg177
(lp2596
S'0xcaab8L'
p2597
aS'0xcac34L'
p2598
asg6
Nsg179
(lp2599
S'0xca7b4L'
p2600
asg183
Nsg184
Nsg185
S'664b1ed67af59c189a325cad25cc5589'
p2601
sg187
S'c568322fcb4c0358383411081a8c5edb'
p2602
sg189
(lp2603
g2576
ag2583
ag152
asg191
Nsba(ibclass
BBasicBlock
p2604
(dp2605
g12
Nsg13
(lp2606
(ibclass
BInstr
p2607
(dp2608
g2
Nsg17
S'LDR     R2, [currlen]'
p2609
sg19
S'002098e5'
p2610
sg21
Vldr r2, [r8]
p2611
sg5
L830168L
sg6
Nsg23
S'LDR'
p2612
sg25
S'0xcaad8L'
p2613
sg27
Nsba(ibclass
BInstr
p2614
(dp2615
g2
Nsg17
S'LDR     R3, [maxlen]'
p2616
sg19
S'003097e5'
p2617
sg21
Vldr r3, [r7]
p2618
sg5
L830172L
sg6
Nsg23
S'LDR'
p2619
sg25
S'0xcaadcL'
p2620
sg27
Nsba(ibclass
BInstr
p2621
(dp2622
g2
Nsg17
S'B       loc_CA9B8'
p2623
sg19
S'b4ffffea'
p2624
sg21
Vb #0xfffffed8
p2625
sg5
L830176L
sg6
Nsg23
g152
sg25
S'0xcaae0L'
p2626
sg27
Nsbasg154
(lp2627
S'LDR R2, mem'
p2628
aS'LDR R3, mem'
p2629
aS'B func'
p2630
asg175
Nsg5
S'0xcaad8L'
p2631
sg177
(lp2632
S'0xca9e4L'
p2633
asg6
Nsg179
(lp2634
S'0xca9b8L'
p2635
asg183
Nsg184
Nsg185
S'5475768f796b8bef9e1180a7bb8d9996'
p2636
sg187
S'6e33bbb8f89bc49bc654966d78c52dbf'
p2637
sg189
(lp2638
g2612
ag2619
ag152
asg191
Nsba(ibclass
BBasicBlock
p2639
(dp2640
g12
Nsg13
(lp2641
(ibclass
BInstr
p2642
(dp2643
g2
Nsg17
S'MOV     R0, R1          ; num'
p2644
sg19
S'0100a0e1'
p2645
sg21
Vmov r0, r1
p2646
sg5
L830180L
sg6
Nsg23
S'MOV'
p2647
sg25
S'0xcaae4L'
p2648
sg27
Nsba(ibclass
BInstr
p2649
(dp2650
g2
Nsg17
S'LDR     R2, =0x2F9      ; line'
p2651
sg19
S'58259fe5'
p2652
sg21
Vldr r2, [pc, #0x558]
p2653
sg5
L830184L
sg6
Nsg23
S'LDR'
p2654
sg25
S'0xcaae8L'
p2655
sg27
Nsba(ibclass
BInstr
p2656
(dp2657
g2
Nsg17
S'LDR     R1, [SP,#0x60+file]; file'
p2658
sg19
S'04109de5'
p2659
sg21
Vldr r1, [sp, #4]
p2660
sg5
L830188L
sg6
Nsg23
S'LDR'
p2661
sg25
S'0xcaaecL'
p2662
sg27
Nsba(ibclass
BInstr
p2663
(dp2664
g2
Nsg17
S'BL      CRYPTO_malloc'
p2665
sg19
S'02f9fdeb'
p2666
sg21
Vbl #0xfff7e410
p2667
sg5
L830192L
sg6
Nsg23
S'BL'
p2668
sg25
S'0xcaaf0L'
p2669
sg27
Nsba(ibclass
BInstr
p2670
(dp2671
g2
Nsg17
S'CMP     R0, #0'
p2672
sg19
S'000050e3'
p2673
sg21
Vcmp r0, #0
p2674
sg5
L830196L
sg6
Nsg23
S'CMP'
p2675
sg25
S'0xcaaf4L'
p2676
sg27
Nsba(ibclass
BInstr
p2677
(dp2678
g2
Nsg17
S'STR     R0, [buffer]'
p2679
sg19
S'000086e5'
p2680
sg21
Vstr r0, [r6]
p2681
sg5
L830200L
sg6
Nsg23
S'STR'
p2682
sg25
S'0xcaaf8L'
p2683
sg27
Nsba(ibclass
BInstr
p2684
(dp2685
g2
Nsg17
S'BEQ     loc_CA958'
p2686
sg19
S'95ffff0a'
p2687
sg21
Vbeq #0xfffffe5c
p2688
sg5
L830204L
sg6
Nsg23
g152
sg25
S'0xcaafcL'
p2689
sg27
Nsbasg154
(lp2690
S'MOV R0, R1'
p2691
aS'LDR R2, =0x2F9'
p2692
aS'LDR R1, mem'
p2693
aS'BL CRYPTO_mregloc'
p2694
aS'CMP R0, #0'
p2695
aS'STR R0, mem'
p2696
aS'BEQ func'
p2697
asg175
Nsg5
S'0xcaae4L'
p2698
sg177
(lp2699
S'0xca914L'
p2700
asg6
Nsg179
(lp2701
S'0xca958L'
p2702
aS'0xcab00L'
p2703
asg183
Nsg184
Nsg185
S'6aa758d11d798218ccdd30080f55d0d0'
p2704
sg187
S'b2fb79d95fb8d65fccf614b502398acf'
p2705
sg189
(lp2706
g2647
ag2654
ag2661
ag2668
ag2675
ag2682
ag152
asg191
Nsba(ibclass
BBasicBlock
p2707
(dp2708
g12
Nsg13
(lp2709
(ibclass
BInstr
p2710
(dp2711
g2
Nsg17
S'LDR     R2, [currlen]   ; n'
p2712
sg19
S'002098e5'
p2713
sg21
Vldr r2, [r8]
p2714
sg5
L830208L
sg6
Nsg23
S'LDR'
p2715
sg25
S'0xcab00L'
p2716
sg27
Nsba(ibclass
BInstr
p2717
(dp2718
g2
Nsg17
S'CMP     R2, #0'
p2719
sg19
S'000052e3'
p2720
sg21
Vcmp r2, #0
p2721
sg5
L830212L
sg6
Nsg23
S'CMP'
p2722
sg25
S'0xcab04L'
p2723
sg27
Nsba(ibclass
BInstr
p2724
(dp2725
g2
Nsg17
S'BNE     loc_CAD2C'
p2726
sg19
S'8700001a'
p2727
sg21
Vbne #0x224
p2728
sg5
L830216L
sg6
Nsg23
g152
sg25
S'0xcab08L'
p2729
sg27
Nsbasg154
(lp2730
S'LDR R2, mem'
p2731
aS'CMP R2, #0'
p2732
aS'BNE func'
p2733
asg175
Nsg5
S'0xcab00L'
p2734
sg177
(lp2735
S'0xcaae4L'
p2736
asg6
Nsg179
(lp2737
S'0xcab0cL'
p2738
aS'0xcad2cL'
p2739
asg183
Nsg184
Nsg185
S'fa4df767a85c49648339e2dc5c6807f6'
p2740
sg187
S'6eb8dc9ae4d45fad4ce4e667e53812a2'
p2741
sg189
(lp2742
g2715
ag2722
ag152
asg191
Nsba(ibclass
BBasicBlock
p2743
(dp2744
g12
Nsg13
(lp2745
(ibclass
BInstr
p2746
(dp2747
g2
Nsg17
S'MOV     R1, #0'
p2748
sg19
S'0010a0e3'
p2749
sg21
Vmov r1, #0
p2750
sg5
L830220L
sg6
Nsg23
S'MOV'
p2751
sg25
S'0xcab0cL'
p2752
sg27
Nsba(ibclass
BInstr
p2753
(dp2754
g2
Nsg17
S'STR     R1, [sbuffer]'
p2755
sg19
S'001084e5'
p2756
sg21
Vstr r1, [r4]
p2757
sg5
L830224L
sg6
Nsg23
S'STR'
p2758
sg25
S'0xcab10L'
p2759
sg27
Nsba(ibclass
BInstr
p2760
(dp2761
g2
Nsg17
S'LDR     R3, [maxlen]'
p2762
sg19
S'003097e5'
p2763
sg21
Vldr r3, [r7]
p2764
sg5
L830228L
sg6
Nsg23
S'LDR'
p2765
sg25
S'0xcab14L'
p2766
sg27
Nsba(ibclass
BInstr
p2767
(dp2768
g2
Nsg17
S'B       loc_CA8CC'
p2769
sg19
S'6bffffea'
p2770
sg21
Vb #0xfffffdb4
p2771
sg5
L830232L
sg6
Nsg23
g152
sg25
S'0xcab18L'
p2772
sg27
Nsbasg154
(lp2773
S'MOV R1, #0'
p2774
aS'STR R1, mem'
p2775
aS'LDR R3, mem'
p2776
aS'B func'
p2777
asg175
Nsg5
S'0xcab0cL'
p2778
sg177
(lp2779
S'0xcab00L'
p2780
aS'0xcad2cL'
p2781
asg6
Nsg179
(lp2782
S'0xca8ccL'
p2783
asg183
Nsg184
Nsg185
S'a6ef3e35a047c003f9178d264052147b'
p2784
sg187
S'af83aa729dc076fea8b36b7879eaf509'
p2785
sg189
(lp2786
g2751
ag2758
ag2765
ag152
asg191
Nsba(ibclass
BBasicBlock
p2787
(dp2788
g12
Nsg13
(lp2789
(ibclass
BInstr
p2790
(dp2791
g2
Nsg17
S'MOV     sbuffer, place'
p2792
sg19
S'0540a0e1'
p2793
sg21
Vmov r4, r5
p2794
sg5
L830236L
sg6
Nsg23
S'MOV'
p2795
sg25
S'0xcab1cL'
p2796
sg27
Nsba(ibclass
BInstr
p2797
(dp2798
g2
Nsg17
S'LDR     zpadlen, [SP,#0x60+var_54]'
p2799
sg19
S'0cc09de5'
p2800
sg21
Vldr ip, [sp, #0xc]
p2801
sg5
L830240L
sg6
Nsg23
S'LDR'
p2802
sg25
S'0xcab20L'
p2803
sg27
Nsba(ibclass
BInstr
p2804
(dp2805
g2
Nsg17
S'LDR     place, [SP,#0x60+var_50]'
p2806
sg19
S'10509de5'
p2807
sg21
Vldr r5, [sp, #0x10]
p2808
sg5
L830244L
sg6
Nsg23
S'LDR'
p2809
sg25
S'0xcab24L'
p2810
sg27
Nsbasg154
(lp2811
S'MOV sbuffer, place'
p2812
aS'LDR zparegen, mem'
p2813
aS'LDR place, mem'
p2814
asg175
Nsg5
S'0xcab1cL'
p2815
sg177
(lp2816
S'0xca9d8L'
p2817
asg6
Nsg179
(lp2818
S'0xcab28L'
p2819
asg183
Nsg184
Nsg185
S'5460a39a738ed5fe0c0e5a91fb0ca49f'
p2820
sg187
S'aed997bfc2c1deaf9b4e10c3a48b25a4'
p2821
sg189
(lp2822
g2795
ag2802
ag2809
asg191
Nsba(ibclass
BBasicBlock
p2823
(dp2824
g12
Nsg13
(lp2825
(ibclass
BInstr
p2826
(dp2827
g2
Nsg17
S'CMP     zpadlen, #0'
p2828
sg19
S'00005ce3'
p2829
sg21
Vcmp ip, #0
p2830
sg5
L830248L
sg6
Nsg23
S'CMP'
p2831
sg25
S'0xcab28L'
p2832
sg27
Nsba(ibclass
BInstr
p2833
(dp2834
g2
Nsg17
S'BEQ     loc_CAC6C'
p2835
sg19
S'4e00000a'
p2836
sg21
Vbeq #0x140
p2837
sg5
L830252L
sg6
Nsg23
g152
sg25
S'0xcab2cL'
p2838
sg27
Nsbasg154
(lp2839
S'CMP zparegen, #0'
p2840
aS'BEQ func'
p2841
asg175
Nsg5
S'0xcab28L'
p2842
sg177
(lp2843
S'0xca97cL'
p2844
aS'0xcab1cL'
p2845
asg6
Nsg179
(lp2846
S'0xcab30L'
p2847
aS'0xcac6cL'
p2848
asg183
Nsg184
Nsg185
S'c78fd620a449e3c979d3f3ec12d4ee88'
p2849
sg187
S'254e0bd6692e3ee1938e573363575959'
p2850
sg189
(lp2851
g2831
ag152
asg191
Nsba(ibclass
BBasicBlock
p2852
(dp2853
g12
Nsg13
(lp2854
(ibclass
BInstr
p2855
(dp2856
g2
Nsg17
S'LDR     R3, =0xFFFDD46C'
p2857
sg19
S'00359fe5'
p2858
sg21
Vldr r3, [pc, #0x500]
p2859
sg5
L830256L
sg6
Nsg23
S'LDR'
p2860
sg25
S'0xcab30L'
p2861
sg27
Nsba(ibclass
BInstr
p2862
(dp2863
g2
Nsg17
S'LDR     R0, [SP,#0x60+var_58]'
p2864
sg19
S'08009de5'
p2865
sg21
Vldr r0, [sp, #8]
p2866
sg5
L830260L
sg6
Nsg23
S'LDR'
p2867
sg25
S'0xcab34L'
p2868
sg27
Nsba(ibclass
BInstr
p2869
(dp2870
g2
Nsg17
S'STR     spadlen, [SP,#0x60+var_54]'
p2871
sg19
S'0c508de5'
p2872
sg21
Vstr r5, [sp, #0xc]
p2873
sg5
L830264L
sg6
Nsg23
S'STR'
p2874
sg25
S'0xcab38L'
p2875
sg27
Nsba(ibclass
BInstr
p2876
(dp2877
g2
Nsg17
S'ADD     R3, R0, R3'
p2878
sg19
S'033080e0'
p2879
sg21
Vadd r3, r0, r3
p2880
sg5
L830268L
sg6
Nsg23
S'ADD'
p2881
sg25
S'0xcab3cL'
p2882
sg27
Nsba(ibclass
BInstr
p2883
(dp2884
g2
Nsg17
S'STR     place, [SP,#0x60+var_50]'
p2885
sg19
S'10408de5'
p2886
sg21
Vstr r4, [sp, #0x10]
p2887
sg5
L830272L
sg6
Nsg23
S'STR'
p2888
sg25
S'0xcab40L'
p2889
sg27
Nsba(ibclass
BInstr
p2890
(dp2891
g2
Nsg17
S'LDR     R2, [currlen]'
p2892
sg19
S'002098e5'
p2893
sg21
Vldr r2, [r8]
p2894
sg5
L830276L
sg6
Nsg23
S'LDR'
p2895
sg25
S'0xcab44L'
p2896
sg27
Nsba(ibclass
BInstr
p2897
(dp2898
g2
Nsg17
S'LDR     R11, =0x7FFFFBFF'
p2899
sg19
S'ecb49fe5'
p2900
sg21
Vldr fp, [pc, #0x4ec]
p2901
sg5
L830280L
sg6
Nsg23
S'LDR'
p2902
sg25
S'0xcab48L'
p2903
sg27
Nsba(ibclass
BInstr
p2904
(dp2905
g2
Nsg17
S'STR     R3, [SP,#0x60+file]'
p2906
sg19
S'04308de5'
p2907
sg21
Vstr r3, [sp, #4]
p2908
sg5
L830284L
sg6
Nsg23
S'STR'
p2909
sg25
S'0xcab4cL'
p2910
sg27
Nsba(ibclass
BInstr
p2911
(dp2912
g2
Nsg17
S'MOV     R9, #0x30'
p2913
sg19
S'3090a0e3'
p2914
sg21
Vmov sb, #0x30
p2915
sg5
L830288L
sg6
Nsg23
S'MOV'
p2916
sg25
S'0xcab50L'
p2917
sg27
Nsba(ibclass
BInstr
p2918
(dp2919
g2
Nsg17
S'MOV     place, zpadlen'
p2920
sg19
S'0c40a0e1'
p2921
sg21
Vmov r4, ip
p2922
sg5
L830292L
sg6
Nsg23
S'MOV'
p2923
sg25
S'0xcab54L'
p2924
sg27
Nsba(ibclass
BInstr
p2925
(dp2926
g2
Nsg17
S'LDR     spadlen, [SP,#0x60+var_4C]'
p2927
sg19
S'14509de5'
p2928
sg21
Vldr r5, [sp, #0x14]
p2929
sg5
L830296L
sg6
Nsg23
S'LDR'
p2930
sg25
S'0xcab58L'
p2931
sg27
Nsba(ibclass
BInstr
p2932
(dp2933
g2
Nsg17
S'B       loc_CAB88'
p2934
sg19
S'090000ea'
p2935
sg21
Vb #0x2c
p2936
sg5
L830300L
sg6
Nsg23
g152
sg25
S'0xcab5cL'
p2937
sg27
Nsbasg154
(lp2938
S'LDR R3, =0xFFFDD46C'
p2939
aS'LDR R0, mem'
p2940
aS'STR regaregen, mem'
p2941
aS'ADD R3, R0, R3'
p2942
aS'STR place, mem'
p2943
aS'LDR R2, mem'
p2944
aS'LDR R11, =0x7FFFFBFF'
p2945
aS'STR R3, mem'
p2946
aS'MOV R9, #0x30'
p2947
aS'MOV place, zparegen'
p2948
aS'LDR regaregen, mem'
p2949
aS'B func'
p2950
asg175
Nsg5
S'0xcab30L'
p2951
sg177
(lp2952
S'0xcab28L'
p2953
asg6
Nsg179
(lp2954
S'0xcab88L'
p2955
asg183
Nsg184
Nsg185
S'dda56b51add6a27fb0f511c757089899'
p2956
sg187
S'b2a70093462f82dbc93ad38037b0f326'
p2957
sg189
(lp2958
g2860
ag2867
ag2874
ag2881
ag2888
ag2895
ag2902
ag2909
ag2916
ag2923
ag2930
ag152
asg191
Nsba(ibclass
BBasicBlock
p2959
(dp2960
g12
Nsg13
(lp2961
(ibclass
BInstr
p2962
(dp2963
g2
Nsg17
S'CMP     R2, R3'
p2964
sg19
S'030052e1'
p2965
sg21
Vcmp r2, r3
p2966
sg5
L830304L
sg6
Nsg23
S'CMP'
p2967
sg25
S'0xcab60L'
p2968
sg27
Nsba(ibclass
BInstr
p2969
(dp2970
g2
Nsg17
S'BCS     loc_CAB80'
p2971
sg19
S'0500002a'
p2972
sg21
Vbhs #0x1c
p2973
sg5
L830308L
sg6
Nsg23
g152
sg25
S'0xcab64L'
p2974
sg27
Nsbasg154
(lp2975
S'CMP R2, R3'
p2976
aS'BCS func'
p2977
asg175
Nsg5
S'0xcab60L'
p2978
sg177
(lp2979
S'0xcab90L'
p2980
aS'0xcabccL'
p2981
aS'0xcad3cL'
p2982
aS'0xcadd0L'
p2983
asg6
Nsg179
(lp2984
S'0xcab68L'
p2985
aS'0xcab80L'
p2986
asg183
Nsg184
Nsg185
S'c78fd620a449e3c979d3f3ec12d4ee88'
p2987
sg187
S'9800af0f41e4e2f24cf62f1ab43febd8'
p2988
sg189
(lp2989
g2967
ag152
asg191
Nsba(ibclass
BBasicBlock
p2990
(dp2991
g12
Nsg13
(lp2992
(ibclass
BInstr
p2993
(dp2994
g2
Nsg17
S'LDR     R3, [sbuffer]'
p2995
sg19
S'003095e5'
p2996
sg21
Vldr r3, [r5]
p2997
sg5
L830312L
sg6
Nsg23
S'LDR'
p2998
sg25
S'0xcab68L'
p2999
sg27
Nsba(ibclass
BInstr
p3000
(dp3001
g2
Nsg17
S'CMP     R3, #0'
p3002
sg19
S'000053e3'
p3003
sg21
Vcmp r3, #0
p3004
sg5
L830316L
sg6
Nsg23
S'CMP'
p3005
sg25
S'0xcab6cL'
p3006
sg27
Nsba(ibclass
BInstr
p3007
(dp3008
g2
Nsg17
S'LDREQ   R3, [buffer]'
p3009
sg19
S'00309605'
p3010
sg21
Vldreq r3, [r6]
p3011
sg5
L830320L
sg6
Nsg23
S'LDR'
p3012
sg25
S'0xcab70L'
p3013
sg27
Nsba(ibclass
BInstr
p3014
(dp3015
g2
Nsg17
S'STRB    R9, [R3,R2]'
p3016
sg19
S'0290c3e7'
p3017
sg21
Vstrb sb, [r3, r2]
p3018
sg5
L830324L
sg6
Nsg23
S'STR'
p3019
sg25
S'0xcab74L'
p3020
sg27
Nsba(ibclass
BInstr
p3021
(dp3022
g2
Nsg17
S'ADD     R2, R2, #1'
p3023
sg19
S'012082e2'
p3024
sg21
Vadd r2, r2, #1
p3025
sg5
L830328L
sg6
Nsg23
S'ADD'
p3026
sg25
S'0xcab78L'
p3027
sg27
Nsba(ibclass
BInstr
p3028
(dp3029
g2
Nsg17
S'STR     R2, [currlen]'
p3030
sg19
S'002088e5'
p3031
sg21
Vstr r2, [r8]
p3032
sg5
L830332L
sg6
Nsg23
S'STR'
p3033
sg25
S'0xcab7cL'
p3034
sg27
Nsbasg154
(lp3035
S'LDR R3, mem'
p3036
aS'CMP R3, #0'
p3037
aS'LDREQ R3, mem'
p3038
aS'STRB R9, mem'
p3039
aS'ADD R2, R2, #1'
p3040
aS'STR R2, mem'
p3041
asg175
Nsg5
S'0xcab68L'
p3042
sg177
(lp3043
S'0xcab60L'
p3044
asg6
Nsg179
(lp3045
S'0xcab80L'
p3046
asg183
Nsg184
Nsg185
S'0f75e56b74bfbf576cf1af70ab8a4eaa'
p3047
sg187
S'cb009e7d87ac5c94dcca9691d0307ea8'
p3048
sg189
(lp3049
g2998
ag3005
ag3012
ag3019
ag3026
ag3033
asg191
Nsba(ibclass
BBasicBlock
p3050
(dp3051
g12
Nsg13
(lp3052
(ibclass
BInstr
p3053
(dp3054
g2
Nsg17
S'SUBS    zpadlen, zpadlen, #1'
p3055
sg19
S'014054e2'
p3056
sg21
Vsubs r4, r4, #1
p3057
sg5
L830336L
sg6
Nsg23
S'SUB'
p3058
sg25
S'0xcab80L'
p3059
sg27
Nsba(ibclass
BInstr
p3060
(dp3061
g2
Nsg17
S'BEQ     loc_CAC64'
p3062
sg19
S'3600000a'
p3063
sg21
Vbeq #0xe0
p3064
sg5
L830340L
sg6
Nsg23
g152
sg25
S'0xcab84L'
p3065
sg27
Nsbasg154
(lp3066
S'SUBS zparegen, zparegen, #1'
p3067
aS'BEQ func'
p3068
asg175
Nsg5
S'0xcab80L'
p3069
sg177
(lp3070
S'0xcab60L'
p3071
aS'0xcab68L'
p3072
asg6
Nsg179
(lp3073
S'0xcab88L'
p3074
aS'0xcac64L'
p3075
asg183
Nsg184
Nsg185
S'd9cd0befa77024d455f4479512574760'
p3076
sg187
S'3d789a9e8dbf2af7db759c1f09710f2c'
p3077
sg189
(lp3078
g3058
ag152
asg191
Nsba(ibclass
BBasicBlock
p3079
(dp3080
g12
Nsg13
(lp3081
(ibclass
BInstr
p3082
(dp3083
g2
Nsg17
S'CMP     buffer, #0'
p3084
sg19
S'000056e3'
p3085
sg21
Vcmp r6, #0
p3086
sg5
L830344L
sg6
Nsg23
S'CMP'
p3087
sg25
S'0xcab88L'
p3088
sg27
Nsba(ibclass
BInstr
p3089
(dp3090
g2
Nsg17
S'BEQ     loc_CAD3C'
p3091
sg19
S'6a00000a'
p3092
sg21
Vbeq #0x1b0
p3093
sg5
L830348L
sg6
Nsg23
g152
sg25
S'0xcab8cL'
p3094
sg27
Nsbasg154
(lp3095
S'CMP buffer, #0'
p3096
aS'BEQ func'
p3097
asg175
Nsg5
S'0xcab88L'
p3098
sg177
(lp3099
S'0xcab30L'
p3100
aS'0xcab80L'
p3101
asg6
Nsg179
(lp3102
S'0xcab90L'
p3103
aS'0xcad3cL'
p3104
asg183
Nsg184
Nsg185
S'c78fd620a449e3c979d3f3ec12d4ee88'
p3105
sg187
S'506074e0b5ecdf16dda3e737c36bbc81'
p3106
sg189
(lp3107
g3087
ag152
asg191
Nsba(ibclass
BBasicBlock
p3108
(dp3109
g12
Nsg13
(lp3110
(ibclass
BInstr
p3111
(dp3112
g2
Nsg17
S'LDR     R3, [maxlen]'
p3113
sg19
S'003097e5'
p3114
sg21
Vldr r3, [r7]
p3115
sg5
L830352L
sg6
Nsg23
S'LDR'
p3116
sg25
S'0xcab90L'
p3117
sg27
Nsba(ibclass
BInstr
p3118
(dp3119
g2
Nsg17
S'CMP     R3, R2'
p3120
sg19
S'020053e1'
p3121
sg21
Vcmp r3, r2
p3122
sg5
L830356L
sg6
Nsg23
S'CMP'
p3123
sg25
S'0xcab94L'
p3124
sg27
Nsba(ibclass
BInstr
p3125
(dp3126
g2
Nsg17
S'BNE     loc_CAB60'
p3127
sg19
S'f0ffff1a'
p3128
sg21
Vbne #0xffffffc8
p3129
sg5
L830360L
sg6
Nsg23
g152
sg25
S'0xcab98L'
p3130
sg27
Nsbasg154
(lp3131
S'LDR R3, mem'
p3132
aS'CMP R3, R2'
p3133
aS'BNE func'
p3134
asg175
Nsg5
S'0xcab90L'
p3135
sg177
(lp3136
S'0xcab88L'
p3137
asg6
Nsg179
(lp3138
S'0xcab60L'
p3139
aS'0xcab9cL'
p3140
asg183
Nsg184
Nsg185
S'fa4df767a85c49648339e2dc5c6807f6'
p3141
sg187
S'e2e29a9ed7cf579e472c732e92893fd5'
p3142
sg189
(lp3143
g3116
ag3123
ag152
asg191
Nsba(ibclass
BBasicBlock
p3144
(dp3145
g12
Nsg13
(lp3146
(ibclass
BInstr
p3147
(dp3148
g2
Nsg17
S'CMP     R2, R11'
p3149
sg19
S'0b0052e1'
p3150
sg21
Vcmp r2, fp
p3151
sg5
L830364L
sg6
Nsg23
S'CMP'
p3152
sg25
S'0xcab9cL'
p3153
sg27
Nsba(ibclass
BInstr
p3154
(dp3155
g2
Nsg17
S'BHI     loc_CA958'
p3156
sg19
S'6cffff8a'
p3157
sg21
Vbhi #0xfffffdb8
p3158
sg5
L830368L
sg6
Nsg23
g152
sg25
S'0xcaba0L'
p3159
sg27
Nsbasg154
(lp3160
S'CMP R2, R11'
p3161
aS'BHI func'
p3162
asg175
Nsg5
S'0xcab9cL'
p3163
sg177
(lp3164
S'0xcab90L'
p3165
asg6
Nsg179
(lp3166
S'0xca958L'
p3167
aS'0xcaba4L'
p3168
asg183
Nsg184
Nsg185
S'c78fd620a449e3c979d3f3ec12d4ee88'
p3169
sg187
S'7095ab6fcf0bd6bc0c34bc210b18b2d9'
p3170
sg189
(lp3171
g3152
ag152
asg191
Nsba(ibclass
BBasicBlock
p3172
(dp3173
g12
Nsg13
(lp3174
(ibclass
BInstr
p3175
(dp3176
g2
Nsg17
S'LDR     R0, [buffer]    ; str'
p3177
sg19
S'000096e5'
p3178
sg21
Vldr r0, [r6]
p3179
sg5
L830372L
sg6
Nsg23
S'LDR'
p3180
sg25
S'0xcaba4L'
p3181
sg27
Nsba(ibclass
BInstr
p3182
(dp3183
g2
Nsg17
S'ADD     R1, R2, #0x400  ; num'
p3184
sg19
S'011b82e2'
p3185
sg21
Vadd r1, r2, #0x400
p3186
sg5
L830376L
sg6
Nsg23
S'ADD'
p3187
sg25
S'0xcaba8L'
p3188
sg27
Nsba(ibclass
BInstr
p3189
(dp3190
g2
Nsg17
S'CMP     R0, #0'
p3191
sg19
S'000050e3'
p3192
sg21
Vcmp r0, #0
p3193
sg5
L830380L
sg6
Nsg23
S'CMP'
p3194
sg25
S'0xcabacL'
p3195
sg27
Nsba(ibclass
BInstr
p3196
(dp3197
g2
Nsg17
S'STR     R1, [maxlen]'
p3198
sg19
S'001087e5'
p3199
sg21
Vstr r1, [r7]
p3200
sg5
L830384L
sg6
Nsg23
S'STR'
p3201
sg25
S'0xcabb0L'
p3202
sg27
Nsba(ibclass
BInstr
p3203
(dp3204
g2
Nsg17
S'BEQ     loc_CADA8'
p3205
sg19
S'7b00000a'
p3206
sg21
Vbeq #0x1f4
p3207
sg5
L830388L
sg6
Nsg23
g152
sg25
S'0xcabb4L'
p3208
sg27
Nsbasg154
(lp3209
S'LDR R0, mem'
p3210
aS'ADD R1, R2, #0x400'
p3211
aS'CMP R0, #0'
p3212
aS'STR R1, mem'
p3213
aS'BEQ func'
p3214
asg175
Nsg5
S'0xcaba4L'
p3215
sg177
(lp3216
S'0xcab9cL'
p3217
asg6
Nsg179
(lp3218
S'0xcabb8L'
p3219
aS'0xcada8L'
p3220
asg183
Nsg184
Nsg185
S'4ec61fd607a8af912e661d4962fa75d9'
p3221
sg187
S'99c14bc301ed53807b51f481993e4247'
p3222
sg189
(lp3223
g3180
ag3187
ag3194
ag3201
ag152
asg191
Nsba(ibclass
BBasicBlock
p3224
(dp3225
g12
Nsg13
(lp3226
(ibclass
BInstr
p3227
(dp3228
g2
Nsg17
S'LDR     R2, [SP,#0x60+file]; file'
p3229
sg19
S'04209de5'
p3230
sg21
Vldr r2, [sp, #4]
p3231
sg5
L830392L
sg6
Nsg23
S'LDR'
p3232
sg25
S'0xcabb8L'
p3233
sg27
Nsba(ibclass
BInstr
p3234
(dp3235
g2
Nsg17
S'LDR     R3, =0x303      ; line'
p3236
sg19
S'7c349fe5'
p3237
sg21
Vldr r3, [pc, #0x47c]
p3238
sg5
L830396L
sg6
Nsg23
S'LDR'
p3239
sg25
S'0xcabbcL'
p3240
sg27
Nsba(ibclass
BInstr
p3241
(dp3242
g2
Nsg17
S'BL      CRYPTO_realloc'
p3243
sg19
S'06f9fdeb'
p3244
sg21
Vbl #0xfff7e420
p3245
sg5
L830400L
sg6
Nsg23
S'BL'
p3246
sg25
S'0xcabc0L'
p3247
sg27
Nsba(ibclass
BInstr
p3248
(dp3249
g2
Nsg17
S'CMP     R0, #0'
p3250
sg19
S'000050e3'
p3251
sg21
Vcmp r0, #0
p3252
sg5
L830404L
sg6
Nsg23
S'CMP'
p3253
sg25
S'0xcabc4L'
p3254
sg27
Nsba(ibclass
BInstr
p3255
(dp3256
g2
Nsg17
S'BEQ     loc_CA958'
p3257
sg19
S'62ffff0a'
p3258
sg21
Vbeq #0xfffffd90
p3259
sg5
L830408L
sg6
Nsg23
g152
sg25
S'0xcabc8L'
p3260
sg27
Nsbasg154
(lp3261
S'LDR R2, mem'
p3262
aS'LDR R3, =0x303'
p3263
aS'BL CRYPTO_reregloc'
p3264
aS'CMP R0, #0'
p3265
aS'BEQ func'
p3266
asg175
Nsg5
S'0xcabb8L'
p3267
sg177
(lp3268
S'0xcaba4L'
p3269
asg6
Nsg179
(lp3270
S'0xca958L'
p3271
aS'0xcabccL'
p3272
asg183
Nsg184
Nsg185
S'98df8d58a70aefeb372f52f820175ac9'
p3273
sg187
S'da6a129b3c8a597725b8046b4ca7a93e'
p3274
sg189
(lp3275
g3232
ag3239
ag3246
ag3253
ag152
asg191
Nsba(ibclass
BBasicBlock
p3276
(dp3277
g12
Nsg13
(lp3278
(ibclass
BInstr
p3279
(dp3280
g2
Nsg17
S'LDR     R2, [currlen]'
p3281
sg19
S'002098e5'
p3282
sg21
Vldr r2, [r8]
p3283
sg5
L830412L
sg6
Nsg23
S'LDR'
p3284
sg25
S'0xcabccL'
p3285
sg27
Nsba(ibclass
BInstr
p3286
(dp3287
g2
Nsg17
S'LDR     R3, [maxlen]'
p3288
sg19
S'003097e5'
p3289
sg21
Vldr r3, [r7]
p3290
sg5
L830416L
sg6
Nsg23
S'LDR'
p3291
sg25
S'0xcabd0L'
p3292
sg27
Nsba(ibclass
BInstr
p3293
(dp3294
g2
Nsg17
S'STR     R0, [buffer]'
p3295
sg19
S'000086e5'
p3296
sg21
Vstr r0, [r6]
p3297
sg5
L830420L
sg6
Nsg23
S'STR'
p3298
sg25
S'0xcabd4L'
p3299
sg27
Nsba(ibclass
BInstr
p3300
(dp3301
g2
Nsg17
S'B       loc_CAB60'
p3302
sg19
S'e0ffffea'
p3303
sg21
Vb #0xffffff88
p3304
sg5
L830424L
sg6
Nsg23
g152
sg25
S'0xcabd8L'
p3305
sg27
Nsbasg154
(lp3306
S'LDR R2, mem'
p3307
aS'LDR R3, mem'
p3308
aS'STR R0, mem'
p3309
aS'B func'
p3310
asg175
Nsg5
S'0xcabccL'
p3311
sg177
(lp3312
S'0xcabb8L'
p3313
asg6
Nsg179
(lp3314
S'0xcab60L'
p3315
asg183
Nsg184
Nsg185
S'254797143989388d9207e7f4139e3257'
p3316
sg187
S'533d0ebc2a4ad8644106e9313d030cba'
p3317
sg189
(lp3318
g3284
ag3291
ag3298
ag152
asg191
Nsba(ibclass
BBasicBlock
p3319
(dp3320
g12
Nsg13
(lp3321
(ibclass
BInstr
p3322
(dp3323
g2
Nsg17
S'MOV     R3, #1'
p3324
sg19
S'0130a0e3'
p3325
sg21
Vmov r3, #1
p3326
sg5
L830428L
sg6
Nsg23
S'MOV'
p3327
sg25
S'0xcabdcL'
p3328
sg27
Nsba(ibclass
BInstr
p3329
(dp3330
g2
Nsg17
S'MOV     R12, #0x2B'
p3331
sg19
S'2bc0a0e3'
p3332
sg21
Vmov ip, #0x2b
p3333
sg5
L830432L
sg6
Nsg23
S'MOV'
p3334
sg25
S'0xcabe0L'
p3335
sg27
Nsba(ibclass
BInstr
p3336
(dp3337
g2
Nsg17
S'STR     R3, [SP,#0x60+var_50]'
p3338
sg19
S'10308de5'
p3339
sg21
Vstr r3, [sp, #0x10]
p3340
sg5
L830436L
sg6
Nsg23
S'STR'
p3341
sg25
S'0xcabe4L'
p3342
sg27
Nsba(ibclass
BInstr
p3343
(dp3344
g2
Nsg17
S'STR     R12, [SP,#0x60+var_3C]'
p3345
sg19
S'24c08de5'
p3346
sg21
Vstr ip, [sp, #0x24]
p3347
sg5
L830440L
sg6
Nsg23
S'STR'
p3348
sg25
S'0xcabe8L'
p3349
sg27
Nsba(ibclass
BInstr
p3350
(dp3351
g2
Nsg17
S'B       loc_CA794'
p3352
sg19
S'e8feffea'
p3353
sg21
Vb #0xfffffba8
p3354
sg5
L830444L
sg6
Nsg23
g152
sg25
S'0xcabecL'
p3355
sg27
Nsbasg154
(lp3356
S'MOV R3, #1'
p3357
aS'MOV R12, #0x2B'
p3358
aS'STR R3, mem'
p3359
aS'STR R12, mem'
p3360
aS'B func'
p3361
asg175
Nsg5
S'0xcabdcL'
p3362
sg177
(lp3363
S'0xca760L'
p3364
asg6
Nsg179
(lp3365
S'0xca794L'
p3366
asg183
Nsg184
Nsg185
S'0f1d387745181cdfb6c8466268862fa4'
p3367
sg187
S'05ae81a9edc438ea277c04aacf30e4db'
p3368
sg189
(lp3369
g3327
ag3334
ag3341
ag3348
ag152
asg191
Nsba(ibclass
BBasicBlock
p3370
(dp3371
g12
Nsg13
(lp3372
(ibclass
BInstr
p3373
(dp3374
g2
Nsg17
S'CMP     buffer, #0'
p3375
sg19
S'000056e3'
p3376
sg21
Vcmp r6, #0
p3377
sg5
L830448L
sg6
Nsg23
S'CMP'
p3378
sg25
S'0xcabf0L'
p3379
sg27
Nsba(ibclass
BInstr
p3380
(dp3381
g2
Nsg17
S'BEQ     loc_CAF04'
p3382
sg19
S'c200000a'
p3383
sg21
Vbeq #0x310
p3384
sg5
L830452L
sg6
Nsg23
g152
sg25
S'0xcabf4L'
p3385
sg27
Nsbasg154
(lp3386
S'CMP buffer, #0'
p3387
aS'BEQ func'
p3388
asg175
Nsg5
S'0xcabf0L'
p3389
sg177
(lp3390
S'0xca970L'
p3391
asg6
Nsg179
(lp3392
S'0xcabf8L'
p3393
aS'0xcaf04L'
p3394
asg183
Nsg184
Nsg185
S'c78fd620a449e3c979d3f3ec12d4ee88'
p3395
sg187
S'506074e0b5ecdf16dda3e737c36bbc81'
p3396
sg189
(lp3397
g3378
ag152
asg191
Nsba(ibclass
BBasicBlock
p3398
(dp3399
g12
Nsg13
(lp3400
(ibclass
BInstr
p3401
(dp3402
g2
Nsg17
S'LDR     R3, [currlen]'
p3403
sg19
S'003098e5'
p3404
sg21
Vldr r3, [r8]
p3405
sg5
L830456L
sg6
Nsg23
S'LDR'
p3406
sg25
S'0xcabf8L'
p3407
sg27
Nsba(ibclass
BInstr
p3408
(dp3409
g2
Nsg17
S'LDR     R2, [maxlen]'
p3410
sg19
S'002097e5'
p3411
sg21
Vldr r2, [r7]
p3412
sg5
L830460L
sg6
Nsg23
S'LDR'
p3413
sg25
S'0xcabfcL'
p3414
sg27
Nsba(ibclass
BInstr
p3415
(dp3416
g2
Nsg17
S'CMP     R3, R2'
p3417
sg19
S'020053e1'
p3418
sg21
Vcmp r3, r2
p3419
sg5
L830464L
sg6
Nsg23
S'CMP'
p3420
sg25
S'0xcac00L'
p3421
sg27
Nsba(ibclass
BInstr
p3422
(dp3423
g2
Nsg17
S'BEQ     loc_CAEA0'
p3424
sg19
S'a500000a'
p3425
sg21
Vbeq #0x29c
p3426
sg5
L830468L
sg6
Nsg23
g152
sg25
S'0xcac04L'
p3427
sg27
Nsbasg154
(lp3428
S'LDR R3, mem'
p3429
aS'LDR R2, mem'
p3430
aS'CMP R3, R2'
p3431
aS'BEQ func'
p3432
asg175
Nsg5
S'0xcabf8L'
p3433
sg177
(lp3434
S'0xcabf0L'
p3435
asg6
Nsg179
(lp3436
S'0xcac08L'
p3437
aS'0xcaea0L'
p3438
asg183
Nsg184
Nsg185
S'd9812e74326a7ebe01ae9e2a00bbb5ee'
p3439
sg187
S'5761d2e0f674910447dc04a2af315340'
p3440
sg189
(lp3441
g3406
ag3413
ag3420
ag152
asg191
Nsba(ibclass
BBasicBlock
p3442
(dp3443
g12
Nsg13
(lp3444
(ibclass
BInstr
p3445
(dp3446
g2
Nsg17
S'CMP     R3, R2'
p3447
sg19
S'020053e1'
p3448
sg21
Vcmp r3, r2
p3449
sg5
L830472L
sg6
Nsg23
S'CMP'
p3450
sg25
S'0xcac08L'
p3451
sg27
Nsba(ibclass
BInstr
p3452
(dp3453
g2
Nsg17
S'BCS     loc_CA97C'
p3454
sg19
S'5affff2a'
p3455
sg21
Vbhs #0xfffffd70
p3456
sg5
L830476L
sg6
Nsg23
g152
sg25
S'0xcac0cL'
p3457
sg27
Nsbasg154
(lp3458
S'CMP R3, R2'
p3459
aS'BCS func'
p3460
asg175
Nsg5
S'0xcac08L'
p3461
sg177
(lp3462
S'0xcabf8L'
p3463
aS'0xcaee4L'
p3464
aS'0xcaf04L'
p3465
aS'0xcb014L'
p3466
asg6
Nsg179
(lp3467
S'0xca97cL'
p3468
aS'0xcac10L'
p3469
asg183
Nsg184
Nsg185
S'c78fd620a449e3c979d3f3ec12d4ee88'
p3470
sg187
S'2a6484d505ffe39030da24ac8cad507a'
p3471
sg189
(lp3472
g3450
ag152
asg191
Nsba(ibclass
BBasicBlock
p3473
(dp3474
g12
Nsg13
(lp3475
(ibclass
BInstr
p3476
(dp3477
g2
Nsg17
S'LDR     R0, [SP,#0x60+var_4C]'
p3478
sg19
S'14009de5'
p3479
sg21
Vldr r0, [sp, #0x14]
p3480
sg5
L830480L
sg6
Nsg23
S'LDR'
p3481
sg25
S'0xcac10L'
p3482
sg27
Nsba(ibclass
BInstr
p3483
(dp3484
g2
Nsg17
S'ADD     R2, R3, #1'
p3485
sg19
S'012083e2'
p3486
sg21
Vadd r2, r3, #1
p3487
sg5
L830484L
sg6
Nsg23
S'ADD'
p3488
sg25
S'0xcac14L'
p3489
sg27
Nsba(ibclass
BInstr
p3490
(dp3491
g2
Nsg17
S'LDR     R1, [R0]'
p3492
sg19
S'001090e5'
p3493
sg21
Vldr r1, [r0]
p3494
sg5
L830488L
sg6
Nsg23
S'LDR'
p3495
sg25
S'0xcac18L'
p3496
sg27
Nsba(ibclass
BInstr
p3497
(dp3498
g2
Nsg17
S'LDR     R0, [SP,#0x60+var_3C]'
p3499
sg19
S'24009de5'
p3500
sg21
Vldr r0, [sp, #0x24]
p3501
sg5
L830492L
sg6
Nsg23
S'LDR'
p3502
sg25
S'0xcac1cL'
p3503
sg27
Nsba(ibclass
BInstr
p3504
(dp3505
g2
Nsg17
S'CMP     R1, #0'
p3506
sg19
S'000051e3'
p3507
sg21
Vcmp r1, #0
p3508
sg5
L830496L
sg6
Nsg23
S'CMP'
p3509
sg25
S'0xcac20L'
p3510
sg27
Nsba(ibclass
BInstr
p3511
(dp3512
g2
Nsg17
S'LDREQ   R1, [buffer]'
p3513
sg19
S'00109605'
p3514
sg21
Vldreq r1, [r6]
p3515
sg5
L830500L
sg6
Nsg23
S'LDR'
p3516
sg25
S'0xcac24L'
p3517
sg27
Nsba(ibclass
BInstr
p3518
(dp3519
g2
Nsg17
S'STRB    R0, [R1,R3]'
p3520
sg19
S'0300c1e7'
p3521
sg21
Vstrb r0, [r1, r3]
p3522
sg5
L830504L
sg6
Nsg23
S'STR'
p3523
sg25
S'0xcac28L'
p3524
sg27
Nsba(ibclass
BInstr
p3525
(dp3526
g2
Nsg17
S'STR     R2, [currlen]'
p3527
sg19
S'002088e5'
p3528
sg21
Vstr r2, [r8]
p3529
sg5
L830508L
sg6
Nsg23
S'STR'
p3530
sg25
S'0xcac2cL'
p3531
sg27
Nsba(ibclass
BInstr
p3532
(dp3533
g2
Nsg17
S'B       loc_CA97C'
p3534
sg19
S'51ffffea'
p3535
sg21
Vb #0xfffffd4c
p3536
sg5
L830512L
sg6
Nsg23
g152
sg25
S'0xcac30L'
p3537
sg27
Nsbasg154
(lp3538
S'LDR R0, mem'
p3539
aS'ADD R2, R3, #1'
p3540
aS'LDR R1, mem'
p3541
aS'LDR R0, mem'
p3542
aS'CMP R1, #0'
p3543
aS'LDREQ R1, mem'
p3544
aS'STRB R0, mem'
p3545
aS'STR R2, mem'
p3546
aS'B func'
p3547
asg175
Nsg5
S'0xcac10L'
p3548
sg177
(lp3549
S'0xcac08L'
p3550
asg6
Nsg179
(lp3551
S'0xca97cL'
p3552
asg183
Nsg184
Nsg185
S'43ed285345478473f0e134e137556603'
p3553
sg187
S'038f03116ffa99fb5d82c20befada0b4'
p3554
sg189
(lp3555
g3481
ag3488
ag3495
ag3502
ag3509
ag3516
ag3523
ag3530
ag152
asg191
Nsba(ibclass
BBasicBlock
p3556
(dp3557
g12
Nsg13
(lp3558
(ibclass
BInstr
p3559
(dp3560
g2
Nsg17
S'LDR     R3, =0xFFFC0580'
p3561
sg19
S'10349fe5'
p3562
sg21
Vldr r3, [pc, #0x410]
p3563
sg5
L830516L
sg6
Nsg23
S'LDR'
p3564
sg25
S'0xcac34L'
p3565
sg27
Nsba(ibclass
BInstr
p3566
(dp3567
g2
Nsg17
S'LDR     R1, [SP,#0x60+var_58]'
p3568
sg19
S'08109de5'
p3569
sg21
Vldr r1, [sp, #8]
p3570
sg5
L830520L
sg6
Nsg23
S'LDR'
p3571
sg25
S'0xcac38L'
p3572
sg27
Nsba(ibclass
BInstr
p3573
(dp3574
g2
Nsg17
S'ADD     R3, R1, R3'
p3575
sg19
S'033081e0'
p3576
sg21
Vadd r3, r1, r3
p3577
sg5
L830524L
sg6
Nsg23
S'ADD'
p3578
sg25
S'0xcac3cL'
p3579
sg27
Nsba(ibclass
BInstr
p3580
(dp3581
g2
Nsg17
S'STR     R3, [SP,#0x60+var_48]'
p3582
sg19
S'18308de5'
p3583
sg21
Vstr r3, [sp, #0x18]
p3584
sg5
L830528L
sg6
Nsg23
S'STR'
p3585
sg25
S'0xcac40L'
p3586
sg27
Nsba(ibclass
BInstr
p3587
(dp3588
g2
Nsg17
S'MOV     sbuffer, R3'
p3589
sg19
S'0300a0e1'
p3590
sg21
Vmov r0, r3
p3591
sg5
L830532L
sg6
Nsg23
S'MOV'
p3592
sg25
S'0xcac44L'
p3593
sg27
Nsba(ibclass
BInstr
p3594
(dp3595
g2
Nsg17
S'B       loc_CAACC'
p3596
sg19
S'9fffffea'
p3597
sg21
Vb #0xfffffe84
p3598
sg5
L830536L
sg6
Nsg23
g152
sg25
S'0xcac48L'
p3599
sg27
Nsbasg154
(lp3600
S'LDR R3, =0xFFFC0580'
p3601
aS'LDR R1, mem'
p3602
aS'ADD R3, R1, R3'
p3603
aS'STR R3, mem'
p3604
aS'MOV sbuffer, R3'
p3605
aS'B func'
p3606
asg175
Nsg5
S'0xcac34L'
p3607
sg177
(lp3608
S'0xcaaa8L'
p3609
asg6
Nsg179
(lp3610
S'0xcaaccL'
p3611
asg183
Nsg184
Nsg185
S'3b276b8c1f04d380372271e3e19d167d'
p3612
sg187
S'48f2f49b06129a3bdb66359eccc61111'
p3613
sg189
(lp3614
g3564
ag3571
ag3578
ag3585
ag3592
ag152
asg191
Nsba(ibclass
BBasicBlock
p3615
(dp3616
g12
Nsg13
(lp3617
(ibclass
BInstr
p3618
(dp3619
g2
Nsg17
S'MOV     sbuffer, #1'
p3620
sg19
S'0100a0e3'
p3621
sg21
Vmov r0, #1
p3622
sg5
L830540L
sg6
Nsg23
S'MOV'
p3623
sg25
S'0xcac4cL'
p3624
sg27
Nsba(ibclass
BInstr
p3625
(dp3626
g2
Nsg17
S'MOV     R1, #0x2D'
p3627
sg19
S'2d10a0e3'
p3628
sg21
Vmov r1, #0x2d
p3629
sg5
L830544L
sg6
Nsg23
S'MOV'
p3630
sg25
S'0xcac50L'
p3631
sg27
Nsba(ibclass
BInstr
p3632
(dp3633
g2
Nsg17
S'RSB     uvalue, uvalue, #0'
p3634
sg19
S'009069e2'
p3635
sg21
Vrsb sb, sb, #0
p3636
sg5
L830548L
sg6
Nsg23
S'RSB'
p3637
sg25
S'0xcac54L'
p3638
sg27
Nsba(ibclass
BInstr
p3639
(dp3640
g2
Nsg17
S'STR     R0, [SP,#0x60+var_50]'
p3641
sg19
S'10008de5'
p3642
sg21
Vstr r0, [sp, #0x10]
p3643
sg5
L830552L
sg6
Nsg23
S'STR'
p3644
sg25
S'0xcac58L'
p3645
sg27
Nsba(ibclass
BInstr
p3646
(dp3647
g2
Nsg17
S'STR     R1, [SP,#0x60+var_3C]'
p3648
sg19
S'24108de5'
p3649
sg21
Vstr r1, [sp, #0x24]
p3650
sg5
L830556L
sg6
Nsg23
S'STR'
p3651
sg25
S'0xcac5cL'
p3652
sg27
Nsba(ibclass
BInstr
p3653
(dp3654
g2
Nsg17
S'B       loc_CA794'
p3655
sg19
S'cbfeffea'
p3656
sg21
Vb #0xfffffb34
p3657
sg5
L830560L
sg6
Nsg23
g152
sg25
S'0xcac60L'
p3658
sg27
Nsbasg154
(lp3659
S'MOV sbuffer, #1'
p3660
aS'MOV R1, #0x2D'
p3661
aS'RSB uvregue, uvregue, #0'
p3662
aS'STR R0, mem'
p3663
aS'STR R1, mem'
p3664
aS'B func'
p3665
asg175
Nsg5
S'0xcac4cL'
p3666
sg177
(lp3667
S'0xca758L'
p3668
asg6
Nsg179
(lp3669
S'0xca794L'
p3670
asg183
Nsg184
Nsg185
S'f1e8593be01a69fa0425afa9c5646129'
p3671
sg187
S'ddb52ce1fb6ecc7d806cf39829578f37'
p3672
sg189
(lp3673
g3623
ag3630
ag3637
ag3644
ag3651
ag152
asg191
Nsba(ibclass
BBasicBlock
p3674
(dp3675
g12
Nsg13
(lp3676
(ibclass
BInstr
p3677
(dp3678
g2
Nsg17
S'LDR     sbuffer, [SP,#0x60+var_54]'
p3679
sg19
S'0c509de5'
p3680
sg21
Vldr r5, [sp, #0xc]
p3681
sg5
L830564L
sg6
Nsg23
S'LDR'
p3682
sg25
S'0xcac64L'
p3683
sg27
Nsba(ibclass
BInstr
p3684
(dp3685
g2
Nsg17
S'LDR     zpadlen, [SP,#0x60+var_50]'
p3686
sg19
S'10409de5'
p3687
sg21
Vldr r4, [sp, #0x10]
p3688
sg5
L830568L
sg6
Nsg23
S'LDR'
p3689
sg25
S'0xcac68L'
p3690
sg27
Nsbasg154
(lp3691
S'LDR sbuffer, mem'
p3692
aS'LDR zparegen, mem'
p3693
asg175
Nsg5
S'0xcac64L'
p3694
sg177
(lp3695
S'0xcab80L'
p3696
asg6
Nsg179
(lp3697
S'0xcac6cL'
p3698
asg183
Nsg184
Nsg185
S'21ff94608a2748267b1ec014923ca646'
p3699
sg187
S'dab43d81b8aacd144a29cf35100007cc'
p3700
sg189
(lp3701
g3682
ag3689
asg191
Nsba(ibclass
BBasicBlock
p3702
(dp3703
g12
Nsg13
(lp3704
(ibclass
BInstr
p3705
(dp3706
g2
Nsg17
S'CMP     place, #0'
p3707
sg19
S'000054e3'
p3708
sg21
Vcmp r4, #0
p3709
sg5
L830572L
sg6
Nsg23
S'CMP'
p3710
sg25
S'0xcac6cL'
p3711
sg27
Nsba(ibclass
BInstr
p3712
(dp3713
g2
Nsg17
S'BEQ     loc_CADE4'
p3714
sg19
S'5b00000a'
p3715
sg21
Vbeq #0x174
p3716
sg5
L830576L
sg6
Nsg23
g152
sg25
S'0xcac70L'
p3717
sg27
Nsbasg154
(lp3718
S'CMP place, #0'
p3719
aS'BEQ func'
p3720
asg175
Nsg5
S'0xcac6cL'
p3721
sg177
(lp3722
S'0xcab28L'
p3723
aS'0xcac64L'
p3724
asg6
Nsg179
(lp3725
S'0xcac74L'
p3726
aS'0xcade4L'
p3727
asg183
Nsg184
Nsg185
S'c78fd620a449e3c979d3f3ec12d4ee88'
p3728
sg187
S'2cf26ced5912b9e5ce2eaa5bb85e8c46'
p3729
sg189
(lp3730
g3710
ag152
asg191
Nsba(ibclass
BBasicBlock
p3731
(dp3732
g12
Nsg13
(lp3733
(ibclass
BInstr
p3734
(dp3735
g2
Nsg17
S'LDR     zpadlen, =0xFFFDD46C'
p3736
sg19
S'bcc39fe5'
p3737
sg21
Vldr ip, [pc, #0x3bc]
p3738
sg5
L830580L
sg6
Nsg23
S'LDR'
p3739
sg25
S'0xcac74L'
p3740
sg27
Nsba(ibclass
BInstr
p3741
(dp3742
g2
Nsg17
S'LDR     R3, [SP,#0x60+var_58]'
p3743
sg19
S'08309de5'
p3744
sg21
Vldr r3, [sp, #8]
p3745
sg5
L830584L
sg6
Nsg23
S'LDR'
p3746
sg25
S'0xcac78L'
p3747
sg27
Nsba(ibclass
BInstr
p3748
(dp3749
g2
Nsg17
S'LDR     R2, [currlen]'
p3750
sg19
S'002098e5'
p3751
sg21
Vldr r2, [r8]
p3752
sg5
L830588L
sg6
Nsg23
S'LDR'
p3753
sg25
S'0xcac7cL'
p3754
sg27
Nsba(ibclass
BInstr
p3755
(dp3756
g2
Nsg17
S'ADD     R12, R3, R12'
p3757
sg19
S'0cc083e0'
p3758
sg21
Vadd ip, r3, ip
p3759
sg5
L830592L
sg6
Nsg23
S'ADD'
p3760
sg25
S'0xcac80L'
p3761
sg27
Nsba(ibclass
BInstr
p3762
(dp3763
g2
Nsg17
S'MOV     R9, R12'
p3764
sg19
S'0c90a0e1'
p3765
sg21
Vmov sb, ip
p3766
sg5
L830596L
sg6
Nsg23
S'MOV'
p3767
sg25
S'0xcac84L'
p3768
sg27
Nsba(ibclass
BInstr
p3769
(dp3770
g2
Nsg17
S'LDR     R11, =0x7FFFFBFF'
p3771
sg19
S'acb39fe5'
p3772
sg21
Vldr fp, [pc, #0x3ac]
p3773
sg5
L830600L
sg6
Nsg23
S'LDR'
p3774
sg25
S'0xcac88L'
p3775
sg27
Nsba(ibclass
BInstr
p3776
(dp3777
g2
Nsg17
S'ADD     R10, R10, place'
p3778
sg19
S'04a08ae0'
p3779
sg21
Vadd sl, sl, r4
p3780
sg5
L830604L
sg6
Nsg23
S'ADD'
p3781
sg25
S'0xcac8cL'
p3782
sg27
Nsba(ibclass
BInstr
p3783
(dp3784
g2
Nsg17
S'STR     spadlen, [SP,#0x60+file]'
p3785
sg19
S'04508de5'
p3786
sg21
Vstr r5, [sp, #4]
p3787
sg5
L830608L
sg6
Nsg23
S'STR'
p3788
sg25
S'0xcac90L'
p3789
sg27
Nsba(ibclass
BInstr
p3790
(dp3791
g2
Nsg17
S'LDR     R12, [SP,#0x60+var_4C]'
p3792
sg19
S'14c09de5'
p3793
sg21
Vldr ip, [sp, #0x14]
p3794
sg5
L830612L
sg6
Nsg23
S'LDR'
p3795
sg25
S'0xcac94L'
p3796
sg27
Nsba(ibclass
BInstr
p3797
(dp3798
g2
Nsg17
S'B       loc_CACC8'
p3799
sg19
S'0a0000ea'
p3800
sg21
Vb #0x30
p3801
sg5
L830616L
sg6
Nsg23
g152
sg25
S'0xcac98L'
p3802
sg27
Nsbasg154
(lp3803
S'LDR zparegen, =0xFFFDD46C'
p3804
aS'LDR R3, mem'
p3805
aS'LDR R2, mem'
p3806
aS'ADD R12, R3, R12'
p3807
aS'MOV R9, R12'
p3808
aS'LDR R11, =0x7FFFFBFF'
p3809
aS'ADD R10, R10, place'
p3810
aS'STR regaregen, mem'
p3811
aS'LDR R12, mem'
p3812
aS'B func'
p3813
asg175
Nsg5
S'0xcac74L'
p3814
sg177
(lp3815
S'0xcac6cL'
p3816
asg6
Nsg179
(lp3817
S'0xcacc8L'
p3818
asg183
Nsg184
Nsg185
S'634c53c65a60be7c588d302a83cd981d'
p3819
sg187
S'1e96db4b08f8e2e351cce5f3ca994218'
p3820
sg189
(lp3821
g3739
ag3746
ag3753
ag3760
ag3767
ag3774
ag3781
ag3788
ag3795
ag152
asg191
Nsba(ibclass
BBasicBlock
p3822
(dp3823
g12
Nsg13
(lp3824
(ibclass
BInstr
p3825
(dp3826
g2
Nsg17
S'CMP     R2, R3'
p3827
sg19
S'030052e1'
p3828
sg21
Vcmp r2, r3
p3829
sg5
L830620L
sg6
Nsg23
S'CMP'
p3830
sg25
S'0xcac9cL'
p3831
sg27
Nsba(ibclass
BInstr
p3832
(dp3833
g2
Nsg17
S'BCS     loc_CACBC'
p3834
sg19
S'0500002a'
p3835
sg21
Vbhs #0x1c
p3836
sg5
L830624L
sg6
Nsg23
g152
sg25
S'0xcaca0L'
p3837
sg27
Nsbasg154
(lp3838
S'CMP R2, R3'
p3839
aS'BCS func'
p3840
asg175
Nsg5
S'0xcac9cL'
p3841
sg177
(lp3842
S'0xcacd8L'
p3843
aS'0xcad1cL'
p3844
aS'0xcad64L'
p3845
aS'0xcaf40L'
p3846
asg6
Nsg179
(lp3847
S'0xcaca4L'
p3848
aS'0xcacbcL'
p3849
asg183
Nsg184
Nsg185
S'c78fd620a449e3c979d3f3ec12d4ee88'
p3850
sg187
S'9800af0f41e4e2f24cf62f1ab43febd8'
p3851
sg189
(lp3852
g3830
ag152
asg191
Nsba(ibclass
BBasicBlock
p3853
(dp3854
g12
Nsg13
(lp3855
(ibclass
BInstr
p3856
(dp3857
g2
Nsg17
S'LDR     R3, [sbuffer]'
p3858
sg19
S'00309ce5'
p3859
sg21
Vldr r3, [ip]
p3860
sg5
L830628L
sg6
Nsg23
S'LDR'
p3861
sg25
S'0xcaca4L'
p3862
sg27
Nsba(ibclass
BInstr
p3863
(dp3864
g2
Nsg17
S'CMP     R3, #0'
p3865
sg19
S'000053e3'
p3866
sg21
Vcmp r3, #0
p3867
sg5
L830632L
sg6
Nsg23
S'CMP'
p3868
sg25
S'0xcaca8L'
p3869
sg27
Nsba(ibclass
BInstr
p3870
(dp3871
g2
Nsg17
S'LDREQ   R3, [buffer]'
p3872
sg19
S'00309605'
p3873
sg21
Vldreq r3, [r6]
p3874
sg5
L830636L
sg6
Nsg23
S'LDR'
p3875
sg25
S'0xcacacL'
p3876
sg27
Nsba(ibclass
BInstr
p3877
(dp3878
g2
Nsg17
S'STRB    R5, [R3,R2]'
p3879
sg19
S'0250c3e7'
p3880
sg21
Vstrb r5, [r3, r2]
p3881
sg5
L830640L
sg6
Nsg23
S'STR'
p3882
sg25
S'0xcacb0L'
p3883
sg27
Nsba(ibclass
BInstr
p3884
(dp3885
g2
Nsg17
S'ADD     R2, R2, #1'
p3886
sg19
S'012082e2'
p3887
sg21
Vadd r2, r2, #1
p3888
sg5
L830644L
sg6
Nsg23
S'ADD'
p3889
sg25
S'0xcacb4L'
p3890
sg27
Nsba(ibclass
BInstr
p3891
(dp3892
g2
Nsg17
S'STR     R2, [currlen]'
p3893
sg19
S'002088e5'
p3894
sg21
Vstr r2, [r8]
p3895
sg5
L830648L
sg6
Nsg23
S'STR'
p3896
sg25
S'0xcacb8L'
p3897
sg27
Nsbasg154
(lp3898
S'LDR R3, mem'
p3899
aS'CMP R3, #0'
p3900
aS'LDREQ R3, mem'
p3901
aS'STRB R5, mem'
p3902
aS'ADD R2, R2, #1'
p3903
aS'STR R2, mem'
p3904
asg175
Nsg5
S'0xcaca4L'
p3905
sg177
(lp3906
S'0xcac9cL'
p3907
asg6
Nsg179
(lp3908
S'0xcacbcL'
p3909
asg183
Nsg184
Nsg185
S'0f75e56b74bfbf576cf1af70ab8a4eaa'
p3910
sg187
S'2f4170fbfa715619d03c32a8733655ef'
p3911
sg189
(lp3912
g3861
ag3868
ag3875
ag3882
ag3889
ag3896
asg191
Nsba(ibclass
BBasicBlock
p3913
(dp3914
g12
Nsg13
(lp3915
(ibclass
BInstr
p3916
(dp3917
g2
Nsg17
S'CMP     place, #0'
p3918
sg19
S'000054e3'
p3919
sg21
Vcmp r4, #0
p3920
sg5
L830652L
sg6
Nsg23
S'CMP'
p3921
sg25
S'0xcacbcL'
p3922
sg27
Nsba(ibclass
BInstr
p3923
(dp3924
g2
Nsg17
S'SUB     R10, R10, #1'
p3925
sg19
S'01a04ae2'
p3926
sg21
Vsub sl, sl, #1
p3927
sg5
L830656L
sg6
Nsg23
S'SUB'
p3928
sg25
S'0xcacc0L'
p3929
sg27
Nsba(ibclass
BInstr
p3930
(dp3931
g2
Nsg17
S'BEQ     loc_CADE0'
p3932
sg19
S'4500000a'
p3933
sg21
Vbeq #0x11c
p3934
sg5
L830660L
sg6
Nsg23
g152
sg25
S'0xcacc4L'
p3935
sg27
Nsbasg154
(lp3936
S'CMP place, #0'
p3937
aS'SUB R10, R10, #1'
p3938
aS'BEQ func'
p3939
asg175
Nsg5
S'0xcacbcL'
p3940
sg177
(lp3941
S'0xcac9cL'
p3942
aS'0xcaca4L'
p3943
asg6
Nsg179
(lp3944
S'0xcacc8L'
p3945
aS'0xcade0L'
p3946
asg183
Nsg184
Nsg185
S'bfcdfa5e2e233df086bc20b8a64b91f3'
p3947
sg187
S'11228637badeac926ca7b73018adc0cc'
p3948
sg189
(lp3949
g3921
ag3928
ag152
asg191
Nsba(ibclass
BBasicBlock
p3950
(dp3951
g12
Nsg13
(lp3952
(ibclass
BInstr
p3953
(dp3954
g2
Nsg17
S'CMP     buffer, #0'
p3955
sg19
S'000056e3'
p3956
sg21
Vcmp r6, #0
p3957
sg5
L830664L
sg6
Nsg23
S'CMP'
p3958
sg25
S'0xcacc8L'
p3959
sg27
Nsba(ibclass
BInstr
p3960
(dp3961
g2
Nsg17
S'SUB     place, place, #1'
p3962
sg19
S'014044e2'
p3963
sg21
Vsub r4, r4, #1
p3964
sg5
L830668L
sg6
Nsg23
S'SUB'
p3965
sg25
S'0xcacccL'
p3966
sg27
Nsba(ibclass
BInstr
p3967
(dp3968
g2
Nsg17
S'LDRB    spadlen, [R10,#-1]'
p3969
sg19
S'01505ae5'
p3970
sg21
Vldrb r5, [sl, #-1]
p3971
sg5
L830672L
sg6
Nsg23
S'LDR'
p3972
sg25
S'0xcacd0L'
p3973
sg27
Nsba(ibclass
BInstr
p3974
(dp3975
g2
Nsg17
S'BEQ     loc_CAD64'
p3976
sg19
S'2200000a'
p3977
sg21
Vbeq #0x90
p3978
sg5
L830676L
sg6
Nsg23
g152
sg25
S'0xcacd4L'
p3979
sg27
Nsbasg154
(lp3980
S'CMP buffer, #0'
p3981
aS'SUB place, place, #1'
p3982
aS'LDRB regaregen, mem'
p3983
aS'BEQ func'
p3984
asg175
Nsg5
S'0xcacc8L'
p3985
sg177
(lp3986
S'0xcac74L'
p3987
aS'0xcacbcL'
p3988
asg6
Nsg179
(lp3989
S'0xcacd8L'
p3990
aS'0xcad64L'
p3991
asg183
Nsg184
Nsg185
S'd26cb4839467226b7e9c52fc11b76491'
p3992
sg187
S'8591fdceddde99da67cd22fca5c3480c'
p3993
sg189
(lp3994
g3958
ag3965
ag3972
ag152
asg191
Nsba(ibclass
BBasicBlock
p3995
(dp3996
g12
Nsg13
(lp3997
(ibclass
BInstr
p3998
(dp3999
g2
Nsg17
S'LDR     R3, [maxlen]'
p4000
sg19
S'003097e5'
p4001
sg21
Vldr r3, [r7]
p4002
sg5
L830680L
sg6
Nsg23
S'LDR'
p4003
sg25
S'0xcacd8L'
p4004
sg27
Nsba(ibclass
BInstr
p4005
(dp4006
g2
Nsg17
S'CMP     R3, R2'
p4007
sg19
S'020053e1'
p4008
sg21
Vcmp r3, r2
p4009
sg5
L830684L
sg6
Nsg23
S'CMP'
p4010
sg25
S'0xcacdcL'
p4011
sg27
Nsba(ibclass
BInstr
p4012
(dp4013
g2
Nsg17
S'BNE     loc_CAC9C'
p4014
sg19
S'edffff1a'
p4015
sg21
Vbne #0xffffffbc
p4016
sg5
L830688L
sg6
Nsg23
g152
sg25
S'0xcace0L'
p4017
sg27
Nsbasg154
(lp4018
S'LDR R3, mem'
p4019
aS'CMP R3, R2'
p4020
aS'BNE func'
p4021
asg175
Nsg5
S'0xcacd8L'
p4022
sg177
(lp4023
S'0xcacc8L'
p4024
asg6
Nsg179
(lp4025
S'0xcac9cL'
p4026
aS'0xcace4L'
p4027
asg183
Nsg184
Nsg185
S'fa4df767a85c49648339e2dc5c6807f6'
p4028
sg187
S'e2e29a9ed7cf579e472c732e92893fd5'
p4029
sg189
(lp4030
g4003
ag4010
ag152
asg191
Nsba(ibclass
BBasicBlock
p4031
(dp4032
g12
Nsg13
(lp4033
(ibclass
BInstr
p4034
(dp4035
g2
Nsg17
S'CMP     R2, R11'
p4036
sg19
S'0b0052e1'
p4037
sg21
Vcmp r2, fp
p4038
sg5
L830692L
sg6
Nsg23
S'CMP'
p4039
sg25
S'0xcace4L'
p4040
sg27
Nsba(ibclass
BInstr
p4041
(dp4042
g2
Nsg17
S'BHI     loc_CA958'
p4043
sg19
S'1affff8a'
p4044
sg21
Vbhi #0xfffffc70
p4045
sg5
L830696L
sg6
Nsg23
g152
sg25
S'0xcace8L'
p4046
sg27
Nsbasg154
(lp4047
S'CMP R2, R11'
p4048
aS'BHI func'
p4049
asg175
Nsg5
S'0xcace4L'
p4050
sg177
(lp4051
S'0xcacd8L'
p4052
asg6
Nsg179
(lp4053
S'0xca958L'
p4054
aS'0xcacecL'
p4055
asg183
Nsg184
Nsg185
S'c78fd620a449e3c979d3f3ec12d4ee88'
p4056
sg187
S'7095ab6fcf0bd6bc0c34bc210b18b2d9'
p4057
sg189
(lp4058
g4039
ag152
asg191
Nsba(ibclass
BBasicBlock
p4059
(dp4060
g12
Nsg13
(lp4061
(ibclass
BInstr
p4062
(dp4063
g2
Nsg17
S'LDR     R0, [buffer]    ; str'
p4064
sg19
S'000096e5'
p4065
sg21
Vldr r0, [r6]
p4066
sg5
L830700L
sg6
Nsg23
S'LDR'
p4067
sg25
S'0xcacecL'
p4068
sg27
Nsba(ibclass
BInstr
p4069
(dp4070
g2
Nsg17
S'ADD     R1, R2, #0x400  ; num'
p4071
sg19
S'011b82e2'
p4072
sg21
Vadd r1, r2, #0x400
p4073
sg5
L830704L
sg6
Nsg23
S'ADD'
p4074
sg25
S'0xcacf0L'
p4075
sg27
Nsba(ibclass
BInstr
p4076
(dp4077
g2
Nsg17
S'CMP     R0, #0'
p4078
sg19
S'000050e3'
p4079
sg21
Vcmp r0, #0
p4080
sg5
L830708L
sg6
Nsg23
S'CMP'
p4081
sg25
S'0xcacf4L'
p4082
sg27
Nsba(ibclass
BInstr
p4083
(dp4084
g2
Nsg17
S'STR     R1, [maxlen]'
p4085
sg19
S'001087e5'
p4086
sg21
Vstr r1, [r7]
p4087
sg5
L830712L
sg6
Nsg23
S'STR'
p4088
sg25
S'0xcacf8L'
p4089
sg27
Nsba(ibclass
BInstr
p4090
(dp4091
g2
Nsg17
S'BEQ     loc_CAF10'
p4092
sg19
S'8300000a'
p4093
sg21
Vbeq #0x214
p4094
sg5
L830716L
sg6
Nsg23
g152
sg25
S'0xcacfcL'
p4095
sg27
Nsbasg154
(lp4096
S'LDR R0, mem'
p4097
aS'ADD R1, R2, #0x400'
p4098
aS'CMP R0, #0'
p4099
aS'STR R1, mem'
p4100
aS'BEQ func'
p4101
asg175
Nsg5
S'0xcacecL'
p4102
sg177
(lp4103
S'0xcace4L'
p4104
asg6
Nsg179
(lp4105
S'0xcad00L'
p4106
aS'0xcaf10L'
p4107
asg183
Nsg184
Nsg185
S'4ec61fd607a8af912e661d4962fa75d9'
p4108
sg187
S'99c14bc301ed53807b51f481993e4247'
p4109
sg189
(lp4110
g4067
ag4074
ag4081
ag4088
ag152
asg191
Nsba(ibclass
BBasicBlock
p4111
(dp4112
g12
Nsg13
(lp4113
(ibclass
BInstr
p4114
(dp4115
g2
Nsg17
S'MOV     R2, R9          ; file'
p4116
sg19
S'0920a0e1'
p4117
sg21
Vmov r2, sb
p4118
sg5
L830720L
sg6
Nsg23
S'MOV'
p4119
sg25
S'0xcad00L'
p4120
sg27
Nsba(ibclass
BInstr
p4121
(dp4122
g2
Nsg17
S'LDR     R3, =0x303      ; line'
p4123
sg19
S'34339fe5'
p4124
sg21
Vldr r3, [pc, #0x334]
p4125
sg5
L830724L
sg6
Nsg23
S'LDR'
p4126
sg25
S'0xcad04L'
p4127
sg27
Nsba(ibclass
BInstr
p4128
(dp4129
g2
Nsg17
S'STR     sbuffer, [SP,#0x60+var_60]'
p4130
sg19
S'00c08de5'
p4131
sg21
Vstr ip, [sp]
p4132
sg5
L830728L
sg6
Nsg23
S'STR'
p4133
sg25
S'0xcad08L'
p4134
sg27
Nsba(ibclass
BInstr
p4135
(dp4136
g2
Nsg17
S'BL      CRYPTO_realloc'
p4137
sg19
S'b3f8fdeb'
p4138
sg21
Vbl #0xfff7e2d4
p4139
sg5
L830732L
sg6
Nsg23
S'BL'
p4140
sg25
S'0xcad0cL'
p4141
sg27
Nsba(ibclass
BInstr
p4142
(dp4143
g2
Nsg17
S'CMP     R0, #0'
p4144
sg19
S'000050e3'
p4145
sg21
Vcmp r0, #0
p4146
sg5
L830736L
sg6
Nsg23
S'CMP'
p4147
sg25
S'0xcad10L'
p4148
sg27
Nsba(ibclass
BInstr
p4149
(dp4150
g2
Nsg17
S'LDR     R12, [SP,#0x60+var_60]'
p4151
sg19
S'00c09de5'
p4152
sg21
Vldr ip, [sp]
p4153
sg5
L830740L
sg6
Nsg23
S'LDR'
p4154
sg25
S'0xcad14L'
p4155
sg27
Nsba(ibclass
BInstr
p4156
(dp4157
g2
Nsg17
S'BEQ     loc_CA958'
p4158
sg19
S'0effff0a'
p4159
sg21
Vbeq #0xfffffc40
p4160
sg5
L830744L
sg6
Nsg23
g152
sg25
S'0xcad18L'
p4161
sg27
Nsbasg154
(lp4162
S'MOV R2, R9'
p4163
aS'LDR R3, =0x303'
p4164
aS'STR sbuffer, mem'
p4165
aS'BL CRYPTO_reregloc'
p4166
aS'CMP R0, #0'
p4167
aS'LDR R12, mem'
p4168
aS'BEQ func'
p4169
asg175
Nsg5
S'0xcad00L'
p4170
sg177
(lp4171
S'0xcacecL'
p4172
asg6
Nsg179
(lp4173
S'0xca958L'
p4174
aS'0xcad1cL'
p4175
asg183
Nsg184
Nsg185
S'8581352028ee78cada93d350fa730663'
p4176
sg187
S'7a971ca71f2ba73ad72d68c9cd43edf4'
p4177
sg189
(lp4178
g4119
ag4126
ag4133
ag4140
ag4147
ag4154
ag152
asg191
Nsba(ibclass
BBasicBlock
p4179
(dp4180
g12
Nsg13
(lp4181
(ibclass
BInstr
p4182
(dp4183
g2
Nsg17
S'LDR     R2, [currlen]'
p4184
sg19
S'002098e5'
p4185
sg21
Vldr r2, [r8]
p4186
sg5
L830748L
sg6
Nsg23
S'LDR'
p4187
sg25
S'0xcad1cL'
p4188
sg27
Nsba(ibclass
BInstr
p4189
(dp4190
g2
Nsg17
S'LDR     R3, [maxlen]'
p4191
sg19
S'003097e5'
p4192
sg21
Vldr r3, [r7]
p4193
sg5
L830752L
sg6
Nsg23
S'LDR'
p4194
sg25
S'0xcad20L'
p4195
sg27
Nsba(ibclass
BInstr
p4196
(dp4197
g2
Nsg17
S'STR     R0, [buffer]'
p4198
sg19
S'000086e5'
p4199
sg21
Vstr r0, [r6]
p4200
sg5
L830756L
sg6
Nsg23
S'STR'
p4201
sg25
S'0xcad24L'
p4202
sg27
Nsba(ibclass
BInstr
p4203
(dp4204
g2
Nsg17
S'B       loc_CAC9C'
p4205
sg19
S'dbffffea'
p4206
sg21
Vb #0xffffff74
p4207
sg5
L830760L
sg6
Nsg23
g152
sg25
S'0xcad28L'
p4208
sg27
Nsbasg154
(lp4209
S'LDR R2, mem'
p4210
aS'LDR R3, mem'
p4211
aS'STR R0, mem'
p4212
aS'B func'
p4213
asg175
Nsg5
S'0xcad1cL'
p4214
sg177
(lp4215
S'0xcad00L'
p4216
asg6
Nsg179
(lp4217
S'0xcac9cL'
p4218
asg183
Nsg184
Nsg185
S'254797143989388d9207e7f4139e3257'
p4219
sg187
S'533d0ebc2a4ad8644106e9313d030cba'
p4220
sg189
(lp4221
g4187
ag4194
ag4201
ag152
asg191
Nsba(ibclass
BBasicBlock
p4222
(dp4223
g12
Nsg13
(lp4224
(ibclass
BInstr
p4225
(dp4226
g2
Nsg17
S'LDR     R1, [sbuffer]   ; src'
p4227
sg19
S'001094e5'
p4228
sg21
Vldr r1, [r4]
p4229
sg5
L830764L
sg6
Nsg23
S'LDR'
p4230
sg25
S'0xcad2cL'
p4231
sg27
Nsba(ibclass
BInstr
p4232
(dp4233
g2
Nsg17
S'BL      memcpy'
p4234
sg19
S'7ff3fdeb'
p4235
sg21
Vbl #0xfff7ce04
p4236
sg5
L830768L
sg6
Nsg23
S'BL'
p4237
sg25
S'0xcad30L'
p4238
sg27
Nsba(ibclass
BInstr
p4239
(dp4240
g2
Nsg17
S'LDR     R2, [currlen]'
p4241
sg19
S'002098e5'
p4242
sg21
Vldr r2, [r8]
p4243
sg5
L830772L
sg6
Nsg23
S'LDR'
p4244
sg25
S'0xcad34L'
p4245
sg27
Nsba(ibclass
BInstr
p4246
(dp4247
g2
Nsg17
S'B       loc_CAB0C'
p4248
sg19
S'73ffffea'
p4249
sg21
Vb #0xfffffdd4
p4250
sg5
L830776L
sg6
Nsg23
g152
sg25
S'0xcad38L'
p4251
sg27
Nsbasg154
(lp4252
S'LDR R1, mem'
p4253
aS'BL memcpy'
p4254
aS'LDR R2, mem'
p4255
aS'B func'
p4256
asg175
Nsg5
S'0xcad2cL'
p4257
sg177
(lp4258
S'0xcab00L'
p4259
asg6
Nsg179
(lp4260
S'0xcab0cL'
p4261
asg183
Nsg184
Nsg185
S'964ccb01aab82351122f2fd2deed6d7e'
p4262
sg187
S'd7e619db40a667d4db7eb73b763b5afd'
p4263
sg189
(lp4264
g4230
ag4237
ag4244
ag152
asg191
Nsba(ibclass
BBasicBlock
p4265
(dp4266
g12
Nsg13
(lp4267
(ibclass
BInstr
p4268
(dp4269
g2
Nsg17
S'LDR     R2, [currlen]'
p4270
sg19
S'002098e5'
p4271
sg21
Vldr r2, [r8]
p4272
sg5
L830780L
sg6
Nsg23
S'LDR'
p4273
sg25
S'0xcad3cL'
p4274
sg27
Nsba(ibclass
BInstr
p4275
(dp4276
g2
Nsg17
S'LDR     R3, [maxlen]'
p4277
sg19
S'003097e5'
p4278
sg21
Vldr r3, [r7]
p4279
sg5
L830784L
sg6
Nsg23
S'LDR'
p4280
sg25
S'0xcad40L'
p4281
sg27
Nsba(ibclass
BInstr
p4282
(dp4283
g2
Nsg17
S'B       loc_CAB60'
p4284
sg19
S'85ffffea'
p4285
sg21
Vb #0xfffffe1c
p4286
sg5
L830788L
sg6
Nsg23
g152
sg25
S'0xcad44L'
p4287
sg27
Nsbasg154
(lp4288
S'LDR R2, mem'
p4289
aS'LDR R3, mem'
p4290
aS'B func'
p4291
asg175
Nsg5
S'0xcad3cL'
p4292
sg177
(lp4293
S'0xcab88L'
p4294
asg6
Nsg179
(lp4295
S'0xcab60L'
p4296
asg183
Nsg184
Nsg185
S'5475768f796b8bef9e1180a7bb8d9996'
p4297
sg187
S'6e33bbb8f89bc49bc654966d78c52dbf'
p4298
sg189
(lp4299
g4273
ag4280
ag152
asg191
Nsba(ibclass
BBasicBlock
p4300
(dp4301
g12
Nsg13
(lp4302
(ibclass
BInstr
p4303
(dp4304
g2
Nsg17
S'LDR     R3, =0xFFFDD454'
p4305
sg19
S'00339fe5'
p4306
sg21
Vldr r3, [pc, #0x300]
p4307
sg5
L830792L
sg6
Nsg23
S'LDR'
p4308
sg25
S'0xcad48L'
p4309
sg27
Nsba(ibclass
BInstr
p4310
(dp4311
g2
Nsg17
S'LDR     R12, [SP,#0x60+var_58]'
p4312
sg19
S'08c09de5'
p4313
sg21
Vldr ip, [sp, #8]
p4314
sg5
L830796L
sg6
Nsg23
S'LDR'
p4315
sg25
S'0xcad4cL'
p4316
sg27
Nsba(ibclass
BInstr
p4317
(dp4318
g2
Nsg17
S'MOV     R2, #2'
p4319
sg19
S'0220a0e3'
p4320
sg21
Vmov r2, #2
p4321
sg5
L830800L
sg6
Nsg23
S'MOV'
p4322
sg25
S'0xcad50L'
p4323
sg27
Nsba(ibclass
BInstr
p4324
(dp4325
g2
Nsg17
S'ADD     R3, R12, R3'
p4326
sg19
S'03308ce0'
p4327
sg21
Vadd r3, ip, r3
p4328
sg5
L830804L
sg6
Nsg23
S'ADD'
p4329
sg25
S'0xcad54L'
p4330
sg27
Nsba(ibclass
BInstr
p4331
(dp4332
g2
Nsg17
S'STR     R2, [SP,#0x60+var_44]'
p4333
sg19
S'1c208de5'
p4334
sg21
Vstr r2, [sp, #0x1c]
p4335
sg5
L830808L
sg6
Nsg23
S'STR'
p4336
sg25
S'0xcad58L'
p4337
sg27
Nsba(ibclass
BInstr
p4338
(dp4339
g2
Nsg17
S'STR     R3, [SP,#0x60+var_48]'
p4340
sg19
S'18308de5'
p4341
sg21
Vstr r3, [sp, #0x18]
p4342
sg5
L830812L
sg6
Nsg23
S'STR'
p4343
sg25
S'0xcad5cL'
p4344
sg27
Nsba(ibclass
BInstr
p4345
(dp4346
g2
Nsg17
S'B       loc_CA7B4'
p4347
sg19
S'93feffea'
p4348
sg21
Vb #0xfffffa54
p4349
sg5
L830816L
sg6
Nsg23
g152
sg25
S'0xcad60L'
p4350
sg27
Nsbasg154
(lp4351
S'LDR R3, =0xFFFDD454'
p4352
aS'LDR R12, mem'
p4353
aS'MOV R2, #2'
p4354
aS'ADD R3, R12, R3'
p4355
aS'STR R2, mem'
p4356
aS'STR R3, mem'
p4357
aS'B func'
p4358
asg175
Nsg5
S'0xcad48L'
p4359
sg177
(lp4360
S'0xcaab0L'
p4361
asg6
Nsg179
(lp4362
S'0xca7b4L'
p4363
asg183
Nsg184
Nsg185
S'60e90b3532cf030e312d47d44c26946c'
p4364
sg187
S'944ab511c2a357461ad7db598debb870'
p4365
sg189
(lp4366
g4308
ag4315
ag4322
ag4329
ag4336
ag4343
ag152
asg191
Nsba(ibclass
BBasicBlock
p4367
(dp4368
g12
Nsg13
(lp4369
(ibclass
BInstr
p4370
(dp4371
g2
Nsg17
S'LDR     R2, [currlen]'
p4372
sg19
S'002098e5'
p4373
sg21
Vldr r2, [r8]
p4374
sg5
L830820L
sg6
Nsg23
S'LDR'
p4375
sg25
S'0xcad64L'
p4376
sg27
Nsba(ibclass
BInstr
p4377
(dp4378
g2
Nsg17
S'LDR     R3, [maxlen]'
p4379
sg19
S'003097e5'
p4380
sg21
Vldr r3, [r7]
p4381
sg5
L830824L
sg6
Nsg23
S'LDR'
p4382
sg25
S'0xcad68L'
p4383
sg27
Nsba(ibclass
BInstr
p4384
(dp4385
g2
Nsg17
S'B       loc_CAC9C'
p4386
sg19
S'caffffea'
p4387
sg21
Vb #0xffffff30
p4388
sg5
L830828L
sg6
Nsg23
g152
sg25
S'0xcad6cL'
p4389
sg27
Nsbasg154
(lp4390
S'LDR R2, mem'
p4391
aS'LDR R3, mem'
p4392
aS'B func'
p4393
asg175
Nsg5
S'0xcad64L'
p4394
sg177
(lp4395
S'0xcacc8L'
p4396
asg6
Nsg179
(lp4397
S'0xcac9cL'
p4398
asg183
Nsg184
Nsg185
S'5475768f796b8bef9e1180a7bb8d9996'
p4399
sg187
S'6e33bbb8f89bc49bc654966d78c52dbf'
p4400
sg189
(lp4401
g4375
ag4382
ag152
asg191
Nsba(ibclass
BBasicBlock
p4402
(dp4403
g12
Nsg13
(lp4404
(ibclass
BInstr
p4405
(dp4406
g2
Nsg17
S'MOV     R0, R1          ; num'
p4407
sg19
S'0100a0e1'
p4408
sg21
Vmov r0, r1
p4409
sg5
L830832L
sg6
Nsg23
S'MOV'
p4410
sg25
S'0xcad70L'
p4411
sg27
Nsba(ibclass
BInstr
p4412
(dp4413
g2
Nsg17
S'LDR     R2, =0x2F9      ; line'
p4414
sg19
S'cc229fe5'
p4415
sg21
Vldr r2, [pc, #0x2cc]
p4416
sg5
L830836L
sg6
Nsg23
S'LDR'
p4417
sg25
S'0xcad74L'
p4418
sg27
Nsba(ibclass
BInstr
p4419
(dp4420
g2
Nsg17
S'LDR     R1, [SP,#0x60+file]; file'
p4421
sg19
S'04109de5'
p4422
sg21
Vldr r1, [sp, #4]
p4423
sg5
L830840L
sg6
Nsg23
S'LDR'
p4424
sg25
S'0xcad78L'
p4425
sg27
Nsba(ibclass
BInstr
p4426
(dp4427
g2
Nsg17
S'BL      CRYPTO_malloc'
p4428
sg19
S'5ff8fdeb'
p4429
sg21
Vbl #0xfff7e184
p4430
sg5
L830844L
sg6
Nsg23
S'BL'
p4431
sg25
S'0xcad7cL'
p4432
sg27
Nsba(ibclass
BInstr
p4433
(dp4434
g2
Nsg17
S'CMP     R0, #0'
p4435
sg19
S'000050e3'
p4436
sg21
Vcmp r0, #0
p4437
sg5
L830848L
sg6
Nsg23
S'CMP'
p4438
sg25
S'0xcad80L'
p4439
sg27
Nsba(ibclass
BInstr
p4440
(dp4441
g2
Nsg17
S'STR     R0, [buffer]'
p4442
sg19
S'000086e5'
p4443
sg21
Vstr r0, [r6]
p4444
sg5
L830852L
sg6
Nsg23
S'STR'
p4445
sg25
S'0xcad84L'
p4446
sg27
Nsba(ibclass
BInstr
p4447
(dp4448
g2
Nsg17
S'BEQ     loc_CA958'
p4449
sg19
S'f2feff0a'
p4450
sg21
Vbeq #0xfffffbd0
p4451
sg5
L830856L
sg6
Nsg23
g152
sg25
S'0xcad88L'
p4452
sg27
Nsbasg154
(lp4453
S'MOV R0, R1'
p4454
aS'LDR R2, =0x2F9'
p4455
aS'LDR R1, mem'
p4456
aS'BL CRYPTO_mregloc'
p4457
aS'CMP R0, #0'
p4458
aS'STR R0, mem'
p4459
aS'BEQ func'
p4460
asg175
Nsg5
S'0xcad70L'
p4461
sg177
(lp4462
S'0xcaa04L'
p4463
asg6
Nsg179
(lp4464
S'0xca958L'
p4465
aS'0xcad8cL'
p4466
asg183
Nsg184
Nsg185
S'6aa758d11d798218ccdd30080f55d0d0'
p4467
sg187
S'b2fb79d95fb8d65fccf614b502398acf'
p4468
sg189
(lp4469
g4410
ag4417
ag4424
ag4431
ag4438
ag4445
ag152
asg191
Nsba(ibclass
BBasicBlock
p4470
(dp4471
g12
Nsg13
(lp4472
(ibclass
BInstr
p4473
(dp4474
g2
Nsg17
S'LDR     R2, [currlen]   ; n'
p4475
sg19
S'002098e5'
p4476
sg21
Vldr r2, [r8]
p4477
sg5
L830860L
sg6
Nsg23
S'LDR'
p4478
sg25
S'0xcad8cL'
p4479
sg27
Nsba(ibclass
BInstr
p4480
(dp4481
g2
Nsg17
S'CMP     R2, #0'
p4482
sg19
S'000052e3'
p4483
sg21
Vcmp r2, #0
p4484
sg5
L830864L
sg6
Nsg23
S'CMP'
p4485
sg25
S'0xcad90L'
p4486
sg27
Nsba(ibclass
BInstr
p4487
(dp4488
g2
Nsg17
S'BNE     loc_CAEF4'
p4489
sg19
S'5600001a'
p4490
sg21
Vbne #0x160
p4491
sg5
L830868L
sg6
Nsg23
g152
sg25
S'0xcad94L'
p4492
sg27
Nsbasg154
(lp4493
S'LDR R2, mem'
p4494
aS'CMP R2, #0'
p4495
aS'BNE func'
p4496
asg175
Nsg5
S'0xcad8cL'
p4497
sg177
(lp4498
S'0xcad70L'
p4499
asg6
Nsg179
(lp4500
S'0xcad98L'
p4501
aS'0xcaef4L'
p4502
asg183
Nsg184
Nsg185
S'fa4df767a85c49648339e2dc5c6807f6'
p4503
sg187
S'6eb8dc9ae4d45fad4ce4e667e53812a2'
p4504
sg189
(lp4505
g4478
ag4485
ag152
asg191
Nsba(ibclass
BBasicBlock
p4506
(dp4507
g12
Nsg13
(lp4508
(ibclass
BInstr
p4509
(dp4510
g2
Nsg17
S'MOV     R12, #0'
p4511
sg19
S'00c0a0e3'
p4512
sg21
Vmov ip, #0
p4513
sg5
L830872L
sg6
Nsg23
S'MOV'
p4514
sg25
S'0xcad98L'
p4515
sg27
Nsba(ibclass
BInstr
p4516
(dp4517
g2
Nsg17
S'STR     R12, [sbuffer]'
p4518
sg19
S'00c084e5'
p4519
sg21
Vstr ip, [r4]
p4520
sg5
L830876L
sg6
Nsg23
S'STR'
p4521
sg25
S'0xcad9cL'
p4522
sg27
Nsba(ibclass
BInstr
p4523
(dp4524
g2
Nsg17
S'LDR     R3, [maxlen]'
p4525
sg19
S'003097e5'
p4526
sg21
Vldr r3, [r7]
p4527
sg5
L830880L
sg6
Nsg23
S'LDR'
p4528
sg25
S'0xcada0L'
p4529
sg27
Nsba(ibclass
BInstr
p4530
(dp4531
g2
Nsg17
S'B       loc_CA9B8'
p4532
sg19
S'03ffffea'
p4533
sg21
Vb #0xfffffc14
p4534
sg5
L830884L
sg6
Nsg23
g152
sg25
S'0xcada4L'
p4535
sg27
Nsbasg154
(lp4536
S'MOV R12, #0'
p4537
aS'STR R12, mem'
p4538
aS'LDR R3, mem'
p4539
aS'B func'
p4540
asg175
Nsg5
S'0xcad98L'
p4541
sg177
(lp4542
S'0xcad8cL'
p4543
aS'0xcaef4L'
p4544
asg6
Nsg179
(lp4545
S'0xca9b8L'
p4546
asg183
Nsg184
Nsg185
S'a6ef3e35a047c003f9178d264052147b'
p4547
sg187
S'a49a3c7debd99b31d683c078b4b78dcd'
p4548
sg189
(lp4549
g4514
ag4521
ag4528
ag152
asg191
Nsba(ibclass
BBasicBlock
p4550
(dp4551
g12
Nsg13
(lp4552
(ibclass
BInstr
p4553
(dp4554
g2
Nsg17
S'MOV     R0, R1          ; num'
p4555
sg19
S'0100a0e1'
p4556
sg21
Vmov r0, r1
p4557
sg5
L830888L
sg6
Nsg23
S'MOV'
p4558
sg25
S'0xcada8L'
p4559
sg27
Nsba(ibclass
BInstr
p4560
(dp4561
g2
Nsg17
S'LDR     R2, =0x2F9      ; line'
p4562
sg19
S'94229fe5'
p4563
sg21
Vldr r2, [pc, #0x294]
p4564
sg5
L830892L
sg6
Nsg23
S'LDR'
p4565
sg25
S'0xcadacL'
p4566
sg27
Nsba(ibclass
BInstr
p4567
(dp4568
g2
Nsg17
S'LDR     R1, [SP,#0x60+file]; file'
p4569
sg19
S'04109de5'
p4570
sg21
Vldr r1, [sp, #4]
p4571
sg5
L830896L
sg6
Nsg23
S'LDR'
p4572
sg25
S'0xcadb0L'
p4573
sg27
Nsba(ibclass
BInstr
p4574
(dp4575
g2
Nsg17
S'BL      CRYPTO_malloc'
p4576
sg19
S'51f8fdeb'
p4577
sg21
Vbl #0xfff7e14c
p4578
sg5
L830900L
sg6
Nsg23
S'BL'
p4579
sg25
S'0xcadb4L'
p4580
sg27
Nsba(ibclass
BInstr
p4581
(dp4582
g2
Nsg17
S'CMP     R0, #0'
p4583
sg19
S'000050e3'
p4584
sg21
Vcmp r0, #0
p4585
sg5
L830904L
sg6
Nsg23
S'CMP'
p4586
sg25
S'0xcadb8L'
p4587
sg27
Nsba(ibclass
BInstr
p4588
(dp4589
g2
Nsg17
S'STR     R0, [buffer]'
p4590
sg19
S'000086e5'
p4591
sg21
Vstr r0, [r6]
p4592
sg5
L830908L
sg6
Nsg23
S'STR'
p4593
sg25
S'0xcadbcL'
p4594
sg27
Nsba(ibclass
BInstr
p4595
(dp4596
g2
Nsg17
S'BEQ     loc_CA958'
p4597
sg19
S'e4feff0a'
p4598
sg21
Vbeq #0xfffffb98
p4599
sg5
L830912L
sg6
Nsg23
g152
sg25
S'0xcadc0L'
p4600
sg27
Nsbasg154
(lp4601
S'MOV R0, R1'
p4602
aS'LDR R2, =0x2F9'
p4603
aS'LDR R1, mem'
p4604
aS'BL CRYPTO_mregloc'
p4605
aS'CMP R0, #0'
p4606
aS'STR R0, mem'
p4607
aS'BEQ func'
p4608
asg175
Nsg5
S'0xcada8L'
p4609
sg177
(lp4610
S'0xcaba4L'
p4611
asg6
Nsg179
(lp4612
S'0xca958L'
p4613
aS'0xcadc4L'
p4614
asg183
Nsg184
Nsg185
S'6aa758d11d798218ccdd30080f55d0d0'
p4615
sg187
S'b2fb79d95fb8d65fccf614b502398acf'
p4616
sg189
(lp4617
g4558
ag4565
ag4572
ag4579
ag4586
ag4593
ag152
asg191
Nsba(ibclass
BBasicBlock
p4618
(dp4619
g12
Nsg13
(lp4620
(ibclass
BInstr
p4621
(dp4622
g2
Nsg17
S'LDR     R2, [currlen]   ; n'
p4623
sg19
S'002098e5'
p4624
sg21
Vldr r2, [r8]
p4625
sg5
L830916L
sg6
Nsg23
S'LDR'
p4626
sg25
S'0xcadc4L'
p4627
sg27
Nsba(ibclass
BInstr
p4628
(dp4629
g2
Nsg17
S'CMP     R2, #0'
p4630
sg19
S'000052e3'
p4631
sg21
Vcmp r2, #0
p4632
sg5
L830920L
sg6
Nsg23
S'CMP'
p4633
sg25
S'0xcadc8L'
p4634
sg27
Nsba(ibclass
BInstr
p4635
(dp4636
g2
Nsg17
S'BNE     loc_CAF58'
p4637
sg19
S'6100001a'
p4638
sg21
Vbne #0x18c
p4639
sg5
L830924L
sg6
Nsg23
g152
sg25
S'0xcadccL'
p4640
sg27
Nsbasg154
(lp4641
S'LDR R2, mem'
p4642
aS'CMP R2, #0'
p4643
aS'BNE func'
p4644
asg175
Nsg5
S'0xcadc4L'
p4645
sg177
(lp4646
S'0xcada8L'
p4647
asg6
Nsg179
(lp4648
S'0xcadd0L'
p4649
aS'0xcaf58L'
p4650
asg183
Nsg184
Nsg185
S'fa4df767a85c49648339e2dc5c6807f6'
p4651
sg187
S'6eb8dc9ae4d45fad4ce4e667e53812a2'
p4652
sg189
(lp4653
g4626
ag4633
ag152
asg191
Nsba(ibclass
BBasicBlock
p4654
(dp4655
g12
Nsg13
(lp4656
(ibclass
BInstr
p4657
(dp4658
g2
Nsg17
S'MOV     R1, #0'
p4659
sg19
S'0010a0e3'
p4660
sg21
Vmov r1, #0
p4661
sg5
L830928L
sg6
Nsg23
S'MOV'
p4662
sg25
S'0xcadd0L'
p4663
sg27
Nsba(ibclass
BInstr
p4664
(dp4665
g2
Nsg17
S'STR     R1, [sbuffer]'
p4666
sg19
S'001085e5'
p4667
sg21
Vstr r1, [r5]
p4668
sg5
L830932L
sg6
Nsg23
S'STR'
p4669
sg25
S'0xcadd4L'
p4670
sg27
Nsba(ibclass
BInstr
p4671
(dp4672
g2
Nsg17
S'LDR     R3, [maxlen]'
p4673
sg19
S'003097e5'
p4674
sg21
Vldr r3, [r7]
p4675
sg5
L830936L
sg6
Nsg23
S'LDR'
p4676
sg25
S'0xcadd8L'
p4677
sg27
Nsba(ibclass
BInstr
p4678
(dp4679
g2
Nsg17
S'B       loc_CAB60'
p4680
sg19
S'5fffffea'
p4681
sg21
Vb #0xfffffd84
p4682
sg5
L830940L
sg6
Nsg23
g152
sg25
S'0xcaddcL'
p4683
sg27
Nsbasg154
(lp4684
S'MOV R1, #0'
p4685
aS'STR R1, mem'
p4686
aS'LDR R3, mem'
p4687
aS'B func'
p4688
asg175
Nsg5
S'0xcadd0L'
p4689
sg177
(lp4690
S'0xcadc4L'
p4691
aS'0xcaf58L'
p4692
asg6
Nsg179
(lp4693
S'0xcab60L'
p4694
asg183
Nsg184
Nsg185
S'a6ef3e35a047c003f9178d264052147b'
p4695
sg187
S'af83aa729dc076fea8b36b7879eaf509'
p4696
sg189
(lp4697
g4662
ag4669
ag4676
ag152
asg191
Nsba(ibclass
BBasicBlock
p4698
(dp4699
g12
Nsg13
(lp4700
(ibclass
BInstr
p4701
(dp4702
g2
Nsg17
S'LDR     R5, [SP,#0x60+file]'
p4703
sg19
S'04509de5'
p4704
sg21
Vldr r5, [sp, #4]
p4705
sg5
L830944L
sg6
Nsg23
S'LDR'
p4706
sg25
S'0xcade0L'
p4707
sg27
Nsbasg154
(lp4708
S'LDR R5, mem'
p4709
asg175
Nsg5
S'0xcade0L'
p4710
sg177
(lp4711
S'0xcacbcL'
p4712
asg6
Nsg179
(lp4713
S'0xcade4L'
p4714
asg183
Nsg184
Nsg185
S'6645d4de79aee6373f120d72c0030e5f'
p4715
sg187
S'701907346e3db16aaa7a415892adb098'
p4716
sg189
(lp4717
g4706
asg191
Nsba(ibclass
BBasicBlock
p4718
(dp4719
g12
Nsg13
(lp4720
(ibclass
BInstr
p4721
(dp4722
g2
Nsg17
S'CMP     spadlen, #0'
p4723
sg19
S'000055e3'
p4724
sg21
Vcmp r5, #0
p4725
sg5
L830948L
sg6
Nsg23
S'CMP'
p4726
sg25
S'0xcade4L'
p4727
sg27
Nsba(ibclass
BInstr
p4728
(dp4729
g2
Nsg17
S'BEQ     loc_CAF50'
p4730
sg19
S'5800000a'
p4731
sg21
Vbeq #0x168
p4732
sg5
L830952L
sg6
Nsg23
g152
sg25
S'0xcade8L'
p4733
sg27
Nsbasg154
(lp4734
S'CMP regaregen, #0'
p4735
aS'BEQ func'
p4736
asg175
Nsg5
S'0xcade4L'
p4737
sg177
(lp4738
S'0xcac6cL'
p4739
aS'0xcade0L'
p4740
asg6
Nsg179
(lp4741
S'0xcadecL'
p4742
aS'0xcaf50L'
p4743
asg183
Nsg184
Nsg185
S'c78fd620a449e3c979d3f3ec12d4ee88'
p4744
sg187
S'cfeca6493857cafb2557f8b6ddc99965'
p4745
sg189
(lp4746
g4726
ag152
asg191
Nsba(ibclass
BBasicBlock
p4747
(dp4748
g12
Nsg13
(lp4749
(ibclass
BInstr
p4750
(dp4751
g2
Nsg17
S'LDR     R9, =0xFFFDD46C'
p4752
sg19
S'44929fe5'
p4753
sg21
Vldr sb, [pc, #0x244]
p4754
sg5
L830956L
sg6
Nsg23
S'LDR'
p4755
sg25
S'0xcadecL'
p4756
sg27
Nsba(ibclass
BInstr
p4757
(dp4758
g2
Nsg17
S'LDR     R1, [SP,#0x60+var_58]'
p4759
sg19
S'08109de5'
p4760
sg21
Vldr r1, [sp, #8]
p4761
sg5
L830960L
sg6
Nsg23
S'LDR'
p4762
sg25
S'0xcadf0L'
p4763
sg27
Nsba(ibclass
BInstr
p4764
(dp4765
g2
Nsg17
S'LDR     R2, [currlen]'
p4766
sg19
S'002098e5'
p4767
sg21
Vldr r2, [r8]
p4768
sg5
L830964L
sg6
Nsg23
S'LDR'
p4769
sg25
S'0xcadf4L'
p4770
sg27
Nsba(ibclass
BInstr
p4771
(dp4772
g2
Nsg17
S'LDR     R10, =0x7FFFFBFF'
p4773
sg19
S'3ca29fe5'
p4774
sg21
Vldr sl, [pc, #0x23c]
p4775
sg5
L830968L
sg6
Nsg23
S'LDR'
p4776
sg25
S'0xcadf8L'
p4777
sg27
Nsba(ibclass
BInstr
p4778
(dp4779
g2
Nsg17
S'ADD     R9, R1, R9'
p4780
sg19
S'099081e0'
p4781
sg21
Vadd sb, r1, sb
p4782
sg5
L830972L
sg6
Nsg23
S'ADD'
p4783
sg25
S'0xcadfcL'
p4784
sg27
Nsba(ibclass
BInstr
p4785
(dp4786
g2
Nsg17
S'MOV     R11, #0'
p4787
sg19
S'00b0a0e3'
p4788
sg21
Vmov fp, #0
p4789
sg5
L830976L
sg6
Nsg23
S'MOV'
p4790
sg25
S'0xcae00L'
p4791
sg27
Nsba(ibclass
BInstr
p4792
(dp4793
g2
Nsg17
S'MOV     place, #0x20'
p4794
sg19
S'2040a0e3'
p4795
sg21
Vmov r4, #0x20
p4796
sg5
L830980L
sg6
Nsg23
S'MOV'
p4797
sg25
S'0xcae04L'
p4798
sg27
Nsba(ibclass
BInstr
p4799
(dp4800
g2
Nsg17
S'LDR     zpadlen, [SP,#0x60+var_4C]'
p4801
sg19
S'14c09de5'
p4802
sg21
Vldr ip, [sp, #0x14]
p4803
sg5
L830984L
sg6
Nsg23
S'LDR'
p4804
sg25
S'0xcae08L'
p4805
sg27
Nsba(ibclass
BInstr
p4806
(dp4807
g2
Nsg17
S'B       loc_CAE38'
p4808
sg19
S'090000ea'
p4809
sg21
Vb #0x2c
p4810
sg5
L830988L
sg6
Nsg23
g152
sg25
S'0xcae0cL'
p4811
sg27
Nsbasg154
(lp4812
S'LDR R9, =0xFFFDD46C'
p4813
aS'LDR R1, mem'
p4814
aS'LDR R2, mem'
p4815
aS'LDR R10, =0x7FFFFBFF'
p4816
aS'ADD R9, R1, R9'
p4817
aS'MOV R11, #0'
p4818
aS'MOV place, #0x20'
p4819
aS'LDR zparegen, mem'
p4820
aS'B func'
p4821
asg175
Nsg5
S'0xcadecL'
p4822
sg177
(lp4823
S'0xcade4L'
p4824
asg6
Nsg179
(lp4825
S'0xcae38L'
p4826
asg183
Nsg184
Nsg185
S'b402c94e3d3b4b3c8845eae207e1ef28'
p4827
sg187
S'702cd2ff0945cf1fdecad45dd482794c'
p4828
sg189
(lp4829
g4755
ag4762
ag4769
ag4776
ag4783
ag4790
ag4797
ag4804
ag152
asg191
Nsba(ibclass
BBasicBlock
p4830
(dp4831
g12
Nsg13
(lp4832
(ibclass
BInstr
p4833
(dp4834
g2
Nsg17
S'CMP     R2, R3'
p4835
sg19
S'030052e1'
p4836
sg21
Vcmp r2, r3
p4837
sg5
L830992L
sg6
Nsg23
S'CMP'
p4838
sg25
S'0xcae10L'
p4839
sg27
Nsba(ibclass
BInstr
p4840
(dp4841
g2
Nsg17
S'BCS     loc_CAE30'
p4842
sg19
S'0500002a'
p4843
sg21
Vbhs #0x1c
p4844
sg5
L830996L
sg6
Nsg23
g152
sg25
S'0xcae14L'
p4845
sg27
Nsbasg154
(lp4846
S'CMP R2, R3'
p4847
aS'BCS func'
p4848
asg175
Nsg5
S'0xcae10L'
p4849
sg177
(lp4850
S'0xcae40L'
p4851
aS'0xcae84L'
p4852
aS'0xcae94L'
p4853
aS'0xcafa8L'
p4854
asg6
Nsg179
(lp4855
S'0xcae18L'
p4856
aS'0xcae30L'
p4857
asg183
Nsg184
Nsg185
S'c78fd620a449e3c979d3f3ec12d4ee88'
p4858
sg187
S'9800af0f41e4e2f24cf62f1ab43febd8'
p4859
sg189
(lp4860
g4838
ag152
asg191
Nsba(ibclass
BBasicBlock
p4861
(dp4862
g12
Nsg13
(lp4863
(ibclass
BInstr
p4864
(dp4865
g2
Nsg17
S'LDR     R3, [sbuffer]'
p4866
sg19
S'00309ce5'
p4867
sg21
Vldr r3, [ip]
p4868
sg5
L831000L
sg6
Nsg23
S'LDR'
p4869
sg25
S'0xcae18L'
p4870
sg27
Nsba(ibclass
BInstr
p4871
(dp4872
g2
Nsg17
S'CMP     R3, #0'
p4873
sg19
S'000053e3'
p4874
sg21
Vcmp r3, #0
p4875
sg5
L831004L
sg6
Nsg23
S'CMP'
p4876
sg25
S'0xcae1cL'
p4877
sg27
Nsba(ibclass
BInstr
p4878
(dp4879
g2
Nsg17
S'LDREQ   R3, [buffer]'
p4880
sg19
S'00309605'
p4881
sg21
Vldreq r3, [r6]
p4882
sg5
L831008L
sg6
Nsg23
S'LDR'
p4883
sg25
S'0xcae20L'
p4884
sg27
Nsba(ibclass
BInstr
p4885
(dp4886
g2
Nsg17
S'STRB    R4, [R3,R2]'
p4887
sg19
S'0240c3e7'
p4888
sg21
Vstrb r4, [r3, r2]
p4889
sg5
L831012L
sg6
Nsg23
S'STR'
p4890
sg25
S'0xcae24L'
p4891
sg27
Nsba(ibclass
BInstr
p4892
(dp4893
g2
Nsg17
S'ADD     R2, R2, #1'
p4894
sg19
S'012082e2'
p4895
sg21
Vadd r2, r2, #1
p4896
sg5
L831016L
sg6
Nsg23
S'ADD'
p4897
sg25
S'0xcae28L'
p4898
sg27
Nsba(ibclass
BInstr
p4899
(dp4900
g2
Nsg17
S'STR     R2, [currlen]'
p4901
sg19
S'002088e5'
p4902
sg21
Vstr r2, [r8]
p4903
sg5
L831020L
sg6
Nsg23
S'STR'
p4904
sg25
S'0xcae2cL'
p4905
sg27
Nsbasg154
(lp4906
S'LDR R3, mem'
p4907
aS'CMP R3, #0'
p4908
aS'LDREQ R3, mem'
p4909
aS'STRB R4, mem'
p4910
aS'ADD R2, R2, #1'
p4911
aS'STR R2, mem'
p4912
asg175
Nsg5
S'0xcae18L'
p4913
sg177
(lp4914
S'0xcae10L'
p4915
asg6
Nsg179
(lp4916
S'0xcae30L'
p4917
asg183
Nsg184
Nsg185
S'0f75e56b74bfbf576cf1af70ab8a4eaa'
p4918
sg187
S'2833ddc9c542b5cc51b86c9e89a4a2c3'
p4919
sg189
(lp4920
g4869
ag4876
ag4883
ag4890
ag4897
ag4904
asg191
Nsba(ibclass
BBasicBlock
p4921
(dp4922
g12
Nsg13
(lp4923
(ibclass
BInstr
p4924
(dp4925
g2
Nsg17
S'ADDS    spadlen, spadlen, #1'
p4926
sg19
S'015095e2'
p4927
sg21
Vadds r5, r5, #1
p4928
sg5
L831024L
sg6
Nsg23
S'ADD'
p4929
sg25
S'0xcae30L'
p4930
sg27
Nsba(ibclass
BInstr
p4931
(dp4932
g2
Nsg17
S'BEQ     loc_CAF50'
p4933
sg19
S'4500000a'
p4934
sg21
Vbeq #0x11c
p4935
sg5
L831028L
sg6
Nsg23
g152
sg25
S'0xcae34L'
p4936
sg27
Nsbasg154
(lp4937
S'ADDS regaregen, regaregen, #1'
p4938
aS'BEQ func'
p4939
asg175
Nsg5
S'0xcae30L'
p4940
sg177
(lp4941
S'0xcae10L'
p4942
aS'0xcae18L'
p4943
asg6
Nsg179
(lp4944
S'0xcae38L'
p4945
aS'0xcaf50L'
p4946
asg183
Nsg184
Nsg185
S'f59ed0fb4617df9a98cc94b1d7075f92'
p4947
sg187
S'c74b6b0495580afc01bf29d3008be75f'
p4948
sg189
(lp4949
g4929
ag152
asg191
Nsba(ibclass
BBasicBlock
p4950
(dp4951
g12
Nsg13
(lp4952
(ibclass
BInstr
p4953
(dp4954
g2
Nsg17
S'CMP     buffer, #0'
p4955
sg19
S'000056e3'
p4956
sg21
Vcmp r6, #0
p4957
sg5
L831032L
sg6
Nsg23
S'CMP'
p4958
sg25
S'0xcae38L'
p4959
sg27
Nsba(ibclass
BInstr
p4960
(dp4961
g2
Nsg17
S'BEQ     loc_CAE94'
p4962
sg19
S'1400000a'
p4963
sg21
Vbeq #0x58
p4964
sg5
L831036L
sg6
Nsg23
g152
sg25
S'0xcae3cL'
p4965
sg27
Nsbasg154
(lp4966
S'CMP buffer, #0'
p4967
aS'BEQ func'
p4968
asg175
Nsg5
S'0xcae38L'
p4969
sg177
(lp4970
S'0xcadecL'
p4971
aS'0xcae30L'
p4972
asg6
Nsg179
(lp4973
S'0xcae40L'
p4974
aS'0xcae94L'
p4975
asg183
Nsg184
Nsg185
S'c78fd620a449e3c979d3f3ec12d4ee88'
p4976
sg187
S'506074e0b5ecdf16dda3e737c36bbc81'
p4977
sg189
(lp4978
g4958
ag152
asg191
Nsba(ibclass
BBasicBlock
p4979
(dp4980
g12
Nsg13
(lp4981
(ibclass
BInstr
p4982
(dp4983
g2
Nsg17
S'LDR     R3, [maxlen]'
p4984
sg19
S'003097e5'
p4985
sg21
Vldr r3, [r7]
p4986
sg5
L831040L
sg6
Nsg23
S'LDR'
p4987
sg25
S'0xcae40L'
p4988
sg27
Nsba(ibclass
BInstr
p4989
(dp4990
g2
Nsg17
S'CMP     R2, R3'
p4991
sg19
S'030052e1'
p4992
sg21
Vcmp r2, r3
p4993
sg5
L831044L
sg6
Nsg23
S'CMP'
p4994
sg25
S'0xcae44L'
p4995
sg27
Nsba(ibclass
BInstr
p4996
(dp4997
g2
Nsg17
S'BNE     loc_CAE10'
p4998
sg19
S'f0ffff1a'
p4999
sg21
Vbne #0xffffffc8
p5000
sg5
L831048L
sg6
Nsg23
g152
sg25
S'0xcae48L'
p5001
sg27
Nsbasg154
(lp5002
S'LDR R3, mem'
p5003
aS'CMP R2, R3'
p5004
aS'BNE func'
p5005
asg175
Nsg5
S'0xcae40L'
p5006
sg177
(lp5007
S'0xcae38L'
p5008
asg6
Nsg179
(lp5009
S'0xcae10L'
p5010
aS'0xcae4cL'
p5011
asg183
Nsg184
Nsg185
S'fa4df767a85c49648339e2dc5c6807f6'
p5012
sg187
S'2bc9ac6a2a9260690e900348df1633d9'
p5013
sg189
(lp5014
g4987
ag4994
ag152
asg191
Nsba(ibclass
BBasicBlock
p5015
(dp5016
g12
Nsg13
(lp5017
(ibclass
BInstr
p5018
(dp5019
g2
Nsg17
S'CMP     R2, R10'
p5020
sg19
S'0a0052e1'
p5021
sg21
Vcmp r2, sl
p5022
sg5
L831052L
sg6
Nsg23
S'CMP'
p5023
sg25
S'0xcae4cL'
p5024
sg27
Nsba(ibclass
BInstr
p5025
(dp5026
g2
Nsg17
S'BHI     loc_CA958'
p5027
sg19
S'c0feff8a'
p5028
sg21
Vbhi #0xfffffb08
p5029
sg5
L831056L
sg6
Nsg23
g152
sg25
S'0xcae50L'
p5030
sg27
Nsbasg154
(lp5031
S'CMP R2, R10'
p5032
aS'BHI func'
p5033
asg175
Nsg5
S'0xcae4cL'
p5034
sg177
(lp5035
S'0xcae40L'
p5036
asg6
Nsg179
(lp5037
S'0xca958L'
p5038
aS'0xcae54L'
p5039
asg183
Nsg184
Nsg185
S'c78fd620a449e3c979d3f3ec12d4ee88'
p5040
sg187
S'd6423ee24536215f10131554773807ca'
p5041
sg189
(lp5042
g5023
ag152
asg191
Nsba(ibclass
BBasicBlock
p5043
(dp5044
g12
Nsg13
(lp5045
(ibclass
BInstr
p5046
(dp5047
g2
Nsg17
S'LDR     R0, [buffer]    ; str'
p5048
sg19
S'000096e5'
p5049
sg21
Vldr r0, [r6]
p5050
sg5
L831060L
sg6
Nsg23
S'LDR'
p5051
sg25
S'0xcae54L'
p5052
sg27
Nsba(ibclass
BInstr
p5053
(dp5054
g2
Nsg17
S'ADD     R1, R2, #0x400  ; num'
p5055
sg19
S'011b82e2'
p5056
sg21
Vadd r1, r2, #0x400
p5057
sg5
L831064L
sg6
Nsg23
S'ADD'
p5058
sg25
S'0xcae58L'
p5059
sg27
Nsba(ibclass
BInstr
p5060
(dp5061
g2
Nsg17
S'CMP     R0, #0'
p5062
sg19
S'000050e3'
p5063
sg21
Vcmp r0, #0
p5064
sg5
L831068L
sg6
Nsg23
S'CMP'
p5065
sg25
S'0xcae5cL'
p5066
sg27
Nsba(ibclass
BInstr
p5067
(dp5068
g2
Nsg17
S'STR     R1, [maxlen]'
p5069
sg19
S'001087e5'
p5070
sg21
Vstr r1, [r7]
p5071
sg5
L831072L
sg6
Nsg23
S'STR'
p5072
sg25
S'0xcae60L'
p5073
sg27
Nsba(ibclass
BInstr
p5074
(dp5075
g2
Nsg17
S'BEQ     loc_CAF68'
p5076
sg19
S'3f00000a'
p5077
sg21
Vbeq #0x104
p5078
sg5
L831076L
sg6
Nsg23
g152
sg25
S'0xcae64L'
p5079
sg27
Nsbasg154
(lp5080
S'LDR R0, mem'
p5081
aS'ADD R1, R2, #0x400'
p5082
aS'CMP R0, #0'
p5083
aS'STR R1, mem'
p5084
aS'BEQ func'
p5085
asg175
Nsg5
S'0xcae54L'
p5086
sg177
(lp5087
S'0xcae4cL'
p5088
asg6
Nsg179
(lp5089
S'0xcae68L'
p5090
aS'0xcaf68L'
p5091
asg183
Nsg184
Nsg185
S'4ec61fd607a8af912e661d4962fa75d9'
p5092
sg187
S'99c14bc301ed53807b51f481993e4247'
p5093
sg189
(lp5094
g5051
ag5058
ag5065
ag5072
ag152
asg191
Nsba(ibclass
BBasicBlock
p5095
(dp5096
g12
Nsg13
(lp5097
(ibclass
BInstr
p5098
(dp5099
g2
Nsg17
S'MOV     R2, R9          ; file'
p5100
sg19
S'0920a0e1'
p5101
sg21
Vmov r2, sb
p5102
sg5
L831080L
sg6
Nsg23
S'MOV'
p5103
sg25
S'0xcae68L'
p5104
sg27
Nsba(ibclass
BInstr
p5105
(dp5106
g2
Nsg17
S'LDR     R3, =0x303      ; line'
p5107
sg19
S'cc319fe5'
p5108
sg21
Vldr r3, [pc, #0x1cc]
p5109
sg5
L831084L
sg6
Nsg23
S'LDR'
p5110
sg25
S'0xcae6cL'
p5111
sg27
Nsba(ibclass
BInstr
p5112
(dp5113
g2
Nsg17
S'STR     sbuffer, [SP,#0x60+var_60]'
p5114
sg19
S'00c08de5'
p5115
sg21
Vstr ip, [sp]
p5116
sg5
L831088L
sg6
Nsg23
S'STR'
p5117
sg25
S'0xcae70L'
p5118
sg27
Nsba(ibclass
BInstr
p5119
(dp5120
g2
Nsg17
S'BL      CRYPTO_realloc'
p5121
sg19
S'59f8fdeb'
p5122
sg21
Vbl #0xfff7e16c
p5123
sg5
L831092L
sg6
Nsg23
S'BL'
p5124
sg25
S'0xcae74L'
p5125
sg27
Nsba(ibclass
BInstr
p5126
(dp5127
g2
Nsg17
S'CMP     R0, #0'
p5128
sg19
S'000050e3'
p5129
sg21
Vcmp r0, #0
p5130
sg5
L831096L
sg6
Nsg23
S'CMP'
p5131
sg25
S'0xcae78L'
p5132
sg27
Nsba(ibclass
BInstr
p5133
(dp5134
g2
Nsg17
S'LDR     R12, [SP,#0x60+var_60]'
p5135
sg19
S'00c09de5'
p5136
sg21
Vldr ip, [sp]
p5137
sg5
L831100L
sg6
Nsg23
S'LDR'
p5138
sg25
S'0xcae7cL'
p5139
sg27
Nsba(ibclass
BInstr
p5140
(dp5141
g2
Nsg17
S'BEQ     loc_CA958'
p5142
sg19
S'b4feff0a'
p5143
sg21
Vbeq #0xfffffad8
p5144
sg5
L831104L
sg6
Nsg23
g152
sg25
S'0xcae80L'
p5145
sg27
Nsbasg154
(lp5146
S'MOV R2, R9'
p5147
aS'LDR R3, =0x303'
p5148
aS'STR sbuffer, mem'
p5149
aS'BL CRYPTO_reregloc'
p5150
aS'CMP R0, #0'
p5151
aS'LDR R12, mem'
p5152
aS'BEQ func'
p5153
asg175
Nsg5
S'0xcae68L'
p5154
sg177
(lp5155
S'0xcae54L'
p5156
asg6
Nsg179
(lp5157
S'0xca958L'
p5158
aS'0xcae84L'
p5159
asg183
Nsg184
Nsg185
S'8581352028ee78cada93d350fa730663'
p5160
sg187
S'7a971ca71f2ba73ad72d68c9cd43edf4'
p5161
sg189
(lp5162
g5103
ag5110
ag5117
ag5124
ag5131
ag5138
ag152
asg191
Nsba(ibclass
BBasicBlock
p5163
(dp5164
g12
Nsg13
(lp5165
(ibclass
BInstr
p5166
(dp5167
g2
Nsg17
S'LDR     R2, [currlen]'
p5168
sg19
S'002098e5'
p5169
sg21
Vldr r2, [r8]
p5170
sg5
L831108L
sg6
Nsg23
S'LDR'
p5171
sg25
S'0xcae84L'
p5172
sg27
Nsba(ibclass
BInstr
p5173
(dp5174
g2
Nsg17
S'LDR     R3, [maxlen]'
p5175
sg19
S'003097e5'
p5176
sg21
Vldr r3, [r7]
p5177
sg5
L831112L
sg6
Nsg23
S'LDR'
p5178
sg25
S'0xcae88L'
p5179
sg27
Nsba(ibclass
BInstr
p5180
(dp5181
g2
Nsg17
S'STR     R0, [buffer]'
p5182
sg19
S'000086e5'
p5183
sg21
Vstr r0, [r6]
p5184
sg5
L831116L
sg6
Nsg23
S'STR'
p5185
sg25
S'0xcae8cL'
p5186
sg27
Nsba(ibclass
BInstr
p5187
(dp5188
g2
Nsg17
S'B       loc_CAE10'
p5189
sg19
S'deffffea'
p5190
sg21
Vb #0xffffff80
p5191
sg5
L831120L
sg6
Nsg23
g152
sg25
S'0xcae90L'
p5192
sg27
Nsbasg154
(lp5193
S'LDR R2, mem'
p5194
aS'LDR R3, mem'
p5195
aS'STR R0, mem'
p5196
aS'B func'
p5197
asg175
Nsg5
S'0xcae84L'
p5198
sg177
(lp5199
S'0xcae68L'
p5200
asg6
Nsg179
(lp5201
S'0xcae10L'
p5202
asg183
Nsg184
Nsg185
S'254797143989388d9207e7f4139e3257'
p5203
sg187
S'533d0ebc2a4ad8644106e9313d030cba'
p5204
sg189
(lp5205
g5171
ag5178
ag5185
ag152
asg191
Nsba(ibclass
BBasicBlock
p5206
(dp5207
g12
Nsg13
(lp5208
(ibclass
BInstr
p5209
(dp5210
g2
Nsg17
S'LDR     R2, [currlen]'
p5211
sg19
S'002098e5'
p5212
sg21
Vldr r2, [r8]
p5213
sg5
L831124L
sg6
Nsg23
S'LDR'
p5214
sg25
S'0xcae94L'
p5215
sg27
Nsba(ibclass
BInstr
p5216
(dp5217
g2
Nsg17
S'LDR     R3, [maxlen]'
p5218
sg19
S'003097e5'
p5219
sg21
Vldr r3, [r7]
p5220
sg5
L831128L
sg6
Nsg23
S'LDR'
p5221
sg25
S'0xcae98L'
p5222
sg27
Nsba(ibclass
BInstr
p5223
(dp5224
g2
Nsg17
S'B       loc_CAE10'
p5225
sg19
S'dbffffea'
p5226
sg21
Vb #0xffffff74
p5227
sg5
L831132L
sg6
Nsg23
g152
sg25
S'0xcae9cL'
p5228
sg27
Nsbasg154
(lp5229
S'LDR R2, mem'
p5230
aS'LDR R3, mem'
p5231
aS'B func'
p5232
asg175
Nsg5
S'0xcae94L'
p5233
sg177
(lp5234
S'0xcae38L'
p5235
asg6
Nsg179
(lp5236
S'0xcae10L'
p5237
asg183
Nsg184
Nsg185
S'5475768f796b8bef9e1180a7bb8d9996'
p5238
sg187
S'6e33bbb8f89bc49bc654966d78c52dbf'
p5239
sg189
(lp5240
g5214
ag5221
ag152
asg191
Nsba(ibclass
BBasicBlock
p5241
(dp5242
g12
Nsg13
(lp5243
(ibclass
BInstr
p5244
(dp5245
g2
Nsg17
S'LDR     R2, =0x7FFFFBFF'
p5246
sg19
S'94219fe5'
p5247
sg21
Vldr r2, [pc, #0x194]
p5248
sg5
L831136L
sg6
Nsg23
S'LDR'
p5249
sg25
S'0xcaea0L'
p5250
sg27
Nsba(ibclass
BInstr
p5251
(dp5252
g2
Nsg17
S'CMP     R3, R2'
p5253
sg19
S'020053e1'
p5254
sg21
Vcmp r3, r2
p5255
sg5
L831140L
sg6
Nsg23
S'CMP'
p5256
sg25
S'0xcaea4L'
p5257
sg27
Nsba(ibclass
BInstr
p5258
(dp5259
g2
Nsg17
S'BHI     loc_CA958'
p5260
sg19
S'aafeff8a'
p5261
sg21
Vbhi #0xfffffab0
p5262
sg5
L831144L
sg6
Nsg23
g152
sg25
S'0xcaea8L'
p5263
sg27
Nsbasg154
(lp5264
S'LDR R2, =0x7FFFFBFF'
p5265
aS'CMP R3, R2'
p5266
aS'BHI func'
p5267
asg175
Nsg5
S'0xcaea0L'
p5268
sg177
(lp5269
S'0xcabf8L'
p5270
asg6
Nsg179
(lp5271
S'0xca958L'
p5272
aS'0xcaeacL'
p5273
asg183
Nsg184
Nsg185
S'fa4df767a85c49648339e2dc5c6807f6'
p5274
sg187
S'4cbacc626c115a87adf82ea3f56e93be'
p5275
sg189
(lp5276
g5249
ag5256
ag152
asg191
Nsba(ibclass
BBasicBlock
p5277
(dp5278
g12
Nsg13
(lp5279
(ibclass
BInstr
p5280
(dp5281
g2
Nsg17
S'LDR     R0, [buffer]    ; str'
p5282
sg19
S'000096e5'
p5283
sg21
Vldr r0, [r6]
p5284
sg5
L831148L
sg6
Nsg23
S'LDR'
p5285
sg25
S'0xcaeacL'
p5286
sg27
Nsba(ibclass
BInstr
p5287
(dp5288
g2
Nsg17
S'ADD     R1, R3, #0x400  ; num'
p5289
sg19
S'011b83e2'
p5290
sg21
Vadd r1, r3, #0x400
p5291
sg5
L831152L
sg6
Nsg23
S'ADD'
p5292
sg25
S'0xcaeb0L'
p5293
sg27
Nsba(ibclass
BInstr
p5294
(dp5295
g2
Nsg17
S'CMP     R0, #0'
p5296
sg19
S'000050e3'
p5297
sg21
Vcmp r0, #0
p5298
sg5
L831156L
sg6
Nsg23
S'CMP'
p5299
sg25
S'0xcaeb4L'
p5300
sg27
Nsba(ibclass
BInstr
p5301
(dp5302
g2
Nsg17
S'STR     R1, [maxlen]'
p5303
sg19
S'001087e5'
p5304
sg21
Vstr r1, [r7]
p5305
sg5
L831160L
sg6
Nsg23
S'STR'
p5306
sg25
S'0xcaeb8L'
p5307
sg27
Nsba(ibclass
BInstr
p5308
(dp5309
g2
Nsg17
S'BEQ     loc_CAFC8'
p5310
sg19
S'4100000a'
p5311
sg21
Vbeq #0x10c
p5312
sg5
L831164L
sg6
Nsg23
g152
sg25
S'0xcaebcL'
p5313
sg27
Nsbasg154
(lp5314
S'LDR R0, mem'
p5315
aS'ADD R1, R3, #0x400'
p5316
aS'CMP R0, #0'
p5317
aS'STR R1, mem'
p5318
aS'BEQ func'
p5319
asg175
Nsg5
S'0xcaeacL'
p5320
sg177
(lp5321
S'0xcaea0L'
p5322
asg6
Nsg179
(lp5323
S'0xcaec0L'
p5324
aS'0xcafc8L'
p5325
asg183
Nsg184
Nsg185
S'4ec61fd607a8af912e661d4962fa75d9'
p5326
sg187
S'cacdd18b2fed3ab46a81538176882cb4'
p5327
sg189
(lp5328
g5285
ag5292
ag5299
ag5306
ag152
asg191
Nsba(ibclass
BBasicBlock
p5329
(dp5330
g12
Nsg13
(lp5331
(ibclass
BInstr
p5332
(dp5333
g2
Nsg17
S'LDR     R3, [SP,#0x60+var_58]'
p5334
sg19
S'08309de5'
p5335
sg21
Vldr r3, [sp, #8]
p5336
sg5
L831168L
sg6
Nsg23
S'LDR'
p5337
sg25
S'0xcaec0L'
p5338
sg27
Nsba(ibclass
BInstr
p5339
(dp5340
g2
Nsg17
S'LDR     R2, =0xFFFDD46C'
p5341
sg19
S'6c219fe5'
p5342
sg21
Vldr r2, [pc, #0x16c]
p5343
sg5
L831172L
sg6
Nsg23
S'LDR'
p5344
sg25
S'0xcaec4L'
p5345
sg27
Nsba(ibclass
BInstr
p5346
(dp5347
g2
Nsg17
S'STR     zpadlen, [SP,#0x60+var_60]'
p5348
sg19
S'00c08de5'
p5349
sg21
Vstr ip, [sp]
p5350
sg5
L831176L
sg6
Nsg23
S'STR'
p5351
sg25
S'0xcaec8L'
p5352
sg27
Nsba(ibclass
BInstr
p5353
(dp5354
g2
Nsg17
S'ADD     R2, R3, R2      ; file'
p5355
sg19
S'022083e0'
p5356
sg21
Vadd r2, r3, r2
p5357
sg5
L831180L
sg6
Nsg23
S'ADD'
p5358
sg25
S'0xcaeccL'
p5359
sg27
Nsba(ibclass
BInstr
p5360
(dp5361
g2
Nsg17
S'LDR     R3, =0x303      ; line'
p5362
sg19
S'68319fe5'
p5363
sg21
Vldr r3, [pc, #0x168]
p5364
sg5
L831184L
sg6
Nsg23
S'LDR'
p5365
sg25
S'0xcaed0L'
p5366
sg27
Nsba(ibclass
BInstr
p5367
(dp5368
g2
Nsg17
S'BL      CRYPTO_realloc'
p5369
sg19
S'41f8fdeb'
p5370
sg21
Vbl #0xfff7e10c
p5371
sg5
L831188L
sg6
Nsg23
S'BL'
p5372
sg25
S'0xcaed4L'
p5373
sg27
Nsba(ibclass
BInstr
p5374
(dp5375
g2
Nsg17
S'CMP     R0, #0'
p5376
sg19
S'000050e3'
p5377
sg21
Vcmp r0, #0
p5378
sg5
L831192L
sg6
Nsg23
S'CMP'
p5379
sg25
S'0xcaed8L'
p5380
sg27
Nsba(ibclass
BInstr
p5381
(dp5382
g2
Nsg17
S'LDR     R12, [SP,#0x60+var_60]'
p5383
sg19
S'00c09de5'
p5384
sg21
Vldr ip, [sp]
p5385
sg5
L831196L
sg6
Nsg23
S'LDR'
p5386
sg25
S'0xcaedcL'
p5387
sg27
Nsba(ibclass
BInstr
p5388
(dp5389
g2
Nsg17
S'BEQ     loc_CA958'
p5390
sg19
S'9cfeff0a'
p5391
sg21
Vbeq #0xfffffa78
p5392
sg5
L831200L
sg6
Nsg23
g152
sg25
S'0xcaee0L'
p5393
sg27
Nsbasg154
(lp5394
S'LDR R3, mem'
p5395
aS'LDR R2, =0xFFFDD46C'
p5396
aS'STR zparegen, mem'
p5397
aS'ADD R2, R3, R2'
p5398
aS'LDR R3, =0x303'
p5399
aS'BL CRYPTO_reregloc'
p5400
aS'CMP R0, #0'
p5401
aS'LDR R12, mem'
p5402
aS'BEQ func'
p5403
asg175
Nsg5
S'0xcaec0L'
p5404
sg177
(lp5405
S'0xcaeacL'
p5406
asg6
Nsg179
(lp5407
S'0xca958L'
p5408
aS'0xcaee4L'
p5409
asg183
Nsg184
Nsg185
S'7a44324dfe734a72c4dda0431a3f1b3f'
p5410
sg187
S'76f6d2905c38f4e220c47849ef899da7'
p5411
sg189
(lp5412
g5337
ag5344
ag5351
ag5358
ag5365
ag5372
ag5379
ag5386
ag152
asg191
Nsba(ibclass
BBasicBlock
p5413
(dp5414
g12
Nsg13
(lp5415
(ibclass
BInstr
p5416
(dp5417
g2
Nsg17
S'LDR     R3, [currlen]'
p5418
sg19
S'003098e5'
p5419
sg21
Vldr r3, [r8]
p5420
sg5
L831204L
sg6
Nsg23
S'LDR'
p5421
sg25
S'0xcaee4L'
p5422
sg27
Nsba(ibclass
BInstr
p5423
(dp5424
g2
Nsg17
S'LDR     R2, [maxlen]'
p5425
sg19
S'002097e5'
p5426
sg21
Vldr r2, [r7]
p5427
sg5
L831208L
sg6
Nsg23
S'LDR'
p5428
sg25
S'0xcaee8L'
p5429
sg27
Nsba(ibclass
BInstr
p5430
(dp5431
g2
Nsg17
S'STR     R0, [buffer]'
p5432
sg19
S'000086e5'
p5433
sg21
Vstr r0, [r6]
p5434
sg5
L831212L
sg6
Nsg23
S'STR'
p5435
sg25
S'0xcaeecL'
p5436
sg27
Nsba(ibclass
BInstr
p5437
(dp5438
g2
Nsg17
S'B       loc_CAC08'
p5439
sg19
S'44ffffea'
p5440
sg21
Vb #0xfffffd18
p5441
sg5
L831216L
sg6
Nsg23
g152
sg25
S'0xcaef0L'
p5442
sg27
Nsbasg154
(lp5443
S'LDR R3, mem'
p5444
aS'LDR R2, mem'
p5445
aS'STR R0, mem'
p5446
aS'B func'
p5447
asg175
Nsg5
S'0xcaee4L'
p5448
sg177
(lp5449
S'0xcaec0L'
p5450
asg6
Nsg179
(lp5451
S'0xcac08L'
p5452
asg183
Nsg184
Nsg185
S'254797143989388d9207e7f4139e3257'
p5453
sg187
S'19ee1c36764425f1f5da44c6ae4a12ab'
p5454
sg189
(lp5455
g5421
ag5428
ag5435
ag152
asg191
Nsba(ibclass
BBasicBlock
p5456
(dp5457
g12
Nsg13
(lp5458
(ibclass
BInstr
p5459
(dp5460
g2
Nsg17
S'LDR     R1, [sbuffer]   ; src'
p5461
sg19
S'001094e5'
p5462
sg21
Vldr r1, [r4]
p5463
sg5
L831220L
sg6
Nsg23
S'LDR'
p5464
sg25
S'0xcaef4L'
p5465
sg27
Nsba(ibclass
BInstr
p5466
(dp5467
g2
Nsg17
S'BL      memcpy'
p5468
sg19
S'0df3fdeb'
p5469
sg21
Vbl #0xfff7cc3c
p5470
sg5
L831224L
sg6
Nsg23
S'BL'
p5471
sg25
S'0xcaef8L'
p5472
sg27
Nsba(ibclass
BInstr
p5473
(dp5474
g2
Nsg17
S'LDR     R2, [currlen]'
p5475
sg19
S'002098e5'
p5476
sg21
Vldr r2, [r8]
p5477
sg5
L831228L
sg6
Nsg23
S'LDR'
p5478
sg25
S'0xcaefcL'
p5479
sg27
Nsba(ibclass
BInstr
p5480
(dp5481
g2
Nsg17
S'B       loc_CAD98'
p5482
sg19
S'a4ffffea'
p5483
sg21
Vb #0xfffffe98
p5484
sg5
L831232L
sg6
Nsg23
g152
sg25
S'0xcaf00L'
p5485
sg27
Nsbasg154
(lp5486
S'LDR R1, mem'
p5487
aS'BL memcpy'
p5488
aS'LDR R2, mem'
p5489
aS'B func'
p5490
asg175
Nsg5
S'0xcaef4L'
p5491
sg177
(lp5492
S'0xcad8cL'
p5493
asg6
Nsg179
(lp5494
S'0xcad98L'
p5495
asg183
Nsg184
Nsg185
S'964ccb01aab82351122f2fd2deed6d7e'
p5496
sg187
S'd7e619db40a667d4db7eb73b763b5afd'
p5497
sg189
(lp5498
g5464
ag5471
ag5478
ag152
asg191
Nsba(ibclass
BBasicBlock
p5499
(dp5500
g12
Nsg13
(lp5501
(ibclass
BInstr
p5502
(dp5503
g2
Nsg17
S'LDR     R3, [currlen]'
p5504
sg19
S'003098e5'
p5505
sg21
Vldr r3, [r8]
p5506
sg5
L831236L
sg6
Nsg23
S'LDR'
p5507
sg25
S'0xcaf04L'
p5508
sg27
Nsba(ibclass
BInstr
p5509
(dp5510
g2
Nsg17
S'LDR     R2, [maxlen]'
p5511
sg19
S'002097e5'
p5512
sg21
Vldr r2, [r7]
p5513
sg5
L831240L
sg6
Nsg23
S'LDR'
p5514
sg25
S'0xcaf08L'
p5515
sg27
Nsba(ibclass
BInstr
p5516
(dp5517
g2
Nsg17
S'B       loc_CAC08'
p5518
sg19
S'3dffffea'
p5519
sg21
Vb #0xfffffcfc
p5520
sg5
L831244L
sg6
Nsg23
g152
sg25
S'0xcaf0cL'
p5521
sg27
Nsbasg154
(lp5522
S'LDR R3, mem'
p5523
aS'LDR R2, mem'
p5524
aS'B func'
p5525
asg175
Nsg5
S'0xcaf04L'
p5526
sg177
(lp5527
S'0xcabf0L'
p5528
asg6
Nsg179
(lp5529
S'0xcac08L'
p5530
asg183
Nsg184
Nsg185
S'5475768f796b8bef9e1180a7bb8d9996'
p5531
sg187
S'a99d81c7c418912ca68aeb95279dee65'
p5532
sg189
(lp5533
g5507
ag5514
ag152
asg191
Nsba(ibclass
BBasicBlock
p5534
(dp5535
g12
Nsg13
(lp5536
(ibclass
BInstr
p5537
(dp5538
g2
Nsg17
S'MOV     R0, R1          ; num'
p5539
sg19
S'0100a0e1'
p5540
sg21
Vmov r0, r1
p5541
sg5
L831248L
sg6
Nsg23
S'MOV'
p5542
sg25
S'0xcaf10L'
p5543
sg27
Nsba(ibclass
BInstr
p5544
(dp5545
g2
Nsg17
S'LDR     R2, =0x2F9      ; line'
p5546
sg19
S'2c219fe5'
p5547
sg21
Vldr r2, [pc, #0x12c]
p5548
sg5
L831252L
sg6
Nsg23
S'LDR'
p5549
sg25
S'0xcaf14L'
p5550
sg27
Nsba(ibclass
BInstr
p5551
(dp5552
g2
Nsg17
S'MOV     R1, R9          ; file'
p5553
sg19
S'0910a0e1'
p5554
sg21
Vmov r1, sb
p5555
sg5
L831256L
sg6
Nsg23
S'MOV'
p5556
sg25
S'0xcaf18L'
p5557
sg27
Nsba(ibclass
BInstr
p5558
(dp5559
g2
Nsg17
S'STR     sbuffer, [SP,#0x60+var_60]'
p5560
sg19
S'00c08de5'
p5561
sg21
Vstr ip, [sp]
p5562
sg5
L831260L
sg6
Nsg23
S'STR'
p5563
sg25
S'0xcaf1cL'
p5564
sg27
Nsba(ibclass
BInstr
p5565
(dp5566
g2
Nsg17
S'BL      CRYPTO_malloc'
p5567
sg19
S'f6f7fdeb'
p5568
sg21
Vbl #0xfff7dfe0
p5569
sg5
L831264L
sg6
Nsg23
S'BL'
p5570
sg25
S'0xcaf20L'
p5571
sg27
Nsba(ibclass
BInstr
p5572
(dp5573
g2
Nsg17
S'CMP     R0, #0'
p5574
sg19
S'000050e3'
p5575
sg21
Vcmp r0, #0
p5576
sg5
L831268L
sg6
Nsg23
S'CMP'
p5577
sg25
S'0xcaf24L'
p5578
sg27
Nsba(ibclass
BInstr
p5579
(dp5580
g2
Nsg17
S'STR     R0, [buffer]'
p5581
sg19
S'000086e5'
p5582
sg21
Vstr r0, [r6]
p5583
sg5
L831272L
sg6
Nsg23
S'STR'
p5584
sg25
S'0xcaf28L'
p5585
sg27
Nsba(ibclass
BInstr
p5586
(dp5587
g2
Nsg17
S'LDR     R12, [SP,#0x60+var_60]'
p5588
sg19
S'00c09de5'
p5589
sg21
Vldr ip, [sp]
p5590
sg5
L831276L
sg6
Nsg23
S'LDR'
p5591
sg25
S'0xcaf2cL'
p5592
sg27
Nsba(ibclass
BInstr
p5593
(dp5594
g2
Nsg17
S'BEQ     loc_CA958'
p5595
sg19
S'88feff0a'
p5596
sg21
Vbeq #0xfffffa28
p5597
sg5
L831280L
sg6
Nsg23
g152
sg25
S'0xcaf30L'
p5598
sg27
Nsbasg154
(lp5599
S'MOV R0, R1'
p5600
aS'LDR R2, =0x2F9'
p5601
aS'MOV R1, R9'
p5602
aS'STR sbuffer, mem'
p5603
aS'BL CRYPTO_mregloc'
p5604
aS'CMP R0, #0'
p5605
aS'STR R0, mem'
p5606
aS'LDR R12, mem'
p5607
aS'BEQ func'
p5608
asg175
Nsg5
S'0xcaf10L'
p5609
sg177
(lp5610
S'0xcacecL'
p5611
asg6
Nsg179
(lp5612
S'0xca958L'
p5613
aS'0xcaf34L'
p5614
asg183
Nsg184
Nsg185
S'b489322ed0fc680c4872f83ebce429f3'
p5615
sg187
S'4f449d601ef3abb43eb7d4fae665b9a9'
p5616
sg189
(lp5617
g5542
ag5549
ag5556
ag5563
ag5570
ag5577
ag5584
ag5591
ag152
asg191
Nsba(ibclass
BBasicBlock
p5618
(dp5619
g12
Nsg13
(lp5620
(ibclass
BInstr
p5621
(dp5622
g2
Nsg17
S'LDR     R2, [currlen]   ; n'
p5623
sg19
S'002098e5'
p5624
sg21
Vldr r2, [r8]
p5625
sg5
L831284L
sg6
Nsg23
S'LDR'
p5626
sg25
S'0xcaf34L'
p5627
sg27
Nsba(ibclass
BInstr
p5628
(dp5629
g2
Nsg17
S'CMP     R2, #0'
p5630
sg19
S'000052e3'
p5631
sg21
Vcmp r2, #0
p5632
sg5
L831288L
sg6
Nsg23
S'CMP'
p5633
sg25
S'0xcaf38L'
p5634
sg27
Nsba(ibclass
BInstr
p5635
(dp5636
g2
Nsg17
S'BNE     loc_CAFB4'
p5637
sg19
S'1c00001a'
p5638
sg21
Vbne #0x78
p5639
sg5
L831292L
sg6
Nsg23
g152
sg25
S'0xcaf3cL'
p5640
sg27
Nsbasg154
(lp5641
S'LDR R2, mem'
p5642
aS'CMP R2, #0'
p5643
aS'BNE func'
p5644
asg175
Nsg5
S'0xcaf34L'
p5645
sg177
(lp5646
S'0xcaf10L'
p5647
asg6
Nsg179
(lp5648
S'0xcaf40L'
p5649
aS'0xcafb4L'
p5650
asg183
Nsg184
Nsg185
S'fa4df767a85c49648339e2dc5c6807f6'
p5651
sg187
S'6eb8dc9ae4d45fad4ce4e667e53812a2'
p5652
sg189
(lp5653
g5626
ag5633
ag152
asg191
Nsba(ibclass
BBasicBlock
p5654
(dp5655
g12
Nsg13
(lp5656
(ibclass
BInstr
p5657
(dp5658
g2
Nsg17
S'MOV     R0, #0'
p5659
sg19
S'0000a0e3'
p5660
sg21
Vmov r0, #0
p5661
sg5
L831296L
sg6
Nsg23
S'MOV'
p5662
sg25
S'0xcaf40L'
p5663
sg27
Nsba(ibclass
BInstr
p5664
(dp5665
g2
Nsg17
S'STR     R0, [R12]'
p5666
sg19
S'00008ce5'
p5667
sg21
Vstr r0, [ip]
p5668
sg5
L831300L
sg6
Nsg23
S'STR'
p5669
sg25
S'0xcaf44L'
p5670
sg27
Nsba(ibclass
BInstr
p5671
(dp5672
g2
Nsg17
S'LDR     R3, [maxlen]'
p5673
sg19
S'003097e5'
p5674
sg21
Vldr r3, [r7]
p5675
sg5
L831304L
sg6
Nsg23
S'LDR'
p5676
sg25
S'0xcaf48L'
p5677
sg27
Nsba(ibclass
BInstr
p5678
(dp5679
g2
Nsg17
S'B       loc_CAC9C'
p5680
sg19
S'52ffffea'
p5681
sg21
Vb #0xfffffd50
p5682
sg5
L831308L
sg6
Nsg23
g152
sg25
S'0xcaf4cL'
p5683
sg27
Nsbasg154
(lp5684
S'MOV R0, #0'
p5685
aS'STR R0, mem'
p5686
aS'LDR R3, mem'
p5687
aS'B func'
p5688
asg175
Nsg5
S'0xcaf40L'
p5689
sg177
(lp5690
S'0xcaf34L'
p5691
aS'0xcafb4L'
p5692
asg6
Nsg179
(lp5693
S'0xcac9cL'
p5694
asg183
Nsg184
Nsg185
S'a6ef3e35a047c003f9178d264052147b'
p5695
sg187
S'7ba86a7cc805683e98de15b7193706da'
p5696
sg189
(lp5697
g5662
ag5669
ag5676
ag152
asg191
Nsba(ibclass
BBasicBlock
p5698
(dp5699
g12
Nsg13
(lp5700
(ibclass
BInstr
p5701
(dp5702
g2
Nsg17
S'MOV     R0, #1'
p5703
sg19
S'0100a0e3'
p5704
sg21
Vmov r0, #1
p5705
sg5
L831312L
sg6
Nsg23
S'MOV'
p5706
sg25
S'0xcaf50L'
p5707
sg27
Nsba(ibclass
BInstr
p5708
(dp5709
g2
Nsg17
S'B       loc_CA95C'
p5710
sg19
S'80feffea'
p5711
sg21
Vb #0xfffffa08
p5712
sg5
L831316L
sg6
Nsg23
g152
sg25
S'0xcaf54L'
p5713
sg27
Nsbasg154
(lp5714
S'MOV R0, #1'
p5715
aS'B func'
p5716
asg175
Nsg5
S'0xcaf50L'
p5717
sg177
(lp5718
S'0xcade4L'
p5719
aS'0xcae30L'
p5720
asg6
Nsg179
(lp5721
S'0xca95cL'
p5722
asg183
Nsg184
Nsg185
S'b6c4e95ccfe77a95e4cf2019dd3d5574'
p5723
sg187
S'f94afd02457e34ac5e5cba35d8b77d94'
p5724
sg189
(lp5725
g5706
ag152
asg191
Nsba(ibclass
BBasicBlock
p5726
(dp5727
g12
Nsg13
(lp5728
(ibclass
BInstr
p5729
(dp5730
g2
Nsg17
S'LDR     R1, [sbuffer]   ; src'
p5731
sg19
S'001095e5'
p5732
sg21
Vldr r1, [r5]
p5733
sg5
L831320L
sg6
Nsg23
S'LDR'
p5734
sg25
S'0xcaf58L'
p5735
sg27
Nsba(ibclass
BInstr
p5736
(dp5737
g2
Nsg17
S'BL      memcpy'
p5738
sg19
S'f4f2fdeb'
p5739
sg21
Vbl #0xfff7cbd8
p5740
sg5
L831324L
sg6
Nsg23
S'BL'
p5741
sg25
S'0xcaf5cL'
p5742
sg27
Nsba(ibclass
BInstr
p5743
(dp5744
g2
Nsg17
S'LDR     R2, [currlen]'
p5745
sg19
S'002098e5'
p5746
sg21
Vldr r2, [r8]
p5747
sg5
L831328L
sg6
Nsg23
S'LDR'
p5748
sg25
S'0xcaf60L'
p5749
sg27
Nsba(ibclass
BInstr
p5750
(dp5751
g2
Nsg17
S'B       loc_CADD0'
p5752
sg19
S'99ffffea'
p5753
sg21
Vb #0xfffffe6c
p5754
sg5
L831332L
sg6
Nsg23
g152
sg25
S'0xcaf64L'
p5755
sg27
Nsbasg154
(lp5756
S'LDR R1, mem'
p5757
aS'BL memcpy'
p5758
aS'LDR R2, mem'
p5759
aS'B func'
p5760
asg175
Nsg5
S'0xcaf58L'
p5761
sg177
(lp5762
S'0xcadc4L'
p5763
asg6
Nsg179
(lp5764
S'0xcadd0L'
p5765
asg183
Nsg184
Nsg185
S'964ccb01aab82351122f2fd2deed6d7e'
p5766
sg187
S'd7e619db40a667d4db7eb73b763b5afd'
p5767
sg189
(lp5768
g5734
ag5741
ag5748
ag152
asg191
Nsba(ibclass
BBasicBlock
p5769
(dp5770
g12
Nsg13
(lp5771
(ibclass
BInstr
p5772
(dp5773
g2
Nsg17
S'MOV     R0, R1          ; num'
p5774
sg19
S'0100a0e1'
p5775
sg21
Vmov r0, r1
p5776
sg5
L831336L
sg6
Nsg23
S'MOV'
p5777
sg25
S'0xcaf68L'
p5778
sg27
Nsba(ibclass
BInstr
p5779
(dp5780
g2
Nsg17
S'LDR     R2, =0x2F9      ; line'
p5781
sg19
S'd4209fe5'
p5782
sg21
Vldr r2, [pc, #0xd4]
p5783
sg5
L831340L
sg6
Nsg23
S'LDR'
p5784
sg25
S'0xcaf6cL'
p5785
sg27
Nsba(ibclass
BInstr
p5786
(dp5787
g2
Nsg17
S'MOV     R1, R9          ; file'
p5788
sg19
S'0910a0e1'
p5789
sg21
Vmov r1, sb
p5790
sg5
L831344L
sg6
Nsg23
S'MOV'
p5791
sg25
S'0xcaf70L'
p5792
sg27
Nsba(ibclass
BInstr
p5793
(dp5794
g2
Nsg17
S'STR     sbuffer, [SP,#0x60+var_60]'
p5795
sg19
S'00c08de5'
p5796
sg21
Vstr ip, [sp]
p5797
sg5
L831348L
sg6
Nsg23
S'STR'
p5798
sg25
S'0xcaf74L'
p5799
sg27
Nsba(ibclass
BInstr
p5800
(dp5801
g2
Nsg17
S'BL      CRYPTO_malloc'
p5802
sg19
S'e0f7fdeb'
p5803
sg21
Vbl #0xfff7df88
p5804
sg5
L831352L
sg6
Nsg23
S'BL'
p5805
sg25
S'0xcaf78L'
p5806
sg27
Nsba(ibclass
BInstr
p5807
(dp5808
g2
Nsg17
S'CMP     R0, #0'
p5809
sg19
S'000050e3'
p5810
sg21
Vcmp r0, #0
p5811
sg5
L831356L
sg6
Nsg23
S'CMP'
p5812
sg25
S'0xcaf7cL'
p5813
sg27
Nsba(ibclass
BInstr
p5814
(dp5815
g2
Nsg17
S'STR     R0, [buffer]'
p5816
sg19
S'000086e5'
p5817
sg21
Vstr r0, [r6]
p5818
sg5
L831360L
sg6
Nsg23
S'STR'
p5819
sg25
S'0xcaf80L'
p5820
sg27
Nsba(ibclass
BInstr
p5821
(dp5822
g2
Nsg17
S'LDR     R12, [SP,#0x60+var_60]'
p5823
sg19
S'00c09de5'
p5824
sg21
Vldr ip, [sp]
p5825
sg5
L831364L
sg6
Nsg23
S'LDR'
p5826
sg25
S'0xcaf84L'
p5827
sg27
Nsba(ibclass
BInstr
p5828
(dp5829
g2
Nsg17
S'BEQ     loc_CA958'
p5830
sg19
S'72feff0a'
p5831
sg21
Vbeq #0xfffff9d0
p5832
sg5
L831368L
sg6
Nsg23
g152
sg25
S'0xcaf88L'
p5833
sg27
Nsbasg154
(lp5834
S'MOV R0, R1'
p5835
aS'LDR R2, =0x2F9'
p5836
aS'MOV R1, R9'
p5837
aS'STR sbuffer, mem'
p5838
aS'BL CRYPTO_mregloc'
p5839
aS'CMP R0, #0'
p5840
aS'STR R0, mem'
p5841
aS'LDR R12, mem'
p5842
aS'BEQ func'
p5843
asg175
Nsg5
S'0xcaf68L'
p5844
sg177
(lp5845
S'0xcae54L'
p5846
asg6
Nsg179
(lp5847
S'0xca958L'
p5848
aS'0xcaf8cL'
p5849
asg183
Nsg184
Nsg185
S'b489322ed0fc680c4872f83ebce429f3'
p5850
sg187
S'4f449d601ef3abb43eb7d4fae665b9a9'
p5851
sg189
(lp5852
g5777
ag5784
ag5791
ag5798
ag5805
ag5812
ag5819
ag5826
ag152
asg191
Nsba(ibclass
BBasicBlock
p5853
(dp5854
g12
Nsg13
(lp5855
(ibclass
BInstr
p5856
(dp5857
g2
Nsg17
S'LDR     R2, [currlen]   ; n'
p5858
sg19
S'002098e5'
p5859
sg21
Vldr r2, [r8]
p5860
sg5
L831372L
sg6
Nsg23
S'LDR'
p5861
sg25
S'0xcaf8cL'
p5862
sg27
Nsba(ibclass
BInstr
p5863
(dp5864
g2
Nsg17
S'CMP     R2, #0'
p5865
sg19
S'000052e3'
p5866
sg21
Vcmp r2, #0
p5867
sg5
L831376L
sg6
Nsg23
S'CMP'
p5868
sg25
S'0xcaf90L'
p5869
sg27
Nsba(ibclass
BInstr
p5870
(dp5871
g2
Nsg17
S'BEQ     loc_CAFA8'
p5872
sg19
S'0300000a'
p5873
sg21
Vbeq #0x14
p5874
sg5
L831380L
sg6
Nsg23
g152
sg25
S'0xcaf94L'
p5875
sg27
Nsbasg154
(lp5876
S'LDR R2, mem'
p5877
aS'CMP R2, #0'
p5878
aS'BEQ func'
p5879
asg175
Nsg5
S'0xcaf8cL'
p5880
sg177
(lp5881
S'0xcaf68L'
p5882
asg6
Nsg179
(lp5883
S'0xcaf98L'
p5884
aS'0xcafa8L'
p5885
asg183
Nsg184
Nsg185
S'fa4df767a85c49648339e2dc5c6807f6'
p5886
sg187
S'89bb0c615f1e9e21325ad7eb7b948cfd'
p5887
sg189
(lp5888
g5861
ag5868
ag152
asg191
Nsba(ibclass
BBasicBlock
p5889
(dp5890
g12
Nsg13
(lp5891
(ibclass
BInstr
p5892
(dp5893
g2
Nsg17
S'LDR     R1, [R12]       ; src'
p5894
sg19
S'00109ce5'
p5895
sg21
Vldr r1, [ip]
p5896
sg5
L831384L
sg6
Nsg23
S'LDR'
p5897
sg25
S'0xcaf98L'
p5898
sg27
Nsba(ibclass
BInstr
p5899
(dp5900
g2
Nsg17
S'BL      memcpy'
p5901
sg19
S'e4f2fdeb'
p5902
sg21
Vbl #0xfff7cb98
p5903
sg5
L831388L
sg6
Nsg23
S'BL'
p5904
sg25
S'0xcaf9cL'
p5905
sg27
Nsba(ibclass
BInstr
p5906
(dp5907
g2
Nsg17
S'LDR     R2, [currlen]'
p5908
sg19
S'002098e5'
p5909
sg21
Vldr r2, [r8]
p5910
sg5
L831392L
sg6
Nsg23
S'LDR'
p5911
sg25
S'0xcafa0L'
p5912
sg27
Nsba(ibclass
BInstr
p5913
(dp5914
g2
Nsg17
S'LDR     R12, [SP,#0x60+var_60]'
p5915
sg19
S'00c09de5'
p5916
sg21
Vldr ip, [sp]
p5917
sg5
L831396L
sg6
Nsg23
S'LDR'
p5918
sg25
S'0xcafa4L'
p5919
sg27
Nsbasg154
(lp5920
S'LDR R1, mem'
p5921
aS'BL memcpy'
p5922
aS'LDR R2, mem'
p5923
aS'LDR R12, mem'
p5924
asg175
Nsg5
S'0xcaf98L'
p5925
sg177
(lp5926
S'0xcaf8cL'
p5927
asg6
Nsg179
(lp5928
S'0xcafa8L'
p5929
asg183
Nsg184
Nsg185
S'35b92605d2114472890bbf4b1c64cc47'
p5930
sg187
S'b97ec1fcf1df1f141447ec877556fe2f'
p5931
sg189
(lp5932
g5897
ag5904
ag5911
ag5918
asg191
Nsba(ibclass
BBasicBlock
p5933
(dp5934
g12
Nsg13
(lp5935
(ibclass
BInstr
p5936
(dp5937
g2
Nsg17
S'STR     R11, [R12]'
p5938
sg19
S'00b08ce5'
p5939
sg21
Vstr fp, [ip]
p5940
sg5
L831400L
sg6
Nsg23
S'STR'
p5941
sg25
S'0xcafa8L'
p5942
sg27
Nsba(ibclass
BInstr
p5943
(dp5944
g2
Nsg17
S'LDR     R3, [maxlen]'
p5945
sg19
S'003097e5'
p5946
sg21
Vldr r3, [r7]
p5947
sg5
L831404L
sg6
Nsg23
S'LDR'
p5948
sg25
S'0xcafacL'
p5949
sg27
Nsba(ibclass
BInstr
p5950
(dp5951
g2
Nsg17
S'B       loc_CAE10'
p5952
sg19
S'96ffffea'
p5953
sg21
Vb #0xfffffe60
p5954
sg5
L831408L
sg6
Nsg23
g152
sg25
S'0xcafb0L'
p5955
sg27
Nsbasg154
(lp5956
S'STR R11, mem'
p5957
aS'LDR R3, mem'
p5958
aS'B func'
p5959
asg175
Nsg5
S'0xcafa8L'
p5960
sg177
(lp5961
S'0xcaf8cL'
p5962
aS'0xcaf98L'
p5963
asg6
Nsg179
(lp5964
S'0xcae10L'
p5965
asg183
Nsg184
Nsg185
S'367b859cc53ef7e3831cc7eafa0b7b89'
p5966
sg187
S'2c0211e25e9b61c3279d63bfa72f878c'
p5967
sg189
(lp5968
g5941
ag5948
ag152
asg191
Nsba(ibclass
BBasicBlock
p5969
(dp5970
g12
Nsg13
(lp5971
(ibclass
BInstr
p5972
(dp5973
g2
Nsg17
S'LDR     R1, [R12]       ; src'
p5974
sg19
S'00109ce5'
p5975
sg21
Vldr r1, [ip]
p5976
sg5
L831412L
sg6
Nsg23
S'LDR'
p5977
sg25
S'0xcafb4L'
p5978
sg27
Nsba(ibclass
BInstr
p5979
(dp5980
g2
Nsg17
S'BL      memcpy'
p5981
sg19
S'ddf2fdeb'
p5982
sg21
Vbl #0xfff7cb7c
p5983
sg5
L831416L
sg6
Nsg23
S'BL'
p5984
sg25
S'0xcafb8L'
p5985
sg27
Nsba(ibclass
BInstr
p5986
(dp5987
g2
Nsg17
S'LDR     R2, [currlen]'
p5988
sg19
S'002098e5'
p5989
sg21
Vldr r2, [r8]
p5990
sg5
L831420L
sg6
Nsg23
S'LDR'
p5991
sg25
S'0xcafbcL'
p5992
sg27
Nsba(ibclass
BInstr
p5993
(dp5994
g2
Nsg17
S'LDR     R12, [SP,#0x60+var_60]'
p5995
sg19
S'00c09de5'
p5996
sg21
Vldr ip, [sp]
p5997
sg5
L831424L
sg6
Nsg23
S'LDR'
p5998
sg25
S'0xcafc0L'
p5999
sg27
Nsba(ibclass
BInstr
p6000
(dp6001
g2
Nsg17
S'B       loc_CAF40'
p6002
sg19
S'ddffffea'
p6003
sg21
Vb #0xffffff7c
p6004
sg5
L831428L
sg6
Nsg23
g152
sg25
S'0xcafc4L'
p6005
sg27
Nsbasg154
(lp6006
S'LDR R1, mem'
p6007
aS'BL memcpy'
p6008
aS'LDR R2, mem'
p6009
aS'LDR R12, mem'
p6010
aS'B func'
p6011
asg175
Nsg5
S'0xcafb4L'
p6012
sg177
(lp6013
S'0xcaf34L'
p6014
asg6
Nsg179
(lp6015
S'0xcaf40L'
p6016
asg183
Nsg184
Nsg185
S'70e45501e42e8caa06afd2b9ed4d3781'
p6017
sg187
S'9714a9c62aa5e69b636952418f356a65'
p6018
sg189
(lp6019
g5977
ag5984
ag5991
ag5998
ag152
asg191
Nsba(ibclass
BBasicBlock
p6020
(dp6021
g12
Nsg13
(lp6022
(ibclass
BInstr
p6023
(dp6024
g2
Nsg17
S'LDR     R2, [SP,#0x60+var_58]'
p6025
sg19
S'08209de5'
p6026
sg21
Vldr r2, [sp, #8]
p6027
sg5
L831432L
sg6
Nsg23
S'LDR'
p6028
sg25
S'0xcafc8L'
p6029
sg27
Nsba(ibclass
BInstr
p6030
(dp6031
g2
Nsg17
S'MOV     R0, R1          ; num'
p6032
sg19
S'0100a0e1'
p6033
sg21
Vmov r0, r1
p6034
sg5
L831436L
sg6
Nsg23
S'MOV'
p6035
sg25
S'0xcafccL'
p6036
sg27
Nsba(ibclass
BInstr
p6037
(dp6038
g2
Nsg17
S'LDR     R1, =0xFFFDD46C'
p6039
sg19
S'60109fe5'
p6040
sg21
Vldr r1, [pc, #0x60]
p6041
sg5
L831440L
sg6
Nsg23
S'LDR'
p6042
sg25
S'0xcafd0L'
p6043
sg27
Nsba(ibclass
BInstr
p6044
(dp6045
g2
Nsg17
S'STR     zpadlen, [SP,#0x60+var_60]'
p6046
sg19
S'00c08de5'
p6047
sg21
Vstr ip, [sp]
p6048
sg5
L831444L
sg6
Nsg23
S'STR'
p6049
sg25
S'0xcafd4L'
p6050
sg27
Nsba(ibclass
BInstr
p6051
(dp6052
g2
Nsg17
S'ADD     R1, R2, R1      ; file'
p6053
sg19
S'011082e0'
p6054
sg21
Vadd r1, r2, r1
p6055
sg5
L831448L
sg6
Nsg23
S'ADD'
p6056
sg25
S'0xcafd8L'
p6057
sg27
Nsba(ibclass
BInstr
p6058
(dp6059
g2
Nsg17
S'LDR     R2, =0x2F9      ; line'
p6060
sg19
S'64209fe5'
p6061
sg21
Vldr r2, [pc, #0x64]
p6062
sg5
L831452L
sg6
Nsg23
S'LDR'
p6063
sg25
S'0xcafdcL'
p6064
sg27
Nsba(ibclass
BInstr
p6065
(dp6066
g2
Nsg17
S'BL      CRYPTO_malloc'
p6067
sg19
S'c6f7fdeb'
p6068
sg21
Vbl #0xfff7df20
p6069
sg5
L831456L
sg6
Nsg23
S'BL'
p6070
sg25
S'0xcafe0L'
p6071
sg27
Nsba(ibclass
BInstr
p6072
(dp6073
g2
Nsg17
S'CMP     R0, #0'
p6074
sg19
S'000050e3'
p6075
sg21
Vcmp r0, #0
p6076
sg5
L831460L
sg6
Nsg23
S'CMP'
p6077
sg25
S'0xcafe4L'
p6078
sg27
Nsba(ibclass
BInstr
p6079
(dp6080
g2
Nsg17
S'STR     R0, [buffer]'
p6081
sg19
S'000086e5'
p6082
sg21
Vstr r0, [r6]
p6083
sg5
L831464L
sg6
Nsg23
S'STR'
p6084
sg25
S'0xcafe8L'
p6085
sg27
Nsba(ibclass
BInstr
p6086
(dp6087
g2
Nsg17
S'LDR     R12, [SP,#0x60+var_60]'
p6088
sg19
S'00c09de5'
p6089
sg21
Vldr ip, [sp]
p6090
sg5
L831468L
sg6
Nsg23
S'LDR'
p6091
sg25
S'0xcafecL'
p6092
sg27
Nsba(ibclass
BInstr
p6093
(dp6094
g2
Nsg17
S'BEQ     loc_CA958'
p6095
sg19
S'58feff0a'
p6096
sg21
Vbeq #0xfffff968
p6097
sg5
L831472L
sg6
Nsg23
g152
sg25
S'0xcaff0L'
p6098
sg27
Nsbasg154
(lp6099
S'LDR R2, mem'
p6100
aS'MOV R0, R1'
p6101
aS'LDR R1, =0xFFFDD46C'
p6102
aS'STR zparegen, mem'
p6103
aS'ADD R1, R2, R1'
p6104
aS'LDR R2, =0x2F9'
p6105
aS'BL CRYPTO_mregloc'
p6106
aS'CMP R0, #0'
p6107
aS'STR R0, mem'
p6108
aS'LDR R12, mem'
p6109
aS'BEQ func'
p6110
asg175
Nsg5
S'0xcafc8L'
p6111
sg177
(lp6112
S'0xcaeacL'
p6113
asg6
Nsg179
(lp6114
S'0xca958L'
p6115
aS'0xcaff4L'
p6116
asg183
Nsg184
Nsg185
S'072b87787c0f2ad44f14afab758ea3c4'
p6117
sg187
S'46b18ffd7b27cfe27f6fdf8d36230d31'
p6118
sg189
(lp6119
g6028
ag6035
ag6042
ag6049
ag6056
ag6063
ag6070
ag6077
ag6084
ag6091
ag152
asg191
Nsba(ibclass
BBasicBlock
p6120
(dp6121
g12
Nsg13
(lp6122
(ibclass
BInstr
p6123
(dp6124
g2
Nsg17
S'LDR     R2, [currlen]   ; n'
p6125
sg19
S'002098e5'
p6126
sg21
Vldr r2, [r8]
p6127
sg5
L831476L
sg6
Nsg23
S'LDR'
p6128
sg25
S'0xcaff4L'
p6129
sg27
Nsba(ibclass
BInstr
p6130
(dp6131
g2
Nsg17
S'CMP     R2, #0'
p6132
sg19
S'000052e3'
p6133
sg21
Vcmp r2, #0
p6134
sg5
L831480L
sg6
Nsg23
S'CMP'
p6135
sg25
S'0xcaff8L'
p6136
sg27
Nsba(ibclass
BInstr
p6137
(dp6138
g2
Nsg17
S'BEQ     loc_CB014'
p6139
sg19
S'0400000a'
p6140
sg21
Vbeq #0x18
p6141
sg5
L831484L
sg6
Nsg23
g152
sg25
S'0xcaffcL'
p6142
sg27
Nsbasg154
(lp6143
S'LDR R2, mem'
p6144
aS'CMP R2, #0'
p6145
aS'BEQ func'
p6146
asg175
Nsg5
S'0xcaff4L'
p6147
sg177
(lp6148
S'0xcafc8L'
p6149
asg6
Nsg179
(lp6150
S'0xcb000L'
p6151
aS'0xcb014L'
p6152
asg183
Nsg184
Nsg185
S'fa4df767a85c49648339e2dc5c6807f6'
p6153
sg187
S'89bb0c615f1e9e21325ad7eb7b948cfd'
p6154
sg189
(lp6155
g6128
ag6135
ag152
asg191
Nsba(ibclass
BBasicBlock
p6156
(dp6157
g12
Nsg13
(lp6158
(ibclass
BInstr
p6159
(dp6160
g2
Nsg17
S'LDR     R3, [SP,#0x60+var_4C]'
p6161
sg19
S'14309de5'
p6162
sg21
Vldr r3, [sp, #0x14]
p6163
sg5
L831488L
sg6
Nsg23
S'LDR'
p6164
sg25
S'0xcb000L'
p6165
sg27
Nsba(ibclass
BInstr
p6166
(dp6167
g2
Nsg17
S'LDR     R1, [R3]        ; src'
p6168
sg19
S'001093e5'
p6169
sg21
Vldr r1, [r3]
p6170
sg5
L831492L
sg6
Nsg23
S'LDR'
p6171
sg25
S'0xcb004L'
p6172
sg27
Nsba(ibclass
BInstr
p6173
(dp6174
g2
Nsg17
S'BL      memcpy'
p6175
sg19
S'c9f2fdeb'
p6176
sg21
Vbl #0xfff7cb2c
p6177
sg5
L831496L
sg6
Nsg23
S'BL'
p6178
sg25
S'0xcb008L'
p6179
sg27
Nsba(ibclass
BInstr
p6180
(dp6181
g2
Nsg17
S'LDR     R2, [currlen]'
p6182
sg19
S'002098e5'
p6183
sg21
Vldr r2, [r8]
p6184
sg5
L831500L
sg6
Nsg23
S'LDR'
p6185
sg25
S'0xcb00cL'
p6186
sg27
Nsba(ibclass
BInstr
p6187
(dp6188
g2
Nsg17
S'LDR     R12, [SP,#0x60+var_60]'
p6189
sg19
S'00c09de5'
p6190
sg21
Vldr ip, [sp]
p6191
sg5
L831504L
sg6
Nsg23
S'LDR'
p6192
sg25
S'0xcb010L'
p6193
sg27
Nsbasg154
(lp6194
S'LDR R3, mem'
p6195
aS'LDR R1, mem'
p6196
aS'BL memcpy'
p6197
aS'LDR R2, mem'
p6198
aS'LDR R12, mem'
p6199
asg175
Nsg5
S'0xcb000L'
p6200
sg177
(lp6201
S'0xcaff4L'
p6202
asg6
Nsg179
(lp6203
S'0xcb014L'
p6204
asg183
Nsg184
Nsg185
S'57f96882fa5b1429ca3f716a13ebe2b0'
p6205
sg187
S'db92354eb574d99364b1dff5fdf450b0'
p6206
sg189
(lp6207
g6164
ag6171
ag6178
ag6185
ag6192
asg191
Nsba(ibclass
BBasicBlock
p6208
(dp6209
g12
Nsg13
(lp6210
(ibclass
BInstr
p6211
(dp6212
g2
Nsg17
S'LDR     R0, [SP,#0x60+var_4C]'
p6213
sg19
S'14009de5'
p6214
sg21
Vldr r0, [sp, #0x14]
p6215
sg5
L831508L
sg6
Nsg23
S'LDR'
p6216
sg25
S'0xcb014L'
p6217
sg27
Nsba(ibclass
BInstr
p6218
(dp6219
g2
Nsg17
S'MOV     R3, #0'
p6220
sg19
S'0030a0e3'
p6221
sg21
Vmov r3, #0
p6222
sg5
L831512L
sg6
Nsg23
S'MOV'
p6223
sg25
S'0xcb018L'
p6224
sg27
Nsba(ibclass
BInstr
p6225
(dp6226
g2
Nsg17
S'STR     R3, [R0]'
p6227
sg19
S'003080e5'
p6228
sg21
Vstr r3, [r0]
p6229
sg5
L831516L
sg6
Nsg23
S'STR'
p6230
sg25
S'0xcb01cL'
p6231
sg27
Nsba(ibclass
BInstr
p6232
(dp6233
g2
Nsg17
S'MOV     R3, R2'
p6234
sg19
S'0230a0e1'
p6235
sg21
Vmov r3, r2
p6236
sg5
L831520L
sg6
Nsg23
S'MOV'
p6237
sg25
S'0xcb020L'
p6238
sg27
Nsba(ibclass
BInstr
p6239
(dp6240
g2
Nsg17
S'LDR     R2, [maxlen]'
p6241
sg19
S'002097e5'
p6242
sg21
Vldr r2, [r7]
p6243
sg5
L831524L
sg6
Nsg23
S'LDR'
p6244
sg25
S'0xcb024L'
p6245
sg27
Nsba(ibclass
BInstr
p6246
(dp6247
g2
Nsg17
S'B       loc_CAC08'
p6248
sg19
S'f6feffea'
p6249
sg21
Vb #0xfffffbe0
p6250
sg5
L831528L
sg6
Nsg23
g152
sg25
S'0xcb028L'
p6251
sg27
Nsbasg154
(lp6252
S'LDR R0, mem'
p6253
aS'MOV R3, #0'
p6254
aS'STR R3, mem'
p6255
aS'MOV R3, R2'
p6256
aS'LDR R2, mem'
p6257
aS'B func'
p6258
asg175
Nsg5
S'0xcb014L'
p6259
sg177
(lp6260
S'0xcaff4L'
p6261
aS'0xcb000L'
p6262
asg6
Nsg179
(lp6263
S'0xcac08L'
p6264
asg183
Nsg184
Nsg185
S'787788461b241e6ecf86e913ca39d3e1'
p6265
sg187
S'f2393dbfddb954761b015d65007b93a8'
p6266
sg189
(lp6267
g6216
ag6223
ag6230
ag6237
ag6244
ag152
asg191
Nsbasb.