(ibclass
BFunc
p0
(dp1
S'hash'
p2
NsS'name'
p3
S'MDC2_Update'
p4
sS'start_address'
p5
L391160L
sS'flag'
p6
NsS'program'
p7
NsS'bbs'
p8
(lp9
(ibclass
BBasicBlock
p10
(dp11
S'function'
p12
NsS'binstrs'
p13
(lp14
(ibclass
BInstr
p15
(dp16
g2
NsS'disasm'
p17
S'STMFD   SP!, {R4-R8,LR}'
p18
sS'bytes'
p19
S'f0412de9'
p20
sS'disasm_striped'
p21
Vpush {r4, r5, r6, r7, r8, lr}
p22
sg5
L391160L
sg6
NsS'mnem'
p23
S'STM'
p24
sS'address'
p25
S'0x5f7f8L'
p26
sS'basicblock'
p27
Nsba(ibclass
BInstr
p28
(dp29
g2
Nsg17
S'MOV     R5, c'
p30
sg19
S'0050a0e1'
p31
sg21
Vmov r5, r0
p32
sg5
L391164L
sg6
Nsg23
S'MOV'
p33
sg25
S'0x5f7fcL'
p34
sg27
Nsba(ibclass
BInstr
p35
(dp36
g2
Nsg17
S'LDR     c, [c]'
p37
sg19
S'000090e5'
p38
sg21
Vldr r0, [r0]
p39
sg5
L391168L
sg6
Nsg23
S'LDR'
p40
sg25
S'0x5f800L'
p41
sg27
Nsba(ibclass
BInstr
p42
(dp43
g2
Nsg17
S'MOV     R7, in'
p44
sg19
S'0170a0e1'
p45
sg21
Vmov r7, r1
p46
sg5
L391172L
sg6
Nsg23
S'MOV'
p47
sg25
S'0x5f804L'
p48
sg27
Nsba(ibclass
BInstr
p49
(dp50
g2
Nsg17
S'CMP     i, #0'
p51
sg19
S'000050e3'
p52
sg21
Vcmp r0, #0
p53
sg5
L391176L
sg6
Nsg23
S'CMP'
p54
sg25
S'0x5f808L'
p55
sg27
Nsba(ibclass
BInstr
p56
(dp57
g2
Nsg17
S'MOV     R4, len'
p58
sg19
S'0240a0e1'
p59
sg21
Vmov r4, r2
p60
sg5
L391180L
sg6
Nsg23
S'MOV'
p61
sg25
S'0x5f80cL'
p62
sg27
Nsba(ibclass
BInstr
p63
(dp64
g2
Nsg17
S'BEQ     loc_5F850'
p65
sg19
S'0e00000a'
p66
sg21
Vbeq #0x40
p67
sg5
L391184L
sg6
Nsg23
S'B'
p68
sg25
S'0x5f810L'
p69
sg27
NsbasS'disasm_list'
p70
(lp71
S'STMFD SP!, {R4-R8,LR}'
p72
aS'MOV R5, c'
p73
aS'LDR c, mem'
p74
aS'MOV R7, in'
p75
aS'CMP i, #0'
p76
aS'MOV R4, len'
p77
aS'BEQ func'
p78
asS'end_address'
p79
Nsg5
S'0x5f7f8L'
p80
sS'preds'
p81
(lp82
sg6
NsS'succs'
p83
(lp84
S'0x5f814L'
p85
aS'0x5f850L'
p86
asS'hash_v3'
p87
NsS'flag_v2'
p88
NsS'hash_v1'
p89
S'fd7784d62d5490e6aeb62c09d16c522e'
p90
sS'hash_v2'
p91
S'b8c6699d5ccc3b0bac6b1dae2f46574a'
p92
sS'mnen_list'
p93
(lp94
g24
ag33
ag40
ag47
ag54
ag61
ag68
asS'neighbour_disasm_list'
p95
Nsba(ibclass
BBasicBlock
p96
(dp97
g12
Nsg13
(lp98
(ibclass
BInstr
p99
(dp100
g2
Nsg17
S'RSB     R6, i, #8'
p101
sg19
S'086060e2'
p102
sg21
Vrsb r6, r0, #8
p103
sg5
L391188L
sg6
Nsg23
S'RSB'
p104
sg25
S'0x5f814L'
p105
sg27
Nsba(ibclass
BInstr
p106
(dp107
g2
Nsg17
S'CMP     R2, R6'
p108
sg19
S'060052e1'
p109
sg21
Vcmp r2, r6
p110
sg5
L391192L
sg6
Nsg23
S'CMP'
p111
sg25
S'0x5f818L'
p112
sg27
Nsba(ibclass
BInstr
p113
(dp114
g2
Nsg17
S'BCC     loc_5F898'
p115
sg19
S'1d00003a'
p116
sg21
Vblo #0x7c
p117
sg5
L391196L
sg6
Nsg23
g68
sg25
S'0x5f81cL'
p118
sg27
Nsbasg70
(lp119
S'RSB R6, i, #8'
p120
aS'CMP R2, R6'
p121
aS'BCC func'
p122
asg79
Nsg5
S'0x5f814L'
p123
sg81
(lp124
S'0x5f7f8L'
p125
asg6
Nsg83
(lp126
S'0x5f820L'
p127
aS'0x5f898L'
p128
asg87
Nsg88
Nsg89
S'aa3283b8fd7bd3709706fef1746a0ec2'
p129
sg91
S'6dc4d521d99a985e2dd28cf5b813ff4f'
p130
sg93
(lp131
g104
ag111
ag68
asg95
Nsba(ibclass
BBasicBlock
p132
(dp133
g12
Nsg13
(lp134
(ibclass
BInstr
p135
(dp136
g2
Nsg17
S'ADD     R8, c, #4'
p137
sg19
S'048085e2'
p138
sg21
Vadd r8, r5, #4
p139
sg5
L391200L
sg6
Nsg23
S'ADD'
p140
sg25
S'0x5f820L'
p141
sg27
Nsba(ibclass
BInstr
p142
(dp143
g2
Nsg17
S'MOV     len, R6         ; n'
p144
sg19
S'0620a0e1'
p145
sg21
Vmov r2, r6
p146
sg5
L391204L
sg6
Nsg23
S'MOV'
p147
sg25
S'0x5f824L'
p148
sg27
Nsba(ibclass
BInstr
p149
(dp150
g2
Nsg17
S'ADD     i, R8, i        ; dest'
p151
sg19
S'000088e0'
p152
sg21
Vadd r0, r8, r0
p153
sg5
L391208L
sg6
Nsg23
S'ADD'
p154
sg25
S'0x5f828L'
p155
sg27
Nsba(ibclass
BInstr
p156
(dp157
g2
Nsg17
S'BL      memcpy'
p158
sg19
S'c0a0ffeb'
p159
sg21
Vbl #0xfffe8308
p160
sg5
L391212L
sg6
Nsg23
S'BL'
p161
sg25
S'0x5f82cL'
p162
sg27
Nsba(ibclass
BInstr
p163
(dp164
g2
Nsg17
S'MOV     R3, #0'
p165
sg19
S'0030a0e3'
p166
sg21
Vmov r3, #0
p167
sg5
L391216L
sg6
Nsg23
S'MOV'
p168
sg25
S'0x5f830L'
p169
sg27
Nsba(ibclass
BInstr
p170
(dp171
g2
Nsg17
S'STR     R3, [c]'
p172
sg19
S'003085e5'
p173
sg21
Vstr r3, [r5]
p174
sg5
L391220L
sg6
Nsg23
S'STR'
p175
sg25
S'0x5f834L'
p176
sg27
Nsba(ibclass
BInstr
p177
(dp178
g2
Nsg17
S'MOV     R1, R8          ; in'
p179
sg19
S'0810a0e1'
p180
sg21
Vmov r1, r8
p181
sg5
L391224L
sg6
Nsg23
S'MOV'
p182
sg25
S'0x5f838L'
p183
sg27
Nsba(ibclass
BInstr
p184
(dp185
g2
Nsg17
S'MOV     R0, c           ; c'
p186
sg19
S'0500a0e1'
p187
sg21
Vmov r0, r5
p188
sg5
L391228L
sg6
Nsg23
S'MOV'
p189
sg25
S'0x5f83cL'
p190
sg27
Nsba(ibclass
BInstr
p191
(dp192
g2
Nsg17
S'MOV     R2, #8          ; len'
p193
sg19
S'0820a0e3'
p194
sg21
Vmov r2, #8
p195
sg5
L391232L
sg6
Nsg23
S'MOV'
p196
sg25
S'0x5f840L'
p197
sg27
Nsba(ibclass
BInstr
p198
(dp199
g2
Nsg17
S'ADD     in, in, R6'
p200
sg19
S'067087e0'
p201
sg21
Vadd r7, r7, r6
p202
sg5
L391236L
sg6
Nsg23
S'ADD'
p203
sg25
S'0x5f844L'
p204
sg27
Nsba(ibclass
BInstr
p205
(dp206
g2
Nsg17
S'RSB     len, R6, len'
p207
sg19
S'044066e0'
p208
sg21
Vrsb r4, r6, r4
p209
sg5
L391240L
sg6
Nsg23
S'RSB'
p210
sg25
S'0x5f848L'
p211
sg27
Nsba(ibclass
BInstr
p212
(dp213
g2
Nsg17
S'BL      mdc2_body'
p214
sg19
S'21ffffeb'
p215
sg21
Vbl #0xfffffc8c
p216
sg5
L391244L
sg6
Nsg23
S'BL'
p217
sg25
S'0x5f84cL'
p218
sg27
Nsbasg70
(lp219
S'ADD R8, c, #4'
p220
aS'MOV len, R6'
p221
aS'ADD i, R8, i'
p222
aS'BL memcpy'
p223
aS'MOV R3, #0'
p224
aS'STR R3, mem'
p225
aS'MOV R1, R8'
p226
aS'MOV R0, c'
p227
aS'MOV R2, #8'
p228
aS'ADD in, in, R6'
p229
aS'RSB len, R6, len'
p230
aS'BL mdc2_body'
p231
asg79
Nsg5
S'0x5f820L'
p232
sg81
(lp233
S'0x5f814L'
p234
asg6
Nsg83
(lp235
S'0x5f850L'
p236
asg87
Nsg88
Nsg89
S'3fea86af725e859fc23f25a9da0b7b8c'
p237
sg91
S'45577bcceef8e7b5c740a6015e5306ca'
p238
sg93
(lp239
g140
ag147
ag154
ag161
ag168
ag175
ag182
ag189
ag196
ag203
ag210
ag217
asg95
Nsba(ibclass
BBasicBlock
p240
(dp241
g12
Nsg13
(lp242
(ibclass
BInstr
p243
(dp244
g2
Nsg17
S'BICS    R6, len, #7'
p245
sg19
S'0760d4e3'
p246
sg21
Vbics r6, r4, #7
p247
sg5
L391248L
sg6
Nsg23
S'BIC'
p248
sg25
S'0x5f850L'
p249
sg27
Nsba(ibclass
BInstr
p250
(dp251
g2
Nsg17
S'BNE     loc_5F884'
p252
sg19
S'0a00001a'
p253
sg21
Vbne #0x30
p254
sg5
L391252L
sg6
Nsg23
g68
sg25
S'0x5f854L'
p255
sg27
Nsbasg70
(lp256
S'BICS R6, len, #7'
p257
aS'BNE func'
p258
asg79
Nsg5
S'0x5f850L'
p259
sg81
(lp260
S'0x5f7f8L'
p261
aS'0x5f820L'
p262
asg6
Nsg83
(lp263
S'0x5f858L'
p264
aS'0x5f884L'
p265
asg87
Nsg88
Nsg89
S'f7203e970e7696d9a045e36d28adb44e'
p266
sg91
S'150126342e2b8b0315100bfe39b7a106'
p267
sg93
(lp268
g248
ag68
asg95
Nsba(ibclass
BBasicBlock
p269
(dp270
g12
Nsg13
(lp271
(ibclass
BInstr
p272
(dp273
g2
Nsg17
S'SUBS    len, len, i'
p274
sg19
S'064054e0'
p275
sg21
Vsubs r4, r4, r6
p276
sg5
L391256L
sg6
Nsg23
S'SUB'
p277
sg25
S'0x5f858L'
p278
sg27
Nsba(ibclass
BInstr
p279
(dp280
g2
Nsg17
S'BNE     loc_5F86C'
p281
sg19
S'0200001a'
p282
sg21
Vbne #0x10
p283
sg5
L391260L
sg6
Nsg23
g68
sg25
S'0x5f85cL'
p284
sg27
Nsbasg70
(lp285
S'SUBS len, len, i'
p286
aS'BNE func'
p287
asg79
Nsg5
S'0x5f858L'
p288
sg81
(lp289
S'0x5f850L'
p290
aS'0x5f884L'
p291
asg6
Nsg83
(lp292
S'0x5f860L'
p293
aS'0x5f86cL'
p294
asg87
Nsg88
Nsg89
S'd9cd0befa77024d455f4479512574760'
p295
sg91
S'90af4f12ff9b86b7216b43ea1db6b3b6'
p296
sg93
(lp297
g277
ag68
asg95
Nsba(ibclass
BBasicBlock
p298
(dp299
g12
Nsg13
(lp300
(ibclass
BInstr
p301
(dp302
g2
Nsg17
S'MOV     R0, #1'
p303
sg19
S'0100a0e3'
p304
sg21
Vmov r0, #1
p305
sg5
L391264L
sg6
Nsg23
S'MOV'
p306
sg25
S'0x5f860L'
p307
sg27
Nsba(ibclass
BInstr
p308
(dp309
g2
Nsg17
S'LDMFD   SP!, {j-R8,LR}'
p310
sg19
S'f041bde8'
p311
sg21
Vpop {r4, r5, r6, r7, r8, lr}
p312
sg5
L391268L
sg6
Nsg23
S'LDM'
p313
sg25
S'0x5f864L'
p314
sg27
Nsba(ibclass
BInstr
p315
(dp316
g2
Nsg17
S'BX      LR'
p317
sg19
S'1eff2fe1'
p318
sg21
Vbx lr
p319
sg5
L391272L
sg6
Nsg23
S'BX'
p320
sg25
S'0x5f868L'
p321
sg27
Nsbasg70
(lp322
S'MOV R0, #1'
p323
aS'LDMFD SP!, {j-R8,LR}'
p324
aS'BX LR'
p325
asg79
Nsg5
S'0x5f860L'
p326
sg81
(lp327
S'0x5f858L'
p328
aS'0x5f86cL'
p329
aS'0x5f898L'
p330
asg6
Nsg83
(lp331
sg87
Nsg88
Nsg89
S'388e76e3b22a3169cc244940f6f7d4c5'
p332
sg91
S'404d8aad0c6d85fb79c8c1bbc08e71cb'
p333
sg93
(lp334
g306
ag313
ag320
asg95
Nsba(ibclass
BBasicBlock
p335
(dp336
g12
Nsg13
(lp337
(ibclass
BInstr
p338
(dp339
g2
Nsg17
S'ADD     R1, in, i       ; src'
p340
sg19
S'061087e0'
p341
sg21
Vadd r1, r7, r6
p342
sg5
L391276L
sg6
Nsg23
S'ADD'
p343
sg25
S'0x5f86cL'
p344
sg27
Nsba(ibclass
BInstr
p345
(dp346
g2
Nsg17
S'ADD     R0, c, #4       ; dest'
p347
sg19
S'040085e2'
p348
sg21
Vadd r0, r5, #4
p349
sg5
L391280L
sg6
Nsg23
S'ADD'
p350
sg25
S'0x5f870L'
p351
sg27
Nsba(ibclass
BInstr
p352
(dp353
g2
Nsg17
S'MOV     len, j          ; n'
p354
sg19
S'0420a0e1'
p355
sg21
Vmov r2, r4
p356
sg5
L391284L
sg6
Nsg23
S'MOV'
p357
sg25
S'0x5f874L'
p358
sg27
Nsba(ibclass
BInstr
p359
(dp360
g2
Nsg17
S'BL      memcpy'
p361
sg19
S'ada0ffeb'
p362
sg21
Vbl #0xfffe82bc
p363
sg5
L391288L
sg6
Nsg23
S'BL'
p364
sg25
S'0x5f878L'
p365
sg27
Nsba(ibclass
BInstr
p366
(dp367
g2
Nsg17
S'STR     j, [c]'
p368
sg19
S'004085e5'
p369
sg21
Vstr r4, [r5]
p370
sg5
L391292L
sg6
Nsg23
S'STR'
p371
sg25
S'0x5f87cL'
p372
sg27
Nsba(ibclass
BInstr
p373
(dp374
g2
Nsg17
S'B       loc_5F860'
p375
sg19
S'f6ffffea'
p376
sg21
Vb #0xffffffe0
p377
sg5
L391296L
sg6
Nsg23
g68
sg25
S'0x5f880L'
p378
sg27
Nsbasg70
(lp379
S'ADD R1, in, i'
p380
aS'ADD R0, c, #4'
p381
aS'MOV len, j'
p382
aS'BL memcpy'
p383
aS'STR j, mem'
p384
aS'B func'
p385
asg79
Nsg5
S'0x5f86cL'
p386
sg81
(lp387
S'0x5f858L'
p388
asg6
Nsg83
(lp389
S'0x5f860L'
p390
asg87
Nsg88
Nsg89
S'90b0ae97a545464053c69ce16bf14328'
p391
sg91
S'c14333bf35b035172c93684f0a79e118'
p392
sg93
(lp393
g343
ag350
ag357
ag364
ag371
ag68
asg95
Nsba(ibclass
BBasicBlock
p394
(dp395
g12
Nsg13
(lp396
(ibclass
BInstr
p397
(dp398
g2
Nsg17
S'MOV     R0, c           ; c'
p399
sg19
S'0500a0e1'
p400
sg21
Vmov r0, r5
p401
sg5
L391300L
sg6
Nsg23
S'MOV'
p402
sg25
S'0x5f884L'
p403
sg27
Nsba(ibclass
BInstr
p404
(dp405
g2
Nsg17
S'MOV     R1, in          ; in'
p406
sg19
S'0710a0e1'
p407
sg21
Vmov r1, r7
p408
sg5
L391304L
sg6
Nsg23
S'MOV'
p409
sg25
S'0x5f888L'
p410
sg27
Nsba(ibclass
BInstr
p411
(dp412
g2
Nsg17
S'MOV     R2, i           ; len'
p413
sg19
S'0620a0e1'
p414
sg21
Vmov r2, r6
p415
sg5
L391308L
sg6
Nsg23
S'MOV'
p416
sg25
S'0x5f88cL'
p417
sg27
Nsba(ibclass
BInstr
p418
(dp419
g2
Nsg17
S'BL      mdc2_body'
p420
sg19
S'10ffffeb'
p421
sg21
Vbl #0xfffffc48
p422
sg5
L391312L
sg6
Nsg23
S'BL'
p423
sg25
S'0x5f890L'
p424
sg27
Nsba(ibclass
BInstr
p425
(dp426
g2
Nsg17
S'B       loc_5F858'
p427
sg19
S'efffffea'
p428
sg21
Vb #0xffffffc4
p429
sg5
L391316L
sg6
Nsg23
g68
sg25
S'0x5f894L'
p430
sg27
Nsbasg70
(lp431
S'MOV R0, c'
p432
aS'MOV R1, in'
p433
aS'MOV R2, i'
p434
aS'BL mdc2_body'
p435
aS'B func'
p436
asg79
Nsg5
S'0x5f884L'
p437
sg81
(lp438
S'0x5f850L'
p439
asg6
Nsg83
(lp440
S'0x5f858L'
p441
asg87
Nsg88
Nsg89
S'938d111b8bed94625648a5a2bb44a5c7'
p442
sg91
S'cbfe1d72be56d3aa50cce01094bb27b5'
p443
sg93
(lp444
g402
ag409
ag416
ag423
ag68
asg95
Nsba(ibclass
BBasicBlock
p445
(dp446
g12
Nsg13
(lp447
(ibclass
BInstr
p448
(dp449
g2
Nsg17
S'ADD     R3, c, #4'
p450
sg19
S'043085e2'
p451
sg21
Vadd r3, r5, #4
p452
sg5
L391320L
sg6
Nsg23
S'ADD'
p453
sg25
S'0x5f898L'
p454
sg27
Nsba(ibclass
BInstr
p455
(dp456
g2
Nsg17
S'ADD     i, R3, i        ; dest'
p457
sg19
S'000083e0'
p458
sg21
Vadd r0, r3, r0
p459
sg5
L391324L
sg6
Nsg23
S'ADD'
p460
sg25
S'0x5f89cL'
p461
sg27
Nsba(ibclass
BInstr
p462
(dp463
g2
Nsg17
S'BL      memcpy'
p464
sg19
S'a3a0ffeb'
p465
sg21
Vbl #0xfffe8294
p466
sg5
L391328L
sg6
Nsg23
S'BL'
p467
sg25
S'0x5f8a0L'
p468
sg27
Nsba(ibclass
BInstr
p469
(dp470
g2
Nsg17
S'LDR     R3, [c]'
p471
sg19
S'003095e5'
p472
sg21
Vldr r3, [r5]
p473
sg5
L391332L
sg6
Nsg23
S'LDR'
p474
sg25
S'0x5f8a4L'
p475
sg27
Nsba(ibclass
BInstr
p476
(dp477
g2
Nsg17
S'ADD     len, R3, len'
p478
sg19
S'044083e0'
p479
sg21
Vadd r4, r3, r4
p480
sg5
L391336L
sg6
Nsg23
S'ADD'
p481
sg25
S'0x5f8a8L'
p482
sg27
Nsba(ibclass
BInstr
p483
(dp484
g2
Nsg17
S'STR     R4, [c]'
p485
sg19
S'004085e5'
p486
sg21
Vstr r4, [r5]
p487
sg5
L391340L
sg6
Nsg23
S'STR'
p488
sg25
S'0x5f8acL'
p489
sg27
Nsba(ibclass
BInstr
p490
(dp491
g2
Nsg17
S'B       loc_5F860'
p492
sg19
S'eaffffea'
p493
sg21
Vb #0xffffffb0
p494
sg5
L391344L
sg6
Nsg23
g68
sg25
S'0x5f8b0L'
p495
sg27
Nsbasg70
(lp496
S'ADD R3, c, #4'
p497
aS'ADD i, R3, i'
p498
aS'BL memcpy'
p499
aS'LDR R3, mem'
p500
aS'ADD len, R3, len'
p501
aS'STR R4, mem'
p502
aS'B func'
p503
asg79
Nsg5
S'0x5f898L'
p504
sg81
(lp505
S'0x5f814L'
p506
asg6
Nsg83
(lp507
S'0x5f860L'
p508
asg87
Nsg88
Nsg89
S'9d95b4a65cd16ebeb916b74ee54c141c'
p509
sg91
S'c9475b4b3d37a49b50689f2b33b51875'
p510
sg93
(lp511
g453
ag460
ag467
ag474
ag481
ag488
ag68
asg95
Nsbasb.