(ibclass
BFunc
p0
(dp1
S'hash'
p2
NsS'name'
p3
S'ASN1_TYPE_cmp'
p4
sS'start_address'
p5
L952744L
sS'flag'
p6
NsS'program'
p7
NsS'bbs'
p8
(lp9
(ibclass
BBasicBlock
p10
(dp11
S'function'
p12
NsS'binstrs'
p13
(lp14
(ibclass
BInstr
p15
(dp16
g2
NsS'disasm'
p17
S'CMP     a, #0'
p18
sS'bytes'
p19
S'000050e3'
p20
sS'disasm_striped'
p21
Vcmp r0, #0
p22
sg5
L952744L
sg6
NsS'mnem'
p23
S'CMP'
p24
sS'address'
p25
S'0xe89a8L'
p26
sS'basicblock'
p27
Nsba(ibclass
BInstr
p28
(dp29
g2
Nsg17
S'CMPNE   b, #0'
p30
sg19
S'00005113'
p31
sg21
Vcmpne r1, #0
p32
sg5
L952748L
sg6
Nsg23
S'CMP'
p33
sg25
S'0xe89acL'
p34
sg27
Nsba(ibclass
BInstr
p35
(dp36
g2
Nsg17
S'STMFD   SP!, {R4,LR}'
p37
sg19
S'10402de9'
p38
sg21
Vpush {r4, lr}
p39
sg5
L952752L
sg6
Nsg23
S'STM'
p40
sg25
S'0xe89b0L'
p41
sg27
Nsba(ibclass
BInstr
p42
(dp43
g2
Nsg17
S'MOVNE   R3, #0'
p44
sg19
S'0030a013'
p45
sg21
Vmovne r3, #0
p46
sg5
L952756L
sg6
Nsg23
S'MOV'
p47
sg25
S'0xe89b4L'
p48
sg27
Nsba(ibclass
BInstr
p49
(dp50
g2
Nsg17
S'MOVEQ   R3, #1'
p51
sg19
S'0130a003'
p52
sg21
Vmoveq r3, #1
p53
sg5
L952760L
sg6
Nsg23
S'MOV'
p54
sg25
S'0xe89b8L'
p55
sg27
Nsba(ibclass
BInstr
p56
(dp57
g2
Nsg17
S'BNE     loc_E89CC'
p58
sg19
S'0200001a'
p59
sg21
Vbne #0x10
p60
sg5
L952764L
sg6
Nsg23
S'B'
p61
sg25
S'0xe89bcL'
p62
sg27
NsbasS'disasm_list'
p63
(lp64
S'CMP a, #0'
p65
aS'CMPNE b, #0'
p66
aS'STMFD SP!, {R4,LR}'
p67
aS'MOVNE R3, #0'
p68
aS'MOVEQ R3, #1'
p69
aS'BNE func'
p70
asS'end_address'
p71
Nsg5
S'0xe89a8L'
p72
sS'preds'
p73
(lp74
sg6
NsS'succs'
p75
(lp76
S'0xe89c0L'
p77
aS'0xe89ccL'
p78
asS'hash_v3'
p79
NsS'flag_v2'
p80
NsS'hash_v1'
p81
S'632673e31676de4efb56daaead73e4c4'
p82
sS'hash_v2'
p83
S'cdb0b9a8bbb8bf5b8ac317d27a2300b4'
p84
sS'mnen_list'
p85
(lp86
g24
ag33
ag40
ag47
ag54
ag61
asS'neighbour_disasm_list'
p87
Nsba(ibclass
BBasicBlock
p88
(dp89
g12
Nsg13
(lp90
(ibclass
BInstr
p91
(dp92
g2
Nsg17
S'MOV     a, #0xFFFFFFFF'
p93
sg19
S'0000e0e3'
p94
sg21
Vmvn r0, #0
p95
sg5
L952768L
sg6
Nsg23
S'MOV'
p96
sg25
S'0xe89c0L'
p97
sg27
Nsbasg63
(lp98
S'MOV a, #0xFFFFFFFF'
p99
asg71
Nsg5
S'0xe89c0L'
p100
sg73
(lp101
S'0xe89a8L'
p102
aS'0xe89ccL'
p103
asg6
Nsg75
(lp104
S'0xe89c4L'
p105
asg79
Nsg80
Nsg81
S'17b32100aef1fc19670be7fd58bc85df'
p106
sg83
S'af8b7561328589b6f07040073f21d595'
p107
sg85
(lp108
g96
asg87
Nsba(ibclass
BBasicBlock
p109
(dp110
g12
Nsg13
(lp111
(ibclass
BInstr
p112
(dp113
g2
Nsg17
S'LDMFD   SP!, {R4,LR}'
p114
sg19
S'1040bde8'
p115
sg21
Vpop {r4, lr}
p116
sg5
L952772L
sg6
Nsg23
S'LDM'
p117
sg25
S'0xe89c4L'
p118
sg27
Nsba(ibclass
BInstr
p119
(dp120
g2
Nsg17
S'BX      LR'
p121
sg19
S'1eff2fe1'
p122
sg21
Vbx lr
p123
sg5
L952776L
sg6
Nsg23
S'BX'
p124
sg25
S'0xe89c8L'
p125
sg27
Nsbasg63
(lp126
S'LDMFD SP!, {R4,LR}'
p127
aS'BX LR'
p128
asg71
Nsg5
S'0xe89c4L'
p129
sg73
(lp130
S'0xe89c0L'
p131
aS'0xe89dcL'
p132
aS'0xe89f8L'
p133
aS'0xe8a08L'
p134
aS'0xe8a18L'
p135
asg6
Nsg75
(lp136
sg79
Nsg80
Nsg81
S'1bbf04f23edc7b30d215c55a7294459f'
p137
sg83
S'32aa684f87d80236da5a07ab55e2aaf3'
p138
sg85
(lp139
g117
ag124
asg87
Nsba(ibclass
BBasicBlock
p140
(dp141
g12
Nsg13
(lp142
(ibclass
BInstr
p143
(dp144
g2
Nsg17
S'LDR     R2, [a]'
p145
sg19
S'002090e5'
p146
sg21
Vldr r2, [r0]
p147
sg5
L952780L
sg6
Nsg23
S'LDR'
p148
sg25
S'0xe89ccL'
p149
sg27
Nsba(ibclass
BInstr
p150
(dp151
g2
Nsg17
S'LDR     R12, [b]'
p152
sg19
S'00c091e5'
p153
sg21
Vldr ip, [r1]
p154
sg5
L952784L
sg6
Nsg23
S'LDR'
p155
sg25
S'0xe89d0L'
p156
sg27
Nsba(ibclass
BInstr
p157
(dp158
g2
Nsg17
S'CMP     R2, R12'
p159
sg19
S'0c0052e1'
p160
sg21
Vcmp r2, ip
p161
sg5
L952788L
sg6
Nsg23
S'CMP'
p162
sg25
S'0xe89d4L'
p163
sg27
Nsba(ibclass
BInstr
p164
(dp165
g2
Nsg17
S'BNE     loc_E89C0'
p166
sg19
S'f8ffff1a'
p167
sg21
Vbne #0xffffffe8
p168
sg5
L952792L
sg6
Nsg23
g61
sg25
S'0xe89d8L'
p169
sg27
Nsbasg63
(lp170
S'LDR R2, mem'
p171
aS'LDR R12, mem'
p172
aS'CMP R2, R12'
p173
aS'BNE func'
p174
asg71
Nsg5
S'0xe89ccL'
p175
sg73
(lp176
S'0xe89a8L'
p177
asg6
Nsg75
(lp178
S'0xe89c0L'
p179
aS'0xe89dcL'
p180
asg79
Nsg80
Nsg81
S'd9812e74326a7ebe01ae9e2a00bbb5ee'
p181
sg83
S'f1ec38f0764a772f7e024865ddedfdda'
p182
sg85
(lp183
g148
ag155
ag162
ag61
asg87
Nsba(ibclass
BBasicBlock
p184
(dp185
g12
Nsg13
(lp186
(ibclass
BInstr
p187
(dp188
g2
Nsg17
S'CMP     R2, #5'
p189
sg19
S'050052e3'
p190
sg21
Vcmp r2, #5
p191
sg5
L952796L
sg6
Nsg23
S'CMP'
p192
sg25
S'0xe89dcL'
p193
sg27
Nsba(ibclass
BInstr
p194
(dp195
g2
Nsg17
S'MOVEQ   a, R3'
p196
sg19
S'0300a001'
p197
sg21
Vmoveq r0, r3
p198
sg5
L952800L
sg6
Nsg23
S'MOV'
p199
sg25
S'0xe89e0L'
p200
sg27
Nsba(ibclass
BInstr
p201
(dp202
g2
Nsg17
S'BEQ     loc_E89C4'
p203
sg19
S'f6ffff0a'
p204
sg21
Vbeq #0xffffffe0
p205
sg5
L952804L
sg6
Nsg23
g61
sg25
S'0xe89e4L'
p206
sg27
Nsbasg63
(lp207
S'CMP R2, #5'
p208
aS'MOVEQ a, R3'
p209
aS'BEQ func'
p210
asg71
Nsg5
S'0xe89dcL'
p211
sg73
(lp212
S'0xe89ccL'
p213
asg6
Nsg75
(lp214
S'0xe89c4L'
p215
aS'0xe89e8L'
p216
asg79
Nsg80
Nsg81
S'e8df9ba4cde3984b4ab59d5bb6791e02'
p217
sg83
S'840042913a6a8a975a49b41db598851e'
p218
sg85
(lp219
g192
ag199
ag61
asg87
Nsba(ibclass
BBasicBlock
p220
(dp221
g12
Nsg13
(lp222
(ibclass
BInstr
p223
(dp224
g2
Nsg17
S'CMP     R2, #6'
p225
sg19
S'060052e3'
p226
sg21
Vcmp r2, #6
p227
sg5
L952808L
sg6
Nsg23
S'CMP'
p228
sg25
S'0xe89e8L'
p229
sg27
Nsba(ibclass
BInstr
p230
(dp231
g2
Nsg17
S'BEQ     loc_E8A08'
p232
sg19
S'0500000a'
p233
sg21
Vbeq #0x1c
p234
sg5
L952812L
sg6
Nsg23
g61
sg25
S'0xe89ecL'
p235
sg27
Nsbasg63
(lp236
S'CMP R2, #6'
p237
aS'BEQ func'
p238
asg71
Nsg5
S'0xe89e8L'
p239
sg73
(lp240
S'0xe89dcL'
p241
asg6
Nsg75
(lp242
S'0xe89f0L'
p243
aS'0xe8a08L'
p244
asg79
Nsg80
Nsg81
S'c78fd620a449e3c979d3f3ec12d4ee88'
p245
sg83
S'bf996a57b54cd35925846ee15ad44def'
p246
sg85
(lp247
g228
ag61
asg87
Nsba(ibclass
BBasicBlock
p248
(dp249
g12
Nsg13
(lp250
(ibclass
BInstr
p251
(dp252
g2
Nsg17
S'CMP     R2, #1'
p253
sg19
S'010052e3'
p254
sg21
Vcmp r2, #1
p255
sg5
L952816L
sg6
Nsg23
S'CMP'
p256
sg25
S'0xe89f0L'
p257
sg27
Nsba(ibclass
BInstr
p258
(dp259
g2
Nsg17
S'BEQ     loc_E8A18'
p260
sg19
S'0700000a'
p261
sg21
Vbeq #0x24
p262
sg5
L952820L
sg6
Nsg23
g61
sg25
S'0xe89f4L'
p263
sg27
Nsbasg63
(lp264
S'CMP R2, #1'
p265
aS'BEQ func'
p266
asg71
Nsg5
S'0xe89f0L'
p267
sg73
(lp268
S'0xe89e8L'
p269
asg6
Nsg75
(lp270
S'0xe89f8L'
p271
aS'0xe8a18L'
p272
asg79
Nsg80
Nsg81
S'c78fd620a449e3c979d3f3ec12d4ee88'
p273
sg83
S'cad020cd3fd8a05134c04b5038925830'
p274
sg85
(lp275
g256
ag61
asg87
Nsba(ibclass
BBasicBlock
p276
(dp277
g12
Nsg13
(lp278
(ibclass
BInstr
p279
(dp280
g2
Nsg17
S'LDR     b, [b,#4]       ; b'
p281
sg19
S'041091e5'
p282
sg21
Vldr r1, [r1, #4]
p283
sg5
L952824L
sg6
Nsg23
S'LDR'
p284
sg25
S'0xe89f8L'
p285
sg27
Nsba(ibclass
BInstr
p286
(dp287
g2
Nsg17
S'LDR     result, [result,#4]; a'
p288
sg19
S'040090e5'
p289
sg21
Vldr r0, [r0, #4]
p290
sg5
L952828L
sg6
Nsg23
S'LDR'
p291
sg25
S'0xe89fcL'
p292
sg27
Nsba(ibclass
BInstr
p293
(dp294
g2
Nsg17
S'BL      ASN1_STRING_cmp'
p295
sg19
S'945b00eb'
p296
sg21
Vbl #0x16e58
p297
sg5
L952832L
sg6
Nsg23
S'BL'
p298
sg25
S'0xe8a00L'
p299
sg27
Nsba(ibclass
BInstr
p300
(dp301
g2
Nsg17
S'B       loc_E89C4'
p302
sg19
S'eeffffea'
p303
sg21
Vb #0xffffffc0
p304
sg5
L952836L
sg6
Nsg23
g61
sg25
S'0xe8a04L'
p305
sg27
Nsbasg63
(lp306
S'LDR b, mem'
p307
aS'LDR result, mem'
p308
aS'BL ASN1_STRING_cmp'
p309
aS'B func'
p310
asg71
Nsg5
S'0xe89f8L'
p311
sg73
(lp312
S'0xe89f0L'
p313
asg6
Nsg75
(lp314
S'0xe89c4L'
p315
asg79
Nsg80
Nsg81
S'18f4ca333a91fd107b9d96330593953c'
p316
sg83
S'38d94125199501fe193e418a80c95b66'
p317
sg85
(lp318
g284
ag291
ag298
ag61
asg87
Nsba(ibclass
BBasicBlock
p319
(dp320
g12
Nsg13
(lp321
(ibclass
BInstr
p322
(dp323
g2
Nsg17
S'LDR     b, [b,#4]       ; b'
p324
sg19
S'041091e5'
p325
sg21
Vldr r1, [r1, #4]
p326
sg5
L952840L
sg6
Nsg23
S'LDR'
p327
sg25
S'0xe8a08L'
p328
sg27
Nsba(ibclass
BInstr
p329
(dp330
g2
Nsg17
S'LDR     result, [result,#4]; a'
p331
sg19
S'040090e5'
p332
sg21
Vldr r0, [r0, #4]
p333
sg5
L952844L
sg6
Nsg23
S'LDR'
p334
sg25
S'0xe8a0cL'
p335
sg27
Nsba(ibclass
BInstr
p336
(dp337
g2
Nsg17
S'BL      OBJ_cmp'
p338
sg19
S'4294fdeb'
p339
sg21
Vbl #0xfff65110
p340
sg5
L952848L
sg6
Nsg23
S'BL'
p341
sg25
S'0xe8a10L'
p342
sg27
Nsba(ibclass
BInstr
p343
(dp344
g2
Nsg17
S'B       loc_E89C4'
p345
sg19
S'eaffffea'
p346
sg21
Vb #0xffffffb0
p347
sg5
L952852L
sg6
Nsg23
g61
sg25
S'0xe8a14L'
p348
sg27
Nsbasg63
(lp349
S'LDR b, mem'
p350
aS'LDR result, mem'
p351
aS'BL OBJ_cmp'
p352
aS'B func'
p353
asg71
Nsg5
S'0xe8a08L'
p354
sg73
(lp355
S'0xe89e8L'
p356
asg6
Nsg75
(lp357
S'0xe89c4L'
p358
asg79
Nsg80
Nsg81
S'18f4ca333a91fd107b9d96330593953c'
p359
sg83
S'1529dd7abe2e8c9dd111e65325e42862'
p360
sg85
(lp361
g327
ag334
ag341
ag61
asg87
Nsba(ibclass
BBasicBlock
p362
(dp363
g12
Nsg13
(lp364
(ibclass
BInstr
p365
(dp366
g2
Nsg17
S'LDR     result, [result,#4]'
p367
sg19
S'040090e5'
p368
sg21
Vldr r0, [r0, #4]
p369
sg5
L952856L
sg6
Nsg23
S'LDR'
p370
sg25
S'0xe8a18L'
p371
sg27
Nsba(ibclass
BInstr
p372
(dp373
g2
Nsg17
S'LDR     R3, [b,#4]'
p374
sg19
S'043091e5'
p375
sg21
Vldr r3, [r1, #4]
p376
sg5
L952860L
sg6
Nsg23
S'LDR'
p377
sg25
S'0xe8a1cL'
p378
sg27
Nsba(ibclass
BInstr
p379
(dp380
g2
Nsg17
S'RSB     a, R3, a'
p381
sg19
S'000063e0'
p382
sg21
Vrsb r0, r3, r0
p383
sg5
L952864L
sg6
Nsg23
S'RSB'
p384
sg25
S'0xe8a20L'
p385
sg27
Nsba(ibclass
BInstr
p386
(dp387
g2
Nsg17
S'B       loc_E89C4'
p388
sg19
S'e6ffffea'
p389
sg21
Vb #0xffffffa0
p390
sg5
L952868L
sg6
Nsg23
g61
sg25
S'0xe8a24L'
p391
sg27
Nsbasg63
(lp392
S'LDR result, mem'
p393
aS'LDR R3, mem'
p394
aS'RSB a, R3, a'
p395
aS'B func'
p396
asg71
Nsg5
S'0xe8a18L'
p397
sg73
(lp398
S'0xe89f0L'
p399
asg6
Nsg75
(lp400
S'0xe89c4L'
p401
asg79
Nsg80
Nsg81
S'065adad483684e34e753ee25e81c9a76'
p402
sg83
S'ac499243da1f4943a7661d294582e49f'
p403
sg85
(lp404
g370
ag377
ag384
ag61
asg87
Nsbasb.