(ibclass
BFunc
p0
(dp1
S'hash'
p2
NsS'name'
p3
S'PKCS7_ctrl'
p4
sS'start_address'
p5
L1219808L
sS'flag'
p6
NsS'program'
p7
NsS'bbs'
p8
(lp9
(ibclass
BBasicBlock
p10
(dp11
S'function'
p12
NsS'binstrs'
p13
(lp14
(ibclass
BInstr
p15
(dp16
g2
NsS'disasm'
p17
S'STMFD   SP!, {R4-R7,LR}'
p18
sS'bytes'
p19
S'f0402de9'
p20
sS'disasm_striped'
p21
Vpush {r4, r5, r6, r7, lr}
p22
sg5
L1219808L
sg6
NsS'mnem'
p23
S'STM'
p24
sS'address'
p25
S'0x129ce0L'
p26
sS'basicblock'
p27
Nsba(ibclass
BInstr
p28
(dp29
g2
Nsg17
S'MOV     R6, cmd'
p30
sg19
S'0160a0e1'
p31
sg21
Vmov r6, r1
p32
sg5
L1219812L
sg6
Nsg23
S'MOV'
p33
sg25
S'0x129ce4L'
p34
sg27
Nsba(ibclass
BInstr
p35
(dp36
g2
Nsg17
S'SUB     SP, SP, #0xC'
p37
sg19
S'0cd04de2'
p38
sg21
Vsub sp, sp, #0xc
p39
sg5
L1219816L
sg6
Nsg23
S'SUB'
p40
sg25
S'0x129ce8L'
p41
sg27
Nsba(ibclass
BInstr
p42
(dp43
g2
Nsg17
S'MOV     R5, p7'
p44
sg19
S'0050a0e1'
p45
sg21
Vmov r5, r0
p46
sg5
L1219820L
sg6
Nsg23
S'MOV'
p47
sg25
S'0x129cecL'
p48
sg27
Nsba(ibclass
BInstr
p49
(dp50
g2
Nsg17
S'LDR     R4, =($_GLOBAL_OFFSET_TABLE_ - 0x129D0C)'
p51
sg19
S'28419fe5'
p52
sg21
Vldr r4, [pc, #0x128]
p53
sg5
L1219824L
sg6
Nsg23
S'LDR'
p54
sg25
S'0x129cf0L'
p55
sg27
Nsba(ibclass
BInstr
p56
(dp57
g2
Nsg17
S'LDR     p7, [p7,#0x10]  ; a'
p58
sg19
S'100090e5'
p59
sg21
Vldr r0, [r0, #0x10]
p60
sg5
L1219828L
sg6
Nsg23
S'LDR'
p61
sg25
S'0x129cf4L'
p62
sg27
Nsba(ibclass
BInstr
p63
(dp64
g2
Nsg17
S'MOV     R7, larg'
p65
sg19
S'0270a0e1'
p66
sg21
Vmov r7, r2
p67
sg5
L1219832L
sg6
Nsg23
S'MOV'
p68
sg25
S'0x129cf8L'
p69
sg27
Nsba(ibclass
BInstr
p70
(dp71
g2
Nsg17
S'BL      OBJ_obj2nid'
p72
sg19
S'5d8bfceb'
p73
sg21
Vbl #0xfff22d7c
p74
sg5
L1219836L
sg6
Nsg23
S'BL'
p75
sg25
S'0x129cfcL'
p76
sg27
Nsba(ibclass
BInstr
p77
(dp78
g2
Nsg17
S'CMP     cmd, #1'
p79
sg19
S'010056e3'
p80
sg21
Vcmp r6, #1
p81
sg5
L1219840L
sg6
Nsg23
S'CMP'
p82
sg25
S'0x129d00L'
p83
sg27
Nsba(ibclass
BInstr
p84
(dp85
g2
Nsg17
S'ADD     R4, PC, R4 ; $_GLOBAL_OFFSET_TABLE_'
p86
sg19
S'04408fe0'
p87
sg21
Vadd r4, pc, r4
p88
sg5
L1219844L
sg6
Nsg23
S'ADD'
p89
sg25
S'0x129d04L'
p90
sg27
Nsba(ibclass
BInstr
p91
(dp92
g2
Nsg17
S'BEQ     loc_129D44'
p93
sg19
S'0d00000a'
p94
sg21
Vbeq #0x3c
p95
sg5
L1219848L
sg6
Nsg23
S'B'
p96
sg25
S'0x129d08L'
p97
sg27
NsbasS'disasm_list'
p98
(lp99
S'STMFD SP!, {R4-R7,LR}'
p100
aS'MOV R6, cmd'
p101
aS'SUB SP, SP, #0xC'
p102
aS'MOV R5, p7'
p103
aS'LDR R4, =($_GLOBAL_OFFSET_TABLE_ - 0x129D0C)'
p104
aS'LDR p7, mem'
p105
aS'MOV R7, larg'
p106
aS'BL OBJ_obj2nid'
p107
aS'CMP cmd, #1'
p108
aS'ADD R4, PC, R4'
p109
aS'BEQ func'
p110
asS'end_address'
p111
Nsg5
S'0x129ce0L'
p112
sS'preds'
p113
(lp114
sg6
NsS'succs'
p115
(lp116
S'0x129d0cL'
p117
aS'0x129d44L'
p118
asS'hash_v3'
p119
NsS'flag_v2'
p120
NsS'hash_v1'
p121
S'e0d65c06cb7ed92956fa0262646ad406'
p122
sS'hash_v2'
p123
S'46ff4a9a9481263c3409ffa53ee1cccf'
p124
sS'mnen_list'
p125
(lp126
g24
ag33
ag40
ag47
ag54
ag61
ag68
ag75
ag82
ag89
ag96
asS'neighbour_disasm_list'
p127
Nsba(ibclass
BBasicBlock
p128
(dp129
g12
Nsg13
(lp130
(ibclass
BInstr
p131
(dp132
g2
Nsg17
S'CMP     cmd, #2'
p133
sg19
S'020056e3'
p134
sg21
Vcmp r6, #2
p135
sg5
L1219852L
sg6
Nsg23
S'CMP'
p136
sg25
S'0x129d0cL'
p137
sg27
Nsba(ibclass
BInstr
p138
(dp139
g2
Nsg17
S'BEQ     loc_129D60'
p140
sg19
S'1200000a'
p141
sg21
Vbeq #0x50
p142
sg5
L1219856L
sg6
Nsg23
g96
sg25
S'0x129d10L'
p143
sg27
Nsbasg98
(lp144
S'CMP cmd, #2'
p145
aS'BEQ func'
p146
asg111
Nsg5
S'0x129d0cL'
p147
sg113
(lp148
S'0x129ce0L'
p149
asg6
Nsg115
(lp150
S'0x129d14L'
p151
aS'0x129d60L'
p152
asg119
Nsg120
Nsg121
S'c78fd620a449e3c979d3f3ec12d4ee88'
p153
sg123
S'71ad2dd37167d57f0d8c0f4fc942f439'
p154
sg125
(lp155
g136
ag96
asg127
Nsba(ibclass
BBasicBlock
p156
(dp157
g12
Nsg13
(lp158
(ibclass
BInstr
p159
(dp160
g2
Nsg17
S'LDR     R3, =(aPk7_lib_c - 0x18F000)'
p161
sg19
S'08319fe5'
p162
sg21
Vldr r3, [pc, #0x108]
p163
sg5
L1219860L
sg6
Nsg23
S'LDR'
p164
sg25
S'0x129d14L'
p165
sg27
Nsba(ibclass
BInstr
p166
(dp167
g2
Nsg17
S'MOV     R0, #0x21       ; lib'
p168
sg19
S'2100a0e3'
p169
sg21
Vmov r0, #0x21
p170
sg5
L1219864L
sg6
Nsg23
S'MOV'
p171
sg25
S'0x129d18L'
p172
sg27
Nsba(ibclass
BInstr
p173
(dp174
g2
Nsg17
S'MOV     R12, #0x69'
p175
sg19
S'69c0a0e3'
p176
sg21
Vmov ip, #0x69
p177
sg5
L1219868L
sg6
Nsg23
S'MOV'
p178
sg25
S'0x129d1cL'
p179
sg27
Nsba(ibclass
BInstr
p180
(dp181
g2
Nsg17
S'ADD     R3, R4, R3      ; "pk7_lib.c"'
p182
sg19
S'033084e0'
p183
sg21
Vadd r3, r4, r3
p184
sg5
L1219872L
sg6
Nsg23
S'ADD'
p185
sg25
S'0x129d20L'
p186
sg27
Nsba(ibclass
BInstr
p187
(dp188
g2
Nsg17
S'MOV     R1, #0x68       ; func'
p189
sg19
S'6810a0e3'
p190
sg21
Vmov r1, #0x68
p191
sg5
L1219876L
sg6
Nsg23
S'MOV'
p192
sg25
S'0x129d24L'
p193
sg27
Nsba(ibclass
BInstr
p194
(dp195
g2
Nsg17
S'MOV     R2, #0x6E       ; reason'
p196
sg19
S'6e20a0e3'
p197
sg21
Vmov r2, #0x6e
p198
sg5
L1219880L
sg6
Nsg23
S'MOV'
p199
sg25
S'0x129d28L'
p200
sg27
Nsba(ibclass
BInstr
p201
(dp202
g2
Nsg17
S'STR     R12, [SP,#0x20+line]; line'
p203
sg19
S'00c08de5'
p204
sg21
Vstr ip, [sp]
p205
sg5
L1219884L
sg6
Nsg23
S'STR'
p206
sg25
S'0x129d2cL'
p207
sg27
Nsba(ibclass
BInstr
p208
(dp209
g2
Nsg17
S'BL      ERR_put_error'
p210
sg19
S'26b1feeb'
p211
sg21
Vbl #0xfffac4a0
p212
sg5
L1219888L
sg6
Nsg23
S'BL'
p213
sg25
S'0x129d30L'
p214
sg27
Nsba(ibclass
BInstr
p215
(dp216
g2
Nsg17
S'MOV     R0, #0'
p217
sg19
S'0000a0e3'
p218
sg21
Vmov r0, #0
p219
sg5
L1219892L
sg6
Nsg23
S'MOV'
p220
sg25
S'0x129d34L'
p221
sg27
Nsbasg98
(lp222
S'LDR R3, =(aPk7_lib_c - 0x18F000)'
p223
aS'MOV R0, #0x21'
p224
aS'MOV R12, #0x69'
p225
aS'ADD R3, R4, R3'
p226
aS'MOV R1, #0x68'
p227
aS'MOV R2, #0x6E'
p228
aS'STR R12, mem'
p229
aS'BL ERR_put_error'
p230
aS'MOV R0, #0'
p231
asg111
Nsg5
S'0x129d14L'
p232
sg113
(lp233
S'0x129d0cL'
p234
asg6
Nsg115
(lp235
S'0x129d38L'
p236
asg119
Nsg120
Nsg121
S'30d30141dcbddf8491d7e79dc3d492f0'
p237
sg123
S'5414654241d4434e9a5aac4cdf165cdd'
p238
sg125
(lp239
g164
ag171
ag178
ag185
ag192
ag199
ag206
ag213
ag220
asg127
Nsba(ibclass
BBasicBlock
p240
(dp241
g12
Nsg13
(lp242
(ibclass
BInstr
p243
(dp244
g2
Nsg17
S'ADD     SP, SP, #0xC'
p245
sg19
S'0cd08de2'
p246
sg21
Vadd sp, sp, #0xc
p247
sg5
L1219896L
sg6
Nsg23
S'ADD'
p248
sg25
S'0x129d38L'
p249
sg27
Nsba(ibclass
BInstr
p250
(dp251
g2
Nsg17
S'LDMFD   SP!, {R4-larg,LR}'
p252
sg19
S'f040bde8'
p253
sg21
Vpop {r4, r5, r6, r7, lr}
p254
sg5
L1219900L
sg6
Nsg23
S'LDM'
p255
sg25
S'0x129d3cL'
p256
sg27
Nsba(ibclass
BInstr
p257
(dp258
g2
Nsg17
S'BX      LR'
p259
sg19
S'1eff2fe1'
p260
sg21
Vbx lr
p261
sg5
L1219904L
sg6
Nsg23
S'BX'
p262
sg25
S'0x129d40L'
p263
sg27
Nsbasg98
(lp264
S'ADD SP, SP, #0xC'
p265
aS'LDMFD SP!, {R4-larg,LR}'
p266
aS'BX LR'
p267
asg111
Nsg5
S'0x129d38L'
p268
sg113
(lp269
S'0x129d14L'
p270
aS'0x129d58L'
p271
aS'0x129d88L'
p272
aS'0x129d90L'
p273
aS'0x129db8L'
p274
aS'0x129df8L'
p275
asg6
Nsg115
(lp276
sg119
Nsg120
Nsg121
S'fb02e3799554a1c259ca4724e19b2b8e'
p277
sg123
S'1041fff4b1cf2e3d6632e8a86243d965'
p278
sg125
(lp279
g248
ag255
ag262
asg127
Nsba(ibclass
BBasicBlock
p280
(dp281
g12
Nsg13
(lp282
(ibclass
BInstr
p283
(dp284
g2
Nsg17
S'CMP     R0, #0x16'
p285
sg19
S'160050e3'
p286
sg21
Vcmp r0, #0x16
p287
sg5
L1219908L
sg6
Nsg23
S'CMP'
p288
sg25
S'0x129d44L'
p289
sg27
Nsba(ibclass
BInstr
p290
(dp291
g2
Nsg17
S'BNE     loc_129D90'
p292
sg19
S'1000001a'
p293
sg21
Vbne #0x48
p294
sg5
L1219912L
sg6
Nsg23
g96
sg25
S'0x129d48L'
p295
sg27
Nsbasg98
(lp296
S'CMP R0, #0x16'
p297
aS'BNE func'
p298
asg111
Nsg5
S'0x129d44L'
p299
sg113
(lp300
S'0x129ce0L'
p301
asg6
Nsg115
(lp302
S'0x129d4cL'
p303
aS'0x129d90L'
p304
asg119
Nsg120
Nsg121
S'c78fd620a449e3c979d3f3ec12d4ee88'
p305
sg123
S'4156a5814e5236979df25c938e8cfd0d'
p306
sg125
(lp307
g288
ag96
asg127
Nsba(ibclass
BBasicBlock
p308
(dp309
g12
Nsg13
(lp310
(ibclass
BInstr
p311
(dp312
g2
Nsg17
S'CMP     larg, #0'
p313
sg19
S'000057e3'
p314
sg21
Vcmp r7, #0
p315
sg5
L1219916L
sg6
Nsg23
S'CMP'
p316
sg25
S'0x129d4cL'
p317
sg27
Nsba(ibclass
BInstr
p318
(dp319
g2
Nsg17
S'STR     larg, [p7,#0xC]'
p320
sg19
S'0c7085e5'
p321
sg21
Vstr r7, [r5, #0xc]
p322
sg5
L1219920L
sg6
Nsg23
S'STR'
p323
sg25
S'0x129d50L'
p324
sg27
Nsba(ibclass
BInstr
p325
(dp326
g2
Nsg17
S'BNE     loc_129DE0'
p327
sg19
S'2100001a'
p328
sg21
Vbne #0x8c
p329
sg5
L1219924L
sg6
Nsg23
g96
sg25
S'0x129d54L'
p330
sg27
Nsbasg98
(lp331
S'CMP larg, #0'
p332
aS'STR larg, mem'
p333
aS'BNE func'
p334
asg111
Nsg5
S'0x129d4cL'
p335
sg113
(lp336
S'0x129d44L'
p337
asg6
Nsg115
(lp338
S'0x129d58L'
p339
aS'0x129de0L'
p340
asg119
Nsg120
Nsg121
S'9c18586f47b8d66ac181de2d058ff8aa'
p341
sg123
S'15ea9f72c556aa2c9da995a20646ef0b'
p342
sg125
(lp343
g316
ag323
ag96
asg127
Nsba(ibclass
BBasicBlock
p344
(dp345
g12
Nsg13
(lp346
(ibclass
BInstr
p347
(dp348
g2
Nsg17
S'MOV     nid, larg'
p349
sg19
S'0700a0e1'
p350
sg21
Vmov r0, r7
p351
sg5
L1219928L
sg6
Nsg23
S'MOV'
p352
sg25
S'0x129d58L'
p353
sg27
Nsba(ibclass
BInstr
p354
(dp355
g2
Nsg17
S'B       loc_129D38'
p356
sg19
S'f5ffffea'
p357
sg21
Vb #0xffffffdc
p358
sg5
L1219932L
sg6
Nsg23
g96
sg25
S'0x129d5cL'
p359
sg27
Nsbasg98
(lp360
S'MOV nid, larg'
p361
aS'B func'
p362
asg111
Nsg5
S'0x129d58L'
p363
sg113
(lp364
S'0x129d4cL'
p365
aS'0x129de0L'
p366
asg6
Nsg115
(lp367
S'0x129d38L'
p368
asg119
Nsg120
Nsg121
S'b6c4e95ccfe77a95e4cf2019dd3d5574'
p369
sg123
S'19f897b073b433b4b50445b170521dbb'
p370
sg125
(lp371
g352
ag96
asg127
Nsba(ibclass
BBasicBlock
p372
(dp373
g12
Nsg13
(lp374
(ibclass
BInstr
p375
(dp376
g2
Nsg17
S'CMP     R0, #0x16'
p377
sg19
S'160050e3'
p378
sg21
Vcmp r0, #0x16
p379
sg5
L1219936L
sg6
Nsg23
S'CMP'
p380
sg25
S'0x129d60L'
p381
sg27
Nsba(ibclass
BInstr
p382
(dp383
g2
Nsg17
S'BNE     loc_129DB8'
p384
sg19
S'1300001a'
p385
sg21
Vbne #0x54
p386
sg5
L1219940L
sg6
Nsg23
g96
sg25
S'0x129d64L'
p387
sg27
Nsbasg98
(lp388
S'CMP R0, #0x16'
p389
aS'BNE func'
p390
asg111
Nsg5
S'0x129d60L'
p391
sg113
(lp392
S'0x129d0cL'
p393
asg6
Nsg115
(lp394
S'0x129d68L'
p395
aS'0x129db8L'
p396
asg119
Nsg120
Nsg121
S'c78fd620a449e3c979d3f3ec12d4ee88'
p397
sg123
S'4156a5814e5236979df25c938e8cfd0d'
p398
sg125
(lp399
g380
ag96
asg127
Nsba(ibclass
BBasicBlock
p400
(dp401
g12
Nsg13
(lp402
(ibclass
BInstr
p403
(dp404
g2
Nsg17
S'LDR     R3, [p7,#0x14]'
p405
sg19
S'143095e5'
p406
sg21
Vldr r3, [r5, #0x14]
p407
sg5
L1219944L
sg6
Nsg23
S'LDR'
p408
sg25
S'0x129d68L'
p409
sg27
Nsba(ibclass
BInstr
p410
(dp411
g2
Nsg17
S'CMP     R3, #0'
p412
sg19
S'000053e3'
p413
sg21
Vcmp r3, #0
p414
sg5
L1219948L
sg6
Nsg23
S'CMP'
p415
sg25
S'0x129d6cL'
p416
sg27
Nsba(ibclass
BInstr
p417
(dp418
g2
Nsg17
S'MOVEQ   nid, #1'
p419
sg19
S'0100a003'
p420
sg21
Vmoveq r0, #1
p421
sg5
L1219952L
sg6
Nsg23
S'MOV'
p422
sg25
S'0x129d70L'
p423
sg27
Nsba(ibclass
BInstr
p424
(dp425
g2
Nsg17
S'BEQ     loc_129D88'
p426
sg19
S'0300000a'
p427
sg21
Vbeq #0x14
p428
sg5
L1219956L
sg6
Nsg23
g96
sg25
S'0x129d74L'
p429
sg27
Nsbasg98
(lp430
S'LDR R3, mem'
p431
aS'CMP R3, #0'
p432
aS'MOVEQ nid, #1'
p433
aS'BEQ func'
p434
asg111
Nsg5
S'0x129d68L'
p435
sg113
(lp436
S'0x129d60L'
p437
asg6
Nsg115
(lp438
S'0x129d78L'
p439
aS'0x129d88L'
p440
asg119
Nsg120
Nsg121
S'f0a84dd7947e5c267432e015f529de0e'
p441
sg123
S'65c1ad9c0d25c54a00ed49011701ed7a'
p442
sg125
(lp443
g408
ag415
ag422
ag96
asg127
Nsba(ibclass
BBasicBlock
p444
(dp445
g12
Nsg13
(lp446
(ibclass
BInstr
p447
(dp448
g2
Nsg17
S'LDR     R3, [R3,#0x14]'
p449
sg19
S'143093e5'
p450
sg21
Vldr r3, [r3, #0x14]
p451
sg5
L1219960L
sg6
Nsg23
S'LDR'
p452
sg25
S'0x129d78L'
p453
sg27
Nsba(ibclass
BInstr
p454
(dp455
g2
Nsg17
S'LDR     ret, [R3,#0x14]'
p456
sg19
S'140093e5'
p457
sg21
Vldr r0, [r3, #0x14]
p458
sg5
L1219964L
sg6
Nsg23
S'LDR'
p459
sg25
S'0x129d7cL'
p460
sg27
Nsba(ibclass
BInstr
p461
(dp462
g2
Nsg17
S'RSBS    R0, R0, #1'
p463
sg19
S'010070e2'
p464
sg21
Vrsbs r0, r0, #1
p465
sg5
L1219968L
sg6
Nsg23
S'RSB'
p466
sg25
S'0x129d80L'
p467
sg27
Nsba(ibclass
BInstr
p468
(dp469
g2
Nsg17
S'MOVCC   R0, #0'
p470
sg19
S'0000a033'
p471
sg21
Vmovlo r0, #0
p472
sg5
L1219972L
sg6
Nsg23
S'MOV'
p473
sg25
S'0x129d84L'
p474
sg27
Nsbasg98
(lp475
S'LDR R3, mem'
p476
aS'LDR ret, mem'
p477
aS'RSBS R0, R0, #1'
p478
aS'MOVCC R0, #0'
p479
asg111
Nsg5
S'0x129d78L'
p480
sg113
(lp481
S'0x129d68L'
p482
asg6
Nsg115
(lp483
S'0x129d88L'
p484
asg119
Nsg120
Nsg121
S'db2487d6ca8df8931b32c16cbca6b46e'
p485
sg123
S'6a64993bd1429ca0c585b7203b922b7c'
p486
sg125
(lp487
g452
ag459
ag466
ag473
asg127
Nsba(ibclass
BBasicBlock
p488
(dp489
g12
Nsg13
(lp490
(ibclass
BInstr
p491
(dp492
g2
Nsg17
S'STR     ret, [p7,#0xC]'
p493
sg19
S'0c0085e5'
p494
sg21
Vstr r0, [r5, #0xc]
p495
sg5
L1219976L
sg6
Nsg23
S'STR'
p496
sg25
S'0x129d88L'
p497
sg27
Nsba(ibclass
BInstr
p498
(dp499
g2
Nsg17
S'B       loc_129D38'
p500
sg19
S'e9ffffea'
p501
sg21
Vb #0xffffffac
p502
sg5
L1219980L
sg6
Nsg23
g96
sg25
S'0x129d8cL'
p503
sg27
Nsbasg98
(lp504
S'STR ret, mem'
p505
aS'B func'
p506
asg111
Nsg5
S'0x129d88L'
p507
sg113
(lp508
S'0x129d68L'
p509
aS'0x129d78L'
p510
asg6
Nsg115
(lp511
S'0x129d38L'
p512
asg119
Nsg120
Nsg121
S'bb4d1d0d0e01d20d3b7cbdf52fe2caa6'
p513
sg123
S'76e7dc1c569e5b76a5e0c5fe05de1636'
p514
sg125
(lp515
g496
ag96
asg127
Nsba(ibclass
BBasicBlock
p516
(dp517
g12
Nsg13
(lp518
(ibclass
BInstr
p519
(dp520
g2
Nsg17
S'LDR     R3, =(aPk7_lib_c - 0x18F000)'
p521
sg19
S'8c309fe5'
p522
sg21
Vldr r3, [pc, #0x8c]
p523
sg5
L1219984L
sg6
Nsg23
S'LDR'
p524
sg25
S'0x129d90L'
p525
sg27
Nsba(ibclass
BInstr
p526
(dp527
g2
Nsg17
S'MOV     R1, #0x68       ; func'
p528
sg19
S'6810a0e3'
p529
sg21
Vmov r1, #0x68
p530
sg5
L1219988L
sg6
Nsg23
S'MOV'
p531
sg25
S'0x129d94L'
p532
sg27
Nsba(ibclass
BInstr
p533
(dp534
g2
Nsg17
S'MOV     nid, #0x21      ; lib'
p535
sg19
S'2100a0e3'
p536
sg21
Vmov r0, #0x21
p537
sg5
L1219992L
sg6
Nsg23
S'MOV'
p538
sg25
S'0x129d98L'
p539
sg27
Nsba(ibclass
BInstr
p540
(dp541
g2
Nsg17
S'MOV     R12, #0x55'
p542
sg19
S'55c0a0e3'
p543
sg21
Vmov ip, #0x55
p544
sg5
L1219996L
sg6
Nsg23
S'MOV'
p545
sg25
S'0x129d9cL'
p546
sg27
Nsba(ibclass
BInstr
p547
(dp548
g2
Nsg17
S'ADD     R3, R4, R3      ; "pk7_lib.c"'
p549
sg19
S'033084e0'
p550
sg21
Vadd r3, r4, r3
p551
sg5
L1220000L
sg6
Nsg23
S'ADD'
p552
sg25
S'0x129da0L'
p553
sg27
Nsba(ibclass
BInstr
p554
(dp555
g2
Nsg17
S'MOV     R2, R1          ; reason'
p556
sg19
S'0120a0e1'
p557
sg21
Vmov r2, r1
p558
sg5
L1220004L
sg6
Nsg23
S'MOV'
p559
sg25
S'0x129da4L'
p560
sg27
Nsba(ibclass
BInstr
p561
(dp562
g2
Nsg17
S'STR     R12, [SP,#0x20+line]; line'
p563
sg19
S'00c08de5'
p564
sg21
Vstr ip, [sp]
p565
sg5
L1220008L
sg6
Nsg23
S'STR'
p566
sg25
S'0x129da8L'
p567
sg27
Nsba(ibclass
BInstr
p568
(dp569
g2
Nsg17
S'BL      ERR_put_error'
p570
sg19
S'07b1feeb'
p571
sg21
Vbl #0xfffac424
p572
sg5
L1220012L
sg6
Nsg23
S'BL'
p573
sg25
S'0x129dacL'
p574
sg27
Nsba(ibclass
BInstr
p575
(dp576
g2
Nsg17
S'MOV     R0, #0'
p577
sg19
S'0000a0e3'
p578
sg21
Vmov r0, #0
p579
sg5
L1220016L
sg6
Nsg23
S'MOV'
p580
sg25
S'0x129db0L'
p581
sg27
Nsba(ibclass
BInstr
p582
(dp583
g2
Nsg17
S'B       loc_129D38'
p584
sg19
S'dfffffea'
p585
sg21
Vb #0xffffff84
p586
sg5
L1220020L
sg6
Nsg23
g96
sg25
S'0x129db4L'
p587
sg27
Nsbasg98
(lp588
S'LDR R3, =(aPk7_lib_c - 0x18F000)'
p589
aS'MOV R1, #0x68'
p590
aS'MOV nid, #0x21'
p591
aS'MOV R12, #0x55'
p592
aS'ADD R3, R4, R3'
p593
aS'MOV R2, R1'
p594
aS'STR R12, mem'
p595
aS'BL ERR_put_error'
p596
aS'MOV R0, #0'
p597
aS'B func'
p598
asg111
Nsg5
S'0x129d90L'
p599
sg113
(lp600
S'0x129d44L'
p601
asg6
Nsg115
(lp602
S'0x129d38L'
p603
asg119
Nsg120
Nsg121
S'07625b421505b3c57f5bfa0cd588ebe3'
p604
sg123
S'0eab1c7b19ffe2844ec9e6d703fe2b7a'
p605
sg125
(lp606
g524
ag531
ag538
ag545
ag552
ag559
ag566
ag573
ag580
ag96
asg127
Nsba(ibclass
BBasicBlock
p607
(dp608
g12
Nsg13
(lp609
(ibclass
BInstr
p610
(dp611
g2
Nsg17
S'LDR     R3, =(aPk7_lib_c - 0x18F000)'
p612
sg19
S'64309fe5'
p613
sg21
Vldr r3, [pc, #0x64]
p614
sg5
L1220024L
sg6
Nsg23
S'LDR'
p615
sg25
S'0x129db8L'
p616
sg27
Nsba(ibclass
BInstr
p617
(dp618
g2
Nsg17
S'MOV     R1, #0x68       ; func'
p619
sg19
S'6810a0e3'
p620
sg21
Vmov r1, #0x68
p621
sg5
L1220028L
sg6
Nsg23
S'MOV'
p622
sg25
S'0x129dbcL'
p623
sg27
Nsba(ibclass
BInstr
p624
(dp625
g2
Nsg17
S'MOV     nid, #0x21      ; lib'
p626
sg19
S'2100a0e3'
p627
sg21
Vmov r0, #0x21
p628
sg5
L1220032L
sg6
Nsg23
S'MOV'
p629
sg25
S'0x129dc0L'
p630
sg27
Nsba(ibclass
BInstr
p631
(dp632
g2
Nsg17
S'MOV     R12, #0x63'
p633
sg19
S'63c0a0e3'
p634
sg21
Vmov ip, #0x63
p635
sg5
L1220036L
sg6
Nsg23
S'MOV'
p636
sg25
S'0x129dc4L'
p637
sg27
Nsba(ibclass
BInstr
p638
(dp639
g2
Nsg17
S'ADD     R3, R4, R3      ; "pk7_lib.c"'
p640
sg19
S'033084e0'
p641
sg21
Vadd r3, r4, r3
p642
sg5
L1220040L
sg6
Nsg23
S'ADD'
p643
sg25
S'0x129dc8L'
p644
sg27
Nsba(ibclass
BInstr
p645
(dp646
g2
Nsg17
S'MOV     R2, R1          ; reason'
p647
sg19
S'0120a0e1'
p648
sg21
Vmov r2, r1
p649
sg5
L1220044L
sg6
Nsg23
S'MOV'
p650
sg25
S'0x129dccL'
p651
sg27
Nsba(ibclass
BInstr
p652
(dp653
g2
Nsg17
S'STR     R12, [SP,#0x20+line]; line'
p654
sg19
S'00c08de5'
p655
sg21
Vstr ip, [sp]
p656
sg5
L1220048L
sg6
Nsg23
S'STR'
p657
sg25
S'0x129dd0L'
p658
sg27
Nsba(ibclass
BInstr
p659
(dp660
g2
Nsg17
S'BL      ERR_put_error'
p661
sg19
S'fdb0feeb'
p662
sg21
Vbl #0xfffac3fc
p663
sg5
L1220052L
sg6
Nsg23
S'BL'
p664
sg25
S'0x129dd4L'
p665
sg27
Nsba(ibclass
BInstr
p666
(dp667
g2
Nsg17
S'MOV     R0, #0'
p668
sg19
S'0000a0e3'
p669
sg21
Vmov r0, #0
p670
sg5
L1220056L
sg6
Nsg23
S'MOV'
p671
sg25
S'0x129dd8L'
p672
sg27
Nsba(ibclass
BInstr
p673
(dp674
g2
Nsg17
S'B       loc_129D38'
p675
sg19
S'd5ffffea'
p676
sg21
Vb #0xffffff5c
p677
sg5
L1220060L
sg6
Nsg23
g96
sg25
S'0x129ddcL'
p678
sg27
Nsbasg98
(lp679
S'LDR R3, =(aPk7_lib_c - 0x18F000)'
p680
aS'MOV R1, #0x68'
p681
aS'MOV nid, #0x21'
p682
aS'MOV R12, #0x63'
p683
aS'ADD R3, R4, R3'
p684
aS'MOV R2, R1'
p685
aS'STR R12, mem'
p686
aS'BL ERR_put_error'
p687
aS'MOV R0, #0'
p688
aS'B func'
p689
asg111
Nsg5
S'0x129db8L'
p690
sg113
(lp691
S'0x129d60L'
p692
asg6
Nsg115
(lp693
S'0x129d38L'
p694
asg119
Nsg120
Nsg121
S'07625b421505b3c57f5bfa0cd588ebe3'
p695
sg123
S'0fe9d1ea59cdfe373873c5eb067600b6'
p696
sg125
(lp697
g615
ag622
ag629
ag636
ag643
ag650
ag657
ag664
ag671
ag96
asg127
Nsba(ibclass
BBasicBlock
p698
(dp699
g12
Nsg13
(lp700
(ibclass
BInstr
p701
(dp702
g2
Nsg17
S'LDR     R3, [p7,#0x14]'
p703
sg19
S'143095e5'
p704
sg21
Vldr r3, [r5, #0x14]
p705
sg5
L1220064L
sg6
Nsg23
S'LDR'
p706
sg25
S'0x129de0L'
p707
sg27
Nsba(ibclass
BInstr
p708
(dp709
g2
Nsg17
S'LDR     R3, [R3,#0x14]'
p710
sg19
S'143093e5'
p711
sg21
Vldr r3, [r3, #0x14]
p712
sg5
L1220068L
sg6
Nsg23
S'LDR'
p713
sg25
S'0x129de4L'
p714
sg27
Nsba(ibclass
BInstr
p715
(dp716
g2
Nsg17
S'LDR     nid, [R3,#0x10] ; a'
p717
sg19
S'100093e5'
p718
sg21
Vldr r0, [r3, #0x10]
p719
sg5
L1220072L
sg6
Nsg23
S'LDR'
p720
sg25
S'0x129de8L'
p721
sg27
Nsba(ibclass
BInstr
p722
(dp723
g2
Nsg17
S'BL      OBJ_obj2nid'
p724
sg19
S'218bfceb'
p725
sg21
Vbl #0xfff22c8c
p726
sg5
L1220076L
sg6
Nsg23
S'BL'
p727
sg25
S'0x129decL'
p728
sg27
Nsba(ibclass
BInstr
p729
(dp730
g2
Nsg17
S'CMP     R0, #0x15'
p731
sg19
S'150050e3'
p732
sg21
Vcmp r0, #0x15
p733
sg5
L1220080L
sg6
Nsg23
S'CMP'
p734
sg25
S'0x129df0L'
p735
sg27
Nsba(ibclass
BInstr
p736
(dp737
g2
Nsg17
S'BNE     loc_129D58'
p738
sg19
S'd7ffff1a'
p739
sg21
Vbne #0xffffff64
p740
sg5
L1220084L
sg6
Nsg23
g96
sg25
S'0x129df4L'
p741
sg27
Nsbasg98
(lp742
S'LDR R3, mem'
p743
aS'LDR R3, mem'
p744
aS'LDR nid, mem'
p745
aS'BL OBJ_obj2nid'
p746
aS'CMP R0, #0x15'
p747
aS'BNE func'
p748
asg111
Nsg5
S'0x129de0L'
p749
sg113
(lp750
S'0x129d4cL'
p751
asg6
Nsg115
(lp752
S'0x129d58L'
p753
aS'0x129df8L'
p754
asg119
Nsg120
Nsg121
S'b74ed3259145eb9ccf6d66597cbf8daf'
p755
sg123
S'e76ef4c4ee7eebf4370a48a43c66e423'
p756
sg125
(lp757
g706
ag713
ag720
ag727
ag734
ag96
asg127
Nsba(ibclass
BBasicBlock
p758
(dp759
g12
Nsg13
(lp760
(ibclass
BInstr
p761
(dp762
g2
Nsg17
S'LDR     R3, [p7,#0x14]'
p763
sg19
S'143095e5'
p764
sg21
Vldr r3, [r5, #0x14]
p765
sg5
L1220088L
sg6
Nsg23
S'LDR'
p766
sg25
S'0x129df8L'
p767
sg27
Nsba(ibclass
BInstr
p768
(dp769
g2
Nsg17
S'LDR     R3, [R3,#0x14]'
p770
sg19
S'143093e5'
p771
sg21
Vldr r3, [r3, #0x14]
p772
sg5
L1220092L
sg6
Nsg23
S'LDR'
p773
sg25
S'0x129dfcL'
p774
sg27
Nsba(ibclass
BInstr
p775
(dp776
g2
Nsg17
S'LDR     R0, [R3,#0x14]  ; a'
p777
sg19
S'140093e5'
p778
sg21
Vldr r0, [r3, #0x14]
p779
sg5
L1220096L
sg6
Nsg23
S'LDR'
p780
sg25
S'0x129e00L'
p781
sg27
Nsba(ibclass
BInstr
p782
(dp783
g2
Nsg17
S'BL      ASN1_OCTET_STRING_free'
p784
sg19
S'0b36ffeb'
p785
sg21
Vbl #0xfffcd834
p786
sg5
L1220100L
sg6
Nsg23
S'BL'
p787
sg25
S'0x129e04L'
p788
sg27
Nsba(ibclass
BInstr
p789
(dp790
g2
Nsg17
S'LDR     R3, [p7,#0x14]'
p791
sg19
S'143095e5'
p792
sg21
Vldr r3, [r5, #0x14]
p793
sg5
L1220104L
sg6
Nsg23
S'LDR'
p794
sg25
S'0x129e08L'
p795
sg27
Nsba(ibclass
BInstr
p796
(dp797
g2
Nsg17
S'MOV     R2, #0'
p798
sg19
S'0020a0e3'
p799
sg21
Vmov r2, #0
p800
sg5
L1220108L
sg6
Nsg23
S'MOV'
p801
sg25
S'0x129e0cL'
p802
sg27
Nsba(ibclass
BInstr
p803
(dp804
g2
Nsg17
S'LDR     R3, [R3,#0x14]'
p805
sg19
S'143093e5'
p806
sg21
Vldr r3, [r3, #0x14]
p807
sg5
L1220112L
sg6
Nsg23
S'LDR'
p808
sg25
S'0x129e10L'
p809
sg27
Nsba(ibclass
BInstr
p810
(dp811
g2
Nsg17
S'MOV     R0, larg'
p812
sg19
S'0700a0e1'
p813
sg21
Vmov r0, r7
p814
sg5
L1220116L
sg6
Nsg23
S'MOV'
p815
sg25
S'0x129e14L'
p816
sg27
Nsba(ibclass
BInstr
p817
(dp818
g2
Nsg17
S'STR     R2, [R3,#0x14]'
p819
sg19
S'142083e5'
p820
sg21
Vstr r2, [r3, #0x14]
p821
sg5
L1220120L
sg6
Nsg23
S'STR'
p822
sg25
S'0x129e18L'
p823
sg27
Nsba(ibclass
BInstr
p824
(dp825
g2
Nsg17
S'B       loc_129D38'
p826
sg19
S'c5ffffea'
p827
sg21
Vb #0xffffff1c
p828
sg5
L1220124L
sg6
Nsg23
g96
sg25
S'0x129e1cL'
p829
sg27
Nsbasg98
(lp830
S'LDR R3, mem'
p831
aS'LDR R3, mem'
p832
aS'LDR R0, mem'
p833
aS'BL ASN1_OCTET_STRING_free'
p834
aS'LDR R3, mem'
p835
aS'MOV R2, #0'
p836
aS'LDR R3, mem'
p837
aS'MOV R0, larg'
p838
aS'STR R2, mem'
p839
aS'B func'
p840
asg111
Nsg5
S'0x129df8L'
p841
sg113
(lp842
S'0x129de0L'
p843
asg6
Nsg115
(lp844
S'0x129d38L'
p845
asg119
Nsg120
Nsg121
S'7b56a4cd4fa87e3cae15d351cd79a0b1'
p846
sg123
S'bd110463055da11803b73667036349ed'
p847
sg125
(lp848
g766
ag773
ag780
ag787
ag794
ag801
ag808
ag815
ag822
ag96
asg127
Nsbasb.