(ibclass
BFunc
p0
(dp1
S'hash'
p2
NsS'name'
p3
S'ssl3_send_alert'
p4
sS'start_address'
p5
L135232L
sS'flag'
p6
NsS'program'
p7
NsS'bbs'
p8
(lp9
(ibclass
BBasicBlock
p10
(dp11
S'function'
p12
NsS'binstrs'
p13
(lp14
(ibclass
BInstr
p15
(dp16
g2
NsS'disasm'
p17
S'LDR     R3, [s,#8]'
p18
sS'bytes'
p19
S'083090e5'
p20
sS'disasm_striped'
p21
Vldr r3, [r0, #8]
p22
sg5
L135232L
sg6
NsS'mnem'
p23
S'LDR'
p24
sS'address'
p25
S'0x21040L'
p26
sS'basicblock'
p27
Nsba(ibclass
BInstr
p28
(dp29
g2
Nsg17
S'STMFD   SP!, {R4-R6,LR}'
p30
sg19
S'70402de9'
p31
sg21
Vpush {r4, r5, r6, lr}
p32
sg5
L135236L
sg6
Nsg23
S'STM'
p33
sg25
S'0x21044L'
p34
sg27
Nsba(ibclass
BInstr
p35
(dp36
g2
Nsg17
S'LDR     R3, [R3,#0x64]'
p37
sg19
S'643093e5'
p38
sg21
Vldr r3, [r3, #0x64]
p39
sg5
L135240L
sg6
Nsg23
S'LDR'
p40
sg25
S'0x21048L'
p41
sg27
Nsba(ibclass
BInstr
p42
(dp43
g2
Nsg17
S'MOV     R4, s'
p44
sg19
S'0040a0e1'
p45
sg21
Vmov r4, r0
p46
sg5
L135244L
sg6
Nsg23
S'MOV'
p47
sg25
S'0x2104cL'
p48
sg27
Nsba(ibclass
BInstr
p49
(dp50
g2
Nsg17
S'MOV     s, desc'
p51
sg19
S'0200a0e1'
p52
sg21
Vmov r0, r2
p53
sg5
L135248L
sg6
Nsg23
S'MOV'
p54
sg25
S'0x21050L'
p55
sg27
Nsba(ibclass
BInstr
p56
(dp57
g2
Nsg17
S'MOV     R5, level'
p58
sg19
S'0150a0e1'
p59
sg21
Vmov r5, r1
p60
sg5
L135252L
sg6
Nsg23
S'MOV'
p61
sg25
S'0x21054L'
p62
sg27
Nsba(ibclass
BInstr
p63
(dp64
g2
Nsg17
S'LDR     R12, [R3,#0x30]'
p65
sg19
S'30c093e5'
p66
sg21
Vldr ip, [r3, #0x30]
p67
sg5
L135256L
sg6
Nsg23
S'LDR'
p68
sg25
S'0x21058L'
p69
sg27
Nsba(ibclass
BInstr
p70
(dp71
g2
Nsg17
S'MOV     LR, PC'
p72
sg19
S'0fe0a0e1'
p73
sg21
Vmov lr, pc
p74
sg5
L135260L
sg6
Nsg23
S'MOV'
p75
sg25
S'0x2105cL'
p76
sg27
Nsba(ibclass
BInstr
p77
(dp78
g2
Nsg17
S'BX      R12'
p79
sg19
S'1cff2fe1'
p80
sg21
Vbx ip
p81
sg5
L135264L
sg6
Nsg23
S'BX'
p82
sg25
S'0x21060L'
p83
sg27
Nsba(ibclass
BInstr
p84
(dp85
g2
Nsg17
S'LDR     R3, [s]'
p86
sg19
S'003094e5'
p87
sg21
Vldr r3, [r4]
p88
sg5
L135268L
sg6
Nsg23
S'LDR'
p89
sg25
S'0x21064L'
p90
sg27
Nsba(ibclass
BInstr
p91
(dp92
g2
Nsg17
S'CMP     R0, #0x46'
p93
sg19
S'460050e3'
p94
sg21
Vcmp r0, #0x46
p95
sg5
L135272L
sg6
Nsg23
S'CMP'
p96
sg25
S'0x21068L'
p97
sg27
Nsba(ibclass
BInstr
p98
(dp99
g2
Nsg17
S'CMPEQ   R3, #0x300'
p100
sg19
S'030c5303'
p101
sg21
Vcmpeq r3, #0x300
p102
sg5
L135276L
sg6
Nsg23
S'CMP'
p103
sg25
S'0x2106cL'
p104
sg27
Nsba(ibclass
BInstr
p105
(dp106
g2
Nsg17
S'MOVEQ   R6, #0x28'
p107
sg19
S'2860a003'
p108
sg21
Vmoveq r6, #0x28
p109
sg5
L135280L
sg6
Nsg23
S'MOV'
p110
sg25
S'0x21070L'
p111
sg27
Nsba(ibclass
BInstr
p112
(dp113
g2
Nsg17
S'BNE     loc_210B4'
p114
sg19
S'0e00001a'
p115
sg21
Vbne #0x40
p116
sg5
L135284L
sg6
Nsg23
S'B'
p117
sg25
S'0x21074L'
p118
sg27
NsbasS'disasm_list'
p119
(lp120
S'LDR R3, mem'
p121
aS'STMFD SP!, {R4-R6,LR}'
p122
aS'LDR R3, mem'
p123
aS'MOV R4, s'
p124
aS'MOV s, desc'
p125
aS'MOV R5, level'
p126
aS'LDR R12, mem'
p127
aS'MOV LR, PC'
p128
aS'BX R12'
p129
aS'LDR R3, mem'
p130
aS'CMP R0, #0x46'
p131
aS'CMPEQ R3, #0x300'
p132
aS'MOVEQ R6, #0x28'
p133
aS'BNE func'
p134
asS'end_address'
p135
Nsg5
S'0x21040L'
p136
sS'preds'
p137
(lp138
sg6
NsS'succs'
p139
(lp140
S'0x21078L'
p141
aS'0x210b4L'
p142
asS'hash_v3'
p143
NsS'flag_v2'
p144
NsS'hash_v1'
p145
S'7ca509bf509a1d3184828121846bd745'
p146
sS'hash_v2'
p147
S'1cff6001af8b05663b247a689c04b9a8'
p148
sS'mnen_list'
p149
(lp150
g24
ag33
ag40
ag47
ag54
ag61
ag68
ag75
ag82
ag89
ag96
ag103
ag110
ag117
asS'neighbour_disasm_list'
p151
Nsba(ibclass
BBasicBlock
p152
(dp153
g12
Nsg13
(lp154
(ibclass
BInstr
p155
(dp156
g2
Nsg17
S'CMP     level, #2'
p157
sg19
S'020055e3'
p158
sg21
Vcmp r5, #2
p159
sg5
L135288L
sg6
Nsg23
S'CMP'
p160
sg25
S'0x21078L'
p161
sg27
Nsba(ibclass
BInstr
p162
(dp163
g2
Nsg17
S'BEQ     loc_210DC'
p164
sg19
S'1600000a'
p165
sg21
Vbeq #0x60
p166
sg5
L135292L
sg6
Nsg23
g117
sg25
S'0x2107cL'
p167
sg27
Nsbasg119
(lp168
S'CMP level, #2'
p169
aS'BEQ func'
p170
asg135
Nsg5
S'0x21078L'
p171
sg137
(lp172
S'0x21040L'
p173
aS'0x210bcL'
p174
asg6
Nsg139
(lp175
S'0x21080L'
p176
aS'0x210dcL'
p177
asg143
Nsg144
Nsg145
S'c78fd620a449e3c979d3f3ec12d4ee88'
p178
sg147
S'30df09d1fa7c3982d11adf33e2beb007'
p179
sg149
(lp180
g160
ag117
asg151
Nsba(ibclass
BBasicBlock
p181
(dp182
g12
Nsg13
(lp183
(ibclass
BInstr
p184
(dp185
g2
Nsg17
S'LDR     R3, [s,#0x58]'
p186
sg19
S'583094e5'
p187
sg21
Vldr r3, [r4, #0x58]
p188
sg5
L135296L
sg6
Nsg23
S'LDR'
p189
sg25
S'0x21080L'
p190
sg27
Nsba(ibclass
BInstr
p191
(dp192
g2
Nsg17
S'MOV     R1, #1'
p193
sg19
S'0110a0e3'
p194
sg21
Vmov r1, #1
p195
sg5
L135300L
sg6
Nsg23
S'MOV'
p196
sg25
S'0x21084L'
p197
sg27
Nsba(ibclass
BInstr
p198
(dp199
g2
Nsg17
S'STRB    level, [R3,#0x190]'
p200
sg19
S'9051c3e5'
p201
sg21
Vstrb r5, [r3, #0x190]
p202
sg5
L135304L
sg6
Nsg23
S'STR'
p203
sg25
S'0x21088L'
p204
sg27
Nsba(ibclass
BInstr
p205
(dp206
g2
Nsg17
S'LDR     R2, [s,#0x58]'
p207
sg19
S'582094e5'
p208
sg21
Vldr r2, [r4, #0x58]
p209
sg5
L135308L
sg6
Nsg23
S'LDR'
p210
sg25
S'0x2108cL'
p211
sg27
Nsba(ibclass
BInstr
p212
(dp213
g2
Nsg17
S'STR     R1, [R3,#0x18C]'
p214
sg19
S'8c1183e5'
p215
sg21
Vstr r1, [r3, #0x18c]
p216
sg5
L135312L
sg6
Nsg23
S'STR'
p217
sg25
S'0x21090L'
p218
sg27
Nsba(ibclass
BInstr
p219
(dp220
g2
Nsg17
S'STRB    R6, [R2,#0x191]'
p221
sg19
S'9161c2e5'
p222
sg21
Vstrb r6, [r2, #0x191]
p223
sg5
L135316L
sg6
Nsg23
S'STR'
p224
sg25
S'0x21094L'
p225
sg27
Nsba(ibclass
BInstr
p226
(dp227
g2
Nsg17
S'LDR     R3, [s,#0x58]'
p228
sg19
S'583094e5'
p229
sg21
Vldr r3, [r4, #0x58]
p230
sg5
L135320L
sg6
Nsg23
S'LDR'
p231
sg25
S'0x21098L'
p232
sg27
Nsba(ibclass
BInstr
p233
(dp234
g2
Nsg17
S'LDR     R3, [R3,#0x108]'
p235
sg19
S'083193e5'
p236
sg21
Vldr r3, [r3, #0x108]
p237
sg5
L135324L
sg6
Nsg23
S'LDR'
p238
sg25
S'0x2109cL'
p239
sg27
Nsba(ibclass
BInstr
p240
(dp241
g2
Nsg17
S'CMP     R3, #0'
p242
sg19
S'000053e3'
p243
sg21
Vcmp r3, #0
p244
sg5
L135328L
sg6
Nsg23
S'CMP'
p245
sg25
S'0x210a0L'
p246
sg27
Nsba(ibclass
BInstr
p247
(dp248
g2
Nsg17
S'BEQ     loc_210C4'
p249
sg19
S'0600000a'
p250
sg21
Vbeq #0x20
p251
sg5
L135332L
sg6
Nsg23
g117
sg25
S'0x210a4L'
p252
sg27
Nsbasg119
(lp253
S'LDR R3, mem'
p254
aS'MOV R1, #1'
p255
aS'STRB level, mem'
p256
aS'LDR R2, mem'
p257
aS'STR R1, mem'
p258
aS'STRB R6, mem'
p259
aS'LDR R3, mem'
p260
aS'LDR R3, mem'
p261
aS'CMP R3, #0'
p262
aS'BEQ func'
p263
asg135
Nsg5
S'0x21080L'
p264
sg137
(lp265
S'0x21078L'
p266
aS'0x210dcL'
p267
asg6
Nsg139
(lp268
S'0x210a8L'
p269
aS'0x210c4L'
p270
asg143
Nsg144
Nsg145
S'51ac2cf2b91447f540d253533c665008'
p271
sg147
S'9d972bc11b6859ca927ec54ac2544285'
p272
sg149
(lp273
g189
ag196
ag203
ag210
ag217
ag224
ag231
ag238
ag245
ag117
asg151
Nsba(ibclass
BBasicBlock
p274
(dp275
g12
Nsg13
(lp276
(ibclass
BInstr
p277
(dp278
g2
Nsg17
S'MOV     desc, #0xFFFFFFFF'
p279
sg19
S'0000e0e3'
p280
sg21
Vmvn r0, #0
p281
sg5
L135336L
sg6
Nsg23
S'MOV'
p282
sg25
S'0x210a8L'
p283
sg27
Nsbasg119
(lp284
S'MOV desc, #0xFFFFFFFF'
p285
asg135
Nsg5
S'0x210a8L'
p286
sg137
(lp287
S'0x21080L'
p288
aS'0x210b4L'
p289
asg6
Nsg139
(lp290
S'0x210acL'
p291
asg143
Nsg144
Nsg145
S'17b32100aef1fc19670be7fd58bc85df'
p292
sg147
S'8b2702cb3af6149812d85bf7068273f5'
p293
sg149
(lp294
g282
asg151
Nsba(ibclass
BBasicBlock
p295
(dp296
g12
Nsg13
(lp297
(ibclass
BInstr
p298
(dp299
g2
Nsg17
S'LDMFD   SP!, {s-R6,LR}'
p300
sg19
S'7040bde8'
p301
sg21
Vpop {r4, r5, r6, lr}
p302
sg5
L135340L
sg6
Nsg23
S'LDM'
p303
sg25
S'0x210acL'
p304
sg27
Nsba(ibclass
BInstr
p305
(dp306
g2
Nsg17
S'BX      LR'
p307
sg19
S'1eff2fe1'
p308
sg21
Vbx lr
p309
sg5
L135344L
sg6
Nsg23
S'BX'
p310
sg25
S'0x210b0L'
p311
sg27
Nsbasg119
(lp312
S'LDMFD SP!, {s-R6,LR}'
p313
aS'BX LR'
p314
asg135
Nsg5
S'0x210acL'
p315
sg137
(lp316
S'0x210a8L'
p317
aS'0x210c4L'
p318
asg6
Nsg139
(lp319
sg143
Nsg144
Nsg145
S'1bbf04f23edc7b30d215c55a7294459f'
p320
sg147
S'69fa3ead9dd339002d5a3489fc6903d3'
p321
sg149
(lp322
g303
ag310
asg151
Nsba(ibclass
BBasicBlock
p323
(dp324
g12
Nsg13
(lp325
(ibclass
BInstr
p326
(dp327
g2
Nsg17
S'CMP     desc, #0'
p328
sg19
S'000050e3'
p329
sg21
Vcmp r0, #0
p330
sg5
L135348L
sg6
Nsg23
S'CMP'
p331
sg25
S'0x210b4L'
p332
sg27
Nsba(ibclass
BInstr
p333
(dp334
g2
Nsg17
S'BLT     loc_210A8'
p335
sg19
S'faffffba'
p336
sg21
Vblt #0xfffffff0
p337
sg5
L135352L
sg6
Nsg23
g117
sg25
S'0x210b8L'
p338
sg27
Nsbasg119
(lp339
S'CMP desc, #0'
p340
aS'BLT func'
p341
asg135
Nsg5
S'0x210b4L'
p342
sg137
(lp343
S'0x21040L'
p344
asg6
Nsg139
(lp345
S'0x210a8L'
p346
aS'0x210bcL'
p347
asg143
Nsg144
Nsg145
S'c78fd620a449e3c979d3f3ec12d4ee88'
p348
sg147
S'1100e0ff637f617216829906545d1781'
p349
sg149
(lp350
g331
ag117
asg151
Nsba(ibclass
BBasicBlock
p351
(dp352
g12
Nsg13
(lp353
(ibclass
BInstr
p354
(dp355
g2
Nsg17
S'AND     R6, desc, #0xFF'
p356
sg19
S'ff6000e2'
p357
sg21
Vand r6, r0, #0xff
p358
sg5
L135356L
sg6
Nsg23
S'AND'
p359
sg25
S'0x210bcL'
p360
sg27
Nsba(ibclass
BInstr
p361
(dp362
g2
Nsg17
S'B       loc_21078'
p363
sg19
S'ecffffea'
p364
sg21
Vb #0xffffffb8
p365
sg5
L135360L
sg6
Nsg23
g117
sg25
S'0x210c0L'
p366
sg27
Nsbasg119
(lp367
S'AND R6, desc, #0xFF'
p368
aS'B func'
p369
asg135
Nsg5
S'0x210bcL'
p370
sg137
(lp371
S'0x210b4L'
p372
asg6
Nsg139
(lp373
S'0x21078L'
p374
asg143
Nsg144
Nsg145
S'bf8219677675dddfa4264a27a573d569'
p375
sg147
S'632ea6ba101fe77653021d7c9b6139ff'
p376
sg149
(lp377
g359
ag117
asg151
Nsba(ibclass
BBasicBlock
p378
(dp379
g12
Nsg13
(lp380
(ibclass
BInstr
p381
(dp382
g2
Nsg17
S'MOV     desc, s'
p383
sg19
S'0400a0e1'
p384
sg21
Vmov r0, r4
p385
sg5
L135364L
sg6
Nsg23
S'MOV'
p386
sg25
S'0x210c4L'
p387
sg27
Nsba(ibclass
BInstr
p388
(dp389
g2
Nsg17
S'LDR     R3, [s,#8]'
p390
sg19
S'083094e5'
p391
sg21
Vldr r3, [r4, #8]
p392
sg5
L135368L
sg6
Nsg23
S'LDR'
p393
sg25
S'0x210c8L'
p394
sg27
Nsba(ibclass
BInstr
p395
(dp396
g2
Nsg17
S'LDR     R12, [R3,#0x3C]'
p397
sg19
S'3cc093e5'
p398
sg21
Vldr ip, [r3, #0x3c]
p399
sg5
L135372L
sg6
Nsg23
S'LDR'
p400
sg25
S'0x210ccL'
p401
sg27
Nsba(ibclass
BInstr
p402
(dp403
g2
Nsg17
S'MOV     LR, PC'
p404
sg19
S'0fe0a0e1'
p405
sg21
Vmov lr, pc
p406
sg5
L135376L
sg6
Nsg23
S'MOV'
p407
sg25
S'0x210d0L'
p408
sg27
Nsba(ibclass
BInstr
p409
(dp410
g2
Nsg17
S'BX      R12'
p411
sg19
S'1cff2fe1'
p412
sg21
Vbx ip
p413
sg5
L135380L
sg6
Nsg23
S'BX'
p414
sg25
S'0x210d4L'
p415
sg27
Nsba(ibclass
BInstr
p416
(dp417
g2
Nsg17
S'B       loc_210AC'
p418
sg19
S'f3ffffea'
p419
sg21
Vb #0xffffffd4
p420
sg5
L135384L
sg6
Nsg23
g117
sg25
S'0x210d8L'
p421
sg27
Nsbasg119
(lp422
S'MOV desc, s'
p423
aS'LDR R3, mem'
p424
aS'LDR R12, mem'
p425
aS'MOV LR, PC'
p426
aS'BX R12'
p427
aS'B func'
p428
asg135
Nsg5
S'0x210c4L'
p429
sg137
(lp430
S'0x21080L'
p431
asg6
Nsg139
(lp432
S'0x210acL'
p433
asg143
Nsg144
Nsg145
S'4d0e65b286d87c817d7bfc66daf4fa3e'
p434
sg147
S'93f5a39b48d9026977b16c53736ee270'
p435
sg149
(lp436
g386
ag393
ag400
ag407
ag414
ag117
asg151
Nsba(ibclass
BBasicBlock
p437
(dp438
g12
Nsg13
(lp439
(ibclass
BInstr
p440
(dp441
g2
Nsg17
S'LDR     R1, [s,#0xC0]   ; c'
p442
sg19
S'c01094e5'
p443
sg21
Vldr r1, [r4, #0xc0]
p444
sg5
L135388L
sg6
Nsg23
S'LDR'
p445
sg25
S'0x210dcL'
p446
sg27
Nsba(ibclass
BInstr
p447
(dp448
g2
Nsg17
S'CMP     R1, #0'
p449
sg19
S'000051e3'
p450
sg21
Vcmp r1, #0
p451
sg5
L135392L
sg6
Nsg23
S'CMP'
p452
sg25
S'0x210e0L'
p453
sg27
Nsba(ibclass
BInstr
p454
(dp455
g2
Nsg17
S'LDRNE   desc, [s,#0x170]; ctx'
p456
sg19
S'70019415'
p457
sg21
Vldrne r0, [r4, #0x170]
p458
sg5
L135396L
sg6
Nsg23
S'LDR'
p459
sg25
S'0x210e4L'
p460
sg27
Nsba(ibclass
BInstr
p461
(dp462
g2
Nsg17
S'BLNE    SSL_CTX_remove_session'
p463
sg19
S'd576001b'
p464
sg21
Vblne #0x1db5c
p465
sg5
L135400L
sg6
Nsg23
S'BL'
p466
sg25
S'0x210e8L'
p467
sg27
Nsba(ibclass
BInstr
p468
(dp469
g2
Nsg17
S'LDR     R3, =0x3005'
p470
sg19
S'04309fe5'
p471
sg21
Vldr r3, [pc, #4]
p472
sg5
L135404L
sg6
Nsg23
S'LDR'
p473
sg25
S'0x210ecL'
p474
sg27
Nsba(ibclass
BInstr
p475
(dp476
g2
Nsg17
S'STR     R3, [s,#0x34]'
p477
sg19
S'343084e5'
p478
sg21
Vstr r3, [r4, #0x34]
p479
sg5
L135408L
sg6
Nsg23
S'STR'
p480
sg25
S'0x210f0L'
p481
sg27
Nsba(ibclass
BInstr
p482
(dp483
g2
Nsg17
S'B       loc_21080'
p484
sg19
S'e1ffffea'
p485
sg21
Vb #0xffffff8c
p486
sg5
L135412L
sg6
Nsg23
g117
sg25
S'0x210f4L'
p487
sg27
Nsbasg119
(lp488
S'LDR R1, mem'
p489
aS'CMP R1, #0'
p490
aS'LDRNE desc, mem'
p491
aS'BLNE SSL_CTX_remove_sesregon'
p492
aS'LDR R3, =0x3005'
p493
aS'STR R3, mem'
p494
aS'B func'
p495
asg135
Nsg5
S'0x210dcL'
p496
sg137
(lp497
S'0x21078L'
p498
asg6
Nsg139
(lp499
S'0x21080L'
p500
asg143
Nsg144
Nsg145
S'b2fb678fea8b9e15cf6c8c344ecf6f94'
p501
sg147
S'5c9acf403e2018c66f51af32adebb1aa'
p502
sg149
(lp503
g445
ag452
ag459
ag466
ag473
ag480
ag117
asg151
Nsbasb.