(ibclass
BFunc
p0
(dp1
S'hash'
p2
NsS'name'
p3
S'dtls1_process_record'
p4
sS'start_address'
p5
L208844L
sS'flag'
p6
NsS'program'
p7
NsS'bbs'
p8
(lp9
(ibclass
BBasicBlock
p10
(dp11
S'function'
p12
NsS'binstrs'
p13
(lp14
(ibclass
BInstr
p15
(dp16
g2
NsS'disasm'
p17
S'STMFD   SP!, {R4-R11,LR}'
p18
sS'bytes'
p19
S'f04f2de9'
p20
sS'disasm_striped'
p21
Vpush {r4, r5, r6, r7, r8, sb, sl, fp, lr}
p22
sg5
L208844L
sg6
NsS'mnem'
p23
S'STM'
p24
sS'address'
p25
S'0x32fccL'
p26
sS'basicblock'
p27
Nsba(ibclass
BInstr
p28
(dp29
g2
Nsg17
S'LDR     R6, [s,#0x58]'
p30
sg19
S'586090e5'
p31
sg21
Vldr r6, [r0, #0x58]
p32
sg5
L208848L
sg6
Nsg23
S'LDR'
p33
sg25
S'0x32fd0L'
p34
sg27
Nsba(ibclass
BInstr
p35
(dp36
g2
Nsg17
S'LDR     R3, [s,#0x4C]'
p37
sg19
S'4c3090e5'
p38
sg21
Vldr r3, [r0, #0x4c]
p39
sg5
L208852L
sg6
Nsg23
S'LDR'
p40
sg25
S'0x32fd4L'
p41
sg27
Nsba(ibclass
BInstr
p42
(dp43
g2
Nsg17
S'LDR     R12, [R6,#0x110]'
p44
sg19
S'10c196e5'
p45
sg21
Vldr ip, [r6, #0x110]
p46
sg5
L208856L
sg6
Nsg23
S'LDR'
p47
sg25
S'0x32fd8L'
p48
sg27
Nsba(ibclass
BInstr
p49
(dp50
g2
Nsg17
S'LDR     R2, =0x4540'
p51
sg19
S'34249fe5'
p52
sg21
Vldr r2, [pc, #0x434]
p53
sg5
L208860L
sg6
Nsg23
S'LDR'
p54
sg25
S'0x32fdcL'
p55
sg27
Nsba(ibclass
BInstr
p56
(dp57
g2
Nsg17
S'LDR     R5, =($_GLOBAL_OFFSET_TABLE_ - 0x32FF4)'
p58
sg19
S'34549fe5'
p59
sg21
Vldr r5, [pc, #0x434]
p60
sg5
L208864L
sg6
Nsg23
S'LDR'
p61
sg25
S'0x32fe0L'
p62
sg27
Nsba(ibclass
BInstr
p63
(dp64
g2
Nsg17
S'ADD     R3, R3, #0xD'
p65
sg19
S'0d3083e2'
p66
sg21
Vadd r3, r3, #0xd
p67
sg5
L208868L
sg6
Nsg23
S'ADD'
p68
sg25
S'0x32fe4L'
p69
sg27
Nsba(ibclass
BInstr
p70
(dp71
g2
Nsg17
S'CMP     R12, R2'
p72
sg19
S'02005ce1'
p73
sg21
Vcmp ip, r2
p74
sg5
L208872L
sg6
Nsg23
S'CMP'
p75
sg25
S'0x32fe8L'
p76
sg27
Nsba(ibclass
BInstr
p77
(dp78
g2
Nsg17
S'ADD     R5, PC, R5 ; $_GLOBAL_OFFSET_TABLE_'
p79
sg19
S'05508fe0'
p80
sg21
Vadd r5, pc, r5
p81
sg5
L208876L
sg6
Nsg23
S'ADD'
p82
sg25
S'0x32fecL'
p83
sg27
Nsba(ibclass
BInstr
p84
(dp85
g2
Nsg17
S'SUB     SP, SP, #0x94'
p86
sg19
S'94d04de2'
p87
sg21
Vsub sp, sp, #0x94
p88
sg5
L208880L
sg6
Nsg23
S'SUB'
p89
sg25
S'0x32ff0L'
p90
sg27
Nsba(ibclass
BInstr
p91
(dp92
g2
Nsg17
S'MOV     R4, s'
p93
sg19
S'0040a0e1'
p94
sg21
Vmov r4, r0
p95
sg5
L208884L
sg6
Nsg23
S'MOV'
p96
sg25
S'0x32ff4L'
p97
sg27
Nsba(ibclass
BInstr
p98
(dp99
g2
Nsg17
S'MOV     R8, bitmap'
p100
sg19
S'0180a0e1'
p101
sg21
Vmov r8, r1
p102
sg5
L208888L
sg6
Nsg23
S'MOV'
p103
sg25
S'0x32ff8L'
p104
sg27
Nsba(ibclass
BInstr
p105
(dp106
g2
Nsg17
S'STR     R3, [R6,#0x11C]'
p107
sg19
S'1c3186e5'
p108
sg21
Vstr r3, [r6, #0x11c]
p109
sg5
L208892L
sg6
Nsg23
S'STR'
p110
sg25
S'0x32ffcL'
p111
sg27
Nsba(ibclass
BInstr
p112
(dp113
g2
Nsg17
S'LDR     R10, [s,#0xC0]'
p114
sg19
S'c0a090e5'
p115
sg21
Vldr sl, [r0, #0xc0]
p116
sg5
L208896L
sg6
Nsg23
S'LDR'
p117
sg25
S'0x33000L'
p118
sg27
Nsba(ibclass
BInstr
p119
(dp120
g2
Nsg17
S'BLS     loc_33048'
p121
sg19
S'0f00009a'
p122
sg21
Vbls #0x44
p123
sg5
L208900L
sg6
Nsg23
S'B'
p124
sg25
S'0x33004L'
p125
sg27
NsbasS'disasm_list'
p126
(lp127
S'STMFD SP!, {R4-R11,LR}'
p128
aS'LDR R6, mem'
p129
aS'LDR R3, mem'
p130
aS'LDR R12, mem'
p131
aS'LDR R2, =0x4540'
p132
aS'LDR R5, =($_GLOBAL_OFFSET_TABLE_ - 0x32FF4)'
p133
aS'ADD R3, R3, #0xD'
p134
aS'CMP R12, R2'
p135
aS'ADD R5, PC, R5'
p136
aS'SUB SP, SP, #0x94'
p137
aS'MOV R4, s'
p138
aS'MOV R8, bitmap'
p139
aS'STR R3, mem'
p140
aS'LDR R10, mem'
p141
aS'BLS func'
p142
asS'end_address'
p143
Nsg5
S'0x32fccL'
p144
sS'preds'
p145
(lp146
sg6
NsS'succs'
p147
(lp148
S'0x33008L'
p149
aS'0x33048L'
p150
asS'hash_v3'
p151
NsS'flag_v2'
p152
NsS'hash_v1'
p153
S'421e68eb4976c5ef22f9fadfa9e7de6d'
p154
sS'hash_v2'
p155
S'87f799480df57c20208a346a19fb8e9a'
p156
sS'mnen_list'
p157
(lp158
g24
ag33
ag40
ag47
ag54
ag61
ag68
ag75
ag82
ag89
ag96
ag103
ag110
ag117
ag124
asS'neighbour_disasm_list'
p159
Nsba(ibclass
BBasicBlock
p160
(dp161
g12
Nsg13
(lp162
(ibclass
BInstr
p163
(dp164
g2
Nsg17
S'LDR     R3, =(aD1_pkt_c - 0x5D000)'
p165
sg19
S'10349fe5'
p166
sg21
Vldr r3, [pc, #0x410]
p167
sg5
L208904L
sg6
Nsg23
S'LDR'
p168
sg25
S'0x33008L'
p169
sg27
Nsba(ibclass
BInstr
p170
(dp171
g2
Nsg17
S'LDR     R12, =0x1F1'
p172
sg19
S'10c49fe5'
p173
sg21
Vldr ip, [pc, #0x410]
p174
sg5
L208908L
sg6
Nsg23
S'LDR'
p175
sg25
S'0x3300cL'
p176
sg27
Nsba(ibclass
BInstr
p177
(dp178
g2
Nsg17
S'MOV     R2, #0x96'
p179
sg19
S'9620a0e3'
p180
sg21
Vmov r2, #0x96
p181
sg5
L208912L
sg6
Nsg23
S'MOV'
p182
sg25
S'0x33010L'
p183
sg27
Nsba(ibclass
BInstr
p184
(dp185
g2
Nsg17
S'ADD     R3, R5, R3      ; "d1_pkt.c"'
p186
sg19
S'033085e0'
p187
sg21
Vadd r3, r5, r3
p188
sg5
L208916L
sg6
Nsg23
S'ADD'
p189
sg25
S'0x33014L'
p190
sg27
Nsba(ibclass
BInstr
p191
(dp192
g2
Nsg17
S'MOV     s, #0x14'
p193
sg19
S'1400a0e3'
p194
sg21
Vmov r0, #0x14
p195
sg5
L208920L
sg6
Nsg23
S'MOV'
p196
sg25
S'0x33018L'
p197
sg27
Nsba(ibclass
BInstr
p198
(dp199
g2
Nsg17
S'LDR     R1, =0x101'
p200
sg19
S'04149fe5'
p201
sg21
Vldr r1, [pc, #0x404]
p202
sg5
L208924L
sg6
Nsg23
S'LDR'
p203
sg25
S'0x3301cL'
p204
sg27
Nsba(ibclass
BInstr
p205
(dp206
g2
Nsg17
S'STR     R12, [SP,#0xB8+var_B8]'
p207
sg19
S'00c08de5'
p208
sg21
Vstr ip, [sp]
p209
sg5
L208928L
sg6
Nsg23
S'STR'
p210
sg25
S'0x33020L'
p211
sg27
Nsba(ibclass
BInstr
p212
(dp213
g2
Nsg17
S'BL      ERR_put_error'
p214
sg19
S'3c77ffeb'
p215
sg21
Vbl #0xfffddcf8
p216
sg5
L208932L
sg6
Nsg23
S'BL'
p217
sg25
S'0x33024L'
p218
sg27
Nsba(ibclass
BInstr
p219
(dp220
g2
Nsg17
S'MOV     R2, #0x16       ; desc'
p221
sg19
S'1620a0e3'
p222
sg21
Vmov r2, #0x16
p223
sg5
L208936L
sg6
Nsg23
S'MOV'
p224
sg25
S'0x33028L'
p225
sg27
Nsbasg126
(lp226
S'LDR R3, =(aD1_pkt_c - 0x5D000)'
p227
aS'LDR R12, =0x1F1'
p228
aS'MOV R2, #0x96'
p229
aS'ADD R3, R5, R3'
p230
aS'MOV s, #0x14'
p231
aS'LDR R1, =0x101'
p232
aS'STR R12, mem'
p233
aS'BL ERR_put_error'
p234
aS'MOV R2, #0x16'
p235
asg143
Nsg5
S'0x33008L'
p236
sg145
(lp237
S'0x32fccL'
p238
asg6
Nsg147
(lp239
S'0x3302cL'
p240
asg151
Nsg152
Nsg153
S'5525b3b71750cf91b37cc5ed2742e39f'
p241
sg155
S'067fd4791cb73ff681cbaf3bc1646bd2'
p242
sg157
(lp243
g168
ag175
ag182
ag189
ag196
ag203
ag210
ag217
ag224
asg159
Nsba(ibclass
BBasicBlock
p244
(dp245
g12
Nsg13
(lp246
(ibclass
BInstr
p247
(dp248
g2
Nsg17
S'MOV     R0, s           ; s'
p249
sg19
S'0400a0e1'
p250
sg21
Vmov r0, r4
p251
sg5
L208940L
sg6
Nsg23
S'MOV'
p252
sg25
S'0x3302cL'
p253
sg27
Nsba(ibclass
BInstr
p254
(dp255
g2
Nsg17
S'MOV     R1, #2          ; level'
p256
sg19
S'0210a0e3'
p257
sg21
Vmov r1, #2
p258
sg5
L208944L
sg6
Nsg23
S'MOV'
p259
sg25
S'0x33030L'
p260
sg27
Nsba(ibclass
BInstr
p261
(dp262
g2
Nsg17
S'BL      ssl3_send_alert'
p263
sg19
S'01b8ffeb'
p264
sg21
Vbl #0xfffee00c
p265
sg5
L208948L
sg6
Nsg23
S'BL'
p266
sg25
S'0x33034L'
p267
sg27
Nsba(ibclass
BInstr
p268
(dp269
g2
Nsg17
S'MOV     R0, #0'
p270
sg19
S'0000a0e3'
p271
sg21
Vmov r0, #0
p272
sg5
L208952L
sg6
Nsg23
S'MOV'
p273
sg25
S'0x33038L'
p274
sg27
Nsbasg126
(lp275
S'MOV R0, s'
p276
aS'MOV R1, #2'
p277
aS'BL ssl3_send_regert'
p278
aS'MOV R0, #0'
p279
asg143
Nsg5
S'0x3302cL'
p280
sg145
(lp281
S'0x33008L'
p282
aS'0x33188L'
p283
aS'0x3325cL'
p284
aS'0x33284L'
p285
aS'0x332acL'
p286
asg6
Nsg147
(lp287
S'0x3303cL'
p288
asg151
Nsg152
Nsg153
S'b113b24b92ae9173f39087f2b85c51c7'
p289
sg155
S'aae42a5494e3e1d3da512d28f00b8676'
p290
sg157
(lp291
g252
ag259
ag266
ag273
asg159
Nsba(ibclass
BBasicBlock
p292
(dp293
g12
Nsg13
(lp294
(ibclass
BInstr
p295
(dp296
g2
Nsg17
S'ADD     SP, SP, #0x94'
p297
sg19
S'94d08de2'
p298
sg21
Vadd sp, sp, #0x94
p299
sg5
L208956L
sg6
Nsg23
S'ADD'
p300
sg25
S'0x3303cL'
p301
sg27
Nsba(ibclass
BInstr
p302
(dp303
g2
Nsg17
S'LDMFD   SP!, {s-orig_len,LR}'
p304
sg19
S'f04fbde8'
p305
sg21
Vpop {r4, r5, r6, r7, r8, sb, sl, fp, lr}
p306
sg5
L208960L
sg6
Nsg23
S'LDM'
p307
sg25
S'0x33040L'
p308
sg27
Nsba(ibclass
BInstr
p309
(dp310
g2
Nsg17
S'BX      LR'
p311
sg19
S'1eff2fe1'
p312
sg21
Vbx lr
p313
sg5
L208964L
sg6
Nsg23
S'BX'
p314
sg25
S'0x33044L'
p315
sg27
Nsbasg126
(lp316
S'ADD SP, SP, #0x94'
p317
aS'LDMFD SP!, {s-orig_len,LR}'
p318
aS'BX LR'
p319
asg143
Nsg5
S'0x3303cL'
p320
sg145
(lp321
S'0x3302cL'
p322
aS'0x33048L'
p323
aS'0x33158L'
p324
aS'0x33248L'
p325
aS'0x33384L'
p326
aS'0x33404L'
p327
asg6
Nsg147
(lp328
sg151
Nsg152
Nsg153
S'fb02e3799554a1c259ca4724e19b2b8e'
p329
sg155
S'9a07f43b8708e63d5a71d34bbddef618'
p330
sg157
(lp331
g300
ag307
ag314
asg159
Nsba(ibclass
BBasicBlock
p332
(dp333
g12
Nsg13
(lp334
(ibclass
BInstr
p335
(dp336
g2
Nsg17
S'LDR     R2, [s,#8]'
p337
sg19
S'082090e5'
p338
sg21
Vldr r2, [r0, #8]
p339
sg5
L208968L
sg6
Nsg23
S'LDR'
p340
sg25
S'0x33048L'
p341
sg27
Nsba(ibclass
BInstr
p342
(dp343
g2
Nsg17
S'STR     R3, [R6,#0x118]'
p344
sg19
S'183186e5'
p345
sg21
Vstr r3, [r6, #0x118]
p346
sg5
L208972L
sg6
Nsg23
S'STR'
p347
sg25
S'0x3304cL'
p348
sg27
Nsba(ibclass
BInstr
p349
(dp350
g2
Nsg17
S'MOV     R1, #0'
p351
sg19
S'0010a0e3'
p352
sg21
Vmov r1, #0
p353
sg5
L208976L
sg6
Nsg23
S'MOV'
p354
sg25
S'0x33050L'
p355
sg27
Nsba(ibclass
BInstr
p356
(dp357
g2
Nsg17
S'LDR     R3, [R2,#0x64]'
p358
sg19
S'643092e5'
p359
sg21
Vldr r3, [r2, #0x64]
p360
sg5
L208980L
sg6
Nsg23
S'LDR'
p361
sg25
S'0x33054L'
p362
sg27
Nsba(ibclass
BInstr
p363
(dp364
g2
Nsg17
S'LDR     R12, [R3]'
p365
sg19
S'00c093e5'
p366
sg21
Vldr ip, [r3]
p367
sg5
L208984L
sg6
Nsg23
S'LDR'
p368
sg25
S'0x33058L'
p369
sg27
Nsba(ibclass
BInstr
p370
(dp371
g2
Nsg17
S'MOV     LR, PC'
p372
sg19
S'0fe0a0e1'
p373
sg21
Vmov lr, pc
p374
sg5
L208988L
sg6
Nsg23
S'MOV'
p375
sg25
S'0x3305cL'
p376
sg27
Nsba(ibclass
BInstr
p377
(dp378
g2
Nsg17
S'BX      R12'
p379
sg19
S'1cff2fe1'
p380
sg21
Vbx ip
p381
sg5
L208992L
sg6
Nsg23
S'BX'
p382
sg25
S'0x33060L'
p383
sg27
Nsba(ibclass
BInstr
p384
(dp385
g2
Nsg17
S'SUBS    R7, R0, #0'
p386
sg19
S'007050e2'
p387
sg21
Vsubs r7, r0, #0
p388
sg5
L208996L
sg6
Nsg23
S'SUB'
p389
sg25
S'0x33064L'
p390
sg27
Nsba(ibclass
BInstr
p391
(dp392
g2
Nsg17
S'STREQ   enc_err, [R6,#0x110]'
p393
sg19
S'10718605'
p394
sg21
Vstreq r7, [r6, #0x110]
p395
sg5
L209000L
sg6
Nsg23
S'STR'
p396
sg25
S'0x33068L'
p397
sg27
Nsba(ibclass
BInstr
p398
(dp399
g2
Nsg17
S'MOVEQ   R0, enc_err'
p400
sg19
S'0700a001'
p401
sg21
Vmoveq r0, r7
p402
sg5
L209004L
sg6
Nsg23
S'MOV'
p403
sg25
S'0x3306cL'
p404
sg27
Nsba(ibclass
BInstr
p405
(dp406
g2
Nsg17
S'STREQ   enc_err, [s,#0x50]'
p407
sg19
S'50708405'
p408
sg21
Vstreq r7, [r4, #0x50]
p409
sg5
L209008L
sg6
Nsg23
S'STR'
p410
sg25
S'0x33070L'
p411
sg27
Nsba(ibclass
BInstr
p412
(dp413
g2
Nsg17
S'BEQ     loc_3303C'
p414
sg19
S'f0ffff0a'
p415
sg21
Vbeq #0xffffffc8
p416
sg5
L209012L
sg6
Nsg23
g124
sg25
S'0x33074L'
p417
sg27
Nsbasg126
(lp418
S'LDR R2, mem'
p419
aS'STR R3, mem'
p420
aS'MOV R1, #0'
p421
aS'LDR R3, mem'
p422
aS'LDR R12, mem'
p423
aS'MOV LR, PC'
p424
aS'BX R12'
p425
aS'SUBS R7, R0, #0'
p426
aS'STREQ enc_err, mem'
p427
aS'MOVEQ R0, enc_err'
p428
aS'STREQ enc_err, mem'
p429
aS'BEQ func'
p430
asg143
Nsg5
S'0x33048L'
p431
sg145
(lp432
S'0x32fccL'
p433
asg6
Nsg147
(lp434
S'0x3303cL'
p435
aS'0x33078L'
p436
asg151
Nsg152
Nsg153
S'88e652ee8e078c4ac38ac2099411fab4'
p437
sg155
S'2411358c7e9175962959bf1be6554116'
p438
sg157
(lp439
g340
ag347
ag354
ag361
ag368
ag375
ag382
ag389
ag396
ag403
ag410
ag124
asg159
Nsba(ibclass
BBasicBlock
p440
(dp441
g12
Nsg13
(lp442
(ibclass
BInstr
p443
(dp444
g2
Nsg17
S'CMP     sess, #0'
p445
sg19
S'00005ae3'
p446
sg21
Vcmp sl, #0
p447
sg5
L209016L
sg6
Nsg23
S'CMP'
p448
sg25
S'0x33078L'
p449
sg27
Nsba(ibclass
BInstr
p450
(dp451
g2
Nsg17
S'BEQ     loc_33168'
p452
sg19
S'3900000a'
p453
sg21
Vbeq #0xec
p454
sg5
L209020L
sg6
Nsg23
g124
sg25
S'0x3307cL'
p455
sg27
Nsbasg126
(lp456
S'CMP sess, #0'
p457
aS'BEQ func'
p458
asg143
Nsg5
S'0x33078L'
p459
sg145
(lp460
S'0x33048L'
p461
asg6
Nsg147
(lp462
S'0x33080L'
p463
aS'0x33168L'
p464
asg151
Nsg152
Nsg153
S'c78fd620a449e3c979d3f3ec12d4ee88'
p465
sg155
S'd8bae73b05849aeeb31cbaca897ae09a'
p466
sg157
(lp467
g448
ag124
asg159
Nsba(ibclass
BBasicBlock
p468
(dp469
g12
Nsg13
(lp470
(ibclass
BInstr
p471
(dp472
g2
Nsg17
S'LDR     R3, [s,#0x80]'
p473
sg19
S'803094e5'
p474
sg21
Vldr r3, [r4, #0x80]
p475
sg5
L209024L
sg6
Nsg23
S'LDR'
p476
sg25
S'0x33080L'
p477
sg27
Nsba(ibclass
BInstr
p478
(dp479
g2
Nsg17
S'CMP     R3, #0'
p480
sg19
S'000053e3'
p481
sg21
Vcmp r3, #0
p482
sg5
L209028L
sg6
Nsg23
S'CMP'
p483
sg25
S'0x33084L'
p484
sg27
Nsba(ibclass
BInstr
p485
(dp486
g2
Nsg17
S'BEQ     loc_33168'
p487
sg19
S'3600000a'
p488
sg21
Vbeq #0xe0
p489
sg5
L209032L
sg6
Nsg23
g124
sg25
S'0x33088L'
p490
sg27
Nsbasg126
(lp491
S'LDR R3, mem'
p492
aS'CMP R3, #0'
p493
aS'BEQ func'
p494
asg143
Nsg5
S'0x33080L'
p495
sg145
(lp496
S'0x33078L'
p497
asg6
Nsg147
(lp498
S'0x3308cL'
p499
aS'0x33168L'
p500
asg151
Nsg152
Nsg153
S'fa4df767a85c49648339e2dc5c6807f6'
p501
sg155
S'23ae957b98072c06eeee750a1243ddb5'
p502
sg157
(lp503
g476
ag483
ag124
asg159
Nsba(ibclass
BBasicBlock
p504
(dp505
g12
Nsg13
(lp506
(ibclass
BInstr
p507
(dp508
g2
Nsg17
S'LDR     R0, [s,#0x84]'
p509
sg19
S'840094e5'
p510
sg21
Vldr r0, [r4, #0x84]
p511
sg5
L209036L
sg6
Nsg23
S'LDR'
p512
sg25
S'0x3308cL'
p513
sg27
Nsba(ibclass
BInstr
p514
(dp515
g2
Nsg17
S'BL      EVP_MD_CTX_md'
p516
sg19
S'cf74ffeb'
p517
sg21
Vbl #0xfffdd344
p518
sg5
L209040L
sg6
Nsg23
S'BL'
p519
sg25
S'0x33090L'
p520
sg27
Nsba(ibclass
BInstr
p521
(dp522
g2
Nsg17
S'CMP     R0, #0'
p523
sg19
S'000050e3'
p524
sg21
Vcmp r0, #0
p525
sg5
L209044L
sg6
Nsg23
S'CMP'
p526
sg25
S'0x33094L'
p527
sg27
Nsba(ibclass
BInstr
p528
(dp529
g2
Nsg17
S'BEQ     loc_33168'
p530
sg19
S'3200000a'
p531
sg21
Vbeq #0xd0
p532
sg5
L209048L
sg6
Nsg23
g124
sg25
S'0x33098L'
p533
sg27
Nsbasg126
(lp534
S'LDR R0, mem'
p535
aS'BL EVP_MD_CTX_md'
p536
aS'CMP R0, #0'
p537
aS'BEQ func'
p538
asg143
Nsg5
S'0x3308cL'
p539
sg145
(lp540
S'0x33080L'
p541
asg6
Nsg147
(lp542
S'0x3309cL'
p543
aS'0x33168L'
p544
asg151
Nsg152
Nsg153
S'9c84acac36444e95dce0b0aa0635b01b'
p545
sg155
S'09947e7e2dfc85316f57423023e0c7d0'
p546
sg157
(lp547
g512
ag519
ag526
ag124
asg159
Nsba(ibclass
BBasicBlock
p548
(dp549
g12
Nsg13
(lp550
(ibclass
BInstr
p551
(dp552
g2
Nsg17
S'LDR     R0, [s,#0x84]'
p553
sg19
S'840094e5'
p554
sg21
Vldr r0, [r4, #0x84]
p555
sg5
L209052L
sg6
Nsg23
S'LDR'
p556
sg25
S'0x3309cL'
p557
sg27
Nsba(ibclass
BInstr
p558
(dp559
g2
Nsg17
S'BL      EVP_MD_CTX_md'
p560
sg19
S'cb74ffeb'
p561
sg21
Vbl #0xfffdd334
p562
sg5
L209056L
sg6
Nsg23
S'BL'
p563
sg25
S'0x330a0L'
p564
sg27
Nsba(ibclass
BInstr
p565
(dp566
g2
Nsg17
S'BL      EVP_MD_size'
p567
sg19
S'2b77ffeb'
p568
sg21
Vbl #0xfffddcb4
p569
sg5
L209060L
sg6
Nsg23
S'BL'
p570
sg25
S'0x330a4L'
p571
sg27
Nsba(ibclass
BInstr
p572
(dp573
g2
Nsg17
S'CMP     R0, #0x40'
p574
sg19
S'400050e3'
p575
sg21
Vcmp r0, #0x40
p576
sg5
L209064L
sg6
Nsg23
S'CMP'
p577
sg25
S'0x330a8L'
p578
sg27
Nsba(ibclass
BInstr
p579
(dp580
g2
Nsg17
S'MOV     sess, mac_size'
p581
sg19
S'00a0a0e1'
p582
sg21
Vmov sl, r0
p583
sg5
L209068L
sg6
Nsg23
S'MOV'
p584
sg25
S'0x330acL'
p585
sg27
Nsba(ibclass
BInstr
p586
(dp587
g2
Nsg17
S'BHI     loc_332F0'
p588
sg19
S'8e00008a'
p589
sg21
Vbhi #0x240
p590
sg5
L209072L
sg6
Nsg23
g124
sg25
S'0x330b0L'
p591
sg27
Nsbasg126
(lp592
S'LDR R0, mem'
p593
aS'BL EVP_MD_CTX_md'
p594
aS'BL EVP_MD_regze'
p595
aS'CMP R0, #0x40'
p596
aS'MOV sess, mac_regze'
p597
aS'BHI func'
p598
asg143
Nsg5
S'0x3309cL'
p599
sg145
(lp600
S'0x3308cL'
p601
asg6
Nsg147
(lp602
S'0x330b4L'
p603
aS'0x332f0L'
p604
asg151
Nsg152
Nsg153
S'04f9ea8f8b0f5199cd27d1def849b767'
p605
sg155
S'0ab5d633e24efdf079e6580ff7347ad8'
p606
sg157
(lp607
g556
ag563
ag570
ag577
ag584
ag124
asg159
Nsba(ibclass
BBasicBlock
p608
(dp609
g12
Nsg13
(lp610
(ibclass
BInstr
p611
(dp612
g2
Nsg17
S'LDR     R11, [R6,#0x10C]'
p613
sg19
S'0cb196e5'
p614
sg21
Vldr fp, [r6, #0x10c]
p615
sg5
L209076L
sg6
Nsg23
S'LDR'
p616
sg25
S'0x330b4L'
p617
sg27
Nsba(ibclass
BInstr
p618
(dp619
g2
Nsg17
S'LDR     R3, [R6,#0x110]'
p620
sg19
S'103196e5'
p621
sg21
Vldr r3, [r6, #0x110]
p622
sg5
L209080L
sg6
Nsg23
S'LDR'
p623
sg25
S'0x330b8L'
p624
sg27
Nsba(ibclass
BInstr
p625
(dp626
g2
Nsg17
S'ADD     R11, R3, R11,LSR#8'
p627
sg19
S'2bb483e0'
p628
sg21
Vadd fp, r3, fp, lsr #8
p629
sg5
L209084L
sg6
Nsg23
S'ADD'
p630
sg25
S'0x330bcL'
p631
sg27
Nsba(ibclass
BInstr
p632
(dp633
g2
Nsg17
S'CMP     R10, orig_len'
p634
sg19
S'0b005ae1'
p635
sg21
Vcmp sl, fp
p636
sg5
L209088L
sg6
Nsg23
S'CMP'
p637
sg25
S'0x330c0L'
p638
sg27
Nsba(ibclass
BInstr
p639
(dp640
g2
Nsg17
S'BHI     loc_3325C'
p641
sg19
S'6400008a'
p642
sg21
Vbhi #0x198
p643
sg5
L209092L
sg6
Nsg23
g124
sg25
S'0x330c4L'
p644
sg27
Nsbasg126
(lp645
S'LDR R11, mem'
p646
aS'LDR R3, mem'
p647
aS'ADD R11, R3, R11,LSR#8'
p648
aS'CMP R10, orig_len'
p649
aS'BHI func'
p650
asg143
Nsg5
S'0x330b4L'
p651
sg145
(lp652
S'0x3309cL'
p653
aS'0x332f0L'
p654
asg6
Nsg147
(lp655
S'0x330c8L'
p656
aS'0x3325cL'
p657
asg151
Nsg152
Nsg153
S'a0703b534d2d7ae3018108197bcd8c1b'
p658
sg155
S'2681c325fa48544fce9c16de5dd2010c'
p659
sg157
(lp660
g616
ag623
ag630
ag637
ag124
asg159
Nsba(ibclass
BBasicBlock
p661
(dp662
g12
Nsg13
(lp663
(ibclass
BInstr
p664
(dp665
g2
Nsg17
S'LDR     R0, [s,#0x80]'
p666
sg19
S'800094e5'
p667
sg21
Vldr r0, [r4, #0x80]
p668
sg5
L209096L
sg6
Nsg23
S'LDR'
p669
sg25
S'0x330c8L'
p670
sg27
Nsba(ibclass
BInstr
p671
(dp672
g2
Nsg17
S'BL      EVP_CIPHER_CTX_flags'
p673
sg19
S'5174ffeb'
p674
sg21
Vbl #0xfffdd14c
p675
sg5
L209100L
sg6
Nsg23
S'BL'
p676
sg25
S'0x330ccL'
p677
sg27
Nsba(ibclass
BInstr
p678
(dp679
g2
Nsg17
S'LDR     R3, =0xF0007'
p680
sg19
S'54339fe5'
p681
sg21
Vldr r3, [pc, #0x354]
p682
sg5
L209104L
sg6
Nsg23
S'LDR'
p683
sg25
S'0x330d0L'
p684
sg27
Nsba(ibclass
BInstr
p685
(dp686
g2
Nsg17
S'AND     R3, R0, R3'
p687
sg19
S'033000e0'
p688
sg21
Vand r3, r0, r3
p689
sg5
L209108L
sg6
Nsg23
S'AND'
p690
sg25
S'0x330d4L'
p691
sg27
Nsba(ibclass
BInstr
p692
(dp693
g2
Nsg17
S'CMP     R3, #2'
p694
sg19
S'020053e3'
p695
sg21
Vcmp r3, #2
p696
sg5
L209112L
sg6
Nsg23
S'CMP'
p697
sg25
S'0x330d8L'
p698
sg27
Nsba(ibclass
BInstr
p699
(dp700
g2
Nsg17
S'BEQ     loc_33250'
p701
sg19
S'5b00000a'
p702
sg21
Vbeq #0x174
p703
sg5
L209116L
sg6
Nsg23
g124
sg25
S'0x330dcL'
p704
sg27
Nsbasg126
(lp705
S'LDR R0, mem'
p706
aS'BL EVP_CIPHER_CTX_flags'
p707
aS'LDR R3, =0xF0007'
p708
aS'AND R3, R0, R3'
p709
aS'CMP R3, #2'
p710
aS'BEQ func'
p711
asg143
Nsg5
S'0x330c8L'
p712
sg145
(lp713
S'0x330b4L'
p714
asg6
Nsg147
(lp715
S'0x330e0L'
p716
aS'0x33250L'
p717
asg151
Nsg152
Nsg153
S'ee7530941671029860d45ecbe944d552'
p718
sg155
S'b04d4562a536e99950f7dd018480807e'
p719
sg157
(lp720
g669
ag676
ag683
ag690
ag697
ag124
asg159
Nsba(ibclass
BBasicBlock
p721
(dp722
g12
Nsg13
(lp723
(ibclass
BInstr
p724
(dp725
g2
Nsg17
S'LDR     R0, [s,#0x80]'
p726
sg19
S'800094e5'
p727
sg21
Vldr r0, [r4, #0x80]
p728
sg5
L209120L
sg6
Nsg23
S'LDR'
p729
sg25
S'0x330e0L'
p730
sg27
Nsba(ibclass
BInstr
p731
(dp732
g2
Nsg17
S'BL      EVP_CIPHER_CTX_flags'
p733
sg19
S'4b74ffeb'
p734
sg21
Vbl #0xfffdd134
p735
sg5
L209124L
sg6
Nsg23
S'BL'
p736
sg25
S'0x330e4L'
p737
sg27
Nsba(ibclass
BInstr
p738
(dp739
g2
Nsg17
S'LDR     R3, =0xF0007'
p740
sg19
S'3c339fe5'
p741
sg21
Vldr r3, [pc, #0x33c]
p742
sg5
L209128L
sg6
Nsg23
S'LDR'
p743
sg25
S'0x330e8L'
p744
sg27
Nsba(ibclass
BInstr
p745
(dp746
g2
Nsg17
S'AND     R3, R0, R3'
p747
sg19
S'033000e0'
p748
sg21
Vand r3, r0, r3
p749
sg5
L209132L
sg6
Nsg23
S'AND'
p750
sg25
S'0x330ecL'
p751
sg27
Nsba(ibclass
BInstr
p752
(dp753
g2
Nsg17
S'CMP     R3, #2'
p754
sg19
S'020053e3'
p755
sg21
Vcmp r3, #2
p756
sg5
L209136L
sg6
Nsg23
S'CMP'
p757
sg25
S'0x330f0L'
p758
sg27
Nsba(ibclass
BInstr
p759
(dp760
g2
Nsg17
S'BEQ     loc_33394'
p761
sg19
S'a600000a'
p762
sg21
Vbeq #0x2a0
p763
sg5
L209140L
sg6
Nsg23
g124
sg25
S'0x330f4L'
p764
sg27
Nsbasg126
(lp765
S'LDR R0, mem'
p766
aS'BL EVP_CIPHER_CTX_flags'
p767
aS'LDR R3, =0xF0007'
p768
aS'AND R3, R0, R3'
p769
aS'CMP R3, #2'
p770
aS'BEQ func'
p771
asg143
Nsg5
S'0x330e0L'
p772
sg145
(lp773
S'0x330c8L'
p774
aS'0x33250L'
p775
asg6
Nsg147
(lp776
S'0x330f8L'
p777
aS'0x33394L'
p778
asg151
Nsg152
Nsg153
S'ee7530941671029860d45ecbe944d552'
p779
sg155
S'b04d4562a536e99950f7dd018480807e'
p780
sg157
(lp781
g729
ag736
ag743
ag750
ag757
ag124
asg159
Nsba(ibclass
BBasicBlock
p782
(dp783
g12
Nsg13
(lp784
(ibclass
BInstr
p785
(dp786
g2
Nsg17
S'LDR     R3, [R6,#0x110]'
p787
sg19
S'103196e5'
p788
sg21
Vldr r3, [r6, #0x110]
p789
sg5
L209144L
sg6
Nsg23
S'LDR'
p790
sg25
S'0x330f8L'
p791
sg27
Nsba(ibclass
BInstr
p792
(dp793
g2
Nsg17
S'LDR     R2, [R6,#0x118]'
p794
sg19
S'182196e5'
p795
sg21
Vldr r2, [r6, #0x118]
p796
sg5
L209148L
sg6
Nsg23
S'LDR'
p797
sg25
S'0x330fcL'
p798
sg27
Nsba(ibclass
BInstr
p799
(dp800
g2
Nsg17
S'RSB     R3, R10, R3'
p801
sg19
S'03306ae0'
p802
sg21
Vrsb r3, sl, r3
p803
sg5
L209152L
sg6
Nsg23
S'RSB'
p804
sg25
S'0x33100L'
p805
sg27
Nsba(ibclass
BInstr
p806
(dp807
g2
Nsg17
S'ADDS    R2, R2, R3'
p808
sg19
S'032092e0'
p809
sg21
Vadds r2, r2, r3
p810
sg5
L209156L
sg6
Nsg23
S'ADD'
p811
sg25
S'0x33104L'
p812
sg27
Nsba(ibclass
BInstr
p813
(dp814
g2
Nsg17
S'STR     R2, [SP,#0xB8+var_AC]'
p815
sg19
S'0c208de5'
p816
sg21
Vstr r2, [sp, #0xc]
p817
sg5
L209160L
sg6
Nsg23
S'STR'
p818
sg25
S'0x33108L'
p819
sg27
Nsba(ibclass
BInstr
p820
(dp821
g2
Nsg17
S'STR     R3, [R6,#0x110]'
p822
sg19
S'103186e5'
p823
sg21
Vstr r3, [r6, #0x110]
p824
sg5
L209164L
sg6
Nsg23
S'STR'
p825
sg25
S'0x3310cL'
p826
sg27
Nsba(ibclass
BInstr
p827
(dp828
g2
Nsg17
S'MOVNE   orig_len, #0'
p829
sg19
S'00b0a013'
p830
sg21
Vmovne fp, #0
p831
sg5
L209168L
sg6
Nsg23
S'MOV'
p832
sg25
S'0x33110L'
p833
sg27
Nsba(ibclass
BInstr
p834
(dp835
g2
Nsg17
S'MOVEQ   orig_len, #1'
p836
sg19
S'01b0a003'
p837
sg21
Vmoveq fp, #1
p838
sg5
L209172L
sg6
Nsg23
S'MOV'
p839
sg25
S'0x33114L'
p840
sg27
Nsbasg126
(lp841
S'LDR R3, mem'
p842
aS'LDR R2, mem'
p843
aS'RSB R3, R10, R3'
p844
aS'ADDS R2, R2, R3'
p845
aS'STR R2, mem'
p846
aS'STR R3, mem'
p847
aS'MOVNE orig_len, #0'
p848
aS'MOVEQ orig_len, #1'
p849
asg143
Nsg5
S'0x330f8L'
p850
sg145
(lp851
S'0x330e0L'
p852
asg6
Nsg147
(lp853
S'0x33118L'
p854
asg151
Nsg152
Nsg153
S'78387681b049da15c4c18914587486eb'
p855
sg155
S'181f6d2b9124cb870a0253255e670393'
p856
sg157
(lp857
g790
ag797
ag804
ag811
ag818
ag825
ag832
ag839
asg159
Nsba(ibclass
BBasicBlock
p858
(dp859
g12
Nsg13
(lp860
(ibclass
BInstr
p861
(dp862
g2
Nsg17
S'LDR     R3, [s,#8]'
p863
sg19
S'083094e5'
p864
sg21
Vldr r3, [r4, #8]
p865
sg5
L209176L
sg6
Nsg23
S'LDR'
p866
sg25
S'0x33118L'
p867
sg27
Nsba(ibclass
BInstr
p868
(dp869
g2
Nsg17
S'ADD     R9, SP, #0xB8+md'
p870
sg19
S'50908de2'
p871
sg21
Vadd sb, sp, #0x50
p872
sg5
L209180L
sg6
Nsg23
S'ADD'
p873
sg25
S'0x3311cL'
p874
sg27
Nsba(ibclass
BInstr
p875
(dp876
g2
Nsg17
S'LDR     R3, [R3,#0x64]'
p877
sg19
S'643093e5'
p878
sg21
Vldr r3, [r3, #0x64]
p879
sg5
L209184L
sg6
Nsg23
S'LDR'
p880
sg25
S'0x33120L'
p881
sg27
Nsba(ibclass
BInstr
p882
(dp883
g2
Nsg17
S'MOV     R0, s'
p884
sg19
S'0400a0e1'
p885
sg21
Vmov r0, r4
p886
sg5
L209188L
sg6
Nsg23
S'MOV'
p887
sg25
S'0x33124L'
p888
sg27
Nsba(ibclass
BInstr
p889
(dp890
g2
Nsg17
S'MOV     R1, R9'
p891
sg19
S'0910a0e1'
p892
sg21
Vmov r1, sb
p893
sg5
L209192L
sg6
Nsg23
S'MOV'
p894
sg25
S'0x33128L'
p895
sg27
Nsba(ibclass
BInstr
p896
(dp897
g2
Nsg17
S'MOV     R2, #0'
p898
sg19
S'0020a0e3'
p899
sg21
Vmov r2, #0
p900
sg5
L209196L
sg6
Nsg23
S'MOV'
p901
sg25
S'0x3312cL'
p902
sg27
Nsba(ibclass
BInstr
p903
(dp904
g2
Nsg17
S'LDR     R12, [R3,#4]'
p905
sg19
S'04c093e5'
p906
sg21
Vldr ip, [r3, #4]
p907
sg5
L209200L
sg6
Nsg23
S'LDR'
p908
sg25
S'0x33130L'
p909
sg27
Nsba(ibclass
BInstr
p910
(dp911
g2
Nsg17
S'MOV     LR, PC'
p912
sg19
S'0fe0a0e1'
p913
sg21
Vmov lr, pc
p914
sg5
L209204L
sg6
Nsg23
S'MOV'
p915
sg25
S'0x33134L'
p916
sg27
Nsba(ibclass
BInstr
p917
(dp918
g2
Nsg17
S'BX      R12'
p919
sg19
S'1cff2fe1'
p920
sg21
Vbx ip
p921
sg5
L209208L
sg6
Nsg23
S'BX'
p922
sg25
S'0x33138L'
p923
sg27
Nsba(ibclass
BInstr
p924
(dp925
g2
Nsg17
S'ORRS    R11, R11, R0,LSR#31'
p926
sg19
S'a0bf9be1'
p927
sg21
Vorrs fp, fp, r0, lsr #31
p928
sg5
L209212L
sg6
Nsg23
S'ORR'
p929
sg25
S'0x3313cL'
p930
sg27
Nsba(ibclass
BInstr
p931
(dp932
g2
Nsg17
S'BEQ     loc_332D4'
p933
sg19
S'6300000a'
p934
sg21
Vbeq #0x194
p935
sg5
L209216L
sg6
Nsg23
g124
sg25
S'0x33140L'
p936
sg27
Nsbasg126
(lp937
S'LDR R3, mem'
p938
aS'ADD R9, SP, #0xB8+md'
p939
aS'LDR R3, mem'
p940
aS'MOV R0, s'
p941
aS'MOV R1, R9'
p942
aS'MOV R2, #0'
p943
aS'LDR R12, mem'
p944
aS'MOV LR, PC'
p945
aS'BX R12'
p946
aS'ORRS R11, R11, R0,LSR#31'
p947
aS'BEQ func'
p948
asg143
Nsg5
S'0x33118L'
p949
sg145
(lp950
S'0x330f8L'
p951
aS'0x33394L'
p952
asg6
Nsg147
(lp953
S'0x33144L'
p954
aS'0x332d4L'
p955
asg151
Nsg152
Nsg153
S'c787247cb2b83f10fab16e4b8522853a'
p956
sg155
S'316aa10111a0ca5c5e9735d0bc347ff1'
p957
sg157
(lp958
g866
ag873
ag880
ag887
ag894
ag901
ag908
ag915
ag922
ag929
ag124
asg159
Nsba(ibclass
BBasicBlock
p959
(dp960
g12
Nsg13
(lp961
(ibclass
BInstr
p962
(dp963
g2
Nsg17
S'MOV     enc_err, #0xFFFFFFFF'
p964
sg19
S'0070e0e3'
p965
sg21
Vmvn r7, #0
p966
sg5
L209220L
sg6
Nsg23
S'MOV'
p967
sg25
S'0x33144L'
p968
sg27
Nsbasg126
(lp969
S'MOV enc_err, #0xFFFFFFFF'
p970
asg143
Nsg5
S'0x33144L'
p971
sg145
(lp972
S'0x33118L'
p973
aS'0x332ecL'
p974
asg6
Nsg147
(lp975
S'0x33148L'
p976
asg151
Nsg152
Nsg153
S'17b32100aef1fc19670be7fd58bc85df'
p977
sg155
S'4e6ca882fb6bbdfaaa204a2c61736271'
p978
sg157
(lp979
g967
asg159
Nsba(ibclass
BBasicBlock
p980
(dp981
g12
Nsg13
(lp982
(ibclass
BInstr
p983
(dp984
g2
Nsg17
S'LDR     R3, [R6,#0x110]'
p985
sg19
S'103196e5'
p986
sg21
Vldr r3, [r6, #0x110]
p987
sg5
L209224L
sg6
Nsg23
S'LDR'
p988
sg25
S'0x33148L'
p989
sg27
Nsba(ibclass
BInstr
p990
(dp991
g2
Nsg17
S'ADD     R10, R10, #0x4400'
p992
sg19
S'11ab8ae2'
p993
sg21
Vadd sl, sl, #0x4400
p994
sg5
L209228L
sg6
Nsg23
S'ADD'
p995
sg25
S'0x3314cL'
p996
sg27
Nsba(ibclass
BInstr
p997
(dp998
g2
Nsg17
S'CMP     R3, R10'
p999
sg19
S'0a0053e1'
p1000
sg21
Vcmp r3, sl
p1001
sg5
L209232L
sg6
Nsg23
S'CMP'
p1002
sg25
S'0x33150L'
p1003
sg27
Nsba(ibclass
BInstr
p1004
(dp1005
g2
Nsg17
S'BLS     loc_33168'
p1006
sg19
S'0300009a'
p1007
sg21
Vbls #0x14
p1008
sg5
L209236L
sg6
Nsg23
g124
sg25
S'0x33154L'
p1009
sg27
Nsbasg126
(lp1010
S'LDR R3, mem'
p1011
aS'ADD R10, R10, #0x4400'
p1012
aS'CMP R3, R10'
p1013
aS'BLS func'
p1014
asg143
Nsg5
S'0x33148L'
p1015
sg145
(lp1016
S'0x33144L'
p1017
aS'0x332d4L'
p1018
asg6
Nsg147
(lp1019
S'0x33158L'
p1020
aS'0x33168L'
p1021
asg151
Nsg152
Nsg153
S'f58179a3884326010ced9866bee49b8f'
p1022
sg155
S'6d9053b754cb72927c7d6d0a83e9264d'
p1023
sg157
(lp1024
g988
ag995
ag1002
ag124
asg159
Nsba(ibclass
BBasicBlock
p1025
(dp1026
g12
Nsg13
(lp1027
(ibclass
BInstr
p1028
(dp1029
g2
Nsg17
S'MOV     R0, #0'
p1030
sg19
S'0000a0e3'
p1031
sg21
Vmov r0, #0
p1032
sg5
L209240L
sg6
Nsg23
S'MOV'
p1033
sg25
S'0x33158L'
p1034
sg27
Nsba(ibclass
BInstr
p1035
(dp1036
g2
Nsg17
S'STR     R0, [R6,#0x110]'
p1037
sg19
S'100186e5'
p1038
sg21
Vstr r0, [r6, #0x110]
p1039
sg5
L209244L
sg6
Nsg23
S'STR'
p1040
sg25
S'0x3315cL'
p1041
sg27
Nsba(ibclass
BInstr
p1042
(dp1043
g2
Nsg17
S'STR     R0, [s,#0x50]'
p1044
sg19
S'500084e5'
p1045
sg21
Vstr r0, [r4, #0x50]
p1046
sg5
L209248L
sg6
Nsg23
S'STR'
p1047
sg25
S'0x33160L'
p1048
sg27
Nsba(ibclass
BInstr
p1049
(dp1050
g2
Nsg17
S'B       loc_3303C'
p1051
sg19
S'b4ffffea'
p1052
sg21
Vb #0xfffffed8
p1053
sg5
L209252L
sg6
Nsg23
g124
sg25
S'0x33164L'
p1054
sg27
Nsbasg126
(lp1055
S'MOV R0, #0'
p1056
aS'STR R0, mem'
p1057
aS'STR R0, mem'
p1058
aS'B func'
p1059
asg143
Nsg5
S'0x33158L'
p1060
sg145
(lp1061
S'0x33148L'
p1062
aS'0x33168L'
p1063
asg6
Nsg147
(lp1064
S'0x3303cL'
p1065
asg151
Nsg152
Nsg153
S'6ce10f0f38bdde8f59cacb1eeac9f45a'
p1066
sg155
S'81b4d2c33bb362cebb317cb706833f33'
p1067
sg157
(lp1068
g1033
ag1040
ag1047
ag124
asg159
Nsba(ibclass
BBasicBlock
p1069
(dp1070
g12
Nsg13
(lp1071
(ibclass
BInstr
p1072
(dp1073
g2
Nsg17
S'CMP     enc_err, #0'
p1074
sg19
S'000057e3'
p1075
sg21
Vcmp r7, #0
p1076
sg5
L209256L
sg6
Nsg23
S'CMP'
p1077
sg25
S'0x33168L'
p1078
sg27
Nsba(ibclass
BInstr
p1079
(dp1080
g2
Nsg17
S'BLT     loc_33158'
p1081
sg19
S'f9ffffba'
p1082
sg21
Vblt #0xffffffec
p1083
sg5
L209260L
sg6
Nsg23
g124
sg25
S'0x3316cL'
p1084
sg27
Nsbasg126
(lp1085
S'CMP enc_err, #0'
p1086
aS'BLT func'
p1087
asg143
Nsg5
S'0x33168L'
p1088
sg145
(lp1089
S'0x33078L'
p1090
aS'0x33080L'
p1091
aS'0x3308cL'
p1092
aS'0x33148L'
p1093
asg6
Nsg147
(lp1094
S'0x33158L'
p1095
aS'0x33170L'
p1096
asg151
Nsg152
Nsg153
S'c78fd620a449e3c979d3f3ec12d4ee88'
p1097
sg155
S'50d02fd4cf4fd9d7b29b625c39e9ba65'
p1098
sg157
(lp1099
g1077
ag124
asg159
Nsba(ibclass
BBasicBlock
p1100
(dp1101
g12
Nsg13
(lp1102
(ibclass
BInstr
p1103
(dp1104
g2
Nsg17
S'LDR     R3, [s,#0x88]'
p1105
sg19
S'883094e5'
p1106
sg21
Vldr r3, [r4, #0x88]
p1107
sg5
L209264L
sg6
Nsg23
S'LDR'
p1108
sg25
S'0x33170L'
p1109
sg27
Nsba(ibclass
BInstr
p1110
(dp1111
g2
Nsg17
S'CMP     R3, #0'
p1112
sg19
S'000053e3'
p1113
sg21
Vcmp r3, #0
p1114
sg5
L209268L
sg6
Nsg23
S'CMP'
p1115
sg25
S'0x33174L'
p1116
sg27
Nsba(ibclass
BInstr
p1117
(dp1118
g2
Nsg17
S'BEQ     loc_331C0'
p1119
sg19
S'1000000a'
p1120
sg21
Vbeq #0x48
p1121
sg5
L209272L
sg6
Nsg23
g124
sg25
S'0x33178L'
p1122
sg27
Nsbasg126
(lp1123
S'LDR R3, mem'
p1124
aS'CMP R3, #0'
p1125
aS'BEQ func'
p1126
asg143
Nsg5
S'0x33170L'
p1127
sg145
(lp1128
S'0x33168L'
p1129
asg6
Nsg147
(lp1130
S'0x3317cL'
p1131
aS'0x331c0L'
p1132
asg151
Nsg152
Nsg153
S'fa4df767a85c49648339e2dc5c6807f6'
p1133
sg155
S'23ae957b98072c06eeee750a1243ddb5'
p1134
sg157
(lp1135
g1108
ag1115
ag124
asg159
Nsba(ibclass
BBasicBlock
p1136
(dp1137
g12
Nsg13
(lp1138
(ibclass
BInstr
p1139
(dp1140
g2
Nsg17
S'LDR     R3, [R6,#0x110]'
p1141
sg19
S'103196e5'
p1142
sg21
Vldr r3, [r6, #0x110]
p1143
sg5
L209276L
sg6
Nsg23
S'LDR'
p1144
sg25
S'0x3317cL'
p1145
sg27
Nsba(ibclass
BInstr
p1146
(dp1147
g2
Nsg17
S'CMP     R3, #0x4400'
p1148
sg19
S'110b53e3'
p1149
sg21
Vcmp r3, #0x4400
p1150
sg5
L209280L
sg6
Nsg23
S'CMP'
p1151
sg25
S'0x33180L'
p1152
sg27
Nsba(ibclass
BInstr
p1153
(dp1154
g2
Nsg17
S'BLS     loc_331B0'
p1155
sg19
S'0900009a'
p1156
sg21
Vbls #0x2c
p1157
sg5
L209284L
sg6
Nsg23
g124
sg25
S'0x33184L'
p1158
sg27
Nsbasg126
(lp1159
S'LDR R3, mem'
p1160
aS'CMP R3, #0x4400'
p1161
aS'BLS func'
p1162
asg143
Nsg5
S'0x3317cL'
p1163
sg145
(lp1164
S'0x33170L'
p1165
asg6
Nsg147
(lp1166
S'0x33188L'
p1167
aS'0x331b0L'
p1168
asg151
Nsg152
Nsg153
S'fa4df767a85c49648339e2dc5c6807f6'
p1169
sg155
S'6e63d3d485d5ecebdf9fb6eb015a34a1'
p1170
sg157
(lp1171
g1144
ag1151
ag124
asg159
Nsba(ibclass
BBasicBlock
p1172
(dp1173
g12
Nsg13
(lp1174
(ibclass
BInstr
p1175
(dp1176
g2
Nsg17
S'LDR     R3, =(aD1_pkt_c - 0x5D000)'
p1177
sg19
S'90329fe5'
p1178
sg21
Vldr r3, [pc, #0x290]
p1179
sg5
L209288L
sg6
Nsg23
S'LDR'
p1180
sg25
S'0x33188L'
p1181
sg27
Nsba(ibclass
BInstr
p1182
(dp1183
g2
Nsg17
S'MOV     R2, #0x8C'
p1184
sg19
S'8c20a0e3'
p1185
sg21
Vmov r2, #0x8c
p1186
sg5
L209292L
sg6
Nsg23
S'MOV'
p1187
sg25
S'0x3318cL'
p1188
sg27
Nsba(ibclass
BInstr
p1189
(dp1190
g2
Nsg17
S'MOV     R12, #0x254'
p1191
sg19
S'95cfa0e3'
p1192
sg21
Vmov ip, #0x254
p1193
sg5
L209296L
sg6
Nsg23
S'MOV'
p1194
sg25
S'0x33190L'
p1195
sg27
Nsba(ibclass
BInstr
p1196
(dp1197
g2
Nsg17
S'ADD     R3, R5, R3      ; "d1_pkt.c"'
p1198
sg19
S'033085e0'
p1199
sg21
Vadd r3, r5, r3
p1200
sg5
L209300L
sg6
Nsg23
S'ADD'
p1201
sg25
S'0x33194L'
p1202
sg27
Nsba(ibclass
BInstr
p1203
(dp1204
g2
Nsg17
S'MOV     R0, #0x14'
p1205
sg19
S'1400a0e3'
p1206
sg21
Vmov r0, #0x14
p1207
sg5
L209304L
sg6
Nsg23
S'MOV'
p1208
sg25
S'0x33198L'
p1209
sg27
Nsba(ibclass
BInstr
p1210
(dp1211
g2
Nsg17
S'LDR     R1, =0x101'
p1212
sg19
S'84129fe5'
p1213
sg21
Vldr r1, [pc, #0x284]
p1214
sg5
L209308L
sg6
Nsg23
S'LDR'
p1215
sg25
S'0x3319cL'
p1216
sg27
Nsba(ibclass
BInstr
p1217
(dp1218
g2
Nsg17
S'STR     R12, [SP,#0xB8+var_B8]'
p1219
sg19
S'00c08de5'
p1220
sg21
Vstr ip, [sp]
p1221
sg5
L209312L
sg6
Nsg23
S'STR'
p1222
sg25
S'0x331a0L'
p1223
sg27
Nsba(ibclass
BInstr
p1224
(dp1225
g2
Nsg17
S'BL      ERR_put_error'
p1226
sg19
S'dc76ffeb'
p1227
sg21
Vbl #0xfffddb78
p1228
sg5
L209316L
sg6
Nsg23
S'BL'
p1229
sg25
S'0x331a4L'
p1230
sg27
Nsba(ibclass
BInstr
p1231
(dp1232
g2
Nsg17
S'MOV     R2, #0x16'
p1233
sg19
S'1620a0e3'
p1234
sg21
Vmov r2, #0x16
p1235
sg5
L209320L
sg6
Nsg23
S'MOV'
p1236
sg25
S'0x331a8L'
p1237
sg27
Nsba(ibclass
BInstr
p1238
(dp1239
g2
Nsg17
S'B       f_err'
p1240
sg19
S'9effffea'
p1241
sg21
Vb #0xfffffe80
p1242
sg5
L209324L
sg6
Nsg23
g124
sg25
S'0x331acL'
p1243
sg27
Nsbasg126
(lp1244
S'LDR R3, =(aD1_pkt_c - 0x5D000)'
p1245
aS'MOV R2, #0x8C'
p1246
aS'MOV R12, #0x254'
p1247
aS'ADD R3, R5, R3'
p1248
aS'MOV R0, #0x14'
p1249
aS'LDR R1, =0x101'
p1250
aS'STR R12, mem'
p1251
aS'BL ERR_put_error'
p1252
aS'MOV R2, #0x16'
p1253
aS'B f_err'
p1254
asg143
Nsg5
S'0x33188L'
p1255
sg145
(lp1256
S'0x3317cL'
p1257
asg6
Nsg147
(lp1258
S'0x3302cL'
p1259
asg151
Nsg152
Nsg153
S'c7e3f0a023ec25cb101157b263e6b7a5'
p1260
sg155
S'7fa8e14c48a31d00201f56bd74d312cc'
p1261
sg157
(lp1262
g1180
ag1187
ag1194
ag1201
ag1208
ag1215
ag1222
ag1229
ag1236
ag124
asg159
Nsba(ibclass
BBasicBlock
p1263
(dp1264
g12
Nsg13
(lp1265
(ibclass
BInstr
p1266
(dp1267
g2
Nsg17
S'MOV     R0, s           ; ssl'
p1268
sg19
S'0400a0e1'
p1269
sg21
Vmov r0, r4
p1270
sg5
L209328L
sg6
Nsg23
S'MOV'
p1271
sg25
S'0x331b0L'
p1272
sg27
Nsba(ibclass
BInstr
p1273
(dp1274
g2
Nsg17
S'BL      ssl3_do_uncompress'
p1275
sg19
S'5ebaffeb'
p1276
sg21
Vbl #0xfffee980
p1277
sg5
L209332L
sg6
Nsg23
S'BL'
p1278
sg25
S'0x331b4L'
p1279
sg27
Nsba(ibclass
BInstr
p1280
(dp1281
g2
Nsg17
S'CMP     R0, #0'
p1282
sg19
S'000050e3'
p1283
sg21
Vcmp r0, #0
p1284
sg5
L209336L
sg6
Nsg23
S'CMP'
p1285
sg25
S'0x331b8L'
p1286
sg27
Nsba(ibclass
BInstr
p1287
(dp1288
g2
Nsg17
S'BEQ     loc_332AC'
p1289
sg19
S'3a00000a'
p1290
sg21
Vbeq #0xf0
p1291
sg5
L209340L
sg6
Nsg23
g124
sg25
S'0x331bcL'
p1292
sg27
Nsbasg126
(lp1293
S'MOV R0, s'
p1294
aS'BL ssl3_do_uncompress'
p1295
aS'CMP R0, #0'
p1296
aS'BEQ func'
p1297
asg143
Nsg5
S'0x331b0L'
p1298
sg145
(lp1299
S'0x3317cL'
p1300
asg6
Nsg147
(lp1301
S'0x331c0L'
p1302
aS'0x332acL'
p1303
asg151
Nsg152
Nsg153
S'75fdea37841bac1a618e2aab315c9307'
p1304
sg155
S'5deeb6f286c50f6074374e71ae03d954'
p1305
sg157
(lp1306
g1271
ag1278
ag1285
ag124
asg159
Nsba(ibclass
BBasicBlock
p1307
(dp1308
g12
Nsg13
(lp1309
(ibclass
BInstr
p1310
(dp1311
g2
Nsg17
S'LDR     R3, [R6,#0x110]'
p1312
sg19
S'103196e5'
p1313
sg21
Vldr r3, [r6, #0x110]
p1314
sg5
L209344L
sg6
Nsg23
S'LDR'
p1315
sg25
S'0x331c0L'
p1316
sg27
Nsba(ibclass
BInstr
p1317
(dp1318
g2
Nsg17
S'CMP     R3, #0x4000'
p1319
sg19
S'010953e3'
p1320
sg21
Vcmp r3, #0x4000
p1321
sg5
L209348L
sg6
Nsg23
S'CMP'
p1322
sg25
S'0x331c4L'
p1323
sg27
Nsba(ibclass
BInstr
p1324
(dp1325
g2
Nsg17
S'BHI     loc_33284'
p1326
sg19
S'2d00008a'
p1327
sg21
Vbhi #0xbc
p1328
sg5
L209352L
sg6
Nsg23
g124
sg25
S'0x331c8L'
p1329
sg27
Nsbasg126
(lp1330
S'LDR R3, mem'
p1331
aS'CMP R3, #0x4000'
p1332
aS'BHI func'
p1333
asg143
Nsg5
S'0x331c0L'
p1334
sg145
(lp1335
S'0x33170L'
p1336
aS'0x331b0L'
p1337
asg6
Nsg147
(lp1338
S'0x331ccL'
p1339
aS'0x33284L'
p1340
asg151
Nsg152
Nsg153
S'fa4df767a85c49648339e2dc5c6807f6'
p1341
sg155
S'921d4e9a458e495234dd34736c2100ec'
p1342
sg157
(lp1343
g1315
ag1322
ag124
asg159
Nsba(ibclass
BBasicBlock
p1344
(dp1345
g12
Nsg13
(lp1346
(ibclass
BInstr
p1347
(dp1348
g2
Nsg17
S'LDR     enc_err, [s,#0x58]'
p1349
sg19
S'587094e5'
p1350
sg21
Vldr r7, [r4, #0x58]
p1351
sg5
L209356L
sg6
Nsg23
S'LDR'
p1352
sg25
S'0x331ccL'
p1353
sg27
Nsba(ibclass
BInstr
p1354
(dp1355
g2
Nsg17
S'MOV     R3, #0'
p1356
sg19
S'0030a0e3'
p1357
sg21
Vmov r3, #0
p1358
sg5
L209360L
sg6
Nsg23
S'MOV'
p1359
sg25
S'0x331d0L'
p1360
sg27
Nsba(ibclass
BInstr
p1361
(dp1362
g2
Nsg17
S'STR     R3, [R6,#0x114]'
p1363
sg19
S'143186e5'
p1364
sg21
Vstr r3, [r6, #0x114]
p1365
sg5
L209364L
sg6
Nsg23
S'STR'
p1366
sg25
S'0x331d4L'
p1367
sg27
Nsba(ibclass
BInstr
p1368
(dp1369
g2
Nsg17
S'MOV     sess, R3'
p1370
sg19
S'03a0a0e1'
p1371
sg21
Vmov sl, r3
p1372
sg5
L209368L
sg6
Nsg23
S'MOV'
p1373
sg25
S'0x331d8L'
p1374
sg27
Nsba(ibclass
BInstr
p1375
(dp1376
g2
Nsg17
S'STR     R3, [s,#0x50]'
p1377
sg19
S'503084e5'
p1378
sg21
Vstr r3, [r4, #0x50]
p1379
sg5
L209372L
sg6
Nsg23
S'STR'
p1380
sg25
S'0x331dcL'
p1381
sg27
Nsba(ibclass
BInstr
p1382
(dp1383
g2
Nsg17
S'ADD     R1, R7, #8'
p1384
sg19
S'081087e2'
p1385
sg21
Vadd r1, r7, #8
p1386
sg5
L209376L
sg6
Nsg23
S'ADD'
p1387
sg25
S'0x331e0L'
p1388
sg27
Nsba(ibclass
BInstr
p1389
(dp1390
g2
Nsg17
S'ADD     R0, bitmap, #4'
p1391
sg19
S'040088e2'
p1392
sg21
Vadd r0, r8, #4
p1393
sg5
L209380L
sg6
Nsg23
S'ADD'
p1394
sg25
S'0x331e4L'
p1395
sg27
Nsba(ibclass
BInstr
p1396
(dp1397
g2
Nsg17
S'B       loc_331F8'
p1398
sg19
S'020000ea'
p1399
sg21
Vb #0x10
p1400
sg5
L209384L
sg6
Nsg23
g124
sg25
S'0x331e8L'
p1401
sg27
Nsbasg126
(lp1402
S'LDR enc_err, mem'
p1403
aS'MOV R3, #0'
p1404
aS'STR R3, mem'
p1405
aS'MOV sess, R3'
p1406
aS'STR R3, mem'
p1407
aS'ADD R1, R7, #8'
p1408
aS'ADD R0, bitmap, #4'
p1409
aS'B func'
p1410
asg143
Nsg5
S'0x331ccL'
p1411
sg145
(lp1412
S'0x331c0L'
p1413
asg6
Nsg147
(lp1414
S'0x331f8L'
p1415
asg151
Nsg152
Nsg153
S'd954968d9dcc865d80d52642da648698'
p1416
sg155
S'53eb6976eb6c2e4b165cb7bdde92b52c'
p1417
sg157
(lp1418
g1352
ag1359
ag1366
ag1373
ag1380
ag1387
ag1394
ag124
asg159
Nsba(ibclass
BBasicBlock
p1419
(dp1420
g12
Nsg13
(lp1421
(ibclass
BInstr
p1422
(dp1423
g2
Nsg17
S'ADD     R3, R3, #1'
p1424
sg19
S'013083e2'
p1425
sg21
Vadd r3, r3, #1
p1426
sg5
L209388L
sg6
Nsg23
S'ADD'
p1427
sg25
S'0x331ecL'
p1428
sg27
Nsba(ibclass
BInstr
p1429
(dp1430
g2
Nsg17
S'CMP     R3, #6'
p1431
sg19
S'060053e3'
p1432
sg21
Vcmp r3, #6
p1433
sg5
L209392L
sg6
Nsg23
S'CMP'
p1434
sg25
S'0x331f0L'
p1435
sg27
Nsba(ibclass
BInstr
p1436
(dp1437
g2
Nsg17
S'BGT     loc_33364'
p1438
sg19
S'5a0000ca'
p1439
sg21
Vbgt #0x170
p1440
sg5
L209396L
sg6
Nsg23
g124
sg25
S'0x331f4L'
p1441
sg27
Nsbasg126
(lp1442
S'ADD R3, R3, #1'
p1443
aS'CMP R3, #6'
p1444
aS'BGT func'
p1445
asg143
Nsg5
S'0x331ecL'
p1446
sg145
(lp1447
S'0x33210L'
p1448
aS'0x333c4L'
p1449
asg6
Nsg147
(lp1450
S'0x331f8L'
p1451
aS'0x33364L'
p1452
asg151
Nsg152
Nsg153
S'b18482ce28e47cedf5ced20c4c995241'
p1453
sg155
S'441d9896803d8f96c910978dac91344e'
p1454
sg157
(lp1455
g1427
ag1434
ag124
asg159
Nsba(ibclass
BBasicBlock
p1456
(dp1457
g12
Nsg13
(lp1458
(ibclass
BInstr
p1459
(dp1460
g2
Nsg17
S'LDRB    R12, [R1,R3]'
p1461
sg19
S'03c0d1e7'
p1462
sg21
Vldrb ip, [r1, r3]
p1463
sg5
L209400L
sg6
Nsg23
S'LDR'
p1464
sg25
S'0x331f8L'
p1465
sg27
Nsba(ibclass
BInstr
p1466
(dp1467
g2
Nsg17
S'LDRB    R2, [R0,R3]'
p1468
sg19
S'0320d0e7'
p1469
sg21
Vldrb r2, [r0, r3]
p1470
sg5
L209404L
sg6
Nsg23
S'LDR'
p1471
sg25
S'0x331fcL'
p1472
sg27
Nsba(ibclass
BInstr
p1473
(dp1474
g2
Nsg17
S'ADD     R5, R1, R3'
p1475
sg19
S'035081e0'
p1476
sg21
Vadd r5, r1, r3
p1477
sg5
L209408L
sg6
Nsg23
S'ADD'
p1478
sg25
S'0x33200L'
p1479
sg27
Nsba(ibclass
BInstr
p1480
(dp1481
g2
Nsg17
S'CMP     R12, R2'
p1482
sg19
S'02005ce1'
p1483
sg21
Vcmp ip, r2
p1484
sg5
L209412L
sg6
Nsg23
S'CMP'
p1485
sg25
S'0x33204L'
p1486
sg27
Nsba(ibclass
BInstr
p1487
(dp1488
g2
Nsg17
S'ADD     s, R0, R3'
p1489
sg19
S'034080e0'
p1490
sg21
Vadd r4, r0, r3
p1491
sg5
L209416L
sg6
Nsg23
S'ADD'
p1492
sg25
S'0x33208L'
p1493
sg27
Nsba(ibclass
BInstr
p1494
(dp1495
g2
Nsg17
S'BHI     loc_3330C'
p1496
sg19
S'3e00008a'
p1497
sg21
Vbhi #0x100
p1498
sg5
L209420L
sg6
Nsg23
g124
sg25
S'0x3320cL'
p1499
sg27
Nsbasg126
(lp1500
S'LDRB R12, mem'
p1501
aS'LDRB R2, mem'
p1502
aS'ADD R5, R1, R3'
p1503
aS'CMP R12, R2'
p1504
aS'ADD s, R0, R3'
p1505
aS'BHI func'
p1506
asg143
Nsg5
S'0x331f8L'
p1507
sg145
(lp1508
S'0x331ccL'
p1509
aS'0x331ecL'
p1510
asg6
Nsg147
(lp1511
S'0x33210L'
p1512
aS'0x3330cL'
p1513
asg151
Nsg152
Nsg153
S'4a4803818cfc9711a76a556b7578d5ba'
p1514
sg155
S'4a6398d6070553583488c08dd487daf0'
p1515
sg157
(lp1516
g1464
ag1471
ag1478
ag1485
ag1492
ag124
asg159
Nsba(ibclass
BBasicBlock
p1517
(dp1518
g12
Nsg13
(lp1519
(ibclass
BInstr
p1520
(dp1521
g2
Nsg17
S'BCS     loc_331EC'
p1522
sg19
S'f5ffff2a'
p1523
sg21
Vbhs #0xffffffdc
p1524
sg5
L209424L
sg6
Nsg23
g124
sg25
S'0x33210L'
p1525
sg27
Nsbasg126
(lp1526
S'BCS func'
p1527
asg143
Nsg5
S'0x33210L'
p1528
sg145
(lp1529
S'0x331f8L'
p1530
asg6
Nsg147
(lp1531
S'0x331ecL'
p1532
aS'0x33214L'
p1533
asg151
Nsg152
Nsg153
S'9d5ed678fe57bcca610140957afab571'
p1534
sg155
S'912dda6d7d85283f7e7e4d730bbc0fc5'
p1535
sg157
(lp1536
g124
asg159
Nsba(ibclass
BBasicBlock
p1537
(dp1538
g12
Nsg13
(lp1539
(ibclass
BInstr
p1540
(dp1541
g2
Nsg17
S'ADD     R12, R12, #1'
p1542
sg19
S'01c08ce2'
p1543
sg21
Vadd ip, ip, #1
p1544
sg5
L209428L
sg6
Nsg23
S'ADD'
p1545
sg25
S'0x33214L'
p1546
sg27
Nsba(ibclass
BInstr
p1547
(dp1548
g2
Nsg17
S'CMP     R2, R12'
p1549
sg19
S'0c0052e1'
p1550
sg21
Vcmp r2, ip
p1551
sg5
L209432L
sg6
Nsg23
S'CMP'
p1552
sg25
S'0x33218L'
p1553
sg27
Nsba(ibclass
BInstr
p1554
(dp1555
g2
Nsg17
S'BNE     loc_33248'
p1556
sg19
S'0900001a'
p1557
sg21
Vbne #0x2c
p1558
sg5
L209436L
sg6
Nsg23
g124
sg25
S'0x3321cL'
p1559
sg27
Nsbasg126
(lp1560
S'ADD R12, R12, #1'
p1561
aS'CMP R2, R12'
p1562
aS'BNE func'
p1563
asg143
Nsg5
S'0x33214L'
p1564
sg145
(lp1565
S'0x33210L'
p1566
asg6
Nsg147
(lp1567
S'0x33220L'
p1568
aS'0x33248L'
p1569
asg151
Nsg152
Nsg153
S'b18482ce28e47cedf5ced20c4c995241'
p1570
sg155
S'40fe1e49faa2df141474d140db98a3c4'
p1571
sg157
(lp1572
g1545
ag1552
ag124
asg159
Nsba(ibclass
BBasicBlock
p1573
(dp1574
g12
Nsg13
(lp1575
(ibclass
BInstr
p1576
(dp1577
g2
Nsg17
S'ADD     R3, R3, #1'
p1578
sg19
S'013083e2'
p1579
sg21
Vadd r3, r3, #1
p1580
sg5
L209440L
sg6
Nsg23
S'ADD'
p1581
sg25
S'0x33220L'
p1582
sg27
Nsba(ibclass
BInstr
p1583
(dp1584
g2
Nsg17
S'CMP     R3, #6'
p1585
sg19
S'060053e3'
p1586
sg21
Vcmp r3, #6
p1587
sg5
L209444L
sg6
Nsg23
S'CMP'
p1588
sg25
S'0x33224L'
p1589
sg27
Nsba(ibclass
BInstr
p1590
(dp1591
g2
Nsg17
S'BGT     loc_333C4'
p1592
sg19
S'650000ca'
p1593
sg21
Vbgt #0x19c
p1594
sg5
L209448L
sg6
Nsg23
g124
sg25
S'0x33228L'
p1595
sg27
Nsbasg126
(lp1596
S'ADD R3, R3, #1'
p1597
aS'CMP R3, #6'
p1598
aS'BGT func'
p1599
asg143
Nsg5
S'0x33220L'
p1600
sg145
(lp1601
S'0x33214L'
p1602
aS'0x3323cL'
p1603
asg6
Nsg147
(lp1604
S'0x3322cL'
p1605
aS'0x333c4L'
p1606
asg151
Nsg152
Nsg153
S'b18482ce28e47cedf5ced20c4c995241'
p1607
sg155
S'441d9896803d8f96c910978dac91344e'
p1608
sg157
(lp1609
g1581
ag1588
ag124
asg159
Nsba(ibclass
BBasicBlock
p1610
(dp1611
g12
Nsg13
(lp1612
(ibclass
BInstr
p1613
(dp1614
g2
Nsg17
S'LDRB    R2, [R4,#1]'
p1615
sg19
S'0120d4e5'
p1616
sg21
Vldrb r2, [r4, #1]
p1617
sg5
L209452L
sg6
Nsg23
S'LDR'
p1618
sg25
S'0x3322cL'
p1619
sg27
Nsba(ibclass
BInstr
p1620
(dp1621
g2
Nsg17
S'ADD     R4, R4, #1'
p1622
sg19
S'014084e2'
p1623
sg21
Vadd r4, r4, #1
p1624
sg5
L209456L
sg6
Nsg23
S'ADD'
p1625
sg25
S'0x33230L'
p1626
sg27
Nsba(ibclass
BInstr
p1627
(dp1628
g2
Nsg17
S'CMP     R2, #0'
p1629
sg19
S'000052e3'
p1630
sg21
Vcmp r2, #0
p1631
sg5
L209460L
sg6
Nsg23
S'CMP'
p1632
sg25
S'0x33234L'
p1633
sg27
Nsba(ibclass
BInstr
p1634
(dp1635
g2
Nsg17
S'BNE     loc_33248'
p1636
sg19
S'0200001a'
p1637
sg21
Vbne #0x10
p1638
sg5
L209464L
sg6
Nsg23
g124
sg25
S'0x33238L'
p1639
sg27
Nsbasg126
(lp1640
S'LDRB R2, mem'
p1641
aS'ADD R4, R4, #1'
p1642
aS'CMP R2, #0'
p1643
aS'BNE func'
p1644
asg143
Nsg5
S'0x3322cL'
p1645
sg145
(lp1646
S'0x33220L'
p1647
asg6
Nsg147
(lp1648
S'0x3323cL'
p1649
aS'0x33248L'
p1650
asg151
Nsg152
Nsg153
S'f58179a3884326010ced9866bee49b8f'
p1651
sg155
S'2e85bd4051fe911f41b64b53f1e6fd8b'
p1652
sg157
(lp1653
g1618
ag1625
ag1632
ag124
asg159
Nsba(ibclass
BBasicBlock
p1654
(dp1655
g12
Nsg13
(lp1656
(ibclass
BInstr
p1657
(dp1658
g2
Nsg17
S'LDRB    R2, [R5,#1]!'
p1659
sg19
S'0120f5e5'
p1660
sg21
Vldrb r2, [r5, #1]!
p1661
sg5
L209468L
sg6
Nsg23
S'LDR'
p1662
sg25
S'0x3323cL'
p1663
sg27
Nsba(ibclass
BInstr
p1664
(dp1665
g2
Nsg17
S'CMP     R2, #0xFF'
p1666
sg19
S'ff0052e3'
p1667
sg21
Vcmp r2, #0xff
p1668
sg5
L209472L
sg6
Nsg23
S'CMP'
p1669
sg25
S'0x33240L'
p1670
sg27
Nsba(ibclass
BInstr
p1671
(dp1672
g2
Nsg17
S'BEQ     loc_33220'
p1673
sg19
S'f5ffff0a'
p1674
sg21
Vbeq #0xffffffdc
p1675
sg5
L209476L
sg6
Nsg23
g124
sg25
S'0x33244L'
p1676
sg27
Nsbasg126
(lp1677
S'LDRB R2, mem!'
p1678
aS'CMP R2, #0xFF'
p1679
aS'BEQ func'
p1680
asg143
Nsg5
S'0x3323cL'
p1681
sg145
(lp1682
S'0x3322cL'
p1683
asg6
Nsg147
(lp1684
S'0x33220L'
p1685
aS'0x33248L'
p1686
asg151
Nsg152
Nsg153
S'fa4df767a85c49648339e2dc5c6807f6'
p1687
sg155
S'13e2e15cb82ee44d114f689e3f249151'
p1688
sg157
(lp1689
g1662
ag1669
ag124
asg159
Nsba(ibclass
BBasicBlock
p1690
(dp1691
g12
Nsg13
(lp1692
(ibclass
BInstr
p1693
(dp1694
g2
Nsg17
S'MOV     R0, #1'
p1695
sg19
S'0100a0e3'
p1696
sg21
Vmov r0, #1
p1697
sg5
L209480L
sg6
Nsg23
S'MOV'
p1698
sg25
S'0x33248L'
p1699
sg27
Nsba(ibclass
BInstr
p1700
(dp1701
g2
Nsg17
S'B       loc_3303C'
p1702
sg19
S'7affffea'
p1703
sg21
Vb #0xfffffdf0
p1704
sg5
L209484L
sg6
Nsg23
g124
sg25
S'0x3324cL'
p1705
sg27
Nsbasg126
(lp1706
S'MOV R0, #1'
p1707
aS'B func'
p1708
asg143
Nsg5
S'0x33248L'
p1709
sg145
(lp1710
S'0x33214L'
p1711
aS'0x3322cL'
p1712
aS'0x3323cL'
p1713
aS'0x333ccL'
p1714
aS'0x333f8L'
p1715
asg6
Nsg147
(lp1716
S'0x3303cL'
p1717
asg151
Nsg152
Nsg153
S'b6c4e95ccfe77a95e4cf2019dd3d5574'
p1718
sg155
S'f94afd02457e34ac5e5cba35d8b77d94'
p1719
sg157
(lp1720
g1698
ag124
asg159
Nsba(ibclass
BBasicBlock
p1721
(dp1722
g12
Nsg13
(lp1723
(ibclass
BInstr
p1724
(dp1725
g2
Nsg17
S'ADD     R3, mac_size, #1'
p1726
sg19
S'01308ae2'
p1727
sg21
Vadd r3, sl, #1
p1728
sg5
L209488L
sg6
Nsg23
S'ADD'
p1729
sg25
S'0x33250L'
p1730
sg27
Nsba(ibclass
BInstr
p1731
(dp1732
g2
Nsg17
S'CMP     orig_len, R3'
p1733
sg19
S'03005be1'
p1734
sg21
Vcmp fp, r3
p1735
sg5
L209492L
sg6
Nsg23
S'CMP'
p1736
sg25
S'0x33254L'
p1737
sg27
Nsba(ibclass
BInstr
p1738
(dp1739
g2
Nsg17
S'BCS     loc_330E0'
p1740
sg19
S'a0ffff2a'
p1741
sg21
Vbhs #0xfffffe88
p1742
sg5
L209496L
sg6
Nsg23
g124
sg25
S'0x33258L'
p1743
sg27
Nsbasg126
(lp1744
S'ADD R3, mac_regze, #1'
p1745
aS'CMP orig_len, R3'
p1746
aS'BCS func'
p1747
asg143
Nsg5
S'0x33250L'
p1748
sg145
(lp1749
S'0x330c8L'
p1750
asg6
Nsg147
(lp1751
S'0x330e0L'
p1752
aS'0x3325cL'
p1753
asg151
Nsg152
Nsg153
S'b18482ce28e47cedf5ced20c4c995241'
p1754
sg155
S'7fa135da1e6e009e67000ca659bd7126'
p1755
sg157
(lp1756
g1729
ag1736
ag124
asg159
Nsba(ibclass
BBasicBlock
p1757
(dp1758
g12
Nsg13
(lp1759
(ibclass
BInstr
p1760
(dp1761
g2
Nsg17
S'LDR     R3, =(aD1_pkt_c - 0x5D000)'
p1762
sg19
S'bc319fe5'
p1763
sg21
Vldr r3, [pc, #0x1bc]
p1764
sg5
L209500L
sg6
Nsg23
S'LDR'
p1765
sg25
S'0x3325cL'
p1766
sg27
Nsba(ibclass
BInstr
p1767
(dp1768
g2
Nsg17
S'MOV     R2, #0xA0'
p1769
sg19
S'a020a0e3'
p1770
sg21
Vmov r2, #0xa0
p1771
sg5
L209504L
sg6
Nsg23
S'MOV'
p1772
sg25
S'0x33260L'
p1773
sg27
Nsba(ibclass
BInstr
p1774
(dp1775
g2
Nsg17
S'MOV     R12, #0x228'
p1776
sg19
S'8acfa0e3'
p1777
sg21
Vmov ip, #0x228
p1778
sg5
L209508L
sg6
Nsg23
S'MOV'
p1779
sg25
S'0x33264L'
p1780
sg27
Nsba(ibclass
BInstr
p1781
(dp1782
g2
Nsg17
S'ADD     R3, R5, R3      ; "d1_pkt.c"'
p1783
sg19
S'033085e0'
p1784
sg21
Vadd r3, r5, r3
p1785
sg5
L209512L
sg6
Nsg23
S'ADD'
p1786
sg25
S'0x33268L'
p1787
sg27
Nsba(ibclass
BInstr
p1788
(dp1789
g2
Nsg17
S'MOV     R0, #0x14'
p1790
sg19
S'1400a0e3'
p1791
sg21
Vmov r0, #0x14
p1792
sg5
L209516L
sg6
Nsg23
S'MOV'
p1793
sg25
S'0x3326cL'
p1794
sg27
Nsba(ibclass
BInstr
p1795
(dp1796
g2
Nsg17
S'LDR     R1, =0x101'
p1797
sg19
S'b0119fe5'
p1798
sg21
Vldr r1, [pc, #0x1b0]
p1799
sg5
L209520L
sg6
Nsg23
S'LDR'
p1800
sg25
S'0x33270L'
p1801
sg27
Nsba(ibclass
BInstr
p1802
(dp1803
g2
Nsg17
S'STR     R12, [SP,#0xB8+var_B8]'
p1804
sg19
S'00c08de5'
p1805
sg21
Vstr ip, [sp]
p1806
sg5
L209524L
sg6
Nsg23
S'STR'
p1807
sg25
S'0x33274L'
p1808
sg27
Nsba(ibclass
BInstr
p1809
(dp1810
g2
Nsg17
S'BL      ERR_put_error'
p1811
sg19
S'a776ffeb'
p1812
sg21
Vbl #0xfffddaa4
p1813
sg5
L209528L
sg6
Nsg23
S'BL'
p1814
sg25
S'0x33278L'
p1815
sg27
Nsba(ibclass
BInstr
p1816
(dp1817
g2
Nsg17
S'MOV     R2, #0x32'
p1818
sg19
S'3220a0e3'
p1819
sg21
Vmov r2, #0x32
p1820
sg5
L209532L
sg6
Nsg23
S'MOV'
p1821
sg25
S'0x3327cL'
p1822
sg27
Nsba(ibclass
BInstr
p1823
(dp1824
g2
Nsg17
S'B       f_err'
p1825
sg19
S'69ffffea'
p1826
sg21
Vb #0xfffffdac
p1827
sg5
L209536L
sg6
Nsg23
g124
sg25
S'0x33280L'
p1828
sg27
Nsbasg126
(lp1829
S'LDR R3, =(aD1_pkt_c - 0x5D000)'
p1830
aS'MOV R2, #0xA0'
p1831
aS'MOV R12, #0x228'
p1832
aS'ADD R3, R5, R3'
p1833
aS'MOV R0, #0x14'
p1834
aS'LDR R1, =0x101'
p1835
aS'STR R12, mem'
p1836
aS'BL ERR_put_error'
p1837
aS'MOV R2, #0x32'
p1838
aS'B f_err'
p1839
asg143
Nsg5
S'0x3325cL'
p1840
sg145
(lp1841
S'0x330b4L'
p1842
aS'0x33250L'
p1843
asg6
Nsg147
(lp1844
S'0x3302cL'
p1845
asg151
Nsg152
Nsg153
S'c7e3f0a023ec25cb101157b263e6b7a5'
p1846
sg155
S'aabcd4188ee2a377f2ab9b6eb6d72aa1'
p1847
sg157
(lp1848
g1765
ag1772
ag1779
ag1786
ag1793
ag1800
ag1807
ag1814
ag1821
ag124
asg159
Nsba(ibclass
BBasicBlock
p1849
(dp1850
g12
Nsg13
(lp1851
(ibclass
BInstr
p1852
(dp1853
g2
Nsg17
S'LDR     R3, =(aD1_pkt_c - 0x5D000)'
p1854
sg19
S'94319fe5'
p1855
sg21
Vldr r3, [pc, #0x194]
p1856
sg5
L209540L
sg6
Nsg23
S'LDR'
p1857
sg25
S'0x33284L'
p1858
sg27
Nsba(ibclass
BInstr
p1859
(dp1860
g2
Nsg17
S'MOV     R2, #0x92'
p1861
sg19
S'9220a0e3'
p1862
sg21
Vmov r2, #0x92
p1863
sg5
L209544L
sg6
Nsg23
S'MOV'
p1864
sg25
S'0x33288L'
p1865
sg27
Nsba(ibclass
BInstr
p1866
(dp1867
g2
Nsg17
S'MOV     R12, #0x260'
p1868
sg19
S'26cea0e3'
p1869
sg21
Vmov ip, #0x260
p1870
sg5
L209548L
sg6
Nsg23
S'MOV'
p1871
sg25
S'0x3328cL'
p1872
sg27
Nsba(ibclass
BInstr
p1873
(dp1874
g2
Nsg17
S'ADD     R3, R5, R3      ; "d1_pkt.c"'
p1875
sg19
S'033085e0'
p1876
sg21
Vadd r3, r5, r3
p1877
sg5
L209552L
sg6
Nsg23
S'ADD'
p1878
sg25
S'0x33290L'
p1879
sg27
Nsba(ibclass
BInstr
p1880
(dp1881
g2
Nsg17
S'MOV     R0, #0x14'
p1882
sg19
S'1400a0e3'
p1883
sg21
Vmov r0, #0x14
p1884
sg5
L209556L
sg6
Nsg23
S'MOV'
p1885
sg25
S'0x33294L'
p1886
sg27
Nsba(ibclass
BInstr
p1887
(dp1888
g2
Nsg17
S'LDR     R1, =0x101'
p1889
sg19
S'88119fe5'
p1890
sg21
Vldr r1, [pc, #0x188]
p1891
sg5
L209560L
sg6
Nsg23
S'LDR'
p1892
sg25
S'0x33298L'
p1893
sg27
Nsba(ibclass
BInstr
p1894
(dp1895
g2
Nsg17
S'STR     R12, [SP,#0xB8+var_B8]'
p1896
sg19
S'00c08de5'
p1897
sg21
Vstr ip, [sp]
p1898
sg5
L209564L
sg6
Nsg23
S'STR'
p1899
sg25
S'0x3329cL'
p1900
sg27
Nsba(ibclass
BInstr
p1901
(dp1902
g2
Nsg17
S'BL      ERR_put_error'
p1903
sg19
S'9d76ffeb'
p1904
sg21
Vbl #0xfffdda7c
p1905
sg5
L209568L
sg6
Nsg23
S'BL'
p1906
sg25
S'0x332a0L'
p1907
sg27
Nsba(ibclass
BInstr
p1908
(dp1909
g2
Nsg17
S'MOV     R2, #0x16'
p1910
sg19
S'1620a0e3'
p1911
sg21
Vmov r2, #0x16
p1912
sg5
L209572L
sg6
Nsg23
S'MOV'
p1913
sg25
S'0x332a4L'
p1914
sg27
Nsba(ibclass
BInstr
p1915
(dp1916
g2
Nsg17
S'B       f_err'
p1917
sg19
S'5fffffea'
p1918
sg21
Vb #0xfffffd84
p1919
sg5
L209576L
sg6
Nsg23
g124
sg25
S'0x332a8L'
p1920
sg27
Nsbasg126
(lp1921
S'LDR R3, =(aD1_pkt_c - 0x5D000)'
p1922
aS'MOV R2, #0x92'
p1923
aS'MOV R12, #0x260'
p1924
aS'ADD R3, R5, R3'
p1925
aS'MOV R0, #0x14'
p1926
aS'LDR R1, =0x101'
p1927
aS'STR R12, mem'
p1928
aS'BL ERR_put_error'
p1929
aS'MOV R2, #0x16'
p1930
aS'B f_err'
p1931
asg143
Nsg5
S'0x33284L'
p1932
sg145
(lp1933
S'0x331c0L'
p1934
asg6
Nsg147
(lp1935
S'0x3302cL'
p1936
asg151
Nsg152
Nsg153
S'c7e3f0a023ec25cb101157b263e6b7a5'
p1937
sg155
S'0b3dc8c78cd25cbff81ebafbf97db123'
p1938
sg157
(lp1939
g1857
ag1864
ag1871
ag1878
ag1885
ag1892
ag1899
ag1906
ag1913
ag124
asg159
Nsba(ibclass
BBasicBlock
p1940
(dp1941
g12
Nsg13
(lp1942
(ibclass
BInstr
p1943
(dp1944
g2
Nsg17
S'LDR     R3, =(aD1_pkt_c - 0x5D000)'
p1945
sg19
S'6c319fe5'
p1946
sg21
Vldr r3, [pc, #0x16c]
p1947
sg5
L209580L
sg6
Nsg23
S'LDR'
p1948
sg25
S'0x332acL'
p1949
sg27
Nsba(ibclass
BInstr
p1950
(dp1951
g2
Nsg17
S'LDR     R12, =0x259'
p1952
sg19
S'78c19fe5'
p1953
sg21
Vldr ip, [pc, #0x178]
p1954
sg5
L209584L
sg6
Nsg23
S'LDR'
p1955
sg25
S'0x332b0L'
p1956
sg27
Nsba(ibclass
BInstr
p1957
(dp1958
g2
Nsg17
S'MOV     R2, #0x6B'
p1959
sg19
S'6b20a0e3'
p1960
sg21
Vmov r2, #0x6b
p1961
sg5
L209588L
sg6
Nsg23
S'MOV'
p1962
sg25
S'0x332b4L'
p1963
sg27
Nsba(ibclass
BInstr
p1964
(dp1965
g2
Nsg17
S'ADD     R3, R5, R3      ; "d1_pkt.c"'
p1966
sg19
S'033085e0'
p1967
sg21
Vadd r3, r5, r3
p1968
sg5
L209592L
sg6
Nsg23
S'ADD'
p1969
sg25
S'0x332b8L'
p1970
sg27
Nsba(ibclass
BInstr
p1971
(dp1972
g2
Nsg17
S'MOV     R0, #0x14'
p1973
sg19
S'1400a0e3'
p1974
sg21
Vmov r0, #0x14
p1975
sg5
L209596L
sg6
Nsg23
S'MOV'
p1976
sg25
S'0x332bcL'
p1977
sg27
Nsba(ibclass
BInstr
p1978
(dp1979
g2
Nsg17
S'LDR     R1, =0x101'
p1980
sg19
S'60119fe5'
p1981
sg21
Vldr r1, [pc, #0x160]
p1982
sg5
L209600L
sg6
Nsg23
S'LDR'
p1983
sg25
S'0x332c0L'
p1984
sg27
Nsba(ibclass
BInstr
p1985
(dp1986
g2
Nsg17
S'STR     R12, [SP,#0xB8+var_B8]'
p1987
sg19
S'00c08de5'
p1988
sg21
Vstr ip, [sp]
p1989
sg5
L209604L
sg6
Nsg23
S'STR'
p1990
sg25
S'0x332c4L'
p1991
sg27
Nsba(ibclass
BInstr
p1992
(dp1993
g2
Nsg17
S'BL      ERR_put_error'
p1994
sg19
S'9376ffeb'
p1995
sg21
Vbl #0xfffdda54
p1996
sg5
L209608L
sg6
Nsg23
S'BL'
p1997
sg25
S'0x332c8L'
p1998
sg27
Nsba(ibclass
BInstr
p1999
(dp2000
g2
Nsg17
S'MOV     R2, #0x1E'
p2001
sg19
S'1e20a0e3'
p2002
sg21
Vmov r2, #0x1e
p2003
sg5
L209612L
sg6
Nsg23
S'MOV'
p2004
sg25
S'0x332ccL'
p2005
sg27
Nsba(ibclass
BInstr
p2006
(dp2007
g2
Nsg17
S'B       f_err'
p2008
sg19
S'55ffffea'
p2009
sg21
Vb #0xfffffd5c
p2010
sg5
L209616L
sg6
Nsg23
g124
sg25
S'0x332d0L'
p2011
sg27
Nsbasg126
(lp2012
S'LDR R3, =(aD1_pkt_c - 0x5D000)'
p2013
aS'LDR R12, =0x259'
p2014
aS'MOV R2, #0x6B'
p2015
aS'ADD R3, R5, R3'
p2016
aS'MOV R0, #0x14'
p2017
aS'LDR R1, =0x101'
p2018
aS'STR R12, mem'
p2019
aS'BL ERR_put_error'
p2020
aS'MOV R2, #0x1E'
p2021
aS'B f_err'
p2022
asg143
Nsg5
S'0x332acL'
p2023
sg145
(lp2024
S'0x331b0L'
p2025
asg6
Nsg147
(lp2026
S'0x3302cL'
p2027
asg151
Nsg152
Nsg153
S'11a79a9c867237e905a89111c737c309'
p2028
sg155
S'2a8baabf82c373a2ea0c8a02e4ba6efc'
p2029
sg157
(lp2030
g1948
ag1955
ag1962
ag1969
ag1976
ag1983
ag1990
ag1997
ag2004
ag124
asg159
Nsba(ibclass
BBasicBlock
p2031
(dp2032
g12
Nsg13
(lp2033
(ibclass
BInstr
p2034
(dp2035
g2
Nsg17
S'MOV     R0, R9'
p2036
sg19
S'0900a0e1'
p2037
sg21
Vmov r0, sb
p2038
sg5
L209620L
sg6
Nsg23
S'MOV'
p2039
sg25
S'0x332d4L'
p2040
sg27
Nsba(ibclass
BInstr
p2041
(dp2042
g2
Nsg17
S'LDR     R1, [SP,#0xB8+var_AC]'
p2043
sg19
S'0c109de5'
p2044
sg21
Vldr r1, [sp, #0xc]
p2045
sg5
L209624L
sg6
Nsg23
S'LDR'
p2046
sg25
S'0x332d8L'
p2047
sg27
Nsba(ibclass
BInstr
p2048
(dp2049
g2
Nsg17
S'MOV     R2, mac_size'
p2050
sg19
S'0a20a0e1'
p2051
sg21
Vmov r2, sl
p2052
sg5
L209628L
sg6
Nsg23
S'MOV'
p2053
sg25
S'0x332dcL'
p2054
sg27
Nsba(ibclass
BInstr
p2055
(dp2056
g2
Nsg17
S'BL      CRYPTO_memcmp'
p2057
sg19
S'c973ffeb'
p2058
sg21
Vbl #0xfffdcf2c
p2059
sg5
L209632L
sg6
Nsg23
S'BL'
p2060
sg25
S'0x332e0L'
p2061
sg27
Nsba(ibclass
BInstr
p2062
(dp2063
g2
Nsg17
S'CMP     R0, #0'
p2064
sg19
S'000050e3'
p2065
sg21
Vcmp r0, #0
p2066
sg5
L209636L
sg6
Nsg23
S'CMP'
p2067
sg25
S'0x332e4L'
p2068
sg27
Nsba(ibclass
BInstr
p2069
(dp2070
g2
Nsg17
S'BEQ     loc_33148'
p2071
sg19
S'96ffff0a'
p2072
sg21
Vbeq #0xfffffe60
p2073
sg5
L209640L
sg6
Nsg23
g124
sg25
S'0x332e8L'
p2074
sg27
Nsbasg126
(lp2075
S'MOV R0, R9'
p2076
aS'LDR R1, mem'
p2077
aS'MOV R2, mac_regze'
p2078
aS'BL CRYPTO_memcmp'
p2079
aS'CMP R0, #0'
p2080
aS'BEQ func'
p2081
asg143
Nsg5
S'0x332d4L'
p2082
sg145
(lp2083
S'0x33118L'
p2084
asg6
Nsg147
(lp2085
S'0x33148L'
p2086
aS'0x332ecL'
p2087
asg151
Nsg152
Nsg153
S'e0689774a35161e67e5720be9491101d'
p2088
sg155
S'ec4464a00e295d261c4e46526c1765d9'
p2089
sg157
(lp2090
g2039
ag2046
ag2053
ag2060
ag2067
ag124
asg159
Nsba(ibclass
BBasicBlock
p2091
(dp2092
g12
Nsg13
(lp2093
(ibclass
BInstr
p2094
(dp2095
g2
Nsg17
S'B       loc_33144'
p2096
sg19
S'94ffffea'
p2097
sg21
Vb #0xfffffe58
p2098
sg5
L209644L
sg6
Nsg23
g124
sg25
S'0x332ecL'
p2099
sg27
Nsbasg126
(lp2100
S'B func'
p2101
asg143
Nsg5
S'0x332ecL'
p2102
sg145
(lp2103
S'0x332d4L'
p2104
asg6
Nsg147
(lp2105
S'0x33144L'
p2106
asg151
Nsg152
Nsg153
S'9d5ed678fe57bcca610140957afab571'
p2107
sg155
S'071b057c420e304c628380fd3541c021'
p2108
sg157
(lp2109
g124
asg159
Nsba(ibclass
BBasicBlock
p2110
(dp2111
g12
Nsg13
(lp2112
(ibclass
BInstr
p2113
(dp2114
g2
Nsg17
S'LDR     R0, =(aD1_pkt_c - 0x5D000)'
p2115
sg19
S'28019fe5'
p2116
sg21
Vldr r0, [pc, #0x128]
p2117
sg5
L209648L
sg6
Nsg23
S'LDR'
p2118
sg25
S'0x332f0L'
p2119
sg27
Nsba(ibclass
BInstr
p2120
(dp2121
g2
Nsg17
S'LDR     R2, =(aMac_sizeEvp_ma - 0x5D000)'
p2122
sg19
S'38219fe5'
p2123
sg21
Vldr r2, [pc, #0x138]
p2124
sg5
L209652L
sg6
Nsg23
S'LDR'
p2125
sg25
S'0x332f4L'
p2126
sg27
Nsba(ibclass
BInstr
p2127
(dp2128
g2
Nsg17
S'ADD     R0, R5, R0      ; "d1_pkt.c"'
p2129
sg19
S'000085e0'
p2130
sg21
Vadd r0, r5, r0
p2131
sg5
L209656L
sg6
Nsg23
S'ADD'
p2132
sg25
S'0x332f8L'
p2133
sg27
Nsba(ibclass
BInstr
p2134
(dp2135
g2
Nsg17
S'ADD     R2, R5, R2      ; "mac_size <= EVP_MAX_MD_SIZE"'
p2136
sg19
S'022085e0'
p2137
sg21
Vadd r2, r5, r2
p2138
sg5
L209660L
sg6
Nsg23
S'ADD'
p2139
sg25
S'0x332fcL'
p2140
sg27
Nsba(ibclass
BInstr
p2141
(dp2142
g2
Nsg17
S'LDR     R1, =0x216'
p2143
sg19
S'30119fe5'
p2144
sg21
Vldr r1, [pc, #0x130]
p2145
sg5
L209664L
sg6
Nsg23
S'LDR'
p2146
sg25
S'0x33300L'
p2147
sg27
Nsba(ibclass
BInstr
p2148
(dp2149
g2
Nsg17
S'BL      OpenSSLDie'
p2150
sg19
S'7e73ffeb'
p2151
sg21
Vbl #0xfffdce00
p2152
sg5
L209668L
sg6
Nsg23
S'BL'
p2153
sg25
S'0x33304L'
p2154
sg27
Nsba(ibclass
BInstr
p2155
(dp2156
g2
Nsg17
S'B       loc_330B4'
p2157
sg19
S'69ffffea'
p2158
sg21
Vb #0xfffffdac
p2159
sg5
L209672L
sg6
Nsg23
g124
sg25
S'0x33308L'
p2160
sg27
Nsbasg126
(lp2161
S'LDR R0, =(aD1_pkt_c - 0x5D000)'
p2162
aS'LDR R2, =(aMac_regzeEvp_ma - 0x5D000)'
p2163
aS'ADD R0, R5, R0'
p2164
aS'ADD R2, R5, R2'
p2165
aS'LDR R1, =0x216'
p2166
aS'BL OpenSSLDie'
p2167
aS'B func'
p2168
asg143
Nsg5
S'0x332f0L'
p2169
sg145
(lp2170
S'0x3309cL'
p2171
asg6
Nsg147
(lp2172
S'0x330b4L'
p2173
asg151
Nsg152
Nsg153
S'd7048f11c59539e097f922441e46141b'
p2174
sg155
S'bb258807fdb17db81bf5029528c1da4f'
p2175
sg157
(lp2176
g2118
ag2125
ag2132
ag2139
ag2146
ag2153
ag124
asg159
Nsba(ibclass
BBasicBlock
p2177
(dp2178
g12
Nsg13
(lp2179
(ibclass
BInstr
p2180
(dp2181
g2
Nsg17
S'ADD     R2, bitmap, R3'
p2182
sg19
S'032088e0'
p2183
sg21
Vadd r2, r8, r3
p2184
sg5
L209676L
sg6
Nsg23
S'ADD'
p2185
sg25
S'0x3330cL'
p2186
sg27
Nsba(ibclass
BInstr
p2187
(dp2188
g2
Nsg17
S'ADD     R4, R7, R3'
p2189
sg19
S'034087e0'
p2190
sg21
Vadd r4, r7, r3
p2191
sg5
L209680L
sg6
Nsg23
S'ADD'
p2192
sg25
S'0x33310L'
p2193
sg27
Nsba(ibclass
BInstr
p2194
(dp2195
g2
Nsg17
S'LDRB    R12, [R2,#4]'
p2196
sg19
S'04c0d2e5'
p2197
sg21
Vldrb ip, [r2, #4]
p2198
sg5
L209684L
sg6
Nsg23
S'LDR'
p2199
sg25
S'0x33314L'
p2200
sg27
Nsba(ibclass
BInstr
p2201
(dp2202
g2
Nsg17
S'LDRB    R4, [R4,#8]'
p2203
sg19
S'0840d4e5'
p2204
sg21
Vldrb r4, [r4, #8]
p2205
sg5
L209688L
sg6
Nsg23
S'LDR'
p2206
sg25
S'0x33318L'
p2207
sg27
Nsba(ibclass
BInstr
p2208
(dp2209
g2
Nsg17
S'ADD     R12, R12, #1'
p2210
sg19
S'01c08ce2'
p2211
sg21
Vadd ip, ip, #1
p2212
sg5
L209692L
sg6
Nsg23
S'ADD'
p2213
sg25
S'0x3331cL'
p2214
sg27
Nsba(ibclass
BInstr
p2215
(dp2216
g2
Nsg17
S'CMP     R4, R12'
p2217
sg19
S'0c0054e1'
p2218
sg21
Vcmp r4, ip
p2219
sg5
L209696L
sg6
Nsg23
S'CMP'
p2220
sg25
S'0x33320L'
p2221
sg27
Nsba(ibclass
BInstr
p2222
(dp2223
g2
Nsg17
S'ADDEQ   R12, R3, #8'
p2224
sg19
S'08c08302'
p2225
sg21
Vaddeq ip, r3, #8
p2226
sg5
L209700L
sg6
Nsg23
S'ADD'
p2227
sg25
S'0x33324L'
p2228
sg27
Nsba(ibclass
BInstr
p2229
(dp2230
g2
Nsg17
S'ADDEQ   R7, R7, R12'
p2231
sg19
S'0c708700'
p2232
sg21
Vaddeq r7, r7, ip
p2233
sg5
L209704L
sg6
Nsg23
S'ADD'
p2234
sg25
S'0x33328L'
p2235
sg27
Nsba(ibclass
BInstr
p2236
(dp2237
g2
Nsg17
S'ADDEQ   R2, R2, #4'
p2238
sg19
S'04208202'
p2239
sg21
Vaddeq r2, r2, #4
p2240
sg5
L209708L
sg6
Nsg23
S'ADD'
p2241
sg25
S'0x3332cL'
p2242
sg27
Nsba(ibclass
BInstr
p2243
(dp2244
g2
Nsg17
S'BNE     loc_3337C'
p2245
sg19
S'1100001a'
p2246
sg21
Vbne #0x4c
p2247
sg5
L209712L
sg6
Nsg23
g124
sg25
S'0x33330L'
p2248
sg27
Nsbasg126
(lp2249
S'ADD R2, bitmap, R3'
p2250
aS'ADD R4, R7, R3'
p2251
aS'LDRB R12, mem'
p2252
aS'LDRB R4, mem'
p2253
aS'ADD R12, R12, #1'
p2254
aS'CMP R4, R12'
p2255
aS'ADDEQ R12, R3, #8'
p2256
aS'ADDEQ R7, R7, R12'
p2257
aS'ADDEQ R2, R2, #4'
p2258
aS'BNE func'
p2259
asg143
Nsg5
S'0x3330cL'
p2260
sg145
(lp2261
S'0x331f8L'
p2262
asg6
Nsg147
(lp2263
S'0x33334L'
p2264
aS'0x3337cL'
p2265
asg151
Nsg152
Nsg153
S'7453d7841a9e04be2118a71549cb337b'
p2266
sg155
S'a7f8c922fccebe16d90b5004165cf981'
p2267
sg157
(lp2268
g2185
ag2192
ag2199
ag2206
ag2213
ag2220
ag2227
ag2234
ag2241
ag124
asg159
Nsba(ibclass
BBasicBlock
p2269
(dp2270
g12
Nsg13
(lp2271
(ibclass
BInstr
p2272
(dp2273
g2
Nsg17
S'B       loc_33354'
p2274
sg19
S'060000ea'
p2275
sg21
Vb #0x20
p2276
sg5
L209716L
sg6
Nsg23
g124
sg25
S'0x33334L'
p2277
sg27
Nsbasg126
(lp2278
S'B func'
p2279
asg143
Nsg5
S'0x33334L'
p2280
sg145
(lp2281
S'0x3330cL'
p2282
asg6
Nsg147
(lp2283
S'0x33354L'
p2284
asg151
Nsg152
Nsg153
S'9d5ed678fe57bcca610140957afab571'
p2285
sg155
S'071b057c420e304c628380fd3541c021'
p2286
sg157
(lp2287
g124
asg159
Nsba(ibclass
BBasicBlock
p2288
(dp2289
g12
Nsg13
(lp2290
(ibclass
BInstr
p2291
(dp2292
g2
Nsg17
S'LDRB    R12, [R7,#1]'
p2293
sg19
S'01c0d7e5'
p2294
sg21
Vldrb ip, [r7, #1]
p2295
sg5
L209720L
sg6
Nsg23
S'LDR'
p2296
sg25
S'0x33338L'
p2297
sg27
Nsba(ibclass
BInstr
p2298
(dp2299
g2
Nsg17
S'ADD     R7, R7, #1'
p2300
sg19
S'017087e2'
p2301
sg21
Vadd r7, r7, #1
p2302
sg5
L209724L
sg6
Nsg23
S'ADD'
p2303
sg25
S'0x3333cL'
p2304
sg27
Nsba(ibclass
BInstr
p2305
(dp2306
g2
Nsg17
S'CMP     R12, #0'
p2307
sg19
S'00005ce3'
p2308
sg21
Vcmp ip, #0
p2309
sg5
L209728L
sg6
Nsg23
S'CMP'
p2310
sg25
S'0x33340L'
p2311
sg27
Nsba(ibclass
BInstr
p2312
(dp2313
g2
Nsg17
S'BNE     loc_3337C'
p2314
sg19
S'0c00001a'
p2315
sg21
Vbne #0x38
p2316
sg5
L209732L
sg6
Nsg23
g124
sg25
S'0x33344L'
p2317
sg27
Nsbasg126
(lp2318
S'LDRB R12, mem'
p2319
aS'ADD R7, R7, #1'
p2320
aS'CMP R12, #0'
p2321
aS'BNE func'
p2322
asg143
Nsg5
S'0x33338L'
p2323
sg145
(lp2324
S'0x33354L'
p2325
asg6
Nsg147
(lp2326
S'0x33348L'
p2327
aS'0x3337cL'
p2328
asg151
Nsg152
Nsg153
S'f58179a3884326010ced9866bee49b8f'
p2329
sg155
S'3f1ddc67338575e49f560ddef7c97c96'
p2330
sg157
(lp2331
g2296
ag2303
ag2310
ag124
asg159
Nsba(ibclass
BBasicBlock
p2332
(dp2333
g12
Nsg13
(lp2334
(ibclass
BInstr
p2335
(dp2336
g2
Nsg17
S'LDRB    R12, [R2,#1]!'
p2337
sg19
S'01c0f2e5'
p2338
sg21
Vldrb ip, [r2, #1]!
p2339
sg5
L209736L
sg6
Nsg23
S'LDR'
p2340
sg25
S'0x33348L'
p2341
sg27
Nsba(ibclass
BInstr
p2342
(dp2343
g2
Nsg17
S'CMP     R12, #0xFF'
p2344
sg19
S'ff005ce3'
p2345
sg21
Vcmp ip, #0xff
p2346
sg5
L209740L
sg6
Nsg23
S'CMP'
p2347
sg25
S'0x3334cL'
p2348
sg27
Nsba(ibclass
BInstr
p2349
(dp2350
g2
Nsg17
S'BNE     loc_3337C'
p2351
sg19
S'0900001a'
p2352
sg21
Vbne #0x2c
p2353
sg5
L209744L
sg6
Nsg23
g124
sg25
S'0x33350L'
p2354
sg27
Nsbasg126
(lp2355
S'LDRB R12, mem!'
p2356
aS'CMP R12, #0xFF'
p2357
aS'BNE func'
p2358
asg143
Nsg5
S'0x33348L'
p2359
sg145
(lp2360
S'0x33338L'
p2361
asg6
Nsg147
(lp2362
S'0x33354L'
p2363
aS'0x3337cL'
p2364
asg151
Nsg152
Nsg153
S'fa4df767a85c49648339e2dc5c6807f6'
p2365
sg155
S'f35be2240fb8430d28e258f952fcbbf2'
p2366
sg157
(lp2367
g2340
ag2347
ag124
asg159
Nsba(ibclass
BBasicBlock
p2368
(dp2369
g12
Nsg13
(lp2370
(ibclass
BInstr
p2371
(dp2372
g2
Nsg17
S'ADD     R3, R3, #1'
p2373
sg19
S'013083e2'
p2374
sg21
Vadd r3, r3, #1
p2375
sg5
L209748L
sg6
Nsg23
S'ADD'
p2376
sg25
S'0x33354L'
p2377
sg27
Nsba(ibclass
BInstr
p2378
(dp2379
g2
Nsg17
S'CMP     R3, #6'
p2380
sg19
S'060053e3'
p2381
sg21
Vcmp r3, #6
p2382
sg5
L209752L
sg6
Nsg23
S'CMP'
p2383
sg25
S'0x33358L'
p2384
sg27
Nsba(ibclass
BInstr
p2385
(dp2386
g2
Nsg17
S'BLE     loc_33338'
p2387
sg19
S'f5ffffda'
p2388
sg21
Vble #0xffffffdc
p2389
sg5
L209756L
sg6
Nsg23
g124
sg25
S'0x3335cL'
p2390
sg27
Nsbasg126
(lp2391
S'ADD R3, R3, #1'
p2392
aS'CMP R3, #6'
p2393
aS'BLE func'
p2394
asg143
Nsg5
S'0x33354L'
p2395
sg145
(lp2396
S'0x33334L'
p2397
aS'0x33348L'
p2398
asg6
Nsg147
(lp2399
S'0x33338L'
p2400
aS'0x33360L'
p2401
asg151
Nsg152
Nsg153
S'b18482ce28e47cedf5ced20c4c995241'
p2402
sg155
S'9808f64baa23c89e2154bf8fd3588600'
p2403
sg157
(lp2404
g2376
ag2383
ag124
asg159
Nsba(ibclass
BBasicBlock
p2405
(dp2406
g12
Nsg13
(lp2407
(ibclass
BInstr
p2408
(dp2409
g2
Nsg17
S'MOV     R10, #0x100'
p2410
sg19
S'01aca0e3'
p2411
sg21
Vmov sl, #0x100
p2412
sg5
L209760L
sg6
Nsg23
S'MOV'
p2413
sg25
S'0x33360L'
p2414
sg27
Nsbasg126
(lp2415
S'MOV R10, #0x100'
p2416
asg143
Nsg5
S'0x33360L'
p2417
sg145
(lp2418
S'0x33354L'
p2419
asg6
Nsg147
(lp2420
S'0x33364L'
p2421
asg151
Nsg152
Nsg153
S'17b32100aef1fc19670be7fd58bc85df'
p2422
sg155
S'ad6fd35e3193648cd5074b0c4e2b4837'
p2423
sg157
(lp2424
g2413
asg159
Nsba(ibclass
BBasicBlock
p2425
(dp2426
g12
Nsg13
(lp2427
(ibclass
BInstr
p2428
(dp2429
g2
Nsg17
S'LDRB    R2, [R1,#7]'
p2430
sg19
S'0720d1e5'
p2431
sg21
Vldrb r2, [r1, #7]
p2432
sg5
L209764L
sg6
Nsg23
S'LDR'
p2433
sg25
S'0x33364L'
p2434
sg27
Nsba(ibclass
BInstr
p2435
(dp2436
g2
Nsg17
S'LDRB    R3, [R0,#7]'
p2437
sg19
S'0730d0e5'
p2438
sg21
Vldrb r3, [r0, #7]
p2439
sg5
L209768L
sg6
Nsg23
S'LDR'
p2440
sg25
S'0x33368L'
p2441
sg27
Nsba(ibclass
BInstr
p2442
(dp2443
g2
Nsg17
S'RSB     R3, R3, R2'
p2444
sg19
S'023063e0'
p2445
sg21
Vrsb r3, r3, r2
p2446
sg5
L209772L
sg6
Nsg23
S'RSB'
p2447
sg25
S'0x3336cL'
p2448
sg27
Nsba(ibclass
BInstr
p2449
(dp2450
g2
Nsg17
S'ADD     R10, R3, R10'
p2451
sg19
S'0aa083e0'
p2452
sg21
Vadd sl, r3, sl
p2453
sg5
L209776L
sg6
Nsg23
S'ADD'
p2454
sg25
S'0x33370L'
p2455
sg27
Nsba(ibclass
BInstr
p2456
(dp2457
g2
Nsg17
S'CMP     R10, #0x80'
p2458
sg19
S'80005ae3'
p2459
sg21
Vcmp sl, #0x80
p2460
sg5
L209780L
sg6
Nsg23
S'CMP'
p2461
sg25
S'0x33374L'
p2462
sg27
Nsba(ibclass
BInstr
p2463
(dp2464
g2
Nsg17
S'BLE     loc_333CC'
p2465
sg19
S'130000da'
p2466
sg21
Vble #0x54
p2467
sg5
L209784L
sg6
Nsg23
g124
sg25
S'0x33378L'
p2468
sg27
Nsbasg126
(lp2469
S'LDRB R2, mem'
p2470
aS'LDRB R3, mem'
p2471
aS'RSB R3, R3, R2'
p2472
aS'ADD R10, R3, R10'
p2473
aS'CMP R10, #0x80'
p2474
aS'BLE func'
p2475
asg143
Nsg5
S'0x33364L'
p2476
sg145
(lp2477
S'0x331ecL'
p2478
aS'0x33360L'
p2479
asg6
Nsg147
(lp2480
S'0x3337cL'
p2481
aS'0x333ccL'
p2482
asg151
Nsg152
Nsg153
S'26d6dc4d7f9163060d65afa334beda3a'
p2483
sg155
S'706889282e9fdc121873d6e95a222924'
p2484
sg157
(lp2485
g2433
ag2440
ag2447
ag2454
ag2461
ag124
asg159
Nsba(ibclass
BBasicBlock
p2486
(dp2487
g12
Nsg13
(lp2488
(ibclass
BInstr
p2489
(dp2490
g2
Nsg17
S'MOV     R3, #1'
p2491
sg19
S'0130a0e3'
p2492
sg21
Vmov r3, #1
p2493
sg5
L209788L
sg6
Nsg23
S'MOV'
p2494
sg25
S'0x3337cL'
p2495
sg27
Nsba(ibclass
BInstr
p2496
(dp2497
g2
Nsg17
S'STR     R3, [bitmap]'
p2498
sg19
S'003088e5'
p2499
sg21
Vstr r3, [r8]
p2500
sg5
L209792L
sg6
Nsg23
S'STR'
p2501
sg25
S'0x33380L'
p2502
sg27
Nsbasg126
(lp2503
S'MOV R3, #1'
p2504
aS'STR R3, mem'
p2505
asg143
Nsg5
S'0x3337cL'
p2506
sg145
(lp2507
S'0x3330cL'
p2508
aS'0x33338L'
p2509
aS'0x33348L'
p2510
aS'0x33364L'
p2511
aS'0x333dcL'
p2512
asg6
Nsg147
(lp2513
S'0x33384L'
p2514
asg151
Nsg152
Nsg153
S'3eed647220a7a2b9a25f701446ac2ce1'
p2515
sg155
S'9530643821bc3c362be07a891e839e48'
p2516
sg157
(lp2517
g2494
ag2501
asg159
Nsba(ibclass
BBasicBlock
p2518
(dp2519
g12
Nsg13
(lp2520
(ibclass
BInstr
p2521
(dp2522
g2
Nsg17
S'MOV     R2, #8          ; n'
p2523
sg19
S'0820a0e3'
p2524
sg21
Vmov r2, #8
p2525
sg5
L209796L
sg6
Nsg23
S'MOV'
p2526
sg25
S'0x33384L'
p2527
sg27
Nsba(ibclass
BInstr
p2528
(dp2529
g2
Nsg17
S'BL      memcpy'
p2530
sg19
S'4174ffeb'
p2531
sg21
Vbl #0xfffdd10c
p2532
sg5
L209800L
sg6
Nsg23
S'BL'
p2533
sg25
S'0x33388L'
p2534
sg27
Nsba(ibclass
BInstr
p2535
(dp2536
g2
Nsg17
S'MOV     R0, #1'
p2537
sg19
S'0100a0e3'
p2538
sg21
Vmov r0, #1
p2539
sg5
L209804L
sg6
Nsg23
S'MOV'
p2540
sg25
S'0x3338cL'
p2541
sg27
Nsba(ibclass
BInstr
p2542
(dp2543
g2
Nsg17
S'B       loc_3303C'
p2544
sg19
S'29ffffea'
p2545
sg21
Vb #0xfffffcac
p2546
sg5
L209808L
sg6
Nsg23
g124
sg25
S'0x33390L'
p2547
sg27
Nsbasg126
(lp2548
S'MOV R2, #8'
p2549
aS'BL memcpy'
p2550
aS'MOV R0, #1'
p2551
aS'B func'
p2552
asg143
Nsg5
S'0x33384L'
p2553
sg145
(lp2554
S'0x3337cL'
p2555
aS'0x333e4L'
p2556
asg6
Nsg147
(lp2557
S'0x3303cL'
p2558
asg151
Nsg152
Nsg153
S'cd23e0eb2129bcc2960febbe800808ae'
p2559
sg155
S'23500af4c1c3e69c4cee6240d38793bd'
p2560
sg157
(lp2561
g2526
ag2533
ag2540
ag124
asg159
Nsba(ibclass
BBasicBlock
p2562
(dp2563
g12
Nsg13
(lp2564
(ibclass
BInstr
p2565
(dp2566
g2
Nsg17
S'ADD     R9, SP, #0xB8+mac_tmp'
p2567
sg19
S'10908de2'
p2568
sg21
Vadd sb, sp, #0x10
p2569
sg5
L209812L
sg6
Nsg23
S'ADD'
p2570
sg25
S'0x33394L'
p2571
sg27
Nsba(ibclass
BInstr
p2572
(dp2573
g2
Nsg17
S'MOV     R3, orig_len    ; orig_len'
p2574
sg19
S'0b30a0e1'
p2575
sg21
Vmov r3, fp
p2576
sg5
L209816L
sg6
Nsg23
S'MOV'
p2577
sg25
S'0x33398L'
p2578
sg27
Nsba(ibclass
BInstr
p2579
(dp2580
g2
Nsg17
S'MOV     R0, R9          ; out'
p2581
sg19
S'0900a0e1'
p2582
sg21
Vmov r0, sb
p2583
sg5
L209820L
sg6
Nsg23
S'MOV'
p2584
sg25
S'0x3339cL'
p2585
sg27
Nsba(ibclass
BInstr
p2586
(dp2587
g2
Nsg17
S'ADD     R1, R6, #0x10C  ; rec'
p2588
sg19
S'431f86e2'
p2589
sg21
Vadd r1, r6, #0x10c
p2590
sg5
L209824L
sg6
Nsg23
S'ADD'
p2591
sg25
S'0x333a0L'
p2592
sg27
Nsba(ibclass
BInstr
p2593
(dp2594
g2
Nsg17
S'MOV     R2, mac_size    ; md_size'
p2595
sg19
S'0a20a0e1'
p2596
sg21
Vmov r2, sl
p2597
sg5
L209828L
sg6
Nsg23
S'MOV'
p2598
sg25
S'0x333a4L'
p2599
sg27
Nsba(ibclass
BInstr
p2600
(dp2601
g2
Nsg17
S'BL      ssl3_cbc_copy_mac'
p2602
sg19
S'ecc4ffeb'
p2603
sg21
Vbl #0xffff13b8
p2604
sg5
L209832L
sg6
Nsg23
S'BL'
p2605
sg25
S'0x333a8L'
p2606
sg27
Nsba(ibclass
BInstr
p2607
(dp2608
g2
Nsg17
S'LDR     R3, [R6,#0x110]'
p2609
sg19
S'103196e5'
p2610
sg21
Vldr r3, [r6, #0x110]
p2611
sg5
L209836L
sg6
Nsg23
S'LDR'
p2612
sg25
S'0x333acL'
p2613
sg27
Nsba(ibclass
BInstr
p2614
(dp2615
g2
Nsg17
S'STR     R9, [SP,#0xB8+var_AC]'
p2616
sg19
S'0c908de5'
p2617
sg21
Vstr sb, [sp, #0xc]
p2618
sg5
L209840L
sg6
Nsg23
S'STR'
p2619
sg25
S'0x333b0L'
p2620
sg27
Nsba(ibclass
BInstr
p2621
(dp2622
g2
Nsg17
S'RSB     R3, mac_size, R3'
p2623
sg19
S'03306ae0'
p2624
sg21
Vrsb r3, sl, r3
p2625
sg5
L209844L
sg6
Nsg23
S'RSB'
p2626
sg25
S'0x333b4L'
p2627
sg27
Nsba(ibclass
BInstr
p2628
(dp2629
g2
Nsg17
S'STR     R3, [R6,#0x110]'
p2630
sg19
S'103186e5'
p2631
sg21
Vstr r3, [r6, #0x110]
p2632
sg5
L209848L
sg6
Nsg23
S'STR'
p2633
sg25
S'0x333b8L'
p2634
sg27
Nsba(ibclass
BInstr
p2635
(dp2636
g2
Nsg17
S'MOV     orig_len, #0'
p2637
sg19
S'00b0a0e3'
p2638
sg21
Vmov fp, #0
p2639
sg5
L209852L
sg6
Nsg23
S'MOV'
p2640
sg25
S'0x333bcL'
p2641
sg27
Nsba(ibclass
BInstr
p2642
(dp2643
g2
Nsg17
S'B       loc_33118'
p2644
sg19
S'54ffffea'
p2645
sg21
Vb #0xfffffd58
p2646
sg5
L209856L
sg6
Nsg23
g124
sg25
S'0x333c0L'
p2647
sg27
Nsbasg126
(lp2648
S'ADD R9, SP, #0xB8+mac_tmp'
p2649
aS'MOV R3, orig_len'
p2650
aS'MOV R0, R9'
p2651
aS'ADD R1, R6, #0x10C'
p2652
aS'MOV R2, mac_regze'
p2653
aS'BL ssl3_cbc_copy_mac'
p2654
aS'LDR R3, mem'
p2655
aS'STR R9, mem'
p2656
aS'RSB R3, mac_regze, R3'
p2657
aS'STR R3, mem'
p2658
aS'MOV orig_len, #0'
p2659
aS'B func'
p2660
asg143
Nsg5
S'0x33394L'
p2661
sg145
(lp2662
S'0x330e0L'
p2663
asg6
Nsg147
(lp2664
S'0x33118L'
p2665
asg151
Nsg152
Nsg153
S'8d4a70dd2af3d2adc2e7cae7c62f8369'
p2666
sg155
S'eee632e7fff0978402b6c6782d2d8287'
p2667
sg157
(lp2668
g2570
ag2577
ag2584
ag2591
ag2598
ag2605
ag2612
ag2619
ag2626
ag2633
ag2640
ag124
asg159
Nsba(ibclass
BBasicBlock
p2669
(dp2670
g12
Nsg13
(lp2671
(ibclass
BInstr
p2672
(dp2673
g2
Nsg17
S'MOV     R10, #0xFFFFFF00'
p2674
sg19
S'ffa0e0e3'
p2675
sg21
Vmvn sl, #0xff
p2676
sg5
L209860L
sg6
Nsg23
S'MOV'
p2677
sg25
S'0x333c4L'
p2678
sg27
Nsba(ibclass
BInstr
p2679
(dp2680
g2
Nsg17
S'B       loc_331EC'
p2681
sg19
S'87ffffea'
p2682
sg21
Vb #0xfffffe24
p2683
sg5
L209864L
sg6
Nsg23
g124
sg25
S'0x333c8L'
p2684
sg27
Nsbasg126
(lp2685
S'MOV R10, #0xFFFFFF00'
p2686
aS'B func'
p2687
asg143
Nsg5
S'0x333c4L'
p2688
sg145
(lp2689
S'0x33220L'
p2690
asg6
Nsg147
(lp2691
S'0x331ecL'
p2692
asg151
Nsg152
Nsg153
S'b6c4e95ccfe77a95e4cf2019dd3d5574'
p2693
sg155
S'0712736cb8b5f665341488eb07649beb'
p2694
sg157
(lp2695
g2677
ag124
asg159
Nsba(ibclass
BBasicBlock
p2696
(dp2697
g12
Nsg13
(lp2698
(ibclass
BInstr
p2699
(dp2700
g2
Nsg17
S'CMN     R10, #0x80'
p2701
sg19
S'80007ae3'
p2702
sg21
Vcmn sl, #0x80
p2703
sg5
L209868L
sg6
Nsg23
S'CMN'
p2704
sg25
S'0x333ccL'
p2705
sg27
Nsba(ibclass
BInstr
p2706
(dp2707
g2
Nsg17
S'BLT     loc_33248'
p2708
sg19
S'9cffffba'
p2709
sg21
Vblt #0xfffffe78
p2710
sg5
L209872L
sg6
Nsg23
g124
sg25
S'0x333d0L'
p2711
sg27
Nsbasg126
(lp2712
S'CMN R10, #0x80'
p2713
aS'BLT func'
p2714
asg143
Nsg5
S'0x333ccL'
p2715
sg145
(lp2716
S'0x33364L'
p2717
asg6
Nsg147
(lp2718
S'0x33248L'
p2719
aS'0x333d4L'
p2720
asg151
Nsg152
Nsg153
S'0efc94ace390d98fde13a1d606963ba2'
p2721
sg155
S'4f8231c1c451eccbbbc13c104ea9e27f'
p2722
sg157
(lp2723
g2704
ag124
asg159
Nsba(ibclass
BBasicBlock
p2724
(dp2725
g12
Nsg13
(lp2726
(ibclass
BInstr
p2727
(dp2728
g2
Nsg17
S'CMP     R10, #0'
p2729
sg19
S'00005ae3'
p2730
sg21
Vcmp sl, #0
p2731
sg5
L209876L
sg6
Nsg23
S'CMP'
p2732
sg25
S'0x333d4L'
p2733
sg27
Nsba(ibclass
BInstr
p2734
(dp2735
g2
Nsg17
S'BLE     loc_333F8'
p2736
sg19
S'060000da'
p2737
sg21
Vble #0x20
p2738
sg5
L209880L
sg6
Nsg23
g124
sg25
S'0x333d8L'
p2739
sg27
Nsbasg126
(lp2740
S'CMP R10, #0'
p2741
aS'BLE func'
p2742
asg143
Nsg5
S'0x333d4L'
p2743
sg145
(lp2744
S'0x333ccL'
p2745
asg6
Nsg147
(lp2746
S'0x333dcL'
p2747
aS'0x333f8L'
p2748
asg151
Nsg152
Nsg153
S'c78fd620a449e3c979d3f3ec12d4ee88'
p2749
sg155
S'a63a1fd5822e6d85ebab5aaf0c582768'
p2750
sg157
(lp2751
g2732
ag124
asg159
Nsba(ibclass
BBasicBlock
p2752
(dp2753
g12
Nsg13
(lp2754
(ibclass
BInstr
p2755
(dp2756
g2
Nsg17
S'CMP     R10, #0x1F'
p2757
sg19
S'1f005ae3'
p2758
sg21
Vcmp sl, #0x1f
p2759
sg5
L209884L
sg6
Nsg23
S'CMP'
p2760
sg25
S'0x333dcL'
p2761
sg27
Nsba(ibclass
BInstr
p2762
(dp2763
g2
Nsg17
S'BHI     loc_3337C'
p2764
sg19
S'e5ffff8a'
p2765
sg21
Vbhi #0xffffff9c
p2766
sg5
L209888L
sg6
Nsg23
g124
sg25
S'0x333e0L'
p2767
sg27
Nsbasg126
(lp2768
S'CMP R10, #0x1F'
p2769
aS'BHI func'
p2770
asg143
Nsg5
S'0x333dcL'
p2771
sg145
(lp2772
S'0x333d4L'
p2773
asg6
Nsg147
(lp2774
S'0x3337cL'
p2775
aS'0x333e4L'
p2776
asg151
Nsg152
Nsg153
S'c78fd620a449e3c979d3f3ec12d4ee88'
p2777
sg155
S'7a227acb20932a0fe2a65ca4d2efa922'
p2778
sg157
(lp2779
g2760
ag124
asg159
Nsba(ibclass
BBasicBlock
p2780
(dp2781
g12
Nsg13
(lp2782
(ibclass
BInstr
p2783
(dp2784
g2
Nsg17
S'LDR     R3, [bitmap]'
p2785
sg19
S'003098e5'
p2786
sg21
Vldr r3, [r8]
p2787
sg5
L209892L
sg6
Nsg23
S'LDR'
p2788
sg25
S'0x333e4L'
p2789
sg27
Nsba(ibclass
BInstr
p2790
(dp2791
g2
Nsg17
S'MOV     R3, R3,LSL R10'
p2792
sg19
S'133aa0e1'
p2793
sg21
Vlsl r3, r3, sl
p2794
sg5
L209896L
sg6
Nsg23
S'MOV'
p2795
sg25
S'0x333e8L'
p2796
sg27
Nsba(ibclass
BInstr
p2797
(dp2798
g2
Nsg17
S'ORR     R3, R3, #1'
p2799
sg19
S'013083e3'
p2800
sg21
Vorr r3, r3, #1
p2801
sg5
L209900L
sg6
Nsg23
S'ORR'
p2802
sg25
S'0x333ecL'
p2803
sg27
Nsba(ibclass
BInstr
p2804
(dp2805
g2
Nsg17
S'STR     R3, [bitmap]'
p2806
sg19
S'003088e5'
p2807
sg21
Vstr r3, [r8]
p2808
sg5
L209904L
sg6
Nsg23
S'STR'
p2809
sg25
S'0x333f0L'
p2810
sg27
Nsba(ibclass
BInstr
p2811
(dp2812
g2
Nsg17
S'B       loc_33384'
p2813
sg19
S'e2ffffea'
p2814
sg21
Vb #0xffffff90
p2815
sg5
L209908L
sg6
Nsg23
g124
sg25
S'0x333f4L'
p2816
sg27
Nsbasg126
(lp2817
S'LDR R3, mem'
p2818
aS'MOV R3, R3,LSL R10'
p2819
aS'ORR R3, R3, #1'
p2820
aS'STR R3, mem'
p2821
aS'B func'
p2822
asg143
Nsg5
S'0x333e4L'
p2823
sg145
(lp2824
S'0x333dcL'
p2825
asg6
Nsg147
(lp2826
S'0x33384L'
p2827
asg151
Nsg152
Nsg153
S'acf9768900bb62ffb1c3e61c9634661b'
p2828
sg155
S'be99e938bb8ec54cc249f39dfa2aa64b'
p2829
sg157
(lp2830
g2788
ag2795
ag2802
ag2809
ag124
asg159
Nsba(ibclass
BBasicBlock
p2831
(dp2832
g12
Nsg13
(lp2833
(ibclass
BInstr
p2834
(dp2835
g2
Nsg17
S'RSB     R10, R10, #0'
p2836
sg19
S'00a06ae2'
p2837
sg21
Vrsb sl, sl, #0
p2838
sg5
L209912L
sg6
Nsg23
S'RSB'
p2839
sg25
S'0x333f8L'
p2840
sg27
Nsba(ibclass
BInstr
p2841
(dp2842
g2
Nsg17
S'CMP     R10, #0x1F'
p2843
sg19
S'1f005ae3'
p2844
sg21
Vcmp sl, #0x1f
p2845
sg5
L209916L
sg6
Nsg23
S'CMP'
p2846
sg25
S'0x333fcL'
p2847
sg27
Nsba(ibclass
BInstr
p2848
(dp2849
g2
Nsg17
S'BHI     loc_33248'
p2850
sg19
S'90ffff8a'
p2851
sg21
Vbhi #0xfffffe48
p2852
sg5
L209920L
sg6
Nsg23
g124
sg25
S'0x33400L'
p2853
sg27
Nsbasg126
(lp2854
S'RSB R10, R10, #0'
p2855
aS'CMP R10, #0x1F'
p2856
aS'BHI func'
p2857
asg143
Nsg5
S'0x333f8L'
p2858
sg145
(lp2859
S'0x333d4L'
p2860
asg6
Nsg147
(lp2861
S'0x33248L'
p2862
aS'0x33404L'
p2863
asg151
Nsg152
Nsg153
S'aa3283b8fd7bd3709706fef1746a0ec2'
p2864
sg155
S'11736710e3c297b2873c41ea79017452'
p2865
sg157
(lp2866
g2839
ag2846
ag124
asg159
Nsba(ibclass
BBasicBlock
p2867
(dp2868
g12
Nsg13
(lp2869
(ibclass
BInstr
p2870
(dp2871
g2
Nsg17
S'LDR     R3, [bitmap]'
p2872
sg19
S'003098e5'
p2873
sg21
Vldr r3, [r8]
p2874
sg5
L209924L
sg6
Nsg23
S'LDR'
p2875
sg25
S'0x33404L'
p2876
sg27
Nsba(ibclass
BInstr
p2877
(dp2878
g2
Nsg17
S'MOV     R0, #1'
p2879
sg19
S'0100a0e3'
p2880
sg21
Vmov r0, #1
p2881
sg5
L209928L
sg6
Nsg23
S'MOV'
p2882
sg25
S'0x33408L'
p2883
sg27
Nsba(ibclass
BInstr
p2884
(dp2885
g2
Nsg17
S'ORR     R3, R3, R0,LSL R10'
p2886
sg19
S'103a83e1'
p2887
sg21
Vorr r3, r3, r0, lsl sl
p2888
sg5
L209932L
sg6
Nsg23
S'ORR'
p2889
sg25
S'0x3340cL'
p2890
sg27
Nsba(ibclass
BInstr
p2891
(dp2892
g2
Nsg17
S'STR     R3, [bitmap]'
p2893
sg19
S'003088e5'
p2894
sg21
Vstr r3, [r8]
p2895
sg5
L209936L
sg6
Nsg23
S'STR'
p2896
sg25
S'0x33410L'
p2897
sg27
Nsba(ibclass
BInstr
p2898
(dp2899
g2
Nsg17
S'B       loc_3303C'
p2900
sg19
S'08ffffea'
p2901
sg21
Vb #0xfffffc28
p2902
sg5
L209940L
sg6
Nsg23
g124
sg25
S'0x33414L'
p2903
sg27
Nsbasg126
(lp2904
S'LDR R3, mem'
p2905
aS'MOV R0, #1'
p2906
aS'ORR R3, R3, R0,LSL R10'
p2907
aS'STR R3, mem'
p2908
aS'B func'
p2909
asg143
Nsg5
S'0x33404L'
p2910
sg145
(lp2911
S'0x333f8L'
p2912
asg6
Nsg147
(lp2913
S'0x3303cL'
p2914
asg151
Nsg152
Nsg153
S'acf9768900bb62ffb1c3e61c9634661b'
p2915
sg155
S'af4e26e6d73c74ac0ae17ae698840048'
p2916
sg157
(lp2917
g2875
ag2882
ag2889
ag2896
ag124
asg159
Nsbasb.