(ibclass
BFunc
p0
(dp1
S'hash'
p2
NsS'name'
p3
S'EVP_EncryptUpdate'
p4
sS'start_address'
p5
L884212L
sS'flag'
p6
NsS'program'
p7
NsS'bbs'
p8
(lp9
(ibclass
BBasicBlock
p10
(dp11
S'function'
p12
NsS'binstrs'
p13
(lp14
(ibclass
BInstr
p15
(dp16
g2
NsS'disasm'
p17
S'STMFD   SP!, {R4,R5,LR}'
p18
sS'bytes'
p19
S'30402de9'
p20
sS'disasm_striped'
p21
Vpush {r4, r5, lr}
p22
sg5
L884212L
sg6
NsS'mnem'
p23
S'STM'
p24
sS'address'
p25
S'0xd7df4L'
p26
sS'basicblock'
p27
Nsba(ibclass
BInstr
p28
(dp29
g2
Nsg17
S'LDR     R4, [ctx,#8]'
p30
sg19
S'084090e5'
p31
sg21
Vldr r4, [r0, #8]
p32
sg5
L884216L
sg6
Nsg23
S'LDR'
p33
sg25
S'0xd7df8L'
p34
sg27
Nsba(ibclass
BInstr
p35
(dp36
g2
Nsg17
S'LDR     R12, =($_GLOBAL_OFFSET_TABLE_ - 0xD7E10)'
p37
sg19
S'50c09fe5'
p38
sg21
Vldr ip, [pc, #0x50]
p39
sg5
L884220L
sg6
Nsg23
S'LDR'
p40
sg25
S'0xd7dfcL'
p41
sg27
Nsba(ibclass
BInstr
p42
(dp43
g2
Nsg17
S'SUB     SP, SP, #0xC'
p44
sg19
S'0cd04de2'
p45
sg21
Vsub sp, sp, #0xc
p46
sg5
L884224L
sg6
Nsg23
S'SUB'
p47
sg25
S'0xd7e00L'
p48
sg27
Nsba(ibclass
BInstr
p49
(dp50
g2
Nsg17
S'CMP     R4, #0'
p51
sg19
S'000054e3'
p52
sg21
Vcmp r4, #0
p53
sg5
L884228L
sg6
Nsg23
S'CMP'
p54
sg25
S'0xd7e04L'
p55
sg27
Nsba(ibclass
BInstr
p56
(dp57
g2
Nsg17
S'ADD     R12, PC, R12 ; $_GLOBAL_OFFSET_TABLE_'
p58
sg19
S'0cc08fe0'
p59
sg21
Vadd ip, pc, ip
p60
sg5
L884232L
sg6
Nsg23
S'ADD'
p61
sg25
S'0xd7e08L'
p62
sg27
Nsba(ibclass
BInstr
p63
(dp64
g2
Nsg17
S'LDR     R5, [SP,#0x18+inl]'
p65
sg19
S'18509de5'
p66
sg21
Vldr r5, [sp, #0x18]
p67
sg5
L884236L
sg6
Nsg23
S'LDR'
p68
sg25
S'0xd7e0cL'
p69
sg27
Nsba(ibclass
BInstr
p70
(dp71
g2
Nsg17
S'BEQ     loc_D7E24'
p72
sg19
S'0300000a'
p73
sg21
Vbeq #0x14
p74
sg5
L884240L
sg6
Nsg23
S'B'
p75
sg25
S'0xd7e10L'
p76
sg27
NsbasS'disasm_list'
p77
(lp78
S'STMFD SP!, {R4,R5,LR}'
p79
aS'LDR R4, mem'
p80
aS'LDR R12, =($_GLOBAL_OFFSET_TABLE_ - 0xD7E10)'
p81
aS'SUB SP, SP, #0xC'
p82
aS'CMP R4, #0'
p83
aS'ADD R12, PC, R12'
p84
aS'LDR R5, mem'
p85
aS'BEQ func'
p86
asS'end_address'
p87
Nsg5
S'0xd7df4L'
p88
sS'preds'
p89
(lp90
sg6
NsS'succs'
p91
(lp92
S'0xd7e14L'
p93
aS'0xd7e24L'
p94
asS'hash_v3'
p95
NsS'flag_v2'
p96
NsS'hash_v1'
p97
S'760aede114f1ec279b2696396187186e'
p98
sS'hash_v2'
p99
S'ecf71ea4fef8ec0dbd32fedbb9bbf653'
p100
sS'mnen_list'
p101
(lp102
g24
ag33
ag40
ag47
ag54
ag61
ag68
ag75
asS'neighbour_disasm_list'
p103
Nsba(ibclass
BBasicBlock
p104
(dp105
g12
Nsg13
(lp106
(ibclass
BInstr
p107
(dp108
g2
Nsg17
S'STR     inl_0, [SP,#0x18+inl]; inl'
p109
sg19
S'18508de5'
p110
sg21
Vstr r5, [sp, #0x18]
p111
sg5
L884244L
sg6
Nsg23
S'STR'
p112
sg25
S'0xd7e14L'
p113
sg27
Nsba(ibclass
BInstr
p114
(dp115
g2
Nsg17
S'ADD     SP, SP, #0xC'
p116
sg19
S'0cd08de2'
p117
sg21
Vadd sp, sp, #0xc
p118
sg5
L884248L
sg6
Nsg23
S'ADD'
p119
sg25
S'0xd7e18L'
p120
sg27
Nsba(ibclass
BInstr
p121
(dp122
g2
Nsg17
S'LDMFD   SP!, {R4,inl_0,LR}'
p123
sg19
S'3040bde8'
p124
sg21
Vpop {r4, r5, lr}
p125
sg5
L884252L
sg6
Nsg23
S'LDM'
p126
sg25
S'0xd7e1cL'
p127
sg27
Nsba(ibclass
BInstr
p128
(dp129
g2
Nsg17
S'B       evp_EncryptDecryptUpdate'
p130
sg19
S'72ffffea'
p131
sg21
Vb #0xfffffdd0
p132
sg5
L884256L
sg6
Nsg23
g75
sg25
S'0xd7e20L'
p133
sg27
Nsbasg77
(lp134
S'STR inl_0, mem'
p135
aS'ADD SP, SP, #0xC'
p136
aS'LDMFD SP!, {R4,inl_0,LR}'
p137
aS'B evp_EncryptDecryptUpdate'
p138
asg87
Nsg5
S'0xd7e14L'
p139
sg89
(lp140
S'0xd7df4L'
p141
asg6
Nsg91
(lp142
S'0xd7bf0L'
p143
asg95
Nsg96
Nsg97
S'b6fce5f839610ac32ee16908183bb1cd'
p144
sg99
S'06778cc6b09dc502a47fef63832c4d2b'
p145
sg101
(lp146
g112
ag119
ag126
ag75
asg103
Nsba(ibclass
BBasicBlock
p147
(dp148
g12
Nsg13
(lp149
(ibclass
BInstr
p150
(dp151
g2
Nsg17
S'LDR     in, =(aEvp_enc_c - 0x18F000)'
p152
sg19
S'2c309fe5'
p153
sg21
Vldr r3, [pc, #0x2c]
p154
sg5
L884260L
sg6
Nsg23
S'LDR'
p155
sg25
S'0xd7e24L'
p156
sg27
Nsba(ibclass
BInstr
p157
(dp158
g2
Nsg17
S'MOV     ctx, #6         ; lib'
p159
sg19
S'0600a0e3'
p160
sg21
Vmov r0, #6
p161
sg5
L884264L
sg6
Nsg23
S'MOV'
p162
sg25
S'0xd7e28L'
p163
sg27
Nsba(ibclass
BInstr
p164
(dp165
g2
Nsg17
S'ADD     R3, R12, R3     ; "evp_enc.c"'
p166
sg19
S'03308ce0'
p167
sg21
Vadd r3, ip, r3
p168
sg5
L884268L
sg6
Nsg23
S'ADD'
p169
sg25
S'0xd7e2cL'
p170
sg27
Nsba(ibclass
BInstr
p171
(dp172
g2
Nsg17
S'LDR     R12, =0x185'
p173
sg19
S'24c09fe5'
p174
sg21
Vldr ip, [pc, #0x24]
p175
sg5
L884272L
sg6
Nsg23
S'LDR'
p176
sg25
S'0xd7e30L'
p177
sg27
Nsba(ibclass
BInstr
p178
(dp179
g2
Nsg17
S'MOV     out, #0xB4      ; func'
p180
sg19
S'b410a0e3'
p181
sg21
Vmov r1, #0xb4
p182
sg5
L884276L
sg6
Nsg23
S'MOV'
p183
sg25
S'0xd7e34L'
p184
sg27
Nsba(ibclass
BInstr
p185
(dp186
g2
Nsg17
S'MOV     outl, #0x94     ; reason'
p187
sg19
S'9420a0e3'
p188
sg21
Vmov r2, #0x94
p189
sg5
L884280L
sg6
Nsg23
S'MOV'
p190
sg25
S'0xd7e38L'
p191
sg27
Nsba(ibclass
BInstr
p192
(dp193
g2
Nsg17
S'STR     R12, [SP,#0x18+line]; line'
p194
sg19
S'00c08de5'
p195
sg21
Vstr ip, [sp]
p196
sg5
L884284L
sg6
Nsg23
S'STR'
p197
sg25
S'0xd7e3cL'
p198
sg27
Nsba(ibclass
BInstr
p199
(dp200
g2
Nsg17
S'BL      ERR_put_error'
p201
sg19
S'e2f8ffeb'
p202
sg21
Vbl #0xffffe390
p203
sg5
L884288L
sg6
Nsg23
S'BL'
p204
sg25
S'0xd7e40L'
p205
sg27
Nsba(ibclass
BInstr
p206
(dp207
g2
Nsg17
S'MOV     R0, R4'
p208
sg19
S'0400a0e1'
p209
sg21
Vmov r0, r4
p210
sg5
L884292L
sg6
Nsg23
S'MOV'
p211
sg25
S'0xd7e44L'
p212
sg27
Nsba(ibclass
BInstr
p213
(dp214
g2
Nsg17
S'ADD     SP, SP, #0xC'
p215
sg19
S'0cd08de2'
p216
sg21
Vadd sp, sp, #0xc
p217
sg5
L884296L
sg6
Nsg23
S'ADD'
p218
sg25
S'0xd7e48L'
p219
sg27
Nsba(ibclass
BInstr
p220
(dp221
g2
Nsg17
S'LDMFD   SP!, {R4,inl_0,LR}'
p222
sg19
S'3040bde8'
p223
sg21
Vpop {r4, r5, lr}
p224
sg5
L884300L
sg6
Nsg23
S'LDM'
p225
sg25
S'0xd7e4cL'
p226
sg27
Nsba(ibclass
BInstr
p227
(dp228
g2
Nsg17
S'BX      LR'
p229
sg19
S'1eff2fe1'
p230
sg21
Vbx lr
p231
sg5
L884304L
sg6
Nsg23
S'BX'
p232
sg25
S'0xd7e50L'
p233
sg27
Nsbasg77
(lp234
S'LDR in, =(aEvp_enc_c - 0x18F000)'
p235
aS'MOV ctx, #6'
p236
aS'ADD R3, R12, R3'
p237
aS'LDR R12, =0x185'
p238
aS'MOV out, #0xB4'
p239
aS'MOV outl, #0x94'
p240
aS'STR R12, mem'
p241
aS'BL ERR_put_error'
p242
aS'MOV R0, R4'
p243
aS'ADD SP, SP, #0xC'
p244
aS'LDMFD SP!, {R4,inl_0,LR}'
p245
aS'BX LR'
p246
asg87
Nsg5
S'0xd7e24L'
p247
sg89
(lp248
S'0xd7df4L'
p249
asg6
Nsg91
(lp250
sg95
Nsg96
Nsg97
S'4a4dc46b2fbc4cfa275d9528ff8aac8e'
p251
sg99
S'8113a7766befee30ee0f9e06e9b29384'
p252
sg101
(lp253
g155
ag162
ag169
ag176
ag183
ag190
ag197
ag204
ag211
ag218
ag225
ag232
asg103
Nsba(ibclass
BBasicBlock
p254
(dp255
g12
Nsg13
(lp256
(ibclass
BInstr
p257
(dp258
g2
Nsg17
S'STMFD   SP!, {R4-R11,LR}'
p259
sg19
Nsg21
S''
p260
sg5
L883696L
sg6
Nsg23
S'STM'
p261
sg25
S'0xd7bf0L'
p262
sg27
Nsbasg77
(lp263
S'STMFD SP!, {R4-R11,LR}'
p264
asg87
Nsg5
S'0xd7bf0L'
p265
sg89
(lp266
S'0xd7e14L'
p267
asg6
Nsg91
(lp268
sg95
Nsg96
Nsg97
S'0c2132b36166716de0d0220567fb911f'
p269
sg99
S'1d403c967407905eeaaf65827463120e'
p270
sg101
(lp271
g261
asg103
Nsbasb.