(ibclass
BFunc
p0
(dp1
S'hash'
p2
NsS'name'
p3
S'PKCS7_set_digest'
p4
sS'start_address'
p5
L1194308L
sS'flag'
p6
NsS'program'
p7
NsS'bbs'
p8
(lp9
(ibclass
BBasicBlock
p10
(dp11
S'function'
p12
NsS'binstrs'
p13
(lp14
(ibclass
BInstr
p15
(dp16
g2
NsS'disasm'
p17
S'STMFD   SP!, {R4-R8,LR}'
p18
sS'bytes'
p19
S'f0412de9'
p20
sS'disasm_striped'
p21
Vpush {r4, r5, r6, r7, r8, lr}
p22
sg5
L1194308L
sg6
NsS'mnem'
p23
S'STM'
p24
sS'address'
p25
S'0x123944L'
p26
sS'basicblock'
p27
Nsba(ibclass
BInstr
p28
(dp29
g2
Nsg17
S'MOV     R5, p7'
p30
sg19
S'0050a0e1'
p31
sg21
Vmov r5, r0
p32
sg5
L1194312L
sg6
Nsg23
S'MOV'
p33
sg25
S'0x123948L'
p34
sg27
Nsba(ibclass
BInstr
p35
(dp36
g2
Nsg17
S'SUB     SP, SP, #8'
p37
sg19
S'08d04de2'
p38
sg21
Vsub sp, sp, #8
p39
sg5
L1194316L
sg6
Nsg23
S'SUB'
p40
sg25
S'0x12394cL'
p41
sg27
Nsba(ibclass
BInstr
p42
(dp43
g2
Nsg17
S'LDR     p7, [p7,#0x10]  ; a'
p44
sg19
S'100090e5'
p45
sg21
Vldr r0, [r0, #0x10]
p46
sg5
L1194320L
sg6
Nsg23
S'LDR'
p47
sg25
S'0x123950L'
p48
sg27
Nsba(ibclass
BInstr
p49
(dp50
g2
Nsg17
S'MOV     R7, md'
p51
sg19
S'0170a0e1'
p52
sg21
Vmov r7, r1
p53
sg5
L1194324L
sg6
Nsg23
S'MOV'
p54
sg25
S'0x123954L'
p55
sg27
Nsba(ibclass
BInstr
p56
(dp57
g2
Nsg17
S'BL      OBJ_obj2nid'
p58
sg19
S'af9afceb'
p59
sg21
Vbl #0xfff26ac4
p60
sg5
L1194328L
sg6
Nsg23
S'BL'
p61
sg25
S'0x123958L'
p62
sg27
Nsba(ibclass
BInstr
p63
(dp64
g2
Nsg17
S'LDR     R6, =($_GLOBAL_OFFSET_TABLE_ - 0x12396C)'
p65
sg19
S'a8609fe5'
p66
sg21
Vldr r6, [pc, #0xa8]
p67
sg5
L1194332L
sg6
Nsg23
S'LDR'
p68
sg25
S'0x12395cL'
p69
sg27
Nsba(ibclass
BInstr
p70
(dp71
g2
Nsg17
S'CMP     R0, #0x19'
p72
sg19
S'190050e3'
p73
sg21
Vcmp r0, #0x19
p74
sg5
L1194336L
sg6
Nsg23
S'CMP'
p75
sg25
S'0x123960L'
p76
sg27
Nsba(ibclass
BInstr
p77
(dp78
g2
Nsg17
S'ADD     R6, PC, R6 ; $_GLOBAL_OFFSET_TABLE_'
p79
sg19
S'06608fe0'
p80
sg21
Vadd r6, pc, r6
p81
sg5
L1194340L
sg6
Nsg23
S'ADD'
p82
sg25
S'0x123964L'
p83
sg27
Nsba(ibclass
BInstr
p84
(dp85
g2
Nsg17
S'BEQ     loc_12399C'
p86
sg19
S'0b00000a'
p87
sg21
Vbeq #0x34
p88
sg5
L1194344L
sg6
Nsg23
S'B'
p89
sg25
S'0x123968L'
p90
sg27
NsbasS'disasm_list'
p91
(lp92
S'STMFD SP!, {R4-R8,LR}'
p93
aS'MOV R5, p7'
p94
aS'SUB SP, SP, #8'
p95
aS'LDR p7, mem'
p96
aS'MOV R7, md'
p97
aS'BL OBJ_obj2nid'
p98
aS'LDR R6, =($_GLOBAL_OFFSET_TABLE_ - addressC)'
p99
aS'CMP R0, #0x19'
p100
aS'ADD R6, PC, R6'
p101
aS'BEQ func'
p102
asS'end_address'
p103
Nsg5
S'0x123944L'
p104
sS'preds'
p105
(lp106
sg6
NsS'succs'
p107
(lp108
S'0x12396cL'
p109
aS'0x12399cL'
p110
asS'hash_v3'
p111
NsS'flag_v2'
p112
NsS'hash_v1'
p113
S'bfd310cee0110b8b9d881f15e772e2d3'
p114
sS'hash_v2'
p115
S'7d34b7b5575e9ec1f651766d0a048836'
p116
sS'mnen_list'
p117
(lp118
g24
ag33
ag40
ag47
ag54
ag61
ag68
ag75
ag82
ag89
asS'neighbour_disasm_list'
p119
Nsba(ibclass
BBasicBlock
p120
(dp121
g12
Nsg13
(lp122
(ibclass
BInstr
p123
(dp124
g2
Nsg17
S'LDR     R3, =(aPk7_lib_c - 0x189000)'
p125
sg19
S'9c309fe5'
p126
sg21
Vldr r3, [pc, #0x9c]
p127
sg5
L1194348L
sg6
Nsg23
S'LDR'
p128
sg25
S'0x12396cL'
p129
sg27
Nsba(ibclass
BInstr
p130
(dp131
g2
Nsg17
S'LDR     R12, =0x1BA'
p132
sg19
S'9cc09fe5'
p133
sg21
Vldr ip, [pc, #0x9c]
p134
sg5
L1194352L
sg6
Nsg23
S'LDR'
p135
sg25
S'0x123970L'
p136
sg27
Nsba(ibclass
BInstr
p137
(dp138
g2
Nsg17
S'MOV     R0, #0x21       ; lib'
p139
sg19
S'2100a0e3'
p140
sg21
Vmov r0, #0x21
p141
sg5
L1194356L
sg6
Nsg23
S'MOV'
p142
sg25
S'0x123974L'
p143
sg27
Nsba(ibclass
BInstr
p144
(dp145
g2
Nsg17
S'ADD     R3, R6, R3      ; "pk7_lib.c"'
p146
sg19
S'033086e0'
p147
sg21
Vadd r3, r6, r3
p148
sg5
L1194360L
sg6
Nsg23
S'ADD'
p149
sg25
S'0x123978L'
p150
sg27
Nsba(ibclass
BInstr
p151
(dp152
g2
Nsg17
S'MOV     R1, #0x7E       ; func'
p153
sg19
S'7e10a0e3'
p154
sg21
Vmov r1, #0x7e
p155
sg5
L1194364L
sg6
Nsg23
S'MOV'
p156
sg25
S'0x12397cL'
p157
sg27
Nsba(ibclass
BInstr
p158
(dp159
g2
Nsg17
S'MOV     R2, #0x71       ; reason'
p160
sg19
S'7120a0e3'
p161
sg21
Vmov r2, #0x71
p162
sg5
L1194368L
sg6
Nsg23
S'MOV'
p163
sg25
S'0x123980L'
p164
sg27
Nsba(ibclass
BInstr
p165
(dp166
g2
Nsg17
S'STR     R12, [SP,#0x20+line]; line'
p167
sg19
S'00c08de5'
p168
sg21
Vstr ip, [sp]
p169
sg5
L1194372L
sg6
Nsg23
S'STR'
p170
sg25
S'0x123984L'
p171
sg27
Nsba(ibclass
BInstr
p172
(dp173
g2
Nsg17
S'BL      ERR_put_error'
p174
sg19
S'beb8feeb'
p175
sg21
Vbl #0xfffae300
p176
sg5
L1194376L
sg6
Nsg23
S'BL'
p177
sg25
S'0x123988L'
p178
sg27
Nsba(ibclass
BInstr
p179
(dp180
g2
Nsg17
S'MOV     R0, #1'
p181
sg19
S'0100a0e3'
p182
sg21
Vmov r0, #1
p183
sg5
L1194380L
sg6
Nsg23
S'MOV'
p184
sg25
S'0x12398cL'
p185
sg27
Nsbasg91
(lp186
S'LDR R3, =(aPk7_lib_c - address0)'
p187
aS'LDR R12, =0x1BA'
p188
aS'MOV R0, #0x21'
p189
aS'ADD R3, R6, R3'
p190
aS'MOV R1, #0x7E'
p191
aS'MOV R2, #0x71'
p192
aS'STR R12, mem'
p193
aS'BL ERR_put_error'
p194
aS'MOV R0, #1'
p195
asg103
Nsg5
S'0x12396cL'
p196
sg105
(lp197
S'0x123944L'
p198
asg6
Nsg107
(lp199
S'0x123990L'
p200
asg111
Nsg112
Nsg113
S'20abdf4b53cebaaa6eacbe5a8493ad3d'
p201
sg115
S'59ebaea8be44977fa8c85e6354072097'
p202
sg117
(lp203
g128
ag135
ag142
ag149
ag156
ag163
ag170
ag177
ag184
asg119
Nsba(ibclass
BBasicBlock
p204
(dp205
g12
Nsg13
(lp206
(ibclass
BInstr
p207
(dp208
g2
Nsg17
S'ADD     SP, SP, #8'
p209
sg19
S'08d08de2'
p210
sg21
Vadd sp, sp, #8
p211
sg5
L1194384L
sg6
Nsg23
S'ADD'
p212
sg25
S'0x123990L'
p213
sg27
Nsba(ibclass
BInstr
p214
(dp215
g2
Nsg17
S'LDMFD   SP!, {R4-R8,LR}'
p216
sg19
S'f041bde8'
p217
sg21
Vpop {r4, r5, r6, r7, r8, lr}
p218
sg5
L1194388L
sg6
Nsg23
S'LDM'
p219
sg25
S'0x123994L'
p220
sg27
Nsba(ibclass
BInstr
p221
(dp222
g2
Nsg17
S'BX      LR'
p223
sg19
S'1eff2fe1'
p224
sg21
Vbx lr
p225
sg5
L1194392L
sg6
Nsg23
S'BX'
p226
sg25
S'0x123998L'
p227
sg27
Nsbasg91
(lp228
S'ADD SP, SP, #8'
p229
aS'LDMFD SP!, {R4-R8,LR}'
p230
aS'BX LR'
p231
asg103
Nsg5
S'0x123990L'
p232
sg105
(lp233
S'0x12396cL'
p234
aS'0x1239b8L'
p235
aS'0x1239e4L'
p236
asg6
Nsg107
(lp237
sg111
Nsg112
Nsg113
S'fb02e3799554a1c259ca4724e19b2b8e'
p238
sg115
S'4c8efbd7f571904e3f641facdac38bb9'
p239
sg117
(lp240
g212
ag219
ag226
asg119
Nsba(ibclass
BBasicBlock
p241
(dp242
g12
Nsg13
(lp243
(ibclass
BInstr
p244
(dp245
g2
Nsg17
S'LDR     R3, [p7,#0x14]'
p246
sg19
S'143095e5'
p247
sg21
Vldr r3, [r5, #0x14]
p248
sg5
L1194396L
sg6
Nsg23
S'LDR'
p249
sg25
S'0x12399cL'
p250
sg27
Nsba(ibclass
BInstr
p251
(dp252
g2
Nsg17
S'LDR     R8, [R3,#4]'
p253
sg19
S'048093e5'
p254
sg21
Vldr r8, [r3, #4]
p255
sg5
L1194400L
sg6
Nsg23
S'LDR'
p256
sg25
S'0x1239a0L'
p257
sg27
Nsba(ibclass
BInstr
p258
(dp259
g2
Nsg17
S'BL      ASN1_TYPE_new'
p260
sg19
S'923bffeb'
p261
sg21
Vbl #0xfffcee50
p262
sg5
L1194404L
sg6
Nsg23
S'BL'
p263
sg25
S'0x1239a4L'
p264
sg27
Nsba(ibclass
BInstr
p265
(dp266
g2
Nsg17
S'CMP     R0, #0'
p267
sg19
S'000050e3'
p268
sg21
Vcmp r0, #0
p269
sg5
L1194408L
sg6
Nsg23
S'CMP'
p270
sg25
S'0x1239a8L'
p271
sg27
Nsba(ibclass
BInstr
p272
(dp273
g2
Nsg17
S'MOV     R4, R0'
p274
sg19
S'0040a0e1'
p275
sg21
Vmov r4, r0
p276
sg5
L1194412L
sg6
Nsg23
S'MOV'
p277
sg25
S'0x1239acL'
p278
sg27
Nsba(ibclass
BInstr
p279
(dp280
g2
Nsg17
S'STR     R0, [R8,#4]'
p281
sg19
S'040088e5'
p282
sg21
Vstr r0, [r8, #4]
p283
sg5
L1194416L
sg6
Nsg23
S'STR'
p284
sg25
S'0x1239b0L'
p285
sg27
Nsba(ibclass
BInstr
p286
(dp287
g2
Nsg17
S'BEQ     loc_1239E4'
p288
sg19
S'0a00000a'
p289
sg21
Vbeq #0x30
p290
sg5
L1194420L
sg6
Nsg23
g89
sg25
S'0x1239b4L'
p291
sg27
Nsbasg91
(lp292
S'LDR R3, mem'
p293
aS'LDR R8, mem'
p294
aS'BL ASN1_TYPE_new'
p295
aS'CMP R0, #0'
p296
aS'MOV R4, R0'
p297
aS'STR R0, mem'
p298
aS'BEQ func'
p299
asg103
Nsg5
S'0x12399cL'
p300
sg105
(lp301
S'0x123944L'
p302
asg6
Nsg107
(lp303
S'0x1239b8L'
p304
aS'0x1239e4L'
p305
asg111
Nsg112
Nsg113
S'61317d6bce132affc1c71a8530a3504b'
p306
sg115
S'afd57998cfb4ab73949aa1d1728c579e'
p307
sg117
(lp308
g249
ag256
ag263
ag270
ag277
ag284
ag89
asg119
Nsba(ibclass
BBasicBlock
p309
(dp310
g12
Nsg13
(lp311
(ibclass
BInstr
p312
(dp313
g2
Nsg17
S'LDR     R3, [p7,#0x14]'
p314
sg19
S'143095e5'
p315
sg21
Vldr r3, [r5, #0x14]
p316
sg5
L1194424L
sg6
Nsg23
S'LDR'
p317
sg25
S'0x1239b8L'
p318
sg27
Nsba(ibclass
BInstr
p319
(dp320
g2
Nsg17
S'MOV     R2, #5'
p321
sg19
S'0520a0e3'
p322
sg21
Vmov r2, #5
p323
sg5
L1194428L
sg6
Nsg23
S'MOV'
p324
sg25
S'0x1239bcL'
p325
sg27
Nsba(ibclass
BInstr
p326
(dp327
g2
Nsg17
S'LDR     R4, [R3,#4]'
p328
sg19
S'044093e5'
p329
sg21
Vldr r4, [r3, #4]
p330
sg5
L1194432L
sg6
Nsg23
S'LDR'
p331
sg25
S'0x1239c0L'
p332
sg27
Nsba(ibclass
BInstr
p333
(dp334
g2
Nsg17
S'MOV     R0, md          ; md'
p335
sg19
S'0700a0e1'
p336
sg21
Vmov r0, r7
p337
sg5
L1194436L
sg6
Nsg23
S'MOV'
p338
sg25
S'0x1239c4L'
p339
sg27
Nsba(ibclass
BInstr
p340
(dp341
g2
Nsg17
S'LDR     R3, [R4,#4]'
p342
sg19
S'043094e5'
p343
sg21
Vldr r3, [r4, #4]
p344
sg5
L1194440L
sg6
Nsg23
S'LDR'
p345
sg25
S'0x1239c8L'
p346
sg27
Nsba(ibclass
BInstr
p347
(dp348
g2
Nsg17
S'STR     R2, [R3]'
p349
sg19
S'002083e5'
p350
sg21
Vstr r2, [r3]
p351
sg5
L1194444L
sg6
Nsg23
S'STR'
p352
sg25
S'0x1239ccL'
p353
sg27
Nsba(ibclass
BInstr
p354
(dp355
g2
Nsg17
S'BL      EVP_MD_type'
p356
sg19
S'34e4feeb'
p357
sg21
Vbl #0xfffb90d8
p358
sg5
L1194448L
sg6
Nsg23
S'BL'
p359
sg25
S'0x1239d0L'
p360
sg27
Nsba(ibclass
BInstr
p361
(dp362
g2
Nsg17
S'BL      OBJ_nid2obj'
p363
sg19
S'539bfceb'
p364
sg21
Vbl #0xfff26d54
p365
sg5
L1194452L
sg6
Nsg23
S'BL'
p366
sg25
S'0x1239d4L'
p367
sg27
Nsba(ibclass
BInstr
p368
(dp369
g2
Nsg17
S'STR     R0, [R4]'
p370
sg19
S'000084e5'
p371
sg21
Vstr r0, [r4]
p372
sg5
L1194456L
sg6
Nsg23
S'STR'
p373
sg25
S'0x1239d8L'
p374
sg27
Nsba(ibclass
BInstr
p375
(dp376
g2
Nsg17
S'MOV     R0, #1'
p377
sg19
S'0100a0e3'
p378
sg21
Vmov r0, #1
p379
sg5
L1194460L
sg6
Nsg23
S'MOV'
p380
sg25
S'0x1239dcL'
p381
sg27
Nsba(ibclass
BInstr
p382
(dp383
g2
Nsg17
S'B       loc_123990'
p384
sg19
S'eaffffea'
p385
sg21
Vb #0xffffffb0
p386
sg5
L1194464L
sg6
Nsg23
g89
sg25
S'0x1239e0L'
p387
sg27
Nsbasg91
(lp388
S'LDR R3, mem'
p389
aS'MOV R2, #5'
p390
aS'LDR R4, mem'
p391
aS'MOV R0, md'
p392
aS'LDR R3, mem'
p393
aS'STR R2, mem'
p394
aS'BL EVP_MD_type'
p395
aS'BL OBJ_nid2obj'
p396
aS'STR R0, mem'
p397
aS'MOV R0, #1'
p398
aS'B func'
p399
asg103
Nsg5
S'0x1239b8L'
p400
sg105
(lp401
S'0x12399cL'
p402
asg6
Nsg107
(lp403
S'0x123990L'
p404
asg111
Nsg112
Nsg113
S'25ae857c349cdb82cb8dd459f1914ca8'
p405
sg115
S'48493a2a1c2b566f2b6330020c265c6e'
p406
sg117
(lp407
g317
ag324
ag331
ag338
ag345
ag352
ag359
ag366
ag373
ag380
ag89
asg119
Nsba(ibclass
BBasicBlock
p408
(dp409
g12
Nsg13
(lp410
(ibclass
BInstr
p411
(dp412
g2
Nsg17
S'LDR     R3, =(aPk7_lib_c - 0x189000)'
p413
sg19
S'24309fe5'
p414
sg21
Vldr r3, [pc, #0x24]
p415
sg5
L1194468L
sg6
Nsg23
S'LDR'
p416
sg25
S'0x1239e4L'
p417
sg27
Nsba(ibclass
BInstr
p418
(dp419
g2
Nsg17
S'LDR     R12, =0x1B2'
p420
sg19
S'28c09fe5'
p421
sg21
Vldr ip, [pc, #0x28]
p422
sg5
L1194472L
sg6
Nsg23
S'LDR'
p423
sg25
S'0x1239e8L'
p424
sg27
Nsba(ibclass
BInstr
p425
(dp426
g2
Nsg17
S'MOV     R0, #0x21       ; lib'
p427
sg19
S'2100a0e3'
p428
sg21
Vmov r0, #0x21
p429
sg5
L1194476L
sg6
Nsg23
S'MOV'
p430
sg25
S'0x1239ecL'
p431
sg27
Nsba(ibclass
BInstr
p432
(dp433
g2
Nsg17
S'ADD     R3, R6, R3      ; "pk7_lib.c"'
p434
sg19
S'033086e0'
p435
sg21
Vadd r3, r6, r3
p436
sg5
L1194480L
sg6
Nsg23
S'ADD'
p437
sg25
S'0x1239f0L'
p438
sg27
Nsba(ibclass
BInstr
p439
(dp440
g2
Nsg17
S'MOV     R1, #0x7E       ; func'
p441
sg19
S'7e10a0e3'
p442
sg21
Vmov r1, #0x7e
p443
sg5
L1194484L
sg6
Nsg23
S'MOV'
p444
sg25
S'0x1239f4L'
p445
sg27
Nsba(ibclass
BInstr
p446
(dp447
g2
Nsg17
S'MOV     R2, #0x41       ; reason'
p448
sg19
S'4120a0e3'
p449
sg21
Vmov r2, #0x41
p450
sg5
L1194488L
sg6
Nsg23
S'MOV'
p451
sg25
S'0x1239f8L'
p452
sg27
Nsba(ibclass
BInstr
p453
(dp454
g2
Nsg17
S'STR     R12, [SP,#0x20+line]; line'
p455
sg19
S'00c08de5'
p456
sg21
Vstr ip, [sp]
p457
sg5
L1194492L
sg6
Nsg23
S'STR'
p458
sg25
S'0x1239fcL'
p459
sg27
Nsba(ibclass
BInstr
p460
(dp461
g2
Nsg17
S'BL      ERR_put_error'
p462
sg19
S'a0b8feeb'
p463
sg21
Vbl #0xfffae288
p464
sg5
L1194496L
sg6
Nsg23
S'BL'
p465
sg25
S'0x123a00L'
p466
sg27
Nsba(ibclass
BInstr
p467
(dp468
g2
Nsg17
S'MOV     R0, R4'
p469
sg19
S'0400a0e1'
p470
sg21
Vmov r0, r4
p471
sg5
L1194500L
sg6
Nsg23
S'MOV'
p472
sg25
S'0x123a04L'
p473
sg27
Nsba(ibclass
BInstr
p474
(dp475
g2
Nsg17
S'B       loc_123990'
p476
sg19
S'e0ffffea'
p477
sg21
Vb #0xffffff88
p478
sg5
L1194504L
sg6
Nsg23
g89
sg25
S'0x123a08L'
p479
sg27
Nsbasg91
(lp480
S'LDR R3, =(aPk7_lib_c - address0)'
p481
aS'LDR R12, =0x1B2'
p482
aS'MOV R0, #0x21'
p483
aS'ADD R3, R6, R3'
p484
aS'MOV R1, #0x7E'
p485
aS'MOV R2, #0x41'
p486
aS'STR R12, mem'
p487
aS'BL ERR_put_error'
p488
aS'MOV R0, R4'
p489
aS'B func'
p490
asg103
Nsg5
S'0x1239e4L'
p491
sg105
(lp492
S'0x12399cL'
p493
asg6
Nsg107
(lp494
S'0x123990L'
p495
asg111
Nsg112
Nsg113
S'1289b044aba5defe7967504e081b2a6d'
p496
sg115
S'7448925cc1303fa2d7613200e53d3ff1'
p497
sg117
(lp498
g416
ag423
ag430
ag437
ag444
ag451
ag458
ag465
ag472
ag89
asg119
Nsbasb.