(ibclass
BFunc
p0
(dp1
S'hash'
p2
NsS'name'
p3
S'xmlParseElementContentDecl__internal_alias'
p4
sS'start_address'
p5
L308905L
sS'flag'
p6
NsS'program'
p7
NsS'bbs'
p8
(lp9
(ibclass
BBasicBlock
p10
(dp11
S'function'
p12
NsS'binstrs'
p13
(lp14
(ibclass
BInstr
p15
(dp16
g2
NsS'disasm'
p17
S"push    rbp             ; Alternative name is 'xmlParseElementContentDecl'"
p18
sS'bytes'
p19
S'55'
p20
sS'disasm_striped'
p21
Vpush rbp
p22
sg5
L308905L
sg6
NsS'mnem'
p23
S'push'
p24
sS'address'
p25
S'0x4b6a9L'
p26
sS'basicblock'
p27
Nsba(ibclass
BInstr
p28
(dp29
g2
Nsg17
S'mov     rbp, rsp'
p30
sg19
S'4889e5'
p31
sg21
Vmov rbp, rsp
p32
sg5
L308906L
sg6
Nsg23
S'mov'
p33
sg25
S'0x4b6aaL'
p34
sg27
Nsba(ibclass
BInstr
p35
(dp36
g2
Nsg17
S'sub     rsp, 30h'
p37
sg19
S'4883ec30'
p38
sg21
Vsub rsp, 0x30
p39
sg5
L308909L
sg6
Nsg23
S'sub'
p40
sg25
S'0x4b6adL'
p41
sg27
Nsba(ibclass
BInstr
p42
(dp43
g2
Nsg17
S'mov     [rbp+ctxt], rdi'
p44
sg19
S'48897de8'
p45
sg21
Vmov qword ptr [rbp - 0x18], rdi
p46
sg5
L308913L
sg6
Nsg23
S'mov'
p47
sg25
S'0x4b6b1L'
p48
sg27
Nsba(ibclass
BInstr
p49
(dp50
g2
Nsg17
S'mov     [rbp+name], rsi'
p51
sg19
S'488975e0'
p52
sg21
Vmov qword ptr [rbp - 0x20], rsi
p53
sg5
L308917L
sg6
Nsg23
S'mov'
p54
sg25
S'0x4b6b5L'
p55
sg27
Nsba(ibclass
BInstr
p56
(dp57
g2
Nsg17
S'mov     [rbp+result], rdx'
p58
sg19
S'488955d8'
p59
sg21
Vmov qword ptr [rbp - 0x28], rdx
p60
sg5
L308921L
sg6
Nsg23
S'mov'
p61
sg25
S'0x4b6b9L'
p62
sg27
Nsba(ibclass
BInstr
p63
(dp64
g2
Nsg17
S'mov     [rbp+tree], 0'
p65
sg19
S'48c745f800000000'
p66
sg21
Vmov qword ptr [rbp - 8], 0
p67
sg5
L308925L
sg6
Nsg23
S'mov'
p68
sg25
S'0x4b6bdL'
p69
sg27
Nsba(ibclass
BInstr
p70
(dp71
g2
Nsg17
S'mov     rax, [rbp+ctxt]'
p72
sg19
S'488b45e8'
p73
sg21
Vmov rax, qword ptr [rbp - 0x18]
p74
sg5
L308933L
sg6
Nsg23
S'mov'
p75
sg25
S'0x4b6c5L'
p76
sg27
Nsba(ibclass
BInstr
p77
(dp78
g2
Nsg17
S'mov     rax, [rax+38h]'
p79
sg19
S'488b4038'
p80
sg21
Vmov rax, qword ptr [rax + 0x38]
p81
sg5
L308937L
sg6
Nsg23
S'mov'
p82
sg25
S'0x4b6c9L'
p83
sg27
Nsba(ibclass
BInstr
p84
(dp85
g2
Nsg17
S'mov     eax, [rax+64h]'
p86
sg19
S'8b4064'
p87
sg21
Vmov eax, dword ptr [rax + 0x64]
p88
sg5
L308941L
sg6
Nsg23
S'mov'
p89
sg25
S'0x4b6cdL'
p90
sg27
Nsba(ibclass
BInstr
p91
(dp92
g2
Nsg17
S'mov     [rbp+inputid], eax'
p93
sg19
S'8945f4'
p94
sg21
Vmov dword ptr [rbp - 0xc], eax
p95
sg5
L308944L
sg6
Nsg23
S'mov'
p96
sg25
S'0x4b6d0L'
p97
sg27
Nsba(ibclass
BInstr
p98
(dp99
g2
Nsg17
S'mov     rax, [rbp+result]'
p100
sg19
S'488b45d8'
p101
sg21
Vmov rax, qword ptr [rbp - 0x28]
p102
sg5
L308947L
sg6
Nsg23
S'mov'
p103
sg25
S'0x4b6d3L'
p104
sg27
Nsba(ibclass
BInstr
p105
(dp106
g2
Nsg17
S'mov     qword ptr [rax], 0'
p107
sg19
S'48c70000000000'
p108
sg21
Vmov qword ptr [rax], 0
p109
sg5
L308951L
sg6
Nsg23
S'mov'
p110
sg25
S'0x4b6d7L'
p111
sg27
Nsba(ibclass
BInstr
p112
(dp113
g2
Nsg17
S'mov     rax, [rbp+ctxt]'
p114
sg19
S'488b45e8'
p115
sg21
Vmov rax, qword ptr [rbp - 0x18]
p116
sg5
L308958L
sg6
Nsg23
S'mov'
p117
sg25
S'0x4b6deL'
p118
sg27
Nsba(ibclass
BInstr
p119
(dp120
g2
Nsg17
S'mov     rax, [rax+38h]'
p121
sg19
S'488b4038'
p122
sg21
Vmov rax, qword ptr [rax + 0x38]
p123
sg5
L308962L
sg6
Nsg23
S'mov'
p124
sg25
S'0x4b6e2L'
p125
sg27
Nsba(ibclass
BInstr
p126
(dp127
g2
Nsg17
S'mov     rax, [rax+20h]'
p128
sg19
S'488b4020'
p129
sg21
Vmov rax, qword ptr [rax + 0x20]
p130
sg5
L308966L
sg6
Nsg23
S'mov'
p131
sg25
S'0x4b6e6L'
p132
sg27
Nsba(ibclass
BInstr
p133
(dp134
g2
Nsg17
S'movzx   eax, byte ptr [rax]'
p135
sg19
S'0fb600'
p136
sg21
Vmovzx eax, byte ptr [rax]
p137
sg5
L308970L
sg6
Nsg23
S'movzx'
p138
sg25
S'0x4b6eaL'
p139
sg27
Nsba(ibclass
BInstr
p140
(dp141
g2
Nsg17
S'cmp     al, 28h'
p142
sg19
S'3c28'
p143
sg21
Vcmp al, 0x28
p144
sg5
L308973L
sg6
Nsg23
S'cmp'
p145
sg25
S'0x4b6edL'
p146
sg27
Nsba(ibclass
BInstr
p147
(dp148
g2
Nsg17
S'jz      short loc_4B71A'
p149
sg19
S'7429'
p150
sg21
Vje 0x2b
p151
sg5
L308975L
sg6
Nsg23
S'jz'
p152
sg25
S'0x4b6efL'
p153
sg27
NsbasS'disasm_list'
p154
(lp155
S'push reg'
p156
aS'mov reg, reg'
p157
aS'sub reg, 30h'
p158
aS'mov mem, reg'
p159
aS'mov mem, reg'
p160
aS'mov mem, reg'
p161
aS'mov mem, 0'
p162
aS'mov reg, mem'
p163
aS'mov reg, mem'
p164
aS'mov reg, mem'
p165
aS'mov mem, reg'
p166
aS'mov reg, mem'
p167
aS'mov qmem, 0'
p168
aS'mov reg, mem'
p169
aS'mov reg, mem'
p170
aS'mov reg, mem'
p171
aS'movzx reg, mem'
p172
aS'cmp reg, 28h'
p173
aS'jz func'
p174
asS'end_address'
p175
Nsg5
S'0x4b6a9L'
p176
sS'preds'
p177
(lp178
sg6
NsS'succs'
p179
(lp180
S'0x4b6f1L'
p181
aS'0x4b71aL'
p182
asS'hash_v3'
p183
NsS'flag_v2'
p184
NsS'hash_v1'
p185
S'd4ed09dc5f21b6b5e67b1f0c5b089dbf'
p186
sS'hash_v2'
p187
S'78c29f162267f3a772b9ede9858bd783'
p188
sS'mnen_list'
p189
(lp190
g24
ag33
ag40
ag47
ag54
ag61
ag68
ag75
ag82
ag89
ag96
ag103
ag110
ag117
ag124
ag131
ag138
ag145
ag152
asS'neighbour_disasm_list'
p191
Nsba(ibclass
BBasicBlock
p192
(dp193
g12
Nsg13
(lp194
(ibclass
BInstr
p195
(dp196
g2
Nsg17
S'mov     rdx, [rbp+name]'
p197
sg19
S'488b55e0'
p198
sg21
Vmov rdx, qword ptr [rbp - 0x20]
p199
sg5
L308977L
sg6
Nsg23
S'mov'
p200
sg25
S'0x4b6f1L'
p201
sg27
Nsba(ibclass
BInstr
p202
(dp203
g2
Nsg17
S'mov     rax, [rbp+ctxt]'
p204
sg19
S'488b45e8'
p205
sg21
Vmov rax, qword ptr [rbp - 0x18]
p206
sg5
L308981L
sg6
Nsg23
S'mov'
p207
sg25
S'0x4b6f5L'
p208
sg27
Nsba(ibclass
BInstr
p209
(dp210
g2
Nsg17
S'mov     rcx, rdx        ; val'
p211
sg19
S'4889d1'
p212
sg21
Vmov rcx, rdx
p213
sg5
L308985L
sg6
Nsg23
S'mov'
p214
sg25
S'0x4b6f9L'
p215
sg27
Nsba(ibclass
BInstr
p216
(dp217
g2
Nsg17
S'lea     rdx, aXmlparseelem_2; "xmlParseElementContentDecl : %s \'(\' exp"...'
p218
sg19
S'488d1575d91200'
p219
sg21
Vlea rdx, [rip + 0x12d975]
p220
sg5
L308988L
sg6
Nsg23
S'lea'
p221
sg25
S'0x4b6fcL'
p222
sg27
Nsba(ibclass
BInstr
p223
(dp224
g2
Nsg17
S'mov     esi, 36h        ; error'
p225
sg19
S'be36000000'
p226
sg21
Vmov esi, 0x36
p227
sg5
L308995L
sg6
Nsg23
S'mov'
p228
sg25
S'0x4b703L'
p229
sg27
Nsba(ibclass
BInstr
p230
(dp231
g2
Nsg17
S'mov     rdi, rax        ; ctxt'
p232
sg19
S'4889c7'
p233
sg21
Vmov rdi, rax
p234
sg5
L309000L
sg6
Nsg23
S'mov'
p235
sg25
S'0x4b708L'
p236
sg27
Nsba(ibclass
BInstr
p237
(dp238
g2
Nsg17
S'call    xmlFatalErrMsgStr'
p239
sg19
S'e805f2feff'
p240
sg21
Vcall 0xfffffffffffef20a
p241
sg5
L309003L
sg6
Nsg23
S'call'
p242
sg25
S'0x4b70bL'
p243
sg27
Nsba(ibclass
BInstr
p244
(dp245
g2
Nsg17
S'mov     eax, 0FFFFFFFFh'
p246
sg19
S'b8ffffffff'
p247
sg21
Vmov eax, 0xffffffff
p248
sg5
L309008L
sg6
Nsg23
S'mov'
p249
sg25
S'0x4b710L'
p250
sg27
Nsba(ibclass
BInstr
p251
(dp252
g2
Nsg17
S'jmp     locret_4B88C'
p253
sg19
S'e972010000'
p254
sg21
Vjmp 0x177
p255
sg5
L309013L
sg6
Nsg23
S'jmp'
p256
sg25
S'0x4b715L'
p257
sg27
Nsbasg154
(lp258
S'mov reg, mem'
p259
aS'mov reg, mem'
p260
aS'mov reg, reg'
p261
aS'lea reg, aXmlparseelem_2'
p262
aS'mov reg, 36h'
p263
aS'mov reg, reg'
p264
aS'cregl xmlFatregErrMsgStr'
p265
aS'mov reg, 0FFFFFFFFh'
p266
aS'jmp func'
p267
asg175
Nsg5
S'0x4b6f1L'
p268
sg177
(lp269
S'0x4b6a9L'
p270
asg6
Nsg179
(lp271
S'0x4b88cL'
p272
asg183
Nsg184
Nsg185
S'21c4920846a809cab2e620b76d8ec11a'
p273
sg187
S'76ce0fcb1eb8f3414dd8b6b9a51eb6df'
p274
sg189
(lp275
g200
ag207
ag214
ag221
ag228
ag235
ag242
ag249
ag256
asg191
Nsba(ibclass
BBasicBlock
p276
(dp277
g12
Nsg13
(lp278
(ibclass
BInstr
p279
(dp280
g2
Nsg17
S'mov     rax, [rbp+ctxt]'
p281
sg19
S'488b45e8'
p282
sg21
Vmov rax, qword ptr [rbp - 0x18]
p283
sg5
L309018L
sg6
Nsg23
S'mov'
p284
sg25
S'0x4b71aL'
p285
sg27
Nsba(ibclass
BInstr
p286
(dp287
g2
Nsg17
S'mov     rdi, rax        ; ctxt'
p288
sg19
S'4889c7'
p289
sg21
Vmov rdi, rax
p290
sg5
L309022L
sg6
Nsg23
S'mov'
p291
sg25
S'0x4b71eL'
p292
sg27
Nsba(ibclass
BInstr
p293
(dp294
g2
Nsg17
S'call    xmlNextChar__internal_alias'
p295
sg19
S'e8daa9feff'
p296
sg21
Vcall 0xfffffffffffea9df
p297
sg5
L309025L
sg6
Nsg23
S'call'
p298
sg25
S'0x4b721L'
p299
sg27
Nsba(ibclass
BInstr
p300
(dp301
g2
Nsg17
S'mov     rax, [rbp+ctxt]'
p302
sg19
S'488b45e8'
p303
sg21
Vmov rax, qword ptr [rbp - 0x18]
p304
sg5
L309030L
sg6
Nsg23
S'mov'
p305
sg25
S'0x4b726L'
p306
sg27
Nsba(ibclass
BInstr
p307
(dp308
g2
Nsg17
S'mov     eax, [rax+1C4h]'
p309
sg19
S'8b80c4010000'
p310
sg21
Vmov eax, dword ptr [rax + 0x1c4]
p311
sg5
L309034L
sg6
Nsg23
S'mov'
p312
sg25
S'0x4b72aL'
p313
sg27
Nsba(ibclass
BInstr
p314
(dp315
g2
Nsg17
S'test    eax, eax'
p316
sg19
S'85c0'
p317
sg21
Vtest eax, eax
p318
sg5
L309040L
sg6
Nsg23
S'test'
p319
sg25
S'0x4b730L'
p320
sg27
Nsba(ibclass
BInstr
p321
(dp322
g2
Nsg17
S'jnz     short loc_4B769'
p323
sg19
S'7535'
p324
sg21
Vjne 0x37
p325
sg5
L309042L
sg6
Nsg23
S'jnz'
p326
sg25
S'0x4b732L'
p327
sg27
Nsbasg154
(lp328
S'mov reg, mem'
p329
aS'mov reg, reg'
p330
aS'cregl xmlNextChar__internreg_regias'
p331
aS'mov reg, mem'
p332
aS'mov reg, mem'
p333
aS'test reg, reg'
p334
aS'jnz func'
p335
asg175
Nsg5
S'0x4b71aL'
p336
sg177
(lp337
S'0x4b6a9L'
p338
asg6
Nsg179
(lp339
S'0x4b734L'
p340
aS'0x4b769L'
p341
asg183
Nsg184
Nsg185
S'9b1d0ecccbf0ded0ef8151e111e845fb'
p342
sg187
S'a8bc3b2fa6e2d49899c61e9c3cc711d4'
p343
sg189
(lp344
g284
ag291
ag298
ag305
ag312
ag319
ag326
asg191
Nsba(ibclass
BBasicBlock
p345
(dp346
g12
Nsg13
(lp347
(ibclass
BInstr
p348
(dp349
g2
Nsg17
S'mov     rax, [rbp+ctxt]'
p350
sg19
S'488b45e8'
p351
sg21
Vmov rax, qword ptr [rbp - 0x18]
p352
sg5
L309044L
sg6
Nsg23
S'mov'
p353
sg25
S'0x4b734L'
p354
sg27
Nsba(ibclass
BInstr
p355
(dp356
g2
Nsg17
S'mov     rax, [rax+38h]'
p357
sg19
S'488b4038'
p358
sg21
Vmov rax, qword ptr [rax + 0x38]
p359
sg5
L309048L
sg6
Nsg23
S'mov'
p360
sg25
S'0x4b738L'
p361
sg27
Nsba(ibclass
BInstr
p362
(dp363
g2
Nsg17
S'mov     rax, [rax+28h]'
p364
sg19
S'488b4028'
p365
sg21
Vmov rax, qword ptr [rax + 0x28]
p366
sg5
L309052L
sg6
Nsg23
S'mov'
p367
sg25
S'0x4b73cL'
p368
sg27
Nsba(ibclass
BInstr
p369
(dp370
g2
Nsg17
S'mov     rdx, rax'
p371
sg19
S'4889c2'
p372
sg21
Vmov rdx, rax
p373
sg5
L309056L
sg6
Nsg23
S'mov'
p374
sg25
S'0x4b740L'
p375
sg27
Nsba(ibclass
BInstr
p376
(dp377
g2
Nsg17
S'mov     rax, [rbp+ctxt]'
p378
sg19
S'488b45e8'
p379
sg21
Vmov rax, qword ptr [rbp - 0x18]
p380
sg5
L309059L
sg6
Nsg23
S'mov'
p381
sg25
S'0x4b743L'
p382
sg27
Nsba(ibclass
BInstr
p383
(dp384
g2
Nsg17
S'mov     rax, [rax+38h]'
p385
sg19
S'488b4038'
p386
sg21
Vmov rax, qword ptr [rax + 0x38]
p387
sg5
L309063L
sg6
Nsg23
S'mov'
p388
sg25
S'0x4b747L'
p389
sg27
Nsba(ibclass
BInstr
p390
(dp391
g2
Nsg17
S'mov     rax, [rax+20h]'
p392
sg19
S'488b4020'
p393
sg21
Vmov rax, qword ptr [rax + 0x20]
p394
sg5
L309067L
sg6
Nsg23
S'mov'
p395
sg25
S'0x4b74bL'
p396
sg27
Nsba(ibclass
BInstr
p397
(dp398
g2
Nsg17
S'sub     rdx, rax'
p399
sg19
S'4829c2'
p400
sg21
Vsub rdx, rax
p401
sg5
L309071L
sg6
Nsg23
S'sub'
p402
sg25
S'0x4b74fL'
p403
sg27
Nsba(ibclass
BInstr
p404
(dp405
g2
Nsg17
S'mov     rax, rdx'
p406
sg19
S'4889d0'
p407
sg21
Vmov rax, rdx
p408
sg5
L309074L
sg6
Nsg23
S'mov'
p409
sg25
S'0x4b752L'
p410
sg27
Nsba(ibclass
BInstr
p411
(dp412
g2
Nsg17
S'cmp     rax, 0F9h'
p413
sg19
S'483df9000000'
p414
sg21
Vcmp rax, 0xf9
p415
sg5
L309077L
sg6
Nsg23
S'cmp'
p416
sg25
S'0x4b755L'
p417
sg27
Nsba(ibclass
BInstr
p418
(dp419
g2
Nsg17
S'jg      short loc_4B769'
p420
sg19
S'7f0c'
p421
sg21
Vjg 0xe
p422
sg5
L309083L
sg6
Nsg23
S'jg'
p423
sg25
S'0x4b75bL'
p424
sg27
Nsbasg154
(lp425
S'mov reg, mem'
p426
aS'mov reg, mem'
p427
aS'mov reg, mem'
p428
aS'mov reg, reg'
p429
aS'mov reg, mem'
p430
aS'mov reg, mem'
p431
aS'mov reg, mem'
p432
aS'sub reg, reg'
p433
aS'mov reg, reg'
p434
aS'cmp reg, 0F9h'
p435
aS'jg func'
p436
asg175
Nsg5
S'0x4b734L'
p437
sg177
(lp438
S'0x4b71aL'
p439
asg6
Nsg179
(lp440
S'0x4b75dL'
p441
aS'0x4b769L'
p442
asg183
Nsg184
Nsg185
S'5f46987400e6e5b60b66b04c8e593e81'
p443
sg187
S'02535dc706bee9fa59c3988544331360'
p444
sg189
(lp445
g353
ag360
ag367
ag374
ag381
ag388
ag395
ag402
ag409
ag416
ag423
asg191
Nsba(ibclass
BBasicBlock
p446
(dp447
g12
Nsg13
(lp448
(ibclass
BInstr
p449
(dp450
g2
Nsg17
S'mov     rax, [rbp+ctxt]'
p451
sg19
S'488b45e8'
p452
sg21
Vmov rax, qword ptr [rbp - 0x18]
p453
sg5
L309085L
sg6
Nsg23
S'mov'
p454
sg25
S'0x4b75dL'
p455
sg27
Nsba(ibclass
BInstr
p456
(dp457
g2
Nsg17
S'mov     rdi, rax        ; ctxt'
p458
sg19
S'4889c7'
p459
sg21
Vmov rdi, rax
p460
sg5
L309089L
sg6
Nsg23
S'mov'
p461
sg25
S'0x4b761L'
p462
sg27
Nsba(ibclass
BInstr
p463
(dp464
g2
Nsg17
S'call    xmlGROW'
p465
sg19
S'e8aa14ffff'
p466
sg21
Vcall 0xffffffffffff14af
p467
sg5
L309092L
sg6
Nsg23
S'call'
p468
sg25
S'0x4b764L'
p469
sg27
Nsbasg154
(lp470
S'mov reg, mem'
p471
aS'mov reg, reg'
p472
aS'cregl xmlGROW'
p473
asg175
Nsg5
S'0x4b75dL'
p474
sg177
(lp475
S'0x4b734L'
p476
asg6
Nsg179
(lp477
S'0x4b769L'
p478
asg183
Nsg184
Nsg185
S'0bf1a79a6a1155c5085c1c85d6d83d05'
p479
sg187
S'd8f449f6e3ef63354c773c18dd99ae67'
p480
sg189
(lp481
g454
ag461
ag468
asg191
Nsba(ibclass
BBasicBlock
p482
(dp483
g12
Nsg13
(lp484
(ibclass
BInstr
p485
(dp486
g2
Nsg17
S'mov     rax, [rbp+ctxt]'
p487
sg19
S'488b45e8'
p488
sg21
Vmov rax, qword ptr [rbp - 0x18]
p489
sg5
L309097L
sg6
Nsg23
S'mov'
p490
sg25
S'0x4b769L'
p491
sg27
Nsba(ibclass
BInstr
p492
(dp493
g2
Nsg17
S'mov     eax, [rax+110h]'
p494
sg19
S'8b8010010000'
p495
sg21
Vmov eax, dword ptr [rax + 0x110]
p496
sg5
L309101L
sg6
Nsg23
S'mov'
p497
sg25
S'0x4b76dL'
p498
sg27
Nsba(ibclass
BInstr
p499
(dp500
g2
Nsg17
S'cmp     eax, 0FFFFFFFFh'
p501
sg19
S'83f8ff'
p502
sg21
Vcmp eax, -1
p503
sg5
L309107L
sg6
Nsg23
S'cmp'
p504
sg25
S'0x4b773L'
p505
sg27
Nsba(ibclass
BInstr
p506
(dp507
g2
Nsg17
S'jnz     short loc_4B782'
p508
sg19
S'750a'
p509
sg21
Vjne 0xc
p510
sg5
L309110L
sg6
Nsg23
S'jnz'
p511
sg25
S'0x4b776L'
p512
sg27
Nsbasg154
(lp513
S'mov reg, mem'
p514
aS'mov reg, mem'
p515
aS'cmp reg, 0FFFFFFFFh'
p516
aS'jnz func'
p517
asg175
Nsg5
S'0x4b769L'
p518
sg177
(lp519
S'0x4b71aL'
p520
aS'0x4b734L'
p521
aS'0x4b75dL'
p522
asg6
Nsg179
(lp523
S'0x4b778L'
p524
aS'0x4b782L'
p525
asg183
Nsg184
Nsg185
S'a19a851724661b9339243c65cfd318e3'
p526
sg187
S'ddc57fb7e68d46c888fd2c2cbc462a96'
p527
sg189
(lp528
g490
ag497
ag504
ag511
asg191
Nsba(ibclass
BBasicBlock
p529
(dp530
g12
Nsg13
(lp531
(ibclass
BInstr
p532
(dp533
g2
Nsg17
S'mov     eax, 0FFFFFFFFh'
p534
sg19
S'b8ffffffff'
p535
sg21
Vmov eax, 0xffffffff
p536
sg5
L309112L
sg6
Nsg23
S'mov'
p537
sg25
S'0x4b778L'
p538
sg27
Nsba(ibclass
BInstr
p539
(dp540
g2
Nsg17
S'jmp     locret_4B88C'
p541
sg19
S'e90a010000'
p542
sg21
Vjmp 0x10f
p543
sg5
L309117L
sg6
Nsg23
S'jmp'
p544
sg25
S'0x4b77dL'
p545
sg27
Nsbasg154
(lp546
S'mov reg, 0FFFFFFFFh'
p547
aS'jmp func'
p548
asg175
Nsg5
S'0x4b778L'
p549
sg177
(lp550
S'0x4b769L'
p551
asg6
Nsg179
(lp552
S'0x4b88cL'
p553
asg183
Nsg184
Nsg185
S'8b9a0d40e062be2b9b2d9885108fb196'
p554
sg187
S'4731a85ef1044f0235a2fde6b7cfb6d1'
p555
sg189
(lp556
g537
ag544
asg191
Nsba(ibclass
BBasicBlock
p557
(dp558
g12
Nsg13
(lp559
(ibclass
BInstr
p560
(dp561
g2
Nsg17
S'mov     rax, [rbp+ctxt]'
p562
sg19
S'488b45e8'
p563
sg21
Vmov rax, qword ptr [rbp - 0x18]
p564
sg5
L309122L
sg6
Nsg23
S'mov'
p565
sg25
S'0x4b782L'
p566
sg27
Nsba(ibclass
BInstr
p567
(dp568
g2
Nsg17
S'mov     rdi, rax        ; ctxt'
p569
sg19
S'4889c7'
p570
sg21
Vmov rdi, rax
p571
sg5
L309126L
sg6
Nsg23
S'mov'
p572
sg25
S'0x4b786L'
p573
sg27
Nsba(ibclass
BInstr
p574
(dp575
g2
Nsg17
S'call    xmlSkipBlankChars__internal_alias'
p576
sg19
S'e85115ffff'
p577
sg21
Vcall 0xffffffffffff1556
p578
sg5
L309129L
sg6
Nsg23
S'call'
p579
sg25
S'0x4b789L'
p580
sg27
Nsba(ibclass
BInstr
p581
(dp582
g2
Nsg17
S'mov     rax, [rbp+ctxt]'
p583
sg19
S'488b45e8'
p584
sg21
Vmov rax, qword ptr [rbp - 0x18]
p585
sg5
L309134L
sg6
Nsg23
S'mov'
p586
sg25
S'0x4b78eL'
p587
sg27
Nsba(ibclass
BInstr
p588
(dp589
g2
Nsg17
S'mov     rax, [rax+38h]'
p590
sg19
S'488b4038'
p591
sg21
Vmov rax, qword ptr [rax + 0x38]
p592
sg5
L309138L
sg6
Nsg23
S'mov'
p593
sg25
S'0x4b792L'
p594
sg27
Nsba(ibclass
BInstr
p595
(dp596
g2
Nsg17
S'mov     rax, [rax+20h]'
p597
sg19
S'488b4020'
p598
sg21
Vmov rax, qword ptr [rax + 0x20]
p599
sg5
L309142L
sg6
Nsg23
S'mov'
p600
sg25
S'0x4b796L'
p601
sg27
Nsba(ibclass
BInstr
p602
(dp603
g2
Nsg17
S'movzx   eax, byte ptr [rax]'
p604
sg19
S'0fb600'
p605
sg21
Vmovzx eax, byte ptr [rax]
p606
sg5
L309146L
sg6
Nsg23
S'movzx'
p607
sg25
S'0x4b79aL'
p608
sg27
Nsba(ibclass
BInstr
p609
(dp610
g2
Nsg17
S'cmp     al, 23h'
p611
sg19
S'3c23'
p612
sg21
Vcmp al, 0x23
p613
sg5
L309149L
sg6
Nsg23
S'cmp'
p614
sg25
S'0x4b79dL'
p615
sg27
Nsba(ibclass
BInstr
p616
(dp617
g2
Nsg17
S'jnz     loc_4B851'
p618
sg19
S'0f85ac000000'
p619
sg21
Vjne 0xb2
p620
sg5
L309151L
sg6
Nsg23
S'jnz'
p621
sg25
S'0x4b79fL'
p622
sg27
Nsbasg154
(lp623
S'mov reg, mem'
p624
aS'mov reg, reg'
p625
aS'cregl xmlSkipBlankChars__internreg_regias'
p626
aS'mov reg, mem'
p627
aS'mov reg, mem'
p628
aS'mov reg, mem'
p629
aS'movzx reg, mem'
p630
aS'cmp reg, 23h'
p631
aS'jnz func'
p632
asg175
Nsg5
S'0x4b782L'
p633
sg177
(lp634
S'0x4b769L'
p635
asg6
Nsg179
(lp636
S'0x4b7a5L'
p637
aS'0x4b851L'
p638
asg183
Nsg184
Nsg185
S'8aaeae0ba40b5dea348e1417ea2b7f33'
p639
sg187
S'2385130a2bb9d130e72b0006c67b8b4b'
p640
sg189
(lp641
g565
ag572
ag579
ag586
ag593
ag600
ag607
ag614
ag621
asg191
Nsba(ibclass
BBasicBlock
p642
(dp643
g12
Nsg13
(lp644
(ibclass
BInstr
p645
(dp646
g2
Nsg17
S'mov     rax, [rbp+ctxt]'
p647
sg19
S'488b45e8'
p648
sg21
Vmov rax, qword ptr [rbp - 0x18]
p649
sg5
L309157L
sg6
Nsg23
S'mov'
p650
sg25
S'0x4b7a5L'
p651
sg27
Nsba(ibclass
BInstr
p652
(dp653
g2
Nsg17
S'mov     rax, [rax+38h]'
p654
sg19
S'488b4038'
p655
sg21
Vmov rax, qword ptr [rax + 0x38]
p656
sg5
L309161L
sg6
Nsg23
S'mov'
p657
sg25
S'0x4b7a9L'
p658
sg27
Nsba(ibclass
BInstr
p659
(dp660
g2
Nsg17
S'mov     rax, [rax+20h]'
p661
sg19
S'488b4020'
p662
sg21
Vmov rax, qword ptr [rax + 0x20]
p663
sg5
L309165L
sg6
Nsg23
S'mov'
p664
sg25
S'0x4b7adL'
p665
sg27
Nsba(ibclass
BInstr
p666
(dp667
g2
Nsg17
S'add     rax, 1'
p668
sg19
S'4883c001'
p669
sg21
Vadd rax, 1
p670
sg5
L309169L
sg6
Nsg23
S'add'
p671
sg25
S'0x4b7b1L'
p672
sg27
Nsba(ibclass
BInstr
p673
(dp674
g2
Nsg17
S'movzx   eax, byte ptr [rax]'
p675
sg19
S'0fb600'
p676
sg21
Vmovzx eax, byte ptr [rax]
p677
sg5
L309173L
sg6
Nsg23
S'movzx'
p678
sg25
S'0x4b7b5L'
p679
sg27
Nsba(ibclass
BInstr
p680
(dp681
g2
Nsg17
S'cmp     al, 50h'
p682
sg19
S'3c50'
p683
sg21
Vcmp al, 0x50
p684
sg5
L309176L
sg6
Nsg23
S'cmp'
p685
sg25
S'0x4b7b8L'
p686
sg27
Nsba(ibclass
BInstr
p687
(dp688
g2
Nsg17
S'jnz     loc_4B851'
p689
sg19
S'0f8591000000'
p690
sg21
Vjne 0x97
p691
sg5
L309178L
sg6
Nsg23
S'jnz'
p692
sg25
S'0x4b7baL'
p693
sg27
Nsbasg154
(lp694
S'mov reg, mem'
p695
aS'mov reg, mem'
p696
aS'mov reg, mem'
p697
aS'add reg, 1'
p698
aS'movzx reg, mem'
p699
aS'cmp reg, 50h'
p700
aS'jnz func'
p701
asg175
Nsg5
S'0x4b7a5L'
p702
sg177
(lp703
S'0x4b782L'
p704
asg6
Nsg179
(lp705
S'0x4b7c0L'
p706
aS'0x4b851L'
p707
asg183
Nsg184
Nsg185
S'a09b8bbfa38c30bf5174bc54b9c9fc87'
p708
sg187
S'a300da7c019ec068fe4740333e81e63a'
p709
sg189
(lp710
g650
ag657
ag664
ag671
ag678
ag685
ag692
asg191
Nsba(ibclass
BBasicBlock
p711
(dp712
g12
Nsg13
(lp713
(ibclass
BInstr
p714
(dp715
g2
Nsg17
S'mov     rax, [rbp+ctxt]'
p716
sg19
S'488b45e8'
p717
sg21
Vmov rax, qword ptr [rbp - 0x18]
p718
sg5
L309184L
sg6
Nsg23
S'mov'
p719
sg25
S'0x4b7c0L'
p720
sg27
Nsba(ibclass
BInstr
p721
(dp722
g2
Nsg17
S'mov     rax, [rax+38h]'
p723
sg19
S'488b4038'
p724
sg21
Vmov rax, qword ptr [rax + 0x38]
p725
sg5
L309188L
sg6
Nsg23
S'mov'
p726
sg25
S'0x4b7c4L'
p727
sg27
Nsba(ibclass
BInstr
p728
(dp729
g2
Nsg17
S'mov     rax, [rax+20h]'
p730
sg19
S'488b4020'
p731
sg21
Vmov rax, qword ptr [rax + 0x20]
p732
sg5
L309192L
sg6
Nsg23
S'mov'
p733
sg25
S'0x4b7c8L'
p734
sg27
Nsba(ibclass
BInstr
p735
(dp736
g2
Nsg17
S'add     rax, 2'
p737
sg19
S'4883c002'
p738
sg21
Vadd rax, 2
p739
sg5
L309196L
sg6
Nsg23
S'add'
p740
sg25
S'0x4b7ccL'
p741
sg27
Nsba(ibclass
BInstr
p742
(dp743
g2
Nsg17
S'movzx   eax, byte ptr [rax]'
p744
sg19
S'0fb600'
p745
sg21
Vmovzx eax, byte ptr [rax]
p746
sg5
L309200L
sg6
Nsg23
S'movzx'
p747
sg25
S'0x4b7d0L'
p748
sg27
Nsba(ibclass
BInstr
p749
(dp750
g2
Nsg17
S'cmp     al, 43h'
p751
sg19
S'3c43'
p752
sg21
Vcmp al, 0x43
p753
sg5
L309203L
sg6
Nsg23
S'cmp'
p754
sg25
S'0x4b7d3L'
p755
sg27
Nsba(ibclass
BInstr
p756
(dp757
g2
Nsg17
S'jnz     short loc_4B851'
p758
sg19
S'757a'
p759
sg21
Vjne 0x7c
p760
sg5
L309205L
sg6
Nsg23
S'jnz'
p761
sg25
S'0x4b7d5L'
p762
sg27
Nsbasg154
(lp763
S'mov reg, mem'
p764
aS'mov reg, mem'
p765
aS'mov reg, mem'
p766
aS'add reg, 2'
p767
aS'movzx reg, mem'
p768
aS'cmp reg, 43h'
p769
aS'jnz func'
p770
asg175
Nsg5
S'0x4b7c0L'
p771
sg177
(lp772
S'0x4b7a5L'
p773
asg6
Nsg179
(lp774
S'0x4b7d7L'
p775
aS'0x4b851L'
p776
asg183
Nsg184
Nsg185
S'a09b8bbfa38c30bf5174bc54b9c9fc87'
p777
sg187
S'63e3b0d6dfbaacfa96cacead4f012f9b'
p778
sg189
(lp779
g719
ag726
ag733
ag740
ag747
ag754
ag761
asg191
Nsba(ibclass
BBasicBlock
p780
(dp781
g12
Nsg13
(lp782
(ibclass
BInstr
p783
(dp784
g2
Nsg17
S'mov     rax, [rbp+ctxt]'
p785
sg19
S'488b45e8'
p786
sg21
Vmov rax, qword ptr [rbp - 0x18]
p787
sg5
L309207L
sg6
Nsg23
S'mov'
p788
sg25
S'0x4b7d7L'
p789
sg27
Nsba(ibclass
BInstr
p790
(dp791
g2
Nsg17
S'mov     rax, [rax+38h]'
p792
sg19
S'488b4038'
p793
sg21
Vmov rax, qword ptr [rax + 0x38]
p794
sg5
L309211L
sg6
Nsg23
S'mov'
p795
sg25
S'0x4b7dbL'
p796
sg27
Nsba(ibclass
BInstr
p797
(dp798
g2
Nsg17
S'mov     rax, [rax+20h]'
p799
sg19
S'488b4020'
p800
sg21
Vmov rax, qword ptr [rax + 0x20]
p801
sg5
L309215L
sg6
Nsg23
S'mov'
p802
sg25
S'0x4b7dfL'
p803
sg27
Nsba(ibclass
BInstr
p804
(dp805
g2
Nsg17
S'add     rax, 3'
p806
sg19
S'4883c003'
p807
sg21
Vadd rax, 3
p808
sg5
L309219L
sg6
Nsg23
S'add'
p809
sg25
S'0x4b7e3L'
p810
sg27
Nsba(ibclass
BInstr
p811
(dp812
g2
Nsg17
S'movzx   eax, byte ptr [rax]'
p813
sg19
S'0fb600'
p814
sg21
Vmovzx eax, byte ptr [rax]
p815
sg5
L309223L
sg6
Nsg23
S'movzx'
p816
sg25
S'0x4b7e7L'
p817
sg27
Nsba(ibclass
BInstr
p818
(dp819
g2
Nsg17
S'cmp     al, 44h'
p820
sg19
S'3c44'
p821
sg21
Vcmp al, 0x44
p822
sg5
L309226L
sg6
Nsg23
S'cmp'
p823
sg25
S'0x4b7eaL'
p824
sg27
Nsba(ibclass
BInstr
p825
(dp826
g2
Nsg17
S'jnz     short loc_4B851'
p827
sg19
S'7563'
p828
sg21
Vjne 0x65
p829
sg5
L309228L
sg6
Nsg23
S'jnz'
p830
sg25
S'0x4b7ecL'
p831
sg27
Nsbasg154
(lp832
S'mov reg, mem'
p833
aS'mov reg, mem'
p834
aS'mov reg, mem'
p835
aS'add reg, 3'
p836
aS'movzx reg, mem'
p837
aS'cmp reg, 44h'
p838
aS'jnz func'
p839
asg175
Nsg5
S'0x4b7d7L'
p840
sg177
(lp841
S'0x4b7c0L'
p842
asg6
Nsg179
(lp843
S'0x4b7eeL'
p844
aS'0x4b851L'
p845
asg183
Nsg184
Nsg185
S'a09b8bbfa38c30bf5174bc54b9c9fc87'
p846
sg187
S'8d8f25f7aa21f6d6c5a1491a7cbe1f38'
p847
sg189
(lp848
g788
ag795
ag802
ag809
ag816
ag823
ag830
asg191
Nsba(ibclass
BBasicBlock
p849
(dp850
g12
Nsg13
(lp851
(ibclass
BInstr
p852
(dp853
g2
Nsg17
S'mov     rax, [rbp+ctxt]'
p854
sg19
S'488b45e8'
p855
sg21
Vmov rax, qword ptr [rbp - 0x18]
p856
sg5
L309230L
sg6
Nsg23
S'mov'
p857
sg25
S'0x4b7eeL'
p858
sg27
Nsba(ibclass
BInstr
p859
(dp860
g2
Nsg17
S'mov     rax, [rax+38h]'
p861
sg19
S'488b4038'
p862
sg21
Vmov rax, qword ptr [rax + 0x38]
p863
sg5
L309234L
sg6
Nsg23
S'mov'
p864
sg25
S'0x4b7f2L'
p865
sg27
Nsba(ibclass
BInstr
p866
(dp867
g2
Nsg17
S'mov     rax, [rax+20h]'
p868
sg19
S'488b4020'
p869
sg21
Vmov rax, qword ptr [rax + 0x20]
p870
sg5
L309238L
sg6
Nsg23
S'mov'
p871
sg25
S'0x4b7f6L'
p872
sg27
Nsba(ibclass
BInstr
p873
(dp874
g2
Nsg17
S'add     rax, 4'
p875
sg19
S'4883c004'
p876
sg21
Vadd rax, 4
p877
sg5
L309242L
sg6
Nsg23
S'add'
p878
sg25
S'0x4b7faL'
p879
sg27
Nsba(ibclass
BInstr
p880
(dp881
g2
Nsg17
S'movzx   eax, byte ptr [rax]'
p882
sg19
S'0fb600'
p883
sg21
Vmovzx eax, byte ptr [rax]
p884
sg5
L309246L
sg6
Nsg23
S'movzx'
p885
sg25
S'0x4b7feL'
p886
sg27
Nsba(ibclass
BInstr
p887
(dp888
g2
Nsg17
S'cmp     al, 41h'
p889
sg19
S'3c41'
p890
sg21
Vcmp al, 0x41
p891
sg5
L309249L
sg6
Nsg23
S'cmp'
p892
sg25
S'0x4b801L'
p893
sg27
Nsba(ibclass
BInstr
p894
(dp895
g2
Nsg17
S'jnz     short loc_4B851'
p896
sg19
S'754c'
p897
sg21
Vjne 0x4e
p898
sg5
L309251L
sg6
Nsg23
S'jnz'
p899
sg25
S'0x4b803L'
p900
sg27
Nsbasg154
(lp901
S'mov reg, mem'
p902
aS'mov reg, mem'
p903
aS'mov reg, mem'
p904
aS'add reg, 4'
p905
aS'movzx reg, mem'
p906
aS'cmp reg, 41h'
p907
aS'jnz func'
p908
asg175
Nsg5
S'0x4b7eeL'
p909
sg177
(lp910
S'0x4b7d7L'
p911
asg6
Nsg179
(lp912
S'0x4b805L'
p913
aS'0x4b851L'
p914
asg183
Nsg184
Nsg185
S'a09b8bbfa38c30bf5174bc54b9c9fc87'
p915
sg187
S'b4c49951b39b0a9df3de9619daa581d5'
p916
sg189
(lp917
g857
ag864
ag871
ag878
ag885
ag892
ag899
asg191
Nsba(ibclass
BBasicBlock
p918
(dp919
g12
Nsg13
(lp920
(ibclass
BInstr
p921
(dp922
g2
Nsg17
S'mov     rax, [rbp+ctxt]'
p923
sg19
S'488b45e8'
p924
sg21
Vmov rax, qword ptr [rbp - 0x18]
p925
sg5
L309253L
sg6
Nsg23
S'mov'
p926
sg25
S'0x4b805L'
p927
sg27
Nsba(ibclass
BInstr
p928
(dp929
g2
Nsg17
S'mov     rax, [rax+38h]'
p930
sg19
S'488b4038'
p931
sg21
Vmov rax, qword ptr [rax + 0x38]
p932
sg5
L309257L
sg6
Nsg23
S'mov'
p933
sg25
S'0x4b809L'
p934
sg27
Nsba(ibclass
BInstr
p935
(dp936
g2
Nsg17
S'mov     rax, [rax+20h]'
p937
sg19
S'488b4020'
p938
sg21
Vmov rax, qword ptr [rax + 0x20]
p939
sg5
L309261L
sg6
Nsg23
S'mov'
p940
sg25
S'0x4b80dL'
p941
sg27
Nsba(ibclass
BInstr
p942
(dp943
g2
Nsg17
S'add     rax, 5'
p944
sg19
S'4883c005'
p945
sg21
Vadd rax, 5
p946
sg5
L309265L
sg6
Nsg23
S'add'
p947
sg25
S'0x4b811L'
p948
sg27
Nsba(ibclass
BInstr
p949
(dp950
g2
Nsg17
S'movzx   eax, byte ptr [rax]'
p951
sg19
S'0fb600'
p952
sg21
Vmovzx eax, byte ptr [rax]
p953
sg5
L309269L
sg6
Nsg23
S'movzx'
p954
sg25
S'0x4b815L'
p955
sg27
Nsba(ibclass
BInstr
p956
(dp957
g2
Nsg17
S'cmp     al, 54h'
p958
sg19
S'3c54'
p959
sg21
Vcmp al, 0x54
p960
sg5
L309272L
sg6
Nsg23
S'cmp'
p961
sg25
S'0x4b818L'
p962
sg27
Nsba(ibclass
BInstr
p963
(dp964
g2
Nsg17
S'jnz     short loc_4B851'
p965
sg19
S'7535'
p966
sg21
Vjne 0x37
p967
sg5
L309274L
sg6
Nsg23
S'jnz'
p968
sg25
S'0x4b81aL'
p969
sg27
Nsbasg154
(lp970
S'mov reg, mem'
p971
aS'mov reg, mem'
p972
aS'mov reg, mem'
p973
aS'add reg, 5'
p974
aS'movzx reg, mem'
p975
aS'cmp reg, 54h'
p976
aS'jnz func'
p977
asg175
Nsg5
S'0x4b805L'
p978
sg177
(lp979
S'0x4b7eeL'
p980
asg6
Nsg179
(lp981
S'0x4b81cL'
p982
aS'0x4b851L'
p983
asg183
Nsg184
Nsg185
S'a09b8bbfa38c30bf5174bc54b9c9fc87'
p984
sg187
S'255e7753da366648bc0e2dcc7720f365'
p985
sg189
(lp986
g926
ag933
ag940
ag947
ag954
ag961
ag968
asg191
Nsba(ibclass
BBasicBlock
p987
(dp988
g12
Nsg13
(lp989
(ibclass
BInstr
p990
(dp991
g2
Nsg17
S'mov     rax, [rbp+ctxt]'
p992
sg19
S'488b45e8'
p993
sg21
Vmov rax, qword ptr [rbp - 0x18]
p994
sg5
L309276L
sg6
Nsg23
S'mov'
p995
sg25
S'0x4b81cL'
p996
sg27
Nsba(ibclass
BInstr
p997
(dp998
g2
Nsg17
S'mov     rax, [rax+38h]'
p999
sg19
S'488b4038'
p1000
sg21
Vmov rax, qword ptr [rax + 0x38]
p1001
sg5
L309280L
sg6
Nsg23
S'mov'
p1002
sg25
S'0x4b820L'
p1003
sg27
Nsba(ibclass
BInstr
p1004
(dp1005
g2
Nsg17
S'mov     rax, [rax+20h]'
p1006
sg19
S'488b4020'
p1007
sg21
Vmov rax, qword ptr [rax + 0x20]
p1008
sg5
L309284L
sg6
Nsg23
S'mov'
p1009
sg25
S'0x4b824L'
p1010
sg27
Nsba(ibclass
BInstr
p1011
(dp1012
g2
Nsg17
S'add     rax, 6'
p1013
sg19
S'4883c006'
p1014
sg21
Vadd rax, 6
p1015
sg5
L309288L
sg6
Nsg23
S'add'
p1016
sg25
S'0x4b828L'
p1017
sg27
Nsba(ibclass
BInstr
p1018
(dp1019
g2
Nsg17
S'movzx   eax, byte ptr [rax]'
p1020
sg19
S'0fb600'
p1021
sg21
Vmovzx eax, byte ptr [rax]
p1022
sg5
L309292L
sg6
Nsg23
S'movzx'
p1023
sg25
S'0x4b82cL'
p1024
sg27
Nsba(ibclass
BInstr
p1025
(dp1026
g2
Nsg17
S'cmp     al, 41h'
p1027
sg19
S'3c41'
p1028
sg21
Vcmp al, 0x41
p1029
sg5
L309295L
sg6
Nsg23
S'cmp'
p1030
sg25
S'0x4b82fL'
p1031
sg27
Nsba(ibclass
BInstr
p1032
(dp1033
g2
Nsg17
S'jnz     short loc_4B851'
p1034
sg19
S'751e'
p1035
sg21
Vjne 0x20
p1036
sg5
L309297L
sg6
Nsg23
S'jnz'
p1037
sg25
S'0x4b831L'
p1038
sg27
Nsbasg154
(lp1039
S'mov reg, mem'
p1040
aS'mov reg, mem'
p1041
aS'mov reg, mem'
p1042
aS'add reg, 6'
p1043
aS'movzx reg, mem'
p1044
aS'cmp reg, 41h'
p1045
aS'jnz func'
p1046
asg175
Nsg5
S'0x4b81cL'
p1047
sg177
(lp1048
S'0x4b805L'
p1049
asg6
Nsg179
(lp1050
S'0x4b833L'
p1051
aS'0x4b851L'
p1052
asg183
Nsg184
Nsg185
S'a09b8bbfa38c30bf5174bc54b9c9fc87'
p1053
sg187
S'14b5dd8a2ae4b01ff76d2673f8224b4a'
p1054
sg189
(lp1055
g995
ag1002
ag1009
ag1016
ag1023
ag1030
ag1037
asg191
Nsba(ibclass
BBasicBlock
p1056
(dp1057
g12
Nsg13
(lp1058
(ibclass
BInstr
p1059
(dp1060
g2
Nsg17
S'mov     edx, [rbp+inputid]'
p1061
sg19
S'8b55f4'
p1062
sg21
Vmov edx, dword ptr [rbp - 0xc]
p1063
sg5
L309299L
sg6
Nsg23
S'mov'
p1064
sg25
S'0x4b833L'
p1065
sg27
Nsba(ibclass
BInstr
p1066
(dp1067
g2
Nsg17
S'mov     rax, [rbp+ctxt]'
p1068
sg19
S'488b45e8'
p1069
sg21
Vmov rax, qword ptr [rbp - 0x18]
p1070
sg5
L309302L
sg6
Nsg23
S'mov'
p1071
sg25
S'0x4b836L'
p1072
sg27
Nsba(ibclass
BInstr
p1073
(dp1074
g2
Nsg17
S'mov     esi, edx        ; inputchk'
p1075
sg19
S'89d6'
p1076
sg21
Vmov esi, edx
p1077
sg5
L309306L
sg6
Nsg23
S'mov'
p1078
sg25
S'0x4b83aL'
p1079
sg27
Nsba(ibclass
BInstr
p1080
(dp1081
g2
Nsg17
S'mov     rdi, rax        ; ctxt'
p1082
sg19
S'4889c7'
p1083
sg21
Vmov rdi, rax
p1084
sg5
L309308L
sg6
Nsg23
S'mov'
p1085
sg25
S'0x4b83cL'
p1086
sg27
Nsba(ibclass
BInstr
p1087
(dp1088
g2
Nsg17
S'call    xmlParseElementMixedContentDecl__internal_alias'
p1089
sg19
S'e81aeaffff'
p1090
sg21
Vcall 0xffffffffffffea1f
p1091
sg5
L309311L
sg6
Nsg23
S'call'
p1092
sg25
S'0x4b83fL'
p1093
sg27
Nsba(ibclass
BInstr
p1094
(dp1095
g2
Nsg17
S'mov     [rbp+tree], rax'
p1096
sg19
S'488945f8'
p1097
sg21
Vmov qword ptr [rbp - 8], rax
p1098
sg5
L309316L
sg6
Nsg23
S'mov'
p1099
sg25
S'0x4b844L'
p1100
sg27
Nsba(ibclass
BInstr
p1101
(dp1102
g2
Nsg17
S'mov     [rbp+res], 3'
p1103
sg19
S'c745f003000000'
p1104
sg21
Vmov dword ptr [rbp - 0x10], 3
p1105
sg5
L309320L
sg6
Nsg23
S'mov'
p1106
sg25
S'0x4b848L'
p1107
sg27
Nsba(ibclass
BInstr
p1108
(dp1109
g2
Nsg17
S'jmp     short loc_4B872'
p1110
sg19
S'eb21'
p1111
sg21
Vjmp 0x23
p1112
sg5
L309327L
sg6
Nsg23
S'jmp'
p1113
sg25
S'0x4b84fL'
p1114
sg27
Nsbasg154
(lp1115
S'mov reg, mem'
p1116
aS'mov reg, mem'
p1117
aS'mov reg, reg'
p1118
aS'mov reg, reg'
p1119
aS'cregl xmlParseElementMixedContentDereg__internreg_regias'
p1120
aS'mov mem, reg'
p1121
aS'mov mem, 3'
p1122
aS'jmp func'
p1123
asg175
Nsg5
S'0x4b833L'
p1124
sg177
(lp1125
S'0x4b81cL'
p1126
asg6
Nsg179
(lp1127
S'0x4b872L'
p1128
asg183
Nsg184
Nsg185
S'2c02c7833865d2a993532ddae2dfe002'
p1129
sg187
S'8a402eb7a517417616957f24624b789b'
p1130
sg189
(lp1131
g1064
ag1071
ag1078
ag1085
ag1092
ag1099
ag1106
ag1113
asg191
Nsba(ibclass
BBasicBlock
p1132
(dp1133
g12
Nsg13
(lp1134
(ibclass
BInstr
p1135
(dp1136
g2
Nsg17
S'mov     ecx, [rbp+inputid]'
p1137
sg19
S'8b4df4'
p1138
sg21
Vmov ecx, dword ptr [rbp - 0xc]
p1139
sg5
L309329L
sg6
Nsg23
S'mov'
p1140
sg25
S'0x4b851L'
p1141
sg27
Nsba(ibclass
BInstr
p1142
(dp1143
g2
Nsg17
S'mov     rax, [rbp+ctxt]'
p1144
sg19
S'488b45e8'
p1145
sg21
Vmov rax, qword ptr [rbp - 0x18]
p1146
sg5
L309332L
sg6
Nsg23
S'mov'
p1147
sg25
S'0x4b854L'
p1148
sg27
Nsba(ibclass
BInstr
p1149
(dp1150
g2
Nsg17
S'mov     edx, 1          ; depth'
p1151
sg19
S'ba01000000'
p1152
sg21
Vmov edx, 1
p1153
sg5
L309336L
sg6
Nsg23
S'mov'
p1154
sg25
S'0x4b858L'
p1155
sg27
Nsba(ibclass
BInstr
p1156
(dp1157
g2
Nsg17
S'mov     esi, ecx        ; inputchk'
p1158
sg19
S'89ce'
p1159
sg21
Vmov esi, ecx
p1160
sg5
L309341L
sg6
Nsg23
S'mov'
p1161
sg25
S'0x4b85dL'
p1162
sg27
Nsba(ibclass
BInstr
p1163
(dp1164
g2
Nsg17
S'mov     rdi, rax        ; ctxt'
p1165
sg19
S'4889c7'
p1166
sg21
Vmov rdi, rax
p1167
sg5
L309343L
sg6
Nsg23
S'mov'
p1168
sg25
S'0x4b85fL'
p1169
sg27
Nsba(ibclass
BInstr
p1170
(dp1171
g2
Nsg17
S'call    xmlParseElementChildrenContentDeclPriv'
p1172
sg19
S'e807f1ffff'
p1173
sg21
Vcall 0xfffffffffffff10c
p1174
sg5
L309346L
sg6
Nsg23
S'call'
p1175
sg25
S'0x4b862L'
p1176
sg27
Nsba(ibclass
BInstr
p1177
(dp1178
g2
Nsg17
S'mov     [rbp+tree], rax'
p1179
sg19
S'488945f8'
p1180
sg21
Vmov qword ptr [rbp - 8], rax
p1181
sg5
L309351L
sg6
Nsg23
S'mov'
p1182
sg25
S'0x4b867L'
p1183
sg27
Nsba(ibclass
BInstr
p1184
(dp1185
g2
Nsg17
S'mov     [rbp+res], 4'
p1186
sg19
S'c745f004000000'
p1187
sg21
Vmov dword ptr [rbp - 0x10], 4
p1188
sg5
L309355L
sg6
Nsg23
S'mov'
p1189
sg25
S'0x4b86bL'
p1190
sg27
Nsbasg154
(lp1191
S'mov reg, mem'
p1192
aS'mov reg, mem'
p1193
aS'mov reg, 1'
p1194
aS'mov reg, reg'
p1195
aS'mov reg, reg'
p1196
aS'cregl xmlParseElementChildrenContentDeregPriv'
p1197
aS'mov mem, reg'
p1198
aS'mov mem, 4'
p1199
asg175
Nsg5
S'0x4b851L'
p1200
sg177
(lp1201
S'0x4b782L'
p1202
aS'0x4b7a5L'
p1203
aS'0x4b7c0L'
p1204
aS'0x4b7d7L'
p1205
aS'0x4b7eeL'
p1206
aS'0x4b805L'
p1207
aS'0x4b81cL'
p1208
asg6
Nsg179
(lp1209
S'0x4b872L'
p1210
asg183
Nsg184
Nsg185
S'07710889125d693d0e4d84f68e31eee5'
p1211
sg187
S'e58198328274104631900c94fa500d41'
p1212
sg189
(lp1213
g1140
ag1147
ag1154
ag1161
ag1168
ag1175
ag1182
ag1189
asg191
Nsba(ibclass
BBasicBlock
p1214
(dp1215
g12
Nsg13
(lp1216
(ibclass
BInstr
p1217
(dp1218
g2
Nsg17
S'mov     rax, [rbp+ctxt]'
p1219
sg19
S'488b45e8'
p1220
sg21
Vmov rax, qword ptr [rbp - 0x18]
p1221
sg5
L309362L
sg6
Nsg23
S'mov'
p1222
sg25
S'0x4b872L'
p1223
sg27
Nsba(ibclass
BInstr
p1224
(dp1225
g2
Nsg17
S'mov     rdi, rax        ; ctxt'
p1226
sg19
S'4889c7'
p1227
sg21
Vmov rdi, rax
p1228
sg5
L309366L
sg6
Nsg23
S'mov'
p1229
sg25
S'0x4b876L'
p1230
sg27
Nsba(ibclass
BInstr
p1231
(dp1232
g2
Nsg17
S'call    xmlSkipBlankChars__internal_alias'
p1233
sg19
S'e86114ffff'
p1234
sg21
Vcall 0xffffffffffff1466
p1235
sg5
L309369L
sg6
Nsg23
S'call'
p1236
sg25
S'0x4b879L'
p1237
sg27
Nsba(ibclass
BInstr
p1238
(dp1239
g2
Nsg17
S'mov     rax, [rbp+result]'
p1240
sg19
S'488b45d8'
p1241
sg21
Vmov rax, qword ptr [rbp - 0x28]
p1242
sg5
L309374L
sg6
Nsg23
S'mov'
p1243
sg25
S'0x4b87eL'
p1244
sg27
Nsba(ibclass
BInstr
p1245
(dp1246
g2
Nsg17
S'mov     rdx, [rbp+tree]'
p1247
sg19
S'488b55f8'
p1248
sg21
Vmov rdx, qword ptr [rbp - 8]
p1249
sg5
L309378L
sg6
Nsg23
S'mov'
p1250
sg25
S'0x4b882L'
p1251
sg27
Nsba(ibclass
BInstr
p1252
(dp1253
g2
Nsg17
S'mov     [rax], rdx'
p1254
sg19
S'488910'
p1255
sg21
Vmov qword ptr [rax], rdx
p1256
sg5
L309382L
sg6
Nsg23
S'mov'
p1257
sg25
S'0x4b886L'
p1258
sg27
Nsba(ibclass
BInstr
p1259
(dp1260
g2
Nsg17
S'mov     eax, [rbp+res]'
p1261
sg19
S'8b45f0'
p1262
sg21
Vmov eax, dword ptr [rbp - 0x10]
p1263
sg5
L309385L
sg6
Nsg23
S'mov'
p1264
sg25
S'0x4b889L'
p1265
sg27
Nsbasg154
(lp1266
S'mov reg, mem'
p1267
aS'mov reg, reg'
p1268
aS'cregl xmlSkipBlankChars__internreg_regias'
p1269
aS'mov reg, mem'
p1270
aS'mov reg, mem'
p1271
aS'mov mem, reg'
p1272
aS'mov reg, mem'
p1273
asg175
Nsg5
S'0x4b872L'
p1274
sg177
(lp1275
S'0x4b833L'
p1276
aS'0x4b851L'
p1277
asg6
Nsg179
(lp1278
S'0x4b88cL'
p1279
asg183
Nsg184
Nsg185
S'd46f5431820d11d1c5ec38e9cf5aa227'
p1280
sg187
S'd3873cb1b058823753b79ad89c04b661'
p1281
sg189
(lp1282
g1222
ag1229
ag1236
ag1243
ag1250
ag1257
ag1264
asg191
Nsba(ibclass
BBasicBlock
p1283
(dp1284
g12
Nsg13
(lp1285
(ibclass
BInstr
p1286
(dp1287
g2
Nsg17
S'leave'
p1288
sg19
S'c9'
p1289
sg21
Vleave 
p1290
sg5
L309388L
sg6
Nsg23
S'leave'
p1291
sg25
S'0x4b88cL'
p1292
sg27
Nsba(ibclass
BInstr
p1293
(dp1294
g2
Nsg17
S'retn'
p1295
sg19
S'c3'
p1296
sg21
Vret 
p1297
sg5
L309389L
sg6
Nsg23
S'retn'
p1298
sg25
S'0x4b88dL'
p1299
sg27
Nsbasg154
(lp1300
g1288
ag1295
asg175
Nsg5
S'0x4b88cL'
p1301
sg177
(lp1302
S'0x4b6f1L'
p1303
aS'0x4b778L'
p1304
aS'0x4b872L'
p1305
asg6
Nsg179
(lp1306
sg183
Nsg184
Nsg185
S'08c78f73a6f87c85da88b2982f54ce2a'
p1307
sg187
S'08c78f73a6f87c85da88b2982f54ce2a'
p1308
sg189
(lp1309
g1291
ag1298
asg191
Nsbasb.