(ibclass
BFunc
p0
(dp1
S'hash'
p2
NsS'name'
p3
S'xmlXPtrNewRangePoints__internal_alias'
p4
sS'start_address'
p5
L814183L
sS'flag'
p6
NsS'program'
p7
NsS'bbs'
p8
(lp9
(ibclass
BBasicBlock
p10
(dp11
S'function'
p12
NsS'binstrs'
p13
(lp14
(ibclass
BInstr
p15
(dp16
g2
NsS'disasm'
p17
S"push    rbp             ; Alternative name is 'xmlXPtrNewRangePoints'"
p18
sS'bytes'
p19
S'55'
p20
sS'disasm_striped'
p21
Vpush rbp
p22
sg5
L814183L
sg6
NsS'mnem'
p23
S'push'
p24
sS'address'
p25
S'0xc6c67L'
p26
sS'basicblock'
p27
Nsba(ibclass
BInstr
p28
(dp29
g2
Nsg17
S'mov     rbp, rsp'
p30
sg19
S'4889e5'
p31
sg21
Vmov rbp, rsp
p32
sg5
L814184L
sg6
Nsg23
S'mov'
p33
sg25
S'0xc6c68L'
p34
sg27
Nsba(ibclass
BInstr
p35
(dp36
g2
Nsg17
S'sub     rsp, 20h'
p37
sg19
S'4883ec20'
p38
sg21
Vsub rsp, 0x20
p39
sg5
L814187L
sg6
Nsg23
S'sub'
p40
sg25
S'0xc6c6bL'
p41
sg27
Nsba(ibclass
BInstr
p42
(dp43
g2
Nsg17
S'mov     [rbp+start], rdi'
p44
sg19
S'48897de8'
p45
sg21
Vmov qword ptr [rbp - 0x18], rdi
p46
sg5
L814191L
sg6
Nsg23
S'mov'
p47
sg25
S'0xc6c6fL'
p48
sg27
Nsba(ibclass
BInstr
p49
(dp50
g2
Nsg17
S'mov     [rbp+end], rsi'
p51
sg19
S'488975e0'
p52
sg21
Vmov qword ptr [rbp - 0x20], rsi
p53
sg5
L814195L
sg6
Nsg23
S'mov'
p54
sg25
S'0xc6c73L'
p55
sg27
Nsba(ibclass
BInstr
p56
(dp57
g2
Nsg17
S'cmp     [rbp+start], 0'
p58
sg19
S'48837de800'
p59
sg21
Vcmp qword ptr [rbp - 0x18], 0
p60
sg5
L814199L
sg6
Nsg23
S'cmp'
p61
sg25
S'0xc6c77L'
p62
sg27
Nsba(ibclass
BInstr
p63
(dp64
g2
Nsg17
S'jnz     short loc_C6C85'
p65
sg19
S'7507'
p66
sg21
Vjne 9
p67
sg5
L814204L
sg6
Nsg23
S'jnz'
p68
sg25
S'0xc6c7cL'
p69
sg27
NsbasS'disasm_list'
p70
(lp71
S'push reg'
p72
aS'mov reg, reg'
p73
aS'sub reg, 20h'
p74
aS'mov mem, reg'
p75
aS'mov mem, reg'
p76
aS'cmp mem, 0'
p77
aS'jnz func'
p78
asS'end_address'
p79
Nsg5
S'0xc6c67L'
p80
sS'preds'
p81
(lp82
sg6
NsS'succs'
p83
(lp84
S'0xc6c7eL'
p85
aS'0xc6c85L'
p86
asS'hash_v3'
p87
NsS'flag_v2'
p88
NsS'hash_v1'
p89
S'190746cc36f798dfde6210eda659205d'
p90
sS'hash_v2'
p91
S'2e7f596d4a0758263f9e8a8af8cfb558'
p92
sS'mnen_list'
p93
(lp94
g24
ag33
ag40
ag47
ag54
ag61
ag68
asS'neighbour_disasm_list'
p95
Nsba(ibclass
BBasicBlock
p96
(dp97
g12
Nsg13
(lp98
(ibclass
BInstr
p99
(dp100
g2
Nsg17
S'mov     eax, 0'
p101
sg19
S'b800000000'
p102
sg21
Vmov eax, 0
p103
sg5
L814206L
sg6
Nsg23
S'mov'
p104
sg25
S'0xc6c7eL'
p105
sg27
Nsba(ibclass
BInstr
p106
(dp107
g2
Nsg17
S'jmp     short locret_C6CF1'
p108
sg19
S'eb6c'
p109
sg21
Vjmp 0x6e
p110
sg5
L814211L
sg6
Nsg23
S'jmp'
p111
sg25
S'0xc6c83L'
p112
sg27
Nsbasg70
(lp113
S'mov reg, 0'
p114
aS'jmp short func'
p115
asg79
Nsg5
S'0xc6c7eL'
p116
sg81
(lp117
S'0xc6c67L'
p118
asg6
Nsg83
(lp119
S'0xc6cf1L'
p120
asg87
Nsg88
Nsg89
S'8b9a0d40e062be2b9b2d9885108fb196'
p121
sg91
S'2050644a6a17db8b92cb0a22070981a5'
p122
sg93
(lp123
g104
ag111
asg95
Nsba(ibclass
BBasicBlock
p124
(dp125
g12
Nsg13
(lp126
(ibclass
BInstr
p127
(dp128
g2
Nsg17
S'cmp     [rbp+end], 0'
p129
sg19
S'48837de000'
p130
sg21
Vcmp qword ptr [rbp - 0x20], 0
p131
sg5
L814213L
sg6
Nsg23
S'cmp'
p132
sg25
S'0xc6c85L'
p133
sg27
Nsba(ibclass
BInstr
p134
(dp135
g2
Nsg17
S'jnz     short loc_C6C93'
p136
sg19
S'7507'
p137
sg21
Vjne 9
p138
sg5
L814218L
sg6
Nsg23
S'jnz'
p139
sg25
S'0xc6c8aL'
p140
sg27
Nsbasg70
(lp141
S'cmp mem, 0'
p142
aS'jnz func'
p143
asg79
Nsg5
S'0xc6c85L'
p144
sg81
(lp145
S'0xc6c67L'
p146
asg6
Nsg83
(lp147
S'0xc6c8cL'
p148
aS'0xc6c93L'
p149
asg87
Nsg88
Nsg89
S'30cb3d6f6a174adfabcde507f6944a52'
p150
sg91
S'98d72118630a4e08156799652c8790e6'
p151
sg93
(lp152
g132
ag139
asg95
Nsba(ibclass
BBasicBlock
p153
(dp154
g12
Nsg13
(lp155
(ibclass
BInstr
p156
(dp157
g2
Nsg17
S'mov     eax, 0'
p158
sg19
S'b800000000'
p159
sg21
Vmov eax, 0
p160
sg5
L814220L
sg6
Nsg23
S'mov'
p161
sg25
S'0xc6c8cL'
p162
sg27
Nsba(ibclass
BInstr
p163
(dp164
g2
Nsg17
S'jmp     short locret_C6CF1'
p165
sg19
S'eb5e'
p166
sg21
Vjmp 0x60
p167
sg5
L814225L
sg6
Nsg23
S'jmp'
p168
sg25
S'0xc6c91L'
p169
sg27
Nsbasg70
(lp170
S'mov reg, 0'
p171
aS'jmp short func'
p172
asg79
Nsg5
S'0xc6c8cL'
p173
sg81
(lp174
S'0xc6c85L'
p175
asg6
Nsg83
(lp176
S'0xc6cf1L'
p177
asg87
Nsg88
Nsg89
S'8b9a0d40e062be2b9b2d9885108fb196'
p178
sg91
S'2050644a6a17db8b92cb0a22070981a5'
p179
sg93
(lp180
g161
ag168
asg95
Nsba(ibclass
BBasicBlock
p181
(dp182
g12
Nsg13
(lp183
(ibclass
BInstr
p184
(dp185
g2
Nsg17
S'mov     rax, [rbp+start]'
p186
sg19
S'488b45e8'
p187
sg21
Vmov rax, qword ptr [rbp - 0x18]
p188
sg5
L814227L
sg6
Nsg23
S'mov'
p189
sg25
S'0xc6c93L'
p190
sg27
Nsba(ibclass
BInstr
p191
(dp192
g2
Nsg17
S'mov     eax, [rax]'
p193
sg19
S'8b00'
p194
sg21
Vmov eax, dword ptr [rax]
p195
sg5
L814231L
sg6
Nsg23
S'mov'
p196
sg25
S'0xc6c97L'
p197
sg27
Nsba(ibclass
BInstr
p198
(dp199
g2
Nsg17
S'cmp     eax, 5'
p200
sg19
S'83f805'
p201
sg21
Vcmp eax, 5
p202
sg5
L814233L
sg6
Nsg23
S'cmp'
p203
sg25
S'0xc6c99L'
p204
sg27
Nsba(ibclass
BInstr
p205
(dp206
g2
Nsg17
S'jz      short loc_C6CA5'
p207
sg19
S'7407'
p208
sg21
Vje 9
p209
sg5
L814236L
sg6
Nsg23
S'jz'
p210
sg25
S'0xc6c9cL'
p211
sg27
Nsbasg70
(lp212
S'mov reg, mem'
p213
aS'mov reg, mem'
p214
aS'cmp reg, 5'
p215
aS'jz func'
p216
asg79
Nsg5
S'0xc6c93L'
p217
sg81
(lp218
S'0xc6c85L'
p219
asg6
Nsg83
(lp220
S'0xc6c9eL'
p221
aS'0xc6ca5L'
p222
asg87
Nsg88
Nsg89
S'db7f0dec7b6480d765a2fb1483cb9e16'
p223
sg91
S'9a7d257313969f3e11d235a50a2a93ed'
p224
sg93
(lp225
g189
ag196
ag203
ag210
asg95
Nsba(ibclass
BBasicBlock
p226
(dp227
g12
Nsg13
(lp228
(ibclass
BInstr
p229
(dp230
g2
Nsg17
S'mov     eax, 0'
p231
sg19
S'b800000000'
p232
sg21
Vmov eax, 0
p233
sg5
L814238L
sg6
Nsg23
S'mov'
p234
sg25
S'0xc6c9eL'
p235
sg27
Nsba(ibclass
BInstr
p236
(dp237
g2
Nsg17
S'jmp     short locret_C6CF1'
p238
sg19
S'eb4c'
p239
sg21
Vjmp 0x4e
p240
sg5
L814243L
sg6
Nsg23
S'jmp'
p241
sg25
S'0xc6ca3L'
p242
sg27
Nsbasg70
(lp243
S'mov reg, 0'
p244
aS'jmp short func'
p245
asg79
Nsg5
S'0xc6c9eL'
p246
sg81
(lp247
S'0xc6c93L'
p248
asg6
Nsg83
(lp249
S'0xc6cf1L'
p250
asg87
Nsg88
Nsg89
S'8b9a0d40e062be2b9b2d9885108fb196'
p251
sg91
S'2050644a6a17db8b92cb0a22070981a5'
p252
sg93
(lp253
g234
ag241
asg95
Nsba(ibclass
BBasicBlock
p254
(dp255
g12
Nsg13
(lp256
(ibclass
BInstr
p257
(dp258
g2
Nsg17
S'mov     rax, [rbp+end]'
p259
sg19
S'488b45e0'
p260
sg21
Vmov rax, qword ptr [rbp - 0x20]
p261
sg5
L814245L
sg6
Nsg23
S'mov'
p262
sg25
S'0xc6ca5L'
p263
sg27
Nsba(ibclass
BInstr
p264
(dp265
g2
Nsg17
S'mov     eax, [rax]'
p266
sg19
S'8b00'
p267
sg21
Vmov eax, dword ptr [rax]
p268
sg5
L814249L
sg6
Nsg23
S'mov'
p269
sg25
S'0xc6ca9L'
p270
sg27
Nsba(ibclass
BInstr
p271
(dp272
g2
Nsg17
S'cmp     eax, 5'
p273
sg19
S'83f805'
p274
sg21
Vcmp eax, 5
p275
sg5
L814251L
sg6
Nsg23
S'cmp'
p276
sg25
S'0xc6cabL'
p277
sg27
Nsba(ibclass
BInstr
p278
(dp279
g2
Nsg17
S'jz      short loc_C6CB7'
p280
sg19
S'7407'
p281
sg21
Vje 9
p282
sg5
L814254L
sg6
Nsg23
S'jz'
p283
sg25
S'0xc6caeL'
p284
sg27
Nsbasg70
(lp285
S'mov reg, mem'
p286
aS'mov reg, mem'
p287
aS'cmp reg, 5'
p288
aS'jz func'
p289
asg79
Nsg5
S'0xc6ca5L'
p290
sg81
(lp291
S'0xc6c93L'
p292
asg6
Nsg83
(lp293
S'0xc6cb0L'
p294
aS'0xc6cb7L'
p295
asg87
Nsg88
Nsg89
S'db7f0dec7b6480d765a2fb1483cb9e16'
p296
sg91
S'9a7d257313969f3e11d235a50a2a93ed'
p297
sg93
(lp298
g262
ag269
ag276
ag283
asg95
Nsba(ibclass
BBasicBlock
p299
(dp300
g12
Nsg13
(lp301
(ibclass
BInstr
p302
(dp303
g2
Nsg17
S'mov     eax, 0'
p304
sg19
S'b800000000'
p305
sg21
Vmov eax, 0
p306
sg5
L814256L
sg6
Nsg23
S'mov'
p307
sg25
S'0xc6cb0L'
p308
sg27
Nsba(ibclass
BInstr
p309
(dp310
g2
Nsg17
S'jmp     short locret_C6CF1'
p311
sg19
S'eb3a'
p312
sg21
Vjmp 0x3c
p313
sg5
L814261L
sg6
Nsg23
S'jmp'
p314
sg25
S'0xc6cb5L'
p315
sg27
Nsbasg70
(lp316
S'mov reg, 0'
p317
aS'jmp short func'
p318
asg79
Nsg5
S'0xc6cb0L'
p319
sg81
(lp320
S'0xc6ca5L'
p321
asg6
Nsg83
(lp322
S'0xc6cf1L'
p323
asg87
Nsg88
Nsg89
S'8b9a0d40e062be2b9b2d9885108fb196'
p324
sg91
S'2050644a6a17db8b92cb0a22070981a5'
p325
sg93
(lp326
g307
ag314
asg95
Nsba(ibclass
BBasicBlock
p327
(dp328
g12
Nsg13
(lp329
(ibclass
BInstr
p330
(dp331
g2
Nsg17
S'mov     rax, [rbp+end]'
p332
sg19
S'488b45e0'
p333
sg21
Vmov rax, qword ptr [rbp - 0x20]
p334
sg5
L814263L
sg6
Nsg23
S'mov'
p335
sg25
S'0xc6cb7L'
p336
sg27
Nsba(ibclass
BInstr
p337
(dp338
g2
Nsg17
S'mov     ecx, [rax+30h]  ; endindex'
p339
sg19
S'8b4830'
p340
sg21
Vmov ecx, dword ptr [rax + 0x30]
p341
sg5
L814267L
sg6
Nsg23
S'mov'
p342
sg25
S'0xc6cbbL'
p343
sg27
Nsba(ibclass
BInstr
p344
(dp345
g2
Nsg17
S'mov     rax, [rbp+end]'
p346
sg19
S'488b45e0'
p347
sg21
Vmov rax, qword ptr [rbp - 0x20]
p348
sg5
L814270L
sg6
Nsg23
S'mov'
p349
sg25
S'0xc6cbeL'
p350
sg27
Nsba(ibclass
BInstr
p351
(dp352
g2
Nsg17
S'mov     rdx, [rax+28h]  ; end'
p353
sg19
S'488b5028'
p354
sg21
Vmov rdx, qword ptr [rax + 0x28]
p355
sg5
L814274L
sg6
Nsg23
S'mov'
p356
sg25
S'0xc6cc2L'
p357
sg27
Nsba(ibclass
BInstr
p358
(dp359
g2
Nsg17
S'mov     rax, [rbp+start]'
p360
sg19
S'488b45e8'
p361
sg21
Vmov rax, qword ptr [rbp - 0x18]
p362
sg5
L814278L
sg6
Nsg23
S'mov'
p363
sg25
S'0xc6cc6L'
p364
sg27
Nsba(ibclass
BInstr
p365
(dp366
g2
Nsg17
S'mov     esi, [rax+30h]  ; startindex'
p367
sg19
S'8b7030'
p368
sg21
Vmov esi, dword ptr [rax + 0x30]
p369
sg5
L814282L
sg6
Nsg23
S'mov'
p370
sg25
S'0xc6ccaL'
p371
sg27
Nsba(ibclass
BInstr
p372
(dp373
g2
Nsg17
S'mov     rax, [rbp+start]'
p374
sg19
S'488b45e8'
p375
sg21
Vmov rax, qword ptr [rbp - 0x18]
p376
sg5
L814285L
sg6
Nsg23
S'mov'
p377
sg25
S'0xc6ccdL'
p378
sg27
Nsba(ibclass
BInstr
p379
(dp380
g2
Nsg17
S'mov     rax, [rax+28h]'
p381
sg19
S'488b4028'
p382
sg21
Vmov rax, qword ptr [rax + 0x28]
p383
sg5
L814289L
sg6
Nsg23
S'mov'
p384
sg25
S'0xc6cd1L'
p385
sg27
Nsba(ibclass
BInstr
p386
(dp387
g2
Nsg17
S'mov     rdi, rax        ; start'
p388
sg19
S'4889c7'
p389
sg21
Vmov rdi, rax
p390
sg5
L814293L
sg6
Nsg23
S'mov'
p391
sg25
S'0xc6cd5L'
p392
sg27
Nsba(ibclass
BInstr
p393
(dp394
g2
Nsg17
S'call    xmlXPtrNewRangeInternal'
p395
sg19
S'e844feffff'
p396
sg21
Vcall 0xfffffffffffffe49
p397
sg5
L814296L
sg6
Nsg23
S'call'
p398
sg25
S'0xc6cd8L'
p399
sg27
Nsba(ibclass
BInstr
p400
(dp401
g2
Nsg17
S'mov     [rbp+ret], rax'
p402
sg19
S'488945f8'
p403
sg21
Vmov qword ptr [rbp - 8], rax
p404
sg5
L814301L
sg6
Nsg23
S'mov'
p405
sg25
S'0xc6cddL'
p406
sg27
Nsba(ibclass
BInstr
p407
(dp408
g2
Nsg17
S'mov     rax, [rbp+ret]'
p409
sg19
S'488b45f8'
p410
sg21
Vmov rax, qword ptr [rbp - 8]
p411
sg5
L814305L
sg6
Nsg23
S'mov'
p412
sg25
S'0xc6ce1L'
p413
sg27
Nsba(ibclass
BInstr
p414
(dp415
g2
Nsg17
S'mov     rdi, rax        ; range'
p416
sg19
S'4889c7'
p417
sg21
Vmov rdi, rax
p418
sg5
L814309L
sg6
Nsg23
S'mov'
p419
sg25
S'0xc6ce5L'
p420
sg27
Nsba(ibclass
BInstr
p421
(dp422
g2
Nsg17
S'call    xmlXPtrRangeCheckOrder'
p423
sg19
S'e8a4fcffff'
p424
sg21
Vcall 0xfffffffffffffca9
p425
sg5
L814312L
sg6
Nsg23
S'call'
p426
sg25
S'0xc6ce8L'
p427
sg27
Nsba(ibclass
BInstr
p428
(dp429
g2
Nsg17
S'mov     rax, [rbp+ret]'
p430
sg19
S'488b45f8'
p431
sg21
Vmov rax, qword ptr [rbp - 8]
p432
sg5
L814317L
sg6
Nsg23
S'mov'
p433
sg25
S'0xc6cedL'
p434
sg27
Nsbasg70
(lp435
S'mov reg, mem'
p436
aS'mov reg, mem'
p437
aS'mov reg, mem'
p438
aS'mov reg, mem'
p439
aS'mov reg, mem'
p440
aS'mov reg, mem'
p441
aS'mov reg, mem'
p442
aS'mov reg, mem'
p443
aS'mov reg, reg'
p444
aS'cregl xmlXPtrNewRangeInternreg'
p445
aS'mov mem, reg'
p446
aS'mov reg, mem'
p447
aS'mov reg, reg'
p448
aS'cregl xmlXPtrRangeCheckOrder'
p449
aS'mov reg, mem'
p450
asg79
Nsg5
S'0xc6cb7L'
p451
sg81
(lp452
S'0xc6ca5L'
p453
asg6
Nsg83
(lp454
S'0xc6cf1L'
p455
asg87
Nsg88
Nsg89
S'9725e0c4c375ca7c8db6c30aa91f9f54'
p456
sg91
S'673c02f10036487c36a7b2c0aa544d5c'
p457
sg93
(lp458
g335
ag342
ag349
ag356
ag363
ag370
ag377
ag384
ag391
ag398
ag405
ag412
ag419
ag426
ag433
asg95
Nsba(ibclass
BBasicBlock
p459
(dp460
g12
Nsg13
(lp461
(ibclass
BInstr
p462
(dp463
g2
Nsg17
S'leave'
p464
sg19
S'c9'
p465
sg21
Vleave 
p466
sg5
L814321L
sg6
Nsg23
S'leave'
p467
sg25
S'0xc6cf1L'
p468
sg27
Nsba(ibclass
BInstr
p469
(dp470
g2
Nsg17
S'retn'
p471
sg19
S'c3'
p472
sg21
Vret 
p473
sg5
L814322L
sg6
Nsg23
S'retn'
p474
sg25
S'0xc6cf2L'
p475
sg27
Nsbasg70
(lp476
g464
ag471
asg79
Nsg5
S'0xc6cf1L'
p477
sg81
(lp478
S'0xc6c7eL'
p479
aS'0xc6c8cL'
p480
aS'0xc6c9eL'
p481
aS'0xc6cb0L'
p482
aS'0xc6cb7L'
p483
asg6
Nsg83
(lp484
sg87
Nsg88
Nsg89
S'08c78f73a6f87c85da88b2982f54ce2a'
p485
sg91
S'08c78f73a6f87c85da88b2982f54ce2a'
p486
sg93
(lp487
g467
ag474
asg95
Nsbasb.