(ibclass
BFunc
p0
(dp1
S'hash'
p2
NsS'name'
p3
S'xmlParseMarkupDecl__internal_alias'
p4
sS'start_address'
p5
L314844L
sS'flag'
p6
NsS'program'
p7
NsS'bbs'
p8
(lp9
(ibclass
BBasicBlock
p10
(dp11
S'function'
p12
NsS'binstrs'
p13
(lp14
(ibclass
BInstr
p15
(dp16
g2
NsS'disasm'
p17
S"push    rbp             ; Alternative name is 'xmlParseMarkupDecl'"
p18
sS'bytes'
p19
S'55'
p20
sS'disasm_striped'
p21
Vpush rbp
p22
sg5
L314844L
sg6
NsS'mnem'
p23
S'push'
p24
sS'address'
p25
S'0x4cddcL'
p26
sS'basicblock'
p27
Nsba(ibclass
BInstr
p28
(dp29
g2
Nsg17
S'mov     rbp, rsp'
p30
sg19
S'4889e5'
p31
sg21
Vmov rbp, rsp
p32
sg5
L314845L
sg6
Nsg23
S'mov'
p33
sg25
S'0x4cdddL'
p34
sg27
Nsba(ibclass
BInstr
p35
(dp36
g2
Nsg17
S'sub     rsp, 10h'
p37
sg19
S'4883ec10'
p38
sg21
Vsub rsp, 0x10
p39
sg5
L314848L
sg6
Nsg23
S'sub'
p40
sg25
S'0x4cde0L'
p41
sg27
Nsba(ibclass
BInstr
p42
(dp43
g2
Nsg17
S'mov     [rbp+ctxt], rdi'
p44
sg19
S'48897df8'
p45
sg21
Vmov qword ptr [rbp - 8], rdi
p46
sg5
L314852L
sg6
Nsg23
S'mov'
p47
sg25
S'0x4cde4L'
p48
sg27
Nsba(ibclass
BInstr
p49
(dp50
g2
Nsg17
S'mov     rax, [rbp+ctxt]'
p51
sg19
S'488b45f8'
p52
sg21
Vmov rax, qword ptr [rbp - 8]
p53
sg5
L314856L
sg6
Nsg23
S'mov'
p54
sg25
S'0x4cde8L'
p55
sg27
Nsba(ibclass
BInstr
p56
(dp57
g2
Nsg17
S'mov     eax, [rax+1C4h]'
p58
sg19
S'8b80c4010000'
p59
sg21
Vmov eax, dword ptr [rax + 0x1c4]
p60
sg5
L314860L
sg6
Nsg23
S'mov'
p61
sg25
S'0x4cdecL'
p62
sg27
Nsba(ibclass
BInstr
p63
(dp64
g2
Nsg17
S'test    eax, eax'
p65
sg19
S'85c0'
p66
sg21
Vtest eax, eax
p67
sg5
L314866L
sg6
Nsg23
S'test'
p68
sg25
S'0x4cdf2L'
p69
sg27
Nsba(ibclass
BInstr
p70
(dp71
g2
Nsg17
S'jnz     short loc_4CE2B'
p72
sg19
S'7535'
p73
sg21
Vjne 0x37
p74
sg5
L314868L
sg6
Nsg23
S'jnz'
p75
sg25
S'0x4cdf4L'
p76
sg27
NsbasS'disasm_list'
p77
(lp78
S'push reg'
p79
aS'mov reg, reg'
p80
aS'sub reg, 10h'
p81
aS'mov mem, reg'
p82
aS'mov reg, mem'
p83
aS'mov reg, mem'
p84
aS'test reg, reg'
p85
aS'jnz func'
p86
asS'end_address'
p87
Nsg5
S'0x4cddcL'
p88
sS'preds'
p89
(lp90
sg6
NsS'succs'
p91
(lp92
S'0x4cdf6L'
p93
aS'0x4ce2bL'
p94
asS'hash_v3'
p95
NsS'flag_v2'
p96
NsS'hash_v1'
p97
S'c66edd96f39431c9f0a06b382e04a184'
p98
sS'hash_v2'
p99
S'9e72c12987604b2cf8b7cd346f3e9d6f'
p100
sS'mnen_list'
p101
(lp102
g24
ag33
ag40
ag47
ag54
ag61
ag68
ag75
asS'neighbour_disasm_list'
p103
Nsba(ibclass
BBasicBlock
p104
(dp105
g12
Nsg13
(lp106
(ibclass
BInstr
p107
(dp108
g2
Nsg17
S'mov     rax, [rbp+ctxt]'
p109
sg19
S'488b45f8'
p110
sg21
Vmov rax, qword ptr [rbp - 8]
p111
sg5
L314870L
sg6
Nsg23
S'mov'
p112
sg25
S'0x4cdf6L'
p113
sg27
Nsba(ibclass
BInstr
p114
(dp115
g2
Nsg17
S'mov     rax, [rax+38h]'
p116
sg19
S'488b4038'
p117
sg21
Vmov rax, qword ptr [rax + 0x38]
p118
sg5
L314874L
sg6
Nsg23
S'mov'
p119
sg25
S'0x4cdfaL'
p120
sg27
Nsba(ibclass
BInstr
p121
(dp122
g2
Nsg17
S'mov     rax, [rax+28h]'
p123
sg19
S'488b4028'
p124
sg21
Vmov rax, qword ptr [rax + 0x28]
p125
sg5
L314878L
sg6
Nsg23
S'mov'
p126
sg25
S'0x4cdfeL'
p127
sg27
Nsba(ibclass
BInstr
p128
(dp129
g2
Nsg17
S'mov     rdx, rax'
p130
sg19
S'4889c2'
p131
sg21
Vmov rdx, rax
p132
sg5
L314882L
sg6
Nsg23
S'mov'
p133
sg25
S'0x4ce02L'
p134
sg27
Nsba(ibclass
BInstr
p135
(dp136
g2
Nsg17
S'mov     rax, [rbp+ctxt]'
p137
sg19
S'488b45f8'
p138
sg21
Vmov rax, qword ptr [rbp - 8]
p139
sg5
L314885L
sg6
Nsg23
S'mov'
p140
sg25
S'0x4ce05L'
p141
sg27
Nsba(ibclass
BInstr
p142
(dp143
g2
Nsg17
S'mov     rax, [rax+38h]'
p144
sg19
S'488b4038'
p145
sg21
Vmov rax, qword ptr [rax + 0x38]
p146
sg5
L314889L
sg6
Nsg23
S'mov'
p147
sg25
S'0x4ce09L'
p148
sg27
Nsba(ibclass
BInstr
p149
(dp150
g2
Nsg17
S'mov     rax, [rax+20h]'
p151
sg19
S'488b4020'
p152
sg21
Vmov rax, qword ptr [rax + 0x20]
p153
sg5
L314893L
sg6
Nsg23
S'mov'
p154
sg25
S'0x4ce0dL'
p155
sg27
Nsba(ibclass
BInstr
p156
(dp157
g2
Nsg17
S'sub     rdx, rax'
p158
sg19
S'4829c2'
p159
sg21
Vsub rdx, rax
p160
sg5
L314897L
sg6
Nsg23
S'sub'
p161
sg25
S'0x4ce11L'
p162
sg27
Nsba(ibclass
BInstr
p163
(dp164
g2
Nsg17
S'mov     rax, rdx'
p165
sg19
S'4889d0'
p166
sg21
Vmov rax, rdx
p167
sg5
L314900L
sg6
Nsg23
S'mov'
p168
sg25
S'0x4ce14L'
p169
sg27
Nsba(ibclass
BInstr
p170
(dp171
g2
Nsg17
S'cmp     rax, 0F9h'
p172
sg19
S'483df9000000'
p173
sg21
Vcmp rax, 0xf9
p174
sg5
L314903L
sg6
Nsg23
S'cmp'
p175
sg25
S'0x4ce17L'
p176
sg27
Nsba(ibclass
BInstr
p177
(dp178
g2
Nsg17
S'jg      short loc_4CE2B'
p179
sg19
S'7f0c'
p180
sg21
Vjg 0xe
p181
sg5
L314909L
sg6
Nsg23
S'jg'
p182
sg25
S'0x4ce1dL'
p183
sg27
Nsbasg77
(lp184
S'mov reg, mem'
p185
aS'mov reg, mem'
p186
aS'mov reg, mem'
p187
aS'mov reg, reg'
p188
aS'mov reg, mem'
p189
aS'mov reg, mem'
p190
aS'mov reg, mem'
p191
aS'sub reg, reg'
p192
aS'mov reg, reg'
p193
aS'cmp reg, 0F9h'
p194
aS'jg func'
p195
asg87
Nsg5
S'0x4cdf6L'
p196
sg89
(lp197
S'0x4cddcL'
p198
asg6
Nsg91
(lp199
S'0x4ce1fL'
p200
aS'0x4ce2bL'
p201
asg95
Nsg96
Nsg97
S'5f46987400e6e5b60b66b04c8e593e81'
p202
sg99
S'02535dc706bee9fa59c3988544331360'
p203
sg101
(lp204
g112
ag119
ag126
ag133
ag140
ag147
ag154
ag161
ag168
ag175
ag182
asg103
Nsba(ibclass
BBasicBlock
p205
(dp206
g12
Nsg13
(lp207
(ibclass
BInstr
p208
(dp209
g2
Nsg17
S'mov     rax, [rbp+ctxt]'
p210
sg19
S'488b45f8'
p211
sg21
Vmov rax, qword ptr [rbp - 8]
p212
sg5
L314911L
sg6
Nsg23
S'mov'
p213
sg25
S'0x4ce1fL'
p214
sg27
Nsba(ibclass
BInstr
p215
(dp216
g2
Nsg17
S'mov     rdi, rax        ; ctxt'
p217
sg19
S'4889c7'
p218
sg21
Vmov rdi, rax
p219
sg5
L314915L
sg6
Nsg23
S'mov'
p220
sg25
S'0x4ce23L'
p221
sg27
Nsba(ibclass
BInstr
p222
(dp223
g2
Nsg17
S'call    xmlGROW'
p224
sg19
S'e8e8fdfeff'
p225
sg21
Vcall 0xfffffffffffefded
p226
sg5
L314918L
sg6
Nsg23
S'call'
p227
sg25
S'0x4ce26L'
p228
sg27
Nsbasg77
(lp229
S'mov reg, mem'
p230
aS'mov reg, reg'
p231
aS'cregl xmlGROW'
p232
asg87
Nsg5
S'0x4ce1fL'
p233
sg89
(lp234
S'0x4cdf6L'
p235
asg6
Nsg91
(lp236
S'0x4ce2bL'
p237
asg95
Nsg96
Nsg97
S'0bf1a79a6a1155c5085c1c85d6d83d05'
p238
sg99
S'd8f449f6e3ef63354c773c18dd99ae67'
p239
sg101
(lp240
g213
ag220
ag227
asg103
Nsba(ibclass
BBasicBlock
p241
(dp242
g12
Nsg13
(lp243
(ibclass
BInstr
p244
(dp245
g2
Nsg17
S'mov     rax, [rbp+ctxt]'
p246
sg19
S'488b45f8'
p247
sg21
Vmov rax, qword ptr [rbp - 8]
p248
sg5
L314923L
sg6
Nsg23
S'mov'
p249
sg25
S'0x4ce2bL'
p250
sg27
Nsba(ibclass
BInstr
p251
(dp252
g2
Nsg17
S'mov     rax, [rax+38h]'
p253
sg19
S'488b4038'
p254
sg21
Vmov rax, qword ptr [rax + 0x38]
p255
sg5
L314927L
sg6
Nsg23
S'mov'
p256
sg25
S'0x4ce2fL'
p257
sg27
Nsba(ibclass
BInstr
p258
(dp259
g2
Nsg17
S'mov     rax, [rax+20h]'
p260
sg19
S'488b4020'
p261
sg21
Vmov rax, qword ptr [rax + 0x20]
p262
sg5
L314931L
sg6
Nsg23
S'mov'
p263
sg25
S'0x4ce33L'
p264
sg27
Nsba(ibclass
BInstr
p265
(dp266
g2
Nsg17
S'movzx   eax, byte ptr [rax]'
p267
sg19
S'0fb600'
p268
sg21
Vmovzx eax, byte ptr [rax]
p269
sg5
L314935L
sg6
Nsg23
S'movzx'
p270
sg25
S'0x4ce37L'
p271
sg27
Nsba(ibclass
BInstr
p272
(dp273
g2
Nsg17
S'cmp     al, 3Ch'
p274
sg19
S'3c3c'
p275
sg21
Vcmp al, 0x3c
p276
sg5
L314938L
sg6
Nsg23
S'cmp'
p277
sg25
S'0x4ce3aL'
p278
sg27
Nsba(ibclass
BInstr
p279
(dp280
g2
Nsg17
S'jnz     loc_4CF30'
p281
sg19
S'0f85ee000000'
p282
sg21
Vjne 0xf4
p283
sg5
L314940L
sg6
Nsg23
S'jnz'
p284
sg25
S'0x4ce3cL'
p285
sg27
Nsbasg77
(lp286
S'mov reg, mem'
p287
aS'mov reg, mem'
p288
aS'mov reg, mem'
p289
aS'movzx reg, mem'
p290
aS'cmp reg, 3Ch'
p291
aS'jnz func'
p292
asg87
Nsg5
S'0x4ce2bL'
p293
sg89
(lp294
S'0x4cddcL'
p295
aS'0x4cdf6L'
p296
aS'0x4ce1fL'
p297
asg6
Nsg91
(lp298
S'0x4ce42L'
p299
aS'0x4cf30L'
p300
asg95
Nsg96
Nsg97
S'8f3f680eb64f543d58e9f30e939c868c'
p301
sg99
S'3aa1976eab7f4199b9b29c61be8b9c44'
p302
sg101
(lp303
g249
ag256
ag263
ag270
ag277
ag284
asg103
Nsba(ibclass
BBasicBlock
p304
(dp305
g12
Nsg13
(lp306
(ibclass
BInstr
p307
(dp308
g2
Nsg17
S'mov     rax, [rbp+ctxt]'
p309
sg19
S'488b45f8'
p310
sg21
Vmov rax, qword ptr [rbp - 8]
p311
sg5
L314946L
sg6
Nsg23
S'mov'
p312
sg25
S'0x4ce42L'
p313
sg27
Nsba(ibclass
BInstr
p314
(dp315
g2
Nsg17
S'mov     rax, [rax+38h]'
p316
sg19
S'488b4038'
p317
sg21
Vmov rax, qword ptr [rax + 0x38]
p318
sg5
L314950L
sg6
Nsg23
S'mov'
p319
sg25
S'0x4ce46L'
p320
sg27
Nsba(ibclass
BInstr
p321
(dp322
g2
Nsg17
S'mov     rax, [rax+20h]'
p323
sg19
S'488b4020'
p324
sg21
Vmov rax, qword ptr [rax + 0x20]
p325
sg5
L314954L
sg6
Nsg23
S'mov'
p326
sg25
S'0x4ce4aL'
p327
sg27
Nsba(ibclass
BInstr
p328
(dp329
g2
Nsg17
S'add     rax, 1'
p330
sg19
S'4883c001'
p331
sg21
Vadd rax, 1
p332
sg5
L314958L
sg6
Nsg23
S'add'
p333
sg25
S'0x4ce4eL'
p334
sg27
Nsba(ibclass
BInstr
p335
(dp336
g2
Nsg17
S'movzx   eax, byte ptr [rax]'
p337
sg19
S'0fb600'
p338
sg21
Vmovzx eax, byte ptr [rax]
p339
sg5
L314962L
sg6
Nsg23
S'movzx'
p340
sg25
S'0x4ce52L'
p341
sg27
Nsba(ibclass
BInstr
p342
(dp343
g2
Nsg17
S'cmp     al, 21h'
p344
sg19
S'3c21'
p345
sg21
Vcmp al, 0x21
p346
sg5
L314965L
sg6
Nsg23
S'cmp'
p347
sg25
S'0x4ce55L'
p348
sg27
Nsba(ibclass
BInstr
p349
(dp350
g2
Nsg17
S'jnz     loc_4CF0A'
p351
sg19
S'0f85ad000000'
p352
sg21
Vjne 0xb3
p353
sg5
L314967L
sg6
Nsg23
S'jnz'
p354
sg25
S'0x4ce57L'
p355
sg27
Nsbasg77
(lp356
S'mov reg, mem'
p357
aS'mov reg, mem'
p358
aS'mov reg, mem'
p359
aS'add reg, 1'
p360
aS'movzx reg, mem'
p361
aS'cmp reg, 21h'
p362
aS'jnz func'
p363
asg87
Nsg5
S'0x4ce42L'
p364
sg89
(lp365
S'0x4ce2bL'
p366
asg6
Nsg91
(lp367
S'0x4ce5dL'
p368
aS'0x4cf0aL'
p369
asg95
Nsg96
Nsg97
S'a09b8bbfa38c30bf5174bc54b9c9fc87'
p370
sg99
S'dc842c18033f10bf049526889e284a4e'
p371
sg101
(lp372
g312
ag319
ag326
ag333
ag340
ag347
ag354
asg103
Nsba(ibclass
BBasicBlock
p373
(dp374
g12
Nsg13
(lp375
(ibclass
BInstr
p376
(dp377
g2
Nsg17
S'mov     rax, [rbp+ctxt]'
p378
sg19
S'488b45f8'
p379
sg21
Vmov rax, qword ptr [rbp - 8]
p380
sg5
L314973L
sg6
Nsg23
S'mov'
p381
sg25
S'0x4ce5dL'
p382
sg27
Nsba(ibclass
BInstr
p383
(dp384
g2
Nsg17
S'mov     rax, [rax+38h]'
p385
sg19
S'488b4038'
p386
sg21
Vmov rax, qword ptr [rax + 0x38]
p387
sg5
L314977L
sg6
Nsg23
S'mov'
p388
sg25
S'0x4ce61L'
p389
sg27
Nsba(ibclass
BInstr
p390
(dp391
g2
Nsg17
S'mov     rax, [rax+20h]'
p392
sg19
S'488b4020'
p393
sg21
Vmov rax, qword ptr [rax + 0x20]
p394
sg5
L314981L
sg6
Nsg23
S'mov'
p395
sg25
S'0x4ce65L'
p396
sg27
Nsba(ibclass
BInstr
p397
(dp398
g2
Nsg17
S'add     rax, 2'
p399
sg19
S'4883c002'
p400
sg21
Vadd rax, 2
p401
sg5
L314985L
sg6
Nsg23
S'add'
p402
sg25
S'0x4ce69L'
p403
sg27
Nsba(ibclass
BInstr
p404
(dp405
g2
Nsg17
S'movzx   eax, byte ptr [rax]'
p406
sg19
S'0fb600'
p407
sg21
Vmovzx eax, byte ptr [rax]
p408
sg5
L314989L
sg6
Nsg23
S'movzx'
p409
sg25
S'0x4ce6dL'
p410
sg27
Nsba(ibclass
BInstr
p411
(dp412
g2
Nsg17
S'movzx   eax, al'
p413
sg19
S'0fb6c0'
p414
sg21
Vmovzx eax, al
p415
sg5
L314992L
sg6
Nsg23
S'movzx'
p416
sg25
S'0x4ce70L'
p417
sg27
Nsba(ibclass
BInstr
p418
(dp419
g2
Nsg17
S'cmp     eax, 41h'
p420
sg19
S'83f841'
p421
sg21
Vcmp eax, 0x41
p422
sg5
L314995L
sg6
Nsg23
S'cmp'
p423
sg25
S'0x4ce73L'
p424
sg27
Nsba(ibclass
BInstr
p425
(dp426
g2
Nsg17
S'jz      short loc_4CEE0'
p427
sg19
S'7468'
p428
sg21
Vje 0x6a
p429
sg5
L314998L
sg6
Nsg23
S'jz'
p430
sg25
S'0x4ce76L'
p431
sg27
Nsbasg77
(lp432
S'mov reg, mem'
p433
aS'mov reg, mem'
p434
aS'mov reg, mem'
p435
aS'add reg, 2'
p436
aS'movzx reg, mem'
p437
aS'movzx reg, reg'
p438
aS'cmp reg, 41h'
p439
aS'jz func'
p440
asg87
Nsg5
S'0x4ce5dL'
p441
sg89
(lp442
S'0x4ce42L'
p443
asg6
Nsg91
(lp444
S'0x4ce78L'
p445
aS'0x4cee0L'
p446
asg95
Nsg96
Nsg97
S'9843ed1bff896f564e2befdd50201213'
p447
sg99
S'7e0c1294b07bc289040cb1acf751a2d1'
p448
sg101
(lp449
g381
ag388
ag395
ag402
ag409
ag416
ag423
ag430
asg103
Nsba(ibclass
BBasicBlock
p450
(dp451
g12
Nsg13
(lp452
(ibclass
BInstr
p453
(dp454
g2
Nsg17
S'cmp     eax, 41h'
p455
sg19
S'83f841'
p456
sg21
Vcmp eax, 0x41
p457
sg5
L315000L
sg6
Nsg23
S'cmp'
p458
sg25
S'0x4ce78L'
p459
sg27
Nsba(ibclass
BInstr
p460
(dp461
g2
Nsg17
S'jg      short loc_4CE87'
p462
sg19
S'7f0a'
p463
sg21
Vjg 0xc
p464
sg5
L315003L
sg6
Nsg23
S'jg'
p465
sg25
S'0x4ce7bL'
p466
sg27
Nsbasg77
(lp467
S'cmp reg, 41h'
p468
aS'jg func'
p469
asg87
Nsg5
S'0x4ce78L'
p470
sg89
(lp471
S'0x4ce5dL'
p472
asg6
Nsg91
(lp473
S'0x4ce7dL'
p474
aS'0x4ce87L'
p475
asg95
Nsg96
Nsg97
S'b356acbc0cbaf5ebf0a35cc7bcc98784'
p476
sg99
S'b32eb7fbb5208df220043e66cbb8f28f'
p477
sg101
(lp478
g458
ag465
asg103
Nsba(ibclass
BBasicBlock
p479
(dp480
g12
Nsg13
(lp481
(ibclass
BInstr
p482
(dp483
g2
Nsg17
S'cmp     eax, 2Dh'
p484
sg19
S'83f82d'
p485
sg21
Vcmp eax, 0x2d
p486
sg5
L315005L
sg6
Nsg23
S'cmp'
p487
sg25
S'0x4ce7dL'
p488
sg27
Nsba(ibclass
BInstr
p489
(dp490
g2
Nsg17
S'jz      short loc_4CEFC'
p491
sg19
S'747a'
p492
sg21
Vje 0x7c
p493
sg5
L315008L
sg6
Nsg23
S'jz'
p494
sg25
S'0x4ce80L'
p495
sg27
Nsbasg77
(lp496
S'cmp reg, 2Dh'
p497
aS'jz func'
p498
asg87
Nsg5
S'0x4ce7dL'
p499
sg89
(lp500
S'0x4ce78L'
p501
asg6
Nsg91
(lp502
S'0x4ce82L'
p503
aS'0x4cefcL'
p504
asg95
Nsg96
Nsg97
S'613dbc2b0cb9d6264d802b24d709daea'
p505
sg99
S'1aa70f97acbf3c305027e3ca20635a4f'
p506
sg101
(lp507
g487
ag494
asg103
Nsba(ibclass
BBasicBlock
p508
(dp509
g12
Nsg13
(lp510
(ibclass
BInstr
p511
(dp512
g2
Nsg17
S'jmp     loc_4CF30'
p513
sg19
S'e9a9000000'
p514
sg21
Vjmp 0xae
p515
sg5
L315010L
sg6
Nsg23
S'jmp'
p516
sg25
S'0x4ce82L'
p517
sg27
Nsbasg77
(lp518
S'jmp func'
p519
asg87
Nsg5
S'0x4ce82L'
p520
sg89
(lp521
S'0x4ce7dL'
p522
asg6
Nsg91
(lp523
S'0x4cf30L'
p524
asg95
Nsg96
Nsg97
S'0ef6cf926f2f394b0cc8e11be8022625'
p525
sg99
S'6c64eaafdcb2d6ebd96fc3dc6cab1911'
p526
sg101
(lp527
g516
asg103
Nsba(ibclass
BBasicBlock
p528
(dp529
g12
Nsg13
(lp530
(ibclass
BInstr
p531
(dp532
g2
Nsg17
S'cmp     eax, 45h'
p533
sg19
S'83f845'
p534
sg21
Vcmp eax, 0x45
p535
sg5
L315015L
sg6
Nsg23
S'cmp'
p536
sg25
S'0x4ce87L'
p537
sg27
Nsba(ibclass
BInstr
p538
(dp539
g2
Nsg17
S'jz      short loc_4CE96'
p540
sg19
S'740a'
p541
sg21
Vje 0xc
p542
sg5
L315018L
sg6
Nsg23
S'jz'
p543
sg25
S'0x4ce8aL'
p544
sg27
Nsbasg77
(lp545
S'cmp reg, 45h'
p546
aS'jz func'
p547
asg87
Nsg5
S'0x4ce87L'
p548
sg89
(lp549
S'0x4ce78L'
p550
asg6
Nsg91
(lp551
S'0x4ce8cL'
p552
aS'0x4ce96L'
p553
asg95
Nsg96
Nsg97
S'613dbc2b0cb9d6264d802b24d709daea'
p554
sg99
S'35676c5b1e2bae9dc785141717557792'
p555
sg101
(lp556
g536
ag543
asg103
Nsba(ibclass
BBasicBlock
p557
(dp558
g12
Nsg13
(lp559
(ibclass
BInstr
p560
(dp561
g2
Nsg17
S'cmp     eax, 4Eh'
p562
sg19
S'83f84e'
p563
sg21
Vcmp eax, 0x4e
p564
sg5
L315020L
sg6
Nsg23
S'cmp'
p565
sg25
S'0x4ce8cL'
p566
sg27
Nsba(ibclass
BInstr
p567
(dp568
g2
Nsg17
S'jz      short loc_4CEEE'
p569
sg19
S'745d'
p570
sg21
Vje 0x5f
p571
sg5
L315023L
sg6
Nsg23
S'jz'
p572
sg25
S'0x4ce8fL'
p573
sg27
Nsbasg77
(lp574
S'cmp reg, 4Eh'
p575
aS'jz func'
p576
asg87
Nsg5
S'0x4ce8cL'
p577
sg89
(lp578
S'0x4ce87L'
p579
asg6
Nsg91
(lp580
S'0x4ce91L'
p581
aS'0x4ceeeL'
p582
asg95
Nsg96
Nsg97
S'613dbc2b0cb9d6264d802b24d709daea'
p583
sg99
S'c05f0ee686c91003507d84531892ffbd'
p584
sg101
(lp585
g565
ag572
asg103
Nsba(ibclass
BBasicBlock
p586
(dp587
g12
Nsg13
(lp588
(ibclass
BInstr
p589
(dp590
g2
Nsg17
S'jmp     loc_4CF30'
p591
sg19
S'e99a000000'
p592
sg21
Vjmp 0x9f
p593
sg5
L315025L
sg6
Nsg23
S'jmp'
p594
sg25
S'0x4ce91L'
p595
sg27
Nsbasg77
(lp596
S'jmp func'
p597
asg87
Nsg5
S'0x4ce91L'
p598
sg89
(lp599
S'0x4ce8cL'
p600
asg6
Nsg91
(lp601
S'0x4cf30L'
p602
asg95
Nsg96
Nsg97
S'0ef6cf926f2f394b0cc8e11be8022625'
p603
sg99
S'6c64eaafdcb2d6ebd96fc3dc6cab1911'
p604
sg101
(lp605
g594
asg103
Nsba(ibclass
BBasicBlock
p606
(dp607
g12
Nsg13
(lp608
(ibclass
BInstr
p609
(dp610
g2
Nsg17
S'mov     rax, [rbp+ctxt]'
p611
sg19
S'488b45f8'
p612
sg21
Vmov rax, qword ptr [rbp - 8]
p613
sg5
L315030L
sg6
Nsg23
S'mov'
p614
sg25
S'0x4ce96L'
p615
sg27
Nsba(ibclass
BInstr
p616
(dp617
g2
Nsg17
S'mov     rax, [rax+38h]'
p618
sg19
S'488b4038'
p619
sg21
Vmov rax, qword ptr [rax + 0x38]
p620
sg5
L315034L
sg6
Nsg23
S'mov'
p621
sg25
S'0x4ce9aL'
p622
sg27
Nsba(ibclass
BInstr
p623
(dp624
g2
Nsg17
S'mov     rax, [rax+20h]'
p625
sg19
S'488b4020'
p626
sg21
Vmov rax, qword ptr [rax + 0x20]
p627
sg5
L315038L
sg6
Nsg23
S'mov'
p628
sg25
S'0x4ce9eL'
p629
sg27
Nsba(ibclass
BInstr
p630
(dp631
g2
Nsg17
S'add     rax, 3'
p632
sg19
S'4883c003'
p633
sg21
Vadd rax, 3
p634
sg5
L315042L
sg6
Nsg23
S'add'
p635
sg25
S'0x4cea2L'
p636
sg27
Nsba(ibclass
BInstr
p637
(dp638
g2
Nsg17
S'movzx   eax, byte ptr [rax]'
p639
sg19
S'0fb600'
p640
sg21
Vmovzx eax, byte ptr [rax]
p641
sg5
L315046L
sg6
Nsg23
S'movzx'
p642
sg25
S'0x4cea6L'
p643
sg27
Nsba(ibclass
BInstr
p644
(dp645
g2
Nsg17
S'cmp     al, 4Ch'
p646
sg19
S'3c4c'
p647
sg21
Vcmp al, 0x4c
p648
sg5
L315049L
sg6
Nsg23
S'cmp'
p649
sg25
S'0x4cea9L'
p650
sg27
Nsba(ibclass
BInstr
p651
(dp652
g2
Nsg17
S'jnz     short loc_4CEBB'
p653
sg19
S'750e'
p654
sg21
Vjne 0x10
p655
sg5
L315051L
sg6
Nsg23
S'jnz'
p656
sg25
S'0x4ceabL'
p657
sg27
Nsbasg77
(lp658
S'mov reg, mem'
p659
aS'mov reg, mem'
p660
aS'mov reg, mem'
p661
aS'add reg, 3'
p662
aS'movzx reg, mem'
p663
aS'cmp reg, 4Ch'
p664
aS'jnz func'
p665
asg87
Nsg5
S'0x4ce96L'
p666
sg89
(lp667
S'0x4ce87L'
p668
asg6
Nsg91
(lp669
S'0x4ceadL'
p670
aS'0x4cebbL'
p671
asg95
Nsg96
Nsg97
S'a09b8bbfa38c30bf5174bc54b9c9fc87'
p672
sg99
S'9a7f5b89f0a9071157bae4ace1a178db'
p673
sg101
(lp674
g614
ag621
ag628
ag635
ag642
ag649
ag656
asg103
Nsba(ibclass
BBasicBlock
p675
(dp676
g12
Nsg13
(lp677
(ibclass
BInstr
p678
(dp679
g2
Nsg17
S'mov     rax, [rbp+ctxt]'
p680
sg19
S'488b45f8'
p681
sg21
Vmov rax, qword ptr [rbp - 8]
p682
sg5
L315053L
sg6
Nsg23
S'mov'
p683
sg25
S'0x4ceadL'
p684
sg27
Nsba(ibclass
BInstr
p685
(dp686
g2
Nsg17
S'mov     rdi, rax        ; ctxt'
p687
sg19
S'4889c7'
p688
sg21
Vmov rdi, rax
p689
sg5
L315057L
sg6
Nsg23
S'mov'
p690
sg25
S'0x4ceb1L'
p691
sg27
Nsba(ibclass
BInstr
p692
(dp693
g2
Nsg17
S'call    xmlParseElementDecl__internal_alias'
p694
sg19
S'e88beaffff'
p695
sg21
Vcall 0xffffffffffffea90
p696
sg5
L315060L
sg6
Nsg23
S'call'
p697
sg25
S'0x4ceb4L'
p698
sg27
Nsba(ibclass
BInstr
p699
(dp700
g2
Nsg17
S'jmp     short loc_4CF2F'
p701
sg19
S'eb74'
p702
sg21
Vjmp 0x76
p703
sg5
L315065L
sg6
Nsg23
S'jmp'
p704
sg25
S'0x4ceb9L'
p705
sg27
Nsbasg77
(lp706
S'mov reg, mem'
p707
aS'mov reg, reg'
p708
aS'cregl xmlParseElementDereg__internreg_regias'
p709
aS'jmp func'
p710
asg87
Nsg5
S'0x4ceadL'
p711
sg89
(lp712
S'0x4ce96L'
p713
asg6
Nsg91
(lp714
S'0x4cf2fL'
p715
asg95
Nsg96
Nsg97
S'21359965f3b3ac9d057fd4a2b03f927b'
p716
sg99
S'156078ae511129c5e9e6de0af2c6276d'
p717
sg101
(lp718
g683
ag690
ag697
ag704
asg103
Nsba(ibclass
BBasicBlock
p719
(dp720
g12
Nsg13
(lp721
(ibclass
BInstr
p722
(dp723
g2
Nsg17
S'mov     rax, [rbp+ctxt]'
p724
sg19
S'488b45f8'
p725
sg21
Vmov rax, qword ptr [rbp - 8]
p726
sg5
L315067L
sg6
Nsg23
S'mov'
p727
sg25
S'0x4cebbL'
p728
sg27
Nsba(ibclass
BInstr
p729
(dp730
g2
Nsg17
S'mov     rax, [rax+38h]'
p731
sg19
S'488b4038'
p732
sg21
Vmov rax, qword ptr [rax + 0x38]
p733
sg5
L315071L
sg6
Nsg23
S'mov'
p734
sg25
S'0x4cebfL'
p735
sg27
Nsba(ibclass
BInstr
p736
(dp737
g2
Nsg17
S'mov     rax, [rax+20h]'
p738
sg19
S'488b4020'
p739
sg21
Vmov rax, qword ptr [rax + 0x20]
p740
sg5
L315075L
sg6
Nsg23
S'mov'
p741
sg25
S'0x4cec3L'
p742
sg27
Nsba(ibclass
BInstr
p743
(dp744
g2
Nsg17
S'add     rax, 3'
p745
sg19
S'4883c003'
p746
sg21
Vadd rax, 3
p747
sg5
L315079L
sg6
Nsg23
S'add'
p748
sg25
S'0x4cec7L'
p749
sg27
Nsba(ibclass
BInstr
p750
(dp751
g2
Nsg17
S'movzx   eax, byte ptr [rax]'
p752
sg19
S'0fb600'
p753
sg21
Vmovzx eax, byte ptr [rax]
p754
sg5
L315083L
sg6
Nsg23
S'movzx'
p755
sg25
S'0x4cecbL'
p756
sg27
Nsba(ibclass
BInstr
p757
(dp758
g2
Nsg17
S'cmp     al, 4Eh'
p759
sg19
S'3c4e'
p760
sg21
Vcmp al, 0x4e
p761
sg5
L315086L
sg6
Nsg23
S'cmp'
p762
sg25
S'0x4ceceL'
p763
sg27
Nsba(ibclass
BInstr
p764
(dp765
g2
Nsg17
S'jnz     short loc_4CF2F'
p766
sg19
S'755d'
p767
sg21
Vjne 0x5f
p768
sg5
L315088L
sg6
Nsg23
S'jnz'
p769
sg25
S'0x4ced0L'
p770
sg27
Nsbasg77
(lp771
S'mov reg, mem'
p772
aS'mov reg, mem'
p773
aS'mov reg, mem'
p774
aS'add reg, 3'
p775
aS'movzx reg, mem'
p776
aS'cmp reg, 4Eh'
p777
aS'jnz func'
p778
asg87
Nsg5
S'0x4cebbL'
p779
sg89
(lp780
S'0x4ce96L'
p781
asg6
Nsg91
(lp782
S'0x4ced2L'
p783
aS'0x4cf2fL'
p784
asg95
Nsg96
Nsg97
S'a09b8bbfa38c30bf5174bc54b9c9fc87'
p785
sg99
S'e2235c2d883e677c4950ef8fc29cf5d6'
p786
sg101
(lp787
g727
ag734
ag741
ag748
ag755
ag762
ag769
asg103
Nsba(ibclass
BBasicBlock
p788
(dp789
g12
Nsg13
(lp790
(ibclass
BInstr
p791
(dp792
g2
Nsg17
S'mov     rax, [rbp+ctxt]'
p793
sg19
S'488b45f8'
p794
sg21
Vmov rax, qword ptr [rbp - 8]
p795
sg5
L315090L
sg6
Nsg23
S'mov'
p796
sg25
S'0x4ced2L'
p797
sg27
Nsba(ibclass
BInstr
p798
(dp799
g2
Nsg17
S'mov     rdi, rax        ; ctxt'
p800
sg19
S'4889c7'
p801
sg21
Vmov rdi, rax
p802
sg5
L315094L
sg6
Nsg23
S'mov'
p803
sg25
S'0x4ced6L'
p804
sg27
Nsba(ibclass
BInstr
p805
(dp806
g2
Nsg17
S'call    xmlParseEntityDecl__internal_alias'
p807
sg19
S'e844a6ffff'
p808
sg21
Vcall 0xffffffffffffa649
p809
sg5
L315097L
sg6
Nsg23
S'call'
p810
sg25
S'0x4ced9L'
p811
sg27
Nsba(ibclass
BInstr
p812
(dp813
g2
Nsg17
S'jmp     short loc_4CF2F'
p814
sg19
S'eb4f'
p815
sg21
Vjmp 0x51
p816
sg5
L315102L
sg6
Nsg23
S'jmp'
p817
sg25
S'0x4cedeL'
p818
sg27
Nsbasg77
(lp819
S'mov reg, mem'
p820
aS'mov reg, reg'
p821
aS'cregl xmlParseEntityDereg__internreg_regias'
p822
aS'jmp func'
p823
asg87
Nsg5
S'0x4ced2L'
p824
sg89
(lp825
S'0x4cebbL'
p826
asg6
Nsg91
(lp827
S'0x4cf2fL'
p828
asg95
Nsg96
Nsg97
S'21359965f3b3ac9d057fd4a2b03f927b'
p829
sg99
S'77c840d6e90f3226f4a9b4dac06f364e'
p830
sg101
(lp831
g796
ag803
ag810
ag817
asg103
Nsba(ibclass
BBasicBlock
p832
(dp833
g12
Nsg13
(lp834
(ibclass
BInstr
p835
(dp836
g2
Nsg17
S'mov     rax, [rbp+ctxt]'
p837
sg19
S'488b45f8'
p838
sg21
Vmov rax, qword ptr [rbp - 8]
p839
sg5
L315104L
sg6
Nsg23
S'mov'
p840
sg25
S'0x4cee0L'
p841
sg27
Nsba(ibclass
BInstr
p842
(dp843
g2
Nsg17
S'mov     rdi, rax        ; ctxt'
p844
sg19
S'4889c7'
p845
sg21
Vmov rdi, rax
p846
sg5
L315108L
sg6
Nsg23
S'mov'
p847
sg25
S'0x4cee4L'
p848
sg27
Nsba(ibclass
BInstr
p849
(dp850
g2
Nsg17
S'call    xmlParseAttributeListDecl__internal_alias'
p851
sg19
S'e873cbffff'
p852
sg21
Vcall 0xffffffffffffcb78
p853
sg5
L315111L
sg6
Nsg23
S'call'
p854
sg25
S'0x4cee7L'
p855
sg27
Nsba(ibclass
BInstr
p856
(dp857
g2
Nsg17
S'jmp     short loc_4CF30'
p858
sg19
S'eb42'
p859
sg21
Vjmp 0x44
p860
sg5
L315116L
sg6
Nsg23
S'jmp'
p861
sg25
S'0x4ceecL'
p862
sg27
Nsbasg77
(lp863
S'mov reg, mem'
p864
aS'mov reg, reg'
p865
aS'cregl xmlParseAttributeListDereg__internreg_regias'
p866
aS'jmp func'
p867
asg87
Nsg5
S'0x4cee0L'
p868
sg89
(lp869
S'0x4ce5dL'
p870
asg6
Nsg91
(lp871
S'0x4cf30L'
p872
asg95
Nsg96
Nsg97
S'21359965f3b3ac9d057fd4a2b03f927b'
p873
sg99
S'82656291aadcd9a7e5ec09ff13c5bbb6'
p874
sg101
(lp875
g840
ag847
ag854
ag861
asg103
Nsba(ibclass
BBasicBlock
p876
(dp877
g12
Nsg13
(lp878
(ibclass
BInstr
p879
(dp880
g2
Nsg17
S'mov     rax, [rbp+ctxt]'
p881
sg19
S'488b45f8'
p882
sg21
Vmov rax, qword ptr [rbp - 8]
p883
sg5
L315118L
sg6
Nsg23
S'mov'
p884
sg25
S'0x4ceeeL'
p885
sg27
Nsba(ibclass
BInstr
p886
(dp887
g2
Nsg17
S'mov     rdi, rax        ; ctxt'
p888
sg19
S'4889c7'
p889
sg21
Vmov rdi, rax
p890
sg5
L315122L
sg6
Nsg23
S'mov'
p891
sg25
S'0x4cef2L'
p892
sg27
Nsba(ibclass
BInstr
p893
(dp894
g2
Nsg17
S'call    xmlParseNotationDecl__internal_alias'
p895
sg19
S'e86ca1ffff'
p896
sg21
Vcall 0xffffffffffffa171
p897
sg5
L315125L
sg6
Nsg23
S'call'
p898
sg25
S'0x4cef5L'
p899
sg27
Nsba(ibclass
BInstr
p900
(dp901
g2
Nsg17
S'jmp     short loc_4CF30'
p902
sg19
S'eb34'
p903
sg21
Vjmp 0x36
p904
sg5
L315130L
sg6
Nsg23
S'jmp'
p905
sg25
S'0x4cefaL'
p906
sg27
Nsbasg77
(lp907
S'mov reg, mem'
p908
aS'mov reg, reg'
p909
aS'cregl xmlParseNotationDereg__internreg_regias'
p910
aS'jmp func'
p911
asg87
Nsg5
S'0x4ceeeL'
p912
sg89
(lp913
S'0x4ce8cL'
p914
asg6
Nsg91
(lp915
S'0x4cf30L'
p916
asg95
Nsg96
Nsg97
S'21359965f3b3ac9d057fd4a2b03f927b'
p917
sg99
S'6d8b9cd5fbc95acf114e230df3cff5a1'
p918
sg101
(lp919
g884
ag891
ag898
ag905
asg103
Nsba(ibclass
BBasicBlock
p920
(dp921
g12
Nsg13
(lp922
(ibclass
BInstr
p923
(dp924
g2
Nsg17
S'mov     rax, [rbp+ctxt]'
p925
sg19
S'488b45f8'
p926
sg21
Vmov rax, qword ptr [rbp - 8]
p927
sg5
L315132L
sg6
Nsg23
S'mov'
p928
sg25
S'0x4cefcL'
p929
sg27
Nsba(ibclass
BInstr
p930
(dp931
g2
Nsg17
S'mov     rdi, rax        ; ctxt'
p932
sg19
S'4889c7'
p933
sg21
Vmov rdi, rax
p934
sg5
L315136L
sg6
Nsg23
S'mov'
p935
sg25
S'0x4cf00L'
p936
sg27
Nsba(ibclass
BInstr
p937
(dp938
g2
Nsg17
S'call    xmlParseComment__internal_alias'
p939
sg19
S'e8b98bffff'
p940
sg21
Vcall 0xffffffffffff8bbe
p941
sg5
L315139L
sg6
Nsg23
S'call'
p942
sg25
S'0x4cf03L'
p943
sg27
Nsba(ibclass
BInstr
p944
(dp945
g2
Nsg17
S'jmp     short loc_4CF30'
p946
sg19
S'eb26'
p947
sg21
Vjmp 0x28
p948
sg5
L315144L
sg6
Nsg23
S'jmp'
p949
sg25
S'0x4cf08L'
p950
sg27
Nsbasg77
(lp951
S'mov reg, mem'
p952
aS'mov reg, reg'
p953
aS'cregl xmlParseComment__internreg_regias'
p954
aS'jmp func'
p955
asg87
Nsg5
S'0x4cefcL'
p956
sg89
(lp957
S'0x4ce7dL'
p958
asg6
Nsg91
(lp959
S'0x4cf30L'
p960
asg95
Nsg96
Nsg97
S'21359965f3b3ac9d057fd4a2b03f927b'
p961
sg99
S'571d5d12e3b3613b0a88522f9dfe4ac8'
p962
sg101
(lp963
g928
ag935
ag942
ag949
asg103
Nsba(ibclass
BBasicBlock
p964
(dp965
g12
Nsg13
(lp966
(ibclass
BInstr
p967
(dp968
g2
Nsg17
S'mov     rax, [rbp+ctxt]'
p969
sg19
S'488b45f8'
p970
sg21
Vmov rax, qword ptr [rbp - 8]
p971
sg5
L315146L
sg6
Nsg23
S'mov'
p972
sg25
S'0x4cf0aL'
p973
sg27
Nsba(ibclass
BInstr
p974
(dp975
g2
Nsg17
S'mov     rax, [rax+38h]'
p976
sg19
S'488b4038'
p977
sg21
Vmov rax, qword ptr [rax + 0x38]
p978
sg5
L315150L
sg6
Nsg23
S'mov'
p979
sg25
S'0x4cf0eL'
p980
sg27
Nsba(ibclass
BInstr
p981
(dp982
g2
Nsg17
S'mov     rax, [rax+20h]'
p983
sg19
S'488b4020'
p984
sg21
Vmov rax, qword ptr [rax + 0x20]
p985
sg5
L315154L
sg6
Nsg23
S'mov'
p986
sg25
S'0x4cf12L'
p987
sg27
Nsba(ibclass
BInstr
p988
(dp989
g2
Nsg17
S'add     rax, 1'
p990
sg19
S'4883c001'
p991
sg21
Vadd rax, 1
p992
sg5
L315158L
sg6
Nsg23
S'add'
p993
sg25
S'0x4cf16L'
p994
sg27
Nsba(ibclass
BInstr
p995
(dp996
g2
Nsg17
S'movzx   eax, byte ptr [rax]'
p997
sg19
S'0fb600'
p998
sg21
Vmovzx eax, byte ptr [rax]
p999
sg5
L315162L
sg6
Nsg23
S'movzx'
p1000
sg25
S'0x4cf1aL'
p1001
sg27
Nsba(ibclass
BInstr
p1002
(dp1003
g2
Nsg17
S'cmp     al, 3Fh'
p1004
sg19
S'3c3f'
p1005
sg21
Vcmp al, 0x3f
p1006
sg5
L315165L
sg6
Nsg23
S'cmp'
p1007
sg25
S'0x4cf1dL'
p1008
sg27
Nsba(ibclass
BInstr
p1009
(dp1010
g2
Nsg17
S'jnz     short loc_4CF30'
p1011
sg19
S'750f'
p1012
sg21
Vjne 0x11
p1013
sg5
L315167L
sg6
Nsg23
S'jnz'
p1014
sg25
S'0x4cf1fL'
p1015
sg27
Nsbasg77
(lp1016
S'mov reg, mem'
p1017
aS'mov reg, mem'
p1018
aS'mov reg, mem'
p1019
aS'add reg, 1'
p1020
aS'movzx reg, mem'
p1021
aS'cmp reg, 3Fh'
p1022
aS'jnz func'
p1023
asg87
Nsg5
S'0x4cf0aL'
p1024
sg89
(lp1025
S'0x4ce42L'
p1026
asg6
Nsg91
(lp1027
S'0x4cf21L'
p1028
aS'0x4cf30L'
p1029
asg95
Nsg96
Nsg97
S'a09b8bbfa38c30bf5174bc54b9c9fc87'
p1030
sg99
S'ce8f748daf44567f81dae494a93026d7'
p1031
sg101
(lp1032
g972
ag979
ag986
ag993
ag1000
ag1007
ag1014
asg103
Nsba(ibclass
BBasicBlock
p1033
(dp1034
g12
Nsg13
(lp1035
(ibclass
BInstr
p1036
(dp1037
g2
Nsg17
S'mov     rax, [rbp+ctxt]'
p1038
sg19
S'488b45f8'
p1039
sg21
Vmov rax, qword ptr [rbp - 8]
p1040
sg5
L315169L
sg6
Nsg23
S'mov'
p1041
sg25
S'0x4cf21L'
p1042
sg27
Nsba(ibclass
BInstr
p1043
(dp1044
g2
Nsg17
S'mov     rdi, rax        ; ctxt'
p1045
sg19
S'4889c7'
p1046
sg21
Vmov rdi, rax
p1047
sg5
L315173L
sg6
Nsg23
S'mov'
p1048
sg25
S'0x4cf25L'
p1049
sg27
Nsba(ibclass
BInstr
p1050
(dp1051
g2
Nsg17
S'call    xmlParsePI__internal_alias'
p1052
sg19
S'e82b98ffff'
p1053
sg21
Vcall 0xffffffffffff9830
p1054
sg5
L315176L
sg6
Nsg23
S'call'
p1055
sg25
S'0x4cf28L'
p1056
sg27
Nsba(ibclass
BInstr
p1057
(dp1058
g2
Nsg17
S'jmp     short loc_4CF30'
p1059
sg19
S'eb01'
p1060
sg21
Vjmp 3
p1061
sg5
L315181L
sg6
Nsg23
S'jmp'
p1062
sg25
S'0x4cf2dL'
p1063
sg27
Nsbasg77
(lp1064
S'mov reg, mem'
p1065
aS'mov reg, reg'
p1066
aS'cregl xmlParsePI__internreg_regias'
p1067
aS'jmp func'
p1068
asg87
Nsg5
S'0x4cf21L'
p1069
sg89
(lp1070
S'0x4cf0aL'
p1071
asg6
Nsg91
(lp1072
S'0x4cf30L'
p1073
asg95
Nsg96
Nsg97
S'21359965f3b3ac9d057fd4a2b03f927b'
p1074
sg99
S'5745afb7fc47b40c63da16089fca5a8c'
p1075
sg101
(lp1076
g1041
ag1048
ag1055
ag1062
asg103
Nsba(ibclass
BBasicBlock
p1077
(dp1078
g12
Nsg13
(lp1079
(ibclass
BInstr
p1080
(dp1081
g2
Nsg17
S'nop'
p1082
sg19
S'90'
p1083
sg21
Vnop 
p1084
sg5
L315183L
sg6
Nsg23
S'nop'
p1085
sg25
S'0x4cf2fL'
p1086
sg27
Nsbasg77
(lp1087
g1082
asg87
Nsg5
S'0x4cf2fL'
p1088
sg89
(lp1089
S'0x4ceadL'
p1090
aS'0x4cebbL'
p1091
aS'0x4ced2L'
p1092
asg6
Nsg91
(lp1093
S'0x4cf30L'
p1094
asg95
Nsg96
Nsg97
S'a571d969c8661fb0342afd08e571dfa0'
p1095
sg99
S'a571d969c8661fb0342afd08e571dfa0'
p1096
sg101
(lp1097
g1085
asg103
Nsba(ibclass
BBasicBlock
p1098
(dp1099
g12
Nsg13
(lp1100
(ibclass
BInstr
p1101
(dp1102
g2
Nsg17
S'mov     rax, [rbp+ctxt]'
p1103
sg19
S'488b45f8'
p1104
sg21
Vmov rax, qword ptr [rbp - 8]
p1105
sg5
L315184L
sg6
Nsg23
S'mov'
p1106
sg25
S'0x4cf30L'
p1107
sg27
Nsba(ibclass
BInstr
p1108
(dp1109
g2
Nsg17
S'mov     eax, [rax+110h]'
p1110
sg19
S'8b8010010000'
p1111
sg21
Vmov eax, dword ptr [rax + 0x110]
p1112
sg5
L315188L
sg6
Nsg23
S'mov'
p1113
sg25
S'0x4cf34L'
p1114
sg27
Nsba(ibclass
BInstr
p1115
(dp1116
g2
Nsg17
S'cmp     eax, 0FFFFFFFFh'
p1117
sg19
S'83f8ff'
p1118
sg21
Vcmp eax, -1
p1119
sg5
L315194L
sg6
Nsg23
S'cmp'
p1120
sg25
S'0x4cf3aL'
p1121
sg27
Nsba(ibclass
BInstr
p1122
(dp1123
g2
Nsg17
S'jz      loc_4CFE0'
p1124
sg19
S'0f849d000000'
p1125
sg21
Vje 0xa3
p1126
sg5
L315197L
sg6
Nsg23
S'jz'
p1127
sg25
S'0x4cf3dL'
p1128
sg27
Nsbasg77
(lp1129
S'mov reg, mem'
p1130
aS'mov reg, mem'
p1131
aS'cmp reg, 0FFFFFFFFh'
p1132
aS'jz func'
p1133
asg87
Nsg5
S'0x4cf30L'
p1134
sg89
(lp1135
S'0x4ce2bL'
p1136
aS'0x4ce82L'
p1137
aS'0x4ce91L'
p1138
aS'0x4cee0L'
p1139
aS'0x4ceeeL'
p1140
aS'0x4cefcL'
p1141
aS'0x4cf0aL'
p1142
aS'0x4cf21L'
p1143
aS'0x4cf2fL'
p1144
asg6
Nsg91
(lp1145
S'0x4cf43L'
p1146
aS'0x4cfe0L'
p1147
asg95
Nsg96
Nsg97
S'db7f0dec7b6480d765a2fb1483cb9e16'
p1148
sg99
S'd7a7646d8fdcf36f037bb25c3da39f34'
p1149
sg101
(lp1150
g1106
ag1113
ag1120
ag1127
asg103
Nsba(ibclass
BBasicBlock
p1151
(dp1152
g12
Nsg13
(lp1153
(ibclass
BInstr
p1154
(dp1155
g2
Nsg17
S'mov     rax, [rbp+ctxt]'
p1156
sg19
S'488b45f8'
p1157
sg21
Vmov rax, qword ptr [rbp - 8]
p1158
sg5
L315203L
sg6
Nsg23
S'mov'
p1159
sg25
S'0x4cf43L'
p1160
sg27
Nsba(ibclass
BInstr
p1161
(dp1162
g2
Nsg17
S'mov     eax, [rax+94h]'
p1163
sg19
S'8b8094000000'
p1164
sg21
Vmov eax, dword ptr [rax + 0x94]
p1165
sg5
L315207L
sg6
Nsg23
S'mov'
p1166
sg25
S'0x4cf47L'
p1167
sg27
Nsba(ibclass
BInstr
p1168
(dp1169
g2
Nsg17
S'test    eax, eax'
p1170
sg19
S'85c0'
p1171
sg21
Vtest eax, eax
p1172
sg5
L315213L
sg6
Nsg23
S'test'
p1173
sg25
S'0x4cf4dL'
p1174
sg27
Nsba(ibclass
BInstr
p1175
(dp1176
g2
Nsg17
S'jnz     short loc_4CF69'
p1177
sg19
S'7518'
p1178
sg21
Vjne 0x1a
p1179
sg5
L315215L
sg6
Nsg23
S'jnz'
p1180
sg25
S'0x4cf4fL'
p1181
sg27
Nsbasg77
(lp1182
S'mov reg, mem'
p1183
aS'mov reg, mem'
p1184
aS'test reg, reg'
p1185
aS'jnz func'
p1186
asg87
Nsg5
S'0x4cf43L'
p1187
sg89
(lp1188
S'0x4cf30L'
p1189
asg6
Nsg91
(lp1190
S'0x4cf51L'
p1191
aS'0x4cf69L'
p1192
asg95
Nsg96
Nsg97
S'c659dbb3567582fe193bedd2c7eccb80'
p1193
sg99
S'bf55423e8983d04e39a94876458e667a'
p1194
sg101
(lp1195
g1159
ag1166
ag1173
ag1180
asg103
Nsba(ibclass
BBasicBlock
p1196
(dp1197
g12
Nsg13
(lp1198
(ibclass
BInstr
p1199
(dp1200
g2
Nsg17
S'mov     rax, [rbp+ctxt]'
p1201
sg19
S'488b45f8'
p1202
sg21
Vmov rax, qword ptr [rbp - 8]
p1203
sg5
L315217L
sg6
Nsg23
S'mov'
p1204
sg25
S'0x4cf51L'
p1205
sg27
Nsba(ibclass
BInstr
p1206
(dp1207
g2
Nsg17
S'mov     eax, [rax+40h]'
p1208
sg19
S'8b4040'
p1209
sg21
Vmov eax, dword ptr [rax + 0x40]
p1210
sg5
L315221L
sg6
Nsg23
S'mov'
p1211
sg25
S'0x4cf55L'
p1212
sg27
Nsba(ibclass
BInstr
p1213
(dp1214
g2
Nsg17
S'cmp     eax, 1'
p1215
sg19
S'83f801'
p1216
sg21
Vcmp eax, 1
p1217
sg5
L315224L
sg6
Nsg23
S'cmp'
p1218
sg25
S'0x4cf58L'
p1219
sg27
Nsba(ibclass
BInstr
p1220
(dp1221
g2
Nsg17
S'jnz     short loc_4CF69'
p1222
sg19
S'750c'
p1223
sg21
Vjne 0xe
p1224
sg5
L315227L
sg6
Nsg23
S'jnz'
p1225
sg25
S'0x4cf5bL'
p1226
sg27
Nsbasg77
(lp1227
S'mov reg, mem'
p1228
aS'mov reg, mem'
p1229
aS'cmp reg, 1'
p1230
aS'jnz func'
p1231
asg87
Nsg5
S'0x4cf51L'
p1232
sg89
(lp1233
S'0x4cf43L'
p1234
asg6
Nsg91
(lp1235
S'0x4cf5dL'
p1236
aS'0x4cf69L'
p1237
asg95
Nsg96
Nsg97
S'a19a851724661b9339243c65cfd318e3'
p1238
sg99
S'186b6298709bc9d8ba1caa50b9a1ecc6'
p1239
sg101
(lp1240
g1204
ag1211
ag1218
ag1225
asg103
Nsba(ibclass
BBasicBlock
p1241
(dp1242
g12
Nsg13
(lp1243
(ibclass
BInstr
p1244
(dp1245
g2
Nsg17
S'mov     rax, [rbp+ctxt]'
p1246
sg19
S'488b45f8'
p1247
sg21
Vmov rax, qword ptr [rbp - 8]
p1248
sg5
L315229L
sg6
Nsg23
S'mov'
p1249
sg25
S'0x4cf5dL'
p1250
sg27
Nsba(ibclass
BInstr
p1251
(dp1252
g2
Nsg17
S'mov     rdi, rax        ; ctxt'
p1253
sg19
S'4889c7'
p1254
sg21
Vmov rdi, rax
p1255
sg5
L315233L
sg6
Nsg23
S'mov'
p1256
sg25
S'0x4cf61L'
p1257
sg27
Nsba(ibclass
BInstr
p1258
(dp1259
g2
Nsg17
S'call    xmlParsePEReference__internal_alias'
p1260
sg19
S'e863230000'
p1261
sg21
Vcall 0x2368
p1262
sg5
L315236L
sg6
Nsg23
S'call'
p1263
sg25
S'0x4cf64L'
p1264
sg27
Nsbasg77
(lp1265
S'mov reg, mem'
p1266
aS'mov reg, reg'
p1267
aS'cregl xmlParsePEReference__internreg_regias'
p1268
asg87
Nsg5
S'0x4cf5dL'
p1269
sg89
(lp1270
S'0x4cf51L'
p1271
asg6
Nsg91
(lp1272
S'0x4cf69L'
p1273
asg95
Nsg96
Nsg97
S'0bf1a79a6a1155c5085c1c85d6d83d05'
p1274
sg99
S'896876115063068ba3777aed6016ec24'
p1275
sg101
(lp1276
g1249
ag1256
ag1263
asg103
Nsba(ibclass
BBasicBlock
p1277
(dp1278
g12
Nsg13
(lp1279
(ibclass
BInstr
p1280
(dp1281
g2
Nsg17
S'mov     rax, [rbp+ctxt]'
p1282
sg19
S'488b45f8'
p1283
sg21
Vmov rax, qword ptr [rbp - 8]
p1284
sg5
L315241L
sg6
Nsg23
S'mov'
p1285
sg25
S'0x4cf69L'
p1286
sg27
Nsba(ibclass
BInstr
p1287
(dp1288
g2
Nsg17
S'mov     eax, [rax+94h]'
p1289
sg19
S'8b8094000000'
p1290
sg21
Vmov eax, dword ptr [rax + 0x94]
p1291
sg5
L315245L
sg6
Nsg23
S'mov'
p1292
sg25
S'0x4cf6dL'
p1293
sg27
Nsba(ibclass
BInstr
p1294
(dp1295
g2
Nsg17
S'test    eax, eax'
p1296
sg19
S'85c0'
p1297
sg21
Vtest eax, eax
p1298
sg5
L315251L
sg6
Nsg23
S'test'
p1299
sg25
S'0x4cf73L'
p1300
sg27
Nsba(ibclass
BInstr
p1301
(dp1302
g2
Nsg17
S'jnz     short loc_4CFD0'
p1303
sg19
S'7559'
p1304
sg21
Vjne 0x5b
p1305
sg5
L315253L
sg6
Nsg23
S'jnz'
p1306
sg25
S'0x4cf75L'
p1307
sg27
Nsbasg77
(lp1308
S'mov reg, mem'
p1309
aS'mov reg, mem'
p1310
aS'test reg, reg'
p1311
aS'jnz func'
p1312
asg87
Nsg5
S'0x4cf69L'
p1313
sg89
(lp1314
S'0x4cf43L'
p1315
aS'0x4cf51L'
p1316
aS'0x4cf5dL'
p1317
asg6
Nsg91
(lp1318
S'0x4cf77L'
p1319
aS'0x4cfd0L'
p1320
asg95
Nsg96
Nsg97
S'c659dbb3567582fe193bedd2c7eccb80'
p1321
sg99
S'bf55423e8983d04e39a94876458e667a'
p1322
sg101
(lp1323
g1285
ag1292
ag1299
ag1306
asg103
Nsba(ibclass
BBasicBlock
p1324
(dp1325
g12
Nsg13
(lp1326
(ibclass
BInstr
p1327
(dp1328
g2
Nsg17
S'mov     rax, [rbp+ctxt]'
p1329
sg19
S'488b45f8'
p1330
sg21
Vmov rax, qword ptr [rbp - 8]
p1331
sg5
L315255L
sg6
Nsg23
S'mov'
p1332
sg25
S'0x4cf77L'
p1333
sg27
Nsba(ibclass
BInstr
p1334
(dp1335
g2
Nsg17
S'mov     eax, [rax+40h]'
p1336
sg19
S'8b4040'
p1337
sg21
Vmov eax, dword ptr [rax + 0x40]
p1338
sg5
L315259L
sg6
Nsg23
S'mov'
p1339
sg25
S'0x4cf7bL'
p1340
sg27
Nsba(ibclass
BInstr
p1341
(dp1342
g2
Nsg17
S'cmp     eax, 1'
p1343
sg19
S'83f801'
p1344
sg21
Vcmp eax, 1
p1345
sg5
L315262L
sg6
Nsg23
S'cmp'
p1346
sg25
S'0x4cf7eL'
p1347
sg27
Nsba(ibclass
BInstr
p1348
(dp1349
g2
Nsg17
S'jle     short loc_4CFD0'
p1350
sg19
S'7e4d'
p1351
sg21
Vjle 0x4f
p1352
sg5
L315265L
sg6
Nsg23
S'jle'
p1353
sg25
S'0x4cf81L'
p1354
sg27
Nsbasg77
(lp1355
S'mov reg, mem'
p1356
aS'mov reg, mem'
p1357
aS'cmp reg, 1'
p1358
aS'jle func'
p1359
asg87
Nsg5
S'0x4cf77L'
p1360
sg89
(lp1361
S'0x4cf69L'
p1362
asg6
Nsg91
(lp1363
S'0x4cf83L'
p1364
aS'0x4cfd0L'
p1365
asg95
Nsg96
Nsg97
S'8515616f0a4833daab2113317e86edbc'
p1366
sg99
S'ed40339337affc80f9d6dae9fe808050'
p1367
sg101
(lp1368
g1332
ag1339
ag1346
ag1353
asg103
Nsba(ibclass
BBasicBlock
p1369
(dp1370
g12
Nsg13
(lp1371
(ibclass
BInstr
p1372
(dp1373
g2
Nsg17
S'mov     rax, [rbp+ctxt]'
p1374
sg19
S'488b45f8'
p1375
sg21
Vmov rax, qword ptr [rbp - 8]
p1376
sg5
L315267L
sg6
Nsg23
S'mov'
p1377
sg25
S'0x4cf83L'
p1378
sg27
Nsba(ibclass
BInstr
p1379
(dp1380
g2
Nsg17
S'mov     rax, [rax+38h]'
p1381
sg19
S'488b4038'
p1382
sg21
Vmov rax, qword ptr [rax + 0x38]
p1383
sg5
L315271L
sg6
Nsg23
S'mov'
p1384
sg25
S'0x4cf87L'
p1385
sg27
Nsba(ibclass
BInstr
p1386
(dp1387
g2
Nsg17
S'mov     rax, [rax+20h]'
p1388
sg19
S'488b4020'
p1389
sg21
Vmov rax, qword ptr [rax + 0x20]
p1390
sg5
L315275L
sg6
Nsg23
S'mov'
p1391
sg25
S'0x4cf8bL'
p1392
sg27
Nsba(ibclass
BInstr
p1393
(dp1394
g2
Nsg17
S'movzx   eax, byte ptr [rax]'
p1395
sg19
S'0fb600'
p1396
sg21
Vmovzx eax, byte ptr [rax]
p1397
sg5
L315279L
sg6
Nsg23
S'movzx'
p1398
sg25
S'0x4cf8fL'
p1399
sg27
Nsba(ibclass
BInstr
p1400
(dp1401
g2
Nsg17
S'cmp     al, 3Ch'
p1402
sg19
S'3c3c'
p1403
sg21
Vcmp al, 0x3c
p1404
sg5
L315282L
sg6
Nsg23
S'cmp'
p1405
sg25
S'0x4cf92L'
p1406
sg27
Nsba(ibclass
BInstr
p1407
(dp1408
g2
Nsg17
S'jnz     short loc_4CFD0'
p1409
sg19
S'753a'
p1410
sg21
Vjne 0x3c
p1411
sg5
L315284L
sg6
Nsg23
S'jnz'
p1412
sg25
S'0x4cf94L'
p1413
sg27
Nsbasg77
(lp1414
S'mov reg, mem'
p1415
aS'mov reg, mem'
p1416
aS'mov reg, mem'
p1417
aS'movzx reg, mem'
p1418
aS'cmp reg, 3Ch'
p1419
aS'jnz func'
p1420
asg87
Nsg5
S'0x4cf83L'
p1421
sg89
(lp1422
S'0x4cf77L'
p1423
asg6
Nsg91
(lp1424
S'0x4cf96L'
p1425
aS'0x4cfd0L'
p1426
asg95
Nsg96
Nsg97
S'8f3f680eb64f543d58e9f30e939c868c'
p1427
sg99
S'3aa1976eab7f4199b9b29c61be8b9c44'
p1428
sg101
(lp1429
g1377
ag1384
ag1391
ag1398
ag1405
ag1412
asg103
Nsba(ibclass
BBasicBlock
p1430
(dp1431
g12
Nsg13
(lp1432
(ibclass
BInstr
p1433
(dp1434
g2
Nsg17
S'mov     rax, [rbp+ctxt]'
p1435
sg19
S'488b45f8'
p1436
sg21
Vmov rax, qword ptr [rbp - 8]
p1437
sg5
L315286L
sg6
Nsg23
S'mov'
p1438
sg25
S'0x4cf96L'
p1439
sg27
Nsba(ibclass
BInstr
p1440
(dp1441
g2
Nsg17
S'mov     rax, [rax+38h]'
p1442
sg19
S'488b4038'
p1443
sg21
Vmov rax, qword ptr [rax + 0x38]
p1444
sg5
L315290L
sg6
Nsg23
S'mov'
p1445
sg25
S'0x4cf9aL'
p1446
sg27
Nsba(ibclass
BInstr
p1447
(dp1448
g2
Nsg17
S'mov     rax, [rax+20h]'
p1449
sg19
S'488b4020'
p1450
sg21
Vmov rax, qword ptr [rax + 0x20]
p1451
sg5
L315294L
sg6
Nsg23
S'mov'
p1452
sg25
S'0x4cf9eL'
p1453
sg27
Nsba(ibclass
BInstr
p1454
(dp1455
g2
Nsg17
S'add     rax, 1'
p1456
sg19
S'4883c001'
p1457
sg21
Vadd rax, 1
p1458
sg5
L315298L
sg6
Nsg23
S'add'
p1459
sg25
S'0x4cfa2L'
p1460
sg27
Nsba(ibclass
BInstr
p1461
(dp1462
g2
Nsg17
S'movzx   eax, byte ptr [rax]'
p1463
sg19
S'0fb600'
p1464
sg21
Vmovzx eax, byte ptr [rax]
p1465
sg5
L315302L
sg6
Nsg23
S'movzx'
p1466
sg25
S'0x4cfa6L'
p1467
sg27
Nsba(ibclass
BInstr
p1468
(dp1469
g2
Nsg17
S'cmp     al, 21h'
p1470
sg19
S'3c21'
p1471
sg21
Vcmp al, 0x21
p1472
sg5
L315305L
sg6
Nsg23
S'cmp'
p1473
sg25
S'0x4cfa9L'
p1474
sg27
Nsba(ibclass
BInstr
p1475
(dp1476
g2
Nsg17
S'jnz     short loc_4CFD0'
p1477
sg19
S'7523'
p1478
sg21
Vjne 0x25
p1479
sg5
L315307L
sg6
Nsg23
S'jnz'
p1480
sg25
S'0x4cfabL'
p1481
sg27
Nsbasg77
(lp1482
S'mov reg, mem'
p1483
aS'mov reg, mem'
p1484
aS'mov reg, mem'
p1485
aS'add reg, 1'
p1486
aS'movzx reg, mem'
p1487
aS'cmp reg, 21h'
p1488
aS'jnz func'
p1489
asg87
Nsg5
S'0x4cf96L'
p1490
sg89
(lp1491
S'0x4cf83L'
p1492
asg6
Nsg91
(lp1493
S'0x4cfadL'
p1494
aS'0x4cfd0L'
p1495
asg95
Nsg96
Nsg97
S'a09b8bbfa38c30bf5174bc54b9c9fc87'
p1496
sg99
S'dc842c18033f10bf049526889e284a4e'
p1497
sg101
(lp1498
g1438
ag1445
ag1452
ag1459
ag1466
ag1473
ag1480
asg103
Nsba(ibclass
BBasicBlock
p1499
(dp1500
g12
Nsg13
(lp1501
(ibclass
BInstr
p1502
(dp1503
g2
Nsg17
S'mov     rax, [rbp+ctxt]'
p1504
sg19
S'488b45f8'
p1505
sg21
Vmov rax, qword ptr [rbp - 8]
p1506
sg5
L315309L
sg6
Nsg23
S'mov'
p1507
sg25
S'0x4cfadL'
p1508
sg27
Nsba(ibclass
BInstr
p1509
(dp1510
g2
Nsg17
S'mov     rax, [rax+38h]'
p1511
sg19
S'488b4038'
p1512
sg21
Vmov rax, qword ptr [rax + 0x38]
p1513
sg5
L315313L
sg6
Nsg23
S'mov'
p1514
sg25
S'0x4cfb1L'
p1515
sg27
Nsba(ibclass
BInstr
p1516
(dp1517
g2
Nsg17
S'mov     rax, [rax+20h]'
p1518
sg19
S'488b4020'
p1519
sg21
Vmov rax, qword ptr [rax + 0x20]
p1520
sg5
L315317L
sg6
Nsg23
S'mov'
p1521
sg25
S'0x4cfb5L'
p1522
sg27
Nsba(ibclass
BInstr
p1523
(dp1524
g2
Nsg17
S'add     rax, 2'
p1525
sg19
S'4883c002'
p1526
sg21
Vadd rax, 2
p1527
sg5
L315321L
sg6
Nsg23
S'add'
p1528
sg25
S'0x4cfb9L'
p1529
sg27
Nsba(ibclass
BInstr
p1530
(dp1531
g2
Nsg17
S'movzx   eax, byte ptr [rax]'
p1532
sg19
S'0fb600'
p1533
sg21
Vmovzx eax, byte ptr [rax]
p1534
sg5
L315325L
sg6
Nsg23
S'movzx'
p1535
sg25
S'0x4cfbdL'
p1536
sg27
Nsba(ibclass
BInstr
p1537
(dp1538
g2
Nsg17
S'cmp     al, 5Bh'
p1539
sg19
S'3c5b'
p1540
sg21
Vcmp al, 0x5b
p1541
sg5
L315328L
sg6
Nsg23
S'cmp'
p1542
sg25
S'0x4cfc0L'
p1543
sg27
Nsba(ibclass
BInstr
p1544
(dp1545
g2
Nsg17
S'jnz     short loc_4CFD0'
p1546
sg19
S'750c'
p1547
sg21
Vjne 0xe
p1548
sg5
L315330L
sg6
Nsg23
S'jnz'
p1549
sg25
S'0x4cfc2L'
p1550
sg27
Nsbasg77
(lp1551
S'mov reg, mem'
p1552
aS'mov reg, mem'
p1553
aS'mov reg, mem'
p1554
aS'add reg, 2'
p1555
aS'movzx reg, mem'
p1556
aS'cmp reg, 5Bh'
p1557
aS'jnz func'
p1558
asg87
Nsg5
S'0x4cfadL'
p1559
sg89
(lp1560
S'0x4cf96L'
p1561
asg6
Nsg91
(lp1562
S'0x4cfc4L'
p1563
aS'0x4cfd0L'
p1564
asg95
Nsg96
Nsg97
S'a09b8bbfa38c30bf5174bc54b9c9fc87'
p1565
sg99
S'72cc4e1214fc5b6e971427856c16e19a'
p1566
sg101
(lp1567
g1507
ag1514
ag1521
ag1528
ag1535
ag1542
ag1549
asg103
Nsba(ibclass
BBasicBlock
p1568
(dp1569
g12
Nsg13
(lp1570
(ibclass
BInstr
p1571
(dp1572
g2
Nsg17
S'mov     rax, [rbp+ctxt]'
p1573
sg19
S'488b45f8'
p1574
sg21
Vmov rax, qword ptr [rbp - 8]
p1575
sg5
L315332L
sg6
Nsg23
S'mov'
p1576
sg25
S'0x4cfc4L'
p1577
sg27
Nsba(ibclass
BInstr
p1578
(dp1579
g2
Nsg17
S'mov     rdi, rax        ; ctxt'
p1580
sg19
S'4889c7'
p1581
sg21
Vmov rdi, rax
p1582
sg5
L315336L
sg6
Nsg23
S'mov'
p1583
sg25
S'0x4cfc8L'
p1584
sg27
Nsba(ibclass
BInstr
p1585
(dp1586
g2
Nsg17
S'call    xmlParseConditionalSections'
p1587
sg19
S'e8f0f0ffff'
p1588
sg21
Vcall 0xfffffffffffff0f5
p1589
sg5
L315339L
sg6
Nsg23
S'call'
p1590
sg25
S'0x4cfcbL'
p1591
sg27
Nsbasg77
(lp1592
S'mov reg, mem'
p1593
aS'mov reg, reg'
p1594
aS'cregl xmlParseConregtionregSections'
p1595
asg87
Nsg5
S'0x4cfc4L'
p1596
sg89
(lp1597
S'0x4cfadL'
p1598
asg6
Nsg91
(lp1599
S'0x4cfd0L'
p1600
asg95
Nsg96
Nsg97
S'0bf1a79a6a1155c5085c1c85d6d83d05'
p1601
sg99
S'e8b9b1968d23360fccdfd3eec72b96a2'
p1602
sg101
(lp1603
g1576
ag1583
ag1590
asg103
Nsba(ibclass
BBasicBlock
p1604
(dp1605
g12
Nsg13
(lp1606
(ibclass
BInstr
p1607
(dp1608
g2
Nsg17
S'mov     rax, [rbp+ctxt]'
p1609
sg19
S'488b45f8'
p1610
sg21
Vmov rax, qword ptr [rbp - 8]
p1611
sg5
L315344L
sg6
Nsg23
S'mov'
p1612
sg25
S'0x4cfd0L'
p1613
sg27
Nsba(ibclass
BInstr
p1614
(dp1615
g2
Nsg17
S'mov     dword ptr [rax+110h], 3'
p1616
sg19
S'c7801001000003000000'
p1617
sg21
Vmov dword ptr [rax + 0x110], 3
p1618
sg5
L315348L
sg6
Nsg23
S'mov'
p1619
sg25
S'0x4cfd4L'
p1620
sg27
Nsba(ibclass
BInstr
p1621
(dp1622
g2
Nsg17
S'jmp     short locret_4CFE1'
p1623
sg19
S'eb01'
p1624
sg21
Vjmp 3
p1625
sg5
L315358L
sg6
Nsg23
S'jmp'
p1626
sg25
S'0x4cfdeL'
p1627
sg27
Nsbasg77
(lp1628
S'mov reg, mem'
p1629
aS'mov mem, 3'
p1630
aS'jmp short func'
p1631
asg87
Nsg5
S'0x4cfd0L'
p1632
sg89
(lp1633
S'0x4cf69L'
p1634
aS'0x4cf77L'
p1635
aS'0x4cf83L'
p1636
aS'0x4cf96L'
p1637
aS'0x4cfadL'
p1638
aS'0x4cfc4L'
p1639
asg6
Nsg91
(lp1640
S'0x4cfe1L'
p1641
asg95
Nsg96
Nsg97
S'20cd1770826306b20d13fbc820a22512'
p1642
sg99
S'e115c6ed6bc1558972ae9b6a976175d8'
p1643
sg101
(lp1644
g1612
ag1619
ag1626
asg103
Nsba(ibclass
BBasicBlock
p1645
(dp1646
g12
Nsg13
(lp1647
(ibclass
BInstr
p1648
(dp1649
g2
Nsg17
S'nop'
p1650
sg19
S'90'
p1651
sg21
Vnop 
p1652
sg5
L315360L
sg6
Nsg23
S'nop'
p1653
sg25
S'0x4cfe0L'
p1654
sg27
Nsbasg77
(lp1655
g1650
asg87
Nsg5
S'0x4cfe0L'
p1656
sg89
(lp1657
S'0x4cf30L'
p1658
asg6
Nsg91
(lp1659
S'0x4cfe1L'
p1660
asg95
Nsg96
Nsg97
S'a571d969c8661fb0342afd08e571dfa0'
p1661
sg99
S'a571d969c8661fb0342afd08e571dfa0'
p1662
sg101
(lp1663
g1653
asg103
Nsba(ibclass
BBasicBlock
p1664
(dp1665
g12
Nsg13
(lp1666
(ibclass
BInstr
p1667
(dp1668
g2
Nsg17
S'leave'
p1669
sg19
S'c9'
p1670
sg21
Vleave 
p1671
sg5
L315361L
sg6
Nsg23
S'leave'
p1672
sg25
S'0x4cfe1L'
p1673
sg27
Nsba(ibclass
BInstr
p1674
(dp1675
g2
Nsg17
S'retn'
p1676
sg19
S'c3'
p1677
sg21
Vret 
p1678
sg5
L315362L
sg6
Nsg23
S'retn'
p1679
sg25
S'0x4cfe2L'
p1680
sg27
Nsbasg77
(lp1681
g1669
ag1676
asg87
Nsg5
S'0x4cfe1L'
p1682
sg89
(lp1683
S'0x4cfd0L'
p1684
aS'0x4cfe0L'
p1685
asg6
Nsg91
(lp1686
sg95
Nsg96
Nsg97
S'08c78f73a6f87c85da88b2982f54ce2a'
p1687
sg99
S'08c78f73a6f87c85da88b2982f54ce2a'
p1688
sg101
(lp1689
g1672
ag1679
asg103
Nsbasb.