(ibclass
BFunc
p0
(dp1
S'hash'
p2
NsS'name'
p3
S'xmlXPtrNewRangeNodeObject__internal_alias'
p4
sS'start_address'
p5
L814921L
sS'flag'
p6
NsS'program'
p7
NsS'bbs'
p8
(lp9
(ibclass
BBasicBlock
p10
(dp11
S'function'
p12
NsS'binstrs'
p13
(lp14
(ibclass
BInstr
p15
(dp16
g2
NsS'disasm'
p17
S"push    rbp             ; Alternative name is 'xmlXPtrNewRangeNodeObject'"
p18
sS'bytes'
p19
S'55'
p20
sS'disasm_striped'
p21
Vpush rbp
p22
sg5
L814921L
sg6
NsS'mnem'
p23
S'push'
p24
sS'address'
p25
S'0xc6f49L'
p26
sS'basicblock'
p27
Nsba(ibclass
BInstr
p28
(dp29
g2
Nsg17
S'mov     rbp, rsp'
p30
sg19
S'4889e5'
p31
sg21
Vmov rbp, rsp
p32
sg5
L814922L
sg6
Nsg23
S'mov'
p33
sg25
S'0xc6f4aL'
p34
sg27
Nsba(ibclass
BInstr
p35
(dp36
g2
Nsg17
S'sub     rsp, 30h'
p37
sg19
S'4883ec30'
p38
sg21
Vsub rsp, 0x30
p39
sg5
L814925L
sg6
Nsg23
S'sub'
p40
sg25
S'0xc6f4dL'
p41
sg27
Nsba(ibclass
BInstr
p42
(dp43
g2
Nsg17
S'mov     [rbp+start], rdi'
p44
sg19
S'48897dd8'
p45
sg21
Vmov qword ptr [rbp - 0x28], rdi
p46
sg5
L814929L
sg6
Nsg23
S'mov'
p47
sg25
S'0xc6f51L'
p48
sg27
Nsba(ibclass
BInstr
p49
(dp50
g2
Nsg17
S'mov     [rbp+end], rsi'
p51
sg19
S'488975d0'
p52
sg21
Vmov qword ptr [rbp - 0x30], rsi
p53
sg5
L814933L
sg6
Nsg23
S'mov'
p54
sg25
S'0xc6f55L'
p55
sg27
Nsba(ibclass
BInstr
p56
(dp57
g2
Nsg17
S'cmp     [rbp+start], 0'
p58
sg19
S'48837dd800'
p59
sg21
Vcmp qword ptr [rbp - 0x28], 0
p60
sg5
L814937L
sg6
Nsg23
S'cmp'
p61
sg25
S'0xc6f59L'
p62
sg27
Nsba(ibclass
BInstr
p63
(dp64
g2
Nsg17
S'jnz     short loc_C6F6A'
p65
sg19
S'750a'
p66
sg21
Vjne 0xc
p67
sg5
L814942L
sg6
Nsg23
S'jnz'
p68
sg25
S'0xc6f5eL'
p69
sg27
NsbasS'disasm_list'
p70
(lp71
S'push reg'
p72
aS'mov reg, reg'
p73
aS'sub reg, 30h'
p74
aS'mov mem, reg'
p75
aS'mov mem, reg'
p76
aS'cmp mem, 0'
p77
aS'jnz func'
p78
asS'end_address'
p79
Nsg5
S'0xc6f49L'
p80
sS'preds'
p81
(lp82
sg6
NsS'succs'
p83
(lp84
S'0xc6f60L'
p85
aS'0xc6f6aL'
p86
asS'hash_v3'
p87
NsS'flag_v2'
p88
NsS'hash_v1'
p89
S'190746cc36f798dfde6210eda659205d'
p90
sS'hash_v2'
p91
S'3c074e1d09f009742726ac22f489ca91'
p92
sS'mnen_list'
p93
(lp94
g24
ag33
ag40
ag47
ag54
ag61
ag68
asS'neighbour_disasm_list'
p95
Nsba(ibclass
BBasicBlock
p96
(dp97
g12
Nsg13
(lp98
(ibclass
BInstr
p99
(dp100
g2
Nsg17
S'mov     eax, 0'
p101
sg19
S'b800000000'
p102
sg21
Vmov eax, 0
p103
sg5
L814944L
sg6
Nsg23
S'mov'
p104
sg25
S'0xc6f60L'
p105
sg27
Nsba(ibclass
BInstr
p106
(dp107
g2
Nsg17
S'jmp     locret_C703D'
p108
sg19
S'e9d3000000'
p109
sg21
Vjmp 0xd8
p110
sg5
L814949L
sg6
Nsg23
S'jmp'
p111
sg25
S'0xc6f65L'
p112
sg27
Nsbasg70
(lp113
S'mov reg, 0'
p114
aS'jmp func'
p115
asg79
Nsg5
S'0xc6f60L'
p116
sg81
(lp117
S'0xc6f49L'
p118
asg6
Nsg83
(lp119
S'0xc703dL'
p120
asg87
Nsg88
Nsg89
S'8b9a0d40e062be2b9b2d9885108fb196'
p121
sg91
S'b9bc48935b5443504e35a59843f17cfd'
p122
sg93
(lp123
g104
ag111
asg95
Nsba(ibclass
BBasicBlock
p124
(dp125
g12
Nsg13
(lp126
(ibclass
BInstr
p127
(dp128
g2
Nsg17
S'cmp     [rbp+end], 0'
p129
sg19
S'48837dd000'
p130
sg21
Vcmp qword ptr [rbp - 0x30], 0
p131
sg5
L814954L
sg6
Nsg23
S'cmp'
p132
sg25
S'0xc6f6aL'
p133
sg27
Nsba(ibclass
BInstr
p134
(dp135
g2
Nsg17
S'jnz     short loc_C6F7B'
p136
sg19
S'750a'
p137
sg21
Vjne 0xc
p138
sg5
L814959L
sg6
Nsg23
S'jnz'
p139
sg25
S'0xc6f6fL'
p140
sg27
Nsbasg70
(lp141
S'cmp mem, 0'
p142
aS'jnz func'
p143
asg79
Nsg5
S'0xc6f6aL'
p144
sg81
(lp145
S'0xc6f49L'
p146
asg6
Nsg83
(lp147
S'0xc6f71L'
p148
aS'0xc6f7bL'
p149
asg87
Nsg88
Nsg89
S'30cb3d6f6a174adfabcde507f6944a52'
p150
sg91
S'98d72118630a4e08156799652c8790e6'
p151
sg93
(lp152
g132
ag139
asg95
Nsba(ibclass
BBasicBlock
p153
(dp154
g12
Nsg13
(lp155
(ibclass
BInstr
p156
(dp157
g2
Nsg17
S'mov     eax, 0'
p158
sg19
S'b800000000'
p159
sg21
Vmov eax, 0
p160
sg5
L814961L
sg6
Nsg23
S'mov'
p161
sg25
S'0xc6f71L'
p162
sg27
Nsba(ibclass
BInstr
p163
(dp164
g2
Nsg17
S'jmp     locret_C703D'
p165
sg19
S'e9c2000000'
p166
sg21
Vjmp 0xc7
p167
sg5
L814966L
sg6
Nsg23
S'jmp'
p168
sg25
S'0xc6f76L'
p169
sg27
Nsbasg70
(lp170
S'mov reg, 0'
p171
aS'jmp func'
p172
asg79
Nsg5
S'0xc6f71L'
p173
sg81
(lp174
S'0xc6f6aL'
p175
asg6
Nsg83
(lp176
S'0xc703dL'
p177
asg87
Nsg88
Nsg89
S'8b9a0d40e062be2b9b2d9885108fb196'
p178
sg91
S'b9bc48935b5443504e35a59843f17cfd'
p179
sg93
(lp180
g161
ag168
asg95
Nsba(ibclass
BBasicBlock
p181
(dp182
g12
Nsg13
(lp183
(ibclass
BInstr
p184
(dp185
g2
Nsg17
S'mov     rax, [rbp+end]'
p186
sg19
S'488b45d0'
p187
sg21
Vmov rax, qword ptr [rbp - 0x30]
p188
sg5
L814971L
sg6
Nsg23
S'mov'
p189
sg25
S'0xc6f7bL'
p190
sg27
Nsba(ibclass
BInstr
p191
(dp192
g2
Nsg17
S'mov     eax, [rax]'
p193
sg19
S'8b00'
p194
sg21
Vmov eax, dword ptr [rax]
p195
sg5
L814975L
sg6
Nsg23
S'mov'
p196
sg25
S'0xc6f7fL'
p197
sg27
Nsba(ibclass
BInstr
p198
(dp199
g2
Nsg17
S'cmp     eax, 5'
p200
sg19
S'83f805'
p201
sg21
Vcmp eax, 5
p202
sg5
L814977L
sg6
Nsg23
S'cmp'
p203
sg25
S'0xc6f81L'
p204
sg27
Nsba(ibclass
BInstr
p205
(dp206
g2
Nsg17
S'jz      short loc_C6F92'
p207
sg19
S'740c'
p208
sg21
Vje 0xe
p209
sg5
L814980L
sg6
Nsg23
S'jz'
p210
sg25
S'0xc6f84L'
p211
sg27
Nsbasg70
(lp212
S'mov reg, mem'
p213
aS'mov reg, mem'
p214
aS'cmp reg, 5'
p215
aS'jz func'
p216
asg79
Nsg5
S'0xc6f7bL'
p217
sg81
(lp218
S'0xc6f6aL'
p219
asg6
Nsg83
(lp220
S'0xc6f86L'
p221
aS'0xc6f92L'
p222
asg87
Nsg88
Nsg89
S'db7f0dec7b6480d765a2fb1483cb9e16'
p223
sg91
S'9a7d257313969f3e11d235a50a2a93ed'
p224
sg93
(lp225
g189
ag196
ag203
ag210
asg95
Nsba(ibclass
BBasicBlock
p226
(dp227
g12
Nsg13
(lp228
(ibclass
BInstr
p229
(dp230
g2
Nsg17
S'cmp     eax, 6'
p231
sg19
S'83f806'
p232
sg21
Vcmp eax, 6
p233
sg5
L814982L
sg6
Nsg23
S'cmp'
p234
sg25
S'0xc6f86L'
p235
sg27
Nsba(ibclass
BInstr
p236
(dp237
g2
Nsg17
S'jz      short loc_C6FAA'
p238
sg19
S'741f'
p239
sg21
Vje 0x21
p240
sg5
L814985L
sg6
Nsg23
S'jz'
p241
sg25
S'0xc6f89L'
p242
sg27
Nsbasg70
(lp243
S'cmp reg, 6'
p244
aS'jz func'
p245
asg79
Nsg5
S'0xc6f86L'
p246
sg81
(lp247
S'0xc6f7bL'
p248
asg6
Nsg83
(lp249
S'0xc6f8bL'
p250
aS'0xc6faaL'
p251
asg87
Nsg88
Nsg89
S'613dbc2b0cb9d6264d802b24d709daea'
p252
sg91
S'aa7177d43960e731f833ff62ccebdb77'
p253
sg93
(lp254
g234
ag241
asg95
Nsba(ibclass
BBasicBlock
p255
(dp256
g12
Nsg13
(lp257
(ibclass
BInstr
p258
(dp259
g2
Nsg17
S'cmp     eax, 1'
p260
sg19
S'83f801'
p261
sg21
Vcmp eax, 1
p262
sg5
L814987L
sg6
Nsg23
S'cmp'
p263
sg25
S'0xc6f8bL'
p264
sg27
Nsba(ibclass
BInstr
p265
(dp266
g2
Nsg17
S'jz      short loc_C6FC2'
p267
sg19
S'7432'
p268
sg21
Vje 0x34
p269
sg5
L814990L
sg6
Nsg23
S'jz'
p270
sg25
S'0xc6f8eL'
p271
sg27
Nsbasg70
(lp272
S'cmp reg, 1'
p273
aS'jz func'
p274
asg79
Nsg5
S'0xc6f8bL'
p275
sg81
(lp276
S'0xc6f86L'
p277
asg6
Nsg83
(lp278
S'0xc6f90L'
p279
aS'0xc6fc2L'
p280
asg87
Nsg88
Nsg89
S'613dbc2b0cb9d6264d802b24d709daea'
p281
sg91
S'5e9a1cd305d4491ae54b38bc3927970f'
p282
sg93
(lp283
g263
ag270
asg95
Nsba(ibclass
BBasicBlock
p284
(dp285
g12
Nsg13
(lp286
(ibclass
BInstr
p287
(dp288
g2
Nsg17
S'jmp     short loc_C700A'
p289
sg19
S'eb78'
p290
sg21
Vjmp 0x7a
p291
sg5
L814992L
sg6
Nsg23
S'jmp'
p292
sg25
S'0xc6f90L'
p293
sg27
Nsbasg70
(lp294
S'jmp func'
p295
asg79
Nsg5
S'0xc6f90L'
p296
sg81
(lp297
S'0xc6f8bL'
p298
asg6
Nsg83
(lp299
S'0xc700aL'
p300
asg87
Nsg88
Nsg89
S'0ef6cf926f2f394b0cc8e11be8022625'
p301
sg91
S'6c64eaafdcb2d6ebd96fc3dc6cab1911'
p302
sg93
(lp303
g292
asg95
Nsba(ibclass
BBasicBlock
p304
(dp305
g12
Nsg13
(lp306
(ibclass
BInstr
p307
(dp308
g2
Nsg17
S'mov     rax, [rbp+end]'
p309
sg19
S'488b45d0'
p310
sg21
Vmov rax, qword ptr [rbp - 0x30]
p311
sg5
L814994L
sg6
Nsg23
S'mov'
p312
sg25
S'0xc6f92L'
p313
sg27
Nsba(ibclass
BInstr
p314
(dp315
g2
Nsg17
S'mov     rax, [rax+28h]'
p316
sg19
S'488b4028'
p317
sg21
Vmov rax, qword ptr [rax + 0x28]
p318
sg5
L814998L
sg6
Nsg23
S'mov'
p319
sg25
S'0xc6f96L'
p320
sg27
Nsba(ibclass
BInstr
p321
(dp322
g2
Nsg17
S'mov     [rbp+endNode], rax'
p323
sg19
S'488945f0'
p324
sg21
Vmov qword ptr [rbp - 0x10], rax
p325
sg5
L815002L
sg6
Nsg23
S'mov'
p326
sg25
S'0xc6f9aL'
p327
sg27
Nsba(ibclass
BInstr
p328
(dp329
g2
Nsg17
S'mov     rax, [rbp+end]'
p330
sg19
S'488b45d0'
p331
sg21
Vmov rax, qword ptr [rbp - 0x30]
p332
sg5
L815006L
sg6
Nsg23
S'mov'
p333
sg25
S'0xc6f9eL'
p334
sg27
Nsba(ibclass
BInstr
p335
(dp336
g2
Nsg17
S'mov     eax, [rax+30h]'
p337
sg19
S'8b4030'
p338
sg21
Vmov eax, dword ptr [rax + 0x30]
p339
sg5
L815010L
sg6
Nsg23
S'mov'
p340
sg25
S'0xc6fa2L'
p341
sg27
Nsba(ibclass
BInstr
p342
(dp343
g2
Nsg17
S'mov     [rbp+endIndex], eax'
p344
sg19
S'8945ec'
p345
sg21
Vmov dword ptr [rbp - 0x14], eax
p346
sg5
L815013L
sg6
Nsg23
S'mov'
p347
sg25
S'0xc6fa5L'
p348
sg27
Nsba(ibclass
BInstr
p349
(dp350
g2
Nsg17
S'jmp     short loc_C7011'
p351
sg19
S'eb67'
p352
sg21
Vjmp 0x69
p353
sg5
L815016L
sg6
Nsg23
S'jmp'
p354
sg25
S'0xc6fa8L'
p355
sg27
Nsbasg70
(lp356
S'mov reg, mem'
p357
aS'mov reg, mem'
p358
aS'mov mem, reg'
p359
aS'mov reg, mem'
p360
aS'mov reg, mem'
p361
aS'mov mem, reg'
p362
aS'jmp func'
p363
asg79
Nsg5
S'0xc6f92L'
p364
sg81
(lp365
S'0xc6f7bL'
p366
asg6
Nsg83
(lp367
S'0xc7011L'
p368
asg87
Nsg88
Nsg89
S'1a9cbceb7fd1cce61a09bffd9f9d1912'
p369
sg91
S'9d5b2f21eed9844eb8e6e35fe95beb05'
p370
sg93
(lp371
g312
ag319
ag326
ag333
ag340
ag347
ag354
asg95
Nsba(ibclass
BBasicBlock
p372
(dp373
g12
Nsg13
(lp374
(ibclass
BInstr
p375
(dp376
g2
Nsg17
S'mov     rax, [rbp+end]'
p377
sg19
S'488b45d0'
p378
sg21
Vmov rax, qword ptr [rbp - 0x30]
p379
sg5
L815018L
sg6
Nsg23
S'mov'
p380
sg25
S'0xc6faaL'
p381
sg27
Nsba(ibclass
BInstr
p382
(dp383
g2
Nsg17
S'mov     rax, [rax+38h]'
p384
sg19
S'488b4038'
p385
sg21
Vmov rax, qword ptr [rax + 0x38]
p386
sg5
L815022L
sg6
Nsg23
S'mov'
p387
sg25
S'0xc6faeL'
p388
sg27
Nsba(ibclass
BInstr
p389
(dp390
g2
Nsg17
S'mov     [rbp+endNode], rax'
p391
sg19
S'488945f0'
p392
sg21
Vmov qword ptr [rbp - 0x10], rax
p393
sg5
L815026L
sg6
Nsg23
S'mov'
p394
sg25
S'0xc6fb2L'
p395
sg27
Nsba(ibclass
BInstr
p396
(dp397
g2
Nsg17
S'mov     rax, [rbp+end]'
p398
sg19
S'488b45d0'
p399
sg21
Vmov rax, qword ptr [rbp - 0x30]
p400
sg5
L815030L
sg6
Nsg23
S'mov'
p401
sg25
S'0xc6fb6L'
p402
sg27
Nsba(ibclass
BInstr
p403
(dp404
g2
Nsg17
S'mov     eax, [rax+40h]'
p405
sg19
S'8b4040'
p406
sg21
Vmov eax, dword ptr [rax + 0x40]
p407
sg5
L815034L
sg6
Nsg23
S'mov'
p408
sg25
S'0xc6fbaL'
p409
sg27
Nsba(ibclass
BInstr
p410
(dp411
g2
Nsg17
S'mov     [rbp+endIndex], eax'
p412
sg19
S'8945ec'
p413
sg21
Vmov dword ptr [rbp - 0x14], eax
p414
sg5
L815037L
sg6
Nsg23
S'mov'
p415
sg25
S'0xc6fbdL'
p416
sg27
Nsba(ibclass
BInstr
p417
(dp418
g2
Nsg17
S'jmp     short loc_C7011'
p419
sg19
S'eb4f'
p420
sg21
Vjmp 0x51
p421
sg5
L815040L
sg6
Nsg23
S'jmp'
p422
sg25
S'0xc6fc0L'
p423
sg27
Nsbasg70
(lp424
S'mov reg, mem'
p425
aS'mov reg, mem'
p426
aS'mov mem, reg'
p427
aS'mov reg, mem'
p428
aS'mov reg, mem'
p429
aS'mov mem, reg'
p430
aS'jmp func'
p431
asg79
Nsg5
S'0xc6faaL'
p432
sg81
(lp433
S'0xc6f86L'
p434
asg6
Nsg83
(lp435
S'0xc7011L'
p436
asg87
Nsg88
Nsg89
S'1a9cbceb7fd1cce61a09bffd9f9d1912'
p437
sg91
S'9d5b2f21eed9844eb8e6e35fe95beb05'
p438
sg93
(lp439
g380
ag387
ag394
ag401
ag408
ag415
ag422
asg95
Nsba(ibclass
BBasicBlock
p440
(dp441
g12
Nsg13
(lp442
(ibclass
BInstr
p443
(dp444
g2
Nsg17
S'mov     rax, [rbp+end]'
p445
sg19
S'488b45d0'
p446
sg21
Vmov rax, qword ptr [rbp - 0x30]
p447
sg5
L815042L
sg6
Nsg23
S'mov'
p448
sg25
S'0xc6fc2L'
p449
sg27
Nsba(ibclass
BInstr
p450
(dp451
g2
Nsg17
S'mov     rax, [rax+8]'
p452
sg19
S'488b4008'
p453
sg21
Vmov rax, qword ptr [rax + 8]
p454
sg5
L815046L
sg6
Nsg23
S'mov'
p455
sg25
S'0xc6fc6L'
p456
sg27
Nsba(ibclass
BInstr
p457
(dp458
g2
Nsg17
S'mov     eax, [rax]'
p459
sg19
S'8b00'
p460
sg21
Vmov eax, dword ptr [rax]
p461
sg5
L815050L
sg6
Nsg23
S'mov'
p462
sg25
S'0xc6fcaL'
p463
sg27
Nsba(ibclass
BInstr
p464
(dp465
g2
Nsg17
S'test    eax, eax'
p466
sg19
S'85c0'
p467
sg21
Vtest eax, eax
p468
sg5
L815052L
sg6
Nsg23
S'test'
p469
sg25
S'0xc6fccL'
p470
sg27
Nsba(ibclass
BInstr
p471
(dp472
g2
Nsg17
S'jg      short loc_C6FD7'
p473
sg19
S'7f07'
p474
sg21
Vjg 9
p475
sg5
L815054L
sg6
Nsg23
S'jg'
p476
sg25
S'0xc6fceL'
p477
sg27
Nsbasg70
(lp478
S'mov reg, mem'
p479
aS'mov reg, mem'
p480
aS'mov reg, mem'
p481
aS'test reg, reg'
p482
aS'jg func'
p483
asg79
Nsg5
S'0xc6fc2L'
p484
sg81
(lp485
S'0xc6f8bL'
p486
asg6
Nsg83
(lp487
S'0xc6fd0L'
p488
aS'0xc6fd7L'
p489
asg87
Nsg88
Nsg89
S'297d2f197a74c05cceee998154babfe9'
p490
sg91
S'bbc3fb29db8e52ce5d5d55fb1dc92056'
p491
sg93
(lp492
g448
ag455
ag462
ag469
ag476
asg95
Nsba(ibclass
BBasicBlock
p493
(dp494
g12
Nsg13
(lp495
(ibclass
BInstr
p496
(dp497
g2
Nsg17
S'mov     eax, 0'
p498
sg19
S'b800000000'
p499
sg21
Vmov eax, 0
p500
sg5
L815056L
sg6
Nsg23
S'mov'
p501
sg25
S'0xc6fd0L'
p502
sg27
Nsba(ibclass
BInstr
p503
(dp504
g2
Nsg17
S'jmp     short locret_C703D'
p505
sg19
S'eb66'
p506
sg21
Vjmp 0x68
p507
sg5
L815061L
sg6
Nsg23
S'jmp'
p508
sg25
S'0xc6fd5L'
p509
sg27
Nsbasg70
(lp510
S'mov reg, 0'
p511
aS'jmp short func'
p512
asg79
Nsg5
S'0xc6fd0L'
p513
sg81
(lp514
S'0xc6fc2L'
p515
asg6
Nsg83
(lp516
S'0xc703dL'
p517
asg87
Nsg88
Nsg89
S'8b9a0d40e062be2b9b2d9885108fb196'
p518
sg91
S'2050644a6a17db8b92cb0a22070981a5'
p519
sg93
(lp520
g501
ag508
asg95
Nsba(ibclass
BBasicBlock
p521
(dp522
g12
Nsg13
(lp523
(ibclass
BInstr
p524
(dp525
g2
Nsg17
S'mov     rax, [rbp+end]'
p526
sg19
S'488b45d0'
p527
sg21
Vmov rax, qword ptr [rbp - 0x30]
p528
sg5
L815063L
sg6
Nsg23
S'mov'
p529
sg25
S'0xc6fd7L'
p530
sg27
Nsba(ibclass
BInstr
p531
(dp532
g2
Nsg17
S'mov     rax, [rax+8]'
p533
sg19
S'488b4008'
p534
sg21
Vmov rax, qword ptr [rax + 8]
p535
sg5
L815067L
sg6
Nsg23
S'mov'
p536
sg25
S'0xc6fdbL'
p537
sg27
Nsba(ibclass
BInstr
p538
(dp539
g2
Nsg17
S'mov     rdx, [rax+8]'
p540
sg19
S'488b5008'
p541
sg21
Vmov rdx, qword ptr [rax + 8]
p542
sg5
L815071L
sg6
Nsg23
S'mov'
p543
sg25
S'0xc6fdfL'
p544
sg27
Nsba(ibclass
BInstr
p545
(dp546
g2
Nsg17
S'mov     rax, [rbp+end]'
p547
sg19
S'488b45d0'
p548
sg21
Vmov rax, qword ptr [rbp - 0x30]
p549
sg5
L815075L
sg6
Nsg23
S'mov'
p550
sg25
S'0xc6fe3L'
p551
sg27
Nsba(ibclass
BInstr
p552
(dp553
g2
Nsg17
S'mov     rax, [rax+8]'
p554
sg19
S'488b4008'
p555
sg21
Vmov rax, qword ptr [rax + 8]
p556
sg5
L815079L
sg6
Nsg23
S'mov'
p557
sg25
S'0xc6fe7L'
p558
sg27
Nsba(ibclass
BInstr
p559
(dp560
g2
Nsg17
S'mov     eax, [rax]'
p561
sg19
S'8b00'
p562
sg21
Vmov eax, dword ptr [rax]
p563
sg5
L815083L
sg6
Nsg23
S'mov'
p564
sg25
S'0xc6febL'
p565
sg27
Nsba(ibclass
BInstr
p566
(dp567
g2
Nsg17
S'cdqe'
p568
sg19
S'4898'
p569
sg21
Vcdqe 
p570
sg5
L815085L
sg6
Nsg23
S'cdqe'
p571
sg25
S'0xc6fedL'
p572
sg27
Nsba(ibclass
BInstr
p573
(dp574
g2
Nsg17
S'shl     rax, 3'
p575
sg19
S'48c1e003'
p576
sg21
Vshl rax, 3
p577
sg5
L815087L
sg6
Nsg23
S'shl'
p578
sg25
S'0xc6fefL'
p579
sg27
Nsba(ibclass
BInstr
p580
(dp581
g2
Nsg17
S'sub     rax, 8'
p582
sg19
S'4883e808'
p583
sg21
Vsub rax, 8
p584
sg5
L815091L
sg6
Nsg23
S'sub'
p585
sg25
S'0xc6ff3L'
p586
sg27
Nsba(ibclass
BInstr
p587
(dp588
g2
Nsg17
S'add     rax, rdx'
p589
sg19
S'4801d0'
p590
sg21
Vadd rax, rdx
p591
sg5
L815095L
sg6
Nsg23
S'add'
p592
sg25
S'0xc6ff7L'
p593
sg27
Nsba(ibclass
BInstr
p594
(dp595
g2
Nsg17
S'mov     rax, [rax]'
p596
sg19
S'488b00'
p597
sg21
Vmov rax, qword ptr [rax]
p598
sg5
L815098L
sg6
Nsg23
S'mov'
p599
sg25
S'0xc6ffaL'
p600
sg27
Nsba(ibclass
BInstr
p601
(dp602
g2
Nsg17
S'mov     [rbp+endNode], rax'
p603
sg19
S'488945f0'
p604
sg21
Vmov qword ptr [rbp - 0x10], rax
p605
sg5
L815101L
sg6
Nsg23
S'mov'
p606
sg25
S'0xc6ffdL'
p607
sg27
Nsba(ibclass
BInstr
p608
(dp609
g2
Nsg17
S'mov     [rbp+endIndex], 0FFFFFFFFh'
p610
sg19
S'c745ecffffffff'
p611
sg21
Vmov dword ptr [rbp - 0x14], 0xffffffff
p612
sg5
L815105L
sg6
Nsg23
S'mov'
p613
sg25
S'0xc7001L'
p614
sg27
Nsba(ibclass
BInstr
p615
(dp616
g2
Nsg17
S'jmp     short loc_C7011'
p617
sg19
S'eb07'
p618
sg21
Vjmp 9
p619
sg5
L815112L
sg6
Nsg23
S'jmp'
p620
sg25
S'0xc7008L'
p621
sg27
Nsbasg70
(lp622
S'mov reg, mem'
p623
aS'mov reg, mem'
p624
aS'mov reg, mem'
p625
aS'mov reg, mem'
p626
aS'mov reg, mem'
p627
aS'mov reg, mem'
p628
ag568
aS'shl reg, 3'
p629
aS'sub reg, 8'
p630
aS'add reg, reg'
p631
aS'mov reg, mem'
p632
aS'mov mem, reg'
p633
aS'mov mem, 0FFFFFFFFh'
p634
aS'jmp func'
p635
asg79
Nsg5
S'0xc6fd7L'
p636
sg81
(lp637
S'0xc6fc2L'
p638
asg6
Nsg83
(lp639
S'0xc7011L'
p640
asg87
Nsg88
Nsg89
S'3bddc37ddc6c94c3f673efc46690c24f'
p641
sg91
S'91c5e7855055f9f2bc8915c738538910'
p642
sg93
(lp643
g529
ag536
ag543
ag550
ag557
ag564
ag571
ag578
ag585
ag592
ag599
ag606
ag613
ag620
asg95
Nsba(ibclass
BBasicBlock
p644
(dp645
g12
Nsg13
(lp646
(ibclass
BInstr
p647
(dp648
g2
Nsg17
S'mov     eax, 0'
p649
sg19
S'b800000000'
p650
sg21
Vmov eax, 0
p651
sg5
L815114L
sg6
Nsg23
S'mov'
p652
sg25
S'0xc700aL'
p653
sg27
Nsba(ibclass
BInstr
p654
(dp655
g2
Nsg17
S'jmp     short locret_C703D'
p656
sg19
S'eb2c'
p657
sg21
Vjmp 0x2e
p658
sg5
L815119L
sg6
Nsg23
S'jmp'
p659
sg25
S'0xc700fL'
p660
sg27
Nsbasg70
(lp661
S'mov reg, 0'
p662
aS'jmp short func'
p663
asg79
Nsg5
S'0xc700aL'
p664
sg81
(lp665
S'0xc6f90L'
p666
asg6
Nsg83
(lp667
S'0xc703dL'
p668
asg87
Nsg88
Nsg89
S'8b9a0d40e062be2b9b2d9885108fb196'
p669
sg91
S'2050644a6a17db8b92cb0a22070981a5'
p670
sg93
(lp671
g652
ag659
asg95
Nsba(ibclass
BBasicBlock
p672
(dp673
g12
Nsg13
(lp674
(ibclass
BInstr
p675
(dp676
g2
Nsg17
S'mov     ecx, [rbp+endIndex]; endindex'
p677
sg19
S'8b4dec'
p678
sg21
Vmov ecx, dword ptr [rbp - 0x14]
p679
sg5
L815121L
sg6
Nsg23
S'mov'
p680
sg25
S'0xc7011L'
p681
sg27
Nsba(ibclass
BInstr
p682
(dp683
g2
Nsg17
S'mov     rdx, [rbp+endNode]; end'
p684
sg19
S'488b55f0'
p685
sg21
Vmov rdx, qword ptr [rbp - 0x10]
p686
sg5
L815124L
sg6
Nsg23
S'mov'
p687
sg25
S'0xc7014L'
p688
sg27
Nsba(ibclass
BInstr
p689
(dp690
g2
Nsg17
S'mov     rax, [rbp+start]'
p691
sg19
S'488b45d8'
p692
sg21
Vmov rax, qword ptr [rbp - 0x28]
p693
sg5
L815128L
sg6
Nsg23
S'mov'
p694
sg25
S'0xc7018L'
p695
sg27
Nsba(ibclass
BInstr
p696
(dp697
g2
Nsg17
S'mov     esi, 0FFFFFFFFh ; startindex'
p698
sg19
S'beffffffff'
p699
sg21
Vmov esi, 0xffffffff
p700
sg5
L815132L
sg6
Nsg23
S'mov'
p701
sg25
S'0xc701cL'
p702
sg27
Nsba(ibclass
BInstr
p703
(dp704
g2
Nsg17
S'mov     rdi, rax        ; start'
p705
sg19
S'4889c7'
p706
sg21
Vmov rdi, rax
p707
sg5
L815137L
sg6
Nsg23
S'mov'
p708
sg25
S'0xc7021L'
p709
sg27
Nsba(ibclass
BInstr
p710
(dp711
g2
Nsg17
S'call    xmlXPtrNewRangeInternal'
p712
sg19
S'e8b8fbffff'
p713
sg21
Vcall 0xfffffffffffffbbd
p714
sg5
L815140L
sg6
Nsg23
S'call'
p715
sg25
S'0xc7024L'
p716
sg27
Nsba(ibclass
BInstr
p717
(dp718
g2
Nsg17
S'mov     [rbp+ret], rax'
p719
sg19
S'488945f8'
p720
sg21
Vmov qword ptr [rbp - 8], rax
p721
sg5
L815145L
sg6
Nsg23
S'mov'
p722
sg25
S'0xc7029L'
p723
sg27
Nsba(ibclass
BInstr
p724
(dp725
g2
Nsg17
S'mov     rax, [rbp+ret]'
p726
sg19
S'488b45f8'
p727
sg21
Vmov rax, qword ptr [rbp - 8]
p728
sg5
L815149L
sg6
Nsg23
S'mov'
p729
sg25
S'0xc702dL'
p730
sg27
Nsba(ibclass
BInstr
p731
(dp732
g2
Nsg17
S'mov     rdi, rax        ; range'
p733
sg19
S'4889c7'
p734
sg21
Vmov rdi, rax
p735
sg5
L815153L
sg6
Nsg23
S'mov'
p736
sg25
S'0xc7031L'
p737
sg27
Nsba(ibclass
BInstr
p738
(dp739
g2
Nsg17
S'call    xmlXPtrRangeCheckOrder'
p740
sg19
S'e818faffff'
p741
sg21
Vcall 0xfffffffffffffa1d
p742
sg5
L815156L
sg6
Nsg23
S'call'
p743
sg25
S'0xc7034L'
p744
sg27
Nsba(ibclass
BInstr
p745
(dp746
g2
Nsg17
S'mov     rax, [rbp+ret]'
p747
sg19
S'488b45f8'
p748
sg21
Vmov rax, qword ptr [rbp - 8]
p749
sg5
L815161L
sg6
Nsg23
S'mov'
p750
sg25
S'0xc7039L'
p751
sg27
Nsbasg70
(lp752
S'mov reg, mem'
p753
aS'mov reg, mem'
p754
aS'mov reg, mem'
p755
aS'mov reg, 0FFFFFFFFh'
p756
aS'mov reg, reg'
p757
aS'cregl xmlXPtrNewRangeInternreg'
p758
aS'mov mem, reg'
p759
aS'mov reg, mem'
p760
aS'mov reg, reg'
p761
aS'cregl xmlXPtrRangeCheckOrder'
p762
aS'mov reg, mem'
p763
asg79
Nsg5
S'0xc7011L'
p764
sg81
(lp765
S'0xc6f92L'
p766
aS'0xc6faaL'
p767
aS'0xc6fd7L'
p768
asg6
Nsg83
(lp769
S'0xc703dL'
p770
asg87
Nsg88
Nsg89
S'c2e3fc706a58a1a3da047a33c807c4d6'
p771
sg91
S'746e75e0805aa7b6d4256d71d0dd591f'
p772
sg93
(lp773
g680
ag687
ag694
ag701
ag708
ag715
ag722
ag729
ag736
ag743
ag750
asg95
Nsba(ibclass
BBasicBlock
p774
(dp775
g12
Nsg13
(lp776
(ibclass
BInstr
p777
(dp778
g2
Nsg17
S'leave'
p779
sg19
S'c9'
p780
sg21
Vleave 
p781
sg5
L815165L
sg6
Nsg23
S'leave'
p782
sg25
S'0xc703dL'
p783
sg27
Nsba(ibclass
BInstr
p784
(dp785
g2
Nsg17
S'retn'
p786
sg19
S'c3'
p787
sg21
Vret 
p788
sg5
L815166L
sg6
Nsg23
S'retn'
p789
sg25
S'0xc703eL'
p790
sg27
Nsbasg70
(lp791
g779
ag786
asg79
Nsg5
S'0xc703dL'
p792
sg81
(lp793
S'0xc6f60L'
p794
aS'0xc6f71L'
p795
aS'0xc6fd0L'
p796
aS'0xc700aL'
p797
aS'0xc7011L'
p798
asg6
Nsg83
(lp799
sg87
Nsg88
Nsg89
S'08c78f73a6f87c85da88b2982f54ce2a'
p800
sg91
S'08c78f73a6f87c85da88b2982f54ce2a'
p801
sg93
(lp802
g782
ag789
asg95
Nsbasb.