(ibclass
BFunc
p0
(dp1
S'hash'
p2
NsS'name'
p3
S'htmlNodeInfoPop'
p4
sS'start_address'
p5
L585400L
sS'flag'
p6
NsS'program'
p7
NsS'bbs'
p8
(lp9
(ibclass
BBasicBlock
p10
(dp11
S'function'
p12
NsS'binstrs'
p13
(lp14
(ibclass
BInstr
p15
(dp16
g2
NsS'disasm'
p17
S'push    rbp'
p18
sS'bytes'
p19
S'55'
p20
sS'disasm_striped'
p21
Vpush rbp
p22
sg5
L585400L
sg6
NsS'mnem'
p23
S'push'
p24
sS'address'
p25
S'0x8eeb8L'
p26
sS'basicblock'
p27
Nsba(ibclass
BInstr
p28
(dp29
g2
Nsg17
S'mov     rbp, rsp'
p30
sg19
S'4889e5'
p31
sg21
Vmov rbp, rsp
p32
sg5
L585401L
sg6
Nsg23
S'mov'
p33
sg25
S'0x8eeb9L'
p34
sg27
Nsba(ibclass
BInstr
p35
(dp36
g2
Nsg17
S'mov     [rbp+ctxt], rdi'
p37
sg19
S'48897df8'
p38
sg21
Vmov qword ptr [rbp - 8], rdi
p39
sg5
L585404L
sg6
Nsg23
S'mov'
p40
sg25
S'0x8eebcL'
p41
sg27
Nsba(ibclass
BInstr
p42
(dp43
g2
Nsg17
S'mov     rax, [rbp+ctxt]'
p44
sg19
S'488b45f8'
p45
sg21
Vmov rax, qword ptr [rbp - 8]
p46
sg5
L585408L
sg6
Nsg23
S'mov'
p47
sg25
S'0x8eec0L'
p48
sg27
Nsba(ibclass
BInstr
p49
(dp50
g2
Nsg17
S'mov     eax, [rax+2D0h]'
p51
sg19
S'8b80d0020000'
p52
sg21
Vmov eax, dword ptr [rax + 0x2d0]
p53
sg5
L585412L
sg6
Nsg23
S'mov'
p54
sg25
S'0x8eec4L'
p55
sg27
Nsba(ibclass
BInstr
p56
(dp57
g2
Nsg17
S'test    eax, eax'
p58
sg19
S'85c0'
p59
sg21
Vtest eax, eax
p60
sg5
L585418L
sg6
Nsg23
S'test'
p61
sg25
S'0x8eecaL'
p62
sg27
Nsba(ibclass
BInstr
p63
(dp64
g2
Nsg17
S'jg      short loc_8EED8'
p65
sg19
S'7f0a'
p66
sg21
Vjg 0xc
p67
sg5
L585420L
sg6
Nsg23
S'jg'
p68
sg25
S'0x8eeccL'
p69
sg27
NsbasS'disasm_list'
p70
(lp71
S'push reg'
p72
aS'mov reg, reg'
p73
aS'mov mem, reg'
p74
aS'mov reg, mem'
p75
aS'mov reg, mem'
p76
aS'test reg, reg'
p77
aS'jg func'
p78
asS'end_address'
p79
Nsg5
S'0x8eeb8L'
p80
sS'preds'
p81
(lp82
sg6
NsS'succs'
p83
(lp84
S'0x8eeceL'
p85
aS'0x8eed8L'
p86
asS'hash_v3'
p87
NsS'flag_v2'
p88
NsS'hash_v1'
p89
S'b3277ff7357998172a7a7c7b1cb96f79'
p90
sS'hash_v2'
p91
S'443a4140d9925b4a0ced465a58eab420'
p92
sS'mnen_list'
p93
(lp94
g24
ag33
ag40
ag47
ag54
ag61
ag68
asS'neighbour_disasm_list'
p95
Nsba(ibclass
BBasicBlock
p96
(dp97
g12
Nsg13
(lp98
(ibclass
BInstr
p99
(dp100
g2
Nsg17
S'mov     eax, 0'
p101
sg19
S'b800000000'
p102
sg21
Vmov eax, 0
p103
sg5
L585422L
sg6
Nsg23
S'mov'
p104
sg25
S'0x8eeceL'
p105
sg27
Nsba(ibclass
BInstr
p106
(dp107
g2
Nsg17
S'jmp     loc_8EF88'
p108
sg19
S'e9b0000000'
p109
sg21
Vjmp 0xb5
p110
sg5
L585427L
sg6
Nsg23
S'jmp'
p111
sg25
S'0x8eed3L'
p112
sg27
Nsbasg70
(lp113
S'mov reg, 0'
p114
aS'jmp func'
p115
asg79
Nsg5
S'0x8eeceL'
p116
sg81
(lp117
S'0x8eeb8L'
p118
asg6
Nsg83
(lp119
S'0x8ef88L'
p120
asg87
Nsg88
Nsg89
S'8b9a0d40e062be2b9b2d9885108fb196'
p121
sg91
S'b9bc48935b5443504e35a59843f17cfd'
p122
sg93
(lp123
g104
ag111
asg95
Nsba(ibclass
BBasicBlock
p124
(dp125
g12
Nsg13
(lp126
(ibclass
BInstr
p127
(dp128
g2
Nsg17
S'mov     rax, [rbp+ctxt]'
p129
sg19
S'488b45f8'
p130
sg21
Vmov rax, qword ptr [rbp - 8]
p131
sg5
L585432L
sg6
Nsg23
S'mov'
p132
sg25
S'0x8eed8L'
p133
sg27
Nsba(ibclass
BInstr
p134
(dp135
g2
Nsg17
S'mov     eax, [rax+2D0h]'
p136
sg19
S'8b80d0020000'
p137
sg21
Vmov eax, dword ptr [rax + 0x2d0]
p138
sg5
L585436L
sg6
Nsg23
S'mov'
p139
sg25
S'0x8eedcL'
p140
sg27
Nsba(ibclass
BInstr
p141
(dp142
g2
Nsg17
S'lea     edx, [rax-1]'
p143
sg19
S'8d50ff'
p144
sg21
Vlea edx, [rax - 1]
p145
sg5
L585442L
sg6
Nsg23
S'lea'
p146
sg25
S'0x8eee2L'
p147
sg27
Nsba(ibclass
BInstr
p148
(dp149
g2
Nsg17
S'mov     rax, [rbp+ctxt]'
p150
sg19
S'488b45f8'
p151
sg21
Vmov rax, qword ptr [rbp - 8]
p152
sg5
L585445L
sg6
Nsg23
S'mov'
p153
sg25
S'0x8eee5L'
p154
sg27
Nsba(ibclass
BInstr
p155
(dp156
g2
Nsg17
S'mov     [rax+2D0h], edx'
p157
sg19
S'8990d0020000'
p158
sg21
Vmov dword ptr [rax + 0x2d0], edx
p159
sg5
L585449L
sg6
Nsg23
S'mov'
p160
sg25
S'0x8eee9L'
p161
sg27
Nsba(ibclass
BInstr
p162
(dp163
g2
Nsg17
S'mov     rax, [rbp+ctxt]'
p164
sg19
S'488b45f8'
p165
sg21
Vmov rax, qword ptr [rbp - 8]
p166
sg5
L585455L
sg6
Nsg23
S'mov'
p167
sg25
S'0x8eeefL'
p168
sg27
Nsba(ibclass
BInstr
p169
(dp170
g2
Nsg17
S'mov     eax, [rax+2D0h]'
p171
sg19
S'8b80d0020000'
p172
sg21
Vmov eax, dword ptr [rax + 0x2d0]
p173
sg5
L585459L
sg6
Nsg23
S'mov'
p174
sg25
S'0x8eef3L'
p175
sg27
Nsba(ibclass
BInstr
p176
(dp177
g2
Nsg17
S'test    eax, eax'
p178
sg19
S'85c0'
p179
sg21
Vtest eax, eax
p180
sg5
L585465L
sg6
Nsg23
S'test'
p181
sg25
S'0x8eef9L'
p182
sg27
Nsba(ibclass
BInstr
p183
(dp184
g2
Nsg17
S'jns     short loc_8EF07'
p185
sg19
S'790a'
p186
sg21
Vjns 0xc
p187
sg5
L585467L
sg6
Nsg23
S'jns'
p188
sg25
S'0x8eefbL'
p189
sg27
Nsbasg70
(lp190
S'mov reg, mem'
p191
aS'mov reg, mem'
p192
aS'lea reg, mem'
p193
aS'mov reg, mem'
p194
aS'mov mem, reg'
p195
aS'mov reg, mem'
p196
aS'mov reg, mem'
p197
aS'test reg, reg'
p198
aS'jns func'
p199
asg79
Nsg5
S'0x8eed8L'
p200
sg81
(lp201
S'0x8eeb8L'
p202
asg6
Nsg83
(lp203
S'0x8eefdL'
p204
aS'0x8ef07L'
p205
asg87
Nsg88
Nsg89
S'220ed6ea731a626c288c3fd5de54353c'
p206
sg91
S'39eeb4ed1c8725ca267efa0825a7de36'
p207
sg93
(lp208
g132
ag139
ag146
ag153
ag160
ag167
ag174
ag181
ag188
asg95
Nsba(ibclass
BBasicBlock
p209
(dp210
g12
Nsg13
(lp211
(ibclass
BInstr
p212
(dp213
g2
Nsg17
S'mov     eax, 0'
p214
sg19
S'b800000000'
p215
sg21
Vmov eax, 0
p216
sg5
L585469L
sg6
Nsg23
S'mov'
p217
sg25
S'0x8eefdL'
p218
sg27
Nsba(ibclass
BInstr
p219
(dp220
g2
Nsg17
S'jmp     loc_8EF88'
p221
sg19
S'e981000000'
p222
sg21
Vjmp 0x86
p223
sg5
L585474L
sg6
Nsg23
S'jmp'
p224
sg25
S'0x8ef02L'
p225
sg27
Nsbasg70
(lp226
S'mov reg, 0'
p227
aS'jmp func'
p228
asg79
Nsg5
S'0x8eefdL'
p229
sg81
(lp230
S'0x8eed8L'
p231
asg6
Nsg83
(lp232
S'0x8ef88L'
p233
asg87
Nsg88
Nsg89
S'8b9a0d40e062be2b9b2d9885108fb196'
p234
sg91
S'b9bc48935b5443504e35a59843f17cfd'
p235
sg93
(lp236
g217
ag224
asg95
Nsba(ibclass
BBasicBlock
p237
(dp238
g12
Nsg13
(lp239
(ibclass
BInstr
p240
(dp241
g2
Nsg17
S'mov     rax, [rbp+ctxt]'
p242
sg19
S'488b45f8'
p243
sg21
Vmov rax, qword ptr [rbp - 8]
p244
sg5
L585479L
sg6
Nsg23
S'mov'
p245
sg25
S'0x8ef07L'
p246
sg27
Nsba(ibclass
BInstr
p247
(dp248
g2
Nsg17
S'mov     eax, [rax+2D0h]'
p249
sg19
S'8b80d0020000'
p250
sg21
Vmov eax, dword ptr [rax + 0x2d0]
p251
sg5
L585483L
sg6
Nsg23
S'mov'
p252
sg25
S'0x8ef0bL'
p253
sg27
Nsba(ibclass
BInstr
p254
(dp255
g2
Nsg17
S'test    eax, eax'
p256
sg19
S'85c0'
p257
sg21
Vtest eax, eax
p258
sg5
L585489L
sg6
Nsg23
S'test'
p259
sg25
S'0x8ef11L'
p260
sg27
Nsba(ibclass
BInstr
p261
(dp262
g2
Nsg17
S'jle     short loc_8EF50'
p263
sg19
S'7e3b'
p264
sg21
Vjle 0x3d
p265
sg5
L585491L
sg6
Nsg23
S'jle'
p266
sg25
S'0x8ef13L'
p267
sg27
Nsbasg70
(lp268
S'mov reg, mem'
p269
aS'mov reg, mem'
p270
aS'test reg, reg'
p271
aS'jle func'
p272
asg79
Nsg5
S'0x8ef07L'
p273
sg81
(lp274
S'0x8eed8L'
p275
asg6
Nsg83
(lp276
S'0x8ef15L'
p277
aS'0x8ef50L'
p278
asg87
Nsg88
Nsg89
S'8235599ec159447fea5ddf38fbf50dac'
p279
sg91
S'68d2be36dda4e1c0dfa9a78a098ff2c0'
p280
sg93
(lp281
g245
ag252
ag259
ag266
asg95
Nsba(ibclass
BBasicBlock
p282
(dp283
g12
Nsg13
(lp284
(ibclass
BInstr
p285
(dp286
g2
Nsg17
S'mov     rax, [rbp+ctxt]'
p287
sg19
S'488b45f8'
p288
sg21
Vmov rax, qword ptr [rbp - 8]
p289
sg5
L585493L
sg6
Nsg23
S'mov'
p290
sg25
S'0x8ef15L'
p291
sg27
Nsba(ibclass
BInstr
p292
(dp293
g2
Nsg17
S'mov     rcx, [rax+2D8h]'
p294
sg19
S'488b88d8020000'
p295
sg21
Vmov rcx, qword ptr [rax + 0x2d8]
p296
sg5
L585497L
sg6
Nsg23
S'mov'
p297
sg25
S'0x8ef19L'
p298
sg27
Nsba(ibclass
BInstr
p299
(dp300
g2
Nsg17
S'mov     rax, [rbp+ctxt]'
p301
sg19
S'488b45f8'
p302
sg21
Vmov rax, qword ptr [rbp - 8]
p303
sg5
L585504L
sg6
Nsg23
S'mov'
p304
sg25
S'0x8ef20L'
p305
sg27
Nsba(ibclass
BInstr
p306
(dp307
g2
Nsg17
S'mov     eax, [rax+2D0h]'
p308
sg19
S'8b80d0020000'
p309
sg21
Vmov eax, dword ptr [rax + 0x2d0]
p310
sg5
L585508L
sg6
Nsg23
S'mov'
p311
sg25
S'0x8ef24L'
p312
sg27
Nsba(ibclass
BInstr
p313
(dp314
g2
Nsg17
S'movsxd  rdx, eax'
p315
sg19
S'4863d0'
p316
sg21
Vmovsxd rdx, eax
p317
sg5
L585514L
sg6
Nsg23
S'movsxd'
p318
sg25
S'0x8ef2aL'
p319
sg27
Nsba(ibclass
BInstr
p320
(dp321
g2
Nsg17
S'mov     rax, rdx'
p322
sg19
S'4889d0'
p323
sg21
Vmov rax, rdx
p324
sg5
L585517L
sg6
Nsg23
S'mov'
p325
sg25
S'0x8ef2dL'
p326
sg27
Nsba(ibclass
BInstr
p327
(dp328
g2
Nsg17
S'shl     rax, 2'
p329
sg19
S'48c1e002'
p330
sg21
Vshl rax, 2
p331
sg5
L585520L
sg6
Nsg23
S'shl'
p332
sg25
S'0x8ef30L'
p333
sg27
Nsba(ibclass
BInstr
p334
(dp335
g2
Nsg17
S'add     rax, rdx'
p336
sg19
S'4801d0'
p337
sg21
Vadd rax, rdx
p338
sg5
L585524L
sg6
Nsg23
S'add'
p339
sg25
S'0x8ef34L'
p340
sg27
Nsba(ibclass
BInstr
p341
(dp342
g2
Nsg17
S'shl     rax, 3'
p343
sg19
S'48c1e003'
p344
sg21
Vshl rax, 3
p345
sg5
L585527L
sg6
Nsg23
S'shl'
p346
sg25
S'0x8ef37L'
p347
sg27
Nsba(ibclass
BInstr
p348
(dp349
g2
Nsg17
S'sub     rax, 28h'
p350
sg19
S'4883e828'
p351
sg21
Vsub rax, 0x28
p352
sg5
L585531L
sg6
Nsg23
S'sub'
p353
sg25
S'0x8ef3bL'
p354
sg27
Nsba(ibclass
BInstr
p355
(dp356
g2
Nsg17
S'lea     rdx, [rcx+rax]'
p357
sg19
S'488d1401'
p358
sg21
Vlea rdx, [rcx + rax]
p359
sg5
L585535L
sg6
Nsg23
S'lea'
p360
sg25
S'0x8ef3fL'
p361
sg27
Nsba(ibclass
BInstr
p362
(dp363
g2
Nsg17
S'mov     rax, [rbp+ctxt]'
p364
sg19
S'488b45f8'
p365
sg21
Vmov rax, qword ptr [rbp - 8]
p366
sg5
L585539L
sg6
Nsg23
S'mov'
p367
sg25
S'0x8ef43L'
p368
sg27
Nsba(ibclass
BInstr
p369
(dp370
g2
Nsg17
S'mov     [rax+2C8h], rdx'
p371
sg19
S'488990c8020000'
p372
sg21
Vmov qword ptr [rax + 0x2c8], rdx
p373
sg5
L585543L
sg6
Nsg23
S'mov'
p374
sg25
S'0x8ef47L'
p375
sg27
Nsba(ibclass
BInstr
p376
(dp377
g2
Nsg17
S'jmp     short loc_8EF5F'
p378
sg19
S'eb0f'
p379
sg21
Vjmp 0x11
p380
sg5
L585550L
sg6
Nsg23
S'jmp'
p381
sg25
S'0x8ef4eL'
p382
sg27
Nsbasg70
(lp383
S'mov reg, mem'
p384
aS'mov reg, mem'
p385
aS'mov reg, mem'
p386
aS'mov reg, mem'
p387
aS'movsxd reg, reg'
p388
aS'mov reg, reg'
p389
aS'shl reg, 2'
p390
aS'add reg, reg'
p391
aS'shl reg, 3'
p392
aS'sub reg, 28h'
p393
aS'lea reg, mem'
p394
aS'mov reg, mem'
p395
aS'mov mem, reg'
p396
aS'jmp func'
p397
asg79
Nsg5
S'0x8ef15L'
p398
sg81
(lp399
S'0x8ef07L'
p400
asg6
Nsg83
(lp401
S'0x8ef5fL'
p402
asg87
Nsg88
Nsg89
S'ba9d43b486547d0f04538caf7402e237'
p403
sg91
S'7ab2ad8ab2235119b04c9c82270ca322'
p404
sg93
(lp405
g290
ag297
ag304
ag311
ag318
ag325
ag332
ag339
ag346
ag353
ag360
ag367
ag374
ag381
asg95
Nsba(ibclass
BBasicBlock
p406
(dp407
g12
Nsg13
(lp408
(ibclass
BInstr
p409
(dp410
g2
Nsg17
S'mov     rax, [rbp+ctxt]'
p411
sg19
S'488b45f8'
p412
sg21
Vmov rax, qword ptr [rbp - 8]
p413
sg5
L585552L
sg6
Nsg23
S'mov'
p414
sg25
S'0x8ef50L'
p415
sg27
Nsba(ibclass
BInstr
p416
(dp417
g2
Nsg17
S'mov     qword ptr [rax+2C8h], 0'
p418
sg19
S'48c780c802000000000000'
p419
sg21
Vmov qword ptr [rax + 0x2c8], 0
p420
sg5
L585556L
sg6
Nsg23
S'mov'
p421
sg25
S'0x8ef54L'
p422
sg27
Nsbasg70
(lp423
S'mov reg, mem'
p424
aS'mov qmem, 0'
p425
asg79
Nsg5
S'0x8ef50L'
p426
sg81
(lp427
S'0x8ef07L'
p428
asg6
Nsg83
(lp429
S'0x8ef5fL'
p430
asg87
Nsg88
Nsg89
S'70939fd8153af5d63d1bcbdb14592b28'
p431
sg91
S'031c1082ea822fc206ac4bd2f9966a15'
p432
sg93
(lp433
g414
ag421
asg95
Nsba(ibclass
BBasicBlock
p434
(dp435
g12
Nsg13
(lp436
(ibclass
BInstr
p437
(dp438
g2
Nsg17
S'mov     rax, [rbp+ctxt]'
p439
sg19
S'488b45f8'
p440
sg21
Vmov rax, qword ptr [rbp - 8]
p441
sg5
L585567L
sg6
Nsg23
S'mov'
p442
sg25
S'0x8ef5fL'
p443
sg27
Nsba(ibclass
BInstr
p444
(dp445
g2
Nsg17
S'mov     rcx, [rax+2D8h]'
p446
sg19
S'488b88d8020000'
p447
sg21
Vmov rcx, qword ptr [rax + 0x2d8]
p448
sg5
L585571L
sg6
Nsg23
S'mov'
p449
sg25
S'0x8ef63L'
p450
sg27
Nsba(ibclass
BInstr
p451
(dp452
g2
Nsg17
S'mov     rax, [rbp+ctxt]'
p453
sg19
S'488b45f8'
p454
sg21
Vmov rax, qword ptr [rbp - 8]
p455
sg5
L585578L
sg6
Nsg23
S'mov'
p456
sg25
S'0x8ef6aL'
p457
sg27
Nsba(ibclass
BInstr
p458
(dp459
g2
Nsg17
S'mov     eax, [rax+2D0h]'
p460
sg19
S'8b80d0020000'
p461
sg21
Vmov eax, dword ptr [rax + 0x2d0]
p462
sg5
L585582L
sg6
Nsg23
S'mov'
p463
sg25
S'0x8ef6eL'
p464
sg27
Nsba(ibclass
BInstr
p465
(dp466
g2
Nsg17
S'movsxd  rdx, eax'
p467
sg19
S'4863d0'
p468
sg21
Vmovsxd rdx, eax
p469
sg5
L585588L
sg6
Nsg23
S'movsxd'
p470
sg25
S'0x8ef74L'
p471
sg27
Nsba(ibclass
BInstr
p472
(dp473
g2
Nsg17
S'mov     rax, rdx'
p474
sg19
S'4889d0'
p475
sg21
Vmov rax, rdx
p476
sg5
L585591L
sg6
Nsg23
S'mov'
p477
sg25
S'0x8ef77L'
p478
sg27
Nsba(ibclass
BInstr
p479
(dp480
g2
Nsg17
S'shl     rax, 2'
p481
sg19
S'48c1e002'
p482
sg21
Vshl rax, 2
p483
sg5
L585594L
sg6
Nsg23
S'shl'
p484
sg25
S'0x8ef7aL'
p485
sg27
Nsba(ibclass
BInstr
p486
(dp487
g2
Nsg17
S'add     rax, rdx'
p488
sg19
S'4801d0'
p489
sg21
Vadd rax, rdx
p490
sg5
L585598L
sg6
Nsg23
S'add'
p491
sg25
S'0x8ef7eL'
p492
sg27
Nsba(ibclass
BInstr
p493
(dp494
g2
Nsg17
S'shl     rax, 3'
p495
sg19
S'48c1e003'
p496
sg21
Vshl rax, 3
p497
sg5
L585601L
sg6
Nsg23
S'shl'
p498
sg25
S'0x8ef81L'
p499
sg27
Nsba(ibclass
BInstr
p500
(dp501
g2
Nsg17
S'add     rax, rcx'
p502
sg19
S'4801c8'
p503
sg21
Vadd rax, rcx
p504
sg5
L585605L
sg6
Nsg23
S'add'
p505
sg25
S'0x8ef85L'
p506
sg27
Nsbasg70
(lp507
S'mov reg, mem'
p508
aS'mov reg, mem'
p509
aS'mov reg, mem'
p510
aS'mov reg, mem'
p511
aS'movsxd reg, reg'
p512
aS'mov reg, reg'
p513
aS'shl reg, 2'
p514
aS'add reg, reg'
p515
aS'shl reg, 3'
p516
aS'add reg, reg'
p517
asg79
Nsg5
S'0x8ef5fL'
p518
sg81
(lp519
S'0x8ef15L'
p520
aS'0x8ef50L'
p521
asg6
Nsg83
(lp522
S'0x8ef88L'
p523
asg87
Nsg88
Nsg89
S'be2868bfa717017f36a60d63753dff1b'
p524
sg91
S'722dcca735e469afb547f56278b13124'
p525
sg93
(lp526
g442
ag449
ag456
ag463
ag470
ag477
ag484
ag491
ag498
ag505
asg95
Nsba(ibclass
BBasicBlock
p527
(dp528
g12
Nsg13
(lp529
(ibclass
BInstr
p530
(dp531
g2
Nsg17
S'pop     rbp'
p532
sg19
S'5d'
p533
sg21
Vpop rbp
p534
sg5
L585608L
sg6
Nsg23
S'pop'
p535
sg25
S'0x8ef88L'
p536
sg27
Nsba(ibclass
BInstr
p537
(dp538
g2
Nsg17
S'retn'
p539
sg19
S'c3'
p540
sg21
Vret 
p541
sg5
L585609L
sg6
Nsg23
S'retn'
p542
sg25
S'0x8ef89L'
p543
sg27
Nsbasg70
(lp544
S'pop reg'
p545
ag539
asg79
Nsg5
S'0x8ef88L'
p546
sg81
(lp547
S'0x8eeceL'
p548
aS'0x8eefdL'
p549
aS'0x8ef5fL'
p550
asg6
Nsg83
(lp551
sg87
Nsg88
Nsg89
S'959e63ef7de005c3fd9b9535d382f6e9'
p552
sg91
S'df18ccc3a463eb745e1dbccf1a3cede3'
p553
sg93
(lp554
g535
ag542
asg95
Nsbasb.