(ibclass
BFunc
p0
(dp1
S'hash'
p2
NsS'name'
p3
S'xmlStrncatNew__internal_alias'
p4
sS'start_address'
p5
L929627L
sS'flag'
p6
NsS'program'
p7
NsS'bbs'
p8
(lp9
(ibclass
BBasicBlock
p10
(dp11
S'function'
p12
NsS'binstrs'
p13
(lp14
(ibclass
BInstr
p15
(dp16
g2
NsS'disasm'
p17
S"push    rbp             ; Alternative name is 'xmlStrncatNew'"
p18
sS'bytes'
p19
S'55'
p20
sS'disasm_striped'
p21
Vpush rbp
p22
sg5
L929627L
sg6
NsS'mnem'
p23
S'push'
p24
sS'address'
p25
S'0xe2f5bL'
p26
sS'basicblock'
p27
Nsba(ibclass
BInstr
p28
(dp29
g2
Nsg17
S'mov     rbp, rsp'
p30
sg19
S'4889e5'
p31
sg21
Vmov rbp, rsp
p32
sg5
L929628L
sg6
Nsg23
S'mov'
p33
sg25
S'0xe2f5cL'
p34
sg27
Nsba(ibclass
BInstr
p35
(dp36
g2
Nsg17
S'sub     rsp, 30h'
p37
sg19
S'4883ec30'
p38
sg21
Vsub rsp, 0x30
p39
sg5
L929631L
sg6
Nsg23
S'sub'
p40
sg25
S'0xe2f5fL'
p41
sg27
Nsba(ibclass
BInstr
p42
(dp43
g2
Nsg17
S'mov     [rbp+str1], rdi'
p44
sg19
S'48897de8'
p45
sg21
Vmov qword ptr [rbp - 0x18], rdi
p46
sg5
L929635L
sg6
Nsg23
S'mov'
p47
sg25
S'0xe2f63L'
p48
sg27
Nsba(ibclass
BInstr
p49
(dp50
g2
Nsg17
S'mov     [rbp+str2], rsi'
p51
sg19
S'488975e0'
p52
sg21
Vmov qword ptr [rbp - 0x20], rsi
p53
sg5
L929639L
sg6
Nsg23
S'mov'
p54
sg25
S'0xe2f67L'
p55
sg27
Nsba(ibclass
BInstr
p56
(dp57
g2
Nsg17
S'mov     [rbp+len], edx'
p58
sg19
S'8955dc'
p59
sg21
Vmov dword ptr [rbp - 0x24], edx
p60
sg5
L929643L
sg6
Nsg23
S'mov'
p61
sg25
S'0xe2f6bL'
p62
sg27
Nsba(ibclass
BInstr
p63
(dp64
g2
Nsg17
S'cmp     [rbp+len], 0'
p65
sg19
S'837ddc00'
p66
sg21
Vcmp dword ptr [rbp - 0x24], 0
p67
sg5
L929646L
sg6
Nsg23
S'cmp'
p68
sg25
S'0xe2f6eL'
p69
sg27
Nsba(ibclass
BInstr
p70
(dp71
g2
Nsg17
S'jns     short loc_E2F83'
p72
sg19
S'790f'
p73
sg21
Vjns 0x11
p74
sg5
L929650L
sg6
Nsg23
S'jns'
p75
sg25
S'0xe2f72L'
p76
sg27
NsbasS'disasm_list'
p77
(lp78
S'push reg'
p79
aS'mov reg, reg'
p80
aS'sub reg, 30h'
p81
aS'mov mem, reg'
p82
aS'mov mem, reg'
p83
aS'mov mem, reg'
p84
aS'cmp mem, 0'
p85
aS'jns func'
p86
asS'end_address'
p87
Nsg5
S'0xe2f5bL'
p88
sS'preds'
p89
(lp90
sg6
NsS'succs'
p91
(lp92
S'0xe2f74L'
p93
aS'0xe2f83L'
p94
asS'hash_v3'
p95
NsS'flag_v2'
p96
NsS'hash_v1'
p97
S'93c1ed62bc896bc3e3e9d7ad579ea76a'
p98
sS'hash_v2'
p99
S'43d0c4a089f48faf2c097be0a0fe3f03'
p100
sS'mnen_list'
p101
(lp102
g24
ag33
ag40
ag47
ag54
ag61
ag68
ag75
asS'neighbour_disasm_list'
p103
Nsba(ibclass
BBasicBlock
p104
(dp105
g12
Nsg13
(lp106
(ibclass
BInstr
p107
(dp108
g2
Nsg17
S'mov     rax, [rbp+str2]'
p109
sg19
S'488b45e0'
p110
sg21
Vmov rax, qword ptr [rbp - 0x20]
p111
sg5
L929652L
sg6
Nsg23
S'mov'
p112
sg25
S'0xe2f74L'
p113
sg27
Nsba(ibclass
BInstr
p114
(dp115
g2
Nsg17
S'mov     rdi, rax        ; str'
p116
sg19
S'4889c7'
p117
sg21
Vmov rdi, rax
p118
sg5
L929656L
sg6
Nsg23
S'mov'
p119
sg25
S'0xe2f78L'
p120
sg27
Nsba(ibclass
BInstr
p121
(dp122
g2
Nsg17
S'call    xmlStrlen__internal_alias'
p123
sg19
S'e8bffeffff'
p124
sg21
Vcall 0xfffffffffffffec4
p125
sg5
L929659L
sg6
Nsg23
S'call'
p126
sg25
S'0xe2f7bL'
p127
sg27
Nsba(ibclass
BInstr
p128
(dp129
g2
Nsg17
S'mov     [rbp+len], eax'
p130
sg19
S'8945dc'
p131
sg21
Vmov dword ptr [rbp - 0x24], eax
p132
sg5
L929664L
sg6
Nsg23
S'mov'
p133
sg25
S'0xe2f80L'
p134
sg27
Nsbasg77
(lp135
S'mov reg, mem'
p136
aS'mov reg, reg'
p137
aS'cregl xmlStrlen__internreg_regias'
p138
aS'mov mem, reg'
p139
asg87
Nsg5
S'0xe2f74L'
p140
sg89
(lp141
S'0xe2f5bL'
p142
asg6
Nsg91
(lp143
S'0xe2f83L'
p144
asg95
Nsg96
Nsg97
S'a6abb5d9994936d83c79ed1f9957ba18'
p145
sg99
S'6a3763c98b46ed762b2c93c5b116d5de'
p146
sg101
(lp147
g112
ag119
ag126
ag133
asg103
Nsba(ibclass
BBasicBlock
p148
(dp149
g12
Nsg13
(lp150
(ibclass
BInstr
p151
(dp152
g2
Nsg17
S'cmp     [rbp+str2], 0'
p153
sg19
S'48837de000'
p154
sg21
Vcmp qword ptr [rbp - 0x20], 0
p155
sg5
L929667L
sg6
Nsg23
S'cmp'
p156
sg25
S'0xe2f83L'
p157
sg27
Nsba(ibclass
BInstr
p158
(dp159
g2
Nsg17
S'jz      short loc_E2F90'
p160
sg19
S'7406'
p161
sg21
Vje 8
p162
sg5
L929672L
sg6
Nsg23
S'jz'
p163
sg25
S'0xe2f88L'
p164
sg27
Nsbasg77
(lp165
S'cmp mem, 0'
p166
aS'jz func'
p167
asg87
Nsg5
S'0xe2f83L'
p168
sg89
(lp169
S'0xe2f5bL'
p170
aS'0xe2f74L'
p171
asg6
Nsg91
(lp172
S'0xe2f8aL'
p173
aS'0xe2f90L'
p174
asg95
Nsg96
Nsg97
S'613dbc2b0cb9d6264d802b24d709daea'
p175
sg99
S'7f4ecf78254be39f53e7a11cedd080e9'
p176
sg101
(lp177
g156
ag163
asg103
Nsba(ibclass
BBasicBlock
p178
(dp179
g12
Nsg13
(lp180
(ibclass
BInstr
p181
(dp182
g2
Nsg17
S'cmp     [rbp+len], 0'
p183
sg19
S'837ddc00'
p184
sg21
Vcmp dword ptr [rbp - 0x24], 0
p185
sg5
L929674L
sg6
Nsg23
S'cmp'
p186
sg25
S'0xe2f8aL'
p187
sg27
Nsba(ibclass
BInstr
p188
(dp189
g2
Nsg17
S'jnz     short loc_E2FA1'
p190
sg19
S'7511'
p191
sg21
Vjne 0x13
p192
sg5
L929678L
sg6
Nsg23
S'jnz'
p193
sg25
S'0xe2f8eL'
p194
sg27
Nsbasg77
(lp195
S'cmp mem, 0'
p196
aS'jnz func'
p197
asg87
Nsg5
S'0xe2f8aL'
p198
sg89
(lp199
S'0xe2f83L'
p200
asg6
Nsg91
(lp201
S'0xe2f90L'
p202
aS'0xe2fa1L'
p203
asg95
Nsg96
Nsg97
S'30cb3d6f6a174adfabcde507f6944a52'
p204
sg99
S'98d72118630a4e08156799652c8790e6'
p205
sg101
(lp206
g186
ag193
asg103
Nsba(ibclass
BBasicBlock
p207
(dp208
g12
Nsg13
(lp209
(ibclass
BInstr
p210
(dp211
g2
Nsg17
S'mov     rax, [rbp+str1]'
p212
sg19
S'488b45e8'
p213
sg21
Vmov rax, qword ptr [rbp - 0x18]
p214
sg5
L929680L
sg6
Nsg23
S'mov'
p215
sg25
S'0xe2f90L'
p216
sg27
Nsba(ibclass
BInstr
p217
(dp218
g2
Nsg17
S'mov     rdi, rax        ; cur'
p219
sg19
S'4889c7'
p220
sg21
Vmov rdi, rax
p221
sg5
L929684L
sg6
Nsg23
S'mov'
p222
sg25
S'0xe2f94L'
p223
sg27
Nsba(ibclass
BInstr
p224
(dp225
g2
Nsg17
S'call    xmlStrdup__internal_alias'
p226
sg19
S'e87bf7ffff'
p227
sg21
Vcall 0xfffffffffffff780
p228
sg5
L929687L
sg6
Nsg23
S'call'
p229
sg25
S'0xe2f97L'
p230
sg27
Nsba(ibclass
BInstr
p231
(dp232
g2
Nsg17
S'jmp     locret_E306B'
p233
sg19
S'e9ca000000'
p234
sg21
Vjmp 0xcf
p235
sg5
L929692L
sg6
Nsg23
S'jmp'
p236
sg25
S'0xe2f9cL'
p237
sg27
Nsbasg77
(lp238
S'mov reg, mem'
p239
aS'mov reg, reg'
p240
aS'cregl xmlStrdup__internreg_regias'
p241
aS'jmp func'
p242
asg87
Nsg5
S'0xe2f90L'
p243
sg89
(lp244
S'0xe2f83L'
p245
aS'0xe2f8aL'
p246
asg6
Nsg91
(lp247
S'0xe306bL'
p248
asg95
Nsg96
Nsg97
S'21359965f3b3ac9d057fd4a2b03f927b'
p249
sg99
S'29fa158330be9b082c7c00ec9bc96518'
p250
sg101
(lp251
g215
ag222
ag229
ag236
asg103
Nsba(ibclass
BBasicBlock
p252
(dp253
g12
Nsg13
(lp254
(ibclass
BInstr
p255
(dp256
g2
Nsg17
S'cmp     [rbp+str1], 0'
p257
sg19
S'48837de800'
p258
sg21
Vcmp qword ptr [rbp - 0x18], 0
p259
sg5
L929697L
sg6
Nsg23
S'cmp'
p260
sg25
S'0xe2fa1L'
p261
sg27
Nsba(ibclass
BInstr
p262
(dp263
g2
Nsg17
S'jnz     short loc_E2FBE'
p264
sg19
S'7516'
p265
sg21
Vjne 0x18
p266
sg5
L929702L
sg6
Nsg23
S'jnz'
p267
sg25
S'0xe2fa6L'
p268
sg27
Nsbasg77
(lp269
S'cmp mem, 0'
p270
aS'jnz func'
p271
asg87
Nsg5
S'0xe2fa1L'
p272
sg89
(lp273
S'0xe2f8aL'
p274
asg6
Nsg91
(lp275
S'0xe2fa8L'
p276
aS'0xe2fbeL'
p277
asg95
Nsg96
Nsg97
S'30cb3d6f6a174adfabcde507f6944a52'
p278
sg99
S'98d72118630a4e08156799652c8790e6'
p279
sg101
(lp280
g260
ag267
asg103
Nsba(ibclass
BBasicBlock
p281
(dp282
g12
Nsg13
(lp283
(ibclass
BInstr
p284
(dp285
g2
Nsg17
S'mov     edx, [rbp+len]'
p286
sg19
S'8b55dc'
p287
sg21
Vmov edx, dword ptr [rbp - 0x24]
p288
sg5
L929704L
sg6
Nsg23
S'mov'
p289
sg25
S'0xe2fa8L'
p290
sg27
Nsba(ibclass
BInstr
p291
(dp292
g2
Nsg17
S'mov     rax, [rbp+str2]'
p293
sg19
S'488b45e0'
p294
sg21
Vmov rax, qword ptr [rbp - 0x20]
p295
sg5
L929707L
sg6
Nsg23
S'mov'
p296
sg25
S'0xe2fabL'
p297
sg27
Nsba(ibclass
BInstr
p298
(dp299
g2
Nsg17
S'mov     esi, edx        ; len'
p300
sg19
S'89d6'
p301
sg21
Vmov esi, edx
p302
sg5
L929711L
sg6
Nsg23
S'mov'
p303
sg25
S'0xe2fafL'
p304
sg27
Nsba(ibclass
BInstr
p305
(dp306
g2
Nsg17
S'mov     rdi, rax        ; cur'
p307
sg19
S'4889c7'
p308
sg21
Vmov rdi, rax
p309
sg5
L929713L
sg6
Nsg23
S'mov'
p310
sg25
S'0xe2fb1L'
p311
sg27
Nsba(ibclass
BInstr
p312
(dp313
g2
Nsg17
S'call    xmlStrndup__internal_alias'
p314
sg19
S'e8d3f6ffff'
p315
sg21
Vcall 0xfffffffffffff6d8
p316
sg5
L929716L
sg6
Nsg23
S'call'
p317
sg25
S'0xe2fb4L'
p318
sg27
Nsba(ibclass
BInstr
p319
(dp320
g2
Nsg17
S'jmp     locret_E306B'
p321
sg19
S'e9ad000000'
p322
sg21
Vjmp 0xb2
p323
sg5
L929721L
sg6
Nsg23
S'jmp'
p324
sg25
S'0xe2fb9L'
p325
sg27
Nsbasg77
(lp326
S'mov reg, mem'
p327
aS'mov reg, mem'
p328
aS'mov reg, reg'
p329
aS'mov reg, reg'
p330
aS'cregl xmlStrndup__internreg_regias'
p331
aS'jmp func'
p332
asg87
Nsg5
S'0xe2fa8L'
p333
sg89
(lp334
S'0xe2fa1L'
p335
asg6
Nsg91
(lp336
S'0xe306bL'
p337
asg95
Nsg96
Nsg97
S'ed0c14dac95c7bafb483aad1c36140be'
p338
sg99
S'0e1f46d4b3af9897b099d481fb7ef5ee'
p339
sg101
(lp340
g289
ag296
ag303
ag310
ag317
ag324
asg103
Nsba(ibclass
BBasicBlock
p341
(dp342
g12
Nsg13
(lp343
(ibclass
BInstr
p344
(dp345
g2
Nsg17
S'mov     rax, [rbp+str1]'
p346
sg19
S'488b45e8'
p347
sg21
Vmov rax, qword ptr [rbp - 0x18]
p348
sg5
L929726L
sg6
Nsg23
S'mov'
p349
sg25
S'0xe2fbeL'
p350
sg27
Nsba(ibclass
BInstr
p351
(dp352
g2
Nsg17
S'mov     rdi, rax        ; str'
p353
sg19
S'4889c7'
p354
sg21
Vmov rdi, rax
p355
sg5
L929730L
sg6
Nsg23
S'mov'
p356
sg25
S'0xe2fc2L'
p357
sg27
Nsba(ibclass
BInstr
p358
(dp359
g2
Nsg17
S'call    xmlStrlen__internal_alias'
p360
sg19
S'e875feffff'
p361
sg21
Vcall 0xfffffffffffffe7a
p362
sg5
L929733L
sg6
Nsg23
S'call'
p363
sg25
S'0xe2fc5L'
p364
sg27
Nsba(ibclass
BInstr
p365
(dp366
g2
Nsg17
S'mov     [rbp+size], eax'
p367
sg19
S'8945f4'
p368
sg21
Vmov dword ptr [rbp - 0xc], eax
p369
sg5
L929738L
sg6
Nsg23
S'mov'
p370
sg25
S'0xe2fcaL'
p371
sg27
Nsba(ibclass
BInstr
p372
(dp373
g2
Nsg17
S'mov     rax, cs:xmlMalloc_ptr'
p374
sg19
S'488b051cbe2d00'
p375
sg21
Vmov rax, qword ptr [rip + 0x2dbe1c]
p376
sg5
L929741L
sg6
Nsg23
S'mov'
p377
sg25
S'0xe2fcdL'
p378
sg27
Nsba(ibclass
BInstr
p379
(dp380
g2
Nsg17
S'mov     rax, [rax]'
p381
sg19
S'488b00'
p382
sg21
Vmov rax, qword ptr [rax]
p383
sg5
L929748L
sg6
Nsg23
S'mov'
p384
sg25
S'0xe2fd4L'
p385
sg27
Nsba(ibclass
BInstr
p386
(dp387
g2
Nsg17
S'mov     ecx, [rbp+size]'
p388
sg19
S'8b4df4'
p389
sg21
Vmov ecx, dword ptr [rbp - 0xc]
p390
sg5
L929751L
sg6
Nsg23
S'mov'
p391
sg25
S'0xe2fd7L'
p392
sg27
Nsba(ibclass
BInstr
p393
(dp394
g2
Nsg17
S'mov     edx, [rbp+len]'
p395
sg19
S'8b55dc'
p396
sg21
Vmov edx, dword ptr [rbp - 0x24]
p397
sg5
L929754L
sg6
Nsg23
S'mov'
p398
sg25
S'0xe2fdaL'
p399
sg27
Nsba(ibclass
BInstr
p400
(dp401
g2
Nsg17
S'add     edx, ecx'
p402
sg19
S'01ca'
p403
sg21
Vadd edx, ecx
p404
sg5
L929757L
sg6
Nsg23
S'add'
p405
sg25
S'0xe2fddL'
p406
sg27
Nsba(ibclass
BInstr
p407
(dp408
g2
Nsg17
S'add     edx, 1'
p409
sg19
S'83c201'
p410
sg21
Vadd edx, 1
p411
sg5
L929759L
sg6
Nsg23
S'add'
p412
sg25
S'0xe2fdfL'
p413
sg27
Nsba(ibclass
BInstr
p414
(dp415
g2
Nsg17
S'movsxd  rdx, edx'
p416
sg19
S'4863d2'
p417
sg21
Vmovsxd rdx, edx
p418
sg5
L929762L
sg6
Nsg23
S'movsxd'
p419
sg25
S'0xe2fe2L'
p420
sg27
Nsba(ibclass
BInstr
p421
(dp422
g2
Nsg17
S'mov     rdi, rdx'
p423
sg19
S'4889d7'
p424
sg21
Vmov rdi, rdx
p425
sg5
L929765L
sg6
Nsg23
S'mov'
p426
sg25
S'0xe2fe5L'
p427
sg27
Nsba(ibclass
BInstr
p428
(dp429
g2
Nsg17
S'call    rax'
p430
sg19
S'ffd0'
p431
sg21
Vcall rax
p432
sg5
L929768L
sg6
Nsg23
S'call'
p433
sg25
S'0xe2fe8L'
p434
sg27
Nsba(ibclass
BInstr
p435
(dp436
g2
Nsg17
S'mov     [rbp+ret], rax'
p437
sg19
S'488945f8'
p438
sg21
Vmov qword ptr [rbp - 8], rax
p439
sg5
L929770L
sg6
Nsg23
S'mov'
p440
sg25
S'0xe2feaL'
p441
sg27
Nsba(ibclass
BInstr
p442
(dp443
g2
Nsg17
S'cmp     [rbp+ret], 0'
p444
sg19
S'48837df800'
p445
sg21
Vcmp qword ptr [rbp - 8], 0
p446
sg5
L929774L
sg6
Nsg23
S'cmp'
p447
sg25
S'0xe2feeL'
p448
sg27
Nsba(ibclass
BInstr
p449
(dp450
g2
Nsg17
S'jnz     short loc_E3017'
p451
sg19
S'7522'
p452
sg21
Vjne 0x24
p453
sg5
L929779L
sg6
Nsg23
S'jnz'
p454
sg25
S'0xe2ff3L'
p455
sg27
Nsbasg77
(lp456
S'mov reg, mem'
p457
aS'mov reg, reg'
p458
aS'cregl xmlStrlen__internreg_regias'
p459
aS'mov mem, reg'
p460
aS'mov reg, cs:xmlMregloc_ptr'
p461
aS'mov reg, mem'
p462
aS'mov reg, mem'
p463
aS'mov reg, mem'
p464
aS'add reg, reg'
p465
aS'add reg, 1'
p466
aS'movsxd reg, reg'
p467
aS'mov reg, reg'
p468
aS'cregl reg'
p469
aS'mov mem, reg'
p470
aS'cmp mem, 0'
p471
aS'jnz func'
p472
asg87
Nsg5
S'0xe2fbeL'
p473
sg89
(lp474
S'0xe2fa1L'
p475
asg6
Nsg91
(lp476
S'0xe2ff5L'
p477
aS'0xe3017L'
p478
asg95
Nsg96
Nsg97
S'4f48ad18374531d94db8383566539304'
p479
sg99
S'ce39ee4e3d3e1ce2fd7b5924f6e9a2ac'
p480
sg101
(lp481
g349
ag356
ag363
ag370
ag377
ag384
ag391
ag398
ag405
ag412
ag419
ag426
ag433
ag440
ag447
ag454
asg103
Nsba(ibclass
BBasicBlock
p482
(dp483
g12
Nsg13
(lp484
(ibclass
BInstr
p485
(dp486
g2
Nsg17
S'mov     esi, 0          ; extra'
p487
sg19
S'be00000000'
p488
sg21
Vmov esi, 0
p489
sg5
L929781L
sg6
Nsg23
S'mov'
p490
sg25
S'0xe2ff5L'
p491
sg27
Nsba(ibclass
BInstr
p492
(dp493
g2
Nsg17
S'mov     edi, 0          ; ctxt'
p494
sg19
S'bf00000000'
p495
sg21
Vmov edi, 0
p496
sg5
L929786L
sg6
Nsg23
S'mov'
p497
sg25
S'0xe2ffaL'
p498
sg27
Nsba(ibclass
BInstr
p499
(dp500
g2
Nsg17
S'call    xmlErrMemory__internal_alias'
p501
sg19
S'e87427f5ff'
p502
sg21
Vcall 0xfffffffffff52779
p503
sg5
L929791L
sg6
Nsg23
S'call'
p504
sg25
S'0xe2fffL'
p505
sg27
Nsba(ibclass
BInstr
p506
(dp507
g2
Nsg17
S'mov     edx, [rbp+size]'
p508
sg19
S'8b55f4'
p509
sg21
Vmov edx, dword ptr [rbp - 0xc]
p510
sg5
L929796L
sg6
Nsg23
S'mov'
p511
sg25
S'0xe3004L'
p512
sg27
Nsba(ibclass
BInstr
p513
(dp514
g2
Nsg17
S'mov     rax, [rbp+str1]'
p515
sg19
S'488b45e8'
p516
sg21
Vmov rax, qword ptr [rbp - 0x18]
p517
sg5
L929799L
sg6
Nsg23
S'mov'
p518
sg25
S'0xe3007L'
p519
sg27
Nsba(ibclass
BInstr
p520
(dp521
g2
Nsg17
S'mov     esi, edx        ; len'
p522
sg19
S'89d6'
p523
sg21
Vmov esi, edx
p524
sg5
L929803L
sg6
Nsg23
S'mov'
p525
sg25
S'0xe300bL'
p526
sg27
Nsba(ibclass
BInstr
p527
(dp528
g2
Nsg17
S'mov     rdi, rax        ; cur'
p529
sg19
S'4889c7'
p530
sg21
Vmov rdi, rax
p531
sg5
L929805L
sg6
Nsg23
S'mov'
p532
sg25
S'0xe300dL'
p533
sg27
Nsba(ibclass
BInstr
p534
(dp535
g2
Nsg17
S'call    xmlStrndup__internal_alias'
p536
sg19
S'e877f6ffff'
p537
sg21
Vcall 0xfffffffffffff67c
p538
sg5
L929808L
sg6
Nsg23
S'call'
p539
sg25
S'0xe3010L'
p540
sg27
Nsba(ibclass
BInstr
p541
(dp542
g2
Nsg17
S'jmp     short locret_E306B'
p543
sg19
S'eb54'
p544
sg21
Vjmp 0x56
p545
sg5
L929813L
sg6
Nsg23
S'jmp'
p546
sg25
S'0xe3015L'
p547
sg27
Nsbasg77
(lp548
S'mov reg, 0'
p549
aS'mov reg, 0'
p550
aS'cregl xmlErrMemory__internreg_regias'
p551
aS'mov reg, mem'
p552
aS'mov reg, mem'
p553
aS'mov reg, reg'
p554
aS'mov reg, reg'
p555
aS'cregl xmlStrndup__internreg_regias'
p556
aS'jmp short func'
p557
asg87
Nsg5
S'0xe2ff5L'
p558
sg89
(lp559
S'0xe2fbeL'
p560
asg6
Nsg91
(lp561
S'0xe306bL'
p562
asg95
Nsg96
Nsg97
S'c186dac9784b1a91b77470a8e4bd597e'
p563
sg99
S'889a80917545af49e0b95b63cbeb0299'
p564
sg101
(lp565
g490
ag497
ag504
ag511
ag518
ag525
ag532
ag539
ag546
asg103
Nsba(ibclass
BBasicBlock
p566
(dp567
g12
Nsg13
(lp568
(ibclass
BInstr
p569
(dp570
g2
Nsg17
S'mov     eax, [rbp+size]'
p571
sg19
S'8b45f4'
p572
sg21
Vmov eax, dword ptr [rbp - 0xc]
p573
sg5
L929815L
sg6
Nsg23
S'mov'
p574
sg25
S'0xe3017L'
p575
sg27
Nsba(ibclass
BInstr
p576
(dp577
g2
Nsg17
S'movsxd  rdx, eax        ; n'
p578
sg19
S'4863d0'
p579
sg21
Vmovsxd rdx, eax
p580
sg5
L929818L
sg6
Nsg23
S'movsxd'
p581
sg25
S'0xe301aL'
p582
sg27
Nsba(ibclass
BInstr
p583
(dp584
g2
Nsg17
S'mov     rcx, [rbp+str1]'
p585
sg19
S'488b4de8'
p586
sg21
Vmov rcx, qword ptr [rbp - 0x18]
p587
sg5
L929821L
sg6
Nsg23
S'mov'
p588
sg25
S'0xe301dL'
p589
sg27
Nsba(ibclass
BInstr
p590
(dp591
g2
Nsg17
S'mov     rax, [rbp+ret]'
p592
sg19
S'488b45f8'
p593
sg21
Vmov rax, qword ptr [rbp - 8]
p594
sg5
L929825L
sg6
Nsg23
S'mov'
p595
sg25
S'0xe3021L'
p596
sg27
Nsba(ibclass
BInstr
p597
(dp598
g2
Nsg17
S'mov     rsi, rcx        ; src'
p599
sg19
S'4889ce'
p600
sg21
Vmov rsi, rcx
p601
sg5
L929829L
sg6
Nsg23
S'mov'
p602
sg25
S'0xe3025L'
p603
sg27
Nsba(ibclass
BInstr
p604
(dp605
g2
Nsg17
S'mov     rdi, rax        ; dest'
p606
sg19
S'4889c7'
p607
sg21
Vmov rdi, rax
p608
sg5
L929832L
sg6
Nsg23
S'mov'
p609
sg25
S'0xe3028L'
p610
sg27
Nsba(ibclass
BInstr
p611
(dp612
g2
Nsg17
S'call    memcpy'
p613
sg19
S'e8f890f4ff'
p614
sg21
Vcall 0xfffffffffff490fd
p615
sg5
L929835L
sg6
Nsg23
S'call'
p616
sg25
S'0xe302bL'
p617
sg27
Nsba(ibclass
BInstr
p618
(dp619
g2
Nsg17
S'mov     eax, [rbp+len]'
p620
sg19
S'8b45dc'
p621
sg21
Vmov eax, dword ptr [rbp - 0x24]
p622
sg5
L929840L
sg6
Nsg23
S'mov'
p623
sg25
S'0xe3030L'
p624
sg27
Nsba(ibclass
BInstr
p625
(dp626
g2
Nsg17
S'movsxd  rdx, eax        ; n'
p627
sg19
S'4863d0'
p628
sg21
Vmovsxd rdx, eax
p629
sg5
L929843L
sg6
Nsg23
S'movsxd'
p630
sg25
S'0xe3033L'
p631
sg27
Nsba(ibclass
BInstr
p632
(dp633
g2
Nsg17
S'mov     eax, [rbp+size]'
p634
sg19
S'8b45f4'
p635
sg21
Vmov eax, dword ptr [rbp - 0xc]
p636
sg5
L929846L
sg6
Nsg23
S'mov'
p637
sg25
S'0xe3036L'
p638
sg27
Nsba(ibclass
BInstr
p639
(dp640
g2
Nsg17
S'movsxd  rcx, eax'
p641
sg19
S'4863c8'
p642
sg21
Vmovsxd rcx, eax
p643
sg5
L929849L
sg6
Nsg23
S'movsxd'
p644
sg25
S'0xe3039L'
p645
sg27
Nsba(ibclass
BInstr
p646
(dp647
g2
Nsg17
S'mov     rax, [rbp+ret]'
p648
sg19
S'488b45f8'
p649
sg21
Vmov rax, qword ptr [rbp - 8]
p650
sg5
L929852L
sg6
Nsg23
S'mov'
p651
sg25
S'0xe303cL'
p652
sg27
Nsba(ibclass
BInstr
p653
(dp654
g2
Nsg17
S'add     rcx, rax'
p655
sg19
S'4801c1'
p656
sg21
Vadd rcx, rax
p657
sg5
L929856L
sg6
Nsg23
S'add'
p658
sg25
S'0xe3040L'
p659
sg27
Nsba(ibclass
BInstr
p660
(dp661
g2
Nsg17
S'mov     rax, [rbp+str2]'
p662
sg19
S'488b45e0'
p663
sg21
Vmov rax, qword ptr [rbp - 0x20]
p664
sg5
L929859L
sg6
Nsg23
S'mov'
p665
sg25
S'0xe3043L'
p666
sg27
Nsba(ibclass
BInstr
p667
(dp668
g2
Nsg17
S'mov     rsi, rax        ; src'
p669
sg19
S'4889c6'
p670
sg21
Vmov rsi, rax
p671
sg5
L929863L
sg6
Nsg23
S'mov'
p672
sg25
S'0xe3047L'
p673
sg27
Nsba(ibclass
BInstr
p674
(dp675
g2
Nsg17
S'mov     rdi, rcx        ; dest'
p676
sg19
S'4889cf'
p677
sg21
Vmov rdi, rcx
p678
sg5
L929866L
sg6
Nsg23
S'mov'
p679
sg25
S'0xe304aL'
p680
sg27
Nsba(ibclass
BInstr
p681
(dp682
g2
Nsg17
S'call    memcpy'
p683
sg19
S'e8d690f4ff'
p684
sg21
Vcall 0xfffffffffff490db
p685
sg5
L929869L
sg6
Nsg23
S'call'
p686
sg25
S'0xe304dL'
p687
sg27
Nsba(ibclass
BInstr
p688
(dp689
g2
Nsg17
S'mov     edx, [rbp+size]'
p690
sg19
S'8b55f4'
p691
sg21
Vmov edx, dword ptr [rbp - 0xc]
p692
sg5
L929874L
sg6
Nsg23
S'mov'
p693
sg25
S'0xe3052L'
p694
sg27
Nsba(ibclass
BInstr
p695
(dp696
g2
Nsg17
S'mov     eax, [rbp+len]'
p697
sg19
S'8b45dc'
p698
sg21
Vmov eax, dword ptr [rbp - 0x24]
p699
sg5
L929877L
sg6
Nsg23
S'mov'
p700
sg25
S'0xe3055L'
p701
sg27
Nsba(ibclass
BInstr
p702
(dp703
g2
Nsg17
S'add     eax, edx'
p704
sg19
S'01d0'
p705
sg21
Vadd eax, edx
p706
sg5
L929880L
sg6
Nsg23
S'add'
p707
sg25
S'0xe3058L'
p708
sg27
Nsba(ibclass
BInstr
p709
(dp710
g2
Nsg17
S'movsxd  rdx, eax'
p711
sg19
S'4863d0'
p712
sg21
Vmovsxd rdx, eax
p713
sg5
L929882L
sg6
Nsg23
S'movsxd'
p714
sg25
S'0xe305aL'
p715
sg27
Nsba(ibclass
BInstr
p716
(dp717
g2
Nsg17
S'mov     rax, [rbp+ret]'
p718
sg19
S'488b45f8'
p719
sg21
Vmov rax, qword ptr [rbp - 8]
p720
sg5
L929885L
sg6
Nsg23
S'mov'
p721
sg25
S'0xe305dL'
p722
sg27
Nsba(ibclass
BInstr
p723
(dp724
g2
Nsg17
S'add     rax, rdx'
p725
sg19
S'4801d0'
p726
sg21
Vadd rax, rdx
p727
sg5
L929889L
sg6
Nsg23
S'add'
p728
sg25
S'0xe3061L'
p729
sg27
Nsba(ibclass
BInstr
p730
(dp731
g2
Nsg17
S'mov     byte ptr [rax], 0'
p732
sg19
S'c60000'
p733
sg21
Vmov byte ptr [rax], 0
p734
sg5
L929892L
sg6
Nsg23
S'mov'
p735
sg25
S'0xe3064L'
p736
sg27
Nsba(ibclass
BInstr
p737
(dp738
g2
Nsg17
S'mov     rax, [rbp+ret]'
p739
sg19
S'488b45f8'
p740
sg21
Vmov rax, qword ptr [rbp - 8]
p741
sg5
L929895L
sg6
Nsg23
S'mov'
p742
sg25
S'0xe3067L'
p743
sg27
Nsbasg77
(lp744
S'mov reg, mem'
p745
aS'movsxd reg, reg'
p746
aS'mov reg, mem'
p747
aS'mov reg, mem'
p748
aS'mov reg, reg'
p749
aS'mov reg, reg'
p750
aS'cregl memcpy'
p751
aS'mov reg, mem'
p752
aS'movsxd reg, reg'
p753
aS'mov reg, mem'
p754
aS'movsxd reg, reg'
p755
aS'mov reg, mem'
p756
aS'add reg, reg'
p757
aS'mov reg, mem'
p758
aS'mov reg, reg'
p759
aS'mov reg, reg'
p760
aS'cregl memcpy'
p761
aS'mov reg, mem'
p762
aS'mov reg, mem'
p763
aS'add reg, reg'
p764
aS'movsxd reg, reg'
p765
aS'mov reg, mem'
p766
aS'add reg, reg'
p767
aS'mov mem, 0'
p768
aS'mov reg, mem'
p769
asg87
Nsg5
S'0xe3017L'
p770
sg89
(lp771
S'0xe2fbeL'
p772
asg6
Nsg91
(lp773
S'0xe306bL'
p774
asg95
Nsg96
Nsg97
S'0b08d19a88949deccc54a7679da0d675'
p775
sg99
S'de990e40eaec0f05a46c633ba48661a1'
p776
sg101
(lp777
g574
ag581
ag588
ag595
ag602
ag609
ag616
ag623
ag630
ag637
ag644
ag651
ag658
ag665
ag672
ag679
ag686
ag693
ag700
ag707
ag714
ag721
ag728
ag735
ag742
asg103
Nsba(ibclass
BBasicBlock
p778
(dp779
g12
Nsg13
(lp780
(ibclass
BInstr
p781
(dp782
g2
Nsg17
S'leave'
p783
sg19
S'c9'
p784
sg21
Vleave 
p785
sg5
L929899L
sg6
Nsg23
S'leave'
p786
sg25
S'0xe306bL'
p787
sg27
Nsba(ibclass
BInstr
p788
(dp789
g2
Nsg17
S'retn'
p790
sg19
S'c3'
p791
sg21
Vret 
p792
sg5
L929900L
sg6
Nsg23
S'retn'
p793
sg25
S'0xe306cL'
p794
sg27
Nsbasg77
(lp795
g783
ag790
asg87
Nsg5
S'0xe306bL'
p796
sg89
(lp797
S'0xe2f90L'
p798
aS'0xe2fa8L'
p799
aS'0xe2ff5L'
p800
aS'0xe3017L'
p801
asg6
Nsg91
(lp802
sg95
Nsg96
Nsg97
S'08c78f73a6f87c85da88b2982f54ce2a'
p803
sg99
S'08c78f73a6f87c85da88b2982f54ce2a'
p804
sg101
(lp805
g786
ag793
asg103
Nsbasb.