(ibclass
BFunc
p0
(dp1
S'hash'
p2
NsS'name'
p3
S'xmlXPtrNewRangePoints__internal_alias'
p4
sS'start_address'
p5
L811412L
sS'flag'
p6
NsS'program'
p7
NsS'bbs'
p8
(lp9
(ibclass
BBasicBlock
p10
(dp11
S'function'
p12
NsS'binstrs'
p13
(lp14
(ibclass
BInstr
p15
(dp16
g2
NsS'disasm'
p17
S"push    rbp             ; Alternative name is 'xmlXPtrNewRangePoints'"
p18
sS'bytes'
p19
S'55'
p20
sS'disasm_striped'
p21
Vpush rbp
p22
sg5
L811412L
sg6
NsS'mnem'
p23
S'push'
p24
sS'address'
p25
S'0xc6194L'
p26
sS'basicblock'
p27
Nsba(ibclass
BInstr
p28
(dp29
g2
Nsg17
S'mov     rbp, rsp'
p30
sg19
S'4889e5'
p31
sg21
Vmov rbp, rsp
p32
sg5
L811413L
sg6
Nsg23
S'mov'
p33
sg25
S'0xc6195L'
p34
sg27
Nsba(ibclass
BInstr
p35
(dp36
g2
Nsg17
S'sub     rsp, 20h'
p37
sg19
S'4883ec20'
p38
sg21
Vsub rsp, 0x20
p39
sg5
L811416L
sg6
Nsg23
S'sub'
p40
sg25
S'0xc6198L'
p41
sg27
Nsba(ibclass
BInstr
p42
(dp43
g2
Nsg17
S'mov     [rbp+start], rdi'
p44
sg19
S'48897de8'
p45
sg21
Vmov qword ptr [rbp - 0x18], rdi
p46
sg5
L811420L
sg6
Nsg23
S'mov'
p47
sg25
S'0xc619cL'
p48
sg27
Nsba(ibclass
BInstr
p49
(dp50
g2
Nsg17
S'mov     [rbp+end], rsi'
p51
sg19
S'488975e0'
p52
sg21
Vmov qword ptr [rbp - 0x20], rsi
p53
sg5
L811424L
sg6
Nsg23
S'mov'
p54
sg25
S'0xc61a0L'
p55
sg27
Nsba(ibclass
BInstr
p56
(dp57
g2
Nsg17
S'cmp     [rbp+start], 0'
p58
sg19
S'48837de800'
p59
sg21
Vcmp qword ptr [rbp - 0x18], 0
p60
sg5
L811428L
sg6
Nsg23
S'cmp'
p61
sg25
S'0xc61a4L'
p62
sg27
Nsba(ibclass
BInstr
p63
(dp64
g2
Nsg17
S'jnz     short loc_C61B5'
p65
sg19
S'750a'
p66
sg21
Vjne 0xc
p67
sg5
L811433L
sg6
Nsg23
S'jnz'
p68
sg25
S'0xc61a9L'
p69
sg27
NsbasS'disasm_list'
p70
(lp71
S'push reg'
p72
aS'mov reg, reg'
p73
aS'sub reg, 20h'
p74
aS'mov mem, reg'
p75
aS'mov mem, reg'
p76
aS'cmp mem, 0'
p77
aS'jnz func'
p78
asS'end_address'
p79
Nsg5
S'0xc6194L'
p80
sS'preds'
p81
(lp82
sg6
NsS'succs'
p83
(lp84
S'0xc61abL'
p85
aS'0xc61b5L'
p86
asS'hash_v3'
p87
NsS'flag_v2'
p88
NsS'hash_v1'
p89
S'190746cc36f798dfde6210eda659205d'
p90
sS'hash_v2'
p91
S'2e7f596d4a0758263f9e8a8af8cfb558'
p92
sS'mnen_list'
p93
(lp94
g24
ag33
ag40
ag47
ag54
ag61
ag68
asS'neighbour_disasm_list'
p95
Nsba(ibclass
BBasicBlock
p96
(dp97
g12
Nsg13
(lp98
(ibclass
BInstr
p99
(dp100
g2
Nsg17
S'mov     eax, 0'
p101
sg19
S'b800000000'
p102
sg21
Vmov eax, 0
p103
sg5
L811435L
sg6
Nsg23
S'mov'
p104
sg25
S'0xc61abL'
p105
sg27
Nsba(ibclass
BInstr
p106
(dp107
g2
Nsg17
S'jmp     locret_C628B'
p108
sg19
S'e9d6000000'
p109
sg21
Vjmp 0xdb
p110
sg5
L811440L
sg6
Nsg23
S'jmp'
p111
sg25
S'0xc61b0L'
p112
sg27
Nsbasg70
(lp113
S'mov reg, 0'
p114
aS'jmp func'
p115
asg79
Nsg5
S'0xc61abL'
p116
sg81
(lp117
S'0xc6194L'
p118
asg6
Nsg83
(lp119
S'0xc628bL'
p120
asg87
Nsg88
Nsg89
S'8b9a0d40e062be2b9b2d9885108fb196'
p121
sg91
S'b9bc48935b5443504e35a59843f17cfd'
p122
sg93
(lp123
g104
ag111
asg95
Nsba(ibclass
BBasicBlock
p124
(dp125
g12
Nsg13
(lp126
(ibclass
BInstr
p127
(dp128
g2
Nsg17
S'cmp     [rbp+end], 0'
p129
sg19
S'48837de000'
p130
sg21
Vcmp qword ptr [rbp - 0x20], 0
p131
sg5
L811445L
sg6
Nsg23
S'cmp'
p132
sg25
S'0xc61b5L'
p133
sg27
Nsba(ibclass
BInstr
p134
(dp135
g2
Nsg17
S'jnz     short loc_C61C6'
p136
sg19
S'750a'
p137
sg21
Vjne 0xc
p138
sg5
L811450L
sg6
Nsg23
S'jnz'
p139
sg25
S'0xc61baL'
p140
sg27
Nsbasg70
(lp141
S'cmp mem, 0'
p142
aS'jnz func'
p143
asg79
Nsg5
S'0xc61b5L'
p144
sg81
(lp145
S'0xc6194L'
p146
asg6
Nsg83
(lp147
S'0xc61bcL'
p148
aS'0xc61c6L'
p149
asg87
Nsg88
Nsg89
S'30cb3d6f6a174adfabcde507f6944a52'
p150
sg91
S'98d72118630a4e08156799652c8790e6'
p151
sg93
(lp152
g132
ag139
asg95
Nsba(ibclass
BBasicBlock
p153
(dp154
g12
Nsg13
(lp155
(ibclass
BInstr
p156
(dp157
g2
Nsg17
S'mov     eax, 0'
p158
sg19
S'b800000000'
p159
sg21
Vmov eax, 0
p160
sg5
L811452L
sg6
Nsg23
S'mov'
p161
sg25
S'0xc61bcL'
p162
sg27
Nsba(ibclass
BInstr
p163
(dp164
g2
Nsg17
S'jmp     locret_C628B'
p165
sg19
S'e9c5000000'
p166
sg21
Vjmp 0xca
p167
sg5
L811457L
sg6
Nsg23
S'jmp'
p168
sg25
S'0xc61c1L'
p169
sg27
Nsbasg70
(lp170
S'mov reg, 0'
p171
aS'jmp func'
p172
asg79
Nsg5
S'0xc61bcL'
p173
sg81
(lp174
S'0xc61b5L'
p175
asg6
Nsg83
(lp176
S'0xc628bL'
p177
asg87
Nsg88
Nsg89
S'8b9a0d40e062be2b9b2d9885108fb196'
p178
sg91
S'b9bc48935b5443504e35a59843f17cfd'
p179
sg93
(lp180
g161
ag168
asg95
Nsba(ibclass
BBasicBlock
p181
(dp182
g12
Nsg13
(lp183
(ibclass
BInstr
p184
(dp185
g2
Nsg17
S'mov     rax, [rbp+start]'
p186
sg19
S'488b45e8'
p187
sg21
Vmov rax, qword ptr [rbp - 0x18]
p188
sg5
L811462L
sg6
Nsg23
S'mov'
p189
sg25
S'0xc61c6L'
p190
sg27
Nsba(ibclass
BInstr
p191
(dp192
g2
Nsg17
S'mov     eax, [rax]'
p193
sg19
S'8b00'
p194
sg21
Vmov eax, dword ptr [rax]
p195
sg5
L811466L
sg6
Nsg23
S'mov'
p196
sg25
S'0xc61caL'
p197
sg27
Nsba(ibclass
BInstr
p198
(dp199
g2
Nsg17
S'cmp     eax, 5'
p200
sg19
S'83f805'
p201
sg21
Vcmp eax, 5
p202
sg5
L811468L
sg6
Nsg23
S'cmp'
p203
sg25
S'0xc61ccL'
p204
sg27
Nsba(ibclass
BInstr
p205
(dp206
g2
Nsg17
S'jz      short loc_C61DB'
p207
sg19
S'740a'
p208
sg21
Vje 0xc
p209
sg5
L811471L
sg6
Nsg23
S'jz'
p210
sg25
S'0xc61cfL'
p211
sg27
Nsbasg70
(lp212
S'mov reg, mem'
p213
aS'mov reg, mem'
p214
aS'cmp reg, 5'
p215
aS'jz func'
p216
asg79
Nsg5
S'0xc61c6L'
p217
sg81
(lp218
S'0xc61b5L'
p219
asg6
Nsg83
(lp220
S'0xc61d1L'
p221
aS'0xc61dbL'
p222
asg87
Nsg88
Nsg89
S'db7f0dec7b6480d765a2fb1483cb9e16'
p223
sg91
S'9a7d257313969f3e11d235a50a2a93ed'
p224
sg93
(lp225
g189
ag196
ag203
ag210
asg95
Nsba(ibclass
BBasicBlock
p226
(dp227
g12
Nsg13
(lp228
(ibclass
BInstr
p229
(dp230
g2
Nsg17
S'mov     eax, 0'
p231
sg19
S'b800000000'
p232
sg21
Vmov eax, 0
p233
sg5
L811473L
sg6
Nsg23
S'mov'
p234
sg25
S'0xc61d1L'
p235
sg27
Nsba(ibclass
BInstr
p236
(dp237
g2
Nsg17
S'jmp     locret_C628B'
p238
sg19
S'e9b0000000'
p239
sg21
Vjmp 0xb5
p240
sg5
L811478L
sg6
Nsg23
S'jmp'
p241
sg25
S'0xc61d6L'
p242
sg27
Nsbasg70
(lp243
S'mov reg, 0'
p244
aS'jmp func'
p245
asg79
Nsg5
S'0xc61d1L'
p246
sg81
(lp247
S'0xc61c6L'
p248
asg6
Nsg83
(lp249
S'0xc628bL'
p250
asg87
Nsg88
Nsg89
S'8b9a0d40e062be2b9b2d9885108fb196'
p251
sg91
S'b9bc48935b5443504e35a59843f17cfd'
p252
sg93
(lp253
g234
ag241
asg95
Nsba(ibclass
BBasicBlock
p254
(dp255
g12
Nsg13
(lp256
(ibclass
BInstr
p257
(dp258
g2
Nsg17
S'mov     rax, [rbp+end]'
p259
sg19
S'488b45e0'
p260
sg21
Vmov rax, qword ptr [rbp - 0x20]
p261
sg5
L811483L
sg6
Nsg23
S'mov'
p262
sg25
S'0xc61dbL'
p263
sg27
Nsba(ibclass
BInstr
p264
(dp265
g2
Nsg17
S'mov     eax, [rax]'
p266
sg19
S'8b00'
p267
sg21
Vmov eax, dword ptr [rax]
p268
sg5
L811487L
sg6
Nsg23
S'mov'
p269
sg25
S'0xc61dfL'
p270
sg27
Nsba(ibclass
BInstr
p271
(dp272
g2
Nsg17
S'cmp     eax, 5'
p273
sg19
S'83f805'
p274
sg21
Vcmp eax, 5
p275
sg5
L811489L
sg6
Nsg23
S'cmp'
p276
sg25
S'0xc61e1L'
p277
sg27
Nsba(ibclass
BInstr
p278
(dp279
g2
Nsg17
S'jz      short loc_C61F0'
p280
sg19
S'740a'
p281
sg21
Vje 0xc
p282
sg5
L811492L
sg6
Nsg23
S'jz'
p283
sg25
S'0xc61e4L'
p284
sg27
Nsbasg70
(lp285
S'mov reg, mem'
p286
aS'mov reg, mem'
p287
aS'cmp reg, 5'
p288
aS'jz func'
p289
asg79
Nsg5
S'0xc61dbL'
p290
sg81
(lp291
S'0xc61c6L'
p292
asg6
Nsg83
(lp293
S'0xc61e6L'
p294
aS'0xc61f0L'
p295
asg87
Nsg88
Nsg89
S'db7f0dec7b6480d765a2fb1483cb9e16'
p296
sg91
S'9a7d257313969f3e11d235a50a2a93ed'
p297
sg93
(lp298
g262
ag269
ag276
ag283
asg95
Nsba(ibclass
BBasicBlock
p299
(dp300
g12
Nsg13
(lp301
(ibclass
BInstr
p302
(dp303
g2
Nsg17
S'mov     eax, 0'
p304
sg19
S'b800000000'
p305
sg21
Vmov eax, 0
p306
sg5
L811494L
sg6
Nsg23
S'mov'
p307
sg25
S'0xc61e6L'
p308
sg27
Nsba(ibclass
BInstr
p309
(dp310
g2
Nsg17
S'jmp     locret_C628B'
p311
sg19
S'e99b000000'
p312
sg21
Vjmp 0xa0
p313
sg5
L811499L
sg6
Nsg23
S'jmp'
p314
sg25
S'0xc61ebL'
p315
sg27
Nsbasg70
(lp316
S'mov reg, 0'
p317
aS'jmp func'
p318
asg79
Nsg5
S'0xc61e6L'
p319
sg81
(lp320
S'0xc61dbL'
p321
asg6
Nsg83
(lp322
S'0xc628bL'
p323
asg87
Nsg88
Nsg89
S'8b9a0d40e062be2b9b2d9885108fb196'
p324
sg91
S'b9bc48935b5443504e35a59843f17cfd'
p325
sg93
(lp326
g307
ag314
asg95
Nsba(ibclass
BBasicBlock
p327
(dp328
g12
Nsg13
(lp329
(ibclass
BInstr
p330
(dp331
g2
Nsg17
S'mov     rax, cs:xmlMalloc_ptr'
p332
sg19
S'488b05f98b2f00'
p333
sg21
Vmov rax, qword ptr [rip + 0x2f8bf9]
p334
sg5
L811504L
sg6
Nsg23
S'mov'
p335
sg25
S'0xc61f0L'
p336
sg27
Nsba(ibclass
BInstr
p337
(dp338
g2
Nsg17
S'mov     rax, [rax]'
p339
sg19
S'488b00'
p340
sg21
Vmov rax, qword ptr [rax]
p341
sg5
L811511L
sg6
Nsg23
S'mov'
p342
sg25
S'0xc61f7L'
p343
sg27
Nsba(ibclass
BInstr
p344
(dp345
g2
Nsg17
S'mov     edi, 48h'
p346
sg19
S'bf48000000'
p347
sg21
Vmov edi, 0x48
p348
sg5
L811514L
sg6
Nsg23
S'mov'
p349
sg25
S'0xc61faL'
p350
sg27
Nsba(ibclass
BInstr
p351
(dp352
g2
Nsg17
S'call    rax'
p353
sg19
S'ffd0'
p354
sg21
Vcall rax
p355
sg5
L811519L
sg6
Nsg23
S'call'
p356
sg25
S'0xc61ffL'
p357
sg27
Nsba(ibclass
BInstr
p358
(dp359
g2
Nsg17
S'mov     [rbp+ret], rax'
p360
sg19
S'488945f8'
p361
sg21
Vmov qword ptr [rbp - 8], rax
p362
sg5
L811521L
sg6
Nsg23
S'mov'
p363
sg25
S'0xc6201L'
p364
sg27
Nsba(ibclass
BInstr
p365
(dp366
g2
Nsg17
S'cmp     [rbp+ret], 0'
p367
sg19
S'48837df800'
p368
sg21
Vcmp qword ptr [rbp - 8], 0
p369
sg5
L811525L
sg6
Nsg23
S'cmp'
p370
sg25
S'0xc6205L'
p371
sg27
Nsba(ibclass
BInstr
p372
(dp373
g2
Nsg17
S'jnz     short loc_C621F'
p374
sg19
S'7513'
p375
sg21
Vjne 0x15
p376
sg5
L811530L
sg6
Nsg23
S'jnz'
p377
sg25
S'0xc620aL'
p378
sg27
Nsbasg70
(lp379
S'mov reg, cs:xmlMregloc_ptr'
p380
aS'mov reg, mem'
p381
aS'mov reg, 48h'
p382
aS'cregl reg'
p383
aS'mov mem, reg'
p384
aS'cmp mem, 0'
p385
aS'jnz func'
p386
asg79
Nsg5
S'0xc61f0L'
p387
sg81
(lp388
S'0xc61dbL'
p389
asg6
Nsg83
(lp390
S'0xc620cL'
p391
aS'0xc621fL'
p392
asg87
Nsg88
Nsg89
S'4b92e126ef463a4f8f15195e91fff799'
p393
sg91
S'9febea72f08a54da0312c32f7e064b10'
p394
sg93
(lp395
g335
ag342
ag349
ag356
ag363
ag370
ag377
asg95
Nsba(ibclass
BBasicBlock
p396
(dp397
g12
Nsg13
(lp398
(ibclass
BInstr
p399
(dp400
g2
Nsg17
S'lea     rdi, aAllocatingRang; "allocating range"'
p401
sg19
S'488d3dcde40b00'
p402
sg21
Vlea rdi, [rip + 0xbe4cd]
p403
sg5
L811532L
sg6
Nsg23
S'lea'
p404
sg25
S'0xc620cL'
p405
sg27
Nsba(ibclass
BInstr
p406
(dp407
g2
Nsg17
S'call    xmlXPtrErrMemory'
p408
sg19
S'e862f8ffff'
p409
sg21
Vcall 0xfffffffffffff867
p410
sg5
L811539L
sg6
Nsg23
S'call'
p411
sg25
S'0xc6213L'
p412
sg27
Nsba(ibclass
BInstr
p413
(dp414
g2
Nsg17
S'mov     eax, 0'
p415
sg19
S'b800000000'
p416
sg21
Vmov eax, 0
p417
sg5
L811544L
sg6
Nsg23
S'mov'
p418
sg25
S'0xc6218L'
p419
sg27
Nsba(ibclass
BInstr
p420
(dp421
g2
Nsg17
S'jmp     short locret_C628B'
p422
sg19
S'eb6c'
p423
sg21
Vjmp 0x6e
p424
sg5
L811549L
sg6
Nsg23
S'jmp'
p425
sg25
S'0xc621dL'
p426
sg27
Nsbasg70
(lp427
S'lea reg, aAllocatingRang'
p428
aS'cregl xmlXPtrErrMemory'
p429
aS'mov reg, 0'
p430
aS'jmp short func'
p431
asg79
Nsg5
S'0xc620cL'
p432
sg81
(lp433
S'0xc61f0L'
p434
asg6
Nsg83
(lp435
S'0xc628bL'
p436
asg87
Nsg88
Nsg89
S'0dc23fd008cf6b8ab05ed1912338b682'
p437
sg91
S'5890bcc1020a02d12ada3a8a58a49381'
p438
sg93
(lp439
g404
ag411
ag418
ag425
asg95
Nsba(ibclass
BBasicBlock
p440
(dp441
g12
Nsg13
(lp442
(ibclass
BInstr
p443
(dp444
g2
Nsg17
S'mov     rax, [rbp+ret]'
p445
sg19
S'488b45f8'
p446
sg21
Vmov rax, qword ptr [rbp - 8]
p447
sg5
L811551L
sg6
Nsg23
S'mov'
p448
sg25
S'0xc621fL'
p449
sg27
Nsba(ibclass
BInstr
p450
(dp451
g2
Nsg17
S'mov     edx, 48h        ; n'
p452
sg19
S'ba48000000'
p453
sg21
Vmov edx, 0x48
p454
sg5
L811555L
sg6
Nsg23
S'mov'
p455
sg25
S'0xc6223L'
p456
sg27
Nsba(ibclass
BInstr
p457
(dp458
g2
Nsg17
S'mov     esi, 0          ; c'
p459
sg19
S'be00000000'
p460
sg21
Vmov esi, 0
p461
sg5
L811560L
sg6
Nsg23
S'mov'
p462
sg25
S'0xc6228L'
p463
sg27
Nsba(ibclass
BInstr
p464
(dp465
g2
Nsg17
S'mov     rdi, rax        ; s'
p466
sg19
S'4889c7'
p467
sg21
Vmov rdi, rax
p468
sg5
L811565L
sg6
Nsg23
S'mov'
p469
sg25
S'0xc622dL'
p470
sg27
Nsba(ibclass
BInstr
p471
(dp472
g2
Nsg17
S'call    memset'
p473
sg19
S'e83b5ef6ff'
p474
sg21
Vcall 0xfffffffffff65e40
p475
sg5
L811568L
sg6
Nsg23
S'call'
p476
sg25
S'0xc6230L'
p477
sg27
Nsba(ibclass
BInstr
p478
(dp479
g2
Nsg17
S'mov     rax, [rbp+ret]'
p480
sg19
S'488b45f8'
p481
sg21
Vmov rax, qword ptr [rbp - 8]
p482
sg5
L811573L
sg6
Nsg23
S'mov'
p483
sg25
S'0xc6235L'
p484
sg27
Nsba(ibclass
BInstr
p485
(dp486
g2
Nsg17
S'mov     dword ptr [rax], 6'
p487
sg19
S'c70006000000'
p488
sg21
Vmov dword ptr [rax], 6
p489
sg5
L811577L
sg6
Nsg23
S'mov'
p490
sg25
S'0xc6239L'
p491
sg27
Nsba(ibclass
BInstr
p492
(dp493
g2
Nsg17
S'mov     rax, [rbp+start]'
p494
sg19
S'488b45e8'
p495
sg21
Vmov rax, qword ptr [rbp - 0x18]
p496
sg5
L811583L
sg6
Nsg23
S'mov'
p497
sg25
S'0xc623fL'
p498
sg27
Nsba(ibclass
BInstr
p499
(dp500
g2
Nsg17
S'mov     rdx, [rax+28h]'
p501
sg19
S'488b5028'
p502
sg21
Vmov rdx, qword ptr [rax + 0x28]
p503
sg5
L811587L
sg6
Nsg23
S'mov'
p504
sg25
S'0xc6243L'
p505
sg27
Nsba(ibclass
BInstr
p506
(dp507
g2
Nsg17
S'mov     rax, [rbp+ret]'
p508
sg19
S'488b45f8'
p509
sg21
Vmov rax, qword ptr [rbp - 8]
p510
sg5
L811591L
sg6
Nsg23
S'mov'
p511
sg25
S'0xc6247L'
p512
sg27
Nsba(ibclass
BInstr
p513
(dp514
g2
Nsg17
S'mov     [rax+28h], rdx'
p515
sg19
S'48895028'
p516
sg21
Vmov qword ptr [rax + 0x28], rdx
p517
sg5
L811595L
sg6
Nsg23
S'mov'
p518
sg25
S'0xc624bL'
p519
sg27
Nsba(ibclass
BInstr
p520
(dp521
g2
Nsg17
S'mov     rax, [rbp+start]'
p522
sg19
S'488b45e8'
p523
sg21
Vmov rax, qword ptr [rbp - 0x18]
p524
sg5
L811599L
sg6
Nsg23
S'mov'
p525
sg25
S'0xc624fL'
p526
sg27
Nsba(ibclass
BInstr
p527
(dp528
g2
Nsg17
S'mov     edx, [rax+30h]'
p529
sg19
S'8b5030'
p530
sg21
Vmov edx, dword ptr [rax + 0x30]
p531
sg5
L811603L
sg6
Nsg23
S'mov'
p532
sg25
S'0xc6253L'
p533
sg27
Nsba(ibclass
BInstr
p534
(dp535
g2
Nsg17
S'mov     rax, [rbp+ret]'
p536
sg19
S'488b45f8'
p537
sg21
Vmov rax, qword ptr [rbp - 8]
p538
sg5
L811606L
sg6
Nsg23
S'mov'
p539
sg25
S'0xc6256L'
p540
sg27
Nsba(ibclass
BInstr
p541
(dp542
g2
Nsg17
S'mov     [rax+30h], edx'
p543
sg19
S'895030'
p544
sg21
Vmov dword ptr [rax + 0x30], edx
p545
sg5
L811610L
sg6
Nsg23
S'mov'
p546
sg25
S'0xc625aL'
p547
sg27
Nsba(ibclass
BInstr
p548
(dp549
g2
Nsg17
S'mov     rax, [rbp+end]'
p550
sg19
S'488b45e0'
p551
sg21
Vmov rax, qword ptr [rbp - 0x20]
p552
sg5
L811613L
sg6
Nsg23
S'mov'
p553
sg25
S'0xc625dL'
p554
sg27
Nsba(ibclass
BInstr
p555
(dp556
g2
Nsg17
S'mov     rdx, [rax+28h]'
p557
sg19
S'488b5028'
p558
sg21
Vmov rdx, qword ptr [rax + 0x28]
p559
sg5
L811617L
sg6
Nsg23
S'mov'
p560
sg25
S'0xc6261L'
p561
sg27
Nsba(ibclass
BInstr
p562
(dp563
g2
Nsg17
S'mov     rax, [rbp+ret]'
p564
sg19
S'488b45f8'
p565
sg21
Vmov rax, qword ptr [rbp - 8]
p566
sg5
L811621L
sg6
Nsg23
S'mov'
p567
sg25
S'0xc6265L'
p568
sg27
Nsba(ibclass
BInstr
p569
(dp570
g2
Nsg17
S'mov     [rax+38h], rdx'
p571
sg19
S'48895038'
p572
sg21
Vmov qword ptr [rax + 0x38], rdx
p573
sg5
L811625L
sg6
Nsg23
S'mov'
p574
sg25
S'0xc6269L'
p575
sg27
Nsba(ibclass
BInstr
p576
(dp577
g2
Nsg17
S'mov     rax, [rbp+end]'
p578
sg19
S'488b45e0'
p579
sg21
Vmov rax, qword ptr [rbp - 0x20]
p580
sg5
L811629L
sg6
Nsg23
S'mov'
p581
sg25
S'0xc626dL'
p582
sg27
Nsba(ibclass
BInstr
p583
(dp584
g2
Nsg17
S'mov     edx, [rax+30h]'
p585
sg19
S'8b5030'
p586
sg21
Vmov edx, dword ptr [rax + 0x30]
p587
sg5
L811633L
sg6
Nsg23
S'mov'
p588
sg25
S'0xc6271L'
p589
sg27
Nsba(ibclass
BInstr
p590
(dp591
g2
Nsg17
S'mov     rax, [rbp+ret]'
p592
sg19
S'488b45f8'
p593
sg21
Vmov rax, qword ptr [rbp - 8]
p594
sg5
L811636L
sg6
Nsg23
S'mov'
p595
sg25
S'0xc6274L'
p596
sg27
Nsba(ibclass
BInstr
p597
(dp598
g2
Nsg17
S'mov     [rax+40h], edx'
p599
sg19
S'895040'
p600
sg21
Vmov dword ptr [rax + 0x40], edx
p601
sg5
L811640L
sg6
Nsg23
S'mov'
p602
sg25
S'0xc6278L'
p603
sg27
Nsba(ibclass
BInstr
p604
(dp605
g2
Nsg17
S'mov     rax, [rbp+ret]'
p606
sg19
S'488b45f8'
p607
sg21
Vmov rax, qword ptr [rbp - 8]
p608
sg5
L811643L
sg6
Nsg23
S'mov'
p609
sg25
S'0xc627bL'
p610
sg27
Nsba(ibclass
BInstr
p611
(dp612
g2
Nsg17
S'mov     rdi, rax        ; range'
p613
sg19
S'4889c7'
p614
sg21
Vmov rdi, rax
p615
sg5
L811647L
sg6
Nsg23
S'mov'
p616
sg25
S'0xc627fL'
p617
sg27
Nsba(ibclass
BInstr
p618
(dp619
g2
Nsg17
S'call    xmlXPtrRangeCheckOrder'
p620
sg19
S'e898fcffff'
p621
sg21
Vcall 0xfffffffffffffc9d
p622
sg5
L811650L
sg6
Nsg23
S'call'
p623
sg25
S'0xc6282L'
p624
sg27
Nsba(ibclass
BInstr
p625
(dp626
g2
Nsg17
S'mov     rax, [rbp+ret]'
p627
sg19
S'488b45f8'
p628
sg21
Vmov rax, qword ptr [rbp - 8]
p629
sg5
L811655L
sg6
Nsg23
S'mov'
p630
sg25
S'0xc6287L'
p631
sg27
Nsbasg70
(lp632
S'mov reg, mem'
p633
aS'mov reg, 48h'
p634
aS'mov reg, 0'
p635
aS'mov reg, reg'
p636
aS'cregl memset'
p637
aS'mov reg, mem'
p638
aS'mov mem, 6'
p639
aS'mov reg, mem'
p640
aS'mov reg, mem'
p641
aS'mov reg, mem'
p642
aS'mov mem, reg'
p643
aS'mov reg, mem'
p644
aS'mov reg, mem'
p645
aS'mov reg, mem'
p646
aS'mov mem, reg'
p647
aS'mov reg, mem'
p648
aS'mov reg, mem'
p649
aS'mov reg, mem'
p650
aS'mov mem, reg'
p651
aS'mov reg, mem'
p652
aS'mov reg, mem'
p653
aS'mov reg, mem'
p654
aS'mov mem, reg'
p655
aS'mov reg, mem'
p656
aS'mov reg, reg'
p657
aS'cregl xmlXPtrRangeCheckOrder'
p658
aS'mov reg, mem'
p659
asg79
Nsg5
S'0xc621fL'
p660
sg81
(lp661
S'0xc61f0L'
p662
asg6
Nsg83
(lp663
S'0xc628bL'
p664
asg87
Nsg88
Nsg89
S'1ab10a827ac895cb0a982207bfcf95e0'
p665
sg91
S'dd121af350d622a84e6687c6a56a83da'
p666
sg93
(lp667
g448
ag455
ag462
ag469
ag476
ag483
ag490
ag497
ag504
ag511
ag518
ag525
ag532
ag539
ag546
ag553
ag560
ag567
ag574
ag581
ag588
ag595
ag602
ag609
ag616
ag623
ag630
asg95
Nsba(ibclass
BBasicBlock
p668
(dp669
g12
Nsg13
(lp670
(ibclass
BInstr
p671
(dp672
g2
Nsg17
S'leave'
p673
sg19
S'c9'
p674
sg21
Vleave 
p675
sg5
L811659L
sg6
Nsg23
S'leave'
p676
sg25
S'0xc628bL'
p677
sg27
Nsba(ibclass
BInstr
p678
(dp679
g2
Nsg17
S'retn'
p680
sg19
S'c3'
p681
sg21
Vret 
p682
sg5
L811660L
sg6
Nsg23
S'retn'
p683
sg25
S'0xc628cL'
p684
sg27
Nsbasg70
(lp685
g673
ag680
asg79
Nsg5
S'0xc628bL'
p686
sg81
(lp687
S'0xc61abL'
p688
aS'0xc61bcL'
p689
aS'0xc61d1L'
p690
aS'0xc61e6L'
p691
aS'0xc620cL'
p692
aS'0xc621fL'
p693
asg6
Nsg83
(lp694
sg87
Nsg88
Nsg89
S'08c78f73a6f87c85da88b2982f54ce2a'
p695
sg91
S'08c78f73a6f87c85da88b2982f54ce2a'
p696
sg93
(lp697
g676
ag683
asg95
Nsbasb.