(ibclass
BFunc
p0
(dp1
S'hash'
p2
NsS'name'
p3
S'xmlStrncat__internal_alias'
p4
sS'start_address'
p5
L929397L
sS'flag'
p6
NsS'program'
p7
NsS'bbs'
p8
(lp9
(ibclass
BBasicBlock
p10
(dp11
S'function'
p12
NsS'binstrs'
p13
(lp14
(ibclass
BInstr
p15
(dp16
g2
NsS'disasm'
p17
S"push    rbp             ; Alternative name is 'xmlStrncat'"
p18
sS'bytes'
p19
S'55'
p20
sS'disasm_striped'
p21
Vpush rbp
p22
sg5
L929397L
sg6
NsS'mnem'
p23
S'push'
p24
sS'address'
p25
S'0xe2e75L'
p26
sS'basicblock'
p27
Nsba(ibclass
BInstr
p28
(dp29
g2
Nsg17
S'mov     rbp, rsp'
p30
sg19
S'4889e5'
p31
sg21
Vmov rbp, rsp
p32
sg5
L929398L
sg6
Nsg23
S'mov'
p33
sg25
S'0xe2e76L'
p34
sg27
Nsba(ibclass
BInstr
p35
(dp36
g2
Nsg17
S'sub     rsp, 30h'
p37
sg19
S'4883ec30'
p38
sg21
Vsub rsp, 0x30
p39
sg5
L929401L
sg6
Nsg23
S'sub'
p40
sg25
S'0xe2e79L'
p41
sg27
Nsba(ibclass
BInstr
p42
(dp43
g2
Nsg17
S'mov     [rbp+cur], rdi'
p44
sg19
S'48897de8'
p45
sg21
Vmov qword ptr [rbp - 0x18], rdi
p46
sg5
L929405L
sg6
Nsg23
S'mov'
p47
sg25
S'0xe2e7dL'
p48
sg27
Nsba(ibclass
BInstr
p49
(dp50
g2
Nsg17
S'mov     [rbp+add], rsi'
p51
sg19
S'488975e0'
p52
sg21
Vmov qword ptr [rbp - 0x20], rsi
p53
sg5
L929409L
sg6
Nsg23
S'mov'
p54
sg25
S'0xe2e81L'
p55
sg27
Nsba(ibclass
BInstr
p56
(dp57
g2
Nsg17
S'mov     [rbp+len], edx'
p58
sg19
S'8955dc'
p59
sg21
Vmov dword ptr [rbp - 0x24], edx
p60
sg5
L929413L
sg6
Nsg23
S'mov'
p61
sg25
S'0xe2e85L'
p62
sg27
Nsba(ibclass
BInstr
p63
(dp64
g2
Nsg17
S'cmp     [rbp+add], 0'
p65
sg19
S'48837de000'
p66
sg21
Vcmp qword ptr [rbp - 0x20], 0
p67
sg5
L929416L
sg6
Nsg23
S'cmp'
p68
sg25
S'0xe2e88L'
p69
sg27
Nsba(ibclass
BInstr
p70
(dp71
g2
Nsg17
S'jz      short loc_E2E95'
p72
sg19
S'7406'
p73
sg21
Vje 8
p74
sg5
L929421L
sg6
Nsg23
S'jz'
p75
sg25
S'0xe2e8dL'
p76
sg27
NsbasS'disasm_list'
p77
(lp78
S'push reg'
p79
aS'mov reg, reg'
p80
aS'sub reg, 30h'
p81
aS'mov mem, reg'
p82
aS'mov mem, reg'
p83
aS'mov mem, reg'
p84
aS'cmp mem, 0'
p85
aS'jz func'
p86
asS'end_address'
p87
Nsg5
S'0xe2e75L'
p88
sS'preds'
p89
(lp90
sg6
NsS'succs'
p91
(lp92
S'0xe2e8fL'
p93
aS'0xe2e95L'
p94
asS'hash_v3'
p95
NsS'flag_v2'
p96
NsS'hash_v1'
p97
S'5e0d9e04d51d2bbf795aef1bb6a73128'
p98
sS'hash_v2'
p99
S'8042acee3c8262f26202a22e5b4b2f9b'
p100
sS'mnen_list'
p101
(lp102
g24
ag33
ag40
ag47
ag54
ag61
ag68
ag75
asS'neighbour_disasm_list'
p103
Nsba(ibclass
BBasicBlock
p104
(dp105
g12
Nsg13
(lp106
(ibclass
BInstr
p107
(dp108
g2
Nsg17
S'cmp     [rbp+len], 0'
p109
sg19
S'837ddc00'
p110
sg21
Vcmp dword ptr [rbp - 0x24], 0
p111
sg5
L929423L
sg6
Nsg23
S'cmp'
p112
sg25
S'0xe2e8fL'
p113
sg27
Nsba(ibclass
BInstr
p114
(dp115
g2
Nsg17
S'jnz     short loc_E2E9E'
p116
sg19
S'7509'
p117
sg21
Vjne 0xb
p118
sg5
L929427L
sg6
Nsg23
S'jnz'
p119
sg25
S'0xe2e93L'
p120
sg27
Nsbasg77
(lp121
S'cmp mem, 0'
p122
aS'jnz func'
p123
asg87
Nsg5
S'0xe2e8fL'
p124
sg89
(lp125
S'0xe2e75L'
p126
asg6
Nsg91
(lp127
S'0xe2e95L'
p128
aS'0xe2e9eL'
p129
asg95
Nsg96
Nsg97
S'30cb3d6f6a174adfabcde507f6944a52'
p130
sg99
S'98d72118630a4e08156799652c8790e6'
p131
sg101
(lp132
g112
ag119
asg103
Nsba(ibclass
BBasicBlock
p133
(dp134
g12
Nsg13
(lp135
(ibclass
BInstr
p136
(dp137
g2
Nsg17
S'mov     rax, [rbp+cur]'
p138
sg19
S'488b45e8'
p139
sg21
Vmov rax, qword ptr [rbp - 0x18]
p140
sg5
L929429L
sg6
Nsg23
S'mov'
p141
sg25
S'0xe2e95L'
p142
sg27
Nsba(ibclass
BInstr
p143
(dp144
g2
Nsg17
S'jmp     locret_E2F59'
p145
sg19
S'e9bb000000'
p146
sg21
Vjmp 0xc0
p147
sg5
L929433L
sg6
Nsg23
S'jmp'
p148
sg25
S'0xe2e99L'
p149
sg27
Nsbasg77
(lp150
S'mov reg, mem'
p151
aS'jmp func'
p152
asg87
Nsg5
S'0xe2e95L'
p153
sg89
(lp154
S'0xe2e75L'
p155
aS'0xe2e8fL'
p156
asg6
Nsg91
(lp157
S'0xe2f59L'
p158
asg95
Nsg96
Nsg97
S'8b9a0d40e062be2b9b2d9885108fb196'
p159
sg99
S'fb93e62bb77eb0a3c977d8bf344bb0b7'
p160
sg101
(lp161
g141
ag148
asg103
Nsba(ibclass
BBasicBlock
p162
(dp163
g12
Nsg13
(lp164
(ibclass
BInstr
p165
(dp166
g2
Nsg17
S'cmp     [rbp+len], 0'
p167
sg19
S'837ddc00'
p168
sg21
Vcmp dword ptr [rbp - 0x24], 0
p169
sg5
L929438L
sg6
Nsg23
S'cmp'
p170
sg25
S'0xe2e9eL'
p171
sg27
Nsba(ibclass
BInstr
p172
(dp173
g2
Nsg17
S'jns     short loc_E2EAE'
p174
sg19
S'790a'
p175
sg21
Vjns 0xc
p176
sg5
L929442L
sg6
Nsg23
S'jns'
p177
sg25
S'0xe2ea2L'
p178
sg27
Nsbasg77
(lp179
S'cmp mem, 0'
p180
aS'jns func'
p181
asg87
Nsg5
S'0xe2e9eL'
p182
sg89
(lp183
S'0xe2e8fL'
p184
asg6
Nsg91
(lp185
S'0xe2ea4L'
p186
aS'0xe2eaeL'
p187
asg95
Nsg96
Nsg97
S'4606fac8e515e3a38d5c4b959bb9f722'
p188
sg99
S'f66dbfc04e345dcd4ba0ce322e486985'
p189
sg101
(lp190
g170
ag177
asg103
Nsba(ibclass
BBasicBlock
p191
(dp192
g12
Nsg13
(lp193
(ibclass
BInstr
p194
(dp195
g2
Nsg17
S'mov     eax, 0'
p196
sg19
S'b800000000'
p197
sg21
Vmov eax, 0
p198
sg5
L929444L
sg6
Nsg23
S'mov'
p199
sg25
S'0xe2ea4L'
p200
sg27
Nsba(ibclass
BInstr
p201
(dp202
g2
Nsg17
S'jmp     locret_E2F59'
p203
sg19
S'e9ab000000'
p204
sg21
Vjmp 0xb0
p205
sg5
L929449L
sg6
Nsg23
S'jmp'
p206
sg25
S'0xe2ea9L'
p207
sg27
Nsbasg77
(lp208
S'mov reg, 0'
p209
aS'jmp func'
p210
asg87
Nsg5
S'0xe2ea4L'
p211
sg89
(lp212
S'0xe2e9eL'
p213
asg6
Nsg91
(lp214
S'0xe2f59L'
p215
asg95
Nsg96
Nsg97
S'8b9a0d40e062be2b9b2d9885108fb196'
p216
sg99
S'b9bc48935b5443504e35a59843f17cfd'
p217
sg101
(lp218
g199
ag206
asg103
Nsba(ibclass
BBasicBlock
p219
(dp220
g12
Nsg13
(lp221
(ibclass
BInstr
p222
(dp223
g2
Nsg17
S'cmp     [rbp+cur], 0'
p224
sg19
S'48837de800'
p225
sg21
Vcmp qword ptr [rbp - 0x18], 0
p226
sg5
L929454L
sg6
Nsg23
S'cmp'
p227
sg25
S'0xe2eaeL'
p228
sg27
Nsba(ibclass
BInstr
p229
(dp230
g2
Nsg17
S'jnz     short loc_E2ECB'
p231
sg19
S'7516'
p232
sg21
Vjne 0x18
p233
sg5
L929459L
sg6
Nsg23
S'jnz'
p234
sg25
S'0xe2eb3L'
p235
sg27
Nsbasg77
(lp236
S'cmp mem, 0'
p237
aS'jnz func'
p238
asg87
Nsg5
S'0xe2eaeL'
p239
sg89
(lp240
S'0xe2e9eL'
p241
asg6
Nsg91
(lp242
S'0xe2eb5L'
p243
aS'0xe2ecbL'
p244
asg95
Nsg96
Nsg97
S'30cb3d6f6a174adfabcde507f6944a52'
p245
sg99
S'98d72118630a4e08156799652c8790e6'
p246
sg101
(lp247
g227
ag234
asg103
Nsba(ibclass
BBasicBlock
p248
(dp249
g12
Nsg13
(lp250
(ibclass
BInstr
p251
(dp252
g2
Nsg17
S'mov     edx, [rbp+len]'
p253
sg19
S'8b55dc'
p254
sg21
Vmov edx, dword ptr [rbp - 0x24]
p255
sg5
L929461L
sg6
Nsg23
S'mov'
p256
sg25
S'0xe2eb5L'
p257
sg27
Nsba(ibclass
BInstr
p258
(dp259
g2
Nsg17
S'mov     rax, [rbp+add]'
p260
sg19
S'488b45e0'
p261
sg21
Vmov rax, qword ptr [rbp - 0x20]
p262
sg5
L929464L
sg6
Nsg23
S'mov'
p263
sg25
S'0xe2eb8L'
p264
sg27
Nsba(ibclass
BInstr
p265
(dp266
g2
Nsg17
S'mov     esi, edx        ; len'
p267
sg19
S'89d6'
p268
sg21
Vmov esi, edx
p269
sg5
L929468L
sg6
Nsg23
S'mov'
p270
sg25
S'0xe2ebcL'
p271
sg27
Nsba(ibclass
BInstr
p272
(dp273
g2
Nsg17
S'mov     rdi, rax        ; cur'
p274
sg19
S'4889c7'
p275
sg21
Vmov rdi, rax
p276
sg5
L929470L
sg6
Nsg23
S'mov'
p277
sg25
S'0xe2ebeL'
p278
sg27
Nsba(ibclass
BInstr
p279
(dp280
g2
Nsg17
S'call    xmlStrndup__internal_alias'
p281
sg19
S'e8c6f7ffff'
p282
sg21
Vcall 0xfffffffffffff7cb
p283
sg5
L929473L
sg6
Nsg23
S'call'
p284
sg25
S'0xe2ec1L'
p285
sg27
Nsba(ibclass
BInstr
p286
(dp287
g2
Nsg17
S'jmp     locret_E2F59'
p288
sg19
S'e98e000000'
p289
sg21
Vjmp 0x93
p290
sg5
L929478L
sg6
Nsg23
S'jmp'
p291
sg25
S'0xe2ec6L'
p292
sg27
Nsbasg77
(lp293
S'mov reg, mem'
p294
aS'mov reg, mem'
p295
aS'mov reg, reg'
p296
aS'mov reg, reg'
p297
aS'cregl xmlStrndup__internreg_regias'
p298
aS'jmp func'
p299
asg87
Nsg5
S'0xe2eb5L'
p300
sg89
(lp301
S'0xe2eaeL'
p302
asg6
Nsg91
(lp303
S'0xe2f59L'
p304
asg95
Nsg96
Nsg97
S'ed0c14dac95c7bafb483aad1c36140be'
p305
sg99
S'0e1f46d4b3af9897b099d481fb7ef5ee'
p306
sg101
(lp307
g256
ag263
ag270
ag277
ag284
ag291
asg103
Nsba(ibclass
BBasicBlock
p308
(dp309
g12
Nsg13
(lp310
(ibclass
BInstr
p311
(dp312
g2
Nsg17
S'mov     rax, [rbp+cur]'
p313
sg19
S'488b45e8'
p314
sg21
Vmov rax, qword ptr [rbp - 0x18]
p315
sg5
L929483L
sg6
Nsg23
S'mov'
p316
sg25
S'0xe2ecbL'
p317
sg27
Nsba(ibclass
BInstr
p318
(dp319
g2
Nsg17
S'mov     rdi, rax        ; str'
p320
sg19
S'4889c7'
p321
sg21
Vmov rdi, rax
p322
sg5
L929487L
sg6
Nsg23
S'mov'
p323
sg25
S'0xe2ecfL'
p324
sg27
Nsba(ibclass
BInstr
p325
(dp326
g2
Nsg17
S'call    xmlStrlen__internal_alias'
p327
sg19
S'e868ffffff'
p328
sg21
Vcall 0xffffffffffffff6d
p329
sg5
L929490L
sg6
Nsg23
S'call'
p330
sg25
S'0xe2ed2L'
p331
sg27
Nsba(ibclass
BInstr
p332
(dp333
g2
Nsg17
S'mov     [rbp+size], eax'
p334
sg19
S'8945f4'
p335
sg21
Vmov dword ptr [rbp - 0xc], eax
p336
sg5
L929495L
sg6
Nsg23
S'mov'
p337
sg25
S'0xe2ed7L'
p338
sg27
Nsba(ibclass
BInstr
p339
(dp340
g2
Nsg17
S'mov     rax, cs:xmlRealloc_ptr'
p341
sg19
S'488b052fbe2d00'
p342
sg21
Vmov rax, qword ptr [rip + 0x2dbe2f]
p343
sg5
L929498L
sg6
Nsg23
S'mov'
p344
sg25
S'0xe2edaL'
p345
sg27
Nsba(ibclass
BInstr
p346
(dp347
g2
Nsg17
S'mov     rax, [rax]'
p348
sg19
S'488b00'
p349
sg21
Vmov rax, qword ptr [rax]
p350
sg5
L929505L
sg6
Nsg23
S'mov'
p351
sg25
S'0xe2ee1L'
p352
sg27
Nsba(ibclass
BInstr
p353
(dp354
g2
Nsg17
S'mov     ecx, [rbp+size]'
p355
sg19
S'8b4df4'
p356
sg21
Vmov ecx, dword ptr [rbp - 0xc]
p357
sg5
L929508L
sg6
Nsg23
S'mov'
p358
sg25
S'0xe2ee4L'
p359
sg27
Nsba(ibclass
BInstr
p360
(dp361
g2
Nsg17
S'mov     edx, [rbp+len]'
p362
sg19
S'8b55dc'
p363
sg21
Vmov edx, dword ptr [rbp - 0x24]
p364
sg5
L929511L
sg6
Nsg23
S'mov'
p365
sg25
S'0xe2ee7L'
p366
sg27
Nsba(ibclass
BInstr
p367
(dp368
g2
Nsg17
S'add     edx, ecx'
p369
sg19
S'01ca'
p370
sg21
Vadd edx, ecx
p371
sg5
L929514L
sg6
Nsg23
S'add'
p372
sg25
S'0xe2eeaL'
p373
sg27
Nsba(ibclass
BInstr
p374
(dp375
g2
Nsg17
S'add     edx, 1'
p376
sg19
S'83c201'
p377
sg21
Vadd edx, 1
p378
sg5
L929516L
sg6
Nsg23
S'add'
p379
sg25
S'0xe2eecL'
p380
sg27
Nsba(ibclass
BInstr
p381
(dp382
g2
Nsg17
S'movsxd  rcx, edx'
p383
sg19
S'4863ca'
p384
sg21
Vmovsxd rcx, edx
p385
sg5
L929519L
sg6
Nsg23
S'movsxd'
p386
sg25
S'0xe2eefL'
p387
sg27
Nsba(ibclass
BInstr
p388
(dp389
g2
Nsg17
S'mov     rdx, [rbp+cur]'
p390
sg19
S'488b55e8'
p391
sg21
Vmov rdx, qword ptr [rbp - 0x18]
p392
sg5
L929522L
sg6
Nsg23
S'mov'
p393
sg25
S'0xe2ef2L'
p394
sg27
Nsba(ibclass
BInstr
p395
(dp396
g2
Nsg17
S'mov     rsi, rcx'
p397
sg19
S'4889ce'
p398
sg21
Vmov rsi, rcx
p399
sg5
L929526L
sg6
Nsg23
S'mov'
p400
sg25
S'0xe2ef6L'
p401
sg27
Nsba(ibclass
BInstr
p402
(dp403
g2
Nsg17
S'mov     rdi, rdx'
p404
sg19
S'4889d7'
p405
sg21
Vmov rdi, rdx
p406
sg5
L929529L
sg6
Nsg23
S'mov'
p407
sg25
S'0xe2ef9L'
p408
sg27
Nsba(ibclass
BInstr
p409
(dp410
g2
Nsg17
S'call    rax'
p411
sg19
S'ffd0'
p412
sg21
Vcall rax
p413
sg5
L929532L
sg6
Nsg23
S'call'
p414
sg25
S'0xe2efcL'
p415
sg27
Nsba(ibclass
BInstr
p416
(dp417
g2
Nsg17
S'mov     [rbp+ret], rax'
p418
sg19
S'488945f8'
p419
sg21
Vmov qword ptr [rbp - 8], rax
p420
sg5
L929534L
sg6
Nsg23
S'mov'
p421
sg25
S'0xe2efeL'
p422
sg27
Nsba(ibclass
BInstr
p423
(dp424
g2
Nsg17
S'cmp     [rbp+ret], 0'
p425
sg19
S'48837df800'
p426
sg21
Vcmp qword ptr [rbp - 8], 0
p427
sg5
L929538L
sg6
Nsg23
S'cmp'
p428
sg25
S'0xe2f02L'
p429
sg27
Nsba(ibclass
BInstr
p430
(dp431
g2
Nsg17
S'jnz     short loc_E2F1E'
p432
sg19
S'7515'
p433
sg21
Vjne 0x17
p434
sg5
L929543L
sg6
Nsg23
S'jnz'
p435
sg25
S'0xe2f07L'
p436
sg27
Nsbasg77
(lp437
S'mov reg, mem'
p438
aS'mov reg, reg'
p439
aS'cregl xmlStrlen__internreg_regias'
p440
aS'mov mem, reg'
p441
aS'mov reg, cs:xmlReregloc_ptr'
p442
aS'mov reg, mem'
p443
aS'mov reg, mem'
p444
aS'mov reg, mem'
p445
aS'add reg, reg'
p446
aS'add reg, 1'
p447
aS'movsxd reg, reg'
p448
aS'mov reg, mem'
p449
aS'mov reg, reg'
p450
aS'mov reg, reg'
p451
aS'cregl reg'
p452
aS'mov mem, reg'
p453
aS'cmp mem, 0'
p454
aS'jnz func'
p455
asg87
Nsg5
S'0xe2ecbL'
p456
sg89
(lp457
S'0xe2eaeL'
p458
asg6
Nsg91
(lp459
S'0xe2f09L'
p460
aS'0xe2f1eL'
p461
asg95
Nsg96
Nsg97
S'2e88f7941df4210c34d8edeef614d32a'
p462
sg99
S'1aa87dbb7e1af9e6a0a8a13207c070ed'
p463
sg101
(lp464
g316
ag323
ag330
ag337
ag344
ag351
ag358
ag365
ag372
ag379
ag386
ag393
ag400
ag407
ag414
ag421
ag428
ag435
asg103
Nsba(ibclass
BBasicBlock
p465
(dp466
g12
Nsg13
(lp467
(ibclass
BInstr
p468
(dp469
g2
Nsg17
S'mov     esi, 0          ; extra'
p470
sg19
S'be00000000'
p471
sg21
Vmov esi, 0
p472
sg5
L929545L
sg6
Nsg23
S'mov'
p473
sg25
S'0xe2f09L'
p474
sg27
Nsba(ibclass
BInstr
p475
(dp476
g2
Nsg17
S'mov     edi, 0          ; ctxt'
p477
sg19
S'bf00000000'
p478
sg21
Vmov edi, 0
p479
sg5
L929550L
sg6
Nsg23
S'mov'
p480
sg25
S'0xe2f0eL'
p481
sg27
Nsba(ibclass
BInstr
p482
(dp483
g2
Nsg17
S'call    xmlErrMemory__internal_alias'
p484
sg19
S'e86028f5ff'
p485
sg21
Vcall 0xfffffffffff52865
p486
sg5
L929555L
sg6
Nsg23
S'call'
p487
sg25
S'0xe2f13L'
p488
sg27
Nsba(ibclass
BInstr
p489
(dp490
g2
Nsg17
S'mov     rax, [rbp+cur]'
p491
sg19
S'488b45e8'
p492
sg21
Vmov rax, qword ptr [rbp - 0x18]
p493
sg5
L929560L
sg6
Nsg23
S'mov'
p494
sg25
S'0xe2f18L'
p495
sg27
Nsba(ibclass
BInstr
p496
(dp497
g2
Nsg17
S'jmp     short locret_E2F59'
p498
sg19
S'eb3b'
p499
sg21
Vjmp 0x3d
p500
sg5
L929564L
sg6
Nsg23
S'jmp'
p501
sg25
S'0xe2f1cL'
p502
sg27
Nsbasg77
(lp503
S'mov reg, 0'
p504
aS'mov reg, 0'
p505
aS'cregl xmlErrMemory__internreg_regias'
p506
aS'mov reg, mem'
p507
aS'jmp short func'
p508
asg87
Nsg5
S'0xe2f09L'
p509
sg89
(lp510
S'0xe2ecbL'
p511
asg6
Nsg91
(lp512
S'0xe2f59L'
p513
asg95
Nsg96
Nsg97
S'a520f52f5785a217e8fe2f5e8207c873'
p514
sg99
S'520b1b6516a7aa1182ddbc8c538f643a'
p515
sg101
(lp516
g473
ag480
ag487
ag494
ag501
asg103
Nsba(ibclass
BBasicBlock
p517
(dp518
g12
Nsg13
(lp519
(ibclass
BInstr
p520
(dp521
g2
Nsg17
S'mov     eax, [rbp+len]'
p522
sg19
S'8b45dc'
p523
sg21
Vmov eax, dword ptr [rbp - 0x24]
p524
sg5
L929566L
sg6
Nsg23
S'mov'
p525
sg25
S'0xe2f1eL'
p526
sg27
Nsba(ibclass
BInstr
p527
(dp528
g2
Nsg17
S'movsxd  rdx, eax        ; n'
p529
sg19
S'4863d0'
p530
sg21
Vmovsxd rdx, eax
p531
sg5
L929569L
sg6
Nsg23
S'movsxd'
p532
sg25
S'0xe2f21L'
p533
sg27
Nsba(ibclass
BInstr
p534
(dp535
g2
Nsg17
S'mov     eax, [rbp+size]'
p536
sg19
S'8b45f4'
p537
sg21
Vmov eax, dword ptr [rbp - 0xc]
p538
sg5
L929572L
sg6
Nsg23
S'mov'
p539
sg25
S'0xe2f24L'
p540
sg27
Nsba(ibclass
BInstr
p541
(dp542
g2
Nsg17
S'movsxd  rcx, eax'
p543
sg19
S'4863c8'
p544
sg21
Vmovsxd rcx, eax
p545
sg5
L929575L
sg6
Nsg23
S'movsxd'
p546
sg25
S'0xe2f27L'
p547
sg27
Nsba(ibclass
BInstr
p548
(dp549
g2
Nsg17
S'mov     rax, [rbp+ret]'
p550
sg19
S'488b45f8'
p551
sg21
Vmov rax, qword ptr [rbp - 8]
p552
sg5
L929578L
sg6
Nsg23
S'mov'
p553
sg25
S'0xe2f2aL'
p554
sg27
Nsba(ibclass
BInstr
p555
(dp556
g2
Nsg17
S'add     rcx, rax'
p557
sg19
S'4801c1'
p558
sg21
Vadd rcx, rax
p559
sg5
L929582L
sg6
Nsg23
S'add'
p560
sg25
S'0xe2f2eL'
p561
sg27
Nsba(ibclass
BInstr
p562
(dp563
g2
Nsg17
S'mov     rax, [rbp+add]'
p564
sg19
S'488b45e0'
p565
sg21
Vmov rax, qword ptr [rbp - 0x20]
p566
sg5
L929585L
sg6
Nsg23
S'mov'
p567
sg25
S'0xe2f31L'
p568
sg27
Nsba(ibclass
BInstr
p569
(dp570
g2
Nsg17
S'mov     rsi, rax        ; src'
p571
sg19
S'4889c6'
p572
sg21
Vmov rsi, rax
p573
sg5
L929589L
sg6
Nsg23
S'mov'
p574
sg25
S'0xe2f35L'
p575
sg27
Nsba(ibclass
BInstr
p576
(dp577
g2
Nsg17
S'mov     rdi, rcx        ; dest'
p578
sg19
S'4889cf'
p579
sg21
Vmov rdi, rcx
p580
sg5
L929592L
sg6
Nsg23
S'mov'
p581
sg25
S'0xe2f38L'
p582
sg27
Nsba(ibclass
BInstr
p583
(dp584
g2
Nsg17
S'call    memcpy'
p585
sg19
S'e8e891f4ff'
p586
sg21
Vcall 0xfffffffffff491ed
p587
sg5
L929595L
sg6
Nsg23
S'call'
p588
sg25
S'0xe2f3bL'
p589
sg27
Nsba(ibclass
BInstr
p590
(dp591
g2
Nsg17
S'mov     edx, [rbp+size]'
p592
sg19
S'8b55f4'
p593
sg21
Vmov edx, dword ptr [rbp - 0xc]
p594
sg5
L929600L
sg6
Nsg23
S'mov'
p595
sg25
S'0xe2f40L'
p596
sg27
Nsba(ibclass
BInstr
p597
(dp598
g2
Nsg17
S'mov     eax, [rbp+len]'
p599
sg19
S'8b45dc'
p600
sg21
Vmov eax, dword ptr [rbp - 0x24]
p601
sg5
L929603L
sg6
Nsg23
S'mov'
p602
sg25
S'0xe2f43L'
p603
sg27
Nsba(ibclass
BInstr
p604
(dp605
g2
Nsg17
S'add     eax, edx'
p606
sg19
S'01d0'
p607
sg21
Vadd eax, edx
p608
sg5
L929606L
sg6
Nsg23
S'add'
p609
sg25
S'0xe2f46L'
p610
sg27
Nsba(ibclass
BInstr
p611
(dp612
g2
Nsg17
S'movsxd  rdx, eax'
p613
sg19
S'4863d0'
p614
sg21
Vmovsxd rdx, eax
p615
sg5
L929608L
sg6
Nsg23
S'movsxd'
p616
sg25
S'0xe2f48L'
p617
sg27
Nsba(ibclass
BInstr
p618
(dp619
g2
Nsg17
S'mov     rax, [rbp+ret]'
p620
sg19
S'488b45f8'
p621
sg21
Vmov rax, qword ptr [rbp - 8]
p622
sg5
L929611L
sg6
Nsg23
S'mov'
p623
sg25
S'0xe2f4bL'
p624
sg27
Nsba(ibclass
BInstr
p625
(dp626
g2
Nsg17
S'add     rax, rdx'
p627
sg19
S'4801d0'
p628
sg21
Vadd rax, rdx
p629
sg5
L929615L
sg6
Nsg23
S'add'
p630
sg25
S'0xe2f4fL'
p631
sg27
Nsba(ibclass
BInstr
p632
(dp633
g2
Nsg17
S'mov     byte ptr [rax], 0'
p634
sg19
S'c60000'
p635
sg21
Vmov byte ptr [rax], 0
p636
sg5
L929618L
sg6
Nsg23
S'mov'
p637
sg25
S'0xe2f52L'
p638
sg27
Nsba(ibclass
BInstr
p639
(dp640
g2
Nsg17
S'mov     rax, [rbp+ret]'
p641
sg19
S'488b45f8'
p642
sg21
Vmov rax, qword ptr [rbp - 8]
p643
sg5
L929621L
sg6
Nsg23
S'mov'
p644
sg25
S'0xe2f55L'
p645
sg27
Nsbasg77
(lp646
S'mov reg, mem'
p647
aS'movsxd reg, reg'
p648
aS'mov reg, mem'
p649
aS'movsxd reg, reg'
p650
aS'mov reg, mem'
p651
aS'add reg, reg'
p652
aS'mov reg, mem'
p653
aS'mov reg, reg'
p654
aS'mov reg, reg'
p655
aS'cregl memcpy'
p656
aS'mov reg, mem'
p657
aS'mov reg, mem'
p658
aS'add reg, reg'
p659
aS'movsxd reg, reg'
p660
aS'mov reg, mem'
p661
aS'add reg, reg'
p662
aS'mov mem, 0'
p663
aS'mov reg, mem'
p664
asg87
Nsg5
S'0xe2f1eL'
p665
sg89
(lp666
S'0xe2ecbL'
p667
asg6
Nsg91
(lp668
S'0xe2f59L'
p669
asg95
Nsg96
Nsg97
S'fdb9f14d1892c48f095455e9fbe9a20f'
p670
sg99
S'ee0ba8596e87397cd2058899525e7fe3'
p671
sg101
(lp672
g525
ag532
ag539
ag546
ag553
ag560
ag567
ag574
ag581
ag588
ag595
ag602
ag609
ag616
ag623
ag630
ag637
ag644
asg103
Nsba(ibclass
BBasicBlock
p673
(dp674
g12
Nsg13
(lp675
(ibclass
BInstr
p676
(dp677
g2
Nsg17
S'leave'
p678
sg19
S'c9'
p679
sg21
Vleave 
p680
sg5
L929625L
sg6
Nsg23
S'leave'
p681
sg25
S'0xe2f59L'
p682
sg27
Nsba(ibclass
BInstr
p683
(dp684
g2
Nsg17
S'retn'
p685
sg19
S'c3'
p686
sg21
Vret 
p687
sg5
L929626L
sg6
Nsg23
S'retn'
p688
sg25
S'0xe2f5aL'
p689
sg27
Nsbasg77
(lp690
g678
ag685
asg87
Nsg5
S'0xe2f59L'
p691
sg89
(lp692
S'0xe2e95L'
p693
aS'0xe2ea4L'
p694
aS'0xe2eb5L'
p695
aS'0xe2f09L'
p696
aS'0xe2f1eL'
p697
asg6
Nsg91
(lp698
sg95
Nsg96
Nsg97
S'08c78f73a6f87c85da88b2982f54ce2a'
p699
sg99
S'08c78f73a6f87c85da88b2982f54ce2a'
p700
sg101
(lp701
g681
ag688
asg103
Nsbasb.