(ibclass
BFunc
p0
(dp1
S'hash'
p2
NsS'name'
p3
S'htmlParseAttValue'
p4
sS'start_address'
p5
L601266L
sS'flag'
p6
NsS'program'
p7
NsS'bbs'
p8
(lp9
(ibclass
BBasicBlock
p10
(dp11
S'function'
p12
NsS'binstrs'
p13
(lp14
(ibclass
BInstr
p15
(dp16
g2
NsS'disasm'
p17
S'push    rbp'
p18
sS'bytes'
p19
S'55'
p20
sS'disasm_striped'
p21
Vpush rbp
p22
sg5
L601266L
sg6
NsS'mnem'
p23
S'push'
p24
sS'address'
p25
S'0x92cb2L'
p26
sS'basicblock'
p27
Nsba(ibclass
BInstr
p28
(dp29
g2
Nsg17
S'mov     rbp, rsp'
p30
sg19
S'4889e5'
p31
sg21
Vmov rbp, rsp
p32
sg5
L601267L
sg6
Nsg23
S'mov'
p33
sg25
S'0x92cb3L'
p34
sg27
Nsba(ibclass
BInstr
p35
(dp36
g2
Nsg17
S'sub     rsp, 20h'
p37
sg19
S'4883ec20'
p38
sg21
Vsub rsp, 0x20
p39
sg5
L601270L
sg6
Nsg23
S'sub'
p40
sg25
S'0x92cb6L'
p41
sg27
Nsba(ibclass
BInstr
p42
(dp43
g2
Nsg17
S'mov     [rbp+ctxt], rdi'
p44
sg19
S'48897de8'
p45
sg21
Vmov qword ptr [rbp - 0x18], rdi
p46
sg5
L601274L
sg6
Nsg23
S'mov'
p47
sg25
S'0x92cbaL'
p48
sg27
Nsba(ibclass
BInstr
p49
(dp50
g2
Nsg17
S'mov     [rbp+ret], 0'
p51
sg19
S'48c745f800000000'
p52
sg21
Vmov qword ptr [rbp - 8], 0
p53
sg5
L601278L
sg6
Nsg23
S'mov'
p54
sg25
S'0x92cbeL'
p55
sg27
Nsba(ibclass
BInstr
p56
(dp57
g2
Nsg17
S'mov     rax, [rbp+ctxt]'
p58
sg19
S'488b45e8'
p59
sg21
Vmov rax, qword ptr [rbp - 0x18]
p60
sg5
L601286L
sg6
Nsg23
S'mov'
p61
sg25
S'0x92cc6L'
p62
sg27
Nsba(ibclass
BInstr
p63
(dp64
g2
Nsg17
S'mov     rax, [rax+38h]'
p65
sg19
S'488b4038'
p66
sg21
Vmov rax, qword ptr [rax + 0x38]
p67
sg5
L601290L
sg6
Nsg23
S'mov'
p68
sg25
S'0x92ccaL'
p69
sg27
Nsba(ibclass
BInstr
p70
(dp71
g2
Nsg17
S'mov     rax, [rax+20h]'
p72
sg19
S'488b4020'
p73
sg21
Vmov rax, qword ptr [rax + 0x20]
p74
sg5
L601294L
sg6
Nsg23
S'mov'
p75
sg25
S'0x92cceL'
p76
sg27
Nsba(ibclass
BInstr
p77
(dp78
g2
Nsg17
S'movzx   eax, byte ptr [rax]'
p79
sg19
S'0fb600'
p80
sg21
Vmovzx eax, byte ptr [rax]
p81
sg5
L601298L
sg6
Nsg23
S'movzx'
p82
sg25
S'0x92cd2L'
p83
sg27
Nsba(ibclass
BInstr
p84
(dp85
g2
Nsg17
S'cmp     al, 22h'
p86
sg19
S'3c22'
p87
sg21
Vcmp al, 0x22
p88
sg5
L601301L
sg6
Nsg23
S'cmp'
p89
sg25
S'0x92cd5L'
p90
sg27
Nsba(ibclass
BInstr
p91
(dp92
g2
Nsg17
S'jnz     short loc_92D46'
p93
sg19
S'756d'
p94
sg21
Vjne 0x6f
p95
sg5
L601303L
sg6
Nsg23
S'jnz'
p96
sg25
S'0x92cd7L'
p97
sg27
NsbasS'disasm_list'
p98
(lp99
S'push reg'
p100
aS'mov reg, reg'
p101
aS'sub reg, 20h'
p102
aS'mov mem, reg'
p103
aS'mov mem, 0'
p104
aS'mov reg, mem'
p105
aS'mov reg, mem'
p106
aS'mov reg, mem'
p107
aS'movzx reg, mem'
p108
aS'cmp reg, 22h'
p109
aS'jnz func'
p110
asS'end_address'
p111
Nsg5
S'0x92cb2L'
p112
sS'preds'
p113
(lp114
sg6
NsS'succs'
p115
(lp116
S'0x92cd9L'
p117
aS'0x92d46L'
p118
asS'hash_v3'
p119
NsS'flag_v2'
p120
NsS'hash_v1'
p121
S'fb4877c8dec2f8273059dec2df755d1a'
p122
sS'hash_v2'
p123
S'bb8ff5240a2fa9d4e0d8c6193c4d9222'
p124
sS'mnen_list'
p125
(lp126
g24
ag33
ag40
ag47
ag54
ag61
ag68
ag75
ag82
ag89
ag96
asS'neighbour_disasm_list'
p127
Nsba(ibclass
BBasicBlock
p128
(dp129
g12
Nsg13
(lp130
(ibclass
BInstr
p131
(dp132
g2
Nsg17
S'mov     rax, [rbp+ctxt]'
p133
sg19
S'488b45e8'
p134
sg21
Vmov rax, qword ptr [rbp - 0x18]
p135
sg5
L601305L
sg6
Nsg23
S'mov'
p136
sg25
S'0x92cd9L'
p137
sg27
Nsba(ibclass
BInstr
p138
(dp139
g2
Nsg17
S'mov     rdi, rax        ; ctxt'
p140
sg19
S'4889c7'
p141
sg21
Vmov rdi, rax
p142
sg5
L601309L
sg6
Nsg23
S'mov'
p143
sg25
S'0x92cddL'
p144
sg27
Nsba(ibclass
BInstr
p145
(dp146
g2
Nsg17
S'call    xmlNextChar__internal_alias'
p147
sg19
S'e81b34faff'
p148
sg21
Vcall 0xfffffffffffa3420
p149
sg5
L601312L
sg6
Nsg23
S'call'
p150
sg25
S'0x92ce0L'
p151
sg27
Nsba(ibclass
BInstr
p152
(dp153
g2
Nsg17
S'mov     rax, [rbp+ctxt]'
p154
sg19
S'488b45e8'
p155
sg21
Vmov rax, qword ptr [rbp - 0x18]
p156
sg5
L601317L
sg6
Nsg23
S'mov'
p157
sg25
S'0x92ce5L'
p158
sg27
Nsba(ibclass
BInstr
p159
(dp160
g2
Nsg17
S'mov     esi, 22h        ; stop'
p161
sg19
S'be22000000'
p162
sg21
Vmov esi, 0x22
p163
sg5
L601321L
sg6
Nsg23
S'mov'
p164
sg25
S'0x92ce9L'
p165
sg27
Nsba(ibclass
BInstr
p166
(dp167
g2
Nsg17
S'mov     rdi, rax        ; ctxt'
p168
sg19
S'4889c7'
p169
sg21
Vmov rdi, rax
p170
sg5
L601326L
sg6
Nsg23
S'mov'
p171
sg25
S'0x92ceeL'
p172
sg27
Nsba(ibclass
BInstr
p173
(dp174
g2
Nsg17
S'call    htmlParseHTMLAttribute'
p175
sg19
S'e8c8f5ffff'
p176
sg21
Vcall 0xfffffffffffff5cd
p177
sg5
L601329L
sg6
Nsg23
S'call'
p178
sg25
S'0x92cf1L'
p179
sg27
Nsba(ibclass
BInstr
p180
(dp181
g2
Nsg17
S'mov     [rbp+ret], rax'
p182
sg19
S'488945f8'
p183
sg21
Vmov qword ptr [rbp - 8], rax
p184
sg5
L601334L
sg6
Nsg23
S'mov'
p185
sg25
S'0x92cf6L'
p186
sg27
Nsba(ibclass
BInstr
p187
(dp188
g2
Nsg17
S'mov     rax, [rbp+ctxt]'
p189
sg19
S'488b45e8'
p190
sg21
Vmov rax, qword ptr [rbp - 0x18]
p191
sg5
L601338L
sg6
Nsg23
S'mov'
p192
sg25
S'0x92cfaL'
p193
sg27
Nsba(ibclass
BInstr
p194
(dp195
g2
Nsg17
S'mov     rax, [rax+38h]'
p196
sg19
S'488b4038'
p197
sg21
Vmov rax, qword ptr [rax + 0x38]
p198
sg5
L601342L
sg6
Nsg23
S'mov'
p199
sg25
S'0x92cfeL'
p200
sg27
Nsba(ibclass
BInstr
p201
(dp202
g2
Nsg17
S'mov     rax, [rax+20h]'
p203
sg19
S'488b4020'
p204
sg21
Vmov rax, qword ptr [rax + 0x20]
p205
sg5
L601346L
sg6
Nsg23
S'mov'
p206
sg25
S'0x92d02L'
p207
sg27
Nsba(ibclass
BInstr
p208
(dp209
g2
Nsg17
S'movzx   eax, byte ptr [rax]'
p210
sg19
S'0fb600'
p211
sg21
Vmovzx eax, byte ptr [rax]
p212
sg5
L601350L
sg6
Nsg23
S'movzx'
p213
sg25
S'0x92d06L'
p214
sg27
Nsba(ibclass
BInstr
p215
(dp216
g2
Nsg17
S'cmp     al, 22h'
p217
sg19
S'3c22'
p218
sg21
Vcmp al, 0x22
p219
sg5
L601353L
sg6
Nsg23
S'cmp'
p220
sg25
S'0x92d09L'
p221
sg27
Nsba(ibclass
BInstr
p222
(dp223
g2
Nsg17
S'jz      short loc_92D35'
p224
sg19
S'7428'
p225
sg21
Vje 0x2a
p226
sg5
L601355L
sg6
Nsg23
S'jz'
p227
sg25
S'0x92d0bL'
p228
sg27
Nsbasg98
(lp229
S'mov reg, mem'
p230
aS'mov reg, reg'
p231
aS'cregl xmlNextChar__internreg_regias'
p232
aS'mov reg, mem'
p233
aS'mov reg, 22h'
p234
aS'mov reg, reg'
p235
aS'cregl htmlParseHTMLAttribute'
p236
aS'mov mem, reg'
p237
aS'mov reg, mem'
p238
aS'mov reg, mem'
p239
aS'mov reg, mem'
p240
aS'movzx reg, mem'
p241
aS'cmp reg, 22h'
p242
aS'jz func'
p243
asg111
Nsg5
S'0x92cd9L'
p244
sg113
(lp245
S'0x92cb2L'
p246
asg6
Nsg115
(lp247
S'0x92d0dL'
p248
aS'0x92d35L'
p249
asg119
Nsg120
Nsg121
S'd8e9b0dc2e695c9fff36125ae40fb930'
p250
sg123
S'1c01bbaf3e18a9a5d6b256fb0cbf1b64'
p251
sg125
(lp252
g136
ag143
ag150
ag157
ag164
ag171
ag178
ag185
ag192
ag199
ag206
ag213
ag220
ag227
asg127
Nsba(ibclass
BBasicBlock
p253
(dp254
g12
Nsg13
(lp255
(ibclass
BInstr
p256
(dp257
g2
Nsg17
S'mov     rax, [rbp+ctxt]'
p258
sg19
S'488b45e8'
p259
sg21
Vmov rax, qword ptr [rbp - 0x18]
p260
sg5
L601357L
sg6
Nsg23
S'mov'
p261
sg25
S'0x92d0dL'
p262
sg27
Nsba(ibclass
BInstr
p263
(dp264
g2
Nsg17
S'mov     r8d, 0          ; str2'
p265
sg19
S'41b800000000'
p266
sg21
Vmov r8d, 0
p267
sg5
L601361L
sg6
Nsg23
S'mov'
p268
sg25
S'0x92d11L'
p269
sg27
Nsba(ibclass
BInstr
p270
(dp271
g2
Nsg17
S'mov     ecx, 0          ; str1'
p272
sg19
S'b900000000'
p273
sg21
Vmov ecx, 0
p274
sg5
L601367L
sg6
Nsg23
S'mov'
p275
sg25
S'0x92d17L'
p276
sg27
Nsba(ibclass
BInstr
p277
(dp278
g2
Nsg17
S'lea     rdx, aAttvalueExpe_0; "AttValue: \\" expected\\n"'
p279
sg19
S'488d15d0de0e00'
p280
sg21
Vlea rdx, [rip + 0xeded0]
p281
sg5
L601372L
sg6
Nsg23
S'lea'
p282
sg25
S'0x92d1cL'
p283
sg27
Nsba(ibclass
BInstr
p284
(dp285
g2
Nsg17
S'mov     esi, 28h        ; error'
p286
sg19
S'be28000000'
p287
sg21
Vmov esi, 0x28
p288
sg5
L601379L
sg6
Nsg23
S'mov'
p289
sg25
S'0x92d23L'
p290
sg27
Nsba(ibclass
BInstr
p291
(dp292
g2
Nsg17
S'mov     rdi, rax        ; ctxt'
p293
sg19
S'4889c7'
p294
sg21
Vmov rdi, rax
p295
sg5
L601384L
sg6
Nsg23
S'mov'
p296
sg25
S'0x92d28L'
p297
sg27
Nsba(ibclass
BInstr
p298
(dp299
g2
Nsg17
S'call    htmlParseErr'
p300
sg19
S'e874beffff'
p301
sg21
Vcall 0xffffffffffffbe79
p302
sg5
L601387L
sg6
Nsg23
S'call'
p303
sg25
S'0x92d2bL'
p304
sg27
Nsba(ibclass
BInstr
p305
(dp306
g2
Nsg17
S'jmp     loc_92DFF'
p307
sg19
S'e9ca000000'
p308
sg21
Vjmp 0xcf
p309
sg5
L601392L
sg6
Nsg23
S'jmp'
p310
sg25
S'0x92d30L'
p311
sg27
Nsbasg98
(lp312
S'mov reg, mem'
p313
aS'mov regd, 0'
p314
aS'mov reg, 0'
p315
aS'lea reg, aAttvregueExpe_0'
p316
aS'mov reg, 28h'
p317
aS'mov reg, reg'
p318
aS'cregl htmlParseErr'
p319
aS'jmp func'
p320
asg111
Nsg5
S'0x92d0dL'
p321
sg113
(lp322
S'0x92cd9L'
p323
asg6
Nsg115
(lp324
S'0x92dffL'
p325
asg119
Nsg120
Nsg121
S'cd0c60d7da6319d715f5543cab0efcee'
p326
sg123
S'07720b217dff82c51adb046ffb109e33'
p327
sg125
(lp328
g261
ag268
ag275
ag282
ag289
ag296
ag303
ag310
asg127
Nsba(ibclass
BBasicBlock
p329
(dp330
g12
Nsg13
(lp331
(ibclass
BInstr
p332
(dp333
g2
Nsg17
S'mov     rax, [rbp+ctxt]'
p334
sg19
S'488b45e8'
p335
sg21
Vmov rax, qword ptr [rbp - 0x18]
p336
sg5
L601397L
sg6
Nsg23
S'mov'
p337
sg25
S'0x92d35L'
p338
sg27
Nsba(ibclass
BInstr
p339
(dp340
g2
Nsg17
S'mov     rdi, rax        ; ctxt'
p341
sg19
S'4889c7'
p342
sg21
Vmov rdi, rax
p343
sg5
L601401L
sg6
Nsg23
S'mov'
p344
sg25
S'0x92d39L'
p345
sg27
Nsba(ibclass
BInstr
p346
(dp347
g2
Nsg17
S'call    xmlNextChar__internal_alias'
p348
sg19
S'e8bf33faff'
p349
sg21
Vcall 0xfffffffffffa33c4
p350
sg5
L601404L
sg6
Nsg23
S'call'
p351
sg25
S'0x92d3cL'
p352
sg27
Nsba(ibclass
BInstr
p353
(dp354
g2
Nsg17
S'jmp     loc_92DFF'
p355
sg19
S'e9b9000000'
p356
sg21
Vjmp 0xbe
p357
sg5
L601409L
sg6
Nsg23
S'jmp'
p358
sg25
S'0x92d41L'
p359
sg27
Nsbasg98
(lp360
S'mov reg, mem'
p361
aS'mov reg, reg'
p362
aS'cregl xmlNextChar__internreg_regias'
p363
aS'jmp func'
p364
asg111
Nsg5
S'0x92d35L'
p365
sg113
(lp366
S'0x92cd9L'
p367
asg6
Nsg115
(lp368
S'0x92dffL'
p369
asg119
Nsg120
Nsg121
S'21359965f3b3ac9d057fd4a2b03f927b'
p370
sg123
S'fb420505660edf9329f34e0d6e2c7584'
p371
sg125
(lp372
g337
ag344
ag351
ag358
asg127
Nsba(ibclass
BBasicBlock
p373
(dp374
g12
Nsg13
(lp375
(ibclass
BInstr
p376
(dp377
g2
Nsg17
S'mov     rax, [rbp+ctxt]'
p378
sg19
S'488b45e8'
p379
sg21
Vmov rax, qword ptr [rbp - 0x18]
p380
sg5
L601414L
sg6
Nsg23
S'mov'
p381
sg25
S'0x92d46L'
p382
sg27
Nsba(ibclass
BInstr
p383
(dp384
g2
Nsg17
S'mov     rax, [rax+38h]'
p385
sg19
S'488b4038'
p386
sg21
Vmov rax, qword ptr [rax + 0x38]
p387
sg5
L601418L
sg6
Nsg23
S'mov'
p388
sg25
S'0x92d4aL'
p389
sg27
Nsba(ibclass
BInstr
p390
(dp391
g2
Nsg17
S'mov     rax, [rax+20h]'
p392
sg19
S'488b4020'
p393
sg21
Vmov rax, qword ptr [rax + 0x20]
p394
sg5
L601422L
sg6
Nsg23
S'mov'
p395
sg25
S'0x92d4eL'
p396
sg27
Nsba(ibclass
BInstr
p397
(dp398
g2
Nsg17
S'movzx   eax, byte ptr [rax]'
p399
sg19
S'0fb600'
p400
sg21
Vmovzx eax, byte ptr [rax]
p401
sg5
L601426L
sg6
Nsg23
S'movzx'
p402
sg25
S'0x92d52L'
p403
sg27
Nsba(ibclass
BInstr
p404
(dp405
g2
Nsg17
S'cmp     al, 27h'
p406
sg19
S'3c27'
p407
sg21
Vcmp al, 0x27
p408
sg5
L601429L
sg6
Nsg23
S'cmp'
p409
sg25
S'0x92d55L'
p410
sg27
Nsba(ibclass
BInstr
p411
(dp412
g2
Nsg17
S'jnz     short loc_92DC0'
p413
sg19
S'7567'
p414
sg21
Vjne 0x69
p415
sg5
L601431L
sg6
Nsg23
S'jnz'
p416
sg25
S'0x92d57L'
p417
sg27
Nsbasg98
(lp418
S'mov reg, mem'
p419
aS'mov reg, mem'
p420
aS'mov reg, mem'
p421
aS'movzx reg, mem'
p422
aS'cmp reg, 27h'
p423
aS'jnz func'
p424
asg111
Nsg5
S'0x92d46L'
p425
sg113
(lp426
S'0x92cb2L'
p427
asg6
Nsg115
(lp428
S'0x92d59L'
p429
aS'0x92dc0L'
p430
asg119
Nsg120
Nsg121
S'8f3f680eb64f543d58e9f30e939c868c'
p431
sg123
S'63a1eb026a445180ebb9466e15fd5878'
p432
sg125
(lp433
g381
ag388
ag395
ag402
ag409
ag416
asg127
Nsba(ibclass
BBasicBlock
p434
(dp435
g12
Nsg13
(lp436
(ibclass
BInstr
p437
(dp438
g2
Nsg17
S'mov     rax, [rbp+ctxt]'
p439
sg19
S'488b45e8'
p440
sg21
Vmov rax, qword ptr [rbp - 0x18]
p441
sg5
L601433L
sg6
Nsg23
S'mov'
p442
sg25
S'0x92d59L'
p443
sg27
Nsba(ibclass
BInstr
p444
(dp445
g2
Nsg17
S'mov     rdi, rax        ; ctxt'
p446
sg19
S'4889c7'
p447
sg21
Vmov rdi, rax
p448
sg5
L601437L
sg6
Nsg23
S'mov'
p449
sg25
S'0x92d5dL'
p450
sg27
Nsba(ibclass
BInstr
p451
(dp452
g2
Nsg17
S'call    xmlNextChar__internal_alias'
p453
sg19
S'e89b33faff'
p454
sg21
Vcall 0xfffffffffffa33a0
p455
sg5
L601440L
sg6
Nsg23
S'call'
p456
sg25
S'0x92d60L'
p457
sg27
Nsba(ibclass
BInstr
p458
(dp459
g2
Nsg17
S'mov     rax, [rbp+ctxt]'
p460
sg19
S'488b45e8'
p461
sg21
Vmov rax, qword ptr [rbp - 0x18]
p462
sg5
L601445L
sg6
Nsg23
S'mov'
p463
sg25
S'0x92d65L'
p464
sg27
Nsba(ibclass
BInstr
p465
(dp466
g2
Nsg17
S'mov     esi, 27h        ; stop'
p467
sg19
S'be27000000'
p468
sg21
Vmov esi, 0x27
p469
sg5
L601449L
sg6
Nsg23
S'mov'
p470
sg25
S'0x92d69L'
p471
sg27
Nsba(ibclass
BInstr
p472
(dp473
g2
Nsg17
S'mov     rdi, rax        ; ctxt'
p474
sg19
S'4889c7'
p475
sg21
Vmov rdi, rax
p476
sg5
L601454L
sg6
Nsg23
S'mov'
p477
sg25
S'0x92d6eL'
p478
sg27
Nsba(ibclass
BInstr
p479
(dp480
g2
Nsg17
S'call    htmlParseHTMLAttribute'
p481
sg19
S'e848f5ffff'
p482
sg21
Vcall 0xfffffffffffff54d
p483
sg5
L601457L
sg6
Nsg23
S'call'
p484
sg25
S'0x92d71L'
p485
sg27
Nsba(ibclass
BInstr
p486
(dp487
g2
Nsg17
S'mov     [rbp+ret], rax'
p488
sg19
S'488945f8'
p489
sg21
Vmov qword ptr [rbp - 8], rax
p490
sg5
L601462L
sg6
Nsg23
S'mov'
p491
sg25
S'0x92d76L'
p492
sg27
Nsba(ibclass
BInstr
p493
(dp494
g2
Nsg17
S'mov     rax, [rbp+ctxt]'
p495
sg19
S'488b45e8'
p496
sg21
Vmov rax, qword ptr [rbp - 0x18]
p497
sg5
L601466L
sg6
Nsg23
S'mov'
p498
sg25
S'0x92d7aL'
p499
sg27
Nsba(ibclass
BInstr
p500
(dp501
g2
Nsg17
S'mov     rax, [rax+38h]'
p502
sg19
S'488b4038'
p503
sg21
Vmov rax, qword ptr [rax + 0x38]
p504
sg5
L601470L
sg6
Nsg23
S'mov'
p505
sg25
S'0x92d7eL'
p506
sg27
Nsba(ibclass
BInstr
p507
(dp508
g2
Nsg17
S'mov     rax, [rax+20h]'
p509
sg19
S'488b4020'
p510
sg21
Vmov rax, qword ptr [rax + 0x20]
p511
sg5
L601474L
sg6
Nsg23
S'mov'
p512
sg25
S'0x92d82L'
p513
sg27
Nsba(ibclass
BInstr
p514
(dp515
g2
Nsg17
S'movzx   eax, byte ptr [rax]'
p516
sg19
S'0fb600'
p517
sg21
Vmovzx eax, byte ptr [rax]
p518
sg5
L601478L
sg6
Nsg23
S'movzx'
p519
sg25
S'0x92d86L'
p520
sg27
Nsba(ibclass
BInstr
p521
(dp522
g2
Nsg17
S'cmp     al, 27h'
p523
sg19
S'3c27'
p524
sg21
Vcmp al, 0x27
p525
sg5
L601481L
sg6
Nsg23
S'cmp'
p526
sg25
S'0x92d89L'
p527
sg27
Nsba(ibclass
BInstr
p528
(dp529
g2
Nsg17
S'jz      short loc_92DB2'
p530
sg19
S'7425'
p531
sg21
Vje 0x27
p532
sg5
L601483L
sg6
Nsg23
S'jz'
p533
sg25
S'0x92d8bL'
p534
sg27
Nsbasg98
(lp535
S'mov reg, mem'
p536
aS'mov reg, reg'
p537
aS'cregl xmlNextChar__internreg_regias'
p538
aS'mov reg, mem'
p539
aS'mov reg, 27h'
p540
aS'mov reg, reg'
p541
aS'cregl htmlParseHTMLAttribute'
p542
aS'mov mem, reg'
p543
aS'mov reg, mem'
p544
aS'mov reg, mem'
p545
aS'mov reg, mem'
p546
aS'movzx reg, mem'
p547
aS'cmp reg, 27h'
p548
aS'jz func'
p549
asg111
Nsg5
S'0x92d59L'
p550
sg113
(lp551
S'0x92d46L'
p552
asg6
Nsg115
(lp553
S'0x92d8dL'
p554
aS'0x92db2L'
p555
asg119
Nsg120
Nsg121
S'd8e9b0dc2e695c9fff36125ae40fb930'
p556
sg123
S'bdca9267308b168a1bdea243176bf07e'
p557
sg125
(lp558
g442
ag449
ag456
ag463
ag470
ag477
ag484
ag491
ag498
ag505
ag512
ag519
ag526
ag533
asg127
Nsba(ibclass
BBasicBlock
p559
(dp560
g12
Nsg13
(lp561
(ibclass
BInstr
p562
(dp563
g2
Nsg17
S'mov     rax, [rbp+ctxt]'
p564
sg19
S'488b45e8'
p565
sg21
Vmov rax, qword ptr [rbp - 0x18]
p566
sg5
L601485L
sg6
Nsg23
S'mov'
p567
sg25
S'0x92d8dL'
p568
sg27
Nsba(ibclass
BInstr
p569
(dp570
g2
Nsg17
S'mov     r8d, 0          ; str2'
p571
sg19
S'41b800000000'
p572
sg21
Vmov r8d, 0
p573
sg5
L601489L
sg6
Nsg23
S'mov'
p574
sg25
S'0x92d91L'
p575
sg27
Nsba(ibclass
BInstr
p576
(dp577
g2
Nsg17
S'mov     ecx, 0          ; str1'
p578
sg19
S'b900000000'
p579
sg21
Vmov ecx, 0
p580
sg5
L601495L
sg6
Nsg23
S'mov'
p581
sg25
S'0x92d97L'
p582
sg27
Nsba(ibclass
BInstr
p583
(dp584
g2
Nsg17
S'lea     rdx, aAttvalueExpe_1; "AttValue: \' expected\\n"'
p585
sg19
S'488d1566de0e00'
p586
sg21
Vlea rdx, [rip + 0xede66]
p587
sg5
L601500L
sg6
Nsg23
S'lea'
p588
sg25
S'0x92d9cL'
p589
sg27
Nsba(ibclass
BInstr
p590
(dp591
g2
Nsg17
S'mov     esi, 28h        ; error'
p592
sg19
S'be28000000'
p593
sg21
Vmov esi, 0x28
p594
sg5
L601507L
sg6
Nsg23
S'mov'
p595
sg25
S'0x92da3L'
p596
sg27
Nsba(ibclass
BInstr
p597
(dp598
g2
Nsg17
S'mov     rdi, rax        ; ctxt'
p599
sg19
S'4889c7'
p600
sg21
Vmov rdi, rax
p601
sg5
L601512L
sg6
Nsg23
S'mov'
p602
sg25
S'0x92da8L'
p603
sg27
Nsba(ibclass
BInstr
p604
(dp605
g2
Nsg17
S'call    htmlParseErr'
p606
sg19
S'e8f4bdffff'
p607
sg21
Vcall 0xffffffffffffbdf9
p608
sg5
L601515L
sg6
Nsg23
S'call'
p609
sg25
S'0x92dabL'
p610
sg27
Nsba(ibclass
BInstr
p611
(dp612
g2
Nsg17
S'jmp     short loc_92DFF'
p613
sg19
S'eb4d'
p614
sg21
Vjmp 0x4f
p615
sg5
L601520L
sg6
Nsg23
S'jmp'
p616
sg25
S'0x92db0L'
p617
sg27
Nsbasg98
(lp618
S'mov reg, mem'
p619
aS'mov regd, 0'
p620
aS'mov reg, 0'
p621
aS'lea reg, aAttvregueExpe_1'
p622
aS'mov reg, 28h'
p623
aS'mov reg, reg'
p624
aS'cregl htmlParseErr'
p625
aS'jmp func'
p626
asg111
Nsg5
S'0x92d8dL'
p627
sg113
(lp628
S'0x92d59L'
p629
asg6
Nsg115
(lp630
S'0x92dffL'
p631
asg119
Nsg120
Nsg121
S'cd0c60d7da6319d715f5543cab0efcee'
p632
sg123
S'491eccc460c76db02c526842237a18e4'
p633
sg125
(lp634
g567
ag574
ag581
ag588
ag595
ag602
ag609
ag616
asg127
Nsba(ibclass
BBasicBlock
p635
(dp636
g12
Nsg13
(lp637
(ibclass
BInstr
p638
(dp639
g2
Nsg17
S'mov     rax, [rbp+ctxt]'
p640
sg19
S'488b45e8'
p641
sg21
Vmov rax, qword ptr [rbp - 0x18]
p642
sg5
L601522L
sg6
Nsg23
S'mov'
p643
sg25
S'0x92db2L'
p644
sg27
Nsba(ibclass
BInstr
p645
(dp646
g2
Nsg17
S'mov     rdi, rax        ; ctxt'
p647
sg19
S'4889c7'
p648
sg21
Vmov rdi, rax
p649
sg5
L601526L
sg6
Nsg23
S'mov'
p650
sg25
S'0x92db6L'
p651
sg27
Nsba(ibclass
BInstr
p652
(dp653
g2
Nsg17
S'call    xmlNextChar__internal_alias'
p654
sg19
S'e84233faff'
p655
sg21
Vcall 0xfffffffffffa3347
p656
sg5
L601529L
sg6
Nsg23
S'call'
p657
sg25
S'0x92db9L'
p658
sg27
Nsba(ibclass
BInstr
p659
(dp660
g2
Nsg17
S'jmp     short loc_92DFF'
p661
sg19
S'eb3f'
p662
sg21
Vjmp 0x41
p663
sg5
L601534L
sg6
Nsg23
S'jmp'
p664
sg25
S'0x92dbeL'
p665
sg27
Nsbasg98
(lp666
S'mov reg, mem'
p667
aS'mov reg, reg'
p668
aS'cregl xmlNextChar__internreg_regias'
p669
aS'jmp func'
p670
asg111
Nsg5
S'0x92db2L'
p671
sg113
(lp672
S'0x92d59L'
p673
asg6
Nsg115
(lp674
S'0x92dffL'
p675
asg119
Nsg120
Nsg121
S'21359965f3b3ac9d057fd4a2b03f927b'
p676
sg123
S'fb420505660edf9329f34e0d6e2c7584'
p677
sg125
(lp678
g643
ag650
ag657
ag664
asg127
Nsba(ibclass
BBasicBlock
p679
(dp680
g12
Nsg13
(lp681
(ibclass
BInstr
p682
(dp683
g2
Nsg17
S'mov     rax, [rbp+ctxt]'
p684
sg19
S'488b45e8'
p685
sg21
Vmov rax, qword ptr [rbp - 0x18]
p686
sg5
L601536L
sg6
Nsg23
S'mov'
p687
sg25
S'0x92dc0L'
p688
sg27
Nsba(ibclass
BInstr
p689
(dp690
g2
Nsg17
S'mov     esi, 0          ; stop'
p691
sg19
S'be00000000'
p692
sg21
Vmov esi, 0
p693
sg5
L601540L
sg6
Nsg23
S'mov'
p694
sg25
S'0x92dc4L'
p695
sg27
Nsba(ibclass
BInstr
p696
(dp697
g2
Nsg17
S'mov     rdi, rax        ; ctxt'
p698
sg19
S'4889c7'
p699
sg21
Vmov rdi, rax
p700
sg5
L601545L
sg6
Nsg23
S'mov'
p701
sg25
S'0x92dc9L'
p702
sg27
Nsba(ibclass
BInstr
p703
(dp704
g2
Nsg17
S'call    htmlParseHTMLAttribute'
p705
sg19
S'e8edf4ffff'
p706
sg21
Vcall 0xfffffffffffff4f2
p707
sg5
L601548L
sg6
Nsg23
S'call'
p708
sg25
S'0x92dccL'
p709
sg27
Nsba(ibclass
BInstr
p710
(dp711
g2
Nsg17
S'mov     [rbp+ret], rax'
p712
sg19
S'488945f8'
p713
sg21
Vmov qword ptr [rbp - 8], rax
p714
sg5
L601553L
sg6
Nsg23
S'mov'
p715
sg25
S'0x92dd1L'
p716
sg27
Nsba(ibclass
BInstr
p717
(dp718
g2
Nsg17
S'cmp     [rbp+ret], 0'
p719
sg19
S'48837df800'
p720
sg21
Vcmp qword ptr [rbp - 8], 0
p721
sg5
L601557L
sg6
Nsg23
S'cmp'
p722
sg25
S'0x92dd5L'
p723
sg27
Nsba(ibclass
BInstr
p724
(dp725
g2
Nsg17
S'jnz     short loc_92DFF'
p726
sg19
S'7523'
p727
sg21
Vjne 0x25
p728
sg5
L601562L
sg6
Nsg23
S'jnz'
p729
sg25
S'0x92ddaL'
p730
sg27
Nsbasg98
(lp731
S'mov reg, mem'
p732
aS'mov reg, 0'
p733
aS'mov reg, reg'
p734
aS'cregl htmlParseHTMLAttribute'
p735
aS'mov mem, reg'
p736
aS'cmp mem, 0'
p737
aS'jnz func'
p738
asg111
Nsg5
S'0x92dc0L'
p739
sg113
(lp740
S'0x92d46L'
p741
asg6
Nsg115
(lp742
S'0x92ddcL'
p743
aS'0x92dffL'
p744
asg119
Nsg120
Nsg121
S'4b92e126ef463a4f8f15195e91fff799'
p745
sg123
S'c0ebebe09141d989ce9c1badb531ac04'
p746
sg125
(lp747
g687
ag694
ag701
ag708
ag715
ag722
ag729
asg127
Nsba(ibclass
BBasicBlock
p748
(dp749
g12
Nsg13
(lp750
(ibclass
BInstr
p751
(dp752
g2
Nsg17
S'mov     rax, [rbp+ctxt]'
p753
sg19
S'488b45e8'
p754
sg21
Vmov rax, qword ptr [rbp - 0x18]
p755
sg5
L601564L
sg6
Nsg23
S'mov'
p756
sg25
S'0x92ddcL'
p757
sg27
Nsba(ibclass
BInstr
p758
(dp759
g2
Nsg17
S'mov     r8d, 0          ; str2'
p760
sg19
S'41b800000000'
p761
sg21
Vmov r8d, 0
p762
sg5
L601568L
sg6
Nsg23
S'mov'
p763
sg25
S'0x92de0L'
p764
sg27
Nsba(ibclass
BInstr
p765
(dp766
g2
Nsg17
S'mov     ecx, 0          ; str1'
p767
sg19
S'b900000000'
p768
sg21
Vmov ecx, 0
p769
sg5
L601574L
sg6
Nsg23
S'mov'
p770
sg25
S'0x92de6L'
p771
sg27
Nsba(ibclass
BInstr
p772
(dp773
g2
Nsg17
S'lea     rdx, aAttvalueNoValu; "AttValue: no value found\\n"'
p774
sg19
S'488d152dde0e00'
p775
sg21
Vlea rdx, [rip + 0xede2d]
p776
sg5
L601579L
sg6
Nsg23
S'lea'
p777
sg25
S'0x92debL'
p778
sg27
Nsba(ibclass
BInstr
p779
(dp780
g2
Nsg17
S'mov     esi, 29h        ; error'
p781
sg19
S'be29000000'
p782
sg21
Vmov esi, 0x29
p783
sg5
L601586L
sg6
Nsg23
S'mov'
p784
sg25
S'0x92df2L'
p785
sg27
Nsba(ibclass
BInstr
p786
(dp787
g2
Nsg17
S'mov     rdi, rax        ; ctxt'
p788
sg19
S'4889c7'
p789
sg21
Vmov rdi, rax
p790
sg5
L601591L
sg6
Nsg23
S'mov'
p791
sg25
S'0x92df7L'
p792
sg27
Nsba(ibclass
BInstr
p793
(dp794
g2
Nsg17
S'call    htmlParseErr'
p795
sg19
S'e8a5bdffff'
p796
sg21
Vcall 0xffffffffffffbdaa
p797
sg5
L601594L
sg6
Nsg23
S'call'
p798
sg25
S'0x92dfaL'
p799
sg27
Nsbasg98
(lp800
S'mov reg, mem'
p801
aS'mov regd, 0'
p802
aS'mov reg, 0'
p803
aS'lea reg, aAttvregueNoVregu'
p804
aS'mov reg, 29h'
p805
aS'mov reg, reg'
p806
aS'cregl htmlParseErr'
p807
asg111
Nsg5
S'0x92ddcL'
p808
sg113
(lp809
S'0x92dc0L'
p810
asg6
Nsg115
(lp811
S'0x92dffL'
p812
asg119
Nsg120
Nsg121
S'9834d8f2896aca99add1e4c8300de384'
p813
sg123
S'5f2708b34e86f4fc7a859270dfaa05e9'
p814
sg125
(lp815
g756
ag763
ag770
ag777
ag784
ag791
ag798
asg127
Nsba(ibclass
BBasicBlock
p816
(dp817
g12
Nsg13
(lp818
(ibclass
BInstr
p819
(dp820
g2
Nsg17
S'mov     rax, [rbp+ret]'
p821
sg19
S'488b45f8'
p822
sg21
Vmov rax, qword ptr [rbp - 8]
p823
sg5
L601599L
sg6
Nsg23
S'mov'
p824
sg25
S'0x92dffL'
p825
sg27
Nsba(ibclass
BInstr
p826
(dp827
g2
Nsg17
S'leave'
p828
sg19
S'c9'
p829
sg21
Vleave 
p830
sg5
L601603L
sg6
Nsg23
S'leave'
p831
sg25
S'0x92e03L'
p832
sg27
Nsba(ibclass
BInstr
p833
(dp834
g2
Nsg17
S'retn'
p835
sg19
S'c3'
p836
sg21
Vret 
p837
sg5
L601604L
sg6
Nsg23
S'retn'
p838
sg25
S'0x92e04L'
p839
sg27
Nsbasg98
(lp840
S'mov reg, mem'
p841
ag828
ag835
asg111
Nsg5
S'0x92dffL'
p842
sg113
(lp843
S'0x92d0dL'
p844
aS'0x92d35L'
p845
aS'0x92d8dL'
p846
aS'0x92db2L'
p847
aS'0x92dc0L'
p848
aS'0x92ddcL'
p849
asg6
Nsg115
(lp850
sg119
Nsg120
Nsg121
S'e1e4fc48a1de649b5336784cb2946f45'
p851
sg123
S'62ec29a89b66f605a858615f2bd1e655'
p852
sg125
(lp853
g824
ag831
ag838
asg127
Nsbasb.