(ibclass
BFunc
p0
(dp1
S'hash'
p2
NsS'name'
p3
S'xmlXPtrNewCollapsedRange__internal_alias'
p4
sS'start_address'
p5
L812846L
sS'flag'
p6
NsS'program'
p7
NsS'bbs'
p8
(lp9
(ibclass
BBasicBlock
p10
(dp11
S'function'
p12
NsS'binstrs'
p13
(lp14
(ibclass
BInstr
p15
(dp16
g2
NsS'disasm'
p17
S"push    rbp             ; Alternative name is 'xmlXPtrNewCollapsedRange'"
p18
sS'bytes'
p19
S'55'
p20
sS'disasm_striped'
p21
Vpush rbp
p22
sg5
L812846L
sg6
NsS'mnem'
p23
S'push'
p24
sS'address'
p25
S'0xc672eL'
p26
sS'basicblock'
p27
Nsba(ibclass
BInstr
p28
(dp29
g2
Nsg17
S'mov     rbp, rsp'
p30
sg19
S'4889e5'
p31
sg21
Vmov rbp, rsp
p32
sg5
L812847L
sg6
Nsg23
S'mov'
p33
sg25
S'0xc672fL'
p34
sg27
Nsba(ibclass
BInstr
p35
(dp36
g2
Nsg17
S'sub     rsp, 20h'
p37
sg19
S'4883ec20'
p38
sg21
Vsub rsp, 0x20
p39
sg5
L812850L
sg6
Nsg23
S'sub'
p40
sg25
S'0xc6732L'
p41
sg27
Nsba(ibclass
BInstr
p42
(dp43
g2
Nsg17
S'mov     [rbp+start], rdi'
p44
sg19
S'48897de8'
p45
sg21
Vmov qword ptr [rbp - 0x18], rdi
p46
sg5
L812854L
sg6
Nsg23
S'mov'
p47
sg25
S'0xc6736L'
p48
sg27
Nsba(ibclass
BInstr
p49
(dp50
g2
Nsg17
S'cmp     [rbp+start], 0'
p51
sg19
S'48837de800'
p52
sg21
Vcmp qword ptr [rbp - 0x18], 0
p53
sg5
L812858L
sg6
Nsg23
S'cmp'
p54
sg25
S'0xc673aL'
p55
sg27
Nsba(ibclass
BInstr
p56
(dp57
g2
Nsg17
S'jnz     short loc_C674B'
p58
sg19
S'750a'
p59
sg21
Vjne 0xc
p60
sg5
L812863L
sg6
Nsg23
S'jnz'
p61
sg25
S'0xc673fL'
p62
sg27
NsbasS'disasm_list'
p63
(lp64
S'push reg'
p65
aS'mov reg, reg'
p66
aS'sub reg, 20h'
p67
aS'mov mem, reg'
p68
aS'cmp mem, 0'
p69
aS'jnz func'
p70
asS'end_address'
p71
Nsg5
S'0xc672eL'
p72
sS'preds'
p73
(lp74
sg6
NsS'succs'
p75
(lp76
S'0xc6741L'
p77
aS'0xc674bL'
p78
asS'hash_v3'
p79
NsS'flag_v2'
p80
NsS'hash_v1'
p81
S'199a18e2a25df667698257df1ddd1c53'
p82
sS'hash_v2'
p83
S'4ae9586721f596fa2ba3cd00b348c048'
p84
sS'mnen_list'
p85
(lp86
g24
ag33
ag40
ag47
ag54
ag61
asS'neighbour_disasm_list'
p87
Nsba(ibclass
BBasicBlock
p88
(dp89
g12
Nsg13
(lp90
(ibclass
BInstr
p91
(dp92
g2
Nsg17
S'mov     eax, 0'
p93
sg19
S'b800000000'
p94
sg21
Vmov eax, 0
p95
sg5
L812865L
sg6
Nsg23
S'mov'
p96
sg25
S'0xc6741L'
p97
sg27
Nsba(ibclass
BInstr
p98
(dp99
g2
Nsg17
S'jmp     locret_C67CC'
p100
sg19
S'e981000000'
p101
sg21
Vjmp 0x86
p102
sg5
L812870L
sg6
Nsg23
S'jmp'
p103
sg25
S'0xc6746L'
p104
sg27
Nsbasg63
(lp105
S'mov reg, 0'
p106
aS'jmp func'
p107
asg71
Nsg5
S'0xc6741L'
p108
sg73
(lp109
S'0xc672eL'
p110
asg6
Nsg75
(lp111
S'0xc67ccL'
p112
asg79
Nsg80
Nsg81
S'8b9a0d40e062be2b9b2d9885108fb196'
p113
sg83
S'b9bc48935b5443504e35a59843f17cfd'
p114
sg85
(lp115
g96
ag103
asg87
Nsba(ibclass
BBasicBlock
p116
(dp117
g12
Nsg13
(lp118
(ibclass
BInstr
p119
(dp120
g2
Nsg17
S'mov     rax, cs:xmlMalloc_ptr'
p121
sg19
S'488b059e862f00'
p122
sg21
Vmov rax, qword ptr [rip + 0x2f869e]
p123
sg5
L812875L
sg6
Nsg23
S'mov'
p124
sg25
S'0xc674bL'
p125
sg27
Nsba(ibclass
BInstr
p126
(dp127
g2
Nsg17
S'mov     rax, [rax]'
p128
sg19
S'488b00'
p129
sg21
Vmov rax, qword ptr [rax]
p130
sg5
L812882L
sg6
Nsg23
S'mov'
p131
sg25
S'0xc6752L'
p132
sg27
Nsba(ibclass
BInstr
p133
(dp134
g2
Nsg17
S'mov     edi, 48h'
p135
sg19
S'bf48000000'
p136
sg21
Vmov edi, 0x48
p137
sg5
L812885L
sg6
Nsg23
S'mov'
p138
sg25
S'0xc6755L'
p139
sg27
Nsba(ibclass
BInstr
p140
(dp141
g2
Nsg17
S'call    rax'
p142
sg19
S'ffd0'
p143
sg21
Vcall rax
p144
sg5
L812890L
sg6
Nsg23
S'call'
p145
sg25
S'0xc675aL'
p146
sg27
Nsba(ibclass
BInstr
p147
(dp148
g2
Nsg17
S'mov     [rbp+ret], rax'
p149
sg19
S'488945f8'
p150
sg21
Vmov qword ptr [rbp - 8], rax
p151
sg5
L812892L
sg6
Nsg23
S'mov'
p152
sg25
S'0xc675cL'
p153
sg27
Nsba(ibclass
BInstr
p154
(dp155
g2
Nsg17
S'cmp     [rbp+ret], 0'
p156
sg19
S'48837df800'
p157
sg21
Vcmp qword ptr [rbp - 8], 0
p158
sg5
L812896L
sg6
Nsg23
S'cmp'
p159
sg25
S'0xc6760L'
p160
sg27
Nsba(ibclass
BInstr
p161
(dp162
g2
Nsg17
S'jnz     short loc_C677A'
p163
sg19
S'7513'
p164
sg21
Vjne 0x15
p165
sg5
L812901L
sg6
Nsg23
S'jnz'
p166
sg25
S'0xc6765L'
p167
sg27
Nsbasg63
(lp168
S'mov reg, cs:xmlMregloc_ptr'
p169
aS'mov reg, mem'
p170
aS'mov reg, 48h'
p171
aS'cregl reg'
p172
aS'mov mem, reg'
p173
aS'cmp mem, 0'
p174
aS'jnz func'
p175
asg71
Nsg5
S'0xc674bL'
p176
sg73
(lp177
S'0xc672eL'
p178
asg6
Nsg75
(lp179
S'0xc6767L'
p180
aS'0xc677aL'
p181
asg79
Nsg80
Nsg81
S'4b92e126ef463a4f8f15195e91fff799'
p182
sg83
S'9febea72f08a54da0312c32f7e064b10'
p183
sg85
(lp184
g124
ag131
ag138
ag145
ag152
ag159
ag166
asg87
Nsba(ibclass
BBasicBlock
p185
(dp186
g12
Nsg13
(lp187
(ibclass
BInstr
p188
(dp189
g2
Nsg17
S'lea     rdi, aAllocatingRang; "allocating range"'
p190
sg19
S'488d3d72e10b00'
p191
sg21
Vlea rdi, [rip + 0xbe172]
p192
sg5
L812903L
sg6
Nsg23
S'lea'
p193
sg25
S'0xc6767L'
p194
sg27
Nsba(ibclass
BInstr
p195
(dp196
g2
Nsg17
S'call    xmlXPtrErrMemory'
p197
sg19
S'e817f5ffff'
p198
sg21
Vcall 0xfffffffffffff51c
p199
sg5
L812910L
sg6
Nsg23
S'call'
p200
sg25
S'0xc676eL'
p201
sg27
Nsba(ibclass
BInstr
p202
(dp203
g2
Nsg17
S'mov     eax, 0'
p204
sg19
S'b800000000'
p205
sg21
Vmov eax, 0
p206
sg5
L812915L
sg6
Nsg23
S'mov'
p207
sg25
S'0xc6773L'
p208
sg27
Nsba(ibclass
BInstr
p209
(dp210
g2
Nsg17
S'jmp     short locret_C67CC'
p211
sg19
S'eb52'
p212
sg21
Vjmp 0x54
p213
sg5
L812920L
sg6
Nsg23
S'jmp'
p214
sg25
S'0xc6778L'
p215
sg27
Nsbasg63
(lp216
S'lea reg, aAllocatingRang'
p217
aS'cregl xmlXPtrErrMemory'
p218
aS'mov reg, 0'
p219
aS'jmp short func'
p220
asg71
Nsg5
S'0xc6767L'
p221
sg73
(lp222
S'0xc674bL'
p223
asg6
Nsg75
(lp224
S'0xc67ccL'
p225
asg79
Nsg80
Nsg81
S'0dc23fd008cf6b8ab05ed1912338b682'
p226
sg83
S'5890bcc1020a02d12ada3a8a58a49381'
p227
sg85
(lp228
g193
ag200
ag207
ag214
asg87
Nsba(ibclass
BBasicBlock
p229
(dp230
g12
Nsg13
(lp231
(ibclass
BInstr
p232
(dp233
g2
Nsg17
S'mov     rax, [rbp+ret]'
p234
sg19
S'488b45f8'
p235
sg21
Vmov rax, qword ptr [rbp - 8]
p236
sg5
L812922L
sg6
Nsg23
S'mov'
p237
sg25
S'0xc677aL'
p238
sg27
Nsba(ibclass
BInstr
p239
(dp240
g2
Nsg17
S'mov     edx, 48h        ; n'
p241
sg19
S'ba48000000'
p242
sg21
Vmov edx, 0x48
p243
sg5
L812926L
sg6
Nsg23
S'mov'
p244
sg25
S'0xc677eL'
p245
sg27
Nsba(ibclass
BInstr
p246
(dp247
g2
Nsg17
S'mov     esi, 0          ; c'
p248
sg19
S'be00000000'
p249
sg21
Vmov esi, 0
p250
sg5
L812931L
sg6
Nsg23
S'mov'
p251
sg25
S'0xc6783L'
p252
sg27
Nsba(ibclass
BInstr
p253
(dp254
g2
Nsg17
S'mov     rdi, rax        ; s'
p255
sg19
S'4889c7'
p256
sg21
Vmov rdi, rax
p257
sg5
L812936L
sg6
Nsg23
S'mov'
p258
sg25
S'0xc6788L'
p259
sg27
Nsba(ibclass
BInstr
p260
(dp261
g2
Nsg17
S'call    memset'
p262
sg19
S'e8e058f6ff'
p263
sg21
Vcall 0xfffffffffff658e5
p264
sg5
L812939L
sg6
Nsg23
S'call'
p265
sg25
S'0xc678bL'
p266
sg27
Nsba(ibclass
BInstr
p267
(dp268
g2
Nsg17
S'mov     rax, [rbp+ret]'
p269
sg19
S'488b45f8'
p270
sg21
Vmov rax, qword ptr [rbp - 8]
p271
sg5
L812944L
sg6
Nsg23
S'mov'
p272
sg25
S'0xc6790L'
p273
sg27
Nsba(ibclass
BInstr
p274
(dp275
g2
Nsg17
S'mov     dword ptr [rax], 6'
p276
sg19
S'c70006000000'
p277
sg21
Vmov dword ptr [rax], 6
p278
sg5
L812948L
sg6
Nsg23
S'mov'
p279
sg25
S'0xc6794L'
p280
sg27
Nsba(ibclass
BInstr
p281
(dp282
g2
Nsg17
S'mov     rax, [rbp+ret]'
p283
sg19
S'488b45f8'
p284
sg21
Vmov rax, qword ptr [rbp - 8]
p285
sg5
L812954L
sg6
Nsg23
S'mov'
p286
sg25
S'0xc679aL'
p287
sg27
Nsba(ibclass
BInstr
p288
(dp289
g2
Nsg17
S'mov     rdx, [rbp+start]'
p290
sg19
S'488b55e8'
p291
sg21
Vmov rdx, qword ptr [rbp - 0x18]
p292
sg5
L812958L
sg6
Nsg23
S'mov'
p293
sg25
S'0xc679eL'
p294
sg27
Nsba(ibclass
BInstr
p295
(dp296
g2
Nsg17
S'mov     [rax+28h], rdx'
p297
sg19
S'48895028'
p298
sg21
Vmov qword ptr [rax + 0x28], rdx
p299
sg5
L812962L
sg6
Nsg23
S'mov'
p300
sg25
S'0xc67a2L'
p301
sg27
Nsba(ibclass
BInstr
p302
(dp303
g2
Nsg17
S'mov     rax, [rbp+ret]'
p304
sg19
S'488b45f8'
p305
sg21
Vmov rax, qword ptr [rbp - 8]
p306
sg5
L812966L
sg6
Nsg23
S'mov'
p307
sg25
S'0xc67a6L'
p308
sg27
Nsba(ibclass
BInstr
p309
(dp310
g2
Nsg17
S'mov     dword ptr [rax+30h], 0FFFFFFFFh'
p311
sg19
S'c74030ffffffff'
p312
sg21
Vmov dword ptr [rax + 0x30], 0xffffffff
p313
sg5
L812970L
sg6
Nsg23
S'mov'
p314
sg25
S'0xc67aaL'
p315
sg27
Nsba(ibclass
BInstr
p316
(dp317
g2
Nsg17
S'mov     rax, [rbp+ret]'
p318
sg19
S'488b45f8'
p319
sg21
Vmov rax, qword ptr [rbp - 8]
p320
sg5
L812977L
sg6
Nsg23
S'mov'
p321
sg25
S'0xc67b1L'
p322
sg27
Nsba(ibclass
BInstr
p323
(dp324
g2
Nsg17
S'mov     qword ptr [rax+38h], 0'
p325
sg19
S'48c7403800000000'
p326
sg21
Vmov qword ptr [rax + 0x38], 0
p327
sg5
L812981L
sg6
Nsg23
S'mov'
p328
sg25
S'0xc67b5L'
p329
sg27
Nsba(ibclass
BInstr
p330
(dp331
g2
Nsg17
S'mov     rax, [rbp+ret]'
p332
sg19
S'488b45f8'
p333
sg21
Vmov rax, qword ptr [rbp - 8]
p334
sg5
L812989L
sg6
Nsg23
S'mov'
p335
sg25
S'0xc67bdL'
p336
sg27
Nsba(ibclass
BInstr
p337
(dp338
g2
Nsg17
S'mov     dword ptr [rax+40h], 0FFFFFFFFh'
p339
sg19
S'c74040ffffffff'
p340
sg21
Vmov dword ptr [rax + 0x40], 0xffffffff
p341
sg5
L812993L
sg6
Nsg23
S'mov'
p342
sg25
S'0xc67c1L'
p343
sg27
Nsba(ibclass
BInstr
p344
(dp345
g2
Nsg17
S'mov     rax, [rbp+ret]'
p346
sg19
S'488b45f8'
p347
sg21
Vmov rax, qword ptr [rbp - 8]
p348
sg5
L813000L
sg6
Nsg23
S'mov'
p349
sg25
S'0xc67c8L'
p350
sg27
Nsbasg63
(lp351
S'mov reg, mem'
p352
aS'mov reg, 48h'
p353
aS'mov reg, 0'
p354
aS'mov reg, reg'
p355
aS'cregl memset'
p356
aS'mov reg, mem'
p357
aS'mov mem, 6'
p358
aS'mov reg, mem'
p359
aS'mov reg, mem'
p360
aS'mov mem, reg'
p361
aS'mov reg, mem'
p362
aS'mov mem, 0FFFFFFFFh'
p363
aS'mov reg, mem'
p364
aS'mov qmem, 0'
p365
aS'mov reg, mem'
p366
aS'mov mem, 0FFFFFFFFh'
p367
aS'mov reg, mem'
p368
asg71
Nsg5
S'0xc677aL'
p369
sg73
(lp370
S'0xc674bL'
p371
asg6
Nsg75
(lp372
S'0xc67ccL'
p373
asg79
Nsg80
Nsg81
S'779eda9b424a1367320bc4ccb812da57'
p374
sg83
S'9c42b76223918275279598eafd9b8802'
p375
sg85
(lp376
g237
ag244
ag251
ag258
ag265
ag272
ag279
ag286
ag293
ag300
ag307
ag314
ag321
ag328
ag335
ag342
ag349
asg87
Nsba(ibclass
BBasicBlock
p377
(dp378
g12
Nsg13
(lp379
(ibclass
BInstr
p380
(dp381
g2
Nsg17
S'leave'
p382
sg19
S'c9'
p383
sg21
Vleave 
p384
sg5
L813004L
sg6
Nsg23
S'leave'
p385
sg25
S'0xc67ccL'
p386
sg27
Nsba(ibclass
BInstr
p387
(dp388
g2
Nsg17
S'retn'
p389
sg19
S'c3'
p390
sg21
Vret 
p391
sg5
L813005L
sg6
Nsg23
S'retn'
p392
sg25
S'0xc67cdL'
p393
sg27
Nsbasg63
(lp394
g382
ag389
asg71
Nsg5
S'0xc67ccL'
p395
sg73
(lp396
S'0xc6741L'
p397
aS'0xc6767L'
p398
aS'0xc677aL'
p399
asg6
Nsg75
(lp400
sg79
Nsg80
Nsg81
S'08c78f73a6f87c85da88b2982f54ce2a'
p401
sg83
S'08c78f73a6f87c85da88b2982f54ce2a'
p402
sg85
(lp403
g385
ag392
asg87
Nsbasb.