(ibclass
BFunc
p0
(dp1
S'hash'
p2
NsS'name'
p3
S'xmlDictComputeFastQKey'
p4
sS'start_address'
p5
L1401169L
sS'flag'
p6
NsS'program'
p7
NsS'bbs'
p8
(lp9
(ibclass
BBasicBlock
p10
(dp11
S'function'
p12
NsS'binstrs'
p13
(lp14
(ibclass
BInstr
p15
(dp16
g2
NsS'disasm'
p17
S'push    rbp'
p18
sS'bytes'
p19
S'55'
p20
sS'disasm_striped'
p21
Vpush rbp
p22
sg5
L1401169L
sg6
NsS'mnem'
p23
S'push'
p24
sS'address'
p25
S'0x156151L'
p26
sS'basicblock'
p27
Nsba(ibclass
BInstr
p28
(dp29
g2
Nsg17
S'mov     rbp, rsp'
p30
sg19
S'4889e5'
p31
sg21
Vmov rbp, rsp
p32
sg5
L1401170L
sg6
Nsg23
S'mov'
p33
sg25
S'0x156152L'
p34
sg27
Nsba(ibclass
BInstr
p35
(dp36
g2
Nsg17
S'mov     [rbp+prefix], rdi'
p37
sg19
S'48897de8'
p38
sg21
Vmov qword ptr [rbp - 0x18], rdi
p39
sg5
L1401173L
sg6
Nsg23
S'mov'
p40
sg25
S'0x156155L'
p41
sg27
Nsba(ibclass
BInstr
p42
(dp43
g2
Nsg17
S'mov     [rbp+plen], esi'
p44
sg19
S'8975e4'
p45
sg21
Vmov dword ptr [rbp - 0x1c], esi
p46
sg5
L1401177L
sg6
Nsg23
S'mov'
p47
sg25
S'0x156159L'
p48
sg27
Nsba(ibclass
BInstr
p49
(dp50
g2
Nsg17
S'mov     [rbp+name], rdx'
p51
sg19
S'488955d8'
p52
sg21
Vmov qword ptr [rbp - 0x28], rdx
p53
sg5
L1401180L
sg6
Nsg23
S'mov'
p54
sg25
S'0x15615cL'
p55
sg27
Nsba(ibclass
BInstr
p56
(dp57
g2
Nsg17
S'mov     [rbp+len], ecx'
p58
sg19
S'894de0'
p59
sg21
Vmov dword ptr [rbp - 0x20], ecx
p60
sg5
L1401184L
sg6
Nsg23
S'mov'
p61
sg25
S'0x156160L'
p62
sg27
Nsba(ibclass
BInstr
p63
(dp64
g2
Nsg17
S'mov     [rbp+seed], r8d'
p65
sg19
S'448945d4'
p66
sg21
Vmov dword ptr [rbp - 0x2c], r8d
p67
sg5
L1401187L
sg6
Nsg23
S'mov'
p68
sg25
S'0x156163L'
p69
sg27
Nsba(ibclass
BInstr
p70
(dp71
g2
Nsg17
S'mov     eax, [rbp+seed]'
p72
sg19
S'8b45d4'
p73
sg21
Vmov eax, dword ptr [rbp - 0x2c]
p74
sg5
L1401191L
sg6
Nsg23
S'mov'
p75
sg25
S'0x156167L'
p76
sg27
Nsba(ibclass
BInstr
p77
(dp78
g2
Nsg17
S'cdqe'
p79
sg19
S'4898'
p80
sg21
Vcdqe 
p81
sg5
L1401194L
sg6
Nsg23
S'cdqe'
p82
sg25
S'0x15616aL'
p83
sg27
Nsba(ibclass
BInstr
p84
(dp85
g2
Nsg17
S'mov     [rbp+value], rax'
p86
sg19
S'488945f8'
p87
sg21
Vmov qword ptr [rbp - 8], rax
p88
sg5
L1401196L
sg6
Nsg23
S'mov'
p89
sg25
S'0x15616cL'
p90
sg27
Nsba(ibclass
BInstr
p91
(dp92
g2
Nsg17
S'cmp     [rbp+plen], 0'
p93
sg19
S'837de400'
p94
sg21
Vcmp dword ptr [rbp - 0x1c], 0
p95
sg5
L1401200L
sg6
Nsg23
S'cmp'
p96
sg25
S'0x156170L'
p97
sg27
Nsba(ibclass
BInstr
p98
(dp99
g2
Nsg17
S'jnz     short loc_156180'
p100
sg19
S'750a'
p101
sg21
Vjne 0xc
p102
sg5
L1401204L
sg6
Nsg23
S'jnz'
p103
sg25
S'0x156174L'
p104
sg27
NsbasS'disasm_list'
p105
(lp106
S'push reg'
p107
aS'mov reg, reg'
p108
aS'mov mem, reg'
p109
aS'mov mem, reg'
p110
aS'mov mem, reg'
p111
aS'mov mem, reg'
p112
aS'mov mem, regd'
p113
aS'mov reg, mem'
p114
ag79
aS'mov mem, reg'
p115
aS'cmp mem, 0'
p116
aS'jnz func'
p117
asS'end_address'
p118
Nsg5
S'0x156151L'
p119
sS'preds'
p120
(lp121
sg6
NsS'succs'
p122
(lp123
S'0x156176L'
p124
aS'0x156180L'
p125
asS'hash_v3'
p126
NsS'flag_v2'
p127
NsS'hash_v1'
p128
S'8a0881416d67cb378b75fcc798d45503'
p129
sS'hash_v2'
p130
S'7b3bb2f37a4464ec918d186f7d3a98e8'
p131
sS'mnen_list'
p132
(lp133
g24
ag33
ag40
ag47
ag54
ag61
ag68
ag75
ag82
ag89
ag96
ag103
asS'neighbour_disasm_list'
p134
Nsba(ibclass
BBasicBlock
p135
(dp136
g12
Nsg13
(lp137
(ibclass
BInstr
p138
(dp139
g2
Nsg17
S'add     [rbp+value], 6CCh'
p140
sg19
S'488145f8cc060000'
p141
sg21
Vadd qword ptr [rbp - 8], 0x6cc
p142
sg5
L1401206L
sg6
Nsg23
S'add'
p143
sg25
S'0x156176L'
p144
sg27
Nsba(ibclass
BInstr
p145
(dp146
g2
Nsg17
S'jmp     short loc_15619B'
p147
sg19
S'eb1b'
p148
sg21
Vjmp 0x1d
p149
sg5
L1401214L
sg6
Nsg23
S'jmp'
p150
sg25
S'0x15617eL'
p151
sg27
Nsbasg105
(lp152
S'add mem, 6CCh'
p153
aS'jmp func'
p154
asg118
Nsg5
S'0x156176L'
p155
sg120
(lp156
S'0x156151L'
p157
asg6
Nsg122
(lp158
S'0x15619bL'
p159
asg126
Nsg127
Nsg128
S'2f5fc2d28a4b560475b91fa819afa41f'
p160
sg130
S'391d3f66ea60cb854cd31e6dcf99ea75'
p161
sg132
(lp162
g143
ag150
asg134
Nsba(ibclass
BBasicBlock
p163
(dp164
g12
Nsg13
(lp165
(ibclass
BInstr
p166
(dp167
g2
Nsg17
S'mov     rax, [rbp+prefix]'
p168
sg19
S'488b45e8'
p169
sg21
Vmov rax, qword ptr [rbp - 0x18]
p170
sg5
L1401216L
sg6
Nsg23
S'mov'
p171
sg25
S'0x156180L'
p172
sg27
Nsba(ibclass
BInstr
p173
(dp174
g2
Nsg17
S'movzx   eax, byte ptr [rax]'
p175
sg19
S'0fb600'
p176
sg21
Vmovzx eax, byte ptr [rax]
p177
sg5
L1401220L
sg6
Nsg23
S'movzx'
p178
sg25
S'0x156184L'
p179
sg27
Nsba(ibclass
BInstr
p180
(dp181
g2
Nsg17
S'movzx   eax, al'
p182
sg19
S'0fb6c0'
p183
sg21
Vmovzx eax, al
p184
sg5
L1401223L
sg6
Nsg23
S'movzx'
p185
sg25
S'0x156187L'
p186
sg27
Nsba(ibclass
BInstr
p187
(dp188
g2
Nsg17
S'add     eax, eax'
p189
sg19
S'01c0'
p190
sg21
Vadd eax, eax
p191
sg5
L1401226L
sg6
Nsg23
S'add'
p192
sg25
S'0x15618aL'
p193
sg27
Nsba(ibclass
BInstr
p194
(dp195
g2
Nsg17
S'mov     edx, eax'
p196
sg19
S'89c2'
p197
sg21
Vmov edx, eax
p198
sg5
L1401228L
sg6
Nsg23
S'mov'
p199
sg25
S'0x15618cL'
p200
sg27
Nsba(ibclass
BInstr
p201
(dp202
g2
Nsg17
S'shl     edx, 4'
p203
sg19
S'c1e204'
p204
sg21
Vshl edx, 4
p205
sg5
L1401230L
sg6
Nsg23
S'shl'
p206
sg25
S'0x15618eL'
p207
sg27
Nsba(ibclass
BInstr
p208
(dp209
g2
Nsg17
S'sub     edx, eax'
p210
sg19
S'29c2'
p211
sg21
Vsub edx, eax
p212
sg5
L1401233L
sg6
Nsg23
S'sub'
p213
sg25
S'0x156191L'
p214
sg27
Nsba(ibclass
BInstr
p215
(dp216
g2
Nsg17
S'mov     eax, edx'
p217
sg19
S'89d0'
p218
sg21
Vmov eax, edx
p219
sg5
L1401235L
sg6
Nsg23
S'mov'
p220
sg25
S'0x156193L'
p221
sg27
Nsba(ibclass
BInstr
p222
(dp223
g2
Nsg17
S'cdqe'
p224
sg19
S'4898'
p225
sg21
Vcdqe 
p226
sg5
L1401237L
sg6
Nsg23
S'cdqe'
p227
sg25
S'0x156195L'
p228
sg27
Nsba(ibclass
BInstr
p229
(dp230
g2
Nsg17
S'add     [rbp+value], rax'
p231
sg19
S'480145f8'
p232
sg21
Vadd qword ptr [rbp - 8], rax
p233
sg5
L1401239L
sg6
Nsg23
S'add'
p234
sg25
S'0x156197L'
p235
sg27
Nsbasg105
(lp236
S'mov reg, mem'
p237
aS'movzx reg, mem'
p238
aS'movzx reg, reg'
p239
aS'add reg, reg'
p240
aS'mov reg, reg'
p241
aS'shl reg, 4'
p242
aS'sub reg, reg'
p243
aS'mov reg, reg'
p244
ag224
aS'add mem, reg'
p245
asg118
Nsg5
S'0x156180L'
p246
sg120
(lp247
S'0x156151L'
p248
asg6
Nsg122
(lp249
S'0x15619bL'
p250
asg126
Nsg127
Nsg128
S'a61095665836cb85ba2433b395f0806e'
p251
sg130
S'6148e9fb9265df526fb7d05de2672137'
p252
sg132
(lp253
g171
ag178
ag185
ag192
ag199
ag206
ag213
ag220
ag227
ag234
asg134
Nsba(ibclass
BBasicBlock
p254
(dp255
g12
Nsg13
(lp256
(ibclass
BInstr
p257
(dp258
g2
Nsg17
S'cmp     [rbp+len], 0Ah'
p259
sg19
S'837de00a'
p260
sg21
Vcmp dword ptr [rbp - 0x20], 0xa
p261
sg5
L1401243L
sg6
Nsg23
S'cmp'
p262
sg25
S'0x15619bL'
p263
sg27
Nsba(ibclass
BInstr
p264
(dp265
g2
Nsg17
S'jle     short loc_1561D4'
p266
sg19
S'7e33'
p267
sg21
Vjle 0x35
p268
sg5
L1401247L
sg6
Nsg23
S'jle'
p269
sg25
S'0x15619fL'
p270
sg27
Nsbasg105
(lp271
S'cmp mem, 0Ah'
p272
aS'jle func'
p273
asg118
Nsg5
S'0x15619bL'
p274
sg120
(lp275
S'0x156176L'
p276
aS'0x156180L'
p277
asg6
Nsg122
(lp278
S'0x1561a1L'
p279
aS'0x1561d4L'
p280
asg126
Nsg127
Nsg128
S'0bc4bf9881c1ed8eb91420cf78755dd7'
p281
sg130
S'35673006fa4660a966f0c88315c502a7'
p282
sg132
(lp283
g262
ag269
asg134
Nsba(ibclass
BBasicBlock
p284
(dp285
g12
Nsg13
(lp286
(ibclass
BInstr
p287
(dp288
g2
Nsg17
S'mov     eax, [rbp+plen]'
p289
sg19
S'8b45e4'
p290
sg21
Vmov eax, dword ptr [rbp - 0x1c]
p291
sg5
L1401249L
sg6
Nsg23
S'mov'
p292
sg25
S'0x1561a1L'
p293
sg27
Nsba(ibclass
BInstr
p294
(dp295
g2
Nsg17
S'lea     edx, [rax+2]'
p296
sg19
S'8d5002'
p297
sg21
Vlea edx, [rax + 2]
p298
sg5
L1401252L
sg6
Nsg23
S'lea'
p299
sg25
S'0x1561a4L'
p300
sg27
Nsba(ibclass
BInstr
p301
(dp302
g2
Nsg17
S'mov     eax, [rbp+len]'
p303
sg19
S'8b45e0'
p304
sg21
Vmov eax, dword ptr [rbp - 0x20]
p305
sg5
L1401255L
sg6
Nsg23
S'mov'
p306
sg25
S'0x1561a7L'
p307
sg27
Nsba(ibclass
BInstr
p308
(dp309
g2
Nsg17
S'sub     eax, edx'
p310
sg19
S'29d0'
p311
sg21
Vsub eax, edx
p312
sg5
L1401258L
sg6
Nsg23
S'sub'
p313
sg25
S'0x1561aaL'
p314
sg27
Nsba(ibclass
BInstr
p315
(dp316
g2
Nsg17
S'movsxd  rdx, eax'
p317
sg19
S'4863d0'
p318
sg21
Vmovsxd rdx, eax
p319
sg5
L1401260L
sg6
Nsg23
S'movsxd'
p320
sg25
S'0x1561acL'
p321
sg27
Nsba(ibclass
BInstr
p322
(dp323
g2
Nsg17
S'mov     rax, [rbp+name]'
p324
sg19
S'488b45d8'
p325
sg21
Vmov rax, qword ptr [rbp - 0x28]
p326
sg5
L1401263L
sg6
Nsg23
S'mov'
p327
sg25
S'0x1561afL'
p328
sg27
Nsba(ibclass
BInstr
p329
(dp330
g2
Nsg17
S'add     rax, rdx'
p331
sg19
S'4801d0'
p332
sg21
Vadd rax, rdx
p333
sg5
L1401267L
sg6
Nsg23
S'add'
p334
sg25
S'0x1561b3L'
p335
sg27
Nsba(ibclass
BInstr
p336
(dp337
g2
Nsg17
S'movzx   eax, byte ptr [rax]'
p338
sg19
S'0fb600'
p339
sg21
Vmovzx eax, byte ptr [rax]
p340
sg5
L1401270L
sg6
Nsg23
S'movzx'
p341
sg25
S'0x1561b6L'
p342
sg27
Nsba(ibclass
BInstr
p343
(dp344
g2
Nsg17
S'movzx   eax, al'
p345
sg19
S'0fb6c0'
p346
sg21
Vmovzx eax, al
p347
sg5
L1401273L
sg6
Nsg23
S'movzx'
p348
sg25
S'0x1561b9L'
p349
sg27
Nsba(ibclass
BInstr
p350
(dp351
g2
Nsg17
S'add     [rbp+value], rax'
p352
sg19
S'480145f8'
p353
sg21
Vadd qword ptr [rbp - 8], rax
p354
sg5
L1401276L
sg6
Nsg23
S'add'
p355
sg25
S'0x1561bcL'
p356
sg27
Nsba(ibclass
BInstr
p357
(dp358
g2
Nsg17
S'mov     [rbp+len], 0Ah'
p359
sg19
S'c745e00a000000'
p360
sg21
Vmov dword ptr [rbp - 0x20], 0xa
p361
sg5
L1401280L
sg6
Nsg23
S'mov'
p362
sg25
S'0x1561c0L'
p363
sg27
Nsba(ibclass
BInstr
p364
(dp365
g2
Nsg17
S'cmp     [rbp+plen], 0Ah'
p366
sg19
S'837de40a'
p367
sg21
Vcmp dword ptr [rbp - 0x1c], 0xa
p368
sg5
L1401287L
sg6
Nsg23
S'cmp'
p369
sg25
S'0x1561c7L'
p370
sg27
Nsba(ibclass
BInstr
p371
(dp372
g2
Nsg17
S'jle     short loc_1561D4'
p373
sg19
S'7e07'
p374
sg21
Vjle 9
p375
sg5
L1401291L
sg6
Nsg23
S'jle'
p376
sg25
S'0x1561cbL'
p377
sg27
Nsbasg105
(lp378
S'mov reg, mem'
p379
aS'lea reg, mem'
p380
aS'mov reg, mem'
p381
aS'sub reg, reg'
p382
aS'movsxd reg, reg'
p383
aS'mov reg, mem'
p384
aS'add reg, reg'
p385
aS'movzx reg, mem'
p386
aS'movzx reg, reg'
p387
aS'add mem, reg'
p388
aS'mov mem, 0Ah'
p389
aS'cmp mem, 0Ah'
p390
aS'jle func'
p391
asg118
Nsg5
S'0x1561a1L'
p392
sg120
(lp393
S'0x15619bL'
p394
asg6
Nsg122
(lp395
S'0x1561cdL'
p396
aS'0x1561d4L'
p397
asg126
Nsg127
Nsg128
S'adc8e5732cc1e4cb4195367d7d8b65a3'
p398
sg130
S'd025974418c49afdc92e62653ec3781f'
p399
sg132
(lp400
g292
ag299
ag306
ag313
ag320
ag327
ag334
ag341
ag348
ag355
ag362
ag369
ag376
asg134
Nsba(ibclass
BBasicBlock
p401
(dp402
g12
Nsg13
(lp403
(ibclass
BInstr
p404
(dp405
g2
Nsg17
S'mov     [rbp+plen], 0Ah'
p406
sg19
S'c745e40a000000'
p407
sg21
Vmov dword ptr [rbp - 0x1c], 0xa
p408
sg5
L1401293L
sg6
Nsg23
S'mov'
p409
sg25
S'0x1561cdL'
p410
sg27
Nsbasg105
(lp411
S'mov mem, 0Ah'
p412
asg118
Nsg5
S'0x1561cdL'
p413
sg120
(lp414
S'0x1561a1L'
p415
asg6
Nsg122
(lp416
S'0x1561d4L'
p417
asg126
Nsg127
Nsg128
S'96a4a0e6e9ac88756a0fcba989d0a844'
p418
sg130
S'f0696f75765d4e1a221509c26303ed09'
p419
sg132
(lp420
g409
asg134
Nsba(ibclass
BBasicBlock
p421
(dp422
g12
Nsg13
(lp423
(ibclass
BInstr
p424
(dp425
g2
Nsg17
S'cmp     [rbp+plen], 0Ah'
p426
sg19
S'837de40a'
p427
sg21
Vcmp dword ptr [rbp - 0x1c], 0xa
p428
sg5
L1401300L
sg6
Nsg23
S'cmp'
p429
sg25
S'0x1561d4L'
p430
sg27
Nsba(ibclass
BInstr
p431
(dp432
g2
Nsg17
S'ja      loc_1562B2'
p433
sg19
S'0f87d4000000'
p434
sg21
Vja 0xda
p435
sg5
L1401304L
sg6
Nsg23
S'ja'
p436
sg25
S'0x1561d8L'
p437
sg27
Nsbasg105
(lp438
S'cmp mem, 0Ah'
p439
aS'ja func'
p440
asg118
Nsg5
S'0x1561d4L'
p441
sg120
(lp442
S'0x15619bL'
p443
aS'0x1561a1L'
p444
aS'0x1561cdL'
p445
asg6
Nsg122
(lp446
S'0x1561deL'
p447
aS'0x1562b2L'
p448
asg126
Nsg127
Nsg128
S'5ee79b999041868da271272ad202dbc3'
p449
sg130
S'5b5a8e9006036eeb5b5a3cdc21055919'
p450
sg132
(lp451
g429
ag436
asg134
Nsba(ibclass
BBasicBlock
p452
(dp453
g12
Nsg13
(lp454
(ibclass
BInstr
p455
(dp456
g2
Nsg17
S'mov     eax, [rbp+plen]'
p457
sg19
S'8b45e4'
p458
sg21
Vmov eax, dword ptr [rbp - 0x1c]
p459
sg5
L1401310L
sg6
Nsg23
S'mov'
p460
sg25
S'0x1561deL'
p461
sg27
Nsba(ibclass
BInstr
p462
(dp463
g2
Nsg17
S'lea     rdx, ds:0[rax*4]'
p464
sg19
S'488d148500000000'
p465
sg21
Vlea rdx, [rax*4]
p466
sg5
L1401313L
sg6
Nsg23
S'lea'
p467
sg25
S'0x1561e1L'
p468
sg27
Nsba(ibclass
BInstr
p469
(dp470
g2
Nsg17
S'lea     rax, unk_1969CC'
p471
sg19
S'488d05dc070400'
p472
sg21
Vlea rax, [rip + 0x407dc]
p473
sg5
L1401321L
sg6
Nsg23
S'lea'
p474
sg25
S'0x1561e9L'
p475
sg27
Nsba(ibclass
BInstr
p476
(dp477
g2
Nsg17
S'mov     eax, [rdx+rax]'
p478
sg19
S'8b0402'
p479
sg21
Vmov eax, dword ptr [rdx + rax]
p480
sg5
L1401328L
sg6
Nsg23
S'mov'
p481
sg25
S'0x1561f0L'
p482
sg27
Nsba(ibclass
BInstr
p483
(dp484
g2
Nsg17
S'movsxd  rdx, eax'
p485
sg19
S'4863d0'
p486
sg21
Vmovsxd rdx, eax
p487
sg5
L1401331L
sg6
Nsg23
S'movsxd'
p488
sg25
S'0x1561f3L'
p489
sg27
Nsba(ibclass
BInstr
p490
(dp491
g2
Nsg17
S'lea     rax, unk_1969CC'
p492
sg19
S'488d05cf070400'
p493
sg21
Vlea rax, [rip + 0x407cf]
p494
sg5
L1401334L
sg6
Nsg23
S'lea'
p495
sg25
S'0x1561f6L'
p496
sg27
Nsba(ibclass
BInstr
p497
(dp498
g2
Nsg17
S'add     rax, rdx'
p499
sg19
S'4801d0'
p500
sg21
Vadd rax, rdx
p501
sg5
L1401341L
sg6
Nsg23
S'add'
p502
sg25
S'0x1561fdL'
p503
sg27
Nsba(ibclass
BInstr
p504
(dp505
g2
Nsg17
S'jmp     rax'
p506
sg19
S'ffe0'
p507
sg21
Vjmp rax
p508
sg5
L1401344L
sg6
Nsg23
S'jmp'
p509
sg25
S'0x156200L'
p510
sg27
Nsbasg105
(lp511
S'mov reg, mem'
p512
aS'lea reg, ds:0mem'
p513
aS'lea reg, func'
p514
aS'mov reg, mem'
p515
aS'movsxd reg, reg'
p516
aS'lea reg, func'
p517
aS'add reg, reg'
p518
aS'jmp reg'
p519
asg118
Nsg5
S'0x1561deL'
p520
sg120
(lp521
S'0x1561d4L'
p522
asg6
Nsg122
(lp523
sg126
Nsg127
Nsg128
S'6408ea1f78b77e0f3820483dfac531f6'
p524
sg130
S'b3b683543d8008eac4fe140a4f417e5f'
p525
sg132
(lp526
g460
ag467
ag474
ag481
ag488
ag495
ag502
ag509
asg134
Nsba(ibclass
BBasicBlock
p527
(dp528
g12
Nsg13
(lp529
(ibclass
BInstr
p530
(dp531
g2
Nsg17
S'mov     rax, [rbp+prefix]'
p532
sg19
S'488b45e8'
p533
sg21
Vmov rax, qword ptr [rbp - 0x18]
p534
sg5
L1401346L
sg6
Nsg23
S'mov'
p535
sg25
S'0x156202L'
p536
sg27
Nsba(ibclass
BInstr
p537
(dp538
g2
Nsg17
S'add     rax, 9'
p539
sg19
S'4883c009'
p540
sg21
Vadd rax, 9
p541
sg5
L1401350L
sg6
Nsg23
S'add'
p542
sg25
S'0x156206L'
p543
sg27
Nsba(ibclass
BInstr
p544
(dp545
g2
Nsg17
S'movzx   eax, byte ptr [rax]'
p546
sg19
S'0fb600'
p547
sg21
Vmovzx eax, byte ptr [rax]
p548
sg5
L1401354L
sg6
Nsg23
S'movzx'
p549
sg25
S'0x15620aL'
p550
sg27
Nsba(ibclass
BInstr
p551
(dp552
g2
Nsg17
S'movzx   eax, al'
p553
sg19
S'0fb6c0'
p554
sg21
Vmovzx eax, al
p555
sg5
L1401357L
sg6
Nsg23
S'movzx'
p556
sg25
S'0x15620dL'
p557
sg27
Nsba(ibclass
BInstr
p558
(dp559
g2
Nsg17
S'add     [rbp+value], rax'
p560
sg19
S'480145f8'
p561
sg21
Vadd qword ptr [rbp - 8], rax
p562
sg5
L1401360L
sg6
Nsg23
S'add'
p563
sg25
S'0x156210L'
p564
sg27
Nsba(ibclass
BInstr
p565
(dp566
g2
Nsg17
S'mov     rax, [rbp+prefix]'
p567
sg19
S'488b45e8'
p568
sg21
Vmov rax, qword ptr [rbp - 0x18]
p569
sg5
L1401364L
sg6
Nsg23
S'mov'
p570
sg25
S'0x156214L'
p571
sg27
Nsba(ibclass
BInstr
p572
(dp573
g2
Nsg17
S'add     rax, 8'
p574
sg19
S'4883c008'
p575
sg21
Vadd rax, 8
p576
sg5
L1401368L
sg6
Nsg23
S'add'
p577
sg25
S'0x156218L'
p578
sg27
Nsba(ibclass
BInstr
p579
(dp580
g2
Nsg17
S'movzx   eax, byte ptr [rax]'
p581
sg19
S'0fb600'
p582
sg21
Vmovzx eax, byte ptr [rax]
p583
sg5
L1401372L
sg6
Nsg23
S'movzx'
p584
sg25
S'0x15621cL'
p585
sg27
Nsba(ibclass
BInstr
p586
(dp587
g2
Nsg17
S'movzx   eax, al'
p588
sg19
S'0fb6c0'
p589
sg21
Vmovzx eax, al
p590
sg5
L1401375L
sg6
Nsg23
S'movzx'
p591
sg25
S'0x15621fL'
p592
sg27
Nsba(ibclass
BInstr
p593
(dp594
g2
Nsg17
S'add     [rbp+value], rax'
p595
sg19
S'480145f8'
p596
sg21
Vadd qword ptr [rbp - 8], rax
p597
sg5
L1401378L
sg6
Nsg23
S'add'
p598
sg25
S'0x156222L'
p599
sg27
Nsba(ibclass
BInstr
p600
(dp601
g2
Nsg17
S'mov     rax, [rbp+prefix]'
p602
sg19
S'488b45e8'
p603
sg21
Vmov rax, qword ptr [rbp - 0x18]
p604
sg5
L1401382L
sg6
Nsg23
S'mov'
p605
sg25
S'0x156226L'
p606
sg27
Nsba(ibclass
BInstr
p607
(dp608
g2
Nsg17
S'add     rax, 7'
p609
sg19
S'4883c007'
p610
sg21
Vadd rax, 7
p611
sg5
L1401386L
sg6
Nsg23
S'add'
p612
sg25
S'0x15622aL'
p613
sg27
Nsba(ibclass
BInstr
p614
(dp615
g2
Nsg17
S'movzx   eax, byte ptr [rax]'
p616
sg19
S'0fb600'
p617
sg21
Vmovzx eax, byte ptr [rax]
p618
sg5
L1401390L
sg6
Nsg23
S'movzx'
p619
sg25
S'0x15622eL'
p620
sg27
Nsba(ibclass
BInstr
p621
(dp622
g2
Nsg17
S'movzx   eax, al'
p623
sg19
S'0fb6c0'
p624
sg21
Vmovzx eax, al
p625
sg5
L1401393L
sg6
Nsg23
S'movzx'
p626
sg25
S'0x156231L'
p627
sg27
Nsba(ibclass
BInstr
p628
(dp629
g2
Nsg17
S'add     [rbp+value], rax'
p630
sg19
S'480145f8'
p631
sg21
Vadd qword ptr [rbp - 8], rax
p632
sg5
L1401396L
sg6
Nsg23
S'add'
p633
sg25
S'0x156234L'
p634
sg27
Nsba(ibclass
BInstr
p635
(dp636
g2
Nsg17
S'mov     rax, [rbp+prefix]'
p637
sg19
S'488b45e8'
p638
sg21
Vmov rax, qword ptr [rbp - 0x18]
p639
sg5
L1401400L
sg6
Nsg23
S'mov'
p640
sg25
S'0x156238L'
p641
sg27
Nsba(ibclass
BInstr
p642
(dp643
g2
Nsg17
S'add     rax, 6'
p644
sg19
S'4883c006'
p645
sg21
Vadd rax, 6
p646
sg5
L1401404L
sg6
Nsg23
S'add'
p647
sg25
S'0x15623cL'
p648
sg27
Nsba(ibclass
BInstr
p649
(dp650
g2
Nsg17
S'movzx   eax, byte ptr [rax]'
p651
sg19
S'0fb600'
p652
sg21
Vmovzx eax, byte ptr [rax]
p653
sg5
L1401408L
sg6
Nsg23
S'movzx'
p654
sg25
S'0x156240L'
p655
sg27
Nsba(ibclass
BInstr
p656
(dp657
g2
Nsg17
S'movzx   eax, al'
p658
sg19
S'0fb6c0'
p659
sg21
Vmovzx eax, al
p660
sg5
L1401411L
sg6
Nsg23
S'movzx'
p661
sg25
S'0x156243L'
p662
sg27
Nsba(ibclass
BInstr
p663
(dp664
g2
Nsg17
S'add     [rbp+value], rax'
p665
sg19
S'480145f8'
p666
sg21
Vadd qword ptr [rbp - 8], rax
p667
sg5
L1401414L
sg6
Nsg23
S'add'
p668
sg25
S'0x156246L'
p669
sg27
Nsba(ibclass
BInstr
p670
(dp671
g2
Nsg17
S'mov     rax, [rbp+prefix]'
p672
sg19
S'488b45e8'
p673
sg21
Vmov rax, qword ptr [rbp - 0x18]
p674
sg5
L1401418L
sg6
Nsg23
S'mov'
p675
sg25
S'0x15624aL'
p676
sg27
Nsba(ibclass
BInstr
p677
(dp678
g2
Nsg17
S'add     rax, 5'
p679
sg19
S'4883c005'
p680
sg21
Vadd rax, 5
p681
sg5
L1401422L
sg6
Nsg23
S'add'
p682
sg25
S'0x15624eL'
p683
sg27
Nsba(ibclass
BInstr
p684
(dp685
g2
Nsg17
S'movzx   eax, byte ptr [rax]'
p686
sg19
S'0fb600'
p687
sg21
Vmovzx eax, byte ptr [rax]
p688
sg5
L1401426L
sg6
Nsg23
S'movzx'
p689
sg25
S'0x156252L'
p690
sg27
Nsba(ibclass
BInstr
p691
(dp692
g2
Nsg17
S'movzx   eax, al'
p693
sg19
S'0fb6c0'
p694
sg21
Vmovzx eax, al
p695
sg5
L1401429L
sg6
Nsg23
S'movzx'
p696
sg25
S'0x156255L'
p697
sg27
Nsba(ibclass
BInstr
p698
(dp699
g2
Nsg17
S'add     [rbp+value], rax'
p700
sg19
S'480145f8'
p701
sg21
Vadd qword ptr [rbp - 8], rax
p702
sg5
L1401432L
sg6
Nsg23
S'add'
p703
sg25
S'0x156258L'
p704
sg27
Nsba(ibclass
BInstr
p705
(dp706
g2
Nsg17
S'mov     rax, [rbp+prefix]'
p707
sg19
S'488b45e8'
p708
sg21
Vmov rax, qword ptr [rbp - 0x18]
p709
sg5
L1401436L
sg6
Nsg23
S'mov'
p710
sg25
S'0x15625cL'
p711
sg27
Nsba(ibclass
BInstr
p712
(dp713
g2
Nsg17
S'add     rax, 4'
p714
sg19
S'4883c004'
p715
sg21
Vadd rax, 4
p716
sg5
L1401440L
sg6
Nsg23
S'add'
p717
sg25
S'0x156260L'
p718
sg27
Nsba(ibclass
BInstr
p719
(dp720
g2
Nsg17
S'movzx   eax, byte ptr [rax]'
p721
sg19
S'0fb600'
p722
sg21
Vmovzx eax, byte ptr [rax]
p723
sg5
L1401444L
sg6
Nsg23
S'movzx'
p724
sg25
S'0x156264L'
p725
sg27
Nsba(ibclass
BInstr
p726
(dp727
g2
Nsg17
S'movzx   eax, al'
p728
sg19
S'0fb6c0'
p729
sg21
Vmovzx eax, al
p730
sg5
L1401447L
sg6
Nsg23
S'movzx'
p731
sg25
S'0x156267L'
p732
sg27
Nsba(ibclass
BInstr
p733
(dp734
g2
Nsg17
S'add     [rbp+value], rax'
p735
sg19
S'480145f8'
p736
sg21
Vadd qword ptr [rbp - 8], rax
p737
sg5
L1401450L
sg6
Nsg23
S'add'
p738
sg25
S'0x15626aL'
p739
sg27
Nsba(ibclass
BInstr
p740
(dp741
g2
Nsg17
S'mov     rax, [rbp+prefix]'
p742
sg19
S'488b45e8'
p743
sg21
Vmov rax, qword ptr [rbp - 0x18]
p744
sg5
L1401454L
sg6
Nsg23
S'mov'
p745
sg25
S'0x15626eL'
p746
sg27
Nsba(ibclass
BInstr
p747
(dp748
g2
Nsg17
S'add     rax, 3'
p749
sg19
S'4883c003'
p750
sg21
Vadd rax, 3
p751
sg5
L1401458L
sg6
Nsg23
S'add'
p752
sg25
S'0x156272L'
p753
sg27
Nsba(ibclass
BInstr
p754
(dp755
g2
Nsg17
S'movzx   eax, byte ptr [rax]'
p756
sg19
S'0fb600'
p757
sg21
Vmovzx eax, byte ptr [rax]
p758
sg5
L1401462L
sg6
Nsg23
S'movzx'
p759
sg25
S'0x156276L'
p760
sg27
Nsba(ibclass
BInstr
p761
(dp762
g2
Nsg17
S'movzx   eax, al'
p763
sg19
S'0fb6c0'
p764
sg21
Vmovzx eax, al
p765
sg5
L1401465L
sg6
Nsg23
S'movzx'
p766
sg25
S'0x156279L'
p767
sg27
Nsba(ibclass
BInstr
p768
(dp769
g2
Nsg17
S'add     [rbp+value], rax'
p770
sg19
S'480145f8'
p771
sg21
Vadd qword ptr [rbp - 8], rax
p772
sg5
L1401468L
sg6
Nsg23
S'add'
p773
sg25
S'0x15627cL'
p774
sg27
Nsba(ibclass
BInstr
p775
(dp776
g2
Nsg17
S'mov     rax, [rbp+prefix]'
p777
sg19
S'488b45e8'
p778
sg21
Vmov rax, qword ptr [rbp - 0x18]
p779
sg5
L1401472L
sg6
Nsg23
S'mov'
p780
sg25
S'0x156280L'
p781
sg27
Nsba(ibclass
BInstr
p782
(dp783
g2
Nsg17
S'add     rax, 2'
p784
sg19
S'4883c002'
p785
sg21
Vadd rax, 2
p786
sg5
L1401476L
sg6
Nsg23
S'add'
p787
sg25
S'0x156284L'
p788
sg27
Nsba(ibclass
BInstr
p789
(dp790
g2
Nsg17
S'movzx   eax, byte ptr [rax]'
p791
sg19
S'0fb600'
p792
sg21
Vmovzx eax, byte ptr [rax]
p793
sg5
L1401480L
sg6
Nsg23
S'movzx'
p794
sg25
S'0x156288L'
p795
sg27
Nsba(ibclass
BInstr
p796
(dp797
g2
Nsg17
S'movzx   eax, al'
p798
sg19
S'0fb6c0'
p799
sg21
Vmovzx eax, al
p800
sg5
L1401483L
sg6
Nsg23
S'movzx'
p801
sg25
S'0x15628bL'
p802
sg27
Nsba(ibclass
BInstr
p803
(dp804
g2
Nsg17
S'add     [rbp+value], rax'
p805
sg19
S'480145f8'
p806
sg21
Vadd qword ptr [rbp - 8], rax
p807
sg5
L1401486L
sg6
Nsg23
S'add'
p808
sg25
S'0x15628eL'
p809
sg27
Nsba(ibclass
BInstr
p810
(dp811
g2
Nsg17
S'mov     rax, [rbp+prefix]'
p812
sg19
S'488b45e8'
p813
sg21
Vmov rax, qword ptr [rbp - 0x18]
p814
sg5
L1401490L
sg6
Nsg23
S'mov'
p815
sg25
S'0x156292L'
p816
sg27
Nsba(ibclass
BInstr
p817
(dp818
g2
Nsg17
S'add     rax, 1'
p819
sg19
S'4883c001'
p820
sg21
Vadd rax, 1
p821
sg5
L1401494L
sg6
Nsg23
S'add'
p822
sg25
S'0x156296L'
p823
sg27
Nsba(ibclass
BInstr
p824
(dp825
g2
Nsg17
S'movzx   eax, byte ptr [rax]'
p826
sg19
S'0fb600'
p827
sg21
Vmovzx eax, byte ptr [rax]
p828
sg5
L1401498L
sg6
Nsg23
S'movzx'
p829
sg25
S'0x15629aL'
p830
sg27
Nsba(ibclass
BInstr
p831
(dp832
g2
Nsg17
S'movzx   eax, al'
p833
sg19
S'0fb6c0'
p834
sg21
Vmovzx eax, al
p835
sg5
L1401501L
sg6
Nsg23
S'movzx'
p836
sg25
S'0x15629dL'
p837
sg27
Nsba(ibclass
BInstr
p838
(dp839
g2
Nsg17
S'add     [rbp+value], rax'
p840
sg19
S'480145f8'
p841
sg21
Vadd qword ptr [rbp - 8], rax
p842
sg5
L1401504L
sg6
Nsg23
S'add'
p843
sg25
S'0x1562a0L'
p844
sg27
Nsba(ibclass
BInstr
p845
(dp846
g2
Nsg17
S'mov     rax, [rbp+prefix]'
p847
sg19
S'488b45e8'
p848
sg21
Vmov rax, qword ptr [rbp - 0x18]
p849
sg5
L1401508L
sg6
Nsg23
S'mov'
p850
sg25
S'0x1562a4L'
p851
sg27
Nsba(ibclass
BInstr
p852
(dp853
g2
Nsg17
S'movzx   eax, byte ptr [rax]'
p854
sg19
S'0fb600'
p855
sg21
Vmovzx eax, byte ptr [rax]
p856
sg5
L1401512L
sg6
Nsg23
S'movzx'
p857
sg25
S'0x1562a8L'
p858
sg27
Nsba(ibclass
BInstr
p859
(dp860
g2
Nsg17
S'movzx   eax, al'
p861
sg19
S'0fb6c0'
p862
sg21
Vmovzx eax, al
p863
sg5
L1401515L
sg6
Nsg23
S'movzx'
p864
sg25
S'0x1562abL'
p865
sg27
Nsba(ibclass
BInstr
p866
(dp867
g2
Nsg17
S'add     [rbp+value], rax'
p868
sg19
S'480145f8'
p869
sg21
Vadd qword ptr [rbp - 8], rax
p870
sg5
L1401518L
sg6
Nsg23
S'add'
p871
sg25
S'0x1562aeL'
p872
sg27
Nsbasg105
(lp873
S'mov reg, mem'
p874
aS'add reg, 9'
p875
aS'movzx reg, mem'
p876
aS'movzx reg, reg'
p877
aS'add mem, reg'
p878
aS'mov reg, mem'
p879
aS'add reg, 8'
p880
aS'movzx reg, mem'
p881
aS'movzx reg, reg'
p882
aS'add mem, reg'
p883
aS'mov reg, mem'
p884
aS'add reg, 7'
p885
aS'movzx reg, mem'
p886
aS'movzx reg, reg'
p887
aS'add mem, reg'
p888
aS'mov reg, mem'
p889
aS'add reg, 6'
p890
aS'movzx reg, mem'
p891
aS'movzx reg, reg'
p892
aS'add mem, reg'
p893
aS'mov reg, mem'
p894
aS'add reg, 5'
p895
aS'movzx reg, mem'
p896
aS'movzx reg, reg'
p897
aS'add mem, reg'
p898
aS'mov reg, mem'
p899
aS'add reg, 4'
p900
aS'movzx reg, mem'
p901
aS'movzx reg, reg'
p902
aS'add mem, reg'
p903
aS'mov reg, mem'
p904
aS'add reg, 3'
p905
aS'movzx reg, mem'
p906
aS'movzx reg, reg'
p907
aS'add mem, reg'
p908
aS'mov reg, mem'
p909
aS'add reg, 2'
p910
aS'movzx reg, mem'
p911
aS'movzx reg, reg'
p912
aS'add mem, reg'
p913
aS'mov reg, mem'
p914
aS'add reg, 1'
p915
aS'movzx reg, mem'
p916
aS'movzx reg, reg'
p917
aS'add mem, reg'
p918
aS'mov reg, mem'
p919
aS'movzx reg, mem'
p920
aS'movzx reg, reg'
p921
aS'add mem, reg'
p922
asg118
Nsg5
S'0x156202L'
p923
sg120
(lp924
sg6
Nsg122
(lp925
S'0x1562b2L'
p926
asg126
Nsg127
Nsg128
S'78b89e86cbf570c16397c4568b818751'
p927
sg130
S'89c586bdf8d95bb5253d6253d94200eb'
p928
sg132
(lp929
g535
ag542
ag549
ag556
ag563
ag570
ag577
ag584
ag591
ag598
ag605
ag612
ag619
ag626
ag633
ag640
ag647
ag654
ag661
ag668
ag675
ag682
ag689
ag696
ag703
ag710
ag717
ag724
ag731
ag738
ag745
ag752
ag759
ag766
ag773
ag780
ag787
ag794
ag801
ag808
ag815
ag822
ag829
ag836
ag843
ag850
ag857
ag864
ag871
asg134
Nsba(ibclass
BBasicBlock
p930
(dp931
g12
Nsg13
(lp932
(ibclass
BInstr
p933
(dp934
g2
Nsg17
S'nop'
p935
sg19
S'90'
p936
sg21
Vnop 
p937
sg5
L1401522L
sg6
Nsg23
S'nop'
p938
sg25
S'0x1562b2L'
p939
sg27
Nsba(ibclass
BInstr
p940
(dp941
g2
Nsg17
S'mov     eax, [rbp+plen]'
p942
sg19
S'8b45e4'
p943
sg21
Vmov eax, dword ptr [rbp - 0x1c]
p944
sg5
L1401523L
sg6
Nsg23
S'mov'
p945
sg25
S'0x1562b3L'
p946
sg27
Nsba(ibclass
BInstr
p947
(dp948
g2
Nsg17
S'sub     [rbp+len], eax'
p949
sg19
S'2945e0'
p950
sg21
Vsub dword ptr [rbp - 0x20], eax
p951
sg5
L1401526L
sg6
Nsg23
S'sub'
p952
sg25
S'0x1562b6L'
p953
sg27
Nsba(ibclass
BInstr
p954
(dp955
g2
Nsg17
S'cmp     [rbp+len], 0'
p956
sg19
S'837de000'
p957
sg21
Vcmp dword ptr [rbp - 0x20], 0
p958
sg5
L1401529L
sg6
Nsg23
S'cmp'
p959
sg25
S'0x1562b9L'
p960
sg27
Nsba(ibclass
BInstr
p961
(dp962
g2
Nsg17
S'jle     short loc_1562C8'
p963
sg19
S'7e09'
p964
sg21
Vjle 0xb
p965
sg5
L1401533L
sg6
Nsg23
S'jle'
p966
sg25
S'0x1562bdL'
p967
sg27
Nsbasg105
(lp968
g935
aS'mov reg, mem'
p969
aS'sub mem, reg'
p970
aS'cmp mem, 0'
p971
aS'jle func'
p972
asg118
Nsg5
S'0x1562b2L'
p973
sg120
(lp974
S'0x1561d4L'
p975
aS'0x156202L'
p976
asg6
Nsg122
(lp977
S'0x1562bfL'
p978
aS'0x1562c8L'
p979
asg126
Nsg127
Nsg128
S'336b6c0c374529ce029d50a69e16e0d4'
p980
sg130
S'349acd4f3cfc5c2932830754d7d27d8c'
p981
sg132
(lp982
g938
ag945
ag952
ag959
ag966
asg134
Nsba(ibclass
BBasicBlock
p983
(dp984
g12
Nsg13
(lp985
(ibclass
BInstr
p986
(dp987
g2
Nsg17
S'add     [rbp+value], 3Ah'
p988
sg19
S'488345f83a'
p989
sg21
Vadd qword ptr [rbp - 8], 0x3a
p990
sg5
L1401535L
sg6
Nsg23
S'add'
p991
sg25
S'0x1562bfL'
p992
sg27
Nsba(ibclass
BInstr
p993
(dp994
g2
Nsg17
S'sub     [rbp+len], 1'
p995
sg19
S'836de001'
p996
sg21
Vsub dword ptr [rbp - 0x20], 1
p997
sg5
L1401540L
sg6
Nsg23
S'sub'
p998
sg25
S'0x1562c4L'
p999
sg27
Nsbasg105
(lp1000
S'add mem, 3Ah'
p1001
aS'sub mem, 1'
p1002
asg118
Nsg5
S'0x1562bfL'
p1003
sg120
(lp1004
S'0x1562b2L'
p1005
asg6
Nsg122
(lp1006
S'0x1562c8L'
p1007
asg126
Nsg127
Nsg128
S'15ccba9eecf366cd7467e14fb7b07ede'
p1008
sg130
S'967d6cee315fcb6c14354a18ffcb9a54'
p1009
sg132
(lp1010
g991
ag998
asg134
Nsba(ibclass
BBasicBlock
p1011
(dp1012
g12
Nsg13
(lp1013
(ibclass
BInstr
p1014
(dp1015
g2
Nsg17
S'cmp     [rbp+len], 0Ah'
p1016
sg19
S'837de00a'
p1017
sg21
Vcmp dword ptr [rbp - 0x20], 0xa
p1018
sg5
L1401544L
sg6
Nsg23
S'cmp'
p1019
sg25
S'0x1562c8L'
p1020
sg27
Nsba(ibclass
BInstr
p1021
(dp1022
g2
Nsg17
S'ja      loc_1563A6'
p1023
sg19
S'0f87d4000000'
p1024
sg21
Vja 0xda
p1025
sg5
L1401548L
sg6
Nsg23
S'ja'
p1026
sg25
S'0x1562ccL'
p1027
sg27
Nsbasg105
(lp1028
S'cmp mem, 0Ah'
p1029
aS'ja func'
p1030
asg118
Nsg5
S'0x1562c8L'
p1031
sg120
(lp1032
S'0x1562b2L'
p1033
aS'0x1562bfL'
p1034
asg6
Nsg122
(lp1035
S'0x1562d2L'
p1036
aS'0x1563a6L'
p1037
asg126
Nsg127
Nsg128
S'5ee79b999041868da271272ad202dbc3'
p1038
sg130
S'5b5a8e9006036eeb5b5a3cdc21055919'
p1039
sg132
(lp1040
g1019
ag1026
asg134
Nsba(ibclass
BBasicBlock
p1041
(dp1042
g12
Nsg13
(lp1043
(ibclass
BInstr
p1044
(dp1045
g2
Nsg17
S'mov     eax, [rbp+len]'
p1046
sg19
S'8b45e0'
p1047
sg21
Vmov eax, dword ptr [rbp - 0x20]
p1048
sg5
L1401554L
sg6
Nsg23
S'mov'
p1049
sg25
S'0x1562d2L'
p1050
sg27
Nsba(ibclass
BInstr
p1051
(dp1052
g2
Nsg17
S'lea     rdx, ds:0[rax*4]'
p1053
sg19
S'488d148500000000'
p1054
sg21
Vlea rdx, [rax*4]
p1055
sg5
L1401557L
sg6
Nsg23
S'lea'
p1056
sg25
S'0x1562d5L'
p1057
sg27
Nsba(ibclass
BInstr
p1058
(dp1059
g2
Nsg17
S'lea     rax, unk_1969F8'
p1060
sg19
S'488d0514070400'
p1061
sg21
Vlea rax, [rip + 0x40714]
p1062
sg5
L1401565L
sg6
Nsg23
S'lea'
p1063
sg25
S'0x1562ddL'
p1064
sg27
Nsba(ibclass
BInstr
p1065
(dp1066
g2
Nsg17
S'mov     eax, [rdx+rax]'
p1067
sg19
S'8b0402'
p1068
sg21
Vmov eax, dword ptr [rdx + rax]
p1069
sg5
L1401572L
sg6
Nsg23
S'mov'
p1070
sg25
S'0x1562e4L'
p1071
sg27
Nsba(ibclass
BInstr
p1072
(dp1073
g2
Nsg17
S'movsxd  rdx, eax'
p1074
sg19
S'4863d0'
p1075
sg21
Vmovsxd rdx, eax
p1076
sg5
L1401575L
sg6
Nsg23
S'movsxd'
p1077
sg25
S'0x1562e7L'
p1078
sg27
Nsba(ibclass
BInstr
p1079
(dp1080
g2
Nsg17
S'lea     rax, unk_1969F8'
p1081
sg19
S'488d0507070400'
p1082
sg21
Vlea rax, [rip + 0x40707]
p1083
sg5
L1401578L
sg6
Nsg23
S'lea'
p1084
sg25
S'0x1562eaL'
p1085
sg27
Nsba(ibclass
BInstr
p1086
(dp1087
g2
Nsg17
S'add     rax, rdx'
p1088
sg19
S'4801d0'
p1089
sg21
Vadd rax, rdx
p1090
sg5
L1401585L
sg6
Nsg23
S'add'
p1091
sg25
S'0x1562f1L'
p1092
sg27
Nsba(ibclass
BInstr
p1093
(dp1094
g2
Nsg17
S'jmp     rax'
p1095
sg19
S'ffe0'
p1096
sg21
Vjmp rax
p1097
sg5
L1401588L
sg6
Nsg23
S'jmp'
p1098
sg25
S'0x1562f4L'
p1099
sg27
Nsbasg105
(lp1100
S'mov reg, mem'
p1101
aS'lea reg, ds:0mem'
p1102
aS'lea reg, func'
p1103
aS'mov reg, mem'
p1104
aS'movsxd reg, reg'
p1105
aS'lea reg, func'
p1106
aS'add reg, reg'
p1107
aS'jmp reg'
p1108
asg118
Nsg5
S'0x1562d2L'
p1109
sg120
(lp1110
S'0x1562c8L'
p1111
asg6
Nsg122
(lp1112
sg126
Nsg127
Nsg128
S'6408ea1f78b77e0f3820483dfac531f6'
p1113
sg130
S'b3b683543d8008eac4fe140a4f417e5f'
p1114
sg132
(lp1115
g1049
ag1056
ag1063
ag1070
ag1077
ag1084
ag1091
ag1098
asg134
Nsba(ibclass
BBasicBlock
p1116
(dp1117
g12
Nsg13
(lp1118
(ibclass
BInstr
p1119
(dp1120
g2
Nsg17
S'mov     rax, [rbp+name]'
p1121
sg19
S'488b45d8'
p1122
sg21
Vmov rax, qword ptr [rbp - 0x28]
p1123
sg5
L1401590L
sg6
Nsg23
S'mov'
p1124
sg25
S'0x1562f6L'
p1125
sg27
Nsba(ibclass
BInstr
p1126
(dp1127
g2
Nsg17
S'add     rax, 9'
p1128
sg19
S'4883c009'
p1129
sg21
Vadd rax, 9
p1130
sg5
L1401594L
sg6
Nsg23
S'add'
p1131
sg25
S'0x1562faL'
p1132
sg27
Nsba(ibclass
BInstr
p1133
(dp1134
g2
Nsg17
S'movzx   eax, byte ptr [rax]'
p1135
sg19
S'0fb600'
p1136
sg21
Vmovzx eax, byte ptr [rax]
p1137
sg5
L1401598L
sg6
Nsg23
S'movzx'
p1138
sg25
S'0x1562feL'
p1139
sg27
Nsba(ibclass
BInstr
p1140
(dp1141
g2
Nsg17
S'movzx   eax, al'
p1142
sg19
S'0fb6c0'
p1143
sg21
Vmovzx eax, al
p1144
sg5
L1401601L
sg6
Nsg23
S'movzx'
p1145
sg25
S'0x156301L'
p1146
sg27
Nsba(ibclass
BInstr
p1147
(dp1148
g2
Nsg17
S'add     [rbp+value], rax'
p1149
sg19
S'480145f8'
p1150
sg21
Vadd qword ptr [rbp - 8], rax
p1151
sg5
L1401604L
sg6
Nsg23
S'add'
p1152
sg25
S'0x156304L'
p1153
sg27
Nsba(ibclass
BInstr
p1154
(dp1155
g2
Nsg17
S'mov     rax, [rbp+name]'
p1156
sg19
S'488b45d8'
p1157
sg21
Vmov rax, qword ptr [rbp - 0x28]
p1158
sg5
L1401608L
sg6
Nsg23
S'mov'
p1159
sg25
S'0x156308L'
p1160
sg27
Nsba(ibclass
BInstr
p1161
(dp1162
g2
Nsg17
S'add     rax, 8'
p1163
sg19
S'4883c008'
p1164
sg21
Vadd rax, 8
p1165
sg5
L1401612L
sg6
Nsg23
S'add'
p1166
sg25
S'0x15630cL'
p1167
sg27
Nsba(ibclass
BInstr
p1168
(dp1169
g2
Nsg17
S'movzx   eax, byte ptr [rax]'
p1170
sg19
S'0fb600'
p1171
sg21
Vmovzx eax, byte ptr [rax]
p1172
sg5
L1401616L
sg6
Nsg23
S'movzx'
p1173
sg25
S'0x156310L'
p1174
sg27
Nsba(ibclass
BInstr
p1175
(dp1176
g2
Nsg17
S'movzx   eax, al'
p1177
sg19
S'0fb6c0'
p1178
sg21
Vmovzx eax, al
p1179
sg5
L1401619L
sg6
Nsg23
S'movzx'
p1180
sg25
S'0x156313L'
p1181
sg27
Nsba(ibclass
BInstr
p1182
(dp1183
g2
Nsg17
S'add     [rbp+value], rax'
p1184
sg19
S'480145f8'
p1185
sg21
Vadd qword ptr [rbp - 8], rax
p1186
sg5
L1401622L
sg6
Nsg23
S'add'
p1187
sg25
S'0x156316L'
p1188
sg27
Nsba(ibclass
BInstr
p1189
(dp1190
g2
Nsg17
S'mov     rax, [rbp+name]'
p1191
sg19
S'488b45d8'
p1192
sg21
Vmov rax, qword ptr [rbp - 0x28]
p1193
sg5
L1401626L
sg6
Nsg23
S'mov'
p1194
sg25
S'0x15631aL'
p1195
sg27
Nsba(ibclass
BInstr
p1196
(dp1197
g2
Nsg17
S'add     rax, 7'
p1198
sg19
S'4883c007'
p1199
sg21
Vadd rax, 7
p1200
sg5
L1401630L
sg6
Nsg23
S'add'
p1201
sg25
S'0x15631eL'
p1202
sg27
Nsba(ibclass
BInstr
p1203
(dp1204
g2
Nsg17
S'movzx   eax, byte ptr [rax]'
p1205
sg19
S'0fb600'
p1206
sg21
Vmovzx eax, byte ptr [rax]
p1207
sg5
L1401634L
sg6
Nsg23
S'movzx'
p1208
sg25
S'0x156322L'
p1209
sg27
Nsba(ibclass
BInstr
p1210
(dp1211
g2
Nsg17
S'movzx   eax, al'
p1212
sg19
S'0fb6c0'
p1213
sg21
Vmovzx eax, al
p1214
sg5
L1401637L
sg6
Nsg23
S'movzx'
p1215
sg25
S'0x156325L'
p1216
sg27
Nsba(ibclass
BInstr
p1217
(dp1218
g2
Nsg17
S'add     [rbp+value], rax'
p1219
sg19
S'480145f8'
p1220
sg21
Vadd qword ptr [rbp - 8], rax
p1221
sg5
L1401640L
sg6
Nsg23
S'add'
p1222
sg25
S'0x156328L'
p1223
sg27
Nsba(ibclass
BInstr
p1224
(dp1225
g2
Nsg17
S'mov     rax, [rbp+name]'
p1226
sg19
S'488b45d8'
p1227
sg21
Vmov rax, qword ptr [rbp - 0x28]
p1228
sg5
L1401644L
sg6
Nsg23
S'mov'
p1229
sg25
S'0x15632cL'
p1230
sg27
Nsba(ibclass
BInstr
p1231
(dp1232
g2
Nsg17
S'add     rax, 6'
p1233
sg19
S'4883c006'
p1234
sg21
Vadd rax, 6
p1235
sg5
L1401648L
sg6
Nsg23
S'add'
p1236
sg25
S'0x156330L'
p1237
sg27
Nsba(ibclass
BInstr
p1238
(dp1239
g2
Nsg17
S'movzx   eax, byte ptr [rax]'
p1240
sg19
S'0fb600'
p1241
sg21
Vmovzx eax, byte ptr [rax]
p1242
sg5
L1401652L
sg6
Nsg23
S'movzx'
p1243
sg25
S'0x156334L'
p1244
sg27
Nsba(ibclass
BInstr
p1245
(dp1246
g2
Nsg17
S'movzx   eax, al'
p1247
sg19
S'0fb6c0'
p1248
sg21
Vmovzx eax, al
p1249
sg5
L1401655L
sg6
Nsg23
S'movzx'
p1250
sg25
S'0x156337L'
p1251
sg27
Nsba(ibclass
BInstr
p1252
(dp1253
g2
Nsg17
S'add     [rbp+value], rax'
p1254
sg19
S'480145f8'
p1255
sg21
Vadd qword ptr [rbp - 8], rax
p1256
sg5
L1401658L
sg6
Nsg23
S'add'
p1257
sg25
S'0x15633aL'
p1258
sg27
Nsba(ibclass
BInstr
p1259
(dp1260
g2
Nsg17
S'mov     rax, [rbp+name]'
p1261
sg19
S'488b45d8'
p1262
sg21
Vmov rax, qword ptr [rbp - 0x28]
p1263
sg5
L1401662L
sg6
Nsg23
S'mov'
p1264
sg25
S'0x15633eL'
p1265
sg27
Nsba(ibclass
BInstr
p1266
(dp1267
g2
Nsg17
S'add     rax, 5'
p1268
sg19
S'4883c005'
p1269
sg21
Vadd rax, 5
p1270
sg5
L1401666L
sg6
Nsg23
S'add'
p1271
sg25
S'0x156342L'
p1272
sg27
Nsba(ibclass
BInstr
p1273
(dp1274
g2
Nsg17
S'movzx   eax, byte ptr [rax]'
p1275
sg19
S'0fb600'
p1276
sg21
Vmovzx eax, byte ptr [rax]
p1277
sg5
L1401670L
sg6
Nsg23
S'movzx'
p1278
sg25
S'0x156346L'
p1279
sg27
Nsba(ibclass
BInstr
p1280
(dp1281
g2
Nsg17
S'movzx   eax, al'
p1282
sg19
S'0fb6c0'
p1283
sg21
Vmovzx eax, al
p1284
sg5
L1401673L
sg6
Nsg23
S'movzx'
p1285
sg25
S'0x156349L'
p1286
sg27
Nsba(ibclass
BInstr
p1287
(dp1288
g2
Nsg17
S'add     [rbp+value], rax'
p1289
sg19
S'480145f8'
p1290
sg21
Vadd qword ptr [rbp - 8], rax
p1291
sg5
L1401676L
sg6
Nsg23
S'add'
p1292
sg25
S'0x15634cL'
p1293
sg27
Nsba(ibclass
BInstr
p1294
(dp1295
g2
Nsg17
S'mov     rax, [rbp+name]'
p1296
sg19
S'488b45d8'
p1297
sg21
Vmov rax, qword ptr [rbp - 0x28]
p1298
sg5
L1401680L
sg6
Nsg23
S'mov'
p1299
sg25
S'0x156350L'
p1300
sg27
Nsba(ibclass
BInstr
p1301
(dp1302
g2
Nsg17
S'add     rax, 4'
p1303
sg19
S'4883c004'
p1304
sg21
Vadd rax, 4
p1305
sg5
L1401684L
sg6
Nsg23
S'add'
p1306
sg25
S'0x156354L'
p1307
sg27
Nsba(ibclass
BInstr
p1308
(dp1309
g2
Nsg17
S'movzx   eax, byte ptr [rax]'
p1310
sg19
S'0fb600'
p1311
sg21
Vmovzx eax, byte ptr [rax]
p1312
sg5
L1401688L
sg6
Nsg23
S'movzx'
p1313
sg25
S'0x156358L'
p1314
sg27
Nsba(ibclass
BInstr
p1315
(dp1316
g2
Nsg17
S'movzx   eax, al'
p1317
sg19
S'0fb6c0'
p1318
sg21
Vmovzx eax, al
p1319
sg5
L1401691L
sg6
Nsg23
S'movzx'
p1320
sg25
S'0x15635bL'
p1321
sg27
Nsba(ibclass
BInstr
p1322
(dp1323
g2
Nsg17
S'add     [rbp+value], rax'
p1324
sg19
S'480145f8'
p1325
sg21
Vadd qword ptr [rbp - 8], rax
p1326
sg5
L1401694L
sg6
Nsg23
S'add'
p1327
sg25
S'0x15635eL'
p1328
sg27
Nsba(ibclass
BInstr
p1329
(dp1330
g2
Nsg17
S'mov     rax, [rbp+name]'
p1331
sg19
S'488b45d8'
p1332
sg21
Vmov rax, qword ptr [rbp - 0x28]
p1333
sg5
L1401698L
sg6
Nsg23
S'mov'
p1334
sg25
S'0x156362L'
p1335
sg27
Nsba(ibclass
BInstr
p1336
(dp1337
g2
Nsg17
S'add     rax, 3'
p1338
sg19
S'4883c003'
p1339
sg21
Vadd rax, 3
p1340
sg5
L1401702L
sg6
Nsg23
S'add'
p1341
sg25
S'0x156366L'
p1342
sg27
Nsba(ibclass
BInstr
p1343
(dp1344
g2
Nsg17
S'movzx   eax, byte ptr [rax]'
p1345
sg19
S'0fb600'
p1346
sg21
Vmovzx eax, byte ptr [rax]
p1347
sg5
L1401706L
sg6
Nsg23
S'movzx'
p1348
sg25
S'0x15636aL'
p1349
sg27
Nsba(ibclass
BInstr
p1350
(dp1351
g2
Nsg17
S'movzx   eax, al'
p1352
sg19
S'0fb6c0'
p1353
sg21
Vmovzx eax, al
p1354
sg5
L1401709L
sg6
Nsg23
S'movzx'
p1355
sg25
S'0x15636dL'
p1356
sg27
Nsba(ibclass
BInstr
p1357
(dp1358
g2
Nsg17
S'add     [rbp+value], rax'
p1359
sg19
S'480145f8'
p1360
sg21
Vadd qword ptr [rbp - 8], rax
p1361
sg5
L1401712L
sg6
Nsg23
S'add'
p1362
sg25
S'0x156370L'
p1363
sg27
Nsba(ibclass
BInstr
p1364
(dp1365
g2
Nsg17
S'mov     rax, [rbp+name]'
p1366
sg19
S'488b45d8'
p1367
sg21
Vmov rax, qword ptr [rbp - 0x28]
p1368
sg5
L1401716L
sg6
Nsg23
S'mov'
p1369
sg25
S'0x156374L'
p1370
sg27
Nsba(ibclass
BInstr
p1371
(dp1372
g2
Nsg17
S'add     rax, 2'
p1373
sg19
S'4883c002'
p1374
sg21
Vadd rax, 2
p1375
sg5
L1401720L
sg6
Nsg23
S'add'
p1376
sg25
S'0x156378L'
p1377
sg27
Nsba(ibclass
BInstr
p1378
(dp1379
g2
Nsg17
S'movzx   eax, byte ptr [rax]'
p1380
sg19
S'0fb600'
p1381
sg21
Vmovzx eax, byte ptr [rax]
p1382
sg5
L1401724L
sg6
Nsg23
S'movzx'
p1383
sg25
S'0x15637cL'
p1384
sg27
Nsba(ibclass
BInstr
p1385
(dp1386
g2
Nsg17
S'movzx   eax, al'
p1387
sg19
S'0fb6c0'
p1388
sg21
Vmovzx eax, al
p1389
sg5
L1401727L
sg6
Nsg23
S'movzx'
p1390
sg25
S'0x15637fL'
p1391
sg27
Nsba(ibclass
BInstr
p1392
(dp1393
g2
Nsg17
S'add     [rbp+value], rax'
p1394
sg19
S'480145f8'
p1395
sg21
Vadd qword ptr [rbp - 8], rax
p1396
sg5
L1401730L
sg6
Nsg23
S'add'
p1397
sg25
S'0x156382L'
p1398
sg27
Nsba(ibclass
BInstr
p1399
(dp1400
g2
Nsg17
S'mov     rax, [rbp+name]'
p1401
sg19
S'488b45d8'
p1402
sg21
Vmov rax, qword ptr [rbp - 0x28]
p1403
sg5
L1401734L
sg6
Nsg23
S'mov'
p1404
sg25
S'0x156386L'
p1405
sg27
Nsba(ibclass
BInstr
p1406
(dp1407
g2
Nsg17
S'add     rax, 1'
p1408
sg19
S'4883c001'
p1409
sg21
Vadd rax, 1
p1410
sg5
L1401738L
sg6
Nsg23
S'add'
p1411
sg25
S'0x15638aL'
p1412
sg27
Nsba(ibclass
BInstr
p1413
(dp1414
g2
Nsg17
S'movzx   eax, byte ptr [rax]'
p1415
sg19
S'0fb600'
p1416
sg21
Vmovzx eax, byte ptr [rax]
p1417
sg5
L1401742L
sg6
Nsg23
S'movzx'
p1418
sg25
S'0x15638eL'
p1419
sg27
Nsba(ibclass
BInstr
p1420
(dp1421
g2
Nsg17
S'movzx   eax, al'
p1422
sg19
S'0fb6c0'
p1423
sg21
Vmovzx eax, al
p1424
sg5
L1401745L
sg6
Nsg23
S'movzx'
p1425
sg25
S'0x156391L'
p1426
sg27
Nsba(ibclass
BInstr
p1427
(dp1428
g2
Nsg17
S'add     [rbp+value], rax'
p1429
sg19
S'480145f8'
p1430
sg21
Vadd qword ptr [rbp - 8], rax
p1431
sg5
L1401748L
sg6
Nsg23
S'add'
p1432
sg25
S'0x156394L'
p1433
sg27
Nsba(ibclass
BInstr
p1434
(dp1435
g2
Nsg17
S'mov     rax, [rbp+name]'
p1436
sg19
S'488b45d8'
p1437
sg21
Vmov rax, qword ptr [rbp - 0x28]
p1438
sg5
L1401752L
sg6
Nsg23
S'mov'
p1439
sg25
S'0x156398L'
p1440
sg27
Nsba(ibclass
BInstr
p1441
(dp1442
g2
Nsg17
S'movzx   eax, byte ptr [rax]'
p1443
sg19
S'0fb600'
p1444
sg21
Vmovzx eax, byte ptr [rax]
p1445
sg5
L1401756L
sg6
Nsg23
S'movzx'
p1446
sg25
S'0x15639cL'
p1447
sg27
Nsba(ibclass
BInstr
p1448
(dp1449
g2
Nsg17
S'movzx   eax, al'
p1450
sg19
S'0fb6c0'
p1451
sg21
Vmovzx eax, al
p1452
sg5
L1401759L
sg6
Nsg23
S'movzx'
p1453
sg25
S'0x15639fL'
p1454
sg27
Nsba(ibclass
BInstr
p1455
(dp1456
g2
Nsg17
S'add     [rbp+value], rax'
p1457
sg19
S'480145f8'
p1458
sg21
Vadd qword ptr [rbp - 8], rax
p1459
sg5
L1401762L
sg6
Nsg23
S'add'
p1460
sg25
S'0x1563a2L'
p1461
sg27
Nsbasg105
(lp1462
S'mov reg, mem'
p1463
aS'add reg, 9'
p1464
aS'movzx reg, mem'
p1465
aS'movzx reg, reg'
p1466
aS'add mem, reg'
p1467
aS'mov reg, mem'
p1468
aS'add reg, 8'
p1469
aS'movzx reg, mem'
p1470
aS'movzx reg, reg'
p1471
aS'add mem, reg'
p1472
aS'mov reg, mem'
p1473
aS'add reg, 7'
p1474
aS'movzx reg, mem'
p1475
aS'movzx reg, reg'
p1476
aS'add mem, reg'
p1477
aS'mov reg, mem'
p1478
aS'add reg, 6'
p1479
aS'movzx reg, mem'
p1480
aS'movzx reg, reg'
p1481
aS'add mem, reg'
p1482
aS'mov reg, mem'
p1483
aS'add reg, 5'
p1484
aS'movzx reg, mem'
p1485
aS'movzx reg, reg'
p1486
aS'add mem, reg'
p1487
aS'mov reg, mem'
p1488
aS'add reg, 4'
p1489
aS'movzx reg, mem'
p1490
aS'movzx reg, reg'
p1491
aS'add mem, reg'
p1492
aS'mov reg, mem'
p1493
aS'add reg, 3'
p1494
aS'movzx reg, mem'
p1495
aS'movzx reg, reg'
p1496
aS'add mem, reg'
p1497
aS'mov reg, mem'
p1498
aS'add reg, 2'
p1499
aS'movzx reg, mem'
p1500
aS'movzx reg, reg'
p1501
aS'add mem, reg'
p1502
aS'mov reg, mem'
p1503
aS'add reg, 1'
p1504
aS'movzx reg, mem'
p1505
aS'movzx reg, reg'
p1506
aS'add mem, reg'
p1507
aS'mov reg, mem'
p1508
aS'movzx reg, mem'
p1509
aS'movzx reg, reg'
p1510
aS'add mem, reg'
p1511
asg118
Nsg5
S'0x1562f6L'
p1512
sg120
(lp1513
sg6
Nsg122
(lp1514
S'0x1563a6L'
p1515
asg126
Nsg127
Nsg128
S'78b89e86cbf570c16397c4568b818751'
p1516
sg130
S'89c586bdf8d95bb5253d6253d94200eb'
p1517
sg132
(lp1518
g1124
ag1131
ag1138
ag1145
ag1152
ag1159
ag1166
ag1173
ag1180
ag1187
ag1194
ag1201
ag1208
ag1215
ag1222
ag1229
ag1236
ag1243
ag1250
ag1257
ag1264
ag1271
ag1278
ag1285
ag1292
ag1299
ag1306
ag1313
ag1320
ag1327
ag1334
ag1341
ag1348
ag1355
ag1362
ag1369
ag1376
ag1383
ag1390
ag1397
ag1404
ag1411
ag1418
ag1425
ag1432
ag1439
ag1446
ag1453
ag1460
asg134
Nsba(ibclass
BBasicBlock
p1519
(dp1520
g12
Nsg13
(lp1521
(ibclass
BInstr
p1522
(dp1523
g2
Nsg17
S'nop'
p1524
sg19
S'90'
p1525
sg21
Vnop 
p1526
sg5
L1401766L
sg6
Nsg23
S'nop'
p1527
sg25
S'0x1563a6L'
p1528
sg27
Nsba(ibclass
BInstr
p1529
(dp1530
g2
Nsg17
S'mov     rax, [rbp+value]'
p1531
sg19
S'488b45f8'
p1532
sg21
Vmov rax, qword ptr [rbp - 8]
p1533
sg5
L1401767L
sg6
Nsg23
S'mov'
p1534
sg25
S'0x1563a7L'
p1535
sg27
Nsba(ibclass
BInstr
p1536
(dp1537
g2
Nsg17
S'pop     rbp'
p1538
sg19
S'5d'
p1539
sg21
Vpop rbp
p1540
sg5
L1401771L
sg6
Nsg23
S'pop'
p1541
sg25
S'0x1563abL'
p1542
sg27
Nsba(ibclass
BInstr
p1543
(dp1544
g2
Nsg17
S'retn'
p1545
sg19
S'c3'
p1546
sg21
Vret 
p1547
sg5
L1401772L
sg6
Nsg23
S'retn'
p1548
sg25
S'0x1563acL'
p1549
sg27
Nsbasg105
(lp1550
g1524
aS'mov reg, mem'
p1551
aS'pop reg'
p1552
ag1545
asg118
Nsg5
S'0x1563a6L'
p1553
sg120
(lp1554
S'0x1562c8L'
p1555
aS'0x1562f6L'
p1556
asg6
Nsg122
(lp1557
sg126
Nsg127
Nsg128
S'3eb7c3bd5be20ce68ef4940db56852d8'
p1558
sg130
S'122e9addcba1b3ffde3d4e0f0bb1ab88'
p1559
sg132
(lp1560
g1527
ag1534
ag1541
ag1548
asg134
Nsbasb.