(ibclass
BFunc
p0
(dp1
S'hash'
p2
NsS'name'
p3
S'xmlXPtrNewRangePointNode__internal_alias'
p4
sS'start_address'
p5
L812189L
sS'flag'
p6
NsS'program'
p7
NsS'bbs'
p8
(lp9
(ibclass
BBasicBlock
p10
(dp11
S'function'
p12
NsS'binstrs'
p13
(lp14
(ibclass
BInstr
p15
(dp16
g2
NsS'disasm'
p17
S"push    rbp             ; Alternative name is 'xmlXPtrNewRangePointNode'"
p18
sS'bytes'
p19
S'55'
p20
sS'disasm_striped'
p21
Vpush rbp
p22
sg5
L812189L
sg6
NsS'mnem'
p23
S'push'
p24
sS'address'
p25
S'0xc649dL'
p26
sS'basicblock'
p27
Nsba(ibclass
BInstr
p28
(dp29
g2
Nsg17
S'mov     rbp, rsp'
p30
sg19
S'4889e5'
p31
sg21
Vmov rbp, rsp
p32
sg5
L812190L
sg6
Nsg23
S'mov'
p33
sg25
S'0xc649eL'
p34
sg27
Nsba(ibclass
BInstr
p35
(dp36
g2
Nsg17
S'sub     rsp, 20h'
p37
sg19
S'4883ec20'
p38
sg21
Vsub rsp, 0x20
p39
sg5
L812193L
sg6
Nsg23
S'sub'
p40
sg25
S'0xc64a1L'
p41
sg27
Nsba(ibclass
BInstr
p42
(dp43
g2
Nsg17
S'mov     [rbp+start], rdi'
p44
sg19
S'48897de8'
p45
sg21
Vmov qword ptr [rbp - 0x18], rdi
p46
sg5
L812197L
sg6
Nsg23
S'mov'
p47
sg25
S'0xc64a5L'
p48
sg27
Nsba(ibclass
BInstr
p49
(dp50
g2
Nsg17
S'mov     [rbp+end], rsi'
p51
sg19
S'488975e0'
p52
sg21
Vmov qword ptr [rbp - 0x20], rsi
p53
sg5
L812201L
sg6
Nsg23
S'mov'
p54
sg25
S'0xc64a9L'
p55
sg27
Nsba(ibclass
BInstr
p56
(dp57
g2
Nsg17
S'cmp     [rbp+start], 0'
p58
sg19
S'48837de800'
p59
sg21
Vcmp qword ptr [rbp - 0x18], 0
p60
sg5
L812205L
sg6
Nsg23
S'cmp'
p61
sg25
S'0xc64adL'
p62
sg27
Nsba(ibclass
BInstr
p63
(dp64
g2
Nsg17
S'jnz     short loc_C64BE'
p65
sg19
S'750a'
p66
sg21
Vjne 0xc
p67
sg5
L812210L
sg6
Nsg23
S'jnz'
p68
sg25
S'0xc64b2L'
p69
sg27
NsbasS'disasm_list'
p70
(lp71
S'push reg'
p72
aS'mov reg, reg'
p73
aS'sub reg, 20h'
p74
aS'mov mem, reg'
p75
aS'mov mem, reg'
p76
aS'cmp mem, 0'
p77
aS'jnz func'
p78
asS'end_address'
p79
Nsg5
S'0xc649dL'
p80
sS'preds'
p81
(lp82
sg6
NsS'succs'
p83
(lp84
S'0xc64b4L'
p85
aS'0xc64beL'
p86
asS'hash_v3'
p87
NsS'flag_v2'
p88
NsS'hash_v1'
p89
S'190746cc36f798dfde6210eda659205d'
p90
sS'hash_v2'
p91
S'2e7f596d4a0758263f9e8a8af8cfb558'
p92
sS'mnen_list'
p93
(lp94
g24
ag33
ag40
ag47
ag54
ag61
ag68
asS'neighbour_disasm_list'
p95
Nsba(ibclass
BBasicBlock
p96
(dp97
g12
Nsg13
(lp98
(ibclass
BInstr
p99
(dp100
g2
Nsg17
S'mov     eax, 0'
p101
sg19
S'b800000000'
p102
sg21
Vmov eax, 0
p103
sg5
L812212L
sg6
Nsg23
S'mov'
p104
sg25
S'0xc64b4L'
p105
sg27
Nsba(ibclass
BInstr
p106
(dp107
g2
Nsg17
S'jmp     locret_C6578'
p108
sg19
S'e9ba000000'
p109
sg21
Vjmp 0xbf
p110
sg5
L812217L
sg6
Nsg23
S'jmp'
p111
sg25
S'0xc64b9L'
p112
sg27
Nsbasg70
(lp113
S'mov reg, 0'
p114
aS'jmp func'
p115
asg79
Nsg5
S'0xc64b4L'
p116
sg81
(lp117
S'0xc649dL'
p118
asg6
Nsg83
(lp119
S'0xc6578L'
p120
asg87
Nsg88
Nsg89
S'8b9a0d40e062be2b9b2d9885108fb196'
p121
sg91
S'b9bc48935b5443504e35a59843f17cfd'
p122
sg93
(lp123
g104
ag111
asg95
Nsba(ibclass
BBasicBlock
p124
(dp125
g12
Nsg13
(lp126
(ibclass
BInstr
p127
(dp128
g2
Nsg17
S'cmp     [rbp+end], 0'
p129
sg19
S'48837de000'
p130
sg21
Vcmp qword ptr [rbp - 0x20], 0
p131
sg5
L812222L
sg6
Nsg23
S'cmp'
p132
sg25
S'0xc64beL'
p133
sg27
Nsba(ibclass
BInstr
p134
(dp135
g2
Nsg17
S'jnz     short loc_C64CF'
p136
sg19
S'750a'
p137
sg21
Vjne 0xc
p138
sg5
L812227L
sg6
Nsg23
S'jnz'
p139
sg25
S'0xc64c3L'
p140
sg27
Nsbasg70
(lp141
S'cmp mem, 0'
p142
aS'jnz func'
p143
asg79
Nsg5
S'0xc64beL'
p144
sg81
(lp145
S'0xc649dL'
p146
asg6
Nsg83
(lp147
S'0xc64c5L'
p148
aS'0xc64cfL'
p149
asg87
Nsg88
Nsg89
S'30cb3d6f6a174adfabcde507f6944a52'
p150
sg91
S'98d72118630a4e08156799652c8790e6'
p151
sg93
(lp152
g132
ag139
asg95
Nsba(ibclass
BBasicBlock
p153
(dp154
g12
Nsg13
(lp155
(ibclass
BInstr
p156
(dp157
g2
Nsg17
S'mov     eax, 0'
p158
sg19
S'b800000000'
p159
sg21
Vmov eax, 0
p160
sg5
L812229L
sg6
Nsg23
S'mov'
p161
sg25
S'0xc64c5L'
p162
sg27
Nsba(ibclass
BInstr
p163
(dp164
g2
Nsg17
S'jmp     locret_C6578'
p165
sg19
S'e9a9000000'
p166
sg21
Vjmp 0xae
p167
sg5
L812234L
sg6
Nsg23
S'jmp'
p168
sg25
S'0xc64caL'
p169
sg27
Nsbasg70
(lp170
S'mov reg, 0'
p171
aS'jmp func'
p172
asg79
Nsg5
S'0xc64c5L'
p173
sg81
(lp174
S'0xc64beL'
p175
asg6
Nsg83
(lp176
S'0xc6578L'
p177
asg87
Nsg88
Nsg89
S'8b9a0d40e062be2b9b2d9885108fb196'
p178
sg91
S'b9bc48935b5443504e35a59843f17cfd'
p179
sg93
(lp180
g161
ag168
asg95
Nsba(ibclass
BBasicBlock
p181
(dp182
g12
Nsg13
(lp183
(ibclass
BInstr
p184
(dp185
g2
Nsg17
S'mov     rax, [rbp+start]'
p186
sg19
S'488b45e8'
p187
sg21
Vmov rax, qword ptr [rbp - 0x18]
p188
sg5
L812239L
sg6
Nsg23
S'mov'
p189
sg25
S'0xc64cfL'
p190
sg27
Nsba(ibclass
BInstr
p191
(dp192
g2
Nsg17
S'mov     eax, [rax]'
p193
sg19
S'8b00'
p194
sg21
Vmov eax, dword ptr [rax]
p195
sg5
L812243L
sg6
Nsg23
S'mov'
p196
sg25
S'0xc64d3L'
p197
sg27
Nsba(ibclass
BInstr
p198
(dp199
g2
Nsg17
S'cmp     eax, 5'
p200
sg19
S'83f805'
p201
sg21
Vcmp eax, 5
p202
sg5
L812245L
sg6
Nsg23
S'cmp'
p203
sg25
S'0xc64d5L'
p204
sg27
Nsba(ibclass
BInstr
p205
(dp206
g2
Nsg17
S'jz      short loc_C64E4'
p207
sg19
S'740a'
p208
sg21
Vje 0xc
p209
sg5
L812248L
sg6
Nsg23
S'jz'
p210
sg25
S'0xc64d8L'
p211
sg27
Nsbasg70
(lp212
S'mov reg, mem'
p213
aS'mov reg, mem'
p214
aS'cmp reg, 5'
p215
aS'jz func'
p216
asg79
Nsg5
S'0xc64cfL'
p217
sg81
(lp218
S'0xc64beL'
p219
asg6
Nsg83
(lp220
S'0xc64daL'
p221
aS'0xc64e4L'
p222
asg87
Nsg88
Nsg89
S'db7f0dec7b6480d765a2fb1483cb9e16'
p223
sg91
S'9a7d257313969f3e11d235a50a2a93ed'
p224
sg93
(lp225
g189
ag196
ag203
ag210
asg95
Nsba(ibclass
BBasicBlock
p226
(dp227
g12
Nsg13
(lp228
(ibclass
BInstr
p229
(dp230
g2
Nsg17
S'mov     eax, 0'
p231
sg19
S'b800000000'
p232
sg21
Vmov eax, 0
p233
sg5
L812250L
sg6
Nsg23
S'mov'
p234
sg25
S'0xc64daL'
p235
sg27
Nsba(ibclass
BInstr
p236
(dp237
g2
Nsg17
S'jmp     locret_C6578'
p238
sg19
S'e994000000'
p239
sg21
Vjmp 0x99
p240
sg5
L812255L
sg6
Nsg23
S'jmp'
p241
sg25
S'0xc64dfL'
p242
sg27
Nsbasg70
(lp243
S'mov reg, 0'
p244
aS'jmp func'
p245
asg79
Nsg5
S'0xc64daL'
p246
sg81
(lp247
S'0xc64cfL'
p248
asg6
Nsg83
(lp249
S'0xc6578L'
p250
asg87
Nsg88
Nsg89
S'8b9a0d40e062be2b9b2d9885108fb196'
p251
sg91
S'b9bc48935b5443504e35a59843f17cfd'
p252
sg93
(lp253
g234
ag241
asg95
Nsba(ibclass
BBasicBlock
p254
(dp255
g12
Nsg13
(lp256
(ibclass
BInstr
p257
(dp258
g2
Nsg17
S'mov     rax, cs:xmlMalloc_ptr'
p259
sg19
S'488b0505892f00'
p260
sg21
Vmov rax, qword ptr [rip + 0x2f8905]
p261
sg5
L812260L
sg6
Nsg23
S'mov'
p262
sg25
S'0xc64e4L'
p263
sg27
Nsba(ibclass
BInstr
p264
(dp265
g2
Nsg17
S'mov     rax, [rax]'
p266
sg19
S'488b00'
p267
sg21
Vmov rax, qword ptr [rax]
p268
sg5
L812267L
sg6
Nsg23
S'mov'
p269
sg25
S'0xc64ebL'
p270
sg27
Nsba(ibclass
BInstr
p271
(dp272
g2
Nsg17
S'mov     edi, 48h'
p273
sg19
S'bf48000000'
p274
sg21
Vmov edi, 0x48
p275
sg5
L812270L
sg6
Nsg23
S'mov'
p276
sg25
S'0xc64eeL'
p277
sg27
Nsba(ibclass
BInstr
p278
(dp279
g2
Nsg17
S'call    rax'
p280
sg19
S'ffd0'
p281
sg21
Vcall rax
p282
sg5
L812275L
sg6
Nsg23
S'call'
p283
sg25
S'0xc64f3L'
p284
sg27
Nsba(ibclass
BInstr
p285
(dp286
g2
Nsg17
S'mov     [rbp+ret], rax'
p287
sg19
S'488945f8'
p288
sg21
Vmov qword ptr [rbp - 8], rax
p289
sg5
L812277L
sg6
Nsg23
S'mov'
p290
sg25
S'0xc64f5L'
p291
sg27
Nsba(ibclass
BInstr
p292
(dp293
g2
Nsg17
S'cmp     [rbp+ret], 0'
p294
sg19
S'48837df800'
p295
sg21
Vcmp qword ptr [rbp - 8], 0
p296
sg5
L812281L
sg6
Nsg23
S'cmp'
p297
sg25
S'0xc64f9L'
p298
sg27
Nsba(ibclass
BInstr
p299
(dp300
g2
Nsg17
S'jnz     short loc_C6513'
p301
sg19
S'7513'
p302
sg21
Vjne 0x15
p303
sg5
L812286L
sg6
Nsg23
S'jnz'
p304
sg25
S'0xc64feL'
p305
sg27
Nsbasg70
(lp306
S'mov reg, cs:xmlMregloc_ptr'
p307
aS'mov reg, mem'
p308
aS'mov reg, 48h'
p309
aS'cregl reg'
p310
aS'mov mem, reg'
p311
aS'cmp mem, 0'
p312
aS'jnz func'
p313
asg79
Nsg5
S'0xc64e4L'
p314
sg81
(lp315
S'0xc64cfL'
p316
asg6
Nsg83
(lp317
S'0xc6500L'
p318
aS'0xc6513L'
p319
asg87
Nsg88
Nsg89
S'4b92e126ef463a4f8f15195e91fff799'
p320
sg91
S'9febea72f08a54da0312c32f7e064b10'
p321
sg93
(lp322
g262
ag269
ag276
ag283
ag290
ag297
ag304
asg95
Nsba(ibclass
BBasicBlock
p323
(dp324
g12
Nsg13
(lp325
(ibclass
BInstr
p326
(dp327
g2
Nsg17
S'lea     rdi, aAllocatingRang; "allocating range"'
p328
sg19
S'488d3dd9e30b00'
p329
sg21
Vlea rdi, [rip + 0xbe3d9]
p330
sg5
L812288L
sg6
Nsg23
S'lea'
p331
sg25
S'0xc6500L'
p332
sg27
Nsba(ibclass
BInstr
p333
(dp334
g2
Nsg17
S'call    xmlXPtrErrMemory'
p335
sg19
S'e87ef7ffff'
p336
sg21
Vcall 0xfffffffffffff783
p337
sg5
L812295L
sg6
Nsg23
S'call'
p338
sg25
S'0xc6507L'
p339
sg27
Nsba(ibclass
BInstr
p340
(dp341
g2
Nsg17
S'mov     eax, 0'
p342
sg19
S'b800000000'
p343
sg21
Vmov eax, 0
p344
sg5
L812300L
sg6
Nsg23
S'mov'
p345
sg25
S'0xc650cL'
p346
sg27
Nsba(ibclass
BInstr
p347
(dp348
g2
Nsg17
S'jmp     short locret_C6578'
p349
sg19
S'eb65'
p350
sg21
Vjmp 0x67
p351
sg5
L812305L
sg6
Nsg23
S'jmp'
p352
sg25
S'0xc6511L'
p353
sg27
Nsbasg70
(lp354
S'lea reg, aAllocatingRang'
p355
aS'cregl xmlXPtrErrMemory'
p356
aS'mov reg, 0'
p357
aS'jmp short func'
p358
asg79
Nsg5
S'0xc6500L'
p359
sg81
(lp360
S'0xc64e4L'
p361
asg6
Nsg83
(lp362
S'0xc6578L'
p363
asg87
Nsg88
Nsg89
S'0dc23fd008cf6b8ab05ed1912338b682'
p364
sg91
S'5890bcc1020a02d12ada3a8a58a49381'
p365
sg93
(lp366
g331
ag338
ag345
ag352
asg95
Nsba(ibclass
BBasicBlock
p367
(dp368
g12
Nsg13
(lp369
(ibclass
BInstr
p370
(dp371
g2
Nsg17
S'mov     rax, [rbp+ret]'
p372
sg19
S'488b45f8'
p373
sg21
Vmov rax, qword ptr [rbp - 8]
p374
sg5
L812307L
sg6
Nsg23
S'mov'
p375
sg25
S'0xc6513L'
p376
sg27
Nsba(ibclass
BInstr
p377
(dp378
g2
Nsg17
S'mov     edx, 48h        ; n'
p379
sg19
S'ba48000000'
p380
sg21
Vmov edx, 0x48
p381
sg5
L812311L
sg6
Nsg23
S'mov'
p382
sg25
S'0xc6517L'
p383
sg27
Nsba(ibclass
BInstr
p384
(dp385
g2
Nsg17
S'mov     esi, 0          ; c'
p386
sg19
S'be00000000'
p387
sg21
Vmov esi, 0
p388
sg5
L812316L
sg6
Nsg23
S'mov'
p389
sg25
S'0xc651cL'
p390
sg27
Nsba(ibclass
BInstr
p391
(dp392
g2
Nsg17
S'mov     rdi, rax        ; s'
p393
sg19
S'4889c7'
p394
sg21
Vmov rdi, rax
p395
sg5
L812321L
sg6
Nsg23
S'mov'
p396
sg25
S'0xc6521L'
p397
sg27
Nsba(ibclass
BInstr
p398
(dp399
g2
Nsg17
S'call    memset'
p400
sg19
S'e8475bf6ff'
p401
sg21
Vcall 0xfffffffffff65b4c
p402
sg5
L812324L
sg6
Nsg23
S'call'
p403
sg25
S'0xc6524L'
p404
sg27
Nsba(ibclass
BInstr
p405
(dp406
g2
Nsg17
S'mov     rax, [rbp+ret]'
p407
sg19
S'488b45f8'
p408
sg21
Vmov rax, qword ptr [rbp - 8]
p409
sg5
L812329L
sg6
Nsg23
S'mov'
p410
sg25
S'0xc6529L'
p411
sg27
Nsba(ibclass
BInstr
p412
(dp413
g2
Nsg17
S'mov     dword ptr [rax], 6'
p414
sg19
S'c70006000000'
p415
sg21
Vmov dword ptr [rax], 6
p416
sg5
L812333L
sg6
Nsg23
S'mov'
p417
sg25
S'0xc652dL'
p418
sg27
Nsba(ibclass
BInstr
p419
(dp420
g2
Nsg17
S'mov     rax, [rbp+start]'
p421
sg19
S'488b45e8'
p422
sg21
Vmov rax, qword ptr [rbp - 0x18]
p423
sg5
L812339L
sg6
Nsg23
S'mov'
p424
sg25
S'0xc6533L'
p425
sg27
Nsba(ibclass
BInstr
p426
(dp427
g2
Nsg17
S'mov     rdx, [rax+28h]'
p428
sg19
S'488b5028'
p429
sg21
Vmov rdx, qword ptr [rax + 0x28]
p430
sg5
L812343L
sg6
Nsg23
S'mov'
p431
sg25
S'0xc6537L'
p432
sg27
Nsba(ibclass
BInstr
p433
(dp434
g2
Nsg17
S'mov     rax, [rbp+ret]'
p435
sg19
S'488b45f8'
p436
sg21
Vmov rax, qword ptr [rbp - 8]
p437
sg5
L812347L
sg6
Nsg23
S'mov'
p438
sg25
S'0xc653bL'
p439
sg27
Nsba(ibclass
BInstr
p440
(dp441
g2
Nsg17
S'mov     [rax+28h], rdx'
p442
sg19
S'48895028'
p443
sg21
Vmov qword ptr [rax + 0x28], rdx
p444
sg5
L812351L
sg6
Nsg23
S'mov'
p445
sg25
S'0xc653fL'
p446
sg27
Nsba(ibclass
BInstr
p447
(dp448
g2
Nsg17
S'mov     rax, [rbp+start]'
p449
sg19
S'488b45e8'
p450
sg21
Vmov rax, qword ptr [rbp - 0x18]
p451
sg5
L812355L
sg6
Nsg23
S'mov'
p452
sg25
S'0xc6543L'
p453
sg27
Nsba(ibclass
BInstr
p454
(dp455
g2
Nsg17
S'mov     edx, [rax+30h]'
p456
sg19
S'8b5030'
p457
sg21
Vmov edx, dword ptr [rax + 0x30]
p458
sg5
L812359L
sg6
Nsg23
S'mov'
p459
sg25
S'0xc6547L'
p460
sg27
Nsba(ibclass
BInstr
p461
(dp462
g2
Nsg17
S'mov     rax, [rbp+ret]'
p463
sg19
S'488b45f8'
p464
sg21
Vmov rax, qword ptr [rbp - 8]
p465
sg5
L812362L
sg6
Nsg23
S'mov'
p466
sg25
S'0xc654aL'
p467
sg27
Nsba(ibclass
BInstr
p468
(dp469
g2
Nsg17
S'mov     [rax+30h], edx'
p470
sg19
S'895030'
p471
sg21
Vmov dword ptr [rax + 0x30], edx
p472
sg5
L812366L
sg6
Nsg23
S'mov'
p473
sg25
S'0xc654eL'
p474
sg27
Nsba(ibclass
BInstr
p475
(dp476
g2
Nsg17
S'mov     rax, [rbp+ret]'
p477
sg19
S'488b45f8'
p478
sg21
Vmov rax, qword ptr [rbp - 8]
p479
sg5
L812369L
sg6
Nsg23
S'mov'
p480
sg25
S'0xc6551L'
p481
sg27
Nsba(ibclass
BInstr
p482
(dp483
g2
Nsg17
S'mov     rdx, [rbp+end]'
p484
sg19
S'488b55e0'
p485
sg21
Vmov rdx, qword ptr [rbp - 0x20]
p486
sg5
L812373L
sg6
Nsg23
S'mov'
p487
sg25
S'0xc6555L'
p488
sg27
Nsba(ibclass
BInstr
p489
(dp490
g2
Nsg17
S'mov     [rax+38h], rdx'
p491
sg19
S'48895038'
p492
sg21
Vmov qword ptr [rax + 0x38], rdx
p493
sg5
L812377L
sg6
Nsg23
S'mov'
p494
sg25
S'0xc6559L'
p495
sg27
Nsba(ibclass
BInstr
p496
(dp497
g2
Nsg17
S'mov     rax, [rbp+ret]'
p498
sg19
S'488b45f8'
p499
sg21
Vmov rax, qword ptr [rbp - 8]
p500
sg5
L812381L
sg6
Nsg23
S'mov'
p501
sg25
S'0xc655dL'
p502
sg27
Nsba(ibclass
BInstr
p503
(dp504
g2
Nsg17
S'mov     dword ptr [rax+40h], 0FFFFFFFFh'
p505
sg19
S'c74040ffffffff'
p506
sg21
Vmov dword ptr [rax + 0x40], 0xffffffff
p507
sg5
L812385L
sg6
Nsg23
S'mov'
p508
sg25
S'0xc6561L'
p509
sg27
Nsba(ibclass
BInstr
p510
(dp511
g2
Nsg17
S'mov     rax, [rbp+ret]'
p512
sg19
S'488b45f8'
p513
sg21
Vmov rax, qword ptr [rbp - 8]
p514
sg5
L812392L
sg6
Nsg23
S'mov'
p515
sg25
S'0xc6568L'
p516
sg27
Nsba(ibclass
BInstr
p517
(dp518
g2
Nsg17
S'mov     rdi, rax        ; range'
p519
sg19
S'4889c7'
p520
sg21
Vmov rdi, rax
p521
sg5
L812396L
sg6
Nsg23
S'mov'
p522
sg25
S'0xc656cL'
p523
sg27
Nsba(ibclass
BInstr
p524
(dp525
g2
Nsg17
S'call    xmlXPtrRangeCheckOrder'
p526
sg19
S'e8bbfbffff'
p527
sg21
Vcall 0xfffffffffffffbc0
p528
sg5
L812399L
sg6
Nsg23
S'call'
p529
sg25
S'0xc656fL'
p530
sg27
Nsba(ibclass
BInstr
p531
(dp532
g2
Nsg17
S'mov     rax, [rbp+ret]'
p533
sg19
S'488b45f8'
p534
sg21
Vmov rax, qword ptr [rbp - 8]
p535
sg5
L812404L
sg6
Nsg23
S'mov'
p536
sg25
S'0xc6574L'
p537
sg27
Nsbasg70
(lp538
S'mov reg, mem'
p539
aS'mov reg, 48h'
p540
aS'mov reg, 0'
p541
aS'mov reg, reg'
p542
aS'cregl memset'
p543
aS'mov reg, mem'
p544
aS'mov mem, 6'
p545
aS'mov reg, mem'
p546
aS'mov reg, mem'
p547
aS'mov reg, mem'
p548
aS'mov mem, reg'
p549
aS'mov reg, mem'
p550
aS'mov reg, mem'
p551
aS'mov reg, mem'
p552
aS'mov mem, reg'
p553
aS'mov reg, mem'
p554
aS'mov reg, mem'
p555
aS'mov mem, reg'
p556
aS'mov reg, mem'
p557
aS'mov mem, 0FFFFFFFFh'
p558
aS'mov reg, mem'
p559
aS'mov reg, reg'
p560
aS'cregl xmlXPtrRangeCheckOrder'
p561
aS'mov reg, mem'
p562
asg79
Nsg5
S'0xc6513L'
p563
sg81
(lp564
S'0xc64e4L'
p565
asg6
Nsg83
(lp566
S'0xc6578L'
p567
asg87
Nsg88
Nsg89
S'4025903bf26900d06cfd334dcdea2c96'
p568
sg91
S'1a39f2214bcbf598faa31b93a65303fd'
p569
sg93
(lp570
g375
ag382
ag389
ag396
ag403
ag410
ag417
ag424
ag431
ag438
ag445
ag452
ag459
ag466
ag473
ag480
ag487
ag494
ag501
ag508
ag515
ag522
ag529
ag536
asg95
Nsba(ibclass
BBasicBlock
p571
(dp572
g12
Nsg13
(lp573
(ibclass
BInstr
p574
(dp575
g2
Nsg17
S'leave'
p576
sg19
S'c9'
p577
sg21
Vleave 
p578
sg5
L812408L
sg6
Nsg23
S'leave'
p579
sg25
S'0xc6578L'
p580
sg27
Nsba(ibclass
BInstr
p581
(dp582
g2
Nsg17
S'retn'
p583
sg19
S'c3'
p584
sg21
Vret 
p585
sg5
L812409L
sg6
Nsg23
S'retn'
p586
sg25
S'0xc6579L'
p587
sg27
Nsbasg70
(lp588
g576
ag583
asg79
Nsg5
S'0xc6578L'
p589
sg81
(lp590
S'0xc64b4L'
p591
aS'0xc64c5L'
p592
aS'0xc64daL'
p593
aS'0xc6500L'
p594
aS'0xc6513L'
p595
asg6
Nsg83
(lp596
sg87
Nsg88
Nsg89
S'08c78f73a6f87c85da88b2982f54ce2a'
p597
sg91
S'08c78f73a6f87c85da88b2982f54ce2a'
p598
sg93
(lp599
g579
ag586
asg95
Nsbasb.