(ibclass
BFunc
p0
(dp1
S'hash'
p2
NsS'name'
p3
S'xmlParseInternalSubset'
p4
sS'start_address'
p5
L326912L
sS'flag'
p6
NsS'program'
p7
NsS'bbs'
p8
(lp9
(ibclass
BBasicBlock
p10
(dp11
S'function'
p12
NsS'binstrs'
p13
(lp14
(ibclass
BInstr
p15
(dp16
g2
NsS'disasm'
p17
S'push    rbp'
p18
sS'bytes'
p19
S'55'
p20
sS'disasm_striped'
p21
Vpush rbp
p22
sg5
L326912L
sg6
NsS'mnem'
p23
S'push'
p24
sS'address'
p25
S'0x4fd00L'
p26
sS'basicblock'
p27
Nsba(ibclass
BInstr
p28
(dp29
g2
Nsg17
S'mov     rbp, rsp'
p30
sg19
S'4889e5'
p31
sg21
Vmov rbp, rsp
p32
sg5
L326913L
sg6
Nsg23
S'mov'
p33
sg25
S'0x4fd01L'
p34
sg27
Nsba(ibclass
BInstr
p35
(dp36
g2
Nsg17
S'sub     rsp, 20h'
p37
sg19
S'4883ec20'
p38
sg21
Vsub rsp, 0x20
p39
sg5
L326916L
sg6
Nsg23
S'sub'
p40
sg25
S'0x4fd04L'
p41
sg27
Nsba(ibclass
BInstr
p42
(dp43
g2
Nsg17
S'mov     [rbp+ctxt], rdi'
p44
sg19
S'48897de8'
p45
sg21
Vmov qword ptr [rbp - 0x18], rdi
p46
sg5
L326920L
sg6
Nsg23
S'mov'
p47
sg25
S'0x4fd08L'
p48
sg27
Nsba(ibclass
BInstr
p49
(dp50
g2
Nsg17
S'mov     rax, [rbp+ctxt]'
p51
sg19
S'488b45e8'
p52
sg21
Vmov rax, qword ptr [rbp - 0x18]
p53
sg5
L326924L
sg6
Nsg23
S'mov'
p54
sg25
S'0x4fd0cL'
p55
sg27
Nsba(ibclass
BInstr
p56
(dp57
g2
Nsg17
S'mov     rax, [rax+38h]'
p58
sg19
S'488b4038'
p59
sg21
Vmov rax, qword ptr [rax + 0x38]
p60
sg5
L326928L
sg6
Nsg23
S'mov'
p61
sg25
S'0x4fd10L'
p62
sg27
Nsba(ibclass
BInstr
p63
(dp64
g2
Nsg17
S'mov     rax, [rax+20h]'
p65
sg19
S'488b4020'
p66
sg21
Vmov rax, qword ptr [rax + 0x20]
p67
sg5
L326932L
sg6
Nsg23
S'mov'
p68
sg25
S'0x4fd14L'
p69
sg27
Nsba(ibclass
BInstr
p70
(dp71
g2
Nsg17
S'movzx   eax, byte ptr [rax]'
p72
sg19
S'0fb600'
p73
sg21
Vmovzx eax, byte ptr [rax]
p74
sg5
L326936L
sg6
Nsg23
S'movzx'
p75
sg25
S'0x4fd18L'
p76
sg27
Nsba(ibclass
BInstr
p77
(dp78
g2
Nsg17
S'cmp     al, 5Bh'
p79
sg19
S'3c5b'
p80
sg21
Vcmp al, 0x5b
p81
sg5
L326939L
sg6
Nsg23
S'cmp'
p82
sg25
S'0x4fd1bL'
p83
sg27
Nsba(ibclass
BInstr
p84
(dp85
g2
Nsg17
S'jnz     loc_4FE43'
p86
sg19
S'0f8520010000'
p87
sg21
Vjne 0x126
p88
sg5
L326941L
sg6
Nsg23
S'jnz'
p89
sg25
S'0x4fd1dL'
p90
sg27
NsbasS'disasm_list'
p91
(lp92
S'push reg'
p93
aS'mov reg, reg'
p94
aS'sub reg, 20h'
p95
aS'mov mem, reg'
p96
aS'mov reg, mem'
p97
aS'mov reg, mem'
p98
aS'mov reg, mem'
p99
aS'movzx reg, mem'
p100
aS'cmp reg, 5Bh'
p101
aS'jnz func'
p102
asS'end_address'
p103
Nsg5
S'0x4fd00L'
p104
sS'preds'
p105
(lp106
sg6
NsS'succs'
p107
(lp108
S'0x4fd23L'
p109
aS'0x4fe43L'
p110
asS'hash_v3'
p111
NsS'flag_v2'
p112
NsS'hash_v1'
p113
S'1263c536991de67857d49fc18b298811'
p114
sS'hash_v2'
p115
S'ff0409efe146a9633cde478c31405f5c'
p116
sS'mnen_list'
p117
(lp118
g24
ag33
ag40
ag47
ag54
ag61
ag68
ag75
ag82
ag89
asS'neighbour_disasm_list'
p119
Nsba(ibclass
BBasicBlock
p120
(dp121
g12
Nsg13
(lp122
(ibclass
BInstr
p123
(dp124
g2
Nsg17
S'mov     rax, [rbp+ctxt]'
p125
sg19
S'488b45e8'
p126
sg21
Vmov rax, qword ptr [rbp - 0x18]
p127
sg5
L326947L
sg6
Nsg23
S'mov'
p128
sg25
S'0x4fd23L'
p129
sg27
Nsba(ibclass
BInstr
p130
(dp131
g2
Nsg17
S'mov     dword ptr [rax+110h], 3'
p132
sg19
S'c7801001000003000000'
p133
sg21
Vmov dword ptr [rax + 0x110], 3
p134
sg5
L326951L
sg6
Nsg23
S'mov'
p135
sg25
S'0x4fd27L'
p136
sg27
Nsba(ibclass
BInstr
p137
(dp138
g2
Nsg17
S'mov     rax, [rbp+ctxt]'
p139
sg19
S'488b45e8'
p140
sg21
Vmov rax, qword ptr [rbp - 0x18]
p141
sg5
L326961L
sg6
Nsg23
S'mov'
p142
sg25
S'0x4fd31L'
p143
sg27
Nsba(ibclass
BInstr
p144
(dp145
g2
Nsg17
S'mov     rdi, rax        ; ctxt'
p146
sg19
S'4889c7'
p147
sg21
Vmov rdi, rax
p148
sg5
L326965L
sg6
Nsg23
S'mov'
p149
sg25
S'0x4fd35L'
p150
sg27
Nsba(ibclass
BInstr
p151
(dp152
g2
Nsg17
S'call    xmlNextChar__internal_alias'
p153
sg19
S'e8c363feff'
p154
sg21
Vcall 0xfffffffffffe63c8
p155
sg5
L326968L
sg6
Nsg23
S'call'
p156
sg25
S'0x4fd38L'
p157
sg27
Nsba(ibclass
BInstr
p158
(dp159
g2
Nsg17
S'jmp     loc_4FDF2'
p160
sg19
S'e9b0000000'
p161
sg21
Vjmp 0xb5
p162
sg5
L326973L
sg6
Nsg23
S'jmp'
p163
sg25
S'0x4fd3dL'
p164
sg27
Nsbasg91
(lp165
S'mov reg, mem'
p166
aS'mov mem, 3'
p167
aS'mov reg, mem'
p168
aS'mov reg, reg'
p169
aS'cregl xmlNextChar__internreg_regias'
p170
aS'jmp func'
p171
asg103
Nsg5
S'0x4fd23L'
p172
sg105
(lp173
S'0x4fd00L'
p174
asg6
Nsg107
(lp175
S'0x4fdf2L'
p176
asg111
Nsg112
Nsg113
S'ed0c14dac95c7bafb483aad1c36140be'
p177
sg115
S'ac5b72baeb8db5e477706e030cd5ba1e'
p178
sg117
(lp179
g128
ag135
ag142
ag149
ag156
ag163
asg119
Nsba(ibclass
BBasicBlock
p180
(dp181
g12
Nsg13
(lp182
(ibclass
BInstr
p183
(dp184
g2
Nsg17
S'mov     rax, [rbp+ctxt]'
p185
sg19
S'488b45e8'
p186
sg21
Vmov rax, qword ptr [rbp - 0x18]
p187
sg5
L326978L
sg6
Nsg23
S'mov'
p188
sg25
S'0x4fd42L'
p189
sg27
Nsba(ibclass
BInstr
p190
(dp191
g2
Nsg17
S'mov     rax, [rax+38h]'
p192
sg19
S'488b4038'
p193
sg21
Vmov rax, qword ptr [rax + 0x38]
p194
sg5
L326982L
sg6
Nsg23
S'mov'
p195
sg25
S'0x4fd46L'
p196
sg27
Nsba(ibclass
BInstr
p197
(dp198
g2
Nsg17
S'mov     rax, [rax+20h]'
p199
sg19
S'488b4020'
p200
sg21
Vmov rax, qword ptr [rax + 0x20]
p201
sg5
L326986L
sg6
Nsg23
S'mov'
p202
sg25
S'0x4fd4aL'
p203
sg27
Nsba(ibclass
BInstr
p204
(dp205
g2
Nsg17
S'mov     [rbp+check], rax'
p206
sg19
S'488945f8'
p207
sg21
Vmov qword ptr [rbp - 8], rax
p208
sg5
L326990L
sg6
Nsg23
S'mov'
p209
sg25
S'0x4fd4eL'
p210
sg27
Nsba(ibclass
BInstr
p211
(dp212
g2
Nsg17
S'mov     rax, [rbp+ctxt]'
p213
sg19
S'488b45e8'
p214
sg21
Vmov rax, qword ptr [rbp - 0x18]
p215
sg5
L326994L
sg6
Nsg23
S'mov'
p216
sg25
S'0x4fd52L'
p217
sg27
Nsba(ibclass
BInstr
p218
(dp219
g2
Nsg17
S'mov     rax, [rax+38h]'
p220
sg19
S'488b4038'
p221
sg21
Vmov rax, qword ptr [rax + 0x38]
p222
sg5
L326998L
sg6
Nsg23
S'mov'
p223
sg25
S'0x4fd56L'
p224
sg27
Nsba(ibclass
BInstr
p225
(dp226
g2
Nsg17
S'mov     rax, [rax+40h]'
p227
sg19
S'488b4040'
p228
sg21
Vmov rax, qword ptr [rax + 0x40]
p229
sg5
L327002L
sg6
Nsg23
S'mov'
p230
sg25
S'0x4fd5aL'
p231
sg27
Nsba(ibclass
BInstr
p232
(dp233
g2
Nsg17
S'mov     [rbp+cons], eax'
p234
sg19
S'8945f4'
p235
sg21
Vmov dword ptr [rbp - 0xc], eax
p236
sg5
L327006L
sg6
Nsg23
S'mov'
p237
sg25
S'0x4fd5eL'
p238
sg27
Nsba(ibclass
BInstr
p239
(dp240
g2
Nsg17
S'mov     rax, [rbp+ctxt]'
p241
sg19
S'488b45e8'
p242
sg21
Vmov rax, qword ptr [rbp - 0x18]
p243
sg5
L327009L
sg6
Nsg23
S'mov'
p244
sg25
S'0x4fd61L'
p245
sg27
Nsba(ibclass
BInstr
p246
(dp247
g2
Nsg17
S'mov     rdi, rax        ; ctxt'
p248
sg19
S'4889c7'
p249
sg21
Vmov rdi, rax
p250
sg5
L327013L
sg6
Nsg23
S'mov'
p251
sg25
S'0x4fd65L'
p252
sg27
Nsba(ibclass
BInstr
p253
(dp254
g2
Nsg17
S'call    xmlSkipBlankChars__internal_alias'
p255
sg19
S'e80ecefeff'
p256
sg21
Vcall 0xfffffffffffece13
p257
sg5
L327016L
sg6
Nsg23
S'call'
p258
sg25
S'0x4fd68L'
p259
sg27
Nsba(ibclass
BInstr
p260
(dp261
g2
Nsg17
S'mov     rax, [rbp+ctxt]'
p262
sg19
S'488b45e8'
p263
sg21
Vmov rax, qword ptr [rbp - 0x18]
p264
sg5
L327021L
sg6
Nsg23
S'mov'
p265
sg25
S'0x4fd6dL'
p266
sg27
Nsba(ibclass
BInstr
p267
(dp268
g2
Nsg17
S'mov     rdi, rax        ; ctxt'
p269
sg19
S'4889c7'
p270
sg21
Vmov rdi, rax
p271
sg5
L327025L
sg6
Nsg23
S'mov'
p272
sg25
S'0x4fd71L'
p273
sg27
Nsba(ibclass
BInstr
p274
(dp275
g2
Nsg17
S'call    xmlParseMarkupDecl__internal_alias'
p276
sg19
S'e8becdffff'
p277
sg21
Vcall 0xffffffffffffcdc3
p278
sg5
L327028L
sg6
Nsg23
S'call'
p279
sg25
S'0x4fd74L'
p280
sg27
Nsba(ibclass
BInstr
p281
(dp282
g2
Nsg17
S'mov     rax, [rbp+ctxt]'
p283
sg19
S'488b45e8'
p284
sg21
Vmov rax, qword ptr [rbp - 0x18]
p285
sg5
L327033L
sg6
Nsg23
S'mov'
p286
sg25
S'0x4fd79L'
p287
sg27
Nsba(ibclass
BInstr
p288
(dp289
g2
Nsg17
S'mov     rdi, rax        ; ctxt'
p290
sg19
S'4889c7'
p291
sg21
Vmov rdi, rax
p292
sg5
L327037L
sg6
Nsg23
S'mov'
p293
sg25
S'0x4fd7dL'
p294
sg27
Nsba(ibclass
BInstr
p295
(dp296
g2
Nsg17
S'call    xmlParsePEReference__internal_alias'
p297
sg19
S'e822f2ffff'
p298
sg21
Vcall 0xfffffffffffff227
p299
sg5
L327040L
sg6
Nsg23
S'call'
p300
sg25
S'0x4fd80L'
p301
sg27
Nsba(ibclass
BInstr
p302
(dp303
g2
Nsg17
S'jmp     short loc_4FD93'
p304
sg19
S'eb0c'
p305
sg21
Vjmp 0xe
p306
sg5
L327045L
sg6
Nsg23
S'jmp'
p307
sg25
S'0x4fd85L'
p308
sg27
Nsbasg91
(lp309
S'mov reg, mem'
p310
aS'mov reg, mem'
p311
aS'mov reg, mem'
p312
aS'mov mem, reg'
p313
aS'mov reg, mem'
p314
aS'mov reg, mem'
p315
aS'mov reg, mem'
p316
aS'mov mem, reg'
p317
aS'mov reg, mem'
p318
aS'mov reg, reg'
p319
aS'cregl xmlSkipBlankChars__internreg_regias'
p320
aS'mov reg, mem'
p321
aS'mov reg, reg'
p322
aS'cregl xmlParseMarkupDereg__internreg_regias'
p323
aS'mov reg, mem'
p324
aS'mov reg, reg'
p325
aS'cregl xmlParsePEReference__internreg_regias'
p326
aS'jmp func'
p327
asg103
Nsg5
S'0x4fd42L'
p328
sg105
(lp329
S'0x4fe05L'
p330
asg6
Nsg107
(lp331
S'0x4fd93L'
p332
asg111
Nsg112
Nsg113
S'b5e6f7594399c84764c9f2ebd3790413'
p333
sg115
S'40ecc7bdfb4b94df879038f0ebe2d82c'
p334
sg117
(lp335
g188
ag195
ag202
ag209
ag216
ag223
ag230
ag237
ag244
ag251
ag258
ag265
ag272
ag279
ag286
ag293
ag300
ag307
asg119
Nsba(ibclass
BBasicBlock
p336
(dp337
g12
Nsg13
(lp338
(ibclass
BInstr
p339
(dp340
g2
Nsg17
S'mov     rax, [rbp+ctxt]'
p341
sg19
S'488b45e8'
p342
sg21
Vmov rax, qword ptr [rbp - 0x18]
p343
sg5
L327047L
sg6
Nsg23
S'mov'
p344
sg25
S'0x4fd87L'
p345
sg27
Nsba(ibclass
BInstr
p346
(dp347
g2
Nsg17
S'mov     rdi, rax        ; ctxt'
p348
sg19
S'4889c7'
p349
sg21
Vmov rdi, rax
p350
sg5
L327051L
sg6
Nsg23
S'mov'
p351
sg25
S'0x4fd8bL'
p352
sg27
Nsba(ibclass
BInstr
p353
(dp354
g2
Nsg17
S'call    xmlPopInput__internal_alias'
p355
sg19
S'e8d6cffeff'
p356
sg21
Vcall 0xfffffffffffecfdb
p357
sg5
L327054L
sg6
Nsg23
S'call'
p358
sg25
S'0x4fd8eL'
p359
sg27
Nsbasg91
(lp360
S'mov reg, mem'
p361
aS'mov reg, reg'
p362
aS'cregl xmlPopInput__internreg_regias'
p363
asg103
Nsg5
S'0x4fd87L'
p364
sg105
(lp365
S'0x4fda6L'
p366
asg6
Nsg107
(lp367
S'0x4fd93L'
p368
asg111
Nsg112
Nsg113
S'0bf1a79a6a1155c5085c1c85d6d83d05'
p369
sg115
S'a1f1ecb30a3616b45b977b3f77614fb1'
p370
sg117
(lp371
g344
ag351
ag358
asg119
Nsba(ibclass
BBasicBlock
p372
(dp373
g12
Nsg13
(lp374
(ibclass
BInstr
p375
(dp376
g2
Nsg17
S'mov     rax, [rbp+ctxt]'
p377
sg19
S'488b45e8'
p378
sg21
Vmov rax, qword ptr [rbp - 0x18]
p379
sg5
L327059L
sg6
Nsg23
S'mov'
p380
sg25
S'0x4fd93L'
p381
sg27
Nsba(ibclass
BInstr
p382
(dp383
g2
Nsg17
S'mov     rax, [rax+38h]'
p384
sg19
S'488b4038'
p385
sg21
Vmov rax, qword ptr [rax + 0x38]
p386
sg5
L327063L
sg6
Nsg23
S'mov'
p387
sg25
S'0x4fd97L'
p388
sg27
Nsba(ibclass
BInstr
p389
(dp390
g2
Nsg17
S'mov     rax, [rax+20h]'
p391
sg19
S'488b4020'
p392
sg21
Vmov rax, qword ptr [rax + 0x20]
p393
sg5
L327067L
sg6
Nsg23
S'mov'
p394
sg25
S'0x4fd9bL'
p395
sg27
Nsba(ibclass
BInstr
p396
(dp397
g2
Nsg17
S'movzx   eax, byte ptr [rax]'
p398
sg19
S'0fb600'
p399
sg21
Vmovzx eax, byte ptr [rax]
p400
sg5
L327071L
sg6
Nsg23
S'movzx'
p401
sg25
S'0x4fd9fL'
p402
sg27
Nsba(ibclass
BInstr
p403
(dp404
g2
Nsg17
S'test    al, al'
p405
sg19
S'84c0'
p406
sg21
Vtest al, al
p407
sg5
L327074L
sg6
Nsg23
S'test'
p408
sg25
S'0x4fda2L'
p409
sg27
Nsba(ibclass
BInstr
p410
(dp411
g2
Nsg17
S'jnz     short loc_4FDB2'
p412
sg19
S'750c'
p413
sg21
Vjne 0xe
p414
sg5
L327076L
sg6
Nsg23
S'jnz'
p415
sg25
S'0x4fda4L'
p416
sg27
Nsbasg91
(lp417
S'mov reg, mem'
p418
aS'mov reg, mem'
p419
aS'mov reg, mem'
p420
aS'movzx reg, mem'
p421
aS'test reg, reg'
p422
aS'jnz func'
p423
asg103
Nsg5
S'0x4fd93L'
p424
sg105
(lp425
S'0x4fd42L'
p426
aS'0x4fd87L'
p427
asg6
Nsg107
(lp428
S'0x4fda6L'
p429
aS'0x4fdb2L'
p430
asg111
Nsg112
Nsg113
S'3388ea9a4a7a7e9dc777bbeecfe80287'
p431
sg115
S'8151f4b69511a135357a33c2d5222c80'
p432
sg117
(lp433
g380
ag387
ag394
ag401
ag408
ag415
asg119
Nsba(ibclass
BBasicBlock
p434
(dp435
g12
Nsg13
(lp436
(ibclass
BInstr
p437
(dp438
g2
Nsg17
S'mov     rax, [rbp+ctxt]'
p439
sg19
S'488b45e8'
p440
sg21
Vmov rax, qword ptr [rbp - 0x18]
p441
sg5
L327078L
sg6
Nsg23
S'mov'
p442
sg25
S'0x4fda6L'
p443
sg27
Nsba(ibclass
BInstr
p444
(dp445
g2
Nsg17
S'mov     eax, [rax+40h]'
p446
sg19
S'8b4040'
p447
sg21
Vmov eax, dword ptr [rax + 0x40]
p448
sg5
L327082L
sg6
Nsg23
S'mov'
p449
sg25
S'0x4fdaaL'
p450
sg27
Nsba(ibclass
BInstr
p451
(dp452
g2
Nsg17
S'cmp     eax, 1'
p453
sg19
S'83f801'
p454
sg21
Vcmp eax, 1
p455
sg5
L327085L
sg6
Nsg23
S'cmp'
p456
sg25
S'0x4fdadL'
p457
sg27
Nsba(ibclass
BInstr
p458
(dp459
g2
Nsg17
S'jg      short loc_4FD87'
p460
sg19
S'7fd5'
p461
sg21
Vjg 0xffffffffffffffd7
p462
sg5
L327088L
sg6
Nsg23
S'jg'
p463
sg25
S'0x4fdb0L'
p464
sg27
Nsbasg91
(lp465
S'mov reg, mem'
p466
aS'mov reg, mem'
p467
aS'cmp reg, 1'
p468
aS'jg func'
p469
asg103
Nsg5
S'0x4fda6L'
p470
sg105
(lp471
S'0x4fd93L'
p472
asg6
Nsg107
(lp473
S'0x4fd87L'
p474
aS'0x4fdb2L'
p475
asg111
Nsg112
Nsg113
S'0f052c266aca8b9c74252b813a6a74b5'
p476
sg115
S'8a7d563058a35f93813abab97c773cf3'
p477
sg117
(lp478
g442
ag449
ag456
ag463
asg119
Nsba(ibclass
BBasicBlock
p479
(dp480
g12
Nsg13
(lp481
(ibclass
BInstr
p482
(dp483
g2
Nsg17
S'mov     rax, [rbp+ctxt]'
p484
sg19
S'488b45e8'
p485
sg21
Vmov rax, qword ptr [rbp - 0x18]
p486
sg5
L327090L
sg6
Nsg23
S'mov'
p487
sg25
S'0x4fdb2L'
p488
sg27
Nsba(ibclass
BInstr
p489
(dp490
g2
Nsg17
S'mov     rax, [rax+38h]'
p491
sg19
S'488b4038'
p492
sg21
Vmov rax, qword ptr [rax + 0x38]
p493
sg5
L327094L
sg6
Nsg23
S'mov'
p494
sg25
S'0x4fdb6L'
p495
sg27
Nsba(ibclass
BInstr
p496
(dp497
g2
Nsg17
S'mov     rax, [rax+20h]'
p498
sg19
S'488b4020'
p499
sg21
Vmov rax, qword ptr [rax + 0x20]
p500
sg5
L327098L
sg6
Nsg23
S'mov'
p501
sg25
S'0x4fdbaL'
p502
sg27
Nsba(ibclass
BInstr
p503
(dp504
g2
Nsg17
S'cmp     rax, [rbp+check]'
p505
sg19
S'483b45f8'
p506
sg21
Vcmp rax, qword ptr [rbp - 8]
p507
sg5
L327102L
sg6
Nsg23
S'cmp'
p508
sg25
S'0x4fdbeL'
p509
sg27
Nsba(ibclass
BInstr
p510
(dp511
g2
Nsg17
S'jnz     short loc_4FDF2'
p512
sg19
S'752e'
p513
sg21
Vjne 0x30
p514
sg5
L327106L
sg6
Nsg23
S'jnz'
p515
sg25
S'0x4fdc2L'
p516
sg27
Nsbasg91
(lp517
S'mov reg, mem'
p518
aS'mov reg, mem'
p519
aS'mov reg, mem'
p520
aS'cmp reg, mem'
p521
aS'jnz func'
p522
asg103
Nsg5
S'0x4fdb2L'
p523
sg105
(lp524
S'0x4fd93L'
p525
aS'0x4fda6L'
p526
asg6
Nsg107
(lp527
S'0x4fdc4L'
p528
aS'0x4fdf2L'
p529
asg111
Nsg112
Nsg113
S'd70352da318c40f997197b49a82bdf5d'
p530
sg115
S'04f3c9ce42855f79cc94588c05edb756'
p531
sg117
(lp532
g487
ag494
ag501
ag508
ag515
asg119
Nsba(ibclass
BBasicBlock
p533
(dp534
g12
Nsg13
(lp535
(ibclass
BInstr
p536
(dp537
g2
Nsg17
S'mov     edx, [rbp+cons]'
p538
sg19
S'8b55f4'
p539
sg21
Vmov edx, dword ptr [rbp - 0xc]
p540
sg5
L327108L
sg6
Nsg23
S'mov'
p541
sg25
S'0x4fdc4L'
p542
sg27
Nsba(ibclass
BInstr
p543
(dp544
g2
Nsg17
S'mov     rax, [rbp+ctxt]'
p545
sg19
S'488b45e8'
p546
sg21
Vmov rax, qword ptr [rbp - 0x18]
p547
sg5
L327111L
sg6
Nsg23
S'mov'
p548
sg25
S'0x4fdc7L'
p549
sg27
Nsba(ibclass
BInstr
p550
(dp551
g2
Nsg17
S'mov     rax, [rax+38h]'
p552
sg19
S'488b4038'
p553
sg21
Vmov rax, qword ptr [rax + 0x38]
p554
sg5
L327115L
sg6
Nsg23
S'mov'
p555
sg25
S'0x4fdcbL'
p556
sg27
Nsba(ibclass
BInstr
p557
(dp558
g2
Nsg17
S'mov     rax, [rax+40h]'
p559
sg19
S'488b4040'
p560
sg21
Vmov rax, qword ptr [rax + 0x40]
p561
sg5
L327119L
sg6
Nsg23
S'mov'
p562
sg25
S'0x4fdcfL'
p563
sg27
Nsba(ibclass
BInstr
p564
(dp565
g2
Nsg17
S'cmp     rdx, rax'
p566
sg19
S'4839c2'
p567
sg21
Vcmp rdx, rax
p568
sg5
L327123L
sg6
Nsg23
S'cmp'
p569
sg25
S'0x4fdd3L'
p570
sg27
Nsba(ibclass
BInstr
p571
(dp572
g2
Nsg17
S'jnz     short loc_4FDF2'
p573
sg19
S'751a'
p574
sg21
Vjne 0x1c
p575
sg5
L327126L
sg6
Nsg23
S'jnz'
p576
sg25
S'0x4fdd6L'
p577
sg27
Nsbasg91
(lp578
S'mov reg, mem'
p579
aS'mov reg, mem'
p580
aS'mov reg, mem'
p581
aS'mov reg, mem'
p582
aS'cmp reg, reg'
p583
aS'jnz func'
p584
asg103
Nsg5
S'0x4fdc4L'
p585
sg105
(lp586
S'0x4fdb2L'
p587
asg6
Nsg107
(lp588
S'0x4fdd8L'
p589
aS'0x4fdf2L'
p590
asg111
Nsg112
Nsg113
S'45c68668edd69ebd97af22bf008165f4'
p591
sg115
S'78cb94cd96146dee0bb1d3a89835f79d'
p592
sg117
(lp593
g541
ag548
ag555
ag562
ag569
ag576
asg119
Nsba(ibclass
BBasicBlock
p594
(dp595
g12
Nsg13
(lp596
(ibclass
BInstr
p597
(dp598
g2
Nsg17
S'mov     rax, [rbp+ctxt]'
p599
sg19
S'488b45e8'
p600
sg21
Vmov rax, qword ptr [rbp - 0x18]
p601
sg5
L327128L
sg6
Nsg23
S'mov'
p602
sg25
S'0x4fdd8L'
p603
sg27
Nsba(ibclass
BInstr
p604
(dp605
g2
Nsg17
S'lea     rdx, aXmlparseintern; "xmlParseInternalSubset: error detected "...'
p606
sg19
S'488d154d921200'
p607
sg21
Vlea rdx, [rip + 0x12924d]
p608
sg5
L327132L
sg6
Nsg23
S'lea'
p609
sg25
S'0x4fddcL'
p610
sg27
Nsba(ibclass
BInstr
p611
(dp612
g2
Nsg17
S'mov     esi, 1          ; error'
p613
sg19
S'be01000000'
p614
sg21
Vmov esi, 1
p615
sg5
L327139L
sg6
Nsg23
S'mov'
p616
sg25
S'0x4fde3L'
p617
sg27
Nsba(ibclass
BInstr
p618
(dp619
g2
Nsg17
S'mov     rdi, rax        ; ctxt'
p620
sg19
S'4889c7'
p621
sg21
Vmov rdi, rax
p622
sg5
L327144L
sg6
Nsg23
S'mov'
p623
sg25
S'0x4fde8L'
p624
sg27
Nsba(ibclass
BInstr
p625
(dp626
g2
Nsg17
S'call    xmlFatalErr'
p627
sg19
S'e877a0feff'
p628
sg21
Vcall 0xfffffffffffea07c
p629
sg5
L327147L
sg6
Nsg23
S'call'
p630
sg25
S'0x4fdebL'
p631
sg27
Nsba(ibclass
BInstr
p632
(dp633
g2
Nsg17
S'jmp     short loc_4FE18'
p634
sg19
S'eb26'
p635
sg21
Vjmp 0x28
p636
sg5
L327152L
sg6
Nsg23
S'jmp'
p637
sg25
S'0x4fdf0L'
p638
sg27
Nsbasg91
(lp639
S'mov reg, mem'
p640
aS'lea reg, aXmlparseintern'
p641
aS'mov reg, 1'
p642
aS'mov reg, reg'
p643
aS'cregl xmlFatregErr'
p644
aS'jmp func'
p645
asg103
Nsg5
S'0x4fdd8L'
p646
sg105
(lp647
S'0x4fdc4L'
p648
asg6
Nsg107
(lp649
S'0x4fe18L'
p650
asg111
Nsg112
Nsg113
S'4a5ac3a6e27ad62138cbb7956191b119'
p651
sg115
S'6e848f34a055e3f29b87c393258a2194'
p652
sg117
(lp653
g602
ag609
ag616
ag623
ag630
ag637
asg119
Nsba(ibclass
BBasicBlock
p654
(dp655
g12
Nsg13
(lp656
(ibclass
BInstr
p657
(dp658
g2
Nsg17
S'mov     rax, [rbp+ctxt]'
p659
sg19
S'488b45e8'
p660
sg21
Vmov rax, qword ptr [rbp - 0x18]
p661
sg5
L327154L
sg6
Nsg23
S'mov'
p662
sg25
S'0x4fdf2L'
p663
sg27
Nsba(ibclass
BInstr
p664
(dp665
g2
Nsg17
S'mov     rax, [rax+38h]'
p666
sg19
S'488b4038'
p667
sg21
Vmov rax, qword ptr [rax + 0x38]
p668
sg5
L327158L
sg6
Nsg23
S'mov'
p669
sg25
S'0x4fdf6L'
p670
sg27
Nsba(ibclass
BInstr
p671
(dp672
g2
Nsg17
S'mov     rax, [rax+20h]'
p673
sg19
S'488b4020'
p674
sg21
Vmov rax, qword ptr [rax + 0x20]
p675
sg5
L327162L
sg6
Nsg23
S'mov'
p676
sg25
S'0x4fdfaL'
p677
sg27
Nsba(ibclass
BInstr
p678
(dp679
g2
Nsg17
S'movzx   eax, byte ptr [rax]'
p680
sg19
S'0fb600'
p681
sg21
Vmovzx eax, byte ptr [rax]
p682
sg5
L327166L
sg6
Nsg23
S'movzx'
p683
sg25
S'0x4fdfeL'
p684
sg27
Nsba(ibclass
BInstr
p685
(dp686
g2
Nsg17
S'cmp     al, 5Dh'
p687
sg19
S'3c5d'
p688
sg21
Vcmp al, 0x5d
p689
sg5
L327169L
sg6
Nsg23
S'cmp'
p690
sg25
S'0x4fe01L'
p691
sg27
Nsba(ibclass
BInstr
p692
(dp693
g2
Nsg17
S'jz      short loc_4FE18'
p694
sg19
S'7413'
p695
sg21
Vje 0x15
p696
sg5
L327171L
sg6
Nsg23
S'jz'
p697
sg25
S'0x4fe03L'
p698
sg27
Nsbasg91
(lp699
S'mov reg, mem'
p700
aS'mov reg, mem'
p701
aS'mov reg, mem'
p702
aS'movzx reg, mem'
p703
aS'cmp reg, 5Dh'
p704
aS'jz func'
p705
asg103
Nsg5
S'0x4fdf2L'
p706
sg105
(lp707
S'0x4fd23L'
p708
aS'0x4fdb2L'
p709
aS'0x4fdc4L'
p710
asg6
Nsg107
(lp711
S'0x4fe05L'
p712
aS'0x4fe18L'
p713
asg111
Nsg112
Nsg113
S'16b78aabab836f07485954710c0f23a0'
p714
sg115
S'84e24fc4ea6b625874ad19bd56222ed7'
p715
sg117
(lp716
g662
ag669
ag676
ag683
ag690
ag697
asg119
Nsba(ibclass
BBasicBlock
p717
(dp718
g12
Nsg13
(lp719
(ibclass
BInstr
p720
(dp721
g2
Nsg17
S'mov     rax, [rbp+ctxt]'
p722
sg19
S'488b45e8'
p723
sg21
Vmov rax, qword ptr [rbp - 0x18]
p724
sg5
L327173L
sg6
Nsg23
S'mov'
p725
sg25
S'0x4fe05L'
p726
sg27
Nsba(ibclass
BInstr
p727
(dp728
g2
Nsg17
S'mov     eax, [rax+110h]'
p729
sg19
S'8b8010010000'
p730
sg21
Vmov eax, dword ptr [rax + 0x110]
p731
sg5
L327177L
sg6
Nsg23
S'mov'
p732
sg25
S'0x4fe09L'
p733
sg27
Nsba(ibclass
BInstr
p734
(dp735
g2
Nsg17
S'cmp     eax, 0FFFFFFFFh'
p736
sg19
S'83f8ff'
p737
sg21
Vcmp eax, -1
p738
sg5
L327183L
sg6
Nsg23
S'cmp'
p739
sg25
S'0x4fe0fL'
p740
sg27
Nsba(ibclass
BInstr
p741
(dp742
g2
Nsg17
S'jnz     loc_4FD42'
p743
sg19
S'0f852affffff'
p744
sg21
Vjne 0xffffffffffffff30
p745
sg5
L327186L
sg6
Nsg23
S'jnz'
p746
sg25
S'0x4fe12L'
p747
sg27
Nsbasg91
(lp748
S'mov reg, mem'
p749
aS'mov reg, mem'
p750
aS'cmp reg, 0FFFFFFFFh'
p751
aS'jnz func'
p752
asg103
Nsg5
S'0x4fe05L'
p753
sg105
(lp754
S'0x4fdf2L'
p755
asg6
Nsg107
(lp756
S'0x4fd42L'
p757
aS'0x4fe18L'
p758
asg111
Nsg112
Nsg113
S'a19a851724661b9339243c65cfd318e3'
p759
sg115
S'ddc57fb7e68d46c888fd2c2cbc462a96'
p760
sg117
(lp761
g725
ag732
ag739
ag746
asg119
Nsba(ibclass
BBasicBlock
p762
(dp763
g12
Nsg13
(lp764
(ibclass
BInstr
p765
(dp766
g2
Nsg17
S'mov     rax, [rbp+ctxt]'
p767
sg19
S'488b45e8'
p768
sg21
Vmov rax, qword ptr [rbp - 0x18]
p769
sg5
L327192L
sg6
Nsg23
S'mov'
p770
sg25
S'0x4fe18L'
p771
sg27
Nsba(ibclass
BInstr
p772
(dp773
g2
Nsg17
S'mov     rax, [rax+38h]'
p774
sg19
S'488b4038'
p775
sg21
Vmov rax, qword ptr [rax + 0x38]
p776
sg5
L327196L
sg6
Nsg23
S'mov'
p777
sg25
S'0x4fe1cL'
p778
sg27
Nsba(ibclass
BInstr
p779
(dp780
g2
Nsg17
S'mov     rax, [rax+20h]'
p781
sg19
S'488b4020'
p782
sg21
Vmov rax, qword ptr [rax + 0x20]
p783
sg5
L327200L
sg6
Nsg23
S'mov'
p784
sg25
S'0x4fe20L'
p785
sg27
Nsba(ibclass
BInstr
p786
(dp787
g2
Nsg17
S'movzx   eax, byte ptr [rax]'
p788
sg19
S'0fb600'
p789
sg21
Vmovzx eax, byte ptr [rax]
p790
sg5
L327204L
sg6
Nsg23
S'movzx'
p791
sg25
S'0x4fe24L'
p792
sg27
Nsba(ibclass
BInstr
p793
(dp794
g2
Nsg17
S'cmp     al, 5Dh'
p795
sg19
S'3c5d'
p796
sg21
Vcmp al, 0x5d
p797
sg5
L327207L
sg6
Nsg23
S'cmp'
p798
sg25
S'0x4fe27L'
p799
sg27
Nsba(ibclass
BInstr
p800
(dp801
g2
Nsg17
S'jnz     short loc_4FE43'
p802
sg19
S'7518'
p803
sg21
Vjne 0x1a
p804
sg5
L327209L
sg6
Nsg23
S'jnz'
p805
sg25
S'0x4fe29L'
p806
sg27
Nsbasg91
(lp807
S'mov reg, mem'
p808
aS'mov reg, mem'
p809
aS'mov reg, mem'
p810
aS'movzx reg, mem'
p811
aS'cmp reg, 5Dh'
p812
aS'jnz func'
p813
asg103
Nsg5
S'0x4fe18L'
p814
sg105
(lp815
S'0x4fdd8L'
p816
aS'0x4fdf2L'
p817
aS'0x4fe05L'
p818
asg6
Nsg107
(lp819
S'0x4fe2bL'
p820
aS'0x4fe43L'
p821
asg111
Nsg112
Nsg113
S'8f3f680eb64f543d58e9f30e939c868c'
p822
sg115
S'e51c2443fd9c711994d5e90fd9c60a62'
p823
sg117
(lp824
g770
ag777
ag784
ag791
ag798
ag805
asg119
Nsba(ibclass
BBasicBlock
p825
(dp826
g12
Nsg13
(lp827
(ibclass
BInstr
p828
(dp829
g2
Nsg17
S'mov     rax, [rbp+ctxt]'
p830
sg19
S'488b45e8'
p831
sg21
Vmov rax, qword ptr [rbp - 0x18]
p832
sg5
L327211L
sg6
Nsg23
S'mov'
p833
sg25
S'0x4fe2bL'
p834
sg27
Nsba(ibclass
BInstr
p835
(dp836
g2
Nsg17
S'mov     rdi, rax        ; ctxt'
p837
sg19
S'4889c7'
p838
sg21
Vmov rdi, rax
p839
sg5
L327215L
sg6
Nsg23
S'mov'
p840
sg25
S'0x4fe2fL'
p841
sg27
Nsba(ibclass
BInstr
p842
(dp843
g2
Nsg17
S'call    xmlNextChar__internal_alias'
p844
sg19
S'e8c962feff'
p845
sg21
Vcall 0xfffffffffffe62ce
p846
sg5
L327218L
sg6
Nsg23
S'call'
p847
sg25
S'0x4fe32L'
p848
sg27
Nsba(ibclass
BInstr
p849
(dp850
g2
Nsg17
S'mov     rax, [rbp+ctxt]'
p851
sg19
S'488b45e8'
p852
sg21
Vmov rax, qword ptr [rbp - 0x18]
p853
sg5
L327223L
sg6
Nsg23
S'mov'
p854
sg25
S'0x4fe37L'
p855
sg27
Nsba(ibclass
BInstr
p856
(dp857
g2
Nsg17
S'mov     rdi, rax        ; ctxt'
p858
sg19
S'4889c7'
p859
sg21
Vmov rdi, rax
p860
sg5
L327227L
sg6
Nsg23
S'mov'
p861
sg25
S'0x4fe3bL'
p862
sg27
Nsba(ibclass
BInstr
p863
(dp864
g2
Nsg17
S'call    xmlSkipBlankChars__internal_alias'
p865
sg19
S'e838cdfeff'
p866
sg21
Vcall 0xfffffffffffecd3d
p867
sg5
L327230L
sg6
Nsg23
S'call'
p868
sg25
S'0x4fe3eL'
p869
sg27
Nsbasg91
(lp870
S'mov reg, mem'
p871
aS'mov reg, reg'
p872
aS'cregl xmlNextChar__internreg_regias'
p873
aS'mov reg, mem'
p874
aS'mov reg, reg'
p875
aS'cregl xmlSkipBlankChars__internreg_regias'
p876
asg103
Nsg5
S'0x4fe2bL'
p877
sg105
(lp878
S'0x4fe18L'
p879
asg6
Nsg107
(lp880
S'0x4fe43L'
p881
asg111
Nsg112
Nsg113
S'cad24a8299a2e7dae392cb080f4633bd'
p882
sg115
S'6ec859500cfbc4978d34340d1f5a3400'
p883
sg117
(lp884
g833
ag840
ag847
ag854
ag861
ag868
asg119
Nsba(ibclass
BBasicBlock
p885
(dp886
g12
Nsg13
(lp887
(ibclass
BInstr
p888
(dp889
g2
Nsg17
S'mov     rax, [rbp+ctxt]'
p890
sg19
S'488b45e8'
p891
sg21
Vmov rax, qword ptr [rbp - 0x18]
p892
sg5
L327235L
sg6
Nsg23
S'mov'
p893
sg25
S'0x4fe43L'
p894
sg27
Nsba(ibclass
BInstr
p895
(dp896
g2
Nsg17
S'mov     rax, [rax+38h]'
p897
sg19
S'488b4038'
p898
sg21
Vmov rax, qword ptr [rax + 0x38]
p899
sg5
L327239L
sg6
Nsg23
S'mov'
p900
sg25
S'0x4fe47L'
p901
sg27
Nsba(ibclass
BInstr
p902
(dp903
g2
Nsg17
S'mov     rax, [rax+20h]'
p904
sg19
S'488b4020'
p905
sg21
Vmov rax, qword ptr [rax + 0x20]
p906
sg5
L327243L
sg6
Nsg23
S'mov'
p907
sg25
S'0x4fe4bL'
p908
sg27
Nsba(ibclass
BInstr
p909
(dp910
g2
Nsg17
S'movzx   eax, byte ptr [rax]'
p911
sg19
S'0fb600'
p912
sg21
Vmovzx eax, byte ptr [rax]
p913
sg5
L327247L
sg6
Nsg23
S'movzx'
p914
sg25
S'0x4fe4fL'
p915
sg27
Nsba(ibclass
BInstr
p916
(dp917
g2
Nsg17
S'cmp     al, 3Eh'
p918
sg19
S'3c3e'
p919
sg21
Vcmp al, 0x3e
p920
sg5
L327250L
sg6
Nsg23
S'cmp'
p921
sg25
S'0x4fe52L'
p922
sg27
Nsba(ibclass
BInstr
p923
(dp924
g2
Nsg17
S'jz      short loc_4FE6C'
p925
sg19
S'7416'
p926
sg21
Vje 0x18
p927
sg5
L327252L
sg6
Nsg23
S'jz'
p928
sg25
S'0x4fe54L'
p929
sg27
Nsbasg91
(lp930
S'mov reg, mem'
p931
aS'mov reg, mem'
p932
aS'mov reg, mem'
p933
aS'movzx reg, mem'
p934
aS'cmp reg, 3Eh'
p935
aS'jz func'
p936
asg103
Nsg5
S'0x4fe43L'
p937
sg105
(lp938
S'0x4fd00L'
p939
aS'0x4fe18L'
p940
aS'0x4fe2bL'
p941
asg6
Nsg107
(lp942
S'0x4fe56L'
p943
aS'0x4fe6cL'
p944
asg111
Nsg112
Nsg113
S'16b78aabab836f07485954710c0f23a0'
p945
sg115
S'71dee8192b8aa0129ba5d9c7f8fe14a7'
p946
sg117
(lp947
g893
ag900
ag907
ag914
ag921
ag928
asg119
Nsba(ibclass
BBasicBlock
p948
(dp949
g12
Nsg13
(lp950
(ibclass
BInstr
p951
(dp952
g2
Nsg17
S'mov     rax, [rbp+ctxt]'
p953
sg19
S'488b45e8'
p954
sg21
Vmov rax, qword ptr [rbp - 0x18]
p955
sg5
L327254L
sg6
Nsg23
S'mov'
p956
sg25
S'0x4fe56L'
p957
sg27
Nsba(ibclass
BInstr
p958
(dp959
g2
Nsg17
S'mov     edx, 0          ; info'
p960
sg19
S'ba00000000'
p961
sg21
Vmov edx, 0
p962
sg5
L327258L
sg6
Nsg23
S'mov'
p963
sg25
S'0x4fe5aL'
p964
sg27
Nsba(ibclass
BInstr
p965
(dp966
g2
Nsg17
S'mov     esi, 3Dh        ; error'
p967
sg19
S'be3d000000'
p968
sg21
Vmov esi, 0x3d
p969
sg5
L327263L
sg6
Nsg23
S'mov'
p970
sg25
S'0x4fe5fL'
p971
sg27
Nsba(ibclass
BInstr
p972
(dp973
g2
Nsg17
S'mov     rdi, rax        ; ctxt'
p974
sg19
S'4889c7'
p975
sg21
Vmov rdi, rax
p976
sg5
L327268L
sg6
Nsg23
S'mov'
p977
sg25
S'0x4fe64L'
p978
sg27
Nsba(ibclass
BInstr
p979
(dp980
g2
Nsg17
S'call    xmlFatalErr'
p981
sg19
S'e8fb9ffeff'
p982
sg21
Vcall 0xfffffffffffea000
p983
sg5
L327271L
sg6
Nsg23
S'call'
p984
sg25
S'0x4fe67L'
p985
sg27
Nsbasg91
(lp986
S'mov reg, mem'
p987
aS'mov reg, 0'
p988
aS'mov reg, 3Dh'
p989
aS'mov reg, reg'
p990
aS'cregl xmlFatregErr'
p991
asg103
Nsg5
S'0x4fe56L'
p992
sg105
(lp993
S'0x4fe43L'
p994
asg6
Nsg107
(lp995
S'0x4fe6cL'
p996
asg111
Nsg112
Nsg113
S'479cda37c3510ded9234029e3a10bd8d'
p997
sg115
S'6db7a25eb37b0449df631725e9a04345'
p998
sg117
(lp999
g956
ag963
ag970
ag977
ag984
asg119
Nsba(ibclass
BBasicBlock
p1000
(dp1001
g12
Nsg13
(lp1002
(ibclass
BInstr
p1003
(dp1004
g2
Nsg17
S'mov     rax, [rbp+ctxt]'
p1005
sg19
S'488b45e8'
p1006
sg21
Vmov rax, qword ptr [rbp - 0x18]
p1007
sg5
L327276L
sg6
Nsg23
S'mov'
p1008
sg25
S'0x4fe6cL'
p1009
sg27
Nsba(ibclass
BInstr
p1010
(dp1011
g2
Nsg17
S'mov     rdi, rax        ; ctxt'
p1012
sg19
S'4889c7'
p1013
sg21
Vmov rdi, rax
p1014
sg5
L327280L
sg6
Nsg23
S'mov'
p1015
sg25
S'0x4fe70L'
p1016
sg27
Nsba(ibclass
BInstr
p1017
(dp1018
g2
Nsg17
S'call    xmlNextChar__internal_alias'
p1019
sg19
S'e88862feff'
p1020
sg21
Vcall 0xfffffffffffe628d
p1021
sg5
L327283L
sg6
Nsg23
S'call'
p1022
sg25
S'0x4fe73L'
p1023
sg27
Nsba(ibclass
BInstr
p1024
(dp1025
g2
Nsg17
S'nop'
p1026
sg19
S'90'
p1027
sg21
Vnop 
p1028
sg5
L327288L
sg6
Nsg23
S'nop'
p1029
sg25
S'0x4fe78L'
p1030
sg27
Nsba(ibclass
BInstr
p1031
(dp1032
g2
Nsg17
S'leave'
p1033
sg19
S'c9'
p1034
sg21
Vleave 
p1035
sg5
L327289L
sg6
Nsg23
S'leave'
p1036
sg25
S'0x4fe79L'
p1037
sg27
Nsba(ibclass
BInstr
p1038
(dp1039
g2
Nsg17
S'retn'
p1040
sg19
S'c3'
p1041
sg21
Vret 
p1042
sg5
L327290L
sg6
Nsg23
S'retn'
p1043
sg25
S'0x4fe7aL'
p1044
sg27
Nsbasg91
(lp1045
S'mov reg, mem'
p1046
aS'mov reg, reg'
p1047
aS'cregl xmlNextChar__internreg_regias'
p1048
ag1026
ag1033
ag1040
asg103
Nsg5
S'0x4fe6cL'
p1049
sg105
(lp1050
S'0x4fe43L'
p1051
aS'0x4fe56L'
p1052
asg6
Nsg107
(lp1053
sg111
Nsg112
Nsg113
S'42e220938cb913217745d0a8ffdc030d'
p1054
sg115
S'7cd728cae5f4e81fa07b3ee583540b95'
p1055
sg117
(lp1056
g1008
ag1015
ag1022
ag1029
ag1036
ag1043
asg119
Nsbasb.