(ibclass
BFunc
p0
(dp1
S'hash'
p2
NsS'name'
p3
S'htmlParseSystemLiteral'
p4
sS'start_address'
p5
L601957L
sS'flag'
p6
NsS'program'
p7
NsS'bbs'
p8
(lp9
(ibclass
BBasicBlock
p10
(dp11
S'function'
p12
NsS'binstrs'
p13
(lp14
(ibclass
BInstr
p15
(dp16
g2
NsS'disasm'
p17
S'push    rbp'
p18
sS'bytes'
p19
S'55'
p20
sS'disasm_striped'
p21
Vpush rbp
p22
sg5
L601957L
sg6
NsS'mnem'
p23
S'push'
p24
sS'address'
p25
S'0x92f65L'
p26
sS'basicblock'
p27
Nsba(ibclass
BInstr
p28
(dp29
g2
Nsg17
S'mov     rbp, rsp'
p30
sg19
S'4889e5'
p31
sg21
Vmov rbp, rsp
p32
sg5
L601958L
sg6
Nsg23
S'mov'
p33
sg25
S'0x92f66L'
p34
sg27
Nsba(ibclass
BInstr
p35
(dp36
g2
Nsg17
S'sub     rsp, 20h'
p37
sg19
S'4883ec20'
p38
sg21
Vsub rsp, 0x20
p39
sg5
L601961L
sg6
Nsg23
S'sub'
p40
sg25
S'0x92f69L'
p41
sg27
Nsba(ibclass
BInstr
p42
(dp43
g2
Nsg17
S'mov     [rbp+ctxt], rdi'
p44
sg19
S'48897de8'
p45
sg21
Vmov qword ptr [rbp - 0x18], rdi
p46
sg5
L601965L
sg6
Nsg23
S'mov'
p47
sg25
S'0x92f6dL'
p48
sg27
Nsba(ibclass
BInstr
p49
(dp50
g2
Nsg17
S'mov     [rbp+ret], 0'
p51
sg19
S'48c745f000000000'
p52
sg21
Vmov qword ptr [rbp - 0x10], 0
p53
sg5
L601969L
sg6
Nsg23
S'mov'
p54
sg25
S'0x92f71L'
p55
sg27
Nsba(ibclass
BInstr
p56
(dp57
g2
Nsg17
S'mov     rax, [rbp+ctxt]'
p58
sg19
S'488b45e8'
p59
sg21
Vmov rax, qword ptr [rbp - 0x18]
p60
sg5
L601977L
sg6
Nsg23
S'mov'
p61
sg25
S'0x92f79L'
p62
sg27
Nsba(ibclass
BInstr
p63
(dp64
g2
Nsg17
S'mov     rax, [rax+38h]'
p65
sg19
S'488b4038'
p66
sg21
Vmov rax, qword ptr [rax + 0x38]
p67
sg5
L601981L
sg6
Nsg23
S'mov'
p68
sg25
S'0x92f7dL'
p69
sg27
Nsba(ibclass
BInstr
p70
(dp71
g2
Nsg17
S'mov     rax, [rax+20h]'
p72
sg19
S'488b4020'
p73
sg21
Vmov rax, qword ptr [rax + 0x20]
p74
sg5
L601985L
sg6
Nsg23
S'mov'
p75
sg25
S'0x92f81L'
p76
sg27
Nsba(ibclass
BInstr
p77
(dp78
g2
Nsg17
S'movzx   eax, byte ptr [rax]'
p79
sg19
S'0fb600'
p80
sg21
Vmovzx eax, byte ptr [rax]
p81
sg5
L601989L
sg6
Nsg23
S'movzx'
p82
sg25
S'0x92f85L'
p83
sg27
Nsba(ibclass
BInstr
p84
(dp85
g2
Nsg17
S'cmp     al, 22h'
p86
sg19
S'3c22'
p87
sg21
Vcmp al, 0x22
p88
sg5
L601992L
sg6
Nsg23
S'cmp'
p89
sg25
S'0x92f88L'
p90
sg27
Nsba(ibclass
BInstr
p91
(dp92
g2
Nsg17
S'jnz     loc_930CB'
p93
sg19
S'0f853b010000'
p94
sg21
Vjne 0x141
p95
sg5
L601994L
sg6
Nsg23
S'jnz'
p96
sg25
S'0x92f8aL'
p97
sg27
NsbasS'disasm_list'
p98
(lp99
S'push reg'
p100
aS'mov reg, reg'
p101
aS'sub reg, 20h'
p102
aS'mov mem, reg'
p103
aS'mov mem, 0'
p104
aS'mov reg, mem'
p105
aS'mov reg, mem'
p106
aS'mov reg, mem'
p107
aS'movzx reg, mem'
p108
aS'cmp reg, 22h'
p109
aS'jnz func'
p110
asS'end_address'
p111
Nsg5
S'0x92f65L'
p112
sS'preds'
p113
(lp114
sg6
NsS'succs'
p115
(lp116
S'0x92f90L'
p117
aS'0x930cbL'
p118
asS'hash_v3'
p119
NsS'flag_v2'
p120
NsS'hash_v1'
p121
S'fb4877c8dec2f8273059dec2df755d1a'
p122
sS'hash_v2'
p123
S'bb8ff5240a2fa9d4e0d8c6193c4d9222'
p124
sS'mnen_list'
p125
(lp126
g24
ag33
ag40
ag47
ag54
ag61
ag68
ag75
ag82
ag89
ag96
asS'neighbour_disasm_list'
p127
Nsba(ibclass
BBasicBlock
p128
(dp129
g12
Nsg13
(lp130
(ibclass
BInstr
p131
(dp132
g2
Nsg17
S'mov     rax, [rbp+ctxt]'
p133
sg19
S'488b45e8'
p134
sg21
Vmov rax, qword ptr [rbp - 0x18]
p135
sg5
L602000L
sg6
Nsg23
S'mov'
p136
sg25
S'0x92f90L'
p137
sg27
Nsba(ibclass
BInstr
p138
(dp139
g2
Nsg17
S'mov     rdi, rax        ; ctxt'
p140
sg19
S'4889c7'
p141
sg21
Vmov rdi, rax
p142
sg5
L602004L
sg6
Nsg23
S'mov'
p143
sg25
S'0x92f94L'
p144
sg27
Nsba(ibclass
BInstr
p145
(dp146
g2
Nsg17
S'call    xmlNextChar__internal_alias'
p147
sg19
S'e86431faff'
p148
sg21
Vcall 0xfffffffffffa3169
p149
sg5
L602007L
sg6
Nsg23
S'call'
p150
sg25
S'0x92f97L'
p151
sg27
Nsba(ibclass
BInstr
p152
(dp153
g2
Nsg17
S'mov     rax, [rbp+ctxt]'
p154
sg19
S'488b45e8'
p155
sg21
Vmov rax, qword ptr [rbp - 0x18]
p156
sg5
L602012L
sg6
Nsg23
S'mov'
p157
sg25
S'0x92f9cL'
p158
sg27
Nsba(ibclass
BInstr
p159
(dp160
g2
Nsg17
S'mov     rax, [rax+38h]'
p161
sg19
S'488b4038'
p162
sg21
Vmov rax, qword ptr [rax + 0x38]
p163
sg5
L602016L
sg6
Nsg23
S'mov'
p164
sg25
S'0x92fa0L'
p165
sg27
Nsba(ibclass
BInstr
p166
(dp167
g2
Nsg17
S'mov     rax, [rax+20h]'
p168
sg19
S'488b4020'
p169
sg21
Vmov rax, qword ptr [rax + 0x20]
p170
sg5
L602020L
sg6
Nsg23
S'mov'
p171
sg25
S'0x92fa4L'
p172
sg27
Nsba(ibclass
BInstr
p173
(dp174
g2
Nsg17
S'mov     [rbp+q], rax'
p175
sg19
S'488945f8'
p176
sg21
Vmov qword ptr [rbp - 8], rax
p177
sg5
L602024L
sg6
Nsg23
S'mov'
p178
sg25
S'0x92fa8L'
p179
sg27
Nsba(ibclass
BInstr
p180
(dp181
g2
Nsg17
S'jmp     short loc_92FBA'
p182
sg19
S'eb0c'
p183
sg21
Vjmp 0xe
p184
sg5
L602028L
sg6
Nsg23
S'jmp'
p185
sg25
S'0x92facL'
p186
sg27
Nsbasg98
(lp187
S'mov reg, mem'
p188
aS'mov reg, reg'
p189
aS'cregl xmlNextChar__internreg_regias'
p190
aS'mov reg, mem'
p191
aS'mov reg, mem'
p192
aS'mov reg, mem'
p193
aS'mov mem, reg'
p194
aS'jmp func'
p195
asg111
Nsg5
S'0x92f90L'
p196
sg113
(lp197
S'0x92f65L'
p198
asg6
Nsg115
(lp199
S'0x92fbaL'
p200
asg119
Nsg120
Nsg121
S'7b7bbb5d7197c469a630e40a0d33dd2e'
p201
sg123
S'c31ad594a4576f703eb672f160bea72b'
p202
sg125
(lp203
g136
ag143
ag150
ag157
ag164
ag171
ag178
ag185
asg127
Nsba(ibclass
BBasicBlock
p204
(dp205
g12
Nsg13
(lp206
(ibclass
BInstr
p207
(dp208
g2
Nsg17
S'mov     rax, [rbp+ctxt]'
p209
sg19
S'488b45e8'
p210
sg21
Vmov rax, qword ptr [rbp - 0x18]
p211
sg5
L602030L
sg6
Nsg23
S'mov'
p212
sg25
S'0x92faeL'
p213
sg27
Nsba(ibclass
BInstr
p214
(dp215
g2
Nsg17
S'mov     rdi, rax        ; ctxt'
p216
sg19
S'4889c7'
p217
sg21
Vmov rdi, rax
p218
sg5
L602034L
sg6
Nsg23
S'mov'
p219
sg25
S'0x92fb2L'
p220
sg27
Nsba(ibclass
BInstr
p221
(dp222
g2
Nsg17
S'call    xmlNextChar__internal_alias'
p223
sg19
S'e84631faff'
p224
sg21
Vcall 0xfffffffffffa314b
p225
sg5
L602037L
sg6
Nsg23
S'call'
p226
sg25
S'0x92fb5L'
p227
sg27
Nsbasg98
(lp228
S'mov reg, mem'
p229
aS'mov reg, reg'
p230
aS'cregl xmlNextChar__internreg_regias'
p231
asg111
Nsg5
S'0x92faeL'
p232
sg113
(lp233
S'0x93006L'
p234
asg6
Nsg115
(lp235
S'0x92fbaL'
p236
asg119
Nsg120
Nsg121
S'0bf1a79a6a1155c5085c1c85d6d83d05'
p237
sg123
S'b81e3d888e50af7f7123a844466a7815'
p238
sg125
(lp239
g212
ag219
ag226
asg127
Nsba(ibclass
BBasicBlock
p240
(dp241
g12
Nsg13
(lp242
(ibclass
BInstr
p243
(dp244
g2
Nsg17
S'mov     rax, [rbp+ctxt]'
p245
sg19
S'488b45e8'
p246
sg21
Vmov rax, qword ptr [rbp - 0x18]
p247
sg5
L602042L
sg6
Nsg23
S'mov'
p248
sg25
S'0x92fbaL'
p249
sg27
Nsba(ibclass
BInstr
p250
(dp251
g2
Nsg17
S'mov     rax, [rax+38h]'
p252
sg19
S'488b4038'
p253
sg21
Vmov rax, qword ptr [rax + 0x38]
p254
sg5
L602046L
sg6
Nsg23
S'mov'
p255
sg25
S'0x92fbeL'
p256
sg27
Nsba(ibclass
BInstr
p257
(dp258
g2
Nsg17
S'mov     rax, [rax+20h]'
p259
sg19
S'488b4020'
p260
sg21
Vmov rax, qword ptr [rax + 0x20]
p261
sg5
L602050L
sg6
Nsg23
S'mov'
p262
sg25
S'0x92fc2L'
p263
sg27
Nsba(ibclass
BInstr
p264
(dp265
g2
Nsg17
S'movzx   eax, byte ptr [rax]'
p266
sg19
S'0fb600'
p267
sg21
Vmovzx eax, byte ptr [rax]
p268
sg5
L602054L
sg6
Nsg23
S'movzx'
p269
sg25
S'0x92fc6L'
p270
sg27
Nsba(ibclass
BInstr
p271
(dp272
g2
Nsg17
S'cmp     al, 8'
p273
sg19
S'3c08'
p274
sg21
Vcmp al, 8
p275
sg5
L602057L
sg6
Nsg23
S'cmp'
p276
sg25
S'0x92fc9L'
p277
sg27
Nsba(ibclass
BInstr
p278
(dp279
g2
Nsg17
S'jbe     short loc_92FE0'
p280
sg19
S'7613'
p281
sg21
Vjbe 0x15
p282
sg5
L602059L
sg6
Nsg23
S'jbe'
p283
sg25
S'0x92fcbL'
p284
sg27
Nsbasg98
(lp285
S'mov reg, mem'
p286
aS'mov reg, mem'
p287
aS'mov reg, mem'
p288
aS'movzx reg, mem'
p289
aS'cmp reg, 8'
p290
aS'jbe func'
p291
asg111
Nsg5
S'0x92fbaL'
p292
sg113
(lp293
S'0x92f90L'
p294
aS'0x92faeL'
p295
asg6
Nsg115
(lp296
S'0x92fcdL'
p297
aS'0x92fe0L'
p298
asg119
Nsg120
Nsg121
S'0ff7ebac7137131ac55070b203374f6a'
p299
sg123
S'bfc60be5daafb1b63061d272d70c0877'
p300
sg125
(lp301
g248
ag255
ag262
ag269
ag276
ag283
asg127
Nsba(ibclass
BBasicBlock
p302
(dp303
g12
Nsg13
(lp304
(ibclass
BInstr
p305
(dp306
g2
Nsg17
S'mov     rax, [rbp+ctxt]'
p307
sg19
S'488b45e8'
p308
sg21
Vmov rax, qword ptr [rbp - 0x18]
p309
sg5
L602061L
sg6
Nsg23
S'mov'
p310
sg25
S'0x92fcdL'
p311
sg27
Nsba(ibclass
BInstr
p312
(dp313
g2
Nsg17
S'mov     rax, [rax+38h]'
p314
sg19
S'488b4038'
p315
sg21
Vmov rax, qword ptr [rax + 0x38]
p316
sg5
L602065L
sg6
Nsg23
S'mov'
p317
sg25
S'0x92fd1L'
p318
sg27
Nsba(ibclass
BInstr
p319
(dp320
g2
Nsg17
S'mov     rax, [rax+20h]'
p321
sg19
S'488b4020'
p322
sg21
Vmov rax, qword ptr [rax + 0x20]
p323
sg5
L602069L
sg6
Nsg23
S'mov'
p324
sg25
S'0x92fd5L'
p325
sg27
Nsba(ibclass
BInstr
p326
(dp327
g2
Nsg17
S'movzx   eax, byte ptr [rax]'
p328
sg19
S'0fb600'
p329
sg21
Vmovzx eax, byte ptr [rax]
p330
sg5
L602073L
sg6
Nsg23
S'movzx'
p331
sg25
S'0x92fd9L'
p332
sg27
Nsba(ibclass
BInstr
p333
(dp334
g2
Nsg17
S'cmp     al, 0Ah'
p335
sg19
S'3c0a'
p336
sg21
Vcmp al, 0xa
p337
sg5
L602076L
sg6
Nsg23
S'cmp'
p338
sg25
S'0x92fdcL'
p339
sg27
Nsba(ibclass
BInstr
p340
(dp341
g2
Nsg17
S'jbe     short loc_93006'
p342
sg19
S'7626'
p343
sg21
Vjbe 0x28
p344
sg5
L602078L
sg6
Nsg23
S'jbe'
p345
sg25
S'0x92fdeL'
p346
sg27
Nsbasg98
(lp347
S'mov reg, mem'
p348
aS'mov reg, mem'
p349
aS'mov reg, mem'
p350
aS'movzx reg, mem'
p351
aS'cmp reg, 0Ah'
p352
aS'jbe func'
p353
asg111
Nsg5
S'0x92fcdL'
p354
sg113
(lp355
S'0x92fbaL'
p356
asg6
Nsg115
(lp357
S'0x92fe0L'
p358
aS'0x93006L'
p359
asg119
Nsg120
Nsg121
S'0ff7ebac7137131ac55070b203374f6a'
p360
sg123
S'517632640d8c32384a61236d65bae149'
p361
sg125
(lp362
g310
ag317
ag324
ag331
ag338
ag345
asg127
Nsba(ibclass
BBasicBlock
p363
(dp364
g12
Nsg13
(lp365
(ibclass
BInstr
p366
(dp367
g2
Nsg17
S'mov     rax, [rbp+ctxt]'
p368
sg19
S'488b45e8'
p369
sg21
Vmov rax, qword ptr [rbp - 0x18]
p370
sg5
L602080L
sg6
Nsg23
S'mov'
p371
sg25
S'0x92fe0L'
p372
sg27
Nsba(ibclass
BInstr
p373
(dp374
g2
Nsg17
S'mov     rax, [rax+38h]'
p375
sg19
S'488b4038'
p376
sg21
Vmov rax, qword ptr [rax + 0x38]
p377
sg5
L602084L
sg6
Nsg23
S'mov'
p378
sg25
S'0x92fe4L'
p379
sg27
Nsba(ibclass
BInstr
p380
(dp381
g2
Nsg17
S'mov     rax, [rax+20h]'
p382
sg19
S'488b4020'
p383
sg21
Vmov rax, qword ptr [rax + 0x20]
p384
sg5
L602088L
sg6
Nsg23
S'mov'
p385
sg25
S'0x92fe8L'
p386
sg27
Nsba(ibclass
BInstr
p387
(dp388
g2
Nsg17
S'movzx   eax, byte ptr [rax]'
p389
sg19
S'0fb600'
p390
sg21
Vmovzx eax, byte ptr [rax]
p391
sg5
L602092L
sg6
Nsg23
S'movzx'
p392
sg25
S'0x92fecL'
p393
sg27
Nsba(ibclass
BInstr
p394
(dp395
g2
Nsg17
S'cmp     al, 0Dh'
p396
sg19
S'3c0d'
p397
sg21
Vcmp al, 0xd
p398
sg5
L602095L
sg6
Nsg23
S'cmp'
p399
sg25
S'0x92fefL'
p400
sg27
Nsba(ibclass
BInstr
p401
(dp402
g2
Nsg17
S'jz      short loc_93006'
p403
sg19
S'7413'
p404
sg21
Vje 0x15
p405
sg5
L602097L
sg6
Nsg23
S'jz'
p406
sg25
S'0x92ff1L'
p407
sg27
Nsbasg98
(lp408
S'mov reg, mem'
p409
aS'mov reg, mem'
p410
aS'mov reg, mem'
p411
aS'movzx reg, mem'
p412
aS'cmp reg, 0Dh'
p413
aS'jz func'
p414
asg111
Nsg5
S'0x92fe0L'
p415
sg113
(lp416
S'0x92fbaL'
p417
aS'0x92fcdL'
p418
asg6
Nsg115
(lp419
S'0x92ff3L'
p420
aS'0x93006L'
p421
asg119
Nsg120
Nsg121
S'16b78aabab836f07485954710c0f23a0'
p422
sg123
S'8ee5acdda4d1b200bfe0d55a3c868675'
p423
sg125
(lp424
g371
ag378
ag385
ag392
ag399
ag406
asg127
Nsba(ibclass
BBasicBlock
p425
(dp426
g12
Nsg13
(lp427
(ibclass
BInstr
p428
(dp429
g2
Nsg17
S'mov     rax, [rbp+ctxt]'
p430
sg19
S'488b45e8'
p431
sg21
Vmov rax, qword ptr [rbp - 0x18]
p432
sg5
L602099L
sg6
Nsg23
S'mov'
p433
sg25
S'0x92ff3L'
p434
sg27
Nsba(ibclass
BInstr
p435
(dp436
g2
Nsg17
S'mov     rax, [rax+38h]'
p437
sg19
S'488b4038'
p438
sg21
Vmov rax, qword ptr [rax + 0x38]
p439
sg5
L602103L
sg6
Nsg23
S'mov'
p440
sg25
S'0x92ff7L'
p441
sg27
Nsba(ibclass
BInstr
p442
(dp443
g2
Nsg17
S'mov     rax, [rax+20h]'
p444
sg19
S'488b4020'
p445
sg21
Vmov rax, qword ptr [rax + 0x20]
p446
sg5
L602107L
sg6
Nsg23
S'mov'
p447
sg25
S'0x92ffbL'
p448
sg27
Nsba(ibclass
BInstr
p449
(dp450
g2
Nsg17
S'movzx   eax, byte ptr [rax]'
p451
sg19
S'0fb600'
p452
sg21
Vmovzx eax, byte ptr [rax]
p453
sg5
L602111L
sg6
Nsg23
S'movzx'
p454
sg25
S'0x92fffL'
p455
sg27
Nsba(ibclass
BInstr
p456
(dp457
g2
Nsg17
S'cmp     al, 1Fh'
p458
sg19
S'3c1f'
p459
sg21
Vcmp al, 0x1f
p460
sg5
L602114L
sg6
Nsg23
S'cmp'
p461
sg25
S'0x93002L'
p462
sg27
Nsba(ibclass
BInstr
p463
(dp464
g2
Nsg17
S'jbe     short loc_93019'
p465
sg19
S'7613'
p466
sg21
Vjbe 0x15
p467
sg5
L602116L
sg6
Nsg23
S'jbe'
p468
sg25
S'0x93004L'
p469
sg27
Nsbasg98
(lp470
S'mov reg, mem'
p471
aS'mov reg, mem'
p472
aS'mov reg, mem'
p473
aS'movzx reg, mem'
p474
aS'cmp reg, 1Fh'
p475
aS'jbe func'
p476
asg111
Nsg5
S'0x92ff3L'
p477
sg113
(lp478
S'0x92fe0L'
p479
asg6
Nsg115
(lp480
S'0x93006L'
p481
aS'0x93019L'
p482
asg119
Nsg120
Nsg121
S'0ff7ebac7137131ac55070b203374f6a'
p483
sg123
S'e68d691ceddc27173b1b73da4c50b156'
p484
sg125
(lp485
g433
ag440
ag447
ag454
ag461
ag468
asg127
Nsba(ibclass
BBasicBlock
p486
(dp487
g12
Nsg13
(lp488
(ibclass
BInstr
p489
(dp490
g2
Nsg17
S'mov     rax, [rbp+ctxt]'
p491
sg19
S'488b45e8'
p492
sg21
Vmov rax, qword ptr [rbp - 0x18]
p493
sg5
L602118L
sg6
Nsg23
S'mov'
p494
sg25
S'0x93006L'
p495
sg27
Nsba(ibclass
BInstr
p496
(dp497
g2
Nsg17
S'mov     rax, [rax+38h]'
p498
sg19
S'488b4038'
p499
sg21
Vmov rax, qword ptr [rax + 0x38]
p500
sg5
L602122L
sg6
Nsg23
S'mov'
p501
sg25
S'0x9300aL'
p502
sg27
Nsba(ibclass
BInstr
p503
(dp504
g2
Nsg17
S'mov     rax, [rax+20h]'
p505
sg19
S'488b4020'
p506
sg21
Vmov rax, qword ptr [rax + 0x20]
p507
sg5
L602126L
sg6
Nsg23
S'mov'
p508
sg25
S'0x9300eL'
p509
sg27
Nsba(ibclass
BInstr
p510
(dp511
g2
Nsg17
S'movzx   eax, byte ptr [rax]'
p512
sg19
S'0fb600'
p513
sg21
Vmovzx eax, byte ptr [rax]
p514
sg5
L602130L
sg6
Nsg23
S'movzx'
p515
sg25
S'0x93012L'
p516
sg27
Nsba(ibclass
BInstr
p517
(dp518
g2
Nsg17
S'cmp     al, 22h'
p519
sg19
S'3c22'
p520
sg21
Vcmp al, 0x22
p521
sg5
L602133L
sg6
Nsg23
S'cmp'
p522
sg25
S'0x93015L'
p523
sg27
Nsba(ibclass
BInstr
p524
(dp525
g2
Nsg17
S'jnz     short loc_92FAE'
p526
sg19
S'7595'
p527
sg21
Vjne 0xffffffffffffff97
p528
sg5
L602135L
sg6
Nsg23
S'jnz'
p529
sg25
S'0x93017L'
p530
sg27
Nsbasg98
(lp531
S'mov reg, mem'
p532
aS'mov reg, mem'
p533
aS'mov reg, mem'
p534
aS'movzx reg, mem'
p535
aS'cmp reg, 22h'
p536
aS'jnz func'
p537
asg111
Nsg5
S'0x93006L'
p538
sg113
(lp539
S'0x92fcdL'
p540
aS'0x92fe0L'
p541
aS'0x92ff3L'
p542
asg6
Nsg115
(lp543
S'0x92faeL'
p544
aS'0x93019L'
p545
asg119
Nsg120
Nsg121
S'8f3f680eb64f543d58e9f30e939c868c'
p546
sg123
S'f5d4044afdf0e18af10b4d011f36ec38'
p547
sg125
(lp548
g494
ag501
ag508
ag515
ag522
ag529
asg127
Nsba(ibclass
BBasicBlock
p549
(dp550
g12
Nsg13
(lp551
(ibclass
BInstr
p552
(dp553
g2
Nsg17
S'mov     rax, [rbp+ctxt]'
p554
sg19
S'488b45e8'
p555
sg21
Vmov rax, qword ptr [rbp - 0x18]
p556
sg5
L602137L
sg6
Nsg23
S'mov'
p557
sg25
S'0x93019L'
p558
sg27
Nsba(ibclass
BInstr
p559
(dp560
g2
Nsg17
S'mov     rax, [rax+38h]'
p561
sg19
S'488b4038'
p562
sg21
Vmov rax, qword ptr [rax + 0x38]
p563
sg5
L602141L
sg6
Nsg23
S'mov'
p564
sg25
S'0x9301dL'
p565
sg27
Nsba(ibclass
BInstr
p566
(dp567
g2
Nsg17
S'mov     rax, [rax+20h]'
p568
sg19
S'488b4020'
p569
sg21
Vmov rax, qword ptr [rax + 0x20]
p570
sg5
L602145L
sg6
Nsg23
S'mov'
p571
sg25
S'0x93021L'
p572
sg27
Nsba(ibclass
BInstr
p573
(dp574
g2
Nsg17
S'movzx   eax, byte ptr [rax]'
p575
sg19
S'0fb600'
p576
sg21
Vmovzx eax, byte ptr [rax]
p577
sg5
L602149L
sg6
Nsg23
S'movzx'
p578
sg25
S'0x93025L'
p579
sg27
Nsba(ibclass
BInstr
p580
(dp581
g2
Nsg17
S'cmp     al, 8'
p582
sg19
S'3c08'
p583
sg21
Vcmp al, 8
p584
sg5
L602152L
sg6
Nsg23
S'cmp'
p585
sg25
S'0x93028L'
p586
sg27
Nsba(ibclass
BInstr
p587
(dp588
g2
Nsg17
S'jbe     short loc_9303F'
p589
sg19
S'7613'
p590
sg21
Vjbe 0x15
p591
sg5
L602154L
sg6
Nsg23
S'jbe'
p592
sg25
S'0x9302aL'
p593
sg27
Nsbasg98
(lp594
S'mov reg, mem'
p595
aS'mov reg, mem'
p596
aS'mov reg, mem'
p597
aS'movzx reg, mem'
p598
aS'cmp reg, 8'
p599
aS'jbe func'
p600
asg111
Nsg5
S'0x93019L'
p601
sg113
(lp602
S'0x92ff3L'
p603
aS'0x93006L'
p604
asg6
Nsg115
(lp605
S'0x9302cL'
p606
aS'0x9303fL'
p607
asg119
Nsg120
Nsg121
S'0ff7ebac7137131ac55070b203374f6a'
p608
sg123
S'bfc60be5daafb1b63061d272d70c0877'
p609
sg125
(lp610
g557
ag564
ag571
ag578
ag585
ag592
asg127
Nsba(ibclass
BBasicBlock
p611
(dp612
g12
Nsg13
(lp613
(ibclass
BInstr
p614
(dp615
g2
Nsg17
S'mov     rax, [rbp+ctxt]'
p616
sg19
S'488b45e8'
p617
sg21
Vmov rax, qword ptr [rbp - 0x18]
p618
sg5
L602156L
sg6
Nsg23
S'mov'
p619
sg25
S'0x9302cL'
p620
sg27
Nsba(ibclass
BInstr
p621
(dp622
g2
Nsg17
S'mov     rax, [rax+38h]'
p623
sg19
S'488b4038'
p624
sg21
Vmov rax, qword ptr [rax + 0x38]
p625
sg5
L602160L
sg6
Nsg23
S'mov'
p626
sg25
S'0x93030L'
p627
sg27
Nsba(ibclass
BInstr
p628
(dp629
g2
Nsg17
S'mov     rax, [rax+20h]'
p630
sg19
S'488b4020'
p631
sg21
Vmov rax, qword ptr [rax + 0x20]
p632
sg5
L602164L
sg6
Nsg23
S'mov'
p633
sg25
S'0x93034L'
p634
sg27
Nsba(ibclass
BInstr
p635
(dp636
g2
Nsg17
S'movzx   eax, byte ptr [rax]'
p637
sg19
S'0fb600'
p638
sg21
Vmovzx eax, byte ptr [rax]
p639
sg5
L602168L
sg6
Nsg23
S'movzx'
p640
sg25
S'0x93038L'
p641
sg27
Nsba(ibclass
BInstr
p642
(dp643
g2
Nsg17
S'cmp     al, 0Ah'
p644
sg19
S'3c0a'
p645
sg21
Vcmp al, 0xa
p646
sg5
L602171L
sg6
Nsg23
S'cmp'
p647
sg25
S'0x9303bL'
p648
sg27
Nsba(ibclass
BInstr
p649
(dp650
g2
Nsg17
S'jbe     short loc_9308D'
p651
sg19
S'764e'
p652
sg21
Vjbe 0x50
p653
sg5
L602173L
sg6
Nsg23
S'jbe'
p654
sg25
S'0x9303dL'
p655
sg27
Nsbasg98
(lp656
S'mov reg, mem'
p657
aS'mov reg, mem'
p658
aS'mov reg, mem'
p659
aS'movzx reg, mem'
p660
aS'cmp reg, 0Ah'
p661
aS'jbe func'
p662
asg111
Nsg5
S'0x9302cL'
p663
sg113
(lp664
S'0x93019L'
p665
asg6
Nsg115
(lp666
S'0x9303fL'
p667
aS'0x9308dL'
p668
asg119
Nsg120
Nsg121
S'0ff7ebac7137131ac55070b203374f6a'
p669
sg123
S'517632640d8c32384a61236d65bae149'
p670
sg125
(lp671
g619
ag626
ag633
ag640
ag647
ag654
asg127
Nsba(ibclass
BBasicBlock
p672
(dp673
g12
Nsg13
(lp674
(ibclass
BInstr
p675
(dp676
g2
Nsg17
S'mov     rax, [rbp+ctxt]'
p677
sg19
S'488b45e8'
p678
sg21
Vmov rax, qword ptr [rbp - 0x18]
p679
sg5
L602175L
sg6
Nsg23
S'mov'
p680
sg25
S'0x9303fL'
p681
sg27
Nsba(ibclass
BInstr
p682
(dp683
g2
Nsg17
S'mov     rax, [rax+38h]'
p684
sg19
S'488b4038'
p685
sg21
Vmov rax, qword ptr [rax + 0x38]
p686
sg5
L602179L
sg6
Nsg23
S'mov'
p687
sg25
S'0x93043L'
p688
sg27
Nsba(ibclass
BInstr
p689
(dp690
g2
Nsg17
S'mov     rax, [rax+20h]'
p691
sg19
S'488b4020'
p692
sg21
Vmov rax, qword ptr [rax + 0x20]
p693
sg5
L602183L
sg6
Nsg23
S'mov'
p694
sg25
S'0x93047L'
p695
sg27
Nsba(ibclass
BInstr
p696
(dp697
g2
Nsg17
S'movzx   eax, byte ptr [rax]'
p698
sg19
S'0fb600'
p699
sg21
Vmovzx eax, byte ptr [rax]
p700
sg5
L602187L
sg6
Nsg23
S'movzx'
p701
sg25
S'0x9304bL'
p702
sg27
Nsba(ibclass
BInstr
p703
(dp704
g2
Nsg17
S'cmp     al, 0Dh'
p705
sg19
S'3c0d'
p706
sg21
Vcmp al, 0xd
p707
sg5
L602190L
sg6
Nsg23
S'cmp'
p708
sg25
S'0x9304eL'
p709
sg27
Nsba(ibclass
BInstr
p710
(dp711
g2
Nsg17
S'jz      short loc_9308D'
p712
sg19
S'743b'
p713
sg21
Vje 0x3d
p714
sg5
L602192L
sg6
Nsg23
S'jz'
p715
sg25
S'0x93050L'
p716
sg27
Nsbasg98
(lp717
S'mov reg, mem'
p718
aS'mov reg, mem'
p719
aS'mov reg, mem'
p720
aS'movzx reg, mem'
p721
aS'cmp reg, 0Dh'
p722
aS'jz func'
p723
asg111
Nsg5
S'0x9303fL'
p724
sg113
(lp725
S'0x93019L'
p726
aS'0x9302cL'
p727
asg6
Nsg115
(lp728
S'0x93052L'
p729
aS'0x9308dL'
p730
asg119
Nsg120
Nsg121
S'16b78aabab836f07485954710c0f23a0'
p731
sg123
S'8ee5acdda4d1b200bfe0d55a3c868675'
p732
sg125
(lp733
g680
ag687
ag694
ag701
ag708
ag715
asg127
Nsba(ibclass
BBasicBlock
p734
(dp735
g12
Nsg13
(lp736
(ibclass
BInstr
p737
(dp738
g2
Nsg17
S'mov     rax, [rbp+ctxt]'
p739
sg19
S'488b45e8'
p740
sg21
Vmov rax, qword ptr [rbp - 0x18]
p741
sg5
L602194L
sg6
Nsg23
S'mov'
p742
sg25
S'0x93052L'
p743
sg27
Nsba(ibclass
BInstr
p744
(dp745
g2
Nsg17
S'mov     rax, [rax+38h]'
p746
sg19
S'488b4038'
p747
sg21
Vmov rax, qword ptr [rax + 0x38]
p748
sg5
L602198L
sg6
Nsg23
S'mov'
p749
sg25
S'0x93056L'
p750
sg27
Nsba(ibclass
BInstr
p751
(dp752
g2
Nsg17
S'mov     rax, [rax+20h]'
p753
sg19
S'488b4020'
p754
sg21
Vmov rax, qword ptr [rax + 0x20]
p755
sg5
L602202L
sg6
Nsg23
S'mov'
p756
sg25
S'0x9305aL'
p757
sg27
Nsba(ibclass
BInstr
p758
(dp759
g2
Nsg17
S'movzx   eax, byte ptr [rax]'
p760
sg19
S'0fb600'
p761
sg21
Vmovzx eax, byte ptr [rax]
p762
sg5
L602206L
sg6
Nsg23
S'movzx'
p763
sg25
S'0x9305eL'
p764
sg27
Nsba(ibclass
BInstr
p765
(dp766
g2
Nsg17
S'cmp     al, 1Fh'
p767
sg19
S'3c1f'
p768
sg21
Vcmp al, 0x1f
p769
sg5
L602209L
sg6
Nsg23
S'cmp'
p770
sg25
S'0x93061L'
p771
sg27
Nsba(ibclass
BInstr
p772
(dp773
g2
Nsg17
S'ja      short loc_9308D'
p774
sg19
S'7728'
p775
sg21
Vja 0x2a
p776
sg5
L602211L
sg6
Nsg23
S'ja'
p777
sg25
S'0x93063L'
p778
sg27
Nsbasg98
(lp779
S'mov reg, mem'
p780
aS'mov reg, mem'
p781
aS'mov reg, mem'
p782
aS'movzx reg, mem'
p783
aS'cmp reg, 1Fh'
p784
aS'ja func'
p785
asg111
Nsg5
S'0x93052L'
p786
sg113
(lp787
S'0x9303fL'
p788
asg6
Nsg115
(lp789
S'0x93065L'
p790
aS'0x9308dL'
p791
asg119
Nsg120
Nsg121
S'143b6fd093c689d7e8a24a5b7a5f3c55'
p792
sg123
S'67ece9e0ab36695f0c31d065f4900e11'
p793
sg125
(lp794
g742
ag749
ag756
ag763
ag770
ag777
asg127
Nsba(ibclass
BBasicBlock
p795
(dp796
g12
Nsg13
(lp797
(ibclass
BInstr
p798
(dp799
g2
Nsg17
S'mov     rax, [rbp+ctxt]'
p800
sg19
S'488b45e8'
p801
sg21
Vmov rax, qword ptr [rbp - 0x18]
p802
sg5
L602213L
sg6
Nsg23
S'mov'
p803
sg25
S'0x93065L'
p804
sg27
Nsba(ibclass
BInstr
p805
(dp806
g2
Nsg17
S'mov     r8d, 0          ; str2'
p807
sg19
S'41b800000000'
p808
sg21
Vmov r8d, 0
p809
sg5
L602217L
sg6
Nsg23
S'mov'
p810
sg25
S'0x93069L'
p811
sg27
Nsba(ibclass
BInstr
p812
(dp813
g2
Nsg17
S'mov     ecx, 0          ; str1'
p814
sg19
S'b900000000'
p815
sg21
Vmov ecx, 0
p816
sg5
L602223L
sg6
Nsg23
S'mov'
p817
sg25
S'0x9306fL'
p818
sg27
Nsba(ibclass
BInstr
p819
(dp820
g2
Nsg17
S'lea     rdx, aUnfinishedSyst; "Unfinished SystemLiteral\\n"'
p821
sg19
S'488d157edd0e00'
p822
sg21
Vlea rdx, [rip + 0xedd7e]
p823
sg5
L602228L
sg6
Nsg23
S'lea'
p824
sg25
S'0x93074L'
p825
sg27
Nsba(ibclass
BInstr
p826
(dp827
g2
Nsg17
S'mov     esi, 2Ch        ; error'
p828
sg19
S'be2c000000'
p829
sg21
Vmov esi, 0x2c
p830
sg5
L602235L
sg6
Nsg23
S'mov'
p831
sg25
S'0x9307bL'
p832
sg27
Nsba(ibclass
BInstr
p833
(dp834
g2
Nsg17
S'mov     rdi, rax        ; ctxt'
p835
sg19
S'4889c7'
p836
sg21
Vmov rdi, rax
p837
sg5
L602240L
sg6
Nsg23
S'mov'
p838
sg25
S'0x93080L'
p839
sg27
Nsba(ibclass
BInstr
p840
(dp841
g2
Nsg17
S'call    htmlParseErr'
p842
sg19
S'e87cbcffff'
p843
sg21
Vcall 0xffffffffffffbc81
p844
sg5
L602243L
sg6
Nsg23
S'call'
p845
sg25
S'0x93083L'
p846
sg27
Nsba(ibclass
BInstr
p847
(dp848
g2
Nsg17
S'jmp     loc_9323A'
p849
sg19
S'e9ad010000'
p850
sg21
Vjmp 0x1b2
p851
sg5
L602248L
sg6
Nsg23
S'jmp'
p852
sg25
S'0x93088L'
p853
sg27
Nsbasg98
(lp854
S'mov reg, mem'
p855
aS'mov regd, 0'
p856
aS'mov reg, 0'
p857
aS'lea reg, aUnfinishedSyst'
p858
aS'mov reg, 2Ch'
p859
aS'mov reg, reg'
p860
aS'cregl htmlParseErr'
p861
aS'jmp func'
p862
asg111
Nsg5
S'0x93065L'
p863
sg113
(lp864
S'0x93052L'
p865
asg6
Nsg115
(lp866
S'0x9323aL'
p867
asg119
Nsg120
Nsg121
S'cd0c60d7da6319d715f5543cab0efcee'
p868
sg123
S'f680ae18d4cbd84aa244f84674a6211d'
p869
sg125
(lp870
g803
ag810
ag817
ag824
ag831
ag838
ag845
ag852
asg127
Nsba(ibclass
BBasicBlock
p871
(dp872
g12
Nsg13
(lp873
(ibclass
BInstr
p874
(dp875
g2
Nsg17
S'mov     rax, [rbp+ctxt]'
p876
sg19
S'488b45e8'
p877
sg21
Vmov rax, qword ptr [rbp - 0x18]
p878
sg5
L602253L
sg6
Nsg23
S'mov'
p879
sg25
S'0x9308dL'
p880
sg27
Nsba(ibclass
BInstr
p881
(dp882
g2
Nsg17
S'mov     rax, [rax+38h]'
p883
sg19
S'488b4038'
p884
sg21
Vmov rax, qword ptr [rax + 0x38]
p885
sg5
L602257L
sg6
Nsg23
S'mov'
p886
sg25
S'0x93091L'
p887
sg27
Nsba(ibclass
BInstr
p888
(dp889
g2
Nsg17
S'mov     rax, [rax+20h]'
p890
sg19
S'488b4020'
p891
sg21
Vmov rax, qword ptr [rax + 0x20]
p892
sg5
L602261L
sg6
Nsg23
S'mov'
p893
sg25
S'0x93095L'
p894
sg27
Nsba(ibclass
BInstr
p895
(dp896
g2
Nsg17
S'mov     rdx, rax'
p897
sg19
S'4889c2'
p898
sg21
Vmov rdx, rax
p899
sg5
L602265L
sg6
Nsg23
S'mov'
p900
sg25
S'0x93099L'
p901
sg27
Nsba(ibclass
BInstr
p902
(dp903
g2
Nsg17
S'mov     rax, [rbp+q]'
p904
sg19
S'488b45f8'
p905
sg21
Vmov rax, qword ptr [rbp - 8]
p906
sg5
L602268L
sg6
Nsg23
S'mov'
p907
sg25
S'0x9309cL'
p908
sg27
Nsba(ibclass
BInstr
p909
(dp910
g2
Nsg17
S'sub     rdx, rax'
p911
sg19
S'4829c2'
p912
sg21
Vsub rdx, rax
p913
sg5
L602272L
sg6
Nsg23
S'sub'
p914
sg25
S'0x930a0L'
p915
sg27
Nsba(ibclass
BInstr
p916
(dp917
g2
Nsg17
S'mov     rax, rdx'
p918
sg19
S'4889d0'
p919
sg21
Vmov rax, rdx
p920
sg5
L602275L
sg6
Nsg23
S'mov'
p921
sg25
S'0x930a3L'
p922
sg27
Nsba(ibclass
BInstr
p923
(dp924
g2
Nsg17
S'mov     edx, eax'
p925
sg19
S'89c2'
p926
sg21
Vmov edx, eax
p927
sg5
L602278L
sg6
Nsg23
S'mov'
p928
sg25
S'0x930a6L'
p929
sg27
Nsba(ibclass
BInstr
p930
(dp931
g2
Nsg17
S'mov     rax, [rbp+q]'
p932
sg19
S'488b45f8'
p933
sg21
Vmov rax, qword ptr [rbp - 8]
p934
sg5
L602280L
sg6
Nsg23
S'mov'
p935
sg25
S'0x930a8L'
p936
sg27
Nsba(ibclass
BInstr
p937
(dp938
g2
Nsg17
S'mov     esi, edx        ; len'
p939
sg19
S'89d6'
p940
sg21
Vmov esi, edx
p941
sg5
L602284L
sg6
Nsg23
S'mov'
p942
sg25
S'0x930acL'
p943
sg27
Nsba(ibclass
BInstr
p944
(dp945
g2
Nsg17
S'mov     rdi, rax        ; cur'
p946
sg19
S'4889c7'
p947
sg21
Vmov rdi, rax
p948
sg5
L602286L
sg6
Nsg23
S'mov'
p949
sg25
S'0x930aeL'
p950
sg27
Nsba(ibclass
BInstr
p951
(dp952
g2
Nsg17
S'call    xmlStrndup__internal_alias'
p953
sg19
S'e848f90400'
p954
sg21
Vcall 0x4f94d
p955
sg5
L602289L
sg6
Nsg23
S'call'
p956
sg25
S'0x930b1L'
p957
sg27
Nsba(ibclass
BInstr
p958
(dp959
g2
Nsg17
S'mov     [rbp+ret], rax'
p960
sg19
S'488945f0'
p961
sg21
Vmov qword ptr [rbp - 0x10], rax
p962
sg5
L602294L
sg6
Nsg23
S'mov'
p963
sg25
S'0x930b6L'
p964
sg27
Nsba(ibclass
BInstr
p965
(dp966
g2
Nsg17
S'mov     rax, [rbp+ctxt]'
p967
sg19
S'488b45e8'
p968
sg21
Vmov rax, qword ptr [rbp - 0x18]
p969
sg5
L602298L
sg6
Nsg23
S'mov'
p970
sg25
S'0x930baL'
p971
sg27
Nsba(ibclass
BInstr
p972
(dp973
g2
Nsg17
S'mov     rdi, rax        ; ctxt'
p974
sg19
S'4889c7'
p975
sg21
Vmov rdi, rax
p976
sg5
L602302L
sg6
Nsg23
S'mov'
p977
sg25
S'0x930beL'
p978
sg27
Nsba(ibclass
BInstr
p979
(dp980
g2
Nsg17
S'call    xmlNextChar__internal_alias'
p981
sg19
S'e83a30faff'
p982
sg21
Vcall 0xfffffffffffa303f
p983
sg5
L602305L
sg6
Nsg23
S'call'
p984
sg25
S'0x930c1L'
p985
sg27
Nsba(ibclass
BInstr
p986
(dp987
g2
Nsg17
S'jmp     loc_9323A'
p988
sg19
S'e96f010000'
p989
sg21
Vjmp 0x174
p990
sg5
L602310L
sg6
Nsg23
S'jmp'
p991
sg25
S'0x930c6L'
p992
sg27
Nsbasg98
(lp993
S'mov reg, mem'
p994
aS'mov reg, mem'
p995
aS'mov reg, mem'
p996
aS'mov reg, reg'
p997
aS'mov reg, mem'
p998
aS'sub reg, reg'
p999
aS'mov reg, reg'
p1000
aS'mov reg, reg'
p1001
aS'mov reg, mem'
p1002
aS'mov reg, reg'
p1003
aS'mov reg, reg'
p1004
aS'cregl xmlStrndup__internreg_regias'
p1005
aS'mov mem, reg'
p1006
aS'mov reg, mem'
p1007
aS'mov reg, reg'
p1008
aS'cregl xmlNextChar__internreg_regias'
p1009
aS'jmp func'
p1010
asg111
Nsg5
S'0x9308dL'
p1011
sg113
(lp1012
S'0x9302cL'
p1013
aS'0x9303fL'
p1014
aS'0x93052L'
p1015
asg6
Nsg115
(lp1016
S'0x9323aL'
p1017
asg119
Nsg120
Nsg121
S'6740615449a7f60929832457c8d71855'
p1018
sg123
S'820803d8d18b0f254810db8cedb118ef'
p1019
sg125
(lp1020
g879
ag886
ag893
ag900
ag907
ag914
ag921
ag928
ag935
ag942
ag949
ag956
ag963
ag970
ag977
ag984
ag991
asg127
Nsba(ibclass
BBasicBlock
p1021
(dp1022
g12
Nsg13
(lp1023
(ibclass
BInstr
p1024
(dp1025
g2
Nsg17
S'mov     rax, [rbp+ctxt]'
p1026
sg19
S'488b45e8'
p1027
sg21
Vmov rax, qword ptr [rbp - 0x18]
p1028
sg5
L602315L
sg6
Nsg23
S'mov'
p1029
sg25
S'0x930cbL'
p1030
sg27
Nsba(ibclass
BInstr
p1031
(dp1032
g2
Nsg17
S'mov     rax, [rax+38h]'
p1033
sg19
S'488b4038'
p1034
sg21
Vmov rax, qword ptr [rax + 0x38]
p1035
sg5
L602319L
sg6
Nsg23
S'mov'
p1036
sg25
S'0x930cfL'
p1037
sg27
Nsba(ibclass
BInstr
p1038
(dp1039
g2
Nsg17
S'mov     rax, [rax+20h]'
p1040
sg19
S'488b4020'
p1041
sg21
Vmov rax, qword ptr [rax + 0x20]
p1042
sg5
L602323L
sg6
Nsg23
S'mov'
p1043
sg25
S'0x930d3L'
p1044
sg27
Nsba(ibclass
BInstr
p1045
(dp1046
g2
Nsg17
S'movzx   eax, byte ptr [rax]'
p1047
sg19
S'0fb600'
p1048
sg21
Vmovzx eax, byte ptr [rax]
p1049
sg5
L602327L
sg6
Nsg23
S'movzx'
p1050
sg25
S'0x930d7L'
p1051
sg27
Nsba(ibclass
BInstr
p1052
(dp1053
g2
Nsg17
S'cmp     al, 27h'
p1054
sg19
S'3c27'
p1055
sg21
Vcmp al, 0x27
p1056
sg5
L602330L
sg6
Nsg23
S'cmp'
p1057
sg25
S'0x930daL'
p1058
sg27
Nsba(ibclass
BInstr
p1059
(dp1060
g2
Nsg17
S'jnz     loc_93217'
p1061
sg19
S'0f8535010000'
p1062
sg21
Vjne 0x13b
p1063
sg5
L602332L
sg6
Nsg23
S'jnz'
p1064
sg25
S'0x930dcL'
p1065
sg27
Nsbasg98
(lp1066
S'mov reg, mem'
p1067
aS'mov reg, mem'
p1068
aS'mov reg, mem'
p1069
aS'movzx reg, mem'
p1070
aS'cmp reg, 27h'
p1071
aS'jnz func'
p1072
asg111
Nsg5
S'0x930cbL'
p1073
sg113
(lp1074
S'0x92f65L'
p1075
asg6
Nsg115
(lp1076
S'0x930e2L'
p1077
aS'0x93217L'
p1078
asg119
Nsg120
Nsg121
S'8f3f680eb64f543d58e9f30e939c868c'
p1079
sg123
S'63a1eb026a445180ebb9466e15fd5878'
p1080
sg125
(lp1081
g1029
ag1036
ag1043
ag1050
ag1057
ag1064
asg127
Nsba(ibclass
BBasicBlock
p1082
(dp1083
g12
Nsg13
(lp1084
(ibclass
BInstr
p1085
(dp1086
g2
Nsg17
S'mov     rax, [rbp+ctxt]'
p1087
sg19
S'488b45e8'
p1088
sg21
Vmov rax, qword ptr [rbp - 0x18]
p1089
sg5
L602338L
sg6
Nsg23
S'mov'
p1090
sg25
S'0x930e2L'
p1091
sg27
Nsba(ibclass
BInstr
p1092
(dp1093
g2
Nsg17
S'mov     rdi, rax        ; ctxt'
p1094
sg19
S'4889c7'
p1095
sg21
Vmov rdi, rax
p1096
sg5
L602342L
sg6
Nsg23
S'mov'
p1097
sg25
S'0x930e6L'
p1098
sg27
Nsba(ibclass
BInstr
p1099
(dp1100
g2
Nsg17
S'call    xmlNextChar__internal_alias'
p1101
sg19
S'e81230faff'
p1102
sg21
Vcall 0xfffffffffffa3017
p1103
sg5
L602345L
sg6
Nsg23
S'call'
p1104
sg25
S'0x930e9L'
p1105
sg27
Nsba(ibclass
BInstr
p1106
(dp1107
g2
Nsg17
S'mov     rax, [rbp+ctxt]'
p1108
sg19
S'488b45e8'
p1109
sg21
Vmov rax, qword ptr [rbp - 0x18]
p1110
sg5
L602350L
sg6
Nsg23
S'mov'
p1111
sg25
S'0x930eeL'
p1112
sg27
Nsba(ibclass
BInstr
p1113
(dp1114
g2
Nsg17
S'mov     rax, [rax+38h]'
p1115
sg19
S'488b4038'
p1116
sg21
Vmov rax, qword ptr [rax + 0x38]
p1117
sg5
L602354L
sg6
Nsg23
S'mov'
p1118
sg25
S'0x930f2L'
p1119
sg27
Nsba(ibclass
BInstr
p1120
(dp1121
g2
Nsg17
S'mov     rax, [rax+20h]'
p1122
sg19
S'488b4020'
p1123
sg21
Vmov rax, qword ptr [rax + 0x20]
p1124
sg5
L602358L
sg6
Nsg23
S'mov'
p1125
sg25
S'0x930f6L'
p1126
sg27
Nsba(ibclass
BInstr
p1127
(dp1128
g2
Nsg17
S'mov     [rbp+q], rax'
p1129
sg19
S'488945f8'
p1130
sg21
Vmov qword ptr [rbp - 8], rax
p1131
sg5
L602362L
sg6
Nsg23
S'mov'
p1132
sg25
S'0x930faL'
p1133
sg27
Nsba(ibclass
BInstr
p1134
(dp1135
g2
Nsg17
S'jmp     short loc_9310C'
p1136
sg19
S'eb0c'
p1137
sg21
Vjmp 0xe
p1138
sg5
L602366L
sg6
Nsg23
S'jmp'
p1139
sg25
S'0x930feL'
p1140
sg27
Nsbasg98
(lp1141
S'mov reg, mem'
p1142
aS'mov reg, reg'
p1143
aS'cregl xmlNextChar__internreg_regias'
p1144
aS'mov reg, mem'
p1145
aS'mov reg, mem'
p1146
aS'mov reg, mem'
p1147
aS'mov mem, reg'
p1148
aS'jmp func'
p1149
asg111
Nsg5
S'0x930e2L'
p1150
sg113
(lp1151
S'0x930cbL'
p1152
asg6
Nsg115
(lp1153
S'0x9310cL'
p1154
asg119
Nsg120
Nsg121
S'7b7bbb5d7197c469a630e40a0d33dd2e'
p1155
sg123
S'c31ad594a4576f703eb672f160bea72b'
p1156
sg125
(lp1157
g1090
ag1097
ag1104
ag1111
ag1118
ag1125
ag1132
ag1139
asg127
Nsba(ibclass
BBasicBlock
p1158
(dp1159
g12
Nsg13
(lp1160
(ibclass
BInstr
p1161
(dp1162
g2
Nsg17
S'mov     rax, [rbp+ctxt]'
p1163
sg19
S'488b45e8'
p1164
sg21
Vmov rax, qword ptr [rbp - 0x18]
p1165
sg5
L602368L
sg6
Nsg23
S'mov'
p1166
sg25
S'0x93100L'
p1167
sg27
Nsba(ibclass
BInstr
p1168
(dp1169
g2
Nsg17
S'mov     rdi, rax        ; ctxt'
p1170
sg19
S'4889c7'
p1171
sg21
Vmov rdi, rax
p1172
sg5
L602372L
sg6
Nsg23
S'mov'
p1173
sg25
S'0x93104L'
p1174
sg27
Nsba(ibclass
BInstr
p1175
(dp1176
g2
Nsg17
S'call    xmlNextChar__internal_alias'
p1177
sg19
S'e8f42ffaff'
p1178
sg21
Vcall 0xfffffffffffa2ff9
p1179
sg5
L602375L
sg6
Nsg23
S'call'
p1180
sg25
S'0x93107L'
p1181
sg27
Nsbasg98
(lp1182
S'mov reg, mem'
p1183
aS'mov reg, reg'
p1184
aS'cregl xmlNextChar__internreg_regias'
p1185
asg111
Nsg5
S'0x93100L'
p1186
sg113
(lp1187
S'0x93158L'
p1188
asg6
Nsg115
(lp1189
S'0x9310cL'
p1190
asg119
Nsg120
Nsg121
S'0bf1a79a6a1155c5085c1c85d6d83d05'
p1191
sg123
S'b81e3d888e50af7f7123a844466a7815'
p1192
sg125
(lp1193
g1166
ag1173
ag1180
asg127
Nsba(ibclass
BBasicBlock
p1194
(dp1195
g12
Nsg13
(lp1196
(ibclass
BInstr
p1197
(dp1198
g2
Nsg17
S'mov     rax, [rbp+ctxt]'
p1199
sg19
S'488b45e8'
p1200
sg21
Vmov rax, qword ptr [rbp - 0x18]
p1201
sg5
L602380L
sg6
Nsg23
S'mov'
p1202
sg25
S'0x9310cL'
p1203
sg27
Nsba(ibclass
BInstr
p1204
(dp1205
g2
Nsg17
S'mov     rax, [rax+38h]'
p1206
sg19
S'488b4038'
p1207
sg21
Vmov rax, qword ptr [rax + 0x38]
p1208
sg5
L602384L
sg6
Nsg23
S'mov'
p1209
sg25
S'0x93110L'
p1210
sg27
Nsba(ibclass
BInstr
p1211
(dp1212
g2
Nsg17
S'mov     rax, [rax+20h]'
p1213
sg19
S'488b4020'
p1214
sg21
Vmov rax, qword ptr [rax + 0x20]
p1215
sg5
L602388L
sg6
Nsg23
S'mov'
p1216
sg25
S'0x93114L'
p1217
sg27
Nsba(ibclass
BInstr
p1218
(dp1219
g2
Nsg17
S'movzx   eax, byte ptr [rax]'
p1220
sg19
S'0fb600'
p1221
sg21
Vmovzx eax, byte ptr [rax]
p1222
sg5
L602392L
sg6
Nsg23
S'movzx'
p1223
sg25
S'0x93118L'
p1224
sg27
Nsba(ibclass
BInstr
p1225
(dp1226
g2
Nsg17
S'cmp     al, 8'
p1227
sg19
S'3c08'
p1228
sg21
Vcmp al, 8
p1229
sg5
L602395L
sg6
Nsg23
S'cmp'
p1230
sg25
S'0x9311bL'
p1231
sg27
Nsba(ibclass
BInstr
p1232
(dp1233
g2
Nsg17
S'jbe     short loc_93132'
p1234
sg19
S'7613'
p1235
sg21
Vjbe 0x15
p1236
sg5
L602397L
sg6
Nsg23
S'jbe'
p1237
sg25
S'0x9311dL'
p1238
sg27
Nsbasg98
(lp1239
S'mov reg, mem'
p1240
aS'mov reg, mem'
p1241
aS'mov reg, mem'
p1242
aS'movzx reg, mem'
p1243
aS'cmp reg, 8'
p1244
aS'jbe func'
p1245
asg111
Nsg5
S'0x9310cL'
p1246
sg113
(lp1247
S'0x930e2L'
p1248
aS'0x93100L'
p1249
asg6
Nsg115
(lp1250
S'0x9311fL'
p1251
aS'0x93132L'
p1252
asg119
Nsg120
Nsg121
S'0ff7ebac7137131ac55070b203374f6a'
p1253
sg123
S'bfc60be5daafb1b63061d272d70c0877'
p1254
sg125
(lp1255
g1202
ag1209
ag1216
ag1223
ag1230
ag1237
asg127
Nsba(ibclass
BBasicBlock
p1256
(dp1257
g12
Nsg13
(lp1258
(ibclass
BInstr
p1259
(dp1260
g2
Nsg17
S'mov     rax, [rbp+ctxt]'
p1261
sg19
S'488b45e8'
p1262
sg21
Vmov rax, qword ptr [rbp - 0x18]
p1263
sg5
L602399L
sg6
Nsg23
S'mov'
p1264
sg25
S'0x9311fL'
p1265
sg27
Nsba(ibclass
BInstr
p1266
(dp1267
g2
Nsg17
S'mov     rax, [rax+38h]'
p1268
sg19
S'488b4038'
p1269
sg21
Vmov rax, qword ptr [rax + 0x38]
p1270
sg5
L602403L
sg6
Nsg23
S'mov'
p1271
sg25
S'0x93123L'
p1272
sg27
Nsba(ibclass
BInstr
p1273
(dp1274
g2
Nsg17
S'mov     rax, [rax+20h]'
p1275
sg19
S'488b4020'
p1276
sg21
Vmov rax, qword ptr [rax + 0x20]
p1277
sg5
L602407L
sg6
Nsg23
S'mov'
p1278
sg25
S'0x93127L'
p1279
sg27
Nsba(ibclass
BInstr
p1280
(dp1281
g2
Nsg17
S'movzx   eax, byte ptr [rax]'
p1282
sg19
S'0fb600'
p1283
sg21
Vmovzx eax, byte ptr [rax]
p1284
sg5
L602411L
sg6
Nsg23
S'movzx'
p1285
sg25
S'0x9312bL'
p1286
sg27
Nsba(ibclass
BInstr
p1287
(dp1288
g2
Nsg17
S'cmp     al, 0Ah'
p1289
sg19
S'3c0a'
p1290
sg21
Vcmp al, 0xa
p1291
sg5
L602414L
sg6
Nsg23
S'cmp'
p1292
sg25
S'0x9312eL'
p1293
sg27
Nsba(ibclass
BInstr
p1294
(dp1295
g2
Nsg17
S'jbe     short loc_93158'
p1296
sg19
S'7626'
p1297
sg21
Vjbe 0x28
p1298
sg5
L602416L
sg6
Nsg23
S'jbe'
p1299
sg25
S'0x93130L'
p1300
sg27
Nsbasg98
(lp1301
S'mov reg, mem'
p1302
aS'mov reg, mem'
p1303
aS'mov reg, mem'
p1304
aS'movzx reg, mem'
p1305
aS'cmp reg, 0Ah'
p1306
aS'jbe func'
p1307
asg111
Nsg5
S'0x9311fL'
p1308
sg113
(lp1309
S'0x9310cL'
p1310
asg6
Nsg115
(lp1311
S'0x93132L'
p1312
aS'0x93158L'
p1313
asg119
Nsg120
Nsg121
S'0ff7ebac7137131ac55070b203374f6a'
p1314
sg123
S'517632640d8c32384a61236d65bae149'
p1315
sg125
(lp1316
g1264
ag1271
ag1278
ag1285
ag1292
ag1299
asg127
Nsba(ibclass
BBasicBlock
p1317
(dp1318
g12
Nsg13
(lp1319
(ibclass
BInstr
p1320
(dp1321
g2
Nsg17
S'mov     rax, [rbp+ctxt]'
p1322
sg19
S'488b45e8'
p1323
sg21
Vmov rax, qword ptr [rbp - 0x18]
p1324
sg5
L602418L
sg6
Nsg23
S'mov'
p1325
sg25
S'0x93132L'
p1326
sg27
Nsba(ibclass
BInstr
p1327
(dp1328
g2
Nsg17
S'mov     rax, [rax+38h]'
p1329
sg19
S'488b4038'
p1330
sg21
Vmov rax, qword ptr [rax + 0x38]
p1331
sg5
L602422L
sg6
Nsg23
S'mov'
p1332
sg25
S'0x93136L'
p1333
sg27
Nsba(ibclass
BInstr
p1334
(dp1335
g2
Nsg17
S'mov     rax, [rax+20h]'
p1336
sg19
S'488b4020'
p1337
sg21
Vmov rax, qword ptr [rax + 0x20]
p1338
sg5
L602426L
sg6
Nsg23
S'mov'
p1339
sg25
S'0x9313aL'
p1340
sg27
Nsba(ibclass
BInstr
p1341
(dp1342
g2
Nsg17
S'movzx   eax, byte ptr [rax]'
p1343
sg19
S'0fb600'
p1344
sg21
Vmovzx eax, byte ptr [rax]
p1345
sg5
L602430L
sg6
Nsg23
S'movzx'
p1346
sg25
S'0x9313eL'
p1347
sg27
Nsba(ibclass
BInstr
p1348
(dp1349
g2
Nsg17
S'cmp     al, 0Dh'
p1350
sg19
S'3c0d'
p1351
sg21
Vcmp al, 0xd
p1352
sg5
L602433L
sg6
Nsg23
S'cmp'
p1353
sg25
S'0x93141L'
p1354
sg27
Nsba(ibclass
BInstr
p1355
(dp1356
g2
Nsg17
S'jz      short loc_93158'
p1357
sg19
S'7413'
p1358
sg21
Vje 0x15
p1359
sg5
L602435L
sg6
Nsg23
S'jz'
p1360
sg25
S'0x93143L'
p1361
sg27
Nsbasg98
(lp1362
S'mov reg, mem'
p1363
aS'mov reg, mem'
p1364
aS'mov reg, mem'
p1365
aS'movzx reg, mem'
p1366
aS'cmp reg, 0Dh'
p1367
aS'jz func'
p1368
asg111
Nsg5
S'0x93132L'
p1369
sg113
(lp1370
S'0x9310cL'
p1371
aS'0x9311fL'
p1372
asg6
Nsg115
(lp1373
S'0x93145L'
p1374
aS'0x93158L'
p1375
asg119
Nsg120
Nsg121
S'16b78aabab836f07485954710c0f23a0'
p1376
sg123
S'8ee5acdda4d1b200bfe0d55a3c868675'
p1377
sg125
(lp1378
g1325
ag1332
ag1339
ag1346
ag1353
ag1360
asg127
Nsba(ibclass
BBasicBlock
p1379
(dp1380
g12
Nsg13
(lp1381
(ibclass
BInstr
p1382
(dp1383
g2
Nsg17
S'mov     rax, [rbp+ctxt]'
p1384
sg19
S'488b45e8'
p1385
sg21
Vmov rax, qword ptr [rbp - 0x18]
p1386
sg5
L602437L
sg6
Nsg23
S'mov'
p1387
sg25
S'0x93145L'
p1388
sg27
Nsba(ibclass
BInstr
p1389
(dp1390
g2
Nsg17
S'mov     rax, [rax+38h]'
p1391
sg19
S'488b4038'
p1392
sg21
Vmov rax, qword ptr [rax + 0x38]
p1393
sg5
L602441L
sg6
Nsg23
S'mov'
p1394
sg25
S'0x93149L'
p1395
sg27
Nsba(ibclass
BInstr
p1396
(dp1397
g2
Nsg17
S'mov     rax, [rax+20h]'
p1398
sg19
S'488b4020'
p1399
sg21
Vmov rax, qword ptr [rax + 0x20]
p1400
sg5
L602445L
sg6
Nsg23
S'mov'
p1401
sg25
S'0x9314dL'
p1402
sg27
Nsba(ibclass
BInstr
p1403
(dp1404
g2
Nsg17
S'movzx   eax, byte ptr [rax]'
p1405
sg19
S'0fb600'
p1406
sg21
Vmovzx eax, byte ptr [rax]
p1407
sg5
L602449L
sg6
Nsg23
S'movzx'
p1408
sg25
S'0x93151L'
p1409
sg27
Nsba(ibclass
BInstr
p1410
(dp1411
g2
Nsg17
S'cmp     al, 1Fh'
p1412
sg19
S'3c1f'
p1413
sg21
Vcmp al, 0x1f
p1414
sg5
L602452L
sg6
Nsg23
S'cmp'
p1415
sg25
S'0x93154L'
p1416
sg27
Nsba(ibclass
BInstr
p1417
(dp1418
g2
Nsg17
S'jbe     short loc_9316B'
p1419
sg19
S'7613'
p1420
sg21
Vjbe 0x15
p1421
sg5
L602454L
sg6
Nsg23
S'jbe'
p1422
sg25
S'0x93156L'
p1423
sg27
Nsbasg98
(lp1424
S'mov reg, mem'
p1425
aS'mov reg, mem'
p1426
aS'mov reg, mem'
p1427
aS'movzx reg, mem'
p1428
aS'cmp reg, 1Fh'
p1429
aS'jbe func'
p1430
asg111
Nsg5
S'0x93145L'
p1431
sg113
(lp1432
S'0x93132L'
p1433
asg6
Nsg115
(lp1434
S'0x93158L'
p1435
aS'0x9316bL'
p1436
asg119
Nsg120
Nsg121
S'0ff7ebac7137131ac55070b203374f6a'
p1437
sg123
S'e68d691ceddc27173b1b73da4c50b156'
p1438
sg125
(lp1439
g1387
ag1394
ag1401
ag1408
ag1415
ag1422
asg127
Nsba(ibclass
BBasicBlock
p1440
(dp1441
g12
Nsg13
(lp1442
(ibclass
BInstr
p1443
(dp1444
g2
Nsg17
S'mov     rax, [rbp+ctxt]'
p1445
sg19
S'488b45e8'
p1446
sg21
Vmov rax, qword ptr [rbp - 0x18]
p1447
sg5
L602456L
sg6
Nsg23
S'mov'
p1448
sg25
S'0x93158L'
p1449
sg27
Nsba(ibclass
BInstr
p1450
(dp1451
g2
Nsg17
S'mov     rax, [rax+38h]'
p1452
sg19
S'488b4038'
p1453
sg21
Vmov rax, qword ptr [rax + 0x38]
p1454
sg5
L602460L
sg6
Nsg23
S'mov'
p1455
sg25
S'0x9315cL'
p1456
sg27
Nsba(ibclass
BInstr
p1457
(dp1458
g2
Nsg17
S'mov     rax, [rax+20h]'
p1459
sg19
S'488b4020'
p1460
sg21
Vmov rax, qword ptr [rax + 0x20]
p1461
sg5
L602464L
sg6
Nsg23
S'mov'
p1462
sg25
S'0x93160L'
p1463
sg27
Nsba(ibclass
BInstr
p1464
(dp1465
g2
Nsg17
S'movzx   eax, byte ptr [rax]'
p1466
sg19
S'0fb600'
p1467
sg21
Vmovzx eax, byte ptr [rax]
p1468
sg5
L602468L
sg6
Nsg23
S'movzx'
p1469
sg25
S'0x93164L'
p1470
sg27
Nsba(ibclass
BInstr
p1471
(dp1472
g2
Nsg17
S'cmp     al, 27h'
p1473
sg19
S'3c27'
p1474
sg21
Vcmp al, 0x27
p1475
sg5
L602471L
sg6
Nsg23
S'cmp'
p1476
sg25
S'0x93167L'
p1477
sg27
Nsba(ibclass
BInstr
p1478
(dp1479
g2
Nsg17
S'jnz     short loc_93100'
p1480
sg19
S'7595'
p1481
sg21
Vjne 0xffffffffffffff97
p1482
sg5
L602473L
sg6
Nsg23
S'jnz'
p1483
sg25
S'0x93169L'
p1484
sg27
Nsbasg98
(lp1485
S'mov reg, mem'
p1486
aS'mov reg, mem'
p1487
aS'mov reg, mem'
p1488
aS'movzx reg, mem'
p1489
aS'cmp reg, 27h'
p1490
aS'jnz func'
p1491
asg111
Nsg5
S'0x93158L'
p1492
sg113
(lp1493
S'0x9311fL'
p1494
aS'0x93132L'
p1495
aS'0x93145L'
p1496
asg6
Nsg115
(lp1497
S'0x93100L'
p1498
aS'0x9316bL'
p1499
asg119
Nsg120
Nsg121
S'8f3f680eb64f543d58e9f30e939c868c'
p1500
sg123
S'63a1eb026a445180ebb9466e15fd5878'
p1501
sg125
(lp1502
g1448
ag1455
ag1462
ag1469
ag1476
ag1483
asg127
Nsba(ibclass
BBasicBlock
p1503
(dp1504
g12
Nsg13
(lp1505
(ibclass
BInstr
p1506
(dp1507
g2
Nsg17
S'mov     rax, [rbp+ctxt]'
p1508
sg19
S'488b45e8'
p1509
sg21
Vmov rax, qword ptr [rbp - 0x18]
p1510
sg5
L602475L
sg6
Nsg23
S'mov'
p1511
sg25
S'0x9316bL'
p1512
sg27
Nsba(ibclass
BInstr
p1513
(dp1514
g2
Nsg17
S'mov     rax, [rax+38h]'
p1515
sg19
S'488b4038'
p1516
sg21
Vmov rax, qword ptr [rax + 0x38]
p1517
sg5
L602479L
sg6
Nsg23
S'mov'
p1518
sg25
S'0x9316fL'
p1519
sg27
Nsba(ibclass
BInstr
p1520
(dp1521
g2
Nsg17
S'mov     rax, [rax+20h]'
p1522
sg19
S'488b4020'
p1523
sg21
Vmov rax, qword ptr [rax + 0x20]
p1524
sg5
L602483L
sg6
Nsg23
S'mov'
p1525
sg25
S'0x93173L'
p1526
sg27
Nsba(ibclass
BInstr
p1527
(dp1528
g2
Nsg17
S'movzx   eax, byte ptr [rax]'
p1529
sg19
S'0fb600'
p1530
sg21
Vmovzx eax, byte ptr [rax]
p1531
sg5
L602487L
sg6
Nsg23
S'movzx'
p1532
sg25
S'0x93177L'
p1533
sg27
Nsba(ibclass
BInstr
p1534
(dp1535
g2
Nsg17
S'cmp     al, 8'
p1536
sg19
S'3c08'
p1537
sg21
Vcmp al, 8
p1538
sg5
L602490L
sg6
Nsg23
S'cmp'
p1539
sg25
S'0x9317aL'
p1540
sg27
Nsba(ibclass
BInstr
p1541
(dp1542
g2
Nsg17
S'jbe     short loc_93191'
p1543
sg19
S'7613'
p1544
sg21
Vjbe 0x15
p1545
sg5
L602492L
sg6
Nsg23
S'jbe'
p1546
sg25
S'0x9317cL'
p1547
sg27
Nsbasg98
(lp1548
S'mov reg, mem'
p1549
aS'mov reg, mem'
p1550
aS'mov reg, mem'
p1551
aS'movzx reg, mem'
p1552
aS'cmp reg, 8'
p1553
aS'jbe func'
p1554
asg111
Nsg5
S'0x9316bL'
p1555
sg113
(lp1556
S'0x93145L'
p1557
aS'0x93158L'
p1558
asg6
Nsg115
(lp1559
S'0x9317eL'
p1560
aS'0x93191L'
p1561
asg119
Nsg120
Nsg121
S'0ff7ebac7137131ac55070b203374f6a'
p1562
sg123
S'bfc60be5daafb1b63061d272d70c0877'
p1563
sg125
(lp1564
g1511
ag1518
ag1525
ag1532
ag1539
ag1546
asg127
Nsba(ibclass
BBasicBlock
p1565
(dp1566
g12
Nsg13
(lp1567
(ibclass
BInstr
p1568
(dp1569
g2
Nsg17
S'mov     rax, [rbp+ctxt]'
p1570
sg19
S'488b45e8'
p1571
sg21
Vmov rax, qword ptr [rbp - 0x18]
p1572
sg5
L602494L
sg6
Nsg23
S'mov'
p1573
sg25
S'0x9317eL'
p1574
sg27
Nsba(ibclass
BInstr
p1575
(dp1576
g2
Nsg17
S'mov     rax, [rax+38h]'
p1577
sg19
S'488b4038'
p1578
sg21
Vmov rax, qword ptr [rax + 0x38]
p1579
sg5
L602498L
sg6
Nsg23
S'mov'
p1580
sg25
S'0x93182L'
p1581
sg27
Nsba(ibclass
BInstr
p1582
(dp1583
g2
Nsg17
S'mov     rax, [rax+20h]'
p1584
sg19
S'488b4020'
p1585
sg21
Vmov rax, qword ptr [rax + 0x20]
p1586
sg5
L602502L
sg6
Nsg23
S'mov'
p1587
sg25
S'0x93186L'
p1588
sg27
Nsba(ibclass
BInstr
p1589
(dp1590
g2
Nsg17
S'movzx   eax, byte ptr [rax]'
p1591
sg19
S'0fb600'
p1592
sg21
Vmovzx eax, byte ptr [rax]
p1593
sg5
L602506L
sg6
Nsg23
S'movzx'
p1594
sg25
S'0x9318aL'
p1595
sg27
Nsba(ibclass
BInstr
p1596
(dp1597
g2
Nsg17
S'cmp     al, 0Ah'
p1598
sg19
S'3c0a'
p1599
sg21
Vcmp al, 0xa
p1600
sg5
L602509L
sg6
Nsg23
S'cmp'
p1601
sg25
S'0x9318dL'
p1602
sg27
Nsba(ibclass
BInstr
p1603
(dp1604
g2
Nsg17
S'jbe     short loc_931DC'
p1605
sg19
S'764b'
p1606
sg21
Vjbe 0x4d
p1607
sg5
L602511L
sg6
Nsg23
S'jbe'
p1608
sg25
S'0x9318fL'
p1609
sg27
Nsbasg98
(lp1610
S'mov reg, mem'
p1611
aS'mov reg, mem'
p1612
aS'mov reg, mem'
p1613
aS'movzx reg, mem'
p1614
aS'cmp reg, 0Ah'
p1615
aS'jbe func'
p1616
asg111
Nsg5
S'0x9317eL'
p1617
sg113
(lp1618
S'0x9316bL'
p1619
asg6
Nsg115
(lp1620
S'0x93191L'
p1621
aS'0x931dcL'
p1622
asg119
Nsg120
Nsg121
S'0ff7ebac7137131ac55070b203374f6a'
p1623
sg123
S'517632640d8c32384a61236d65bae149'
p1624
sg125
(lp1625
g1573
ag1580
ag1587
ag1594
ag1601
ag1608
asg127
Nsba(ibclass
BBasicBlock
p1626
(dp1627
g12
Nsg13
(lp1628
(ibclass
BInstr
p1629
(dp1630
g2
Nsg17
S'mov     rax, [rbp+ctxt]'
p1631
sg19
S'488b45e8'
p1632
sg21
Vmov rax, qword ptr [rbp - 0x18]
p1633
sg5
L602513L
sg6
Nsg23
S'mov'
p1634
sg25
S'0x93191L'
p1635
sg27
Nsba(ibclass
BInstr
p1636
(dp1637
g2
Nsg17
S'mov     rax, [rax+38h]'
p1638
sg19
S'488b4038'
p1639
sg21
Vmov rax, qword ptr [rax + 0x38]
p1640
sg5
L602517L
sg6
Nsg23
S'mov'
p1641
sg25
S'0x93195L'
p1642
sg27
Nsba(ibclass
BInstr
p1643
(dp1644
g2
Nsg17
S'mov     rax, [rax+20h]'
p1645
sg19
S'488b4020'
p1646
sg21
Vmov rax, qword ptr [rax + 0x20]
p1647
sg5
L602521L
sg6
Nsg23
S'mov'
p1648
sg25
S'0x93199L'
p1649
sg27
Nsba(ibclass
BInstr
p1650
(dp1651
g2
Nsg17
S'movzx   eax, byte ptr [rax]'
p1652
sg19
S'0fb600'
p1653
sg21
Vmovzx eax, byte ptr [rax]
p1654
sg5
L602525L
sg6
Nsg23
S'movzx'
p1655
sg25
S'0x9319dL'
p1656
sg27
Nsba(ibclass
BInstr
p1657
(dp1658
g2
Nsg17
S'cmp     al, 0Dh'
p1659
sg19
S'3c0d'
p1660
sg21
Vcmp al, 0xd
p1661
sg5
L602528L
sg6
Nsg23
S'cmp'
p1662
sg25
S'0x931a0L'
p1663
sg27
Nsba(ibclass
BInstr
p1664
(dp1665
g2
Nsg17
S'jz      short loc_931DC'
p1666
sg19
S'7438'
p1667
sg21
Vje 0x3a
p1668
sg5
L602530L
sg6
Nsg23
S'jz'
p1669
sg25
S'0x931a2L'
p1670
sg27
Nsbasg98
(lp1671
S'mov reg, mem'
p1672
aS'mov reg, mem'
p1673
aS'mov reg, mem'
p1674
aS'movzx reg, mem'
p1675
aS'cmp reg, 0Dh'
p1676
aS'jz func'
p1677
asg111
Nsg5
S'0x93191L'
p1678
sg113
(lp1679
S'0x9316bL'
p1680
aS'0x9317eL'
p1681
asg6
Nsg115
(lp1682
S'0x931a4L'
p1683
aS'0x931dcL'
p1684
asg119
Nsg120
Nsg121
S'16b78aabab836f07485954710c0f23a0'
p1685
sg123
S'8ee5acdda4d1b200bfe0d55a3c868675'
p1686
sg125
(lp1687
g1634
ag1641
ag1648
ag1655
ag1662
ag1669
asg127
Nsba(ibclass
BBasicBlock
p1688
(dp1689
g12
Nsg13
(lp1690
(ibclass
BInstr
p1691
(dp1692
g2
Nsg17
S'mov     rax, [rbp+ctxt]'
p1693
sg19
S'488b45e8'
p1694
sg21
Vmov rax, qword ptr [rbp - 0x18]
p1695
sg5
L602532L
sg6
Nsg23
S'mov'
p1696
sg25
S'0x931a4L'
p1697
sg27
Nsba(ibclass
BInstr
p1698
(dp1699
g2
Nsg17
S'mov     rax, [rax+38h]'
p1700
sg19
S'488b4038'
p1701
sg21
Vmov rax, qword ptr [rax + 0x38]
p1702
sg5
L602536L
sg6
Nsg23
S'mov'
p1703
sg25
S'0x931a8L'
p1704
sg27
Nsba(ibclass
BInstr
p1705
(dp1706
g2
Nsg17
S'mov     rax, [rax+20h]'
p1707
sg19
S'488b4020'
p1708
sg21
Vmov rax, qword ptr [rax + 0x20]
p1709
sg5
L602540L
sg6
Nsg23
S'mov'
p1710
sg25
S'0x931acL'
p1711
sg27
Nsba(ibclass
BInstr
p1712
(dp1713
g2
Nsg17
S'movzx   eax, byte ptr [rax]'
p1714
sg19
S'0fb600'
p1715
sg21
Vmovzx eax, byte ptr [rax]
p1716
sg5
L602544L
sg6
Nsg23
S'movzx'
p1717
sg25
S'0x931b0L'
p1718
sg27
Nsba(ibclass
BInstr
p1719
(dp1720
g2
Nsg17
S'cmp     al, 1Fh'
p1721
sg19
S'3c1f'
p1722
sg21
Vcmp al, 0x1f
p1723
sg5
L602547L
sg6
Nsg23
S'cmp'
p1724
sg25
S'0x931b3L'
p1725
sg27
Nsba(ibclass
BInstr
p1726
(dp1727
g2
Nsg17
S'ja      short loc_931DC'
p1728
sg19
S'7725'
p1729
sg21
Vja 0x27
p1730
sg5
L602549L
sg6
Nsg23
S'ja'
p1731
sg25
S'0x931b5L'
p1732
sg27
Nsbasg98
(lp1733
S'mov reg, mem'
p1734
aS'mov reg, mem'
p1735
aS'mov reg, mem'
p1736
aS'movzx reg, mem'
p1737
aS'cmp reg, 1Fh'
p1738
aS'ja func'
p1739
asg111
Nsg5
S'0x931a4L'
p1740
sg113
(lp1741
S'0x93191L'
p1742
asg6
Nsg115
(lp1743
S'0x931b7L'
p1744
aS'0x931dcL'
p1745
asg119
Nsg120
Nsg121
S'143b6fd093c689d7e8a24a5b7a5f3c55'
p1746
sg123
S'67ece9e0ab36695f0c31d065f4900e11'
p1747
sg125
(lp1748
g1696
ag1703
ag1710
ag1717
ag1724
ag1731
asg127
Nsba(ibclass
BBasicBlock
p1749
(dp1750
g12
Nsg13
(lp1751
(ibclass
BInstr
p1752
(dp1753
g2
Nsg17
S'mov     rax, [rbp+ctxt]'
p1754
sg19
S'488b45e8'
p1755
sg21
Vmov rax, qword ptr [rbp - 0x18]
p1756
sg5
L602551L
sg6
Nsg23
S'mov'
p1757
sg25
S'0x931b7L'
p1758
sg27
Nsba(ibclass
BInstr
p1759
(dp1760
g2
Nsg17
S'mov     r8d, 0          ; str2'
p1761
sg19
S'41b800000000'
p1762
sg21
Vmov r8d, 0
p1763
sg5
L602555L
sg6
Nsg23
S'mov'
p1764
sg25
S'0x931bbL'
p1765
sg27
Nsba(ibclass
BInstr
p1766
(dp1767
g2
Nsg17
S'mov     ecx, 0          ; str1'
p1768
sg19
S'b900000000'
p1769
sg21
Vmov ecx, 0
p1770
sg5
L602561L
sg6
Nsg23
S'mov'
p1771
sg25
S'0x931c1L'
p1772
sg27
Nsba(ibclass
BInstr
p1773
(dp1774
g2
Nsg17
S'lea     rdx, aUnfinishedSyst; "Unfinished SystemLiteral\\n"'
p1775
sg19
S'488d152cdc0e00'
p1776
sg21
Vlea rdx, [rip + 0xedc2c]
p1777
sg5
L602566L
sg6
Nsg23
S'lea'
p1778
sg25
S'0x931c6L'
p1779
sg27
Nsba(ibclass
BInstr
p1780
(dp1781
g2
Nsg17
S'mov     esi, 2Ch        ; error'
p1782
sg19
S'be2c000000'
p1783
sg21
Vmov esi, 0x2c
p1784
sg5
L602573L
sg6
Nsg23
S'mov'
p1785
sg25
S'0x931cdL'
p1786
sg27
Nsba(ibclass
BInstr
p1787
(dp1788
g2
Nsg17
S'mov     rdi, rax        ; ctxt'
p1789
sg19
S'4889c7'
p1790
sg21
Vmov rdi, rax
p1791
sg5
L602578L
sg6
Nsg23
S'mov'
p1792
sg25
S'0x931d2L'
p1793
sg27
Nsba(ibclass
BInstr
p1794
(dp1795
g2
Nsg17
S'call    htmlParseErr'
p1796
sg19
S'e82abbffff'
p1797
sg21
Vcall 0xffffffffffffbb2f
p1798
sg5
L602581L
sg6
Nsg23
S'call'
p1799
sg25
S'0x931d5L'
p1800
sg27
Nsba(ibclass
BInstr
p1801
(dp1802
g2
Nsg17
S'jmp     short loc_9323A'
p1803
sg19
S'eb5e'
p1804
sg21
Vjmp 0x60
p1805
sg5
L602586L
sg6
Nsg23
S'jmp'
p1806
sg25
S'0x931daL'
p1807
sg27
Nsbasg98
(lp1808
S'mov reg, mem'
p1809
aS'mov regd, 0'
p1810
aS'mov reg, 0'
p1811
aS'lea reg, aUnfinishedSyst'
p1812
aS'mov reg, 2Ch'
p1813
aS'mov reg, reg'
p1814
aS'cregl htmlParseErr'
p1815
aS'jmp func'
p1816
asg111
Nsg5
S'0x931b7L'
p1817
sg113
(lp1818
S'0x931a4L'
p1819
asg6
Nsg115
(lp1820
S'0x9323aL'
p1821
asg119
Nsg120
Nsg121
S'cd0c60d7da6319d715f5543cab0efcee'
p1822
sg123
S'f680ae18d4cbd84aa244f84674a6211d'
p1823
sg125
(lp1824
g1757
ag1764
ag1771
ag1778
ag1785
ag1792
ag1799
ag1806
asg127
Nsba(ibclass
BBasicBlock
p1825
(dp1826
g12
Nsg13
(lp1827
(ibclass
BInstr
p1828
(dp1829
g2
Nsg17
S'mov     rax, [rbp+ctxt]'
p1830
sg19
S'488b45e8'
p1831
sg21
Vmov rax, qword ptr [rbp - 0x18]
p1832
sg5
L602588L
sg6
Nsg23
S'mov'
p1833
sg25
S'0x931dcL'
p1834
sg27
Nsba(ibclass
BInstr
p1835
(dp1836
g2
Nsg17
S'mov     rax, [rax+38h]'
p1837
sg19
S'488b4038'
p1838
sg21
Vmov rax, qword ptr [rax + 0x38]
p1839
sg5
L602592L
sg6
Nsg23
S'mov'
p1840
sg25
S'0x931e0L'
p1841
sg27
Nsba(ibclass
BInstr
p1842
(dp1843
g2
Nsg17
S'mov     rax, [rax+20h]'
p1844
sg19
S'488b4020'
p1845
sg21
Vmov rax, qword ptr [rax + 0x20]
p1846
sg5
L602596L
sg6
Nsg23
S'mov'
p1847
sg25
S'0x931e4L'
p1848
sg27
Nsba(ibclass
BInstr
p1849
(dp1850
g2
Nsg17
S'mov     rdx, rax'
p1851
sg19
S'4889c2'
p1852
sg21
Vmov rdx, rax
p1853
sg5
L602600L
sg6
Nsg23
S'mov'
p1854
sg25
S'0x931e8L'
p1855
sg27
Nsba(ibclass
BInstr
p1856
(dp1857
g2
Nsg17
S'mov     rax, [rbp+q]'
p1858
sg19
S'488b45f8'
p1859
sg21
Vmov rax, qword ptr [rbp - 8]
p1860
sg5
L602603L
sg6
Nsg23
S'mov'
p1861
sg25
S'0x931ebL'
p1862
sg27
Nsba(ibclass
BInstr
p1863
(dp1864
g2
Nsg17
S'sub     rdx, rax'
p1865
sg19
S'4829c2'
p1866
sg21
Vsub rdx, rax
p1867
sg5
L602607L
sg6
Nsg23
S'sub'
p1868
sg25
S'0x931efL'
p1869
sg27
Nsba(ibclass
BInstr
p1870
(dp1871
g2
Nsg17
S'mov     rax, rdx'
p1872
sg19
S'4889d0'
p1873
sg21
Vmov rax, rdx
p1874
sg5
L602610L
sg6
Nsg23
S'mov'
p1875
sg25
S'0x931f2L'
p1876
sg27
Nsba(ibclass
BInstr
p1877
(dp1878
g2
Nsg17
S'mov     edx, eax'
p1879
sg19
S'89c2'
p1880
sg21
Vmov edx, eax
p1881
sg5
L602613L
sg6
Nsg23
S'mov'
p1882
sg25
S'0x931f5L'
p1883
sg27
Nsba(ibclass
BInstr
p1884
(dp1885
g2
Nsg17
S'mov     rax, [rbp+q]'
p1886
sg19
S'488b45f8'
p1887
sg21
Vmov rax, qword ptr [rbp - 8]
p1888
sg5
L602615L
sg6
Nsg23
S'mov'
p1889
sg25
S'0x931f7L'
p1890
sg27
Nsba(ibclass
BInstr
p1891
(dp1892
g2
Nsg17
S'mov     esi, edx        ; len'
p1893
sg19
S'89d6'
p1894
sg21
Vmov esi, edx
p1895
sg5
L602619L
sg6
Nsg23
S'mov'
p1896
sg25
S'0x931fbL'
p1897
sg27
Nsba(ibclass
BInstr
p1898
(dp1899
g2
Nsg17
S'mov     rdi, rax        ; cur'
p1900
sg19
S'4889c7'
p1901
sg21
Vmov rdi, rax
p1902
sg5
L602621L
sg6
Nsg23
S'mov'
p1903
sg25
S'0x931fdL'
p1904
sg27
Nsba(ibclass
BInstr
p1905
(dp1906
g2
Nsg17
S'call    xmlStrndup__internal_alias'
p1907
sg19
S'e8f9f70400'
p1908
sg21
Vcall 0x4f7fe
p1909
sg5
L602624L
sg6
Nsg23
S'call'
p1910
sg25
S'0x93200L'
p1911
sg27
Nsba(ibclass
BInstr
p1912
(dp1913
g2
Nsg17
S'mov     [rbp+ret], rax'
p1914
sg19
S'488945f0'
p1915
sg21
Vmov qword ptr [rbp - 0x10], rax
p1916
sg5
L602629L
sg6
Nsg23
S'mov'
p1917
sg25
S'0x93205L'
p1918
sg27
Nsba(ibclass
BInstr
p1919
(dp1920
g2
Nsg17
S'mov     rax, [rbp+ctxt]'
p1921
sg19
S'488b45e8'
p1922
sg21
Vmov rax, qword ptr [rbp - 0x18]
p1923
sg5
L602633L
sg6
Nsg23
S'mov'
p1924
sg25
S'0x93209L'
p1925
sg27
Nsba(ibclass
BInstr
p1926
(dp1927
g2
Nsg17
S'mov     rdi, rax        ; ctxt'
p1928
sg19
S'4889c7'
p1929
sg21
Vmov rdi, rax
p1930
sg5
L602637L
sg6
Nsg23
S'mov'
p1931
sg25
S'0x9320dL'
p1932
sg27
Nsba(ibclass
BInstr
p1933
(dp1934
g2
Nsg17
S'call    xmlNextChar__internal_alias'
p1935
sg19
S'e8eb2efaff'
p1936
sg21
Vcall 0xfffffffffffa2ef0
p1937
sg5
L602640L
sg6
Nsg23
S'call'
p1938
sg25
S'0x93210L'
p1939
sg27
Nsba(ibclass
BInstr
p1940
(dp1941
g2
Nsg17
S'jmp     short loc_9323A'
p1942
sg19
S'eb23'
p1943
sg21
Vjmp 0x25
p1944
sg5
L602645L
sg6
Nsg23
S'jmp'
p1945
sg25
S'0x93215L'
p1946
sg27
Nsbasg98
(lp1947
S'mov reg, mem'
p1948
aS'mov reg, mem'
p1949
aS'mov reg, mem'
p1950
aS'mov reg, reg'
p1951
aS'mov reg, mem'
p1952
aS'sub reg, reg'
p1953
aS'mov reg, reg'
p1954
aS'mov reg, reg'
p1955
aS'mov reg, mem'
p1956
aS'mov reg, reg'
p1957
aS'mov reg, reg'
p1958
aS'cregl xmlStrndup__internreg_regias'
p1959
aS'mov mem, reg'
p1960
aS'mov reg, mem'
p1961
aS'mov reg, reg'
p1962
aS'cregl xmlNextChar__internreg_regias'
p1963
aS'jmp func'
p1964
asg111
Nsg5
S'0x931dcL'
p1965
sg113
(lp1966
S'0x9317eL'
p1967
aS'0x93191L'
p1968
aS'0x931a4L'
p1969
asg6
Nsg115
(lp1970
S'0x9323aL'
p1971
asg119
Nsg120
Nsg121
S'6740615449a7f60929832457c8d71855'
p1972
sg123
S'820803d8d18b0f254810db8cedb118ef'
p1973
sg125
(lp1974
g1833
ag1840
ag1847
ag1854
ag1861
ag1868
ag1875
ag1882
ag1889
ag1896
ag1903
ag1910
ag1917
ag1924
ag1931
ag1938
ag1945
asg127
Nsba(ibclass
BBasicBlock
p1975
(dp1976
g12
Nsg13
(lp1977
(ibclass
BInstr
p1978
(dp1979
g2
Nsg17
S'mov     rax, [rbp+ctxt]'
p1980
sg19
S'488b45e8'
p1981
sg21
Vmov rax, qword ptr [rbp - 0x18]
p1982
sg5
L602647L
sg6
Nsg23
S'mov'
p1983
sg25
S'0x93217L'
p1984
sg27
Nsba(ibclass
BInstr
p1985
(dp1986
g2
Nsg17
S'mov     r8d, 0          ; str2'
p1987
sg19
S'41b800000000'
p1988
sg21
Vmov r8d, 0
p1989
sg5
L602651L
sg6
Nsg23
S'mov'
p1990
sg25
S'0x9321bL'
p1991
sg27
Nsba(ibclass
BInstr
p1992
(dp1993
g2
Nsg17
S'mov     ecx, 0          ; str1'
p1994
sg19
S'b900000000'
p1995
sg21
Vmov ecx, 0
p1996
sg5
L602657L
sg6
Nsg23
S'mov'
p1997
sg25
S'0x93221L'
p1998
sg27
Nsba(ibclass
BInstr
p1999
(dp2000
g2
Nsg17
S'lea     rdx, aOrExpected; " or \' expected\\n"'
p2001
sg19
S'488d15e6db0e00'
p2002
sg21
Vlea rdx, [rip + 0xedbe6]
p2003
sg5
L602662L
sg6
Nsg23
S'lea'
p2004
sg25
S'0x93226L'
p2005
sg27
Nsba(ibclass
BInstr
p2006
(dp2007
g2
Nsg17
S'mov     esi, 2Bh        ; error'
p2008
sg19
S'be2b000000'
p2009
sg21
Vmov esi, 0x2b
p2010
sg5
L602669L
sg6
Nsg23
S'mov'
p2011
sg25
S'0x9322dL'
p2012
sg27
Nsba(ibclass
BInstr
p2013
(dp2014
g2
Nsg17
S'mov     rdi, rax        ; ctxt'
p2015
sg19
S'4889c7'
p2016
sg21
Vmov rdi, rax
p2017
sg5
L602674L
sg6
Nsg23
S'mov'
p2018
sg25
S'0x93232L'
p2019
sg27
Nsba(ibclass
BInstr
p2020
(dp2021
g2
Nsg17
S'call    htmlParseErr'
p2022
sg19
S'e8cabaffff'
p2023
sg21
Vcall 0xffffffffffffbacf
p2024
sg5
L602677L
sg6
Nsg23
S'call'
p2025
sg25
S'0x93235L'
p2026
sg27
Nsbasg98
(lp2027
S'mov reg, mem'
p2028
aS'mov regd, 0'
p2029
aS'mov reg, 0'
p2030
aS'lea reg, aOrExpected'
p2031
aS'mov reg, 2Bh'
p2032
aS'mov reg, reg'
p2033
aS'cregl htmlParseErr'
p2034
asg111
Nsg5
S'0x93217L'
p2035
sg113
(lp2036
S'0x930cbL'
p2037
asg6
Nsg115
(lp2038
S'0x9323aL'
p2039
asg119
Nsg120
Nsg121
S'9834d8f2896aca99add1e4c8300de384'
p2040
sg123
S'f6c5369c7fbf87ec2c94a0dae7f89d04'
p2041
sg125
(lp2042
g1983
ag1990
ag1997
ag2004
ag2011
ag2018
ag2025
asg127
Nsba(ibclass
BBasicBlock
p2043
(dp2044
g12
Nsg13
(lp2045
(ibclass
BInstr
p2046
(dp2047
g2
Nsg17
S'mov     rax, [rbp+ret]'
p2048
sg19
S'488b45f0'
p2049
sg21
Vmov rax, qword ptr [rbp - 0x10]
p2050
sg5
L602682L
sg6
Nsg23
S'mov'
p2051
sg25
S'0x9323aL'
p2052
sg27
Nsba(ibclass
BInstr
p2053
(dp2054
g2
Nsg17
S'leave'
p2055
sg19
S'c9'
p2056
sg21
Vleave 
p2057
sg5
L602686L
sg6
Nsg23
S'leave'
p2058
sg25
S'0x9323eL'
p2059
sg27
Nsba(ibclass
BInstr
p2060
(dp2061
g2
Nsg17
S'retn'
p2062
sg19
S'c3'
p2063
sg21
Vret 
p2064
sg5
L602687L
sg6
Nsg23
S'retn'
p2065
sg25
S'0x9323fL'
p2066
sg27
Nsbasg98
(lp2067
S'mov reg, mem'
p2068
ag2055
ag2062
asg111
Nsg5
S'0x9323aL'
p2069
sg113
(lp2070
S'0x93065L'
p2071
aS'0x9308dL'
p2072
aS'0x931b7L'
p2073
aS'0x931dcL'
p2074
aS'0x93217L'
p2075
asg6
Nsg115
(lp2076
sg119
Nsg120
Nsg121
S'e1e4fc48a1de649b5336784cb2946f45'
p2077
sg123
S'62ec29a89b66f605a858615f2bd1e655'
p2078
sg125
(lp2079
g2051
ag2058
ag2065
asg127
Nsbasb.