(ibclass
BFunc
p0
(dp1
S'hash'
p2
NsS'name'
p3
S'xmlStopParser__internal_alias'
p4
sS'start_address'
p5
L375876L
sS'flag'
p6
NsS'program'
p7
NsS'bbs'
p8
(lp9
(ibclass
BBasicBlock
p10
(dp11
S'function'
p12
NsS'binstrs'
p13
(lp14
(ibclass
BInstr
p15
(dp16
g2
NsS'disasm'
p17
S"push    rbp             ; Alternative name is 'xmlStopParser'"
p18
sS'bytes'
p19
S'55'
p20
sS'disasm_striped'
p21
Vpush rbp
p22
sg5
L375876L
sg6
NsS'mnem'
p23
S'push'
p24
sS'address'
p25
S'0x5bc44L'
p26
sS'basicblock'
p27
Nsba(ibclass
BInstr
p28
(dp29
g2
Nsg17
S'mov     rbp, rsp'
p30
sg19
S'4889e5'
p31
sg21
Vmov rbp, rsp
p32
sg5
L375877L
sg6
Nsg23
S'mov'
p33
sg25
S'0x5bc45L'
p34
sg27
Nsba(ibclass
BInstr
p35
(dp36
g2
Nsg17
S'mov     [rbp+ctxt], rdi'
p37
sg19
S'48897df8'
p38
sg21
Vmov qword ptr [rbp - 8], rdi
p39
sg5
L375880L
sg6
Nsg23
S'mov'
p40
sg25
S'0x5bc48L'
p41
sg27
Nsba(ibclass
BInstr
p42
(dp43
g2
Nsg17
S'cmp     [rbp+ctxt], 0'
p44
sg19
S'48837df800'
p45
sg21
Vcmp qword ptr [rbp - 8], 0
p46
sg5
L375884L
sg6
Nsg23
S'cmp'
p47
sg25
S'0x5bc4cL'
p48
sg27
Nsba(ibclass
BInstr
p49
(dp50
g2
Nsg17
S'jz      short loc_5BCA9'
p51
sg19
S'7456'
p52
sg21
Vje 0x58
p53
sg5
L375889L
sg6
Nsg23
S'jz'
p54
sg25
S'0x5bc51L'
p55
sg27
NsbasS'disasm_list'
p56
(lp57
S'push reg'
p58
aS'mov reg, reg'
p59
aS'mov mem, reg'
p60
aS'cmp mem, 0'
p61
aS'jz func'
p62
asS'end_address'
p63
Nsg5
S'0x5bc44L'
p64
sS'preds'
p65
(lp66
sg6
NsS'succs'
p67
(lp68
S'0x5bc53L'
p69
aS'0x5bca9L'
p70
asS'hash_v3'
p71
NsS'flag_v2'
p72
NsS'hash_v1'
p73
S'c17686956e00fbe0bd51bfb1eadb1f19'
p74
sS'hash_v2'
p75
S'a035678670fdece61bbafc07f7d92427'
p76
sS'mnen_list'
p77
(lp78
g24
ag33
ag40
ag47
ag54
asS'neighbour_disasm_list'
p79
Nsba(ibclass
BBasicBlock
p80
(dp81
g12
Nsg13
(lp82
(ibclass
BInstr
p83
(dp84
g2
Nsg17
S'mov     rax, [rbp+ctxt]'
p85
sg19
S'488b45f8'
p86
sg21
Vmov rax, qword ptr [rbp - 8]
p87
sg5
L375891L
sg6
Nsg23
S'mov'
p88
sg25
S'0x5bc53L'
p89
sg27
Nsba(ibclass
BInstr
p90
(dp91
g2
Nsg17
S'mov     dword ptr [rax+110h], 0FFFFFFFFh'
p92
sg19
S'c78010010000ffffffff'
p93
sg21
Vmov dword ptr [rax + 0x110], 0xffffffff
p94
sg5
L375895L
sg6
Nsg23
S'mov'
p95
sg25
S'0x5bc57L'
p96
sg27
Nsba(ibclass
BInstr
p97
(dp98
g2
Nsg17
S'mov     rax, [rbp+ctxt]'
p99
sg19
S'488b45f8'
p100
sg21
Vmov rax, qword ptr [rbp - 8]
p101
sg5
L375905L
sg6
Nsg23
S'mov'
p102
sg25
S'0x5bc61L'
p103
sg27
Nsba(ibclass
BInstr
p104
(dp105
g2
Nsg17
S'mov     dword ptr [rax+14Ch], 1'
p106
sg19
S'c7804c01000001000000'
p107
sg21
Vmov dword ptr [rax + 0x14c], 1
p108
sg5
L375909L
sg6
Nsg23
S'mov'
p109
sg25
S'0x5bc65L'
p110
sg27
Nsba(ibclass
BInstr
p111
(dp112
g2
Nsg17
S'mov     rax, [rbp+ctxt]'
p113
sg19
S'488b45f8'
p114
sg21
Vmov rax, qword ptr [rbp - 8]
p115
sg5
L375919L
sg6
Nsg23
S'mov'
p116
sg25
S'0x5bc6fL'
p117
sg27
Nsba(ibclass
BInstr
p118
(dp119
g2
Nsg17
S'mov     rax, [rax+38h]'
p120
sg19
S'488b4038'
p121
sg21
Vmov rax, qword ptr [rax + 0x38]
p122
sg5
L375923L
sg6
Nsg23
S'mov'
p123
sg25
S'0x5bc73L'
p124
sg27
Nsba(ibclass
BInstr
p125
(dp126
g2
Nsg17
S'test    rax, rax'
p127
sg19
S'4885c0'
p128
sg21
Vtest rax, rax
p129
sg5
L375927L
sg6
Nsg23
S'test'
p130
sg25
S'0x5bc77L'
p131
sg27
Nsba(ibclass
BInstr
p132
(dp133
g2
Nsg17
S'jz      short loc_5BCAA'
p134
sg19
S'742e'
p135
sg21
Vje 0x30
p136
sg5
L375930L
sg6
Nsg23
S'jz'
p137
sg25
S'0x5bc7aL'
p138
sg27
Nsbasg56
(lp139
S'mov reg, mem'
p140
aS'mov mem, 0FFFFFFFFh'
p141
aS'mov reg, mem'
p142
aS'mov mem, 1'
p143
aS'mov reg, mem'
p144
aS'mov reg, mem'
p145
aS'test reg, reg'
p146
aS'jz func'
p147
asg63
Nsg5
S'0x5bc53L'
p148
sg65
(lp149
S'0x5bc44L'
p150
asg6
Nsg67
(lp151
S'0x5bc7cL'
p152
aS'0x5bcaaL'
p153
asg71
Nsg72
Nsg73
S'468cf80b921c7de2a98f3120b8f22e1d'
p154
sg75
S'e1d5810a9e5ec03af2819cac88d4fb58'
p155
sg77
(lp156
g88
ag95
ag102
ag109
ag116
ag123
ag130
ag137
asg79
Nsba(ibclass
BBasicBlock
p157
(dp158
g12
Nsg13
(lp159
(ibclass
BInstr
p160
(dp161
g2
Nsg17
S'mov     rax, [rbp+ctxt]'
p162
sg19
S'488b45f8'
p163
sg21
Vmov rax, qword ptr [rbp - 8]
p164
sg5
L375932L
sg6
Nsg23
S'mov'
p165
sg25
S'0x5bc7cL'
p166
sg27
Nsba(ibclass
BInstr
p167
(dp168
g2
Nsg17
S'mov     rax, [rax+38h]'
p169
sg19
S'488b4038'
p170
sg21
Vmov rax, qword ptr [rax + 0x38]
p171
sg5
L375936L
sg6
Nsg23
S'mov'
p172
sg25
S'0x5bc80L'
p173
sg27
Nsba(ibclass
BInstr
p174
(dp175
g2
Nsg17
S'lea     rdx, buf'
p176
sg19
S'488d1502c51100'
p177
sg21
Vlea rdx, [rip + 0x11c502]
p178
sg5
L375940L
sg6
Nsg23
S'lea'
p179
sg25
S'0x5bc84L'
p180
sg27
Nsba(ibclass
BInstr
p181
(dp182
g2
Nsg17
S'mov     [rax+20h], rdx'
p183
sg19
S'48895020'
p184
sg21
Vmov qword ptr [rax + 0x20], rdx
p185
sg5
L375947L
sg6
Nsg23
S'mov'
p186
sg25
S'0x5bc8bL'
p187
sg27
Nsba(ibclass
BInstr
p188
(dp189
g2
Nsg17
S'mov     rax, [rbp+ctxt]'
p190
sg19
S'488b45f8'
p191
sg21
Vmov rax, qword ptr [rbp - 8]
p192
sg5
L375951L
sg6
Nsg23
S'mov'
p193
sg25
S'0x5bc8fL'
p194
sg27
Nsba(ibclass
BInstr
p195
(dp196
g2
Nsg17
S'mov     rax, [rax+38h]'
p197
sg19
S'488b4038'
p198
sg21
Vmov rax, qword ptr [rax + 0x38]
p199
sg5
L375955L
sg6
Nsg23
S'mov'
p200
sg25
S'0x5bc93L'
p201
sg27
Nsba(ibclass
BInstr
p202
(dp203
g2
Nsg17
S'mov     rdx, [rbp+ctxt]'
p204
sg19
S'488b55f8'
p205
sg21
Vmov rdx, qword ptr [rbp - 8]
p206
sg5
L375959L
sg6
Nsg23
S'mov'
p207
sg25
S'0x5bc97L'
p208
sg27
Nsba(ibclass
BInstr
p209
(dp210
g2
Nsg17
S'mov     rdx, [rdx+38h]'
p211
sg19
S'488b5238'
p212
sg21
Vmov rdx, qword ptr [rdx + 0x38]
p213
sg5
L375963L
sg6
Nsg23
S'mov'
p214
sg25
S'0x5bc9bL'
p215
sg27
Nsba(ibclass
BInstr
p216
(dp217
g2
Nsg17
S'mov     rdx, [rdx+20h]'
p218
sg19
S'488b5220'
p219
sg21
Vmov rdx, qword ptr [rdx + 0x20]
p220
sg5
L375967L
sg6
Nsg23
S'mov'
p221
sg25
S'0x5bc9fL'
p222
sg27
Nsba(ibclass
BInstr
p223
(dp224
g2
Nsg17
S'mov     [rax+18h], rdx'
p225
sg19
S'48895018'
p226
sg21
Vmov qword ptr [rax + 0x18], rdx
p227
sg5
L375971L
sg6
Nsg23
S'mov'
p228
sg25
S'0x5bca3L'
p229
sg27
Nsba(ibclass
BInstr
p230
(dp231
g2
Nsg17
S'jmp     short loc_5BCAA'
p232
sg19
S'eb01'
p233
sg21
Vjmp 3
p234
sg5
L375975L
sg6
Nsg23
S'jmp'
p235
sg25
S'0x5bca7L'
p236
sg27
Nsbasg56
(lp237
S'mov reg, mem'
p238
aS'mov reg, mem'
p239
aS'lea reg, buf'
p240
aS'mov mem, reg'
p241
aS'mov reg, mem'
p242
aS'mov reg, mem'
p243
aS'mov reg, mem'
p244
aS'mov reg, mem'
p245
aS'mov reg, mem'
p246
aS'mov mem, reg'
p247
aS'jmp func'
p248
asg63
Nsg5
S'0x5bc7cL'
p249
sg65
(lp250
S'0x5bc53L'
p251
asg6
Nsg67
(lp252
S'0x5bcaaL'
p253
asg71
Nsg72
Nsg73
S'ad0fdc83a8861be550c9bfa8a589216e'
p254
sg75
S'f07ade677a0590dddf3c30a8a10cec3b'
p255
sg77
(lp256
g165
ag172
ag179
ag186
ag193
ag200
ag207
ag214
ag221
ag228
ag235
asg79
Nsba(ibclass
BBasicBlock
p257
(dp258
g12
Nsg13
(lp259
(ibclass
BInstr
p260
(dp261
g2
Nsg17
S'nop'
p262
sg19
S'90'
p263
sg21
Vnop 
p264
sg5
L375977L
sg6
Nsg23
S'nop'
p265
sg25
S'0x5bca9L'
p266
sg27
Nsbasg56
(lp267
g262
asg63
Nsg5
S'0x5bca9L'
p268
sg65
(lp269
S'0x5bc44L'
p270
asg6
Nsg67
(lp271
S'0x5bcaaL'
p272
asg71
Nsg72
Nsg73
S'a571d969c8661fb0342afd08e571dfa0'
p273
sg75
S'a571d969c8661fb0342afd08e571dfa0'
p274
sg77
(lp275
g265
asg79
Nsba(ibclass
BBasicBlock
p276
(dp277
g12
Nsg13
(lp278
(ibclass
BInstr
p279
(dp280
g2
Nsg17
S'pop     rbp'
p281
sg19
S'5d'
p282
sg21
Vpop rbp
p283
sg5
L375978L
sg6
Nsg23
S'pop'
p284
sg25
S'0x5bcaaL'
p285
sg27
Nsba(ibclass
BInstr
p286
(dp287
g2
Nsg17
S'retn'
p288
sg19
S'c3'
p289
sg21
Vret 
p290
sg5
L375979L
sg6
Nsg23
S'retn'
p291
sg25
S'0x5bcabL'
p292
sg27
Nsbasg56
(lp293
S'pop reg'
p294
ag288
asg63
Nsg5
S'0x5bcaaL'
p295
sg65
(lp296
S'0x5bc53L'
p297
aS'0x5bc7cL'
p298
aS'0x5bca9L'
p299
asg6
Nsg67
(lp300
sg71
Nsg72
Nsg73
S'959e63ef7de005c3fd9b9535d382f6e9'
p301
sg75
S'df18ccc3a463eb745e1dbccf1a3cede3'
p302
sg77
(lp303
g284
ag291
asg79
Nsbasb.