(ibclass
BFunc
p0
(dp1
S'hash'
p2
NsS'name'
p3
S'xmlXPtrNewContext__internal_alias'
p4
sS'start_address'
p5
L818828L
sS'flag'
p6
NsS'program'
p7
NsS'bbs'
p8
(lp9
(ibclass
BBasicBlock
p10
(dp11
S'function'
p12
NsS'binstrs'
p13
(lp14
(ibclass
BInstr
p15
(dp16
g2
NsS'disasm'
p17
S"push    rbp             ; Alternative name is 'xmlXPtrNewContext'"
p18
sS'bytes'
p19
S'55'
p20
sS'disasm_striped'
p21
Vpush rbp
p22
sg5
L818828L
sg6
NsS'mnem'
p23
S'push'
p24
sS'address'
p25
S'0xc7e8cL'
p26
sS'basicblock'
p27
Nsba(ibclass
BInstr
p28
(dp29
g2
Nsg17
S'mov     rbp, rsp'
p30
sg19
S'4889e5'
p31
sg21
Vmov rbp, rsp
p32
sg5
L818829L
sg6
Nsg23
S'mov'
p33
sg25
S'0xc7e8dL'
p34
sg27
Nsba(ibclass
BInstr
p35
(dp36
g2
Nsg17
S'sub     rsp, 30h'
p37
sg19
S'4883ec30'
p38
sg21
Vsub rsp, 0x30
p39
sg5
L818832L
sg6
Nsg23
S'sub'
p40
sg25
S'0xc7e90L'
p41
sg27
Nsba(ibclass
BInstr
p42
(dp43
g2
Nsg17
S'mov     [rbp+doc], rdi'
p44
sg19
S'48897de8'
p45
sg21
Vmov qword ptr [rbp - 0x18], rdi
p46
sg5
L818836L
sg6
Nsg23
S'mov'
p47
sg25
S'0xc7e94L'
p48
sg27
Nsba(ibclass
BInstr
p49
(dp50
g2
Nsg17
S'mov     [rbp+here], rsi'
p51
sg19
S'488975e0'
p52
sg21
Vmov qword ptr [rbp - 0x20], rsi
p53
sg5
L818840L
sg6
Nsg23
S'mov'
p54
sg25
S'0xc7e98L'
p55
sg27
Nsba(ibclass
BInstr
p56
(dp57
g2
Nsg17
S'mov     [rbp+origin], rdx'
p58
sg19
S'488955d8'
p59
sg21
Vmov qword ptr [rbp - 0x28], rdx
p60
sg5
L818844L
sg6
Nsg23
S'mov'
p61
sg25
S'0xc7e9cL'
p62
sg27
Nsba(ibclass
BInstr
p63
(dp64
g2
Nsg17
S'mov     rax, [rbp+doc]'
p65
sg19
S'488b45e8'
p66
sg21
Vmov rax, qword ptr [rbp - 0x18]
p67
sg5
L818848L
sg6
Nsg23
S'mov'
p68
sg25
S'0xc7ea0L'
p69
sg27
Nsba(ibclass
BInstr
p70
(dp71
g2
Nsg17
S'mov     rdi, rax        ; doc'
p72
sg19
S'4889c7'
p73
sg21
Vmov rdi, rax
p74
sg5
L818852L
sg6
Nsg23
S'mov'
p75
sg25
S'0xc7ea4L'
p76
sg27
Nsba(ibclass
BInstr
p77
(dp78
g2
Nsg17
S'call    xmlXPathNewContext__internal_alias'
p79
sg19
S'e89287feff'
p80
sg21
Vcall 0xfffffffffffe8797
p81
sg5
L818855L
sg6
Nsg23
S'call'
p82
sg25
S'0xc7ea7L'
p83
sg27
Nsba(ibclass
BInstr
p84
(dp85
g2
Nsg17
S'mov     [rbp+ret], rax'
p86
sg19
S'488945f8'
p87
sg21
Vmov qword ptr [rbp - 8], rax
p88
sg5
L818860L
sg6
Nsg23
S'mov'
p89
sg25
S'0xc7eacL'
p90
sg27
Nsba(ibclass
BInstr
p91
(dp92
g2
Nsg17
S'cmp     [rbp+ret], 0'
p93
sg19
S'48837df800'
p94
sg21
Vcmp qword ptr [rbp - 8], 0
p95
sg5
L818864L
sg6
Nsg23
S'cmp'
p96
sg25
S'0xc7eb0L'
p97
sg27
Nsba(ibclass
BInstr
p98
(dp99
g2
Nsg17
S'jnz     short loc_C7EC0'
p100
sg19
S'7509'
p101
sg21
Vjne 0xb
p102
sg5
L818869L
sg6
Nsg23
S'jnz'
p103
sg25
S'0xc7eb5L'
p104
sg27
NsbasS'disasm_list'
p105
(lp106
S'push reg'
p107
aS'mov reg, reg'
p108
aS'sub reg, 30h'
p109
aS'mov mem, reg'
p110
aS'mov mem, reg'
p111
aS'mov mem, reg'
p112
aS'mov reg, mem'
p113
aS'mov reg, reg'
p114
aS'cregl xmlXPathNewContext__internreg_regias'
p115
aS'mov mem, reg'
p116
aS'cmp mem, 0'
p117
aS'jnz func'
p118
asS'end_address'
p119
Nsg5
S'0xc7e8cL'
p120
sS'preds'
p121
(lp122
sg6
NsS'succs'
p123
(lp124
S'0xc7eb7L'
p125
aS'0xc7ec0L'
p126
asS'hash_v3'
p127
NsS'flag_v2'
p128
NsS'hash_v1'
p129
S'a896147a763128c59213506c25d16b4b'
p130
sS'hash_v2'
p131
S'2d5d2d4f3f449fcf58de36f30ef699d5'
p132
sS'mnen_list'
p133
(lp134
g24
ag33
ag40
ag47
ag54
ag61
ag68
ag75
ag82
ag89
ag96
ag103
asS'neighbour_disasm_list'
p135
Nsba(ibclass
BBasicBlock
p136
(dp137
g12
Nsg13
(lp138
(ibclass
BInstr
p139
(dp140
g2
Nsg17
S'mov     rax, [rbp+ret]'
p141
sg19
S'488b45f8'
p142
sg21
Vmov rax, qword ptr [rbp - 8]
p143
sg5
L818871L
sg6
Nsg23
S'mov'
p144
sg25
S'0xc7eb7L'
p145
sg27
Nsba(ibclass
BInstr
p146
(dp147
g2
Nsg17
S'jmp     locret_C7FBA'
p148
sg19
S'e9fa000000'
p149
sg21
Vjmp 0xff
p150
sg5
L818875L
sg6
Nsg23
S'jmp'
p151
sg25
S'0xc7ebbL'
p152
sg27
Nsbasg105
(lp153
S'mov reg, mem'
p154
aS'jmp func'
p155
asg119
Nsg5
S'0xc7eb7L'
p156
sg121
(lp157
S'0xc7e8cL'
p158
asg6
Nsg123
(lp159
S'0xc7fbaL'
p160
asg127
Nsg128
Nsg129
S'8b9a0d40e062be2b9b2d9885108fb196'
p161
sg131
S'fb93e62bb77eb0a3c977d8bf344bb0b7'
p162
sg133
(lp163
g144
ag151
asg135
Nsba(ibclass
BBasicBlock
p164
(dp165
g12
Nsg13
(lp166
(ibclass
BInstr
p167
(dp168
g2
Nsg17
S'mov     rax, [rbp+ret]'
p169
sg19
S'488b45f8'
p170
sg21
Vmov rax, qword ptr [rbp - 8]
p171
sg5
L818880L
sg6
Nsg23
S'mov'
p172
sg25
S'0xc7ec0L'
p173
sg27
Nsba(ibclass
BInstr
p174
(dp175
g2
Nsg17
S'mov     dword ptr [rax+70h], 1'
p176
sg19
S'c7407001000000'
p177
sg21
Vmov dword ptr [rax + 0x70], 1
p178
sg5
L818884L
sg6
Nsg23
S'mov'
p179
sg25
S'0xc7ec4L'
p180
sg27
Nsba(ibclass
BInstr
p181
(dp182
g2
Nsg17
S'mov     rax, [rbp+ret]'
p183
sg19
S'488b45f8'
p184
sg21
Vmov rax, qword ptr [rbp - 8]
p185
sg5
L818891L
sg6
Nsg23
S'mov'
p186
sg25
S'0xc7ecbL'
p187
sg27
Nsba(ibclass
BInstr
p188
(dp189
g2
Nsg17
S'mov     rdx, [rbp+here]'
p190
sg19
S'488b55e0'
p191
sg21
Vmov rdx, qword ptr [rbp - 0x20]
p192
sg5
L818895L
sg6
Nsg23
S'mov'
p193
sg25
S'0xc7ecfL'
p194
sg27
Nsba(ibclass
BInstr
p195
(dp196
g2
Nsg17
S'mov     [rax+78h], rdx'
p197
sg19
S'48895078'
p198
sg21
Vmov qword ptr [rax + 0x78], rdx
p199
sg5
L818899L
sg6
Nsg23
S'mov'
p200
sg25
S'0xc7ed3L'
p201
sg27
Nsba(ibclass
BInstr
p202
(dp203
g2
Nsg17
S'mov     rax, [rbp+ret]'
p204
sg19
S'488b45f8'
p205
sg21
Vmov rax, qword ptr [rbp - 8]
p206
sg5
L818903L
sg6
Nsg23
S'mov'
p207
sg25
S'0xc7ed7L'
p208
sg27
Nsba(ibclass
BInstr
p209
(dp210
g2
Nsg17
S'mov     rdx, [rbp+origin]'
p211
sg19
S'488b55d8'
p212
sg21
Vmov rdx, qword ptr [rbp - 0x28]
p213
sg5
L818907L
sg6
Nsg23
S'mov'
p214
sg25
S'0xc7edbL'
p215
sg27
Nsba(ibclass
BInstr
p216
(dp217
g2
Nsg17
S'mov     [rax+80h], rdx'
p218
sg19
S'48899080000000'
p219
sg21
Vmov qword ptr [rax + 0x80], rdx
p220
sg5
L818911L
sg6
Nsg23
S'mov'
p221
sg25
S'0xc7edfL'
p222
sg27
Nsba(ibclass
BInstr
p223
(dp224
g2
Nsg17
S'mov     rax, [rbp+ret]'
p225
sg19
S'488b45f8'
p226
sg21
Vmov rax, qword ptr [rbp - 8]
p227
sg5
L818918L
sg6
Nsg23
S'mov'
p228
sg25
S'0xc7ee6L'
p229
sg27
Nsba(ibclass
BInstr
p230
(dp231
g2
Nsg17
S'lea     rdx, xmlXPtrRangeToFunction__internal_alias; f'
p232
sg19
S'488d1560170000'
p233
sg21
Vlea rdx, [rip + 0x1760]
p234
sg5
L818922L
sg6
Nsg23
S'lea'
p235
sg25
S'0xc7eeaL'
p236
sg27
Nsba(ibclass
BInstr
p237
(dp238
g2
Nsg17
S'lea     rsi, aRangeTo_0 ; "range-to"'
p239
sg19
S'488d359ccc0b00'
p240
sg21
Vlea rsi, [rip + 0xbcc9c]
p241
sg5
L818929L
sg6
Nsg23
S'lea'
p242
sg25
S'0xc7ef1L'
p243
sg27
Nsba(ibclass
BInstr
p244
(dp245
g2
Nsg17
S'mov     rdi, rax        ; ctxt'
p246
sg19
S'4889c7'
p247
sg21
Vmov rdi, rax
p248
sg5
L818936L
sg6
Nsg23
S'mov'
p249
sg25
S'0xc7ef8L'
p250
sg27
Nsba(ibclass
BInstr
p251
(dp252
g2
Nsg17
S'call    xmlXPathRegisterFunc__internal_alias'
p253
sg19
S'e8866cfeff'
p254
sg21
Vcall 0xfffffffffffe6c8b
p255
sg5
L818939L
sg6
Nsg23
S'call'
p256
sg25
S'0xc7efbL'
p257
sg27
Nsba(ibclass
BInstr
p258
(dp259
g2
Nsg17
S'mov     rax, [rbp+ret]'
p260
sg19
S'488b45f8'
p261
sg21
Vmov rax, qword ptr [rbp - 8]
p262
sg5
L818944L
sg6
Nsg23
S'mov'
p263
sg25
S'0xc7f00L'
p264
sg27
Nsba(ibclass
BInstr
p265
(dp266
g2
Nsg17
S'lea     rdx, xmlXPtrRangeFunction; f'
p267
sg19
S'488d153d120000'
p268
sg21
Vlea rdx, [rip + 0x123d]
p269
sg5
L818948L
sg6
Nsg23
S'lea'
p270
sg25
S'0xc7f04L'
p271
sg27
Nsba(ibclass
BInstr
p272
(dp273
g2
Nsg17
S'lea     rsi, aRange     ; "range"'
p274
sg19
S'488d358bcc0b00'
p275
sg21
Vlea rsi, [rip + 0xbcc8b]
p276
sg5
L818955L
sg6
Nsg23
S'lea'
p277
sg25
S'0xc7f0bL'
p278
sg27
Nsba(ibclass
BInstr
p279
(dp280
g2
Nsg17
S'mov     rdi, rax        ; ctxt'
p281
sg19
S'4889c7'
p282
sg21
Vmov rdi, rax
p283
sg5
L818962L
sg6
Nsg23
S'mov'
p284
sg25
S'0xc7f12L'
p285
sg27
Nsba(ibclass
BInstr
p286
(dp287
g2
Nsg17
S'call    xmlXPathRegisterFunc__internal_alias'
p288
sg19
S'e86c6cfeff'
p289
sg21
Vcall 0xfffffffffffe6c71
p290
sg5
L818965L
sg6
Nsg23
S'call'
p291
sg25
S'0xc7f15L'
p292
sg27
Nsba(ibclass
BInstr
p293
(dp294
g2
Nsg17
S'mov     rax, [rbp+ret]'
p295
sg19
S'488b45f8'
p296
sg21
Vmov rax, qword ptr [rbp - 8]
p297
sg5
L818970L
sg6
Nsg23
S'mov'
p298
sg25
S'0xc7f1aL'
p299
sg27
Nsba(ibclass
BInstr
p300
(dp301
g2
Nsg17
S'lea     rdx, xmlXPtrRangeInsideFunction; f'
p302
sg19
S'488d15d8150000'
p303
sg21
Vlea rdx, [rip + 0x15d8]
p304
sg5
L818974L
sg6
Nsg23
S'lea'
p305
sg25
S'0xc7f1eL'
p306
sg27
Nsba(ibclass
BInstr
p307
(dp308
g2
Nsg17
S'lea     rsi, aRangeInside; "range-inside"'
p309
sg19
S'488d3577cc0b00'
p310
sg21
Vlea rsi, [rip + 0xbcc77]
p311
sg5
L818981L
sg6
Nsg23
S'lea'
p312
sg25
S'0xc7f25L'
p313
sg27
Nsba(ibclass
BInstr
p314
(dp315
g2
Nsg17
S'mov     rdi, rax        ; ctxt'
p316
sg19
S'4889c7'
p317
sg21
Vmov rdi, rax
p318
sg5
L818988L
sg6
Nsg23
S'mov'
p319
sg25
S'0xc7f2cL'
p320
sg27
Nsba(ibclass
BInstr
p321
(dp322
g2
Nsg17
S'call    xmlXPathRegisterFunc__internal_alias'
p323
sg19
S'e8526cfeff'
p324
sg21
Vcall 0xfffffffffffe6c57
p325
sg5
L818991L
sg6
Nsg23
S'call'
p326
sg25
S'0xc7f2fL'
p327
sg27
Nsba(ibclass
BInstr
p328
(dp329
g2
Nsg17
S'mov     rax, [rbp+ret]'
p330
sg19
S'488b45f8'
p331
sg21
Vmov rax, qword ptr [rbp - 8]
p332
sg5
L818996L
sg6
Nsg23
S'mov'
p333
sg25
S'0xc7f34L'
p334
sg27
Nsba(ibclass
BInstr
p335
(dp336
g2
Nsg17
S'lea     rdx, xmlXPtrStringRangeFunction; f'
p337
sg19
S'488d153b230000'
p338
sg21
Vlea rdx, [rip + 0x233b]
p339
sg5
L819000L
sg6
Nsg23
S'lea'
p340
sg25
S'0xc7f38L'
p341
sg27
Nsba(ibclass
BInstr
p342
(dp343
g2
Nsg17
S'lea     rsi, aStringRange; "string-range"'
p344
sg19
S'488d356acc0b00'
p345
sg21
Vlea rsi, [rip + 0xbcc6a]
p346
sg5
L819007L
sg6
Nsg23
S'lea'
p347
sg25
S'0xc7f3fL'
p348
sg27
Nsba(ibclass
BInstr
p349
(dp350
g2
Nsg17
S'mov     rdi, rax        ; ctxt'
p351
sg19
S'4889c7'
p352
sg21
Vmov rdi, rax
p353
sg5
L819014L
sg6
Nsg23
S'mov'
p354
sg25
S'0xc7f46L'
p355
sg27
Nsba(ibclass
BInstr
p356
(dp357
g2
Nsg17
S'call    xmlXPathRegisterFunc__internal_alias'
p358
sg19
S'e8386cfeff'
p359
sg21
Vcall 0xfffffffffffe6c3d
p360
sg5
L819017L
sg6
Nsg23
S'call'
p361
sg25
S'0xc7f49L'
p362
sg27
Nsba(ibclass
BInstr
p363
(dp364
g2
Nsg17
S'mov     rax, [rbp+ret]'
p365
sg19
S'488b45f8'
p366
sg21
Vmov rax, qword ptr [rbp - 8]
p367
sg5
L819022L
sg6
Nsg23
S'mov'
p368
sg25
S'0xc7f4eL'
p369
sg27
Nsba(ibclass
BInstr
p370
(dp371
g2
Nsg17
S'lea     rdx, xmlXPtrStartPointFunction; f'
p372
sg19
S'488d15710b0000'
p373
sg21
Vlea rdx, [rip + 0xb71]
p374
sg5
L819026L
sg6
Nsg23
S'lea'
p375
sg25
S'0xc7f52L'
p376
sg27
Nsba(ibclass
BInstr
p377
(dp378
g2
Nsg17
S'lea     rsi, aStartPoint; "start-point"'
p379
sg19
S'488d355dcc0b00'
p380
sg21
Vlea rsi, [rip + 0xbcc5d]
p381
sg5
L819033L
sg6
Nsg23
S'lea'
p382
sg25
S'0xc7f59L'
p383
sg27
Nsba(ibclass
BInstr
p384
(dp385
g2
Nsg17
S'mov     rdi, rax        ; ctxt'
p386
sg19
S'4889c7'
p387
sg21
Vmov rdi, rax
p388
sg5
L819040L
sg6
Nsg23
S'mov'
p389
sg25
S'0xc7f60L'
p390
sg27
Nsba(ibclass
BInstr
p391
(dp392
g2
Nsg17
S'call    xmlXPathRegisterFunc__internal_alias'
p393
sg19
S'e81e6cfeff'
p394
sg21
Vcall 0xfffffffffffe6c23
p395
sg5
L819043L
sg6
Nsg23
S'call'
p396
sg25
S'0xc7f63L'
p397
sg27
Nsba(ibclass
BInstr
p398
(dp399
g2
Nsg17
S'mov     rax, [rbp+ret]'
p400
sg19
S'488b45f8'
p401
sg21
Vmov rax, qword ptr [rbp - 8]
p402
sg5
L819048L
sg6
Nsg23
S'mov'
p403
sg25
S'0xc7f68L'
p404
sg27
Nsba(ibclass
BInstr
p405
(dp406
g2
Nsg17
S'lea     rdx, xmlXPtrEndPointFunction; f'
p407
sg19
S'488d15a10d0000'
p408
sg21
Vlea rdx, [rip + 0xda1]
p409
sg5
L819052L
sg6
Nsg23
S'lea'
p410
sg25
S'0xc7f6cL'
p411
sg27
Nsba(ibclass
BInstr
p412
(dp413
g2
Nsg17
S'lea     rsi, aEndPoint  ; "end-point"'
p414
sg19
S'488d354fcc0b00'
p415
sg21
Vlea rsi, [rip + 0xbcc4f]
p416
sg5
L819059L
sg6
Nsg23
S'lea'
p417
sg25
S'0xc7f73L'
p418
sg27
Nsba(ibclass
BInstr
p419
(dp420
g2
Nsg17
S'mov     rdi, rax        ; ctxt'
p421
sg19
S'4889c7'
p422
sg21
Vmov rdi, rax
p423
sg5
L819066L
sg6
Nsg23
S'mov'
p424
sg25
S'0xc7f7aL'
p425
sg27
Nsba(ibclass
BInstr
p426
(dp427
g2
Nsg17
S'call    xmlXPathRegisterFunc__internal_alias'
p428
sg19
S'e8046cfeff'
p429
sg21
Vcall 0xfffffffffffe6c09
p430
sg5
L819069L
sg6
Nsg23
S'call'
p431
sg25
S'0xc7f7dL'
p432
sg27
Nsba(ibclass
BInstr
p433
(dp434
g2
Nsg17
S'mov     rax, [rbp+ret]'
p435
sg19
S'488b45f8'
p436
sg21
Vmov rax, qword ptr [rbp - 8]
p437
sg5
L819074L
sg6
Nsg23
S'mov'
p438
sg25
S'0xc7f82L'
p439
sg27
Nsba(ibclass
BInstr
p440
(dp441
g2
Nsg17
S'lea     rdx, xmlXPtrHereFunction; f'
p442
sg19
S'488d15310a0000'
p443
sg21
Vlea rdx, [rip + 0xa31]
p444
sg5
L819078L
sg6
Nsg23
S'lea'
p445
sg25
S'0xc7f86L'
p446
sg27
Nsba(ibclass
BInstr
p447
(dp448
g2
Nsg17
S'lea     rsi, aHere      ; "here"'
p449
sg19
S'488d353fcc0b00'
p450
sg21
Vlea rsi, [rip + 0xbcc3f]
p451
sg5
L819085L
sg6
Nsg23
S'lea'
p452
sg25
S'0xc7f8dL'
p453
sg27
Nsba(ibclass
BInstr
p454
(dp455
g2
Nsg17
S'mov     rdi, rax        ; ctxt'
p456
sg19
S'4889c7'
p457
sg21
Vmov rdi, rax
p458
sg5
L819092L
sg6
Nsg23
S'mov'
p459
sg25
S'0xc7f94L'
p460
sg27
Nsba(ibclass
BInstr
p461
(dp462
g2
Nsg17
S'call    xmlXPathRegisterFunc__internal_alias'
p463
sg19
S'e8ea6bfeff'
p464
sg21
Vcall 0xfffffffffffe6bef
p465
sg5
L819095L
sg6
Nsg23
S'call'
p466
sg25
S'0xc7f97L'
p467
sg27
Nsba(ibclass
BInstr
p468
(dp469
g2
Nsg17
S'mov     rax, [rbp+ret]'
p470
sg19
S'488b45f8'
p471
sg21
Vmov rax, qword ptr [rbp - 8]
p472
sg5
L819100L
sg6
Nsg23
S'mov'
p473
sg25
S'0xc7f9cL'
p474
sg27
Nsba(ibclass
BInstr
p475
(dp476
g2
Nsg17
S'lea     rdx, xmlXPtrOriginFunction; f'
p477
sg19
S'488d159a0a0000'
p478
sg21
Vlea rdx, [rip + 0xa9a]
p479
sg5
L819104L
sg6
Nsg23
S'lea'
p480
sg25
S'0xc7fa0L'
p481
sg27
Nsba(ibclass
BInstr
p482
(dp483
g2
Nsg17
S'lea     rsi, aOrigin    ; " origin"'
p484
sg19
S'488d352acc0b00'
p485
sg21
Vlea rsi, [rip + 0xbcc2a]
p486
sg5
L819111L
sg6
Nsg23
S'lea'
p487
sg25
S'0xc7fa7L'
p488
sg27
Nsba(ibclass
BInstr
p489
(dp490
g2
Nsg17
S'mov     rdi, rax        ; ctxt'
p491
sg19
S'4889c7'
p492
sg21
Vmov rdi, rax
p493
sg5
L819118L
sg6
Nsg23
S'mov'
p494
sg25
S'0xc7faeL'
p495
sg27
Nsba(ibclass
BInstr
p496
(dp497
g2
Nsg17
S'call    xmlXPathRegisterFunc__internal_alias'
p498
sg19
S'e8d06bfeff'
p499
sg21
Vcall 0xfffffffffffe6bd5
p500
sg5
L819121L
sg6
Nsg23
S'call'
p501
sg25
S'0xc7fb1L'
p502
sg27
Nsba(ibclass
BInstr
p503
(dp504
g2
Nsg17
S'mov     rax, [rbp+ret]'
p505
sg19
S'488b45f8'
p506
sg21
Vmov rax, qword ptr [rbp - 8]
p507
sg5
L819126L
sg6
Nsg23
S'mov'
p508
sg25
S'0xc7fb6L'
p509
sg27
Nsbasg105
(lp510
S'mov reg, mem'
p511
aS'mov mem, 1'
p512
aS'mov reg, mem'
p513
aS'mov reg, mem'
p514
aS'mov mem, reg'
p515
aS'mov reg, mem'
p516
aS'mov reg, mem'
p517
aS'mov mem, reg'
p518
aS'mov reg, mem'
p519
aS'lea reg, xmlXPtrRangeToFunction__internreg_regias'
p520
aS'lea reg, aRangeTo_0'
p521
aS'mov reg, reg'
p522
aS'cregl xmlXPathRegisterFunc__internreg_regias'
p523
aS'mov reg, mem'
p524
aS'lea reg, xmlXPtrRangeFunction'
p525
aS'lea reg, aRange'
p526
aS'mov reg, reg'
p527
aS'cregl xmlXPathRegisterFunc__internreg_regias'
p528
aS'mov reg, mem'
p529
aS'lea reg, xmlXPtrRangeInregdeFunction'
p530
aS'lea reg, aRangeInregde'
p531
aS'mov reg, reg'
p532
aS'cregl xmlXPathRegisterFunc__internreg_regias'
p533
aS'mov reg, mem'
p534
aS'lea reg, xmlXPtrStringRangeFunction'
p535
aS'lea reg, aStringRange'
p536
aS'mov reg, reg'
p537
aS'cregl xmlXPathRegisterFunc__internreg_regias'
p538
aS'mov reg, mem'
p539
aS'lea reg, xmlXPtrStartPointFunction'
p540
aS'lea reg, aStartPoint'
p541
aS'mov reg, reg'
p542
aS'cregl xmlXPathRegisterFunc__internreg_regias'
p543
aS'mov reg, mem'
p544
aS'lea reg, xmlXPtrEndPointFunction'
p545
aS'lea reg, aEndPoint'
p546
aS'mov reg, reg'
p547
aS'cregl xmlXPathRegisterFunc__internreg_regias'
p548
aS'mov reg, mem'
p549
aS'lea reg, xmlXPtrHereFunction'
p550
aS'lea reg, aHere'
p551
aS'mov reg, reg'
p552
aS'cregl xmlXPathRegisterFunc__internreg_regias'
p553
aS'mov reg, mem'
p554
aS'lea reg, xmlXPtrOriginFunction'
p555
aS'lea reg, aOrigin'
p556
aS'mov reg, reg'
p557
aS'cregl xmlXPathRegisterFunc__internreg_regias'
p558
aS'mov reg, mem'
p559
asg119
Nsg5
S'0xc7ec0L'
p560
sg121
(lp561
S'0xc7e8cL'
p562
asg6
Nsg123
(lp563
S'0xc7fbaL'
p564
asg127
Nsg128
Nsg129
S'2a0887fc3d52dd7bb8bd51e693d11fcb'
p565
sg131
S'b747bc7736182f9187192f796baeba2a'
p566
sg133
(lp567
g172
ag179
ag186
ag193
ag200
ag207
ag214
ag221
ag228
ag235
ag242
ag249
ag256
ag263
ag270
ag277
ag284
ag291
ag298
ag305
ag312
ag319
ag326
ag333
ag340
ag347
ag354
ag361
ag368
ag375
ag382
ag389
ag396
ag403
ag410
ag417
ag424
ag431
ag438
ag445
ag452
ag459
ag466
ag473
ag480
ag487
ag494
ag501
ag508
asg135
Nsba(ibclass
BBasicBlock
p568
(dp569
g12
Nsg13
(lp570
(ibclass
BInstr
p571
(dp572
g2
Nsg17
S'leave'
p573
sg19
S'c9'
p574
sg21
Vleave 
p575
sg5
L819130L
sg6
Nsg23
S'leave'
p576
sg25
S'0xc7fbaL'
p577
sg27
Nsba(ibclass
BInstr
p578
(dp579
g2
Nsg17
S'retn'
p580
sg19
S'c3'
p581
sg21
Vret 
p582
sg5
L819131L
sg6
Nsg23
S'retn'
p583
sg25
S'0xc7fbbL'
p584
sg27
Nsbasg105
(lp585
g573
ag580
asg119
Nsg5
S'0xc7fbaL'
p586
sg121
(lp587
S'0xc7eb7L'
p588
aS'0xc7ec0L'
p589
asg6
Nsg123
(lp590
sg127
Nsg128
Nsg129
S'08c78f73a6f87c85da88b2982f54ce2a'
p591
sg131
S'08c78f73a6f87c85da88b2982f54ce2a'
p592
sg133
(lp593
g576
ag583
asg135
Nsbasb.