(ibclass
BFunc
p0
(dp1
S'hash'
p2
NsS'name'
p3
S'xmlGROW'
p4
sS'start_address'
p5
L248599L
sS'flag'
p6
NsS'program'
p7
NsS'bbs'
p8
(lp9
(ibclass
BBasicBlock
p10
(dp11
S'function'
p12
NsS'binstrs'
p13
(lp14
(ibclass
BInstr
p15
(dp16
g2
NsS'disasm'
p17
S'push    rbp'
p18
sS'bytes'
p19
S'55'
p20
sS'disasm_striped'
p21
Vpush rbp
p22
sg5
L248599L
sg6
NsS'mnem'
p23
S'push'
p24
sS'address'
p25
S'0x3cb17L'
p26
sS'basicblock'
p27
Nsba(ibclass
BInstr
p28
(dp29
g2
Nsg17
S'mov     rbp, rsp'
p30
sg19
S'4889e5'
p31
sg21
Vmov rbp, rsp
p32
sg5
L248600L
sg6
Nsg23
S'mov'
p33
sg25
S'0x3cb18L'
p34
sg27
Nsba(ibclass
BInstr
p35
(dp36
g2
Nsg17
S'sub     rsp, 10h'
p37
sg19
S'4883ec10'
p38
sg21
Vsub rsp, 0x10
p39
sg5
L248603L
sg6
Nsg23
S'sub'
p40
sg25
S'0x3cb1bL'
p41
sg27
Nsba(ibclass
BInstr
p42
(dp43
g2
Nsg17
S'mov     [rbp+ctxt], rdi'
p44
sg19
S'48897df8'
p45
sg21
Vmov qword ptr [rbp - 8], rdi
p46
sg5
L248607L
sg6
Nsg23
S'mov'
p47
sg25
S'0x3cb1fL'
p48
sg27
Nsba(ibclass
BInstr
p49
(dp50
g2
Nsg17
S'mov     rax, [rbp+ctxt]'
p51
sg19
S'488b45f8'
p52
sg21
Vmov rax, qword ptr [rbp - 8]
p53
sg5
L248611L
sg6
Nsg23
S'mov'
p54
sg25
S'0x3cb23L'
p55
sg27
Nsba(ibclass
BInstr
p56
(dp57
g2
Nsg17
S'mov     rax, [rax+38h]'
p58
sg19
S'488b4038'
p59
sg21
Vmov rax, qword ptr [rax + 0x38]
p60
sg5
L248615L
sg6
Nsg23
S'mov'
p61
sg25
S'0x3cb27L'
p62
sg27
Nsba(ibclass
BInstr
p63
(dp64
g2
Nsg17
S'mov     esi, 0FAh       ; len'
p65
sg19
S'befa000000'
p66
sg21
Vmov esi, 0xfa
p67
sg5
L248619L
sg6
Nsg23
S'mov'
p68
sg25
S'0x3cb2bL'
p69
sg27
Nsba(ibclass
BInstr
p70
(dp71
g2
Nsg17
S'mov     rdi, rax        ; in'
p72
sg19
S'4889c7'
p73
sg21
Vmov rdi, rax
p74
sg5
L248624L
sg6
Nsg23
S'mov'
p75
sg25
S'0x3cb30L'
p76
sg27
Nsba(ibclass
BInstr
p77
(dp78
g2
Nsg17
S'call    xmlParserInputGrow__internal_alias'
p79
sg19
S'e85c92ffff'
p80
sg21
Vcall 0xffffffffffff9261
p81
sg5
L248627L
sg6
Nsg23
S'call'
p82
sg25
S'0x3cb33L'
p83
sg27
Nsba(ibclass
BInstr
p84
(dp85
g2
Nsg17
S'mov     rax, [rbp+ctxt]'
p86
sg19
S'488b45f8'
p87
sg21
Vmov rax, qword ptr [rbp - 8]
p88
sg5
L248632L
sg6
Nsg23
S'mov'
p89
sg25
S'0x3cb38L'
p90
sg27
Nsba(ibclass
BInstr
p91
(dp92
g2
Nsg17
S'mov     rax, [rax+38h]'
p93
sg19
S'488b4038'
p94
sg21
Vmov rax, qword ptr [rax + 0x38]
p95
sg5
L248636L
sg6
Nsg23
S'mov'
p96
sg25
S'0x3cb3cL'
p97
sg27
Nsba(ibclass
BInstr
p98
(dp99
g2
Nsg17
S'mov     rax, [rax+20h]'
p100
sg19
S'488b4020'
p101
sg21
Vmov rax, qword ptr [rax + 0x20]
p102
sg5
L248640L
sg6
Nsg23
S'mov'
p103
sg25
S'0x3cb40L'
p104
sg27
Nsba(ibclass
BInstr
p105
(dp106
g2
Nsg17
S'test    rax, rax'
p107
sg19
S'4885c0'
p108
sg21
Vtest rax, rax
p109
sg5
L248644L
sg6
Nsg23
S'test'
p110
sg25
S'0x3cb44L'
p111
sg27
Nsba(ibclass
BInstr
p112
(dp113
g2
Nsg17
S'jz      short loc_3CB81'
p114
sg19
S'7438'
p115
sg21
Vje 0x3a
p116
sg5
L248647L
sg6
Nsg23
S'jz'
p117
sg25
S'0x3cb47L'
p118
sg27
NsbasS'disasm_list'
p119
(lp120
S'push reg'
p121
aS'mov reg, reg'
p122
aS'sub reg, 10h'
p123
aS'mov mem, reg'
p124
aS'mov reg, mem'
p125
aS'mov reg, mem'
p126
aS'mov reg, 0FAh'
p127
aS'mov reg, reg'
p128
aS'cregl xmlParserInputGrow__internreg_regias'
p129
aS'mov reg, mem'
p130
aS'mov reg, mem'
p131
aS'mov reg, mem'
p132
aS'test reg, reg'
p133
aS'jz func'
p134
asS'end_address'
p135
Nsg5
S'0x3cb17L'
p136
sS'preds'
p137
(lp138
sg6
NsS'succs'
p139
(lp140
S'0x3cb49L'
p141
aS'0x3cb81L'
p142
asS'hash_v3'
p143
NsS'flag_v2'
p144
NsS'hash_v1'
p145
S'0c81070366a04ea3a3228ea7f4f62425'
p146
sS'hash_v2'
p147
S'a84a753ddccc0c66589628c79fd5cf8e'
p148
sS'mnen_list'
p149
(lp150
g24
ag33
ag40
ag47
ag54
ag61
ag68
ag75
ag82
ag89
ag96
ag103
ag110
ag117
asS'neighbour_disasm_list'
p151
Nsba(ibclass
BBasicBlock
p152
(dp153
g12
Nsg13
(lp154
(ibclass
BInstr
p155
(dp156
g2
Nsg17
S'mov     rax, [rbp+ctxt]'
p157
sg19
S'488b45f8'
p158
sg21
Vmov rax, qword ptr [rbp - 8]
p159
sg5
L248649L
sg6
Nsg23
S'mov'
p160
sg25
S'0x3cb49L'
p161
sg27
Nsba(ibclass
BInstr
p162
(dp163
g2
Nsg17
S'mov     rax, [rax+38h]'
p164
sg19
S'488b4038'
p165
sg21
Vmov rax, qword ptr [rax + 0x38]
p166
sg5
L248653L
sg6
Nsg23
S'mov'
p167
sg25
S'0x3cb4dL'
p168
sg27
Nsba(ibclass
BInstr
p169
(dp170
g2
Nsg17
S'mov     rax, [rax+20h]'
p171
sg19
S'488b4020'
p172
sg21
Vmov rax, qword ptr [rax + 0x20]
p173
sg5
L248657L
sg6
Nsg23
S'mov'
p174
sg25
S'0x3cb51L'
p175
sg27
Nsba(ibclass
BInstr
p176
(dp177
g2
Nsg17
S'movzx   eax, byte ptr [rax]'
p178
sg19
S'0fb600'
p179
sg21
Vmovzx eax, byte ptr [rax]
p180
sg5
L248661L
sg6
Nsg23
S'movzx'
p181
sg25
S'0x3cb55L'
p182
sg27
Nsba(ibclass
BInstr
p183
(dp184
g2
Nsg17
S'test    al, al'
p185
sg19
S'84c0'
p186
sg21
Vtest al, al
p187
sg5
L248664L
sg6
Nsg23
S'test'
p188
sg25
S'0x3cb58L'
p189
sg27
Nsba(ibclass
BInstr
p190
(dp191
g2
Nsg17
S'jnz     short loc_3CB81'
p192
sg19
S'7525'
p193
sg21
Vjne 0x27
p194
sg5
L248666L
sg6
Nsg23
S'jnz'
p195
sg25
S'0x3cb5aL'
p196
sg27
Nsbasg119
(lp197
S'mov reg, mem'
p198
aS'mov reg, mem'
p199
aS'mov reg, mem'
p200
aS'movzx reg, mem'
p201
aS'test reg, reg'
p202
aS'jnz func'
p203
asg135
Nsg5
S'0x3cb49L'
p204
sg137
(lp205
S'0x3cb17L'
p206
asg6
Nsg139
(lp207
S'0x3cb5cL'
p208
aS'0x3cb81L'
p209
asg143
Nsg144
Nsg145
S'3388ea9a4a7a7e9dc777bbeecfe80287'
p210
sg147
S'8151f4b69511a135357a33c2d5222c80'
p211
sg149
(lp212
g160
ag167
ag174
ag181
ag188
ag195
asg151
Nsba(ibclass
BBasicBlock
p213
(dp214
g12
Nsg13
(lp215
(ibclass
BInstr
p216
(dp217
g2
Nsg17
S'mov     rax, [rbp+ctxt]'
p218
sg19
S'488b45f8'
p219
sg21
Vmov rax, qword ptr [rbp - 8]
p220
sg5
L248668L
sg6
Nsg23
S'mov'
p221
sg25
S'0x3cb5cL'
p222
sg27
Nsba(ibclass
BInstr
p223
(dp224
g2
Nsg17
S'mov     rax, [rax+38h]'
p225
sg19
S'488b4038'
p226
sg21
Vmov rax, qword ptr [rax + 0x38]
p227
sg5
L248672L
sg6
Nsg23
S'mov'
p228
sg25
S'0x3cb60L'
p229
sg27
Nsba(ibclass
BInstr
p230
(dp231
g2
Nsg17
S'mov     esi, 0FAh       ; len'
p232
sg19
S'befa000000'
p233
sg21
Vmov esi, 0xfa
p234
sg5
L248676L
sg6
Nsg23
S'mov'
p235
sg25
S'0x3cb64L'
p236
sg27
Nsba(ibclass
BInstr
p237
(dp238
g2
Nsg17
S'mov     rdi, rax        ; in'
p239
sg19
S'4889c7'
p240
sg21
Vmov rdi, rax
p241
sg5
L248681L
sg6
Nsg23
S'mov'
p242
sg25
S'0x3cb69L'
p243
sg27
Nsba(ibclass
BInstr
p244
(dp245
g2
Nsg17
S'call    xmlParserInputGrow__internal_alias'
p246
sg19
S'e82392ffff'
p247
sg21
Vcall 0xffffffffffff9228
p248
sg5
L248684L
sg6
Nsg23
S'call'
p249
sg25
S'0x3cb6cL'
p250
sg27
Nsba(ibclass
BInstr
p251
(dp252
g2
Nsg17
S'test    eax, eax'
p253
sg19
S'85c0'
p254
sg21
Vtest eax, eax
p255
sg5
L248689L
sg6
Nsg23
S'test'
p256
sg25
S'0x3cb71L'
p257
sg27
Nsba(ibclass
BInstr
p258
(dp259
g2
Nsg17
S'jg      short loc_3CB81'
p260
sg19
S'7f0c'
p261
sg21
Vjg 0xe
p262
sg5
L248691L
sg6
Nsg23
S'jg'
p263
sg25
S'0x3cb73L'
p264
sg27
Nsbasg119
(lp265
S'mov reg, mem'
p266
aS'mov reg, mem'
p267
aS'mov reg, 0FAh'
p268
aS'mov reg, reg'
p269
aS'cregl xmlParserInputGrow__internreg_regias'
p270
aS'test reg, reg'
p271
aS'jg func'
p272
asg135
Nsg5
S'0x3cb5cL'
p273
sg137
(lp274
S'0x3cb49L'
p275
asg6
Nsg139
(lp276
S'0x3cb75L'
p277
aS'0x3cb81L'
p278
asg143
Nsg144
Nsg145
S'34a7f79986f869953e0a420f1201233e'
p279
sg147
S'fb420ee5ff80dfab2dfdb2438c17b439'
p280
sg149
(lp281
g221
ag228
ag235
ag242
ag249
ag256
ag263
asg151
Nsba(ibclass
BBasicBlock
p282
(dp283
g12
Nsg13
(lp284
(ibclass
BInstr
p285
(dp286
g2
Nsg17
S'mov     rax, [rbp+ctxt]'
p287
sg19
S'488b45f8'
p288
sg21
Vmov rax, qword ptr [rbp - 8]
p289
sg5
L248693L
sg6
Nsg23
S'mov'
p290
sg25
S'0x3cb75L'
p291
sg27
Nsba(ibclass
BInstr
p292
(dp293
g2
Nsg17
S'mov     rdi, rax        ; ctxt'
p294
sg19
S'4889c7'
p295
sg21
Vmov rdi, rax
p296
sg5
L248697L
sg6
Nsg23
S'mov'
p297
sg25
S'0x3cb79L'
p298
sg27
Nsba(ibclass
BInstr
p299
(dp300
g2
Nsg17
S'call    xmlPopInput__internal_alias'
p301
sg19
S'e8f1010000'
p302
sg21
Vcall 0x1f6
p303
sg5
L248700L
sg6
Nsg23
S'call'
p304
sg25
S'0x3cb7cL'
p305
sg27
Nsbasg119
(lp306
S'mov reg, mem'
p307
aS'mov reg, reg'
p308
aS'cregl xmlPopInput__internreg_regias'
p309
asg135
Nsg5
S'0x3cb75L'
p310
sg137
(lp311
S'0x3cb5cL'
p312
asg6
Nsg139
(lp313
S'0x3cb81L'
p314
asg143
Nsg144
Nsg145
S'0bf1a79a6a1155c5085c1c85d6d83d05'
p315
sg147
S'a1f1ecb30a3616b45b977b3f77614fb1'
p316
sg149
(lp317
g290
ag297
ag304
asg151
Nsba(ibclass
BBasicBlock
p318
(dp319
g12
Nsg13
(lp320
(ibclass
BInstr
p321
(dp322
g2
Nsg17
S'nop'
p323
sg19
S'90'
p324
sg21
Vnop 
p325
sg5
L248705L
sg6
Nsg23
S'nop'
p326
sg25
S'0x3cb81L'
p327
sg27
Nsba(ibclass
BInstr
p328
(dp329
g2
Nsg17
S'leave'
p330
sg19
S'c9'
p331
sg21
Vleave 
p332
sg5
L248706L
sg6
Nsg23
S'leave'
p333
sg25
S'0x3cb82L'
p334
sg27
Nsba(ibclass
BInstr
p335
(dp336
g2
Nsg17
S'retn'
p337
sg19
S'c3'
p338
sg21
Vret 
p339
sg5
L248707L
sg6
Nsg23
S'retn'
p340
sg25
S'0x3cb83L'
p341
sg27
Nsbasg119
(lp342
g323
ag330
ag337
asg135
Nsg5
S'0x3cb81L'
p343
sg137
(lp344
S'0x3cb17L'
p345
aS'0x3cb49L'
p346
aS'0x3cb5cL'
p347
aS'0x3cb75L'
p348
asg6
Nsg139
(lp349
sg143
Nsg144
Nsg145
S'e60dd6e5cf91846c815faeb59967c602'
p350
sg147
S'e60dd6e5cf91846c815faeb59967c602'
p351
sg149
(lp352
g326
ag333
ag340
asg151
Nsbasb.