(ibclass
BFunc
p0
(dp1
S'hash'
p2
NsS'name'
p3
S'xmlGROW'
p4
sS'start_address'
p5
L248654L
sS'flag'
p6
NsS'program'
p7
NsS'bbs'
p8
(lp9
(ibclass
BBasicBlock
p10
(dp11
S'function'
p12
NsS'binstrs'
p13
(lp14
(ibclass
BInstr
p15
(dp16
g2
NsS'disasm'
p17
S'push    rbp'
p18
sS'bytes'
p19
S'55'
p20
sS'disasm_striped'
p21
Vpush rbp
p22
sg5
L248654L
sg6
NsS'mnem'
p23
S'push'
p24
sS'address'
p25
S'0x3cb4eL'
p26
sS'basicblock'
p27
Nsba(ibclass
BInstr
p28
(dp29
g2
Nsg17
S'mov     rbp, rsp'
p30
sg19
S'4889e5'
p31
sg21
Vmov rbp, rsp
p32
sg5
L248655L
sg6
Nsg23
S'mov'
p33
sg25
S'0x3cb4fL'
p34
sg27
Nsba(ibclass
BInstr
p35
(dp36
g2
Nsg17
S'sub     rsp, 10h'
p37
sg19
S'4883ec10'
p38
sg21
Vsub rsp, 0x10
p39
sg5
L248658L
sg6
Nsg23
S'sub'
p40
sg25
S'0x3cb52L'
p41
sg27
Nsba(ibclass
BInstr
p42
(dp43
g2
Nsg17
S'mov     [rbp+ctxt], rdi'
p44
sg19
S'48897df8'
p45
sg21
Vmov qword ptr [rbp - 8], rdi
p46
sg5
L248662L
sg6
Nsg23
S'mov'
p47
sg25
S'0x3cb56L'
p48
sg27
Nsba(ibclass
BInstr
p49
(dp50
g2
Nsg17
S'mov     rax, [rbp+ctxt]'
p51
sg19
S'488b45f8'
p52
sg21
Vmov rax, qword ptr [rbp - 8]
p53
sg5
L248666L
sg6
Nsg23
S'mov'
p54
sg25
S'0x3cb5aL'
p55
sg27
Nsba(ibclass
BInstr
p56
(dp57
g2
Nsg17
S'mov     rax, [rax+38h]'
p58
sg19
S'488b4038'
p59
sg21
Vmov rax, qword ptr [rax + 0x38]
p60
sg5
L248670L
sg6
Nsg23
S'mov'
p61
sg25
S'0x3cb5eL'
p62
sg27
Nsba(ibclass
BInstr
p63
(dp64
g2
Nsg17
S'mov     esi, 0FAh       ; len'
p65
sg19
S'befa000000'
p66
sg21
Vmov esi, 0xfa
p67
sg5
L248674L
sg6
Nsg23
S'mov'
p68
sg25
S'0x3cb62L'
p69
sg27
Nsba(ibclass
BInstr
p70
(dp71
g2
Nsg17
S'mov     rdi, rax        ; in'
p72
sg19
S'4889c7'
p73
sg21
Vmov rdi, rax
p74
sg5
L248679L
sg6
Nsg23
S'mov'
p75
sg25
S'0x3cb67L'
p76
sg27
Nsba(ibclass
BInstr
p77
(dp78
g2
Nsg17
S'call    xmlParserInputGrow__internal_alias'
p79
sg19
S'e82592ffff'
p80
sg21
Vcall 0xffffffffffff922a
p81
sg5
L248682L
sg6
Nsg23
S'call'
p82
sg25
S'0x3cb6aL'
p83
sg27
Nsba(ibclass
BInstr
p84
(dp85
g2
Nsg17
S'mov     rax, [rbp+ctxt]'
p86
sg19
S'488b45f8'
p87
sg21
Vmov rax, qword ptr [rbp - 8]
p88
sg5
L248687L
sg6
Nsg23
S'mov'
p89
sg25
S'0x3cb6fL'
p90
sg27
Nsba(ibclass
BInstr
p91
(dp92
g2
Nsg17
S'mov     rax, [rax+38h]'
p93
sg19
S'488b4038'
p94
sg21
Vmov rax, qword ptr [rax + 0x38]
p95
sg5
L248691L
sg6
Nsg23
S'mov'
p96
sg25
S'0x3cb73L'
p97
sg27
Nsba(ibclass
BInstr
p98
(dp99
g2
Nsg17
S'mov     rdx, [rax+20h]'
p100
sg19
S'488b5020'
p101
sg21
Vmov rdx, qword ptr [rax + 0x20]
p102
sg5
L248695L
sg6
Nsg23
S'mov'
p103
sg25
S'0x3cb77L'
p104
sg27
Nsba(ibclass
BInstr
p105
(dp106
g2
Nsg17
S'mov     rax, [rbp+ctxt]'
p107
sg19
S'488b45f8'
p108
sg21
Vmov rax, qword ptr [rbp - 8]
p109
sg5
L248699L
sg6
Nsg23
S'mov'
p110
sg25
S'0x3cb7bL'
p111
sg27
Nsba(ibclass
BInstr
p112
(dp113
g2
Nsg17
S'mov     rax, [rax+38h]'
p114
sg19
S'488b4038'
p115
sg21
Vmov rax, qword ptr [rax + 0x38]
p116
sg5
L248703L
sg6
Nsg23
S'mov'
p117
sg25
S'0x3cb7fL'
p118
sg27
Nsba(ibclass
BInstr
p119
(dp120
g2
Nsg17
S'mov     rax, [rax+28h]'
p121
sg19
S'488b4028'
p122
sg21
Vmov rax, qword ptr [rax + 0x28]
p123
sg5
L248707L
sg6
Nsg23
S'mov'
p124
sg25
S'0x3cb83L'
p125
sg27
Nsba(ibclass
BInstr
p126
(dp127
g2
Nsg17
S'cmp     rdx, rax'
p128
sg19
S'4839c2'
p129
sg21
Vcmp rdx, rax
p130
sg5
L248711L
sg6
Nsg23
S'cmp'
p131
sg25
S'0x3cb87L'
p132
sg27
Nsba(ibclass
BInstr
p133
(dp134
g2
Nsg17
S'ja      short loc_3CBA9'
p135
sg19
S'771d'
p136
sg21
Vja 0x1f
p137
sg5
L248714L
sg6
Nsg23
S'ja'
p138
sg25
S'0x3cb8aL'
p139
sg27
NsbasS'disasm_list'
p140
(lp141
S'push reg'
p142
aS'mov reg, reg'
p143
aS'sub reg, 10h'
p144
aS'mov mem, reg'
p145
aS'mov reg, mem'
p146
aS'mov reg, mem'
p147
aS'mov reg, 0FAh'
p148
aS'mov reg, reg'
p149
aS'cregl xmlParserInputGrow__internreg_regias'
p150
aS'mov reg, mem'
p151
aS'mov reg, mem'
p152
aS'mov reg, mem'
p153
aS'mov reg, mem'
p154
aS'mov reg, mem'
p155
aS'mov reg, mem'
p156
aS'cmp reg, reg'
p157
aS'ja func'
p158
asS'end_address'
p159
Nsg5
S'0x3cb4eL'
p160
sS'preds'
p161
(lp162
sg6
NsS'succs'
p163
(lp164
S'0x3cb8cL'
p165
aS'0x3cba9L'
p166
asS'hash_v3'
p167
NsS'flag_v2'
p168
NsS'hash_v1'
p169
S'9e3c452d0c4a4b6a9c3a1e9fb55b188b'
p170
sS'hash_v2'
p171
S'67814d9b4d669161af07d19e8579691f'
p172
sS'mnen_list'
p173
(lp174
g24
ag33
ag40
ag47
ag54
ag61
ag68
ag75
ag82
ag89
ag96
ag103
ag110
ag117
ag124
ag131
ag138
asS'neighbour_disasm_list'
p175
Nsba(ibclass
BBasicBlock
p176
(dp177
g12
Nsg13
(lp178
(ibclass
BInstr
p179
(dp180
g2
Nsg17
S'mov     rax, [rbp+ctxt]'
p181
sg19
S'488b45f8'
p182
sg21
Vmov rax, qword ptr [rbp - 8]
p183
sg5
L248716L
sg6
Nsg23
S'mov'
p184
sg25
S'0x3cb8cL'
p185
sg27
Nsba(ibclass
BInstr
p186
(dp187
g2
Nsg17
S'mov     rax, [rax+38h]'
p188
sg19
S'488b4038'
p189
sg21
Vmov rax, qword ptr [rax + 0x38]
p190
sg5
L248720L
sg6
Nsg23
S'mov'
p191
sg25
S'0x3cb90L'
p192
sg27
Nsba(ibclass
BInstr
p193
(dp194
g2
Nsg17
S'mov     rdx, [rax+20h]'
p195
sg19
S'488b5020'
p196
sg21
Vmov rdx, qword ptr [rax + 0x20]
p197
sg5
L248724L
sg6
Nsg23
S'mov'
p198
sg25
S'0x3cb94L'
p199
sg27
Nsba(ibclass
BInstr
p200
(dp201
g2
Nsg17
S'mov     rax, [rbp+ctxt]'
p202
sg19
S'488b45f8'
p203
sg21
Vmov rax, qword ptr [rbp - 8]
p204
sg5
L248728L
sg6
Nsg23
S'mov'
p205
sg25
S'0x3cb98L'
p206
sg27
Nsba(ibclass
BInstr
p207
(dp208
g2
Nsg17
S'mov     rax, [rax+38h]'
p209
sg19
S'488b4038'
p210
sg21
Vmov rax, qword ptr [rax + 0x38]
p211
sg5
L248732L
sg6
Nsg23
S'mov'
p212
sg25
S'0x3cb9cL'
p213
sg27
Nsba(ibclass
BInstr
p214
(dp215
g2
Nsg17
S'mov     rax, [rax+18h]'
p216
sg19
S'488b4018'
p217
sg21
Vmov rax, qword ptr [rax + 0x18]
p218
sg5
L248736L
sg6
Nsg23
S'mov'
p219
sg25
S'0x3cba0L'
p220
sg27
Nsba(ibclass
BInstr
p221
(dp222
g2
Nsg17
S'cmp     rdx, rax'
p223
sg19
S'4839c2'
p224
sg21
Vcmp rdx, rax
p225
sg5
L248740L
sg6
Nsg23
S'cmp'
p226
sg25
S'0x3cba4L'
p227
sg27
Nsba(ibclass
BInstr
p228
(dp229
g2
Nsg17
S'jnb     short loc_3CBCF'
p230
sg19
S'7326'
p231
sg21
Vjae 0x28
p232
sg5
L248743L
sg6
Nsg23
S'jnb'
p233
sg25
S'0x3cba7L'
p234
sg27
Nsbasg140
(lp235
S'mov reg, mem'
p236
aS'mov reg, mem'
p237
aS'mov reg, mem'
p238
aS'mov reg, mem'
p239
aS'mov reg, mem'
p240
aS'mov reg, mem'
p241
aS'cmp reg, reg'
p242
aS'jnb func'
p243
asg159
Nsg5
S'0x3cb8cL'
p244
sg161
(lp245
S'0x3cb4eL'
p246
asg6
Nsg163
(lp247
S'0x3cba9L'
p248
aS'0x3cbcfL'
p249
asg167
Nsg168
Nsg169
S'eac238cdedff6bef330e5cda54dff80f'
p250
sg171
S'27cafba8c05d3c71ec132c87c9c58aec'
p251
sg173
(lp252
g184
ag191
ag198
ag205
ag212
ag219
ag226
ag233
asg175
Nsba(ibclass
BBasicBlock
p253
(dp254
g12
Nsg13
(lp255
(ibclass
BInstr
p256
(dp257
g2
Nsg17
S'mov     rax, [rbp+ctxt]'
p258
sg19
S'488b45f8'
p259
sg21
Vmov rax, qword ptr [rbp - 8]
p260
sg5
L248745L
sg6
Nsg23
S'mov'
p261
sg25
S'0x3cba9L'
p262
sg27
Nsba(ibclass
BInstr
p263
(dp264
g2
Nsg17
S'mov     rdi, rax        ; ctxt'
p265
sg19
S'4889c7'
p266
sg21
Vmov rdi, rax
p267
sg5
L248749L
sg6
Nsg23
S'mov'
p268
sg25
S'0x3cbadL'
p269
sg27
Nsba(ibclass
BInstr
p270
(dp271
g2
Nsg17
S'call    xmlHaltParser'
p272
sg19
S'e8e5f20100'
p273
sg21
Vcall 0x1f2ea
p274
sg5
L248752L
sg6
Nsg23
S'call'
p275
sg25
S'0x3cbb0L'
p276
sg27
Nsba(ibclass
BInstr
p277
(dp278
g2
Nsg17
S'mov     rax, [rbp+ctxt]'
p279
sg19
S'488b45f8'
p280
sg21
Vmov rax, qword ptr [rbp - 8]
p281
sg5
L248757L
sg6
Nsg23
S'mov'
p282
sg25
S'0x3cbb5L'
p283
sg27
Nsba(ibclass
BInstr
p284
(dp285
g2
Nsg17
S'lea     rdx, info       ; "cur index out of bound"'
p286
sg19
S'488d151bb91300'
p287
sg21
Vlea rdx, [rip + 0x13b91b]
p288
sg5
L248761L
sg6
Nsg23
S'lea'
p289
sg25
S'0x3cbb9L'
p290
sg27
Nsba(ibclass
BInstr
p291
(dp292
g2
Nsg17
S'mov     esi, 1          ; error'
p293
sg19
S'be01000000'
p294
sg21
Vmov esi, 1
p295
sg5
L248768L
sg6
Nsg23
S'mov'
p296
sg25
S'0x3cbc0L'
p297
sg27
Nsba(ibclass
BInstr
p298
(dp299
g2
Nsg17
S'mov     rdi, rax        ; ctxt'
p300
sg19
S'4889c7'
p301
sg21
Vmov rdi, rax
p302
sg5
L248773L
sg6
Nsg23
S'mov'
p303
sg25
S'0x3cbc5L'
p304
sg27
Nsba(ibclass
BInstr
p305
(dp306
g2
Nsg17
S'call    xmlFatalErr'
p307
sg19
S'e8dad2ffff'
p308
sg21
Vcall 0xffffffffffffd2df
p309
sg5
L248776L
sg6
Nsg23
S'call'
p310
sg25
S'0x3cbc8L'
p311
sg27
Nsba(ibclass
BInstr
p312
(dp313
g2
Nsg17
S'jmp     short locret_3CC18'
p314
sg19
S'eb49'
p315
sg21
Vjmp 0x4b
p316
sg5
L248781L
sg6
Nsg23
S'jmp'
p317
sg25
S'0x3cbcdL'
p318
sg27
Nsbasg140
(lp319
S'mov reg, mem'
p320
aS'mov reg, reg'
p321
aS'cregl xmlHregtParser'
p322
aS'mov reg, mem'
p323
aS'lea reg, info'
p324
aS'mov reg, 1'
p325
aS'mov reg, reg'
p326
aS'cregl xmlFatregErr'
p327
aS'jmp short func'
p328
asg159
Nsg5
S'0x3cba9L'
p329
sg161
(lp330
S'0x3cb4eL'
p331
aS'0x3cb8cL'
p332
asg6
Nsg163
(lp333
S'0x3cc18L'
p334
asg167
Nsg168
Nsg169
S'f16b143f07f25e4dd6a0c331fc9561ea'
p335
sg171
S'ee89fdafc1d56c35d98c837d56680ded'
p336
sg173
(lp337
g261
ag268
ag275
ag282
ag289
ag296
ag303
ag310
ag317
asg175
Nsba(ibclass
BBasicBlock
p338
(dp339
g12
Nsg13
(lp340
(ibclass
BInstr
p341
(dp342
g2
Nsg17
S'mov     rax, [rbp+ctxt]'
p343
sg19
S'488b45f8'
p344
sg21
Vmov rax, qword ptr [rbp - 8]
p345
sg5
L248783L
sg6
Nsg23
S'mov'
p346
sg25
S'0x3cbcfL'
p347
sg27
Nsba(ibclass
BInstr
p348
(dp349
g2
Nsg17
S'mov     rax, [rax+38h]'
p350
sg19
S'488b4038'
p351
sg21
Vmov rax, qword ptr [rax + 0x38]
p352
sg5
L248787L
sg6
Nsg23
S'mov'
p353
sg25
S'0x3cbd3L'
p354
sg27
Nsba(ibclass
BInstr
p355
(dp356
g2
Nsg17
S'mov     rax, [rax+20h]'
p357
sg19
S'488b4020'
p358
sg21
Vmov rax, qword ptr [rax + 0x20]
p359
sg5
L248791L
sg6
Nsg23
S'mov'
p360
sg25
S'0x3cbd7L'
p361
sg27
Nsba(ibclass
BInstr
p362
(dp363
g2
Nsg17
S'test    rax, rax'
p364
sg19
S'4885c0'
p365
sg21
Vtest rax, rax
p366
sg5
L248795L
sg6
Nsg23
S'test'
p367
sg25
S'0x3cbdbL'
p368
sg27
Nsba(ibclass
BInstr
p369
(dp370
g2
Nsg17
S'jz      short locret_3CC18'
p371
sg19
S'7438'
p372
sg21
Vje 0x3a
p373
sg5
L248798L
sg6
Nsg23
S'jz'
p374
sg25
S'0x3cbdeL'
p375
sg27
Nsbasg140
(lp376
S'mov reg, mem'
p377
aS'mov reg, mem'
p378
aS'mov reg, mem'
p379
aS'test reg, reg'
p380
aS'jz short func'
p381
asg159
Nsg5
S'0x3cbcfL'
p382
sg161
(lp383
S'0x3cb8cL'
p384
asg6
Nsg163
(lp385
S'0x3cbe0L'
p386
aS'0x3cc18L'
p387
asg167
Nsg168
Nsg169
S'3b481658a4cce5e38656536ea99dca20'
p388
sg171
S'6828eb8fa35c7fa7a4ed58419e657112'
p389
sg173
(lp390
g346
ag353
ag360
ag367
ag374
asg175
Nsba(ibclass
BBasicBlock
p391
(dp392
g12
Nsg13
(lp393
(ibclass
BInstr
p394
(dp395
g2
Nsg17
S'mov     rax, [rbp+ctxt]'
p396
sg19
S'488b45f8'
p397
sg21
Vmov rax, qword ptr [rbp - 8]
p398
sg5
L248800L
sg6
Nsg23
S'mov'
p399
sg25
S'0x3cbe0L'
p400
sg27
Nsba(ibclass
BInstr
p401
(dp402
g2
Nsg17
S'mov     rax, [rax+38h]'
p403
sg19
S'488b4038'
p404
sg21
Vmov rax, qword ptr [rax + 0x38]
p405
sg5
L248804L
sg6
Nsg23
S'mov'
p406
sg25
S'0x3cbe4L'
p407
sg27
Nsba(ibclass
BInstr
p408
(dp409
g2
Nsg17
S'mov     rax, [rax+20h]'
p410
sg19
S'488b4020'
p411
sg21
Vmov rax, qword ptr [rax + 0x20]
p412
sg5
L248808L
sg6
Nsg23
S'mov'
p413
sg25
S'0x3cbe8L'
p414
sg27
Nsba(ibclass
BInstr
p415
(dp416
g2
Nsg17
S'movzx   eax, byte ptr [rax]'
p417
sg19
S'0fb600'
p418
sg21
Vmovzx eax, byte ptr [rax]
p419
sg5
L248812L
sg6
Nsg23
S'movzx'
p420
sg25
S'0x3cbecL'
p421
sg27
Nsba(ibclass
BInstr
p422
(dp423
g2
Nsg17
S'test    al, al'
p424
sg19
S'84c0'
p425
sg21
Vtest al, al
p426
sg5
L248815L
sg6
Nsg23
S'test'
p427
sg25
S'0x3cbefL'
p428
sg27
Nsba(ibclass
BInstr
p429
(dp430
g2
Nsg17
S'jnz     short locret_3CC18'
p431
sg19
S'7525'
p432
sg21
Vjne 0x27
p433
sg5
L248817L
sg6
Nsg23
S'jnz'
p434
sg25
S'0x3cbf1L'
p435
sg27
Nsbasg140
(lp436
S'mov reg, mem'
p437
aS'mov reg, mem'
p438
aS'mov reg, mem'
p439
aS'movzx reg, mem'
p440
aS'test reg, reg'
p441
aS'jnz short func'
p442
asg159
Nsg5
S'0x3cbe0L'
p443
sg161
(lp444
S'0x3cbcfL'
p445
asg6
Nsg163
(lp446
S'0x3cbf3L'
p447
aS'0x3cc18L'
p448
asg167
Nsg168
Nsg169
S'3388ea9a4a7a7e9dc777bbeecfe80287'
p449
sg171
S'539752538d06ccb588c88c69a147fc5b'
p450
sg173
(lp451
g399
ag406
ag413
ag420
ag427
ag434
asg175
Nsba(ibclass
BBasicBlock
p452
(dp453
g12
Nsg13
(lp454
(ibclass
BInstr
p455
(dp456
g2
Nsg17
S'mov     rax, [rbp+ctxt]'
p457
sg19
S'488b45f8'
p458
sg21
Vmov rax, qword ptr [rbp - 8]
p459
sg5
L248819L
sg6
Nsg23
S'mov'
p460
sg25
S'0x3cbf3L'
p461
sg27
Nsba(ibclass
BInstr
p462
(dp463
g2
Nsg17
S'mov     rax, [rax+38h]'
p464
sg19
S'488b4038'
p465
sg21
Vmov rax, qword ptr [rax + 0x38]
p466
sg5
L248823L
sg6
Nsg23
S'mov'
p467
sg25
S'0x3cbf7L'
p468
sg27
Nsba(ibclass
BInstr
p469
(dp470
g2
Nsg17
S'mov     esi, 0FAh       ; len'
p471
sg19
S'befa000000'
p472
sg21
Vmov esi, 0xfa
p473
sg5
L248827L
sg6
Nsg23
S'mov'
p474
sg25
S'0x3cbfbL'
p475
sg27
Nsba(ibclass
BInstr
p476
(dp477
g2
Nsg17
S'mov     rdi, rax        ; in'
p478
sg19
S'4889c7'
p479
sg21
Vmov rdi, rax
p480
sg5
L248832L
sg6
Nsg23
S'mov'
p481
sg25
S'0x3cc00L'
p482
sg27
Nsba(ibclass
BInstr
p483
(dp484
g2
Nsg17
S'call    xmlParserInputGrow__internal_alias'
p485
sg19
S'e88c91ffff'
p486
sg21
Vcall 0xffffffffffff9191
p487
sg5
L248835L
sg6
Nsg23
S'call'
p488
sg25
S'0x3cc03L'
p489
sg27
Nsba(ibclass
BInstr
p490
(dp491
g2
Nsg17
S'test    eax, eax'
p492
sg19
S'85c0'
p493
sg21
Vtest eax, eax
p494
sg5
L248840L
sg6
Nsg23
S'test'
p495
sg25
S'0x3cc08L'
p496
sg27
Nsba(ibclass
BInstr
p497
(dp498
g2
Nsg17
S'jg      short locret_3CC18'
p499
sg19
S'7f0c'
p500
sg21
Vjg 0xe
p501
sg5
L248842L
sg6
Nsg23
S'jg'
p502
sg25
S'0x3cc0aL'
p503
sg27
Nsbasg140
(lp504
S'mov reg, mem'
p505
aS'mov reg, mem'
p506
aS'mov reg, 0FAh'
p507
aS'mov reg, reg'
p508
aS'cregl xmlParserInputGrow__internreg_regias'
p509
aS'test reg, reg'
p510
aS'jg short func'
p511
asg159
Nsg5
S'0x3cbf3L'
p512
sg161
(lp513
S'0x3cbe0L'
p514
asg6
Nsg163
(lp515
S'0x3cc0cL'
p516
aS'0x3cc18L'
p517
asg167
Nsg168
Nsg169
S'34a7f79986f869953e0a420f1201233e'
p518
sg171
S'da1a8286bdb88aab5db22dcaf4c1e68a'
p519
sg173
(lp520
g460
ag467
ag474
ag481
ag488
ag495
ag502
asg175
Nsba(ibclass
BBasicBlock
p521
(dp522
g12
Nsg13
(lp523
(ibclass
BInstr
p524
(dp525
g2
Nsg17
S'mov     rax, [rbp+ctxt]'
p526
sg19
S'488b45f8'
p527
sg21
Vmov rax, qword ptr [rbp - 8]
p528
sg5
L248844L
sg6
Nsg23
S'mov'
p529
sg25
S'0x3cc0cL'
p530
sg27
Nsba(ibclass
BInstr
p531
(dp532
g2
Nsg17
S'mov     rdi, rax        ; ctxt'
p533
sg19
S'4889c7'
p534
sg21
Vmov rdi, rax
p535
sg5
L248848L
sg6
Nsg23
S'mov'
p536
sg25
S'0x3cc10L'
p537
sg27
Nsba(ibclass
BInstr
p538
(dp539
g2
Nsg17
S'call    xmlPopInput__internal_alias'
p540
sg19
S'e8f0010000'
p541
sg21
Vcall 0x1f5
p542
sg5
L248851L
sg6
Nsg23
S'call'
p543
sg25
S'0x3cc13L'
p544
sg27
Nsbasg140
(lp545
S'mov reg, mem'
p546
aS'mov reg, reg'
p547
aS'cregl xmlPopInput__internreg_regias'
p548
asg159
Nsg5
S'0x3cc0cL'
p549
sg161
(lp550
S'0x3cbf3L'
p551
asg6
Nsg163
(lp552
S'0x3cc18L'
p553
asg167
Nsg168
Nsg169
S'0bf1a79a6a1155c5085c1c85d6d83d05'
p554
sg171
S'a1f1ecb30a3616b45b977b3f77614fb1'
p555
sg173
(lp556
g529
ag536
ag543
asg175
Nsba(ibclass
BBasicBlock
p557
(dp558
g12
Nsg13
(lp559
(ibclass
BInstr
p560
(dp561
g2
Nsg17
S'leave'
p562
sg19
S'c9'
p563
sg21
Vleave 
p564
sg5
L248856L
sg6
Nsg23
S'leave'
p565
sg25
S'0x3cc18L'
p566
sg27
Nsba(ibclass
BInstr
p567
(dp568
g2
Nsg17
S'retn'
p569
sg19
S'c3'
p570
sg21
Vret 
p571
sg5
L248857L
sg6
Nsg23
S'retn'
p572
sg25
S'0x3cc19L'
p573
sg27
Nsbasg140
(lp574
g562
ag569
asg159
Nsg5
S'0x3cc18L'
p575
sg161
(lp576
S'0x3cba9L'
p577
aS'0x3cbcfL'
p578
aS'0x3cbe0L'
p579
aS'0x3cbf3L'
p580
aS'0x3cc0cL'
p581
asg6
Nsg163
(lp582
sg167
Nsg168
Nsg169
S'08c78f73a6f87c85da88b2982f54ce2a'
p583
sg171
S'08c78f73a6f87c85da88b2982f54ce2a'
p584
sg173
(lp585
g565
ag572
asg175
Nsbasb.