(ibclass
BFunc
p0
(dp1
S'hash'
p2
NsS'name'
p3
S'xmlXPtrNewRange__internal_alias'
p4
sS'start_address'
p5
L813234L
sS'flag'
p6
NsS'program'
p7
NsS'bbs'
p8
(lp9
(ibclass
BBasicBlock
p10
(dp11
S'function'
p12
NsS'binstrs'
p13
(lp14
(ibclass
BInstr
p15
(dp16
g2
NsS'disasm'
p17
S"push    rbp             ; Alternative name is 'xmlXPtrNewRange'"
p18
sS'bytes'
p19
S'55'
p20
sS'disasm_striped'
p21
Vpush rbp
p22
sg5
L813234L
sg6
NsS'mnem'
p23
S'push'
p24
sS'address'
p25
S'0xc68b2L'
p26
sS'basicblock'
p27
Nsba(ibclass
BInstr
p28
(dp29
g2
Nsg17
S'mov     rbp, rsp'
p30
sg19
S'4889e5'
p31
sg21
Vmov rbp, rsp
p32
sg5
L813235L
sg6
Nsg23
S'mov'
p33
sg25
S'0xc68b3L'
p34
sg27
Nsba(ibclass
BInstr
p35
(dp36
g2
Nsg17
S'sub     rsp, 30h'
p37
sg19
S'4883ec30'
p38
sg21
Vsub rsp, 0x30
p39
sg5
L813238L
sg6
Nsg23
S'sub'
p40
sg25
S'0xc68b6L'
p41
sg27
Nsba(ibclass
BInstr
p42
(dp43
g2
Nsg17
S'mov     [rbp+start], rdi'
p44
sg19
S'48897de8'
p45
sg21
Vmov qword ptr [rbp - 0x18], rdi
p46
sg5
L813242L
sg6
Nsg23
S'mov'
p47
sg25
S'0xc68baL'
p48
sg27
Nsba(ibclass
BInstr
p49
(dp50
g2
Nsg17
S'mov     [rbp+startindex], esi'
p51
sg19
S'8975e4'
p52
sg21
Vmov dword ptr [rbp - 0x1c], esi
p53
sg5
L813246L
sg6
Nsg23
S'mov'
p54
sg25
S'0xc68beL'
p55
sg27
Nsba(ibclass
BInstr
p56
(dp57
g2
Nsg17
S'mov     [rbp+end], rdx'
p58
sg19
S'488955d8'
p59
sg21
Vmov qword ptr [rbp - 0x28], rdx
p60
sg5
L813249L
sg6
Nsg23
S'mov'
p61
sg25
S'0xc68c1L'
p62
sg27
Nsba(ibclass
BInstr
p63
(dp64
g2
Nsg17
S'mov     [rbp+endindex], ecx'
p65
sg19
S'894de0'
p66
sg21
Vmov dword ptr [rbp - 0x20], ecx
p67
sg5
L813253L
sg6
Nsg23
S'mov'
p68
sg25
S'0xc68c5L'
p69
sg27
Nsba(ibclass
BInstr
p70
(dp71
g2
Nsg17
S'cmp     [rbp+start], 0'
p72
sg19
S'48837de800'
p73
sg21
Vcmp qword ptr [rbp - 0x18], 0
p74
sg5
L813256L
sg6
Nsg23
S'cmp'
p75
sg25
S'0xc68c8L'
p76
sg27
Nsba(ibclass
BInstr
p77
(dp78
g2
Nsg17
S'jnz     short loc_C68D9'
p79
sg19
S'750a'
p80
sg21
Vjne 0xc
p81
sg5
L813261L
sg6
Nsg23
S'jnz'
p82
sg25
S'0xc68cdL'
p83
sg27
NsbasS'disasm_list'
p84
(lp85
S'push reg'
p86
aS'mov reg, reg'
p87
aS'sub reg, 30h'
p88
aS'mov mem, reg'
p89
aS'mov mem, reg'
p90
aS'mov mem, reg'
p91
aS'mov mem, reg'
p92
aS'cmp mem, 0'
p93
aS'jnz func'
p94
asS'end_address'
p95
Nsg5
S'0xc68b2L'
p96
sS'preds'
p97
(lp98
sg6
NsS'succs'
p99
(lp100
S'0xc68cfL'
p101
aS'0xc68d9L'
p102
asS'hash_v3'
p103
NsS'flag_v2'
p104
NsS'hash_v1'
p105
S'0ecf0ae9aea5f44c74c52551308e5938'
p106
sS'hash_v2'
p107
S'81238323e347e1674cefbc7285051c5c'
p108
sS'mnen_list'
p109
(lp110
g24
ag33
ag40
ag47
ag54
ag61
ag68
ag75
ag82
asS'neighbour_disasm_list'
p111
Nsba(ibclass
BBasicBlock
p112
(dp113
g12
Nsg13
(lp114
(ibclass
BInstr
p115
(dp116
g2
Nsg17
S'mov     eax, 0'
p117
sg19
S'b800000000'
p118
sg21
Vmov eax, 0
p119
sg5
L813263L
sg6
Nsg23
S'mov'
p120
sg25
S'0xc68cfL'
p121
sg27
Nsba(ibclass
BInstr
p122
(dp123
g2
Nsg17
S'jmp     locret_C6995'
p124
sg19
S'e9bc000000'
p125
sg21
Vjmp 0xc1
p126
sg5
L813268L
sg6
Nsg23
S'jmp'
p127
sg25
S'0xc68d4L'
p128
sg27
Nsbasg84
(lp129
S'mov reg, 0'
p130
aS'jmp func'
p131
asg95
Nsg5
S'0xc68cfL'
p132
sg97
(lp133
S'0xc68b2L'
p134
asg6
Nsg99
(lp135
S'0xc6995L'
p136
asg103
Nsg104
Nsg105
S'8b9a0d40e062be2b9b2d9885108fb196'
p137
sg107
S'b9bc48935b5443504e35a59843f17cfd'
p138
sg109
(lp139
g120
ag127
asg111
Nsba(ibclass
BBasicBlock
p140
(dp141
g12
Nsg13
(lp142
(ibclass
BInstr
p143
(dp144
g2
Nsg17
S'cmp     [rbp+end], 0'
p145
sg19
S'48837dd800'
p146
sg21
Vcmp qword ptr [rbp - 0x28], 0
p147
sg5
L813273L
sg6
Nsg23
S'cmp'
p148
sg25
S'0xc68d9L'
p149
sg27
Nsba(ibclass
BInstr
p150
(dp151
g2
Nsg17
S'jnz     short loc_C68EA'
p152
sg19
S'750a'
p153
sg21
Vjne 0xc
p154
sg5
L813278L
sg6
Nsg23
S'jnz'
p155
sg25
S'0xc68deL'
p156
sg27
Nsbasg84
(lp157
S'cmp mem, 0'
p158
aS'jnz func'
p159
asg95
Nsg5
S'0xc68d9L'
p160
sg97
(lp161
S'0xc68b2L'
p162
asg6
Nsg99
(lp163
S'0xc68e0L'
p164
aS'0xc68eaL'
p165
asg103
Nsg104
Nsg105
S'30cb3d6f6a174adfabcde507f6944a52'
p166
sg107
S'98d72118630a4e08156799652c8790e6'
p167
sg109
(lp168
g148
ag155
asg111
Nsba(ibclass
BBasicBlock
p169
(dp170
g12
Nsg13
(lp171
(ibclass
BInstr
p172
(dp173
g2
Nsg17
S'mov     eax, 0'
p174
sg19
S'b800000000'
p175
sg21
Vmov eax, 0
p176
sg5
L813280L
sg6
Nsg23
S'mov'
p177
sg25
S'0xc68e0L'
p178
sg27
Nsba(ibclass
BInstr
p179
(dp180
g2
Nsg17
S'jmp     locret_C6995'
p181
sg19
S'e9ab000000'
p182
sg21
Vjmp 0xb0
p183
sg5
L813285L
sg6
Nsg23
S'jmp'
p184
sg25
S'0xc68e5L'
p185
sg27
Nsbasg84
(lp186
S'mov reg, 0'
p187
aS'jmp func'
p188
asg95
Nsg5
S'0xc68e0L'
p189
sg97
(lp190
S'0xc68d9L'
p191
asg6
Nsg99
(lp192
S'0xc6995L'
p193
asg103
Nsg104
Nsg105
S'8b9a0d40e062be2b9b2d9885108fb196'
p194
sg107
S'b9bc48935b5443504e35a59843f17cfd'
p195
sg109
(lp196
g177
ag184
asg111
Nsba(ibclass
BBasicBlock
p197
(dp198
g12
Nsg13
(lp199
(ibclass
BInstr
p200
(dp201
g2
Nsg17
S'cmp     [rbp+startindex], 0'
p202
sg19
S'837de400'
p203
sg21
Vcmp dword ptr [rbp - 0x1c], 0
p204
sg5
L813290L
sg6
Nsg23
S'cmp'
p205
sg25
S'0xc68eaL'
p206
sg27
Nsba(ibclass
BInstr
p207
(dp208
g2
Nsg17
S'jns     short loc_C68FA'
p209
sg19
S'790a'
p210
sg21
Vjns 0xc
p211
sg5
L813294L
sg6
Nsg23
S'jns'
p212
sg25
S'0xc68eeL'
p213
sg27
Nsbasg84
(lp214
S'cmp mem, 0'
p215
aS'jns func'
p216
asg95
Nsg5
S'0xc68eaL'
p217
sg97
(lp218
S'0xc68d9L'
p219
asg6
Nsg99
(lp220
S'0xc68f0L'
p221
aS'0xc68faL'
p222
asg103
Nsg104
Nsg105
S'4606fac8e515e3a38d5c4b959bb9f722'
p223
sg107
S'f66dbfc04e345dcd4ba0ce322e486985'
p224
sg109
(lp225
g205
ag212
asg111
Nsba(ibclass
BBasicBlock
p226
(dp227
g12
Nsg13
(lp228
(ibclass
BInstr
p229
(dp230
g2
Nsg17
S'mov     eax, 0'
p231
sg19
S'b800000000'
p232
sg21
Vmov eax, 0
p233
sg5
L813296L
sg6
Nsg23
S'mov'
p234
sg25
S'0xc68f0L'
p235
sg27
Nsba(ibclass
BInstr
p236
(dp237
g2
Nsg17
S'jmp     locret_C6995'
p238
sg19
S'e99b000000'
p239
sg21
Vjmp 0xa0
p240
sg5
L813301L
sg6
Nsg23
S'jmp'
p241
sg25
S'0xc68f5L'
p242
sg27
Nsbasg84
(lp243
S'mov reg, 0'
p244
aS'jmp func'
p245
asg95
Nsg5
S'0xc68f0L'
p246
sg97
(lp247
S'0xc68eaL'
p248
asg6
Nsg99
(lp249
S'0xc6995L'
p250
asg103
Nsg104
Nsg105
S'8b9a0d40e062be2b9b2d9885108fb196'
p251
sg107
S'b9bc48935b5443504e35a59843f17cfd'
p252
sg109
(lp253
g234
ag241
asg111
Nsba(ibclass
BBasicBlock
p254
(dp255
g12
Nsg13
(lp256
(ibclass
BInstr
p257
(dp258
g2
Nsg17
S'cmp     [rbp+endindex], 0'
p259
sg19
S'837de000'
p260
sg21
Vcmp dword ptr [rbp - 0x20], 0
p261
sg5
L813306L
sg6
Nsg23
S'cmp'
p262
sg25
S'0xc68faL'
p263
sg27
Nsba(ibclass
BInstr
p264
(dp265
g2
Nsg17
S'jns     short loc_C690A'
p266
sg19
S'790a'
p267
sg21
Vjns 0xc
p268
sg5
L813310L
sg6
Nsg23
S'jns'
p269
sg25
S'0xc68feL'
p270
sg27
Nsbasg84
(lp271
S'cmp mem, 0'
p272
aS'jns func'
p273
asg95
Nsg5
S'0xc68faL'
p274
sg97
(lp275
S'0xc68eaL'
p276
asg6
Nsg99
(lp277
S'0xc6900L'
p278
aS'0xc690aL'
p279
asg103
Nsg104
Nsg105
S'4606fac8e515e3a38d5c4b959bb9f722'
p280
sg107
S'f66dbfc04e345dcd4ba0ce322e486985'
p281
sg109
(lp282
g262
ag269
asg111
Nsba(ibclass
BBasicBlock
p283
(dp284
g12
Nsg13
(lp285
(ibclass
BInstr
p286
(dp287
g2
Nsg17
S'mov     eax, 0'
p288
sg19
S'b800000000'
p289
sg21
Vmov eax, 0
p290
sg5
L813312L
sg6
Nsg23
S'mov'
p291
sg25
S'0xc6900L'
p292
sg27
Nsba(ibclass
BInstr
p293
(dp294
g2
Nsg17
S'jmp     locret_C6995'
p295
sg19
S'e98b000000'
p296
sg21
Vjmp 0x90
p297
sg5
L813317L
sg6
Nsg23
S'jmp'
p298
sg25
S'0xc6905L'
p299
sg27
Nsbasg84
(lp300
S'mov reg, 0'
p301
aS'jmp func'
p302
asg95
Nsg5
S'0xc6900L'
p303
sg97
(lp304
S'0xc68faL'
p305
asg6
Nsg99
(lp306
S'0xc6995L'
p307
asg103
Nsg104
Nsg105
S'8b9a0d40e062be2b9b2d9885108fb196'
p308
sg107
S'b9bc48935b5443504e35a59843f17cfd'
p309
sg109
(lp310
g291
ag298
asg111
Nsba(ibclass
BBasicBlock
p311
(dp312
g12
Nsg13
(lp313
(ibclass
BInstr
p314
(dp315
g2
Nsg17
S'mov     rax, cs:xmlMalloc_ptr'
p316
sg19
S'488b05df842f00'
p317
sg21
Vmov rax, qword ptr [rip + 0x2f84df]
p318
sg5
L813322L
sg6
Nsg23
S'mov'
p319
sg25
S'0xc690aL'
p320
sg27
Nsba(ibclass
BInstr
p321
(dp322
g2
Nsg17
S'mov     rax, [rax]'
p323
sg19
S'488b00'
p324
sg21
Vmov rax, qword ptr [rax]
p325
sg5
L813329L
sg6
Nsg23
S'mov'
p326
sg25
S'0xc6911L'
p327
sg27
Nsba(ibclass
BInstr
p328
(dp329
g2
Nsg17
S'mov     edi, 48h'
p330
sg19
S'bf48000000'
p331
sg21
Vmov edi, 0x48
p332
sg5
L813332L
sg6
Nsg23
S'mov'
p333
sg25
S'0xc6914L'
p334
sg27
Nsba(ibclass
BInstr
p335
(dp336
g2
Nsg17
S'call    rax'
p337
sg19
S'ffd0'
p338
sg21
Vcall rax
p339
sg5
L813337L
sg6
Nsg23
S'call'
p340
sg25
S'0xc6919L'
p341
sg27
Nsba(ibclass
BInstr
p342
(dp343
g2
Nsg17
S'mov     [rbp+ret], rax'
p344
sg19
S'488945f8'
p345
sg21
Vmov qword ptr [rbp - 8], rax
p346
sg5
L813339L
sg6
Nsg23
S'mov'
p347
sg25
S'0xc691bL'
p348
sg27
Nsba(ibclass
BInstr
p349
(dp350
g2
Nsg17
S'cmp     [rbp+ret], 0'
p351
sg19
S'48837df800'
p352
sg21
Vcmp qword ptr [rbp - 8], 0
p353
sg5
L813343L
sg6
Nsg23
S'cmp'
p354
sg25
S'0xc691fL'
p355
sg27
Nsba(ibclass
BInstr
p356
(dp357
g2
Nsg17
S'jnz     short loc_C6939'
p358
sg19
S'7513'
p359
sg21
Vjne 0x15
p360
sg5
L813348L
sg6
Nsg23
S'jnz'
p361
sg25
S'0xc6924L'
p362
sg27
Nsbasg84
(lp363
S'mov reg, cs:xmlMregloc_ptr'
p364
aS'mov reg, mem'
p365
aS'mov reg, 48h'
p366
aS'cregl reg'
p367
aS'mov mem, reg'
p368
aS'cmp mem, 0'
p369
aS'jnz func'
p370
asg95
Nsg5
S'0xc690aL'
p371
sg97
(lp372
S'0xc68faL'
p373
asg6
Nsg99
(lp374
S'0xc6926L'
p375
aS'0xc6939L'
p376
asg103
Nsg104
Nsg105
S'4b92e126ef463a4f8f15195e91fff799'
p377
sg107
S'9febea72f08a54da0312c32f7e064b10'
p378
sg109
(lp379
g319
ag326
ag333
ag340
ag347
ag354
ag361
asg111
Nsba(ibclass
BBasicBlock
p380
(dp381
g12
Nsg13
(lp382
(ibclass
BInstr
p383
(dp384
g2
Nsg17
S'lea     rdi, aAllocatingRang; "allocating range"'
p385
sg19
S'488d3d53e70b00'
p386
sg21
Vlea rdi, [rip + 0xbe753]
p387
sg5
L813350L
sg6
Nsg23
S'lea'
p388
sg25
S'0xc6926L'
p389
sg27
Nsba(ibclass
BInstr
p390
(dp391
g2
Nsg17
S'call    xmlXPtrErrMemory'
p392
sg19
S'e84bf9ffff'
p393
sg21
Vcall 0xfffffffffffff950
p394
sg5
L813357L
sg6
Nsg23
S'call'
p395
sg25
S'0xc692dL'
p396
sg27
Nsba(ibclass
BInstr
p397
(dp398
g2
Nsg17
S'mov     eax, 0'
p399
sg19
S'b800000000'
p400
sg21
Vmov eax, 0
p401
sg5
L813362L
sg6
Nsg23
S'mov'
p402
sg25
S'0xc6932L'
p403
sg27
Nsba(ibclass
BInstr
p404
(dp405
g2
Nsg17
S'jmp     short locret_C6995'
p406
sg19
S'eb5c'
p407
sg21
Vjmp 0x5e
p408
sg5
L813367L
sg6
Nsg23
S'jmp'
p409
sg25
S'0xc6937L'
p410
sg27
Nsbasg84
(lp411
S'lea reg, aAllocatingRang'
p412
aS'cregl xmlXPtrErrMemory'
p413
aS'mov reg, 0'
p414
aS'jmp short func'
p415
asg95
Nsg5
S'0xc6926L'
p416
sg97
(lp417
S'0xc690aL'
p418
asg6
Nsg99
(lp419
S'0xc6995L'
p420
asg103
Nsg104
Nsg105
S'0dc23fd008cf6b8ab05ed1912338b682'
p421
sg107
S'5890bcc1020a02d12ada3a8a58a49381'
p422
sg109
(lp423
g388
ag395
ag402
ag409
asg111
Nsba(ibclass
BBasicBlock
p424
(dp425
g12
Nsg13
(lp426
(ibclass
BInstr
p427
(dp428
g2
Nsg17
S'mov     rax, [rbp+ret]'
p429
sg19
S'488b45f8'
p430
sg21
Vmov rax, qword ptr [rbp - 8]
p431
sg5
L813369L
sg6
Nsg23
S'mov'
p432
sg25
S'0xc6939L'
p433
sg27
Nsba(ibclass
BInstr
p434
(dp435
g2
Nsg17
S'mov     edx, 48h        ; n'
p436
sg19
S'ba48000000'
p437
sg21
Vmov edx, 0x48
p438
sg5
L813373L
sg6
Nsg23
S'mov'
p439
sg25
S'0xc693dL'
p440
sg27
Nsba(ibclass
BInstr
p441
(dp442
g2
Nsg17
S'mov     esi, 0          ; c'
p443
sg19
S'be00000000'
p444
sg21
Vmov esi, 0
p445
sg5
L813378L
sg6
Nsg23
S'mov'
p446
sg25
S'0xc6942L'
p447
sg27
Nsba(ibclass
BInstr
p448
(dp449
g2
Nsg17
S'mov     rdi, rax        ; s'
p450
sg19
S'4889c7'
p451
sg21
Vmov rdi, rax
p452
sg5
L813383L
sg6
Nsg23
S'mov'
p453
sg25
S'0xc6947L'
p454
sg27
Nsba(ibclass
BInstr
p455
(dp456
g2
Nsg17
S'call    memset'
p457
sg19
S'e82157f6ff'
p458
sg21
Vcall 0xfffffffffff65726
p459
sg5
L813386L
sg6
Nsg23
S'call'
p460
sg25
S'0xc694aL'
p461
sg27
Nsba(ibclass
BInstr
p462
(dp463
g2
Nsg17
S'mov     rax, [rbp+ret]'
p464
sg19
S'488b45f8'
p465
sg21
Vmov rax, qword ptr [rbp - 8]
p466
sg5
L813391L
sg6
Nsg23
S'mov'
p467
sg25
S'0xc694fL'
p468
sg27
Nsba(ibclass
BInstr
p469
(dp470
g2
Nsg17
S'mov     dword ptr [rax], 6'
p471
sg19
S'c70006000000'
p472
sg21
Vmov dword ptr [rax], 6
p473
sg5
L813395L
sg6
Nsg23
S'mov'
p474
sg25
S'0xc6953L'
p475
sg27
Nsba(ibclass
BInstr
p476
(dp477
g2
Nsg17
S'mov     rax, [rbp+ret]'
p478
sg19
S'488b45f8'
p479
sg21
Vmov rax, qword ptr [rbp - 8]
p480
sg5
L813401L
sg6
Nsg23
S'mov'
p481
sg25
S'0xc6959L'
p482
sg27
Nsba(ibclass
BInstr
p483
(dp484
g2
Nsg17
S'mov     rdx, [rbp+start]'
p485
sg19
S'488b55e8'
p486
sg21
Vmov rdx, qword ptr [rbp - 0x18]
p487
sg5
L813405L
sg6
Nsg23
S'mov'
p488
sg25
S'0xc695dL'
p489
sg27
Nsba(ibclass
BInstr
p490
(dp491
g2
Nsg17
S'mov     [rax+28h], rdx'
p492
sg19
S'48895028'
p493
sg21
Vmov qword ptr [rax + 0x28], rdx
p494
sg5
L813409L
sg6
Nsg23
S'mov'
p495
sg25
S'0xc6961L'
p496
sg27
Nsba(ibclass
BInstr
p497
(dp498
g2
Nsg17
S'mov     rax, [rbp+ret]'
p499
sg19
S'488b45f8'
p500
sg21
Vmov rax, qword ptr [rbp - 8]
p501
sg5
L813413L
sg6
Nsg23
S'mov'
p502
sg25
S'0xc6965L'
p503
sg27
Nsba(ibclass
BInstr
p504
(dp505
g2
Nsg17
S'mov     edx, [rbp+startindex]'
p506
sg19
S'8b55e4'
p507
sg21
Vmov edx, dword ptr [rbp - 0x1c]
p508
sg5
L813417L
sg6
Nsg23
S'mov'
p509
sg25
S'0xc6969L'
p510
sg27
Nsba(ibclass
BInstr
p511
(dp512
g2
Nsg17
S'mov     [rax+30h], edx'
p513
sg19
S'895030'
p514
sg21
Vmov dword ptr [rax + 0x30], edx
p515
sg5
L813420L
sg6
Nsg23
S'mov'
p516
sg25
S'0xc696cL'
p517
sg27
Nsba(ibclass
BInstr
p518
(dp519
g2
Nsg17
S'mov     rax, [rbp+ret]'
p520
sg19
S'488b45f8'
p521
sg21
Vmov rax, qword ptr [rbp - 8]
p522
sg5
L813423L
sg6
Nsg23
S'mov'
p523
sg25
S'0xc696fL'
p524
sg27
Nsba(ibclass
BInstr
p525
(dp526
g2
Nsg17
S'mov     rdx, [rbp+end]'
p527
sg19
S'488b55d8'
p528
sg21
Vmov rdx, qword ptr [rbp - 0x28]
p529
sg5
L813427L
sg6
Nsg23
S'mov'
p530
sg25
S'0xc6973L'
p531
sg27
Nsba(ibclass
BInstr
p532
(dp533
g2
Nsg17
S'mov     [rax+38h], rdx'
p534
sg19
S'48895038'
p535
sg21
Vmov qword ptr [rax + 0x38], rdx
p536
sg5
L813431L
sg6
Nsg23
S'mov'
p537
sg25
S'0xc6977L'
p538
sg27
Nsba(ibclass
BInstr
p539
(dp540
g2
Nsg17
S'mov     rax, [rbp+ret]'
p541
sg19
S'488b45f8'
p542
sg21
Vmov rax, qword ptr [rbp - 8]
p543
sg5
L813435L
sg6
Nsg23
S'mov'
p544
sg25
S'0xc697bL'
p545
sg27
Nsba(ibclass
BInstr
p546
(dp547
g2
Nsg17
S'mov     edx, [rbp+endindex]'
p548
sg19
S'8b55e0'
p549
sg21
Vmov edx, dword ptr [rbp - 0x20]
p550
sg5
L813439L
sg6
Nsg23
S'mov'
p551
sg25
S'0xc697fL'
p552
sg27
Nsba(ibclass
BInstr
p553
(dp554
g2
Nsg17
S'mov     [rax+40h], edx'
p555
sg19
S'895040'
p556
sg21
Vmov dword ptr [rax + 0x40], edx
p557
sg5
L813442L
sg6
Nsg23
S'mov'
p558
sg25
S'0xc6982L'
p559
sg27
Nsba(ibclass
BInstr
p560
(dp561
g2
Nsg17
S'mov     rax, [rbp+ret]'
p562
sg19
S'488b45f8'
p563
sg21
Vmov rax, qword ptr [rbp - 8]
p564
sg5
L813445L
sg6
Nsg23
S'mov'
p565
sg25
S'0xc6985L'
p566
sg27
Nsba(ibclass
BInstr
p567
(dp568
g2
Nsg17
S'mov     rdi, rax        ; range'
p569
sg19
S'4889c7'
p570
sg21
Vmov rdi, rax
p571
sg5
L813449L
sg6
Nsg23
S'mov'
p572
sg25
S'0xc6989L'
p573
sg27
Nsba(ibclass
BInstr
p574
(dp575
g2
Nsg17
S'call    xmlXPtrRangeCheckOrder'
p576
sg19
S'e891fdffff'
p577
sg21
Vcall 0xfffffffffffffd96
p578
sg5
L813452L
sg6
Nsg23
S'call'
p579
sg25
S'0xc698cL'
p580
sg27
Nsba(ibclass
BInstr
p581
(dp582
g2
Nsg17
S'mov     rax, [rbp+ret]'
p583
sg19
S'488b45f8'
p584
sg21
Vmov rax, qword ptr [rbp - 8]
p585
sg5
L813457L
sg6
Nsg23
S'mov'
p586
sg25
S'0xc6991L'
p587
sg27
Nsbasg84
(lp588
S'mov reg, mem'
p589
aS'mov reg, 48h'
p590
aS'mov reg, 0'
p591
aS'mov reg, reg'
p592
aS'cregl memset'
p593
aS'mov reg, mem'
p594
aS'mov mem, 6'
p595
aS'mov reg, mem'
p596
aS'mov reg, mem'
p597
aS'mov mem, reg'
p598
aS'mov reg, mem'
p599
aS'mov reg, mem'
p600
aS'mov mem, reg'
p601
aS'mov reg, mem'
p602
aS'mov reg, mem'
p603
aS'mov mem, reg'
p604
aS'mov reg, mem'
p605
aS'mov reg, mem'
p606
aS'mov mem, reg'
p607
aS'mov reg, mem'
p608
aS'mov reg, reg'
p609
aS'cregl xmlXPtrRangeCheckOrder'
p610
aS'mov reg, mem'
p611
asg95
Nsg5
S'0xc6939L'
p612
sg97
(lp613
S'0xc690aL'
p614
asg6
Nsg99
(lp615
S'0xc6995L'
p616
asg103
Nsg104
Nsg105
S'3cff39549f249618fbe5b801a0e548d1'
p617
sg107
S'6ef79ce5e2c1c2ebea8aeae91c228a41'
p618
sg109
(lp619
g432
ag439
ag446
ag453
ag460
ag467
ag474
ag481
ag488
ag495
ag502
ag509
ag516
ag523
ag530
ag537
ag544
ag551
ag558
ag565
ag572
ag579
ag586
asg111
Nsba(ibclass
BBasicBlock
p620
(dp621
g12
Nsg13
(lp622
(ibclass
BInstr
p623
(dp624
g2
Nsg17
S'leave'
p625
sg19
S'c9'
p626
sg21
Vleave 
p627
sg5
L813461L
sg6
Nsg23
S'leave'
p628
sg25
S'0xc6995L'
p629
sg27
Nsba(ibclass
BInstr
p630
(dp631
g2
Nsg17
S'retn'
p632
sg19
S'c3'
p633
sg21
Vret 
p634
sg5
L813462L
sg6
Nsg23
S'retn'
p635
sg25
S'0xc6996L'
p636
sg27
Nsbasg84
(lp637
g625
ag632
asg95
Nsg5
S'0xc6995L'
p638
sg97
(lp639
S'0xc68cfL'
p640
aS'0xc68e0L'
p641
aS'0xc68f0L'
p642
aS'0xc6900L'
p643
aS'0xc6926L'
p644
aS'0xc6939L'
p645
asg6
Nsg99
(lp646
sg103
Nsg104
Nsg105
S'08c78f73a6f87c85da88b2982f54ce2a'
p647
sg107
S'08c78f73a6f87c85da88b2982f54ce2a'
p648
sg109
(lp649
g628
ag635
asg111
Nsbasb.