(ibclass
BFunc
p0
(dp1
S'hash'
p2
NsS'name'
p3
S'xmlXPtrNewRangeNodes__internal_alias'
p4
sS'start_address'
p5
L814176L
sS'flag'
p6
NsS'program'
p7
NsS'bbs'
p8
(lp9
(ibclass
BBasicBlock
p10
(dp11
S'function'
p12
NsS'binstrs'
p13
(lp14
(ibclass
BInstr
p15
(dp16
g2
NsS'disasm'
p17
S"push    rbp             ; Alternative name is 'xmlXPtrNewRangeNodes'"
p18
sS'bytes'
p19
S'55'
p20
sS'disasm_striped'
p21
Vpush rbp
p22
sg5
L814176L
sg6
NsS'mnem'
p23
S'push'
p24
sS'address'
p25
S'0xc6c60L'
p26
sS'basicblock'
p27
Nsba(ibclass
BInstr
p28
(dp29
g2
Nsg17
S'mov     rbp, rsp'
p30
sg19
S'4889e5'
p31
sg21
Vmov rbp, rsp
p32
sg5
L814177L
sg6
Nsg23
S'mov'
p33
sg25
S'0xc6c61L'
p34
sg27
Nsba(ibclass
BInstr
p35
(dp36
g2
Nsg17
S'sub     rsp, 20h'
p37
sg19
S'4883ec20'
p38
sg21
Vsub rsp, 0x20
p39
sg5
L814180L
sg6
Nsg23
S'sub'
p40
sg25
S'0xc6c64L'
p41
sg27
Nsba(ibclass
BInstr
p42
(dp43
g2
Nsg17
S'mov     [rbp+start], rdi'
p44
sg19
S'48897de8'
p45
sg21
Vmov qword ptr [rbp - 0x18], rdi
p46
sg5
L814184L
sg6
Nsg23
S'mov'
p47
sg25
S'0xc6c68L'
p48
sg27
Nsba(ibclass
BInstr
p49
(dp50
g2
Nsg17
S'mov     [rbp+end], rsi'
p51
sg19
S'488975e0'
p52
sg21
Vmov qword ptr [rbp - 0x20], rsi
p53
sg5
L814188L
sg6
Nsg23
S'mov'
p54
sg25
S'0xc6c6cL'
p55
sg27
Nsba(ibclass
BInstr
p56
(dp57
g2
Nsg17
S'cmp     [rbp+start], 0'
p58
sg19
S'48837de800'
p59
sg21
Vcmp qword ptr [rbp - 0x18], 0
p60
sg5
L814192L
sg6
Nsg23
S'cmp'
p61
sg25
S'0xc6c70L'
p62
sg27
Nsba(ibclass
BInstr
p63
(dp64
g2
Nsg17
S'jnz     short loc_C6C81'
p65
sg19
S'750a'
p66
sg21
Vjne 0xc
p67
sg5
L814197L
sg6
Nsg23
S'jnz'
p68
sg25
S'0xc6c75L'
p69
sg27
NsbasS'disasm_list'
p70
(lp71
S'push reg'
p72
aS'mov reg, reg'
p73
aS'sub reg, 20h'
p74
aS'mov mem, reg'
p75
aS'mov mem, reg'
p76
aS'cmp mem, 0'
p77
aS'jnz func'
p78
asS'end_address'
p79
Nsg5
S'0xc6c60L'
p80
sS'preds'
p81
(lp82
sg6
NsS'succs'
p83
(lp84
S'0xc6c77L'
p85
aS'0xc6c81L'
p86
asS'hash_v3'
p87
NsS'flag_v2'
p88
NsS'hash_v1'
p89
S'190746cc36f798dfde6210eda659205d'
p90
sS'hash_v2'
p91
S'2e7f596d4a0758263f9e8a8af8cfb558'
p92
sS'mnen_list'
p93
(lp94
g24
ag33
ag40
ag47
ag54
ag61
ag68
asS'neighbour_disasm_list'
p95
Nsba(ibclass
BBasicBlock
p96
(dp97
g12
Nsg13
(lp98
(ibclass
BInstr
p99
(dp100
g2
Nsg17
S'mov     eax, 0'
p101
sg19
S'b800000000'
p102
sg21
Vmov eax, 0
p103
sg5
L814199L
sg6
Nsg23
S'mov'
p104
sg25
S'0xc6c77L'
p105
sg27
Nsba(ibclass
BInstr
p106
(dp107
g2
Nsg17
S'jmp     locret_C6D1F'
p108
sg19
S'e99e000000'
p109
sg21
Vjmp 0xa3
p110
sg5
L814204L
sg6
Nsg23
S'jmp'
p111
sg25
S'0xc6c7cL'
p112
sg27
Nsbasg70
(lp113
S'mov reg, 0'
p114
aS'jmp func'
p115
asg79
Nsg5
S'0xc6c77L'
p116
sg81
(lp117
S'0xc6c60L'
p118
asg6
Nsg83
(lp119
S'0xc6d1fL'
p120
asg87
Nsg88
Nsg89
S'8b9a0d40e062be2b9b2d9885108fb196'
p121
sg91
S'b9bc48935b5443504e35a59843f17cfd'
p122
sg93
(lp123
g104
ag111
asg95
Nsba(ibclass
BBasicBlock
p124
(dp125
g12
Nsg13
(lp126
(ibclass
BInstr
p127
(dp128
g2
Nsg17
S'cmp     [rbp+end], 0'
p129
sg19
S'48837de000'
p130
sg21
Vcmp qword ptr [rbp - 0x20], 0
p131
sg5
L814209L
sg6
Nsg23
S'cmp'
p132
sg25
S'0xc6c81L'
p133
sg27
Nsba(ibclass
BInstr
p134
(dp135
g2
Nsg17
S'jnz     short loc_C6C92'
p136
sg19
S'750a'
p137
sg21
Vjne 0xc
p138
sg5
L814214L
sg6
Nsg23
S'jnz'
p139
sg25
S'0xc6c86L'
p140
sg27
Nsbasg70
(lp141
S'cmp mem, 0'
p142
aS'jnz func'
p143
asg79
Nsg5
S'0xc6c81L'
p144
sg81
(lp145
S'0xc6c60L'
p146
asg6
Nsg83
(lp147
S'0xc6c88L'
p148
aS'0xc6c92L'
p149
asg87
Nsg88
Nsg89
S'30cb3d6f6a174adfabcde507f6944a52'
p150
sg91
S'98d72118630a4e08156799652c8790e6'
p151
sg93
(lp152
g132
ag139
asg95
Nsba(ibclass
BBasicBlock
p153
(dp154
g12
Nsg13
(lp155
(ibclass
BInstr
p156
(dp157
g2
Nsg17
S'mov     eax, 0'
p158
sg19
S'b800000000'
p159
sg21
Vmov eax, 0
p160
sg5
L814216L
sg6
Nsg23
S'mov'
p161
sg25
S'0xc6c88L'
p162
sg27
Nsba(ibclass
BInstr
p163
(dp164
g2
Nsg17
S'jmp     locret_C6D1F'
p165
sg19
S'e98d000000'
p166
sg21
Vjmp 0x92
p167
sg5
L814221L
sg6
Nsg23
S'jmp'
p168
sg25
S'0xc6c8dL'
p169
sg27
Nsbasg70
(lp170
S'mov reg, 0'
p171
aS'jmp func'
p172
asg79
Nsg5
S'0xc6c88L'
p173
sg81
(lp174
S'0xc6c81L'
p175
asg6
Nsg83
(lp176
S'0xc6d1fL'
p177
asg87
Nsg88
Nsg89
S'8b9a0d40e062be2b9b2d9885108fb196'
p178
sg91
S'b9bc48935b5443504e35a59843f17cfd'
p179
sg93
(lp180
g161
ag168
asg95
Nsba(ibclass
BBasicBlock
p181
(dp182
g12
Nsg13
(lp183
(ibclass
BInstr
p184
(dp185
g2
Nsg17
S'mov     rax, cs:xmlMalloc_ptr'
p186
sg19
S'488b0557812f00'
p187
sg21
Vmov rax, qword ptr [rip + 0x2f8157]
p188
sg5
L814226L
sg6
Nsg23
S'mov'
p189
sg25
S'0xc6c92L'
p190
sg27
Nsba(ibclass
BInstr
p191
(dp192
g2
Nsg17
S'mov     rax, [rax]'
p193
sg19
S'488b00'
p194
sg21
Vmov rax, qword ptr [rax]
p195
sg5
L814233L
sg6
Nsg23
S'mov'
p196
sg25
S'0xc6c99L'
p197
sg27
Nsba(ibclass
BInstr
p198
(dp199
g2
Nsg17
S'mov     edi, 48h'
p200
sg19
S'bf48000000'
p201
sg21
Vmov edi, 0x48
p202
sg5
L814236L
sg6
Nsg23
S'mov'
p203
sg25
S'0xc6c9cL'
p204
sg27
Nsba(ibclass
BInstr
p205
(dp206
g2
Nsg17
S'call    rax'
p207
sg19
S'ffd0'
p208
sg21
Vcall rax
p209
sg5
L814241L
sg6
Nsg23
S'call'
p210
sg25
S'0xc6ca1L'
p211
sg27
Nsba(ibclass
BInstr
p212
(dp213
g2
Nsg17
S'mov     [rbp+ret], rax'
p214
sg19
S'488945f8'
p215
sg21
Vmov qword ptr [rbp - 8], rax
p216
sg5
L814243L
sg6
Nsg23
S'mov'
p217
sg25
S'0xc6ca3L'
p218
sg27
Nsba(ibclass
BInstr
p219
(dp220
g2
Nsg17
S'cmp     [rbp+ret], 0'
p221
sg19
S'48837df800'
p222
sg21
Vcmp qword ptr [rbp - 8], 0
p223
sg5
L814247L
sg6
Nsg23
S'cmp'
p224
sg25
S'0xc6ca7L'
p225
sg27
Nsba(ibclass
BInstr
p226
(dp227
g2
Nsg17
S'jnz     short loc_C6CC1'
p228
sg19
S'7513'
p229
sg21
Vjne 0x15
p230
sg5
L814252L
sg6
Nsg23
S'jnz'
p231
sg25
S'0xc6cacL'
p232
sg27
Nsbasg70
(lp233
S'mov reg, cs:xmlMregloc_ptr'
p234
aS'mov reg, mem'
p235
aS'mov reg, 48h'
p236
aS'cregl reg'
p237
aS'mov mem, reg'
p238
aS'cmp mem, 0'
p239
aS'jnz func'
p240
asg79
Nsg5
S'0xc6c92L'
p241
sg81
(lp242
S'0xc6c81L'
p243
asg6
Nsg83
(lp244
S'0xc6caeL'
p245
aS'0xc6cc1L'
p246
asg87
Nsg88
Nsg89
S'4b92e126ef463a4f8f15195e91fff799'
p247
sg91
S'9febea72f08a54da0312c32f7e064b10'
p248
sg93
(lp249
g189
ag196
ag203
ag210
ag217
ag224
ag231
asg95
Nsba(ibclass
BBasicBlock
p250
(dp251
g12
Nsg13
(lp252
(ibclass
BInstr
p253
(dp254
g2
Nsg17
S'lea     rdi, aAllocatingRang; "allocating range"'
p255
sg19
S'488d3dcbe30b00'
p256
sg21
Vlea rdi, [rip + 0xbe3cb]
p257
sg5
L814254L
sg6
Nsg23
S'lea'
p258
sg25
S'0xc6caeL'
p259
sg27
Nsba(ibclass
BInstr
p260
(dp261
g2
Nsg17
S'call    xmlXPtrErrMemory'
p262
sg19
S'e8c3f5ffff'
p263
sg21
Vcall 0xfffffffffffff5c8
p264
sg5
L814261L
sg6
Nsg23
S'call'
p265
sg25
S'0xc6cb5L'
p266
sg27
Nsba(ibclass
BInstr
p267
(dp268
g2
Nsg17
S'mov     eax, 0'
p269
sg19
S'b800000000'
p270
sg21
Vmov eax, 0
p271
sg5
L814266L
sg6
Nsg23
S'mov'
p272
sg25
S'0xc6cbaL'
p273
sg27
Nsba(ibclass
BInstr
p274
(dp275
g2
Nsg17
S'jmp     short locret_C6D1F'
p276
sg19
S'eb5e'
p277
sg21
Vjmp 0x60
p278
sg5
L814271L
sg6
Nsg23
S'jmp'
p279
sg25
S'0xc6cbfL'
p280
sg27
Nsbasg70
(lp281
S'lea reg, aAllocatingRang'
p282
aS'cregl xmlXPtrErrMemory'
p283
aS'mov reg, 0'
p284
aS'jmp short func'
p285
asg79
Nsg5
S'0xc6caeL'
p286
sg81
(lp287
S'0xc6c92L'
p288
asg6
Nsg83
(lp289
S'0xc6d1fL'
p290
asg87
Nsg88
Nsg89
S'0dc23fd008cf6b8ab05ed1912338b682'
p291
sg91
S'5890bcc1020a02d12ada3a8a58a49381'
p292
sg93
(lp293
g258
ag265
ag272
ag279
asg95
Nsba(ibclass
BBasicBlock
p294
(dp295
g12
Nsg13
(lp296
(ibclass
BInstr
p297
(dp298
g2
Nsg17
S'mov     rax, [rbp+ret]'
p299
sg19
S'488b45f8'
p300
sg21
Vmov rax, qword ptr [rbp - 8]
p301
sg5
L814273L
sg6
Nsg23
S'mov'
p302
sg25
S'0xc6cc1L'
p303
sg27
Nsba(ibclass
BInstr
p304
(dp305
g2
Nsg17
S'mov     edx, 48h        ; n'
p306
sg19
S'ba48000000'
p307
sg21
Vmov edx, 0x48
p308
sg5
L814277L
sg6
Nsg23
S'mov'
p309
sg25
S'0xc6cc5L'
p310
sg27
Nsba(ibclass
BInstr
p311
(dp312
g2
Nsg17
S'mov     esi, 0          ; c'
p313
sg19
S'be00000000'
p314
sg21
Vmov esi, 0
p315
sg5
L814282L
sg6
Nsg23
S'mov'
p316
sg25
S'0xc6ccaL'
p317
sg27
Nsba(ibclass
BInstr
p318
(dp319
g2
Nsg17
S'mov     rdi, rax        ; s'
p320
sg19
S'4889c7'
p321
sg21
Vmov rdi, rax
p322
sg5
L814287L
sg6
Nsg23
S'mov'
p323
sg25
S'0xc6ccfL'
p324
sg27
Nsba(ibclass
BInstr
p325
(dp326
g2
Nsg17
S'call    memset'
p327
sg19
S'e89953f6ff'
p328
sg21
Vcall 0xfffffffffff6539e
p329
sg5
L814290L
sg6
Nsg23
S'call'
p330
sg25
S'0xc6cd2L'
p331
sg27
Nsba(ibclass
BInstr
p332
(dp333
g2
Nsg17
S'mov     rax, [rbp+ret]'
p334
sg19
S'488b45f8'
p335
sg21
Vmov rax, qword ptr [rbp - 8]
p336
sg5
L814295L
sg6
Nsg23
S'mov'
p337
sg25
S'0xc6cd7L'
p338
sg27
Nsba(ibclass
BInstr
p339
(dp340
g2
Nsg17
S'mov     dword ptr [rax], 6'
p341
sg19
S'c70006000000'
p342
sg21
Vmov dword ptr [rax], 6
p343
sg5
L814299L
sg6
Nsg23
S'mov'
p344
sg25
S'0xc6cdbL'
p345
sg27
Nsba(ibclass
BInstr
p346
(dp347
g2
Nsg17
S'mov     rax, [rbp+ret]'
p348
sg19
S'488b45f8'
p349
sg21
Vmov rax, qword ptr [rbp - 8]
p350
sg5
L814305L
sg6
Nsg23
S'mov'
p351
sg25
S'0xc6ce1L'
p352
sg27
Nsba(ibclass
BInstr
p353
(dp354
g2
Nsg17
S'mov     rdx, [rbp+start]'
p355
sg19
S'488b55e8'
p356
sg21
Vmov rdx, qword ptr [rbp - 0x18]
p357
sg5
L814309L
sg6
Nsg23
S'mov'
p358
sg25
S'0xc6ce5L'
p359
sg27
Nsba(ibclass
BInstr
p360
(dp361
g2
Nsg17
S'mov     [rax+28h], rdx'
p362
sg19
S'48895028'
p363
sg21
Vmov qword ptr [rax + 0x28], rdx
p364
sg5
L814313L
sg6
Nsg23
S'mov'
p365
sg25
S'0xc6ce9L'
p366
sg27
Nsba(ibclass
BInstr
p367
(dp368
g2
Nsg17
S'mov     rax, [rbp+ret]'
p369
sg19
S'488b45f8'
p370
sg21
Vmov rax, qword ptr [rbp - 8]
p371
sg5
L814317L
sg6
Nsg23
S'mov'
p372
sg25
S'0xc6cedL'
p373
sg27
Nsba(ibclass
BInstr
p374
(dp375
g2
Nsg17
S'mov     dword ptr [rax+30h], 0FFFFFFFFh'
p376
sg19
S'c74030ffffffff'
p377
sg21
Vmov dword ptr [rax + 0x30], 0xffffffff
p378
sg5
L814321L
sg6
Nsg23
S'mov'
p379
sg25
S'0xc6cf1L'
p380
sg27
Nsba(ibclass
BInstr
p381
(dp382
g2
Nsg17
S'mov     rax, [rbp+ret]'
p383
sg19
S'488b45f8'
p384
sg21
Vmov rax, qword ptr [rbp - 8]
p385
sg5
L814328L
sg6
Nsg23
S'mov'
p386
sg25
S'0xc6cf8L'
p387
sg27
Nsba(ibclass
BInstr
p388
(dp389
g2
Nsg17
S'mov     rdx, [rbp+end]'
p390
sg19
S'488b55e0'
p391
sg21
Vmov rdx, qword ptr [rbp - 0x20]
p392
sg5
L814332L
sg6
Nsg23
S'mov'
p393
sg25
S'0xc6cfcL'
p394
sg27
Nsba(ibclass
BInstr
p395
(dp396
g2
Nsg17
S'mov     [rax+38h], rdx'
p397
sg19
S'48895038'
p398
sg21
Vmov qword ptr [rax + 0x38], rdx
p399
sg5
L814336L
sg6
Nsg23
S'mov'
p400
sg25
S'0xc6d00L'
p401
sg27
Nsba(ibclass
BInstr
p402
(dp403
g2
Nsg17
S'mov     rax, [rbp+ret]'
p404
sg19
S'488b45f8'
p405
sg21
Vmov rax, qword ptr [rbp - 8]
p406
sg5
L814340L
sg6
Nsg23
S'mov'
p407
sg25
S'0xc6d04L'
p408
sg27
Nsba(ibclass
BInstr
p409
(dp410
g2
Nsg17
S'mov     dword ptr [rax+40h], 0FFFFFFFFh'
p411
sg19
S'c74040ffffffff'
p412
sg21
Vmov dword ptr [rax + 0x40], 0xffffffff
p413
sg5
L814344L
sg6
Nsg23
S'mov'
p414
sg25
S'0xc6d08L'
p415
sg27
Nsba(ibclass
BInstr
p416
(dp417
g2
Nsg17
S'mov     rax, [rbp+ret]'
p418
sg19
S'488b45f8'
p419
sg21
Vmov rax, qword ptr [rbp - 8]
p420
sg5
L814351L
sg6
Nsg23
S'mov'
p421
sg25
S'0xc6d0fL'
p422
sg27
Nsba(ibclass
BInstr
p423
(dp424
g2
Nsg17
S'mov     rdi, rax        ; range'
p425
sg19
S'4889c7'
p426
sg21
Vmov rdi, rax
p427
sg5
L814355L
sg6
Nsg23
S'mov'
p428
sg25
S'0xc6d13L'
p429
sg27
Nsba(ibclass
BInstr
p430
(dp431
g2
Nsg17
S'call    xmlXPtrRangeCheckOrder'
p432
sg19
S'e807faffff'
p433
sg21
Vcall 0xfffffffffffffa0c
p434
sg5
L814358L
sg6
Nsg23
S'call'
p435
sg25
S'0xc6d16L'
p436
sg27
Nsba(ibclass
BInstr
p437
(dp438
g2
Nsg17
S'mov     rax, [rbp+ret]'
p439
sg19
S'488b45f8'
p440
sg21
Vmov rax, qword ptr [rbp - 8]
p441
sg5
L814363L
sg6
Nsg23
S'mov'
p442
sg25
S'0xc6d1bL'
p443
sg27
Nsbasg70
(lp444
S'mov reg, mem'
p445
aS'mov reg, 48h'
p446
aS'mov reg, 0'
p447
aS'mov reg, reg'
p448
aS'cregl memset'
p449
aS'mov reg, mem'
p450
aS'mov mem, 6'
p451
aS'mov reg, mem'
p452
aS'mov reg, mem'
p453
aS'mov mem, reg'
p454
aS'mov reg, mem'
p455
aS'mov mem, 0FFFFFFFFh'
p456
aS'mov reg, mem'
p457
aS'mov reg, mem'
p458
aS'mov mem, reg'
p459
aS'mov reg, mem'
p460
aS'mov mem, 0FFFFFFFFh'
p461
aS'mov reg, mem'
p462
aS'mov reg, reg'
p463
aS'cregl xmlXPtrRangeCheckOrder'
p464
aS'mov reg, mem'
p465
asg79
Nsg5
S'0xc6cc1L'
p466
sg81
(lp467
S'0xc6c92L'
p468
asg6
Nsg83
(lp469
S'0xc6d1fL'
p470
asg87
Nsg88
Nsg89
S'c5fd1eaf93da15a0134a192e2e6808e4'
p471
sg91
S'85fe6c71a62d3668dbdfea2630934a8a'
p472
sg93
(lp473
g302
ag309
ag316
ag323
ag330
ag337
ag344
ag351
ag358
ag365
ag372
ag379
ag386
ag393
ag400
ag407
ag414
ag421
ag428
ag435
ag442
asg95
Nsba(ibclass
BBasicBlock
p474
(dp475
g12
Nsg13
(lp476
(ibclass
BInstr
p477
(dp478
g2
Nsg17
S'leave'
p479
sg19
S'c9'
p480
sg21
Vleave 
p481
sg5
L814367L
sg6
Nsg23
S'leave'
p482
sg25
S'0xc6d1fL'
p483
sg27
Nsba(ibclass
BInstr
p484
(dp485
g2
Nsg17
S'retn'
p486
sg19
S'c3'
p487
sg21
Vret 
p488
sg5
L814368L
sg6
Nsg23
S'retn'
p489
sg25
S'0xc6d20L'
p490
sg27
Nsbasg70
(lp491
g479
ag486
asg79
Nsg5
S'0xc6d1fL'
p492
sg81
(lp493
S'0xc6c77L'
p494
aS'0xc6c88L'
p495
aS'0xc6caeL'
p496
aS'0xc6cc1L'
p497
asg6
Nsg83
(lp498
sg87
Nsg88
Nsg89
S'08c78f73a6f87c85da88b2982f54ce2a'
p499
sg91
S'08c78f73a6f87c85da88b2982f54ce2a'
p500
sg93
(lp501
g482
ag489
asg95
Nsbasb.