(ibclass
BFunc
p0
(dp1
S'hash'
p2
NsS'name'
p3
S'xmlXPtrRangesEqual'
p4
sS'start_address'
p5
L814008L
sS'flag'
p6
NsS'program'
p7
NsS'bbs'
p8
(lp9
(ibclass
BBasicBlock
p10
(dp11
S'function'
p12
NsS'binstrs'
p13
(lp14
(ibclass
BInstr
p15
(dp16
g2
NsS'disasm'
p17
S'push    rbp'
p18
sS'bytes'
p19
S'55'
p20
sS'disasm_striped'
p21
Vpush rbp
p22
sg5
L814008L
sg6
NsS'mnem'
p23
S'push'
p24
sS'address'
p25
S'0xc6bb8L'
p26
sS'basicblock'
p27
Nsba(ibclass
BInstr
p28
(dp29
g2
Nsg17
S'mov     rbp, rsp'
p30
sg19
S'4889e5'
p31
sg21
Vmov rbp, rsp
p32
sg5
L814009L
sg6
Nsg23
S'mov'
p33
sg25
S'0xc6bb9L'
p34
sg27
Nsba(ibclass
BInstr
p35
(dp36
g2
Nsg17
S'mov     [rbp+range1], rdi'
p37
sg19
S'48897df8'
p38
sg21
Vmov qword ptr [rbp - 8], rdi
p39
sg5
L814012L
sg6
Nsg23
S'mov'
p40
sg25
S'0xc6bbcL'
p41
sg27
Nsba(ibclass
BInstr
p42
(dp43
g2
Nsg17
S'mov     [rbp+range2], rsi'
p44
sg19
S'488975f0'
p45
sg21
Vmov qword ptr [rbp - 0x10], rsi
p46
sg5
L814016L
sg6
Nsg23
S'mov'
p47
sg25
S'0xc6bc0L'
p48
sg27
Nsba(ibclass
BInstr
p49
(dp50
g2
Nsg17
S'mov     rax, [rbp+range1]'
p51
sg19
S'488b45f8'
p52
sg21
Vmov rax, qword ptr [rbp - 8]
p53
sg5
L814020L
sg6
Nsg23
S'mov'
p54
sg25
S'0xc6bc4L'
p55
sg27
Nsba(ibclass
BInstr
p56
(dp57
g2
Nsg17
S'cmp     rax, [rbp+range2]'
p58
sg19
S'483b45f0'
p59
sg21
Vcmp rax, qword ptr [rbp - 0x10]
p60
sg5
L814024L
sg6
Nsg23
S'cmp'
p61
sg25
S'0xc6bc8L'
p62
sg27
Nsba(ibclass
BInstr
p63
(dp64
g2
Nsg17
S'jnz     short loc_C6BD8'
p65
sg19
S'750a'
p66
sg21
Vjne 0xc
p67
sg5
L814028L
sg6
Nsg23
S'jnz'
p68
sg25
S'0xc6bccL'
p69
sg27
NsbasS'disasm_list'
p70
(lp71
S'push reg'
p72
aS'mov reg, reg'
p73
aS'mov mem, reg'
p74
aS'mov mem, reg'
p75
aS'mov reg, mem'
p76
aS'cmp reg, mem'
p77
aS'jnz func'
p78
asS'end_address'
p79
Nsg5
S'0xc6bb8L'
p80
sS'preds'
p81
(lp82
sg6
NsS'succs'
p83
(lp84
S'0xc6bceL'
p85
aS'0xc6bd8L'
p86
asS'hash_v3'
p87
NsS'flag_v2'
p88
NsS'hash_v1'
p89
S'e0da000e984f003887bdc27a15034ce9'
p90
sS'hash_v2'
p91
S'0e631bd648314cc855f4573c51f0d450'
p92
sS'mnen_list'
p93
(lp94
g24
ag33
ag40
ag47
ag54
ag61
ag68
asS'neighbour_disasm_list'
p95
Nsba(ibclass
BBasicBlock
p96
(dp97
g12
Nsg13
(lp98
(ibclass
BInstr
p99
(dp100
g2
Nsg17
S'mov     eax, 1'
p101
sg19
S'b801000000'
p102
sg21
Vmov eax, 1
p103
sg5
L814030L
sg6
Nsg23
S'mov'
p104
sg25
S'0xc6bceL'
p105
sg27
Nsba(ibclass
BInstr
p106
(dp107
g2
Nsg17
S'jmp     loc_C6C8B'
p108
sg19
S'e9b3000000'
p109
sg21
Vjmp 0xb8
p110
sg5
L814035L
sg6
Nsg23
S'jmp'
p111
sg25
S'0xc6bd3L'
p112
sg27
Nsbasg70
(lp113
S'mov reg, 1'
p114
aS'jmp func'
p115
asg79
Nsg5
S'0xc6bceL'
p116
sg81
(lp117
S'0xc6bb8L'
p118
asg6
Nsg83
(lp119
S'0xc6c8bL'
p120
asg87
Nsg88
Nsg89
S'8b9a0d40e062be2b9b2d9885108fb196'
p121
sg91
S'138154428a4318094842a9eaa284d712'
p122
sg93
(lp123
g104
ag111
asg95
Nsba(ibclass
BBasicBlock
p124
(dp125
g12
Nsg13
(lp126
(ibclass
BInstr
p127
(dp128
g2
Nsg17
S'cmp     [rbp+range1], 0'
p129
sg19
S'48837df800'
p130
sg21
Vcmp qword ptr [rbp - 8], 0
p131
sg5
L814040L
sg6
Nsg23
S'cmp'
p132
sg25
S'0xc6bd8L'
p133
sg27
Nsba(ibclass
BInstr
p134
(dp135
g2
Nsg17
S'jz      short loc_C6BE6'
p136
sg19
S'7407'
p137
sg21
Vje 9
p138
sg5
L814045L
sg6
Nsg23
S'jz'
p139
sg25
S'0xc6bddL'
p140
sg27
Nsbasg70
(lp141
S'cmp mem, 0'
p142
aS'jz func'
p143
asg79
Nsg5
S'0xc6bd8L'
p144
sg81
(lp145
S'0xc6bb8L'
p146
asg6
Nsg83
(lp147
S'0xc6bdfL'
p148
aS'0xc6be6L'
p149
asg87
Nsg88
Nsg89
S'613dbc2b0cb9d6264d802b24d709daea'
p150
sg91
S'7f4ecf78254be39f53e7a11cedd080e9'
p151
sg93
(lp152
g132
ag139
asg95
Nsba(ibclass
BBasicBlock
p153
(dp154
g12
Nsg13
(lp155
(ibclass
BInstr
p156
(dp157
g2
Nsg17
S'cmp     [rbp+range2], 0'
p158
sg19
S'48837df000'
p159
sg21
Vcmp qword ptr [rbp - 0x10], 0
p160
sg5
L814047L
sg6
Nsg23
S'cmp'
p161
sg25
S'0xc6bdfL'
p162
sg27
Nsba(ibclass
BInstr
p163
(dp164
g2
Nsg17
S'jnz     short loc_C6BF0'
p165
sg19
S'750a'
p166
sg21
Vjne 0xc
p167
sg5
L814052L
sg6
Nsg23
S'jnz'
p168
sg25
S'0xc6be4L'
p169
sg27
Nsbasg70
(lp170
S'cmp mem, 0'
p171
aS'jnz func'
p172
asg79
Nsg5
S'0xc6bdfL'
p173
sg81
(lp174
S'0xc6bd8L'
p175
asg6
Nsg83
(lp176
S'0xc6be6L'
p177
aS'0xc6bf0L'
p178
asg87
Nsg88
Nsg89
S'30cb3d6f6a174adfabcde507f6944a52'
p179
sg91
S'98d72118630a4e08156799652c8790e6'
p180
sg93
(lp181
g161
ag168
asg95
Nsba(ibclass
BBasicBlock
p182
(dp183
g12
Nsg13
(lp184
(ibclass
BInstr
p185
(dp186
g2
Nsg17
S'mov     eax, 0'
p187
sg19
S'b800000000'
p188
sg21
Vmov eax, 0
p189
sg5
L814054L
sg6
Nsg23
S'mov'
p190
sg25
S'0xc6be6L'
p191
sg27
Nsba(ibclass
BInstr
p192
(dp193
g2
Nsg17
S'jmp     loc_C6C8B'
p194
sg19
S'e99b000000'
p195
sg21
Vjmp 0xa0
p196
sg5
L814059L
sg6
Nsg23
S'jmp'
p197
sg25
S'0xc6bebL'
p198
sg27
Nsbasg70
(lp199
S'mov reg, 0'
p200
aS'jmp func'
p201
asg79
Nsg5
S'0xc6be6L'
p202
sg81
(lp203
S'0xc6bd8L'
p204
aS'0xc6bdfL'
p205
asg6
Nsg83
(lp206
S'0xc6c8bL'
p207
asg87
Nsg88
Nsg89
S'8b9a0d40e062be2b9b2d9885108fb196'
p208
sg91
S'b9bc48935b5443504e35a59843f17cfd'
p209
sg93
(lp210
g190
ag197
asg95
Nsba(ibclass
BBasicBlock
p211
(dp212
g12
Nsg13
(lp213
(ibclass
BInstr
p214
(dp215
g2
Nsg17
S'mov     rax, [rbp+range1]'
p216
sg19
S'488b45f8'
p217
sg21
Vmov rax, qword ptr [rbp - 8]
p218
sg5
L814064L
sg6
Nsg23
S'mov'
p219
sg25
S'0xc6bf0L'
p220
sg27
Nsba(ibclass
BInstr
p221
(dp222
g2
Nsg17
S'mov     edx, [rax]'
p223
sg19
S'8b10'
p224
sg21
Vmov edx, dword ptr [rax]
p225
sg5
L814068L
sg6
Nsg23
S'mov'
p226
sg25
S'0xc6bf4L'
p227
sg27
Nsba(ibclass
BInstr
p228
(dp229
g2
Nsg17
S'mov     rax, [rbp+range2]'
p230
sg19
S'488b45f0'
p231
sg21
Vmov rax, qword ptr [rbp - 0x10]
p232
sg5
L814070L
sg6
Nsg23
S'mov'
p233
sg25
S'0xc6bf6L'
p234
sg27
Nsba(ibclass
BInstr
p235
(dp236
g2
Nsg17
S'mov     eax, [rax]'
p237
sg19
S'8b00'
p238
sg21
Vmov eax, dword ptr [rax]
p239
sg5
L814074L
sg6
Nsg23
S'mov'
p240
sg25
S'0xc6bfaL'
p241
sg27
Nsba(ibclass
BInstr
p242
(dp243
g2
Nsg17
S'cmp     edx, eax'
p244
sg19
S'39c2'
p245
sg21
Vcmp edx, eax
p246
sg5
L814076L
sg6
Nsg23
S'cmp'
p247
sg25
S'0xc6bfcL'
p248
sg27
Nsba(ibclass
BInstr
p249
(dp250
g2
Nsg17
S'jz      short loc_C6C0A'
p251
sg19
S'740a'
p252
sg21
Vje 0xc
p253
sg5
L814078L
sg6
Nsg23
S'jz'
p254
sg25
S'0xc6bfeL'
p255
sg27
Nsbasg70
(lp256
S'mov reg, mem'
p257
aS'mov reg, mem'
p258
aS'mov reg, mem'
p259
aS'mov reg, mem'
p260
aS'cmp reg, reg'
p261
aS'jz func'
p262
asg79
Nsg5
S'0xc6bf0L'
p263
sg81
(lp264
S'0xc6bdfL'
p265
asg6
Nsg83
(lp266
S'0xc6c00L'
p267
aS'0xc6c0aL'
p268
asg87
Nsg88
Nsg89
S'dce3f9856ba3a5e0148d88810ed6ccab'
p269
sg91
S'3391de36d0ffb6a93f45ede2787389b6'
p270
sg93
(lp271
g219
ag226
ag233
ag240
ag247
ag254
asg95
Nsba(ibclass
BBasicBlock
p272
(dp273
g12
Nsg13
(lp274
(ibclass
BInstr
p275
(dp276
g2
Nsg17
S'mov     eax, 0'
p277
sg19
S'b800000000'
p278
sg21
Vmov eax, 0
p279
sg5
L814080L
sg6
Nsg23
S'mov'
p280
sg25
S'0xc6c00L'
p281
sg27
Nsba(ibclass
BInstr
p282
(dp283
g2
Nsg17
S'jmp     loc_C6C8B'
p284
sg19
S'e981000000'
p285
sg21
Vjmp 0x86
p286
sg5
L814085L
sg6
Nsg23
S'jmp'
p287
sg25
S'0xc6c05L'
p288
sg27
Nsbasg70
(lp289
S'mov reg, 0'
p290
aS'jmp func'
p291
asg79
Nsg5
S'0xc6c00L'
p292
sg81
(lp293
S'0xc6bf0L'
p294
asg6
Nsg83
(lp295
S'0xc6c8bL'
p296
asg87
Nsg88
Nsg89
S'8b9a0d40e062be2b9b2d9885108fb196'
p297
sg91
S'b9bc48935b5443504e35a59843f17cfd'
p298
sg93
(lp299
g280
ag287
asg95
Nsba(ibclass
BBasicBlock
p300
(dp301
g12
Nsg13
(lp302
(ibclass
BInstr
p303
(dp304
g2
Nsg17
S'mov     rax, [rbp+range1]'
p305
sg19
S'488b45f8'
p306
sg21
Vmov rax, qword ptr [rbp - 8]
p307
sg5
L814090L
sg6
Nsg23
S'mov'
p308
sg25
S'0xc6c0aL'
p309
sg27
Nsba(ibclass
BInstr
p310
(dp311
g2
Nsg17
S'mov     eax, [rax]'
p312
sg19
S'8b00'
p313
sg21
Vmov eax, dword ptr [rax]
p314
sg5
L814094L
sg6
Nsg23
S'mov'
p315
sg25
S'0xc6c0eL'
p316
sg27
Nsba(ibclass
BInstr
p317
(dp318
g2
Nsg17
S'cmp     eax, 6'
p319
sg19
S'83f806'
p320
sg21
Vcmp eax, 6
p321
sg5
L814096L
sg6
Nsg23
S'cmp'
p322
sg25
S'0xc6c10L'
p323
sg27
Nsba(ibclass
BInstr
p324
(dp325
g2
Nsg17
S'jz      short loc_C6C1C'
p326
sg19
S'7407'
p327
sg21
Vje 9
p328
sg5
L814099L
sg6
Nsg23
S'jz'
p329
sg25
S'0xc6c13L'
p330
sg27
Nsbasg70
(lp331
S'mov reg, mem'
p332
aS'mov reg, mem'
p333
aS'cmp reg, 6'
p334
aS'jz func'
p335
asg79
Nsg5
S'0xc6c0aL'
p336
sg81
(lp337
S'0xc6bf0L'
p338
asg6
Nsg83
(lp339
S'0xc6c15L'
p340
aS'0xc6c1cL'
p341
asg87
Nsg88
Nsg89
S'db7f0dec7b6480d765a2fb1483cb9e16'
p342
sg91
S'2cc63182e09ee96785a2356d22d632d1'
p343
sg93
(lp344
g308
ag315
ag322
ag329
asg95
Nsba(ibclass
BBasicBlock
p345
(dp346
g12
Nsg13
(lp347
(ibclass
BInstr
p348
(dp349
g2
Nsg17
S'mov     eax, 0'
p350
sg19
S'b800000000'
p351
sg21
Vmov eax, 0
p352
sg5
L814101L
sg6
Nsg23
S'mov'
p353
sg25
S'0xc6c15L'
p354
sg27
Nsba(ibclass
BInstr
p355
(dp356
g2
Nsg17
S'jmp     short loc_C6C8B'
p357
sg19
S'eb6f'
p358
sg21
Vjmp 0x71
p359
sg5
L814106L
sg6
Nsg23
S'jmp'
p360
sg25
S'0xc6c1aL'
p361
sg27
Nsbasg70
(lp362
S'mov reg, 0'
p363
aS'jmp func'
p364
asg79
Nsg5
S'0xc6c15L'
p365
sg81
(lp366
S'0xc6c0aL'
p367
asg6
Nsg83
(lp368
S'0xc6c8bL'
p369
asg87
Nsg88
Nsg89
S'8b9a0d40e062be2b9b2d9885108fb196'
p370
sg91
S'b9bc48935b5443504e35a59843f17cfd'
p371
sg93
(lp372
g353
ag360
asg95
Nsba(ibclass
BBasicBlock
p373
(dp374
g12
Nsg13
(lp375
(ibclass
BInstr
p376
(dp377
g2
Nsg17
S'mov     rax, [rbp+range1]'
p378
sg19
S'488b45f8'
p379
sg21
Vmov rax, qword ptr [rbp - 8]
p380
sg5
L814108L
sg6
Nsg23
S'mov'
p381
sg25
S'0xc6c1cL'
p382
sg27
Nsba(ibclass
BInstr
p383
(dp384
g2
Nsg17
S'mov     rdx, [rax+28h]'
p385
sg19
S'488b5028'
p386
sg21
Vmov rdx, qword ptr [rax + 0x28]
p387
sg5
L814112L
sg6
Nsg23
S'mov'
p388
sg25
S'0xc6c20L'
p389
sg27
Nsba(ibclass
BInstr
p390
(dp391
g2
Nsg17
S'mov     rax, [rbp+range2]'
p392
sg19
S'488b45f0'
p393
sg21
Vmov rax, qword ptr [rbp - 0x10]
p394
sg5
L814116L
sg6
Nsg23
S'mov'
p395
sg25
S'0xc6c24L'
p396
sg27
Nsba(ibclass
BInstr
p397
(dp398
g2
Nsg17
S'mov     rax, [rax+28h]'
p399
sg19
S'488b4028'
p400
sg21
Vmov rax, qword ptr [rax + 0x28]
p401
sg5
L814120L
sg6
Nsg23
S'mov'
p402
sg25
S'0xc6c28L'
p403
sg27
Nsba(ibclass
BInstr
p404
(dp405
g2
Nsg17
S'cmp     rdx, rax'
p406
sg19
S'4839c2'
p407
sg21
Vcmp rdx, rax
p408
sg5
L814124L
sg6
Nsg23
S'cmp'
p409
sg25
S'0xc6c2cL'
p410
sg27
Nsba(ibclass
BInstr
p411
(dp412
g2
Nsg17
S'jz      short loc_C6C38'
p413
sg19
S'7407'
p414
sg21
Vje 9
p415
sg5
L814127L
sg6
Nsg23
S'jz'
p416
sg25
S'0xc6c2fL'
p417
sg27
Nsbasg70
(lp418
S'mov reg, mem'
p419
aS'mov reg, mem'
p420
aS'mov reg, mem'
p421
aS'mov reg, mem'
p422
aS'cmp reg, reg'
p423
aS'jz func'
p424
asg79
Nsg5
S'0xc6c1cL'
p425
sg81
(lp426
S'0xc6c0aL'
p427
asg6
Nsg83
(lp428
S'0xc6c31L'
p429
aS'0xc6c38L'
p430
asg87
Nsg88
Nsg89
S'dce3f9856ba3a5e0148d88810ed6ccab'
p431
sg91
S'3391de36d0ffb6a93f45ede2787389b6'
p432
sg93
(lp433
g381
ag388
ag395
ag402
ag409
ag416
asg95
Nsba(ibclass
BBasicBlock
p434
(dp435
g12
Nsg13
(lp436
(ibclass
BInstr
p437
(dp438
g2
Nsg17
S'mov     eax, 0'
p439
sg19
S'b800000000'
p440
sg21
Vmov eax, 0
p441
sg5
L814129L
sg6
Nsg23
S'mov'
p442
sg25
S'0xc6c31L'
p443
sg27
Nsba(ibclass
BInstr
p444
(dp445
g2
Nsg17
S'jmp     short loc_C6C8B'
p446
sg19
S'eb53'
p447
sg21
Vjmp 0x55
p448
sg5
L814134L
sg6
Nsg23
S'jmp'
p449
sg25
S'0xc6c36L'
p450
sg27
Nsbasg70
(lp451
S'mov reg, 0'
p452
aS'jmp func'
p453
asg79
Nsg5
S'0xc6c31L'
p454
sg81
(lp455
S'0xc6c1cL'
p456
asg6
Nsg83
(lp457
S'0xc6c8bL'
p458
asg87
Nsg88
Nsg89
S'8b9a0d40e062be2b9b2d9885108fb196'
p459
sg91
S'b9bc48935b5443504e35a59843f17cfd'
p460
sg93
(lp461
g442
ag449
asg95
Nsba(ibclass
BBasicBlock
p462
(dp463
g12
Nsg13
(lp464
(ibclass
BInstr
p465
(dp466
g2
Nsg17
S'mov     rax, [rbp+range1]'
p467
sg19
S'488b45f8'
p468
sg21
Vmov rax, qword ptr [rbp - 8]
p469
sg5
L814136L
sg6
Nsg23
S'mov'
p470
sg25
S'0xc6c38L'
p471
sg27
Nsba(ibclass
BInstr
p472
(dp473
g2
Nsg17
S'mov     edx, [rax+30h]'
p474
sg19
S'8b5030'
p475
sg21
Vmov edx, dword ptr [rax + 0x30]
p476
sg5
L814140L
sg6
Nsg23
S'mov'
p477
sg25
S'0xc6c3cL'
p478
sg27
Nsba(ibclass
BInstr
p479
(dp480
g2
Nsg17
S'mov     rax, [rbp+range2]'
p481
sg19
S'488b45f0'
p482
sg21
Vmov rax, qword ptr [rbp - 0x10]
p483
sg5
L814143L
sg6
Nsg23
S'mov'
p484
sg25
S'0xc6c3fL'
p485
sg27
Nsba(ibclass
BInstr
p486
(dp487
g2
Nsg17
S'mov     eax, [rax+30h]'
p488
sg19
S'8b4030'
p489
sg21
Vmov eax, dword ptr [rax + 0x30]
p490
sg5
L814147L
sg6
Nsg23
S'mov'
p491
sg25
S'0xc6c43L'
p492
sg27
Nsba(ibclass
BInstr
p493
(dp494
g2
Nsg17
S'cmp     edx, eax'
p495
sg19
S'39c2'
p496
sg21
Vcmp edx, eax
p497
sg5
L814150L
sg6
Nsg23
S'cmp'
p498
sg25
S'0xc6c46L'
p499
sg27
Nsba(ibclass
BInstr
p500
(dp501
g2
Nsg17
S'jz      short loc_C6C51'
p502
sg19
S'7407'
p503
sg21
Vje 9
p504
sg5
L814152L
sg6
Nsg23
S'jz'
p505
sg25
S'0xc6c48L'
p506
sg27
Nsbasg70
(lp507
S'mov reg, mem'
p508
aS'mov reg, mem'
p509
aS'mov reg, mem'
p510
aS'mov reg, mem'
p511
aS'cmp reg, reg'
p512
aS'jz func'
p513
asg79
Nsg5
S'0xc6c38L'
p514
sg81
(lp515
S'0xc6c1cL'
p516
asg6
Nsg83
(lp517
S'0xc6c4aL'
p518
aS'0xc6c51L'
p519
asg87
Nsg88
Nsg89
S'dce3f9856ba3a5e0148d88810ed6ccab'
p520
sg91
S'3391de36d0ffb6a93f45ede2787389b6'
p521
sg93
(lp522
g470
ag477
ag484
ag491
ag498
ag505
asg95
Nsba(ibclass
BBasicBlock
p523
(dp524
g12
Nsg13
(lp525
(ibclass
BInstr
p526
(dp527
g2
Nsg17
S'mov     eax, 0'
p528
sg19
S'b800000000'
p529
sg21
Vmov eax, 0
p530
sg5
L814154L
sg6
Nsg23
S'mov'
p531
sg25
S'0xc6c4aL'
p532
sg27
Nsba(ibclass
BInstr
p533
(dp534
g2
Nsg17
S'jmp     short loc_C6C8B'
p535
sg19
S'eb3a'
p536
sg21
Vjmp 0x3c
p537
sg5
L814159L
sg6
Nsg23
S'jmp'
p538
sg25
S'0xc6c4fL'
p539
sg27
Nsbasg70
(lp540
S'mov reg, 0'
p541
aS'jmp func'
p542
asg79
Nsg5
S'0xc6c4aL'
p543
sg81
(lp544
S'0xc6c38L'
p545
asg6
Nsg83
(lp546
S'0xc6c8bL'
p547
asg87
Nsg88
Nsg89
S'8b9a0d40e062be2b9b2d9885108fb196'
p548
sg91
S'b9bc48935b5443504e35a59843f17cfd'
p549
sg93
(lp550
g531
ag538
asg95
Nsba(ibclass
BBasicBlock
p551
(dp552
g12
Nsg13
(lp553
(ibclass
BInstr
p554
(dp555
g2
Nsg17
S'mov     rax, [rbp+range1]'
p556
sg19
S'488b45f8'
p557
sg21
Vmov rax, qword ptr [rbp - 8]
p558
sg5
L814161L
sg6
Nsg23
S'mov'
p559
sg25
S'0xc6c51L'
p560
sg27
Nsba(ibclass
BInstr
p561
(dp562
g2
Nsg17
S'mov     rdx, [rax+38h]'
p563
sg19
S'488b5038'
p564
sg21
Vmov rdx, qword ptr [rax + 0x38]
p565
sg5
L814165L
sg6
Nsg23
S'mov'
p566
sg25
S'0xc6c55L'
p567
sg27
Nsba(ibclass
BInstr
p568
(dp569
g2
Nsg17
S'mov     rax, [rbp+range2]'
p570
sg19
S'488b45f0'
p571
sg21
Vmov rax, qword ptr [rbp - 0x10]
p572
sg5
L814169L
sg6
Nsg23
S'mov'
p573
sg25
S'0xc6c59L'
p574
sg27
Nsba(ibclass
BInstr
p575
(dp576
g2
Nsg17
S'mov     rax, [rax+38h]'
p577
sg19
S'488b4038'
p578
sg21
Vmov rax, qword ptr [rax + 0x38]
p579
sg5
L814173L
sg6
Nsg23
S'mov'
p580
sg25
S'0xc6c5dL'
p581
sg27
Nsba(ibclass
BInstr
p582
(dp583
g2
Nsg17
S'cmp     rdx, rax'
p584
sg19
S'4839c2'
p585
sg21
Vcmp rdx, rax
p586
sg5
L814177L
sg6
Nsg23
S'cmp'
p587
sg25
S'0xc6c61L'
p588
sg27
Nsba(ibclass
BInstr
p589
(dp590
g2
Nsg17
S'jz      short loc_C6C6D'
p591
sg19
S'7407'
p592
sg21
Vje 9
p593
sg5
L814180L
sg6
Nsg23
S'jz'
p594
sg25
S'0xc6c64L'
p595
sg27
Nsbasg70
(lp596
S'mov reg, mem'
p597
aS'mov reg, mem'
p598
aS'mov reg, mem'
p599
aS'mov reg, mem'
p600
aS'cmp reg, reg'
p601
aS'jz func'
p602
asg79
Nsg5
S'0xc6c51L'
p603
sg81
(lp604
S'0xc6c38L'
p605
asg6
Nsg83
(lp606
S'0xc6c66L'
p607
aS'0xc6c6dL'
p608
asg87
Nsg88
Nsg89
S'dce3f9856ba3a5e0148d88810ed6ccab'
p609
sg91
S'3391de36d0ffb6a93f45ede2787389b6'
p610
sg93
(lp611
g559
ag566
ag573
ag580
ag587
ag594
asg95
Nsba(ibclass
BBasicBlock
p612
(dp613
g12
Nsg13
(lp614
(ibclass
BInstr
p615
(dp616
g2
Nsg17
S'mov     eax, 0'
p617
sg19
S'b800000000'
p618
sg21
Vmov eax, 0
p619
sg5
L814182L
sg6
Nsg23
S'mov'
p620
sg25
S'0xc6c66L'
p621
sg27
Nsba(ibclass
BInstr
p622
(dp623
g2
Nsg17
S'jmp     short loc_C6C8B'
p624
sg19
S'eb1e'
p625
sg21
Vjmp 0x20
p626
sg5
L814187L
sg6
Nsg23
S'jmp'
p627
sg25
S'0xc6c6bL'
p628
sg27
Nsbasg70
(lp629
S'mov reg, 0'
p630
aS'jmp func'
p631
asg79
Nsg5
S'0xc6c66L'
p632
sg81
(lp633
S'0xc6c51L'
p634
asg6
Nsg83
(lp635
S'0xc6c8bL'
p636
asg87
Nsg88
Nsg89
S'8b9a0d40e062be2b9b2d9885108fb196'
p637
sg91
S'b9bc48935b5443504e35a59843f17cfd'
p638
sg93
(lp639
g620
ag627
asg95
Nsba(ibclass
BBasicBlock
p640
(dp641
g12
Nsg13
(lp642
(ibclass
BInstr
p643
(dp644
g2
Nsg17
S'mov     rax, [rbp+range1]'
p645
sg19
S'488b45f8'
p646
sg21
Vmov rax, qword ptr [rbp - 8]
p647
sg5
L814189L
sg6
Nsg23
S'mov'
p648
sg25
S'0xc6c6dL'
p649
sg27
Nsba(ibclass
BInstr
p650
(dp651
g2
Nsg17
S'mov     edx, [rax+40h]'
p652
sg19
S'8b5040'
p653
sg21
Vmov edx, dword ptr [rax + 0x40]
p654
sg5
L814193L
sg6
Nsg23
S'mov'
p655
sg25
S'0xc6c71L'
p656
sg27
Nsba(ibclass
BInstr
p657
(dp658
g2
Nsg17
S'mov     rax, [rbp+range2]'
p659
sg19
S'488b45f0'
p660
sg21
Vmov rax, qword ptr [rbp - 0x10]
p661
sg5
L814196L
sg6
Nsg23
S'mov'
p662
sg25
S'0xc6c74L'
p663
sg27
Nsba(ibclass
BInstr
p664
(dp665
g2
Nsg17
S'mov     eax, [rax+40h]'
p666
sg19
S'8b4040'
p667
sg21
Vmov eax, dword ptr [rax + 0x40]
p668
sg5
L814200L
sg6
Nsg23
S'mov'
p669
sg25
S'0xc6c78L'
p670
sg27
Nsba(ibclass
BInstr
p671
(dp672
g2
Nsg17
S'cmp     edx, eax'
p673
sg19
S'39c2'
p674
sg21
Vcmp edx, eax
p675
sg5
L814203L
sg6
Nsg23
S'cmp'
p676
sg25
S'0xc6c7bL'
p677
sg27
Nsba(ibclass
BInstr
p678
(dp679
g2
Nsg17
S'jz      short loc_C6C86'
p680
sg19
S'7407'
p681
sg21
Vje 9
p682
sg5
L814205L
sg6
Nsg23
S'jz'
p683
sg25
S'0xc6c7dL'
p684
sg27
Nsbasg70
(lp685
S'mov reg, mem'
p686
aS'mov reg, mem'
p687
aS'mov reg, mem'
p688
aS'mov reg, mem'
p689
aS'cmp reg, reg'
p690
aS'jz func'
p691
asg79
Nsg5
S'0xc6c6dL'
p692
sg81
(lp693
S'0xc6c51L'
p694
asg6
Nsg83
(lp695
S'0xc6c7fL'
p696
aS'0xc6c86L'
p697
asg87
Nsg88
Nsg89
S'dce3f9856ba3a5e0148d88810ed6ccab'
p698
sg91
S'3391de36d0ffb6a93f45ede2787389b6'
p699
sg93
(lp700
g648
ag655
ag662
ag669
ag676
ag683
asg95
Nsba(ibclass
BBasicBlock
p701
(dp702
g12
Nsg13
(lp703
(ibclass
BInstr
p704
(dp705
g2
Nsg17
S'mov     eax, 0'
p706
sg19
S'b800000000'
p707
sg21
Vmov eax, 0
p708
sg5
L814207L
sg6
Nsg23
S'mov'
p709
sg25
S'0xc6c7fL'
p710
sg27
Nsba(ibclass
BInstr
p711
(dp712
g2
Nsg17
S'jmp     short loc_C6C8B'
p713
sg19
S'eb05'
p714
sg21
Vjmp 7
p715
sg5
L814212L
sg6
Nsg23
S'jmp'
p716
sg25
S'0xc6c84L'
p717
sg27
Nsbasg70
(lp718
S'mov reg, 0'
p719
aS'jmp func'
p720
asg79
Nsg5
S'0xc6c7fL'
p721
sg81
(lp722
S'0xc6c6dL'
p723
asg6
Nsg83
(lp724
S'0xc6c8bL'
p725
asg87
Nsg88
Nsg89
S'8b9a0d40e062be2b9b2d9885108fb196'
p726
sg91
S'b9bc48935b5443504e35a59843f17cfd'
p727
sg93
(lp728
g709
ag716
asg95
Nsba(ibclass
BBasicBlock
p729
(dp730
g12
Nsg13
(lp731
(ibclass
BInstr
p732
(dp733
g2
Nsg17
S'mov     eax, 1'
p734
sg19
S'b801000000'
p735
sg21
Vmov eax, 1
p736
sg5
L814214L
sg6
Nsg23
S'mov'
p737
sg25
S'0xc6c86L'
p738
sg27
Nsbasg70
(lp739
S'mov reg, 1'
p740
asg79
Nsg5
S'0xc6c86L'
p741
sg81
(lp742
S'0xc6c6dL'
p743
asg6
Nsg83
(lp744
S'0xc6c8bL'
p745
asg87
Nsg88
Nsg89
S'96a4a0e6e9ac88756a0fcba989d0a844'
p746
sg91
S'ad808d1693d1d0ca6e7b37fb755f4c8d'
p747
sg93
(lp748
g737
asg95
Nsba(ibclass
BBasicBlock
p749
(dp750
g12
Nsg13
(lp751
(ibclass
BInstr
p752
(dp753
g2
Nsg17
S'pop     rbp'
p754
sg19
S'5d'
p755
sg21
Vpop rbp
p756
sg5
L814219L
sg6
Nsg23
S'pop'
p757
sg25
S'0xc6c8bL'
p758
sg27
Nsba(ibclass
BInstr
p759
(dp760
g2
Nsg17
S'retn'
p761
sg19
S'c3'
p762
sg21
Vret 
p763
sg5
L814220L
sg6
Nsg23
S'retn'
p764
sg25
S'0xc6c8cL'
p765
sg27
Nsbasg70
(lp766
S'pop reg'
p767
ag761
asg79
Nsg5
S'0xc6c8bL'
p768
sg81
(lp769
S'0xc6bceL'
p770
aS'0xc6be6L'
p771
aS'0xc6c00L'
p772
aS'0xc6c15L'
p773
aS'0xc6c31L'
p774
aS'0xc6c4aL'
p775
aS'0xc6c66L'
p776
aS'0xc6c7fL'
p777
aS'0xc6c86L'
p778
asg6
Nsg83
(lp779
sg87
Nsg88
Nsg89
S'959e63ef7de005c3fd9b9535d382f6e9'
p780
sg91
S'df18ccc3a463eb745e1dbccf1a3cede3'
p781
sg93
(lp782
g757
ag764
asg95
Nsbasb.