(ibclass
BFunc
p0
(dp1
S'hash'
p2
NsS'name'
p3
S'xmlXPtrNewRangeNodePoint__internal_alias'
p4
sS'start_address'
p5
L814920L
sS'flag'
p6
NsS'program'
p7
NsS'bbs'
p8
(lp9
(ibclass
BBasicBlock
p10
(dp11
S'function'
p12
NsS'binstrs'
p13
(lp14
(ibclass
BInstr
p15
(dp16
g2
NsS'disasm'
p17
S"push    rbp             ; Alternative name is 'xmlXPtrNewRangeNodePoint'"
p18
sS'bytes'
p19
S'55'
p20
sS'disasm_striped'
p21
Vpush rbp
p22
sg5
L814920L
sg6
NsS'mnem'
p23
S'push'
p24
sS'address'
p25
S'0xc6f48L'
p26
sS'basicblock'
p27
Nsba(ibclass
BInstr
p28
(dp29
g2
Nsg17
S'mov     rbp, rsp'
p30
sg19
S'4889e5'
p31
sg21
Vmov rbp, rsp
p32
sg5
L814921L
sg6
Nsg23
S'mov'
p33
sg25
S'0xc6f49L'
p34
sg27
Nsba(ibclass
BInstr
p35
(dp36
g2
Nsg17
S'sub     rsp, 20h'
p37
sg19
S'4883ec20'
p38
sg21
Vsub rsp, 0x20
p39
sg5
L814924L
sg6
Nsg23
S'sub'
p40
sg25
S'0xc6f4cL'
p41
sg27
Nsba(ibclass
BInstr
p42
(dp43
g2
Nsg17
S'mov     [rbp+start], rdi'
p44
sg19
S'48897de8'
p45
sg21
Vmov qword ptr [rbp - 0x18], rdi
p46
sg5
L814928L
sg6
Nsg23
S'mov'
p47
sg25
S'0xc6f50L'
p48
sg27
Nsba(ibclass
BInstr
p49
(dp50
g2
Nsg17
S'mov     [rbp+end], rsi'
p51
sg19
S'488975e0'
p52
sg21
Vmov qword ptr [rbp - 0x20], rsi
p53
sg5
L814932L
sg6
Nsg23
S'mov'
p54
sg25
S'0xc6f54L'
p55
sg27
Nsba(ibclass
BInstr
p56
(dp57
g2
Nsg17
S'cmp     [rbp+start], 0'
p58
sg19
S'48837de800'
p59
sg21
Vcmp qword ptr [rbp - 0x18], 0
p60
sg5
L814936L
sg6
Nsg23
S'cmp'
p61
sg25
S'0xc6f58L'
p62
sg27
Nsba(ibclass
BInstr
p63
(dp64
g2
Nsg17
S'jnz     short loc_C6F69'
p65
sg19
S'750a'
p66
sg21
Vjne 0xc
p67
sg5
L814941L
sg6
Nsg23
S'jnz'
p68
sg25
S'0xc6f5dL'
p69
sg27
NsbasS'disasm_list'
p70
(lp71
S'push reg'
p72
aS'mov reg, reg'
p73
aS'sub reg, 20h'
p74
aS'mov mem, reg'
p75
aS'mov mem, reg'
p76
aS'cmp mem, 0'
p77
aS'jnz func'
p78
asS'end_address'
p79
Nsg5
S'0xc6f48L'
p80
sS'preds'
p81
(lp82
sg6
NsS'succs'
p83
(lp84
S'0xc6f5fL'
p85
aS'0xc6f69L'
p86
asS'hash_v3'
p87
NsS'flag_v2'
p88
NsS'hash_v1'
p89
S'190746cc36f798dfde6210eda659205d'
p90
sS'hash_v2'
p91
S'2e7f596d4a0758263f9e8a8af8cfb558'
p92
sS'mnen_list'
p93
(lp94
g24
ag33
ag40
ag47
ag54
ag61
ag68
asS'neighbour_disasm_list'
p95
Nsba(ibclass
BBasicBlock
p96
(dp97
g12
Nsg13
(lp98
(ibclass
BInstr
p99
(dp100
g2
Nsg17
S'mov     eax, 0'
p101
sg19
S'b800000000'
p102
sg21
Vmov eax, 0
p103
sg5
L814943L
sg6
Nsg23
S'mov'
p104
sg25
S'0xc6f5fL'
p105
sg27
Nsba(ibclass
BInstr
p106
(dp107
g2
Nsg17
S'jmp     locret_C7039'
p108
sg19
S'e9d0000000'
p109
sg21
Vjmp 0xd5
p110
sg5
L814948L
sg6
Nsg23
S'jmp'
p111
sg25
S'0xc6f64L'
p112
sg27
Nsbasg70
(lp113
S'mov reg, 0'
p114
aS'jmp func'
p115
asg79
Nsg5
S'0xc6f5fL'
p116
sg81
(lp117
S'0xc6f48L'
p118
asg6
Nsg83
(lp119
S'0xc7039L'
p120
asg87
Nsg88
Nsg89
S'8b9a0d40e062be2b9b2d9885108fb196'
p121
sg91
S'b9bc48935b5443504e35a59843f17cfd'
p122
sg93
(lp123
g104
ag111
asg95
Nsba(ibclass
BBasicBlock
p124
(dp125
g12
Nsg13
(lp126
(ibclass
BInstr
p127
(dp128
g2
Nsg17
S'cmp     [rbp+end], 0'
p129
sg19
S'48837de000'
p130
sg21
Vcmp qword ptr [rbp - 0x20], 0
p131
sg5
L814953L
sg6
Nsg23
S'cmp'
p132
sg25
S'0xc6f69L'
p133
sg27
Nsba(ibclass
BInstr
p134
(dp135
g2
Nsg17
S'jnz     short loc_C6F7A'
p136
sg19
S'750a'
p137
sg21
Vjne 0xc
p138
sg5
L814958L
sg6
Nsg23
S'jnz'
p139
sg25
S'0xc6f6eL'
p140
sg27
Nsbasg70
(lp141
S'cmp mem, 0'
p142
aS'jnz func'
p143
asg79
Nsg5
S'0xc6f69L'
p144
sg81
(lp145
S'0xc6f48L'
p146
asg6
Nsg83
(lp147
S'0xc6f70L'
p148
aS'0xc6f7aL'
p149
asg87
Nsg88
Nsg89
S'30cb3d6f6a174adfabcde507f6944a52'
p150
sg91
S'98d72118630a4e08156799652c8790e6'
p151
sg93
(lp152
g132
ag139
asg95
Nsba(ibclass
BBasicBlock
p153
(dp154
g12
Nsg13
(lp155
(ibclass
BInstr
p156
(dp157
g2
Nsg17
S'mov     eax, 0'
p158
sg19
S'b800000000'
p159
sg21
Vmov eax, 0
p160
sg5
L814960L
sg6
Nsg23
S'mov'
p161
sg25
S'0xc6f70L'
p162
sg27
Nsba(ibclass
BInstr
p163
(dp164
g2
Nsg17
S'jmp     locret_C7039'
p165
sg19
S'e9bf000000'
p166
sg21
Vjmp 0xc4
p167
sg5
L814965L
sg6
Nsg23
S'jmp'
p168
sg25
S'0xc6f75L'
p169
sg27
Nsbasg70
(lp170
S'mov reg, 0'
p171
aS'jmp func'
p172
asg79
Nsg5
S'0xc6f70L'
p173
sg81
(lp174
S'0xc6f69L'
p175
asg6
Nsg83
(lp176
S'0xc7039L'
p177
asg87
Nsg88
Nsg89
S'8b9a0d40e062be2b9b2d9885108fb196'
p178
sg91
S'b9bc48935b5443504e35a59843f17cfd'
p179
sg93
(lp180
g161
ag168
asg95
Nsba(ibclass
BBasicBlock
p181
(dp182
g12
Nsg13
(lp183
(ibclass
BInstr
p184
(dp185
g2
Nsg17
S'mov     rax, [rbp+start]'
p186
sg19
S'488b45e8'
p187
sg21
Vmov rax, qword ptr [rbp - 0x18]
p188
sg5
L814970L
sg6
Nsg23
S'mov'
p189
sg25
S'0xc6f7aL'
p190
sg27
Nsba(ibclass
BInstr
p191
(dp192
g2
Nsg17
S'mov     eax, [rax+8]'
p193
sg19
S'8b4008'
p194
sg21
Vmov eax, dword ptr [rax + 8]
p195
sg5
L814974L
sg6
Nsg23
S'mov'
p196
sg25
S'0xc6f7eL'
p197
sg27
Nsba(ibclass
BInstr
p198
(dp199
g2
Nsg17
S'cmp     eax, 5'
p200
sg19
S'83f805'
p201
sg21
Vcmp eax, 5
p202
sg5
L814977L
sg6
Nsg23
S'cmp'
p203
sg25
S'0xc6f81L'
p204
sg27
Nsba(ibclass
BInstr
p205
(dp206
g2
Nsg17
S'jz      short loc_C6F90'
p207
sg19
S'740a'
p208
sg21
Vje 0xc
p209
sg5
L814980L
sg6
Nsg23
S'jz'
p210
sg25
S'0xc6f84L'
p211
sg27
Nsbasg70
(lp212
S'mov reg, mem'
p213
aS'mov reg, mem'
p214
aS'cmp reg, 5'
p215
aS'jz func'
p216
asg79
Nsg5
S'0xc6f7aL'
p217
sg81
(lp218
S'0xc6f69L'
p219
asg6
Nsg83
(lp220
S'0xc6f86L'
p221
aS'0xc6f90L'
p222
asg87
Nsg88
Nsg89
S'db7f0dec7b6480d765a2fb1483cb9e16'
p223
sg91
S'9a7d257313969f3e11d235a50a2a93ed'
p224
sg93
(lp225
g189
ag196
ag203
ag210
asg95
Nsba(ibclass
BBasicBlock
p226
(dp227
g12
Nsg13
(lp228
(ibclass
BInstr
p229
(dp230
g2
Nsg17
S'mov     eax, 0'
p231
sg19
S'b800000000'
p232
sg21
Vmov eax, 0
p233
sg5
L814982L
sg6
Nsg23
S'mov'
p234
sg25
S'0xc6f86L'
p235
sg27
Nsba(ibclass
BInstr
p236
(dp237
g2
Nsg17
S'jmp     locret_C7039'
p238
sg19
S'e9a9000000'
p239
sg21
Vjmp 0xae
p240
sg5
L814987L
sg6
Nsg23
S'jmp'
p241
sg25
S'0xc6f8bL'
p242
sg27
Nsbasg70
(lp243
S'mov reg, 0'
p244
aS'jmp func'
p245
asg79
Nsg5
S'0xc6f86L'
p246
sg81
(lp247
S'0xc6f7aL'
p248
asg6
Nsg83
(lp249
S'0xc7039L'
p250
asg87
Nsg88
Nsg89
S'8b9a0d40e062be2b9b2d9885108fb196'
p251
sg91
S'b9bc48935b5443504e35a59843f17cfd'
p252
sg93
(lp253
g234
ag241
asg95
Nsba(ibclass
BBasicBlock
p254
(dp255
g12
Nsg13
(lp256
(ibclass
BInstr
p257
(dp258
g2
Nsg17
S'mov     rax, [rbp+end]'
p259
sg19
S'488b45e0'
p260
sg21
Vmov rax, qword ptr [rbp - 0x20]
p261
sg5
L814992L
sg6
Nsg23
S'mov'
p262
sg25
S'0xc6f90L'
p263
sg27
Nsba(ibclass
BInstr
p264
(dp265
g2
Nsg17
S'mov     eax, [rax]'
p266
sg19
S'8b00'
p267
sg21
Vmov eax, dword ptr [rax]
p268
sg5
L814996L
sg6
Nsg23
S'mov'
p269
sg25
S'0xc6f94L'
p270
sg27
Nsba(ibclass
BInstr
p271
(dp272
g2
Nsg17
S'cmp     eax, 5'
p273
sg19
S'83f805'
p274
sg21
Vcmp eax, 5
p275
sg5
L814998L
sg6
Nsg23
S'cmp'
p276
sg25
S'0xc6f96L'
p277
sg27
Nsba(ibclass
BInstr
p278
(dp279
g2
Nsg17
S'jz      short loc_C6FA5'
p280
sg19
S'740a'
p281
sg21
Vje 0xc
p282
sg5
L815001L
sg6
Nsg23
S'jz'
p283
sg25
S'0xc6f99L'
p284
sg27
Nsbasg70
(lp285
S'mov reg, mem'
p286
aS'mov reg, mem'
p287
aS'cmp reg, 5'
p288
aS'jz func'
p289
asg79
Nsg5
S'0xc6f90L'
p290
sg81
(lp291
S'0xc6f7aL'
p292
asg6
Nsg83
(lp293
S'0xc6f9bL'
p294
aS'0xc6fa5L'
p295
asg87
Nsg88
Nsg89
S'db7f0dec7b6480d765a2fb1483cb9e16'
p296
sg91
S'9a7d257313969f3e11d235a50a2a93ed'
p297
sg93
(lp298
g262
ag269
ag276
ag283
asg95
Nsba(ibclass
BBasicBlock
p299
(dp300
g12
Nsg13
(lp301
(ibclass
BInstr
p302
(dp303
g2
Nsg17
S'mov     eax, 0'
p304
sg19
S'b800000000'
p305
sg21
Vmov eax, 0
p306
sg5
L815003L
sg6
Nsg23
S'mov'
p307
sg25
S'0xc6f9bL'
p308
sg27
Nsba(ibclass
BInstr
p309
(dp310
g2
Nsg17
S'jmp     locret_C7039'
p311
sg19
S'e994000000'
p312
sg21
Vjmp 0x99
p313
sg5
L815008L
sg6
Nsg23
S'jmp'
p314
sg25
S'0xc6fa0L'
p315
sg27
Nsbasg70
(lp316
S'mov reg, 0'
p317
aS'jmp func'
p318
asg79
Nsg5
S'0xc6f9bL'
p319
sg81
(lp320
S'0xc6f90L'
p321
asg6
Nsg83
(lp322
S'0xc7039L'
p323
asg87
Nsg88
Nsg89
S'8b9a0d40e062be2b9b2d9885108fb196'
p324
sg91
S'b9bc48935b5443504e35a59843f17cfd'
p325
sg93
(lp326
g307
ag314
asg95
Nsba(ibclass
BBasicBlock
p327
(dp328
g12
Nsg13
(lp329
(ibclass
BInstr
p330
(dp331
g2
Nsg17
S'mov     rax, cs:xmlMalloc_ptr'
p332
sg19
S'488b05447e2f00'
p333
sg21
Vmov rax, qword ptr [rip + 0x2f7e44]
p334
sg5
L815013L
sg6
Nsg23
S'mov'
p335
sg25
S'0xc6fa5L'
p336
sg27
Nsba(ibclass
BInstr
p337
(dp338
g2
Nsg17
S'mov     rax, [rax]'
p339
sg19
S'488b00'
p340
sg21
Vmov rax, qword ptr [rax]
p341
sg5
L815020L
sg6
Nsg23
S'mov'
p342
sg25
S'0xc6facL'
p343
sg27
Nsba(ibclass
BInstr
p344
(dp345
g2
Nsg17
S'mov     edi, 48h'
p346
sg19
S'bf48000000'
p347
sg21
Vmov edi, 0x48
p348
sg5
L815023L
sg6
Nsg23
S'mov'
p349
sg25
S'0xc6fafL'
p350
sg27
Nsba(ibclass
BInstr
p351
(dp352
g2
Nsg17
S'call    rax'
p353
sg19
S'ffd0'
p354
sg21
Vcall rax
p355
sg5
L815028L
sg6
Nsg23
S'call'
p356
sg25
S'0xc6fb4L'
p357
sg27
Nsba(ibclass
BInstr
p358
(dp359
g2
Nsg17
S'mov     [rbp+ret], rax'
p360
sg19
S'488945f8'
p361
sg21
Vmov qword ptr [rbp - 8], rax
p362
sg5
L815030L
sg6
Nsg23
S'mov'
p363
sg25
S'0xc6fb6L'
p364
sg27
Nsba(ibclass
BInstr
p365
(dp366
g2
Nsg17
S'cmp     [rbp+ret], 0'
p367
sg19
S'48837df800'
p368
sg21
Vcmp qword ptr [rbp - 8], 0
p369
sg5
L815034L
sg6
Nsg23
S'cmp'
p370
sg25
S'0xc6fbaL'
p371
sg27
Nsba(ibclass
BInstr
p372
(dp373
g2
Nsg17
S'jnz     short loc_C6FD4'
p374
sg19
S'7513'
p375
sg21
Vjne 0x15
p376
sg5
L815039L
sg6
Nsg23
S'jnz'
p377
sg25
S'0xc6fbfL'
p378
sg27
Nsbasg70
(lp379
S'mov reg, cs:xmlMregloc_ptr'
p380
aS'mov reg, mem'
p381
aS'mov reg, 48h'
p382
aS'cregl reg'
p383
aS'mov mem, reg'
p384
aS'cmp mem, 0'
p385
aS'jnz func'
p386
asg79
Nsg5
S'0xc6fa5L'
p387
sg81
(lp388
S'0xc6f90L'
p389
asg6
Nsg83
(lp390
S'0xc6fc1L'
p391
aS'0xc6fd4L'
p392
asg87
Nsg88
Nsg89
S'4b92e126ef463a4f8f15195e91fff799'
p393
sg91
S'9febea72f08a54da0312c32f7e064b10'
p394
sg93
(lp395
g335
ag342
ag349
ag356
ag363
ag370
ag377
asg95
Nsba(ibclass
BBasicBlock
p396
(dp397
g12
Nsg13
(lp398
(ibclass
BInstr
p399
(dp400
g2
Nsg17
S'lea     rdi, aAllocatingRang; "allocating range"'
p401
sg19
S'488d3d58e50b00'
p402
sg21
Vlea rdi, [rip + 0xbe558]
p403
sg5
L815041L
sg6
Nsg23
S'lea'
p404
sg25
S'0xc6fc1L'
p405
sg27
Nsba(ibclass
BInstr
p406
(dp407
g2
Nsg17
S'call    xmlXPtrErrMemory'
p408
sg19
S'e88bf6ffff'
p409
sg21
Vcall 0xfffffffffffff690
p410
sg5
L815048L
sg6
Nsg23
S'call'
p411
sg25
S'0xc6fc8L'
p412
sg27
Nsba(ibclass
BInstr
p413
(dp414
g2
Nsg17
S'mov     eax, 0'
p415
sg19
S'b800000000'
p416
sg21
Vmov eax, 0
p417
sg5
L815053L
sg6
Nsg23
S'mov'
p418
sg25
S'0xc6fcdL'
p419
sg27
Nsba(ibclass
BInstr
p420
(dp421
g2
Nsg17
S'jmp     short locret_C7039'
p422
sg19
S'eb65'
p423
sg21
Vjmp 0x67
p424
sg5
L815058L
sg6
Nsg23
S'jmp'
p425
sg25
S'0xc6fd2L'
p426
sg27
Nsbasg70
(lp427
S'lea reg, aAllocatingRang'
p428
aS'cregl xmlXPtrErrMemory'
p429
aS'mov reg, 0'
p430
aS'jmp short func'
p431
asg79
Nsg5
S'0xc6fc1L'
p432
sg81
(lp433
S'0xc6fa5L'
p434
asg6
Nsg83
(lp435
S'0xc7039L'
p436
asg87
Nsg88
Nsg89
S'0dc23fd008cf6b8ab05ed1912338b682'
p437
sg91
S'5890bcc1020a02d12ada3a8a58a49381'
p438
sg93
(lp439
g404
ag411
ag418
ag425
asg95
Nsba(ibclass
BBasicBlock
p440
(dp441
g12
Nsg13
(lp442
(ibclass
BInstr
p443
(dp444
g2
Nsg17
S'mov     rax, [rbp+ret]'
p445
sg19
S'488b45f8'
p446
sg21
Vmov rax, qword ptr [rbp - 8]
p447
sg5
L815060L
sg6
Nsg23
S'mov'
p448
sg25
S'0xc6fd4L'
p449
sg27
Nsba(ibclass
BInstr
p450
(dp451
g2
Nsg17
S'mov     edx, 48h        ; n'
p452
sg19
S'ba48000000'
p453
sg21
Vmov edx, 0x48
p454
sg5
L815064L
sg6
Nsg23
S'mov'
p455
sg25
S'0xc6fd8L'
p456
sg27
Nsba(ibclass
BInstr
p457
(dp458
g2
Nsg17
S'mov     esi, 0          ; c'
p459
sg19
S'be00000000'
p460
sg21
Vmov esi, 0
p461
sg5
L815069L
sg6
Nsg23
S'mov'
p462
sg25
S'0xc6fddL'
p463
sg27
Nsba(ibclass
BInstr
p464
(dp465
g2
Nsg17
S'mov     rdi, rax        ; s'
p466
sg19
S'4889c7'
p467
sg21
Vmov rdi, rax
p468
sg5
L815074L
sg6
Nsg23
S'mov'
p469
sg25
S'0xc6fe2L'
p470
sg27
Nsba(ibclass
BInstr
p471
(dp472
g2
Nsg17
S'call    memset'
p473
sg19
S'e88650f6ff'
p474
sg21
Vcall 0xfffffffffff6508b
p475
sg5
L815077L
sg6
Nsg23
S'call'
p476
sg25
S'0xc6fe5L'
p477
sg27
Nsba(ibclass
BInstr
p478
(dp479
g2
Nsg17
S'mov     rax, [rbp+ret]'
p480
sg19
S'488b45f8'
p481
sg21
Vmov rax, qword ptr [rbp - 8]
p482
sg5
L815082L
sg6
Nsg23
S'mov'
p483
sg25
S'0xc6feaL'
p484
sg27
Nsba(ibclass
BInstr
p485
(dp486
g2
Nsg17
S'mov     dword ptr [rax], 6'
p487
sg19
S'c70006000000'
p488
sg21
Vmov dword ptr [rax], 6
p489
sg5
L815086L
sg6
Nsg23
S'mov'
p490
sg25
S'0xc6feeL'
p491
sg27
Nsba(ibclass
BInstr
p492
(dp493
g2
Nsg17
S'mov     rax, [rbp+ret]'
p494
sg19
S'488b45f8'
p495
sg21
Vmov rax, qword ptr [rbp - 8]
p496
sg5
L815092L
sg6
Nsg23
S'mov'
p497
sg25
S'0xc6ff4L'
p498
sg27
Nsba(ibclass
BInstr
p499
(dp500
g2
Nsg17
S'mov     rdx, [rbp+start]'
p501
sg19
S'488b55e8'
p502
sg21
Vmov rdx, qword ptr [rbp - 0x18]
p503
sg5
L815096L
sg6
Nsg23
S'mov'
p504
sg25
S'0xc6ff8L'
p505
sg27
Nsba(ibclass
BInstr
p506
(dp507
g2
Nsg17
S'mov     [rax+28h], rdx'
p508
sg19
S'48895028'
p509
sg21
Vmov qword ptr [rax + 0x28], rdx
p510
sg5
L815100L
sg6
Nsg23
S'mov'
p511
sg25
S'0xc6ffcL'
p512
sg27
Nsba(ibclass
BInstr
p513
(dp514
g2
Nsg17
S'mov     rax, [rbp+ret]'
p515
sg19
S'488b45f8'
p516
sg21
Vmov rax, qword ptr [rbp - 8]
p517
sg5
L815104L
sg6
Nsg23
S'mov'
p518
sg25
S'0xc7000L'
p519
sg27
Nsba(ibclass
BInstr
p520
(dp521
g2
Nsg17
S'mov     dword ptr [rax+30h], 0FFFFFFFFh'
p522
sg19
S'c74030ffffffff'
p523
sg21
Vmov dword ptr [rax + 0x30], 0xffffffff
p524
sg5
L815108L
sg6
Nsg23
S'mov'
p525
sg25
S'0xc7004L'
p526
sg27
Nsba(ibclass
BInstr
p527
(dp528
g2
Nsg17
S'mov     rax, [rbp+end]'
p529
sg19
S'488b45e0'
p530
sg21
Vmov rax, qword ptr [rbp - 0x20]
p531
sg5
L815115L
sg6
Nsg23
S'mov'
p532
sg25
S'0xc700bL'
p533
sg27
Nsba(ibclass
BInstr
p534
(dp535
g2
Nsg17
S'mov     rdx, [rax+28h]'
p536
sg19
S'488b5028'
p537
sg21
Vmov rdx, qword ptr [rax + 0x28]
p538
sg5
L815119L
sg6
Nsg23
S'mov'
p539
sg25
S'0xc700fL'
p540
sg27
Nsba(ibclass
BInstr
p541
(dp542
g2
Nsg17
S'mov     rax, [rbp+ret]'
p543
sg19
S'488b45f8'
p544
sg21
Vmov rax, qword ptr [rbp - 8]
p545
sg5
L815123L
sg6
Nsg23
S'mov'
p546
sg25
S'0xc7013L'
p547
sg27
Nsba(ibclass
BInstr
p548
(dp549
g2
Nsg17
S'mov     [rax+38h], rdx'
p550
sg19
S'48895038'
p551
sg21
Vmov qword ptr [rax + 0x38], rdx
p552
sg5
L815127L
sg6
Nsg23
S'mov'
p553
sg25
S'0xc7017L'
p554
sg27
Nsba(ibclass
BInstr
p555
(dp556
g2
Nsg17
S'mov     rax, [rbp+end]'
p557
sg19
S'488b45e0'
p558
sg21
Vmov rax, qword ptr [rbp - 0x20]
p559
sg5
L815131L
sg6
Nsg23
S'mov'
p560
sg25
S'0xc701bL'
p561
sg27
Nsba(ibclass
BInstr
p562
(dp563
g2
Nsg17
S'mov     edx, [rax+30h]'
p564
sg19
S'8b5030'
p565
sg21
Vmov edx, dword ptr [rax + 0x30]
p566
sg5
L815135L
sg6
Nsg23
S'mov'
p567
sg25
S'0xc701fL'
p568
sg27
Nsba(ibclass
BInstr
p569
(dp570
g2
Nsg17
S'mov     rax, [rbp+ret]'
p571
sg19
S'488b45f8'
p572
sg21
Vmov rax, qword ptr [rbp - 8]
p573
sg5
L815138L
sg6
Nsg23
S'mov'
p574
sg25
S'0xc7022L'
p575
sg27
Nsba(ibclass
BInstr
p576
(dp577
g2
Nsg17
S'mov     [rax+40h], edx'
p578
sg19
S'895040'
p579
sg21
Vmov dword ptr [rax + 0x40], edx
p580
sg5
L815142L
sg6
Nsg23
S'mov'
p581
sg25
S'0xc7026L'
p582
sg27
Nsba(ibclass
BInstr
p583
(dp584
g2
Nsg17
S'mov     rax, [rbp+ret]'
p585
sg19
S'488b45f8'
p586
sg21
Vmov rax, qword ptr [rbp - 8]
p587
sg5
L815145L
sg6
Nsg23
S'mov'
p588
sg25
S'0xc7029L'
p589
sg27
Nsba(ibclass
BInstr
p590
(dp591
g2
Nsg17
S'mov     rdi, rax        ; range'
p592
sg19
S'4889c7'
p593
sg21
Vmov rdi, rax
p594
sg5
L815149L
sg6
Nsg23
S'mov'
p595
sg25
S'0xc702dL'
p596
sg27
Nsba(ibclass
BInstr
p597
(dp598
g2
Nsg17
S'call    xmlXPtrRangeCheckOrder'
p599
sg19
S'e8c8faffff'
p600
sg21
Vcall 0xfffffffffffffacd
p601
sg5
L815152L
sg6
Nsg23
S'call'
p602
sg25
S'0xc7030L'
p603
sg27
Nsba(ibclass
BInstr
p604
(dp605
g2
Nsg17
S'mov     rax, [rbp+ret]'
p606
sg19
S'488b45f8'
p607
sg21
Vmov rax, qword ptr [rbp - 8]
p608
sg5
L815157L
sg6
Nsg23
S'mov'
p609
sg25
S'0xc7035L'
p610
sg27
Nsbasg70
(lp611
S'mov reg, mem'
p612
aS'mov reg, 48h'
p613
aS'mov reg, 0'
p614
aS'mov reg, reg'
p615
aS'cregl memset'
p616
aS'mov reg, mem'
p617
aS'mov mem, 6'
p618
aS'mov reg, mem'
p619
aS'mov reg, mem'
p620
aS'mov mem, reg'
p621
aS'mov reg, mem'
p622
aS'mov mem, 0FFFFFFFFh'
p623
aS'mov reg, mem'
p624
aS'mov reg, mem'
p625
aS'mov reg, mem'
p626
aS'mov mem, reg'
p627
aS'mov reg, mem'
p628
aS'mov reg, mem'
p629
aS'mov reg, mem'
p630
aS'mov mem, reg'
p631
aS'mov reg, mem'
p632
aS'mov reg, reg'
p633
aS'cregl xmlXPtrRangeCheckOrder'
p634
aS'mov reg, mem'
p635
asg79
Nsg5
S'0xc6fd4L'
p636
sg81
(lp637
S'0xc6fa5L'
p638
asg6
Nsg83
(lp639
S'0xc7039L'
p640
asg87
Nsg88
Nsg89
S'4025903bf26900d06cfd334dcdea2c96'
p641
sg91
S'2a3b746a693915df2a19f7075b0deda8'
p642
sg93
(lp643
g448
ag455
ag462
ag469
ag476
ag483
ag490
ag497
ag504
ag511
ag518
ag525
ag532
ag539
ag546
ag553
ag560
ag567
ag574
ag581
ag588
ag595
ag602
ag609
asg95
Nsba(ibclass
BBasicBlock
p644
(dp645
g12
Nsg13
(lp646
(ibclass
BInstr
p647
(dp648
g2
Nsg17
S'leave'
p649
sg19
S'c9'
p650
sg21
Vleave 
p651
sg5
L815161L
sg6
Nsg23
S'leave'
p652
sg25
S'0xc7039L'
p653
sg27
Nsba(ibclass
BInstr
p654
(dp655
g2
Nsg17
S'retn'
p656
sg19
S'c3'
p657
sg21
Vret 
p658
sg5
L815162L
sg6
Nsg23
S'retn'
p659
sg25
S'0xc703aL'
p660
sg27
Nsbasg70
(lp661
g649
ag656
asg79
Nsg5
S'0xc7039L'
p662
sg81
(lp663
S'0xc6f5fL'
p664
aS'0xc6f70L'
p665
aS'0xc6f86L'
p666
aS'0xc6f9bL'
p667
aS'0xc6fc1L'
p668
aS'0xc6fd4L'
p669
asg6
Nsg83
(lp670
sg87
Nsg88
Nsg89
S'08c78f73a6f87c85da88b2982f54ce2a'
p671
sg91
S'08c78f73a6f87c85da88b2982f54ce2a'
p672
sg93
(lp673
g652
ag659
asg95
Nsbasb.