(ibclass
BFunc
p0
(dp1
S'hash'
p2
NsS'name'
p3
S'xmlStrncatNew__internal_alias'
p4
sS'start_address'
p5
L932680L
sS'flag'
p6
NsS'program'
p7
NsS'bbs'
p8
(lp9
(ibclass
BBasicBlock
p10
(dp11
S'function'
p12
NsS'binstrs'
p13
(lp14
(ibclass
BInstr
p15
(dp16
g2
NsS'disasm'
p17
S"push    rbp             ; Alternative name is 'xmlStrncatNew'"
p18
sS'bytes'
p19
S'55'
p20
sS'disasm_striped'
p21
Vpush rbp
p22
sg5
L932680L
sg6
NsS'mnem'
p23
S'push'
p24
sS'address'
p25
S'0xe3b48L'
p26
sS'basicblock'
p27
Nsba(ibclass
BInstr
p28
(dp29
g2
Nsg17
S'mov     rbp, rsp'
p30
sg19
S'4889e5'
p31
sg21
Vmov rbp, rsp
p32
sg5
L932681L
sg6
Nsg23
S'mov'
p33
sg25
S'0xe3b49L'
p34
sg27
Nsba(ibclass
BInstr
p35
(dp36
g2
Nsg17
S'sub     rsp, 30h'
p37
sg19
S'4883ec30'
p38
sg21
Vsub rsp, 0x30
p39
sg5
L932684L
sg6
Nsg23
S'sub'
p40
sg25
S'0xe3b4cL'
p41
sg27
Nsba(ibclass
BInstr
p42
(dp43
g2
Nsg17
S'mov     [rbp+str1], rdi'
p44
sg19
S'48897de8'
p45
sg21
Vmov qword ptr [rbp - 0x18], rdi
p46
sg5
L932688L
sg6
Nsg23
S'mov'
p47
sg25
S'0xe3b50L'
p48
sg27
Nsba(ibclass
BInstr
p49
(dp50
g2
Nsg17
S'mov     [rbp+str2], rsi'
p51
sg19
S'488975e0'
p52
sg21
Vmov qword ptr [rbp - 0x20], rsi
p53
sg5
L932692L
sg6
Nsg23
S'mov'
p54
sg25
S'0xe3b54L'
p55
sg27
Nsba(ibclass
BInstr
p56
(dp57
g2
Nsg17
S'mov     [rbp+len], edx'
p58
sg19
S'8955dc'
p59
sg21
Vmov dword ptr [rbp - 0x24], edx
p60
sg5
L932696L
sg6
Nsg23
S'mov'
p61
sg25
S'0xe3b58L'
p62
sg27
Nsba(ibclass
BInstr
p63
(dp64
g2
Nsg17
S'cmp     [rbp+len], 0'
p65
sg19
S'837ddc00'
p66
sg21
Vcmp dword ptr [rbp - 0x24], 0
p67
sg5
L932699L
sg6
Nsg23
S'cmp'
p68
sg25
S'0xe3b5bL'
p69
sg27
Nsba(ibclass
BInstr
p70
(dp71
g2
Nsg17
S'jns     short loc_E3B80'
p72
sg19
S'791f'
p73
sg21
Vjns 0x21
p74
sg5
L932703L
sg6
Nsg23
S'jns'
p75
sg25
S'0xe3b5fL'
p76
sg27
NsbasS'disasm_list'
p77
(lp78
S'push reg'
p79
aS'mov reg, reg'
p80
aS'sub reg, 30h'
p81
aS'mov mem, reg'
p82
aS'mov mem, reg'
p83
aS'mov mem, reg'
p84
aS'cmp mem, 0'
p85
aS'jns func'
p86
asS'end_address'
p87
Nsg5
S'0xe3b48L'
p88
sS'preds'
p89
(lp90
sg6
NsS'succs'
p91
(lp92
S'0xe3b61L'
p93
aS'0xe3b80L'
p94
asS'hash_v3'
p95
NsS'flag_v2'
p96
NsS'hash_v1'
p97
S'93c1ed62bc896bc3e3e9d7ad579ea76a'
p98
sS'hash_v2'
p99
S'43d0c4a089f48faf2c097be0a0fe3f03'
p100
sS'mnen_list'
p101
(lp102
g24
ag33
ag40
ag47
ag54
ag61
ag68
ag75
asS'neighbour_disasm_list'
p103
Nsba(ibclass
BBasicBlock
p104
(dp105
g12
Nsg13
(lp106
(ibclass
BInstr
p107
(dp108
g2
Nsg17
S'mov     rax, [rbp+str2]'
p109
sg19
S'488b45e0'
p110
sg21
Vmov rax, qword ptr [rbp - 0x20]
p111
sg5
L932705L
sg6
Nsg23
S'mov'
p112
sg25
S'0xe3b61L'
p113
sg27
Nsba(ibclass
BInstr
p114
(dp115
g2
Nsg17
S'mov     rdi, rax        ; str'
p116
sg19
S'4889c7'
p117
sg21
Vmov rdi, rax
p118
sg5
L932709L
sg6
Nsg23
S'mov'
p119
sg25
S'0xe3b65L'
p120
sg27
Nsba(ibclass
BInstr
p121
(dp122
g2
Nsg17
S'call    xmlStrlen__internal_alias'
p123
sg19
S'e8b2feffff'
p124
sg21
Vcall 0xfffffffffffffeb7
p125
sg5
L932712L
sg6
Nsg23
S'call'
p126
sg25
S'0xe3b68L'
p127
sg27
Nsba(ibclass
BInstr
p128
(dp129
g2
Nsg17
S'mov     [rbp+len], eax'
p130
sg19
S'8945dc'
p131
sg21
Vmov dword ptr [rbp - 0x24], eax
p132
sg5
L932717L
sg6
Nsg23
S'mov'
p133
sg25
S'0xe3b6dL'
p134
sg27
Nsba(ibclass
BInstr
p135
(dp136
g2
Nsg17
S'cmp     [rbp+len], 0'
p137
sg19
S'837ddc00'
p138
sg21
Vcmp dword ptr [rbp - 0x24], 0
p139
sg5
L932720L
sg6
Nsg23
S'cmp'
p140
sg25
S'0xe3b70L'
p141
sg27
Nsba(ibclass
BInstr
p142
(dp143
g2
Nsg17
S'jns     short loc_E3B80'
p144
sg19
S'790a'
p145
sg21
Vjns 0xc
p146
sg5
L932724L
sg6
Nsg23
S'jns'
p147
sg25
S'0xe3b74L'
p148
sg27
Nsbasg77
(lp149
S'mov reg, mem'
p150
aS'mov reg, reg'
p151
aS'cregl xmlStrlen__internreg_regias'
p152
aS'mov mem, reg'
p153
aS'cmp mem, 0'
p154
aS'jns func'
p155
asg87
Nsg5
S'0xe3b61L'
p156
sg89
(lp157
S'0xe3b48L'
p158
asg6
Nsg91
(lp159
S'0xe3b76L'
p160
aS'0xe3b80L'
p161
asg95
Nsg96
Nsg97
S'e47815e04caf5daad8b2d45acb18f6f9'
p162
sg99
S'61948599c0fcb052050a65126f06381d'
p163
sg101
(lp164
g112
ag119
ag126
ag133
ag140
ag147
asg103
Nsba(ibclass
BBasicBlock
p165
(dp166
g12
Nsg13
(lp167
(ibclass
BInstr
p168
(dp169
g2
Nsg17
S'mov     eax, 0'
p170
sg19
S'b800000000'
p171
sg21
Vmov eax, 0
p172
sg5
L932726L
sg6
Nsg23
S'mov'
p173
sg25
S'0xe3b76L'
p174
sg27
Nsba(ibclass
BInstr
p175
(dp176
g2
Nsg17
S'jmp     locret_E3C78'
p177
sg19
S'e9f8000000'
p178
sg21
Vjmp 0xfd
p179
sg5
L932731L
sg6
Nsg23
S'jmp'
p180
sg25
S'0xe3b7bL'
p181
sg27
Nsbasg77
(lp182
S'mov reg, 0'
p183
aS'jmp func'
p184
asg87
Nsg5
S'0xe3b76L'
p185
sg89
(lp186
S'0xe3b61L'
p187
asg6
Nsg91
(lp188
S'0xe3c78L'
p189
asg95
Nsg96
Nsg97
S'8b9a0d40e062be2b9b2d9885108fb196'
p190
sg99
S'b9bc48935b5443504e35a59843f17cfd'
p191
sg101
(lp192
g173
ag180
asg103
Nsba(ibclass
BBasicBlock
p193
(dp194
g12
Nsg13
(lp195
(ibclass
BInstr
p196
(dp197
g2
Nsg17
S'cmp     [rbp+str2], 0'
p198
sg19
S'48837de000'
p199
sg21
Vcmp qword ptr [rbp - 0x20], 0
p200
sg5
L932736L
sg6
Nsg23
S'cmp'
p201
sg25
S'0xe3b80L'
p202
sg27
Nsba(ibclass
BInstr
p203
(dp204
g2
Nsg17
S'jz      short loc_E3B8D'
p205
sg19
S'7406'
p206
sg21
Vje 8
p207
sg5
L932741L
sg6
Nsg23
S'jz'
p208
sg25
S'0xe3b85L'
p209
sg27
Nsbasg77
(lp210
S'cmp mem, 0'
p211
aS'jz func'
p212
asg87
Nsg5
S'0xe3b80L'
p213
sg89
(lp214
S'0xe3b48L'
p215
aS'0xe3b61L'
p216
asg6
Nsg91
(lp217
S'0xe3b87L'
p218
aS'0xe3b8dL'
p219
asg95
Nsg96
Nsg97
S'613dbc2b0cb9d6264d802b24d709daea'
p220
sg99
S'7f4ecf78254be39f53e7a11cedd080e9'
p221
sg101
(lp222
g201
ag208
asg103
Nsba(ibclass
BBasicBlock
p223
(dp224
g12
Nsg13
(lp225
(ibclass
BInstr
p226
(dp227
g2
Nsg17
S'cmp     [rbp+len], 0'
p228
sg19
S'837ddc00'
p229
sg21
Vcmp dword ptr [rbp - 0x24], 0
p230
sg5
L932743L
sg6
Nsg23
S'cmp'
p231
sg25
S'0xe3b87L'
p232
sg27
Nsba(ibclass
BInstr
p233
(dp234
g2
Nsg17
S'jnz     short loc_E3B9E'
p235
sg19
S'7511'
p236
sg21
Vjne 0x13
p237
sg5
L932747L
sg6
Nsg23
S'jnz'
p238
sg25
S'0xe3b8bL'
p239
sg27
Nsbasg77
(lp240
S'cmp mem, 0'
p241
aS'jnz func'
p242
asg87
Nsg5
S'0xe3b87L'
p243
sg89
(lp244
S'0xe3b80L'
p245
asg6
Nsg91
(lp246
S'0xe3b8dL'
p247
aS'0xe3b9eL'
p248
asg95
Nsg96
Nsg97
S'30cb3d6f6a174adfabcde507f6944a52'
p249
sg99
S'98d72118630a4e08156799652c8790e6'
p250
sg101
(lp251
g231
ag238
asg103
Nsba(ibclass
BBasicBlock
p252
(dp253
g12
Nsg13
(lp254
(ibclass
BInstr
p255
(dp256
g2
Nsg17
S'mov     rax, [rbp+str1]'
p257
sg19
S'488b45e8'
p258
sg21
Vmov rax, qword ptr [rbp - 0x18]
p259
sg5
L932749L
sg6
Nsg23
S'mov'
p260
sg25
S'0xe3b8dL'
p261
sg27
Nsba(ibclass
BInstr
p262
(dp263
g2
Nsg17
S'mov     rdi, rax        ; cur'
p264
sg19
S'4889c7'
p265
sg21
Vmov rdi, rax
p266
sg5
L932753L
sg6
Nsg23
S'mov'
p267
sg25
S'0xe3b91L'
p268
sg27
Nsba(ibclass
BInstr
p269
(dp270
g2
Nsg17
S'call    xmlStrdup__internal_alias'
p271
sg19
S'e85ef7ffff'
p272
sg21
Vcall 0xfffffffffffff763
p273
sg5
L932756L
sg6
Nsg23
S'call'
p274
sg25
S'0xe3b94L'
p275
sg27
Nsba(ibclass
BInstr
p276
(dp277
g2
Nsg17
S'jmp     locret_E3C78'
p278
sg19
S'e9da000000'
p279
sg21
Vjmp 0xdf
p280
sg5
L932761L
sg6
Nsg23
S'jmp'
p281
sg25
S'0xe3b99L'
p282
sg27
Nsbasg77
(lp283
S'mov reg, mem'
p284
aS'mov reg, reg'
p285
aS'cregl xmlStrdup__internreg_regias'
p286
aS'jmp func'
p287
asg87
Nsg5
S'0xe3b8dL'
p288
sg89
(lp289
S'0xe3b80L'
p290
aS'0xe3b87L'
p291
asg6
Nsg91
(lp292
S'0xe3c78L'
p293
asg95
Nsg96
Nsg97
S'21359965f3b3ac9d057fd4a2b03f927b'
p294
sg99
S'29fa158330be9b082c7c00ec9bc96518'
p295
sg101
(lp296
g260
ag267
ag274
ag281
asg103
Nsba(ibclass
BBasicBlock
p297
(dp298
g12
Nsg13
(lp299
(ibclass
BInstr
p300
(dp301
g2
Nsg17
S'cmp     [rbp+str1], 0'
p302
sg19
S'48837de800'
p303
sg21
Vcmp qword ptr [rbp - 0x18], 0
p304
sg5
L932766L
sg6
Nsg23
S'cmp'
p305
sg25
S'0xe3b9eL'
p306
sg27
Nsba(ibclass
BInstr
p307
(dp308
g2
Nsg17
S'jnz     short loc_E3BBB'
p309
sg19
S'7516'
p310
sg21
Vjne 0x18
p311
sg5
L932771L
sg6
Nsg23
S'jnz'
p312
sg25
S'0xe3ba3L'
p313
sg27
Nsbasg77
(lp314
S'cmp mem, 0'
p315
aS'jnz func'
p316
asg87
Nsg5
S'0xe3b9eL'
p317
sg89
(lp318
S'0xe3b87L'
p319
asg6
Nsg91
(lp320
S'0xe3ba5L'
p321
aS'0xe3bbbL'
p322
asg95
Nsg96
Nsg97
S'30cb3d6f6a174adfabcde507f6944a52'
p323
sg99
S'98d72118630a4e08156799652c8790e6'
p324
sg101
(lp325
g305
ag312
asg103
Nsba(ibclass
BBasicBlock
p326
(dp327
g12
Nsg13
(lp328
(ibclass
BInstr
p329
(dp330
g2
Nsg17
S'mov     edx, [rbp+len]'
p331
sg19
S'8b55dc'
p332
sg21
Vmov edx, dword ptr [rbp - 0x24]
p333
sg5
L932773L
sg6
Nsg23
S'mov'
p334
sg25
S'0xe3ba5L'
p335
sg27
Nsba(ibclass
BInstr
p336
(dp337
g2
Nsg17
S'mov     rax, [rbp+str2]'
p338
sg19
S'488b45e0'
p339
sg21
Vmov rax, qword ptr [rbp - 0x20]
p340
sg5
L932776L
sg6
Nsg23
S'mov'
p341
sg25
S'0xe3ba8L'
p342
sg27
Nsba(ibclass
BInstr
p343
(dp344
g2
Nsg17
S'mov     esi, edx        ; len'
p345
sg19
S'89d6'
p346
sg21
Vmov esi, edx
p347
sg5
L932780L
sg6
Nsg23
S'mov'
p348
sg25
S'0xe3bacL'
p349
sg27
Nsba(ibclass
BInstr
p350
(dp351
g2
Nsg17
S'mov     rdi, rax        ; cur'
p352
sg19
S'4889c7'
p353
sg21
Vmov rdi, rax
p354
sg5
L932782L
sg6
Nsg23
S'mov'
p355
sg25
S'0xe3baeL'
p356
sg27
Nsba(ibclass
BInstr
p357
(dp358
g2
Nsg17
S'call    xmlStrndup__internal_alias'
p359
sg19
S'e8b6f6ffff'
p360
sg21
Vcall 0xfffffffffffff6bb
p361
sg5
L932785L
sg6
Nsg23
S'call'
p362
sg25
S'0xe3bb1L'
p363
sg27
Nsba(ibclass
BInstr
p364
(dp365
g2
Nsg17
S'jmp     locret_E3C78'
p366
sg19
S'e9bd000000'
p367
sg21
Vjmp 0xc2
p368
sg5
L932790L
sg6
Nsg23
S'jmp'
p369
sg25
S'0xe3bb6L'
p370
sg27
Nsbasg77
(lp371
S'mov reg, mem'
p372
aS'mov reg, mem'
p373
aS'mov reg, reg'
p374
aS'mov reg, reg'
p375
aS'cregl xmlStrndup__internreg_regias'
p376
aS'jmp func'
p377
asg87
Nsg5
S'0xe3ba5L'
p378
sg89
(lp379
S'0xe3b9eL'
p380
asg6
Nsg91
(lp381
S'0xe3c78L'
p382
asg95
Nsg96
Nsg97
S'ed0c14dac95c7bafb483aad1c36140be'
p383
sg99
S'0e1f46d4b3af9897b099d481fb7ef5ee'
p384
sg101
(lp385
g334
ag341
ag348
ag355
ag362
ag369
asg103
Nsba(ibclass
BBasicBlock
p386
(dp387
g12
Nsg13
(lp388
(ibclass
BInstr
p389
(dp390
g2
Nsg17
S'mov     rax, [rbp+str1]'
p391
sg19
S'488b45e8'
p392
sg21
Vmov rax, qword ptr [rbp - 0x18]
p393
sg5
L932795L
sg6
Nsg23
S'mov'
p394
sg25
S'0xe3bbbL'
p395
sg27
Nsba(ibclass
BInstr
p396
(dp397
g2
Nsg17
S'mov     rdi, rax        ; str'
p398
sg19
S'4889c7'
p399
sg21
Vmov rdi, rax
p400
sg5
L932799L
sg6
Nsg23
S'mov'
p401
sg25
S'0xe3bbfL'
p402
sg27
Nsba(ibclass
BInstr
p403
(dp404
g2
Nsg17
S'call    xmlStrlen__internal_alias'
p405
sg19
S'e858feffff'
p406
sg21
Vcall 0xfffffffffffffe5d
p407
sg5
L932802L
sg6
Nsg23
S'call'
p408
sg25
S'0xe3bc2L'
p409
sg27
Nsba(ibclass
BInstr
p410
(dp411
g2
Nsg17
S'mov     [rbp+size], eax'
p412
sg19
S'8945f4'
p413
sg21
Vmov dword ptr [rbp - 0xc], eax
p414
sg5
L932807L
sg6
Nsg23
S'mov'
p415
sg25
S'0xe3bc7L'
p416
sg27
Nsba(ibclass
BInstr
p417
(dp418
g2
Nsg17
S'cmp     [rbp+size], 0'
p419
sg19
S'837df400'
p420
sg21
Vcmp dword ptr [rbp - 0xc], 0
p421
sg5
L932810L
sg6
Nsg23
S'cmp'
p422
sg25
S'0xe3bcaL'
p423
sg27
Nsba(ibclass
BInstr
p424
(dp425
g2
Nsg17
S'jns     short loc_E3BDA'
p426
sg19
S'790a'
p427
sg21
Vjns 0xc
p428
sg5
L932814L
sg6
Nsg23
S'jns'
p429
sg25
S'0xe3bceL'
p430
sg27
Nsbasg77
(lp431
S'mov reg, mem'
p432
aS'mov reg, reg'
p433
aS'cregl xmlStrlen__internreg_regias'
p434
aS'mov mem, reg'
p435
aS'cmp mem, 0'
p436
aS'jns func'
p437
asg87
Nsg5
S'0xe3bbbL'
p438
sg89
(lp439
S'0xe3b9eL'
p440
asg6
Nsg91
(lp441
S'0xe3bd0L'
p442
aS'0xe3bdaL'
p443
asg95
Nsg96
Nsg97
S'e47815e04caf5daad8b2d45acb18f6f9'
p444
sg99
S'61948599c0fcb052050a65126f06381d'
p445
sg101
(lp446
g394
ag401
ag408
ag415
ag422
ag429
asg103
Nsba(ibclass
BBasicBlock
p447
(dp448
g12
Nsg13
(lp449
(ibclass
BInstr
p450
(dp451
g2
Nsg17
S'mov     eax, 0'
p452
sg19
S'b800000000'
p453
sg21
Vmov eax, 0
p454
sg5
L932816L
sg6
Nsg23
S'mov'
p455
sg25
S'0xe3bd0L'
p456
sg27
Nsba(ibclass
BInstr
p457
(dp458
g2
Nsg17
S'jmp     locret_E3C78'
p459
sg19
S'e99e000000'
p460
sg21
Vjmp 0xa3
p461
sg5
L932821L
sg6
Nsg23
S'jmp'
p462
sg25
S'0xe3bd5L'
p463
sg27
Nsbasg77
(lp464
S'mov reg, 0'
p465
aS'jmp func'
p466
asg87
Nsg5
S'0xe3bd0L'
p467
sg89
(lp468
S'0xe3bbbL'
p469
asg6
Nsg91
(lp470
S'0xe3c78L'
p471
asg95
Nsg96
Nsg97
S'8b9a0d40e062be2b9b2d9885108fb196'
p472
sg99
S'b9bc48935b5443504e35a59843f17cfd'
p473
sg101
(lp474
g455
ag462
asg103
Nsba(ibclass
BBasicBlock
p475
(dp476
g12
Nsg13
(lp477
(ibclass
BInstr
p478
(dp479
g2
Nsg17
S'mov     rax, cs:xmlMalloc_ptr'
p480
sg19
S'488b050fb22d00'
p481
sg21
Vmov rax, qword ptr [rip + 0x2db20f]
p482
sg5
L932826L
sg6
Nsg23
S'mov'
p483
sg25
S'0xe3bdaL'
p484
sg27
Nsba(ibclass
BInstr
p485
(dp486
g2
Nsg17
S'mov     rax, [rax]'
p487
sg19
S'488b00'
p488
sg21
Vmov rax, qword ptr [rax]
p489
sg5
L932833L
sg6
Nsg23
S'mov'
p490
sg25
S'0xe3be1L'
p491
sg27
Nsba(ibclass
BInstr
p492
(dp493
g2
Nsg17
S'mov     ecx, [rbp+size]'
p494
sg19
S'8b4df4'
p495
sg21
Vmov ecx, dword ptr [rbp - 0xc]
p496
sg5
L932836L
sg6
Nsg23
S'mov'
p497
sg25
S'0xe3be4L'
p498
sg27
Nsba(ibclass
BInstr
p499
(dp500
g2
Nsg17
S'mov     edx, [rbp+len]'
p501
sg19
S'8b55dc'
p502
sg21
Vmov edx, dword ptr [rbp - 0x24]
p503
sg5
L932839L
sg6
Nsg23
S'mov'
p504
sg25
S'0xe3be7L'
p505
sg27
Nsba(ibclass
BInstr
p506
(dp507
g2
Nsg17
S'add     edx, ecx'
p508
sg19
S'01ca'
p509
sg21
Vadd edx, ecx
p510
sg5
L932842L
sg6
Nsg23
S'add'
p511
sg25
S'0xe3beaL'
p512
sg27
Nsba(ibclass
BInstr
p513
(dp514
g2
Nsg17
S'add     edx, 1'
p515
sg19
S'83c201'
p516
sg21
Vadd edx, 1
p517
sg5
L932844L
sg6
Nsg23
S'add'
p518
sg25
S'0xe3becL'
p519
sg27
Nsba(ibclass
BInstr
p520
(dp521
g2
Nsg17
S'movsxd  rdx, edx'
p522
sg19
S'4863d2'
p523
sg21
Vmovsxd rdx, edx
p524
sg5
L932847L
sg6
Nsg23
S'movsxd'
p525
sg25
S'0xe3befL'
p526
sg27
Nsba(ibclass
BInstr
p527
(dp528
g2
Nsg17
S'mov     rdi, rdx'
p529
sg19
S'4889d7'
p530
sg21
Vmov rdi, rdx
p531
sg5
L932850L
sg6
Nsg23
S'mov'
p532
sg25
S'0xe3bf2L'
p533
sg27
Nsba(ibclass
BInstr
p534
(dp535
g2
Nsg17
S'call    rax'
p536
sg19
S'ffd0'
p537
sg21
Vcall rax
p538
sg5
L932853L
sg6
Nsg23
S'call'
p539
sg25
S'0xe3bf5L'
p540
sg27
Nsba(ibclass
BInstr
p541
(dp542
g2
Nsg17
S'mov     [rbp+ret], rax'
p543
sg19
S'488945f8'
p544
sg21
Vmov qword ptr [rbp - 8], rax
p545
sg5
L932855L
sg6
Nsg23
S'mov'
p546
sg25
S'0xe3bf7L'
p547
sg27
Nsba(ibclass
BInstr
p548
(dp549
g2
Nsg17
S'cmp     [rbp+ret], 0'
p550
sg19
S'48837df800'
p551
sg21
Vcmp qword ptr [rbp - 8], 0
p552
sg5
L932859L
sg6
Nsg23
S'cmp'
p553
sg25
S'0xe3bfbL'
p554
sg27
Nsba(ibclass
BInstr
p555
(dp556
g2
Nsg17
S'jnz     short loc_E3C24'
p557
sg19
S'7522'
p558
sg21
Vjne 0x24
p559
sg5
L932864L
sg6
Nsg23
S'jnz'
p560
sg25
S'0xe3c00L'
p561
sg27
Nsbasg77
(lp562
S'mov reg, cs:xmlMregloc_ptr'
p563
aS'mov reg, mem'
p564
aS'mov reg, mem'
p565
aS'mov reg, mem'
p566
aS'add reg, reg'
p567
aS'add reg, 1'
p568
aS'movsxd reg, reg'
p569
aS'mov reg, reg'
p570
aS'cregl reg'
p571
aS'mov mem, reg'
p572
aS'cmp mem, 0'
p573
aS'jnz func'
p574
asg87
Nsg5
S'0xe3bdaL'
p575
sg89
(lp576
S'0xe3bbbL'
p577
asg6
Nsg91
(lp578
S'0xe3c02L'
p579
aS'0xe3c24L'
p580
asg95
Nsg96
Nsg97
S'24af82d4b2056ef4fb277d5fa1def6a1'
p581
sg99
S'174a2d025ca997fc7dea3f44724b70bc'
p582
sg101
(lp583
g483
ag490
ag497
ag504
ag511
ag518
ag525
ag532
ag539
ag546
ag553
ag560
asg103
Nsba(ibclass
BBasicBlock
p584
(dp585
g12
Nsg13
(lp586
(ibclass
BInstr
p587
(dp588
g2
Nsg17
S'mov     esi, 0          ; extra'
p589
sg19
S'be00000000'
p590
sg21
Vmov esi, 0
p591
sg5
L932866L
sg6
Nsg23
S'mov'
p592
sg25
S'0xe3c02L'
p593
sg27
Nsba(ibclass
BInstr
p594
(dp595
g2
Nsg17
S'mov     edi, 0          ; ctxt'
p596
sg19
S'bf00000000'
p597
sg21
Vmov edi, 0
p598
sg5
L932871L
sg6
Nsg23
S'mov'
p599
sg25
S'0xe3c07L'
p600
sg27
Nsba(ibclass
BInstr
p601
(dp602
g2
Nsg17
S'call    xmlErrMemory__internal_alias'
p603
sg19
S'e8671bf5ff'
p604
sg21
Vcall 0xfffffffffff51b6c
p605
sg5
L932876L
sg6
Nsg23
S'call'
p606
sg25
S'0xe3c0cL'
p607
sg27
Nsba(ibclass
BInstr
p608
(dp609
g2
Nsg17
S'mov     edx, [rbp+size]'
p610
sg19
S'8b55f4'
p611
sg21
Vmov edx, dword ptr [rbp - 0xc]
p612
sg5
L932881L
sg6
Nsg23
S'mov'
p613
sg25
S'0xe3c11L'
p614
sg27
Nsba(ibclass
BInstr
p615
(dp616
g2
Nsg17
S'mov     rax, [rbp+str1]'
p617
sg19
S'488b45e8'
p618
sg21
Vmov rax, qword ptr [rbp - 0x18]
p619
sg5
L932884L
sg6
Nsg23
S'mov'
p620
sg25
S'0xe3c14L'
p621
sg27
Nsba(ibclass
BInstr
p622
(dp623
g2
Nsg17
S'mov     esi, edx        ; len'
p624
sg19
S'89d6'
p625
sg21
Vmov esi, edx
p626
sg5
L932888L
sg6
Nsg23
S'mov'
p627
sg25
S'0xe3c18L'
p628
sg27
Nsba(ibclass
BInstr
p629
(dp630
g2
Nsg17
S'mov     rdi, rax        ; cur'
p631
sg19
S'4889c7'
p632
sg21
Vmov rdi, rax
p633
sg5
L932890L
sg6
Nsg23
S'mov'
p634
sg25
S'0xe3c1aL'
p635
sg27
Nsba(ibclass
BInstr
p636
(dp637
g2
Nsg17
S'call    xmlStrndup__internal_alias'
p638
sg19
S'e84af6ffff'
p639
sg21
Vcall 0xfffffffffffff64f
p640
sg5
L932893L
sg6
Nsg23
S'call'
p641
sg25
S'0xe3c1dL'
p642
sg27
Nsba(ibclass
BInstr
p643
(dp644
g2
Nsg17
S'jmp     short locret_E3C78'
p645
sg19
S'eb54'
p646
sg21
Vjmp 0x56
p647
sg5
L932898L
sg6
Nsg23
S'jmp'
p648
sg25
S'0xe3c22L'
p649
sg27
Nsbasg77
(lp650
S'mov reg, 0'
p651
aS'mov reg, 0'
p652
aS'cregl xmlErrMemory__internreg_regias'
p653
aS'mov reg, mem'
p654
aS'mov reg, mem'
p655
aS'mov reg, reg'
p656
aS'mov reg, reg'
p657
aS'cregl xmlStrndup__internreg_regias'
p658
aS'jmp short func'
p659
asg87
Nsg5
S'0xe3c02L'
p660
sg89
(lp661
S'0xe3bdaL'
p662
asg6
Nsg91
(lp663
S'0xe3c78L'
p664
asg95
Nsg96
Nsg97
S'c186dac9784b1a91b77470a8e4bd597e'
p665
sg99
S'889a80917545af49e0b95b63cbeb0299'
p666
sg101
(lp667
g592
ag599
ag606
ag613
ag620
ag627
ag634
ag641
ag648
asg103
Nsba(ibclass
BBasicBlock
p668
(dp669
g12
Nsg13
(lp670
(ibclass
BInstr
p671
(dp672
g2
Nsg17
S'mov     eax, [rbp+size]'
p673
sg19
S'8b45f4'
p674
sg21
Vmov eax, dword ptr [rbp - 0xc]
p675
sg5
L932900L
sg6
Nsg23
S'mov'
p676
sg25
S'0xe3c24L'
p677
sg27
Nsba(ibclass
BInstr
p678
(dp679
g2
Nsg17
S'movsxd  rdx, eax        ; n'
p680
sg19
S'4863d0'
p681
sg21
Vmovsxd rdx, eax
p682
sg5
L932903L
sg6
Nsg23
S'movsxd'
p683
sg25
S'0xe3c27L'
p684
sg27
Nsba(ibclass
BInstr
p685
(dp686
g2
Nsg17
S'mov     rcx, [rbp+str1]'
p687
sg19
S'488b4de8'
p688
sg21
Vmov rcx, qword ptr [rbp - 0x18]
p689
sg5
L932906L
sg6
Nsg23
S'mov'
p690
sg25
S'0xe3c2aL'
p691
sg27
Nsba(ibclass
BInstr
p692
(dp693
g2
Nsg17
S'mov     rax, [rbp+ret]'
p694
sg19
S'488b45f8'
p695
sg21
Vmov rax, qword ptr [rbp - 8]
p696
sg5
L932910L
sg6
Nsg23
S'mov'
p697
sg25
S'0xe3c2eL'
p698
sg27
Nsba(ibclass
BInstr
p699
(dp700
g2
Nsg17
S'mov     rsi, rcx        ; src'
p701
sg19
S'4889ce'
p702
sg21
Vmov rsi, rcx
p703
sg5
L932914L
sg6
Nsg23
S'mov'
p704
sg25
S'0xe3c32L'
p705
sg27
Nsba(ibclass
BInstr
p706
(dp707
g2
Nsg17
S'mov     rdi, rax        ; dest'
p708
sg19
S'4889c7'
p709
sg21
Vmov rdi, rax
p710
sg5
L932917L
sg6
Nsg23
S'mov'
p711
sg25
S'0xe3c35L'
p712
sg27
Nsba(ibclass
BInstr
p713
(dp714
g2
Nsg17
S'call    memcpy'
p715
sg19
S'e8eb84f4ff'
p716
sg21
Vcall 0xfffffffffff484f0
p717
sg5
L932920L
sg6
Nsg23
S'call'
p718
sg25
S'0xe3c38L'
p719
sg27
Nsba(ibclass
BInstr
p720
(dp721
g2
Nsg17
S'mov     eax, [rbp+len]'
p722
sg19
S'8b45dc'
p723
sg21
Vmov eax, dword ptr [rbp - 0x24]
p724
sg5
L932925L
sg6
Nsg23
S'mov'
p725
sg25
S'0xe3c3dL'
p726
sg27
Nsba(ibclass
BInstr
p727
(dp728
g2
Nsg17
S'movsxd  rdx, eax        ; n'
p729
sg19
S'4863d0'
p730
sg21
Vmovsxd rdx, eax
p731
sg5
L932928L
sg6
Nsg23
S'movsxd'
p732
sg25
S'0xe3c40L'
p733
sg27
Nsba(ibclass
BInstr
p734
(dp735
g2
Nsg17
S'mov     eax, [rbp+size]'
p736
sg19
S'8b45f4'
p737
sg21
Vmov eax, dword ptr [rbp - 0xc]
p738
sg5
L932931L
sg6
Nsg23
S'mov'
p739
sg25
S'0xe3c43L'
p740
sg27
Nsba(ibclass
BInstr
p741
(dp742
g2
Nsg17
S'movsxd  rcx, eax'
p743
sg19
S'4863c8'
p744
sg21
Vmovsxd rcx, eax
p745
sg5
L932934L
sg6
Nsg23
S'movsxd'
p746
sg25
S'0xe3c46L'
p747
sg27
Nsba(ibclass
BInstr
p748
(dp749
g2
Nsg17
S'mov     rax, [rbp+ret]'
p750
sg19
S'488b45f8'
p751
sg21
Vmov rax, qword ptr [rbp - 8]
p752
sg5
L932937L
sg6
Nsg23
S'mov'
p753
sg25
S'0xe3c49L'
p754
sg27
Nsba(ibclass
BInstr
p755
(dp756
g2
Nsg17
S'add     rcx, rax'
p757
sg19
S'4801c1'
p758
sg21
Vadd rcx, rax
p759
sg5
L932941L
sg6
Nsg23
S'add'
p760
sg25
S'0xe3c4dL'
p761
sg27
Nsba(ibclass
BInstr
p762
(dp763
g2
Nsg17
S'mov     rax, [rbp+str2]'
p764
sg19
S'488b45e0'
p765
sg21
Vmov rax, qword ptr [rbp - 0x20]
p766
sg5
L932944L
sg6
Nsg23
S'mov'
p767
sg25
S'0xe3c50L'
p768
sg27
Nsba(ibclass
BInstr
p769
(dp770
g2
Nsg17
S'mov     rsi, rax        ; src'
p771
sg19
S'4889c6'
p772
sg21
Vmov rsi, rax
p773
sg5
L932948L
sg6
Nsg23
S'mov'
p774
sg25
S'0xe3c54L'
p775
sg27
Nsba(ibclass
BInstr
p776
(dp777
g2
Nsg17
S'mov     rdi, rcx        ; dest'
p778
sg19
S'4889cf'
p779
sg21
Vmov rdi, rcx
p780
sg5
L932951L
sg6
Nsg23
S'mov'
p781
sg25
S'0xe3c57L'
p782
sg27
Nsba(ibclass
BInstr
p783
(dp784
g2
Nsg17
S'call    memcpy'
p785
sg19
S'e8c984f4ff'
p786
sg21
Vcall 0xfffffffffff484ce
p787
sg5
L932954L
sg6
Nsg23
S'call'
p788
sg25
S'0xe3c5aL'
p789
sg27
Nsba(ibclass
BInstr
p790
(dp791
g2
Nsg17
S'mov     edx, [rbp+size]'
p792
sg19
S'8b55f4'
p793
sg21
Vmov edx, dword ptr [rbp - 0xc]
p794
sg5
L932959L
sg6
Nsg23
S'mov'
p795
sg25
S'0xe3c5fL'
p796
sg27
Nsba(ibclass
BInstr
p797
(dp798
g2
Nsg17
S'mov     eax, [rbp+len]'
p799
sg19
S'8b45dc'
p800
sg21
Vmov eax, dword ptr [rbp - 0x24]
p801
sg5
L932962L
sg6
Nsg23
S'mov'
p802
sg25
S'0xe3c62L'
p803
sg27
Nsba(ibclass
BInstr
p804
(dp805
g2
Nsg17
S'add     eax, edx'
p806
sg19
S'01d0'
p807
sg21
Vadd eax, edx
p808
sg5
L932965L
sg6
Nsg23
S'add'
p809
sg25
S'0xe3c65L'
p810
sg27
Nsba(ibclass
BInstr
p811
(dp812
g2
Nsg17
S'movsxd  rdx, eax'
p813
sg19
S'4863d0'
p814
sg21
Vmovsxd rdx, eax
p815
sg5
L932967L
sg6
Nsg23
S'movsxd'
p816
sg25
S'0xe3c67L'
p817
sg27
Nsba(ibclass
BInstr
p818
(dp819
g2
Nsg17
S'mov     rax, [rbp+ret]'
p820
sg19
S'488b45f8'
p821
sg21
Vmov rax, qword ptr [rbp - 8]
p822
sg5
L932970L
sg6
Nsg23
S'mov'
p823
sg25
S'0xe3c6aL'
p824
sg27
Nsba(ibclass
BInstr
p825
(dp826
g2
Nsg17
S'add     rax, rdx'
p827
sg19
S'4801d0'
p828
sg21
Vadd rax, rdx
p829
sg5
L932974L
sg6
Nsg23
S'add'
p830
sg25
S'0xe3c6eL'
p831
sg27
Nsba(ibclass
BInstr
p832
(dp833
g2
Nsg17
S'mov     byte ptr [rax], 0'
p834
sg19
S'c60000'
p835
sg21
Vmov byte ptr [rax], 0
p836
sg5
L932977L
sg6
Nsg23
S'mov'
p837
sg25
S'0xe3c71L'
p838
sg27
Nsba(ibclass
BInstr
p839
(dp840
g2
Nsg17
S'mov     rax, [rbp+ret]'
p841
sg19
S'488b45f8'
p842
sg21
Vmov rax, qword ptr [rbp - 8]
p843
sg5
L932980L
sg6
Nsg23
S'mov'
p844
sg25
S'0xe3c74L'
p845
sg27
Nsbasg77
(lp846
S'mov reg, mem'
p847
aS'movsxd reg, reg'
p848
aS'mov reg, mem'
p849
aS'mov reg, mem'
p850
aS'mov reg, reg'
p851
aS'mov reg, reg'
p852
aS'cregl memcpy'
p853
aS'mov reg, mem'
p854
aS'movsxd reg, reg'
p855
aS'mov reg, mem'
p856
aS'movsxd reg, reg'
p857
aS'mov reg, mem'
p858
aS'add reg, reg'
p859
aS'mov reg, mem'
p860
aS'mov reg, reg'
p861
aS'mov reg, reg'
p862
aS'cregl memcpy'
p863
aS'mov reg, mem'
p864
aS'mov reg, mem'
p865
aS'add reg, reg'
p866
aS'movsxd reg, reg'
p867
aS'mov reg, mem'
p868
aS'add reg, reg'
p869
aS'mov mem, 0'
p870
aS'mov reg, mem'
p871
asg87
Nsg5
S'0xe3c24L'
p872
sg89
(lp873
S'0xe3bdaL'
p874
asg6
Nsg91
(lp875
S'0xe3c78L'
p876
asg95
Nsg96
Nsg97
S'0b08d19a88949deccc54a7679da0d675'
p877
sg99
S'de990e40eaec0f05a46c633ba48661a1'
p878
sg101
(lp879
g676
ag683
ag690
ag697
ag704
ag711
ag718
ag725
ag732
ag739
ag746
ag753
ag760
ag767
ag774
ag781
ag788
ag795
ag802
ag809
ag816
ag823
ag830
ag837
ag844
asg103
Nsba(ibclass
BBasicBlock
p880
(dp881
g12
Nsg13
(lp882
(ibclass
BInstr
p883
(dp884
g2
Nsg17
S'leave'
p885
sg19
S'c9'
p886
sg21
Vleave 
p887
sg5
L932984L
sg6
Nsg23
S'leave'
p888
sg25
S'0xe3c78L'
p889
sg27
Nsba(ibclass
BInstr
p890
(dp891
g2
Nsg17
S'retn'
p892
sg19
S'c3'
p893
sg21
Vret 
p894
sg5
L932985L
sg6
Nsg23
S'retn'
p895
sg25
S'0xe3c79L'
p896
sg27
Nsbasg77
(lp897
g885
ag892
asg87
Nsg5
S'0xe3c78L'
p898
sg89
(lp899
S'0xe3b76L'
p900
aS'0xe3b8dL'
p901
aS'0xe3ba5L'
p902
aS'0xe3bd0L'
p903
aS'0xe3c02L'
p904
aS'0xe3c24L'
p905
asg6
Nsg91
(lp906
sg95
Nsg96
Nsg97
S'08c78f73a6f87c85da88b2982f54ce2a'
p907
sg99
S'08c78f73a6f87c85da88b2982f54ce2a'
p908
sg101
(lp909
g888
ag895
asg103
Nsbasb.