(ibclass
BFunc
p0
(dp1
S'hash'
p2
NsS'name'
p3
S'xmlXPtrNewRange__internal_alias'
p4
sS'start_address'
p5
L814473L
sS'flag'
p6
NsS'program'
p7
NsS'bbs'
p8
(lp9
(ibclass
BBasicBlock
p10
(dp11
S'function'
p12
NsS'binstrs'
p13
(lp14
(ibclass
BInstr
p15
(dp16
g2
NsS'disasm'
p17
S"push    rbp             ; Alternative name is 'xmlXPtrNewRange'"
p18
sS'bytes'
p19
S'55'
p20
sS'disasm_striped'
p21
Vpush rbp
p22
sg5
L814473L
sg6
NsS'mnem'
p23
S'push'
p24
sS'address'
p25
S'0xc6d89L'
p26
sS'basicblock'
p27
Nsba(ibclass
BInstr
p28
(dp29
g2
Nsg17
S'mov     rbp, rsp'
p30
sg19
S'4889e5'
p31
sg21
Vmov rbp, rsp
p32
sg5
L814474L
sg6
Nsg23
S'mov'
p33
sg25
S'0xc6d8aL'
p34
sg27
Nsba(ibclass
BInstr
p35
(dp36
g2
Nsg17
S'sub     rsp, 30h'
p37
sg19
S'4883ec30'
p38
sg21
Vsub rsp, 0x30
p39
sg5
L814477L
sg6
Nsg23
S'sub'
p40
sg25
S'0xc6d8dL'
p41
sg27
Nsba(ibclass
BInstr
p42
(dp43
g2
Nsg17
S'mov     [rbp+start], rdi'
p44
sg19
S'48897de8'
p45
sg21
Vmov qword ptr [rbp - 0x18], rdi
p46
sg5
L814481L
sg6
Nsg23
S'mov'
p47
sg25
S'0xc6d91L'
p48
sg27
Nsba(ibclass
BInstr
p49
(dp50
g2
Nsg17
S'mov     [rbp+startindex], esi'
p51
sg19
S'8975e4'
p52
sg21
Vmov dword ptr [rbp - 0x1c], esi
p53
sg5
L814485L
sg6
Nsg23
S'mov'
p54
sg25
S'0xc6d95L'
p55
sg27
Nsba(ibclass
BInstr
p56
(dp57
g2
Nsg17
S'mov     [rbp+end], rdx'
p58
sg19
S'488955d8'
p59
sg21
Vmov qword ptr [rbp - 0x28], rdx
p60
sg5
L814488L
sg6
Nsg23
S'mov'
p61
sg25
S'0xc6d98L'
p62
sg27
Nsba(ibclass
BInstr
p63
(dp64
g2
Nsg17
S'mov     [rbp+endindex], ecx'
p65
sg19
S'894de0'
p66
sg21
Vmov dword ptr [rbp - 0x20], ecx
p67
sg5
L814492L
sg6
Nsg23
S'mov'
p68
sg25
S'0xc6d9cL'
p69
sg27
Nsba(ibclass
BInstr
p70
(dp71
g2
Nsg17
S'cmp     [rbp+start], 0'
p72
sg19
S'48837de800'
p73
sg21
Vcmp qword ptr [rbp - 0x18], 0
p74
sg5
L814495L
sg6
Nsg23
S'cmp'
p75
sg25
S'0xc6d9fL'
p76
sg27
Nsba(ibclass
BInstr
p77
(dp78
g2
Nsg17
S'jnz     short loc_C6DAD'
p79
sg19
S'7507'
p80
sg21
Vjne 9
p81
sg5
L814500L
sg6
Nsg23
S'jnz'
p82
sg25
S'0xc6da4L'
p83
sg27
NsbasS'disasm_list'
p84
(lp85
S'push reg'
p86
aS'mov reg, reg'
p87
aS'sub reg, 30h'
p88
aS'mov mem, reg'
p89
aS'mov mem, reg'
p90
aS'mov mem, reg'
p91
aS'mov mem, reg'
p92
aS'cmp mem, 0'
p93
aS'jnz func'
p94
asS'end_address'
p95
Nsg5
S'0xc6d89L'
p96
sS'preds'
p97
(lp98
sg6
NsS'succs'
p99
(lp100
S'0xc6da6L'
p101
aS'0xc6dadL'
p102
asS'hash_v3'
p103
NsS'flag_v2'
p104
NsS'hash_v1'
p105
S'0ecf0ae9aea5f44c74c52551308e5938'
p106
sS'hash_v2'
p107
S'81238323e347e1674cefbc7285051c5c'
p108
sS'mnen_list'
p109
(lp110
g24
ag33
ag40
ag47
ag54
ag61
ag68
ag75
ag82
asS'neighbour_disasm_list'
p111
Nsba(ibclass
BBasicBlock
p112
(dp113
g12
Nsg13
(lp114
(ibclass
BInstr
p115
(dp116
g2
Nsg17
S'mov     eax, 0'
p117
sg19
S'b800000000'
p118
sg21
Vmov eax, 0
p119
sg5
L814502L
sg6
Nsg23
S'mov'
p120
sg25
S'0xc6da6L'
p121
sg27
Nsba(ibclass
BInstr
p122
(dp123
g2
Nsg17
S'jmp     short locret_C6DFF'
p124
sg19
S'eb52'
p125
sg21
Vjmp 0x54
p126
sg5
L814507L
sg6
Nsg23
S'jmp'
p127
sg25
S'0xc6dabL'
p128
sg27
Nsbasg84
(lp129
S'mov reg, 0'
p130
aS'jmp short func'
p131
asg95
Nsg5
S'0xc6da6L'
p132
sg97
(lp133
S'0xc6d89L'
p134
asg6
Nsg99
(lp135
S'0xc6dffL'
p136
asg103
Nsg104
Nsg105
S'8b9a0d40e062be2b9b2d9885108fb196'
p137
sg107
S'2050644a6a17db8b92cb0a22070981a5'
p138
sg109
(lp139
g120
ag127
asg111
Nsba(ibclass
BBasicBlock
p140
(dp141
g12
Nsg13
(lp142
(ibclass
BInstr
p143
(dp144
g2
Nsg17
S'cmp     [rbp+end], 0'
p145
sg19
S'48837dd800'
p146
sg21
Vcmp qword ptr [rbp - 0x28], 0
p147
sg5
L814509L
sg6
Nsg23
S'cmp'
p148
sg25
S'0xc6dadL'
p149
sg27
Nsba(ibclass
BInstr
p150
(dp151
g2
Nsg17
S'jnz     short loc_C6DBB'
p152
sg19
S'7507'
p153
sg21
Vjne 9
p154
sg5
L814514L
sg6
Nsg23
S'jnz'
p155
sg25
S'0xc6db2L'
p156
sg27
Nsbasg84
(lp157
S'cmp mem, 0'
p158
aS'jnz func'
p159
asg95
Nsg5
S'0xc6dadL'
p160
sg97
(lp161
S'0xc6d89L'
p162
asg6
Nsg99
(lp163
S'0xc6db4L'
p164
aS'0xc6dbbL'
p165
asg103
Nsg104
Nsg105
S'30cb3d6f6a174adfabcde507f6944a52'
p166
sg107
S'98d72118630a4e08156799652c8790e6'
p167
sg109
(lp168
g148
ag155
asg111
Nsba(ibclass
BBasicBlock
p169
(dp170
g12
Nsg13
(lp171
(ibclass
BInstr
p172
(dp173
g2
Nsg17
S'mov     eax, 0'
p174
sg19
S'b800000000'
p175
sg21
Vmov eax, 0
p176
sg5
L814516L
sg6
Nsg23
S'mov'
p177
sg25
S'0xc6db4L'
p178
sg27
Nsba(ibclass
BInstr
p179
(dp180
g2
Nsg17
S'jmp     short locret_C6DFF'
p181
sg19
S'eb44'
p182
sg21
Vjmp 0x46
p183
sg5
L814521L
sg6
Nsg23
S'jmp'
p184
sg25
S'0xc6db9L'
p185
sg27
Nsbasg84
(lp186
S'mov reg, 0'
p187
aS'jmp short func'
p188
asg95
Nsg5
S'0xc6db4L'
p189
sg97
(lp190
S'0xc6dadL'
p191
asg6
Nsg99
(lp192
S'0xc6dffL'
p193
asg103
Nsg104
Nsg105
S'8b9a0d40e062be2b9b2d9885108fb196'
p194
sg107
S'2050644a6a17db8b92cb0a22070981a5'
p195
sg109
(lp196
g177
ag184
asg111
Nsba(ibclass
BBasicBlock
p197
(dp198
g12
Nsg13
(lp199
(ibclass
BInstr
p200
(dp201
g2
Nsg17
S'cmp     [rbp+startindex], 0'
p202
sg19
S'837de400'
p203
sg21
Vcmp dword ptr [rbp - 0x1c], 0
p204
sg5
L814523L
sg6
Nsg23
S'cmp'
p205
sg25
S'0xc6dbbL'
p206
sg27
Nsba(ibclass
BInstr
p207
(dp208
g2
Nsg17
S'jns     short loc_C6DC8'
p209
sg19
S'7907'
p210
sg21
Vjns 9
p211
sg5
L814527L
sg6
Nsg23
S'jns'
p212
sg25
S'0xc6dbfL'
p213
sg27
Nsbasg84
(lp214
S'cmp mem, 0'
p215
aS'jns func'
p216
asg95
Nsg5
S'0xc6dbbL'
p217
sg97
(lp218
S'0xc6dadL'
p219
asg6
Nsg99
(lp220
S'0xc6dc1L'
p221
aS'0xc6dc8L'
p222
asg103
Nsg104
Nsg105
S'4606fac8e515e3a38d5c4b959bb9f722'
p223
sg107
S'f66dbfc04e345dcd4ba0ce322e486985'
p224
sg109
(lp225
g205
ag212
asg111
Nsba(ibclass
BBasicBlock
p226
(dp227
g12
Nsg13
(lp228
(ibclass
BInstr
p229
(dp230
g2
Nsg17
S'mov     eax, 0'
p231
sg19
S'b800000000'
p232
sg21
Vmov eax, 0
p233
sg5
L814529L
sg6
Nsg23
S'mov'
p234
sg25
S'0xc6dc1L'
p235
sg27
Nsba(ibclass
BInstr
p236
(dp237
g2
Nsg17
S'jmp     short locret_C6DFF'
p238
sg19
S'eb37'
p239
sg21
Vjmp 0x39
p240
sg5
L814534L
sg6
Nsg23
S'jmp'
p241
sg25
S'0xc6dc6L'
p242
sg27
Nsbasg84
(lp243
S'mov reg, 0'
p244
aS'jmp short func'
p245
asg95
Nsg5
S'0xc6dc1L'
p246
sg97
(lp247
S'0xc6dbbL'
p248
asg6
Nsg99
(lp249
S'0xc6dffL'
p250
asg103
Nsg104
Nsg105
S'8b9a0d40e062be2b9b2d9885108fb196'
p251
sg107
S'2050644a6a17db8b92cb0a22070981a5'
p252
sg109
(lp253
g234
ag241
asg111
Nsba(ibclass
BBasicBlock
p254
(dp255
g12
Nsg13
(lp256
(ibclass
BInstr
p257
(dp258
g2
Nsg17
S'cmp     [rbp+endindex], 0'
p259
sg19
S'837de000'
p260
sg21
Vcmp dword ptr [rbp - 0x20], 0
p261
sg5
L814536L
sg6
Nsg23
S'cmp'
p262
sg25
S'0xc6dc8L'
p263
sg27
Nsba(ibclass
BInstr
p264
(dp265
g2
Nsg17
S'jns     short loc_C6DD5'
p266
sg19
S'7907'
p267
sg21
Vjns 9
p268
sg5
L814540L
sg6
Nsg23
S'jns'
p269
sg25
S'0xc6dccL'
p270
sg27
Nsbasg84
(lp271
S'cmp mem, 0'
p272
aS'jns func'
p273
asg95
Nsg5
S'0xc6dc8L'
p274
sg97
(lp275
S'0xc6dbbL'
p276
asg6
Nsg99
(lp277
S'0xc6dceL'
p278
aS'0xc6dd5L'
p279
asg103
Nsg104
Nsg105
S'4606fac8e515e3a38d5c4b959bb9f722'
p280
sg107
S'f66dbfc04e345dcd4ba0ce322e486985'
p281
sg109
(lp282
g262
ag269
asg111
Nsba(ibclass
BBasicBlock
p283
(dp284
g12
Nsg13
(lp285
(ibclass
BInstr
p286
(dp287
g2
Nsg17
S'mov     eax, 0'
p288
sg19
S'b800000000'
p289
sg21
Vmov eax, 0
p290
sg5
L814542L
sg6
Nsg23
S'mov'
p291
sg25
S'0xc6dceL'
p292
sg27
Nsba(ibclass
BInstr
p293
(dp294
g2
Nsg17
S'jmp     short locret_C6DFF'
p295
sg19
S'eb2a'
p296
sg21
Vjmp 0x2c
p297
sg5
L814547L
sg6
Nsg23
S'jmp'
p298
sg25
S'0xc6dd3L'
p299
sg27
Nsbasg84
(lp300
S'mov reg, 0'
p301
aS'jmp short func'
p302
asg95
Nsg5
S'0xc6dceL'
p303
sg97
(lp304
S'0xc6dc8L'
p305
asg6
Nsg99
(lp306
S'0xc6dffL'
p307
asg103
Nsg104
Nsg105
S'8b9a0d40e062be2b9b2d9885108fb196'
p308
sg107
S'2050644a6a17db8b92cb0a22070981a5'
p309
sg109
(lp310
g291
ag298
asg111
Nsba(ibclass
BBasicBlock
p311
(dp312
g12
Nsg13
(lp313
(ibclass
BInstr
p314
(dp315
g2
Nsg17
S'mov     ecx, [rbp+endindex]; endindex'
p316
sg19
S'8b4de0'
p317
sg21
Vmov ecx, dword ptr [rbp - 0x20]
p318
sg5
L814549L
sg6
Nsg23
S'mov'
p319
sg25
S'0xc6dd5L'
p320
sg27
Nsba(ibclass
BInstr
p321
(dp322
g2
Nsg17
S'mov     rdx, [rbp+end]  ; end'
p323
sg19
S'488b55d8'
p324
sg21
Vmov rdx, qword ptr [rbp - 0x28]
p325
sg5
L814552L
sg6
Nsg23
S'mov'
p326
sg25
S'0xc6dd8L'
p327
sg27
Nsba(ibclass
BInstr
p328
(dp329
g2
Nsg17
S'mov     esi, [rbp+startindex]; startindex'
p330
sg19
S'8b75e4'
p331
sg21
Vmov esi, dword ptr [rbp - 0x1c]
p332
sg5
L814556L
sg6
Nsg23
S'mov'
p333
sg25
S'0xc6ddcL'
p334
sg27
Nsba(ibclass
BInstr
p335
(dp336
g2
Nsg17
S'mov     rax, [rbp+start]'
p337
sg19
S'488b45e8'
p338
sg21
Vmov rax, qword ptr [rbp - 0x18]
p339
sg5
L814559L
sg6
Nsg23
S'mov'
p340
sg25
S'0xc6ddfL'
p341
sg27
Nsba(ibclass
BInstr
p342
(dp343
g2
Nsg17
S'mov     rdi, rax        ; start'
p344
sg19
S'4889c7'
p345
sg21
Vmov rdi, rax
p346
sg5
L814563L
sg6
Nsg23
S'mov'
p347
sg25
S'0xc6de3L'
p348
sg27
Nsba(ibclass
BInstr
p349
(dp350
g2
Nsg17
S'call    xmlXPtrNewRangeInternal'
p351
sg19
S'e8d0feffff'
p352
sg21
Vcall 0xfffffffffffffed5
p353
sg5
L814566L
sg6
Nsg23
S'call'
p354
sg25
S'0xc6de6L'
p355
sg27
Nsba(ibclass
BInstr
p356
(dp357
g2
Nsg17
S'mov     [rbp+ret], rax'
p358
sg19
S'488945f8'
p359
sg21
Vmov qword ptr [rbp - 8], rax
p360
sg5
L814571L
sg6
Nsg23
S'mov'
p361
sg25
S'0xc6debL'
p362
sg27
Nsba(ibclass
BInstr
p363
(dp364
g2
Nsg17
S'mov     rax, [rbp+ret]'
p365
sg19
S'488b45f8'
p366
sg21
Vmov rax, qword ptr [rbp - 8]
p367
sg5
L814575L
sg6
Nsg23
S'mov'
p368
sg25
S'0xc6defL'
p369
sg27
Nsba(ibclass
BInstr
p370
(dp371
g2
Nsg17
S'mov     rdi, rax        ; range'
p372
sg19
S'4889c7'
p373
sg21
Vmov rdi, rax
p374
sg5
L814579L
sg6
Nsg23
S'mov'
p375
sg25
S'0xc6df3L'
p376
sg27
Nsba(ibclass
BInstr
p377
(dp378
g2
Nsg17
S'call    xmlXPtrRangeCheckOrder'
p379
sg19
S'e830fdffff'
p380
sg21
Vcall 0xfffffffffffffd35
p381
sg5
L814582L
sg6
Nsg23
S'call'
p382
sg25
S'0xc6df6L'
p383
sg27
Nsba(ibclass
BInstr
p384
(dp385
g2
Nsg17
S'mov     rax, [rbp+ret]'
p386
sg19
S'488b45f8'
p387
sg21
Vmov rax, qword ptr [rbp - 8]
p388
sg5
L814587L
sg6
Nsg23
S'mov'
p389
sg25
S'0xc6dfbL'
p390
sg27
Nsbasg84
(lp391
S'mov reg, mem'
p392
aS'mov reg, mem'
p393
aS'mov reg, mem'
p394
aS'mov reg, mem'
p395
aS'mov reg, reg'
p396
aS'cregl xmlXPtrNewRangeInternreg'
p397
aS'mov mem, reg'
p398
aS'mov reg, mem'
p399
aS'mov reg, reg'
p400
aS'cregl xmlXPtrRangeCheckOrder'
p401
aS'mov reg, mem'
p402
asg95
Nsg5
S'0xc6dd5L'
p403
sg97
(lp404
S'0xc6dc8L'
p405
asg6
Nsg99
(lp406
S'0xc6dffL'
p407
asg103
Nsg104
Nsg105
S'c2e3fc706a58a1a3da047a33c807c4d6'
p408
sg107
S'b01a5b5452ffe3045d199770c0fc4fd6'
p409
sg109
(lp410
g319
ag326
ag333
ag340
ag347
ag354
ag361
ag368
ag375
ag382
ag389
asg111
Nsba(ibclass
BBasicBlock
p411
(dp412
g12
Nsg13
(lp413
(ibclass
BInstr
p414
(dp415
g2
Nsg17
S'leave'
p416
sg19
S'c9'
p417
sg21
Vleave 
p418
sg5
L814591L
sg6
Nsg23
S'leave'
p419
sg25
S'0xc6dffL'
p420
sg27
Nsba(ibclass
BInstr
p421
(dp422
g2
Nsg17
S'retn'
p423
sg19
S'c3'
p424
sg21
Vret 
p425
sg5
L814592L
sg6
Nsg23
S'retn'
p426
sg25
S'0xc6e00L'
p427
sg27
Nsbasg84
(lp428
g416
ag423
asg95
Nsg5
S'0xc6dffL'
p429
sg97
(lp430
S'0xc6da6L'
p431
aS'0xc6db4L'
p432
aS'0xc6dc1L'
p433
aS'0xc6dceL'
p434
aS'0xc6dd5L'
p435
asg6
Nsg99
(lp436
sg103
Nsg104
Nsg105
S'08c78f73a6f87c85da88b2982f54ce2a'
p437
sg107
S'08c78f73a6f87c85da88b2982f54ce2a'
p438
sg109
(lp439
g419
ag426
asg111
Nsbasb.