(ibclass
BFunc
p0
(dp1
S'hash'
p2
NsS'name'
p3
S'xmlStrncat__internal_alias'
p4
sS'start_address'
p5
L931273L
sS'flag'
p6
NsS'program'
p7
NsS'bbs'
p8
(lp9
(ibclass
BBasicBlock
p10
(dp11
S'function'
p12
NsS'binstrs'
p13
(lp14
(ibclass
BInstr
p15
(dp16
g2
NsS'disasm'
p17
S"push    rbp             ; Alternative name is 'xmlStrncat'"
p18
sS'bytes'
p19
S'55'
p20
sS'disasm_striped'
p21
Vpush rbp
p22
sg5
L931273L
sg6
NsS'mnem'
p23
S'push'
p24
sS'address'
p25
S'0xe35c9L'
p26
sS'basicblock'
p27
Nsba(ibclass
BInstr
p28
(dp29
g2
Nsg17
S'mov     rbp, rsp'
p30
sg19
S'4889e5'
p31
sg21
Vmov rbp, rsp
p32
sg5
L931274L
sg6
Nsg23
S'mov'
p33
sg25
S'0xe35caL'
p34
sg27
Nsba(ibclass
BInstr
p35
(dp36
g2
Nsg17
S'sub     rsp, 30h'
p37
sg19
S'4883ec30'
p38
sg21
Vsub rsp, 0x30
p39
sg5
L931277L
sg6
Nsg23
S'sub'
p40
sg25
S'0xe35cdL'
p41
sg27
Nsba(ibclass
BInstr
p42
(dp43
g2
Nsg17
S'mov     [rbp+cur], rdi'
p44
sg19
S'48897de8'
p45
sg21
Vmov qword ptr [rbp - 0x18], rdi
p46
sg5
L931281L
sg6
Nsg23
S'mov'
p47
sg25
S'0xe35d1L'
p48
sg27
Nsba(ibclass
BInstr
p49
(dp50
g2
Nsg17
S'mov     [rbp+add], rsi'
p51
sg19
S'488975e0'
p52
sg21
Vmov qword ptr [rbp - 0x20], rsi
p53
sg5
L931285L
sg6
Nsg23
S'mov'
p54
sg25
S'0xe35d5L'
p55
sg27
Nsba(ibclass
BInstr
p56
(dp57
g2
Nsg17
S'mov     [rbp+len], edx'
p58
sg19
S'8955dc'
p59
sg21
Vmov dword ptr [rbp - 0x24], edx
p60
sg5
L931289L
sg6
Nsg23
S'mov'
p61
sg25
S'0xe35d9L'
p62
sg27
Nsba(ibclass
BInstr
p63
(dp64
g2
Nsg17
S'cmp     [rbp+add], 0'
p65
sg19
S'48837de000'
p66
sg21
Vcmp qword ptr [rbp - 0x20], 0
p67
sg5
L931292L
sg6
Nsg23
S'cmp'
p68
sg25
S'0xe35dcL'
p69
sg27
Nsba(ibclass
BInstr
p70
(dp71
g2
Nsg17
S'jz      short loc_E35E9'
p72
sg19
S'7406'
p73
sg21
Vje 8
p74
sg5
L931297L
sg6
Nsg23
S'jz'
p75
sg25
S'0xe35e1L'
p76
sg27
NsbasS'disasm_list'
p77
(lp78
S'push reg'
p79
aS'mov reg, reg'
p80
aS'sub reg, 30h'
p81
aS'mov mem, reg'
p82
aS'mov mem, reg'
p83
aS'mov mem, reg'
p84
aS'cmp mem, 0'
p85
aS'jz func'
p86
asS'end_address'
p87
Nsg5
S'0xe35c9L'
p88
sS'preds'
p89
(lp90
sg6
NsS'succs'
p91
(lp92
S'0xe35e3L'
p93
aS'0xe35e9L'
p94
asS'hash_v3'
p95
NsS'flag_v2'
p96
NsS'hash_v1'
p97
S'5e0d9e04d51d2bbf795aef1bb6a73128'
p98
sS'hash_v2'
p99
S'8042acee3c8262f26202a22e5b4b2f9b'
p100
sS'mnen_list'
p101
(lp102
g24
ag33
ag40
ag47
ag54
ag61
ag68
ag75
asS'neighbour_disasm_list'
p103
Nsba(ibclass
BBasicBlock
p104
(dp105
g12
Nsg13
(lp106
(ibclass
BInstr
p107
(dp108
g2
Nsg17
S'cmp     [rbp+len], 0'
p109
sg19
S'837ddc00'
p110
sg21
Vcmp dword ptr [rbp - 0x24], 0
p111
sg5
L931299L
sg6
Nsg23
S'cmp'
p112
sg25
S'0xe35e3L'
p113
sg27
Nsba(ibclass
BInstr
p114
(dp115
g2
Nsg17
S'jnz     short loc_E35F2'
p116
sg19
S'7509'
p117
sg21
Vjne 0xb
p118
sg5
L931303L
sg6
Nsg23
S'jnz'
p119
sg25
S'0xe35e7L'
p120
sg27
Nsbasg77
(lp121
S'cmp mem, 0'
p122
aS'jnz func'
p123
asg87
Nsg5
S'0xe35e3L'
p124
sg89
(lp125
S'0xe35c9L'
p126
asg6
Nsg91
(lp127
S'0xe35e9L'
p128
aS'0xe35f2L'
p129
asg95
Nsg96
Nsg97
S'30cb3d6f6a174adfabcde507f6944a52'
p130
sg99
S'98d72118630a4e08156799652c8790e6'
p131
sg101
(lp132
g112
ag119
asg103
Nsba(ibclass
BBasicBlock
p133
(dp134
g12
Nsg13
(lp135
(ibclass
BInstr
p136
(dp137
g2
Nsg17
S'mov     rax, [rbp+cur]'
p138
sg19
S'488b45e8'
p139
sg21
Vmov rax, qword ptr [rbp - 0x18]
p140
sg5
L931305L
sg6
Nsg23
S'mov'
p141
sg25
S'0xe35e9L'
p142
sg27
Nsba(ibclass
BInstr
p143
(dp144
g2
Nsg17
S'jmp     locret_E36BA'
p145
sg19
S'e9c8000000'
p146
sg21
Vjmp 0xcd
p147
sg5
L931309L
sg6
Nsg23
S'jmp'
p148
sg25
S'0xe35edL'
p149
sg27
Nsbasg77
(lp150
S'mov reg, mem'
p151
aS'jmp func'
p152
asg87
Nsg5
S'0xe35e9L'
p153
sg89
(lp154
S'0xe35c9L'
p155
aS'0xe35e3L'
p156
asg6
Nsg91
(lp157
S'0xe36baL'
p158
asg95
Nsg96
Nsg97
S'8b9a0d40e062be2b9b2d9885108fb196'
p159
sg99
S'fb93e62bb77eb0a3c977d8bf344bb0b7'
p160
sg101
(lp161
g141
ag148
asg103
Nsba(ibclass
BBasicBlock
p162
(dp163
g12
Nsg13
(lp164
(ibclass
BInstr
p165
(dp166
g2
Nsg17
S'cmp     [rbp+len], 0'
p167
sg19
S'837ddc00'
p168
sg21
Vcmp dword ptr [rbp - 0x24], 0
p169
sg5
L931314L
sg6
Nsg23
S'cmp'
p170
sg25
S'0xe35f2L'
p171
sg27
Nsba(ibclass
BInstr
p172
(dp173
g2
Nsg17
S'jns     short loc_E3602'
p174
sg19
S'790a'
p175
sg21
Vjns 0xc
p176
sg5
L931318L
sg6
Nsg23
S'jns'
p177
sg25
S'0xe35f6L'
p178
sg27
Nsbasg77
(lp179
S'cmp mem, 0'
p180
aS'jns func'
p181
asg87
Nsg5
S'0xe35f2L'
p182
sg89
(lp183
S'0xe35e3L'
p184
asg6
Nsg91
(lp185
S'0xe35f8L'
p186
aS'0xe3602L'
p187
asg95
Nsg96
Nsg97
S'4606fac8e515e3a38d5c4b959bb9f722'
p188
sg99
S'f66dbfc04e345dcd4ba0ce322e486985'
p189
sg101
(lp190
g170
ag177
asg103
Nsba(ibclass
BBasicBlock
p191
(dp192
g12
Nsg13
(lp193
(ibclass
BInstr
p194
(dp195
g2
Nsg17
S'mov     eax, 0'
p196
sg19
S'b800000000'
p197
sg21
Vmov eax, 0
p198
sg5
L931320L
sg6
Nsg23
S'mov'
p199
sg25
S'0xe35f8L'
p200
sg27
Nsba(ibclass
BInstr
p201
(dp202
g2
Nsg17
S'jmp     locret_E36BA'
p203
sg19
S'e9b8000000'
p204
sg21
Vjmp 0xbd
p205
sg5
L931325L
sg6
Nsg23
S'jmp'
p206
sg25
S'0xe35fdL'
p207
sg27
Nsbasg77
(lp208
S'mov reg, 0'
p209
aS'jmp func'
p210
asg87
Nsg5
S'0xe35f8L'
p211
sg89
(lp212
S'0xe35f2L'
p213
asg6
Nsg91
(lp214
S'0xe36baL'
p215
asg95
Nsg96
Nsg97
S'8b9a0d40e062be2b9b2d9885108fb196'
p216
sg99
S'b9bc48935b5443504e35a59843f17cfd'
p217
sg101
(lp218
g199
ag206
asg103
Nsba(ibclass
BBasicBlock
p219
(dp220
g12
Nsg13
(lp221
(ibclass
BInstr
p222
(dp223
g2
Nsg17
S'cmp     [rbp+cur], 0'
p224
sg19
S'48837de800'
p225
sg21
Vcmp qword ptr [rbp - 0x18], 0
p226
sg5
L931330L
sg6
Nsg23
S'cmp'
p227
sg25
S'0xe3602L'
p228
sg27
Nsba(ibclass
BInstr
p229
(dp230
g2
Nsg17
S'jnz     short loc_E361F'
p231
sg19
S'7516'
p232
sg21
Vjne 0x18
p233
sg5
L931335L
sg6
Nsg23
S'jnz'
p234
sg25
S'0xe3607L'
p235
sg27
Nsbasg77
(lp236
S'cmp mem, 0'
p237
aS'jnz func'
p238
asg87
Nsg5
S'0xe3602L'
p239
sg89
(lp240
S'0xe35f2L'
p241
asg6
Nsg91
(lp242
S'0xe3609L'
p243
aS'0xe361fL'
p244
asg95
Nsg96
Nsg97
S'30cb3d6f6a174adfabcde507f6944a52'
p245
sg99
S'98d72118630a4e08156799652c8790e6'
p246
sg101
(lp247
g227
ag234
asg103
Nsba(ibclass
BBasicBlock
p248
(dp249
g12
Nsg13
(lp250
(ibclass
BInstr
p251
(dp252
g2
Nsg17
S'mov     edx, [rbp+len]'
p253
sg19
S'8b55dc'
p254
sg21
Vmov edx, dword ptr [rbp - 0x24]
p255
sg5
L931337L
sg6
Nsg23
S'mov'
p256
sg25
S'0xe3609L'
p257
sg27
Nsba(ibclass
BInstr
p258
(dp259
g2
Nsg17
S'mov     rax, [rbp+add]'
p260
sg19
S'488b45e0'
p261
sg21
Vmov rax, qword ptr [rbp - 0x20]
p262
sg5
L931340L
sg6
Nsg23
S'mov'
p263
sg25
S'0xe360cL'
p264
sg27
Nsba(ibclass
BInstr
p265
(dp266
g2
Nsg17
S'mov     esi, edx        ; len'
p267
sg19
S'89d6'
p268
sg21
Vmov esi, edx
p269
sg5
L931344L
sg6
Nsg23
S'mov'
p270
sg25
S'0xe3610L'
p271
sg27
Nsba(ibclass
BInstr
p272
(dp273
g2
Nsg17
S'mov     rdi, rax        ; cur'
p274
sg19
S'4889c7'
p275
sg21
Vmov rdi, rax
p276
sg5
L931346L
sg6
Nsg23
S'mov'
p277
sg25
S'0xe3612L'
p278
sg27
Nsba(ibclass
BInstr
p279
(dp280
g2
Nsg17
S'call    xmlStrndup__internal_alias'
p281
sg19
S'e8c6f7ffff'
p282
sg21
Vcall 0xfffffffffffff7cb
p283
sg5
L931349L
sg6
Nsg23
S'call'
p284
sg25
S'0xe3615L'
p285
sg27
Nsba(ibclass
BInstr
p286
(dp287
g2
Nsg17
S'jmp     locret_E36BA'
p288
sg19
S'e99b000000'
p289
sg21
Vjmp 0xa0
p290
sg5
L931354L
sg6
Nsg23
S'jmp'
p291
sg25
S'0xe361aL'
p292
sg27
Nsbasg77
(lp293
S'mov reg, mem'
p294
aS'mov reg, mem'
p295
aS'mov reg, reg'
p296
aS'mov reg, reg'
p297
aS'cregl xmlStrndup__internreg_regias'
p298
aS'jmp func'
p299
asg87
Nsg5
S'0xe3609L'
p300
sg89
(lp301
S'0xe3602L'
p302
asg6
Nsg91
(lp303
S'0xe36baL'
p304
asg95
Nsg96
Nsg97
S'ed0c14dac95c7bafb483aad1c36140be'
p305
sg99
S'0e1f46d4b3af9897b099d481fb7ef5ee'
p306
sg101
(lp307
g256
ag263
ag270
ag277
ag284
ag291
asg103
Nsba(ibclass
BBasicBlock
p308
(dp309
g12
Nsg13
(lp310
(ibclass
BInstr
p311
(dp312
g2
Nsg17
S'mov     rax, [rbp+cur]'
p313
sg19
S'488b45e8'
p314
sg21
Vmov rax, qword ptr [rbp - 0x18]
p315
sg5
L931359L
sg6
Nsg23
S'mov'
p316
sg25
S'0xe361fL'
p317
sg27
Nsba(ibclass
BInstr
p318
(dp319
g2
Nsg17
S'mov     rdi, rax        ; str'
p320
sg19
S'4889c7'
p321
sg21
Vmov rdi, rax
p322
sg5
L931363L
sg6
Nsg23
S'mov'
p323
sg25
S'0xe3623L'
p324
sg27
Nsba(ibclass
BInstr
p325
(dp326
g2
Nsg17
S'call    xmlStrlen__internal_alias'
p327
sg19
S'e868ffffff'
p328
sg21
Vcall 0xffffffffffffff6d
p329
sg5
L931366L
sg6
Nsg23
S'call'
p330
sg25
S'0xe3626L'
p331
sg27
Nsba(ibclass
BInstr
p332
(dp333
g2
Nsg17
S'mov     [rbp+size], eax'
p334
sg19
S'8945f4'
p335
sg21
Vmov dword ptr [rbp - 0xc], eax
p336
sg5
L931371L
sg6
Nsg23
S'mov'
p337
sg25
S'0xe362bL'
p338
sg27
Nsba(ibclass
BInstr
p339
(dp340
g2
Nsg17
S'cmp     [rbp+size], 0'
p341
sg19
S'837df400'
p342
sg21
Vcmp dword ptr [rbp - 0xc], 0
p343
sg5
L931374L
sg6
Nsg23
S'cmp'
p344
sg25
S'0xe362eL'
p345
sg27
Nsba(ibclass
BInstr
p346
(dp347
g2
Nsg17
S'jns     short loc_E363B'
p348
sg19
S'7907'
p349
sg21
Vjns 9
p350
sg5
L931378L
sg6
Nsg23
S'jns'
p351
sg25
S'0xe3632L'
p352
sg27
Nsbasg77
(lp353
S'mov reg, mem'
p354
aS'mov reg, reg'
p355
aS'cregl xmlStrlen__internreg_regias'
p356
aS'mov mem, reg'
p357
aS'cmp mem, 0'
p358
aS'jns func'
p359
asg87
Nsg5
S'0xe361fL'
p360
sg89
(lp361
S'0xe3602L'
p362
asg6
Nsg91
(lp363
S'0xe3634L'
p364
aS'0xe363bL'
p365
asg95
Nsg96
Nsg97
S'e47815e04caf5daad8b2d45acb18f6f9'
p366
sg99
S'61948599c0fcb052050a65126f06381d'
p367
sg101
(lp368
g316
ag323
ag330
ag337
ag344
ag351
asg103
Nsba(ibclass
BBasicBlock
p369
(dp370
g12
Nsg13
(lp371
(ibclass
BInstr
p372
(dp373
g2
Nsg17
S'mov     eax, 0'
p374
sg19
S'b800000000'
p375
sg21
Vmov eax, 0
p376
sg5
L931380L
sg6
Nsg23
S'mov'
p377
sg25
S'0xe3634L'
p378
sg27
Nsba(ibclass
BInstr
p379
(dp380
g2
Nsg17
S'jmp     short locret_E36BA'
p381
sg19
S'eb7f'
p382
sg21
Vjmp 0x81
p383
sg5
L931385L
sg6
Nsg23
S'jmp'
p384
sg25
S'0xe3639L'
p385
sg27
Nsbasg77
(lp386
S'mov reg, 0'
p387
aS'jmp short func'
p388
asg87
Nsg5
S'0xe3634L'
p389
sg89
(lp390
S'0xe361fL'
p391
asg6
Nsg91
(lp392
S'0xe36baL'
p393
asg95
Nsg96
Nsg97
S'8b9a0d40e062be2b9b2d9885108fb196'
p394
sg99
S'2050644a6a17db8b92cb0a22070981a5'
p395
sg101
(lp396
g377
ag384
asg103
Nsba(ibclass
BBasicBlock
p397
(dp398
g12
Nsg13
(lp399
(ibclass
BInstr
p400
(dp401
g2
Nsg17
S'mov     rax, cs:xmlRealloc_ptr'
p402
sg19
S'488b05ceb62d00'
p403
sg21
Vmov rax, qword ptr [rip + 0x2db6ce]
p404
sg5
L931387L
sg6
Nsg23
S'mov'
p405
sg25
S'0xe363bL'
p406
sg27
Nsba(ibclass
BInstr
p407
(dp408
g2
Nsg17
S'mov     rax, [rax]'
p409
sg19
S'488b00'
p410
sg21
Vmov rax, qword ptr [rax]
p411
sg5
L931394L
sg6
Nsg23
S'mov'
p412
sg25
S'0xe3642L'
p413
sg27
Nsba(ibclass
BInstr
p414
(dp415
g2
Nsg17
S'mov     ecx, [rbp+size]'
p416
sg19
S'8b4df4'
p417
sg21
Vmov ecx, dword ptr [rbp - 0xc]
p418
sg5
L931397L
sg6
Nsg23
S'mov'
p419
sg25
S'0xe3645L'
p420
sg27
Nsba(ibclass
BInstr
p421
(dp422
g2
Nsg17
S'mov     edx, [rbp+len]'
p423
sg19
S'8b55dc'
p424
sg21
Vmov edx, dword ptr [rbp - 0x24]
p425
sg5
L931400L
sg6
Nsg23
S'mov'
p426
sg25
S'0xe3648L'
p427
sg27
Nsba(ibclass
BInstr
p428
(dp429
g2
Nsg17
S'add     edx, ecx'
p430
sg19
S'01ca'
p431
sg21
Vadd edx, ecx
p432
sg5
L931403L
sg6
Nsg23
S'add'
p433
sg25
S'0xe364bL'
p434
sg27
Nsba(ibclass
BInstr
p435
(dp436
g2
Nsg17
S'add     edx, 1'
p437
sg19
S'83c201'
p438
sg21
Vadd edx, 1
p439
sg5
L931405L
sg6
Nsg23
S'add'
p440
sg25
S'0xe364dL'
p441
sg27
Nsba(ibclass
BInstr
p442
(dp443
g2
Nsg17
S'movsxd  rcx, edx'
p444
sg19
S'4863ca'
p445
sg21
Vmovsxd rcx, edx
p446
sg5
L931408L
sg6
Nsg23
S'movsxd'
p447
sg25
S'0xe3650L'
p448
sg27
Nsba(ibclass
BInstr
p449
(dp450
g2
Nsg17
S'mov     rdx, [rbp+cur]'
p451
sg19
S'488b55e8'
p452
sg21
Vmov rdx, qword ptr [rbp - 0x18]
p453
sg5
L931411L
sg6
Nsg23
S'mov'
p454
sg25
S'0xe3653L'
p455
sg27
Nsba(ibclass
BInstr
p456
(dp457
g2
Nsg17
S'mov     rsi, rcx'
p458
sg19
S'4889ce'
p459
sg21
Vmov rsi, rcx
p460
sg5
L931415L
sg6
Nsg23
S'mov'
p461
sg25
S'0xe3657L'
p462
sg27
Nsba(ibclass
BInstr
p463
(dp464
g2
Nsg17
S'mov     rdi, rdx'
p465
sg19
S'4889d7'
p466
sg21
Vmov rdi, rdx
p467
sg5
L931418L
sg6
Nsg23
S'mov'
p468
sg25
S'0xe365aL'
p469
sg27
Nsba(ibclass
BInstr
p470
(dp471
g2
Nsg17
S'call    rax'
p472
sg19
S'ffd0'
p473
sg21
Vcall rax
p474
sg5
L931421L
sg6
Nsg23
S'call'
p475
sg25
S'0xe365dL'
p476
sg27
Nsba(ibclass
BInstr
p477
(dp478
g2
Nsg17
S'mov     [rbp+ret], rax'
p479
sg19
S'488945f8'
p480
sg21
Vmov qword ptr [rbp - 8], rax
p481
sg5
L931423L
sg6
Nsg23
S'mov'
p482
sg25
S'0xe365fL'
p483
sg27
Nsba(ibclass
BInstr
p484
(dp485
g2
Nsg17
S'cmp     [rbp+ret], 0'
p486
sg19
S'48837df800'
p487
sg21
Vcmp qword ptr [rbp - 8], 0
p488
sg5
L931427L
sg6
Nsg23
S'cmp'
p489
sg25
S'0xe3663L'
p490
sg27
Nsba(ibclass
BInstr
p491
(dp492
g2
Nsg17
S'jnz     short loc_E367F'
p493
sg19
S'7515'
p494
sg21
Vjne 0x17
p495
sg5
L931432L
sg6
Nsg23
S'jnz'
p496
sg25
S'0xe3668L'
p497
sg27
Nsbasg77
(lp498
S'mov reg, cs:xmlReregloc_ptr'
p499
aS'mov reg, mem'
p500
aS'mov reg, mem'
p501
aS'mov reg, mem'
p502
aS'add reg, reg'
p503
aS'add reg, 1'
p504
aS'movsxd reg, reg'
p505
aS'mov reg, mem'
p506
aS'mov reg, reg'
p507
aS'mov reg, reg'
p508
aS'cregl reg'
p509
aS'mov mem, reg'
p510
aS'cmp mem, 0'
p511
aS'jnz func'
p512
asg87
Nsg5
S'0xe363bL'
p513
sg89
(lp514
S'0xe361fL'
p515
asg6
Nsg91
(lp516
S'0xe366aL'
p517
aS'0xe367fL'
p518
asg95
Nsg96
Nsg97
S'be9663c698ec7eee11cf1744bd450a84'
p519
sg99
S'c01464e21558403b0bd6e426e75870c2'
p520
sg101
(lp521
g405
ag412
ag419
ag426
ag433
ag440
ag447
ag454
ag461
ag468
ag475
ag482
ag489
ag496
asg103
Nsba(ibclass
BBasicBlock
p522
(dp523
g12
Nsg13
(lp524
(ibclass
BInstr
p525
(dp526
g2
Nsg17
S'mov     esi, 0          ; extra'
p527
sg19
S'be00000000'
p528
sg21
Vmov esi, 0
p529
sg5
L931434L
sg6
Nsg23
S'mov'
p530
sg25
S'0xe366aL'
p531
sg27
Nsba(ibclass
BInstr
p532
(dp533
g2
Nsg17
S'mov     edi, 0          ; ctxt'
p534
sg19
S'bf00000000'
p535
sg21
Vmov edi, 0
p536
sg5
L931439L
sg6
Nsg23
S'mov'
p537
sg25
S'0xe366fL'
p538
sg27
Nsba(ibclass
BInstr
p539
(dp540
g2
Nsg17
S'call    xmlErrMemory__internal_alias'
p541
sg19
S'e8ff20f5ff'
p542
sg21
Vcall 0xfffffffffff52104
p543
sg5
L931444L
sg6
Nsg23
S'call'
p544
sg25
S'0xe3674L'
p545
sg27
Nsba(ibclass
BInstr
p546
(dp547
g2
Nsg17
S'mov     rax, [rbp+cur]'
p548
sg19
S'488b45e8'
p549
sg21
Vmov rax, qword ptr [rbp - 0x18]
p550
sg5
L931449L
sg6
Nsg23
S'mov'
p551
sg25
S'0xe3679L'
p552
sg27
Nsba(ibclass
BInstr
p553
(dp554
g2
Nsg17
S'jmp     short locret_E36BA'
p555
sg19
S'eb3b'
p556
sg21
Vjmp 0x3d
p557
sg5
L931453L
sg6
Nsg23
S'jmp'
p558
sg25
S'0xe367dL'
p559
sg27
Nsbasg77
(lp560
S'mov reg, 0'
p561
aS'mov reg, 0'
p562
aS'cregl xmlErrMemory__internreg_regias'
p563
aS'mov reg, mem'
p564
aS'jmp short func'
p565
asg87
Nsg5
S'0xe366aL'
p566
sg89
(lp567
S'0xe363bL'
p568
asg6
Nsg91
(lp569
S'0xe36baL'
p570
asg95
Nsg96
Nsg97
S'a520f52f5785a217e8fe2f5e8207c873'
p571
sg99
S'520b1b6516a7aa1182ddbc8c538f643a'
p572
sg101
(lp573
g530
ag537
ag544
ag551
ag558
asg103
Nsba(ibclass
BBasicBlock
p574
(dp575
g12
Nsg13
(lp576
(ibclass
BInstr
p577
(dp578
g2
Nsg17
S'mov     eax, [rbp+len]'
p579
sg19
S'8b45dc'
p580
sg21
Vmov eax, dword ptr [rbp - 0x24]
p581
sg5
L931455L
sg6
Nsg23
S'mov'
p582
sg25
S'0xe367fL'
p583
sg27
Nsba(ibclass
BInstr
p584
(dp585
g2
Nsg17
S'movsxd  rdx, eax        ; n'
p586
sg19
S'4863d0'
p587
sg21
Vmovsxd rdx, eax
p588
sg5
L931458L
sg6
Nsg23
S'movsxd'
p589
sg25
S'0xe3682L'
p590
sg27
Nsba(ibclass
BInstr
p591
(dp592
g2
Nsg17
S'mov     eax, [rbp+size]'
p593
sg19
S'8b45f4'
p594
sg21
Vmov eax, dword ptr [rbp - 0xc]
p595
sg5
L931461L
sg6
Nsg23
S'mov'
p596
sg25
S'0xe3685L'
p597
sg27
Nsba(ibclass
BInstr
p598
(dp599
g2
Nsg17
S'movsxd  rcx, eax'
p600
sg19
S'4863c8'
p601
sg21
Vmovsxd rcx, eax
p602
sg5
L931464L
sg6
Nsg23
S'movsxd'
p603
sg25
S'0xe3688L'
p604
sg27
Nsba(ibclass
BInstr
p605
(dp606
g2
Nsg17
S'mov     rax, [rbp+ret]'
p607
sg19
S'488b45f8'
p608
sg21
Vmov rax, qword ptr [rbp - 8]
p609
sg5
L931467L
sg6
Nsg23
S'mov'
p610
sg25
S'0xe368bL'
p611
sg27
Nsba(ibclass
BInstr
p612
(dp613
g2
Nsg17
S'add     rcx, rax'
p614
sg19
S'4801c1'
p615
sg21
Vadd rcx, rax
p616
sg5
L931471L
sg6
Nsg23
S'add'
p617
sg25
S'0xe368fL'
p618
sg27
Nsba(ibclass
BInstr
p619
(dp620
g2
Nsg17
S'mov     rax, [rbp+add]'
p621
sg19
S'488b45e0'
p622
sg21
Vmov rax, qword ptr [rbp - 0x20]
p623
sg5
L931474L
sg6
Nsg23
S'mov'
p624
sg25
S'0xe3692L'
p625
sg27
Nsba(ibclass
BInstr
p626
(dp627
g2
Nsg17
S'mov     rsi, rax        ; src'
p628
sg19
S'4889c6'
p629
sg21
Vmov rsi, rax
p630
sg5
L931478L
sg6
Nsg23
S'mov'
p631
sg25
S'0xe3696L'
p632
sg27
Nsba(ibclass
BInstr
p633
(dp634
g2
Nsg17
S'mov     rdi, rcx        ; dest'
p635
sg19
S'4889cf'
p636
sg21
Vmov rdi, rcx
p637
sg5
L931481L
sg6
Nsg23
S'mov'
p638
sg25
S'0xe3699L'
p639
sg27
Nsba(ibclass
BInstr
p640
(dp641
g2
Nsg17
S'call    memcpy'
p642
sg19
S'e8878af4ff'
p643
sg21
Vcall 0xfffffffffff48a8c
p644
sg5
L931484L
sg6
Nsg23
S'call'
p645
sg25
S'0xe369cL'
p646
sg27
Nsba(ibclass
BInstr
p647
(dp648
g2
Nsg17
S'mov     edx, [rbp+size]'
p649
sg19
S'8b55f4'
p650
sg21
Vmov edx, dword ptr [rbp - 0xc]
p651
sg5
L931489L
sg6
Nsg23
S'mov'
p652
sg25
S'0xe36a1L'
p653
sg27
Nsba(ibclass
BInstr
p654
(dp655
g2
Nsg17
S'mov     eax, [rbp+len]'
p656
sg19
S'8b45dc'
p657
sg21
Vmov eax, dword ptr [rbp - 0x24]
p658
sg5
L931492L
sg6
Nsg23
S'mov'
p659
sg25
S'0xe36a4L'
p660
sg27
Nsba(ibclass
BInstr
p661
(dp662
g2
Nsg17
S'add     eax, edx'
p663
sg19
S'01d0'
p664
sg21
Vadd eax, edx
p665
sg5
L931495L
sg6
Nsg23
S'add'
p666
sg25
S'0xe36a7L'
p667
sg27
Nsba(ibclass
BInstr
p668
(dp669
g2
Nsg17
S'movsxd  rdx, eax'
p670
sg19
S'4863d0'
p671
sg21
Vmovsxd rdx, eax
p672
sg5
L931497L
sg6
Nsg23
S'movsxd'
p673
sg25
S'0xe36a9L'
p674
sg27
Nsba(ibclass
BInstr
p675
(dp676
g2
Nsg17
S'mov     rax, [rbp+ret]'
p677
sg19
S'488b45f8'
p678
sg21
Vmov rax, qword ptr [rbp - 8]
p679
sg5
L931500L
sg6
Nsg23
S'mov'
p680
sg25
S'0xe36acL'
p681
sg27
Nsba(ibclass
BInstr
p682
(dp683
g2
Nsg17
S'add     rax, rdx'
p684
sg19
S'4801d0'
p685
sg21
Vadd rax, rdx
p686
sg5
L931504L
sg6
Nsg23
S'add'
p687
sg25
S'0xe36b0L'
p688
sg27
Nsba(ibclass
BInstr
p689
(dp690
g2
Nsg17
S'mov     byte ptr [rax], 0'
p691
sg19
S'c60000'
p692
sg21
Vmov byte ptr [rax], 0
p693
sg5
L931507L
sg6
Nsg23
S'mov'
p694
sg25
S'0xe36b3L'
p695
sg27
Nsba(ibclass
BInstr
p696
(dp697
g2
Nsg17
S'mov     rax, [rbp+ret]'
p698
sg19
S'488b45f8'
p699
sg21
Vmov rax, qword ptr [rbp - 8]
p700
sg5
L931510L
sg6
Nsg23
S'mov'
p701
sg25
S'0xe36b6L'
p702
sg27
Nsbasg77
(lp703
S'mov reg, mem'
p704
aS'movsxd reg, reg'
p705
aS'mov reg, mem'
p706
aS'movsxd reg, reg'
p707
aS'mov reg, mem'
p708
aS'add reg, reg'
p709
aS'mov reg, mem'
p710
aS'mov reg, reg'
p711
aS'mov reg, reg'
p712
aS'cregl memcpy'
p713
aS'mov reg, mem'
p714
aS'mov reg, mem'
p715
aS'add reg, reg'
p716
aS'movsxd reg, reg'
p717
aS'mov reg, mem'
p718
aS'add reg, reg'
p719
aS'mov mem, 0'
p720
aS'mov reg, mem'
p721
asg87
Nsg5
S'0xe367fL'
p722
sg89
(lp723
S'0xe363bL'
p724
asg6
Nsg91
(lp725
S'0xe36baL'
p726
asg95
Nsg96
Nsg97
S'fdb9f14d1892c48f095455e9fbe9a20f'
p727
sg99
S'ee0ba8596e87397cd2058899525e7fe3'
p728
sg101
(lp729
g582
ag589
ag596
ag603
ag610
ag617
ag624
ag631
ag638
ag645
ag652
ag659
ag666
ag673
ag680
ag687
ag694
ag701
asg103
Nsba(ibclass
BBasicBlock
p730
(dp731
g12
Nsg13
(lp732
(ibclass
BInstr
p733
(dp734
g2
Nsg17
S'leave'
p735
sg19
S'c9'
p736
sg21
Vleave 
p737
sg5
L931514L
sg6
Nsg23
S'leave'
p738
sg25
S'0xe36baL'
p739
sg27
Nsba(ibclass
BInstr
p740
(dp741
g2
Nsg17
S'retn'
p742
sg19
S'c3'
p743
sg21
Vret 
p744
sg5
L931515L
sg6
Nsg23
S'retn'
p745
sg25
S'0xe36bbL'
p746
sg27
Nsbasg77
(lp747
g735
ag742
asg87
Nsg5
S'0xe36baL'
p748
sg89
(lp749
S'0xe35e9L'
p750
aS'0xe35f8L'
p751
aS'0xe3609L'
p752
aS'0xe3634L'
p753
aS'0xe366aL'
p754
aS'0xe367fL'
p755
asg6
Nsg91
(lp756
sg95
Nsg96
Nsg97
S'08c78f73a6f87c85da88b2982f54ce2a'
p757
sg99
S'08c78f73a6f87c85da88b2982f54ce2a'
p758
sg101
(lp759
g738
ag745
asg103
Nsbasb.