(ibclass
BFunc
p0
(dp1
S'hash'
p2
NsS'name'
p3
S'xmlXPtrNewCollapsedRange__internal_alias'
p4
sS'start_address'
p5
L814566L
sS'flag'
p6
NsS'program'
p7
NsS'bbs'
p8
(lp9
(ibclass
BBasicBlock
p10
(dp11
S'function'
p12
NsS'binstrs'
p13
(lp14
(ibclass
BInstr
p15
(dp16
g2
NsS'disasm'
p17
S"push    rbp             ; Alternative name is 'xmlXPtrNewCollapsedRange'"
p18
sS'bytes'
p19
S'55'
p20
sS'disasm_striped'
p21
Vpush rbp
p22
sg5
L814566L
sg6
NsS'mnem'
p23
S'push'
p24
sS'address'
p25
S'0xc6de6L'
p26
sS'basicblock'
p27
Nsba(ibclass
BInstr
p28
(dp29
g2
Nsg17
S'mov     rbp, rsp'
p30
sg19
S'4889e5'
p31
sg21
Vmov rbp, rsp
p32
sg5
L814567L
sg6
Nsg23
S'mov'
p33
sg25
S'0xc6de7L'
p34
sg27
Nsba(ibclass
BInstr
p35
(dp36
g2
Nsg17
S'sub     rsp, 20h'
p37
sg19
S'4883ec20'
p38
sg21
Vsub rsp, 0x20
p39
sg5
L814570L
sg6
Nsg23
S'sub'
p40
sg25
S'0xc6deaL'
p41
sg27
Nsba(ibclass
BInstr
p42
(dp43
g2
Nsg17
S'mov     [rbp+start], rdi'
p44
sg19
S'48897de8'
p45
sg21
Vmov qword ptr [rbp - 0x18], rdi
p46
sg5
L814574L
sg6
Nsg23
S'mov'
p47
sg25
S'0xc6deeL'
p48
sg27
Nsba(ibclass
BInstr
p49
(dp50
g2
Nsg17
S'cmp     [rbp+start], 0'
p51
sg19
S'48837de800'
p52
sg21
Vcmp qword ptr [rbp - 0x18], 0
p53
sg5
L814578L
sg6
Nsg23
S'cmp'
p54
sg25
S'0xc6df2L'
p55
sg27
Nsba(ibclass
BInstr
p56
(dp57
g2
Nsg17
S'jnz     short loc_C6E00'
p58
sg19
S'7507'
p59
sg21
Vjne 9
p60
sg5
L814583L
sg6
Nsg23
S'jnz'
p61
sg25
S'0xc6df7L'
p62
sg27
NsbasS'disasm_list'
p63
(lp64
S'push reg'
p65
aS'mov reg, reg'
p66
aS'sub reg, 20h'
p67
aS'mov mem, reg'
p68
aS'cmp mem, 0'
p69
aS'jnz func'
p70
asS'end_address'
p71
Nsg5
S'0xc6de6L'
p72
sS'preds'
p73
(lp74
sg6
NsS'succs'
p75
(lp76
S'0xc6df9L'
p77
aS'0xc6e00L'
p78
asS'hash_v3'
p79
NsS'flag_v2'
p80
NsS'hash_v1'
p81
S'199a18e2a25df667698257df1ddd1c53'
p82
sS'hash_v2'
p83
S'4ae9586721f596fa2ba3cd00b348c048'
p84
sS'mnen_list'
p85
(lp86
g24
ag33
ag40
ag47
ag54
ag61
asS'neighbour_disasm_list'
p87
Nsba(ibclass
BBasicBlock
p88
(dp89
g12
Nsg13
(lp90
(ibclass
BInstr
p91
(dp92
g2
Nsg17
S'mov     eax, 0'
p93
sg19
S'b800000000'
p94
sg21
Vmov eax, 0
p95
sg5
L814585L
sg6
Nsg23
S'mov'
p96
sg25
S'0xc6df9L'
p97
sg27
Nsba(ibclass
BInstr
p98
(dp99
g2
Nsg17
S'jmp     short locret_C6E23'
p100
sg19
S'eb23'
p101
sg21
Vjmp 0x25
p102
sg5
L814590L
sg6
Nsg23
S'jmp'
p103
sg25
S'0xc6dfeL'
p104
sg27
Nsbasg63
(lp105
S'mov reg, 0'
p106
aS'jmp short func'
p107
asg71
Nsg5
S'0xc6df9L'
p108
sg73
(lp109
S'0xc6de6L'
p110
asg6
Nsg75
(lp111
S'0xc6e23L'
p112
asg79
Nsg80
Nsg81
S'8b9a0d40e062be2b9b2d9885108fb196'
p113
sg83
S'2050644a6a17db8b92cb0a22070981a5'
p114
sg85
(lp115
g96
ag103
asg87
Nsba(ibclass
BBasicBlock
p116
(dp117
g12
Nsg13
(lp118
(ibclass
BInstr
p119
(dp120
g2
Nsg17
S'mov     rax, [rbp+start]'
p121
sg19
S'488b45e8'
p122
sg21
Vmov rax, qword ptr [rbp - 0x18]
p123
sg5
L814592L
sg6
Nsg23
S'mov'
p124
sg25
S'0xc6e00L'
p125
sg27
Nsba(ibclass
BInstr
p126
(dp127
g2
Nsg17
S'mov     ecx, 0FFFFFFFFh ; endindex'
p128
sg19
S'b9ffffffff'
p129
sg21
Vmov ecx, 0xffffffff
p130
sg5
L814596L
sg6
Nsg23
S'mov'
p131
sg25
S'0xc6e04L'
p132
sg27
Nsba(ibclass
BInstr
p133
(dp134
g2
Nsg17
S'mov     edx, 0          ; end'
p135
sg19
S'ba00000000'
p136
sg21
Vmov edx, 0
p137
sg5
L814601L
sg6
Nsg23
S'mov'
p138
sg25
S'0xc6e09L'
p139
sg27
Nsba(ibclass
BInstr
p140
(dp141
g2
Nsg17
S'mov     esi, 0FFFFFFFFh ; startindex'
p142
sg19
S'beffffffff'
p143
sg21
Vmov esi, 0xffffffff
p144
sg5
L814606L
sg6
Nsg23
S'mov'
p145
sg25
S'0xc6e0eL'
p146
sg27
Nsba(ibclass
BInstr
p147
(dp148
g2
Nsg17
S'mov     rdi, rax        ; start'
p149
sg19
S'4889c7'
p150
sg21
Vmov rdi, rax
p151
sg5
L814611L
sg6
Nsg23
S'mov'
p152
sg25
S'0xc6e13L'
p153
sg27
Nsba(ibclass
BInstr
p154
(dp155
g2
Nsg17
S'call    xmlXPtrNewRangeInternal'
p156
sg19
S'e8a2fcffff'
p157
sg21
Vcall 0xfffffffffffffca7
p158
sg5
L814614L
sg6
Nsg23
S'call'
p159
sg25
S'0xc6e16L'
p160
sg27
Nsba(ibclass
BInstr
p161
(dp162
g2
Nsg17
S'mov     [rbp+ret], rax'
p163
sg19
S'488945f8'
p164
sg21
Vmov qword ptr [rbp - 8], rax
p165
sg5
L814619L
sg6
Nsg23
S'mov'
p166
sg25
S'0xc6e1bL'
p167
sg27
Nsba(ibclass
BInstr
p168
(dp169
g2
Nsg17
S'mov     rax, [rbp+ret]'
p170
sg19
S'488b45f8'
p171
sg21
Vmov rax, qword ptr [rbp - 8]
p172
sg5
L814623L
sg6
Nsg23
S'mov'
p173
sg25
S'0xc6e1fL'
p174
sg27
Nsbasg63
(lp175
S'mov reg, mem'
p176
aS'mov reg, 0FFFFFFFFh'
p177
aS'mov reg, 0'
p178
aS'mov reg, 0FFFFFFFFh'
p179
aS'mov reg, reg'
p180
aS'cregl xmlXPtrNewRangeInternreg'
p181
aS'mov mem, reg'
p182
aS'mov reg, mem'
p183
asg71
Nsg5
S'0xc6e00L'
p184
sg73
(lp185
S'0xc6de6L'
p186
asg6
Nsg75
(lp187
S'0xc6e23L'
p188
asg79
Nsg80
Nsg81
S'07710889125d693d0e4d84f68e31eee5'
p189
sg83
S'4688d6192cb25c092c2a13abf91feb29'
p190
sg85
(lp191
g124
ag131
ag138
ag145
ag152
ag159
ag166
ag173
asg87
Nsba(ibclass
BBasicBlock
p192
(dp193
g12
Nsg13
(lp194
(ibclass
BInstr
p195
(dp196
g2
Nsg17
S'leave'
p197
sg19
S'c9'
p198
sg21
Vleave 
p199
sg5
L814627L
sg6
Nsg23
S'leave'
p200
sg25
S'0xc6e23L'
p201
sg27
Nsba(ibclass
BInstr
p202
(dp203
g2
Nsg17
S'retn'
p204
sg19
S'c3'
p205
sg21
Vret 
p206
sg5
L814628L
sg6
Nsg23
S'retn'
p207
sg25
S'0xc6e24L'
p208
sg27
Nsbasg63
(lp209
g197
ag204
asg71
Nsg5
S'0xc6e23L'
p210
sg73
(lp211
S'0xc6df9L'
p212
aS'0xc6e00L'
p213
asg6
Nsg75
(lp214
sg79
Nsg80
Nsg81
S'08c78f73a6f87c85da88b2982f54ce2a'
p215
sg83
S'08c78f73a6f87c85da88b2982f54ce2a'
p216
sg85
(lp217
g200
ag207
asg87
Nsbasb.