(ibclass
BFunc
p0
(dp1
S'hash'
p2
NsS'name'
p3
S'xmlXPtrNewRangeNodePoint__internal_alias'
p4
sS'start_address'
p5
L814219L
sS'flag'
p6
NsS'program'
p7
NsS'bbs'
p8
(lp9
(ibclass
BBasicBlock
p10
(dp11
S'function'
p12
NsS'binstrs'
p13
(lp14
(ibclass
BInstr
p15
(dp16
g2
NsS'disasm'
p17
S"push    rbp             ; Alternative name is 'xmlXPtrNewRangeNodePoint'"
p18
sS'bytes'
p19
S'55'
p20
sS'disasm_striped'
p21
Vpush rbp
p22
sg5
L814219L
sg6
NsS'mnem'
p23
S'push'
p24
sS'address'
p25
S'0xc6c8bL'
p26
sS'basicblock'
p27
Nsba(ibclass
BInstr
p28
(dp29
g2
Nsg17
S'mov     rbp, rsp'
p30
sg19
S'4889e5'
p31
sg21
Vmov rbp, rsp
p32
sg5
L814220L
sg6
Nsg23
S'mov'
p33
sg25
S'0xc6c8cL'
p34
sg27
Nsba(ibclass
BInstr
p35
(dp36
g2
Nsg17
S'sub     rsp, 20h'
p37
sg19
S'4883ec20'
p38
sg21
Vsub rsp, 0x20
p39
sg5
L814223L
sg6
Nsg23
S'sub'
p40
sg25
S'0xc6c8fL'
p41
sg27
Nsba(ibclass
BInstr
p42
(dp43
g2
Nsg17
S'mov     [rbp+start], rdi'
p44
sg19
S'48897de8'
p45
sg21
Vmov qword ptr [rbp - 0x18], rdi
p46
sg5
L814227L
sg6
Nsg23
S'mov'
p47
sg25
S'0xc6c93L'
p48
sg27
Nsba(ibclass
BInstr
p49
(dp50
g2
Nsg17
S'mov     [rbp+end], rsi'
p51
sg19
S'488975e0'
p52
sg21
Vmov qword ptr [rbp - 0x20], rsi
p53
sg5
L814231L
sg6
Nsg23
S'mov'
p54
sg25
S'0xc6c97L'
p55
sg27
Nsba(ibclass
BInstr
p56
(dp57
g2
Nsg17
S'cmp     [rbp+start], 0'
p58
sg19
S'48837de800'
p59
sg21
Vcmp qword ptr [rbp - 0x18], 0
p60
sg5
L814235L
sg6
Nsg23
S'cmp'
p61
sg25
S'0xc6c9bL'
p62
sg27
Nsba(ibclass
BInstr
p63
(dp64
g2
Nsg17
S'jnz     short loc_C6CA9'
p65
sg19
S'7507'
p66
sg21
Vjne 9
p67
sg5
L814240L
sg6
Nsg23
S'jnz'
p68
sg25
S'0xc6ca0L'
p69
sg27
NsbasS'disasm_list'
p70
(lp71
S'push reg'
p72
aS'mov reg, reg'
p73
aS'sub reg, 20h'
p74
aS'mov mem, reg'
p75
aS'mov mem, reg'
p76
aS'cmp mem, 0'
p77
aS'jnz func'
p78
asS'end_address'
p79
Nsg5
S'0xc6c8bL'
p80
sS'preds'
p81
(lp82
sg6
NsS'succs'
p83
(lp84
S'0xc6ca2L'
p85
aS'0xc6ca9L'
p86
asS'hash_v3'
p87
NsS'flag_v2'
p88
NsS'hash_v1'
p89
S'190746cc36f798dfde6210eda659205d'
p90
sS'hash_v2'
p91
S'2e7f596d4a0758263f9e8a8af8cfb558'
p92
sS'mnen_list'
p93
(lp94
g24
ag33
ag40
ag47
ag54
ag61
ag68
asS'neighbour_disasm_list'
p95
Nsba(ibclass
BBasicBlock
p96
(dp97
g12
Nsg13
(lp98
(ibclass
BInstr
p99
(dp100
g2
Nsg17
S'mov     eax, 0'
p101
sg19
S'b800000000'
p102
sg21
Vmov eax, 0
p103
sg5
L814242L
sg6
Nsg23
S'mov'
p104
sg25
S'0xc6ca2L'
p105
sg27
Nsba(ibclass
BInstr
p106
(dp107
g2
Nsg17
S'jmp     short locret_C6D10'
p108
sg19
S'eb67'
p109
sg21
Vjmp 0x69
p110
sg5
L814247L
sg6
Nsg23
S'jmp'
p111
sg25
S'0xc6ca7L'
p112
sg27
Nsbasg70
(lp113
S'mov reg, 0'
p114
aS'jmp short func'
p115
asg79
Nsg5
S'0xc6ca2L'
p116
sg81
(lp117
S'0xc6c8bL'
p118
asg6
Nsg83
(lp119
S'0xc6d10L'
p120
asg87
Nsg88
Nsg89
S'8b9a0d40e062be2b9b2d9885108fb196'
p121
sg91
S'2050644a6a17db8b92cb0a22070981a5'
p122
sg93
(lp123
g104
ag111
asg95
Nsba(ibclass
BBasicBlock
p124
(dp125
g12
Nsg13
(lp126
(ibclass
BInstr
p127
(dp128
g2
Nsg17
S'cmp     [rbp+end], 0'
p129
sg19
S'48837de000'
p130
sg21
Vcmp qword ptr [rbp - 0x20], 0
p131
sg5
L814249L
sg6
Nsg23
S'cmp'
p132
sg25
S'0xc6ca9L'
p133
sg27
Nsba(ibclass
BInstr
p134
(dp135
g2
Nsg17
S'jnz     short loc_C6CB7'
p136
sg19
S'7507'
p137
sg21
Vjne 9
p138
sg5
L814254L
sg6
Nsg23
S'jnz'
p139
sg25
S'0xc6caeL'
p140
sg27
Nsbasg70
(lp141
S'cmp mem, 0'
p142
aS'jnz func'
p143
asg79
Nsg5
S'0xc6ca9L'
p144
sg81
(lp145
S'0xc6c8bL'
p146
asg6
Nsg83
(lp147
S'0xc6cb0L'
p148
aS'0xc6cb7L'
p149
asg87
Nsg88
Nsg89
S'30cb3d6f6a174adfabcde507f6944a52'
p150
sg91
S'98d72118630a4e08156799652c8790e6'
p151
sg93
(lp152
g132
ag139
asg95
Nsba(ibclass
BBasicBlock
p153
(dp154
g12
Nsg13
(lp155
(ibclass
BInstr
p156
(dp157
g2
Nsg17
S'mov     eax, 0'
p158
sg19
S'b800000000'
p159
sg21
Vmov eax, 0
p160
sg5
L814256L
sg6
Nsg23
S'mov'
p161
sg25
S'0xc6cb0L'
p162
sg27
Nsba(ibclass
BInstr
p163
(dp164
g2
Nsg17
S'jmp     short locret_C6D10'
p165
sg19
S'eb59'
p166
sg21
Vjmp 0x5b
p167
sg5
L814261L
sg6
Nsg23
S'jmp'
p168
sg25
S'0xc6cb5L'
p169
sg27
Nsbasg70
(lp170
S'mov reg, 0'
p171
aS'jmp short func'
p172
asg79
Nsg5
S'0xc6cb0L'
p173
sg81
(lp174
S'0xc6ca9L'
p175
asg6
Nsg83
(lp176
S'0xc6d10L'
p177
asg87
Nsg88
Nsg89
S'8b9a0d40e062be2b9b2d9885108fb196'
p178
sg91
S'2050644a6a17db8b92cb0a22070981a5'
p179
sg93
(lp180
g161
ag168
asg95
Nsba(ibclass
BBasicBlock
p181
(dp182
g12
Nsg13
(lp183
(ibclass
BInstr
p184
(dp185
g2
Nsg17
S'mov     rax, [rbp+start]'
p186
sg19
S'488b45e8'
p187
sg21
Vmov rax, qword ptr [rbp - 0x18]
p188
sg5
L814263L
sg6
Nsg23
S'mov'
p189
sg25
S'0xc6cb7L'
p190
sg27
Nsba(ibclass
BInstr
p191
(dp192
g2
Nsg17
S'mov     eax, [rax+8]'
p193
sg19
S'8b4008'
p194
sg21
Vmov eax, dword ptr [rax + 8]
p195
sg5
L814267L
sg6
Nsg23
S'mov'
p196
sg25
S'0xc6cbbL'
p197
sg27
Nsba(ibclass
BInstr
p198
(dp199
g2
Nsg17
S'cmp     eax, 5'
p200
sg19
S'83f805'
p201
sg21
Vcmp eax, 5
p202
sg5
L814270L
sg6
Nsg23
S'cmp'
p203
sg25
S'0xc6cbeL'
p204
sg27
Nsba(ibclass
BInstr
p205
(dp206
g2
Nsg17
S'jz      short loc_C6CCA'
p207
sg19
S'7407'
p208
sg21
Vje 9
p209
sg5
L814273L
sg6
Nsg23
S'jz'
p210
sg25
S'0xc6cc1L'
p211
sg27
Nsbasg70
(lp212
S'mov reg, mem'
p213
aS'mov reg, mem'
p214
aS'cmp reg, 5'
p215
aS'jz func'
p216
asg79
Nsg5
S'0xc6cb7L'
p217
sg81
(lp218
S'0xc6ca9L'
p219
asg6
Nsg83
(lp220
S'0xc6cc3L'
p221
aS'0xc6ccaL'
p222
asg87
Nsg88
Nsg89
S'db7f0dec7b6480d765a2fb1483cb9e16'
p223
sg91
S'9a7d257313969f3e11d235a50a2a93ed'
p224
sg93
(lp225
g189
ag196
ag203
ag210
asg95
Nsba(ibclass
BBasicBlock
p226
(dp227
g12
Nsg13
(lp228
(ibclass
BInstr
p229
(dp230
g2
Nsg17
S'mov     eax, 0'
p231
sg19
S'b800000000'
p232
sg21
Vmov eax, 0
p233
sg5
L814275L
sg6
Nsg23
S'mov'
p234
sg25
S'0xc6cc3L'
p235
sg27
Nsba(ibclass
BInstr
p236
(dp237
g2
Nsg17
S'jmp     short locret_C6D10'
p238
sg19
S'eb46'
p239
sg21
Vjmp 0x48
p240
sg5
L814280L
sg6
Nsg23
S'jmp'
p241
sg25
S'0xc6cc8L'
p242
sg27
Nsbasg70
(lp243
S'mov reg, 0'
p244
aS'jmp short func'
p245
asg79
Nsg5
S'0xc6cc3L'
p246
sg81
(lp247
S'0xc6cb7L'
p248
asg6
Nsg83
(lp249
S'0xc6d10L'
p250
asg87
Nsg88
Nsg89
S'8b9a0d40e062be2b9b2d9885108fb196'
p251
sg91
S'2050644a6a17db8b92cb0a22070981a5'
p252
sg93
(lp253
g234
ag241
asg95
Nsba(ibclass
BBasicBlock
p254
(dp255
g12
Nsg13
(lp256
(ibclass
BInstr
p257
(dp258
g2
Nsg17
S'mov     rax, [rbp+end]'
p259
sg19
S'488b45e0'
p260
sg21
Vmov rax, qword ptr [rbp - 0x20]
p261
sg5
L814282L
sg6
Nsg23
S'mov'
p262
sg25
S'0xc6ccaL'
p263
sg27
Nsba(ibclass
BInstr
p264
(dp265
g2
Nsg17
S'mov     eax, [rax]'
p266
sg19
S'8b00'
p267
sg21
Vmov eax, dword ptr [rax]
p268
sg5
L814286L
sg6
Nsg23
S'mov'
p269
sg25
S'0xc6cceL'
p270
sg27
Nsba(ibclass
BInstr
p271
(dp272
g2
Nsg17
S'cmp     eax, 5'
p273
sg19
S'83f805'
p274
sg21
Vcmp eax, 5
p275
sg5
L814288L
sg6
Nsg23
S'cmp'
p276
sg25
S'0xc6cd0L'
p277
sg27
Nsba(ibclass
BInstr
p278
(dp279
g2
Nsg17
S'jz      short loc_C6CDC'
p280
sg19
S'7407'
p281
sg21
Vje 9
p282
sg5
L814291L
sg6
Nsg23
S'jz'
p283
sg25
S'0xc6cd3L'
p284
sg27
Nsbasg70
(lp285
S'mov reg, mem'
p286
aS'mov reg, mem'
p287
aS'cmp reg, 5'
p288
aS'jz func'
p289
asg79
Nsg5
S'0xc6ccaL'
p290
sg81
(lp291
S'0xc6cb7L'
p292
asg6
Nsg83
(lp293
S'0xc6cd5L'
p294
aS'0xc6cdcL'
p295
asg87
Nsg88
Nsg89
S'db7f0dec7b6480d765a2fb1483cb9e16'
p296
sg91
S'9a7d257313969f3e11d235a50a2a93ed'
p297
sg93
(lp298
g262
ag269
ag276
ag283
asg95
Nsba(ibclass
BBasicBlock
p299
(dp300
g12
Nsg13
(lp301
(ibclass
BInstr
p302
(dp303
g2
Nsg17
S'mov     eax, 0'
p304
sg19
S'b800000000'
p305
sg21
Vmov eax, 0
p306
sg5
L814293L
sg6
Nsg23
S'mov'
p307
sg25
S'0xc6cd5L'
p308
sg27
Nsba(ibclass
BInstr
p309
(dp310
g2
Nsg17
S'jmp     short locret_C6D10'
p311
sg19
S'eb34'
p312
sg21
Vjmp 0x36
p313
sg5
L814298L
sg6
Nsg23
S'jmp'
p314
sg25
S'0xc6cdaL'
p315
sg27
Nsbasg70
(lp316
S'mov reg, 0'
p317
aS'jmp short func'
p318
asg79
Nsg5
S'0xc6cd5L'
p319
sg81
(lp320
S'0xc6ccaL'
p321
asg6
Nsg83
(lp322
S'0xc6d10L'
p323
asg87
Nsg88
Nsg89
S'8b9a0d40e062be2b9b2d9885108fb196'
p324
sg91
S'2050644a6a17db8b92cb0a22070981a5'
p325
sg93
(lp326
g307
ag314
asg95
Nsba(ibclass
BBasicBlock
p327
(dp328
g12
Nsg13
(lp329
(ibclass
BInstr
p330
(dp331
g2
Nsg17
S'mov     rax, [rbp+end]'
p332
sg19
S'488b45e0'
p333
sg21
Vmov rax, qword ptr [rbp - 0x20]
p334
sg5
L814300L
sg6
Nsg23
S'mov'
p335
sg25
S'0xc6cdcL'
p336
sg27
Nsba(ibclass
BInstr
p337
(dp338
g2
Nsg17
S'mov     ecx, [rax+30h]  ; endindex'
p339
sg19
S'8b4830'
p340
sg21
Vmov ecx, dword ptr [rax + 0x30]
p341
sg5
L814304L
sg6
Nsg23
S'mov'
p342
sg25
S'0xc6ce0L'
p343
sg27
Nsba(ibclass
BInstr
p344
(dp345
g2
Nsg17
S'mov     rax, [rbp+end]'
p346
sg19
S'488b45e0'
p347
sg21
Vmov rax, qword ptr [rbp - 0x20]
p348
sg5
L814307L
sg6
Nsg23
S'mov'
p349
sg25
S'0xc6ce3L'
p350
sg27
Nsba(ibclass
BInstr
p351
(dp352
g2
Nsg17
S'mov     rdx, [rax+28h]  ; end'
p353
sg19
S'488b5028'
p354
sg21
Vmov rdx, qword ptr [rax + 0x28]
p355
sg5
L814311L
sg6
Nsg23
S'mov'
p356
sg25
S'0xc6ce7L'
p357
sg27
Nsba(ibclass
BInstr
p358
(dp359
g2
Nsg17
S'mov     rax, [rbp+start]'
p360
sg19
S'488b45e8'
p361
sg21
Vmov rax, qword ptr [rbp - 0x18]
p362
sg5
L814315L
sg6
Nsg23
S'mov'
p363
sg25
S'0xc6cebL'
p364
sg27
Nsba(ibclass
BInstr
p365
(dp366
g2
Nsg17
S'mov     esi, 0FFFFFFFFh ; startindex'
p367
sg19
S'beffffffff'
p368
sg21
Vmov esi, 0xffffffff
p369
sg5
L814319L
sg6
Nsg23
S'mov'
p370
sg25
S'0xc6cefL'
p371
sg27
Nsba(ibclass
BInstr
p372
(dp373
g2
Nsg17
S'mov     rdi, rax        ; start'
p374
sg19
S'4889c7'
p375
sg21
Vmov rdi, rax
p376
sg5
L814324L
sg6
Nsg23
S'mov'
p377
sg25
S'0xc6cf4L'
p378
sg27
Nsba(ibclass
BInstr
p379
(dp380
g2
Nsg17
S'call    xmlXPtrNewRangeInternal'
p381
sg19
S'e849fdffff'
p382
sg21
Vcall 0xfffffffffffffd4e
p383
sg5
L814327L
sg6
Nsg23
S'call'
p384
sg25
S'0xc6cf7L'
p385
sg27
Nsba(ibclass
BInstr
p386
(dp387
g2
Nsg17
S'mov     [rbp+ret], rax'
p388
sg19
S'488945f8'
p389
sg21
Vmov qword ptr [rbp - 8], rax
p390
sg5
L814332L
sg6
Nsg23
S'mov'
p391
sg25
S'0xc6cfcL'
p392
sg27
Nsba(ibclass
BInstr
p393
(dp394
g2
Nsg17
S'mov     rax, [rbp+ret]'
p395
sg19
S'488b45f8'
p396
sg21
Vmov rax, qword ptr [rbp - 8]
p397
sg5
L814336L
sg6
Nsg23
S'mov'
p398
sg25
S'0xc6d00L'
p399
sg27
Nsba(ibclass
BInstr
p400
(dp401
g2
Nsg17
S'mov     rdi, rax        ; range'
p402
sg19
S'4889c7'
p403
sg21
Vmov rdi, rax
p404
sg5
L814340L
sg6
Nsg23
S'mov'
p405
sg25
S'0xc6d04L'
p406
sg27
Nsba(ibclass
BInstr
p407
(dp408
g2
Nsg17
S'call    xmlXPtrRangeCheckOrder'
p409
sg19
S'e8a9fbffff'
p410
sg21
Vcall 0xfffffffffffffbae
p411
sg5
L814343L
sg6
Nsg23
S'call'
p412
sg25
S'0xc6d07L'
p413
sg27
Nsba(ibclass
BInstr
p414
(dp415
g2
Nsg17
S'mov     rax, [rbp+ret]'
p416
sg19
S'488b45f8'
p417
sg21
Vmov rax, qword ptr [rbp - 8]
p418
sg5
L814348L
sg6
Nsg23
S'mov'
p419
sg25
S'0xc6d0cL'
p420
sg27
Nsbasg70
(lp421
S'mov reg, mem'
p422
aS'mov reg, mem'
p423
aS'mov reg, mem'
p424
aS'mov reg, mem'
p425
aS'mov reg, mem'
p426
aS'mov reg, 0FFFFFFFFh'
p427
aS'mov reg, reg'
p428
aS'cregl xmlXPtrNewRangeInternreg'
p429
aS'mov mem, reg'
p430
aS'mov reg, mem'
p431
aS'mov reg, reg'
p432
aS'cregl xmlXPtrRangeCheckOrder'
p433
aS'mov reg, mem'
p434
asg79
Nsg5
S'0xc6cdcL'
p435
sg81
(lp436
S'0xc6ccaL'
p437
asg6
Nsg83
(lp438
S'0xc6d10L'
p439
asg87
Nsg88
Nsg89
S'5c5731c0ef8234fb0af325b314dc9d9e'
p440
sg91
S'3535d1551d8cac0c9058f418572c4bbf'
p441
sg93
(lp442
g335
ag342
ag349
ag356
ag363
ag370
ag377
ag384
ag391
ag398
ag405
ag412
ag419
asg95
Nsba(ibclass
BBasicBlock
p443
(dp444
g12
Nsg13
(lp445
(ibclass
BInstr
p446
(dp447
g2
Nsg17
S'leave'
p448
sg19
S'c9'
p449
sg21
Vleave 
p450
sg5
L814352L
sg6
Nsg23
S'leave'
p451
sg25
S'0xc6d10L'
p452
sg27
Nsba(ibclass
BInstr
p453
(dp454
g2
Nsg17
S'retn'
p455
sg19
S'c3'
p456
sg21
Vret 
p457
sg5
L814353L
sg6
Nsg23
S'retn'
p458
sg25
S'0xc6d11L'
p459
sg27
Nsbasg70
(lp460
g448
ag455
asg79
Nsg5
S'0xc6d10L'
p461
sg81
(lp462
S'0xc6ca2L'
p463
aS'0xc6cb0L'
p464
aS'0xc6cc3L'
p465
aS'0xc6cd5L'
p466
aS'0xc6cdcL'
p467
asg6
Nsg83
(lp468
sg87
Nsg88
Nsg89
S'08c78f73a6f87c85da88b2982f54ce2a'
p469
sg91
S'08c78f73a6f87c85da88b2982f54ce2a'
p470
sg93
(lp471
g451
ag458
asg95
Nsbasb.