(ibclass
BFunc
p0
(dp1
S'hash'
p2
NsS'name'
p3
S'xmlXPathCompPathExpr'
p4
sS'start_address'
p5
L764885L
sS'flag'
p6
NsS'program'
p7
NsS'bbs'
p8
(lp9
(ibclass
BBasicBlock
p10
(dp11
S'function'
p12
NsS'binstrs'
p13
(lp14
(ibclass
BInstr
p15
(dp16
g2
NsS'disasm'
p17
S'push    rbp'
p18
sS'bytes'
p19
S'55'
p20
sS'disasm_striped'
p21
Vpush rbp
p22
sg5
L764885L
sg6
NsS'mnem'
p23
S'push'
p24
sS'address'
p25
S'0xbabd5L'
p26
sS'basicblock'
p27
Nsba(ibclass
BInstr
p28
(dp29
g2
Nsg17
S'mov     rbp, rsp'
p30
sg19
S'4889e5'
p31
sg21
Vmov rbp, rsp
p32
sg5
L764886L
sg6
Nsg23
S'mov'
p33
sg25
S'0xbabd6L'
p34
sg27
Nsba(ibclass
BInstr
p35
(dp36
g2
Nsg17
S'sub     rsp, 20h'
p37
sg19
S'4883ec20'
p38
sg21
Vsub rsp, 0x20
p39
sg5
L764889L
sg6
Nsg23
S'sub'
p40
sg25
S'0xbabd9L'
p41
sg27
Nsba(ibclass
BInstr
p42
(dp43
g2
Nsg17
S'mov     [rbp+ctxt], rdi'
p44
sg19
S'48897de8'
p45
sg21
Vmov qword ptr [rbp - 0x18], rdi
p46
sg5
L764893L
sg6
Nsg23
S'mov'
p47
sg25
S'0xbabddL'
p48
sg27
Nsba(ibclass
BInstr
p49
(dp50
g2
Nsg17
S'mov     [rbp+lc], 1'
p51
sg19
S'c745f001000000'
p52
sg21
Vmov dword ptr [rbp - 0x10], 1
p53
sg5
L764897L
sg6
Nsg23
S'mov'
p54
sg25
S'0xbabe1L'
p55
sg27
Nsba(ibclass
BInstr
p56
(dp57
g2
Nsg17
S'mov     [rbp+name], 0'
p58
sg19
S'48c745f800000000'
p59
sg21
Vmov qword ptr [rbp - 8], 0
p60
sg5
L764904L
sg6
Nsg23
S'mov'
p61
sg25
S'0xbabe8L'
p62
sg27
Nsba(ibclass
BInstr
p63
(dp64
g2
Nsg17
S'jmp     short loc_BAC12'
p65
sg19
S'eb20'
p66
sg21
Vjmp 0x22
p67
sg5
L764912L
sg6
Nsg23
S'jmp'
p68
sg25
S'0xbabf0L'
p69
sg27
NsbasS'disasm_list'
p70
(lp71
S'push reg'
p72
aS'mov reg, reg'
p73
aS'sub reg, 20h'
p74
aS'mov mem, reg'
p75
aS'mov mem, 1'
p76
aS'mov mem, 0'
p77
aS'jmp func'
p78
asS'end_address'
p79
Nsg5
S'0xbabd5L'
p80
sS'preds'
p81
(lp82
sg6
NsS'succs'
p83
(lp84
S'0xbac12L'
p85
asS'hash_v3'
p86
NsS'flag_v2'
p87
NsS'hash_v1'
p88
S'2442502f934df2aabb46a0c33417632c'
p89
sS'hash_v2'
p90
S'32329905c9e413771f32fd5661782b37'
p91
sS'mnen_list'
p92
(lp93
g24
ag33
ag40
ag47
ag54
ag61
ag68
asS'neighbour_disasm_list'
p94
Nsba(ibclass
BBasicBlock
p95
(dp96
g12
Nsg13
(lp97
(ibclass
BInstr
p98
(dp99
g2
Nsg17
S'mov     rax, [rbp+ctxt]'
p100
sg19
S'488b45e8'
p101
sg21
Vmov rax, qword ptr [rbp - 0x18]
p102
sg5
L764914L
sg6
Nsg23
S'mov'
p103
sg25
S'0xbabf2L'
p104
sg27
Nsba(ibclass
BInstr
p105
(dp106
g2
Nsg17
S'mov     rax, [rax]'
p107
sg19
S'488b00'
p108
sg21
Vmov rax, qword ptr [rax]
p109
sg5
L764918L
sg6
Nsg23
S'mov'
p110
sg25
S'0xbabf6L'
p111
sg27
Nsba(ibclass
BInstr
p112
(dp113
g2
Nsg17
S'movzx   eax, byte ptr [rax]'
p114
sg19
S'0fb600'
p115
sg21
Vmovzx eax, byte ptr [rax]
p116
sg5
L764921L
sg6
Nsg23
S'movzx'
p117
sg25
S'0xbabf9L'
p118
sg27
Nsba(ibclass
BInstr
p119
(dp120
g2
Nsg17
S'test    al, al'
p121
sg19
S'84c0'
p122
sg21
Vtest al, al
p123
sg5
L764924L
sg6
Nsg23
S'test'
p124
sg25
S'0xbabfcL'
p125
sg27
Nsba(ibclass
BInstr
p126
(dp127
g2
Nsg17
S'jz      short loc_BAC12'
p128
sg19
S'7412'
p129
sg21
Vje 0x14
p130
sg5
L764926L
sg6
Nsg23
S'jz'
p131
sg25
S'0xbabfeL'
p132
sg27
Nsbasg70
(lp133
S'mov reg, mem'
p134
aS'mov reg, mem'
p135
aS'movzx reg, mem'
p136
aS'test reg, reg'
p137
aS'jz func'
p138
asg79
Nsg5
S'0xbabf2L'
p139
sg81
(lp140
S'0xbac12L'
p141
aS'0xbac2eL'
p142
aS'0xbac3cL'
p143
asg6
Nsg83
(lp144
S'0xbac00L'
p145
aS'0xbac12L'
p146
asg86
Nsg87
Nsg88
S'791d110b6f72b28a0ed387504865cb08'
p147
sg90
S'fd7febd4cca0ddb2ee8370dd2f349181'
p148
sg92
(lp149
g103
ag110
ag117
ag124
ag131
asg94
Nsba(ibclass
BBasicBlock
p150
(dp151
g12
Nsg13
(lp152
(ibclass
BInstr
p153
(dp154
g2
Nsg17
S'mov     rax, [rbp+ctxt]'
p155
sg19
S'488b45e8'
p156
sg21
Vmov rax, qword ptr [rbp - 0x18]
p157
sg5
L764928L
sg6
Nsg23
S'mov'
p158
sg25
S'0xbac00L'
p159
sg27
Nsba(ibclass
BInstr
p160
(dp161
g2
Nsg17
S'mov     rax, [rax]'
p162
sg19
S'488b00'
p163
sg21
Vmov rax, qword ptr [rax]
p164
sg5
L764932L
sg6
Nsg23
S'mov'
p165
sg25
S'0xbac04L'
p166
sg27
Nsba(ibclass
BInstr
p167
(dp168
g2
Nsg17
S'lea     rdx, [rax+1]'
p169
sg19
S'488d5001'
p170
sg21
Vlea rdx, [rax + 1]
p171
sg5
L764935L
sg6
Nsg23
S'lea'
p172
sg25
S'0xbac07L'
p173
sg27
Nsba(ibclass
BInstr
p174
(dp175
g2
Nsg17
S'mov     rax, [rbp+ctxt]'
p176
sg19
S'488b45e8'
p177
sg21
Vmov rax, qword ptr [rbp - 0x18]
p178
sg5
L764939L
sg6
Nsg23
S'mov'
p179
sg25
S'0xbac0bL'
p180
sg27
Nsba(ibclass
BInstr
p181
(dp182
g2
Nsg17
S'mov     [rax], rdx'
p183
sg19
S'488910'
p184
sg21
Vmov qword ptr [rax], rdx
p185
sg5
L764943L
sg6
Nsg23
S'mov'
p186
sg25
S'0xbac0fL'
p187
sg27
Nsbasg70
(lp188
S'mov reg, mem'
p189
aS'mov reg, mem'
p190
aS'lea reg, mem'
p191
aS'mov reg, mem'
p192
aS'mov mem, reg'
p193
asg79
Nsg5
S'0xbac00L'
p194
sg81
(lp195
S'0xbabf2L'
p196
asg6
Nsg83
(lp197
S'0xbac12L'
p198
asg86
Nsg87
Nsg88
S'72f4ffde030f180f82b3b840c2feb320'
p199
sg90
S'a86dfa9db1a7ce39ea439444b161239c'
p200
sg92
(lp201
g158
ag165
ag172
ag179
ag186
asg94
Nsba(ibclass
BBasicBlock
p202
(dp203
g12
Nsg13
(lp204
(ibclass
BInstr
p205
(dp206
g2
Nsg17
S'mov     rax, [rbp+ctxt]'
p207
sg19
S'488b45e8'
p208
sg21
Vmov rax, qword ptr [rbp - 0x18]
p209
sg5
L764946L
sg6
Nsg23
S'mov'
p210
sg25
S'0xbac12L'
p211
sg27
Nsba(ibclass
BInstr
p212
(dp213
g2
Nsg17
S'mov     rax, [rax]'
p214
sg19
S'488b00'
p215
sg21
Vmov rax, qword ptr [rax]
p216
sg5
L764950L
sg6
Nsg23
S'mov'
p217
sg25
S'0xbac16L'
p218
sg27
Nsba(ibclass
BInstr
p219
(dp220
g2
Nsg17
S'movzx   eax, byte ptr [rax]'
p221
sg19
S'0fb600'
p222
sg21
Vmovzx eax, byte ptr [rax]
p223
sg5
L764953L
sg6
Nsg23
S'movzx'
p224
sg25
S'0xbac19L'
p225
sg27
Nsba(ibclass
BInstr
p226
(dp227
g2
Nsg17
S'cmp     al, 20h'
p228
sg19
S'3c20'
p229
sg21
Vcmp al, 0x20
p230
sg5
L764956L
sg6
Nsg23
S'cmp'
p231
sg25
S'0xbac1cL'
p232
sg27
Nsba(ibclass
BInstr
p233
(dp234
g2
Nsg17
S'jz      short loc_BABF2'
p235
sg19
S'74d2'
p236
sg21
Vje 0xffffffffffffffd4
p237
sg5
L764958L
sg6
Nsg23
S'jz'
p238
sg25
S'0xbac1eL'
p239
sg27
Nsbasg70
(lp240
S'mov reg, mem'
p241
aS'mov reg, mem'
p242
aS'movzx reg, mem'
p243
aS'cmp reg, 20h'
p244
aS'jz func'
p245
asg79
Nsg5
S'0xbac12L'
p246
sg81
(lp247
S'0xbabd5L'
p248
aS'0xbabf2L'
p249
aS'0xbac00L'
p250
asg6
Nsg83
(lp251
S'0xbabf2L'
p252
aS'0xbac20L'
p253
asg86
Nsg87
Nsg88
S'02bb03f931a7fe57ff72866cf79084c1'
p254
sg90
S'b2d221df487b4132bb48314b39c3fc71'
p255
sg92
(lp256
g210
ag217
ag224
ag231
ag238
asg94
Nsba(ibclass
BBasicBlock
p257
(dp258
g12
Nsg13
(lp259
(ibclass
BInstr
p260
(dp261
g2
Nsg17
S'mov     rax, [rbp+ctxt]'
p262
sg19
S'488b45e8'
p263
sg21
Vmov rax, qword ptr [rbp - 0x18]
p264
sg5
L764960L
sg6
Nsg23
S'mov'
p265
sg25
S'0xbac20L'
p266
sg27
Nsba(ibclass
BInstr
p267
(dp268
g2
Nsg17
S'mov     rax, [rax]'
p269
sg19
S'488b00'
p270
sg21
Vmov rax, qword ptr [rax]
p271
sg5
L764964L
sg6
Nsg23
S'mov'
p272
sg25
S'0xbac24L'
p273
sg27
Nsba(ibclass
BInstr
p274
(dp275
g2
Nsg17
S'movzx   eax, byte ptr [rax]'
p276
sg19
S'0fb600'
p277
sg21
Vmovzx eax, byte ptr [rax]
p278
sg5
L764967L
sg6
Nsg23
S'movzx'
p279
sg25
S'0xbac27L'
p280
sg27
Nsba(ibclass
BInstr
p281
(dp282
g2
Nsg17
S'cmp     al, 8'
p283
sg19
S'3c08'
p284
sg21
Vcmp al, 8
p285
sg5
L764970L
sg6
Nsg23
S'cmp'
p286
sg25
S'0xbac2aL'
p287
sg27
Nsba(ibclass
BInstr
p288
(dp289
g2
Nsg17
S'jbe     short loc_BAC3C'
p290
sg19
S'760e'
p291
sg21
Vjbe 0x10
p292
sg5
L764972L
sg6
Nsg23
S'jbe'
p293
sg25
S'0xbac2cL'
p294
sg27
Nsbasg70
(lp295
S'mov reg, mem'
p296
aS'mov reg, mem'
p297
aS'movzx reg, mem'
p298
aS'cmp reg, 8'
p299
aS'jbe func'
p300
asg79
Nsg5
S'0xbac20L'
p301
sg81
(lp302
S'0xbac12L'
p303
asg6
Nsg83
(lp304
S'0xbac2eL'
p305
aS'0xbac3cL'
p306
asg86
Nsg87
Nsg88
S'1f79befb8d5181eb675155174f8269b6'
p307
sg90
S'f5a2f5bcbf41d72aa849c0bd2e46fc8b'
p308
sg92
(lp309
g265
ag272
ag279
ag286
ag293
asg94
Nsba(ibclass
BBasicBlock
p310
(dp311
g12
Nsg13
(lp312
(ibclass
BInstr
p313
(dp314
g2
Nsg17
S'mov     rax, [rbp+ctxt]'
p315
sg19
S'488b45e8'
p316
sg21
Vmov rax, qword ptr [rbp - 0x18]
p317
sg5
L764974L
sg6
Nsg23
S'mov'
p318
sg25
S'0xbac2eL'
p319
sg27
Nsba(ibclass
BInstr
p320
(dp321
g2
Nsg17
S'mov     rax, [rax]'
p322
sg19
S'488b00'
p323
sg21
Vmov rax, qword ptr [rax]
p324
sg5
L764978L
sg6
Nsg23
S'mov'
p325
sg25
S'0xbac32L'
p326
sg27
Nsba(ibclass
BInstr
p327
(dp328
g2
Nsg17
S'movzx   eax, byte ptr [rax]'
p329
sg19
S'0fb600'
p330
sg21
Vmovzx eax, byte ptr [rax]
p331
sg5
L764981L
sg6
Nsg23
S'movzx'
p332
sg25
S'0xbac35L'
p333
sg27
Nsba(ibclass
BInstr
p334
(dp335
g2
Nsg17
S'cmp     al, 0Ah'
p336
sg19
S'3c0a'
p337
sg21
Vcmp al, 0xa
p338
sg5
L764984L
sg6
Nsg23
S'cmp'
p339
sg25
S'0xbac38L'
p340
sg27
Nsba(ibclass
BInstr
p341
(dp342
g2
Nsg17
S'jbe     short loc_BABF2'
p343
sg19
S'76b6'
p344
sg21
Vjbe 0xffffffffffffffb8
p345
sg5
L764986L
sg6
Nsg23
S'jbe'
p346
sg25
S'0xbac3aL'
p347
sg27
Nsbasg70
(lp348
S'mov reg, mem'
p349
aS'mov reg, mem'
p350
aS'movzx reg, mem'
p351
aS'cmp reg, 0Ah'
p352
aS'jbe func'
p353
asg79
Nsg5
S'0xbac2eL'
p354
sg81
(lp355
S'0xbac20L'
p356
asg6
Nsg83
(lp357
S'0xbabf2L'
p358
aS'0xbac3cL'
p359
asg86
Nsg87
Nsg88
S'1f79befb8d5181eb675155174f8269b6'
p360
sg90
S'e694ab8199a73c8c12b682cdff1d6a26'
p361
sg92
(lp362
g318
ag325
ag332
ag339
ag346
asg94
Nsba(ibclass
BBasicBlock
p363
(dp364
g12
Nsg13
(lp365
(ibclass
BInstr
p366
(dp367
g2
Nsg17
S'mov     rax, [rbp+ctxt]'
p368
sg19
S'488b45e8'
p369
sg21
Vmov rax, qword ptr [rbp - 0x18]
p370
sg5
L764988L
sg6
Nsg23
S'mov'
p371
sg25
S'0xbac3cL'
p372
sg27
Nsba(ibclass
BInstr
p373
(dp374
g2
Nsg17
S'mov     rax, [rax]'
p375
sg19
S'488b00'
p376
sg21
Vmov rax, qword ptr [rax]
p377
sg5
L764992L
sg6
Nsg23
S'mov'
p378
sg25
S'0xbac40L'
p379
sg27
Nsba(ibclass
BInstr
p380
(dp381
g2
Nsg17
S'movzx   eax, byte ptr [rax]'
p382
sg19
S'0fb600'
p383
sg21
Vmovzx eax, byte ptr [rax]
p384
sg5
L764995L
sg6
Nsg23
S'movzx'
p385
sg25
S'0xbac43L'
p386
sg27
Nsba(ibclass
BInstr
p387
(dp388
g2
Nsg17
S'cmp     al, 0Dh'
p389
sg19
S'3c0d'
p390
sg21
Vcmp al, 0xd
p391
sg5
L764998L
sg6
Nsg23
S'cmp'
p392
sg25
S'0xbac46L'
p393
sg27
Nsba(ibclass
BInstr
p394
(dp395
g2
Nsg17
S'jz      short loc_BABF2'
p396
sg19
S'74a8'
p397
sg21
Vje 0xffffffffffffffaa
p398
sg5
L765000L
sg6
Nsg23
S'jz'
p399
sg25
S'0xbac48L'
p400
sg27
Nsbasg70
(lp401
S'mov reg, mem'
p402
aS'mov reg, mem'
p403
aS'movzx reg, mem'
p404
aS'cmp reg, 0Dh'
p405
aS'jz func'
p406
asg79
Nsg5
S'0xbac3cL'
p407
sg81
(lp408
S'0xbac20L'
p409
aS'0xbac2eL'
p410
asg6
Nsg83
(lp411
S'0xbabf2L'
p412
aS'0xbac4aL'
p413
asg86
Nsg87
Nsg88
S'02bb03f931a7fe57ff72866cf79084c1'
p414
sg90
S'2fd6b9095b1aaa7ef51e20b5e5eed68c'
p415
sg92
(lp416
g371
ag378
ag385
ag392
ag399
asg94
Nsba(ibclass
BBasicBlock
p417
(dp418
g12
Nsg13
(lp419
(ibclass
BInstr
p420
(dp421
g2
Nsg17
S'mov     rax, [rbp+ctxt]'
p422
sg19
S'488b45e8'
p423
sg21
Vmov rax, qword ptr [rbp - 0x18]
p424
sg5
L765002L
sg6
Nsg23
S'mov'
p425
sg25
S'0xbac4aL'
p426
sg27
Nsba(ibclass
BInstr
p427
(dp428
g2
Nsg17
S'mov     rax, [rax]'
p429
sg19
S'488b00'
p430
sg21
Vmov rax, qword ptr [rax]
p431
sg5
L765006L
sg6
Nsg23
S'mov'
p432
sg25
S'0xbac4eL'
p433
sg27
Nsba(ibclass
BInstr
p434
(dp435
g2
Nsg17
S'movzx   eax, byte ptr [rax]'
p436
sg19
S'0fb600'
p437
sg21
Vmovzx eax, byte ptr [rax]
p438
sg5
L765009L
sg6
Nsg23
S'movzx'
p439
sg25
S'0xbac51L'
p440
sg27
Nsba(ibclass
BInstr
p441
(dp442
g2
Nsg17
S'cmp     al, 24h'
p443
sg19
S'3c24'
p444
sg21
Vcmp al, 0x24
p445
sg5
L765012L
sg6
Nsg23
S'cmp'
p446
sg25
S'0xbac54L'
p447
sg27
Nsba(ibclass
BInstr
p448
(dp449
g2
Nsg17
S'jz      short loc_BACD0'
p450
sg19
S'7478'
p451
sg21
Vje 0x7a
p452
sg5
L765014L
sg6
Nsg23
S'jz'
p453
sg25
S'0xbac56L'
p454
sg27
Nsbasg70
(lp455
S'mov reg, mem'
p456
aS'mov reg, mem'
p457
aS'movzx reg, mem'
p458
aS'cmp reg, 24h'
p459
aS'jz func'
p460
asg79
Nsg5
S'0xbac4aL'
p461
sg81
(lp462
S'0xbac3cL'
p463
asg6
Nsg83
(lp464
S'0xbac58L'
p465
aS'0xbacd0L'
p466
asg86
Nsg87
Nsg88
S'02bb03f931a7fe57ff72866cf79084c1'
p467
sg90
S'6b121495b32c5e85fcb18d175428788c'
p468
sg92
(lp469
g425
ag432
ag439
ag446
ag453
asg94
Nsba(ibclass
BBasicBlock
p470
(dp471
g12
Nsg13
(lp472
(ibclass
BInstr
p473
(dp474
g2
Nsg17
S'mov     rax, [rbp+ctxt]'
p475
sg19
S'488b45e8'
p476
sg21
Vmov rax, qword ptr [rbp - 0x18]
p477
sg5
L765016L
sg6
Nsg23
S'mov'
p478
sg25
S'0xbac58L'
p479
sg27
Nsba(ibclass
BInstr
p480
(dp481
g2
Nsg17
S'mov     rax, [rax]'
p482
sg19
S'488b00'
p483
sg21
Vmov rax, qword ptr [rax]
p484
sg5
L765020L
sg6
Nsg23
S'mov'
p485
sg25
S'0xbac5cL'
p486
sg27
Nsba(ibclass
BInstr
p487
(dp488
g2
Nsg17
S'movzx   eax, byte ptr [rax]'
p489
sg19
S'0fb600'
p490
sg21
Vmovzx eax, byte ptr [rax]
p491
sg5
L765023L
sg6
Nsg23
S'movzx'
p492
sg25
S'0xbac5fL'
p493
sg27
Nsba(ibclass
BInstr
p494
(dp495
g2
Nsg17
S'cmp     al, 28h'
p496
sg19
S'3c28'
p497
sg21
Vcmp al, 0x28
p498
sg5
L765026L
sg6
Nsg23
S'cmp'
p499
sg25
S'0xbac62L'
p500
sg27
Nsba(ibclass
BInstr
p501
(dp502
g2
Nsg17
S'jz      short loc_BACD0'
p503
sg19
S'746a'
p504
sg21
Vje 0x6c
p505
sg5
L765028L
sg6
Nsg23
S'jz'
p506
sg25
S'0xbac64L'
p507
sg27
Nsbasg70
(lp508
S'mov reg, mem'
p509
aS'mov reg, mem'
p510
aS'movzx reg, mem'
p511
aS'cmp reg, 28h'
p512
aS'jz func'
p513
asg79
Nsg5
S'0xbac58L'
p514
sg81
(lp515
S'0xbac4aL'
p516
asg6
Nsg83
(lp517
S'0xbac66L'
p518
aS'0xbacd0L'
p519
asg86
Nsg87
Nsg88
S'02bb03f931a7fe57ff72866cf79084c1'
p520
sg90
S'4732f9a46d5579d34bd26a2cbd41a89e'
p521
sg92
(lp522
g478
ag485
ag492
ag499
ag506
asg94
Nsba(ibclass
BBasicBlock
p523
(dp524
g12
Nsg13
(lp525
(ibclass
BInstr
p526
(dp527
g2
Nsg17
S'mov     rax, [rbp+ctxt]'
p528
sg19
S'488b45e8'
p529
sg21
Vmov rax, qword ptr [rbp - 0x18]
p530
sg5
L765030L
sg6
Nsg23
S'mov'
p531
sg25
S'0xbac66L'
p532
sg27
Nsba(ibclass
BInstr
p533
(dp534
g2
Nsg17
S'mov     rax, [rax]'
p535
sg19
S'488b00'
p536
sg21
Vmov rax, qword ptr [rax]
p537
sg5
L765034L
sg6
Nsg23
S'mov'
p538
sg25
S'0xbac6aL'
p539
sg27
Nsba(ibclass
BInstr
p540
(dp541
g2
Nsg17
S'movzx   eax, byte ptr [rax]'
p542
sg19
S'0fb600'
p543
sg21
Vmovzx eax, byte ptr [rax]
p544
sg5
L765037L
sg6
Nsg23
S'movzx'
p545
sg25
S'0xbac6dL'
p546
sg27
Nsba(ibclass
BInstr
p547
(dp548
g2
Nsg17
S'cmp     al, 2Fh'
p549
sg19
S'3c2f'
p550
sg21
Vcmp al, 0x2f
p551
sg5
L765040L
sg6
Nsg23
S'cmp'
p552
sg25
S'0xbac70L'
p553
sg27
Nsba(ibclass
BInstr
p554
(dp555
g2
Nsg17
S'jbe     short loc_BAC82'
p556
sg19
S'760e'
p557
sg21
Vjbe 0x10
p558
sg5
L765042L
sg6
Nsg23
S'jbe'
p559
sg25
S'0xbac72L'
p560
sg27
Nsbasg70
(lp561
S'mov reg, mem'
p562
aS'mov reg, mem'
p563
aS'movzx reg, mem'
p564
aS'cmp reg, 2Fh'
p565
aS'jbe func'
p566
asg79
Nsg5
S'0xbac66L'
p567
sg81
(lp568
S'0xbac58L'
p569
asg6
Nsg83
(lp570
S'0xbac74L'
p571
aS'0xbac82L'
p572
asg86
Nsg87
Nsg88
S'1f79befb8d5181eb675155174f8269b6'
p573
sg90
S'2b6f3f4a4dca65b16b904a257f01da74'
p574
sg92
(lp575
g531
ag538
ag545
ag552
ag559
asg94
Nsba(ibclass
BBasicBlock
p576
(dp577
g12
Nsg13
(lp578
(ibclass
BInstr
p579
(dp580
g2
Nsg17
S'mov     rax, [rbp+ctxt]'
p581
sg19
S'488b45e8'
p582
sg21
Vmov rax, qword ptr [rbp - 0x18]
p583
sg5
L765044L
sg6
Nsg23
S'mov'
p584
sg25
S'0xbac74L'
p585
sg27
Nsba(ibclass
BInstr
p586
(dp587
g2
Nsg17
S'mov     rax, [rax]'
p588
sg19
S'488b00'
p589
sg21
Vmov rax, qword ptr [rax]
p590
sg5
L765048L
sg6
Nsg23
S'mov'
p591
sg25
S'0xbac78L'
p592
sg27
Nsba(ibclass
BInstr
p593
(dp594
g2
Nsg17
S'movzx   eax, byte ptr [rax]'
p595
sg19
S'0fb600'
p596
sg21
Vmovzx eax, byte ptr [rax]
p597
sg5
L765051L
sg6
Nsg23
S'movzx'
p598
sg25
S'0xbac7bL'
p599
sg27
Nsba(ibclass
BInstr
p600
(dp601
g2
Nsg17
S'cmp     al, 39h'
p602
sg19
S'3c39'
p603
sg21
Vcmp al, 0x39
p604
sg5
L765054L
sg6
Nsg23
S'cmp'
p605
sg25
S'0xbac7eL'
p606
sg27
Nsba(ibclass
BInstr
p607
(dp608
g2
Nsg17
S'jbe     short loc_BACD0'
p609
sg19
S'764e'
p610
sg21
Vjbe 0x50
p611
sg5
L765056L
sg6
Nsg23
S'jbe'
p612
sg25
S'0xbac80L'
p613
sg27
Nsbasg70
(lp614
S'mov reg, mem'
p615
aS'mov reg, mem'
p616
aS'movzx reg, mem'
p617
aS'cmp reg, 39h'
p618
aS'jbe func'
p619
asg79
Nsg5
S'0xbac74L'
p620
sg81
(lp621
S'0xbac66L'
p622
asg6
Nsg83
(lp623
S'0xbac82L'
p624
aS'0xbacd0L'
p625
asg86
Nsg87
Nsg88
S'1f79befb8d5181eb675155174f8269b6'
p626
sg90
S'457322721b4a7b928ddbfd6df75be570'
p627
sg92
(lp628
g584
ag591
ag598
ag605
ag612
asg94
Nsba(ibclass
BBasicBlock
p629
(dp630
g12
Nsg13
(lp631
(ibclass
BInstr
p632
(dp633
g2
Nsg17
S'mov     rax, [rbp+ctxt]'
p634
sg19
S'488b45e8'
p635
sg21
Vmov rax, qword ptr [rbp - 0x18]
p636
sg5
L765058L
sg6
Nsg23
S'mov'
p637
sg25
S'0xbac82L'
p638
sg27
Nsba(ibclass
BInstr
p639
(dp640
g2
Nsg17
S'mov     rax, [rax]'
p641
sg19
S'488b00'
p642
sg21
Vmov rax, qword ptr [rax]
p643
sg5
L765062L
sg6
Nsg23
S'mov'
p644
sg25
S'0xbac86L'
p645
sg27
Nsba(ibclass
BInstr
p646
(dp647
g2
Nsg17
S'movzx   eax, byte ptr [rax]'
p648
sg19
S'0fb600'
p649
sg21
Vmovzx eax, byte ptr [rax]
p650
sg5
L765065L
sg6
Nsg23
S'movzx'
p651
sg25
S'0xbac89L'
p652
sg27
Nsba(ibclass
BInstr
p653
(dp654
g2
Nsg17
S'cmp     al, 27h'
p655
sg19
S'3c27'
p656
sg21
Vcmp al, 0x27
p657
sg5
L765068L
sg6
Nsg23
S'cmp'
p658
sg25
S'0xbac8cL'
p659
sg27
Nsba(ibclass
BInstr
p660
(dp661
g2
Nsg17
S'jz      short loc_BACD0'
p662
sg19
S'7440'
p663
sg21
Vje 0x42
p664
sg5
L765070L
sg6
Nsg23
S'jz'
p665
sg25
S'0xbac8eL'
p666
sg27
Nsbasg70
(lp667
S'mov reg, mem'
p668
aS'mov reg, mem'
p669
aS'movzx reg, mem'
p670
aS'cmp reg, 27h'
p671
aS'jz func'
p672
asg79
Nsg5
S'0xbac82L'
p673
sg81
(lp674
S'0xbac66L'
p675
aS'0xbac74L'
p676
asg6
Nsg83
(lp677
S'0xbac90L'
p678
aS'0xbacd0L'
p679
asg86
Nsg87
Nsg88
S'02bb03f931a7fe57ff72866cf79084c1'
p680
sg90
S'5d433f005baa5ef6686e9210773baed4'
p681
sg92
(lp682
g637
ag644
ag651
ag658
ag665
asg94
Nsba(ibclass
BBasicBlock
p683
(dp684
g12
Nsg13
(lp685
(ibclass
BInstr
p686
(dp687
g2
Nsg17
S'mov     rax, [rbp+ctxt]'
p688
sg19
S'488b45e8'
p689
sg21
Vmov rax, qword ptr [rbp - 0x18]
p690
sg5
L765072L
sg6
Nsg23
S'mov'
p691
sg25
S'0xbac90L'
p692
sg27
Nsba(ibclass
BInstr
p693
(dp694
g2
Nsg17
S'mov     rax, [rax]'
p695
sg19
S'488b00'
p696
sg21
Vmov rax, qword ptr [rax]
p697
sg5
L765076L
sg6
Nsg23
S'mov'
p698
sg25
S'0xbac94L'
p699
sg27
Nsba(ibclass
BInstr
p700
(dp701
g2
Nsg17
S'movzx   eax, byte ptr [rax]'
p702
sg19
S'0fb600'
p703
sg21
Vmovzx eax, byte ptr [rax]
p704
sg5
L765079L
sg6
Nsg23
S'movzx'
p705
sg25
S'0xbac97L'
p706
sg27
Nsba(ibclass
BInstr
p707
(dp708
g2
Nsg17
S'cmp     al, 22h'
p709
sg19
S'3c22'
p710
sg21
Vcmp al, 0x22
p711
sg5
L765082L
sg6
Nsg23
S'cmp'
p712
sg25
S'0xbac9aL'
p713
sg27
Nsba(ibclass
BInstr
p714
(dp715
g2
Nsg17
S'jz      short loc_BACD0'
p716
sg19
S'7432'
p717
sg21
Vje 0x34
p718
sg5
L765084L
sg6
Nsg23
S'jz'
p719
sg25
S'0xbac9cL'
p720
sg27
Nsbasg70
(lp721
S'mov reg, mem'
p722
aS'mov reg, mem'
p723
aS'movzx reg, mem'
p724
aS'cmp reg, 22h'
p725
aS'jz func'
p726
asg79
Nsg5
S'0xbac90L'
p727
sg81
(lp728
S'0xbac82L'
p729
asg6
Nsg83
(lp730
S'0xbac9eL'
p731
aS'0xbacd0L'
p732
asg86
Nsg87
Nsg88
S'02bb03f931a7fe57ff72866cf79084c1'
p733
sg90
S'e6723a8423bd9d72f6f6f35944624b28'
p734
sg92
(lp735
g691
ag698
ag705
ag712
ag719
asg94
Nsba(ibclass
BBasicBlock
p736
(dp737
g12
Nsg13
(lp738
(ibclass
BInstr
p739
(dp740
g2
Nsg17
S'mov     rax, [rbp+ctxt]'
p741
sg19
S'488b45e8'
p742
sg21
Vmov rax, qword ptr [rbp - 0x18]
p743
sg5
L765086L
sg6
Nsg23
S'mov'
p744
sg25
S'0xbac9eL'
p745
sg27
Nsba(ibclass
BInstr
p746
(dp747
g2
Nsg17
S'mov     rax, [rax]'
p748
sg19
S'488b00'
p749
sg21
Vmov rax, qword ptr [rax]
p750
sg5
L765090L
sg6
Nsg23
S'mov'
p751
sg25
S'0xbaca2L'
p752
sg27
Nsba(ibclass
BInstr
p753
(dp754
g2
Nsg17
S'movzx   eax, byte ptr [rax]'
p755
sg19
S'0fb600'
p756
sg21
Vmovzx eax, byte ptr [rax]
p757
sg5
L765093L
sg6
Nsg23
S'movzx'
p758
sg25
S'0xbaca5L'
p759
sg27
Nsba(ibclass
BInstr
p760
(dp761
g2
Nsg17
S'cmp     al, 2Eh'
p762
sg19
S'3c2e'
p763
sg21
Vcmp al, 0x2e
p764
sg5
L765096L
sg6
Nsg23
S'cmp'
p765
sg25
S'0xbaca8L'
p766
sg27
Nsba(ibclass
BInstr
p767
(dp768
g2
Nsg17
S'jnz     short loc_BACDC'
p769
sg19
S'7530'
p770
sg21
Vjne 0x32
p771
sg5
L765098L
sg6
Nsg23
S'jnz'
p772
sg25
S'0xbacaaL'
p773
sg27
Nsbasg70
(lp774
S'mov reg, mem'
p775
aS'mov reg, mem'
p776
aS'movzx reg, mem'
p777
aS'cmp reg, 2Eh'
p778
aS'jnz func'
p779
asg79
Nsg5
S'0xbac9eL'
p780
sg81
(lp781
S'0xbac90L'
p782
asg6
Nsg83
(lp783
S'0xbacacL'
p784
aS'0xbacdcL'
p785
asg86
Nsg87
Nsg88
S'fee82e05e3ad0c992b7c2259c6fe4074'
p786
sg90
S'fda9c9154d31cbd879dee6b398706452'
p787
sg92
(lp788
g744
ag751
ag758
ag765
ag772
asg94
Nsba(ibclass
BBasicBlock
p789
(dp790
g12
Nsg13
(lp791
(ibclass
BInstr
p792
(dp793
g2
Nsg17
S'mov     rax, [rbp+ctxt]'
p794
sg19
S'488b45e8'
p795
sg21
Vmov rax, qword ptr [rbp - 0x18]
p796
sg5
L765100L
sg6
Nsg23
S'mov'
p797
sg25
S'0xbacacL'
p798
sg27
Nsba(ibclass
BInstr
p799
(dp800
g2
Nsg17
S'mov     rax, [rax]'
p801
sg19
S'488b00'
p802
sg21
Vmov rax, qword ptr [rax]
p803
sg5
L765104L
sg6
Nsg23
S'mov'
p804
sg25
S'0xbacb0L'
p805
sg27
Nsba(ibclass
BInstr
p806
(dp807
g2
Nsg17
S'add     rax, 1'
p808
sg19
S'4883c001'
p809
sg21
Vadd rax, 1
p810
sg5
L765107L
sg6
Nsg23
S'add'
p811
sg25
S'0xbacb3L'
p812
sg27
Nsba(ibclass
BInstr
p813
(dp814
g2
Nsg17
S'movzx   eax, byte ptr [rax]'
p815
sg19
S'0fb600'
p816
sg21
Vmovzx eax, byte ptr [rax]
p817
sg5
L765111L
sg6
Nsg23
S'movzx'
p818
sg25
S'0xbacb7L'
p819
sg27
Nsba(ibclass
BInstr
p820
(dp821
g2
Nsg17
S'cmp     al, 2Fh'
p822
sg19
S'3c2f'
p823
sg21
Vcmp al, 0x2f
p824
sg5
L765114L
sg6
Nsg23
S'cmp'
p825
sg25
S'0xbacbaL'
p826
sg27
Nsba(ibclass
BInstr
p827
(dp828
g2
Nsg17
S'jbe     short loc_BACDC'
p829
sg19
S'761e'
p830
sg21
Vjbe 0x20
p831
sg5
L765116L
sg6
Nsg23
S'jbe'
p832
sg25
S'0xbacbcL'
p833
sg27
Nsbasg70
(lp834
S'mov reg, mem'
p835
aS'mov reg, mem'
p836
aS'add reg, 1'
p837
aS'movzx reg, mem'
p838
aS'cmp reg, 2Fh'
p839
aS'jbe func'
p840
asg79
Nsg5
S'0xbacacL'
p841
sg81
(lp842
S'0xbac9eL'
p843
asg6
Nsg83
(lp844
S'0xbacbeL'
p845
aS'0xbacdcL'
p846
asg86
Nsg87
Nsg88
S'b1e005e8c33b1efee08bd08a77f6eef1'
p847
sg90
S'2ac417334f4dfa975c872f16220ec1e6'
p848
sg92
(lp849
g797
ag804
ag811
ag818
ag825
ag832
asg94
Nsba(ibclass
BBasicBlock
p850
(dp851
g12
Nsg13
(lp852
(ibclass
BInstr
p853
(dp854
g2
Nsg17
S'mov     rax, [rbp+ctxt]'
p855
sg19
S'488b45e8'
p856
sg21
Vmov rax, qword ptr [rbp - 0x18]
p857
sg5
L765118L
sg6
Nsg23
S'mov'
p858
sg25
S'0xbacbeL'
p859
sg27
Nsba(ibclass
BInstr
p860
(dp861
g2
Nsg17
S'mov     rax, [rax]'
p862
sg19
S'488b00'
p863
sg21
Vmov rax, qword ptr [rax]
p864
sg5
L765122L
sg6
Nsg23
S'mov'
p865
sg25
S'0xbacc2L'
p866
sg27
Nsba(ibclass
BInstr
p867
(dp868
g2
Nsg17
S'add     rax, 1'
p869
sg19
S'4883c001'
p870
sg21
Vadd rax, 1
p871
sg5
L765125L
sg6
Nsg23
S'add'
p872
sg25
S'0xbacc5L'
p873
sg27
Nsba(ibclass
BInstr
p874
(dp875
g2
Nsg17
S'movzx   eax, byte ptr [rax]'
p876
sg19
S'0fb600'
p877
sg21
Vmovzx eax, byte ptr [rax]
p878
sg5
L765129L
sg6
Nsg23
S'movzx'
p879
sg25
S'0xbacc9L'
p880
sg27
Nsba(ibclass
BInstr
p881
(dp882
g2
Nsg17
S'cmp     al, 39h'
p883
sg19
S'3c39'
p884
sg21
Vcmp al, 0x39
p885
sg5
L765132L
sg6
Nsg23
S'cmp'
p886
sg25
S'0xbacccL'
p887
sg27
Nsba(ibclass
BInstr
p888
(dp889
g2
Nsg17
S'ja      short loc_BACDC'
p890
sg19
S'770c'
p891
sg21
Vja 0xe
p892
sg5
L765134L
sg6
Nsg23
S'ja'
p893
sg25
S'0xbacceL'
p894
sg27
Nsbasg70
(lp895
S'mov reg, mem'
p896
aS'mov reg, mem'
p897
aS'add reg, 1'
p898
aS'movzx reg, mem'
p899
aS'cmp reg, 39h'
p900
aS'ja func'
p901
asg79
Nsg5
S'0xbacbeL'
p902
sg81
(lp903
S'0xbacacL'
p904
asg6
Nsg83
(lp905
S'0xbacd0L'
p906
aS'0xbacdcL'
p907
asg86
Nsg87
Nsg88
S'923210003cf1b2a5c759905a1d5e7093'
p908
sg90
S'b0f743d4a1df6267f933cb9e7bc241a7'
p909
sg92
(lp910
g858
ag865
ag872
ag879
ag886
ag893
asg94
Nsba(ibclass
BBasicBlock
p911
(dp912
g12
Nsg13
(lp913
(ibclass
BInstr
p914
(dp915
g2
Nsg17
S'mov     [rbp+lc], 0'
p916
sg19
S'c745f000000000'
p917
sg21
Vmov dword ptr [rbp - 0x10], 0
p918
sg5
L765136L
sg6
Nsg23
S'mov'
p919
sg25
S'0xbacd0L'
p920
sg27
Nsba(ibclass
BInstr
p921
(dp922
g2
Nsg17
S'jmp     loc_BAFF6'
p923
sg19
S'e91a030000'
p924
sg21
Vjmp 0x31f
p925
sg5
L765143L
sg6
Nsg23
S'jmp'
p926
sg25
S'0xbacd7L'
p927
sg27
Nsbasg70
(lp928
S'mov mem, 0'
p929
aS'jmp func'
p930
asg79
Nsg5
S'0xbacd0L'
p931
sg81
(lp932
S'0xbac4aL'
p933
aS'0xbac58L'
p934
aS'0xbac74L'
p935
aS'0xbac82L'
p936
aS'0xbac90L'
p937
aS'0xbacbeL'
p938
asg6
Nsg83
(lp939
S'0xbaff6L'
p940
asg86
Nsg87
Nsg88
S'8b9a0d40e062be2b9b2d9885108fb196'
p941
sg90
S'7cf882b8c6f2a7fee5b65dbb6327183a'
p942
sg92
(lp943
g919
ag926
asg94
Nsba(ibclass
BBasicBlock
p944
(dp945
g12
Nsg13
(lp946
(ibclass
BInstr
p947
(dp948
g2
Nsg17
S'mov     rax, [rbp+ctxt]'
p949
sg19
S'488b45e8'
p950
sg21
Vmov rax, qword ptr [rbp - 0x18]
p951
sg5
L765148L
sg6
Nsg23
S'mov'
p952
sg25
S'0xbacdcL'
p953
sg27
Nsba(ibclass
BInstr
p954
(dp955
g2
Nsg17
S'mov     rax, [rax]'
p956
sg19
S'488b00'
p957
sg21
Vmov rax, qword ptr [rax]
p958
sg5
L765152L
sg6
Nsg23
S'mov'
p959
sg25
S'0xbace0L'
p960
sg27
Nsba(ibclass
BInstr
p961
(dp962
g2
Nsg17
S'movzx   eax, byte ptr [rax]'
p963
sg19
S'0fb600'
p964
sg21
Vmovzx eax, byte ptr [rax]
p965
sg5
L765155L
sg6
Nsg23
S'movzx'
p966
sg25
S'0xbace3L'
p967
sg27
Nsba(ibclass
BInstr
p968
(dp969
g2
Nsg17
S'cmp     al, 2Ah'
p970
sg19
S'3c2a'
p971
sg21
Vcmp al, 0x2a
p972
sg5
L765158L
sg6
Nsg23
S'cmp'
p973
sg25
S'0xbace6L'
p974
sg27
Nsba(ibclass
BInstr
p975
(dp976
g2
Nsg17
S'jnz     short loc_BACF6'
p977
sg19
S'750c'
p978
sg21
Vjne 0xe
p979
sg5
L765160L
sg6
Nsg23
S'jnz'
p980
sg25
S'0xbace8L'
p981
sg27
Nsbasg70
(lp982
S'mov reg, mem'
p983
aS'mov reg, mem'
p984
aS'movzx reg, mem'
p985
aS'cmp reg, 2Ah'
p986
aS'jnz func'
p987
asg79
Nsg5
S'0xbacdcL'
p988
sg81
(lp989
S'0xbac9eL'
p990
aS'0xbacacL'
p991
aS'0xbacbeL'
p992
asg6
Nsg83
(lp993
S'0xbaceaL'
p994
aS'0xbacf6L'
p995
asg86
Nsg87
Nsg88
S'fee82e05e3ad0c992b7c2259c6fe4074'
p996
sg90
S'75fedc545a89fe3f922f18ff2f7c4b7d'
p997
sg92
(lp998
g952
ag959
ag966
ag973
ag980
asg94
Nsba(ibclass
BBasicBlock
p999
(dp1000
g12
Nsg13
(lp1001
(ibclass
BInstr
p1002
(dp1003
g2
Nsg17
S'mov     [rbp+lc], 1'
p1004
sg19
S'c745f001000000'
p1005
sg21
Vmov dword ptr [rbp - 0x10], 1
p1006
sg5
L765162L
sg6
Nsg23
S'mov'
p1007
sg25
S'0xbaceaL'
p1008
sg27
Nsba(ibclass
BInstr
p1009
(dp1010
g2
Nsg17
S'jmp     loc_BAFF6'
p1011
sg19
S'e900030000'
p1012
sg21
Vjmp 0x305
p1013
sg5
L765169L
sg6
Nsg23
S'jmp'
p1014
sg25
S'0xbacf1L'
p1015
sg27
Nsbasg70
(lp1016
S'mov mem, 1'
p1017
aS'jmp func'
p1018
asg79
Nsg5
S'0xbaceaL'
p1019
sg81
(lp1020
S'0xbacdcL'
p1021
asg6
Nsg83
(lp1022
S'0xbaff6L'
p1023
asg86
Nsg87
Nsg88
S'8b9a0d40e062be2b9b2d9885108fb196'
p1024
sg90
S'c92b685d486c26d8ce7407e64af431cb'
p1025
sg92
(lp1026
g1007
ag1014
asg94
Nsba(ibclass
BBasicBlock
p1027
(dp1028
g12
Nsg13
(lp1029
(ibclass
BInstr
p1030
(dp1031
g2
Nsg17
S'mov     rax, [rbp+ctxt]'
p1032
sg19
S'488b45e8'
p1033
sg21
Vmov rax, qword ptr [rbp - 0x18]
p1034
sg5
L765174L
sg6
Nsg23
S'mov'
p1035
sg25
S'0xbacf6L'
p1036
sg27
Nsba(ibclass
BInstr
p1037
(dp1038
g2
Nsg17
S'mov     rax, [rax]'
p1039
sg19
S'488b00'
p1040
sg21
Vmov rax, qword ptr [rax]
p1041
sg5
L765178L
sg6
Nsg23
S'mov'
p1042
sg25
S'0xbacfaL'
p1043
sg27
Nsba(ibclass
BInstr
p1044
(dp1045
g2
Nsg17
S'movzx   eax, byte ptr [rax]'
p1046
sg19
S'0fb600'
p1047
sg21
Vmovzx eax, byte ptr [rax]
p1048
sg5
L765181L
sg6
Nsg23
S'movzx'
p1049
sg25
S'0xbacfdL'
p1050
sg27
Nsba(ibclass
BInstr
p1051
(dp1052
g2
Nsg17
S'cmp     al, 2Fh'
p1053
sg19
S'3c2f'
p1054
sg21
Vcmp al, 0x2f
p1055
sg5
L765184L
sg6
Nsg23
S'cmp'
p1056
sg25
S'0xbad00L'
p1057
sg27
Nsba(ibclass
BInstr
p1058
(dp1059
g2
Nsg17
S'jnz     short loc_BAD10'
p1060
sg19
S'750c'
p1061
sg21
Vjne 0xe
p1062
sg5
L765186L
sg6
Nsg23
S'jnz'
p1063
sg25
S'0xbad02L'
p1064
sg27
Nsbasg70
(lp1065
S'mov reg, mem'
p1066
aS'mov reg, mem'
p1067
aS'movzx reg, mem'
p1068
aS'cmp reg, 2Fh'
p1069
aS'jnz func'
p1070
asg79
Nsg5
S'0xbacf6L'
p1071
sg81
(lp1072
S'0xbacdcL'
p1073
asg6
Nsg83
(lp1074
S'0xbad04L'
p1075
aS'0xbad10L'
p1076
asg86
Nsg87
Nsg88
S'fee82e05e3ad0c992b7c2259c6fe4074'
p1077
sg90
S'5c0555a57ad1e7dca5ffddac02f028ce'
p1078
sg92
(lp1079
g1035
ag1042
ag1049
ag1056
ag1063
asg94
Nsba(ibclass
BBasicBlock
p1080
(dp1081
g12
Nsg13
(lp1082
(ibclass
BInstr
p1083
(dp1084
g2
Nsg17
S'mov     [rbp+lc], 1'
p1085
sg19
S'c745f001000000'
p1086
sg21
Vmov dword ptr [rbp - 0x10], 1
p1087
sg5
L765188L
sg6
Nsg23
S'mov'
p1088
sg25
S'0xbad04L'
p1089
sg27
Nsba(ibclass
BInstr
p1090
(dp1091
g2
Nsg17
S'jmp     loc_BAFF6'
p1092
sg19
S'e9e6020000'
p1093
sg21
Vjmp 0x2eb
p1094
sg5
L765195L
sg6
Nsg23
S'jmp'
p1095
sg25
S'0xbad0bL'
p1096
sg27
Nsbasg70
(lp1097
S'mov mem, 1'
p1098
aS'jmp func'
p1099
asg79
Nsg5
S'0xbad04L'
p1100
sg81
(lp1101
S'0xbacf6L'
p1102
asg6
Nsg83
(lp1103
S'0xbaff6L'
p1104
asg86
Nsg87
Nsg88
S'8b9a0d40e062be2b9b2d9885108fb196'
p1105
sg90
S'c92b685d486c26d8ce7407e64af431cb'
p1106
sg92
(lp1107
g1088
ag1095
asg94
Nsba(ibclass
BBasicBlock
p1108
(dp1109
g12
Nsg13
(lp1110
(ibclass
BInstr
p1111
(dp1112
g2
Nsg17
S'mov     rax, [rbp+ctxt]'
p1113
sg19
S'488b45e8'
p1114
sg21
Vmov rax, qword ptr [rbp - 0x18]
p1115
sg5
L765200L
sg6
Nsg23
S'mov'
p1116
sg25
S'0xbad10L'
p1117
sg27
Nsba(ibclass
BInstr
p1118
(dp1119
g2
Nsg17
S'mov     rax, [rax]'
p1120
sg19
S'488b00'
p1121
sg21
Vmov rax, qword ptr [rax]
p1122
sg5
L765204L
sg6
Nsg23
S'mov'
p1123
sg25
S'0xbad14L'
p1124
sg27
Nsba(ibclass
BInstr
p1125
(dp1126
g2
Nsg17
S'movzx   eax, byte ptr [rax]'
p1127
sg19
S'0fb600'
p1128
sg21
Vmovzx eax, byte ptr [rax]
p1129
sg5
L765207L
sg6
Nsg23
S'movzx'
p1130
sg25
S'0xbad17L'
p1131
sg27
Nsba(ibclass
BInstr
p1132
(dp1133
g2
Nsg17
S'cmp     al, 40h'
p1134
sg19
S'3c40'
p1135
sg21
Vcmp al, 0x40
p1136
sg5
L765210L
sg6
Nsg23
S'cmp'
p1137
sg25
S'0xbad1aL'
p1138
sg27
Nsba(ibclass
BInstr
p1139
(dp1140
g2
Nsg17
S'jnz     short loc_BAD2A'
p1141
sg19
S'750c'
p1142
sg21
Vjne 0xe
p1143
sg5
L765212L
sg6
Nsg23
S'jnz'
p1144
sg25
S'0xbad1cL'
p1145
sg27
Nsbasg70
(lp1146
S'mov reg, mem'
p1147
aS'mov reg, mem'
p1148
aS'movzx reg, mem'
p1149
aS'cmp reg, 40h'
p1150
aS'jnz func'
p1151
asg79
Nsg5
S'0xbad10L'
p1152
sg81
(lp1153
S'0xbacf6L'
p1154
asg6
Nsg83
(lp1155
S'0xbad1eL'
p1156
aS'0xbad2aL'
p1157
asg86
Nsg87
Nsg88
S'fee82e05e3ad0c992b7c2259c6fe4074'
p1158
sg90
S'0b8bd71d0517fc8c1c9c406c0ddab010'
p1159
sg92
(lp1160
g1116
ag1123
ag1130
ag1137
ag1144
asg94
Nsba(ibclass
BBasicBlock
p1161
(dp1162
g12
Nsg13
(lp1163
(ibclass
BInstr
p1164
(dp1165
g2
Nsg17
S'mov     [rbp+lc], 1'
p1166
sg19
S'c745f001000000'
p1167
sg21
Vmov dword ptr [rbp - 0x10], 1
p1168
sg5
L765214L
sg6
Nsg23
S'mov'
p1169
sg25
S'0xbad1eL'
p1170
sg27
Nsba(ibclass
BInstr
p1171
(dp1172
g2
Nsg17
S'jmp     loc_BAFF6'
p1173
sg19
S'e9cc020000'
p1174
sg21
Vjmp 0x2d1
p1175
sg5
L765221L
sg6
Nsg23
S'jmp'
p1176
sg25
S'0xbad25L'
p1177
sg27
Nsbasg70
(lp1178
S'mov mem, 1'
p1179
aS'jmp func'
p1180
asg79
Nsg5
S'0xbad1eL'
p1181
sg81
(lp1182
S'0xbad10L'
p1183
asg6
Nsg83
(lp1184
S'0xbaff6L'
p1185
asg86
Nsg87
Nsg88
S'8b9a0d40e062be2b9b2d9885108fb196'
p1186
sg90
S'c92b685d486c26d8ce7407e64af431cb'
p1187
sg92
(lp1188
g1169
ag1176
asg94
Nsba(ibclass
BBasicBlock
p1189
(dp1190
g12
Nsg13
(lp1191
(ibclass
BInstr
p1192
(dp1193
g2
Nsg17
S'mov     rax, [rbp+ctxt]'
p1194
sg19
S'488b45e8'
p1195
sg21
Vmov rax, qword ptr [rbp - 0x18]
p1196
sg5
L765226L
sg6
Nsg23
S'mov'
p1197
sg25
S'0xbad2aL'
p1198
sg27
Nsba(ibclass
BInstr
p1199
(dp1200
g2
Nsg17
S'mov     rax, [rax]'
p1201
sg19
S'488b00'
p1202
sg21
Vmov rax, qword ptr [rax]
p1203
sg5
L765230L
sg6
Nsg23
S'mov'
p1204
sg25
S'0xbad2eL'
p1205
sg27
Nsba(ibclass
BInstr
p1206
(dp1207
g2
Nsg17
S'movzx   eax, byte ptr [rax]'
p1208
sg19
S'0fb600'
p1209
sg21
Vmovzx eax, byte ptr [rax]
p1210
sg5
L765233L
sg6
Nsg23
S'movzx'
p1211
sg25
S'0xbad31L'
p1212
sg27
Nsba(ibclass
BInstr
p1213
(dp1214
g2
Nsg17
S'cmp     al, 2Eh'
p1215
sg19
S'3c2e'
p1216
sg21
Vcmp al, 0x2e
p1217
sg5
L765236L
sg6
Nsg23
S'cmp'
p1218
sg25
S'0xbad34L'
p1219
sg27
Nsba(ibclass
BInstr
p1220
(dp1221
g2
Nsg17
S'jnz     short loc_BAD64'
p1222
sg19
S'752c'
p1223
sg21
Vjne 0x2e
p1224
sg5
L765238L
sg6
Nsg23
S'jnz'
p1225
sg25
S'0xbad36L'
p1226
sg27
Nsbasg70
(lp1227
S'mov reg, mem'
p1228
aS'mov reg, mem'
p1229
aS'movzx reg, mem'
p1230
aS'cmp reg, 2Eh'
p1231
aS'jnz func'
p1232
asg79
Nsg5
S'0xbad2aL'
p1233
sg81
(lp1234
S'0xbad10L'
p1235
asg6
Nsg83
(lp1236
S'0xbad38L'
p1237
aS'0xbad64L'
p1238
asg86
Nsg87
Nsg88
S'fee82e05e3ad0c992b7c2259c6fe4074'
p1239
sg90
S'fda9c9154d31cbd879dee6b398706452'
p1240
sg92
(lp1241
g1197
ag1204
ag1211
ag1218
ag1225
asg94
Nsba(ibclass
BBasicBlock
p1242
(dp1243
g12
Nsg13
(lp1244
(ibclass
BInstr
p1245
(dp1246
g2
Nsg17
S'mov     [rbp+lc], 1'
p1247
sg19
S'c745f001000000'
p1248
sg21
Vmov dword ptr [rbp - 0x10], 1
p1249
sg5
L765240L
sg6
Nsg23
S'mov'
p1250
sg25
S'0xbad38L'
p1251
sg27
Nsba(ibclass
BInstr
p1252
(dp1253
g2
Nsg17
S'jmp     loc_BAFF6'
p1254
sg19
S'e9b2020000'
p1255
sg21
Vjmp 0x2b7
p1256
sg5
L765247L
sg6
Nsg23
S'jmp'
p1257
sg25
S'0xbad3fL'
p1258
sg27
Nsbasg70
(lp1259
S'mov mem, 1'
p1260
aS'jmp func'
p1261
asg79
Nsg5
S'0xbad38L'
p1262
sg81
(lp1263
S'0xbad2aL'
p1264
asg6
Nsg83
(lp1265
S'0xbaff6L'
p1266
asg86
Nsg87
Nsg88
S'8b9a0d40e062be2b9b2d9885108fb196'
p1267
sg90
S'c92b685d486c26d8ce7407e64af431cb'
p1268
sg92
(lp1269
g1250
ag1257
asg94
Nsba(ibclass
BBasicBlock
p1270
(dp1271
g12
Nsg13
(lp1272
(ibclass
BInstr
p1273
(dp1274
g2
Nsg17
S'mov     rax, [rbp+ctxt]'
p1275
sg19
S'488b45e8'
p1276
sg21
Vmov rax, qword ptr [rbp - 0x18]
p1277
sg5
L765252L
sg6
Nsg23
S'mov'
p1278
sg25
S'0xbad44L'
p1279
sg27
Nsba(ibclass
BInstr
p1280
(dp1281
g2
Nsg17
S'mov     rax, [rax]'
p1282
sg19
S'488b00'
p1283
sg21
Vmov rax, qword ptr [rax]
p1284
sg5
L765256L
sg6
Nsg23
S'mov'
p1285
sg25
S'0xbad48L'
p1286
sg27
Nsba(ibclass
BInstr
p1287
(dp1288
g2
Nsg17
S'movzx   eax, byte ptr [rax]'
p1289
sg19
S'0fb600'
p1290
sg21
Vmovzx eax, byte ptr [rax]
p1291
sg5
L765259L
sg6
Nsg23
S'movzx'
p1292
sg25
S'0xbad4bL'
p1293
sg27
Nsba(ibclass
BInstr
p1294
(dp1295
g2
Nsg17
S'test    al, al'
p1296
sg19
S'84c0'
p1297
sg21
Vtest al, al
p1298
sg5
L765262L
sg6
Nsg23
S'test'
p1299
sg25
S'0xbad4eL'
p1300
sg27
Nsba(ibclass
BInstr
p1301
(dp1302
g2
Nsg17
S'jz      short loc_BAD64'
p1303
sg19
S'7412'
p1304
sg21
Vje 0x14
p1305
sg5
L765264L
sg6
Nsg23
S'jz'
p1306
sg25
S'0xbad50L'
p1307
sg27
Nsbasg70
(lp1308
S'mov reg, mem'
p1309
aS'mov reg, mem'
p1310
aS'movzx reg, mem'
p1311
aS'test reg, reg'
p1312
aS'jz func'
p1313
asg79
Nsg5
S'0xbad44L'
p1314
sg81
(lp1315
S'0xbad64L'
p1316
aS'0xbad80L'
p1317
aS'0xbad8eL'
p1318
asg6
Nsg83
(lp1319
S'0xbad52L'
p1320
aS'0xbad64L'
p1321
asg86
Nsg87
Nsg88
S'791d110b6f72b28a0ed387504865cb08'
p1322
sg90
S'fd7febd4cca0ddb2ee8370dd2f349181'
p1323
sg92
(lp1324
g1278
ag1285
ag1292
ag1299
ag1306
asg94
Nsba(ibclass
BBasicBlock
p1325
(dp1326
g12
Nsg13
(lp1327
(ibclass
BInstr
p1328
(dp1329
g2
Nsg17
S'mov     rax, [rbp+ctxt]'
p1330
sg19
S'488b45e8'
p1331
sg21
Vmov rax, qword ptr [rbp - 0x18]
p1332
sg5
L765266L
sg6
Nsg23
S'mov'
p1333
sg25
S'0xbad52L'
p1334
sg27
Nsba(ibclass
BInstr
p1335
(dp1336
g2
Nsg17
S'mov     rax, [rax]'
p1337
sg19
S'488b00'
p1338
sg21
Vmov rax, qword ptr [rax]
p1339
sg5
L765270L
sg6
Nsg23
S'mov'
p1340
sg25
S'0xbad56L'
p1341
sg27
Nsba(ibclass
BInstr
p1342
(dp1343
g2
Nsg17
S'lea     rdx, [rax+1]'
p1344
sg19
S'488d5001'
p1345
sg21
Vlea rdx, [rax + 1]
p1346
sg5
L765273L
sg6
Nsg23
S'lea'
p1347
sg25
S'0xbad59L'
p1348
sg27
Nsba(ibclass
BInstr
p1349
(dp1350
g2
Nsg17
S'mov     rax, [rbp+ctxt]'
p1351
sg19
S'488b45e8'
p1352
sg21
Vmov rax, qword ptr [rbp - 0x18]
p1353
sg5
L765277L
sg6
Nsg23
S'mov'
p1354
sg25
S'0xbad5dL'
p1355
sg27
Nsba(ibclass
BInstr
p1356
(dp1357
g2
Nsg17
S'mov     [rax], rdx'
p1358
sg19
S'488910'
p1359
sg21
Vmov qword ptr [rax], rdx
p1360
sg5
L765281L
sg6
Nsg23
S'mov'
p1361
sg25
S'0xbad61L'
p1362
sg27
Nsbasg70
(lp1363
S'mov reg, mem'
p1364
aS'mov reg, mem'
p1365
aS'lea reg, mem'
p1366
aS'mov reg, mem'
p1367
aS'mov mem, reg'
p1368
asg79
Nsg5
S'0xbad52L'
p1369
sg81
(lp1370
S'0xbad44L'
p1371
asg6
Nsg83
(lp1372
S'0xbad64L'
p1373
asg86
Nsg87
Nsg88
S'72f4ffde030f180f82b3b840c2feb320'
p1374
sg90
S'a86dfa9db1a7ce39ea439444b161239c'
p1375
sg92
(lp1376
g1333
ag1340
ag1347
ag1354
ag1361
asg94
Nsba(ibclass
BBasicBlock
p1377
(dp1378
g12
Nsg13
(lp1379
(ibclass
BInstr
p1380
(dp1381
g2
Nsg17
S'mov     rax, [rbp+ctxt]'
p1382
sg19
S'488b45e8'
p1383
sg21
Vmov rax, qword ptr [rbp - 0x18]
p1384
sg5
L765284L
sg6
Nsg23
S'mov'
p1385
sg25
S'0xbad64L'
p1386
sg27
Nsba(ibclass
BInstr
p1387
(dp1388
g2
Nsg17
S'mov     rax, [rax]'
p1389
sg19
S'488b00'
p1390
sg21
Vmov rax, qword ptr [rax]
p1391
sg5
L765288L
sg6
Nsg23
S'mov'
p1392
sg25
S'0xbad68L'
p1393
sg27
Nsba(ibclass
BInstr
p1394
(dp1395
g2
Nsg17
S'movzx   eax, byte ptr [rax]'
p1396
sg19
S'0fb600'
p1397
sg21
Vmovzx eax, byte ptr [rax]
p1398
sg5
L765291L
sg6
Nsg23
S'movzx'
p1399
sg25
S'0xbad6bL'
p1400
sg27
Nsba(ibclass
BInstr
p1401
(dp1402
g2
Nsg17
S'cmp     al, 20h'
p1403
sg19
S'3c20'
p1404
sg21
Vcmp al, 0x20
p1405
sg5
L765294L
sg6
Nsg23
S'cmp'
p1406
sg25
S'0xbad6eL'
p1407
sg27
Nsba(ibclass
BInstr
p1408
(dp1409
g2
Nsg17
S'jz      short loc_BAD44'
p1410
sg19
S'74d2'
p1411
sg21
Vje 0xffffffffffffffd4
p1412
sg5
L765296L
sg6
Nsg23
S'jz'
p1413
sg25
S'0xbad70L'
p1414
sg27
Nsbasg70
(lp1415
S'mov reg, mem'
p1416
aS'mov reg, mem'
p1417
aS'movzx reg, mem'
p1418
aS'cmp reg, 20h'
p1419
aS'jz func'
p1420
asg79
Nsg5
S'0xbad64L'
p1421
sg81
(lp1422
S'0xbad2aL'
p1423
aS'0xbad44L'
p1424
aS'0xbad52L'
p1425
asg6
Nsg83
(lp1426
S'0xbad44L'
p1427
aS'0xbad72L'
p1428
asg86
Nsg87
Nsg88
S'02bb03f931a7fe57ff72866cf79084c1'
p1429
sg90
S'b2d221df487b4132bb48314b39c3fc71'
p1430
sg92
(lp1431
g1385
ag1392
ag1399
ag1406
ag1413
asg94
Nsba(ibclass
BBasicBlock
p1432
(dp1433
g12
Nsg13
(lp1434
(ibclass
BInstr
p1435
(dp1436
g2
Nsg17
S'mov     rax, [rbp+ctxt]'
p1437
sg19
S'488b45e8'
p1438
sg21
Vmov rax, qword ptr [rbp - 0x18]
p1439
sg5
L765298L
sg6
Nsg23
S'mov'
p1440
sg25
S'0xbad72L'
p1441
sg27
Nsba(ibclass
BInstr
p1442
(dp1443
g2
Nsg17
S'mov     rax, [rax]'
p1444
sg19
S'488b00'
p1445
sg21
Vmov rax, qword ptr [rax]
p1446
sg5
L765302L
sg6
Nsg23
S'mov'
p1447
sg25
S'0xbad76L'
p1448
sg27
Nsba(ibclass
BInstr
p1449
(dp1450
g2
Nsg17
S'movzx   eax, byte ptr [rax]'
p1451
sg19
S'0fb600'
p1452
sg21
Vmovzx eax, byte ptr [rax]
p1453
sg5
L765305L
sg6
Nsg23
S'movzx'
p1454
sg25
S'0xbad79L'
p1455
sg27
Nsba(ibclass
BInstr
p1456
(dp1457
g2
Nsg17
S'cmp     al, 8'
p1458
sg19
S'3c08'
p1459
sg21
Vcmp al, 8
p1460
sg5
L765308L
sg6
Nsg23
S'cmp'
p1461
sg25
S'0xbad7cL'
p1462
sg27
Nsba(ibclass
BInstr
p1463
(dp1464
g2
Nsg17
S'jbe     short loc_BAD8E'
p1465
sg19
S'760e'
p1466
sg21
Vjbe 0x10
p1467
sg5
L765310L
sg6
Nsg23
S'jbe'
p1468
sg25
S'0xbad7eL'
p1469
sg27
Nsbasg70
(lp1470
S'mov reg, mem'
p1471
aS'mov reg, mem'
p1472
aS'movzx reg, mem'
p1473
aS'cmp reg, 8'
p1474
aS'jbe func'
p1475
asg79
Nsg5
S'0xbad72L'
p1476
sg81
(lp1477
S'0xbad64L'
p1478
asg6
Nsg83
(lp1479
S'0xbad80L'
p1480
aS'0xbad8eL'
p1481
asg86
Nsg87
Nsg88
S'1f79befb8d5181eb675155174f8269b6'
p1482
sg90
S'f5a2f5bcbf41d72aa849c0bd2e46fc8b'
p1483
sg92
(lp1484
g1440
ag1447
ag1454
ag1461
ag1468
asg94
Nsba(ibclass
BBasicBlock
p1485
(dp1486
g12
Nsg13
(lp1487
(ibclass
BInstr
p1488
(dp1489
g2
Nsg17
S'mov     rax, [rbp+ctxt]'
p1490
sg19
S'488b45e8'
p1491
sg21
Vmov rax, qword ptr [rbp - 0x18]
p1492
sg5
L765312L
sg6
Nsg23
S'mov'
p1493
sg25
S'0xbad80L'
p1494
sg27
Nsba(ibclass
BInstr
p1495
(dp1496
g2
Nsg17
S'mov     rax, [rax]'
p1497
sg19
S'488b00'
p1498
sg21
Vmov rax, qword ptr [rax]
p1499
sg5
L765316L
sg6
Nsg23
S'mov'
p1500
sg25
S'0xbad84L'
p1501
sg27
Nsba(ibclass
BInstr
p1502
(dp1503
g2
Nsg17
S'movzx   eax, byte ptr [rax]'
p1504
sg19
S'0fb600'
p1505
sg21
Vmovzx eax, byte ptr [rax]
p1506
sg5
L765319L
sg6
Nsg23
S'movzx'
p1507
sg25
S'0xbad87L'
p1508
sg27
Nsba(ibclass
BInstr
p1509
(dp1510
g2
Nsg17
S'cmp     al, 0Ah'
p1511
sg19
S'3c0a'
p1512
sg21
Vcmp al, 0xa
p1513
sg5
L765322L
sg6
Nsg23
S'cmp'
p1514
sg25
S'0xbad8aL'
p1515
sg27
Nsba(ibclass
BInstr
p1516
(dp1517
g2
Nsg17
S'jbe     short loc_BAD44'
p1518
sg19
S'76b6'
p1519
sg21
Vjbe 0xffffffffffffffb8
p1520
sg5
L765324L
sg6
Nsg23
S'jbe'
p1521
sg25
S'0xbad8cL'
p1522
sg27
Nsbasg70
(lp1523
S'mov reg, mem'
p1524
aS'mov reg, mem'
p1525
aS'movzx reg, mem'
p1526
aS'cmp reg, 0Ah'
p1527
aS'jbe func'
p1528
asg79
Nsg5
S'0xbad80L'
p1529
sg81
(lp1530
S'0xbad72L'
p1531
asg6
Nsg83
(lp1532
S'0xbad44L'
p1533
aS'0xbad8eL'
p1534
asg86
Nsg87
Nsg88
S'1f79befb8d5181eb675155174f8269b6'
p1535
sg90
S'e694ab8199a73c8c12b682cdff1d6a26'
p1536
sg92
(lp1537
g1493
ag1500
ag1507
ag1514
ag1521
asg94
Nsba(ibclass
BBasicBlock
p1538
(dp1539
g12
Nsg13
(lp1540
(ibclass
BInstr
p1541
(dp1542
g2
Nsg17
S'mov     rax, [rbp+ctxt]'
p1543
sg19
S'488b45e8'
p1544
sg21
Vmov rax, qword ptr [rbp - 0x18]
p1545
sg5
L765326L
sg6
Nsg23
S'mov'
p1546
sg25
S'0xbad8eL'
p1547
sg27
Nsba(ibclass
BInstr
p1548
(dp1549
g2
Nsg17
S'mov     rax, [rax]'
p1550
sg19
S'488b00'
p1551
sg21
Vmov rax, qword ptr [rax]
p1552
sg5
L765330L
sg6
Nsg23
S'mov'
p1553
sg25
S'0xbad92L'
p1554
sg27
Nsba(ibclass
BInstr
p1555
(dp1556
g2
Nsg17
S'movzx   eax, byte ptr [rax]'
p1557
sg19
S'0fb600'
p1558
sg21
Vmovzx eax, byte ptr [rax]
p1559
sg5
L765333L
sg6
Nsg23
S'movzx'
p1560
sg25
S'0xbad95L'
p1561
sg27
Nsba(ibclass
BInstr
p1562
(dp1563
g2
Nsg17
S'cmp     al, 0Dh'
p1564
sg19
S'3c0d'
p1565
sg21
Vcmp al, 0xd
p1566
sg5
L765336L
sg6
Nsg23
S'cmp'
p1567
sg25
S'0xbad98L'
p1568
sg27
Nsba(ibclass
BInstr
p1569
(dp1570
g2
Nsg17
S'jz      short loc_BAD44'
p1571
sg19
S'74a8'
p1572
sg21
Vje 0xffffffffffffffaa
p1573
sg5
L765338L
sg6
Nsg23
S'jz'
p1574
sg25
S'0xbad9aL'
p1575
sg27
Nsbasg70
(lp1576
S'mov reg, mem'
p1577
aS'mov reg, mem'
p1578
aS'movzx reg, mem'
p1579
aS'cmp reg, 0Dh'
p1580
aS'jz func'
p1581
asg79
Nsg5
S'0xbad8eL'
p1582
sg81
(lp1583
S'0xbad72L'
p1584
aS'0xbad80L'
p1585
asg6
Nsg83
(lp1586
S'0xbad44L'
p1587
aS'0xbad9cL'
p1588
asg86
Nsg87
Nsg88
S'02bb03f931a7fe57ff72866cf79084c1'
p1589
sg90
S'2fd6b9095b1aaa7ef51e20b5e5eed68c'
p1590
sg92
(lp1591
g1546
ag1553
ag1560
ag1567
ag1574
asg94
Nsba(ibclass
BBasicBlock
p1592
(dp1593
g12
Nsg13
(lp1594
(ibclass
BInstr
p1595
(dp1596
g2
Nsg17
S'mov     rax, [rbp+ctxt]'
p1597
sg19
S'488b45e8'
p1598
sg21
Vmov rax, qword ptr [rbp - 0x18]
p1599
sg5
L765340L
sg6
Nsg23
S'mov'
p1600
sg25
S'0xbad9cL'
p1601
sg27
Nsba(ibclass
BInstr
p1602
(dp1603
g2
Nsg17
S'mov     rdi, rax        ; ctxt'
p1604
sg19
S'4889c7'
p1605
sg21
Vmov rdi, rax
p1606
sg5
L765344L
sg6
Nsg23
S'mov'
p1607
sg25
S'0xbada0L'
p1608
sg27
Nsba(ibclass
BInstr
p1609
(dp1610
g2
Nsg17
S'call    xmlXPathScanName'
p1611
sg19
S'e8d5faffff'
p1612
sg21
Vcall 0xfffffffffffffada
p1613
sg5
L765347L
sg6
Nsg23
S'call'
p1614
sg25
S'0xbada3L'
p1615
sg27
Nsba(ibclass
BInstr
p1616
(dp1617
g2
Nsg17
S'mov     [rbp+name], rax'
p1618
sg19
S'488945f8'
p1619
sg21
Vmov qword ptr [rbp - 8], rax
p1620
sg5
L765352L
sg6
Nsg23
S'mov'
p1621
sg25
S'0xbada8L'
p1622
sg27
Nsba(ibclass
BInstr
p1623
(dp1624
g2
Nsg17
S'cmp     [rbp+name], 0'
p1625
sg19
S'48837df800'
p1626
sg21
Vcmp qword ptr [rbp - 8], 0
p1627
sg5
L765356L
sg6
Nsg23
S'cmp'
p1628
sg25
S'0xbadacL'
p1629
sg27
Nsba(ibclass
BInstr
p1630
(dp1631
g2
Nsg17
S'jz      short loc_BADEA'
p1632
sg19
S'7437'
p1633
sg21
Vje 0x39
p1634
sg5
L765361L
sg6
Nsg23
S'jz'
p1635
sg25
S'0xbadb1L'
p1636
sg27
Nsbasg70
(lp1637
S'mov reg, mem'
p1638
aS'mov reg, reg'
p1639
aS'cregl xmlXPathScanName'
p1640
aS'mov mem, reg'
p1641
aS'cmp mem, 0'
p1642
aS'jz func'
p1643
asg79
Nsg5
S'0xbad9cL'
p1644
sg81
(lp1645
S'0xbad8eL'
p1646
asg6
Nsg83
(lp1647
S'0xbadb3L'
p1648
aS'0xbadeaL'
p1649
asg86
Nsg87
Nsg88
S'2893a48ca686d52a2339ece017f28350'
p1650
sg90
S'0c0bb65156dbbe3f575fc8b518e9be81'
p1651
sg92
(lp1652
g1600
ag1607
ag1614
ag1621
ag1628
ag1635
asg94
Nsba(ibclass
BBasicBlock
p1653
(dp1654
g12
Nsg13
(lp1655
(ibclass
BInstr
p1656
(dp1657
g2
Nsg17
S'mov     rax, [rbp+name]'
p1658
sg19
S'488b45f8'
p1659
sg21
Vmov rax, qword ptr [rbp - 8]
p1660
sg5
L765363L
sg6
Nsg23
S'mov'
p1661
sg25
S'0xbadb3L'
p1662
sg27
Nsba(ibclass
BInstr
p1663
(dp1664
g2
Nsg17
S'lea     rsi, asc_18468F ; "::"'
p1665
sg19
S'488d35d1980c00'
p1666
sg21
Vlea rsi, [rip + 0xc98d1]
p1667
sg5
L765367L
sg6
Nsg23
S'lea'
p1668
sg25
S'0xbadb7L'
p1669
sg27
Nsba(ibclass
BInstr
p1670
(dp1671
g2
Nsg17
S'mov     rdi, rax        ; str'
p1672
sg19
S'4889c7'
p1673
sg21
Vmov rdi, rax
p1674
sg5
L765374L
sg6
Nsg23
S'mov'
p1675
sg25
S'0xbadbeL'
p1676
sg27
Nsba(ibclass
BInstr
p1677
(dp1678
g2
Nsg17
S'call    xmlStrstr__internal_alias'
p1679
sg19
S'e884830200'
p1680
sg21
Vcall 0x28389
p1681
sg5
L765377L
sg6
Nsg23
S'call'
p1682
sg25
S'0xbadc1L'
p1683
sg27
Nsba(ibclass
BInstr
p1684
(dp1685
g2
Nsg17
S'test    rax, rax'
p1686
sg19
S'4885c0'
p1687
sg21
Vtest rax, rax
p1688
sg5
L765382L
sg6
Nsg23
S'test'
p1689
sg25
S'0xbadc6L'
p1690
sg27
Nsba(ibclass
BInstr
p1691
(dp1692
g2
Nsg17
S'jz      short loc_BADEA'
p1693
sg19
S'741f'
p1694
sg21
Vje 0x21
p1695
sg5
L765385L
sg6
Nsg23
S'jz'
p1696
sg25
S'0xbadc9L'
p1697
sg27
Nsbasg70
(lp1698
S'mov reg, mem'
p1699
aS'lea reg, func'
p1700
aS'mov reg, reg'
p1701
aS'cregl xmlStrstr__internreg_regias'
p1702
aS'test reg, reg'
p1703
aS'jz func'
p1704
asg79
Nsg5
S'0xbadb3L'
p1705
sg81
(lp1706
S'0xbad9cL'
p1707
asg6
Nsg83
(lp1708
S'0xbadcbL'
p1709
aS'0xbadeaL'
p1710
asg86
Nsg87
Nsg88
S'ad83afdc7d96ef5a98d08b38cf202ca1'
p1711
sg90
S'f7ce442619f516e9bfc32b1451b9d481'
p1712
sg92
(lp1713
g1661
ag1668
ag1675
ag1682
ag1689
ag1696
asg94
Nsba(ibclass
BBasicBlock
p1714
(dp1715
g12
Nsg13
(lp1716
(ibclass
BInstr
p1717
(dp1718
g2
Nsg17
S'mov     [rbp+lc], 1'
p1719
sg19
S'c745f001000000'
p1720
sg21
Vmov dword ptr [rbp - 0x10], 1
p1721
sg5
L765387L
sg6
Nsg23
S'mov'
p1722
sg25
S'0xbadcbL'
p1723
sg27
Nsba(ibclass
BInstr
p1724
(dp1725
g2
Nsg17
S'mov     rax, cs:xmlFree_ptr'
p1726
sg19
S'488b0527413000'
p1727
sg21
Vmov rax, qword ptr [rip + 0x304127]
p1728
sg5
L765394L
sg6
Nsg23
S'mov'
p1729
sg25
S'0xbadd2L'
p1730
sg27
Nsba(ibclass
BInstr
p1731
(dp1732
g2
Nsg17
S'mov     rax, [rax]'
p1733
sg19
S'488b00'
p1734
sg21
Vmov rax, qword ptr [rax]
p1735
sg5
L765401L
sg6
Nsg23
S'mov'
p1736
sg25
S'0xbadd9L'
p1737
sg27
Nsba(ibclass
BInstr
p1738
(dp1739
g2
Nsg17
S'mov     rdx, [rbp+name]'
p1740
sg19
S'488b55f8'
p1741
sg21
Vmov rdx, qword ptr [rbp - 8]
p1742
sg5
L765404L
sg6
Nsg23
S'mov'
p1743
sg25
S'0xbaddcL'
p1744
sg27
Nsba(ibclass
BInstr
p1745
(dp1746
g2
Nsg17
S'mov     rdi, rdx'
p1747
sg19
S'4889d7'
p1748
sg21
Vmov rdi, rdx
p1749
sg5
L765408L
sg6
Nsg23
S'mov'
p1750
sg25
S'0xbade0L'
p1751
sg27
Nsba(ibclass
BInstr
p1752
(dp1753
g2
Nsg17
S'call    rax'
p1754
sg19
S'ffd0'
p1755
sg21
Vcall rax
p1756
sg5
L765411L
sg6
Nsg23
S'call'
p1757
sg25
S'0xbade3L'
p1758
sg27
Nsba(ibclass
BInstr
p1759
(dp1760
g2
Nsg17
S'jmp     loc_BAFF6'
p1761
sg19
S'e90c020000'
p1762
sg21
Vjmp 0x211
p1763
sg5
L765413L
sg6
Nsg23
S'jmp'
p1764
sg25
S'0xbade5L'
p1765
sg27
Nsbasg70
(lp1766
S'mov mem, 1'
p1767
aS'mov reg, cs:xmlFree_ptr'
p1768
aS'mov reg, mem'
p1769
aS'mov reg, mem'
p1770
aS'mov reg, reg'
p1771
aS'cregl reg'
p1772
aS'jmp func'
p1773
asg79
Nsg5
S'0xbadcbL'
p1774
sg81
(lp1775
S'0xbadb3L'
p1776
asg6
Nsg83
(lp1777
S'0xbaff6L'
p1778
asg86
Nsg87
Nsg88
S'a76a0a3b827ea6cd402bf72e182d1d25'
p1779
sg90
S'efb2ac68ced16be0b4ce44138d421228'
p1780
sg92
(lp1781
g1722
ag1729
ag1736
ag1743
ag1750
ag1757
ag1764
asg94
Nsba(ibclass
BBasicBlock
p1782
(dp1783
g12
Nsg13
(lp1784
(ibclass
BInstr
p1785
(dp1786
g2
Nsg17
S'cmp     [rbp+name], 0'
p1787
sg19
S'48837df800'
p1788
sg21
Vcmp qword ptr [rbp - 8], 0
p1789
sg5
L765418L
sg6
Nsg23
S'cmp'
p1790
sg25
S'0xbadeaL'
p1791
sg27
Nsba(ibclass
BInstr
p1792
(dp1793
g2
Nsg17
S'jz      loc_BAFE0'
p1794
sg19
S'0f84eb010000'
p1795
sg21
Vje 0x1f1
p1796
sg5
L765423L
sg6
Nsg23
S'jz'
p1797
sg25
S'0xbadefL'
p1798
sg27
Nsbasg70
(lp1799
S'cmp mem, 0'
p1800
aS'jz func'
p1801
asg79
Nsg5
S'0xbadeaL'
p1802
sg81
(lp1803
S'0xbad9cL'
p1804
aS'0xbadb3L'
p1805
asg6
Nsg83
(lp1806
S'0xbadf5L'
p1807
aS'0xbafe0L'
p1808
asg86
Nsg87
Nsg88
S'613dbc2b0cb9d6264d802b24d709daea'
p1809
sg90
S'7f4ecf78254be39f53e7a11cedd080e9'
p1810
sg92
(lp1811
g1790
ag1797
asg94
Nsba(ibclass
BBasicBlock
p1812
(dp1813
g12
Nsg13
(lp1814
(ibclass
BInstr
p1815
(dp1816
g2
Nsg17
S'mov     rax, [rbp+name]'
p1817
sg19
S'488b45f8'
p1818
sg21
Vmov rax, qword ptr [rbp - 8]
p1819
sg5
L765429L
sg6
Nsg23
S'mov'
p1820
sg25
S'0xbadf5L'
p1821
sg27
Nsba(ibclass
BInstr
p1822
(dp1823
g2
Nsg17
S'mov     rdi, rax        ; str'
p1824
sg19
S'4889c7'
p1825
sg21
Vmov rdi, rax
p1826
sg5
L765433L
sg6
Nsg23
S'mov'
p1827
sg25
S'0xbadf9L'
p1828
sg27
Nsba(ibclass
BInstr
p1829
(dp1830
g2
Nsg17
S'call    xmlStrlen__internal_alias'
p1831
sg19
S'e81c850200'
p1832
sg21
Vcall 0x28521
p1833
sg5
L765436L
sg6
Nsg23
S'call'
p1834
sg25
S'0xbadfcL'
p1835
sg27
Nsba(ibclass
BInstr
p1836
(dp1837
g2
Nsg17
S'mov     [rbp+len], eax'
p1838
sg19
S'8945f4'
p1839
sg21
Vmov dword ptr [rbp - 0xc], eax
p1840
sg5
L765441L
sg6
Nsg23
S'mov'
p1841
sg25
S'0xbae01L'
p1842
sg27
Nsba(ibclass
BInstr
p1843
(dp1844
g2
Nsg17
S'jmp     loc_BAF94'
p1845
sg19
S'e98b010000'
p1846
sg21
Vjmp 0x190
p1847
sg5
L765444L
sg6
Nsg23
S'jmp'
p1848
sg25
S'0xbae04L'
p1849
sg27
Nsbasg70
(lp1850
S'mov reg, mem'
p1851
aS'mov reg, reg'
p1852
aS'cregl xmlStrlen__internreg_regias'
p1853
aS'mov mem, reg'
p1854
aS'jmp func'
p1855
asg79
Nsg5
S'0xbadf5L'
p1856
sg81
(lp1857
S'0xbadeaL'
p1858
asg6
Nsg83
(lp1859
S'0xbaf94L'
p1860
asg86
Nsg87
Nsg88
S'a520f52f5785a217e8fe2f5e8207c873'
p1861
sg90
S'be8756980caebce613a8f8cc1e833de8'
p1862
sg92
(lp1863
g1820
ag1827
ag1834
ag1841
ag1848
asg94
Nsba(ibclass
BBasicBlock
p1864
(dp1865
g12
Nsg13
(lp1866
(ibclass
BInstr
p1867
(dp1868
g2
Nsg17
S'mov     rax, [rbp+ctxt]'
p1869
sg19
S'488b45e8'
p1870
sg21
Vmov rax, qword ptr [rbp - 0x18]
p1871
sg5
L765449L
sg6
Nsg23
S'mov'
p1872
sg25
S'0xbae09L'
p1873
sg27
Nsba(ibclass
BInstr
p1874
(dp1875
g2
Nsg17
S'mov     rdx, [rax]'
p1876
sg19
S'488b10'
p1877
sg21
Vmov rdx, qword ptr [rax]
p1878
sg5
L765453L
sg6
Nsg23
S'mov'
p1879
sg25
S'0xbae0dL'
p1880
sg27
Nsba(ibclass
BInstr
p1881
(dp1882
g2
Nsg17
S'mov     eax, [rbp+len]'
p1883
sg19
S'8b45f4'
p1884
sg21
Vmov eax, dword ptr [rbp - 0xc]
p1885
sg5
L765456L
sg6
Nsg23
S'mov'
p1886
sg25
S'0xbae10L'
p1887
sg27
Nsba(ibclass
BInstr
p1888
(dp1889
g2
Nsg17
S'cdqe'
p1890
sg19
S'4898'
p1891
sg21
Vcdqe 
p1892
sg5
L765459L
sg6
Nsg23
S'cdqe'
p1893
sg25
S'0xbae13L'
p1894
sg27
Nsba(ibclass
BInstr
p1895
(dp1896
g2
Nsg17
S'add     rax, rdx'
p1897
sg19
S'4801d0'
p1898
sg21
Vadd rax, rdx
p1899
sg5
L765461L
sg6
Nsg23
S'add'
p1900
sg25
S'0xbae15L'
p1901
sg27
Nsba(ibclass
BInstr
p1902
(dp1903
g2
Nsg17
S'movzx   eax, byte ptr [rax]'
p1904
sg19
S'0fb600'
p1905
sg21
Vmovzx eax, byte ptr [rax]
p1906
sg5
L765464L
sg6
Nsg23
S'movzx'
p1907
sg25
S'0xbae18L'
p1908
sg27
Nsba(ibclass
BInstr
p1909
(dp1910
g2
Nsg17
S'cmp     al, 2Fh'
p1911
sg19
S'3c2f'
p1912
sg21
Vcmp al, 0x2f
p1913
sg5
L765467L
sg6
Nsg23
S'cmp'
p1914
sg25
S'0xbae1bL'
p1915
sg27
Nsba(ibclass
BInstr
p1916
(dp1917
g2
Nsg17
S'jnz     short loc_BAE2B'
p1918
sg19
S'750c'
p1919
sg21
Vjne 0xe
p1920
sg5
L765469L
sg6
Nsg23
S'jnz'
p1921
sg25
S'0xbae1dL'
p1922
sg27
Nsbasg70
(lp1923
S'mov reg, mem'
p1924
aS'mov reg, mem'
p1925
aS'mov reg, mem'
p1926
ag1890
aS'add reg, reg'
p1927
aS'movzx reg, mem'
p1928
aS'cmp reg, 2Fh'
p1929
aS'jnz func'
p1930
asg79
Nsg5
S'0xbae09L'
p1931
sg81
(lp1932
S'0xbaf94L'
p1933
asg6
Nsg83
(lp1934
S'0xbae1fL'
p1935
aS'0xbae2bL'
p1936
asg86
Nsg87
Nsg88
S'583be51c7a3e73ec92cd6989bd7db142'
p1937
sg90
S'501b41efb14c0b79649faed7cf274279'
p1938
sg92
(lp1939
g1872
ag1879
ag1886
ag1893
ag1900
ag1907
ag1914
ag1921
asg94
Nsba(ibclass
BBasicBlock
p1940
(dp1941
g12
Nsg13
(lp1942
(ibclass
BInstr
p1943
(dp1944
g2
Nsg17
S'mov     [rbp+lc], 1'
p1945
sg19
S'c745f001000000'
p1946
sg21
Vmov dword ptr [rbp - 0x10], 1
p1947
sg5
L765471L
sg6
Nsg23
S'mov'
p1948
sg25
S'0xbae1fL'
p1949
sg27
Nsba(ibclass
BInstr
p1950
(dp1951
g2
Nsg17
S'jmp     loc_BAFAE'
p1952
sg19
S'e983010000'
p1953
sg21
Vjmp 0x188
p1954
sg5
L765478L
sg6
Nsg23
S'jmp'
p1955
sg25
S'0xbae26L'
p1956
sg27
Nsbasg70
(lp1957
S'mov mem, 1'
p1958
aS'jmp func'
p1959
asg79
Nsg5
S'0xbae1fL'
p1960
sg81
(lp1961
S'0xbae09L'
p1962
asg6
Nsg83
(lp1963
S'0xbafaeL'
p1964
asg86
Nsg87
Nsg88
S'8b9a0d40e062be2b9b2d9885108fb196'
p1965
sg90
S'c92b685d486c26d8ce7407e64af431cb'
p1966
sg92
(lp1967
g1948
ag1955
asg94
Nsba(ibclass
BBasicBlock
p1968
(dp1969
g12
Nsg13
(lp1970
(ibclass
BInstr
p1971
(dp1972
g2
Nsg17
S'mov     rax, [rbp+ctxt]'
p1973
sg19
S'488b45e8'
p1974
sg21
Vmov rax, qword ptr [rbp - 0x18]
p1975
sg5
L765483L
sg6
Nsg23
S'mov'
p1976
sg25
S'0xbae2bL'
p1977
sg27
Nsba(ibclass
BInstr
p1978
(dp1979
g2
Nsg17
S'mov     rdx, [rax]'
p1980
sg19
S'488b10'
p1981
sg21
Vmov rdx, qword ptr [rax]
p1982
sg5
L765487L
sg6
Nsg23
S'mov'
p1983
sg25
S'0xbae2fL'
p1984
sg27
Nsba(ibclass
BInstr
p1985
(dp1986
g2
Nsg17
S'mov     eax, [rbp+len]'
p1987
sg19
S'8b45f4'
p1988
sg21
Vmov eax, dword ptr [rbp - 0xc]
p1989
sg5
L765490L
sg6
Nsg23
S'mov'
p1990
sg25
S'0xbae32L'
p1991
sg27
Nsba(ibclass
BInstr
p1992
(dp1993
g2
Nsg17
S'cdqe'
p1994
sg19
S'4898'
p1995
sg21
Vcdqe 
p1996
sg5
L765493L
sg6
Nsg23
S'cdqe'
p1997
sg25
S'0xbae35L'
p1998
sg27
Nsba(ibclass
BInstr
p1999
(dp2000
g2
Nsg17
S'add     rax, rdx'
p2001
sg19
S'4801d0'
p2002
sg21
Vadd rax, rdx
p2003
sg5
L765495L
sg6
Nsg23
S'add'
p2004
sg25
S'0xbae37L'
p2005
sg27
Nsba(ibclass
BInstr
p2006
(dp2007
g2
Nsg17
S'movzx   eax, byte ptr [rax]'
p2008
sg19
S'0fb600'
p2009
sg21
Vmovzx eax, byte ptr [rax]
p2010
sg5
L765498L
sg6
Nsg23
S'movzx'
p2011
sg25
S'0xbae3aL'
p2012
sg27
Nsba(ibclass
BInstr
p2013
(dp2014
g2
Nsg17
S'cmp     al, 20h'
p2015
sg19
S'3c20'
p2016
sg21
Vcmp al, 0x20
p2017
sg5
L765501L
sg6
Nsg23
S'cmp'
p2018
sg25
S'0xbae3dL'
p2019
sg27
Nsba(ibclass
BInstr
p2020
(dp2021
g2
Nsg17
S'jz      loc_BAF90'
p2022
sg19
S'0f844b010000'
p2023
sg21
Vje 0x151
p2024
sg5
L765503L
sg6
Nsg23
S'jz'
p2025
sg25
S'0xbae3fL'
p2026
sg27
Nsbasg70
(lp2027
S'mov reg, mem'
p2028
aS'mov reg, mem'
p2029
aS'mov reg, mem'
p2030
ag1994
aS'add reg, reg'
p2031
aS'movzx reg, mem'
p2032
aS'cmp reg, 20h'
p2033
aS'jz func'
p2034
asg79
Nsg5
S'0xbae2bL'
p2035
sg81
(lp2036
S'0xbae09L'
p2037
asg6
Nsg83
(lp2038
S'0xbae45L'
p2039
aS'0xbaf90L'
p2040
asg86
Nsg87
Nsg88
S'4bd811c3234307f4471497a1cd279377'
p2041
sg90
S'd9834882c298a2c2e8ee5135bd2d2dbd'
p2042
sg92
(lp2043
g1976
ag1983
ag1990
ag1997
ag2004
ag2011
ag2018
ag2025
asg94
Nsba(ibclass
BBasicBlock
p2044
(dp2045
g12
Nsg13
(lp2046
(ibclass
BInstr
p2047
(dp2048
g2
Nsg17
S'mov     rax, [rbp+ctxt]'
p2049
sg19
S'488b45e8'
p2050
sg21
Vmov rax, qword ptr [rbp - 0x18]
p2051
sg5
L765509L
sg6
Nsg23
S'mov'
p2052
sg25
S'0xbae45L'
p2053
sg27
Nsba(ibclass
BInstr
p2054
(dp2055
g2
Nsg17
S'mov     rdx, [rax]'
p2056
sg19
S'488b10'
p2057
sg21
Vmov rdx, qword ptr [rax]
p2058
sg5
L765513L
sg6
Nsg23
S'mov'
p2059
sg25
S'0xbae49L'
p2060
sg27
Nsba(ibclass
BInstr
p2061
(dp2062
g2
Nsg17
S'mov     eax, [rbp+len]'
p2063
sg19
S'8b45f4'
p2064
sg21
Vmov eax, dword ptr [rbp - 0xc]
p2065
sg5
L765516L
sg6
Nsg23
S'mov'
p2066
sg25
S'0xbae4cL'
p2067
sg27
Nsba(ibclass
BInstr
p2068
(dp2069
g2
Nsg17
S'cdqe'
p2070
sg19
S'4898'
p2071
sg21
Vcdqe 
p2072
sg5
L765519L
sg6
Nsg23
S'cdqe'
p2073
sg25
S'0xbae4fL'
p2074
sg27
Nsba(ibclass
BInstr
p2075
(dp2076
g2
Nsg17
S'add     rax, rdx'
p2077
sg19
S'4801d0'
p2078
sg21
Vadd rax, rdx
p2079
sg5
L765521L
sg6
Nsg23
S'add'
p2080
sg25
S'0xbae51L'
p2081
sg27
Nsba(ibclass
BInstr
p2082
(dp2083
g2
Nsg17
S'movzx   eax, byte ptr [rax]'
p2084
sg19
S'0fb600'
p2085
sg21
Vmovzx eax, byte ptr [rax]
p2086
sg5
L765524L
sg6
Nsg23
S'movzx'
p2087
sg25
S'0xbae54L'
p2088
sg27
Nsba(ibclass
BInstr
p2089
(dp2090
g2
Nsg17
S'cmp     al, 8'
p2091
sg19
S'3c08'
p2092
sg21
Vcmp al, 8
p2093
sg5
L765527L
sg6
Nsg23
S'cmp'
p2094
sg25
S'0xbae57L'
p2095
sg27
Nsba(ibclass
BInstr
p2096
(dp2097
g2
Nsg17
S'jbe     short loc_BAE75'
p2098
sg19
S'761a'
p2099
sg21
Vjbe 0x1c
p2100
sg5
L765529L
sg6
Nsg23
S'jbe'
p2101
sg25
S'0xbae59L'
p2102
sg27
Nsbasg70
(lp2103
S'mov reg, mem'
p2104
aS'mov reg, mem'
p2105
aS'mov reg, mem'
p2106
ag2070
aS'add reg, reg'
p2107
aS'movzx reg, mem'
p2108
aS'cmp reg, 8'
p2109
aS'jbe func'
p2110
asg79
Nsg5
S'0xbae45L'
p2111
sg81
(lp2112
S'0xbae2bL'
p2113
asg6
Nsg83
(lp2114
S'0xbae5bL'
p2115
aS'0xbae75L'
p2116
asg86
Nsg87
Nsg88
S'6054d9f270e43619140c49e50df709e0'
p2117
sg90
S'8595b0c308e1122059a6b556d3e0c256'
p2118
sg92
(lp2119
g2052
ag2059
ag2066
ag2073
ag2080
ag2087
ag2094
ag2101
asg94
Nsba(ibclass
BBasicBlock
p2120
(dp2121
g12
Nsg13
(lp2122
(ibclass
BInstr
p2123
(dp2124
g2
Nsg17
S'mov     rax, [rbp+ctxt]'
p2125
sg19
S'488b45e8'
p2126
sg21
Vmov rax, qword ptr [rbp - 0x18]
p2127
sg5
L765531L
sg6
Nsg23
S'mov'
p2128
sg25
S'0xbae5bL'
p2129
sg27
Nsba(ibclass
BInstr
p2130
(dp2131
g2
Nsg17
S'mov     rdx, [rax]'
p2132
sg19
S'488b10'
p2133
sg21
Vmov rdx, qword ptr [rax]
p2134
sg5
L765535L
sg6
Nsg23
S'mov'
p2135
sg25
S'0xbae5fL'
p2136
sg27
Nsba(ibclass
BInstr
p2137
(dp2138
g2
Nsg17
S'mov     eax, [rbp+len]'
p2139
sg19
S'8b45f4'
p2140
sg21
Vmov eax, dword ptr [rbp - 0xc]
p2141
sg5
L765538L
sg6
Nsg23
S'mov'
p2142
sg25
S'0xbae62L'
p2143
sg27
Nsba(ibclass
BInstr
p2144
(dp2145
g2
Nsg17
S'cdqe'
p2146
sg19
S'4898'
p2147
sg21
Vcdqe 
p2148
sg5
L765541L
sg6
Nsg23
S'cdqe'
p2149
sg25
S'0xbae65L'
p2150
sg27
Nsba(ibclass
BInstr
p2151
(dp2152
g2
Nsg17
S'add     rax, rdx'
p2153
sg19
S'4801d0'
p2154
sg21
Vadd rax, rdx
p2155
sg5
L765543L
sg6
Nsg23
S'add'
p2156
sg25
S'0xbae67L'
p2157
sg27
Nsba(ibclass
BInstr
p2158
(dp2159
g2
Nsg17
S'movzx   eax, byte ptr [rax]'
p2160
sg19
S'0fb600'
p2161
sg21
Vmovzx eax, byte ptr [rax]
p2162
sg5
L765546L
sg6
Nsg23
S'movzx'
p2163
sg25
S'0xbae6aL'
p2164
sg27
Nsba(ibclass
BInstr
p2165
(dp2166
g2
Nsg17
S'cmp     al, 0Ah'
p2167
sg19
S'3c0a'
p2168
sg21
Vcmp al, 0xa
p2169
sg5
L765549L
sg6
Nsg23
S'cmp'
p2170
sg25
S'0xbae6dL'
p2171
sg27
Nsba(ibclass
BInstr
p2172
(dp2173
g2
Nsg17
S'jbe     loc_BAF90'
p2174
sg19
S'0f861b010000'
p2175
sg21
Vjbe 0x121
p2176
sg5
L765551L
sg6
Nsg23
S'jbe'
p2177
sg25
S'0xbae6fL'
p2178
sg27
Nsbasg70
(lp2179
S'mov reg, mem'
p2180
aS'mov reg, mem'
p2181
aS'mov reg, mem'
p2182
ag2146
aS'add reg, reg'
p2183
aS'movzx reg, mem'
p2184
aS'cmp reg, 0Ah'
p2185
aS'jbe func'
p2186
asg79
Nsg5
S'0xbae5bL'
p2187
sg81
(lp2188
S'0xbae45L'
p2189
asg6
Nsg83
(lp2190
S'0xbae75L'
p2191
aS'0xbaf90L'
p2192
asg86
Nsg87
Nsg88
S'6054d9f270e43619140c49e50df709e0'
p2193
sg90
S'bc2c0c0463832cde0e18222d1bb161ae'
p2194
sg92
(lp2195
g2128
ag2135
ag2142
ag2149
ag2156
ag2163
ag2170
ag2177
asg94
Nsba(ibclass
BBasicBlock
p2196
(dp2197
g12
Nsg13
(lp2198
(ibclass
BInstr
p2199
(dp2200
g2
Nsg17
S'mov     rax, [rbp+ctxt]'
p2201
sg19
S'488b45e8'
p2202
sg21
Vmov rax, qword ptr [rbp - 0x18]
p2203
sg5
L765557L
sg6
Nsg23
S'mov'
p2204
sg25
S'0xbae75L'
p2205
sg27
Nsba(ibclass
BInstr
p2206
(dp2207
g2
Nsg17
S'mov     rdx, [rax]'
p2208
sg19
S'488b10'
p2209
sg21
Vmov rdx, qword ptr [rax]
p2210
sg5
L765561L
sg6
Nsg23
S'mov'
p2211
sg25
S'0xbae79L'
p2212
sg27
Nsba(ibclass
BInstr
p2213
(dp2214
g2
Nsg17
S'mov     eax, [rbp+len]'
p2215
sg19
S'8b45f4'
p2216
sg21
Vmov eax, dword ptr [rbp - 0xc]
p2217
sg5
L765564L
sg6
Nsg23
S'mov'
p2218
sg25
S'0xbae7cL'
p2219
sg27
Nsba(ibclass
BInstr
p2220
(dp2221
g2
Nsg17
S'cdqe'
p2222
sg19
S'4898'
p2223
sg21
Vcdqe 
p2224
sg5
L765567L
sg6
Nsg23
S'cdqe'
p2225
sg25
S'0xbae7fL'
p2226
sg27
Nsba(ibclass
BInstr
p2227
(dp2228
g2
Nsg17
S'add     rax, rdx'
p2229
sg19
S'4801d0'
p2230
sg21
Vadd rax, rdx
p2231
sg5
L765569L
sg6
Nsg23
S'add'
p2232
sg25
S'0xbae81L'
p2233
sg27
Nsba(ibclass
BInstr
p2234
(dp2235
g2
Nsg17
S'movzx   eax, byte ptr [rax]'
p2236
sg19
S'0fb600'
p2237
sg21
Vmovzx eax, byte ptr [rax]
p2238
sg5
L765572L
sg6
Nsg23
S'movzx'
p2239
sg25
S'0xbae84L'
p2240
sg27
Nsba(ibclass
BInstr
p2241
(dp2242
g2
Nsg17
S'cmp     al, 0Dh'
p2243
sg19
S'3c0d'
p2244
sg21
Vcmp al, 0xd
p2245
sg5
L765575L
sg6
Nsg23
S'cmp'
p2246
sg25
S'0xbae87L'
p2247
sg27
Nsba(ibclass
BInstr
p2248
(dp2249
g2
Nsg17
S'jz      loc_BAF90'
p2250
sg19
S'0f8401010000'
p2251
sg21
Vje 0x107
p2252
sg5
L765577L
sg6
Nsg23
S'jz'
p2253
sg25
S'0xbae89L'
p2254
sg27
Nsbasg70
(lp2255
S'mov reg, mem'
p2256
aS'mov reg, mem'
p2257
aS'mov reg, mem'
p2258
ag2222
aS'add reg, reg'
p2259
aS'movzx reg, mem'
p2260
aS'cmp reg, 0Dh'
p2261
aS'jz func'
p2262
asg79
Nsg5
S'0xbae75L'
p2263
sg81
(lp2264
S'0xbae45L'
p2265
aS'0xbae5bL'
p2266
asg6
Nsg83
(lp2267
S'0xbae8fL'
p2268
aS'0xbaf90L'
p2269
asg86
Nsg87
Nsg88
S'4bd811c3234307f4471497a1cd279377'
p2270
sg90
S'40ff5e415b260fdd0043553984f88124'
p2271
sg92
(lp2272
g2204
ag2211
ag2218
ag2225
ag2232
ag2239
ag2246
ag2253
asg94
Nsba(ibclass
BBasicBlock
p2273
(dp2274
g12
Nsg13
(lp2275
(ibclass
BInstr
p2276
(dp2277
g2
Nsg17
S'mov     rax, [rbp+ctxt]'
p2278
sg19
S'488b45e8'
p2279
sg21
Vmov rax, qword ptr [rbp - 0x18]
p2280
sg5
L765583L
sg6
Nsg23
S'mov'
p2281
sg25
S'0xbae8fL'
p2282
sg27
Nsba(ibclass
BInstr
p2283
(dp2284
g2
Nsg17
S'mov     rdx, [rax]'
p2285
sg19
S'488b10'
p2286
sg21
Vmov rdx, qword ptr [rax]
p2287
sg5
L765587L
sg6
Nsg23
S'mov'
p2288
sg25
S'0xbae93L'
p2289
sg27
Nsba(ibclass
BInstr
p2290
(dp2291
g2
Nsg17
S'mov     eax, [rbp+len]'
p2292
sg19
S'8b45f4'
p2293
sg21
Vmov eax, dword ptr [rbp - 0xc]
p2294
sg5
L765590L
sg6
Nsg23
S'mov'
p2295
sg25
S'0xbae96L'
p2296
sg27
Nsba(ibclass
BInstr
p2297
(dp2298
g2
Nsg17
S'cdqe'
p2299
sg19
S'4898'
p2300
sg21
Vcdqe 
p2301
sg5
L765593L
sg6
Nsg23
S'cdqe'
p2302
sg25
S'0xbae99L'
p2303
sg27
Nsba(ibclass
BInstr
p2304
(dp2305
g2
Nsg17
S'add     rax, rdx'
p2306
sg19
S'4801d0'
p2307
sg21
Vadd rax, rdx
p2308
sg5
L765595L
sg6
Nsg23
S'add'
p2309
sg25
S'0xbae9bL'
p2310
sg27
Nsba(ibclass
BInstr
p2311
(dp2312
g2
Nsg17
S'movzx   eax, byte ptr [rax]'
p2313
sg19
S'0fb600'
p2314
sg21
Vmovzx eax, byte ptr [rax]
p2315
sg5
L765598L
sg6
Nsg23
S'movzx'
p2316
sg25
S'0xbae9eL'
p2317
sg27
Nsba(ibclass
BInstr
p2318
(dp2319
g2
Nsg17
S'cmp     al, 3Ah'
p2320
sg19
S'3c3a'
p2321
sg21
Vcmp al, 0x3a
p2322
sg5
L765601L
sg6
Nsg23
S'cmp'
p2323
sg25
S'0xbaea1L'
p2324
sg27
Nsba(ibclass
BInstr
p2325
(dp2326
g2
Nsg17
S'jnz     short loc_BAEB1'
p2327
sg19
S'750c'
p2328
sg21
Vjne 0xe
p2329
sg5
L765603L
sg6
Nsg23
S'jnz'
p2330
sg25
S'0xbaea3L'
p2331
sg27
Nsbasg70
(lp2332
S'mov reg, mem'
p2333
aS'mov reg, mem'
p2334
aS'mov reg, mem'
p2335
ag2299
aS'add reg, reg'
p2336
aS'movzx reg, mem'
p2337
aS'cmp reg, 3Ah'
p2338
aS'jnz func'
p2339
asg79
Nsg5
S'0xbae8fL'
p2340
sg81
(lp2341
S'0xbae75L'
p2342
asg6
Nsg83
(lp2343
S'0xbaea5L'
p2344
aS'0xbaeb1L'
p2345
asg86
Nsg87
Nsg88
S'583be51c7a3e73ec92cd6989bd7db142'
p2346
sg90
S'6c471e448513cff7c1454ae928145147'
p2347
sg92
(lp2348
g2281
ag2288
ag2295
ag2302
ag2309
ag2316
ag2323
ag2330
asg94
Nsba(ibclass
BBasicBlock
p2349
(dp2350
g12
Nsg13
(lp2351
(ibclass
BInstr
p2352
(dp2353
g2
Nsg17
S'mov     [rbp+lc], 1'
p2354
sg19
S'c745f001000000'
p2355
sg21
Vmov dword ptr [rbp - 0x10], 1
p2356
sg5
L765605L
sg6
Nsg23
S'mov'
p2357
sg25
S'0xbaea5L'
p2358
sg27
Nsba(ibclass
BInstr
p2359
(dp2360
g2
Nsg17
S'jmp     loc_BAFAE'
p2361
sg19
S'e9fd000000'
p2362
sg21
Vjmp 0x102
p2363
sg5
L765612L
sg6
Nsg23
S'jmp'
p2364
sg25
S'0xbaeacL'
p2365
sg27
Nsbasg70
(lp2366
S'mov mem, 1'
p2367
aS'jmp func'
p2368
asg79
Nsg5
S'0xbaea5L'
p2369
sg81
(lp2370
S'0xbae8fL'
p2371
asg6
Nsg83
(lp2372
S'0xbafaeL'
p2373
asg86
Nsg87
Nsg88
S'8b9a0d40e062be2b9b2d9885108fb196'
p2374
sg90
S'c92b685d486c26d8ce7407e64af431cb'
p2375
sg92
(lp2376
g2357
ag2364
asg94
Nsba(ibclass
BBasicBlock
p2377
(dp2378
g12
Nsg13
(lp2379
(ibclass
BInstr
p2380
(dp2381
g2
Nsg17
S'mov     rax, [rbp+ctxt]'
p2382
sg19
S'488b45e8'
p2383
sg21
Vmov rax, qword ptr [rbp - 0x18]
p2384
sg5
L765617L
sg6
Nsg23
S'mov'
p2385
sg25
S'0xbaeb1L'
p2386
sg27
Nsba(ibclass
BInstr
p2387
(dp2388
g2
Nsg17
S'mov     rdx, [rax]'
p2389
sg19
S'488b10'
p2390
sg21
Vmov rdx, qword ptr [rax]
p2391
sg5
L765621L
sg6
Nsg23
S'mov'
p2392
sg25
S'0xbaeb5L'
p2393
sg27
Nsba(ibclass
BInstr
p2394
(dp2395
g2
Nsg17
S'mov     eax, [rbp+len]'
p2396
sg19
S'8b45f4'
p2397
sg21
Vmov eax, dword ptr [rbp - 0xc]
p2398
sg5
L765624L
sg6
Nsg23
S'mov'
p2399
sg25
S'0xbaeb8L'
p2400
sg27
Nsba(ibclass
BInstr
p2401
(dp2402
g2
Nsg17
S'cdqe'
p2403
sg19
S'4898'
p2404
sg21
Vcdqe 
p2405
sg5
L765627L
sg6
Nsg23
S'cdqe'
p2406
sg25
S'0xbaebbL'
p2407
sg27
Nsba(ibclass
BInstr
p2408
(dp2409
g2
Nsg17
S'add     rax, rdx'
p2410
sg19
S'4801d0'
p2411
sg21
Vadd rax, rdx
p2412
sg5
L765629L
sg6
Nsg23
S'add'
p2413
sg25
S'0xbaebdL'
p2414
sg27
Nsba(ibclass
BInstr
p2415
(dp2416
g2
Nsg17
S'movzx   eax, byte ptr [rax]'
p2417
sg19
S'0fb600'
p2418
sg21
Vmovzx eax, byte ptr [rax]
p2419
sg5
L765632L
sg6
Nsg23
S'movzx'
p2420
sg25
S'0xbaec0L'
p2421
sg27
Nsba(ibclass
BInstr
p2422
(dp2423
g2
Nsg17
S'cmp     al, 28h'
p2424
sg19
S'3c28'
p2425
sg21
Vcmp al, 0x28
p2426
sg5
L765635L
sg6
Nsg23
S'cmp'
p2427
sg25
S'0xbaec3L'
p2428
sg27
Nsba(ibclass
BInstr
p2429
(dp2430
g2
Nsg17
S'jnz     short loc_BAF1D'
p2431
sg19
S'7556'
p2432
sg21
Vjne 0x58
p2433
sg5
L765637L
sg6
Nsg23
S'jnz'
p2434
sg25
S'0xbaec5L'
p2435
sg27
Nsbasg70
(lp2436
S'mov reg, mem'
p2437
aS'mov reg, mem'
p2438
aS'mov reg, mem'
p2439
ag2403
aS'add reg, reg'
p2440
aS'movzx reg, mem'
p2441
aS'cmp reg, 28h'
p2442
aS'jnz func'
p2443
asg79
Nsg5
S'0xbaeb1L'
p2444
sg81
(lp2445
S'0xbae8fL'
p2446
asg6
Nsg83
(lp2447
S'0xbaec7L'
p2448
aS'0xbaf1dL'
p2449
asg86
Nsg87
Nsg88
S'583be51c7a3e73ec92cd6989bd7db142'
p2450
sg90
S'6b921b4eb9f79b00180eda5cfe30f4d6'
p2451
sg92
(lp2452
g2385
ag2392
ag2399
ag2406
ag2413
ag2420
ag2427
ag2434
asg94
Nsba(ibclass
BBasicBlock
p2453
(dp2454
g12
Nsg13
(lp2455
(ibclass
BInstr
p2456
(dp2457
g2
Nsg17
S'mov     rax, [rbp+name]'
p2458
sg19
S'488b45f8'
p2459
sg21
Vmov rax, qword ptr [rbp - 8]
p2460
sg5
L765639L
sg6
Nsg23
S'mov'
p2461
sg25
S'0xbaec7L'
p2462
sg27
Nsba(ibclass
BInstr
p2463
(dp2464
g2
Nsg17
S'mov     rdi, rax        ; name'
p2465
sg19
S'4889c7'
p2466
sg21
Vmov rdi, rax
p2467
sg5
L765643L
sg6
Nsg23
S'mov'
p2468
sg25
S'0xbaecbL'
p2469
sg27
Nsba(ibclass
BInstr
p2470
(dp2471
g2
Nsg17
S'call    xmlXPathIsNodeType__internal_alias'
p2472
sg19
S'e850f1ffff'
p2473
sg21
Vcall 0xfffffffffffff155
p2474
sg5
L765646L
sg6
Nsg23
S'call'
p2475
sg25
S'0xbaeceL'
p2476
sg27
Nsba(ibclass
BInstr
p2477
(dp2478
g2
Nsg17
S'test    eax, eax'
p2479
sg19
S'85c0'
p2480
sg21
Vtest eax, eax
p2481
sg5
L765651L
sg6
Nsg23
S'test'
p2482
sg25
S'0xbaed3L'
p2483
sg27
Nsba(ibclass
BInstr
p2484
(dp2485
g2
Nsg17
S'jz      short loc_BAEE3'
p2486
sg19
S'740c'
p2487
sg21
Vje 0xe
p2488
sg5
L765653L
sg6
Nsg23
S'jz'
p2489
sg25
S'0xbaed5L'
p2490
sg27
Nsbasg70
(lp2491
S'mov reg, mem'
p2492
aS'mov reg, reg'
p2493
aS'cregl xmlXPathIsNodeType__internreg_regias'
p2494
aS'test reg, reg'
p2495
aS'jz func'
p2496
asg79
Nsg5
S'0xbaec7L'
p2497
sg81
(lp2498
S'0xbaeb1L'
p2499
asg6
Nsg83
(lp2500
S'0xbaed7L'
p2501
aS'0xbaee3L'
p2502
asg86
Nsg87
Nsg88
S'02ca3b916c34d2b70763d67bd6e0c41e'
p2503
sg90
S'fbe3136a81aad7d055bc218222e0f6cc'
p2504
sg92
(lp2505
g2461
ag2468
ag2475
ag2482
ag2489
asg94
Nsba(ibclass
BBasicBlock
p2506
(dp2507
g12
Nsg13
(lp2508
(ibclass
BInstr
p2509
(dp2510
g2
Nsg17
S'mov     [rbp+lc], 1'
p2511
sg19
S'c745f001000000'
p2512
sg21
Vmov dword ptr [rbp - 0x10], 1
p2513
sg5
L765655L
sg6
Nsg23
S'mov'
p2514
sg25
S'0xbaed7L'
p2515
sg27
Nsba(ibclass
BInstr
p2516
(dp2517
g2
Nsg17
S'jmp     loc_BAFAE'
p2518
sg19
S'e9cb000000'
p2519
sg21
Vjmp 0xd0
p2520
sg5
L765662L
sg6
Nsg23
S'jmp'
p2521
sg25
S'0xbaedeL'
p2522
sg27
Nsbasg70
(lp2523
S'mov mem, 1'
p2524
aS'jmp func'
p2525
asg79
Nsg5
S'0xbaed7L'
p2526
sg81
(lp2527
S'0xbaec7L'
p2528
asg6
Nsg83
(lp2529
S'0xbafaeL'
p2530
asg86
Nsg87
Nsg88
S'8b9a0d40e062be2b9b2d9885108fb196'
p2531
sg90
S'c92b685d486c26d8ce7407e64af431cb'
p2532
sg92
(lp2533
g2514
ag2521
asg94
Nsba(ibclass
BBasicBlock
p2534
(dp2535
g12
Nsg13
(lp2536
(ibclass
BInstr
p2537
(dp2538
g2
Nsg17
S'mov     rax, [rbp+ctxt]'
p2539
sg19
S'488b45e8'
p2540
sg21
Vmov rax, qword ptr [rbp - 0x18]
p2541
sg5
L765667L
sg6
Nsg23
S'mov'
p2542
sg25
S'0xbaee3L'
p2543
sg27
Nsba(ibclass
BInstr
p2544
(dp2545
g2
Nsg17
S'mov     eax, [rax+40h]'
p2546
sg19
S'8b4040'
p2547
sg21
Vmov eax, dword ptr [rax + 0x40]
p2548
sg5
L765671L
sg6
Nsg23
S'mov'
p2549
sg25
S'0xbaee7L'
p2550
sg27
Nsba(ibclass
BInstr
p2551
(dp2552
g2
Nsg17
S'test    eax, eax'
p2553
sg19
S'85c0'
p2554
sg21
Vtest eax, eax
p2555
sg5
L765674L
sg6
Nsg23
S'test'
p2556
sg25
S'0xbaeeaL'
p2557
sg27
Nsba(ibclass
BInstr
p2558
(dp2559
g2
Nsg17
S'jz      short loc_BAF11'
p2560
sg19
S'7423'
p2561
sg21
Vje 0x25
p2562
sg5
L765676L
sg6
Nsg23
S'jz'
p2563
sg25
S'0xbaeecL'
p2564
sg27
Nsbasg70
(lp2565
S'mov reg, mem'
p2566
aS'mov reg, mem'
p2567
aS'test reg, reg'
p2568
aS'jz func'
p2569
asg79
Nsg5
S'0xbaee3L'
p2570
sg81
(lp2571
S'0xbaec7L'
p2572
asg6
Nsg83
(lp2573
S'0xbaeeeL'
p2574
aS'0xbaf11L'
p2575
asg86
Nsg87
Nsg88
S'ea5d08c7dcc07640d42787f826218f11'
p2576
sg90
S'd54ee3a5cadc8316bc0dafeaa7f6c7f9'
p2577
sg92
(lp2578
g2542
ag2549
ag2556
ag2563
asg94
Nsba(ibclass
BBasicBlock
p2579
(dp2580
g12
Nsg13
(lp2581
(ibclass
BInstr
p2582
(dp2583
g2
Nsg17
S'mov     rax, [rbp+name]'
p2584
sg19
S'488b45f8'
p2585
sg21
Vmov rax, qword ptr [rbp - 8]
p2586
sg5
L765678L
sg6
Nsg23
S'mov'
p2587
sg25
S'0xbaeeeL'
p2588
sg27
Nsba(ibclass
BInstr
p2589
(dp2590
g2
Nsg17
S'lea     rsi, aRangeTo   ; "range-to"'
p2591
sg19
S'488d3599970c00'
p2592
sg21
Vlea rsi, [rip + 0xc9799]
p2593
sg5
L765682L
sg6
Nsg23
S'lea'
p2594
sg25
S'0xbaef2L'
p2595
sg27
Nsba(ibclass
BInstr
p2596
(dp2597
g2
Nsg17
S'mov     rdi, rax        ; str1'
p2598
sg19
S'4889c7'
p2599
sg21
Vmov rdi, rax
p2600
sg5
L765689L
sg6
Nsg23
S'mov'
p2601
sg25
S'0xbaef9L'
p2602
sg27
Nsba(ibclass
BInstr
p2603
(dp2604
g2
Nsg17
S'call    xmlStrEqual__internal_alias'
p2605
sg19
S'e8d87e0200'
p2606
sg21
Vcall 0x27edd
p2607
sg5
L765692L
sg6
Nsg23
S'call'
p2608
sg25
S'0xbaefcL'
p2609
sg27
Nsba(ibclass
BInstr
p2610
(dp2611
g2
Nsg17
S'test    eax, eax'
p2612
sg19
S'85c0'
p2613
sg21
Vtest eax, eax
p2614
sg5
L765697L
sg6
Nsg23
S'test'
p2615
sg25
S'0xbaf01L'
p2616
sg27
Nsba(ibclass
BInstr
p2617
(dp2618
g2
Nsg17
S'jz      short loc_BAF11'
p2619
sg19
S'740c'
p2620
sg21
Vje 0xe
p2621
sg5
L765699L
sg6
Nsg23
S'jz'
p2622
sg25
S'0xbaf03L'
p2623
sg27
Nsbasg70
(lp2624
S'mov reg, mem'
p2625
aS'lea reg, aRangeTo'
p2626
aS'mov reg, reg'
p2627
aS'cregl xmlStrEqureg__internreg_regias'
p2628
aS'test reg, reg'
p2629
aS'jz func'
p2630
asg79
Nsg5
S'0xbaeeeL'
p2631
sg81
(lp2632
S'0xbaee3L'
p2633
asg6
Nsg83
(lp2634
S'0xbaf05L'
p2635
aS'0xbaf11L'
p2636
asg86
Nsg87
Nsg88
S'ad83afdc7d96ef5a98d08b38cf202ca1'
p2637
sg90
S'7b9c0446a24cdea52fc61122e0d94176'
p2638
sg92
(lp2639
g2587
ag2594
ag2601
ag2608
ag2615
ag2622
asg94
Nsba(ibclass
BBasicBlock
p2640
(dp2641
g12
Nsg13
(lp2642
(ibclass
BInstr
p2643
(dp2644
g2
Nsg17
S'mov     [rbp+lc], 1'
p2645
sg19
S'c745f001000000'
p2646
sg21
Vmov dword ptr [rbp - 0x10], 1
p2647
sg5
L765701L
sg6
Nsg23
S'mov'
p2648
sg25
S'0xbaf05L'
p2649
sg27
Nsba(ibclass
BInstr
p2650
(dp2651
g2
Nsg17
S'jmp     loc_BAFAE'
p2652
sg19
S'e99d000000'
p2653
sg21
Vjmp 0xa2
p2654
sg5
L765708L
sg6
Nsg23
S'jmp'
p2655
sg25
S'0xbaf0cL'
p2656
sg27
Nsbasg70
(lp2657
S'mov mem, 1'
p2658
aS'jmp func'
p2659
asg79
Nsg5
S'0xbaf05L'
p2660
sg81
(lp2661
S'0xbaeeeL'
p2662
asg6
Nsg83
(lp2663
S'0xbafaeL'
p2664
asg86
Nsg87
Nsg88
S'8b9a0d40e062be2b9b2d9885108fb196'
p2665
sg90
S'c92b685d486c26d8ce7407e64af431cb'
p2666
sg92
(lp2667
g2648
ag2655
asg94
Nsba(ibclass
BBasicBlock
p2668
(dp2669
g12
Nsg13
(lp2670
(ibclass
BInstr
p2671
(dp2672
g2
Nsg17
S'mov     [rbp+lc], 0'
p2673
sg19
S'c745f000000000'
p2674
sg21
Vmov dword ptr [rbp - 0x10], 0
p2675
sg5
L765713L
sg6
Nsg23
S'mov'
p2676
sg25
S'0xbaf11L'
p2677
sg27
Nsba(ibclass
BInstr
p2678
(dp2679
g2
Nsg17
S'jmp     loc_BAFAE'
p2680
sg19
S'e991000000'
p2681
sg21
Vjmp 0x96
p2682
sg5
L765720L
sg6
Nsg23
S'jmp'
p2683
sg25
S'0xbaf18L'
p2684
sg27
Nsbasg70
(lp2685
S'mov mem, 0'
p2686
aS'jmp func'
p2687
asg79
Nsg5
S'0xbaf11L'
p2688
sg81
(lp2689
S'0xbaee3L'
p2690
aS'0xbaeeeL'
p2691
asg6
Nsg83
(lp2692
S'0xbafaeL'
p2693
asg86
Nsg87
Nsg88
S'8b9a0d40e062be2b9b2d9885108fb196'
p2694
sg90
S'7cf882b8c6f2a7fee5b65dbb6327183a'
p2695
sg92
(lp2696
g2676
ag2683
asg94
Nsba(ibclass
BBasicBlock
p2697
(dp2698
g12
Nsg13
(lp2699
(ibclass
BInstr
p2700
(dp2701
g2
Nsg17
S'mov     rax, [rbp+ctxt]'
p2702
sg19
S'488b45e8'
p2703
sg21
Vmov rax, qword ptr [rbp - 0x18]
p2704
sg5
L765725L
sg6
Nsg23
S'mov'
p2705
sg25
S'0xbaf1dL'
p2706
sg27
Nsba(ibclass
BInstr
p2707
(dp2708
g2
Nsg17
S'mov     rdx, [rax]'
p2709
sg19
S'488b10'
p2710
sg21
Vmov rdx, qword ptr [rax]
p2711
sg5
L765729L
sg6
Nsg23
S'mov'
p2712
sg25
S'0xbaf21L'
p2713
sg27
Nsba(ibclass
BInstr
p2714
(dp2715
g2
Nsg17
S'mov     eax, [rbp+len]'
p2716
sg19
S'8b45f4'
p2717
sg21
Vmov eax, dword ptr [rbp - 0xc]
p2718
sg5
L765732L
sg6
Nsg23
S'mov'
p2719
sg25
S'0xbaf24L'
p2720
sg27
Nsba(ibclass
BInstr
p2721
(dp2722
g2
Nsg17
S'cdqe'
p2723
sg19
S'4898'
p2724
sg21
Vcdqe 
p2725
sg5
L765735L
sg6
Nsg23
S'cdqe'
p2726
sg25
S'0xbaf27L'
p2727
sg27
Nsba(ibclass
BInstr
p2728
(dp2729
g2
Nsg17
S'add     rax, rdx'
p2730
sg19
S'4801d0'
p2731
sg21
Vadd rax, rdx
p2732
sg5
L765737L
sg6
Nsg23
S'add'
p2733
sg25
S'0xbaf29L'
p2734
sg27
Nsba(ibclass
BInstr
p2735
(dp2736
g2
Nsg17
S'movzx   eax, byte ptr [rax]'
p2737
sg19
S'0fb600'
p2738
sg21
Vmovzx eax, byte ptr [rax]
p2739
sg5
L765740L
sg6
Nsg23
S'movzx'
p2740
sg25
S'0xbaf2cL'
p2741
sg27
Nsba(ibclass
BInstr
p2742
(dp2743
g2
Nsg17
S'cmp     al, 5Bh'
p2744
sg19
S'3c5b'
p2745
sg21
Vcmp al, 0x5b
p2746
sg5
L765743L
sg6
Nsg23
S'cmp'
p2747
sg25
S'0xbaf2fL'
p2748
sg27
Nsba(ibclass
BInstr
p2749
(dp2750
g2
Nsg17
S'jnz     short loc_BAF3C'
p2751
sg19
S'7509'
p2752
sg21
Vjne 0xb
p2753
sg5
L765745L
sg6
Nsg23
S'jnz'
p2754
sg25
S'0xbaf31L'
p2755
sg27
Nsbasg70
(lp2756
S'mov reg, mem'
p2757
aS'mov reg, mem'
p2758
aS'mov reg, mem'
p2759
ag2723
aS'add reg, reg'
p2760
aS'movzx reg, mem'
p2761
aS'cmp reg, 5Bh'
p2762
aS'jnz func'
p2763
asg79
Nsg5
S'0xbaf1dL'
p2764
sg81
(lp2765
S'0xbaeb1L'
p2766
asg6
Nsg83
(lp2767
S'0xbaf33L'
p2768
aS'0xbaf3cL'
p2769
asg86
Nsg87
Nsg88
S'583be51c7a3e73ec92cd6989bd7db142'
p2770
sg90
S'9d24c87a6c0cb4042bfafdd4c43fa9f2'
p2771
sg92
(lp2772
g2705
ag2712
ag2719
ag2726
ag2733
ag2740
ag2747
ag2754
asg94
Nsba(ibclass
BBasicBlock
p2773
(dp2774
g12
Nsg13
(lp2775
(ibclass
BInstr
p2776
(dp2777
g2
Nsg17
S'mov     [rbp+lc], 1'
p2778
sg19
S'c745f001000000'
p2779
sg21
Vmov dword ptr [rbp - 0x10], 1
p2780
sg5
L765747L
sg6
Nsg23
S'mov'
p2781
sg25
S'0xbaf33L'
p2782
sg27
Nsba(ibclass
BInstr
p2783
(dp2784
g2
Nsg17
S'jmp     short loc_BAFAE'
p2785
sg19
S'eb72'
p2786
sg21
Vjmp 0x74
p2787
sg5
L765754L
sg6
Nsg23
S'jmp'
p2788
sg25
S'0xbaf3aL'
p2789
sg27
Nsbasg70
(lp2790
S'mov mem, 1'
p2791
aS'jmp func'
p2792
asg79
Nsg5
S'0xbaf33L'
p2793
sg81
(lp2794
S'0xbaf1dL'
p2795
asg6
Nsg83
(lp2796
S'0xbafaeL'
p2797
asg86
Nsg87
Nsg88
S'8b9a0d40e062be2b9b2d9885108fb196'
p2798
sg90
S'c92b685d486c26d8ce7407e64af431cb'
p2799
sg92
(lp2800
g2781
ag2788
asg94
Nsba(ibclass
BBasicBlock
p2801
(dp2802
g12
Nsg13
(lp2803
(ibclass
BInstr
p2804
(dp2805
g2
Nsg17
S'mov     rax, [rbp+ctxt]'
p2806
sg19
S'488b45e8'
p2807
sg21
Vmov rax, qword ptr [rbp - 0x18]
p2808
sg5
L765756L
sg6
Nsg23
S'mov'
p2809
sg25
S'0xbaf3cL'
p2810
sg27
Nsba(ibclass
BInstr
p2811
(dp2812
g2
Nsg17
S'mov     rdx, [rax]'
p2813
sg19
S'488b10'
p2814
sg21
Vmov rdx, qword ptr [rax]
p2815
sg5
L765760L
sg6
Nsg23
S'mov'
p2816
sg25
S'0xbaf40L'
p2817
sg27
Nsba(ibclass
BInstr
p2818
(dp2819
g2
Nsg17
S'mov     eax, [rbp+len]'
p2820
sg19
S'8b45f4'
p2821
sg21
Vmov eax, dword ptr [rbp - 0xc]
p2822
sg5
L765763L
sg6
Nsg23
S'mov'
p2823
sg25
S'0xbaf43L'
p2824
sg27
Nsba(ibclass
BInstr
p2825
(dp2826
g2
Nsg17
S'cdqe'
p2827
sg19
S'4898'
p2828
sg21
Vcdqe 
p2829
sg5
L765766L
sg6
Nsg23
S'cdqe'
p2830
sg25
S'0xbaf46L'
p2831
sg27
Nsba(ibclass
BInstr
p2832
(dp2833
g2
Nsg17
S'add     rax, rdx'
p2834
sg19
S'4801d0'
p2835
sg21
Vadd rax, rdx
p2836
sg5
L765768L
sg6
Nsg23
S'add'
p2837
sg25
S'0xbaf48L'
p2838
sg27
Nsba(ibclass
BInstr
p2839
(dp2840
g2
Nsg17
S'movzx   eax, byte ptr [rax]'
p2841
sg19
S'0fb600'
p2842
sg21
Vmovzx eax, byte ptr [rax]
p2843
sg5
L765771L
sg6
Nsg23
S'movzx'
p2844
sg25
S'0xbaf4bL'
p2845
sg27
Nsba(ibclass
BInstr
p2846
(dp2847
g2
Nsg17
S'cmp     al, 3Ch'
p2848
sg19
S'3c3c'
p2849
sg21
Vcmp al, 0x3c
p2850
sg5
L765774L
sg6
Nsg23
S'cmp'
p2851
sg25
S'0xbaf4eL'
p2852
sg27
Nsba(ibclass
BInstr
p2853
(dp2854
g2
Nsg17
S'jz      short loc_BAF7E'
p2855
sg19
S'742c'
p2856
sg21
Vje 0x2e
p2857
sg5
L765776L
sg6
Nsg23
S'jz'
p2858
sg25
S'0xbaf50L'
p2859
sg27
Nsbasg70
(lp2860
S'mov reg, mem'
p2861
aS'mov reg, mem'
p2862
aS'mov reg, mem'
p2863
ag2827
aS'add reg, reg'
p2864
aS'movzx reg, mem'
p2865
aS'cmp reg, 3Ch'
p2866
aS'jz func'
p2867
asg79
Nsg5
S'0xbaf3cL'
p2868
sg81
(lp2869
S'0xbaf1dL'
p2870
asg6
Nsg83
(lp2871
S'0xbaf52L'
p2872
aS'0xbaf7eL'
p2873
asg86
Nsg87
Nsg88
S'4bd811c3234307f4471497a1cd279377'
p2874
sg90
S'14ad3006902c7fffc176e0554c644d09'
p2875
sg92
(lp2876
g2809
ag2816
ag2823
ag2830
ag2837
ag2844
ag2851
ag2858
asg94
Nsba(ibclass
BBasicBlock
p2877
(dp2878
g12
Nsg13
(lp2879
(ibclass
BInstr
p2880
(dp2881
g2
Nsg17
S'mov     rax, [rbp+ctxt]'
p2882
sg19
S'488b45e8'
p2883
sg21
Vmov rax, qword ptr [rbp - 0x18]
p2884
sg5
L765778L
sg6
Nsg23
S'mov'
p2885
sg25
S'0xbaf52L'
p2886
sg27
Nsba(ibclass
BInstr
p2887
(dp2888
g2
Nsg17
S'mov     rdx, [rax]'
p2889
sg19
S'488b10'
p2890
sg21
Vmov rdx, qword ptr [rax]
p2891
sg5
L765782L
sg6
Nsg23
S'mov'
p2892
sg25
S'0xbaf56L'
p2893
sg27
Nsba(ibclass
BInstr
p2894
(dp2895
g2
Nsg17
S'mov     eax, [rbp+len]'
p2896
sg19
S'8b45f4'
p2897
sg21
Vmov eax, dword ptr [rbp - 0xc]
p2898
sg5
L765785L
sg6
Nsg23
S'mov'
p2899
sg25
S'0xbaf59L'
p2900
sg27
Nsba(ibclass
BInstr
p2901
(dp2902
g2
Nsg17
S'cdqe'
p2903
sg19
S'4898'
p2904
sg21
Vcdqe 
p2905
sg5
L765788L
sg6
Nsg23
S'cdqe'
p2906
sg25
S'0xbaf5cL'
p2907
sg27
Nsba(ibclass
BInstr
p2908
(dp2909
g2
Nsg17
S'add     rax, rdx'
p2910
sg19
S'4801d0'
p2911
sg21
Vadd rax, rdx
p2912
sg5
L765790L
sg6
Nsg23
S'add'
p2913
sg25
S'0xbaf5eL'
p2914
sg27
Nsba(ibclass
BInstr
p2915
(dp2916
g2
Nsg17
S'movzx   eax, byte ptr [rax]'
p2917
sg19
S'0fb600'
p2918
sg21
Vmovzx eax, byte ptr [rax]
p2919
sg5
L765793L
sg6
Nsg23
S'movzx'
p2920
sg25
S'0xbaf61L'
p2921
sg27
Nsba(ibclass
BInstr
p2922
(dp2923
g2
Nsg17
S'cmp     al, 3Eh'
p2924
sg19
S'3c3e'
p2925
sg21
Vcmp al, 0x3e
p2926
sg5
L765796L
sg6
Nsg23
S'cmp'
p2927
sg25
S'0xbaf64L'
p2928
sg27
Nsba(ibclass
BInstr
p2929
(dp2930
g2
Nsg17
S'jz      short loc_BAF7E'
p2931
sg19
S'7416'
p2932
sg21
Vje 0x18
p2933
sg5
L765798L
sg6
Nsg23
S'jz'
p2934
sg25
S'0xbaf66L'
p2935
sg27
Nsbasg70
(lp2936
S'mov reg, mem'
p2937
aS'mov reg, mem'
p2938
aS'mov reg, mem'
p2939
ag2903
aS'add reg, reg'
p2940
aS'movzx reg, mem'
p2941
aS'cmp reg, 3Eh'
p2942
aS'jz func'
p2943
asg79
Nsg5
S'0xbaf52L'
p2944
sg81
(lp2945
S'0xbaf3cL'
p2946
asg6
Nsg83
(lp2947
S'0xbaf68L'
p2948
aS'0xbaf7eL'
p2949
asg86
Nsg87
Nsg88
S'4bd811c3234307f4471497a1cd279377'
p2950
sg90
S'8344c1875076c9870b64b83c2d41f26b'
p2951
sg92
(lp2952
g2885
ag2892
ag2899
ag2906
ag2913
ag2920
ag2927
ag2934
asg94
Nsba(ibclass
BBasicBlock
p2953
(dp2954
g12
Nsg13
(lp2955
(ibclass
BInstr
p2956
(dp2957
g2
Nsg17
S'mov     rax, [rbp+ctxt]'
p2958
sg19
S'488b45e8'
p2959
sg21
Vmov rax, qword ptr [rbp - 0x18]
p2960
sg5
L765800L
sg6
Nsg23
S'mov'
p2961
sg25
S'0xbaf68L'
p2962
sg27
Nsba(ibclass
BInstr
p2963
(dp2964
g2
Nsg17
S'mov     rdx, [rax]'
p2965
sg19
S'488b10'
p2966
sg21
Vmov rdx, qword ptr [rax]
p2967
sg5
L765804L
sg6
Nsg23
S'mov'
p2968
sg25
S'0xbaf6cL'
p2969
sg27
Nsba(ibclass
BInstr
p2970
(dp2971
g2
Nsg17
S'mov     eax, [rbp+len]'
p2972
sg19
S'8b45f4'
p2973
sg21
Vmov eax, dword ptr [rbp - 0xc]
p2974
sg5
L765807L
sg6
Nsg23
S'mov'
p2975
sg25
S'0xbaf6fL'
p2976
sg27
Nsba(ibclass
BInstr
p2977
(dp2978
g2
Nsg17
S'cdqe'
p2979
sg19
S'4898'
p2980
sg21
Vcdqe 
p2981
sg5
L765810L
sg6
Nsg23
S'cdqe'
p2982
sg25
S'0xbaf72L'
p2983
sg27
Nsba(ibclass
BInstr
p2984
(dp2985
g2
Nsg17
S'add     rax, rdx'
p2986
sg19
S'4801d0'
p2987
sg21
Vadd rax, rdx
p2988
sg5
L765812L
sg6
Nsg23
S'add'
p2989
sg25
S'0xbaf74L'
p2990
sg27
Nsba(ibclass
BInstr
p2991
(dp2992
g2
Nsg17
S'movzx   eax, byte ptr [rax]'
p2993
sg19
S'0fb600'
p2994
sg21
Vmovzx eax, byte ptr [rax]
p2995
sg5
L765815L
sg6
Nsg23
S'movzx'
p2996
sg25
S'0xbaf77L'
p2997
sg27
Nsba(ibclass
BInstr
p2998
(dp2999
g2
Nsg17
S'cmp     al, 3Dh'
p3000
sg19
S'3c3d'
p3001
sg21
Vcmp al, 0x3d
p3002
sg5
L765818L
sg6
Nsg23
S'cmp'
p3003
sg25
S'0xbaf7aL'
p3004
sg27
Nsba(ibclass
BInstr
p3005
(dp3006
g2
Nsg17
S'jnz     short loc_BAF87'
p3007
sg19
S'7509'
p3008
sg21
Vjne 0xb
p3009
sg5
L765820L
sg6
Nsg23
S'jnz'
p3010
sg25
S'0xbaf7cL'
p3011
sg27
Nsbasg70
(lp3012
S'mov reg, mem'
p3013
aS'mov reg, mem'
p3014
aS'mov reg, mem'
p3015
ag2979
aS'add reg, reg'
p3016
aS'movzx reg, mem'
p3017
aS'cmp reg, 3Dh'
p3018
aS'jnz func'
p3019
asg79
Nsg5
S'0xbaf68L'
p3020
sg81
(lp3021
S'0xbaf52L'
p3022
asg6
Nsg83
(lp3023
S'0xbaf7eL'
p3024
aS'0xbaf87L'
p3025
asg86
Nsg87
Nsg88
S'583be51c7a3e73ec92cd6989bd7db142'
p3026
sg90
S'983728817ceaf50a66bb64ee67639260'
p3027
sg92
(lp3028
g2961
ag2968
ag2975
ag2982
ag2989
ag2996
ag3003
ag3010
asg94
Nsba(ibclass
BBasicBlock
p3029
(dp3030
g12
Nsg13
(lp3031
(ibclass
BInstr
p3032
(dp3033
g2
Nsg17
S'mov     [rbp+lc], 1'
p3034
sg19
S'c745f001000000'
p3035
sg21
Vmov dword ptr [rbp - 0x10], 1
p3036
sg5
L765822L
sg6
Nsg23
S'mov'
p3037
sg25
S'0xbaf7eL'
p3038
sg27
Nsba(ibclass
BInstr
p3039
(dp3040
g2
Nsg17
S'jmp     short loc_BAFAE'
p3041
sg19
S'eb27'
p3042
sg21
Vjmp 0x29
p3043
sg5
L765829L
sg6
Nsg23
S'jmp'
p3044
sg25
S'0xbaf85L'
p3045
sg27
Nsbasg70
(lp3046
S'mov mem, 1'
p3047
aS'jmp func'
p3048
asg79
Nsg5
S'0xbaf7eL'
p3049
sg81
(lp3050
S'0xbaf3cL'
p3051
aS'0xbaf52L'
p3052
aS'0xbaf68L'
p3053
asg6
Nsg83
(lp3054
S'0xbafaeL'
p3055
asg86
Nsg87
Nsg88
S'8b9a0d40e062be2b9b2d9885108fb196'
p3056
sg90
S'c92b685d486c26d8ce7407e64af431cb'
p3057
sg92
(lp3058
g3037
ag3044
asg94
Nsba(ibclass
BBasicBlock
p3059
(dp3060
g12
Nsg13
(lp3061
(ibclass
BInstr
p3062
(dp3063
g2
Nsg17
S'mov     [rbp+lc], 1'
p3064
sg19
S'c745f001000000'
p3065
sg21
Vmov dword ptr [rbp - 0x10], 1
p3066
sg5
L765831L
sg6
Nsg23
S'mov'
p3067
sg25
S'0xbaf87L'
p3068
sg27
Nsba(ibclass
BInstr
p3069
(dp3070
g2
Nsg17
S'jmp     short loc_BAFAE'
p3071
sg19
S'eb1e'
p3072
sg21
Vjmp 0x20
p3073
sg5
L765838L
sg6
Nsg23
S'jmp'
p3074
sg25
S'0xbaf8eL'
p3075
sg27
Nsbasg70
(lp3076
S'mov mem, 1'
p3077
aS'jmp func'
p3078
asg79
Nsg5
S'0xbaf87L'
p3079
sg81
(lp3080
S'0xbaf68L'
p3081
asg6
Nsg83
(lp3082
S'0xbafaeL'
p3083
asg86
Nsg87
Nsg88
S'8b9a0d40e062be2b9b2d9885108fb196'
p3084
sg90
S'c92b685d486c26d8ce7407e64af431cb'
p3085
sg92
(lp3086
g3067
ag3074
asg94
Nsba(ibclass
BBasicBlock
p3087
(dp3088
g12
Nsg13
(lp3089
(ibclass
BInstr
p3090
(dp3091
g2
Nsg17
S'add     [rbp+len], 1'
p3092
sg19
S'8345f401'
p3093
sg21
Vadd dword ptr [rbp - 0xc], 1
p3094
sg5
L765840L
sg6
Nsg23
S'add'
p3095
sg25
S'0xbaf90L'
p3096
sg27
Nsbasg70
(lp3097
S'add mem, 1'
p3098
asg79
Nsg5
S'0xbaf90L'
p3099
sg81
(lp3100
S'0xbae2bL'
p3101
aS'0xbae5bL'
p3102
aS'0xbae75L'
p3103
asg6
Nsg83
(lp3104
S'0xbaf94L'
p3105
asg86
Nsg87
Nsg88
S'34ec78fcc91ffb1e54cd85e4a0924332'
p3106
sg90
S'a96bc17fab599ee98a3ba3552917a0a2'
p3107
sg92
(lp3108
g3095
asg94
Nsba(ibclass
BBasicBlock
p3109
(dp3110
g12
Nsg13
(lp3111
(ibclass
BInstr
p3112
(dp3113
g2
Nsg17
S'mov     rax, [rbp+ctxt]'
p3114
sg19
S'488b45e8'
p3115
sg21
Vmov rax, qword ptr [rbp - 0x18]
p3116
sg5
L765844L
sg6
Nsg23
S'mov'
p3117
sg25
S'0xbaf94L'
p3118
sg27
Nsba(ibclass
BInstr
p3119
(dp3120
g2
Nsg17
S'mov     rdx, [rax]'
p3121
sg19
S'488b10'
p3122
sg21
Vmov rdx, qword ptr [rax]
p3123
sg5
L765848L
sg6
Nsg23
S'mov'
p3124
sg25
S'0xbaf98L'
p3125
sg27
Nsba(ibclass
BInstr
p3126
(dp3127
g2
Nsg17
S'mov     eax, [rbp+len]'
p3128
sg19
S'8b45f4'
p3129
sg21
Vmov eax, dword ptr [rbp - 0xc]
p3130
sg5
L765851L
sg6
Nsg23
S'mov'
p3131
sg25
S'0xbaf9bL'
p3132
sg27
Nsba(ibclass
BInstr
p3133
(dp3134
g2
Nsg17
S'cdqe'
p3135
sg19
S'4898'
p3136
sg21
Vcdqe 
p3137
sg5
L765854L
sg6
Nsg23
S'cdqe'
p3138
sg25
S'0xbaf9eL'
p3139
sg27
Nsba(ibclass
BInstr
p3140
(dp3141
g2
Nsg17
S'add     rax, rdx'
p3142
sg19
S'4801d0'
p3143
sg21
Vadd rax, rdx
p3144
sg5
L765856L
sg6
Nsg23
S'add'
p3145
sg25
S'0xbafa0L'
p3146
sg27
Nsba(ibclass
BInstr
p3147
(dp3148
g2
Nsg17
S'movzx   eax, byte ptr [rax]'
p3149
sg19
S'0fb600'
p3150
sg21
Vmovzx eax, byte ptr [rax]
p3151
sg5
L765859L
sg6
Nsg23
S'movzx'
p3152
sg25
S'0xbafa3L'
p3153
sg27
Nsba(ibclass
BInstr
p3154
(dp3155
g2
Nsg17
S'test    al, al'
p3156
sg19
S'84c0'
p3157
sg21
Vtest al, al
p3158
sg5
L765862L
sg6
Nsg23
S'test'
p3159
sg25
S'0xbafa6L'
p3160
sg27
Nsba(ibclass
BInstr
p3161
(dp3162
g2
Nsg17
S'jnz     loc_BAE09'
p3163
sg19
S'0f855bfeffff'
p3164
sg21
Vjne 0xfffffffffffffe61
p3165
sg5
L765864L
sg6
Nsg23
S'jnz'
p3166
sg25
S'0xbafa8L'
p3167
sg27
Nsbasg70
(lp3168
S'mov reg, mem'
p3169
aS'mov reg, mem'
p3170
aS'mov reg, mem'
p3171
ag3135
aS'add reg, reg'
p3172
aS'movzx reg, mem'
p3173
aS'test reg, reg'
p3174
aS'jnz func'
p3175
asg79
Nsg5
S'0xbaf94L'
p3176
sg81
(lp3177
S'0xbadf5L'
p3178
aS'0xbaf90L'
p3179
asg6
Nsg83
(lp3180
S'0xbae09L'
p3181
aS'0xbafaeL'
p3182
asg86
Nsg87
Nsg88
S'093b97c4d418be971900b917d66f3e07'
p3183
sg90
S'0ab44b1dc3ab2cbd3770e40d2849312d'
p3184
sg92
(lp3185
g3117
ag3124
ag3131
ag3138
ag3145
ag3152
ag3159
ag3166
asg94
Nsba(ibclass
BBasicBlock
p3186
(dp3187
g12
Nsg13
(lp3188
(ibclass
BInstr
p3189
(dp3190
g2
Nsg17
S'mov     rax, [rbp+ctxt]'
p3191
sg19
S'488b45e8'
p3192
sg21
Vmov rax, qword ptr [rbp - 0x18]
p3193
sg5
L765870L
sg6
Nsg23
S'mov'
p3194
sg25
S'0xbafaeL'
p3195
sg27
Nsba(ibclass
BInstr
p3196
(dp3197
g2
Nsg17
S'mov     rdx, [rax]'
p3198
sg19
S'488b10'
p3199
sg21
Vmov rdx, qword ptr [rax]
p3200
sg5
L765874L
sg6
Nsg23
S'mov'
p3201
sg25
S'0xbafb2L'
p3202
sg27
Nsba(ibclass
BInstr
p3203
(dp3204
g2
Nsg17
S'mov     eax, [rbp+len]'
p3205
sg19
S'8b45f4'
p3206
sg21
Vmov eax, dword ptr [rbp - 0xc]
p3207
sg5
L765877L
sg6
Nsg23
S'mov'
p3208
sg25
S'0xbafb5L'
p3209
sg27
Nsba(ibclass
BInstr
p3210
(dp3211
g2
Nsg17
S'cdqe'
p3212
sg19
S'4898'
p3213
sg21
Vcdqe 
p3214
sg5
L765880L
sg6
Nsg23
S'cdqe'
p3215
sg25
S'0xbafb8L'
p3216
sg27
Nsba(ibclass
BInstr
p3217
(dp3218
g2
Nsg17
S'add     rax, rdx'
p3219
sg19
S'4801d0'
p3220
sg21
Vadd rax, rdx
p3221
sg5
L765882L
sg6
Nsg23
S'add'
p3222
sg25
S'0xbafbaL'
p3223
sg27
Nsba(ibclass
BInstr
p3224
(dp3225
g2
Nsg17
S'movzx   eax, byte ptr [rax]'
p3226
sg19
S'0fb600'
p3227
sg21
Vmovzx eax, byte ptr [rax]
p3228
sg5
L765885L
sg6
Nsg23
S'movzx'
p3229
sg25
S'0xbafbdL'
p3230
sg27
Nsba(ibclass
BInstr
p3231
(dp3232
g2
Nsg17
S'test    al, al'
p3233
sg19
S'84c0'
p3234
sg21
Vtest al, al
p3235
sg5
L765888L
sg6
Nsg23
S'test'
p3236
sg25
S'0xbafc0L'
p3237
sg27
Nsba(ibclass
BInstr
p3238
(dp3239
g2
Nsg17
S'jnz     short loc_BAFCB'
p3240
sg19
S'7507'
p3241
sg21
Vjne 9
p3242
sg5
L765890L
sg6
Nsg23
S'jnz'
p3243
sg25
S'0xbafc2L'
p3244
sg27
Nsbasg70
(lp3245
S'mov reg, mem'
p3246
aS'mov reg, mem'
p3247
aS'mov reg, mem'
p3248
ag3212
aS'add reg, reg'
p3249
aS'movzx reg, mem'
p3250
aS'test reg, reg'
p3251
aS'jnz func'
p3252
asg79
Nsg5
S'0xbafaeL'
p3253
sg81
(lp3254
S'0xbae1fL'
p3255
aS'0xbaea5L'
p3256
aS'0xbaed7L'
p3257
aS'0xbaf05L'
p3258
aS'0xbaf11L'
p3259
aS'0xbaf33L'
p3260
aS'0xbaf7eL'
p3261
aS'0xbaf87L'
p3262
aS'0xbaf94L'
p3263
asg6
Nsg83
(lp3264
S'0xbafc4L'
p3265
aS'0xbafcbL'
p3266
asg86
Nsg87
Nsg88
S'093b97c4d418be971900b917d66f3e07'
p3267
sg90
S'0ab44b1dc3ab2cbd3770e40d2849312d'
p3268
sg92
(lp3269
g3194
ag3201
ag3208
ag3215
ag3222
ag3229
ag3236
ag3243
asg94
Nsba(ibclass
BBasicBlock
p3270
(dp3271
g12
Nsg13
(lp3272
(ibclass
BInstr
p3273
(dp3274
g2
Nsg17
S'mov     [rbp+lc], 1'
p3275
sg19
S'c745f001000000'
p3276
sg21
Vmov dword ptr [rbp - 0x10], 1
p3277
sg5
L765892L
sg6
Nsg23
S'mov'
p3278
sg25
S'0xbafc4L'
p3279
sg27
Nsbasg70
(lp3280
S'mov mem, 1'
p3281
asg79
Nsg5
S'0xbafc4L'
p3282
sg81
(lp3283
S'0xbafaeL'
p3284
asg6
Nsg83
(lp3285
S'0xbafcbL'
p3286
asg86
Nsg87
Nsg88
S'96a4a0e6e9ac88756a0fcba989d0a844'
p3287
sg90
S'a73a0656263a7f36d05ccf97729fa60b'
p3288
sg92
(lp3289
g3278
asg94
Nsba(ibclass
BBasicBlock
p3290
(dp3291
g12
Nsg13
(lp3292
(ibclass
BInstr
p3293
(dp3294
g2
Nsg17
S'mov     rax, cs:xmlFree_ptr'
p3295
sg19
S'488b052e3f3000'
p3296
sg21
Vmov rax, qword ptr [rip + 0x303f2e]
p3297
sg5
L765899L
sg6
Nsg23
S'mov'
p3298
sg25
S'0xbafcbL'
p3299
sg27
Nsba(ibclass
BInstr
p3300
(dp3301
g2
Nsg17
S'mov     rax, [rax]'
p3302
sg19
S'488b00'
p3303
sg21
Vmov rax, qword ptr [rax]
p3304
sg5
L765906L
sg6
Nsg23
S'mov'
p3305
sg25
S'0xbafd2L'
p3306
sg27
Nsba(ibclass
BInstr
p3307
(dp3308
g2
Nsg17
S'mov     rdx, [rbp+name]'
p3309
sg19
S'488b55f8'
p3310
sg21
Vmov rdx, qword ptr [rbp - 8]
p3311
sg5
L765909L
sg6
Nsg23
S'mov'
p3312
sg25
S'0xbafd5L'
p3313
sg27
Nsba(ibclass
BInstr
p3314
(dp3315
g2
Nsg17
S'mov     rdi, rdx'
p3316
sg19
S'4889d7'
p3317
sg21
Vmov rdi, rdx
p3318
sg5
L765913L
sg6
Nsg23
S'mov'
p3319
sg25
S'0xbafd9L'
p3320
sg27
Nsba(ibclass
BInstr
p3321
(dp3322
g2
Nsg17
S'call    rax'
p3323
sg19
S'ffd0'
p3324
sg21
Vcall rax
p3325
sg5
L765916L
sg6
Nsg23
S'call'
p3326
sg25
S'0xbafdcL'
p3327
sg27
Nsba(ibclass
BInstr
p3328
(dp3329
g2
Nsg17
S'jmp     short loc_BAFF6'
p3330
sg19
S'eb16'
p3331
sg21
Vjmp 0x18
p3332
sg5
L765918L
sg6
Nsg23
S'jmp'
p3333
sg25
S'0xbafdeL'
p3334
sg27
Nsbasg70
(lp3335
S'mov reg, cs:xmlFree_ptr'
p3336
aS'mov reg, mem'
p3337
aS'mov reg, mem'
p3338
aS'mov reg, reg'
p3339
aS'cregl reg'
p3340
aS'jmp func'
p3341
asg79
Nsg5
S'0xbafcbL'
p3342
sg81
(lp3343
S'0xbafaeL'
p3344
aS'0xbafc4L'
p3345
asg6
Nsg83
(lp3346
S'0xbaff6L'
p3347
asg86
Nsg87
Nsg88
S'ed0c14dac95c7bafb483aad1c36140be'
p3348
sg90
S'85e389715741c36c9628f4e8f80a9dbf'
p3349
sg92
(lp3350
g3298
ag3305
ag3312
ag3319
ag3326
ag3333
asg94
Nsba(ibclass
BBasicBlock
p3351
(dp3352
g12
Nsg13
(lp3353
(ibclass
BInstr
p3354
(dp3355
g2
Nsg17
S'mov     rax, [rbp+ctxt]'
p3356
sg19
S'488b45e8'
p3357
sg21
Vmov rax, qword ptr [rbp - 0x18]
p3358
sg5
L765920L
sg6
Nsg23
S'mov'
p3359
sg25
S'0xbafe0L'
p3360
sg27
Nsba(ibclass
BInstr
p3361
(dp3362
g2
Nsg17
S'mov     esi, 7          ; error'
p3363
sg19
S'be07000000'
p3364
sg21
Vmov esi, 7
p3365
sg5
L765924L
sg6
Nsg23
S'mov'
p3366
sg25
S'0xbafe4L'
p3367
sg27
Nsba(ibclass
BInstr
p3368
(dp3369
g2
Nsg17
S'mov     rdi, rax        ; ctxt'
p3370
sg19
S'4889c7'
p3371
sg21
Vmov rdi, rax
p3372
sg5
L765929L
sg6
Nsg23
S'mov'
p3373
sg25
S'0xbafe9L'
p3374
sg27
Nsba(ibclass
BInstr
p3375
(dp3376
g2
Nsg17
S'call    xmlXPathErr__internal_alias'
p3377
sg19
S'e875d0feff'
p3378
sg21
Vcall 0xfffffffffffed07a
p3379
sg5
L765932L
sg6
Nsg23
S'call'
p3380
sg25
S'0xbafecL'
p3381
sg27
Nsba(ibclass
BInstr
p3382
(dp3383
g2
Nsg17
S'jmp     locret_BB245'
p3384
sg19
S'e94f020000'
p3385
sg21
Vjmp 0x254
p3386
sg5
L765937L
sg6
Nsg23
S'jmp'
p3387
sg25
S'0xbaff1L'
p3388
sg27
Nsbasg70
(lp3389
S'mov reg, mem'
p3390
aS'mov reg, 7'
p3391
aS'mov reg, reg'
p3392
aS'cregl xmlXPathErr__internreg_regias'
p3393
aS'jmp func'
p3394
asg79
Nsg5
S'0xbafe0L'
p3395
sg81
(lp3396
S'0xbadeaL'
p3397
asg6
Nsg83
(lp3398
S'0xbb245L'
p3399
asg86
Nsg87
Nsg88
S'6f3807c74301beb43ea1fccba52da6b2'
p3400
sg90
S'224e7a7490903cdf07f7f37faf84ebb6'
p3401
sg92
(lp3402
g3359
ag3366
ag3373
ag3380
ag3387
asg94
Nsba(ibclass
BBasicBlock
p3403
(dp3404
g12
Nsg13
(lp3405
(ibclass
BInstr
p3406
(dp3407
g2
Nsg17
S'cmp     [rbp+lc], 0'
p3408
sg19
S'837df000'
p3409
sg21
Vcmp dword ptr [rbp - 0x10], 0
p3410
sg5
L765942L
sg6
Nsg23
S'cmp'
p3411
sg25
S'0xbaff6L'
p3412
sg27
Nsba(ibclass
BInstr
p3413
(dp3414
g2
Nsg17
S'jz      loc_BB093'
p3415
sg19
S'0f8493000000'
p3416
sg21
Vje 0x99
p3417
sg5
L765946L
sg6
Nsg23
S'jz'
p3418
sg25
S'0xbaffaL'
p3419
sg27
Nsbasg70
(lp3420
S'cmp mem, 0'
p3421
aS'jz func'
p3422
asg79
Nsg5
S'0xbaff6L'
p3423
sg81
(lp3424
S'0xbacd0L'
p3425
aS'0xbaceaL'
p3426
aS'0xbad04L'
p3427
aS'0xbad1eL'
p3428
aS'0xbad38L'
p3429
aS'0xbadcbL'
p3430
aS'0xbafcbL'
p3431
asg6
Nsg83
(lp3432
S'0xbb000L'
p3433
aS'0xbb093L'
p3434
asg86
Nsg87
Nsg88
S'613dbc2b0cb9d6264d802b24d709daea'
p3435
sg90
S'7f4ecf78254be39f53e7a11cedd080e9'
p3436
sg92
(lp3437
g3411
ag3418
asg94
Nsba(ibclass
BBasicBlock
p3438
(dp3439
g12
Nsg13
(lp3440
(ibclass
BInstr
p3441
(dp3442
g2
Nsg17
S'mov     rax, [rbp+ctxt]'
p3443
sg19
S'488b45e8'
p3444
sg21
Vmov rax, qword ptr [rbp - 0x18]
p3445
sg5
L765952L
sg6
Nsg23
S'mov'
p3446
sg25
S'0xbb000L'
p3447
sg27
Nsba(ibclass
BInstr
p3448
(dp3449
g2
Nsg17
S'mov     rax, [rax]'
p3450
sg19
S'488b00'
p3451
sg21
Vmov rax, qword ptr [rax]
p3452
sg5
L765956L
sg6
Nsg23
S'mov'
p3453
sg25
S'0xbb004L'
p3454
sg27
Nsba(ibclass
BInstr
p3455
(dp3456
g2
Nsg17
S'movzx   eax, byte ptr [rax]'
p3457
sg19
S'0fb600'
p3458
sg21
Vmovzx eax, byte ptr [rax]
p3459
sg5
L765959L
sg6
Nsg23
S'movzx'
p3460
sg25
S'0xbb007L'
p3461
sg27
Nsba(ibclass
BInstr
p3462
(dp3463
g2
Nsg17
S'cmp     al, 2Fh'
p3464
sg19
S'3c2f'
p3465
sg21
Vcmp al, 0x2f
p3466
sg5
L765962L
sg6
Nsg23
S'cmp'
p3467
sg25
S'0xbb00aL'
p3468
sg27
Nsba(ibclass
BInstr
p3469
(dp3470
g2
Nsg17
S'jnz     short loc_BB049'
p3471
sg19
S'753b'
p3472
sg21
Vjne 0x3d
p3473
sg5
L765964L
sg6
Nsg23
S'jnz'
p3474
sg25
S'0xbb00cL'
p3475
sg27
Nsbasg70
(lp3476
S'mov reg, mem'
p3477
aS'mov reg, mem'
p3478
aS'movzx reg, mem'
p3479
aS'cmp reg, 2Fh'
p3480
aS'jnz func'
p3481
asg79
Nsg5
S'0xbb000L'
p3482
sg81
(lp3483
S'0xbaff6L'
p3484
asg6
Nsg83
(lp3485
S'0xbb00eL'
p3486
aS'0xbb049L'
p3487
asg86
Nsg87
Nsg88
S'fee82e05e3ad0c992b7c2259c6fe4074'
p3488
sg90
S'5c0555a57ad1e7dca5ffddac02f028ce'
p3489
sg92
(lp3490
g3446
ag3453
ag3460
ag3467
ag3474
asg94
Nsba(ibclass
BBasicBlock
p3491
(dp3492
g12
Nsg13
(lp3493
(ibclass
BInstr
p3494
(dp3495
g2
Nsg17
S'mov     rax, [rbp+ctxt]'
p3496
sg19
S'488b45e8'
p3497
sg21
Vmov rax, qword ptr [rbp - 0x18]
p3498
sg5
L765966L
sg6
Nsg23
S'mov'
p3499
sg25
S'0xbb00eL'
p3500
sg27
Nsba(ibclass
BInstr
p3501
(dp3502
g2
Nsg17
S'mov     rax, [rax+38h]'
p3503
sg19
S'488b4038'
p3504
sg21
Vmov rax, qword ptr [rax + 0x38]
p3505
sg5
L765970L
sg6
Nsg23
S'mov'
p3506
sg25
S'0xbb012L'
p3507
sg27
Nsba(ibclass
BInstr
p3508
(dp3509
g2
Nsg17
S'sub     rsp, 8'
p3510
sg19
S'4883ec08'
p3511
sg21
Vsub rsp, 8
p3512
sg5
L765974L
sg6
Nsg23
S'sub'
p3513
sg25
S'0xbb016L'
p3514
sg27
Nsba(ibclass
BInstr
p3515
(dp3516
g2
Nsg17
S'push    0               ; value5'
p3517
sg19
S'6a00'
p3518
sg21
Vpush 0
p3519
sg5
L765978L
sg6
Nsg23
S'push'
p3520
sg25
S'0xbb01aL'
p3521
sg27
Nsba(ibclass
BInstr
p3522
(dp3523
g2
Nsg17
S'push    0               ; value4'
p3524
sg19
S'6a00'
p3525
sg21
Vpush 0
p3526
sg5
L765980L
sg6
Nsg23
S'push'
p3527
sg25
S'0xbb01cL'
p3528
sg27
Nsba(ibclass
BInstr
p3529
(dp3530
g2
Nsg17
S'push    0               ; value3'
p3531
sg19
S'6a00'
p3532
sg21
Vpush 0
p3533
sg5
L765982L
sg6
Nsg23
S'push'
p3534
sg25
S'0xbb01eL'
p3535
sg27
Nsba(ibclass
BInstr
p3536
(dp3537
g2
Nsg17
S'mov     r9d, 0          ; value2'
p3538
sg19
S'41b900000000'
p3539
sg21
Vmov r9d, 0
p3540
sg5
L765984L
sg6
Nsg23
S'mov'
p3541
sg25
S'0xbb020L'
p3542
sg27
Nsba(ibclass
BInstr
p3543
(dp3544
g2
Nsg17
S'mov     r8d, 0          ; value'
p3545
sg19
S'41b800000000'
p3546
sg21
Vmov r8d, 0
p3547
sg5
L765990L
sg6
Nsg23
S'mov'
p3548
sg25
S'0xbb026L'
p3549
sg27
Nsba(ibclass
BInstr
p3550
(dp3551
g2
Nsg17
S'mov     ecx, 8          ; op'
p3552
sg19
S'b908000000'
p3553
sg21
Vmov ecx, 8
p3554
sg5
L765996L
sg6
Nsg23
S'mov'
p3555
sg25
S'0xbb02cL'
p3556
sg27
Nsba(ibclass
BInstr
p3557
(dp3558
g2
Nsg17
S'mov     edx, 0FFFFFFFFh ; ch2'
p3559
sg19
S'baffffffff'
p3560
sg21
Vmov edx, 0xffffffff
p3561
sg5
L766001L
sg6
Nsg23
S'mov'
p3562
sg25
S'0xbb031L'
p3563
sg27
Nsba(ibclass
BInstr
p3564
(dp3565
g2
Nsg17
S'mov     esi, 0FFFFFFFFh ; ch1'
p3566
sg19
S'beffffffff'
p3567
sg21
Vmov esi, 0xffffffff
p3568
sg5
L766006L
sg6
Nsg23
S'mov'
p3569
sg25
S'0xbb036L'
p3570
sg27
Nsba(ibclass
BInstr
p3571
(dp3572
g2
Nsg17
S'mov     rdi, rax        ; comp'
p3573
sg19
S'4889c7'
p3574
sg21
Vmov rdi, rax
p3575
sg5
L766011L
sg6
Nsg23
S'mov'
p3576
sg25
S'0xbb03bL'
p3577
sg27
Nsba(ibclass
BInstr
p3578
(dp3579
g2
Nsg17
S'call    xmlXPathCompExprAdd'
p3580
sg19
S'e8f8d7feff'
p3581
sg21
Vcall 0xfffffffffffed7fd
p3582
sg5
L766014L
sg6
Nsg23
S'call'
p3583
sg25
S'0xbb03eL'
p3584
sg27
Nsba(ibclass
BInstr
p3585
(dp3586
g2
Nsg17
S'add     rsp, 20h'
p3587
sg19
S'4883c420'
p3588
sg21
Vadd rsp, 0x20
p3589
sg5
L766019L
sg6
Nsg23
S'add'
p3590
sg25
S'0xbb043L'
p3591
sg27
Nsba(ibclass
BInstr
p3592
(dp3593
g2
Nsg17
S'jmp     short loc_BB082'
p3594
sg19
S'eb39'
p3595
sg21
Vjmp 0x3b
p3596
sg5
L766023L
sg6
Nsg23
S'jmp'
p3597
sg25
S'0xbb047L'
p3598
sg27
Nsbasg70
(lp3599
S'mov reg, mem'
p3600
aS'mov reg, mem'
p3601
aS'sub reg, 8'
p3602
aS'push 0'
p3603
aS'push 0'
p3604
aS'push 0'
p3605
aS'mov regd, 0'
p3606
aS'mov regd, 0'
p3607
aS'mov reg, 8'
p3608
aS'mov reg, 0FFFFFFFFh'
p3609
aS'mov reg, 0FFFFFFFFh'
p3610
aS'mov reg, reg'
p3611
aS'cregl xmlXPathCompExprAdd'
p3612
aS'add reg, 20h'
p3613
aS'jmp func'
p3614
asg79
Nsg5
S'0xbb00eL'
p3615
sg81
(lp3616
S'0xbb000L'
p3617
asg6
Nsg83
(lp3618
S'0xbb082L'
p3619
asg86
Nsg87
Nsg88
S'efa3e613ad3e78c8025fb7cf477417bd'
p3620
sg90
S'e6e22357ced20256c3d94cdbe9206406'
p3621
sg92
(lp3622
g3499
ag3506
ag3513
ag3520
ag3527
ag3534
ag3541
ag3548
ag3555
ag3562
ag3569
ag3576
ag3583
ag3590
ag3597
asg94
Nsba(ibclass
BBasicBlock
p3623
(dp3624
g12
Nsg13
(lp3625
(ibclass
BInstr
p3626
(dp3627
g2
Nsg17
S'mov     rax, [rbp+ctxt]'
p3628
sg19
S'488b45e8'
p3629
sg21
Vmov rax, qword ptr [rbp - 0x18]
p3630
sg5
L766025L
sg6
Nsg23
S'mov'
p3631
sg25
S'0xbb049L'
p3632
sg27
Nsba(ibclass
BInstr
p3633
(dp3634
g2
Nsg17
S'mov     rax, [rax+38h]'
p3635
sg19
S'488b4038'
p3636
sg21
Vmov rax, qword ptr [rax + 0x38]
p3637
sg5
L766029L
sg6
Nsg23
S'mov'
p3638
sg25
S'0xbb04dL'
p3639
sg27
Nsba(ibclass
BInstr
p3640
(dp3641
g2
Nsg17
S'sub     rsp, 8'
p3642
sg19
S'4883ec08'
p3643
sg21
Vsub rsp, 8
p3644
sg5
L766033L
sg6
Nsg23
S'sub'
p3645
sg25
S'0xbb051L'
p3646
sg27
Nsba(ibclass
BInstr
p3647
(dp3648
g2
Nsg17
S'push    0               ; value5'
p3649
sg19
S'6a00'
p3650
sg21
Vpush 0
p3651
sg5
L766037L
sg6
Nsg23
S'push'
p3652
sg25
S'0xbb055L'
p3653
sg27
Nsba(ibclass
BInstr
p3654
(dp3655
g2
Nsg17
S'push    0               ; value4'
p3656
sg19
S'6a00'
p3657
sg21
Vpush 0
p3658
sg5
L766039L
sg6
Nsg23
S'push'
p3659
sg25
S'0xbb057L'
p3660
sg27
Nsba(ibclass
BInstr
p3661
(dp3662
g2
Nsg17
S'push    0               ; value3'
p3663
sg19
S'6a00'
p3664
sg21
Vpush 0
p3665
sg5
L766041L
sg6
Nsg23
S'push'
p3666
sg25
S'0xbb059L'
p3667
sg27
Nsba(ibclass
BInstr
p3668
(dp3669
g2
Nsg17
S'mov     r9d, 0          ; value2'
p3670
sg19
S'41b900000000'
p3671
sg21
Vmov r9d, 0
p3672
sg5
L766043L
sg6
Nsg23
S'mov'
p3673
sg25
S'0xbb05bL'
p3674
sg27
Nsba(ibclass
BInstr
p3675
(dp3676
g2
Nsg17
S'mov     r8d, 0          ; value'
p3677
sg19
S'41b800000000'
p3678
sg21
Vmov r8d, 0
p3679
sg5
L766049L
sg6
Nsg23
S'mov'
p3680
sg25
S'0xbb061L'
p3681
sg27
Nsba(ibclass
BInstr
p3682
(dp3683
g2
Nsg17
S'mov     ecx, 9          ; op'
p3684
sg19
S'b909000000'
p3685
sg21
Vmov ecx, 9
p3686
sg5
L766055L
sg6
Nsg23
S'mov'
p3687
sg25
S'0xbb067L'
p3688
sg27
Nsba(ibclass
BInstr
p3689
(dp3690
g2
Nsg17
S'mov     edx, 0FFFFFFFFh ; ch2'
p3691
sg19
S'baffffffff'
p3692
sg21
Vmov edx, 0xffffffff
p3693
sg5
L766060L
sg6
Nsg23
S'mov'
p3694
sg25
S'0xbb06cL'
p3695
sg27
Nsba(ibclass
BInstr
p3696
(dp3697
g2
Nsg17
S'mov     esi, 0FFFFFFFFh ; ch1'
p3698
sg19
S'beffffffff'
p3699
sg21
Vmov esi, 0xffffffff
p3700
sg5
L766065L
sg6
Nsg23
S'mov'
p3701
sg25
S'0xbb071L'
p3702
sg27
Nsba(ibclass
BInstr
p3703
(dp3704
g2
Nsg17
S'mov     rdi, rax        ; comp'
p3705
sg19
S'4889c7'
p3706
sg21
Vmov rdi, rax
p3707
sg5
L766070L
sg6
Nsg23
S'mov'
p3708
sg25
S'0xbb076L'
p3709
sg27
Nsba(ibclass
BInstr
p3710
(dp3711
g2
Nsg17
S'call    xmlXPathCompExprAdd'
p3712
sg19
S'e8bdd7feff'
p3713
sg21
Vcall 0xfffffffffffed7c2
p3714
sg5
L766073L
sg6
Nsg23
S'call'
p3715
sg25
S'0xbb079L'
p3716
sg27
Nsba(ibclass
BInstr
p3717
(dp3718
g2
Nsg17
S'add     rsp, 20h'
p3719
sg19
S'4883c420'
p3720
sg21
Vadd rsp, 0x20
p3721
sg5
L766078L
sg6
Nsg23
S'add'
p3722
sg25
S'0xbb07eL'
p3723
sg27
Nsbasg70
(lp3724
S'mov reg, mem'
p3725
aS'mov reg, mem'
p3726
aS'sub reg, 8'
p3727
aS'push 0'
p3728
aS'push 0'
p3729
aS'push 0'
p3730
aS'mov regd, 0'
p3731
aS'mov regd, 0'
p3732
aS'mov reg, 9'
p3733
aS'mov reg, 0FFFFFFFFh'
p3734
aS'mov reg, 0FFFFFFFFh'
p3735
aS'mov reg, reg'
p3736
aS'cregl xmlXPathCompExprAdd'
p3737
aS'add reg, 20h'
p3738
asg79
Nsg5
S'0xbb049L'
p3739
sg81
(lp3740
S'0xbb000L'
p3741
asg6
Nsg83
(lp3742
S'0xbb082L'
p3743
asg86
Nsg87
Nsg88
S'2595ed03b2c62c5e4cb4e3bac8224a18'
p3744
sg90
S'1a56c20dc689bae15e4a07d05da0e416'
p3745
sg92
(lp3746
g3631
ag3638
ag3645
ag3652
ag3659
ag3666
ag3673
ag3680
ag3687
ag3694
ag3701
ag3708
ag3715
ag3722
asg94
Nsba(ibclass
BBasicBlock
p3747
(dp3748
g12
Nsg13
(lp3749
(ibclass
BInstr
p3750
(dp3751
g2
Nsg17
S'mov     rax, [rbp+ctxt]'
p3752
sg19
S'488b45e8'
p3753
sg21
Vmov rax, qword ptr [rbp - 0x18]
p3754
sg5
L766082L
sg6
Nsg23
S'mov'
p3755
sg25
S'0xbb082L'
p3756
sg27
Nsba(ibclass
BInstr
p3757
(dp3758
g2
Nsg17
S'mov     rdi, rax        ; ctxt'
p3759
sg19
S'4889c7'
p3760
sg21
Vmov rdi, rax
p3761
sg5
L766086L
sg6
Nsg23
S'mov'
p3762
sg25
S'0xbb086L'
p3763
sg27
Nsba(ibclass
BInstr
p3764
(dp3765
g2
Nsg17
S'call    xmlXPathCompLocationPath'
p3766
sg19
S'e8eb280000'
p3767
sg21
Vcall 0x28f0
p3768
sg5
L766089L
sg6
Nsg23
S'call'
p3769
sg25
S'0xbb089L'
p3770
sg27
Nsba(ibclass
BInstr
p3771
(dp3772
g2
Nsg17
S'jmp     loc_BB20A'
p3773
sg19
S'e977010000'
p3774
sg21
Vjmp 0x17c
p3775
sg5
L766094L
sg6
Nsg23
S'jmp'
p3776
sg25
S'0xbb08eL'
p3777
sg27
Nsbasg70
(lp3778
S'mov reg, mem'
p3779
aS'mov reg, reg'
p3780
aS'cregl xmlXPathCompLocationPath'
p3781
aS'jmp func'
p3782
asg79
Nsg5
S'0xbb082L'
p3783
sg81
(lp3784
S'0xbb00eL'
p3785
aS'0xbb049L'
p3786
asg6
Nsg83
(lp3787
S'0xbb20aL'
p3788
asg86
Nsg87
Nsg88
S'21359965f3b3ac9d057fd4a2b03f927b'
p3789
sg90
S'57512df0e9e96658563316f623e4ac30'
p3790
sg92
(lp3791
g3755
ag3762
ag3769
ag3776
asg94
Nsba(ibclass
BBasicBlock
p3792
(dp3793
g12
Nsg13
(lp3794
(ibclass
BInstr
p3795
(dp3796
g2
Nsg17
S'mov     rax, [rbp+ctxt]'
p3797
sg19
S'488b45e8'
p3798
sg21
Vmov rax, qword ptr [rbp - 0x18]
p3799
sg5
L766099L
sg6
Nsg23
S'mov'
p3800
sg25
S'0xbb093L'
p3801
sg27
Nsba(ibclass
BInstr
p3802
(dp3803
g2
Nsg17
S'mov     rdi, rax        ; ctxt'
p3804
sg19
S'4889c7'
p3805
sg21
Vmov rdi, rax
p3806
sg5
L766103L
sg6
Nsg23
S'mov'
p3807
sg25
S'0xbb097L'
p3808
sg27
Nsba(ibclass
BInstr
p3809
(dp3810
g2
Nsg17
S'call    xmlXPathCompFilterExpr'
p3811
sg19
S'e8ddf6ffff'
p3812
sg21
Vcall 0xfffffffffffff6e2
p3813
sg5
L766106L
sg6
Nsg23
S'call'
p3814
sg25
S'0xbb09aL'
p3815
sg27
Nsba(ibclass
BInstr
p3816
(dp3817
g2
Nsg17
S'mov     rax, [rbp+ctxt]'
p3818
sg19
S'488b45e8'
p3819
sg21
Vmov rax, qword ptr [rbp - 0x18]
p3820
sg5
L766111L
sg6
Nsg23
S'mov'
p3821
sg25
S'0xbb09fL'
p3822
sg27
Nsba(ibclass
BInstr
p3823
(dp3824
g2
Nsg17
S'mov     eax, [rax+10h]'
p3825
sg19
S'8b4010'
p3826
sg21
Vmov eax, dword ptr [rax + 0x10]
p3827
sg5
L766115L
sg6
Nsg23
S'mov'
p3828
sg25
S'0xbb0a3L'
p3829
sg27
Nsba(ibclass
BInstr
p3830
(dp3831
g2
Nsg17
S'test    eax, eax'
p3832
sg19
S'85c0'
p3833
sg21
Vtest eax, eax
p3834
sg5
L766118L
sg6
Nsg23
S'test'
p3835
sg25
S'0xbb0a6L'
p3836
sg27
Nsba(ibclass
BInstr
p3837
(dp3838
g2
Nsg17
S'jnz     loc_BB244'
p3839
sg19
S'0f8596010000'
p3840
sg21
Vjne 0x19c
p3841
sg5
L766120L
sg6
Nsg23
S'jnz'
p3842
sg25
S'0xbb0a8L'
p3843
sg27
Nsbasg70
(lp3844
S'mov reg, mem'
p3845
aS'mov reg, reg'
p3846
aS'cregl xmlXPathCompFilterExpr'
p3847
aS'mov reg, mem'
p3848
aS'mov reg, mem'
p3849
aS'test reg, reg'
p3850
aS'jnz func'
p3851
asg79
Nsg5
S'0xbb093L'
p3852
sg81
(lp3853
S'0xbaff6L'
p3854
asg6
Nsg83
(lp3855
S'0xbb0aeL'
p3856
aS'0xbb244L'
p3857
asg86
Nsg87
Nsg88
S'9b1d0ecccbf0ded0ef8151e111e845fb'
p3858
sg90
S'6f457319cfa5e3c87a539105a6f263d2'
p3859
sg92
(lp3860
g3800
ag3807
ag3814
ag3821
ag3828
ag3835
ag3842
asg94
Nsba(ibclass
BBasicBlock
p3861
(dp3862
g12
Nsg13
(lp3863
(ibclass
BInstr
p3864
(dp3865
g2
Nsg17
S'mov     rax, [rbp+ctxt]'
p3866
sg19
S'488b45e8'
p3867
sg21
Vmov rax, qword ptr [rbp - 0x18]
p3868
sg5
L766126L
sg6
Nsg23
S'mov'
p3869
sg25
S'0xbb0aeL'
p3870
sg27
Nsba(ibclass
BInstr
p3871
(dp3872
g2
Nsg17
S'mov     rax, [rax]'
p3873
sg19
S'488b00'
p3874
sg21
Vmov rax, qword ptr [rax]
p3875
sg5
L766130L
sg6
Nsg23
S'mov'
p3876
sg25
S'0xbb0b2L'
p3877
sg27
Nsba(ibclass
BInstr
p3878
(dp3879
g2
Nsg17
S'movzx   eax, byte ptr [rax]'
p3880
sg19
S'0fb600'
p3881
sg21
Vmovzx eax, byte ptr [rax]
p3882
sg5
L766133L
sg6
Nsg23
S'movzx'
p3883
sg25
S'0xbb0b5L'
p3884
sg27
Nsba(ibclass
BInstr
p3885
(dp3886
g2
Nsg17
S'cmp     al, 2Fh'
p3887
sg19
S'3c2f'
p3888
sg21
Vcmp al, 0x2f
p3889
sg5
L766136L
sg6
Nsg23
S'cmp'
p3890
sg25
S'0xbb0b8L'
p3891
sg27
Nsba(ibclass
BInstr
p3892
(dp3893
g2
Nsg17
S'jnz     loc_BB1CE'
p3894
sg19
S'0f850e010000'
p3895
sg21
Vjne 0x114
p3896
sg5
L766138L
sg6
Nsg23
S'jnz'
p3897
sg25
S'0xbb0baL'
p3898
sg27
Nsbasg70
(lp3899
S'mov reg, mem'
p3900
aS'mov reg, mem'
p3901
aS'movzx reg, mem'
p3902
aS'cmp reg, 2Fh'
p3903
aS'jnz func'
p3904
asg79
Nsg5
S'0xbb0aeL'
p3905
sg81
(lp3906
S'0xbb093L'
p3907
asg6
Nsg83
(lp3908
S'0xbb0c0L'
p3909
aS'0xbb1ceL'
p3910
asg86
Nsg87
Nsg88
S'fee82e05e3ad0c992b7c2259c6fe4074'
p3911
sg90
S'5c0555a57ad1e7dca5ffddac02f028ce'
p3912
sg92
(lp3913
g3869
ag3876
ag3883
ag3890
ag3897
asg94
Nsba(ibclass
BBasicBlock
p3914
(dp3915
g12
Nsg13
(lp3916
(ibclass
BInstr
p3917
(dp3918
g2
Nsg17
S'mov     rax, [rbp+ctxt]'
p3919
sg19
S'488b45e8'
p3920
sg21
Vmov rax, qword ptr [rbp - 0x18]
p3921
sg5
L766144L
sg6
Nsg23
S'mov'
p3922
sg25
S'0xbb0c0L'
p3923
sg27
Nsba(ibclass
BInstr
p3924
(dp3925
g2
Nsg17
S'mov     rax, [rax]'
p3926
sg19
S'488b00'
p3927
sg21
Vmov rax, qword ptr [rax]
p3928
sg5
L766148L
sg6
Nsg23
S'mov'
p3929
sg25
S'0xbb0c4L'
p3930
sg27
Nsba(ibclass
BInstr
p3931
(dp3932
g2
Nsg17
S'add     rax, 1'
p3933
sg19
S'4883c001'
p3934
sg21
Vadd rax, 1
p3935
sg5
L766151L
sg6
Nsg23
S'add'
p3936
sg25
S'0xbb0c7L'
p3937
sg27
Nsba(ibclass
BInstr
p3938
(dp3939
g2
Nsg17
S'movzx   eax, byte ptr [rax]'
p3940
sg19
S'0fb600'
p3941
sg21
Vmovzx eax, byte ptr [rax]
p3942
sg5
L766155L
sg6
Nsg23
S'movzx'
p3943
sg25
S'0xbb0cbL'
p3944
sg27
Nsba(ibclass
BInstr
p3945
(dp3946
g2
Nsg17
S'cmp     al, 2Fh'
p3947
sg19
S'3c2f'
p3948
sg21
Vcmp al, 0x2f
p3949
sg5
L766158L
sg6
Nsg23
S'cmp'
p3950
sg25
S'0xbb0ceL'
p3951
sg27
Nsba(ibclass
BInstr
p3952
(dp3953
g2
Nsg17
S'jnz     loc_BB1CE'
p3954
sg19
S'0f85f8000000'
p3955
sg21
Vjne 0xfe
p3956
sg5
L766160L
sg6
Nsg23
S'jnz'
p3957
sg25
S'0xbb0d0L'
p3958
sg27
Nsbasg70
(lp3959
S'mov reg, mem'
p3960
aS'mov reg, mem'
p3961
aS'add reg, 1'
p3962
aS'movzx reg, mem'
p3963
aS'cmp reg, 2Fh'
p3964
aS'jnz func'
p3965
asg79
Nsg5
S'0xbb0c0L'
p3966
sg81
(lp3967
S'0xbb0aeL'
p3968
asg6
Nsg83
(lp3969
S'0xbb0d6L'
p3970
aS'0xbb1ceL'
p3971
asg86
Nsg87
Nsg88
S'fd2fff680b6d819f83d18d39e8c5c52f'
p3972
sg90
S'c36211f8731e558c859b44655fce25ff'
p3973
sg92
(lp3974
g3922
ag3929
ag3936
ag3943
ag3950
ag3957
asg94
Nsba(ibclass
BBasicBlock
p3975
(dp3976
g12
Nsg13
(lp3977
(ibclass
BInstr
p3978
(dp3979
g2
Nsg17
S'mov     rax, [rbp+ctxt]'
p3980
sg19
S'488b45e8'
p3981
sg21
Vmov rax, qword ptr [rbp - 0x18]
p3982
sg5
L766166L
sg6
Nsg23
S'mov'
p3983
sg25
S'0xbb0d6L'
p3984
sg27
Nsba(ibclass
BInstr
p3985
(dp3986
g2
Nsg17
S'mov     rax, [rax]'
p3987
sg19
S'488b00'
p3988
sg21
Vmov rax, qword ptr [rax]
p3989
sg5
L766170L
sg6
Nsg23
S'mov'
p3990
sg25
S'0xbb0daL'
p3991
sg27
Nsba(ibclass
BInstr
p3992
(dp3993
g2
Nsg17
S'lea     rdx, [rax+2]'
p3994
sg19
S'488d5002'
p3995
sg21
Vlea rdx, [rax + 2]
p3996
sg5
L766173L
sg6
Nsg23
S'lea'
p3997
sg25
S'0xbb0ddL'
p3998
sg27
Nsba(ibclass
BInstr
p3999
(dp4000
g2
Nsg17
S'mov     rax, [rbp+ctxt]'
p4001
sg19
S'488b45e8'
p4002
sg21
Vmov rax, qword ptr [rbp - 0x18]
p4003
sg5
L766177L
sg6
Nsg23
S'mov'
p4004
sg25
S'0xbb0e1L'
p4005
sg27
Nsba(ibclass
BInstr
p4006
(dp4007
g2
Nsg17
S'mov     [rax], rdx'
p4008
sg19
S'488910'
p4009
sg21
Vmov qword ptr [rax], rdx
p4010
sg5
L766181L
sg6
Nsg23
S'mov'
p4011
sg25
S'0xbb0e5L'
p4012
sg27
Nsba(ibclass
BInstr
p4013
(dp4014
g2
Nsg17
S'jmp     short loc_BB10A'
p4015
sg19
S'eb20'
p4016
sg21
Vjmp 0x22
p4017
sg5
L766184L
sg6
Nsg23
S'jmp'
p4018
sg25
S'0xbb0e8L'
p4019
sg27
Nsbasg70
(lp4020
S'mov reg, mem'
p4021
aS'mov reg, mem'
p4022
aS'lea reg, mem'
p4023
aS'mov reg, mem'
p4024
aS'mov mem, reg'
p4025
aS'jmp func'
p4026
asg79
Nsg5
S'0xbb0d6L'
p4027
sg81
(lp4028
S'0xbb0c0L'
p4029
asg6
Nsg83
(lp4030
S'0xbb10aL'
p4031
asg86
Nsg87
Nsg88
S'fa744d1f7e70171a30ee814bcc717fb7'
p4032
sg90
S'97ccbf10f1af694c553b16991964622f'
p4033
sg92
(lp4034
g3983
ag3990
ag3997
ag4004
ag4011
ag4018
asg94
Nsba(ibclass
BBasicBlock
p4035
(dp4036
g12
Nsg13
(lp4037
(ibclass
BInstr
p4038
(dp4039
g2
Nsg17
S'mov     rax, [rbp+ctxt]'
p4040
sg19
S'488b45e8'
p4041
sg21
Vmov rax, qword ptr [rbp - 0x18]
p4042
sg5
L766186L
sg6
Nsg23
S'mov'
p4043
sg25
S'0xbb0eaL'
p4044
sg27
Nsba(ibclass
BInstr
p4045
(dp4046
g2
Nsg17
S'mov     rax, [rax]'
p4047
sg19
S'488b00'
p4048
sg21
Vmov rax, qword ptr [rax]
p4049
sg5
L766190L
sg6
Nsg23
S'mov'
p4050
sg25
S'0xbb0eeL'
p4051
sg27
Nsba(ibclass
BInstr
p4052
(dp4053
g2
Nsg17
S'movzx   eax, byte ptr [rax]'
p4054
sg19
S'0fb600'
p4055
sg21
Vmovzx eax, byte ptr [rax]
p4056
sg5
L766193L
sg6
Nsg23
S'movzx'
p4057
sg25
S'0xbb0f1L'
p4058
sg27
Nsba(ibclass
BInstr
p4059
(dp4060
g2
Nsg17
S'test    al, al'
p4061
sg19
S'84c0'
p4062
sg21
Vtest al, al
p4063
sg5
L766196L
sg6
Nsg23
S'test'
p4064
sg25
S'0xbb0f4L'
p4065
sg27
Nsba(ibclass
BInstr
p4066
(dp4067
g2
Nsg17
S'jz      short loc_BB10A'
p4068
sg19
S'7412'
p4069
sg21
Vje 0x14
p4070
sg5
L766198L
sg6
Nsg23
S'jz'
p4071
sg25
S'0xbb0f6L'
p4072
sg27
Nsbasg70
(lp4073
S'mov reg, mem'
p4074
aS'mov reg, mem'
p4075
aS'movzx reg, mem'
p4076
aS'test reg, reg'
p4077
aS'jz func'
p4078
asg79
Nsg5
S'0xbb0eaL'
p4079
sg81
(lp4080
S'0xbb10aL'
p4081
aS'0xbb126L'
p4082
aS'0xbb134L'
p4083
asg6
Nsg83
(lp4084
S'0xbb0f8L'
p4085
aS'0xbb10aL'
p4086
asg86
Nsg87
Nsg88
S'791d110b6f72b28a0ed387504865cb08'
p4087
sg90
S'fd7febd4cca0ddb2ee8370dd2f349181'
p4088
sg92
(lp4089
g4043
ag4050
ag4057
ag4064
ag4071
asg94
Nsba(ibclass
BBasicBlock
p4090
(dp4091
g12
Nsg13
(lp4092
(ibclass
BInstr
p4093
(dp4094
g2
Nsg17
S'mov     rax, [rbp+ctxt]'
p4095
sg19
S'488b45e8'
p4096
sg21
Vmov rax, qword ptr [rbp - 0x18]
p4097
sg5
L766200L
sg6
Nsg23
S'mov'
p4098
sg25
S'0xbb0f8L'
p4099
sg27
Nsba(ibclass
BInstr
p4100
(dp4101
g2
Nsg17
S'mov     rax, [rax]'
p4102
sg19
S'488b00'
p4103
sg21
Vmov rax, qword ptr [rax]
p4104
sg5
L766204L
sg6
Nsg23
S'mov'
p4105
sg25
S'0xbb0fcL'
p4106
sg27
Nsba(ibclass
BInstr
p4107
(dp4108
g2
Nsg17
S'lea     rdx, [rax+1]'
p4109
sg19
S'488d5001'
p4110
sg21
Vlea rdx, [rax + 1]
p4111
sg5
L766207L
sg6
Nsg23
S'lea'
p4112
sg25
S'0xbb0ffL'
p4113
sg27
Nsba(ibclass
BInstr
p4114
(dp4115
g2
Nsg17
S'mov     rax, [rbp+ctxt]'
p4116
sg19
S'488b45e8'
p4117
sg21
Vmov rax, qword ptr [rbp - 0x18]
p4118
sg5
L766211L
sg6
Nsg23
S'mov'
p4119
sg25
S'0xbb103L'
p4120
sg27
Nsba(ibclass
BInstr
p4121
(dp4122
g2
Nsg17
S'mov     [rax], rdx'
p4123
sg19
S'488910'
p4124
sg21
Vmov qword ptr [rax], rdx
p4125
sg5
L766215L
sg6
Nsg23
S'mov'
p4126
sg25
S'0xbb107L'
p4127
sg27
Nsbasg70
(lp4128
S'mov reg, mem'
p4129
aS'mov reg, mem'
p4130
aS'lea reg, mem'
p4131
aS'mov reg, mem'
p4132
aS'mov mem, reg'
p4133
asg79
Nsg5
S'0xbb0f8L'
p4134
sg81
(lp4135
S'0xbb0eaL'
p4136
asg6
Nsg83
(lp4137
S'0xbb10aL'
p4138
asg86
Nsg87
Nsg88
S'72f4ffde030f180f82b3b840c2feb320'
p4139
sg90
S'a86dfa9db1a7ce39ea439444b161239c'
p4140
sg92
(lp4141
g4098
ag4105
ag4112
ag4119
ag4126
asg94
Nsba(ibclass
BBasicBlock
p4142
(dp4143
g12
Nsg13
(lp4144
(ibclass
BInstr
p4145
(dp4146
g2
Nsg17
S'mov     rax, [rbp+ctxt]'
p4147
sg19
S'488b45e8'
p4148
sg21
Vmov rax, qword ptr [rbp - 0x18]
p4149
sg5
L766218L
sg6
Nsg23
S'mov'
p4150
sg25
S'0xbb10aL'
p4151
sg27
Nsba(ibclass
BInstr
p4152
(dp4153
g2
Nsg17
S'mov     rax, [rax]'
p4154
sg19
S'488b00'
p4155
sg21
Vmov rax, qword ptr [rax]
p4156
sg5
L766222L
sg6
Nsg23
S'mov'
p4157
sg25
S'0xbb10eL'
p4158
sg27
Nsba(ibclass
BInstr
p4159
(dp4160
g2
Nsg17
S'movzx   eax, byte ptr [rax]'
p4161
sg19
S'0fb600'
p4162
sg21
Vmovzx eax, byte ptr [rax]
p4163
sg5
L766225L
sg6
Nsg23
S'movzx'
p4164
sg25
S'0xbb111L'
p4165
sg27
Nsba(ibclass
BInstr
p4166
(dp4167
g2
Nsg17
S'cmp     al, 20h'
p4168
sg19
S'3c20'
p4169
sg21
Vcmp al, 0x20
p4170
sg5
L766228L
sg6
Nsg23
S'cmp'
p4171
sg25
S'0xbb114L'
p4172
sg27
Nsba(ibclass
BInstr
p4173
(dp4174
g2
Nsg17
S'jz      short loc_BB0EA'
p4175
sg19
S'74d2'
p4176
sg21
Vje 0xffffffffffffffd4
p4177
sg5
L766230L
sg6
Nsg23
S'jz'
p4178
sg25
S'0xbb116L'
p4179
sg27
Nsbasg70
(lp4180
S'mov reg, mem'
p4181
aS'mov reg, mem'
p4182
aS'movzx reg, mem'
p4183
aS'cmp reg, 20h'
p4184
aS'jz func'
p4185
asg79
Nsg5
S'0xbb10aL'
p4186
sg81
(lp4187
S'0xbb0d6L'
p4188
aS'0xbb0eaL'
p4189
aS'0xbb0f8L'
p4190
asg6
Nsg83
(lp4191
S'0xbb0eaL'
p4192
aS'0xbb118L'
p4193
asg86
Nsg87
Nsg88
S'02bb03f931a7fe57ff72866cf79084c1'
p4194
sg90
S'b2d221df487b4132bb48314b39c3fc71'
p4195
sg92
(lp4196
g4150
ag4157
ag4164
ag4171
ag4178
asg94
Nsba(ibclass
BBasicBlock
p4197
(dp4198
g12
Nsg13
(lp4199
(ibclass
BInstr
p4200
(dp4201
g2
Nsg17
S'mov     rax, [rbp+ctxt]'
p4202
sg19
S'488b45e8'
p4203
sg21
Vmov rax, qword ptr [rbp - 0x18]
p4204
sg5
L766232L
sg6
Nsg23
S'mov'
p4205
sg25
S'0xbb118L'
p4206
sg27
Nsba(ibclass
BInstr
p4207
(dp4208
g2
Nsg17
S'mov     rax, [rax]'
p4209
sg19
S'488b00'
p4210
sg21
Vmov rax, qword ptr [rax]
p4211
sg5
L766236L
sg6
Nsg23
S'mov'
p4212
sg25
S'0xbb11cL'
p4213
sg27
Nsba(ibclass
BInstr
p4214
(dp4215
g2
Nsg17
S'movzx   eax, byte ptr [rax]'
p4216
sg19
S'0fb600'
p4217
sg21
Vmovzx eax, byte ptr [rax]
p4218
sg5
L766239L
sg6
Nsg23
S'movzx'
p4219
sg25
S'0xbb11fL'
p4220
sg27
Nsba(ibclass
BInstr
p4221
(dp4222
g2
Nsg17
S'cmp     al, 8'
p4223
sg19
S'3c08'
p4224
sg21
Vcmp al, 8
p4225
sg5
L766242L
sg6
Nsg23
S'cmp'
p4226
sg25
S'0xbb122L'
p4227
sg27
Nsba(ibclass
BInstr
p4228
(dp4229
g2
Nsg17
S'jbe     short loc_BB134'
p4230
sg19
S'760e'
p4231
sg21
Vjbe 0x10
p4232
sg5
L766244L
sg6
Nsg23
S'jbe'
p4233
sg25
S'0xbb124L'
p4234
sg27
Nsbasg70
(lp4235
S'mov reg, mem'
p4236
aS'mov reg, mem'
p4237
aS'movzx reg, mem'
p4238
aS'cmp reg, 8'
p4239
aS'jbe func'
p4240
asg79
Nsg5
S'0xbb118L'
p4241
sg81
(lp4242
S'0xbb10aL'
p4243
asg6
Nsg83
(lp4244
S'0xbb126L'
p4245
aS'0xbb134L'
p4246
asg86
Nsg87
Nsg88
S'1f79befb8d5181eb675155174f8269b6'
p4247
sg90
S'f5a2f5bcbf41d72aa849c0bd2e46fc8b'
p4248
sg92
(lp4249
g4205
ag4212
ag4219
ag4226
ag4233
asg94
Nsba(ibclass
BBasicBlock
p4250
(dp4251
g12
Nsg13
(lp4252
(ibclass
BInstr
p4253
(dp4254
g2
Nsg17
S'mov     rax, [rbp+ctxt]'
p4255
sg19
S'488b45e8'
p4256
sg21
Vmov rax, qword ptr [rbp - 0x18]
p4257
sg5
L766246L
sg6
Nsg23
S'mov'
p4258
sg25
S'0xbb126L'
p4259
sg27
Nsba(ibclass
BInstr
p4260
(dp4261
g2
Nsg17
S'mov     rax, [rax]'
p4262
sg19
S'488b00'
p4263
sg21
Vmov rax, qword ptr [rax]
p4264
sg5
L766250L
sg6
Nsg23
S'mov'
p4265
sg25
S'0xbb12aL'
p4266
sg27
Nsba(ibclass
BInstr
p4267
(dp4268
g2
Nsg17
S'movzx   eax, byte ptr [rax]'
p4269
sg19
S'0fb600'
p4270
sg21
Vmovzx eax, byte ptr [rax]
p4271
sg5
L766253L
sg6
Nsg23
S'movzx'
p4272
sg25
S'0xbb12dL'
p4273
sg27
Nsba(ibclass
BInstr
p4274
(dp4275
g2
Nsg17
S'cmp     al, 0Ah'
p4276
sg19
S'3c0a'
p4277
sg21
Vcmp al, 0xa
p4278
sg5
L766256L
sg6
Nsg23
S'cmp'
p4279
sg25
S'0xbb130L'
p4280
sg27
Nsba(ibclass
BInstr
p4281
(dp4282
g2
Nsg17
S'jbe     short loc_BB0EA'
p4283
sg19
S'76b6'
p4284
sg21
Vjbe 0xffffffffffffffb8
p4285
sg5
L766258L
sg6
Nsg23
S'jbe'
p4286
sg25
S'0xbb132L'
p4287
sg27
Nsbasg70
(lp4288
S'mov reg, mem'
p4289
aS'mov reg, mem'
p4290
aS'movzx reg, mem'
p4291
aS'cmp reg, 0Ah'
p4292
aS'jbe func'
p4293
asg79
Nsg5
S'0xbb126L'
p4294
sg81
(lp4295
S'0xbb118L'
p4296
asg6
Nsg83
(lp4297
S'0xbb0eaL'
p4298
aS'0xbb134L'
p4299
asg86
Nsg87
Nsg88
S'1f79befb8d5181eb675155174f8269b6'
p4300
sg90
S'e694ab8199a73c8c12b682cdff1d6a26'
p4301
sg92
(lp4302
g4258
ag4265
ag4272
ag4279
ag4286
asg94
Nsba(ibclass
BBasicBlock
p4303
(dp4304
g12
Nsg13
(lp4305
(ibclass
BInstr
p4306
(dp4307
g2
Nsg17
S'mov     rax, [rbp+ctxt]'
p4308
sg19
S'488b45e8'
p4309
sg21
Vmov rax, qword ptr [rbp - 0x18]
p4310
sg5
L766260L
sg6
Nsg23
S'mov'
p4311
sg25
S'0xbb134L'
p4312
sg27
Nsba(ibclass
BInstr
p4313
(dp4314
g2
Nsg17
S'mov     rax, [rax]'
p4315
sg19
S'488b00'
p4316
sg21
Vmov rax, qword ptr [rax]
p4317
sg5
L766264L
sg6
Nsg23
S'mov'
p4318
sg25
S'0xbb138L'
p4319
sg27
Nsba(ibclass
BInstr
p4320
(dp4321
g2
Nsg17
S'movzx   eax, byte ptr [rax]'
p4322
sg19
S'0fb600'
p4323
sg21
Vmovzx eax, byte ptr [rax]
p4324
sg5
L766267L
sg6
Nsg23
S'movzx'
p4325
sg25
S'0xbb13bL'
p4326
sg27
Nsba(ibclass
BInstr
p4327
(dp4328
g2
Nsg17
S'cmp     al, 0Dh'
p4329
sg19
S'3c0d'
p4330
sg21
Vcmp al, 0xd
p4331
sg5
L766270L
sg6
Nsg23
S'cmp'
p4332
sg25
S'0xbb13eL'
p4333
sg27
Nsba(ibclass
BInstr
p4334
(dp4335
g2
Nsg17
S'jz      short loc_BB0EA'
p4336
sg19
S'74a8'
p4337
sg21
Vje 0xffffffffffffffaa
p4338
sg5
L766272L
sg6
Nsg23
S'jz'
p4339
sg25
S'0xbb140L'
p4340
sg27
Nsbasg70
(lp4341
S'mov reg, mem'
p4342
aS'mov reg, mem'
p4343
aS'movzx reg, mem'
p4344
aS'cmp reg, 0Dh'
p4345
aS'jz func'
p4346
asg79
Nsg5
S'0xbb134L'
p4347
sg81
(lp4348
S'0xbb118L'
p4349
aS'0xbb126L'
p4350
asg6
Nsg83
(lp4351
S'0xbb0eaL'
p4352
aS'0xbb142L'
p4353
asg86
Nsg87
Nsg88
S'02bb03f931a7fe57ff72866cf79084c1'
p4354
sg90
S'2fd6b9095b1aaa7ef51e20b5e5eed68c'
p4355
sg92
(lp4356
g4311
ag4318
ag4325
ag4332
ag4339
asg94
Nsba(ibclass
BBasicBlock
p4357
(dp4358
g12
Nsg13
(lp4359
(ibclass
BInstr
p4360
(dp4361
g2
Nsg17
S'mov     rax, [rbp+ctxt]'
p4362
sg19
S'488b45e8'
p4363
sg21
Vmov rax, qword ptr [rbp - 0x18]
p4364
sg5
L766274L
sg6
Nsg23
S'mov'
p4365
sg25
S'0xbb142L'
p4366
sg27
Nsba(ibclass
BInstr
p4367
(dp4368
g2
Nsg17
S'mov     rax, [rax+38h]'
p4369
sg19
S'488b4038'
p4370
sg21
Vmov rax, qword ptr [rax + 0x38]
p4371
sg5
L766278L
sg6
Nsg23
S'mov'
p4372
sg25
S'0xbb146L'
p4373
sg27
Nsba(ibclass
BInstr
p4374
(dp4375
g2
Nsg17
S'mov     esi, [rax+10h]  ; ch1'
p4376
sg19
S'8b7010'
p4377
sg21
Vmov esi, dword ptr [rax + 0x10]
p4378
sg5
L766282L
sg6
Nsg23
S'mov'
p4379
sg25
S'0xbb14aL'
p4380
sg27
Nsba(ibclass
BInstr
p4381
(dp4382
g2
Nsg17
S'mov     rax, [rbp+ctxt]'
p4383
sg19
S'488b45e8'
p4384
sg21
Vmov rax, qword ptr [rbp - 0x18]
p4385
sg5
L766285L
sg6
Nsg23
S'mov'
p4386
sg25
S'0xbb14dL'
p4387
sg27
Nsba(ibclass
BInstr
p4388
(dp4389
g2
Nsg17
S'mov     rax, [rax+38h]'
p4390
sg19
S'488b4038'
p4391
sg21
Vmov rax, qword ptr [rax + 0x38]
p4392
sg5
L766289L
sg6
Nsg23
S'mov'
p4393
sg25
S'0xbb151L'
p4394
sg27
Nsba(ibclass
BInstr
p4395
(dp4396
g2
Nsg17
S'sub     rsp, 8'
p4397
sg19
S'4883ec08'
p4398
sg21
Vsub rsp, 8
p4399
sg5
L766293L
sg6
Nsg23
S'sub'
p4400
sg25
S'0xbb155L'
p4401
sg27
Nsba(ibclass
BInstr
p4402
(dp4403
g2
Nsg17
S'push    0               ; value5'
p4404
sg19
S'6a00'
p4405
sg21
Vpush 0
p4406
sg5
L766297L
sg6
Nsg23
S'push'
p4407
sg25
S'0xbb159L'
p4408
sg27
Nsba(ibclass
BInstr
p4409
(dp4410
g2
Nsg17
S'push    0               ; value4'
p4411
sg19
S'6a00'
p4412
sg21
Vpush 0
p4413
sg5
L766299L
sg6
Nsg23
S'push'
p4414
sg25
S'0xbb15bL'
p4415
sg27
Nsba(ibclass
BInstr
p4416
(dp4417
g2
Nsg17
S'push    0               ; value3'
p4418
sg19
S'6a00'
p4419
sg21
Vpush 0
p4420
sg5
L766301L
sg6
Nsg23
S'push'
p4421
sg25
S'0xbb15dL'
p4422
sg27
Nsba(ibclass
BInstr
p4423
(dp4424
g2
Nsg17
S'mov     r9d, 1          ; value2'
p4425
sg19
S'41b901000000'
p4426
sg21
Vmov r9d, 1
p4427
sg5
L766303L
sg6
Nsg23
S'mov'
p4428
sg25
S'0xbb15fL'
p4429
sg27
Nsba(ibclass
BInstr
p4430
(dp4431
g2
Nsg17
S'mov     r8d, 6          ; value'
p4432
sg19
S'41b806000000'
p4433
sg21
Vmov r8d, 6
p4434
sg5
L766309L
sg6
Nsg23
S'mov'
p4435
sg25
S'0xbb165L'
p4436
sg27
Nsba(ibclass
BInstr
p4437
(dp4438
g2
Nsg17
S'mov     ecx, 0Bh        ; op'
p4439
sg19
S'b90b000000'
p4440
sg21
Vmov ecx, 0xb
p4441
sg5
L766315L
sg6
Nsg23
S'mov'
p4442
sg25
S'0xbb16bL'
p4443
sg27
Nsba(ibclass
BInstr
p4444
(dp4445
g2
Nsg17
S'mov     edx, 0FFFFFFFFh ; ch2'
p4446
sg19
S'baffffffff'
p4447
sg21
Vmov edx, 0xffffffff
p4448
sg5
L766320L
sg6
Nsg23
S'mov'
p4449
sg25
S'0xbb170L'
p4450
sg27
Nsba(ibclass
BInstr
p4451
(dp4452
g2
Nsg17
S'mov     rdi, rax        ; comp'
p4453
sg19
S'4889c7'
p4454
sg21
Vmov rdi, rax
p4455
sg5
L766325L
sg6
Nsg23
S'mov'
p4456
sg25
S'0xbb175L'
p4457
sg27
Nsba(ibclass
BInstr
p4458
(dp4459
g2
Nsg17
S'call    xmlXPathCompExprAdd'
p4460
sg19
S'e8bed6feff'
p4461
sg21
Vcall 0xfffffffffffed6c3
p4462
sg5
L766328L
sg6
Nsg23
S'call'
p4463
sg25
S'0xbb178L'
p4464
sg27
Nsba(ibclass
BInstr
p4465
(dp4466
g2
Nsg17
S'add     rsp, 20h'
p4467
sg19
S'4883c420'
p4468
sg21
Vadd rsp, 0x20
p4469
sg5
L766333L
sg6
Nsg23
S'add'
p4470
sg25
S'0xbb17dL'
p4471
sg27
Nsba(ibclass
BInstr
p4472
(dp4473
g2
Nsg17
S'mov     rax, [rbp+ctxt]'
p4474
sg19
S'488b45e8'
p4475
sg21
Vmov rax, qword ptr [rbp - 0x18]
p4476
sg5
L766337L
sg6
Nsg23
S'mov'
p4477
sg25
S'0xbb181L'
p4478
sg27
Nsba(ibclass
BInstr
p4479
(dp4480
g2
Nsg17
S'mov     rax, [rax+38h]'
p4481
sg19
S'488b4038'
p4482
sg21
Vmov rax, qword ptr [rax + 0x38]
p4483
sg5
L766341L
sg6
Nsg23
S'mov'
p4484
sg25
S'0xbb185L'
p4485
sg27
Nsba(ibclass
BInstr
p4486
(dp4487
g2
Nsg17
S'mov     esi, [rax+10h]  ; ch1'
p4488
sg19
S'8b7010'
p4489
sg21
Vmov esi, dword ptr [rax + 0x10]
p4490
sg5
L766345L
sg6
Nsg23
S'mov'
p4491
sg25
S'0xbb189L'
p4492
sg27
Nsba(ibclass
BInstr
p4493
(dp4494
g2
Nsg17
S'mov     rax, [rbp+ctxt]'
p4495
sg19
S'488b45e8'
p4496
sg21
Vmov rax, qword ptr [rbp - 0x18]
p4497
sg5
L766348L
sg6
Nsg23
S'mov'
p4498
sg25
S'0xbb18cL'
p4499
sg27
Nsba(ibclass
BInstr
p4500
(dp4501
g2
Nsg17
S'mov     rax, [rax+38h]'
p4502
sg19
S'488b4038'
p4503
sg21
Vmov rax, qword ptr [rax + 0x38]
p4504
sg5
L766352L
sg6
Nsg23
S'mov'
p4505
sg25
S'0xbb190L'
p4506
sg27
Nsba(ibclass
BInstr
p4507
(dp4508
g2
Nsg17
S'sub     rsp, 8'
p4509
sg19
S'4883ec08'
p4510
sg21
Vsub rsp, 8
p4511
sg5
L766356L
sg6
Nsg23
S'sub'
p4512
sg25
S'0xbb194L'
p4513
sg27
Nsba(ibclass
BInstr
p4514
(dp4515
g2
Nsg17
S'push    0               ; value5'
p4516
sg19
S'6a00'
p4517
sg21
Vpush 0
p4518
sg5
L766360L
sg6
Nsg23
S'push'
p4519
sg25
S'0xbb198L'
p4520
sg27
Nsba(ibclass
BInstr
p4521
(dp4522
g2
Nsg17
S'push    0               ; value4'
p4523
sg19
S'6a00'
p4524
sg21
Vpush 0
p4525
sg5
L766362L
sg6
Nsg23
S'push'
p4526
sg25
S'0xbb19aL'
p4527
sg27
Nsba(ibclass
BInstr
p4528
(dp4529
g2
Nsg17
S'push    0               ; value3'
p4530
sg19
S'6a00'
p4531
sg21
Vpush 0
p4532
sg5
L766364L
sg6
Nsg23
S'push'
p4533
sg25
S'0xbb19cL'
p4534
sg27
Nsba(ibclass
BInstr
p4535
(dp4536
g2
Nsg17
S'mov     r9d, 0          ; value2'
p4537
sg19
S'41b900000000'
p4538
sg21
Vmov r9d, 0
p4539
sg5
L766366L
sg6
Nsg23
S'mov'
p4540
sg25
S'0xbb19eL'
p4541
sg27
Nsba(ibclass
BInstr
p4542
(dp4543
g2
Nsg17
S'mov     r8d, 1          ; value'
p4544
sg19
S'41b801000000'
p4545
sg21
Vmov r8d, 1
p4546
sg5
L766372L
sg6
Nsg23
S'mov'
p4547
sg25
S'0xbb1a4L'
p4548
sg27
Nsba(ibclass
BInstr
p4549
(dp4550
g2
Nsg17
S'mov     ecx, 0Ah        ; op'
p4551
sg19
S'b90a000000'
p4552
sg21
Vmov ecx, 0xa
p4553
sg5
L766378L
sg6
Nsg23
S'mov'
p4554
sg25
S'0xbb1aaL'
p4555
sg27
Nsba(ibclass
BInstr
p4556
(dp4557
g2
Nsg17
S'mov     edx, 0FFFFFFFFh ; ch2'
p4558
sg19
S'baffffffff'
p4559
sg21
Vmov edx, 0xffffffff
p4560
sg5
L766383L
sg6
Nsg23
S'mov'
p4561
sg25
S'0xbb1afL'
p4562
sg27
Nsba(ibclass
BInstr
p4563
(dp4564
g2
Nsg17
S'mov     rdi, rax        ; comp'
p4565
sg19
S'4889c7'
p4566
sg21
Vmov rdi, rax
p4567
sg5
L766388L
sg6
Nsg23
S'mov'
p4568
sg25
S'0xbb1b4L'
p4569
sg27
Nsba(ibclass
BInstr
p4570
(dp4571
g2
Nsg17
S'call    xmlXPathCompExprAdd'
p4572
sg19
S'e87fd6feff'
p4573
sg21
Vcall 0xfffffffffffed684
p4574
sg5
L766391L
sg6
Nsg23
S'call'
p4575
sg25
S'0xbb1b7L'
p4576
sg27
Nsba(ibclass
BInstr
p4577
(dp4578
g2
Nsg17
S'add     rsp, 20h'
p4579
sg19
S'4883c420'
p4580
sg21
Vadd rsp, 0x20
p4581
sg5
L766396L
sg6
Nsg23
S'add'
p4582
sg25
S'0xbb1bcL'
p4583
sg27
Nsba(ibclass
BInstr
p4584
(dp4585
g2
Nsg17
S'mov     rax, [rbp+ctxt]'
p4586
sg19
S'488b45e8'
p4587
sg21
Vmov rax, qword ptr [rbp - 0x18]
p4588
sg5
L766400L
sg6
Nsg23
S'mov'
p4589
sg25
S'0xbb1c0L'
p4590
sg27
Nsba(ibclass
BInstr
p4591
(dp4592
g2
Nsg17
S'mov     rdi, rax        ; ctxt'
p4593
sg19
S'4889c7'
p4594
sg21
Vmov rdi, rax
p4595
sg5
L766404L
sg6
Nsg23
S'mov'
p4596
sg25
S'0xbb1c4L'
p4597
sg27
Nsba(ibclass
BInstr
p4598
(dp4599
g2
Nsg17
S'call    xmlXPathCompRelativeLocationPath'
p4600
sg19
S'e880230000'
p4601
sg21
Vcall 0x2385
p4602
sg5
L766407L
sg6
Nsg23
S'call'
p4603
sg25
S'0xbb1c7L'
p4604
sg27
Nsba(ibclass
BInstr
p4605
(dp4606
g2
Nsg17
S'jmp     short loc_BB1E8'
p4607
sg19
S'eb1a'
p4608
sg21
Vjmp 0x1c
p4609
sg5
L766412L
sg6
Nsg23
S'jmp'
p4610
sg25
S'0xbb1ccL'
p4611
sg27
Nsbasg70
(lp4612
S'mov reg, mem'
p4613
aS'mov reg, mem'
p4614
aS'mov reg, mem'
p4615
aS'mov reg, mem'
p4616
aS'mov reg, mem'
p4617
aS'sub reg, 8'
p4618
aS'push 0'
p4619
aS'push 0'
p4620
aS'push 0'
p4621
aS'mov regd, 1'
p4622
aS'mov regd, 6'
p4623
aS'mov reg, 0Bh'
p4624
aS'mov reg, 0FFFFFFFFh'
p4625
aS'mov reg, reg'
p4626
aS'cregl xmlXPathCompExprAdd'
p4627
aS'add reg, 20h'
p4628
aS'mov reg, mem'
p4629
aS'mov reg, mem'
p4630
aS'mov reg, mem'
p4631
aS'mov reg, mem'
p4632
aS'mov reg, mem'
p4633
aS'sub reg, 8'
p4634
aS'push 0'
p4635
aS'push 0'
p4636
aS'push 0'
p4637
aS'mov regd, 0'
p4638
aS'mov regd, 1'
p4639
aS'mov reg, 0Ah'
p4640
aS'mov reg, 0FFFFFFFFh'
p4641
aS'mov reg, reg'
p4642
aS'cregl xmlXPathCompExprAdd'
p4643
aS'add reg, 20h'
p4644
aS'mov reg, mem'
p4645
aS'mov reg, reg'
p4646
aS'cregl xmlXPathCompRelativeLocationPath'
p4647
aS'jmp func'
p4648
asg79
Nsg5
S'0xbb142L'
p4649
sg81
(lp4650
S'0xbb134L'
p4651
asg6
Nsg83
(lp4652
S'0xbb1e8L'
p4653
asg86
Nsg87
Nsg88
S'e8b6a69a2429e18ed0df064868500fdf'
p4654
sg90
S'139d1a6a8a995238688367d45696f7b8'
p4655
sg92
(lp4656
g4365
ag4372
ag4379
ag4386
ag4393
ag4400
ag4407
ag4414
ag4421
ag4428
ag4435
ag4442
ag4449
ag4456
ag4463
ag4470
ag4477
ag4484
ag4491
ag4498
ag4505
ag4512
ag4519
ag4526
ag4533
ag4540
ag4547
ag4554
ag4561
ag4568
ag4575
ag4582
ag4589
ag4596
ag4603
ag4610
asg94
Nsba(ibclass
BBasicBlock
p4657
(dp4658
g12
Nsg13
(lp4659
(ibclass
BInstr
p4660
(dp4661
g2
Nsg17
S'mov     rax, [rbp+ctxt]'
p4662
sg19
S'488b45e8'
p4663
sg21
Vmov rax, qword ptr [rbp - 0x18]
p4664
sg5
L766414L
sg6
Nsg23
S'mov'
p4665
sg25
S'0xbb1ceL'
p4666
sg27
Nsba(ibclass
BInstr
p4667
(dp4668
g2
Nsg17
S'mov     rax, [rax]'
p4669
sg19
S'488b00'
p4670
sg21
Vmov rax, qword ptr [rax]
p4671
sg5
L766418L
sg6
Nsg23
S'mov'
p4672
sg25
S'0xbb1d2L'
p4673
sg27
Nsba(ibclass
BInstr
p4674
(dp4675
g2
Nsg17
S'movzx   eax, byte ptr [rax]'
p4676
sg19
S'0fb600'
p4677
sg21
Vmovzx eax, byte ptr [rax]
p4678
sg5
L766421L
sg6
Nsg23
S'movzx'
p4679
sg25
S'0xbb1d5L'
p4680
sg27
Nsba(ibclass
BInstr
p4681
(dp4682
g2
Nsg17
S'cmp     al, 2Fh'
p4683
sg19
S'3c2f'
p4684
sg21
Vcmp al, 0x2f
p4685
sg5
L766424L
sg6
Nsg23
S'cmp'
p4686
sg25
S'0xbb1d8L'
p4687
sg27
Nsba(ibclass
BInstr
p4688
(dp4689
g2
Nsg17
S'jnz     short loc_BB20A'
p4690
sg19
S'752e'
p4691
sg21
Vjne 0x30
p4692
sg5
L766426L
sg6
Nsg23
S'jnz'
p4693
sg25
S'0xbb1daL'
p4694
sg27
Nsbasg70
(lp4695
S'mov reg, mem'
p4696
aS'mov reg, mem'
p4697
aS'movzx reg, mem'
p4698
aS'cmp reg, 2Fh'
p4699
aS'jnz func'
p4700
asg79
Nsg5
S'0xbb1ceL'
p4701
sg81
(lp4702
S'0xbb0aeL'
p4703
aS'0xbb0c0L'
p4704
asg6
Nsg83
(lp4705
S'0xbb1dcL'
p4706
aS'0xbb20aL'
p4707
asg86
Nsg87
Nsg88
S'fee82e05e3ad0c992b7c2259c6fe4074'
p4708
sg90
S'5c0555a57ad1e7dca5ffddac02f028ce'
p4709
sg92
(lp4710
g4665
ag4672
ag4679
ag4686
ag4693
asg94
Nsba(ibclass
BBasicBlock
p4711
(dp4712
g12
Nsg13
(lp4713
(ibclass
BInstr
p4714
(dp4715
g2
Nsg17
S'mov     rax, [rbp+ctxt]'
p4716
sg19
S'488b45e8'
p4717
sg21
Vmov rax, qword ptr [rbp - 0x18]
p4718
sg5
L766428L
sg6
Nsg23
S'mov'
p4719
sg25
S'0xbb1dcL'
p4720
sg27
Nsba(ibclass
BInstr
p4721
(dp4722
g2
Nsg17
S'mov     rdi, rax        ; ctxt'
p4723
sg19
S'4889c7'
p4724
sg21
Vmov rdi, rax
p4725
sg5
L766432L
sg6
Nsg23
S'mov'
p4726
sg25
S'0xbb1e0L'
p4727
sg27
Nsba(ibclass
BInstr
p4728
(dp4729
g2
Nsg17
S'call    xmlXPathCompRelativeLocationPath'
p4730
sg19
S'e864230000'
p4731
sg21
Vcall 0x2369
p4732
sg5
L766435L
sg6
Nsg23
S'call'
p4733
sg25
S'0xbb1e3L'
p4734
sg27
Nsbasg70
(lp4735
S'mov reg, mem'
p4736
aS'mov reg, reg'
p4737
aS'cregl xmlXPathCompRelativeLocationPath'
p4738
asg79
Nsg5
S'0xbb1dcL'
p4739
sg81
(lp4740
S'0xbb1ceL'
p4741
asg6
Nsg83
(lp4742
S'0xbb1e8L'
p4743
asg86
Nsg87
Nsg88
S'0bf1a79a6a1155c5085c1c85d6d83d05'
p4744
sg90
S'eca016ed023b0887bec44eb207aeeab9'
p4745
sg92
(lp4746
g4719
ag4726
ag4733
asg94
Nsba(ibclass
BBasicBlock
p4747
(dp4748
g12
Nsg13
(lp4749
(ibclass
BInstr
p4750
(dp4751
g2
Nsg17
S'jmp     short loc_BB20A'
p4752
sg19
S'eb20'
p4753
sg21
Vjmp 0x22
p4754
sg5
L766440L
sg6
Nsg23
S'jmp'
p4755
sg25
S'0xbb1e8L'
p4756
sg27
Nsbasg70
(lp4757
S'jmp func'
p4758
asg79
Nsg5
S'0xbb1e8L'
p4759
sg81
(lp4760
S'0xbb142L'
p4761
aS'0xbb1dcL'
p4762
asg6
Nsg83
(lp4763
S'0xbb20aL'
p4764
asg86
Nsg87
Nsg88
S'0ef6cf926f2f394b0cc8e11be8022625'
p4765
sg90
S'6c64eaafdcb2d6ebd96fc3dc6cab1911'
p4766
sg92
(lp4767
g4755
asg94
Nsba(ibclass
BBasicBlock
p4768
(dp4769
g12
Nsg13
(lp4770
(ibclass
BInstr
p4771
(dp4772
g2
Nsg17
S'mov     rax, [rbp+ctxt]'
p4773
sg19
S'488b45e8'
p4774
sg21
Vmov rax, qword ptr [rbp - 0x18]
p4775
sg5
L766442L
sg6
Nsg23
S'mov'
p4776
sg25
S'0xbb1eaL'
p4777
sg27
Nsba(ibclass
BInstr
p4778
(dp4779
g2
Nsg17
S'mov     rax, [rax]'
p4780
sg19
S'488b00'
p4781
sg21
Vmov rax, qword ptr [rax]
p4782
sg5
L766446L
sg6
Nsg23
S'mov'
p4783
sg25
S'0xbb1eeL'
p4784
sg27
Nsba(ibclass
BInstr
p4785
(dp4786
g2
Nsg17
S'movzx   eax, byte ptr [rax]'
p4787
sg19
S'0fb600'
p4788
sg21
Vmovzx eax, byte ptr [rax]
p4789
sg5
L766449L
sg6
Nsg23
S'movzx'
p4790
sg25
S'0xbb1f1L'
p4791
sg27
Nsba(ibclass
BInstr
p4792
(dp4793
g2
Nsg17
S'test    al, al'
p4794
sg19
S'84c0'
p4795
sg21
Vtest al, al
p4796
sg5
L766452L
sg6
Nsg23
S'test'
p4797
sg25
S'0xbb1f4L'
p4798
sg27
Nsba(ibclass
BInstr
p4799
(dp4800
g2
Nsg17
S'jz      short loc_BB20A'
p4801
sg19
S'7412'
p4802
sg21
Vje 0x14
p4803
sg5
L766454L
sg6
Nsg23
S'jz'
p4804
sg25
S'0xbb1f6L'
p4805
sg27
Nsbasg70
(lp4806
S'mov reg, mem'
p4807
aS'mov reg, mem'
p4808
aS'movzx reg, mem'
p4809
aS'test reg, reg'
p4810
aS'jz func'
p4811
asg79
Nsg5
S'0xbb1eaL'
p4812
sg81
(lp4813
S'0xbb20aL'
p4814
aS'0xbb226L'
p4815
aS'0xbb234L'
p4816
asg6
Nsg83
(lp4817
S'0xbb1f8L'
p4818
aS'0xbb20aL'
p4819
asg86
Nsg87
Nsg88
S'791d110b6f72b28a0ed387504865cb08'
p4820
sg90
S'fd7febd4cca0ddb2ee8370dd2f349181'
p4821
sg92
(lp4822
g4776
ag4783
ag4790
ag4797
ag4804
asg94
Nsba(ibclass
BBasicBlock
p4823
(dp4824
g12
Nsg13
(lp4825
(ibclass
BInstr
p4826
(dp4827
g2
Nsg17
S'mov     rax, [rbp+ctxt]'
p4828
sg19
S'488b45e8'
p4829
sg21
Vmov rax, qword ptr [rbp - 0x18]
p4830
sg5
L766456L
sg6
Nsg23
S'mov'
p4831
sg25
S'0xbb1f8L'
p4832
sg27
Nsba(ibclass
BInstr
p4833
(dp4834
g2
Nsg17
S'mov     rax, [rax]'
p4835
sg19
S'488b00'
p4836
sg21
Vmov rax, qword ptr [rax]
p4837
sg5
L766460L
sg6
Nsg23
S'mov'
p4838
sg25
S'0xbb1fcL'
p4839
sg27
Nsba(ibclass
BInstr
p4840
(dp4841
g2
Nsg17
S'lea     rdx, [rax+1]'
p4842
sg19
S'488d5001'
p4843
sg21
Vlea rdx, [rax + 1]
p4844
sg5
L766463L
sg6
Nsg23
S'lea'
p4845
sg25
S'0xbb1ffL'
p4846
sg27
Nsba(ibclass
BInstr
p4847
(dp4848
g2
Nsg17
S'mov     rax, [rbp+ctxt]'
p4849
sg19
S'488b45e8'
p4850
sg21
Vmov rax, qword ptr [rbp - 0x18]
p4851
sg5
L766467L
sg6
Nsg23
S'mov'
p4852
sg25
S'0xbb203L'
p4853
sg27
Nsba(ibclass
BInstr
p4854
(dp4855
g2
Nsg17
S'mov     [rax], rdx'
p4856
sg19
S'488910'
p4857
sg21
Vmov qword ptr [rax], rdx
p4858
sg5
L766471L
sg6
Nsg23
S'mov'
p4859
sg25
S'0xbb207L'
p4860
sg27
Nsbasg70
(lp4861
S'mov reg, mem'
p4862
aS'mov reg, mem'
p4863
aS'lea reg, mem'
p4864
aS'mov reg, mem'
p4865
aS'mov mem, reg'
p4866
asg79
Nsg5
S'0xbb1f8L'
p4867
sg81
(lp4868
S'0xbb1eaL'
p4869
asg6
Nsg83
(lp4870
S'0xbb20aL'
p4871
asg86
Nsg87
Nsg88
S'72f4ffde030f180f82b3b840c2feb320'
p4872
sg90
S'a86dfa9db1a7ce39ea439444b161239c'
p4873
sg92
(lp4874
g4831
ag4838
ag4845
ag4852
ag4859
asg94
Nsba(ibclass
BBasicBlock
p4875
(dp4876
g12
Nsg13
(lp4877
(ibclass
BInstr
p4878
(dp4879
g2
Nsg17
S'mov     rax, [rbp+ctxt]'
p4880
sg19
S'488b45e8'
p4881
sg21
Vmov rax, qword ptr [rbp - 0x18]
p4882
sg5
L766474L
sg6
Nsg23
S'mov'
p4883
sg25
S'0xbb20aL'
p4884
sg27
Nsba(ibclass
BInstr
p4885
(dp4886
g2
Nsg17
S'mov     rax, [rax]'
p4887
sg19
S'488b00'
p4888
sg21
Vmov rax, qword ptr [rax]
p4889
sg5
L766478L
sg6
Nsg23
S'mov'
p4890
sg25
S'0xbb20eL'
p4891
sg27
Nsba(ibclass
BInstr
p4892
(dp4893
g2
Nsg17
S'movzx   eax, byte ptr [rax]'
p4894
sg19
S'0fb600'
p4895
sg21
Vmovzx eax, byte ptr [rax]
p4896
sg5
L766481L
sg6
Nsg23
S'movzx'
p4897
sg25
S'0xbb211L'
p4898
sg27
Nsba(ibclass
BInstr
p4899
(dp4900
g2
Nsg17
S'cmp     al, 20h'
p4901
sg19
S'3c20'
p4902
sg21
Vcmp al, 0x20
p4903
sg5
L766484L
sg6
Nsg23
S'cmp'
p4904
sg25
S'0xbb214L'
p4905
sg27
Nsba(ibclass
BInstr
p4906
(dp4907
g2
Nsg17
S'jz      short loc_BB1EA'
p4908
sg19
S'74d2'
p4909
sg21
Vje 0xffffffffffffffd4
p4910
sg5
L766486L
sg6
Nsg23
S'jz'
p4911
sg25
S'0xbb216L'
p4912
sg27
Nsbasg70
(lp4913
S'mov reg, mem'
p4914
aS'mov reg, mem'
p4915
aS'movzx reg, mem'
p4916
aS'cmp reg, 20h'
p4917
aS'jz func'
p4918
asg79
Nsg5
S'0xbb20aL'
p4919
sg81
(lp4920
S'0xbb082L'
p4921
aS'0xbb1ceL'
p4922
aS'0xbb1e8L'
p4923
aS'0xbb1eaL'
p4924
aS'0xbb1f8L'
p4925
asg6
Nsg83
(lp4926
S'0xbb1eaL'
p4927
aS'0xbb218L'
p4928
asg86
Nsg87
Nsg88
S'02bb03f931a7fe57ff72866cf79084c1'
p4929
sg90
S'b2d221df487b4132bb48314b39c3fc71'
p4930
sg92
(lp4931
g4883
ag4890
ag4897
ag4904
ag4911
asg94
Nsba(ibclass
BBasicBlock
p4932
(dp4933
g12
Nsg13
(lp4934
(ibclass
BInstr
p4935
(dp4936
g2
Nsg17
S'mov     rax, [rbp+ctxt]'
p4937
sg19
S'488b45e8'
p4938
sg21
Vmov rax, qword ptr [rbp - 0x18]
p4939
sg5
L766488L
sg6
Nsg23
S'mov'
p4940
sg25
S'0xbb218L'
p4941
sg27
Nsba(ibclass
BInstr
p4942
(dp4943
g2
Nsg17
S'mov     rax, [rax]'
p4944
sg19
S'488b00'
p4945
sg21
Vmov rax, qword ptr [rax]
p4946
sg5
L766492L
sg6
Nsg23
S'mov'
p4947
sg25
S'0xbb21cL'
p4948
sg27
Nsba(ibclass
BInstr
p4949
(dp4950
g2
Nsg17
S'movzx   eax, byte ptr [rax]'
p4951
sg19
S'0fb600'
p4952
sg21
Vmovzx eax, byte ptr [rax]
p4953
sg5
L766495L
sg6
Nsg23
S'movzx'
p4954
sg25
S'0xbb21fL'
p4955
sg27
Nsba(ibclass
BInstr
p4956
(dp4957
g2
Nsg17
S'cmp     al, 8'
p4958
sg19
S'3c08'
p4959
sg21
Vcmp al, 8
p4960
sg5
L766498L
sg6
Nsg23
S'cmp'
p4961
sg25
S'0xbb222L'
p4962
sg27
Nsba(ibclass
BInstr
p4963
(dp4964
g2
Nsg17
S'jbe     short loc_BB234'
p4965
sg19
S'760e'
p4966
sg21
Vjbe 0x10
p4967
sg5
L766500L
sg6
Nsg23
S'jbe'
p4968
sg25
S'0xbb224L'
p4969
sg27
Nsbasg70
(lp4970
S'mov reg, mem'
p4971
aS'mov reg, mem'
p4972
aS'movzx reg, mem'
p4973
aS'cmp reg, 8'
p4974
aS'jbe func'
p4975
asg79
Nsg5
S'0xbb218L'
p4976
sg81
(lp4977
S'0xbb20aL'
p4978
asg6
Nsg83
(lp4979
S'0xbb226L'
p4980
aS'0xbb234L'
p4981
asg86
Nsg87
Nsg88
S'1f79befb8d5181eb675155174f8269b6'
p4982
sg90
S'f5a2f5bcbf41d72aa849c0bd2e46fc8b'
p4983
sg92
(lp4984
g4940
ag4947
ag4954
ag4961
ag4968
asg94
Nsba(ibclass
BBasicBlock
p4985
(dp4986
g12
Nsg13
(lp4987
(ibclass
BInstr
p4988
(dp4989
g2
Nsg17
S'mov     rax, [rbp+ctxt]'
p4990
sg19
S'488b45e8'
p4991
sg21
Vmov rax, qword ptr [rbp - 0x18]
p4992
sg5
L766502L
sg6
Nsg23
S'mov'
p4993
sg25
S'0xbb226L'
p4994
sg27
Nsba(ibclass
BInstr
p4995
(dp4996
g2
Nsg17
S'mov     rax, [rax]'
p4997
sg19
S'488b00'
p4998
sg21
Vmov rax, qword ptr [rax]
p4999
sg5
L766506L
sg6
Nsg23
S'mov'
p5000
sg25
S'0xbb22aL'
p5001
sg27
Nsba(ibclass
BInstr
p5002
(dp5003
g2
Nsg17
S'movzx   eax, byte ptr [rax]'
p5004
sg19
S'0fb600'
p5005
sg21
Vmovzx eax, byte ptr [rax]
p5006
sg5
L766509L
sg6
Nsg23
S'movzx'
p5007
sg25
S'0xbb22dL'
p5008
sg27
Nsba(ibclass
BInstr
p5009
(dp5010
g2
Nsg17
S'cmp     al, 0Ah'
p5011
sg19
S'3c0a'
p5012
sg21
Vcmp al, 0xa
p5013
sg5
L766512L
sg6
Nsg23
S'cmp'
p5014
sg25
S'0xbb230L'
p5015
sg27
Nsba(ibclass
BInstr
p5016
(dp5017
g2
Nsg17
S'jbe     short loc_BB1EA'
p5018
sg19
S'76b6'
p5019
sg21
Vjbe 0xffffffffffffffb8
p5020
sg5
L766514L
sg6
Nsg23
S'jbe'
p5021
sg25
S'0xbb232L'
p5022
sg27
Nsbasg70
(lp5023
S'mov reg, mem'
p5024
aS'mov reg, mem'
p5025
aS'movzx reg, mem'
p5026
aS'cmp reg, 0Ah'
p5027
aS'jbe func'
p5028
asg79
Nsg5
S'0xbb226L'
p5029
sg81
(lp5030
S'0xbb218L'
p5031
asg6
Nsg83
(lp5032
S'0xbb1eaL'
p5033
aS'0xbb234L'
p5034
asg86
Nsg87
Nsg88
S'1f79befb8d5181eb675155174f8269b6'
p5035
sg90
S'e694ab8199a73c8c12b682cdff1d6a26'
p5036
sg92
(lp5037
g4993
ag5000
ag5007
ag5014
ag5021
asg94
Nsba(ibclass
BBasicBlock
p5038
(dp5039
g12
Nsg13
(lp5040
(ibclass
BInstr
p5041
(dp5042
g2
Nsg17
S'mov     rax, [rbp+ctxt]'
p5043
sg19
S'488b45e8'
p5044
sg21
Vmov rax, qword ptr [rbp - 0x18]
p5045
sg5
L766516L
sg6
Nsg23
S'mov'
p5046
sg25
S'0xbb234L'
p5047
sg27
Nsba(ibclass
BInstr
p5048
(dp5049
g2
Nsg17
S'mov     rax, [rax]'
p5050
sg19
S'488b00'
p5051
sg21
Vmov rax, qword ptr [rax]
p5052
sg5
L766520L
sg6
Nsg23
S'mov'
p5053
sg25
S'0xbb238L'
p5054
sg27
Nsba(ibclass
BInstr
p5055
(dp5056
g2
Nsg17
S'movzx   eax, byte ptr [rax]'
p5057
sg19
S'0fb600'
p5058
sg21
Vmovzx eax, byte ptr [rax]
p5059
sg5
L766523L
sg6
Nsg23
S'movzx'
p5060
sg25
S'0xbb23bL'
p5061
sg27
Nsba(ibclass
BInstr
p5062
(dp5063
g2
Nsg17
S'cmp     al, 0Dh'
p5064
sg19
S'3c0d'
p5065
sg21
Vcmp al, 0xd
p5066
sg5
L766526L
sg6
Nsg23
S'cmp'
p5067
sg25
S'0xbb23eL'
p5068
sg27
Nsba(ibclass
BInstr
p5069
(dp5070
g2
Nsg17
S'jz      short loc_BB1EA'
p5071
sg19
S'74a8'
p5072
sg21
Vje 0xffffffffffffffaa
p5073
sg5
L766528L
sg6
Nsg23
S'jz'
p5074
sg25
S'0xbb240L'
p5075
sg27
Nsbasg70
(lp5076
S'mov reg, mem'
p5077
aS'mov reg, mem'
p5078
aS'movzx reg, mem'
p5079
aS'cmp reg, 0Dh'
p5080
aS'jz func'
p5081
asg79
Nsg5
S'0xbb234L'
p5082
sg81
(lp5083
S'0xbb218L'
p5084
aS'0xbb226L'
p5085
asg6
Nsg83
(lp5086
S'0xbb1eaL'
p5087
aS'0xbb242L'
p5088
asg86
Nsg87
Nsg88
S'02bb03f931a7fe57ff72866cf79084c1'
p5089
sg90
S'2fd6b9095b1aaa7ef51e20b5e5eed68c'
p5090
sg92
(lp5091
g5046
ag5053
ag5060
ag5067
ag5074
asg94
Nsba(ibclass
BBasicBlock
p5092
(dp5093
g12
Nsg13
(lp5094
(ibclass
BInstr
p5095
(dp5096
g2
Nsg17
S'jmp     short locret_BB245'
p5097
sg19
S'eb01'
p5098
sg21
Vjmp 3
p5099
sg5
L766530L
sg6
Nsg23
S'jmp'
p5100
sg25
S'0xbb242L'
p5101
sg27
Nsbasg70
(lp5102
S'jmp short func'
p5103
asg79
Nsg5
S'0xbb242L'
p5104
sg81
(lp5105
S'0xbb234L'
p5106
asg6
Nsg83
(lp5107
S'0xbb245L'
p5108
asg86
Nsg87
Nsg88
S'0ef6cf926f2f394b0cc8e11be8022625'
p5109
sg90
S'd15089f36a1f2c4686ef066630b68fdc'
p5110
sg92
(lp5111
g5100
asg94
Nsba(ibclass
BBasicBlock
p5112
(dp5113
g12
Nsg13
(lp5114
(ibclass
BInstr
p5115
(dp5116
g2
Nsg17
S'nop'
p5117
sg19
S'90'
p5118
sg21
Vnop 
p5119
sg5
L766532L
sg6
Nsg23
S'nop'
p5120
sg25
S'0xbb244L'
p5121
sg27
Nsbasg70
(lp5122
g5117
asg79
Nsg5
S'0xbb244L'
p5123
sg81
(lp5124
S'0xbb093L'
p5125
asg6
Nsg83
(lp5126
S'0xbb245L'
p5127
asg86
Nsg87
Nsg88
S'a571d969c8661fb0342afd08e571dfa0'
p5128
sg90
S'a571d969c8661fb0342afd08e571dfa0'
p5129
sg92
(lp5130
g5120
asg94
Nsba(ibclass
BBasicBlock
p5131
(dp5132
g12
Nsg13
(lp5133
(ibclass
BInstr
p5134
(dp5135
g2
Nsg17
S'leave'
p5136
sg19
S'c9'
p5137
sg21
Vleave 
p5138
sg5
L766533L
sg6
Nsg23
S'leave'
p5139
sg25
S'0xbb245L'
p5140
sg27
Nsba(ibclass
BInstr
p5141
(dp5142
g2
Nsg17
S'retn'
p5143
sg19
S'c3'
p5144
sg21
Vret 
p5145
sg5
L766534L
sg6
Nsg23
S'retn'
p5146
sg25
S'0xbb246L'
p5147
sg27
Nsbasg70
(lp5148
g5136
ag5143
asg79
Nsg5
S'0xbb245L'
p5149
sg81
(lp5150
S'0xbafe0L'
p5151
aS'0xbb242L'
p5152
aS'0xbb244L'
p5153
asg6
Nsg83
(lp5154
sg86
Nsg87
Nsg88
S'08c78f73a6f87c85da88b2982f54ce2a'
p5155
sg90
S'08c78f73a6f87c85da88b2982f54ce2a'
p5156
sg92
(lp5157
g5139
ag5146
asg94
Nsbasb.