(ibclass
BFunc
p0
(dp1
S'hash'
p2
NsS'name'
p3
S'xmlXPtrNewContext__internal_alias'
p4
sS'start_address'
p5
L819784L
sS'flag'
p6
NsS'program'
p7
NsS'bbs'
p8
(lp9
(ibclass
BBasicBlock
p10
(dp11
S'function'
p12
NsS'binstrs'
p13
(lp14
(ibclass
BInstr
p15
(dp16
g2
NsS'disasm'
p17
S"push    rbp             ; Alternative name is 'xmlXPtrNewContext'"
p18
sS'bytes'
p19
S'55'
p20
sS'disasm_striped'
p21
Vpush rbp
p22
sg5
L819784L
sg6
NsS'mnem'
p23
S'push'
p24
sS'address'
p25
S'0xc8248L'
p26
sS'basicblock'
p27
Nsba(ibclass
BInstr
p28
(dp29
g2
Nsg17
S'mov     rbp, rsp'
p30
sg19
S'4889e5'
p31
sg21
Vmov rbp, rsp
p32
sg5
L819785L
sg6
Nsg23
S'mov'
p33
sg25
S'0xc8249L'
p34
sg27
Nsba(ibclass
BInstr
p35
(dp36
g2
Nsg17
S'sub     rsp, 30h'
p37
sg19
S'4883ec30'
p38
sg21
Vsub rsp, 0x30
p39
sg5
L819788L
sg6
Nsg23
S'sub'
p40
sg25
S'0xc824cL'
p41
sg27
Nsba(ibclass
BInstr
p42
(dp43
g2
Nsg17
S'mov     [rbp+doc], rdi'
p44
sg19
S'48897de8'
p45
sg21
Vmov qword ptr [rbp - 0x18], rdi
p46
sg5
L819792L
sg6
Nsg23
S'mov'
p47
sg25
S'0xc8250L'
p48
sg27
Nsba(ibclass
BInstr
p49
(dp50
g2
Nsg17
S'mov     [rbp+here], rsi'
p51
sg19
S'488975e0'
p52
sg21
Vmov qword ptr [rbp - 0x20], rsi
p53
sg5
L819796L
sg6
Nsg23
S'mov'
p54
sg25
S'0xc8254L'
p55
sg27
Nsba(ibclass
BInstr
p56
(dp57
g2
Nsg17
S'mov     [rbp+origin], rdx'
p58
sg19
S'488955d8'
p59
sg21
Vmov qword ptr [rbp - 0x28], rdx
p60
sg5
L819800L
sg6
Nsg23
S'mov'
p61
sg25
S'0xc8258L'
p62
sg27
Nsba(ibclass
BInstr
p63
(dp64
g2
Nsg17
S'mov     rax, [rbp+doc]'
p65
sg19
S'488b45e8'
p66
sg21
Vmov rax, qword ptr [rbp - 0x18]
p67
sg5
L819804L
sg6
Nsg23
S'mov'
p68
sg25
S'0xc825cL'
p69
sg27
Nsba(ibclass
BInstr
p70
(dp71
g2
Nsg17
S'mov     rdi, rax        ; doc'
p72
sg19
S'4889c7'
p73
sg21
Vmov rdi, rax
p74
sg5
L819808L
sg6
Nsg23
S'mov'
p75
sg25
S'0xc8260L'
p76
sg27
Nsba(ibclass
BInstr
p77
(dp78
g2
Nsg17
S'call    xmlXPathNewContext__internal_alias'
p79
sg19
S'e8ce89feff'
p80
sg21
Vcall 0xfffffffffffe89d3
p81
sg5
L819811L
sg6
Nsg23
S'call'
p82
sg25
S'0xc8263L'
p83
sg27
Nsba(ibclass
BInstr
p84
(dp85
g2
Nsg17
S'mov     [rbp+ret], rax'
p86
sg19
S'488945f8'
p87
sg21
Vmov qword ptr [rbp - 8], rax
p88
sg5
L819816L
sg6
Nsg23
S'mov'
p89
sg25
S'0xc8268L'
p90
sg27
Nsba(ibclass
BInstr
p91
(dp92
g2
Nsg17
S'cmp     [rbp+ret], 0'
p93
sg19
S'48837df800'
p94
sg21
Vcmp qword ptr [rbp - 8], 0
p95
sg5
L819820L
sg6
Nsg23
S'cmp'
p96
sg25
S'0xc826cL'
p97
sg27
Nsba(ibclass
BInstr
p98
(dp99
g2
Nsg17
S'jnz     short loc_C827C'
p100
sg19
S'7509'
p101
sg21
Vjne 0xb
p102
sg5
L819825L
sg6
Nsg23
S'jnz'
p103
sg25
S'0xc8271L'
p104
sg27
NsbasS'disasm_list'
p105
(lp106
S'push reg'
p107
aS'mov reg, reg'
p108
aS'sub reg, 30h'
p109
aS'mov mem, reg'
p110
aS'mov mem, reg'
p111
aS'mov mem, reg'
p112
aS'mov reg, mem'
p113
aS'mov reg, reg'
p114
aS'cregl xmlXPathNewContext__internreg_regias'
p115
aS'mov mem, reg'
p116
aS'cmp mem, 0'
p117
aS'jnz func'
p118
asS'end_address'
p119
Nsg5
S'0xc8248L'
p120
sS'preds'
p121
(lp122
sg6
NsS'succs'
p123
(lp124
S'0xc8273L'
p125
aS'0xc827cL'
p126
asS'hash_v3'
p127
NsS'flag_v2'
p128
NsS'hash_v1'
p129
S'a896147a763128c59213506c25d16b4b'
p130
sS'hash_v2'
p131
S'2d5d2d4f3f449fcf58de36f30ef699d5'
p132
sS'mnen_list'
p133
(lp134
g24
ag33
ag40
ag47
ag54
ag61
ag68
ag75
ag82
ag89
ag96
ag103
asS'neighbour_disasm_list'
p135
Nsba(ibclass
BBasicBlock
p136
(dp137
g12
Nsg13
(lp138
(ibclass
BInstr
p139
(dp140
g2
Nsg17
S'mov     rax, [rbp+ret]'
p141
sg19
S'488b45f8'
p142
sg21
Vmov rax, qword ptr [rbp - 8]
p143
sg5
L819827L
sg6
Nsg23
S'mov'
p144
sg25
S'0xc8273L'
p145
sg27
Nsba(ibclass
BInstr
p146
(dp147
g2
Nsg17
S'jmp     locret_C835C'
p148
sg19
S'e9e0000000'
p149
sg21
Vjmp 0xe5
p150
sg5
L819831L
sg6
Nsg23
S'jmp'
p151
sg25
S'0xc8277L'
p152
sg27
Nsbasg105
(lp153
S'mov reg, mem'
p154
aS'jmp func'
p155
asg119
Nsg5
S'0xc8273L'
p156
sg121
(lp157
S'0xc8248L'
p158
asg6
Nsg123
(lp159
S'0xc835cL'
p160
asg127
Nsg128
Nsg129
S'8b9a0d40e062be2b9b2d9885108fb196'
p161
sg131
S'fb93e62bb77eb0a3c977d8bf344bb0b7'
p162
sg133
(lp163
g144
ag151
asg135
Nsba(ibclass
BBasicBlock
p164
(dp165
g12
Nsg13
(lp166
(ibclass
BInstr
p167
(dp168
g2
Nsg17
S'mov     rax, [rbp+ret]'
p169
sg19
S'488b45f8'
p170
sg21
Vmov rax, qword ptr [rbp - 8]
p171
sg5
L819836L
sg6
Nsg23
S'mov'
p172
sg25
S'0xc827cL'
p173
sg27
Nsba(ibclass
BInstr
p174
(dp175
g2
Nsg17
S'mov     dword ptr [rax+70h], 1'
p176
sg19
S'c7407001000000'
p177
sg21
Vmov dword ptr [rax + 0x70], 1
p178
sg5
L819840L
sg6
Nsg23
S'mov'
p179
sg25
S'0xc8280L'
p180
sg27
Nsba(ibclass
BInstr
p181
(dp182
g2
Nsg17
S'mov     rax, [rbp+ret]'
p183
sg19
S'488b45f8'
p184
sg21
Vmov rax, qword ptr [rbp - 8]
p185
sg5
L819847L
sg6
Nsg23
S'mov'
p186
sg25
S'0xc8287L'
p187
sg27
Nsba(ibclass
BInstr
p188
(dp189
g2
Nsg17
S'mov     rdx, [rbp+here]'
p190
sg19
S'488b55e0'
p191
sg21
Vmov rdx, qword ptr [rbp - 0x20]
p192
sg5
L819851L
sg6
Nsg23
S'mov'
p193
sg25
S'0xc828bL'
p194
sg27
Nsba(ibclass
BInstr
p195
(dp196
g2
Nsg17
S'mov     [rax+78h], rdx'
p197
sg19
S'48895078'
p198
sg21
Vmov qword ptr [rax + 0x78], rdx
p199
sg5
L819855L
sg6
Nsg23
S'mov'
p200
sg25
S'0xc828fL'
p201
sg27
Nsba(ibclass
BInstr
p202
(dp203
g2
Nsg17
S'mov     rax, [rbp+ret]'
p204
sg19
S'488b45f8'
p205
sg21
Vmov rax, qword ptr [rbp - 8]
p206
sg5
L819859L
sg6
Nsg23
S'mov'
p207
sg25
S'0xc8293L'
p208
sg27
Nsba(ibclass
BInstr
p209
(dp210
g2
Nsg17
S'mov     rdx, [rbp+origin]'
p211
sg19
S'488b55d8'
p212
sg21
Vmov rdx, qword ptr [rbp - 0x28]
p213
sg5
L819863L
sg6
Nsg23
S'mov'
p214
sg25
S'0xc8297L'
p215
sg27
Nsba(ibclass
BInstr
p216
(dp217
g2
Nsg17
S'mov     [rax+80h], rdx'
p218
sg19
S'48899080000000'
p219
sg21
Vmov qword ptr [rax + 0x80], rdx
p220
sg5
L819867L
sg6
Nsg23
S'mov'
p221
sg25
S'0xc829bL'
p222
sg27
Nsba(ibclass
BInstr
p223
(dp224
g2
Nsg17
S'mov     rax, [rbp+ret]'
p225
sg19
S'488b45f8'
p226
sg21
Vmov rax, qword ptr [rbp - 8]
p227
sg5
L819874L
sg6
Nsg23
S'mov'
p228
sg25
S'0xc82a2L'
p229
sg27
Nsba(ibclass
BInstr
p230
(dp231
g2
Nsg17
S'lea     rdx, xmlXPtrRangeFunction; f'
p232
sg19
S'488d153d120000'
p233
sg21
Vlea rdx, [rip + 0x123d]
p234
sg5
L819878L
sg6
Nsg23
S'lea'
p235
sg25
S'0xc82a6L'
p236
sg27
Nsba(ibclass
BInstr
p237
(dp238
g2
Nsg17
S'lea     rsi, aRange     ; "range"'
p239
sg19
S'488d3548cc0b00'
p240
sg21
Vlea rsi, [rip + 0xbcc48]
p241
sg5
L819885L
sg6
Nsg23
S'lea'
p242
sg25
S'0xc82adL'
p243
sg27
Nsba(ibclass
BInstr
p244
(dp245
g2
Nsg17
S'mov     rdi, rax        ; ctxt'
p246
sg19
S'4889c7'
p247
sg21
Vmov rdi, rax
p248
sg5
L819892L
sg6
Nsg23
S'mov'
p249
sg25
S'0xc82b4L'
p250
sg27
Nsba(ibclass
BInstr
p251
(dp252
g2
Nsg17
S'call    xmlXPathRegisterFunc__internal_alias'
p253
sg19
S'e8c26efeff'
p254
sg21
Vcall 0xfffffffffffe6ec7
p255
sg5
L819895L
sg6
Nsg23
S'call'
p256
sg25
S'0xc82b7L'
p257
sg27
Nsba(ibclass
BInstr
p258
(dp259
g2
Nsg17
S'mov     rax, [rbp+ret]'
p260
sg19
S'488b45f8'
p261
sg21
Vmov rax, qword ptr [rbp - 8]
p262
sg5
L819900L
sg6
Nsg23
S'mov'
p263
sg25
S'0xc82bcL'
p264
sg27
Nsba(ibclass
BInstr
p265
(dp266
g2
Nsg17
S'lea     rdx, xmlXPtrRangeInsideFunction; f'
p267
sg19
S'488d15d8150000'
p268
sg21
Vlea rdx, [rip + 0x15d8]
p269
sg5
L819904L
sg6
Nsg23
S'lea'
p270
sg25
S'0xc82c0L'
p271
sg27
Nsba(ibclass
BInstr
p272
(dp273
g2
Nsg17
S'lea     rsi, aRangeInside; "range-inside"'
p274
sg19
S'488d3534cc0b00'
p275
sg21
Vlea rsi, [rip + 0xbcc34]
p276
sg5
L819911L
sg6
Nsg23
S'lea'
p277
sg25
S'0xc82c7L'
p278
sg27
Nsba(ibclass
BInstr
p279
(dp280
g2
Nsg17
S'mov     rdi, rax        ; ctxt'
p281
sg19
S'4889c7'
p282
sg21
Vmov rdi, rax
p283
sg5
L819918L
sg6
Nsg23
S'mov'
p284
sg25
S'0xc82ceL'
p285
sg27
Nsba(ibclass
BInstr
p286
(dp287
g2
Nsg17
S'call    xmlXPathRegisterFunc__internal_alias'
p288
sg19
S'e8a86efeff'
p289
sg21
Vcall 0xfffffffffffe6ead
p290
sg5
L819921L
sg6
Nsg23
S'call'
p291
sg25
S'0xc82d1L'
p292
sg27
Nsba(ibclass
BInstr
p293
(dp294
g2
Nsg17
S'mov     rax, [rbp+ret]'
p295
sg19
S'488b45f8'
p296
sg21
Vmov rax, qword ptr [rbp - 8]
p297
sg5
L819926L
sg6
Nsg23
S'mov'
p298
sg25
S'0xc82d6L'
p299
sg27
Nsba(ibclass
BInstr
p300
(dp301
g2
Nsg17
S'lea     rdx, xmlXPtrStringRangeFunction; f'
p302
sg19
S'488d1505210000'
p303
sg21
Vlea rdx, [rip + 0x2105]
p304
sg5
L819930L
sg6
Nsg23
S'lea'
p305
sg25
S'0xc82daL'
p306
sg27
Nsba(ibclass
BInstr
p307
(dp308
g2
Nsg17
S'lea     rsi, aStringRange; "string-range"'
p309
sg19
S'488d3527cc0b00'
p310
sg21
Vlea rsi, [rip + 0xbcc27]
p311
sg5
L819937L
sg6
Nsg23
S'lea'
p312
sg25
S'0xc82e1L'
p313
sg27
Nsba(ibclass
BInstr
p314
(dp315
g2
Nsg17
S'mov     rdi, rax        ; ctxt'
p316
sg19
S'4889c7'
p317
sg21
Vmov rdi, rax
p318
sg5
L819944L
sg6
Nsg23
S'mov'
p319
sg25
S'0xc82e8L'
p320
sg27
Nsba(ibclass
BInstr
p321
(dp322
g2
Nsg17
S'call    xmlXPathRegisterFunc__internal_alias'
p323
sg19
S'e88e6efeff'
p324
sg21
Vcall 0xfffffffffffe6e93
p325
sg5
L819947L
sg6
Nsg23
S'call'
p326
sg25
S'0xc82ebL'
p327
sg27
Nsba(ibclass
BInstr
p328
(dp329
g2
Nsg17
S'mov     rax, [rbp+ret]'
p330
sg19
S'488b45f8'
p331
sg21
Vmov rax, qword ptr [rbp - 8]
p332
sg5
L819952L
sg6
Nsg23
S'mov'
p333
sg25
S'0xc82f0L'
p334
sg27
Nsba(ibclass
BInstr
p335
(dp336
g2
Nsg17
S'lea     rdx, xmlXPtrStartPointFunction; f'
p337
sg19
S'488d15710b0000'
p338
sg21
Vlea rdx, [rip + 0xb71]
p339
sg5
L819956L
sg6
Nsg23
S'lea'
p340
sg25
S'0xc82f4L'
p341
sg27
Nsba(ibclass
BInstr
p342
(dp343
g2
Nsg17
S'lea     rsi, aStartPoint; "start-point"'
p344
sg19
S'488d351acc0b00'
p345
sg21
Vlea rsi, [rip + 0xbcc1a]
p346
sg5
L819963L
sg6
Nsg23
S'lea'
p347
sg25
S'0xc82fbL'
p348
sg27
Nsba(ibclass
BInstr
p349
(dp350
g2
Nsg17
S'mov     rdi, rax        ; ctxt'
p351
sg19
S'4889c7'
p352
sg21
Vmov rdi, rax
p353
sg5
L819970L
sg6
Nsg23
S'mov'
p354
sg25
S'0xc8302L'
p355
sg27
Nsba(ibclass
BInstr
p356
(dp357
g2
Nsg17
S'call    xmlXPathRegisterFunc__internal_alias'
p358
sg19
S'e8746efeff'
p359
sg21
Vcall 0xfffffffffffe6e79
p360
sg5
L819973L
sg6
Nsg23
S'call'
p361
sg25
S'0xc8305L'
p362
sg27
Nsba(ibclass
BInstr
p363
(dp364
g2
Nsg17
S'mov     rax, [rbp+ret]'
p365
sg19
S'488b45f8'
p366
sg21
Vmov rax, qword ptr [rbp - 8]
p367
sg5
L819978L
sg6
Nsg23
S'mov'
p368
sg25
S'0xc830aL'
p369
sg27
Nsba(ibclass
BInstr
p370
(dp371
g2
Nsg17
S'lea     rdx, xmlXPtrEndPointFunction; f'
p372
sg19
S'488d15a10d0000'
p373
sg21
Vlea rdx, [rip + 0xda1]
p374
sg5
L819982L
sg6
Nsg23
S'lea'
p375
sg25
S'0xc830eL'
p376
sg27
Nsba(ibclass
BInstr
p377
(dp378
g2
Nsg17
S'lea     rsi, aEndPoint  ; "end-point"'
p379
sg19
S'488d350ccc0b00'
p380
sg21
Vlea rsi, [rip + 0xbcc0c]
p381
sg5
L819989L
sg6
Nsg23
S'lea'
p382
sg25
S'0xc8315L'
p383
sg27
Nsba(ibclass
BInstr
p384
(dp385
g2
Nsg17
S'mov     rdi, rax        ; ctxt'
p386
sg19
S'4889c7'
p387
sg21
Vmov rdi, rax
p388
sg5
L819996L
sg6
Nsg23
S'mov'
p389
sg25
S'0xc831cL'
p390
sg27
Nsba(ibclass
BInstr
p391
(dp392
g2
Nsg17
S'call    xmlXPathRegisterFunc__internal_alias'
p393
sg19
S'e85a6efeff'
p394
sg21
Vcall 0xfffffffffffe6e5f
p395
sg5
L819999L
sg6
Nsg23
S'call'
p396
sg25
S'0xc831fL'
p397
sg27
Nsba(ibclass
BInstr
p398
(dp399
g2
Nsg17
S'mov     rax, [rbp+ret]'
p400
sg19
S'488b45f8'
p401
sg21
Vmov rax, qword ptr [rbp - 8]
p402
sg5
L820004L
sg6
Nsg23
S'mov'
p403
sg25
S'0xc8324L'
p404
sg27
Nsba(ibclass
BInstr
p405
(dp406
g2
Nsg17
S'lea     rdx, xmlXPtrHereFunction; f'
p407
sg19
S'488d15310a0000'
p408
sg21
Vlea rdx, [rip + 0xa31]
p409
sg5
L820008L
sg6
Nsg23
S'lea'
p410
sg25
S'0xc8328L'
p411
sg27
Nsba(ibclass
BInstr
p412
(dp413
g2
Nsg17
S'lea     rsi, aHere      ; "here"'
p414
sg19
S'488d35fccb0b00'
p415
sg21
Vlea rsi, [rip + 0xbcbfc]
p416
sg5
L820015L
sg6
Nsg23
S'lea'
p417
sg25
S'0xc832fL'
p418
sg27
Nsba(ibclass
BInstr
p419
(dp420
g2
Nsg17
S'mov     rdi, rax        ; ctxt'
p421
sg19
S'4889c7'
p422
sg21
Vmov rdi, rax
p423
sg5
L820022L
sg6
Nsg23
S'mov'
p424
sg25
S'0xc8336L'
p425
sg27
Nsba(ibclass
BInstr
p426
(dp427
g2
Nsg17
S'call    xmlXPathRegisterFunc__internal_alias'
p428
sg19
S'e8406efeff'
p429
sg21
Vcall 0xfffffffffffe6e45
p430
sg5
L820025L
sg6
Nsg23
S'call'
p431
sg25
S'0xc8339L'
p432
sg27
Nsba(ibclass
BInstr
p433
(dp434
g2
Nsg17
S'mov     rax, [rbp+ret]'
p435
sg19
S'488b45f8'
p436
sg21
Vmov rax, qword ptr [rbp - 8]
p437
sg5
L820030L
sg6
Nsg23
S'mov'
p438
sg25
S'0xc833eL'
p439
sg27
Nsba(ibclass
BInstr
p440
(dp441
g2
Nsg17
S'lea     rdx, xmlXPtrOriginFunction; f'
p442
sg19
S'488d159a0a0000'
p443
sg21
Vlea rdx, [rip + 0xa9a]
p444
sg5
L820034L
sg6
Nsg23
S'lea'
p445
sg25
S'0xc8342L'
p446
sg27
Nsba(ibclass
BInstr
p447
(dp448
g2
Nsg17
S'lea     rsi, aOrigin    ; " origin"'
p449
sg19
S'488d35e7cb0b00'
p450
sg21
Vlea rsi, [rip + 0xbcbe7]
p451
sg5
L820041L
sg6
Nsg23
S'lea'
p452
sg25
S'0xc8349L'
p453
sg27
Nsba(ibclass
BInstr
p454
(dp455
g2
Nsg17
S'mov     rdi, rax        ; ctxt'
p456
sg19
S'4889c7'
p457
sg21
Vmov rdi, rax
p458
sg5
L820048L
sg6
Nsg23
S'mov'
p459
sg25
S'0xc8350L'
p460
sg27
Nsba(ibclass
BInstr
p461
(dp462
g2
Nsg17
S'call    xmlXPathRegisterFunc__internal_alias'
p463
sg19
S'e8266efeff'
p464
sg21
Vcall 0xfffffffffffe6e2b
p465
sg5
L820051L
sg6
Nsg23
S'call'
p466
sg25
S'0xc8353L'
p467
sg27
Nsba(ibclass
BInstr
p468
(dp469
g2
Nsg17
S'mov     rax, [rbp+ret]'
p470
sg19
S'488b45f8'
p471
sg21
Vmov rax, qword ptr [rbp - 8]
p472
sg5
L820056L
sg6
Nsg23
S'mov'
p473
sg25
S'0xc8358L'
p474
sg27
Nsbasg105
(lp475
S'mov reg, mem'
p476
aS'mov mem, 1'
p477
aS'mov reg, mem'
p478
aS'mov reg, mem'
p479
aS'mov mem, reg'
p480
aS'mov reg, mem'
p481
aS'mov reg, mem'
p482
aS'mov mem, reg'
p483
aS'mov reg, mem'
p484
aS'lea reg, xmlXPtrRangeFunction'
p485
aS'lea reg, aRange'
p486
aS'mov reg, reg'
p487
aS'cregl xmlXPathRegisterFunc__internreg_regias'
p488
aS'mov reg, mem'
p489
aS'lea reg, xmlXPtrRangeInregdeFunction'
p490
aS'lea reg, aRangeInregde'
p491
aS'mov reg, reg'
p492
aS'cregl xmlXPathRegisterFunc__internreg_regias'
p493
aS'mov reg, mem'
p494
aS'lea reg, xmlXPtrStringRangeFunction'
p495
aS'lea reg, aStringRange'
p496
aS'mov reg, reg'
p497
aS'cregl xmlXPathRegisterFunc__internreg_regias'
p498
aS'mov reg, mem'
p499
aS'lea reg, xmlXPtrStartPointFunction'
p500
aS'lea reg, aStartPoint'
p501
aS'mov reg, reg'
p502
aS'cregl xmlXPathRegisterFunc__internreg_regias'
p503
aS'mov reg, mem'
p504
aS'lea reg, xmlXPtrEndPointFunction'
p505
aS'lea reg, aEndPoint'
p506
aS'mov reg, reg'
p507
aS'cregl xmlXPathRegisterFunc__internreg_regias'
p508
aS'mov reg, mem'
p509
aS'lea reg, xmlXPtrHereFunction'
p510
aS'lea reg, aHere'
p511
aS'mov reg, reg'
p512
aS'cregl xmlXPathRegisterFunc__internreg_regias'
p513
aS'mov reg, mem'
p514
aS'lea reg, xmlXPtrOriginFunction'
p515
aS'lea reg, aOrigin'
p516
aS'mov reg, reg'
p517
aS'cregl xmlXPathRegisterFunc__internreg_regias'
p518
aS'mov reg, mem'
p519
asg119
Nsg5
S'0xc827cL'
p520
sg121
(lp521
S'0xc8248L'
p522
asg6
Nsg123
(lp523
S'0xc835cL'
p524
asg127
Nsg128
Nsg129
S'5951e47ca7a5ab3539f9b2093b639148'
p525
sg131
S'e38cdcb57fbfeaeb7ca3cab29e9a2081'
p526
sg133
(lp527
g172
ag179
ag186
ag193
ag200
ag207
ag214
ag221
ag228
ag235
ag242
ag249
ag256
ag263
ag270
ag277
ag284
ag291
ag298
ag305
ag312
ag319
ag326
ag333
ag340
ag347
ag354
ag361
ag368
ag375
ag382
ag389
ag396
ag403
ag410
ag417
ag424
ag431
ag438
ag445
ag452
ag459
ag466
ag473
asg135
Nsba(ibclass
BBasicBlock
p528
(dp529
g12
Nsg13
(lp530
(ibclass
BInstr
p531
(dp532
g2
Nsg17
S'leave'
p533
sg19
S'c9'
p534
sg21
Vleave 
p535
sg5
L820060L
sg6
Nsg23
S'leave'
p536
sg25
S'0xc835cL'
p537
sg27
Nsba(ibclass
BInstr
p538
(dp539
g2
Nsg17
S'retn'
p540
sg19
S'c3'
p541
sg21
Vret 
p542
sg5
L820061L
sg6
Nsg23
S'retn'
p543
sg25
S'0xc835dL'
p544
sg27
Nsbasg105
(lp545
g533
ag540
asg119
Nsg5
S'0xc835cL'
p546
sg121
(lp547
S'0xc8273L'
p548
aS'0xc827cL'
p549
asg6
Nsg123
(lp550
sg127
Nsg128
Nsg129
S'08c78f73a6f87c85da88b2982f54ce2a'
p551
sg131
S'08c78f73a6f87c85da88b2982f54ce2a'
p552
sg133
(lp553
g536
ag543
asg135
Nsbasb.