(ibclass
BFunc
p0
(dp1
S'hash'
p2
NsS'name'
p3
S'generate_hash_secret_salt'
p4
sS'start_address'
p5
L15766L
sS'flag'
p6
NsS'program'
p7
NsS'bbs'
p8
(lp9
(ibclass
BBasicBlock
p10
(dp11
S'function'
p12
NsS'binstrs'
p13
(lp14
(ibclass
BInstr
p15
(dp16
g2
NsS'disasm'
p17
S'push    rbp'
p18
sS'bytes'
p19
S'55'
p20
sS'disasm_striped'
p21
Vpush rbp
p22
sg5
L15766L
sg6
NsS'mnem'
p23
S'push'
p24
sS'address'
p25
S'0x3d96L'
p26
sS'basicblock'
p27
Nsba(ibclass
BInstr
p28
(dp29
g2
Nsg17
S'mov     rbp, rsp'
p30
sg19
S'4889e5'
p31
sg21
Vmov rbp, rsp
p32
sg5
L15767L
sg6
Nsg23
S'mov'
p33
sg25
S'0x3d97L'
p34
sg27
Nsba(ibclass
BInstr
p35
(dp36
g2
Nsg17
S'sub     rsp, 10h'
p37
sg19
S'4883ec10'
p38
sg21
Vsub rsp, 0x10
p39
sg5
L15770L
sg6
Nsg23
S'sub'
p40
sg25
S'0x3d9aL'
p41
sg27
Nsba(ibclass
BInstr
p42
(dp43
g2
Nsg17
S'mov     edi, 0          ; timer'
p44
sg19
S'bf00000000'
p45
sg21
Vmov edi, 0
p46
sg5
L15774L
sg6
Nsg23
S'mov'
p47
sg25
S'0x3d9eL'
p48
sg27
Nsba(ibclass
BInstr
p49
(dp50
g2
Nsg17
S'call    _time'
p51
sg19
S'e818feffff'
p52
sg21
Vcall 0xfffffffffffffe1d
p53
sg5
L15779L
sg6
Nsg23
S'call'
p54
sg25
S'0x3da3L'
p55
sg27
Nsba(ibclass
BInstr
p56
(dp57
g2
Nsg17
S'mov     rcx, rax'
p58
sg19
S'4889c1'
p59
sg21
Vmov rcx, rax
p60
sg5
L15784L
sg6
Nsg23
S'mov'
p61
sg25
S'0x3da8L'
p62
sg27
Nsba(ibclass
BInstr
p63
(dp64
g2
Nsg17
S'mov     rdx, 8000000080000001h'
p65
sg19
S'48ba0100008000000080'
p66
sg21
Vmovabs rdx, 0x8000000080000001
p67
sg5
L15787L
sg6
Nsg23
S'mov'
p68
sg25
S'0x3dabL'
p69
sg27
Nsba(ibclass
BInstr
p70
(dp71
g2
Nsg17
S'mov     rax, rcx'
p72
sg19
S'4889c8'
p73
sg21
Vmov rax, rcx
p74
sg5
L15797L
sg6
Nsg23
S'mov'
p75
sg25
S'0x3db5L'
p76
sg27
Nsba(ibclass
BInstr
p77
(dp78
g2
Nsg17
S'imul    rdx'
p79
sg19
S'48f7ea'
p80
sg21
Vimul rdx
p81
sg5
L15800L
sg6
Nsg23
S'imul'
p82
sg25
S'0x3db8L'
p83
sg27
Nsba(ibclass
BInstr
p84
(dp85
g2
Nsg17
S'lea     rax, [rdx+rcx]'
p86
sg19
S'488d040a'
p87
sg21
Vlea rax, [rdx + rcx]
p88
sg5
L15803L
sg6
Nsg23
S'lea'
p89
sg25
S'0x3dbbL'
p90
sg27
Nsba(ibclass
BInstr
p91
(dp92
g2
Nsg17
S'sar     rax, 1Fh'
p93
sg19
S'48c1f81f'
p94
sg21
Vsar rax, 0x1f
p95
sg5
L15807L
sg6
Nsg23
S'sar'
p96
sg25
S'0x3dbfL'
p97
sg27
Nsba(ibclass
BInstr
p98
(dp99
g2
Nsg17
S'mov     rdx, rax'
p100
sg19
S'4889c2'
p101
sg21
Vmov rdx, rax
p102
sg5
L15811L
sg6
Nsg23
S'mov'
p103
sg25
S'0x3dc3L'
p104
sg27
Nsba(ibclass
BInstr
p105
(dp106
g2
Nsg17
S'mov     rax, rcx'
p107
sg19
S'4889c8'
p108
sg21
Vmov rax, rcx
p109
sg5
L15814L
sg6
Nsg23
S'mov'
p110
sg25
S'0x3dc6L'
p111
sg27
Nsba(ibclass
BInstr
p112
(dp113
g2
Nsg17
S'sar     rax, 3Fh'
p114
sg19
S'48c1f83f'
p115
sg21
Vsar rax, 0x3f
p116
sg5
L15817L
sg6
Nsg23
S'sar'
p117
sg25
S'0x3dc9L'
p118
sg27
Nsba(ibclass
BInstr
p119
(dp120
g2
Nsg17
S'sub     rdx, rax'
p121
sg19
S'4829c2'
p122
sg21
Vsub rdx, rax
p123
sg5
L15821L
sg6
Nsg23
S'sub'
p124
sg25
S'0x3dcdL'
p125
sg27
Nsba(ibclass
BInstr
p126
(dp127
g2
Nsg17
S'mov     rax, rdx'
p128
sg19
S'4889d0'
p129
sg21
Vmov rax, rdx
p130
sg5
L15824L
sg6
Nsg23
S'mov'
p131
sg25
S'0x3dd0L'
p132
sg27
Nsba(ibclass
BInstr
p133
(dp134
g2
Nsg17
S'mov     rdx, rax'
p135
sg19
S'4889c2'
p136
sg21
Vmov rdx, rax
p137
sg5
L15827L
sg6
Nsg23
S'mov'
p138
sg25
S'0x3dd3L'
p139
sg27
Nsba(ibclass
BInstr
p140
(dp141
g2
Nsg17
S'shl     rdx, 20h'
p142
sg19
S'48c1e220'
p143
sg21
Vshl rdx, 0x20
p144
sg5
L15830L
sg6
Nsg23
S'shl'
p145
sg25
S'0x3dd6L'
p146
sg27
Nsba(ibclass
BInstr
p147
(dp148
g2
Nsg17
S'sub     rdx, rax'
p149
sg19
S'4829c2'
p150
sg21
Vsub rdx, rax
p151
sg5
L15834L
sg6
Nsg23
S'sub'
p152
sg25
S'0x3ddaL'
p153
sg27
Nsba(ibclass
BInstr
p154
(dp155
g2
Nsg17
S'mov     rax, rcx'
p156
sg19
S'4889c8'
p157
sg21
Vmov rax, rcx
p158
sg5
L15837L
sg6
Nsg23
S'mov'
p159
sg25
S'0x3dddL'
p160
sg27
Nsba(ibclass
BInstr
p161
(dp162
g2
Nsg17
S'sub     rax, rdx'
p163
sg19
S'4829d0'
p164
sg21
Vsub rax, rdx
p165
sg5
L15840L
sg6
Nsg23
S'sub'
p166
sg25
S'0x3de0L'
p167
sg27
Nsba(ibclass
BInstr
p168
(dp169
g2
Nsg17
S'mov     [rbp+seed], eax'
p170
sg19
S'8945fc'
p171
sg21
Vmov dword ptr [rbp - 4], eax
p172
sg5
L15843L
sg6
Nsg23
S'mov'
p173
sg25
S'0x3de3L'
p174
sg27
Nsba(ibclass
BInstr
p175
(dp176
g2
Nsg17
S'mov     eax, [rbp+seed]'
p177
sg19
S'8b45fc'
p178
sg21
Vmov eax, dword ptr [rbp - 4]
p179
sg5
L15846L
sg6
Nsg23
S'mov'
p180
sg25
S'0x3de6L'
p181
sg27
Nsba(ibclass
BInstr
p182
(dp183
g2
Nsg17
S'mov     edi, eax        ; seed'
p184
sg19
S'89c7'
p185
sg21
Vmov edi, eax
p186
sg5
L15849L
sg6
Nsg23
S'mov'
p187
sg25
S'0x3de9L'
p188
sg27
Nsba(ibclass
BInstr
p189
(dp190
g2
Nsg17
S'call    _srand'
p191
sg19
S'e8a0fdffff'
p192
sg21
Vcall 0xfffffffffffffda5
p193
sg5
L15851L
sg6
Nsg23
S'call'
p194
sg25
S'0x3debL'
p195
sg27
Nsba(ibclass
BInstr
p196
(dp197
g2
Nsg17
S'call    _rand'
p198
sg19
S'e8fbfdffff'
p199
sg21
Vcall 0xfffffffffffffe00
p200
sg5
L15856L
sg6
Nsg23
S'call'
p201
sg25
S'0x3df0L'
p202
sg27
Nsba(ibclass
BInstr
p203
(dp204
g2
Nsg17
S'cdqe'
p205
sg19
S'4898'
p206
sg21
Vcdqe 
p207
sg5
L15861L
sg6
Nsg23
S'cdqe'
p208
sg25
S'0x3df5L'
p209
sg27
Nsba(ibclass
BInstr
p210
(dp211
g2
Nsg17
S'leave'
p212
sg19
S'c9'
p213
sg21
Vleave 
p214
sg5
L15863L
sg6
Nsg23
S'leave'
p215
sg25
S'0x3df7L'
p216
sg27
Nsba(ibclass
BInstr
p217
(dp218
g2
Nsg17
S'retn'
p219
sg19
S'c3'
p220
sg21
Vret 
p221
sg5
L15864L
sg6
Nsg23
S'retn'
p222
sg25
S'0x3df8L'
p223
sg27
NsbasS'disasm_list'
p224
(lp225
S'push reg'
p226
aS'mov reg, reg'
p227
aS'sub reg, 10h'
p228
aS'mov reg, 0'
p229
aS'cregl _time'
p230
aS'mov reg, reg'
p231
aS'mov reg, 8000000080000001h'
p232
aS'mov reg, reg'
p233
aS'imul reg'
p234
aS'lea reg, mem'
p235
aS'sar reg, 1Fh'
p236
aS'mov reg, reg'
p237
aS'mov reg, reg'
p238
aS'sar reg, 3Fh'
p239
aS'sub reg, reg'
p240
aS'mov reg, reg'
p241
aS'mov reg, reg'
p242
aS'shl reg, 20h'
p243
aS'sub reg, reg'
p244
aS'mov reg, reg'
p245
aS'sub reg, reg'
p246
aS'mov mem, reg'
p247
aS'mov reg, mem'
p248
aS'mov reg, reg'
p249
aS'cregl _srand'
p250
aS'cregl _rand'
p251
ag205
ag212
ag219
asS'end_address'
p252
Nsg5
S'0x3d96L'
p253
sS'preds'
p254
(lp255
sg6
NsS'succs'
p256
(lp257
sS'hash_v3'
p258
NsS'flag_v2'
p259
NsS'hash_v1'
p260
S'ce4a50327f404fc861d2e9a34822aafe'
p261
sS'hash_v2'
p262
S'dc1595a14928bc115fce918f9b3bdb13'
p263
sS'mnen_list'
p264
(lp265
g24
ag33
ag40
ag47
ag54
ag61
ag68
ag75
ag82
ag89
ag96
ag103
ag110
ag117
ag124
ag131
ag138
ag145
ag152
ag159
ag166
ag173
ag180
ag187
ag194
ag201
ag208
ag215
ag222
asS'neighbour_disasm_list'
p266
Nsbasb.