(ibclass
BFunc
p0
(dp1
S'hash'
p2
NsS'name'
p3
S'generate_hash_secret_salt'
p4
sS'start_address'
p5
L15872L
sS'flag'
p6
NsS'program'
p7
NsS'bbs'
p8
(lp9
(ibclass
BBasicBlock
p10
(dp11
S'function'
p12
NsS'binstrs'
p13
(lp14
(ibclass
BInstr
p15
(dp16
g2
NsS'disasm'
p17
S'push    rbp'
p18
sS'bytes'
p19
S'55'
p20
sS'disasm_striped'
p21
Vpush rbp
p22
sg5
L15872L
sg6
NsS'mnem'
p23
S'push'
p24
sS'address'
p25
S'0x3e00L'
p26
sS'basicblock'
p27
Nsba(ibclass
BInstr
p28
(dp29
g2
Nsg17
S'mov     rbp, rsp'
p30
sg19
S'4889e5'
p31
sg21
Vmov rbp, rsp
p32
sg5
L15873L
sg6
Nsg23
S'mov'
p33
sg25
S'0x3e01L'
p34
sg27
Nsba(ibclass
BInstr
p35
(dp36
g2
Nsg17
S'push    rbx'
p37
sg19
S'53'
p38
sg21
Vpush rbx
p39
sg5
L15876L
sg6
Nsg23
S'push'
p40
sg25
S'0x3e04L'
p41
sg27
Nsba(ibclass
BInstr
p42
(dp43
g2
Nsg17
S'sub     rsp, 28h'
p44
sg19
S'4883ec28'
p45
sg21
Vsub rsp, 0x28
p46
sg5
L15877L
sg6
Nsg23
S'sub'
p47
sg25
S'0x3e05L'
p48
sg27
Nsba(ibclass
BInstr
p49
(dp50
g2
Nsg17
S'mov     [rbp+parser], rdi'
p51
sg19
S'48897dd8'
p52
sg21
Vmov qword ptr [rbp - 0x28], rdi
p53
sg5
L15881L
sg6
Nsg23
S'mov'
p54
sg25
S'0x3e09L'
p55
sg27
Nsba(ibclass
BInstr
p56
(dp57
g2
Nsg17
S'call    gather_time_entropy'
p58
sg19
S'e884ffffff'
p59
sg21
Vcall 0xffffffffffffff89
p60
sg5
L15885L
sg6
Nsg23
S'call'
p61
sg25
S'0x3e0dL'
p62
sg27
Nsba(ibclass
BInstr
p63
(dp64
g2
Nsg17
S'mov     rbx, rax'
p65
sg19
S'4889c3'
p66
sg21
Vmov rbx, rax
p67
sg5
L15890L
sg6
Nsg23
S'mov'
p68
sg25
S'0x3e12L'
p69
sg27
Nsba(ibclass
BInstr
p70
(dp71
g2
Nsg17
S'call    _getpid'
p72
sg19
S'e856fdffff'
p73
sg21
Vcall 0xfffffffffffffd5b
p74
sg5
L15893L
sg6
Nsg23
S'call'
p75
sg25
S'0x3e15L'
p76
sg27
Nsba(ibclass
BInstr
p77
(dp78
g2
Nsg17
S'cdqe'
p79
sg19
S'4898'
p80
sg21
Vcdqe 
p81
sg5
L15898L
sg6
Nsg23
S'cdqe'
p82
sg25
S'0x3e1aL'
p83
sg27
Nsba(ibclass
BInstr
p84
(dp85
g2
Nsg17
S'xor     rbx, rax'
p86
sg19
S'4831c3'
p87
sg21
Vxor rbx, rax
p88
sg5
L15900L
sg6
Nsg23
S'xor'
p89
sg25
S'0x3e1cL'
p90
sg27
Nsba(ibclass
BInstr
p91
(dp92
g2
Nsg17
S'mov     rdx, rbx'
p93
sg19
S'4889da'
p94
sg21
Vmov rdx, rbx
p95
sg5
L15903L
sg6
Nsg23
S'mov'
p96
sg25
S'0x3e1fL'
p97
sg27
Nsba(ibclass
BInstr
p98
(dp99
g2
Nsg17
S'mov     rax, [rbp+parser]'
p100
sg19
S'488b45d8'
p101
sg21
Vmov rax, qword ptr [rbp - 0x28]
p102
sg5
L15906L
sg6
Nsg23
S'mov'
p103
sg25
S'0x3e22L'
p104
sg27
Nsba(ibclass
BInstr
p105
(dp106
g2
Nsg17
S'xor     rax, rdx'
p107
sg19
S'4831d0'
p108
sg21
Vxor rax, rdx
p109
sg5
L15910L
sg6
Nsg23
S'xor'
p110
sg25
S'0x3e26L'
p111
sg27
Nsba(ibclass
BInstr
p112
(dp113
g2
Nsg17
S'mov     [rbp+entropy], rax'
p114
sg19
S'488945e8'
p115
sg21
Vmov qword ptr [rbp - 0x18], rax
p116
sg5
L15913L
sg6
Nsg23
S'mov'
p117
sg25
S'0x3e29L'
p118
sg27
Nsba(ibclass
BInstr
p119
(dp120
g2
Nsg17
S'mov     rdx, [rbp+entropy]'
p121
sg19
S'488b55e8'
p122
sg21
Vmov rdx, qword ptr [rbp - 0x18]
p123
sg5
L15917L
sg6
Nsg23
S'mov'
p124
sg25
S'0x3e2dL'
p125
sg27
Nsba(ibclass
BInstr
p126
(dp127
g2
Nsg17
S'mov     rax, rdx'
p128
sg19
S'4889d0'
p129
sg21
Vmov rax, rdx
p130
sg5
L15921L
sg6
Nsg23
S'mov'
p131
sg25
S'0x3e31L'
p132
sg27
Nsba(ibclass
BInstr
p133
(dp134
g2
Nsg17
S'shl     rax, 3Dh'
p135
sg19
S'48c1e03d'
p136
sg21
Vshl rax, 0x3d
p137
sg5
L15924L
sg6
Nsg23
S'shl'
p138
sg25
S'0x3e34L'
p139
sg27
Nsba(ibclass
BInstr
p140
(dp141
g2
Nsg17
S'sub     rax, rdx'
p142
sg19
S'4829d0'
p143
sg21
Vsub rax, rdx
p144
sg5
L15928L
sg6
Nsg23
S'sub'
p145
sg25
S'0x3e38L'
p146
sg27
Nsba(ibclass
BInstr
p147
(dp148
g2
Nsg17
S'add     rsp, 28h'
p149
sg19
S'4883c428'
p150
sg21
Vadd rsp, 0x28
p151
sg5
L15931L
sg6
Nsg23
S'add'
p152
sg25
S'0x3e3bL'
p153
sg27
Nsba(ibclass
BInstr
p154
(dp155
g2
Nsg17
S'pop     rbx'
p156
sg19
S'5b'
p157
sg21
Vpop rbx
p158
sg5
L15935L
sg6
Nsg23
S'pop'
p159
sg25
S'0x3e3fL'
p160
sg27
Nsba(ibclass
BInstr
p161
(dp162
g2
Nsg17
S'pop     rbp'
p163
sg19
S'5d'
p164
sg21
Vpop rbp
p165
sg5
L15936L
sg6
Nsg23
S'pop'
p166
sg25
S'0x3e40L'
p167
sg27
Nsba(ibclass
BInstr
p168
(dp169
g2
Nsg17
S'retn'
p170
sg19
S'c3'
p171
sg21
Vret 
p172
sg5
L15937L
sg6
Nsg23
S'retn'
p173
sg25
S'0x3e41L'
p174
sg27
NsbasS'disasm_list'
p175
(lp176
S'push reg'
p177
aS'mov reg, reg'
p178
aS'push reg'
p179
aS'sub reg, 28h'
p180
aS'mov mem, reg'
p181
aS'cregl gather_time_entropy'
p182
aS'mov reg, reg'
p183
aS'cregl _getpid'
p184
ag79
aS'xor reg, reg'
p185
aS'mov reg, reg'
p186
aS'mov reg, mem'
p187
aS'xor reg, reg'
p188
aS'mov mem, reg'
p189
aS'mov reg, mem'
p190
aS'mov reg, reg'
p191
aS'shl reg, 3Dh'
p192
aS'sub reg, reg'
p193
aS'add reg, 28h'
p194
aS'pop reg'
p195
aS'pop reg'
p196
ag170
asS'end_address'
p197
Nsg5
S'0x3e00L'
p198
sS'preds'
p199
(lp200
sg6
NsS'succs'
p201
(lp202
sS'hash_v3'
p203
NsS'flag_v2'
p204
NsS'hash_v1'
p205
S'a21f6748dca3fe4aa622182deb6f9192'
p206
sS'hash_v2'
p207
S'b6344782f564faf39216a0d46db1fe7f'
p208
sS'mnen_list'
p209
(lp210
g24
ag33
ag40
ag47
ag54
ag61
ag68
ag75
ag82
ag89
ag96
ag103
ag110
ag117
ag124
ag131
ag138
ag145
ag152
ag159
ag166
ag173
asS'neighbour_disasm_list'
p211
Nsbasb.