(ibclass
BFunc
p0
(dp1
S'hash'
p2
NsS'name'
p3
S'generate_hash_secret_salt'
p4
sS'start_address'
p5
L18987L
sS'flag'
p6
NsS'program'
p7
NsS'bbs'
p8
(lp9
(ibclass
BBasicBlock
p10
(dp11
S'function'
p12
NsS'binstrs'
p13
(lp14
(ibclass
BInstr
p15
(dp16
g2
NsS'disasm'
p17
S'push    rbp'
p18
sS'bytes'
p19
S'55'
p20
sS'disasm_striped'
p21
Vpush rbp
p22
sg5
L18987L
sg6
NsS'mnem'
p23
S'push'
p24
sS'address'
p25
S'0x4a2bL'
p26
sS'basicblock'
p27
Nsba(ibclass
BInstr
p28
(dp29
g2
Nsg17
S'mov     rbp, rsp'
p30
sg19
S'4889e5'
p31
sg21
Vmov rbp, rsp
p32
sg5
L18988L
sg6
Nsg23
S'mov'
p33
sg25
S'0x4a2cL'
p34
sg27
Nsba(ibclass
BInstr
p35
(dp36
g2
Nsg17
S'push    rbx'
p37
sg19
S'53'
p38
sg21
Vpush rbx
p39
sg5
L18991L
sg6
Nsg23
S'push'
p40
sg25
S'0x4a2fL'
p41
sg27
Nsba(ibclass
BInstr
p42
(dp43
g2
Nsg17
S'sub     rsp, 28h'
p44
sg19
S'4883ec28'
p45
sg21
Vsub rsp, 0x28
p46
sg5
L18992L
sg6
Nsg23
S'sub'
p47
sg25
S'0x4a30L'
p48
sg27
Nsba(ibclass
BInstr
p49
(dp50
g2
Nsg17
S'mov     [rbp+parser], rdi'
p51
sg19
S'48897dd8'
p52
sg21
Vmov qword ptr [rbp - 0x28], rdi
p53
sg5
L18996L
sg6
Nsg23
S'mov'
p54
sg25
S'0x4a34L'
p55
sg27
Nsba(ibclass
BInstr
p56
(dp57
g2
Nsg17
S'mov     rax, fs:28h'
p58
sg19
S'64488b042528000000'
p59
sg21
Vmov rax, qword ptr fs:[0x28]
p60
sg5
L19000L
sg6
Nsg23
S'mov'
p61
sg25
S'0x4a38L'
p62
sg27
Nsba(ibclass
BInstr
p63
(dp64
g2
Nsg17
S'mov     [rbp+var_18], rax'
p65
sg19
S'488945e8'
p66
sg21
Vmov qword ptr [rbp - 0x18], rax
p67
sg5
L19009L
sg6
Nsg23
S'mov'
p68
sg25
S'0x4a41L'
p69
sg27
Nsba(ibclass
BInstr
p70
(dp71
g2
Nsg17
S'xor     eax, eax'
p72
sg19
S'31c0'
p73
sg21
Vxor eax, eax
p74
sg5
L19013L
sg6
Nsg23
S'xor'
p75
sg25
S'0x4a45L'
p76
sg27
Nsba(ibclass
BInstr
p77
(dp78
g2
Nsg17
S'lea     rax, [rbp+entropy]'
p79
sg19
S'488d45e0'
p80
sg21
Vlea rax, [rbp - 0x20]
p81
sg5
L19015L
sg6
Nsg23
S'lea'
p82
sg25
S'0x4a47L'
p83
sg27
Nsba(ibclass
BInstr
p84
(dp85
g2
Nsg17
S'mov     esi, 8          ; count'
p86
sg19
S'be08000000'
p87
sg21
Vmov esi, 8
p88
sg5
L19019L
sg6
Nsg23
S'mov'
p89
sg25
S'0x4a4bL'
p90
sg27
Nsba(ibclass
BInstr
p91
(dp92
g2
Nsg17
S'mov     rdi, rax        ; target'
p93
sg19
S'4889c7'
p94
sg21
Vmov rdi, rax
p95
sg5
L19024L
sg6
Nsg23
S'mov'
p96
sg25
S'0x4a50L'
p97
sg27
Nsba(ibclass
BInstr
p98
(dp99
g2
Nsg17
S'call    writeRandomBytes_getrandom'
p100
sg19
S'e84dfeffff'
p101
sg21
Vcall 0xfffffffffffffe52
p102
sg5
L19027L
sg6
Nsg23
S'call'
p103
sg25
S'0x4a53L'
p104
sg27
Nsba(ibclass
BInstr
p105
(dp106
g2
Nsg17
S'test    eax, eax'
p107
sg19
S'85c0'
p108
sg21
Vtest eax, eax
p109
sg5
L19032L
sg6
Nsg23
S'test'
p110
sg25
S'0x4a58L'
p111
sg27
Nsba(ibclass
BInstr
p112
(dp113
g2
Nsg17
S'jz      short loc_4A71'
p114
sg19
S'7415'
p115
sg21
Vje 0x17
p116
sg5
L19034L
sg6
Nsg23
S'jz'
p117
sg25
S'0x4a5aL'
p118
sg27
NsbasS'disasm_list'
p119
(lp120
S'push reg'
p121
aS'mov reg, reg'
p122
aS'push reg'
p123
aS'sub reg, 28h'
p124
aS'mov mem, reg'
p125
aS'mov reg, fs:28h'
p126
aS'mov mem, reg'
p127
aS'xor reg, reg'
p128
aS'lea reg, mem'
p129
aS'mov reg, 8'
p130
aS'mov reg, reg'
p131
aS'cregl writeRandomBytes_getrandom'
p132
aS'test reg, reg'
p133
aS'jz func'
p134
asS'end_address'
p135
Nsg5
S'0x4a2bL'
p136
sS'preds'
p137
(lp138
sg6
NsS'succs'
p139
(lp140
S'0x4a5cL'
p141
aS'0x4a71L'
p142
asS'hash_v3'
p143
NsS'flag_v2'
p144
NsS'hash_v1'
p145
S'54526e37b499a6f5d1d84e295cddc9fd'
p146
sS'hash_v2'
p147
S'b0405cf9391033d0875cbd0c24ae95ad'
p148
sS'mnen_list'
p149
(lp150
g24
ag33
ag40
ag47
ag54
ag61
ag68
ag75
ag82
ag89
ag96
ag103
ag110
ag117
asS'neighbour_disasm_list'
p151
Nsba(ibclass
BBasicBlock
p152
(dp153
g12
Nsg13
(lp154
(ibclass
BInstr
p155
(dp156
g2
Nsg17
S'mov     rax, [rbp+entropy]'
p157
sg19
S'488b45e0'
p158
sg21
Vmov rax, qword ptr [rbp - 0x20]
p159
sg5
L19036L
sg6
Nsg23
S'mov'
p160
sg25
S'0x4a5cL'
p161
sg27
Nsba(ibclass
BInstr
p162
(dp163
g2
Nsg17
S'mov     rsi, rax        ; entropy'
p164
sg19
S'4889c6'
p165
sg21
Vmov rsi, rax
p166
sg5
L19040L
sg6
Nsg23
S'mov'
p167
sg25
S'0x4a60L'
p168
sg27
Nsba(ibclass
BInstr
p169
(dp170
g2
Nsg17
S'lea     rdi, label      ; "getrandom"'
p171
sg19
S'488d3d23680200'
p172
sg21
Vlea rdi, [rip + 0x26823]
p173
sg5
L19043L
sg6
Nsg23
S'lea'
p174
sg25
S'0x4a63L'
p175
sg27
Nsba(ibclass
BInstr
p176
(dp177
g2
Nsg17
S'call    ENTROPY_DEBUG'
p178
sg19
S'e844ffffff'
p179
sg21
Vcall 0xffffffffffffff49
p180
sg5
L19050L
sg6
Nsg23
S'call'
p181
sg25
S'0x4a6aL'
p182
sg27
Nsba(ibclass
BInstr
p183
(dp184
g2
Nsg17
S'jmp     short loc_4AA4'
p185
sg19
S'eb33'
p186
sg21
Vjmp 0x35
p187
sg5
L19055L
sg6
Nsg23
S'jmp'
p188
sg25
S'0x4a6fL'
p189
sg27
Nsbasg119
(lp190
S'mov reg, mem'
p191
aS'mov reg, reg'
p192
aS'lea reg, label'
p193
aS'cregl ENTROPY_DEBUG'
p194
aS'jmp func'
p195
asg135
Nsg5
S'0x4a5cL'
p196
sg137
(lp197
S'0x4a2bL'
p198
asg6
Nsg139
(lp199
S'0x4aa4L'
p200
asg143
Nsg144
Nsg145
S'd5c25b268831811e91a562f0274ae857'
p201
sg147
S'3d19fd8d89a3c0ccfc2c872ce8228c1a'
p202
sg149
(lp203
g160
ag167
ag174
ag181
ag188
asg151
Nsba(ibclass
BBasicBlock
p204
(dp205
g12
Nsg13
(lp206
(ibclass
BInstr
p207
(dp208
g2
Nsg17
S'call    gather_time_entropy'
p209
sg19
S'e8d3feffff'
p210
sg21
Vcall 0xfffffffffffffed8
p211
sg5
L19057L
sg6
Nsg23
S'call'
p212
sg25
S'0x4a71L'
p213
sg27
Nsba(ibclass
BInstr
p214
(dp215
g2
Nsg17
S'mov     rbx, rax'
p216
sg19
S'4889c3'
p217
sg21
Vmov rbx, rax
p218
sg5
L19062L
sg6
Nsg23
S'mov'
p219
sg25
S'0x4a76L'
p220
sg27
Nsba(ibclass
BInstr
p221
(dp222
g2
Nsg17
S'call    _getpid'
p223
sg19
S'e882f2ffff'
p224
sg21
Vcall 0xfffffffffffff287
p225
sg5
L19065L
sg6
Nsg23
S'call'
p226
sg25
S'0x4a79L'
p227
sg27
Nsba(ibclass
BInstr
p228
(dp229
g2
Nsg17
S'cdqe'
p230
sg19
S'4898'
p231
sg21
Vcdqe 
p232
sg5
L19070L
sg6
Nsg23
S'cdqe'
p233
sg25
S'0x4a7eL'
p234
sg27
Nsba(ibclass
BInstr
p235
(dp236
g2
Nsg17
S'xor     rax, rbx'
p237
sg19
S'4831d8'
p238
sg21
Vxor rax, rbx
p239
sg5
L19072L
sg6
Nsg23
S'xor'
p240
sg25
S'0x4a80L'
p241
sg27
Nsba(ibclass
BInstr
p242
(dp243
g2
Nsg17
S'mov     [rbp+entropy], rax'
p244
sg19
S'488945e0'
p245
sg21
Vmov qword ptr [rbp - 0x20], rax
p246
sg5
L19075L
sg6
Nsg23
S'mov'
p247
sg25
S'0x4a83L'
p248
sg27
Nsba(ibclass
BInstr
p249
(dp250
g2
Nsg17
S'mov     rdx, [rbp+entropy]'
p251
sg19
S'488b55e0'
p252
sg21
Vmov rdx, qword ptr [rbp - 0x20]
p253
sg5
L19079L
sg6
Nsg23
S'mov'
p254
sg25
S'0x4a87L'
p255
sg27
Nsba(ibclass
BInstr
p256
(dp257
g2
Nsg17
S'mov     rax, rdx'
p258
sg19
S'4889d0'
p259
sg21
Vmov rax, rdx
p260
sg5
L19083L
sg6
Nsg23
S'mov'
p261
sg25
S'0x4a8bL'
p262
sg27
Nsba(ibclass
BInstr
p263
(dp264
g2
Nsg17
S'shl     rax, 3Dh'
p265
sg19
S'48c1e03d'
p266
sg21
Vshl rax, 0x3d
p267
sg5
L19086L
sg6
Nsg23
S'shl'
p268
sg25
S'0x4a8eL'
p269
sg27
Nsba(ibclass
BInstr
p270
(dp271
g2
Nsg17
S'sub     rax, rdx'
p272
sg19
S'4829d0'
p273
sg21
Vsub rax, rdx
p274
sg5
L19090L
sg6
Nsg23
S'sub'
p275
sg25
S'0x4a92L'
p276
sg27
Nsba(ibclass
BInstr
p277
(dp278
g2
Nsg17
S'mov     rsi, rax        ; entropy'
p279
sg19
S'4889c6'
p280
sg21
Vmov rsi, rax
p281
sg5
L19093L
sg6
Nsg23
S'mov'
p282
sg25
S'0x4a95L'
p283
sg27
Nsba(ibclass
BInstr
p284
(dp285
g2
Nsg17
S'lea     rdi, aFallback8 ; "fallback(8)"'
p286
sg19
S'488d3df8670200'
p287
sg21
Vlea rdi, [rip + 0x267f8]
p288
sg5
L19096L
sg6
Nsg23
S'lea'
p289
sg25
S'0x4a98L'
p290
sg27
Nsba(ibclass
BInstr
p291
(dp292
g2
Nsg17
S'call    ENTROPY_DEBUG'
p293
sg19
S'e80fffffff'
p294
sg21
Vcall 0xffffffffffffff14
p295
sg5
L19103L
sg6
Nsg23
S'call'
p296
sg25
S'0x4a9fL'
p297
sg27
Nsbasg119
(lp298
S'cregl gather_time_entropy'
p299
aS'mov reg, reg'
p300
aS'cregl _getpid'
p301
ag230
aS'xor reg, reg'
p302
aS'mov mem, reg'
p303
aS'mov reg, mem'
p304
aS'mov reg, reg'
p305
aS'shl reg, 3Dh'
p306
aS'sub reg, reg'
p307
aS'mov reg, reg'
p308
aS'lea reg, aFreglback8'
p309
aS'cregl ENTROPY_DEBUG'
p310
asg135
Nsg5
S'0x4a71L'
p311
sg137
(lp312
S'0x4a2bL'
p313
asg6
Nsg139
(lp314
S'0x4aa4L'
p315
asg143
Nsg144
Nsg145
S'8fb1830d1447be19e7fd59fafe5d3ddd'
p316
sg147
S'7c350293c7a1a2635f35cb9a60030c4b'
p317
sg149
(lp318
g212
ag219
ag226
ag233
ag240
ag247
ag254
ag261
ag268
ag275
ag282
ag289
ag296
asg151
Nsba(ibclass
BBasicBlock
p319
(dp320
g12
Nsg13
(lp321
(ibclass
BInstr
p322
(dp323
g2
Nsg17
S'mov     rcx, [rbp+var_18]'
p324
sg19
S'488b4de8'
p325
sg21
Vmov rcx, qword ptr [rbp - 0x18]
p326
sg5
L19108L
sg6
Nsg23
S'mov'
p327
sg25
S'0x4aa4L'
p328
sg27
Nsba(ibclass
BInstr
p329
(dp330
g2
Nsg17
S'xor     rcx, fs:28h'
p331
sg19
S'6448330c2528000000'
p332
sg21
Vxor rcx, qword ptr fs:[0x28]
p333
sg5
L19112L
sg6
Nsg23
S'xor'
p334
sg25
S'0x4aa8L'
p335
sg27
Nsba(ibclass
BInstr
p336
(dp337
g2
Nsg17
S'jz      short loc_4AB8'
p338
sg19
S'7405'
p339
sg21
Vje 7
p340
sg5
L19121L
sg6
Nsg23
S'jz'
p341
sg25
S'0x4ab1L'
p342
sg27
Nsbasg119
(lp343
S'mov reg, mem'
p344
aS'xor reg, fs:28h'
p345
aS'jz func'
p346
asg135
Nsg5
S'0x4aa4L'
p347
sg137
(lp348
S'0x4a5cL'
p349
aS'0x4a71L'
p350
asg6
Nsg139
(lp351
S'0x4ab3L'
p352
aS'0x4ab8L'
p353
asg143
Nsg144
Nsg145
S'81354ac238b6424b069ead35b2072afc'
p354
sg147
S'42d5f870648ece6e1dc7e92a9f72192a'
p355
sg149
(lp356
g327
ag334
ag341
asg151
Nsba(ibclass
BBasicBlock
p357
(dp358
g12
Nsg13
(lp359
(ibclass
BInstr
p360
(dp361
g2
Nsg17
S'call    ___stack_chk_fail'
p362
sg19
S'e858f2ffff'
p363
sg21
Vcall 0xfffffffffffff25d
p364
sg5
L19123L
sg6
Nsg23
S'call'
p365
sg25
S'0x4ab3L'
p366
sg27
Nsbasg119
(lp367
S'cregl ___stack_chk_fail'
p368
asg135
Nsg5
S'0x4ab3L'
p369
sg137
(lp370
S'0x4aa4L'
p371
asg6
Nsg139
(lp372
sg143
Nsg144
Nsg145
S'53b9e9679a8ea25880376080b76f98ad'
p373
sg147
S'b0e41e96f3af1c18acdc4d294190c1a3'
p374
sg149
(lp375
g365
asg151
Nsba(ibclass
BBasicBlock
p376
(dp377
g12
Nsg13
(lp378
(ibclass
BInstr
p379
(dp380
g2
Nsg17
S'add     rsp, 28h'
p381
sg19
S'4883c428'
p382
sg21
Vadd rsp, 0x28
p383
sg5
L19128L
sg6
Nsg23
S'add'
p384
sg25
S'0x4ab8L'
p385
sg27
Nsba(ibclass
BInstr
p386
(dp387
g2
Nsg17
S'pop     rbx'
p388
sg19
S'5b'
p389
sg21
Vpop rbx
p390
sg5
L19132L
sg6
Nsg23
S'pop'
p391
sg25
S'0x4abcL'
p392
sg27
Nsba(ibclass
BInstr
p393
(dp394
g2
Nsg17
S'pop     rbp'
p395
sg19
S'5d'
p396
sg21
Vpop rbp
p397
sg5
L19133L
sg6
Nsg23
S'pop'
p398
sg25
S'0x4abdL'
p399
sg27
Nsba(ibclass
BInstr
p400
(dp401
g2
Nsg17
S'retn'
p402
sg19
S'c3'
p403
sg21
Vret 
p404
sg5
L19134L
sg6
Nsg23
S'retn'
p405
sg25
S'0x4abeL'
p406
sg27
Nsbasg119
(lp407
S'add reg, 28h'
p408
aS'pop reg'
p409
aS'pop reg'
p410
ag402
asg135
Nsg5
S'0x4ab8L'
p411
sg137
(lp412
S'0x4aa4L'
p413
asg6
Nsg139
(lp414
sg143
Nsg144
Nsg145
S'4d1981a678d0c70281d5161c3174b44c'
p415
sg147
S'dc27960931e9e2ae90fd817665e34271'
p416
sg149
(lp417
g384
ag391
ag398
ag405
asg151
Nsbasb.