(ibclass
BFunc
p0
(dp1
S'hash'
p2
NsS'name'
p3
S'captureOutputCallback'
p4
sS'start_address'
p5
L71808L
sS'flag'
p6
NsS'program'
p7
NsS'bbs'
p8
(lp9
(ibclass
BBasicBlock
p10
(dp11
S'function'
p12
NsS'binstrs'
p13
(lp14
(ibclass
BInstr
p15
(dp16
g2
NsS'disasm'
p17
S'test    azArg, azArg'
p18
sS'bytes'
p19
S'4885d2'
p20
sS'disasm_striped'
p21
Vtest rdx, rdx
p22
sg5
L71808L
sg6
NsS'mnem'
p23
S'test'
p24
sS'address'
p25
S'0x11880L'
p26
sS'basicblock'
p27
Nsba(ibclass
BInstr
p28
(dp29
g2
Nsg17
S'jz      loc_11910'
p30
sg19
S'0f8487000000'
p31
sg21
Vje 0x8d
p32
sg5
L71811L
sg6
Nsg23
S'jz'
p33
sg25
S'0x11883L'
p34
sg27
NsbasS'disasm_list'
p35
(lp36
S'test azArg, azArg'
p37
aS'jz func'
p38
asS'end_address'
p39
Nsg5
S'0x11880L'
p40
sS'preds'
p41
(lp42
sg6
NsS'succs'
p43
(lp44
S'0x11889L'
p45
aS'0x11910L'
p46
asS'hash_v3'
p47
NsS'flag_v2'
p48
NsS'hash_v1'
p49
S'84491ffb986a9ed3c0d756870de1b100'
p50
sS'hash_v2'
p51
S'd5c23dd4f0a0a413c18007361d4c1b52'
p52
sS'mnen_list'
p53
(lp54
g24
ag33
asS'neighbour_disasm_list'
p55
Nsba(ibclass
BBasicBlock
p56
(dp57
g12
Nsg13
(lp58
(ibclass
BInstr
p59
(dp60
g2
Nsg17
S'push    r13'
p61
sg19
S'4155'
p62
sg21
Vpush r13
p63
sg5
L71817L
sg6
Nsg23
S'push'
p64
sg25
S'0x11889L'
p65
sg27
Nsba(ibclass
BInstr
p66
(dp67
g2
Nsg17
S'push    r12'
p68
sg19
S'4154'
p69
sg21
Vpush r12
p70
sg5
L71819L
sg6
Nsg23
S'push'
p71
sg25
S'0x1188bL'
p72
sg27
Nsba(ibclass
BInstr
p73
(dp74
g2
Nsg17
S'mov     r13d, esi'
p75
sg19
S'4189f5'
p76
sg21
Vmov r13d, esi
p77
sg5
L71821L
sg6
Nsg23
S'mov'
p78
sg25
S'0x1188dL'
p79
sg27
Nsba(ibclass
BInstr
p80
(dp81
g2
Nsg17
S'push    rbp'
p82
sg19
S'55'
p83
sg21
Vpush rbp
p84
sg5
L71824L
sg6
Nsg23
S'push'
p85
sg25
S'0x11890L'
p86
sg27
Nsba(ibclass
BInstr
p87
(dp88
g2
Nsg17
S'push    rbx'
p89
sg19
S'53'
p90
sg21
Vpush rbx
p91
sg5
L71825L
sg6
Nsg23
S'push'
p92
sg25
S'0x11891L'
p93
sg27
Nsba(ibclass
BInstr
p94
(dp95
g2
Nsg17
S'mov     rbp, azArg'
p96
sg19
S'4889d5'
p97
sg21
Vmov rbp, rdx
p98
sg5
L71826L
sg6
Nsg23
S'mov'
p99
sg25
S'0x11892L'
p100
sg27
Nsba(ibclass
BInstr
p101
(dp102
g2
Nsg17
S'mov     r12, p'
p103
sg19
S'4989fc'
p104
sg21
Vmov r12, rdi
p105
sg5
L71829L
sg6
Nsg23
S'mov'
p106
sg25
S'0x11895L'
p107
sg27
Nsba(ibclass
BInstr
p108
(dp109
g2
Nsg17
S'sub     rsp, 8'
p110
sg19
S'4883ec08'
p111
sg21
Vsub rsp, 8
p112
sg5
L71832L
sg6
Nsg23
S'sub'
p113
sg25
S'0x11898L'
p114
sg27
Nsba(ibclass
BInstr
p115
(dp116
g2
Nsg17
S'mov     eax, [p+8]'
p117
sg19
S'8b4708'
p118
sg21
Vmov eax, dword ptr [rdi + 8]
p119
sg5
L71836L
sg6
Nsg23
S'mov'
p120
sg25
S'0x1189cL'
p121
sg27
Nsba(ibclass
BInstr
p122
(dp123
g2
Nsg17
S'test    eax, eax'
p124
sg19
S'85c0'
p125
sg21
Vtest eax, eax
p126
sg5
L71839L
sg6
Nsg23
S'test'
p127
sg25
S'0x1189fL'
p128
sg27
Nsba(ibclass
BInstr
p129
(dp130
g2
Nsg17
S'jnz     short loc_118F8'
p131
sg19
S'7555'
p132
sg21
Vjne 0x57
p133
sg5
L71841L
sg6
Nsg23
S'jnz'
p134
sg25
S'0x118a1L'
p135
sg27
Nsbasg35
(lp136
S'push reg'
p137
aS'push reg'
p138
aS'mov regd, reg'
p139
aS'push reg'
p140
aS'push reg'
p141
aS'mov reg, azArg'
p142
aS'mov reg, p'
p143
aS'sub reg, 8'
p144
aS'mov reg, mem'
p145
aS'test reg, reg'
p146
aS'jnz func'
p147
asg39
Nsg5
S'0x11889L'
p148
sg41
(lp149
S'0x11880L'
p150
asg6
Nsg43
(lp151
S'0x118a3L'
p152
aS'0x118f8L'
p153
asg47
Nsg48
Nsg49
S'ef120b743893516e5c40ba1b3dd8e4de'
p154
sg51
S'39a56f266de9020dabf21cf7174b1062'
p155
sg53
(lp156
g64
ag71
ag78
ag85
ag92
ag99
ag106
ag113
ag120
ag127
ag134
asg55
Nsba(ibclass
BBasicBlock
p157
(dp158
g12
Nsg13
(lp159
(ibclass
BInstr
p160
(dp161
g2
Nsg17
S'test    r13d, r13d'
p162
sg19
S'4585ed'
p163
sg21
Vtest r13d, r13d
p164
sg5
L71843L
sg6
Nsg23
S'test'
p165
sg25
S'0x118a3L'
p166
sg27
Nsba(ibclass
BInstr
p167
(dp168
g2
Nsg17
S'jle     short loc_118E4'
p169
sg19
S'7e3c'
p170
sg21
Vjle 0x3e
p171
sg5
L71846L
sg6
Nsg23
S'jle'
p172
sg25
S'0x118a6L'
p173
sg27
Nsbasg35
(lp174
S'test regd, regd'
p175
aS'jle func'
p176
asg39
Nsg5
S'0x118a3L'
p177
sg41
(lp178
S'0x11889L'
p179
aS'0x118f8L'
p180
asg6
Nsg43
(lp181
S'0x118a8L'
p182
aS'0x118e4L'
p183
asg47
Nsg48
Nsg49
S'905c5646a71e5a23695e29612b4ece3e'
p184
sg51
S'5c0bed95cfd2a687afa8b655d98aba68'
p185
sg53
(lp186
g165
ag172
asg55
Nsba(ibclass
BBasicBlock
p187
(dp188
g12
Nsg13
(lp189
(ibclass
BInstr
p190
(dp191
g2
Nsg17
S'xor     ebx, ebx'
p192
sg19
S'31db'
p193
sg21
Vxor ebx, ebx
p194
sg5
L71848L
sg6
Nsg23
S'xor'
p195
sg25
S'0x118a8L'
p196
sg27
Nsba(ibclass
BInstr
p197
(dp198
g2
Nsg17
S'jmp     short loc_118C9'
p199
sg19
S'eb1d'
p200
sg21
Vjmp 0x1f
p201
sg5
L71850L
sg6
Nsg23
S'jmp'
p202
sg25
S'0x118aaL'
p203
sg27
Nsbasg35
(lp204
S'xor reg, reg'
p205
aS'jmp func'
p206
asg39
Nsg5
S'0x118a8L'
p207
sg41
(lp208
S'0x118a3L'
p209
asg6
Nsg43
(lp210
S'0x118c9L'
p211
asg47
Nsg48
Nsg49
S'8b7e94fa2abdbe71937dd50507b1838e'
p212
sg51
S'e336d1ef906cc633d79032c690477aa7'
p213
sg53
(lp214
g195
ag202
asg55
Nsba(ibclass
BBasicBlock
p215
(dp216
g12
Nsg13
(lp217
(ibclass
BInstr
p218
(dp219
g2
Nsg17
S'test    ebx, ebx'
p220
sg19
S'85db'
p221
sg21
Vtest ebx, ebx
p222
sg5
L71856L
sg6
Nsg23
S'test'
p223
sg25
S'0x118b0L'
p224
sg27
Nsba(ibclass
BInstr
p225
(dp226
g2
Nsg17
S'jz      short loc_118C5'
p227
sg19
S'7411'
p228
sg21
Vje 0x13
p229
sg5
L71858L
sg6
Nsg23
S'jz'
p230
sg25
S'0x118b2L'
p231
sg27
Nsbasg35
(lp232
S'test reg, reg'
p233
aS'jz func'
p234
asg39
Nsg5
S'0x118b0L'
p235
sg41
(lp236
S'0x118dcL'
p237
asg6
Nsg43
(lp238
S'0x118b4L'
p239
aS'0x118c5L'
p240
asg47
Nsg48
Nsg49
S'84491ffb986a9ed3c0d756870de1b100'
p241
sg51
S'fbb15b446ae771d008c367d72e1a39f9'
p242
sg53
(lp243
g223
ag230
asg55
Nsba(ibclass
BBasicBlock
p244
(dp245
g12
Nsg13
(lp246
(ibclass
BInstr
p247
(dp248
g2
Nsg17
S'lea     rsi, aEqpD+0Ah  ; zAppend'
p249
sg19
S'488d35a5920d00'
p250
sg21
Vlea rsi, [rip + 0xd92a5]
p251
sg5
L71860L
sg6
Nsg23
S'lea'
p252
sg25
S'0x118b4L'
p253
sg27
Nsba(ibclass
BInstr
p254
(dp255
g2
Nsg17
S'xor     edx, edx        ; quote'
p256
sg19
S'31d2'
p257
sg21
Vxor edx, edx
p258
sg5
L71867L
sg6
Nsg23
S'xor'
p259
sg25
S'0x118bbL'
p260
sg27
Nsba(ibclass
BInstr
p261
(dp262
g2
Nsg17
S'mov     rdi, p          ; p'
p263
sg19
S'4c89e7'
p264
sg21
Vmov rdi, r12
p265
sg5
L71869L
sg6
Nsg23
S'mov'
p266
sg25
S'0x118bdL'
p267
sg27
Nsba(ibclass
BInstr
p268
(dp269
g2
Nsg17
S'call    appendText'
p270
sg19
S'e8fbfdffff'
p271
sg21
Vcall 0xfffffffffffffe00
p272
sg5
L71872L
sg6
Nsg23
S'call'
p273
sg25
S'0x118c0L'
p274
sg27
Nsbasg35
(lp275
S'lea reg, aEqpD+0Ah'
p276
aS'xor reg, reg'
p277
aS'mov reg, p'
p278
aS'cregl appendText'
p279
asg39
Nsg5
S'0x118b4L'
p280
sg41
(lp281
S'0x118b0L'
p282
asg6
Nsg43
(lp283
S'0x118c5L'
p284
asg47
Nsg48
Nsg49
S'ffd8f3515dd6249217085b26717de83e'
p285
sg51
S'b383e5bfc2134bfc2efe823a8010013f'
p286
sg53
(lp287
g252
ag259
ag266
ag273
asg55
Nsba(ibclass
BBasicBlock
p288
(dp289
g12
Nsg13
(lp290
(ibclass
BInstr
p291
(dp292
g2
Nsg17
S'add     rbp, 8'
p293
sg19
S'4883c508'
p294
sg21
Vadd rbp, 8
p295
sg5
L71877L
sg6
Nsg23
S'add'
p296
sg25
S'0x118c5L'
p297
sg27
Nsbasg35
(lp298
S'add reg, 8'
p299
asg39
Nsg5
S'0x118c5L'
p300
sg41
(lp301
S'0x118b0L'
p302
aS'0x118b4L'
p303
asg6
Nsg43
(lp304
S'0x118c9L'
p305
asg47
Nsg48
Nsg49
S'34ec78fcc91ffb1e54cd85e4a0924332'
p306
sg51
S'31570efc3b6350b441e59dfc5ab65acd'
p307
sg53
(lp308
g296
asg55
Nsba(ibclass
BBasicBlock
p309
(dp310
g12
Nsg13
(lp311
(ibclass
BInstr
p312
(dp313
g2
Nsg17
S'mov     rsi, [rbp+0]    ; zAppend'
p314
sg19
S'488b7500'
p315
sg21
Vmov rsi, qword ptr [rbp]
p316
sg5
L71881L
sg6
Nsg23
S'mov'
p317
sg25
S'0x118c9L'
p318
sg27
Nsba(ibclass
BInstr
p319
(dp320
g2
Nsg17
S'test    rsi, rsi'
p321
sg19
S'4885f6'
p322
sg21
Vtest rsi, rsi
p323
sg5
L71885L
sg6
Nsg23
S'test'
p324
sg25
S'0x118cdL'
p325
sg27
Nsba(ibclass
BInstr
p326
(dp327
g2
Nsg17
S'jz      short loc_118DC'
p328
sg19
S'740a'
p329
sg21
Vje 0xc
p330
sg5
L71888L
sg6
Nsg23
S'jz'
p331
sg25
S'0x118d0L'
p332
sg27
Nsbasg35
(lp333
S'mov reg, mem'
p334
aS'test reg, reg'
p335
aS'jz func'
p336
asg39
Nsg5
S'0x118c9L'
p337
sg41
(lp338
S'0x118a8L'
p339
aS'0x118c5L'
p340
asg6
Nsg43
(lp341
S'0x118d2L'
p342
aS'0x118dcL'
p343
asg47
Nsg48
Nsg49
S'809d25367cfb363bba6d347ea4ff6183'
p344
sg51
S'd782372d3ec587a87d37c330cb249184'
p345
sg53
(lp346
g317
ag324
ag331
asg55
Nsba(ibclass
BBasicBlock
p347
(dp348
g12
Nsg13
(lp349
(ibclass
BInstr
p350
(dp351
g2
Nsg17
S'xor     edx, edx        ; quote'
p352
sg19
S'31d2'
p353
sg21
Vxor edx, edx
p354
sg5
L71890L
sg6
Nsg23
S'xor'
p355
sg25
S'0x118d2L'
p356
sg27
Nsba(ibclass
BInstr
p357
(dp358
g2
Nsg17
S'mov     rdi, p          ; p'
p359
sg19
S'4c89e7'
p360
sg21
Vmov rdi, r12
p361
sg5
L71892L
sg6
Nsg23
S'mov'
p362
sg25
S'0x118d4L'
p363
sg27
Nsba(ibclass
BInstr
p364
(dp365
g2
Nsg17
S'call    appendText'
p366
sg19
S'e8e4fdffff'
p367
sg21
Vcall 0xfffffffffffffde9
p368
sg5
L71895L
sg6
Nsg23
S'call'
p369
sg25
S'0x118d7L'
p370
sg27
Nsbasg35
(lp371
S'xor reg, reg'
p372
aS'mov reg, p'
p373
aS'cregl appendText'
p374
asg39
Nsg5
S'0x118d2L'
p375
sg41
(lp376
S'0x118c9L'
p377
asg6
Nsg43
(lp378
S'0x118dcL'
p379
asg47
Nsg48
Nsg49
S'5955e86e600e5279498f6d104fb09d4a'
p380
sg51
S'43c15fc4eaa8e637dfeeb1caac2302c2'
p381
sg53
(lp382
g355
ag362
ag369
asg55
Nsba(ibclass
BBasicBlock
p383
(dp384
g12
Nsg13
(lp385
(ibclass
BInstr
p386
(dp387
g2
Nsg17
S'add     ebx, 1'
p388
sg19
S'83c301'
p389
sg21
Vadd ebx, 1
p390
sg5
L71900L
sg6
Nsg23
S'add'
p391
sg25
S'0x118dcL'
p392
sg27
Nsba(ibclass
BInstr
p393
(dp394
g2
Nsg17
S'cmp     r13d, ebx'
p395
sg19
S'4139dd'
p396
sg21
Vcmp r13d, ebx
p397
sg5
L71903L
sg6
Nsg23
S'cmp'
p398
sg25
S'0x118dfL'
p399
sg27
Nsba(ibclass
BInstr
p400
(dp401
g2
Nsg17
S'jnz     short loc_118B0'
p402
sg19
S'75cc'
p403
sg21
Vjne 0xffffffffffffffce
p404
sg5
L71906L
sg6
Nsg23
S'jnz'
p405
sg25
S'0x118e2L'
p406
sg27
Nsbasg35
(lp407
S'add reg, 1'
p408
aS'cmp regd, reg'
p409
aS'jnz func'
p410
asg39
Nsg5
S'0x118dcL'
p411
sg41
(lp412
S'0x118c9L'
p413
aS'0x118d2L'
p414
asg6
Nsg43
(lp415
S'0x118b0L'
p416
aS'0x118e4L'
p417
asg47
Nsg48
Nsg49
S'c95cb49ba4393ddb96d6068653426a43'
p418
sg51
S'4af9110b0f27842d2fd46bdf398ec131'
p419
sg53
(lp420
g391
ag398
ag405
asg55
Nsba(ibclass
BBasicBlock
p421
(dp422
g12
Nsg13
(lp423
(ibclass
BInstr
p424
(dp425
g2
Nsg17
S'add     rsp, 8'
p426
sg19
S'4883c408'
p427
sg21
Vadd rsp, 8
p428
sg5
L71908L
sg6
Nsg23
S'add'
p429
sg25
S'0x118e4L'
p430
sg27
Nsba(ibclass
BInstr
p431
(dp432
g2
Nsg17
S'xor     eax, eax'
p433
sg19
S'31c0'
p434
sg21
Vxor eax, eax
p435
sg5
L71912L
sg6
Nsg23
S'xor'
p436
sg25
S'0x118e8L'
p437
sg27
Nsba(ibclass
BInstr
p438
(dp439
g2
Nsg17
S'pop     rbx'
p440
sg19
S'5b'
p441
sg21
Vpop rbx
p442
sg5
L71914L
sg6
Nsg23
S'pop'
p443
sg25
S'0x118eaL'
p444
sg27
Nsba(ibclass
BInstr
p445
(dp446
g2
Nsg17
S'pop     rbp'
p447
sg19
S'5d'
p448
sg21
Vpop rbp
p449
sg5
L71915L
sg6
Nsg23
S'pop'
p450
sg25
S'0x118ebL'
p451
sg27
Nsba(ibclass
BInstr
p452
(dp453
g2
Nsg17
S'pop     p'
p454
sg19
S'415c'
p455
sg21
Vpop r12
p456
sg5
L71916L
sg6
Nsg23
S'pop'
p457
sg25
S'0x118ecL'
p458
sg27
Nsba(ibclass
BInstr
p459
(dp460
g2
Nsg17
S'pop     nArg'
p461
sg19
S'415d'
p462
sg21
Vpop r13
p463
sg5
L71918L
sg6
Nsg23
S'pop'
p464
sg25
S'0x118eeL'
p465
sg27
Nsba(ibclass
BInstr
p466
(dp467
g2
Nsg17
S'retn'
p468
sg19
S'c3'
p469
sg21
Vret 
p470
sg5
L71920L
sg6
Nsg23
S'retn'
p471
sg25
S'0x118f0L'
p472
sg27
Nsbasg35
(lp473
S'add reg, 8'
p474
aS'xor reg, reg'
p475
aS'pop reg'
p476
aS'pop reg'
p477
aS'pop p'
p478
aS'pop nArg'
p479
ag468
asg39
Nsg5
S'0x118e4L'
p480
sg41
(lp481
S'0x118a3L'
p482
aS'0x118dcL'
p483
asg6
Nsg43
(lp484
sg47
Nsg48
Nsg49
S'6821c194f41e689b9c815b2aa547d75d'
p485
sg51
S'6d1dcfaff48317ff15e7133884db7d3b'
p486
sg53
(lp487
g429
ag436
ag443
ag450
ag457
ag464
ag471
asg55
Nsba(ibclass
BBasicBlock
p488
(dp489
g12
Nsg13
(lp490
(ibclass
BInstr
p491
(dp492
g2
Nsg17
S'lea     nArg, zAppend   ; "|"'
p493
sg19
S'488d358b8e0d00'
p494
sg21
Vlea rsi, [rip + 0xd8e8b]
p495
sg5
L71928L
sg6
Nsg23
S'lea'
p496
sg25
S'0x118f8L'
p497
sg27
Nsba(ibclass
BInstr
p498
(dp499
g2
Nsg17
S'xor     edx, edx        ; quote'
p500
sg19
S'31d2'
p501
sg21
Vxor edx, edx
p502
sg5
L71935L
sg6
Nsg23
S'xor'
p503
sg25
S'0x118ffL'
p504
sg27
Nsba(ibclass
BInstr
p505
(dp506
g2
Nsg17
S'call    appendText'
p507
sg19
S'e8bafdffff'
p508
sg21
Vcall 0xfffffffffffffdbf
p509
sg5
L71937L
sg6
Nsg23
S'call'
p510
sg25
S'0x11901L'
p511
sg27
Nsba(ibclass
BInstr
p512
(dp513
g2
Nsg17
S'jmp     short loc_118A3'
p514
sg19
S'eb9b'
p515
sg21
Vjmp 0xffffffffffffff9d
p516
sg5
L71942L
sg6
Nsg23
S'jmp'
p517
sg25
S'0x11906L'
p518
sg27
Nsbasg35
(lp519
S'lea nArg, zAppend'
p520
aS'xor reg, reg'
p521
aS'cregl appendText'
p522
aS'jmp func'
p523
asg39
Nsg5
S'0x118f8L'
p524
sg41
(lp525
S'0x11889L'
p526
asg6
Nsg43
(lp527
S'0x118a3L'
p528
asg47
Nsg48
Nsg49
S'fa8b16855e1ae764c44a34f1e67d7982'
p529
sg51
S'ee78dc4cfdf3c29f9adbd92ac556635e'
p530
sg53
(lp531
g496
ag503
ag510
ag517
asg55
Nsba(ibclass
BBasicBlock
p532
(dp533
g12
Nsg13
(lp534
(ibclass
BInstr
p535
(dp536
g2
Nsg17
S'xor     eax, eax'
p537
sg19
S'31c0'
p538
sg21
Vxor eax, eax
p539
sg5
L71952L
sg6
Nsg23
S'xor'
p540
sg25
S'0x11910L'
p541
sg27
Nsba(ibclass
BInstr
p542
(dp543
g2
Nsg17
S'retn'
p544
sg19
S'c3'
p545
sg21
Vret 
p546
sg5
L71954L
sg6
Nsg23
S'retn'
p547
sg25
S'0x11912L'
p548
sg27
Nsbasg35
(lp549
S'xor reg, reg'
p550
ag544
asg39
Nsg5
S'0x11910L'
p551
sg41
(lp552
S'0x11880L'
p553
asg6
Nsg43
(lp554
sg47
Nsg48
Nsg49
S'22e3e3ba4133795a0957bd1eadf72259'
p555
sg51
S'992cd72842bdad60942da0183df74959'
p556
sg53
(lp557
g540
ag547
asg55
Nsbasb.