(ibclass
BFunc
p0
(dp1
S'hash'
p2
NsS'name'
p3
S'dump_callback'
p4
sS'start_address'
p5
L90640L
sS'flag'
p6
NsS'program'
p7
NsS'bbs'
p8
(lp9
(ibclass
BBasicBlock
p10
(dp11
S'function'
p12
NsS'binstrs'
p13
(lp14
(ibclass
BInstr
p15
(dp16
g2
NsS'disasm'
p17
S'push    r15'
p18
sS'bytes'
p19
S'4157'
p20
sS'disasm_striped'
p21
Vpush r15
p22
sg5
L90640L
sg6
NsS'mnem'
p23
S'push'
p24
sS'address'
p25
S'0x16210L'
p26
sS'basicblock'
p27
Nsba(ibclass
BInstr
p28
(dp29
g2
Nsg17
S'push    r14'
p30
sg19
S'4156'
p31
sg21
Vpush r14
p32
sg5
L90642L
sg6
Nsg23
S'push'
p33
sg25
S'0x16212L'
p34
sg27
Nsba(ibclass
BInstr
p35
(dp36
g2
Nsg17
S'push    r13'
p37
sg19
S'4155'
p38
sg21
Vpush r13
p39
sg5
L90644L
sg6
Nsg23
S'push'
p40
sg25
S'0x16214L'
p41
sg27
Nsba(ibclass
BInstr
p42
(dp43
g2
Nsg17
S'push    r12'
p44
sg19
S'4154'
p45
sg21
Vpush r12
p46
sg5
L90646L
sg6
Nsg23
S'push'
p47
sg25
S'0x16216L'
p48
sg27
Nsba(ibclass
BInstr
p49
(dp50
g2
Nsg17
S'push    rbp'
p51
sg19
S'55'
p52
sg21
Vpush rbp
p53
sg5
L90648L
sg6
Nsg23
S'push'
p54
sg25
S'0x16218L'
p55
sg27
Nsba(ibclass
BInstr
p56
(dp57
g2
Nsg17
S'push    rbx'
p58
sg19
S'53'
p59
sg21
Vpush rbx
p60
sg5
L90649L
sg6
Nsg23
S'push'
p61
sg25
S'0x16219L'
p62
sg27
Nsba(ibclass
BInstr
p63
(dp64
g2
Nsg17
S'sub     rsp, 68h'
p65
sg19
S'4883ec68'
p66
sg21
Vsub rsp, 0x68
p67
sg5
L90650L
sg6
Nsg23
S'sub'
p68
sg25
S'0x1621aL'
p69
sg27
Nsba(ibclass
BInstr
p70
(dp71
g2
Nsg17
S'mov     rax, fs:28h'
p72
sg19
S'64488b042528000000'
p73
sg21
Vmov rax, qword ptr fs:[0x28]
p74
sg5
L90654L
sg6
Nsg23
S'mov'
p75
sg25
S'0x1621eL'
p76
sg27
Nsba(ibclass
BInstr
p77
(dp78
g2
Nsg17
S'mov     [rsp+98h+var_40], rax'
p79
sg19
S'4889442458'
p80
sg21
Vmov qword ptr [rsp + 0x58], rax
p81
sg5
L90663L
sg6
Nsg23
S'mov'
p82
sg25
S'0x16227L'
p83
sg27
Nsba(ibclass
BInstr
p84
(dp85
g2
Nsg17
S'xor     eax, eax'
p86
sg19
S'31c0'
p87
sg21
Vxor eax, eax
p88
sg5
L90668L
sg6
Nsg23
S'xor'
p89
sg25
S'0x1622cL'
p90
sg27
Nsba(ibclass
BInstr
p91
(dp92
g2
Nsg17
S'cmp     esi, 3'
p93
sg19
S'83fe03'
p94
sg21
Vcmp esi, 3
p95
sg5
L90670L
sg6
Nsg23
S'cmp'
p96
sg25
S'0x1622eL'
p97
sg27
Nsba(ibclass
BInstr
p98
(dp99
g2
Nsg17
S'jnz     short loc_16288'
p100
sg19
S'7555'
p101
sg21
Vjne 0x57
p102
sg5
L90673L
sg6
Nsg23
S'jnz'
p103
sg25
S'0x16231L'
p104
sg27
NsbasS'disasm_list'
p105
(lp106
S'push reg'
p107
aS'push reg'
p108
aS'push reg'
p109
aS'push reg'
p110
aS'push reg'
p111
aS'push reg'
p112
aS'sub reg, 68h'
p113
aS'mov reg, fs:28h'
p114
aS'mov mem, reg'
p115
aS'xor reg, reg'
p116
aS'cmp reg, 3'
p117
aS'jnz func'
p118
asS'end_address'
p119
Nsg5
S'0x16210L'
p120
sS'preds'
p121
(lp122
sg6
NsS'succs'
p123
(lp124
S'0x16233L'
p125
aS'0x16288L'
p126
asS'hash_v3'
p127
NsS'flag_v2'
p128
NsS'hash_v1'
p129
S'7ea01a7fd925b6c49e8fc185353771bc'
p130
sS'hash_v2'
p131
S'3ae9daebc393669c13126b3c1893e1c7'
p132
sS'mnen_list'
p133
(lp134
g24
ag33
ag40
ag47
ag54
ag61
ag68
ag75
ag82
ag89
ag96
ag103
asS'neighbour_disasm_list'
p135
Nsba(ibclass
BBasicBlock
p136
(dp137
g12
Nsg13
(lp138
(ibclass
BInstr
p139
(dp140
g2
Nsg17
S'test    azArg, azArg'
p141
sg19
S'4885d2'
p142
sg21
Vtest rdx, rdx
p143
sg5
L90675L
sg6
Nsg23
S'test'
p144
sg25
S'0x16233L'
p145
sg27
Nsba(ibclass
BInstr
p146
(dp147
g2
Nsg17
S'jz      short loc_16288'
p148
sg19
S'7450'
p149
sg21
Vje 0x52
p150
sg5
L90678L
sg6
Nsg23
S'jz'
p151
sg25
S'0x16236L'
p152
sg27
Nsbasg105
(lp153
S'test azArg, azArg'
p154
aS'jz func'
p155
asg119
Nsg5
S'0x16233L'
p156
sg121
(lp157
S'0x16210L'
p158
asg6
Nsg123
(lp159
S'0x16238L'
p160
aS'0x16288L'
p161
asg127
Nsg128
Nsg129
S'84491ffb986a9ed3c0d756870de1b100'
p162
sg131
S'd5c23dd4f0a0a413c18007361d4c1b52'
p163
sg133
(lp164
g144
ag151
asg135
Nsba(ibclass
BBasicBlock
p165
(dp166
g12
Nsg13
(lp167
(ibclass
BInstr
p168
(dp169
g2
Nsg17
S'mov     nArg, [azArg]'
p170
sg19
S'488b32'
p171
sg21
Vmov rsi, qword ptr [rdx]
p172
sg5
L90680L
sg6
Nsg23
S'mov'
p173
sg25
S'0x16238L'
p174
sg27
Nsba(ibclass
BInstr
p175
(dp176
g2
Nsg17
S'mov     r15, p'
p177
sg19
S'4989ff'
p178
sg21
Vmov r15, rdi
p179
sg5
L90683L
sg6
Nsg23
S'mov'
p180
sg25
S'0x1623bL'
p181
sg27
Nsba(ibclass
BInstr
p182
(dp183
g2
Nsg17
S'lea     p, aSqlite_sequenc; "sqlite_sequence"'
p184
sg19
S'488d3d28490d00'
p185
sg21
Vlea rdi, [rip + 0xd4928]
p186
sg5
L90686L
sg6
Nsg23
S'lea'
p187
sg25
S'0x1623eL'
p188
sg27
Nsba(ibclass
BInstr
p189
(dp190
g2
Nsg17
S'mov     ecx, 10h'
p191
sg19
S'b910000000'
p192
sg21
Vmov ecx, 0x10
p193
sg5
L90693L
sg6
Nsg23
S'mov'
p194
sg25
S'0x16245L'
p195
sg27
Nsba(ibclass
BInstr
p196
(dp197
g2
Nsg17
S'mov     rbx, [azArg+8]'
p198
sg19
S'488b5a08'
p199
sg21
Vmov rbx, qword ptr [rdx + 8]
p200
sg5
L90698L
sg6
Nsg23
S'mov'
p201
sg25
S'0x1624aL'
p202
sg27
Nsba(ibclass
BInstr
p203
(dp204
g2
Nsg17
S'mov     [rsp+98h+zTable], rsi'
p205
sg19
S'4889742418'
p206
sg21
Vmov qword ptr [rsp + 0x18], rsi
p207
sg5
L90702L
sg6
Nsg23
S'mov'
p208
sg25
S'0x1624eL'
p209
sg27
Nsba(ibclass
BInstr
p210
(dp211
g2
Nsg17
S'repe cmpsb'
p212
sg19
S'f3a6'
p213
sg21
Vrepe cmpsb byte ptr [rsi], byte ptr [rdi]
p214
sg5
L90707L
sg6
Nsg23
S'cmps'
p215
sg25
S'0x16253L'
p216
sg27
Nsba(ibclass
BInstr
p217
(dp218
g2
Nsg17
S'jnz     short loc_162B0'
p219
sg19
S'7559'
p220
sg21
Vjne 0x5b
p221
sg5
L90709L
sg6
Nsg23
S'jnz'
p222
sg25
S'0x16255L'
p223
sg27
Nsbasg105
(lp224
S'mov nArg, mem'
p225
aS'mov reg, p'
p226
aS'lea p, aSqlite_sequenc'
p227
aS'mov reg, 10h'
p228
aS'mov reg, mem'
p229
aS'mov mem, reg'
p230
aS'repe cmpsb'
p231
aS'jnz func'
p232
asg119
Nsg5
S'0x16238L'
p233
sg121
(lp234
S'0x16233L'
p235
asg6
Nsg123
(lp236
S'0x16257L'
p237
aS'0x162b0L'
p238
asg127
Nsg128
Nsg129
S'24243710e9e71c8400ad6fe6bdefc3f2'
p239
sg131
S'a641146e55d951c378578c28d9052613'
p240
sg133
(lp241
g173
ag180
ag187
ag194
ag201
ag208
ag215
ag222
asg135
Nsba(ibclass
BBasicBlock
p242
(dp243
g12
Nsg13
(lp244
(ibclass
BInstr
p245
(dp246
g2
Nsg17
S'mov     rcx, [p+20h]    ; s'
p247
sg19
S'498b4f20'
p248
sg21
Vmov rcx, qword ptr [r15 + 0x20]
p249
sg5
L90711L
sg6
Nsg23
S'mov'
p250
sg25
S'0x16257L'
p251
sg27
Nsba(ibclass
BInstr
p252
(dp253
g2
Nsg17
S'lea     rdi, aDeleteFromSqli; "DELETE FROM sqlite_sequence;\\n"'
p254
sg19
S'488d3d1b490d00'
p255
sg21
Vlea rdi, [rip + 0xd491b]
p256
sg5
L90715L
sg6
Nsg23
S'lea'
p257
sg25
S'0x1625bL'
p258
sg27
Nsba(ibclass
BInstr
p259
(dp260
g2
Nsg17
S'mov     edx, 1Dh        ; n'
p261
sg19
S'ba1d000000'
p262
sg21
Vmov edx, 0x1d
p263
sg5
L90722L
sg6
Nsg23
S'mov'
p264
sg25
S'0x16262L'
p265
sg27
Nsba(ibclass
BInstr
p266
(dp267
g2
Nsg17
S'mov     esi, 1          ; size'
p268
sg19
S'be01000000'
p269
sg21
Vmov esi, 1
p270
sg5
L90727L
sg6
Nsg23
S'mov'
p271
sg25
S'0x16267L'
p272
sg27
Nsba(ibclass
BInstr
p273
(dp274
g2
Nsg17
S'call    fwrite'
p275
sg19
S'e85f51ffff'
p276
sg21
Vcall 0xffffffffffff5164
p277
sg5
L90732L
sg6
Nsg23
S'call'
p278
sg25
S'0x1626cL'
p279
sg27
Nsbasg105
(lp280
S'mov reg, mem'
p281
aS'lea reg, aDeleteFromSqli'
p282
aS'mov reg, 1Dh'
p283
aS'mov reg, 1'
p284
aS'cregl fwrite'
p285
asg119
Nsg5
S'0x16257L'
p286
sg121
(lp287
S'0x16238L'
p288
asg6
Nsg123
(lp289
S'0x16271L'
p290
asg127
Nsg128
Nsg129
S'a1afbe77701a755dd1a4e82d7696468b'
p291
sg131
S'952f236444111b13f1f00a848d17a2d0'
p292
sg133
(lp293
g250
ag257
ag264
ag271
ag278
asg135
Nsba(ibclass
BBasicBlock
p294
(dp295
g12
Nsg13
(lp296
(ibclass
BInstr
p297
(dp298
g2
Nsg17
S'lea     rdi, aTable_0   ; "table"'
p299
sg19
S'488d3d34a30d00'
p300
sg21
Vlea rdi, [rip + 0xda334]
p301
sg5
L90737L
sg6
Nsg23
S'lea'
p302
sg25
S'0x16271L'
p303
sg27
Nsba(ibclass
BInstr
p304
(dp305
g2
Nsg17
S'mov     ecx, 6'
p306
sg19
S'b906000000'
p307
sg21
Vmov ecx, 6
p308
sg5
L90744L
sg6
Nsg23
S'mov'
p309
sg25
S'0x16278L'
p310
sg27
Nsba(ibclass
BInstr
p311
(dp312
g2
Nsg17
S'mov     rsi, zType'
p313
sg19
S'4889de'
p314
sg21
Vmov rsi, rbx
p315
sg5
L90749L
sg6
Nsg23
S'mov'
p316
sg25
S'0x1627dL'
p317
sg27
Nsba(ibclass
BInstr
p318
(dp319
g2
Nsg17
S'repe cmpsb'
p320
sg19
S'f3a6'
p321
sg21
Vrepe cmpsb byte ptr [rsi], byte ptr [rdi]
p322
sg5
L90752L
sg6
Nsg23
S'cmps'
p323
sg25
S'0x16280L'
p324
sg27
Nsba(ibclass
BInstr
p325
(dp326
g2
Nsg17
S'jz      loc_16370'
p327
sg19
S'0f84e8000000'
p328
sg21
Vje 0xee
p329
sg5
L90754L
sg6
Nsg23
S'jz'
p330
sg25
S'0x16282L'
p331
sg27
Nsbasg105
(lp332
S'lea reg, aTarege_0'
p333
aS'mov reg, 6'
p334
aS'mov reg, zType'
p335
aS'repe cmpsb'
p336
aS'jz func'
p337
asg119
Nsg5
S'0x16271L'
p338
sg121
(lp339
S'0x16257L'
p340
aS'0x16770L'
p341
aS'0x16808L'
p342
asg6
Nsg123
(lp343
S'0x16288L'
p344
aS'0x16370L'
p345
asg127
Nsg128
Nsg129
S'9a8fdc1394cd6ce2763fb343f217133b'
p346
sg131
S'12c28605d08f30562b1604e13f864707'
p347
sg133
(lp348
g302
ag309
ag316
ag323
ag330
asg135
Nsba(ibclass
BBasicBlock
p349
(dp350
g12
Nsg13
(lp351
(ibclass
BInstr
p352
(dp353
g2
Nsg17
S'xor     eax, eax'
p354
sg19
S'31c0'
p355
sg21
Vxor eax, eax
p356
sg5
L90760L
sg6
Nsg23
S'xor'
p357
sg25
S'0x16288L'
p358
sg27
Nsba(ibclass
BInstr
p359
(dp360
g2
Nsg17
S'mov     rcx, [rsp+98h+var_40]'
p361
sg19
S'488b4c2458'
p362
sg21
Vmov rcx, qword ptr [rsp + 0x58]
p363
sg5
L90762L
sg6
Nsg23
S'mov'
p364
sg25
S'0x1628aL'
p365
sg27
Nsba(ibclass
BInstr
p366
(dp367
g2
Nsg17
S'xor     rcx, fs:28h'
p368
sg19
S'6448330c2528000000'
p369
sg21
Vxor rcx, qword ptr fs:[0x28]
p370
sg5
L90767L
sg6
Nsg23
S'xor'
p371
sg25
S'0x1628fL'
p372
sg27
Nsba(ibclass
BInstr
p373
(dp374
g2
Nsg17
S'jnz     loc_168FB'
p375
sg19
S'0f855d060000'
p376
sg21
Vjne 0x663
p377
sg5
L90776L
sg6
Nsg23
S'jnz'
p378
sg25
S'0x16298L'
p379
sg27
Nsbasg105
(lp380
S'xor reg, reg'
p381
aS'mov reg, mem'
p382
aS'xor reg, fs:28h'
p383
aS'jnz func'
p384
asg119
Nsg5
S'0x16288L'
p385
sg121
(lp386
S'0x16210L'
p387
aS'0x16233L'
p388
aS'0x16271L'
p389
aS'0x162cdL'
p390
aS'0x16323L'
p391
aS'0x1673cL'
p392
aS'0x1675eL'
p393
asg6
Nsg123
(lp394
S'0x1629eL'
p395
aS'0x168fbL'
p396
asg127
Nsg128
Nsg129
S'32a855fd438568473432428227f69e46'
p397
sg131
S'7f471a03a88efaf79ab0f586a4e52e55'
p398
sg133
(lp399
g357
ag364
ag371
ag378
asg135
Nsba(ibclass
BBasicBlock
p400
(dp401
g12
Nsg13
(lp402
(ibclass
BInstr
p403
(dp404
g2
Nsg17
S'add     rsp, 68h'
p405
sg19
S'4883c468'
p406
sg21
Vadd rsp, 0x68
p407
sg5
L90782L
sg6
Nsg23
S'add'
p408
sg25
S'0x1629eL'
p409
sg27
Nsba(ibclass
BInstr
p410
(dp411
g2
Nsg17
S'pop     rbx'
p412
sg19
S'5b'
p413
sg21
Vpop rbx
p414
sg5
L90786L
sg6
Nsg23
S'pop'
p415
sg25
S'0x162a2L'
p416
sg27
Nsba(ibclass
BInstr
p417
(dp418
g2
Nsg17
S'pop     rbp'
p419
sg19
S'5d'
p420
sg21
Vpop rbp
p421
sg5
L90787L
sg6
Nsg23
S'pop'
p422
sg25
S'0x162a3L'
p423
sg27
Nsba(ibclass
BInstr
p424
(dp425
g2
Nsg17
S'pop     r12'
p426
sg19
S'415c'
p427
sg21
Vpop r12
p428
sg5
L90788L
sg6
Nsg23
S'pop'
p429
sg25
S'0x162a4L'
p430
sg27
Nsba(ibclass
BInstr
p431
(dp432
g2
Nsg17
S'pop     r13'
p433
sg19
S'415d'
p434
sg21
Vpop r13
p435
sg5
L90790L
sg6
Nsg23
S'pop'
p436
sg25
S'0x162a6L'
p437
sg27
Nsba(ibclass
BInstr
p438
(dp439
g2
Nsg17
S'pop     r14'
p440
sg19
S'415e'
p441
sg21
Vpop r14
p442
sg5
L90792L
sg6
Nsg23
S'pop'
p443
sg25
S'0x162a8L'
p444
sg27
Nsba(ibclass
BInstr
p445
(dp446
g2
Nsg17
S'pop     r15'
p447
sg19
S'415f'
p448
sg21
Vpop r15
p449
sg5
L90794L
sg6
Nsg23
S'pop'
p450
sg25
S'0x162aaL'
p451
sg27
Nsba(ibclass
BInstr
p452
(dp453
g2
Nsg17
S'retn'
p454
sg19
S'c3'
p455
sg21
Vret 
p456
sg5
L90796L
sg6
Nsg23
S'retn'
p457
sg25
S'0x162acL'
p458
sg27
Nsbasg105
(lp459
S'add reg, 68h'
p460
aS'pop reg'
p461
aS'pop reg'
p462
aS'pop reg'
p463
aS'pop reg'
p464
aS'pop reg'
p465
aS'pop reg'
p466
ag454
asg119
Nsg5
S'0x1629eL'
p467
sg121
(lp468
S'0x16288L'
p469
asg6
Nsg123
(lp470
sg127
Nsg128
Nsg129
S'c3503e3ea73488a7b1f3ba14f60b9d0c'
p471
sg131
S'c450290b40c366980c9180d8b6a614dc'
p472
sg133
(lp473
g408
ag415
ag422
ag429
ag436
ag443
ag450
ag457
asg135
Nsba(ibclass
BBasicBlock
p474
(dp475
g12
Nsg13
(lp476
(ibclass
BInstr
p477
(dp478
g2
Nsg17
S'mov     rsi, [rsp+98h+zTable]; zString'
p479
sg19
S'488b742418'
p480
sg21
Vmov rsi, qword ptr [rsp + 0x18]
p481
sg5
L90800L
sg6
Nsg23
S'mov'
p482
sg25
S'0x162b0L'
p483
sg27
Nsba(ibclass
BInstr
p484
(dp485
g2
Nsg17
S'lea     rdi, aSqlite_stat?; "sqlite_stat?"'
p486
sg19
S'488d3ddf480d00'
p487
sg21
Vlea rdi, [rip + 0xd48df]
p488
sg5
L90805L
sg6
Nsg23
S'lea'
p489
sg25
S'0x162b5L'
p490
sg27
Nsba(ibclass
BInstr
p491
(dp492
g2
Nsg17
S'mov     rbp, [azArg+10h]'
p493
sg19
S'488b6a10'
p494
sg21
Vmov rbp, qword ptr [rdx + 0x10]
p495
sg5
L90812L
sg6
Nsg23
S'mov'
p496
sg25
S'0x162bcL'
p497
sg27
Nsba(ibclass
BInstr
p498
(dp499
g2
Nsg17
S'call    sqlite3_strglob'
p500
sg19
S'e8fba80000'
p501
sg21
Vcall 0xa900
p502
sg5
L90816L
sg6
Nsg23
S'call'
p503
sg25
S'0x162c0L'
p504
sg27
Nsba(ibclass
BInstr
p505
(dp506
g2
Nsg17
S'test    eax, eax'
p507
sg19
S'85c0'
p508
sg21
Vtest eax, eax
p509
sg5
L90821L
sg6
Nsg23
S'test'
p510
sg25
S'0x162c5L'
p511
sg27
Nsba(ibclass
BInstr
p512
(dp513
g2
Nsg17
S'jz      loc_16770'
p514
sg19
S'0f84a3040000'
p515
sg21
Vje 0x4a9
p516
sg5
L90823L
sg6
Nsg23
S'jz'
p517
sg25
S'0x162c7L'
p518
sg27
Nsbasg105
(lp519
S'mov reg, mem'
p520
aS'lea reg, aSqlite_stat?'
p521
aS'mov reg, mem'
p522
aS'cregl sqlite3_strglob'
p523
aS'test reg, reg'
p524
aS'jz func'
p525
asg119
Nsg5
S'0x162b0L'
p526
sg121
(lp527
S'0x16238L'
p528
asg6
Nsg123
(lp529
S'0x162cdL'
p530
aS'0x16770L'
p531
asg127
Nsg128
Nsg129
S'ad83afdc7d96ef5a98d08b38cf202ca1'
p532
sg131
S'7b2e66d7baefed06c4b4f1f1c9e33a0e'
p533
sg133
(lp534
g482
ag489
ag496
ag503
ag510
ag517
asg135
Nsba(ibclass
BBasicBlock
p535
(dp536
g12
Nsg13
(lp537
(ibclass
BInstr
p538
(dp539
g2
Nsg17
S'mov     rsi, [rsp+98h+zTable]'
p540
sg19
S'488b742418'
p541
sg21
Vmov rsi, qword ptr [rsp + 0x18]
p542
sg5
L90829L
sg6
Nsg23
S'mov'
p543
sg25
S'0x162cdL'
p544
sg27
Nsba(ibclass
BInstr
p545
(dp546
g2
Nsg17
S'lea     rdi, aSqlite_   ; "sqlite_"'
p547
sg19
S'488d3de7480d00'
p548
sg21
Vlea rdi, [rip + 0xd48e7]
p549
sg5
L90834L
sg6
Nsg23
S'lea'
p550
sg25
S'0x162d2L'
p551
sg27
Nsba(ibclass
BInstr
p552
(dp553
g2
Nsg17
S'mov     ecx, 7'
p554
sg19
S'b907000000'
p555
sg21
Vmov ecx, 7
p556
sg5
L90841L
sg6
Nsg23
S'mov'
p557
sg25
S'0x162d9L'
p558
sg27
Nsba(ibclass
BInstr
p559
(dp560
g2
Nsg17
S'repe cmpsb'
p561
sg19
S'f3a6'
p562
sg21
Vrepe cmpsb byte ptr [rsi], byte ptr [rdi]
p563
sg5
L90846L
sg6
Nsg23
S'cmps'
p564
sg25
S'0x162deL'
p565
sg27
Nsba(ibclass
BInstr
p566
(dp567
g2
Nsg17
S'jz      short loc_16288'
p568
sg19
S'74a6'
p569
sg21
Vje 0xffffffffffffffa8
p570
sg5
L90848L
sg6
Nsg23
S'jz'
p571
sg25
S'0x162e0L'
p572
sg27
Nsbasg105
(lp573
S'mov reg, mem'
p574
aS'lea reg, aSqlite_'
p575
aS'mov reg, 7'
p576
aS'repe cmpsb'
p577
aS'jz func'
p578
asg119
Nsg5
S'0x162cdL'
p579
sg121
(lp580
S'0x162b0L'
p581
asg6
Nsg123
(lp582
S'0x16288L'
p583
aS'0x162e2L'
p584
asg127
Nsg128
Nsg129
S'593877911c5c870523dc64d3e34d8b32'
p585
sg131
S'e18c150e70ed7416a392ccdb11b04798'
p586
sg133
(lp587
g543
ag550
ag557
ag564
ag571
asg135
Nsba(ibclass
BBasicBlock
p588
(dp589
g12
Nsg13
(lp590
(ibclass
BInstr
p591
(dp592
g2
Nsg17
S'lea     rdi, unk_EABC8'
p593
sg19
S'488d3ddf480d00'
p594
sg21
Vlea rdi, [rip + 0xd48df]
p595
sg5
L90850L
sg6
Nsg23
S'lea'
p596
sg25
S'0x162e2L'
p597
sg27
Nsba(ibclass
BInstr
p598
(dp599
g2
Nsg17
S'mov     ecx, 14h'
p600
sg19
S'b914000000'
p601
sg21
Vmov ecx, 0x14
p602
sg5
L90857L
sg6
Nsg23
S'mov'
p603
sg25
S'0x162e9L'
p604
sg27
Nsba(ibclass
BInstr
p605
(dp606
g2
Nsg17
S'mov     rsi, rbp'
p607
sg19
S'4889ee'
p608
sg21
Vmov rsi, rbp
p609
sg5
L90862L
sg6
Nsg23
S'mov'
p610
sg25
S'0x162eeL'
p611
sg27
Nsba(ibclass
BInstr
p612
(dp613
g2
Nsg17
S'repe cmpsb'
p614
sg19
S'f3a6'
p615
sg21
Vrepe cmpsb byte ptr [rsi], byte ptr [rdi]
p616
sg5
L90865L
sg6
Nsg23
S'cmps'
p617
sg25
S'0x162f1L'
p618
sg27
Nsba(ibclass
BInstr
p619
(dp620
g2
Nsg17
S'jnz     loc_16808'
p621
sg19
S'0f850f050000'
p622
sg21
Vjne 0x515
p623
sg5
L90867L
sg6
Nsg23
S'jnz'
p624
sg25
S'0x162f3L'
p625
sg27
Nsbasg105
(lp626
S'lea reg, func'
p627
aS'mov reg, 14h'
p628
aS'mov reg, reg'
p629
aS'repe cmpsb'
p630
aS'jnz func'
p631
asg119
Nsg5
S'0x162e2L'
p632
sg121
(lp633
S'0x162cdL'
p634
asg6
Nsg123
(lp635
S'0x162f9L'
p636
aS'0x16808L'
p637
asg127
Nsg128
Nsg129
S'be9d2e47a46f54e5f41abe8dbdabe284'
p638
sg131
S'd439e8cecc4008fff87a2708ca230dd9'
p639
sg133
(lp640
g596
ag603
ag610
ag617
ag624
asg135
Nsba(ibclass
BBasicBlock
p641
(dp642
g12
Nsg13
(lp643
(ibclass
BInstr
p644
(dp645
g2
Nsg17
S'mov     edx, [p+40h]'
p646
sg19
S'418b5740'
p647
sg21
Vmov edx, dword ptr [r15 + 0x40]
p648
sg5
L90873L
sg6
Nsg23
S'mov'
p649
sg25
S'0x162f9L'
p650
sg27
Nsba(ibclass
BInstr
p651
(dp652
g2
Nsg17
S'test    edx, edx'
p653
sg19
S'85d2'
p654
sg21
Vtest edx, edx
p655
sg5
L90877L
sg6
Nsg23
S'test'
p656
sg25
S'0x162fdL'
p657
sg27
Nsba(ibclass
BInstr
p658
(dp659
g2
Nsg17
S'jnz     short loc_16323'
p660
sg19
S'7522'
p661
sg21
Vjne 0x24
p662
sg5
L90879L
sg6
Nsg23
S'jnz'
p663
sg25
S'0x162ffL'
p664
sg27
Nsbasg105
(lp665
S'mov reg, mem'
p666
aS'test reg, reg'
p667
aS'jnz func'
p668
asg119
Nsg5
S'0x162f9L'
p669
sg121
(lp670
S'0x162e2L'
p671
asg6
Nsg123
(lp672
S'0x16301L'
p673
aS'0x16323L'
p674
asg127
Nsg128
Nsg129
S'a6d8ad6ec923c77b5487e3deac08e465'
p675
sg131
S'58cb979f9e7578d3326afbd56e773219'
p676
sg133
(lp677
g649
ag656
ag663
asg135
Nsba(ibclass
BBasicBlock
p678
(dp679
g12
Nsg13
(lp680
(ibclass
BInstr
p681
(dp682
g2
Nsg17
S'mov     rcx, [p+20h]    ; s'
p683
sg19
S'498b4f20'
p684
sg21
Vmov rcx, qword ptr [r15 + 0x20]
p685
sg5
L90881L
sg6
Nsg23
S'mov'
p686
sg25
S'0x16301L'
p687
sg27
Nsba(ibclass
BInstr
p688
(dp689
g2
Nsg17
S'lea     rdi, aPragmaWritable; "PRAGMA writable_schema=ON;\\n"'
p690
sg19
S'488d3dd1480d00'
p691
sg21
Vlea rdi, [rip + 0xd48d1]
p692
sg5
L90885L
sg6
Nsg23
S'lea'
p693
sg25
S'0x16305L'
p694
sg27
Nsba(ibclass
BInstr
p695
(dp696
g2
Nsg17
S'mov     edx, 1Bh        ; n'
p697
sg19
S'ba1b000000'
p698
sg21
Vmov edx, 0x1b
p699
sg5
L90892L
sg6
Nsg23
S'mov'
p700
sg25
S'0x1630cL'
p701
sg27
Nsba(ibclass
BInstr
p702
(dp703
g2
Nsg17
S'mov     esi, 1          ; size'
p704
sg19
S'be01000000'
p705
sg21
Vmov esi, 1
p706
sg5
L90897L
sg6
Nsg23
S'mov'
p707
sg25
S'0x16311L'
p708
sg27
Nsba(ibclass
BInstr
p709
(dp710
g2
Nsg17
S'call    fwrite'
p711
sg19
S'e8b550ffff'
p712
sg21
Vcall 0xffffffffffff50ba
p713
sg5
L90902L
sg6
Nsg23
S'call'
p714
sg25
S'0x16316L'
p715
sg27
Nsba(ibclass
BInstr
p716
(dp717
g2
Nsg17
S'mov     dword ptr [p+40h], 1'
p718
sg19
S'41c7474001000000'
p719
sg21
Vmov dword ptr [r15 + 0x40], 1
p720
sg5
L90907L
sg6
Nsg23
S'mov'
p721
sg25
S'0x1631bL'
p722
sg27
Nsbasg105
(lp723
S'mov reg, mem'
p724
aS'lea reg, aPragmaWritarege'
p725
aS'mov reg, 1Bh'
p726
aS'mov reg, 1'
p727
aS'cregl fwrite'
p728
aS'mov mem, 1'
p729
asg119
Nsg5
S'0x16301L'
p730
sg121
(lp731
S'0x162f9L'
p732
asg6
Nsg123
(lp733
S'0x16323L'
p734
asg127
Nsg128
Nsg129
S'd04e1a4b14e46620acbd0177c1733080'
p735
sg131
S'172b1091592a75d2be2cf7de107d28ff'
p736
sg133
(lp737
g686
ag693
ag700
ag707
ag714
ag721
asg135
Nsba(ibclass
BBasicBlock
p738
(dp739
g12
Nsg13
(lp740
(ibclass
BInstr
p741
(dp742
g2
Nsg17
S'mov     rsi, [rsp+98h+zTable]'
p743
sg19
S'488b742418'
p744
sg21
Vmov rsi, qword ptr [rsp + 0x18]
p745
sg5
L90915L
sg6
Nsg23
S'mov'
p746
sg25
S'0x16323L'
p747
sg27
Nsba(ibclass
BInstr
p748
(dp749
g2
Nsg17
S'lea     rdi, aInsertIntoSqli; "INSERT INTO sqlite_master(type,name,tbl"...'
p750
sg19
S'488d3df9650d00'
p751
sg21
Vlea rdi, [rip + 0xd65f9]
p752
sg5
L90920L
sg6
Nsg23
S'lea'
p753
sg25
S'0x16328L'
p754
sg27
Nsba(ibclass
BInstr
p755
(dp756
g2
Nsg17
S'mov     rcx, rbp'
p757
sg19
S'4889e9'
p758
sg21
Vmov rcx, rbp
p759
sg5
L90927L
sg6
Nsg23
S'mov'
p760
sg25
S'0x1632fL'
p761
sg27
Nsba(ibclass
BInstr
p762
(dp763
g2
Nsg17
S'xor     eax, eax'
p764
sg19
S'31c0'
p765
sg21
Vxor eax, eax
p766
sg5
L90930L
sg6
Nsg23
S'xor'
p767
sg25
S'0x16332L'
p768
sg27
Nsba(ibclass
BInstr
p769
(dp770
g2
Nsg17
S'mov     rdx, rsi'
p771
sg19
S'4889f2'
p772
sg21
Vmov rdx, rsi
p773
sg5
L90932L
sg6
Nsg23
S'mov'
p774
sg25
S'0x16334L'
p775
sg27
Nsba(ibclass
BInstr
p776
(dp777
g2
Nsg17
S'call    sqlite3_mprintf'
p778
sg19
S'e8648b0500'
p779
sg21
Vcall 0x58b69
p780
sg5
L90935L
sg6
Nsg23
S'call'
p781
sg25
S'0x16337L'
p782
sg27
Nsba(ibclass
BInstr
p783
(dp784
g2
Nsg17
S'mov     rdi, [p+20h]'
p785
sg19
S'498b7f20'
p786
sg21
Vmov rdi, qword ptr [r15 + 0x20]
p787
sg5
L90940L
sg6
Nsg23
S'mov'
p788
sg25
S'0x1633cL'
p789
sg27
Nsba(ibclass
BInstr
p790
(dp791
g2
Nsg17
S'lea     rdx, aDS+5      ; "%s\\n"'
p792
sg19
S'488d15b0440d00'
p793
sg21
Vlea rdx, [rip + 0xd44b0]
p794
sg5
L90944L
sg6
Nsg23
S'lea'
p795
sg25
S'0x16340L'
p796
sg27
Nsba(ibclass
BInstr
p797
(dp798
g2
Nsg17
S'mov     zType, rax'
p799
sg19
S'4889c3'
p800
sg21
Vmov rbx, rax
p801
sg5
L90951L
sg6
Nsg23
S'mov'
p802
sg25
S'0x16347L'
p803
sg27
Nsba(ibclass
BInstr
p804
(dp805
g2
Nsg17
S'mov     rcx, zIns'
p806
sg19
S'4889c1'
p807
sg21
Vmov rcx, rax
p808
sg5
L90954L
sg6
Nsg23
S'mov'
p809
sg25
S'0x1634aL'
p810
sg27
Nsba(ibclass
BInstr
p811
(dp812
g2
Nsg17
S'mov     esi, 1'
p813
sg19
S'be01000000'
p814
sg21
Vmov esi, 1
p815
sg5
L90957L
sg6
Nsg23
S'mov'
p816
sg25
S'0x1634dL'
p817
sg27
Nsba(ibclass
BInstr
p818
(dp819
g2
Nsg17
S'xor     eax, eax'
p820
sg19
S'31c0'
p821
sg21
Vxor eax, eax
p822
sg5
L90962L
sg6
Nsg23
S'xor'
p823
sg25
S'0x16352L'
p824
sg27
Nsba(ibclass
BInstr
p825
(dp826
g2
Nsg17
S'call    __fprintf_chk'
p827
sg19
S'e87f50ffff'
p828
sg21
Vcall 0xffffffffffff5084
p829
sg5
L90964L
sg6
Nsg23
S'call'
p830
sg25
S'0x16354L'
p831
sg27
Nsba(ibclass
BInstr
p832
(dp833
g2
Nsg17
S'mov     rdi, zIns       ; p'
p834
sg19
S'4889df'
p835
sg21
Vmov rdi, rbx
p836
sg5
L90969L
sg6
Nsg23
S'mov'
p837
sg25
S'0x16359L'
p838
sg27
Nsba(ibclass
BInstr
p839
(dp840
g2
Nsg17
S'call    sqlite3_free'
p841
sg19
S'e8ff3b0100'
p842
sg21
Vcall 0x13c04
p843
sg5
L90972L
sg6
Nsg23
S'call'
p844
sg25
S'0x1635cL'
p845
sg27
Nsba(ibclass
BInstr
p846
(dp847
g2
Nsg17
S'jmp     loc_16288'
p848
sg19
S'e922ffffff'
p849
sg21
Vjmp 0xffffffffffffff27
p850
sg5
L90977L
sg6
Nsg23
S'jmp'
p851
sg25
S'0x16361L'
p852
sg27
Nsbasg105
(lp853
S'mov reg, mem'
p854
aS'lea reg, aInsertIntoSqli'
p855
aS'mov reg, reg'
p856
aS'xor reg, reg'
p857
aS'mov reg, reg'
p858
aS'cregl sqlite3_mprintf'
p859
aS'mov reg, mem'
p860
aS'lea reg, aDS+5'
p861
aS'mov zType, reg'
p862
aS'mov reg, zIns'
p863
aS'mov reg, 1'
p864
aS'xor reg, reg'
p865
aS'cregl __fprintf_chk'
p866
aS'mov reg, zIns'
p867
aS'cregl sqlite3_free'
p868
aS'jmp func'
p869
asg119
Nsg5
S'0x16323L'
p870
sg121
(lp871
S'0x162f9L'
p872
aS'0x16301L'
p873
asg6
Nsg123
(lp874
S'0x16288L'
p875
asg127
Nsg128
Nsg129
S'4c84f0c0283153f30cb3e72d239fac10'
p876
sg131
S'4ed52e2eb2e73a7c7fcef420ac2c88c7'
p877
sg133
(lp878
g746
ag753
ag760
ag767
ag774
ag781
ag788
ag795
ag802
ag809
ag816
ag823
ag830
ag837
ag844
ag851
asg135
Nsba(ibclass
BBasicBlock
p879
(dp880
g12
Nsg13
(lp881
(ibclass
BInstr
p882
(dp883
g2
Nsg17
S'mov     eax, [p+4Ch]'
p884
sg19
S'418b474c'
p885
sg21
Vmov eax, dword ptr [r15 + 0x4c]
p886
sg5
L90992L
sg6
Nsg23
S'mov'
p887
sg25
S'0x16370L'
p888
sg27
Nsba(ibclass
BInstr
p889
(dp890
g2
Nsg17
S'mov     rsi, [rsp+98h+zTable]'
p891
sg19
S'488b742418'
p892
sg21
Vmov rsi, qword ptr [rsp + 0x18]
p893
sg5
L90996L
sg6
Nsg23
S'mov'
p894
sg25
S'0x16374L'
p895
sg27
Nsba(ibclass
BInstr
p896
(dp897
g2
Nsg17
S'lea     rdi, aPragmaTable_in; "PRAGMA table_info=%Q"'
p898
sg19
S'488d3d79480d00'
p899
sg21
Vlea rdi, [rip + 0xd4879]
p900
sg5
L91001L
sg6
Nsg23
S'lea'
p901
sg25
S'0x16379L'
p902
sg27
Nsba(ibclass
BInstr
p903
(dp904
g2
Nsg17
S'shr     eax, 4'
p905
sg19
S'c1e804'
p906
sg21
Vshr eax, 4
p907
sg5
L91008L
sg6
Nsg23
S'shr'
p908
sg25
S'0x16380L'
p909
sg27
Nsba(ibclass
BInstr
p910
(dp911
g2
Nsg17
S'and     eax, 1'
p912
sg19
S'83e001'
p913
sg21
Vand eax, 1
p914
sg5
L91011L
sg6
Nsg23
S'and'
p915
sg25
S'0x16383L'
p916
sg27
Nsba(ibclass
BInstr
p917
(dp918
g2
Nsg17
S'mov     byte ptr [rsp+98h+var_6C], al'
p919
sg19
S'8844242c'
p920
sg21
Vmov byte ptr [rsp + 0x2c], al
p921
sg5
L91014L
sg6
Nsg23
S'mov'
p922
sg25
S'0x16386L'
p923
sg27
Nsba(ibclass
BInstr
p924
(dp925
g2
Nsg17
S'xor     eax, eax'
p926
sg19
S'31c0'
p927
sg21
Vxor eax, eax
p928
sg5
L91018L
sg6
Nsg23
S'xor'
p929
sg25
S'0x1638aL'
p930
sg27
Nsba(ibclass
BInstr
p931
(dp932
g2
Nsg17
S'call    sqlite3_mprintf'
p933
sg19
S'e80f8b0500'
p934
sg21
Vcall 0x58b14
p935
sg5
L91020L
sg6
Nsg23
S'call'
p936
sg25
S'0x1638cL'
p937
sg27
Nsba(ibclass
BInstr
p938
(dp939
g2
Nsg17
S'mov     rdi, [p]        ; db'
p940
sg19
S'498b3f'
p941
sg21
Vmov rdi, qword ptr [r15]
p942
sg5
L91025L
sg6
Nsg23
S'mov'
p943
sg25
S'0x16391L'
p944
sg27
Nsba(ibclass
BInstr
p945
(dp946
g2
Nsg17
S'mov     zType, rax'
p947
sg19
S'4889c3'
p948
sg21
Vmov rbx, rax
p949
sg5
L91028L
sg6
Nsg23
S'mov'
p950
sg25
S'0x16394L'
p951
sg27
Nsba(ibclass
BInstr
p952
(dp953
g2
Nsg17
S'lea     rax, [rsp+98h+sTable]'
p954
sg19
S'488d442440'
p955
sg21
Vlea rax, [rsp + 0x40]
p956
sg5
L91031L
sg6
Nsg23
S'lea'
p957
sg25
S'0x16397L'
p958
sg27
Nsba(ibclass
BInstr
p959
(dp960
g2
Nsg17
S'xor     r8d, r8d        ; pzTail'
p961
sg19
S'4531c0'
p962
sg21
Vxor r8d, r8d
p963
sg5
L91036L
sg6
Nsg23
S'xor'
p964
sg25
S'0x1639cL'
p965
sg27
Nsba(ibclass
BInstr
p966
(dp967
g2
Nsg17
S'mov     edx, 0FFFFFFFFh ; nBytes'
p968
sg19
S'baffffffff'
p969
sg21
Vmov edx, 0xffffffff
p970
sg5
L91039L
sg6
Nsg23
S'mov'
p971
sg25
S'0x1639fL'
p972
sg27
Nsba(ibclass
BInstr
p973
(dp974
g2
Nsg17
S'mov     rsi, rbx        ; zSql'
p975
sg19
S'4889de'
p976
sg21
Vmov rsi, rbx
p977
sg5
L91044L
sg6
Nsg23
S'mov'
p978
sg25
S'0x163a4L'
p979
sg27
Nsba(ibclass
BInstr
p980
(dp981
g2
Nsg17
S'mov     rcx, rax        ; ppStmt'
p982
sg19
S'4889c1'
p983
sg21
Vmov rcx, rax
p984
sg5
L91047L
sg6
Nsg23
S'mov'
p985
sg25
S'0x163a7L'
p986
sg27
Nsba(ibclass
BInstr
p987
(dp988
g2
Nsg17
S'mov     [rsp+98h+ppStmt], rax'
p989
sg19
S'4889442420'
p990
sg21
Vmov qword ptr [rsp + 0x20], rax
p991
sg5
L91050L
sg6
Nsg23
S'mov'
p992
sg25
S'0x163aaL'
p993
sg27
Nsba(ibclass
BInstr
p994
(dp995
g2
Nsg17
S'call    sqlite3_prepare_v2'
p996
sg19
S'e81c6f0a00'
p997
sg21
Vcall 0xa6f21
p998
sg5
L91055L
sg6
Nsg23
S'call'
p999
sg25
S'0x163afL'
p1000
sg27
Nsba(ibclass
BInstr
p1001
(dp1002
g2
Nsg17
S'mov     rdi, rbx        ; p'
p1003
sg19
S'4889df'
p1004
sg21
Vmov rdi, rbx
p1005
sg5
L91060L
sg6
Nsg23
S'mov'
p1006
sg25
S'0x163b4L'
p1007
sg27
Nsba(ibclass
BInstr
p1008
(dp1009
g2
Nsg17
S'mov     ebp, eax'
p1010
sg19
S'89c5'
p1011
sg21
Vmov ebp, eax
p1012
sg5
L91063L
sg6
Nsg23
S'mov'
p1013
sg25
S'0x163b7L'
p1014
sg27
Nsba(ibclass
BInstr
p1015
(dp1016
g2
Nsg17
S'call    sqlite3_free'
p1017
sg19
S'e8a23b0100'
p1018
sg21
Vcall 0x13ba7
p1019
sg5
L91065L
sg6
Nsg23
S'call'
p1020
sg25
S'0x163b9L'
p1021
sg27
Nsba(ibclass
BInstr
p1022
(dp1023
g2
Nsg17
S'test    ebp, ebp'
p1024
sg19
S'85ed'
p1025
sg21
Vtest ebp, ebp
p1026
sg5
L91070L
sg6
Nsg23
S'test'
p1027
sg25
S'0x163beL'
p1028
sg27
Nsba(ibclass
BInstr
p1029
(dp1030
g2
Nsg17
S'jnz     loc_1675E'
p1031
sg19
S'0f8598030000'
p1032
sg21
Vjne 0x39e
p1033
sg5
L91072L
sg6
Nsg23
S'jnz'
p1034
sg25
S'0x163c0L'
p1035
sg27
Nsbasg105
(lp1036
S'mov reg, mem'
p1037
aS'mov reg, mem'
p1038
aS'lea reg, aPragmaTarege_in'
p1039
aS'shr reg, 4'
p1040
aS'and reg, 1'
p1041
aS'mov mem, reg'
p1042
aS'xor reg, reg'
p1043
aS'cregl sqlite3_mprintf'
p1044
aS'mov reg, mem'
p1045
aS'mov zType, reg'
p1046
aS'lea reg, mem'
p1047
aS'xor regd, regd'
p1048
aS'mov reg, 0FFFFFFFFh'
p1049
aS'mov reg, reg'
p1050
aS'mov reg, reg'
p1051
aS'mov mem, reg'
p1052
aS'cregl sqlite3_prepare_v2'
p1053
aS'mov reg, reg'
p1054
aS'mov reg, reg'
p1055
aS'cregl sqlite3_free'
p1056
aS'test reg, reg'
p1057
aS'jnz func'
p1058
asg119
Nsg5
S'0x16370L'
p1059
sg121
(lp1060
S'0x16271L'
p1061
asg6
Nsg123
(lp1062
S'0x163c6L'
p1063
aS'0x1675eL'
p1064
asg127
Nsg128
Nsg129
S'70b838aa4293baded2fbc70d2217b75d'
p1065
sg131
S'1d99baa353de5291d23b633ec664edf9'
p1066
sg133
(lp1067
g887
ag894
ag901
ag908
ag915
ag922
ag929
ag936
ag943
ag950
ag957
ag964
ag971
ag978
ag985
ag992
ag999
ag1006
ag1013
ag1020
ag1027
ag1034
asg135
Nsba(ibclass
BBasicBlock
p1068
(dp1069
g12
Nsg13
(lp1070
(ibclass
BInstr
p1071
(dp1072
g2
Nsg17
S'mov     ebp, 8'
p1073
sg19
S'bd08000000'
p1074
sg21
Vmov ebp, 8
p1075
sg5
L91078L
sg6
Nsg23
S'mov'
p1076
sg25
S'0x163c6L'
p1077
sg27
Nsba(ibclass
BInstr
p1078
(dp1079
g2
Nsg17
S'mov     dword ptr [rsp+98h+var_88], 0'
p1080
sg19
S'c744241000000000'
p1081
sg21
Vmov dword ptr [rsp + 0x10], 0
p1082
sg5
L91083L
sg6
Nsg23
S'mov'
p1083
sg25
S'0x163cbL'
p1084
sg27
Nsba(ibclass
BInstr
p1085
(dp1086
g2
Nsg17
S'mov     dword ptr [rsp+98h+var_90], 0'
p1087
sg19
S'c744240800000000'
p1088
sg21
Vmov dword ptr [rsp + 8], 0
p1089
sg5
L91091L
sg6
Nsg23
S'mov'
p1090
sg25
S'0x163d3L'
p1091
sg27
Nsba(ibclass
BInstr
p1092
(dp1093
g2
Nsg17
S'xor     r13d, r13d'
p1094
sg19
S'4531ed'
p1095
sg21
Vxor r13d, r13d
p1096
sg5
L91099L
sg6
Nsg23
S'xor'
p1097
sg25
S'0x163dbL'
p1098
sg27
Nsba(ibclass
BInstr
p1099
(dp1100
g2
Nsg17
S'xor     ebx, ebx'
p1101
sg19
S'31db'
p1102
sg21
Vxor ebx, ebx
p1103
sg5
L91102L
sg6
Nsg23
S'xor'
p1104
sg25
S'0x163deL'
p1105
sg27
Nsba(ibclass
BInstr
p1106
(dp1107
g2
Nsg17
S'xor     r12d, r12d'
p1108
sg19
S'4531e4'
p1109
sg21
Vxor r12d, r12d
p1110
sg5
L91104L
sg6
Nsg23
S'xor'
p1111
sg25
S'0x163e0L'
p1112
sg27
Nsba(ibclass
BInstr
p1113
(dp1114
g2
Nsg17
S'jmp     short loc_163EC'
p1115
sg19
S'eb07'
p1116
sg21
Vjmp 9
p1117
sg5
L91107L
sg6
Nsg23
S'jmp'
p1118
sg25
S'0x163e3L'
p1119
sg27
Nsbasg105
(lp1120
S'mov reg, 8'
p1121
aS'mov mem, 0'
p1122
aS'mov mem, 0'
p1123
aS'xor regd, regd'
p1124
aS'xor reg, reg'
p1125
aS'xor regd, regd'
p1126
aS'jmp func'
p1127
asg119
Nsg5
S'0x163c6L'
p1128
sg121
(lp1129
S'0x16370L'
p1130
asg6
Nsg123
(lp1131
S'0x163ecL'
p1132
asg127
Nsg128
Nsg129
S'cf649b39b3bb8dfe4e587f4662ae5baa'
p1133
sg131
S'cba1bf0fe19d8e6126017f2286a10ba5'
p1134
sg133
(lp1135
g1076
ag1083
ag1090
ag1097
ag1104
ag1111
ag1118
asg135
Nsba(ibclass
BBasicBlock
p1136
(dp1137
g12
Nsg13
(lp1138
(ibclass
BInstr
p1139
(dp1140
g2
Nsg17
S'add     rbp, 8'
p1141
sg19
S'4883c508'
p1142
sg21
Vadd rbp, 8
p1143
sg5
L91112L
sg6
Nsg23
S'add'
p1144
sg25
S'0x163e8L'
p1145
sg27
Nsbasg105
(lp1146
S'add reg, 8'
p1147
asg119
Nsg5
S'0x163e8L'
p1148
sg121
(lp1149
S'0x16428L'
p1150
aS'0x16465L'
p1151
aS'0x1647fL'
p1152
asg6
Nsg123
(lp1153
S'0x163ecL'
p1154
asg127
Nsg128
Nsg129
S'34ec78fcc91ffb1e54cd85e4a0924332'
p1155
sg131
S'31570efc3b6350b441e59dfc5ab65acd'
p1156
sg133
(lp1157
g1144
asg135
Nsba(ibclass
BBasicBlock
p1158
(dp1159
g12
Nsg13
(lp1160
(ibclass
BInstr
p1161
(dp1162
g2
Nsg17
S'mov     rdi, [rsp+98h+sTable.z]; pStmt'
p1163
sg19
S'488b7c2440'
p1164
sg21
Vmov rdi, qword ptr [rsp + 0x40]
p1165
sg5
L91116L
sg6
Nsg23
S'mov'
p1166
sg25
S'0x163ecL'
p1167
sg27
Nsba(ibclass
BInstr
p1168
(dp1169
g2
Nsg17
S'call    sqlite3_step'
p1170
sg19
S'e83a270900'
p1171
sg21
Vcall 0x9273f
p1172
sg5
L91121L
sg6
Nsg23
S'call'
p1173
sg25
S'0x163f1L'
p1174
sg27
Nsba(ibclass
BInstr
p1175
(dp1176
g2
Nsg17
S'cmp     eax, 64h'
p1177
sg19
S'83f864'
p1178
sg21
Vcmp eax, 0x64
p1179
sg5
L91126L
sg6
Nsg23
S'cmp'
p1180
sg25
S'0x163f6L'
p1181
sg27
Nsba(ibclass
BInstr
p1182
(dp1183
g2
Nsg17
S'jnz     loc_164B0'
p1184
sg19
S'0f85b1000000'
p1185
sg21
Vjne 0xb7
p1186
sg5
L91129L
sg6
Nsg23
S'jnz'
p1187
sg25
S'0x163f9L'
p1188
sg27
Nsbasg105
(lp1189
S'mov reg, mem'
p1190
aS'cregl sqlite3_step'
p1191
aS'cmp reg, 64h'
p1192
aS'jnz func'
p1193
asg119
Nsg5
S'0x163ecL'
p1194
sg121
(lp1195
S'0x163c6L'
p1196
aS'0x163e8L'
p1197
asg6
Nsg123
(lp1198
S'0x163ffL'
p1199
aS'0x164b0L'
p1200
asg127
Nsg128
Nsg129
S'52848fb257bff3459c6b3e63c99267ca'
p1201
sg131
S'1f4d12e441f302c335b2eced2418bf26'
p1202
sg133
(lp1203
g1166
ag1173
ag1180
ag1187
asg135
Nsba(ibclass
BBasicBlock
p1204
(dp1205
g12
Nsg13
(lp1206
(ibclass
BInstr
p1207
(dp1208
g2
Nsg17
S'lea     eax, [r13-2]'
p1209
sg19
S'418d45fe'
p1210
sg21
Vlea eax, [r13 - 2]
p1211
sg5
L91135L
sg6
Nsg23
S'lea'
p1212
sg25
S'0x163ffL'
p1213
sg27
Nsba(ibclass
BInstr
p1214
(dp1215
g2
Nsg17
S'cmp     eax, ebx'
p1216
sg19
S'39d8'
p1217
sg21
Vcmp eax, ebx
p1218
sg5
L91139L
sg6
Nsg23
S'cmp'
p1219
sg25
S'0x16403L'
p1220
sg27
Nsba(ibclass
BInstr
p1221
(dp1222
g2
Nsg17
S'jg      short loc_16428'
p1223
sg19
S'7f21'
p1224
sg21
Vjg 0x23
p1225
sg5
L91141L
sg6
Nsg23
S'jg'
p1226
sg25
S'0x16405L'
p1227
sg27
Nsbasg105
(lp1228
S'lea reg, mem'
p1229
aS'cmp reg, reg'
p1230
aS'jg func'
p1231
asg119
Nsg5
S'0x163ffL'
p1232
sg121
(lp1233
S'0x163ecL'
p1234
asg6
Nsg123
(lp1235
S'0x16407L'
p1236
aS'0x16428L'
p1237
asg127
Nsg128
Nsg129
S'd57b7a237bca28ab3ac03b80b4d78516'
p1238
sg131
S'7260fadc9b75502ec4796a2894e6c72b'
p1239
sg133
(lp1240
g1212
ag1219
ag1226
asg135
Nsba(ibclass
BBasicBlock
p1241
(dp1242
g12
Nsg13
(lp1243
(ibclass
BInstr
p1244
(dp1245
g2
Nsg17
S'lea     r13d, [rbx+r13*2+0Ah]'
p1246
sg19
S'468d6c6b0a'
p1247
sg21
Vlea r13d, [rbx + r13*2 + 0xa]
p1248
sg5
L91143L
sg6
Nsg23
S'lea'
p1249
sg25
S'0x16407L'
p1250
sg27
Nsba(ibclass
BInstr
p1251
(dp1252
g2
Nsg17
S'mov     rdi, r12        ; pOld'
p1253
sg19
S'4c89e7'
p1254
sg21
Vmov rdi, r12
p1255
sg5
L91148L
sg6
Nsg23
S'mov'
p1256
sg25
S'0x1640cL'
p1257
sg27
Nsba(ibclass
BInstr
p1258
(dp1259
g2
Nsg17
S'lea     esi, ds:0[r13*8]; n'
p1260
sg19
S'428d34ed00000000'
p1261
sg21
Vlea esi, [r13*8]
p1262
sg5
L91151L
sg6
Nsg23
S'lea'
p1263
sg25
S'0x1640fL'
p1264
sg27
Nsba(ibclass
BInstr
p1265
(dp1266
g2
Nsg17
S'call    sqlite3_realloc'
p1267
sg19
S'e8d4d70200'
p1268
sg21
Vcall 0x2d7d9
p1269
sg5
L91159L
sg6
Nsg23
S'call'
p1270
sg25
S'0x16417L'
p1271
sg27
Nsba(ibclass
BInstr
p1272
(dp1273
g2
Nsg17
S'test    rax, rax'
p1274
sg19
S'4885c0'
p1275
sg21
Vtest rax, rax
p1276
sg5
L91164L
sg6
Nsg23
S'test'
p1277
sg25
S'0x1641cL'
p1278
sg27
Nsba(ibclass
BInstr
p1279
(dp1280
g2
Nsg17
S'mov     r12, rax'
p1281
sg19
S'4989c4'
p1282
sg21
Vmov r12, rax
p1283
sg5
L91167L
sg6
Nsg23
S'mov'
p1284
sg25
S'0x1641fL'
p1285
sg27
Nsba(ibclass
BInstr
p1286
(dp1287
g2
Nsg17
S'jz      loc_168D4'
p1288
sg19
S'0f84ac040000'
p1289
sg21
Vje 0x4b2
p1290
sg5
L91170L
sg6
Nsg23
S'jz'
p1291
sg25
S'0x16422L'
p1292
sg27
Nsbasg105
(lp1293
S'lea regd, mem'
p1294
aS'mov reg, reg'
p1295
aS'lea reg, ds:0mem'
p1296
aS'cregl sqlite3_reregloc'
p1297
aS'test reg, reg'
p1298
aS'mov reg, reg'
p1299
aS'jz func'
p1300
asg119
Nsg5
S'0x16407L'
p1301
sg121
(lp1302
S'0x163ffL'
p1303
asg6
Nsg123
(lp1304
S'0x16428L'
p1305
aS'0x168d4L'
p1306
asg127
Nsg128
Nsg129
S'e1cc0c00928ee9deac952d54642c533f'
p1307
sg131
S'9b80087043cd431402d473495982b955'
p1308
sg133
(lp1309
g1249
ag1256
ag1263
ag1270
ag1277
ag1284
ag1291
asg135
Nsba(ibclass
BBasicBlock
p1310
(dp1311
g12
Nsg13
(lp1312
(ibclass
BInstr
p1313
(dp1314
g2
Nsg17
S'mov     rdi, [rsp+98h+sTable.z]; pStmt'
p1315
sg19
S'488b7c2440'
p1316
sg21
Vmov rdi, qword ptr [rsp + 0x40]
p1317
sg5
L91176L
sg6
Nsg23
S'mov'
p1318
sg25
S'0x16428L'
p1319
sg27
Nsba(ibclass
BInstr
p1320
(dp1321
g2
Nsg17
S'mov     esi, 1          ; i'
p1322
sg19
S'be01000000'
p1323
sg21
Vmov esi, 1
p1324
sg5
L91181L
sg6
Nsg23
S'mov'
p1325
sg25
S'0x1642dL'
p1326
sg27
Nsba(ibclass
BInstr
p1327
(dp1328
g2
Nsg17
S'lea     r14, [r12+rbp]'
p1329
sg19
S'4d8d342c'
p1330
sg21
Vlea r14, [r12 + rbp]
p1331
sg5
L91186L
sg6
Nsg23
S'lea'
p1332
sg25
S'0x16432L'
p1333
sg27
Nsba(ibclass
BInstr
p1334
(dp1335
g2
Nsg17
S'add     ebx, 1'
p1336
sg19
S'83c301'
p1337
sg21
Vadd ebx, 1
p1338
sg5
L91190L
sg6
Nsg23
S'add'
p1339
sg25
S'0x16436L'
p1340
sg27
Nsba(ibclass
BInstr
p1341
(dp1342
g2
Nsg17
S'call    sqlite3_column_text'
p1343
sg19
S'e862ae0300'
p1344
sg21
Vcall 0x3ae67
p1345
sg5
L91193L
sg6
Nsg23
S'call'
p1346
sg25
S'0x16439L'
p1347
sg27
Nsba(ibclass
BInstr
p1348
(dp1349
g2
Nsg17
S'lea     rdi, aOptionsInclude+11h; zFormat'
p1350
sg19
S'488d3ddc550d00'
p1351
sg21
Vlea rdi, [rip + 0xd55dc]
p1352
sg5
L91198L
sg6
Nsg23
S'lea'
p1353
sg25
S'0x1643eL'
p1354
sg27
Nsba(ibclass
BInstr
p1355
(dp1356
g2
Nsg17
S'mov     rsi, rax'
p1357
sg19
S'4889c6'
p1358
sg21
Vmov rsi, rax
p1359
sg5
L91205L
sg6
Nsg23
S'mov'
p1360
sg25
S'0x16445L'
p1361
sg27
Nsba(ibclass
BInstr
p1362
(dp1363
g2
Nsg17
S'xor     eax, eax'
p1364
sg19
S'31c0'
p1365
sg21
Vxor eax, eax
p1366
sg5
L91208L
sg6
Nsg23
S'xor'
p1367
sg25
S'0x16448L'
p1368
sg27
Nsba(ibclass
BInstr
p1369
(dp1370
g2
Nsg17
S'call    sqlite3_mprintf'
p1371
sg19
S'e8518a0500'
p1372
sg21
Vcall 0x58a56
p1373
sg5
L91210L
sg6
Nsg23
S'call'
p1374
sg25
S'0x1644aL'
p1375
sg27
Nsba(ibclass
BInstr
p1376
(dp1377
g2
Nsg17
S'mov     [r14], rax'
p1378
sg19
S'498906'
p1379
sg21
Vmov qword ptr [r14], rax
p1380
sg5
L91215L
sg6
Nsg23
S'mov'
p1381
sg25
S'0x1644fL'
p1382
sg27
Nsba(ibclass
BInstr
p1383
(dp1384
g2
Nsg17
S'mov     rdi, [rsp+98h+sTable.z]; pStmt'
p1385
sg19
S'488b7c2440'
p1386
sg21
Vmov rdi, qword ptr [rsp + 0x40]
p1387
sg5
L91218L
sg6
Nsg23
S'mov'
p1388
sg25
S'0x16452L'
p1389
sg27
Nsba(ibclass
BInstr
p1390
(dp1391
g2
Nsg17
S'mov     esi, 5          ; i'
p1392
sg19
S'be05000000'
p1393
sg21
Vmov esi, 5
p1394
sg5
L91223L
sg6
Nsg23
S'mov'
p1395
sg25
S'0x16457L'
p1396
sg27
Nsba(ibclass
BInstr
p1397
(dp1398
g2
Nsg17
S'call    sqlite3_column_int'
p1399
sg19
S'e89f4f0200'
p1400
sg21
Vcall 0x24fa4
p1401
sg5
L91228L
sg6
Nsg23
S'call'
p1402
sg25
S'0x1645cL'
p1403
sg27
Nsba(ibclass
BInstr
p1404
(dp1405
g2
Nsg17
S'test    eax, eax'
p1406
sg19
S'85c0'
p1407
sg21
Vtest eax, eax
p1408
sg5
L91233L
sg6
Nsg23
S'test'
p1409
sg25
S'0x16461L'
p1410
sg27
Nsba(ibclass
BInstr
p1411
(dp1412
g2
Nsg17
S'jz      short loc_163E8'
p1413
sg19
S'7483'
p1414
sg21
Vje 0xffffffffffffff85
p1415
sg5
L91235L
sg6
Nsg23
S'jz'
p1416
sg25
S'0x16463L'
p1417
sg27
Nsbasg105
(lp1418
S'mov reg, mem'
p1419
aS'mov reg, 1'
p1420
aS'lea reg, mem'
p1421
aS'add reg, 1'
p1422
aS'cregl sqlite3_column_text'
p1423
aS'lea reg, aOptionsInregude+11h'
p1424
aS'mov reg, reg'
p1425
aS'xor reg, reg'
p1426
aS'cregl sqlite3_mprintf'
p1427
aS'mov mem, reg'
p1428
aS'mov reg, mem'
p1429
aS'mov reg, 5'
p1430
aS'cregl sqlite3_column_int'
p1431
aS'test reg, reg'
p1432
aS'jz func'
p1433
asg119
Nsg5
S'0x16428L'
p1434
sg121
(lp1435
S'0x163ffL'
p1436
aS'0x16407L'
p1437
asg6
Nsg123
(lp1438
S'0x163e8L'
p1439
aS'0x16465L'
p1440
asg127
Nsg128
Nsg129
S'5c2378462062e656490269caaad6e4aa'
p1441
sg131
S'b84cc6aacfdf9741b4d19f1f8e14badf'
p1442
sg133
(lp1443
g1318
ag1325
ag1332
ag1339
ag1346
ag1353
ag1360
ag1367
ag1374
ag1381
ag1388
ag1395
ag1402
ag1409
ag1416
asg135
Nsba(ibclass
BBasicBlock
p1444
(dp1445
g12
Nsg13
(lp1446
(ibclass
BInstr
p1447
(dp1448
g2
Nsg17
S'add     dword ptr [rsp+98h+var_90], 1'
p1449
sg19
S'8344240801'
p1450
sg21
Vadd dword ptr [rsp + 8], 1
p1451
sg5
L91237L
sg6
Nsg23
S'add'
p1452
sg25
S'0x16465L'
p1453
sg27
Nsba(ibclass
BInstr
p1454
(dp1455
g2
Nsg17
S'mov     dword ptr [rsp+98h+var_88], 0'
p1456
sg19
S'c744241000000000'
p1457
sg21
Vmov dword ptr [rsp + 0x10], 0
p1458
sg5
L91242L
sg6
Nsg23
S'mov'
p1459
sg25
S'0x1646aL'
p1460
sg27
Nsba(ibclass
BInstr
p1461
(dp1462
g2
Nsg17
S'mov     eax, dword ptr [rsp+98h+var_90]'
p1463
sg19
S'8b442408'
p1464
sg21
Vmov eax, dword ptr [rsp + 8]
p1465
sg5
L91250L
sg6
Nsg23
S'mov'
p1466
sg25
S'0x16472L'
p1467
sg27
Nsba(ibclass
BInstr
p1468
(dp1469
g2
Nsg17
S'cmp     eax, 1'
p1470
sg19
S'83f801'
p1471
sg21
Vcmp eax, 1
p1472
sg5
L91254L
sg6
Nsg23
S'cmp'
p1473
sg25
S'0x16476L'
p1474
sg27
Nsba(ibclass
BInstr
p1475
(dp1476
g2
Nsg17
S'jnz     loc_163E8'
p1477
sg19
S'0f8569ffffff'
p1478
sg21
Vjne 0xffffffffffffff6f
p1479
sg5
L91257L
sg6
Nsg23
S'jnz'
p1480
sg25
S'0x16479L'
p1481
sg27
Nsbasg105
(lp1482
S'add mem, 1'
p1483
aS'mov mem, 0'
p1484
aS'mov reg, mem'
p1485
aS'cmp reg, 1'
p1486
aS'jnz func'
p1487
asg119
Nsg5
S'0x16465L'
p1488
sg121
(lp1489
S'0x16428L'
p1490
asg6
Nsg123
(lp1491
S'0x163e8L'
p1492
aS'0x1647fL'
p1493
asg127
Nsg128
Nsg129
S'302744fa0069e8f3fe987cb1f0432671'
p1494
sg131
S'b26add8886f29cfe2a454409f310f6e6'
p1495
sg133
(lp1496
g1452
ag1459
ag1466
ag1473
ag1480
asg135
Nsba(ibclass
BBasicBlock
p1497
(dp1498
g12
Nsg13
(lp1499
(ibclass
BInstr
p1500
(dp1501
g2
Nsg17
S'mov     rdi, [rsp+98h+sTable.z]; pStmt'
p1502
sg19
S'488b7c2440'
p1503
sg21
Vmov rdi, qword ptr [rsp + 0x40]
p1504
sg5
L91263L
sg6
Nsg23
S'mov'
p1505
sg25
S'0x1647fL'
p1506
sg27
Nsba(ibclass
BInstr
p1507
(dp1508
g2
Nsg17
S'mov     esi, 2          ; i'
p1509
sg19
S'be02000000'
p1510
sg21
Vmov esi, 2
p1511
sg5
L91268L
sg6
Nsg23
S'mov'
p1512
sg25
S'0x16484L'
p1513
sg27
Nsba(ibclass
BInstr
p1514
(dp1515
g2
Nsg17
S'call    sqlite3_column_text'
p1516
sg19
S'e812ae0300'
p1517
sg21
Vcall 0x3ae17
p1518
sg5
L91273L
sg6
Nsg23
S'call'
p1519
sg25
S'0x16489L'
p1520
sg27
Nsba(ibclass
BInstr
p1521
(dp1522
g2
Nsg17
S'lea     rsi, aInteger   ; "INTEGER"'
p1523
sg19
S'488d358f470d00'
p1524
sg21
Vlea rsi, [rip + 0xd478f]
p1525
sg5
L91278L
sg6
Nsg23
S'lea'
p1526
sg25
S'0x1648eL'
p1527
sg27
Nsba(ibclass
BInstr
p1528
(dp1529
g2
Nsg17
S'mov     rdi, rax        ; zLeft'
p1530
sg19
S'4889c7'
p1531
sg21
Vmov rdi, rax
p1532
sg5
L91285L
sg6
Nsg23
S'mov'
p1533
sg25
S'0x16495L'
p1534
sg27
Nsba(ibclass
BInstr
p1535
(dp1536
g2
Nsg17
S'call    sqlite3_stricmp'
p1537
sg19
S'e883790000'
p1538
sg21
Vcall 0x7988
p1539
sg5
L91288L
sg6
Nsg23
S'call'
p1540
sg25
S'0x16498L'
p1541
sg27
Nsba(ibclass
BInstr
p1542
(dp1543
g2
Nsg17
S'test    eax, eax'
p1544
sg19
S'85c0'
p1545
sg21
Vtest eax, eax
p1546
sg5
L91293L
sg6
Nsg23
S'test'
p1547
sg25
S'0x1649dL'
p1548
sg27
Nsba(ibclass
BInstr
p1549
(dp1550
g2
Nsg17
S'setz    al'
p1551
sg19
S'0f94c0'
p1552
sg21
Vsete al
p1553
sg5
L91295L
sg6
Nsg23
S'setz'
p1554
sg25
S'0x1649fL'
p1555
sg27
Nsba(ibclass
BInstr
p1556
(dp1557
g2
Nsg17
S'movzx   eax, al'
p1558
sg19
S'0fb6c0'
p1559
sg21
Vmovzx eax, al
p1560
sg5
L91298L
sg6
Nsg23
S'movzx'
p1561
sg25
S'0x164a2L'
p1562
sg27
Nsba(ibclass
BInstr
p1563
(dp1564
g2
Nsg17
S'mov     dword ptr [rsp+98h+var_88], eax'
p1565
sg19
S'89442410'
p1566
sg21
Vmov dword ptr [rsp + 0x10], eax
p1567
sg5
L91301L
sg6
Nsg23
S'mov'
p1568
sg25
S'0x164a5L'
p1569
sg27
Nsba(ibclass
BInstr
p1570
(dp1571
g2
Nsg17
S'jmp     loc_163E8'
p1572
sg19
S'e93affffff'
p1573
sg21
Vjmp 0xffffffffffffff3f
p1574
sg5
L91305L
sg6
Nsg23
S'jmp'
p1575
sg25
S'0x164a9L'
p1576
sg27
Nsbasg105
(lp1577
S'mov reg, mem'
p1578
aS'mov reg, 2'
p1579
aS'cregl sqlite3_column_text'
p1580
aS'lea reg, aInteger'
p1581
aS'mov reg, reg'
p1582
aS'cregl sqlite3_stricmp'
p1583
aS'test reg, reg'
p1584
aS'setz reg'
p1585
aS'movzx reg, reg'
p1586
aS'mov mem, reg'
p1587
aS'jmp func'
p1588
asg119
Nsg5
S'0x1647fL'
p1589
sg121
(lp1590
S'0x16465L'
p1591
asg6
Nsg123
(lp1592
S'0x163e8L'
p1593
asg127
Nsg128
Nsg129
S'551913a892f1940b09db84b9dd9bc898'
p1594
sg131
S'121ebaf16eb72920cc08b1f37b57b4b9'
p1595
sg133
(lp1596
g1505
ag1512
ag1519
ag1526
ag1533
ag1540
ag1547
ag1554
ag1561
ag1568
ag1575
asg135
Nsba(ibclass
BBasicBlock
p1597
(dp1598
g12
Nsg13
(lp1599
(ibclass
BInstr
p1600
(dp1601
g2
Nsg17
S'mov     rdi, [rsp+98h+sTable.z]; pStmt'
p1602
sg19
S'488b7c2440'
p1603
sg21
Vmov rdi, qword ptr [rsp + 0x40]
p1604
sg5
L91312L
sg6
Nsg23
S'mov'
p1605
sg25
S'0x164b0L'
p1606
sg27
Nsba(ibclass
BInstr
p1607
(dp1608
g2
Nsg17
S'call    sqlite3_finalize'
p1609
sg19
S'e806380800'
p1610
sg21
Vcall 0x8380b
p1611
sg5
L91317L
sg6
Nsg23
S'call'
p1612
sg25
S'0x164b5L'
p1613
sg27
Nsba(ibclass
BInstr
p1614
(dp1615
g2
Nsg17
S'movsxd  rax, ebx'
p1616
sg19
S'4863c3'
p1617
sg21
Vmovsxd rax, ebx
p1618
sg5
L91322L
sg6
Nsg23
S'movsxd'
p1619
sg25
S'0x164baL'
p1620
sg27
Nsba(ibclass
BInstr
p1621
(dp1622
g2
Nsg17
S'mov     qword ptr [r12], 0'
p1623
sg19
S'49c7042400000000'
p1624
sg21
Vmov qword ptr [r12], 0
p1625
sg5
L91325L
sg6
Nsg23
S'mov'
p1626
sg25
S'0x164bdL'
p1627
sg27
Nsba(ibclass
BInstr
p1628
(dp1629
g2
Nsg17
S'mov     qword ptr [r12+rax*8+8], 0'
p1630
sg19
S'49c744c40800000000'
p1631
sg21
Vmov qword ptr [r12 + rax*8 + 8], 0
p1632
sg5
L91333L
sg6
Nsg23
S'mov'
p1633
sg25
S'0x164c5L'
p1634
sg27
Nsba(ibclass
BInstr
p1635
(dp1636
g2
Nsg17
S'mov     eax, dword ptr [rsp+98h+var_88]'
p1637
sg19
S'8b442410'
p1638
sg21
Vmov eax, dword ptr [rsp + 0x10]
p1639
sg5
L91342L
sg6
Nsg23
S'mov'
p1640
sg25
S'0x164ceL'
p1641
sg27
Nsba(ibclass
BInstr
p1642
(dp1643
g2
Nsg17
S'test    eax, eax'
p1644
sg19
S'85c0'
p1645
sg21
Vtest eax, eax
p1646
sg5
L91346L
sg6
Nsg23
S'test'
p1647
sg25
S'0x164d2L'
p1648
sg27
Nsba(ibclass
BInstr
p1649
(dp1650
g2
Nsg17
S'jz      short loc_164E1'
p1651
sg19
S'740b'
p1652
sg21
Vje 0xd
p1653
sg5
L91348L
sg6
Nsg23
S'jz'
p1654
sg25
S'0x164d4L'
p1655
sg27
Nsbasg105
(lp1656
S'mov reg, mem'
p1657
aS'cregl sqlite3_finregize'
p1658
aS'movsxd reg, reg'
p1659
aS'mov qmem, 0'
p1660
aS'mov qmem, 0'
p1661
aS'mov reg, mem'
p1662
aS'test reg, reg'
p1663
aS'jz func'
p1664
asg119
Nsg5
S'0x164b0L'
p1665
sg121
(lp1666
S'0x163ecL'
p1667
asg6
Nsg123
(lp1668
S'0x164d6L'
p1669
aS'0x164e1L'
p1670
asg127
Nsg128
Nsg129
S'0d2871115dbc65b04851c36f6fab37c6'
p1671
sg131
S'947a68a43bac375428a4295d1c3b2441'
p1672
sg133
(lp1673
g1605
ag1612
ag1619
ag1626
ag1633
ag1640
ag1647
ag1654
asg135
Nsba(ibclass
BBasicBlock
p1674
(dp1675
g12
Nsg13
(lp1676
(ibclass
BInstr
p1677
(dp1678
g2
Nsg17
S'cmp     byte ptr [rsp+98h+var_6C], 0'
p1679
sg19
S'807c242c00'
p1680
sg21
Vcmp byte ptr [rsp + 0x2c], 0
p1681
sg5
L91350L
sg6
Nsg23
S'cmp'
p1682
sg25
S'0x164d6L'
p1683
sg27
Nsba(ibclass
BInstr
p1684
(dp1685
g2
Nsg17
S'jnz     loc_167A0'
p1686
sg19
S'0f85bf020000'
p1687
sg21
Vjne 0x2c5
p1688
sg5
L91355L
sg6
Nsg23
S'jnz'
p1689
sg25
S'0x164dbL'
p1690
sg27
Nsbasg105
(lp1691
S'cmp mem, 0'
p1692
aS'jnz func'
p1693
asg119
Nsg5
S'0x164d6L'
p1694
sg121
(lp1695
S'0x164b0L'
p1696
asg6
Nsg123
(lp1697
S'0x164e1L'
p1698
aS'0x167a0L'
p1699
asg127
Nsg128
Nsg129
S'30cb3d6f6a174adfabcde507f6944a52'
p1700
sg131
S'98d72118630a4e08156799652c8790e6'
p1701
sg133
(lp1702
g1682
ag1689
asg135
Nsba(ibclass
BBasicBlock
p1703
(dp1704
g12
Nsg13
(lp1705
(ibclass
BInstr
p1706
(dp1707
g2
Nsg17
S'movzx   eax, byte ptr [rsp+98h+var_6C]'
p1708
sg19
S'0fb644242c'
p1709
sg21
Vmovzx eax, byte ptr [rsp + 0x2c]
p1710
sg5
L91361L
sg6
Nsg23
S'movzx'
p1711
sg25
S'0x164e1L'
p1712
sg27
Nsbasg105
(lp1713
S'movzx reg, mem'
p1714
asg119
Nsg5
S'0x164e1L'
p1715
sg121
(lp1716
S'0x164b0L'
p1717
aS'0x164d6L'
p1718
asg6
Nsg123
(lp1719
S'0x164e6L'
p1720
asg127
Nsg128
Nsg129
S'a1514adb735a1622d784ed0b53f4afb6'
p1721
sg131
S'c0da5693c98d145961fef4445a14a5c1'
p1722
sg133
(lp1723
g1711
asg135
Nsba(ibclass
BBasicBlock
p1724
(dp1725
g12
Nsg13
(lp1726
(ibclass
BInstr
p1727
(dp1728
g2
Nsg17
S'test    eax, eax'
p1729
sg19
S'85c0'
p1730
sg21
Vtest eax, eax
p1731
sg5
L91366L
sg6
Nsg23
S'test'
p1732
sg25
S'0x164e6L'
p1733
sg27
Nsba(ibclass
BInstr
p1734
(dp1735
g2
Nsg17
S'jz      loc_16790'
p1736
sg19
S'0f84a2020000'
p1737
sg21
Vje 0x2a8
p1738
sg5
L91368L
sg6
Nsg23
S'jz'
p1739
sg25
S'0x164e8L'
p1740
sg27
Nsbasg105
(lp1741
S'test reg, reg'
p1742
aS'jz func'
p1743
asg119
Nsg5
S'0x164e6L'
p1744
sg121
(lp1745
S'0x164e1L'
p1746
aS'0x167e2L'
p1747
asg6
Nsg123
(lp1748
S'0x164eeL'
p1749
aS'0x16790L'
p1750
asg127
Nsg128
Nsg129
S'84491ffb986a9ed3c0d756870de1b100'
p1751
sg131
S'fbb15b446ae771d008c367d72e1a39f9'
p1752
sg133
(lp1753
g1732
ag1739
asg135
Nsba(ibclass
BBasicBlock
p1754
(dp1755
g12
Nsg13
(lp1756
(ibclass
BInstr
p1757
(dp1758
g2
Nsg17
S'lea     rax, [r12+8]'
p1759
sg19
S'498d442408'
p1760
sg21
Vlea rax, [r12 + 8]
p1761
sg5
L91374L
sg6
Nsg23
S'lea'
p1762
sg25
S'0x164eeL'
p1763
sg27
Nsba(ibclass
BInstr
p1764
(dp1765
g2
Nsg17
S'mov     [rsp+98h+var_90], 0'
p1766
sg19
S'48c744240800000000'
p1767
sg21
Vmov qword ptr [rsp + 8], 0
p1768
sg5
L91379L
sg6
Nsg23
S'mov'
p1769
sg25
S'0x164f3L'
p1770
sg27
Nsba(ibclass
BInstr
p1771
(dp1772
g2
Nsg17
S'mov     [rsp+98h+var_88], rax'
p1773
sg19
S'4889442410'
p1774
sg21
Vmov qword ptr [rsp + 0x10], rax
p1775
sg5
L91388L
sg6
Nsg23
S'mov'
p1776
sg25
S'0x164fcL'
p1777
sg27
Nsbasg105
(lp1778
S'lea reg, mem'
p1779
aS'mov mem, 0'
p1780
aS'mov mem, reg'
p1781
asg119
Nsg5
S'0x164eeL'
p1782
sg121
(lp1783
S'0x164e6L'
p1784
asg6
Nsg123
(lp1785
S'0x16501L'
p1786
asg127
Nsg128
Nsg129
S'c2dc975b163d092a0708e4a07b2f5787'
p1787
sg131
S'cf751d98ec57169d0561496214e5f506'
p1788
sg133
(lp1789
g1762
ag1769
ag1776
asg135
Nsba(ibclass
BBasicBlock
p1790
(dp1791
g12
Nsg13
(lp1792
(ibclass
BInstr
p1793
(dp1794
g2
Nsg17
S'mov     rax, [rsp+98h+var_90]'
p1795
sg19
S'488b442408'
p1796
sg21
Vmov rax, qword ptr [rsp + 8]
p1797
sg5
L91393L
sg6
Nsg23
S'mov'
p1798
sg25
S'0x16501L'
p1799
sg27
Nsba(ibclass
BInstr
p1800
(dp1801
g2
Nsg17
S'test    ebx, ebx'
p1802
sg19
S'85db'
p1803
sg21
Vtest ebx, ebx
p1804
sg5
L91398L
sg6
Nsg23
S'test'
p1805
sg25
S'0x16506L'
p1806
sg27
Nsba(ibclass
BInstr
p1807
(dp1808
g2
Nsg17
S'mov     [rsp+98h+var_6C], eax'
p1809
sg19
S'8944242c'
p1810
sg21
Vmov dword ptr [rsp + 0x2c], eax
p1811
sg5
L91400L
sg6
Nsg23
S'mov'
p1812
sg25
S'0x16508L'
p1813
sg27
Nsba(ibclass
BInstr
p1814
(dp1815
g2
Nsg17
S'jz      loc_1687B'
p1816
sg19
S'0f8469030000'
p1817
sg21
Vje 0x36f
p1818
sg5
L91404L
sg6
Nsg23
S'jz'
p1819
sg25
S'0x1650cL'
p1820
sg27
Nsbasg105
(lp1821
S'mov reg, mem'
p1822
aS'test reg, reg'
p1823
aS'mov mem, reg'
p1824
aS'jz func'
p1825
asg119
Nsg5
S'0x16501L'
p1826
sg121
(lp1827
S'0x164eeL'
p1828
aS'0x1655aL'
p1829
asg6
Nsg123
(lp1830
S'0x16512L'
p1831
aS'0x1687bL'
p1832
asg127
Nsg128
Nsg129
S'bb8733e30badfc371d078a3917d2fb51'
p1833
sg131
S'08baf37587130a23d3584e450caf1a98'
p1834
sg133
(lp1835
g1798
ag1805
ag1812
ag1819
asg135
Nsba(ibclass
BBasicBlock
p1836
(dp1837
g12
Nsg13
(lp1838
(ibclass
BInstr
p1839
(dp1840
g2
Nsg17
S'lea     rcx, azRowid_8794'
p1841
sg19
S'488d0d77883000'
p1842
sg21
Vlea rcx, [rip + 0x308877]
p1843
sg5
L91410L
sg6
Nsg23
S'lea'
p1844
sg25
S'0x16512L'
p1845
sg27
Nsba(ibclass
BInstr
p1846
(dp1847
g2
Nsg17
S'mov     r13, [rsp+98h+var_88]'
p1848
sg19
S'4c8b6c2410'
p1849
sg21
Vmov r13, qword ptr [rsp + 0x10]
p1850
sg5
L91417L
sg6
Nsg23
S'mov'
p1851
sg25
S'0x16519L'
p1852
sg27
Nsba(ibclass
BInstr
p1853
(dp1854
g2
Nsg17
S'mov     r14d, 1'
p1855
sg19
S'41be01000000'
p1856
sg21
Vmov r14d, 1
p1857
sg5
L91422L
sg6
Nsg23
S'mov'
p1858
sg25
S'0x1651eL'
p1859
sg27
Nsba(ibclass
BInstr
p1860
(dp1861
g2
Nsg17
S'mov     rbp, [rcx+rax*8]'
p1862
sg19
S'488b2cc1'
p1863
sg21
Vmov rbp, qword ptr [rcx + rax*8]
p1864
sg5
L91428L
sg6
Nsg23
S'mov'
p1865
sg25
S'0x16524L'
p1866
sg27
Nsba(ibclass
BInstr
p1867
(dp1868
g2
Nsg17
S'jmp     short loc_16541'
p1869
sg19
S'eb17'
p1870
sg21
Vjmp 0x19
p1871
sg5
L91432L
sg6
Nsg23
S'jmp'
p1872
sg25
S'0x16528L'
p1873
sg27
Nsbasg105
(lp1874
S'lea reg, azRowid_8794'
p1875
aS'mov reg, mem'
p1876
aS'mov regd, 1'
p1877
aS'mov reg, mem'
p1878
aS'jmp func'
p1879
asg119
Nsg5
S'0x16512L'
p1880
sg121
(lp1881
S'0x16501L'
p1882
asg6
Nsg123
(lp1883
S'0x16541L'
p1884
asg127
Nsg128
Nsg129
S'30c5af36368e13870b6414206e18b867'
p1885
sg131
S'0af6fd82ec58a093c26a358df2c1959b'
p1886
sg133
(lp1887
g1844
ag1851
ag1858
ag1865
ag1872
asg135
Nsba(ibclass
BBasicBlock
p1888
(dp1889
g12
Nsg13
(lp1890
(ibclass
BInstr
p1891
(dp1892
g2
Nsg17
S'add     r14d, 1'
p1893
sg19
S'4183c601'
p1894
sg21
Vadd r14d, 1
p1895
sg5
L91440L
sg6
Nsg23
S'add'
p1896
sg25
S'0x16530L'
p1897
sg27
Nsba(ibclass
BInstr
p1898
(dp1899
g2
Nsg17
S'add     r13, 8'
p1900
sg19
S'4983c508'
p1901
sg21
Vadd r13, 8
p1902
sg5
L91444L
sg6
Nsg23
S'add'
p1903
sg25
S'0x16534L'
p1904
sg27
Nsba(ibclass
BInstr
p1905
(dp1906
g2
Nsg17
S'cmp     ebx, r14d'
p1907
sg19
S'4439f3'
p1908
sg21
Vcmp ebx, r14d
p1909
sg5
L91448L
sg6
Nsg23
S'cmp'
p1910
sg25
S'0x16538L'
p1911
sg27
Nsba(ibclass
BInstr
p1912
(dp1913
g2
Nsg17
S'jl      loc_16890'
p1914
sg19
S'0f8c4f030000'
p1915
sg21
Vjl 0x355
p1916
sg5
L91451L
sg6
Nsg23
S'jl'
p1917
sg25
S'0x1653bL'
p1918
sg27
Nsbasg105
(lp1919
S'add regd, 1'
p1920
aS'add reg, 8'
p1921
aS'cmp reg, regd'
p1922
aS'jl func'
p1923
asg119
Nsg5
S'0x16530L'
p1924
sg121
(lp1925
S'0x16541L'
p1926
asg6
Nsg123
(lp1927
S'0x16541L'
p1928
aS'0x16890L'
p1929
asg127
Nsg128
Nsg129
S'44081de1aaaed875edc8a3d8d5dc96dc'
p1930
sg131
S'2229098ad80cb40dc7c8409c4e150235'
p1931
sg133
(lp1932
g1896
ag1903
ag1910
ag1917
asg135
Nsba(ibclass
BBasicBlock
p1933
(dp1934
g12
Nsg13
(lp1935
(ibclass
BInstr
p1936
(dp1937
g2
Nsg17
S'mov     rsi, [r13+0]    ; zRight'
p1938
sg19
S'498b7500'
p1939
sg21
Vmov rsi, qword ptr [r13]
p1940
sg5
L91457L
sg6
Nsg23
S'mov'
p1941
sg25
S'0x16541L'
p1942
sg27
Nsba(ibclass
BInstr
p1943
(dp1944
g2
Nsg17
S'mov     rdi, rbp        ; zLeft'
p1945
sg19
S'4889ef'
p1946
sg21
Vmov rdi, rbp
p1947
sg5
L91461L
sg6
Nsg23
S'mov'
p1948
sg25
S'0x16545L'
p1949
sg27
Nsba(ibclass
BInstr
p1950
(dp1951
g2
Nsg17
S'call    sqlite3_stricmp'
p1952
sg19
S'e8d3780000'
p1953
sg21
Vcall 0x78d8
p1954
sg5
L91464L
sg6
Nsg23
S'call'
p1955
sg25
S'0x16548L'
p1956
sg27
Nsba(ibclass
BInstr
p1957
(dp1958
g2
Nsg17
S'test    eax, eax'
p1959
sg19
S'85c0'
p1960
sg21
Vtest eax, eax
p1961
sg5
L91469L
sg6
Nsg23
S'test'
p1962
sg25
S'0x1654dL'
p1963
sg27
Nsba(ibclass
BInstr
p1964
(dp1965
g2
Nsg17
S'jnz     short loc_16530'
p1966
sg19
S'75df'
p1967
sg21
Vjne 0xffffffffffffffe1
p1968
sg5
L91471L
sg6
Nsg23
S'jnz'
p1969
sg25
S'0x1654fL'
p1970
sg27
Nsbasg105
(lp1971
S'mov reg, mem'
p1972
aS'mov reg, reg'
p1973
aS'cregl sqlite3_stricmp'
p1974
aS'test reg, reg'
p1975
aS'jnz func'
p1976
asg119
Nsg5
S'0x16541L'
p1977
sg121
(lp1978
S'0x16512L'
p1979
aS'0x16530L'
p1980
asg6
Nsg123
(lp1981
S'0x16530L'
p1982
aS'0x16551L'
p1983
asg127
Nsg128
Nsg129
S'8aa47bafac27863733b9d38d97a948f4'
p1984
sg131
S'ad4339117655635a2bc322081ebed959'
p1985
sg133
(lp1986
g1941
ag1948
ag1955
ag1962
ag1969
asg135
Nsba(ibclass
BBasicBlock
p1987
(dp1988
g12
Nsg13
(lp1989
(ibclass
BInstr
p1990
(dp1991
g2
Nsg17
S'cmp     ebx, r14d'
p1992
sg19
S'4439f3'
p1993
sg21
Vcmp ebx, r14d
p1994
sg5
L91473L
sg6
Nsg23
S'cmp'
p1995
sg25
S'0x16551L'
p1996
sg27
Nsba(ibclass
BInstr
p1997
(dp1998
g2
Nsg17
S'jl      loc_1687B'
p1999
sg19
S'0f8c21030000'
p2000
sg21
Vjl 0x327
p2001
sg5
L91476L
sg6
Nsg23
S'jl'
p2002
sg25
S'0x16554L'
p2003
sg27
Nsbasg105
(lp2004
S'cmp reg, regd'
p2005
aS'jl func'
p2006
asg119
Nsg5
S'0x16551L'
p2007
sg121
(lp2008
S'0x16541L'
p2009
asg6
Nsg123
(lp2010
S'0x1655aL'
p2011
aS'0x1687bL'
p2012
asg127
Nsg128
Nsg129
S'a75a2c07efa9a1fc6004ec227098efc0'
p2013
sg131
S'fc81b4fab31fa1845682d9b3b455a97f'
p2014
sg133
(lp2015
g1995
ag2002
asg135
Nsba(ibclass
BBasicBlock
p2016
(dp2017
g12
Nsg13
(lp2018
(ibclass
BInstr
p2019
(dp2020
g2
Nsg17
S'add     [rsp+98h+var_90], 1'
p2021
sg19
S'488344240801'
p2022
sg21
Vadd qword ptr [rsp + 8], 1
p2023
sg5
L91482L
sg6
Nsg23
S'add'
p2024
sg25
S'0x1655aL'
p2025
sg27
Nsba(ibclass
BInstr
p2026
(dp2027
g2
Nsg17
S'mov     rax, [rsp+98h+var_90]'
p2028
sg19
S'488b442408'
p2029
sg21
Vmov rax, qword ptr [rsp + 8]
p2030
sg5
L91488L
sg6
Nsg23
S'mov'
p2031
sg25
S'0x16560L'
p2032
sg27
Nsba(ibclass
BInstr
p2033
(dp2034
g2
Nsg17
S'cmp     rax, 3'
p2035
sg19
S'4883f803'
p2036
sg21
Vcmp rax, 3
p2037
sg5
L91493L
sg6
Nsg23
S'cmp'
p2038
sg25
S'0x16565L'
p2039
sg27
Nsba(ibclass
BInstr
p2040
(dp2041
g2
Nsg17
S'jnz     short loc_16501'
p2042
sg19
S'7596'
p2043
sg21
Vjne 0xffffffffffffff98
p2044
sg5
L91497L
sg6
Nsg23
S'jnz'
p2045
sg25
S'0x16569L'
p2046
sg27
Nsbasg105
(lp2047
S'add mem, 1'
p2048
aS'mov reg, mem'
p2049
aS'cmp reg, 3'
p2050
aS'jnz func'
p2051
asg119
Nsg5
S'0x1655aL'
p2052
sg121
(lp2053
S'0x16551L'
p2054
asg6
Nsg123
(lp2055
S'0x16501L'
p2056
aS'0x1656bL'
p2057
asg127
Nsg128
Nsg129
S'f71835efb35493d1e57e3c71044ca540'
p2058
sg131
S'1723069c50ec452b7df23a29514a1949'
p2059
sg133
(lp2060
g2024
ag2031
ag2038
ag2045
asg135
Nsba(ibclass
BBasicBlock
p2061
(dp2062
g12
Nsg13
(lp2063
(ibclass
BInstr
p2064
(dp2065
g2
Nsg17
S'mov     rbx, [rsp+98h+zTable]'
p2066
sg19
S'488b5c2418'
p2067
sg21
Vmov rbx, qword ptr [rsp + 0x18]
p2068
sg5
L91499L
sg6
Nsg23
S'mov'
p2069
sg25
S'0x1656bL'
p2070
sg27
Nsba(ibclass
BInstr
p2071
(dp2072
g2
Nsg17
S'mov     [rsp+98h+sTable.z], 0'
p2073
sg19
S'48c744244000000000'
p2074
sg21
Vmov qword ptr [rsp + 0x40], 0
p2075
sg5
L91504L
sg6
Nsg23
S'mov'
p2076
sg25
S'0x16570L'
p2077
sg27
Nsba(ibclass
BInstr
p2078
(dp2079
g2
Nsg17
S'mov     qword ptr [rsp+98h+sTable.n], 0'
p2080
sg19
S'48c744244800000000'
p2081
sg21
Vmov qword ptr [rsp + 0x48], 0
p2082
sg5
L91513L
sg6
Nsg23
S'mov'
p2083
sg25
S'0x16579L'
p2084
sg27
Nsba(ibclass
BInstr
p2085
(dp2086
g2
Nsg17
S'mov     rdi, rbx        ; zName'
p2087
sg19
S'4889df'
p2088
sg21
Vmov rdi, rbx
p2089
sg5
L91522L
sg6
Nsg23
S'mov'
p2090
sg25
S'0x16582L'
p2091
sg27
Nsba(ibclass
BInstr
p2092
(dp2093
g2
Nsg17
S'call    quoteChar'
p2094
sg19
S'e806d4ffff'
p2095
sg21
Vcall 0xffffffffffffd40b
p2096
sg5
L91525L
sg6
Nsg23
S'call'
p2097
sg25
S'0x16585L'
p2098
sg27
Nsba(ibclass
BInstr
p2099
(dp2100
g2
Nsg17
S'mov     rdi, [rsp+98h+ppStmt]; p'
p2101
sg19
S'488b7c2420'
p2102
sg21
Vmov rdi, qword ptr [rsp + 0x20]
p2103
sg5
L91530L
sg6
Nsg23
S'mov'
p2104
sg25
S'0x1658aL'
p2105
sg27
Nsba(ibclass
BInstr
p2106
(dp2107
g2
Nsg17
S'movsx   edx, al         ; quote'
p2108
sg19
S'0fbed0'
p2109
sg21
Vmovsx edx, al
p2110
sg5
L91535L
sg6
Nsg23
S'movsx'
p2111
sg25
S'0x1658fL'
p2112
sg27
Nsba(ibclass
BInstr
p2113
(dp2114
g2
Nsg17
S'mov     rsi, rbx        ; zAppend'
p2115
sg19
S'4889de'
p2116
sg21
Vmov rsi, rbx
p2117
sg5
L91538L
sg6
Nsg23
S'mov'
p2118
sg25
S'0x16592L'
p2119
sg27
Nsba(ibclass
BInstr
p2120
(dp2121
g2
Nsg17
S'call    appendText'
p2122
sg19
S'e826b1ffff'
p2123
sg21
Vcall 0xffffffffffffb12b
p2124
sg5
L91541L
sg6
Nsg23
S'call'
p2125
sg25
S'0x16595L'
p2126
sg27
Nsba(ibclass
BInstr
p2127
(dp2128
g2
Nsg17
S'cmp     qword ptr [r12], 0'
p2129
sg19
S'49833c2400'
p2130
sg21
Vcmp qword ptr [r12], 0
p2131
sg5
L91546L
sg6
Nsg23
S'cmp'
p2132
sg25
S'0x1659aL'
p2133
sg27
Nsba(ibclass
BInstr
p2134
(dp2135
g2
Nsg17
S'mov     r14, [rsp+98h+var_88]'
p2136
sg19
S'4c8b742410'
p2137
sg21
Vmov r14, qword ptr [rsp + 0x10]
p2138
sg5
L91551L
sg6
Nsg23
S'mov'
p2139
sg25
S'0x1659fL'
p2140
sg27
Nsba(ibclass
BInstr
p2141
(dp2142
g2
Nsg17
S'jz      loc_1662B'
p2143
sg19
S'0f8481000000'
p2144
sg21
Vje 0x87
p2145
sg5
L91556L
sg6
Nsg23
S'jz'
p2146
sg25
S'0x165a4L'
p2147
sg27
Nsbasg105
(lp2148
S'mov reg, mem'
p2149
aS'mov mem, 0'
p2150
aS'mov qmem, 0'
p2151
aS'mov reg, reg'
p2152
aS'cregl quoteChar'
p2153
aS'mov reg, mem'
p2154
aS'movsx reg, reg'
p2155
aS'mov reg, reg'
p2156
aS'cregl appendText'
p2157
aS'cmp qmem, 0'
p2158
aS'mov reg, mem'
p2159
aS'jz func'
p2160
asg119
Nsg5
S'0x1656bL'
p2161
sg121
(lp2162
S'0x1655aL'
p2163
aS'0x16790L'
p2164
aS'0x16890L'
p2165
aS'0x168beL'
p2166
asg6
Nsg123
(lp2167
S'0x165aaL'
p2168
aS'0x1662bL'
p2169
asg127
Nsg128
Nsg129
S'03adc7a32df411fc424b67d459962e7b'
p2170
sg131
S'5e5b5e2587e85e1e5dc05c4e90ffac7b'
p2171
sg133
(lp2172
g2069
ag2076
ag2083
ag2090
ag2097
ag2104
ag2111
ag2118
ag2125
ag2132
ag2139
ag2146
asg135
Nsba(ibclass
BBasicBlock
p2173
(dp2174
g12
Nsg13
(lp2175
(ibclass
BInstr
p2176
(dp2177
g2
Nsg17
S'mov     rbx, [rsp+98h+ppStmt]'
p2178
sg19
S'488b5c2420'
p2179
sg21
Vmov rbx, qword ptr [rsp + 0x20]
p2180
sg5
L91562L
sg6
Nsg23
S'mov'
p2181
sg25
S'0x165aaL'
p2182
sg27
Nsba(ibclass
BInstr
p2183
(dp2184
g2
Nsg17
S'lea     rsi, asc_EFDE1+1; zAppend'
p2185
sg19
S'488d352c980d00'
p2186
sg21
Vlea rsi, [rip + 0xd982c]
p2187
sg5
L91567L
sg6
Nsg23
S'lea'
p2188
sg25
S'0x165afL'
p2189
sg27
Nsba(ibclass
BInstr
p2190
(dp2191
g2
Nsg17
S'xor     edx, edx        ; quote'
p2192
sg19
S'31d2'
p2193
sg21
Vxor edx, edx
p2194
sg5
L91574L
sg6
Nsg23
S'xor'
p2195
sg25
S'0x165b6L'
p2196
sg27
Nsba(ibclass
BInstr
p2197
(dp2198
g2
Nsg17
S'mov     rdi, rbx        ; p'
p2199
sg19
S'4889df'
p2200
sg21
Vmov rdi, rbx
p2201
sg5
L91576L
sg6
Nsg23
S'mov'
p2202
sg25
S'0x165b8L'
p2203
sg27
Nsba(ibclass
BInstr
p2204
(dp2205
g2
Nsg17
S'call    appendText'
p2206
sg19
S'e800b1ffff'
p2207
sg21
Vcall 0xffffffffffffb105
p2208
sg5
L91579L
sg6
Nsg23
S'call'
p2209
sg25
S'0x165bbL'
p2210
sg27
Nsba(ibclass
BInstr
p2211
(dp2212
g2
Nsg17
S'mov     rsi, [r12]      ; zAppend'
p2213
sg19
S'498b3424'
p2214
sg21
Vmov rsi, qword ptr [r12]
p2215
sg5
L91584L
sg6
Nsg23
S'mov'
p2216
sg25
S'0x165c0L'
p2217
sg27
Nsba(ibclass
BInstr
p2218
(dp2219
g2
Nsg17
S'xor     edx, edx        ; quote'
p2220
sg19
S'31d2'
p2221
sg21
Vxor edx, edx
p2222
sg5
L91588L
sg6
Nsg23
S'xor'
p2223
sg25
S'0x165c4L'
p2224
sg27
Nsba(ibclass
BInstr
p2225
(dp2226
g2
Nsg17
S'mov     rdi, rbx        ; p'
p2227
sg19
S'4889df'
p2228
sg21
Vmov rdi, rbx
p2229
sg5
L91590L
sg6
Nsg23
S'mov'
p2230
sg25
S'0x165c6L'
p2231
sg27
Nsba(ibclass
BInstr
p2232
(dp2233
g2
Nsg17
S'call    appendText'
p2234
sg19
S'e8f2b0ffff'
p2235
sg21
Vcall 0xffffffffffffb0f7
p2236
sg5
L91593L
sg6
Nsg23
S'call'
p2237
sg25
S'0x165c9L'
p2238
sg27
Nsba(ibclass
BInstr
p2239
(dp2240
g2
Nsg17
S'cmp     qword ptr [r12+8], 0'
p2241
sg19
S'49837c240800'
p2242
sg21
Vcmp qword ptr [r12 + 8], 0
p2243
sg5
L91598L
sg6
Nsg23
S'cmp'
p2244
sg25
S'0x165ceL'
p2245
sg27
Nsba(ibclass
BInstr
p2246
(dp2247
g2
Nsg17
S'mov     r14, [rsp+98h+var_88]'
p2248
sg19
S'4c8b742410'
p2249
sg21
Vmov r14, qword ptr [rsp + 0x10]
p2250
sg5
L91604L
sg6
Nsg23
S'mov'
p2251
sg25
S'0x165d4L'
p2252
sg27
Nsba(ibclass
BInstr
p2253
(dp2254
g2
Nsg17
S'mov     rbx, r14'
p2255
sg19
S'4c89f3'
p2256
sg21
Vmov rbx, r14
p2257
sg5
L91609L
sg6
Nsg23
S'mov'
p2258
sg25
S'0x165d9L'
p2259
sg27
Nsba(ibclass
BInstr
p2260
(dp2261
g2
Nsg17
S'jz      short loc_16618'
p2262
sg19
S'743a'
p2263
sg21
Vje 0x3c
p2264
sg5
L91612L
sg6
Nsg23
S'jz'
p2265
sg25
S'0x165dcL'
p2266
sg27
Nsbasg105
(lp2267
S'mov reg, mem'
p2268
aS'lea reg, func+1'
p2269
aS'xor reg, reg'
p2270
aS'mov reg, reg'
p2271
aS'cregl appendText'
p2272
aS'mov reg, mem'
p2273
aS'xor reg, reg'
p2274
aS'mov reg, reg'
p2275
aS'cregl appendText'
p2276
aS'cmp qmem, 0'
p2277
aS'mov reg, mem'
p2278
aS'mov reg, reg'
p2279
aS'jz func'
p2280
asg119
Nsg5
S'0x165aaL'
p2281
sg121
(lp2282
S'0x1656bL'
p2283
asg6
Nsg123
(lp2284
S'0x165deL'
p2285
aS'0x16618L'
p2286
asg127
Nsg128
Nsg129
S'1bee3a3f072304661f5264f3cb2cafea'
p2287
sg131
S'011046e11019bf6a60a5851c9425d9b5'
p2288
sg133
(lp2289
g2181
ag2188
ag2195
ag2202
ag2209
ag2216
ag2223
ag2230
ag2237
ag2244
ag2251
ag2258
ag2265
asg135
Nsba(ibclass
BBasicBlock
p2290
(dp2291
g12
Nsg13
(lp2292
(ibclass
BInstr
p2293
(dp2294
g2
Nsg17
S'xchg    ax, ax'
p2295
sg19
S'6690'
p2296
sg21
Vnop 
p2297
sg5
L91614L
sg6
Nsg23
S'xchg'
p2298
sg25
S'0x165deL'
p2299
sg27
Nsbasg105
(lp2300
S'xchg reg, reg'
p2301
asg119
Nsg5
S'0x165deL'
p2302
sg121
(lp2303
S'0x165aaL'
p2304
asg6
Nsg123
(lp2305
S'0x165e0L'
p2306
asg127
Nsg128
Nsg129
S'8fb8e41d797861ffe5ef78c9b4353f3b'
p2307
sg131
S'78b01b016a15696a797a84772b4040ca'
p2308
sg133
(lp2309
g2298
asg135
Nsba(ibclass
BBasicBlock
p2310
(dp2311
g12
Nsg13
(lp2312
(ibclass
BInstr
p2313
(dp2314
g2
Nsg17
S'mov     rbp, [rsp+98h+ppStmt]'
p2315
sg19
S'488b6c2420'
p2316
sg21
Vmov rbp, qword ptr [rsp + 0x20]
p2317
sg5
L91616L
sg6
Nsg23
S'mov'
p2318
sg25
S'0x165e0L'
p2319
sg27
Nsba(ibclass
BInstr
p2320
(dp2321
g2
Nsg17
S'lea     rsi, aEqpD+0Ah  ; zAppend'
p2322
sg19
S'488d3574450d00'
p2323
sg21
Vlea rsi, [rip + 0xd4574]
p2324
sg5
L91621L
sg6
Nsg23
S'lea'
p2325
sg25
S'0x165e5L'
p2326
sg27
Nsba(ibclass
BInstr
p2327
(dp2328
g2
Nsg17
S'xor     edx, edx        ; quote'
p2329
sg19
S'31d2'
p2330
sg21
Vxor edx, edx
p2331
sg5
L91628L
sg6
Nsg23
S'xor'
p2332
sg25
S'0x165ecL'
p2333
sg27
Nsba(ibclass
BInstr
p2334
(dp2335
g2
Nsg17
S'add     rbx, 8'
p2336
sg19
S'4883c308'
p2337
sg21
Vadd rbx, 8
p2338
sg5
L91630L
sg6
Nsg23
S'add'
p2339
sg25
S'0x165eeL'
p2340
sg27
Nsba(ibclass
BInstr
p2341
(dp2342
g2
Nsg17
S'mov     rdi, rbp        ; p'
p2343
sg19
S'4889ef'
p2344
sg21
Vmov rdi, rbp
p2345
sg5
L91634L
sg6
Nsg23
S'mov'
p2346
sg25
S'0x165f2L'
p2347
sg27
Nsba(ibclass
BInstr
p2348
(dp2349
g2
Nsg17
S'call    appendText'
p2350
sg19
S'e8c6b0ffff'
p2351
sg21
Vcall 0xffffffffffffb0cb
p2352
sg5
L91637L
sg6
Nsg23
S'call'
p2353
sg25
S'0x165f5L'
p2354
sg27
Nsba(ibclass
BInstr
p2355
(dp2356
g2
Nsg17
S'mov     rdi, [rbx-8]    ; zName'
p2357
sg19
S'488b7bf8'
p2358
sg21
Vmov rdi, qword ptr [rbx - 8]
p2359
sg5
L91642L
sg6
Nsg23
S'mov'
p2360
sg25
S'0x165faL'
p2361
sg27
Nsba(ibclass
BInstr
p2362
(dp2363
g2
Nsg17
S'call    quoteChar'
p2364
sg19
S'e88dd3ffff'
p2365
sg21
Vcall 0xffffffffffffd392
p2366
sg5
L91646L
sg6
Nsg23
S'call'
p2367
sg25
S'0x165feL'
p2368
sg27
Nsba(ibclass
BInstr
p2369
(dp2370
g2
Nsg17
S'mov     rsi, [rbx-8]    ; zAppend'
p2371
sg19
S'488b73f8'
p2372
sg21
Vmov rsi, qword ptr [rbx - 8]
p2373
sg5
L91651L
sg6
Nsg23
S'mov'
p2374
sg25
S'0x16603L'
p2375
sg27
Nsba(ibclass
BInstr
p2376
(dp2377
g2
Nsg17
S'movsx   edx, al         ; quote'
p2378
sg19
S'0fbed0'
p2379
sg21
Vmovsx edx, al
p2380
sg5
L91655L
sg6
Nsg23
S'movsx'
p2381
sg25
S'0x16607L'
p2382
sg27
Nsba(ibclass
BInstr
p2383
(dp2384
g2
Nsg17
S'mov     rdi, rbp        ; p'
p2385
sg19
S'4889ef'
p2386
sg21
Vmov rdi, rbp
p2387
sg5
L91658L
sg6
Nsg23
S'mov'
p2388
sg25
S'0x1660aL'
p2389
sg27
Nsba(ibclass
BInstr
p2390
(dp2391
g2
Nsg17
S'call    appendText'
p2392
sg19
S'e8aeb0ffff'
p2393
sg21
Vcall 0xffffffffffffb0b3
p2394
sg5
L91661L
sg6
Nsg23
S'call'
p2395
sg25
S'0x1660dL'
p2396
sg27
Nsba(ibclass
BInstr
p2397
(dp2398
g2
Nsg17
S'cmp     qword ptr [rbx], 0'
p2399
sg19
S'48833b00'
p2400
sg21
Vcmp qword ptr [rbx], 0
p2401
sg5
L91666L
sg6
Nsg23
S'cmp'
p2402
sg25
S'0x16612L'
p2403
sg27
Nsba(ibclass
BInstr
p2404
(dp2405
g2
Nsg17
S'jnz     short loc_165E0'
p2406
sg19
S'75c8'
p2407
sg21
Vjne 0xffffffffffffffca
p2408
sg5
L91670L
sg6
Nsg23
S'jnz'
p2409
sg25
S'0x16616L'
p2410
sg27
Nsbasg105
(lp2411
S'mov reg, mem'
p2412
aS'lea reg, aEqpD+0Ah'
p2413
aS'xor reg, reg'
p2414
aS'add reg, 8'
p2415
aS'mov reg, reg'
p2416
aS'cregl appendText'
p2417
aS'mov reg, mem'
p2418
aS'cregl quoteChar'
p2419
aS'mov reg, mem'
p2420
aS'movsx reg, reg'
p2421
aS'mov reg, reg'
p2422
aS'cregl appendText'
p2423
aS'cmp qmem, 0'
p2424
aS'jnz func'
p2425
asg119
Nsg5
S'0x165e0L'
p2426
sg121
(lp2427
S'0x165deL'
p2428
aS'0x165e0L'
p2429
asg6
Nsg123
(lp2430
S'0x16618L'
p2431
aS'0x165e0L'
p2432
asg127
Nsg128
Nsg129
S'90169994cfae67e31974dd1f53d64145'
p2433
sg131
S'33670ce1b7e174c508a00a0c5e23611e'
p2434
sg133
(lp2435
g2318
ag2325
ag2332
ag2339
ag2346
ag2353
ag2360
ag2367
ag2374
ag2381
ag2388
ag2395
ag2402
ag2409
asg135
Nsba(ibclass
BBasicBlock
p2436
(dp2437
g12
Nsg13
(lp2438
(ibclass
BInstr
p2439
(dp2440
g2
Nsg17
S'mov     rdi, [rsp+98h+ppStmt]; p'
p2441
sg19
S'488b7c2420'
p2442
sg21
Vmov rdi, qword ptr [rsp + 0x20]
p2443
sg5
L91672L
sg6
Nsg23
S'mov'
p2444
sg25
S'0x16618L'
p2445
sg27
Nsba(ibclass
BInstr
p2446
(dp2447
g2
Nsg17
S'lea     rsi, aZ+3       ; zAppend'
p2448
sg19
S'488d35004b0d00'
p2449
sg21
Vlea rsi, [rip + 0xd4b00]
p2450
sg5
L91677L
sg6
Nsg23
S'lea'
p2451
sg25
S'0x1661dL'
p2452
sg27
Nsba(ibclass
BInstr
p2453
(dp2454
g2
Nsg17
S'xor     edx, edx        ; quote'
p2455
sg19
S'31d2'
p2456
sg21
Vxor edx, edx
p2457
sg5
L91684L
sg6
Nsg23
S'xor'
p2458
sg25
S'0x16624L'
p2459
sg27
Nsba(ibclass
BInstr
p2460
(dp2461
g2
Nsg17
S'call    appendText'
p2462
sg19
S'e895b0ffff'
p2463
sg21
Vcall 0xffffffffffffb09a
p2464
sg5
L91686L
sg6
Nsg23
S'call'
p2465
sg25
S'0x16626L'
p2466
sg27
Nsbasg105
(lp2467
S'mov reg, mem'
p2468
aS'lea reg, aZ+3'
p2469
aS'xor reg, reg'
p2470
aS'cregl appendText'
p2471
asg119
Nsg5
S'0x16618L'
p2472
sg121
(lp2473
S'0x165aaL'
p2474
aS'0x165e0L'
p2475
asg6
Nsg123
(lp2476
S'0x1662bL'
p2477
asg127
Nsg128
Nsg129
S'94a8ff9173cd0ccb64c967c417fd7784'
p2478
sg131
S'ea4ba105d8fcf34593396ea5191eeb46'
p2479
sg133
(lp2480
g2444
ag2451
ag2458
ag2465
asg135
Nsba(ibclass
BBasicBlock
p2481
(dp2482
g12
Nsg13
(lp2483
(ibclass
BInstr
p2484
(dp2485
g2
Nsg17
S'lea     rbx, [rsp+98h+sSelect]'
p2486
sg19
S'488d5c2430'
p2487
sg21
Vlea rbx, [rsp + 0x30]
p2488
sg5
L91691L
sg6
Nsg23
S'lea'
p2489
sg25
S'0x1662bL'
p2490
sg27
Nsba(ibclass
BInstr
p2491
(dp2492
g2
Nsg17
S'lea     rsi, aSelect    ; "SELECT "'
p2493
sg19
S'488d35f5450d00'
p2494
sg21
Vlea rsi, [rip + 0xd45f5]
p2495
sg5
L91696L
sg6
Nsg23
S'lea'
p2496
sg25
S'0x16630L'
p2497
sg27
Nsba(ibclass
BInstr
p2498
(dp2499
g2
Nsg17
S'xor     edx, edx        ; quote'
p2500
sg19
S'31d2'
p2501
sg21
Vxor edx, edx
p2502
sg5
L91703L
sg6
Nsg23
S'xor'
p2503
sg25
S'0x16637L'
p2504
sg27
Nsba(ibclass
BInstr
p2505
(dp2506
g2
Nsg17
S'mov     [rsp+98h+sSelect.z], 0'
p2507
sg19
S'48c744243000000000'
p2508
sg21
Vmov qword ptr [rsp + 0x30], 0
p2509
sg5
L91705L
sg6
Nsg23
S'mov'
p2510
sg25
S'0x16639L'
p2511
sg27
Nsba(ibclass
BInstr
p2512
(dp2513
g2
Nsg17
S'mov     qword ptr [rsp+98h+sSelect.n], 0'
p2514
sg19
S'48c744243800000000'
p2515
sg21
Vmov qword ptr [rsp + 0x38], 0
p2516
sg5
L91714L
sg6
Nsg23
S'mov'
p2517
sg25
S'0x16642L'
p2518
sg27
Nsba(ibclass
BInstr
p2519
(dp2520
g2
Nsg17
S'mov     rdi, rbx        ; p'
p2521
sg19
S'4889df'
p2522
sg21
Vmov rdi, rbx
p2523
sg5
L91723L
sg6
Nsg23
S'mov'
p2524
sg25
S'0x1664bL'
p2525
sg27
Nsba(ibclass
BInstr
p2526
(dp2527
g2
Nsg17
S'call    appendText'
p2528
sg19
S'e86db0ffff'
p2529
sg21
Vcall 0xffffffffffffb072
p2530
sg5
L91726L
sg6
Nsg23
S'call'
p2531
sg25
S'0x1664eL'
p2532
sg27
Nsba(ibclass
BInstr
p2533
(dp2534
g2
Nsg17
S'mov     rsi, [r12]      ; zAppend'
p2535
sg19
S'498b3424'
p2536
sg21
Vmov rsi, qword ptr [r12]
p2537
sg5
L91731L
sg6
Nsg23
S'mov'
p2538
sg25
S'0x16653L'
p2539
sg27
Nsba(ibclass
BInstr
p2540
(dp2541
g2
Nsg17
S'test    rsi, rsi'
p2542
sg19
S'4885f6'
p2543
sg21
Vtest rsi, rsi
p2544
sg5
L91735L
sg6
Nsg23
S'test'
p2545
sg25
S'0x16657L'
p2546
sg27
Nsba(ibclass
BInstr
p2547
(dp2548
g2
Nsg17
S'jz      short loc_16677'
p2549
sg19
S'741b'
p2550
sg21
Vje 0x1d
p2551
sg5
L91738L
sg6
Nsg23
S'jz'
p2552
sg25
S'0x1665aL'
p2553
sg27
Nsbasg105
(lp2554
S'lea reg, mem'
p2555
aS'lea reg, aSelect'
p2556
aS'xor reg, reg'
p2557
aS'mov mem, 0'
p2558
aS'mov qmem, 0'
p2559
aS'mov reg, reg'
p2560
aS'cregl appendText'
p2561
aS'mov reg, mem'
p2562
aS'test reg, reg'
p2563
aS'jz func'
p2564
asg119
Nsg5
S'0x1662bL'
p2565
sg121
(lp2566
S'0x1656bL'
p2567
aS'0x16618L'
p2568
asg6
Nsg123
(lp2569
S'0x1665cL'
p2570
aS'0x16677L'
p2571
asg127
Nsg128
Nsg129
S'ece8d620e2bbd19b612cbb688b5bb9e1'
p2572
sg131
S'2a04e09010ef1606c4449d37cfd16613'
p2573
sg133
(lp2574
g2489
ag2496
ag2503
ag2510
ag2517
ag2524
ag2531
ag2538
ag2545
ag2552
asg135
Nsba(ibclass
BBasicBlock
p2575
(dp2576
g12
Nsg13
(lp2577
(ibclass
BInstr
p2578
(dp2579
g2
Nsg17
S'xor     edx, edx        ; quote'
p2580
sg19
S'31d2'
p2581
sg21
Vxor edx, edx
p2582
sg5
L91740L
sg6
Nsg23
S'xor'
p2583
sg25
S'0x1665cL'
p2584
sg27
Nsba(ibclass
BInstr
p2585
(dp2586
g2
Nsg17
S'mov     rdi, rbx        ; p'
p2587
sg19
S'4889df'
p2588
sg21
Vmov rdi, rbx
p2589
sg5
L91742L
sg6
Nsg23
S'mov'
p2590
sg25
S'0x1665eL'
p2591
sg27
Nsba(ibclass
BInstr
p2592
(dp2593
g2
Nsg17
S'call    appendText'
p2594
sg19
S'e85ab0ffff'
p2595
sg21
Vcall 0xffffffffffffb05f
p2596
sg5
L91745L
sg6
Nsg23
S'call'
p2597
sg25
S'0x16661L'
p2598
sg27
Nsba(ibclass
BInstr
p2599
(dp2600
g2
Nsg17
S'lea     rsi, aEqpD+0Ah  ; zAppend'
p2601
sg19
S'488d35f3440d00'
p2602
sg21
Vlea rsi, [rip + 0xd44f3]
p2603
sg5
L91750L
sg6
Nsg23
S'lea'
p2604
sg25
S'0x16666L'
p2605
sg27
Nsba(ibclass
BInstr
p2606
(dp2607
g2
Nsg17
S'xor     edx, edx        ; quote'
p2608
sg19
S'31d2'
p2609
sg21
Vxor edx, edx
p2610
sg5
L91757L
sg6
Nsg23
S'xor'
p2611
sg25
S'0x1666dL'
p2612
sg27
Nsba(ibclass
BInstr
p2613
(dp2614
g2
Nsg17
S'mov     rdi, rbx        ; p'
p2615
sg19
S'4889df'
p2616
sg21
Vmov rdi, rbx
p2617
sg5
L91759L
sg6
Nsg23
S'mov'
p2618
sg25
S'0x1666fL'
p2619
sg27
Nsba(ibclass
BInstr
p2620
(dp2621
g2
Nsg17
S'call    appendText'
p2622
sg19
S'e849b0ffff'
p2623
sg21
Vcall 0xffffffffffffb04e
p2624
sg5
L91762L
sg6
Nsg23
S'call'
p2625
sg25
S'0x16672L'
p2626
sg27
Nsbasg105
(lp2627
S'xor reg, reg'
p2628
aS'mov reg, reg'
p2629
aS'cregl appendText'
p2630
aS'lea reg, aEqpD+0Ah'
p2631
aS'xor reg, reg'
p2632
aS'mov reg, reg'
p2633
aS'cregl appendText'
p2634
asg119
Nsg5
S'0x1665cL'
p2635
sg121
(lp2636
S'0x1662bL'
p2637
asg6
Nsg123
(lp2638
S'0x16677L'
p2639
asg127
Nsg128
Nsg129
S'e24709622e8239618e78f6bf7f7c8bbf'
p2640
sg131
S'783cde34e965253c04c31643870e01c2'
p2641
sg133
(lp2642
g2583
ag2590
ag2597
ag2604
ag2611
ag2618
ag2625
asg135
Nsba(ibclass
BBasicBlock
p2643
(dp2644
g12
Nsg13
(lp2645
(ibclass
BInstr
p2646
(dp2647
g2
Nsg17
S'mov     rdi, [r12+8]    ; zName'
p2648
sg19
S'498b7c2408'
p2649
sg21
Vmov rdi, qword ptr [r12 + 8]
p2650
sg5
L91767L
sg6
Nsg23
S'mov'
p2651
sg25
S'0x16677L'
p2652
sg27
Nsba(ibclass
BInstr
p2653
(dp2654
g2
Nsg17
S'lea     rbp, [r12+10h]'
p2655
sg19
S'498d6c2410'
p2656
sg21
Vlea rbp, [r12 + 0x10]
p2657
sg5
L91772L
sg6
Nsg23
S'lea'
p2658
sg25
S'0x1667cL'
p2659
sg27
Nsba(ibclass
BInstr
p2660
(dp2661
g2
Nsg17
S'test    rdi, rdi'
p2662
sg19
S'4885ff'
p2663
sg21
Vtest rdi, rdi
p2664
sg5
L91777L
sg6
Nsg23
S'test'
p2665
sg25
S'0x16681L'
p2666
sg27
Nsba(ibclass
BInstr
p2667
(dp2668
g2
Nsg17
S'jz      short loc_166CB'
p2669
sg19
S'7445'
p2670
sg21
Vje 0x47
p2671
sg5
L91780L
sg6
Nsg23
S'jz'
p2672
sg25
S'0x16684L'
p2673
sg27
Nsbasg105
(lp2674
S'mov reg, mem'
p2675
aS'lea reg, mem'
p2676
aS'test reg, reg'
p2677
aS'jz func'
p2678
asg119
Nsg5
S'0x16677L'
p2679
sg121
(lp2680
S'0x1662bL'
p2681
aS'0x1665cL'
p2682
asg6
Nsg123
(lp2683
S'0x16686L'
p2684
aS'0x166cbL'
p2685
asg127
Nsg128
Nsg129
S'f991ae0ccd58826c072b2b8ad69d7c06'
p2686
sg131
S'761d7df0da070edb4138dfdc8b17cd9b'
p2687
sg133
(lp2688
g2651
ag2658
ag2665
ag2672
asg135
Nsba(ibclass
BBasicBlock
p2689
(dp2690
g12
Nsg13
(lp2691
(ibclass
BInstr
p2692
(dp2693
g2
Nsg17
S'nop     word ptr [rax+rax+00000000h]'
p2694
sg19
S'662e0f1f840000000000'
p2695
sg21
Vnop word ptr cs:[rax + rax]
p2696
sg5
L91782L
sg6
Nsg23
S'nop'
p2697
sg25
S'0x16686L'
p2698
sg27
Nsbasg105
(lp2699
S'nop mem'
p2700
asg119
Nsg5
S'0x16686L'
p2701
sg121
(lp2702
S'0x16677L'
p2703
asg6
Nsg123
(lp2704
S'0x16690L'
p2705
asg127
Nsg128
Nsg129
S'a571d969c8661fb0342afd08e571dfa0'
p2706
sg131
S'55c97f0b6b86d2e5eb995aea769d1ea4'
p2707
sg133
(lp2708
g2697
asg135
Nsba(ibclass
BBasicBlock
p2709
(dp2710
g12
Nsg13
(lp2711
(ibclass
BInstr
p2712
(dp2713
g2
Nsg17
S'call    quoteChar'
p2714
sg19
S'e8fbd2ffff'
p2715
sg21
Vcall 0xffffffffffffd300
p2716
sg5
L91792L
sg6
Nsg23
S'call'
p2717
sg25
S'0x16690L'
p2718
sg27
Nsba(ibclass
BInstr
p2719
(dp2720
g2
Nsg17
S'mov     rsi, [r14]      ; zAppend'
p2721
sg19
S'498b36'
p2722
sg21
Vmov rsi, qword ptr [r14]
p2723
sg5
L91797L
sg6
Nsg23
S'mov'
p2724
sg25
S'0x16695L'
p2725
sg27
Nsba(ibclass
BInstr
p2726
(dp2727
g2
Nsg17
S'movsx   edx, al         ; quote'
p2728
sg19
S'0fbed0'
p2729
sg21
Vmovsx edx, al
p2730
sg5
L91800L
sg6
Nsg23
S'movsx'
p2731
sg25
S'0x16698L'
p2732
sg27
Nsba(ibclass
BInstr
p2733
(dp2734
g2
Nsg17
S'mov     rdi, rbx        ; p'
p2735
sg19
S'4889df'
p2736
sg21
Vmov rdi, rbx
p2737
sg5
L91803L
sg6
Nsg23
S'mov'
p2738
sg25
S'0x1669bL'
p2739
sg27
Nsba(ibclass
BInstr
p2740
(dp2741
g2
Nsg17
S'mov     r14, rbp'
p2742
sg19
S'4989ee'
p2743
sg21
Vmov r14, rbp
p2744
sg5
L91806L
sg6
Nsg23
S'mov'
p2745
sg25
S'0x1669eL'
p2746
sg27
Nsba(ibclass
BInstr
p2747
(dp2748
g2
Nsg17
S'call    appendText'
p2749
sg19
S'e81ab0ffff'
p2750
sg21
Vcall 0xffffffffffffb01f
p2751
sg5
L91809L
sg6
Nsg23
S'call'
p2752
sg25
S'0x166a1L'
p2753
sg27
Nsba(ibclass
BInstr
p2754
(dp2755
g2
Nsg17
S'cmp     qword ptr [rbp+0], 0'
p2756
sg19
S'48837d0000'
p2757
sg21
Vcmp qword ptr [rbp], 0
p2758
sg5
L91814L
sg6
Nsg23
S'cmp'
p2759
sg25
S'0x166a6L'
p2760
sg27
Nsba(ibclass
BInstr
p2761
(dp2762
g2
Nsg17
S'jz      short loc_166BE'
p2763
sg19
S'7411'
p2764
sg21
Vje 0x13
p2765
sg5
L91819L
sg6
Nsg23
S'jz'
p2766
sg25
S'0x166abL'
p2767
sg27
Nsbasg105
(lp2768
S'cregl quoteChar'
p2769
aS'mov reg, mem'
p2770
aS'movsx reg, reg'
p2771
aS'mov reg, reg'
p2772
aS'mov reg, reg'
p2773
aS'cregl appendText'
p2774
aS'cmp qmem, 0'
p2775
aS'jz func'
p2776
asg119
Nsg5
S'0x16690L'
p2777
sg121
(lp2778
S'0x16686L'
p2779
aS'0x166beL'
p2780
asg6
Nsg123
(lp2781
S'0x166adL'
p2782
aS'0x166beL'
p2783
asg127
Nsg128
Nsg129
S'e35f12bce2656569997b21888b25e3d1'
p2784
sg131
S'1549fa7aa159b840f5d2a7f0cc0b29cf'
p2785
sg133
(lp2786
g2717
ag2724
ag2731
ag2738
ag2745
ag2752
ag2759
ag2766
asg135
Nsba(ibclass
BBasicBlock
p2787
(dp2788
g12
Nsg13
(lp2789
(ibclass
BInstr
p2790
(dp2791
g2
Nsg17
S'lea     rsi, aEqpD+0Ah  ; zAppend'
p2792
sg19
S'488d35ac440d00'
p2793
sg21
Vlea rsi, [rip + 0xd44ac]
p2794
sg5
L91821L
sg6
Nsg23
S'lea'
p2795
sg25
S'0x166adL'
p2796
sg27
Nsba(ibclass
BInstr
p2797
(dp2798
g2
Nsg17
S'xor     edx, edx        ; quote'
p2799
sg19
S'31d2'
p2800
sg21
Vxor edx, edx
p2801
sg5
L91828L
sg6
Nsg23
S'xor'
p2802
sg25
S'0x166b4L'
p2803
sg27
Nsba(ibclass
BInstr
p2804
(dp2805
g2
Nsg17
S'mov     rdi, rbx        ; p'
p2806
sg19
S'4889df'
p2807
sg21
Vmov rdi, rbx
p2808
sg5
L91830L
sg6
Nsg23
S'mov'
p2809
sg25
S'0x166b6L'
p2810
sg27
Nsba(ibclass
BInstr
p2811
(dp2812
g2
Nsg17
S'call    appendText'
p2813
sg19
S'e802b0ffff'
p2814
sg21
Vcall 0xffffffffffffb007
p2815
sg5
L91833L
sg6
Nsg23
S'call'
p2816
sg25
S'0x166b9L'
p2817
sg27
Nsbasg105
(lp2818
S'lea reg, aEqpD+0Ah'
p2819
aS'xor reg, reg'
p2820
aS'mov reg, reg'
p2821
aS'cregl appendText'
p2822
asg119
Nsg5
S'0x166adL'
p2823
sg121
(lp2824
S'0x16690L'
p2825
asg6
Nsg123
(lp2826
S'0x166beL'
p2827
asg127
Nsg128
Nsg129
S'ffd8f3515dd6249217085b26717de83e'
p2828
sg131
S'97003df38e75a33abe4a4f31cac96926'
p2829
sg133
(lp2830
g2795
ag2802
ag2809
ag2816
asg135
Nsba(ibclass
BBasicBlock
p2831
(dp2832
g12
Nsg13
(lp2833
(ibclass
BInstr
p2834
(dp2835
g2
Nsg17
S'add     rbp, 8'
p2836
sg19
S'4883c508'
p2837
sg21
Vadd rbp, 8
p2838
sg5
L91838L
sg6
Nsg23
S'add'
p2839
sg25
S'0x166beL'
p2840
sg27
Nsba(ibclass
BInstr
p2841
(dp2842
g2
Nsg17
S'mov     rdi, [rbp-8]'
p2843
sg19
S'488b7df8'
p2844
sg21
Vmov rdi, qword ptr [rbp - 8]
p2845
sg5
L91842L
sg6
Nsg23
S'mov'
p2846
sg25
S'0x166c2L'
p2847
sg27
Nsba(ibclass
BInstr
p2848
(dp2849
g2
Nsg17
S'test    rdi, rdi'
p2850
sg19
S'4885ff'
p2851
sg21
Vtest rdi, rdi
p2852
sg5
L91846L
sg6
Nsg23
S'test'
p2853
sg25
S'0x166c6L'
p2854
sg27
Nsba(ibclass
BInstr
p2855
(dp2856
g2
Nsg17
S'jnz     short loc_16690'
p2857
sg19
S'75c5'
p2858
sg21
Vjne 0xffffffffffffffc7
p2859
sg5
L91849L
sg6
Nsg23
S'jnz'
p2860
sg25
S'0x166c9L'
p2861
sg27
Nsbasg105
(lp2862
S'add reg, 8'
p2863
aS'mov reg, mem'
p2864
aS'test reg, reg'
p2865
aS'jnz func'
p2866
asg119
Nsg5
S'0x166beL'
p2867
sg121
(lp2868
S'0x16690L'
p2869
aS'0x166adL'
p2870
asg6
Nsg123
(lp2871
S'0x16690L'
p2872
aS'0x166cbL'
p2873
asg127
Nsg128
Nsg129
S'e3f07c8a4c870eb4a8aa706a434c0657'
p2874
sg131
S'f8de1c6c8a80e6c2002c4d316536a273'
p2875
sg133
(lp2876
g2839
ag2846
ag2853
ag2860
asg135
Nsba(ibclass
BBasicBlock
p2877
(dp2878
g12
Nsg13
(lp2879
(ibclass
BInstr
p2880
(dp2881
g2
Nsg17
S'mov     rdi, r12        ; azCol'
p2882
sg19
S'4c89e7'
p2883
sg21
Vmov rdi, r12
p2884
sg5
L91851L
sg6
Nsg23
S'mov'
p2885
sg25
S'0x166cbL'
p2886
sg27
Nsba(ibclass
BInstr
p2887
(dp2888
g2
Nsg17
S'call    freeColumnList'
p2889
sg19
S'e83d9fffff'
p2890
sg21
Vcall 0xffffffffffff9f42
p2891
sg5
L91854L
sg6
Nsg23
S'call'
p2892
sg25
S'0x166ceL'
p2893
sg27
Nsba(ibclass
BInstr
p2894
(dp2895
g2
Nsg17
S'lea     rsi, aFrom      ; " FROM "'
p2896
sg19
S'488d35944f0d00'
p2897
sg21
Vlea rsi, [rip + 0xd4f94]
p2898
sg5
L91859L
sg6
Nsg23
S'lea'
p2899
sg25
S'0x166d3L'
p2900
sg27
Nsba(ibclass
BInstr
p2901
(dp2902
g2
Nsg17
S'xor     edx, edx        ; quote'
p2903
sg19
S'31d2'
p2904
sg21
Vxor edx, edx
p2905
sg5
L91866L
sg6
Nsg23
S'xor'
p2906
sg25
S'0x166daL'
p2907
sg27
Nsba(ibclass
BInstr
p2908
(dp2909
g2
Nsg17
S'mov     rdi, rbx        ; p'
p2910
sg19
S'4889df'
p2911
sg21
Vmov rdi, rbx
p2912
sg5
L91868L
sg6
Nsg23
S'mov'
p2913
sg25
S'0x166dcL'
p2914
sg27
Nsba(ibclass
BInstr
p2915
(dp2916
g2
Nsg17
S'call    appendText'
p2917
sg19
S'e8dcafffff'
p2918
sg21
Vcall 0xffffffffffffafe1
p2919
sg5
L91871L
sg6
Nsg23
S'call'
p2920
sg25
S'0x166dfL'
p2921
sg27
Nsba(ibclass
BInstr
p2922
(dp2923
g2
Nsg17
S'mov     r14, [rsp+98h+zTable]'
p2924
sg19
S'4c8b742418'
p2925
sg21
Vmov r14, qword ptr [rsp + 0x18]
p2926
sg5
L91876L
sg6
Nsg23
S'mov'
p2927
sg25
S'0x166e4L'
p2928
sg27
Nsba(ibclass
BInstr
p2929
(dp2930
g2
Nsg17
S'mov     rdi, r14        ; zName'
p2931
sg19
S'4c89f7'
p2932
sg21
Vmov rdi, r14
p2933
sg5
L91881L
sg6
Nsg23
S'mov'
p2934
sg25
S'0x166e9L'
p2935
sg27
Nsba(ibclass
BInstr
p2936
(dp2937
g2
Nsg17
S'call    quoteChar'
p2938
sg19
S'e89fd2ffff'
p2939
sg21
Vcall 0xffffffffffffd2a4
p2940
sg5
L91884L
sg6
Nsg23
S'call'
p2941
sg25
S'0x166ecL'
p2942
sg27
Nsba(ibclass
BInstr
p2943
(dp2944
g2
Nsg17
S'mov     rsi, r14        ; zAppend'
p2945
sg19
S'4c89f6'
p2946
sg21
Vmov rsi, r14
p2947
sg5
L91889L
sg6
Nsg23
S'mov'
p2948
sg25
S'0x166f1L'
p2949
sg27
Nsba(ibclass
BInstr
p2950
(dp2951
g2
Nsg17
S'movsx   edx, al         ; quote'
p2952
sg19
S'0fbed0'
p2953
sg21
Vmovsx edx, al
p2954
sg5
L91892L
sg6
Nsg23
S'movsx'
p2955
sg25
S'0x166f4L'
p2956
sg27
Nsba(ibclass
BInstr
p2957
(dp2958
g2
Nsg17
S'mov     rdi, rbx        ; p'
p2959
sg19
S'4889df'
p2960
sg21
Vmov rdi, rbx
p2961
sg5
L91895L
sg6
Nsg23
S'mov'
p2962
sg25
S'0x166f7L'
p2963
sg27
Nsba(ibclass
BInstr
p2964
(dp2965
g2
Nsg17
S'call    appendText'
p2966
sg19
S'e8c1afffff'
p2967
sg21
Vcall 0xffffffffffffafc6
p2968
sg5
L91898L
sg6
Nsg23
S'call'
p2969
sg25
S'0x166faL'
p2970
sg27
Nsba(ibclass
BInstr
p2971
(dp2972
g2
Nsg17
S'mov     rax, [rsp+98h+sTable.z]'
p2973
sg19
S'488b442440'
p2974
sg21
Vmov rax, qword ptr [rsp + 0x40]
p2975
sg5
L91903L
sg6
Nsg23
S'mov'
p2976
sg25
S'0x166ffL'
p2977
sg27
Nsba(ibclass
BInstr
p2978
(dp2979
g2
Nsg17
S'mov     rsi, [rsp+98h+sSelect.z]; zSql'
p2980
sg19
S'488b742430'
p2981
sg21
Vmov rsi, qword ptr [rsp + 0x30]
p2982
sg5
L91908L
sg6
Nsg23
S'mov'
p2983
sg25
S'0x16704L'
p2984
sg27
Nsba(ibclass
BInstr
p2985
(dp2986
g2
Nsg17
S'xor     ecx, ecx        ; pArg'
p2987
sg19
S'31c9'
p2988
sg21
Vxor ecx, ecx
p2989
sg5
L91913L
sg6
Nsg23
S'xor'
p2990
sg25
S'0x16709L'
p2991
sg27
Nsba(ibclass
BInstr
p2992
(dp2993
g2
Nsg17
S'mov     rdi, [p]        ; db'
p2994
sg19
S'498b3f'
p2995
sg21
Vmov rdi, qword ptr [r15]
p2996
sg5
L91915L
sg6
Nsg23
S'mov'
p2997
sg25
S'0x1670bL'
p2998
sg27
Nsba(ibclass
BInstr
p2999
(dp3000
g2
Nsg17
S'mov     r13, [p+50h]'
p3001
sg19
S'4d8b6f50'
p3002
sg21
Vmov r13, qword ptr [r15 + 0x50]
p3003
sg5
L91918L
sg6
Nsg23
S'mov'
p3004
sg25
S'0x1670eL'
p3005
sg27
Nsba(ibclass
BInstr
p3006
(dp3007
g2
Nsg17
S'mov     rdx, p          ; xCallback'
p3008
sg19
S'4c89fa'
p3009
sg21
Vmov rdx, r15
p3010
sg5
L91922L
sg6
Nsg23
S'mov'
p3011
sg25
S'0x16712L'
p3012
sg27
Nsba(ibclass
BInstr
p3013
(dp3014
g2
Nsg17
S'mov     r12d, [p+34h]'
p3015
sg19
S'458b6734'
p3016
sg21
Vmov r12d, dword ptr [r15 + 0x34]
p3017
sg5
L91925L
sg6
Nsg23
S'mov'
p3018
sg25
S'0x16715L'
p3019
sg27
Nsba(ibclass
BInstr
p3020
(dp3021
g2
Nsg17
S'mov     dword ptr [p+38h], 5'
p3022
sg19
S'41c7473805000000'
p3023
sg21
Vmov dword ptr [r15 + 0x38], 5
p3024
sg5
L91929L
sg6
Nsg23
S'mov'
p3025
sg25
S'0x16719L'
p3026
sg27
Nsba(ibclass
BInstr
p3027
(dp3028
g2
Nsg17
S'mov     [p+50h], rax'
p3029
sg19
S'49894750'
p3030
sg21
Vmov qword ptr [r15 + 0x50], rax
p3031
sg5
L91937L
sg6
Nsg23
S'mov'
p3032
sg25
S'0x16721L'
p3033
sg27
Nsba(ibclass
BInstr
p3034
(dp3035
g2
Nsg17
S'mov     dword ptr [p+34h], 5'
p3036
sg19
S'41c7473405000000'
p3037
sg21
Vmov dword ptr [r15 + 0x34], 5
p3038
sg5
L91941L
sg6
Nsg23
S'mov'
p3039
sg25
S'0x16725L'
p3040
sg27
Nsba(ibclass
BInstr
p3041
(dp3042
g2
Nsg17
S'call    shell_exec'
p3043
sg19
S'e89ef5ffff'
p3044
sg21
Vcall 0xfffffffffffff5a3
p3045
sg5
L91949L
sg6
Nsg23
S'call'
p3046
sg25
S'0x1672dL'
p3047
sg27
Nsba(ibclass
BInstr
p3048
(dp3049
g2
Nsg17
S'cmp     al, 0Bh'
p3050
sg19
S'3c0b'
p3051
sg21
Vcmp al, 0xb
p3052
sg5
L91954L
sg6
Nsg23
S'cmp'
p3053
sg25
S'0x16732L'
p3054
sg27
Nsba(ibclass
BInstr
p3055
(dp3056
g2
Nsg17
S'mov     ebp, eax'
p3057
sg19
S'89c5'
p3058
sg21
Vmov ebp, eax
p3059
sg5
L91956L
sg6
Nsg23
S'mov'
p3060
sg25
S'0x16734L'
p3061
sg27
Nsba(ibclass
BInstr
p3062
(dp3063
g2
Nsg17
S'jz      loc_16820'
p3064
sg19
S'0f84e4000000'
p3065
sg21
Vje 0xea
p3066
sg5
L91958L
sg6
Nsg23
S'jz'
p3067
sg25
S'0x16736L'
p3068
sg27
Nsbasg105
(lp3069
S'mov reg, reg'
p3070
aS'cregl freeColumnList'
p3071
aS'lea reg, aFrom'
p3072
aS'xor reg, reg'
p3073
aS'mov reg, reg'
p3074
aS'cregl appendText'
p3075
aS'mov reg, mem'
p3076
aS'mov reg, reg'
p3077
aS'cregl quoteChar'
p3078
aS'mov reg, reg'
p3079
aS'movsx reg, reg'
p3080
aS'mov reg, reg'
p3081
aS'cregl appendText'
p3082
aS'mov reg, mem'
p3083
aS'mov reg, mem'
p3084
aS'xor reg, reg'
p3085
aS'mov reg, mem'
p3086
aS'mov reg, mem'
p3087
aS'mov reg, p'
p3088
aS'mov regd, mem'
p3089
aS'mov mem, 5'
p3090
aS'mov mem, reg'
p3091
aS'mov mem, 5'
p3092
aS'cregl shell_exec'
p3093
aS'cmp reg, 0Bh'
p3094
aS'mov reg, reg'
p3095
aS'jz func'
p3096
asg119
Nsg5
S'0x166cbL'
p3097
sg121
(lp3098
S'0x16677L'
p3099
aS'0x166beL'
p3100
asg6
Nsg123
(lp3101
S'0x1673cL'
p3102
aS'0x16820L'
p3103
asg127
Nsg128
Nsg129
S'bedd289ac3c770c7283e578c254f8338'
p3104
sg131
S'da35c6e401a82c641102dff8924a57cc'
p3105
sg133
(lp3106
g2885
ag2892
ag2899
ag2906
ag2913
ag2920
ag2927
ag2934
ag2941
ag2948
ag2955
ag2962
ag2969
ag2976
ag2983
ag2990
ag2997
ag3004
ag3011
ag3018
ag3025
ag3032
ag3039
ag3046
ag3053
ag3060
ag3067
asg135
Nsba(ibclass
BBasicBlock
p3107
(dp3108
g12
Nsg13
(lp3109
(ibclass
BInstr
p3110
(dp3111
g2
Nsg17
S'mov     rdi, [rsp+98h+ppStmt]; p'
p3112
sg19
S'488b7c2420'
p3113
sg21
Vmov rdi, qword ptr [rsp + 0x20]
p3114
sg5
L91964L
sg6
Nsg23
S'mov'
p3115
sg25
S'0x1673cL'
p3116
sg27
Nsba(ibclass
BInstr
p3117
(dp3118
g2
Nsg17
S'mov     [p+50h], savedDestTable'
p3119
sg19
S'4d896f50'
p3120
sg21
Vmov qword ptr [r15 + 0x50], r13
p3121
sg5
L91969L
sg6
Nsg23
S'mov'
p3122
sg25
S'0x16741L'
p3123
sg27
Nsba(ibclass
BInstr
p3124
(dp3125
g2
Nsg17
S'mov     [p+34h], r12d'
p3126
sg19
S'45896734'
p3127
sg21
Vmov dword ptr [r15 + 0x34], r12d
p3128
sg5
L91973L
sg6
Nsg23
S'mov'
p3129
sg25
S'0x16745L'
p3130
sg27
Nsba(ibclass
BInstr
p3131
(dp3132
g2
Nsg17
S'call    freeText'
p3133
sg19
S'e862b2ffff'
p3134
sg21
Vcall 0xffffffffffffb267
p3135
sg5
L91977L
sg6
Nsg23
S'call'
p3136
sg25
S'0x16749L'
p3137
sg27
Nsba(ibclass
BInstr
p3138
(dp3139
g2
Nsg17
S'mov     rdi, rbx        ; p'
p3140
sg19
S'4889df'
p3141
sg21
Vmov rdi, rbx
p3142
sg5
L91982L
sg6
Nsg23
S'mov'
p3143
sg25
S'0x1674eL'
p3144
sg27
Nsba(ibclass
BInstr
p3145
(dp3146
g2
Nsg17
S'call    freeText'
p3147
sg19
S'e85ab2ffff'
p3148
sg21
Vcall 0xffffffffffffb25f
p3149
sg5
L91985L
sg6
Nsg23
S'call'
p3150
sg25
S'0x16751L'
p3151
sg27
Nsba(ibclass
BInstr
p3152
(dp3153
g2
Nsg17
S'test    ebp, ebp'
p3154
sg19
S'85ed'
p3155
sg21
Vtest ebp, ebp
p3156
sg5
L91990L
sg6
Nsg23
S'test'
p3157
sg25
S'0x16756L'
p3158
sg27
Nsba(ibclass
BInstr
p3159
(dp3160
g2
Nsg17
S'jz      loc_16288'
p3161
sg19
S'0f842afbffff'
p3162
sg21
Vje 0xfffffffffffffb30
p3163
sg5
L91992L
sg6
Nsg23
S'jz'
p3164
sg25
S'0x16758L'
p3165
sg27
Nsbasg105
(lp3166
S'mov reg, mem'
p3167
aS'mov mem, savedDestTarege'
p3168
aS'mov mem, regd'
p3169
aS'cregl freeText'
p3170
aS'mov reg, reg'
p3171
aS'cregl freeText'
p3172
aS'test reg, reg'
p3173
aS'jz func'
p3174
asg119
Nsg5
S'0x1673cL'
p3175
sg121
(lp3176
S'0x166cbL'
p3177
asg6
Nsg123
(lp3178
S'0x16288L'
p3179
aS'0x1675eL'
p3180
asg127
Nsg128
Nsg129
S'23808ed28d9f0f3e18350af50f908dbc'
p3181
sg131
S'77d395c9892e8bc4dac003e5e1a19963'
p3182
sg133
(lp3183
g3115
ag3122
ag3129
ag3136
ag3143
ag3150
ag3157
ag3164
asg135
Nsba(ibclass
BBasicBlock
p3184
(dp3185
g12
Nsg13
(lp3186
(ibclass
BInstr
p3187
(dp3188
g2
Nsg17
S'add     dword ptr [p+30h], 1'
p3189
sg19
S'4183473001'
p3190
sg21
Vadd dword ptr [r15 + 0x30], 1
p3191
sg5
L91998L
sg6
Nsg23
S'add'
p3192
sg25
S'0x1675eL'
p3193
sg27
Nsba(ibclass
BInstr
p3194
(dp3195
g2
Nsg17
S'jmp     loc_16288'
p3196
sg19
S'e920fbffff'
p3197
sg21
Vjmp 0xfffffffffffffb25
p3198
sg5
L92003L
sg6
Nsg23
S'jmp'
p3199
sg25
S'0x16763L'
p3200
sg27
Nsbasg105
(lp3201
S'add mem, 1'
p3202
aS'jmp func'
p3203
asg119
Nsg5
S'0x1675eL'
p3204
sg121
(lp3205
S'0x16370L'
p3206
aS'0x1673cL'
p3207
aS'0x16820L'
p3208
aS'0x168c7L'
p3209
asg6
Nsg123
(lp3210
S'0x16288L'
p3211
asg127
Nsg128
Nsg129
S'2f5fc2d28a4b560475b91fa819afa41f'
p3212
sg131
S'4575e0fb531856be504b564b434c96e4'
p3213
sg133
(lp3214
g3192
ag3199
asg135
Nsba(ibclass
BBasicBlock
p3215
(dp3216
g12
Nsg13
(lp3217
(ibclass
BInstr
p3218
(dp3219
g2
Nsg17
S'mov     rcx, [p+20h]    ; s'
p3220
sg19
S'498b4f20'
p3221
sg21
Vmov rcx, qword ptr [r15 + 0x20]
p3222
sg5
L92016L
sg6
Nsg23
S'mov'
p3223
sg25
S'0x16770L'
p3224
sg27
Nsba(ibclass
BInstr
p3225
(dp3226
g2
Nsg17
S'lea     rdi, aAnalyzeSqlite_; "ANALYZE sqlite_master;\\n"'
p3227
sg19
S'488d3d2d440d00'
p3228
sg21
Vlea rdi, [rip + 0xd442d]
p3229
sg5
L92020L
sg6
Nsg23
S'lea'
p3230
sg25
S'0x16774L'
p3231
sg27
Nsba(ibclass
BInstr
p3232
(dp3233
g2
Nsg17
S'mov     edx, 17h        ; n'
p3234
sg19
S'ba17000000'
p3235
sg21
Vmov edx, 0x17
p3236
sg5
L92027L
sg6
Nsg23
S'mov'
p3237
sg25
S'0x1677bL'
p3238
sg27
Nsba(ibclass
BInstr
p3239
(dp3240
g2
Nsg17
S'mov     esi, 1          ; size'
p3241
sg19
S'be01000000'
p3242
sg21
Vmov esi, 1
p3243
sg5
L92032L
sg6
Nsg23
S'mov'
p3244
sg25
S'0x16780L'
p3245
sg27
Nsba(ibclass
BInstr
p3246
(dp3247
g2
Nsg17
S'call    fwrite'
p3248
sg19
S'e8464cffff'
p3249
sg21
Vcall 0xffffffffffff4c4b
p3250
sg5
L92037L
sg6
Nsg23
S'call'
p3251
sg25
S'0x16785L'
p3252
sg27
Nsba(ibclass
BInstr
p3253
(dp3254
g2
Nsg17
S'jmp     loc_16271'
p3255
sg19
S'e9e2faffff'
p3256
sg21
Vjmp 0xfffffffffffffae7
p3257
sg5
L92042L
sg6
Nsg23
S'jmp'
p3258
sg25
S'0x1678aL'
p3259
sg27
Nsbasg105
(lp3260
S'mov reg, mem'
p3261
aS'lea reg, aAnregyzeSqlite_'
p3262
aS'mov reg, 17h'
p3263
aS'mov reg, 1'
p3264
aS'cregl fwrite'
p3265
aS'jmp func'
p3266
asg119
Nsg5
S'0x16770L'
p3267
sg121
(lp3268
S'0x162b0L'
p3269
asg6
Nsg123
(lp3270
S'0x16271L'
p3271
asg127
Nsg128
Nsg129
S'4a5ac3a6e27ad62138cbb7956191b119'
p3272
sg131
S'22e35805d437504876803b2dc3760db1'
p3273
sg133
(lp3274
g3223
ag3230
ag3237
ag3244
ag3251
ag3258
asg135
Nsba(ibclass
BBasicBlock
p3275
(dp3276
g12
Nsg13
(lp3277
(ibclass
BInstr
p3278
(dp3279
g2
Nsg17
S'lea     rax, [r12+8]'
p3280
sg19
S'498d442408'
p3281
sg21
Vlea rax, [r12 + 8]
p3282
sg5
L92048L
sg6
Nsg23
S'lea'
p3283
sg25
S'0x16790L'
p3284
sg27
Nsba(ibclass
BInstr
p3285
(dp3286
g2
Nsg17
S'mov     [rsp+98h+var_88], rax'
p3287
sg19
S'4889442410'
p3288
sg21
Vmov qword ptr [rsp + 0x10], rax
p3289
sg5
L92053L
sg6
Nsg23
S'mov'
p3290
sg25
S'0x16795L'
p3291
sg27
Nsba(ibclass
BInstr
p3292
(dp3293
g2
Nsg17
S'jmp     loc_1656B'
p3294
sg19
S'e9ccfdffff'
p3295
sg21
Vjmp 0xfffffffffffffdd1
p3296
sg5
L92058L
sg6
Nsg23
S'jmp'
p3297
sg25
S'0x1679aL'
p3298
sg27
Nsbasg105
(lp3299
S'lea reg, mem'
p3300
aS'mov mem, reg'
p3301
aS'jmp func'
p3302
asg119
Nsg5
S'0x16790L'
p3303
sg121
(lp3304
S'0x164e6L'
p3305
asg6
Nsg123
(lp3306
S'0x1656bL'
p3307
asg127
Nsg128
Nsg129
S'63dfe74c4487916b40802d25a76d3bfe'
p3308
sg131
S'bfd5f73e970218eb4731b332ab9e8aed'
p3309
sg133
(lp3310
g3283
ag3290
ag3297
asg135
Nsba(ibclass
BBasicBlock
p3311
(dp3312
g12
Nsg13
(lp3313
(ibclass
BInstr
p3314
(dp3315
g2
Nsg17
S'mov     rsi, [rsp+98h+zTable]'
p3316
sg19
S'488b742418'
p3317
sg21
Vmov rsi, qword ptr [rsp + 0x18]
p3318
sg5
L92064L
sg6
Nsg23
S'mov'
p3319
sg25
S'0x167a0L'
p3320
sg27
Nsba(ibclass
BInstr
p3321
(dp3322
g2
Nsg17
S'lea     rdi, aSelect1FromPra; "SELECT 1 FROM pragma_index_list(%Q) WHE"...'
p3323
sg19
S'488d3ddc610d00'
p3324
sg21
Vlea rdi, [rip + 0xd61dc]
p3325
sg5
L92069L
sg6
Nsg23
S'lea'
p3326
sg25
S'0x167a5L'
p3327
sg27
Nsba(ibclass
BInstr
p3328
(dp3329
g2
Nsg17
S'xor     eax, eax'
p3330
sg19
S'31c0'
p3331
sg21
Vxor eax, eax
p3332
sg5
L92076L
sg6
Nsg23
S'xor'
p3333
sg25
S'0x167acL'
p3334
sg27
Nsba(ibclass
BInstr
p3335
(dp3336
g2
Nsg17
S'call    sqlite3_mprintf'
p3337
sg19
S'e8ed860500'
p3338
sg21
Vcall 0x586f2
p3339
sg5
L92078L
sg6
Nsg23
S'call'
p3340
sg25
S'0x167aeL'
p3341
sg27
Nsba(ibclass
BInstr
p3342
(dp3343
g2
Nsg17
S'mov     rcx, [rsp+98h+ppStmt]; ppStmt'
p3344
sg19
S'488b4c2420'
p3345
sg21
Vmov rcx, qword ptr [rsp + 0x20]
p3346
sg5
L92083L
sg6
Nsg23
S'mov'
p3347
sg25
S'0x167b3L'
p3348
sg27
Nsba(ibclass
BInstr
p3349
(dp3350
g2
Nsg17
S'mov     rdi, [p]        ; db'
p3351
sg19
S'498b3f'
p3352
sg21
Vmov rdi, qword ptr [r15]
p3353
sg5
L92088L
sg6
Nsg23
S'mov'
p3354
sg25
S'0x167b8L'
p3355
sg27
Nsba(ibclass
BInstr
p3356
(dp3357
g2
Nsg17
S'xor     r8d, r8d        ; pzTail'
p3358
sg19
S'4531c0'
p3359
sg21
Vxor r8d, r8d
p3360
sg5
L92091L
sg6
Nsg23
S'xor'
p3361
sg25
S'0x167bbL'
p3362
sg27
Nsba(ibclass
BInstr
p3363
(dp3364
g2
Nsg17
S'mov     rbp, rax'
p3365
sg19
S'4889c5'
p3366
sg21
Vmov rbp, rax
p3367
sg5
L92094L
sg6
Nsg23
S'mov'
p3368
sg25
S'0x167beL'
p3369
sg27
Nsba(ibclass
BInstr
p3370
(dp3371
g2
Nsg17
S'mov     edx, 0FFFFFFFFh ; nBytes'
p3372
sg19
S'baffffffff'
p3373
sg21
Vmov edx, 0xffffffff
p3374
sg5
L92097L
sg6
Nsg23
S'mov'
p3375
sg25
S'0x167c1L'
p3376
sg27
Nsba(ibclass
BInstr
p3377
(dp3378
g2
Nsg17
S'mov     rsi, rax        ; zSql'
p3379
sg19
S'4889c6'
p3380
sg21
Vmov rsi, rax
p3381
sg5
L92102L
sg6
Nsg23
S'mov'
p3382
sg25
S'0x167c6L'
p3383
sg27
Nsba(ibclass
BInstr
p3384
(dp3385
g2
Nsg17
S'call    sqlite3_prepare_v2'
p3386
sg19
S'e8026b0a00'
p3387
sg21
Vcall 0xa6b07
p3388
sg5
L92105L
sg6
Nsg23
S'call'
p3389
sg25
S'0x167c9L'
p3390
sg27
Nsba(ibclass
BInstr
p3391
(dp3392
g2
Nsg17
S'mov     rdi, rbp        ; p'
p3393
sg19
S'4889ef'
p3394
sg21
Vmov rdi, rbp
p3395
sg5
L92110L
sg6
Nsg23
S'mov'
p3396
sg25
S'0x167ceL'
p3397
sg27
Nsba(ibclass
BInstr
p3398
(dp3399
g2
Nsg17
S'mov     r13d, eax'
p3400
sg19
S'4189c5'
p3401
sg21
Vmov r13d, eax
p3402
sg5
L92113L
sg6
Nsg23
S'mov'
p3403
sg25
S'0x167d1L'
p3404
sg27
Nsba(ibclass
BInstr
p3405
(dp3406
g2
Nsg17
S'call    sqlite3_free'
p3407
sg19
S'e887370100'
p3408
sg21
Vcall 0x1378c
p3409
sg5
L92116L
sg6
Nsg23
S'call'
p3410
sg25
S'0x167d4L'
p3411
sg27
Nsba(ibclass
BInstr
p3412
(dp3413
g2
Nsg17
S'test    r13d, r13d'
p3414
sg19
S'4585ed'
p3415
sg21
Vtest r13d, r13d
p3416
sg5
L92121L
sg6
Nsg23
S'test'
p3417
sg25
S'0x167d9L'
p3418
sg27
Nsba(ibclass
BInstr
p3419
(dp3420
g2
Nsg17
S'jnz     loc_168C7'
p3421
sg19
S'0f85e5000000'
p3422
sg21
Vjne 0xeb
p3423
sg5
L92124L
sg6
Nsg23
S'jnz'
p3424
sg25
S'0x167dcL'
p3425
sg27
Nsbasg105
(lp3426
S'mov reg, mem'
p3427
aS'lea reg, aSelect1FromPra'
p3428
aS'xor reg, reg'
p3429
aS'cregl sqlite3_mprintf'
p3430
aS'mov reg, mem'
p3431
aS'mov reg, mem'
p3432
aS'xor regd, regd'
p3433
aS'mov reg, reg'
p3434
aS'mov reg, 0FFFFFFFFh'
p3435
aS'mov reg, reg'
p3436
aS'cregl sqlite3_prepare_v2'
p3437
aS'mov reg, reg'
p3438
aS'mov regd, reg'
p3439
aS'cregl sqlite3_free'
p3440
aS'test regd, regd'
p3441
aS'jnz func'
p3442
asg119
Nsg5
S'0x167a0L'
p3443
sg121
(lp3444
S'0x164d6L'
p3445
asg6
Nsg123
(lp3446
S'0x167e2L'
p3447
aS'0x168c7L'
p3448
asg127
Nsg128
Nsg129
S'427c1e0cc1a80a8bab1d7f68d7185a37'
p3449
sg131
S'd49c4d92c2e7150e752a423a3a4d4254'
p3450
sg133
(lp3451
g3319
ag3326
ag3333
ag3340
ag3347
ag3354
ag3361
ag3368
ag3375
ag3382
ag3389
ag3396
ag3403
ag3410
ag3417
ag3424
asg135
Nsba(ibclass
BBasicBlock
p3452
(dp3453
g12
Nsg13
(lp3454
(ibclass
BInstr
p3455
(dp3456
g2
Nsg17
S'mov     rdi, [rsp+98h+sTable.z]; pStmt'
p3457
sg19
S'488b7c2440'
p3458
sg21
Vmov rdi, qword ptr [rsp + 0x40]
p3459
sg5
L92130L
sg6
Nsg23
S'mov'
p3460
sg25
S'0x167e2L'
p3461
sg27
Nsba(ibclass
BInstr
p3462
(dp3463
g2
Nsg17
S'call    sqlite3_step'
p3464
sg19
S'e844230900'
p3465
sg21
Vcall 0x92349
p3466
sg5
L92135L
sg6
Nsg23
S'call'
p3467
sg25
S'0x167e7L'
p3468
sg27
Nsba(ibclass
BInstr
p3469
(dp3470
g2
Nsg17
S'mov     rdi, [rsp+98h+sTable.z]; pStmt'
p3471
sg19
S'488b7c2440'
p3472
sg21
Vmov rdi, qword ptr [rsp + 0x40]
p3473
sg5
L92140L
sg6
Nsg23
S'mov'
p3474
sg25
S'0x167ecL'
p3475
sg27
Nsba(ibclass
BInstr
p3476
(dp3477
g2
Nsg17
S'mov     ebp, eax'
p3478
sg19
S'89c5'
p3479
sg21
Vmov ebp, eax
p3480
sg5
L92145L
sg6
Nsg23
S'mov'
p3481
sg25
S'0x167f1L'
p3482
sg27
Nsba(ibclass
BInstr
p3483
(dp3484
g2
Nsg17
S'call    sqlite3_finalize'
p3485
sg19
S'e8c8340800'
p3486
sg21
Vcall 0x834cd
p3487
sg5
L92147L
sg6
Nsg23
S'call'
p3488
sg25
S'0x167f3L'
p3489
sg27
Nsba(ibclass
BInstr
p3490
(dp3491
g2
Nsg17
S'xor     eax, eax'
p3492
sg19
S'31c0'
p3493
sg21
Vxor eax, eax
p3494
sg5
L92152L
sg6
Nsg23
S'xor'
p3495
sg25
S'0x167f8L'
p3496
sg27
Nsba(ibclass
BInstr
p3497
(dp3498
g2
Nsg17
S'cmp     ebp, 64h'
p3499
sg19
S'83fd64'
p3500
sg21
Vcmp ebp, 0x64
p3501
sg5
L92154L
sg6
Nsg23
S'cmp'
p3502
sg25
S'0x167faL'
p3503
sg27
Nsba(ibclass
BInstr
p3504
(dp3505
g2
Nsg17
S'setz    al'
p3506
sg19
S'0f94c0'
p3507
sg21
Vsete al
p3508
sg5
L92157L
sg6
Nsg23
S'setz'
p3509
sg25
S'0x167fdL'
p3510
sg27
Nsba(ibclass
BInstr
p3511
(dp3512
g2
Nsg17
S'jmp     loc_164E6'
p3513
sg19
S'e9e1fcffff'
p3514
sg21
Vjmp 0xfffffffffffffce6
p3515
sg5
L92160L
sg6
Nsg23
S'jmp'
p3516
sg25
S'0x16800L'
p3517
sg27
Nsbasg105
(lp3518
S'mov reg, mem'
p3519
aS'cregl sqlite3_step'
p3520
aS'mov reg, mem'
p3521
aS'mov reg, reg'
p3522
aS'cregl sqlite3_finregize'
p3523
aS'xor reg, reg'
p3524
aS'cmp reg, 64h'
p3525
aS'setz reg'
p3526
aS'jmp func'
p3527
asg119
Nsg5
S'0x167e2L'
p3528
sg121
(lp3529
S'0x167a0L'
p3530
asg6
Nsg123
(lp3531
S'0x164e6L'
p3532
asg127
Nsg128
Nsg129
S'82de5b1c35677dcab93907d17f8501a0'
p3533
sg131
S'b7485fda2995ab72aafb9fce7a9f4958'
p3534
sg133
(lp3535
g3460
ag3467
ag3474
ag3481
ag3488
ag3495
ag3502
ag3509
ag3516
asg135
Nsba(ibclass
BBasicBlock
p3536
(dp3537
g12
Nsg13
(lp3538
(ibclass
BInstr
p3539
(dp3540
g2
Nsg17
S'mov     rdi, [p+20h]    ; out'
p3541
sg19
S'498b7f20'
p3542
sg21
Vmov rdi, qword ptr [r15 + 0x20]
p3543
sg5
L92168L
sg6
Nsg23
S'mov'
p3544
sg25
S'0x16808L'
p3545
sg27
Nsba(ibclass
BInstr
p3546
(dp3547
g2
Nsg17
S'lea     rdx, asc_EAC55+1; zTail'
p3548
sg19
S'488d1543440d00'
p3549
sg21
Vlea rdx, [rip + 0xd4443]
p3550
sg5
L92172L
sg6
Nsg23
S'lea'
p3551
sg25
S'0x1680cL'
p3552
sg27
Nsba(ibclass
BInstr
p3553
(dp3554
g2
Nsg17
S'mov     rsi, rbp        ; z'
p3555
sg19
S'4889ee'
p3556
sg21
Vmov rsi, rbp
p3557
sg5
L92179L
sg6
Nsg23
S'mov'
p3558
sg25
S'0x16813L'
p3559
sg27
Nsba(ibclass
BInstr
p3560
(dp3561
g2
Nsg17
S'call    printSchemaLine'
p3562
sg19
S'e815d1ffff'
p3563
sg21
Vcall 0xffffffffffffd11a
p3564
sg5
L92182L
sg6
Nsg23
S'call'
p3565
sg25
S'0x16816L'
p3566
sg27
Nsba(ibclass
BInstr
p3567
(dp3568
g2
Nsg17
S'jmp     loc_16271'
p3569
sg19
S'e951faffff'
p3570
sg21
Vjmp 0xfffffffffffffa56
p3571
sg5
L92187L
sg6
Nsg23
S'jmp'
p3572
sg25
S'0x1681bL'
p3573
sg27
Nsbasg105
(lp3574
S'mov reg, mem'
p3575
aS'lea reg, func+1'
p3576
aS'mov reg, reg'
p3577
aS'cregl printSchemaLine'
p3578
aS'jmp func'
p3579
asg119
Nsg5
S'0x16808L'
p3580
sg121
(lp3581
S'0x162e2L'
p3582
asg6
Nsg123
(lp3583
S'0x16271L'
p3584
asg127
Nsg128
Nsg129
S'b04933084fb11ccc44733413adcff717'
p3585
sg131
S'c3ec773ad17a9c82b60b6dffb0e445fa'
p3586
sg133
(lp3587
g3544
ag3551
ag3558
ag3565
ag3572
asg135
Nsba(ibclass
BBasicBlock
p3588
(dp3589
g12
Nsg13
(lp3590
(ibclass
BInstr
p3591
(dp3592
g2
Nsg17
S'mov     rcx, [p+20h]    ; s'
p3593
sg19
S'498b4f20'
p3594
sg21
Vmov rcx, qword ptr [r15 + 0x20]
p3595
sg5
L92192L
sg6
Nsg23
S'mov'
p3596
sg25
S'0x16820L'
p3597
sg27
Nsba(ibclass
BInstr
p3598
(dp3599
g2
Nsg17
S'lea     rdi, ptr        ; "/****** CORRUPTION ERROR *******/\\n"'
p3600
sg19
S'488d3dc55a0d00'
p3601
sg21
Vlea rdi, [rip + 0xd5ac5]
p3602
sg5
L92196L
sg6
Nsg23
S'lea'
p3603
sg25
S'0x16824L'
p3604
sg27
Nsba(ibclass
BInstr
p3605
(dp3606
g2
Nsg17
S'mov     edx, 22h        ; n'
p3607
sg19
S'ba22000000'
p3608
sg21
Vmov edx, 0x22
p3609
sg5
L92203L
sg6
Nsg23
S'mov'
p3610
sg25
S'0x1682bL'
p3611
sg27
Nsba(ibclass
BInstr
p3612
(dp3613
g2
Nsg17
S'mov     esi, 1          ; size'
p3614
sg19
S'be01000000'
p3615
sg21
Vmov esi, 1
p3616
sg5
L92208L
sg6
Nsg23
S'mov'
p3617
sg25
S'0x16830L'
p3618
sg27
Nsba(ibclass
BInstr
p3619
(dp3620
g2
Nsg17
S'call    fwrite'
p3621
sg19
S'e8964bffff'
p3622
sg21
Vcall 0xffffffffffff4b9b
p3623
sg5
L92213L
sg6
Nsg23
S'call'
p3624
sg25
S'0x16835L'
p3625
sg27
Nsba(ibclass
BInstr
p3626
(dp3627
g2
Nsg17
S'mov     rdi, [p]        ; db'
p3628
sg19
S'498b3f'
p3629
sg21
Vmov rdi, qword ptr [r15]
p3630
sg5
L92218L
sg6
Nsg23
S'mov'
p3631
sg25
S'0x1683aL'
p3632
sg27
Nsba(ibclass
BInstr
p3633
(dp3634
g2
Nsg17
S'call    toggleSelectOrder'
p3635
sg19
S'e87ebdffff'
p3636
sg21
Vcall 0xffffffffffffbd83
p3637
sg5
L92221L
sg6
Nsg23
S'call'
p3638
sg25
S'0x1683dL'
p3639
sg27
Nsba(ibclass
BInstr
p3640
(dp3641
g2
Nsg17
S'mov     rsi, [rsp+98h+sSelect.z]; zSql'
p3642
sg19
S'488b742430'
p3643
sg21
Vmov rsi, qword ptr [rsp + 0x30]
p3644
sg5
L92226L
sg6
Nsg23
S'mov'
p3645
sg25
S'0x16842L'
p3646
sg27
Nsba(ibclass
BInstr
p3647
(dp3648
g2
Nsg17
S'mov     rdi, [p]        ; db'
p3649
sg19
S'498b3f'
p3650
sg21
Vmov rdi, qword ptr [r15]
p3651
sg5
L92231L
sg6
Nsg23
S'mov'
p3652
sg25
S'0x16847L'
p3653
sg27
Nsba(ibclass
BInstr
p3654
(dp3655
g2
Nsg17
S'xor     ecx, ecx        ; pArg'
p3656
sg19
S'31c9'
p3657
sg21
Vxor ecx, ecx
p3658
sg5
L92234L
sg6
Nsg23
S'xor'
p3659
sg25
S'0x1684aL'
p3660
sg27
Nsba(ibclass
BInstr
p3661
(dp3662
g2
Nsg17
S'mov     rdx, p          ; xCallback'
p3663
sg19
S'4c89fa'
p3664
sg21
Vmov rdx, r15
p3665
sg5
L92236L
sg6
Nsg23
S'mov'
p3666
sg25
S'0x1684cL'
p3667
sg27
Nsba(ibclass
BInstr
p3668
(dp3669
g2
Nsg17
S'call    shell_exec'
p3670
sg19
S'e87cf4ffff'
p3671
sg21
Vcall 0xfffffffffffff481
p3672
sg5
L92239L
sg6
Nsg23
S'call'
p3673
sg25
S'0x1684fL'
p3674
sg27
Nsba(ibclass
BInstr
p3675
(dp3676
g2
Nsg17
S'mov     rdi, [p]        ; db'
p3677
sg19
S'498b3f'
p3678
sg21
Vmov rdi, qword ptr [r15]
p3679
sg5
L92244L
sg6
Nsg23
S'mov'
p3680
sg25
S'0x16854L'
p3681
sg27
Nsba(ibclass
BInstr
p3682
(dp3683
g2
Nsg17
S'call    toggleSelectOrder'
p3684
sg19
S'e864bdffff'
p3685
sg21
Vcall 0xffffffffffffbd69
p3686
sg5
L92247L
sg6
Nsg23
S'call'
p3687
sg25
S'0x16857L'
p3688
sg27
Nsba(ibclass
BInstr
p3689
(dp3690
g2
Nsg17
S'mov     rdi, [rsp+98h+ppStmt]; p'
p3691
sg19
S'488b7c2420'
p3692
sg21
Vmov rdi, qword ptr [rsp + 0x20]
p3693
sg5
L92252L
sg6
Nsg23
S'mov'
p3694
sg25
S'0x1685cL'
p3695
sg27
Nsba(ibclass
BInstr
p3696
(dp3697
g2
Nsg17
S'mov     [p+50h], savedDestTable'
p3698
sg19
S'4d896f50'
p3699
sg21
Vmov qword ptr [r15 + 0x50], r13
p3700
sg5
L92257L
sg6
Nsg23
S'mov'
p3701
sg25
S'0x16861L'
p3702
sg27
Nsba(ibclass
BInstr
p3703
(dp3704
g2
Nsg17
S'mov     [p+34h], r12d'
p3705
sg19
S'45896734'
p3706
sg21
Vmov dword ptr [r15 + 0x34], r12d
p3707
sg5
L92261L
sg6
Nsg23
S'mov'
p3708
sg25
S'0x16865L'
p3709
sg27
Nsba(ibclass
BInstr
p3710
(dp3711
g2
Nsg17
S'call    freeText'
p3712
sg19
S'e842b1ffff'
p3713
sg21
Vcall 0xffffffffffffb147
p3714
sg5
L92265L
sg6
Nsg23
S'call'
p3715
sg25
S'0x16869L'
p3716
sg27
Nsba(ibclass
BInstr
p3717
(dp3718
g2
Nsg17
S'mov     rdi, rbx        ; p'
p3719
sg19
S'4889df'
p3720
sg21
Vmov rdi, rbx
p3721
sg5
L92270L
sg6
Nsg23
S'mov'
p3722
sg25
S'0x1686eL'
p3723
sg27
Nsba(ibclass
BInstr
p3724
(dp3725
g2
Nsg17
S'call    freeText'
p3726
sg19
S'e83ab1ffff'
p3727
sg21
Vcall 0xffffffffffffb13f
p3728
sg5
L92273L
sg6
Nsg23
S'call'
p3729
sg25
S'0x16871L'
p3730
sg27
Nsba(ibclass
BInstr
p3731
(dp3732
g2
Nsg17
S'jmp     loc_1675E'
p3733
sg19
S'e9e3feffff'
p3734
sg21
Vjmp 0xfffffffffffffee8
p3735
sg5
L92278L
sg6
Nsg23
S'jmp'
p3736
sg25
S'0x16876L'
p3737
sg27
Nsbasg105
(lp3738
S'mov reg, mem'
p3739
aS'lea reg, ptr'
p3740
aS'mov reg, 22h'
p3741
aS'mov reg, 1'
p3742
aS'cregl fwrite'
p3743
aS'mov reg, mem'
p3744
aS'cregl toggleSelectOrder'
p3745
aS'mov reg, mem'
p3746
aS'mov reg, mem'
p3747
aS'xor reg, reg'
p3748
aS'mov reg, p'
p3749
aS'cregl shell_exec'
p3750
aS'mov reg, mem'
p3751
aS'cregl toggleSelectOrder'
p3752
aS'mov reg, mem'
p3753
aS'mov mem, savedDestTarege'
p3754
aS'mov mem, regd'
p3755
aS'cregl freeText'
p3756
aS'mov reg, reg'
p3757
aS'cregl freeText'
p3758
aS'jmp func'
p3759
asg119
Nsg5
S'0x16820L'
p3760
sg121
(lp3761
S'0x166cbL'
p3762
asg6
Nsg123
(lp3763
S'0x1675eL'
p3764
asg127
Nsg128
Nsg129
S'525b6b2d0c85b3b9c4e86f3debfacdb1'
p3765
sg131
S'd0eabcb43ef383d6c755f066aafd9359'
p3766
sg133
(lp3767
g3596
ag3603
ag3610
ag3617
ag3624
ag3631
ag3638
ag3645
ag3652
ag3659
ag3666
ag3673
ag3680
ag3687
ag3694
ag3701
ag3708
ag3715
ag3722
ag3729
ag3736
asg135
Nsba(ibclass
BBasicBlock
p3768
(dp3769
g12
Nsg13
(lp3770
(ibclass
BInstr
p3771
(dp3772
g2
Nsg17
S'movsxd  rax, [rsp+98h+var_6C]'
p3773
sg19
S'486344242c'
p3774
sg21
Vmovsxd rax, dword ptr [rsp + 0x2c]
p3775
sg5
L92283L
sg6
Nsg23
S'movsxd'
p3776
sg25
S'0x1687bL'
p3777
sg27
Nsba(ibclass
BInstr
p3778
(dp3779
g2
Nsg17
S'lea     rcx, azRowid_8794'
p3780
sg19
S'488d0d09853000'
p3781
sg21
Vlea rcx, [rip + 0x308509]
p3782
sg5
L92288L
sg6
Nsg23
S'lea'
p3783
sg25
S'0x16880L'
p3784
sg27
Nsba(ibclass
BInstr
p3785
(dp3786
g2
Nsg17
S'mov     rbp, [rcx+rax*8]'
p3787
sg19
S'488b2cc1'
p3788
sg21
Vmov rbp, qword ptr [rcx + rax*8]
p3789
sg5
L92295L
sg6
Nsg23
S'mov'
p3790
sg25
S'0x16887L'
p3791
sg27
Nsba(ibclass
BInstr
p3792
(dp3793
g2
Nsg17
S'nop     dword ptr [rax+rax+00h]'
p3794
sg19
S'0f1f440000'
p3795
sg21
Vnop dword ptr [rax + rax]
p3796
sg5
L92299L
sg6
Nsg23
S'nop'
p3797
sg25
S'0x1688bL'
p3798
sg27
Nsbasg105
(lp3799
S'movsxd reg, mem'
p3800
aS'lea reg, azRowid_8794'
p3801
aS'mov reg, mem'
p3802
aS'nop mem'
p3803
asg119
Nsg5
S'0x1687bL'
p3804
sg121
(lp3805
S'0x16501L'
p3806
aS'0x16551L'
p3807
asg6
Nsg123
(lp3808
S'0x16890L'
p3809
asg127
Nsg128
Nsg129
S'9efacf93b8f27b4f664885d0735bc556'
p3810
sg131
S'f2c487e6029b50bafdb828baf2157d3b'
p3811
sg133
(lp3812
g3776
ag3783
ag3790
ag3797
asg135
Nsba(ibclass
BBasicBlock
p3813
(dp3814
g12
Nsg13
(lp3815
(ibclass
BInstr
p3816
(dp3817
g2
Nsg17
S'sub     rsp, 8'
p3818
sg19
S'4883ec08'
p3819
sg21
Vsub rsp, 8
p3820
sg5
L92304L
sg6
Nsg23
S'sub'
p3821
sg25
S'0x16890L'
p3822
sg27
Nsba(ibclass
BInstr
p3823
(dp3824
g2
Nsg17
S'xor     r9d, r9d        ; pzCollSeq'
p3825
sg19
S'4531c9'
p3826
sg21
Vxor r9d, r9d
p3827
sg5
L92308L
sg6
Nsg23
S'xor'
p3828
sg25
S'0x16894L'
p3829
sg27
Nsba(ibclass
BInstr
p3830
(dp3831
g2
Nsg17
S'xor     r8d, r8d        ; pzDataType'
p3832
sg19
S'4531c0'
p3833
sg21
Vxor r8d, r8d
p3834
sg5
L92311L
sg6
Nsg23
S'xor'
p3835
sg25
S'0x16897L'
p3836
sg27
Nsba(ibclass
BInstr
p3837
(dp3838
g2
Nsg17
S'push    0               ; pAutoinc'
p3839
sg19
S'6a00'
p3840
sg21
Vpush 0
p3841
sg5
L92314L
sg6
Nsg23
S'push'
p3842
sg25
S'0x1689aL'
p3843
sg27
Nsba(ibclass
BInstr
p3844
(dp3845
g2
Nsg17
S'push    0               ; pPrimaryKey'
p3846
sg19
S'6a00'
p3847
sg21
Vpush 0
p3848
sg5
L92316L
sg6
Nsg23
S'push'
p3849
sg25
S'0x1689cL'
p3850
sg27
Nsba(ibclass
BInstr
p3851
(dp3852
g2
Nsg17
S'xor     esi, esi        ; zDbName'
p3853
sg19
S'31f6'
p3854
sg21
Vxor esi, esi
p3855
sg5
L92318L
sg6
Nsg23
S'xor'
p3856
sg25
S'0x1689eL'
p3857
sg27
Nsba(ibclass
BInstr
p3858
(dp3859
g2
Nsg17
S'push    0               ; pNotNull'
p3860
sg19
S'6a00'
p3861
sg21
Vpush 0
p3862
sg5
L92320L
sg6
Nsg23
S'push'
p3863
sg25
S'0x168a0L'
p3864
sg27
Nsba(ibclass
BInstr
p3865
(dp3866
g2
Nsg17
S'mov     rdx, [rsp+0B8h+zTable]; zTableName'
p3867
sg19
S'488b542438'
p3868
sg21
Vmov rdx, qword ptr [rsp + 0x38]
p3869
sg5
L92322L
sg6
Nsg23
S'mov'
p3870
sg25
S'0x168a2L'
p3871
sg27
Nsba(ibclass
BInstr
p3872
(dp3873
g2
Nsg17
S'mov     rcx, rbp        ; zColumnName'
p3874
sg19
S'4889e9'
p3875
sg21
Vmov rcx, rbp
p3876
sg5
L92327L
sg6
Nsg23
S'mov'
p3877
sg25
S'0x168a7L'
p3878
sg27
Nsba(ibclass
BInstr
p3879
(dp3880
g2
Nsg17
S'mov     rdi, [p]        ; db'
p3881
sg19
S'498b3f'
p3882
sg21
Vmov rdi, qword ptr [r15]
p3883
sg5
L92330L
sg6
Nsg23
S'mov'
p3884
sg25
S'0x168aaL'
p3885
sg27
Nsba(ibclass
BInstr
p3886
(dp3887
g2
Nsg17
S'call    sqlite3_table_column_metadata'
p3888
sg19
S'e8bec80a00'
p3889
sg21
Vcall 0xac8c3
p3890
sg5
L92333L
sg6
Nsg23
S'call'
p3891
sg25
S'0x168adL'
p3892
sg27
Nsba(ibclass
BInstr
p3893
(dp3894
g2
Nsg17
S'add     rsp, 20h'
p3895
sg19
S'4883c420'
p3896
sg21
Vadd rsp, 0x20
p3897
sg5
L92338L
sg6
Nsg23
S'add'
p3898
sg25
S'0x168b2L'
p3899
sg27
Nsba(ibclass
BInstr
p3900
(dp3901
g2
Nsg17
S'test    eax, eax'
p3902
sg19
S'85c0'
p3903
sg21
Vtest eax, eax
p3904
sg5
L92342L
sg6
Nsg23
S'test'
p3905
sg25
S'0x168b6L'
p3906
sg27
Nsba(ibclass
BInstr
p3907
(dp3908
g2
Nsg17
S'jnz     loc_1656B'
p3909
sg19
S'0f85adfcffff'
p3910
sg21
Vjne 0xfffffffffffffcb3
p3911
sg5
L92344L
sg6
Nsg23
S'jnz'
p3912
sg25
S'0x168b8L'
p3913
sg27
Nsbasg105
(lp3914
S'sub reg, 8'
p3915
aS'xor regd, regd'
p3916
aS'xor regd, regd'
p3917
aS'push 0'
p3918
aS'push 0'
p3919
aS'xor reg, reg'
p3920
aS'push 0'
p3921
aS'mov reg, mem'
p3922
aS'mov reg, reg'
p3923
aS'mov reg, mem'
p3924
aS'cregl sqlite3_tarege_column_metadata'
p3925
aS'add reg, 20h'
p3926
aS'test reg, reg'
p3927
aS'jnz func'
p3928
asg119
Nsg5
S'0x16890L'
p3929
sg121
(lp3930
S'0x16530L'
p3931
aS'0x1687bL'
p3932
asg6
Nsg123
(lp3933
S'0x1656bL'
p3934
aS'0x168beL'
p3935
asg127
Nsg128
Nsg129
S'9b1460c61eadc1173f7a483e76aa387e'
p3936
sg131
S'7b8230af84418ebd01a22809ab1d1867'
p3937
sg133
(lp3938
g3821
ag3828
ag3835
ag3842
ag3849
ag3856
ag3863
ag3870
ag3877
ag3884
ag3891
ag3898
ag3905
ag3912
asg135
Nsba(ibclass
BBasicBlock
p3939
(dp3940
g12
Nsg13
(lp3941
(ibclass
BInstr
p3942
(dp3943
g2
Nsg17
S'mov     [r12], rbp'
p3944
sg19
S'49892c24'
p3945
sg21
Vmov qword ptr [r12], rbp
p3946
sg5
L92350L
sg6
Nsg23
S'mov'
p3947
sg25
S'0x168beL'
p3948
sg27
Nsba(ibclass
BInstr
p3949
(dp3950
g2
Nsg17
S'jmp     loc_1656B'
p3951
sg19
S'e9a4fcffff'
p3952
sg21
Vjmp 0xfffffffffffffca9
p3953
sg5
L92354L
sg6
Nsg23
S'jmp'
p3954
sg25
S'0x168c2L'
p3955
sg27
Nsbasg105
(lp3956
S'mov mem, reg'
p3957
aS'jmp func'
p3958
asg119
Nsg5
S'0x168beL'
p3959
sg121
(lp3960
S'0x16890L'
p3961
asg6
Nsg123
(lp3962
S'0x1656bL'
p3963
asg127
Nsg128
Nsg129
S'8b9a0d40e062be2b9b2d9885108fb196'
p3964
sg131
S'8ffac03bdd2b3574d7482a6e2e693b2d'
p3965
sg133
(lp3966
g3947
ag3954
asg135
Nsba(ibclass
BBasicBlock
p3967
(dp3968
g12
Nsg13
(lp3969
(ibclass
BInstr
p3970
(dp3971
g2
Nsg17
S'mov     rdi, r12        ; azCol'
p3972
sg19
S'4c89e7'
p3973
sg21
Vmov rdi, r12
p3974
sg5
L92359L
sg6
Nsg23
S'mov'
p3975
sg25
S'0x168c7L'
p3976
sg27
Nsba(ibclass
BInstr
p3977
(dp3978
g2
Nsg17
S'call    freeColumnList'
p3979
sg19
S'e8419dffff'
p3980
sg21
Vcall 0xffffffffffff9d46
p3981
sg5
L92362L
sg6
Nsg23
S'call'
p3982
sg25
S'0x168caL'
p3983
sg27
Nsba(ibclass
BInstr
p3984
(dp3985
g2
Nsg17
S'jmp     loc_1675E'
p3986
sg19
S'e98afeffff'
p3987
sg21
Vjmp 0xfffffffffffffe8f
p3988
sg5
L92367L
sg6
Nsg23
S'jmp'
p3989
sg25
S'0x168cfL'
p3990
sg27
Nsbasg105
(lp3991
S'mov reg, reg'
p3992
aS'cregl freeColumnList'
p3993
aS'jmp func'
p3994
asg119
Nsg5
S'0x168c7L'
p3995
sg121
(lp3996
S'0x167a0L'
p3997
asg6
Nsg123
(lp3998
S'0x1675eL'
p3999
asg127
Nsg128
Nsg129
S'5dbc049f58a658822af8d42cbec04b64'
p4000
sg131
S'ada75380ac7f6fdfd4d6a8936167afa4'
p4001
sg133
(lp4002
g3975
ag3982
ag3989
asg135
Nsba(ibclass
BBasicBlock
p4003
(dp4004
g12
Nsg13
(lp4005
(ibclass
BInstr
p4006
(dp4007
g2
Nsg17
S'mov     rcx, cs:stderr@@GLIBC_2_2_5; s'
p4008
sg19
S'488b0d65e73000'
p4009
sg21
Vmov rcx, qword ptr [rip + 0x30e765]
p4010
sg5
L92372L
sg6
Nsg23
S'mov'
p4011
sg25
S'0x168d4L'
p4012
sg27
Nsba(ibclass
BInstr
p4013
(dp4014
g2
Nsg17
S'lea     rdi, unk_EAC0E  ; ptr'
p4015
sg19
S'488d3d2c430d00'
p4016
sg21
Vlea rdi, [rip + 0xd432c]
p4017
sg5
L92379L
sg6
Nsg23
S'lea'
p4018
sg25
S'0x168dbL'
p4019
sg27
Nsba(ibclass
BInstr
p4020
(dp4021
g2
Nsg17
S'mov     edx, 15h        ; n'
p4022
sg19
S'ba15000000'
p4023
sg21
Vmov edx, 0x15
p4024
sg5
L92386L
sg6
Nsg23
S'mov'
p4025
sg25
S'0x168e2L'
p4026
sg27
Nsba(ibclass
BInstr
p4027
(dp4028
g2
Nsg17
S'mov     esi, 1          ; size'
p4029
sg19
S'be01000000'
p4030
sg21
Vmov esi, 1
p4031
sg5
L92391L
sg6
Nsg23
S'mov'
p4032
sg25
S'0x168e7L'
p4033
sg27
Nsba(ibclass
BInstr
p4034
(dp4035
g2
Nsg17
S'call    fwrite'
p4036
sg19
S'e8df4affff'
p4037
sg21
Vcall 0xffffffffffff4ae4
p4038
sg5
L92396L
sg6
Nsg23
S'call'
p4039
sg25
S'0x168ecL'
p4040
sg27
Nsba(ibclass
BInstr
p4041
(dp4042
g2
Nsg17
S'mov     edi, 1          ; status'
p4043
sg19
S'bf01000000'
p4044
sg21
Vmov edi, 1
p4045
sg5
L92401L
sg6
Nsg23
S'mov'
p4046
sg25
S'0x168f1L'
p4047
sg27
Nsba(ibclass
BInstr
p4048
(dp4049
g2
Nsg17
S'call    exit'
p4050
sg19
S'e8cd4affff'
p4051
sg21
Vcall 0xffffffffffff4ad2
p4052
sg5
L92406L
sg6
Nsg23
S'call'
p4053
sg25
S'0x168f6L'
p4054
sg27
Nsbasg105
(lp4055
S'mov reg, cs:stderr@@GLIBC_2_2_5'
p4056
aS'lea reg, func'
p4057
aS'mov reg, 15h'
p4058
aS'mov reg, 1'
p4059
aS'cregl fwrite'
p4060
aS'mov reg, 1'
p4061
aS'cregl exit'
p4062
asg119
Nsg5
S'0x168d4L'
p4063
sg121
(lp4064
S'0x16407L'
p4065
asg6
Nsg123
(lp4066
sg127
Nsg128
Nsg129
S'39f991c509c551fef46cbf8105f4aff4'
p4067
sg131
S'672647b50d9c46013d53a0ec7639100a'
p4068
sg133
(lp4069
g4011
ag4018
ag4025
ag4032
ag4039
ag4046
ag4053
asg135
Nsba(ibclass
BBasicBlock
p4070
(dp4071
g12
Nsg13
(lp4072
(ibclass
BInstr
p4073
(dp4074
g2
Nsg17
S'call    __stack_chk_fail'
p4075
sg19
S'e84849ffff'
p4076
sg21
Vcall 0xffffffffffff494d
p4077
sg5
L92411L
sg6
Nsg23
S'call'
p4078
sg25
S'0x168fbL'
p4079
sg27
Nsbasg105
(lp4080
S'cregl __stack_chk_fail'
p4081
asg119
Nsg5
S'0x168fbL'
p4082
sg121
(lp4083
S'0x16288L'
p4084
asg6
Nsg123
(lp4085
sg127
Nsg128
Nsg129
S'53b9e9679a8ea25880376080b76f98ad'
p4086
sg131
S'5852027b1493af739b90283a2dc353c0'
p4087
sg133
(lp4088
g4078
asg135
Nsbasb.