(ibclass
BFunc
p0
(dp1
S'hash'
p2
NsS'name'
p3
S'captureOutputCallback'
p4
sS'start_address'
p5
L71808L
sS'flag'
p6
NsS'program'
p7
NsS'bbs'
p8
(lp9
(ibclass
BBasicBlock
p10
(dp11
S'function'
p12
NsS'binstrs'
p13
(lp14
(ibclass
BInstr
p15
(dp16
g2
NsS'disasm'
p17
S'push    r13'
p18
sS'bytes'
p19
S'4155'
p20
sS'disasm_striped'
p21
Vpush r13
p22
sg5
L71808L
sg6
NsS'mnem'
p23
S'push'
p24
sS'address'
p25
S'0x11880L'
p26
sS'basicblock'
p27
Nsba(ibclass
BInstr
p28
(dp29
g2
Nsg17
S'push    r12'
p30
sg19
S'4154'
p31
sg21
Vpush r12
p32
sg5
L71810L
sg6
Nsg23
S'push'
p33
sg25
S'0x11882L'
p34
sg27
Nsba(ibclass
BInstr
p35
(dp36
g2
Nsg17
S'mov     r13d, esi'
p37
sg19
S'4189f5'
p38
sg21
Vmov r13d, esi
p39
sg5
L71812L
sg6
Nsg23
S'mov'
p40
sg25
S'0x11884L'
p41
sg27
Nsba(ibclass
BInstr
p42
(dp43
g2
Nsg17
S'push    rbp'
p44
sg19
S'55'
p45
sg21
Vpush rbp
p46
sg5
L71815L
sg6
Nsg23
S'push'
p47
sg25
S'0x11887L'
p48
sg27
Nsba(ibclass
BInstr
p49
(dp50
g2
Nsg17
S'push    rbx'
p51
sg19
S'53'
p52
sg21
Vpush rbx
p53
sg5
L71816L
sg6
Nsg23
S'push'
p54
sg25
S'0x11888L'
p55
sg27
Nsba(ibclass
BInstr
p56
(dp57
g2
Nsg17
S'mov     r12, p'
p58
sg19
S'4989fc'
p59
sg21
Vmov r12, rdi
p60
sg5
L71817L
sg6
Nsg23
S'mov'
p61
sg25
S'0x11889L'
p62
sg27
Nsba(ibclass
BInstr
p63
(dp64
g2
Nsg17
S'mov     rbp, azArg'
p65
sg19
S'4889d5'
p66
sg21
Vmov rbp, rdx
p67
sg5
L71820L
sg6
Nsg23
S'mov'
p68
sg25
S'0x1188cL'
p69
sg27
Nsba(ibclass
BInstr
p70
(dp71
g2
Nsg17
S'sub     rsp, 8'
p72
sg19
S'4883ec08'
p73
sg21
Vsub rsp, 8
p74
sg5
L71823L
sg6
Nsg23
S'sub'
p75
sg25
S'0x1188fL'
p76
sg27
Nsba(ibclass
BInstr
p77
(dp78
g2
Nsg17
S'mov     eax, [p+8]'
p79
sg19
S'8b4708'
p80
sg21
Vmov eax, dword ptr [rdi + 8]
p81
sg5
L71827L
sg6
Nsg23
S'mov'
p82
sg25
S'0x11893L'
p83
sg27
Nsba(ibclass
BInstr
p84
(dp85
g2
Nsg17
S'test    eax, eax'
p86
sg19
S'85c0'
p87
sg21
Vtest eax, eax
p88
sg5
L71830L
sg6
Nsg23
S'test'
p89
sg25
S'0x11896L'
p90
sg27
Nsba(ibclass
BInstr
p91
(dp92
g2
Nsg17
S'jnz     short loc_118F0'
p93
sg19
S'7556'
p94
sg21
Vjne 0x58
p95
sg5
L71832L
sg6
Nsg23
S'jnz'
p96
sg25
S'0x11898L'
p97
sg27
NsbasS'disasm_list'
p98
(lp99
S'push reg'
p100
aS'push reg'
p101
aS'mov regd, reg'
p102
aS'push reg'
p103
aS'push reg'
p104
aS'mov reg, p'
p105
aS'mov reg, azArg'
p106
aS'sub reg, 8'
p107
aS'mov reg, mem'
p108
aS'test reg, reg'
p109
aS'jnz func'
p110
asS'end_address'
p111
Nsg5
S'0x11880L'
p112
sS'preds'
p113
(lp114
sg6
NsS'succs'
p115
(lp116
S'0x1189aL'
p117
aS'0x118f0L'
p118
asS'hash_v3'
p119
NsS'flag_v2'
p120
NsS'hash_v1'
p121
S'ef120b743893516e5c40ba1b3dd8e4de'
p122
sS'hash_v2'
p123
S'93b19961813b91879b2e3c624b6e300a'
p124
sS'mnen_list'
p125
(lp126
g24
ag33
ag40
ag47
ag54
ag61
ag68
ag75
ag82
ag89
ag96
asS'neighbour_disasm_list'
p127
Nsba(ibclass
BBasicBlock
p128
(dp129
g12
Nsg13
(lp130
(ibclass
BInstr
p131
(dp132
g2
Nsg17
S'xor     ebx, ebx'
p133
sg19
S'31db'
p134
sg21
Vxor ebx, ebx
p135
sg5
L71834L
sg6
Nsg23
S'xor'
p136
sg25
S'0x1189aL'
p137
sg27
Nsba(ibclass
BInstr
p138
(dp139
g2
Nsg17
S'test    r13d, r13d'
p140
sg19
S'4585ed'
p141
sg21
Vtest r13d, r13d
p142
sg5
L71836L
sg6
Nsg23
S'test'
p143
sg25
S'0x1189cL'
p144
sg27
Nsba(ibclass
BInstr
p145
(dp146
g2
Nsg17
S'jg      short loc_118C1'
p147
sg19
S'7f20'
p148
sg21
Vjg 0x22
p149
sg5
L71839L
sg6
Nsg23
S'jg'
p150
sg25
S'0x1189fL'
p151
sg27
Nsbasg98
(lp152
S'xor reg, reg'
p153
aS'test regd, regd'
p154
aS'jg func'
p155
asg111
Nsg5
S'0x1189aL'
p156
sg113
(lp157
S'0x11880L'
p158
aS'0x118f0L'
p159
asg6
Nsg115
(lp160
S'0x118a1L'
p161
aS'0x118c1L'
p162
asg119
Nsg120
Nsg121
S'526b5154ea320b741b951d5e42b1022b'
p163
sg123
S'e58cc002320d329423fbfc96bf2b04ea'
p164
sg125
(lp165
g136
ag143
ag150
asg127
Nsba(ibclass
BBasicBlock
p166
(dp167
g12
Nsg13
(lp168
(ibclass
BInstr
p169
(dp170
g2
Nsg17
S'jmp     short loc_118DC'
p171
sg19
S'eb39'
p172
sg21
Vjmp 0x3b
p173
sg5
L71841L
sg6
Nsg23
S'jmp'
p174
sg25
S'0x118a1L'
p175
sg27
Nsbasg98
(lp176
S'jmp func'
p177
asg111
Nsg5
S'0x118a1L'
p178
sg113
(lp179
S'0x1189aL'
p180
asg6
Nsg115
(lp181
S'0x118dcL'
p182
asg119
Nsg120
Nsg121
S'0ef6cf926f2f394b0cc8e11be8022625'
p183
sg123
S'6c64eaafdcb2d6ebd96fc3dc6cab1911'
p184
sg125
(lp185
g174
asg127
Nsba(ibclass
BBasicBlock
p186
(dp187
g12
Nsg13
(lp188
(ibclass
BInstr
p189
(dp190
g2
Nsg17
S'test    ebx, ebx'
p191
sg19
S'85db'
p192
sg21
Vtest ebx, ebx
p193
sg5
L71848L
sg6
Nsg23
S'test'
p194
sg25
S'0x118a8L'
p195
sg27
Nsba(ibclass
BInstr
p196
(dp197
g2
Nsg17
S'jz      short loc_118BD'
p198
sg19
S'7411'
p199
sg21
Vje 0x13
p200
sg5
L71850L
sg6
Nsg23
S'jz'
p201
sg25
S'0x118aaL'
p202
sg27
Nsbasg98
(lp203
S'test reg, reg'
p204
aS'jz func'
p205
asg111
Nsg5
S'0x118a8L'
p206
sg113
(lp207
S'0x118d4L'
p208
asg6
Nsg115
(lp209
S'0x118acL'
p210
aS'0x118bdL'
p211
asg119
Nsg120
Nsg121
S'84491ffb986a9ed3c0d756870de1b100'
p212
sg123
S'fbb15b446ae771d008c367d72e1a39f9'
p213
sg125
(lp214
g194
ag201
asg127
Nsba(ibclass
BBasicBlock
p215
(dp216
g12
Nsg13
(lp217
(ibclass
BInstr
p218
(dp219
g2
Nsg17
S'lea     rsi, aEqpD+0Ah  ; zAppend'
p220
sg19
S'488d352d930d00'
p221
sg21
Vlea rsi, [rip + 0xd932d]
p222
sg5
L71852L
sg6
Nsg23
S'lea'
p223
sg25
S'0x118acL'
p224
sg27
Nsba(ibclass
BInstr
p225
(dp226
g2
Nsg17
S'xor     edx, edx        ; quote'
p227
sg19
S'31d2'
p228
sg21
Vxor edx, edx
p229
sg5
L71859L
sg6
Nsg23
S'xor'
p230
sg25
S'0x118b3L'
p231
sg27
Nsba(ibclass
BInstr
p232
(dp233
g2
Nsg17
S'mov     rdi, p          ; p'
p234
sg19
S'4c89e7'
p235
sg21
Vmov rdi, r12
p236
sg5
L71861L
sg6
Nsg23
S'mov'
p237
sg25
S'0x118b5L'
p238
sg27
Nsba(ibclass
BInstr
p239
(dp240
g2
Nsg17
S'call    appendText'
p241
sg19
S'e803feffff'
p242
sg21
Vcall 0xfffffffffffffe08
p243
sg5
L71864L
sg6
Nsg23
S'call'
p244
sg25
S'0x118b8L'
p245
sg27
Nsbasg98
(lp246
S'lea reg, aEqpD+0Ah'
p247
aS'xor reg, reg'
p248
aS'mov reg, p'
p249
aS'cregl appendText'
p250
asg111
Nsg5
S'0x118acL'
p251
sg113
(lp252
S'0x118a8L'
p253
asg6
Nsg115
(lp254
S'0x118bdL'
p255
asg119
Nsg120
Nsg121
S'ffd8f3515dd6249217085b26717de83e'
p256
sg123
S'b383e5bfc2134bfc2efe823a8010013f'
p257
sg125
(lp258
g223
ag230
ag237
ag244
asg127
Nsba(ibclass
BBasicBlock
p259
(dp260
g12
Nsg13
(lp261
(ibclass
BInstr
p262
(dp263
g2
Nsg17
S'add     rbp, 8'
p264
sg19
S'4883c508'
p265
sg21
Vadd rbp, 8
p266
sg5
L71869L
sg6
Nsg23
S'add'
p267
sg25
S'0x118bdL'
p268
sg27
Nsbasg98
(lp269
S'add reg, 8'
p270
asg111
Nsg5
S'0x118bdL'
p271
sg113
(lp272
S'0x118a8L'
p273
aS'0x118acL'
p274
asg6
Nsg115
(lp275
S'0x118c1L'
p276
asg119
Nsg120
Nsg121
S'34ec78fcc91ffb1e54cd85e4a0924332'
p277
sg123
S'31570efc3b6350b441e59dfc5ab65acd'
p278
sg125
(lp279
g267
asg127
Nsba(ibclass
BBasicBlock
p280
(dp281
g12
Nsg13
(lp282
(ibclass
BInstr
p283
(dp284
g2
Nsg17
S'mov     rsi, [rbp+0]    ; zAppend'
p285
sg19
S'488b7500'
p286
sg21
Vmov rsi, qword ptr [rbp]
p287
sg5
L71873L
sg6
Nsg23
S'mov'
p288
sg25
S'0x118c1L'
p289
sg27
Nsba(ibclass
BInstr
p290
(dp291
g2
Nsg17
S'test    rsi, rsi'
p292
sg19
S'4885f6'
p293
sg21
Vtest rsi, rsi
p294
sg5
L71877L
sg6
Nsg23
S'test'
p295
sg25
S'0x118c5L'
p296
sg27
Nsba(ibclass
BInstr
p297
(dp298
g2
Nsg17
S'jz      short loc_118D4'
p299
sg19
S'740a'
p300
sg21
Vje 0xc
p301
sg5
L71880L
sg6
Nsg23
S'jz'
p302
sg25
S'0x118c8L'
p303
sg27
Nsbasg98
(lp304
S'mov reg, mem'
p305
aS'test reg, reg'
p306
aS'jz func'
p307
asg111
Nsg5
S'0x118c1L'
p308
sg113
(lp309
S'0x1189aL'
p310
aS'0x118bdL'
p311
asg6
Nsg115
(lp312
S'0x118caL'
p313
aS'0x118d4L'
p314
asg119
Nsg120
Nsg121
S'809d25367cfb363bba6d347ea4ff6183'
p315
sg123
S'd782372d3ec587a87d37c330cb249184'
p316
sg125
(lp317
g288
ag295
ag302
asg127
Nsba(ibclass
BBasicBlock
p318
(dp319
g12
Nsg13
(lp320
(ibclass
BInstr
p321
(dp322
g2
Nsg17
S'xor     edx, edx        ; quote'
p323
sg19
S'31d2'
p324
sg21
Vxor edx, edx
p325
sg5
L71882L
sg6
Nsg23
S'xor'
p326
sg25
S'0x118caL'
p327
sg27
Nsba(ibclass
BInstr
p328
(dp329
g2
Nsg17
S'mov     rdi, p          ; p'
p330
sg19
S'4c89e7'
p331
sg21
Vmov rdi, r12
p332
sg5
L71884L
sg6
Nsg23
S'mov'
p333
sg25
S'0x118ccL'
p334
sg27
Nsba(ibclass
BInstr
p335
(dp336
g2
Nsg17
S'call    appendText'
p337
sg19
S'e8ecfdffff'
p338
sg21
Vcall 0xfffffffffffffdf1
p339
sg5
L71887L
sg6
Nsg23
S'call'
p340
sg25
S'0x118cfL'
p341
sg27
Nsbasg98
(lp342
S'xor reg, reg'
p343
aS'mov reg, p'
p344
aS'cregl appendText'
p345
asg111
Nsg5
S'0x118caL'
p346
sg113
(lp347
S'0x118c1L'
p348
asg6
Nsg115
(lp349
S'0x118d4L'
p350
asg119
Nsg120
Nsg121
S'5955e86e600e5279498f6d104fb09d4a'
p351
sg123
S'43c15fc4eaa8e637dfeeb1caac2302c2'
p352
sg125
(lp353
g326
ag333
ag340
asg127
Nsba(ibclass
BBasicBlock
p354
(dp355
g12
Nsg13
(lp356
(ibclass
BInstr
p357
(dp358
g2
Nsg17
S'add     ebx, 1'
p359
sg19
S'83c301'
p360
sg21
Vadd ebx, 1
p361
sg5
L71892L
sg6
Nsg23
S'add'
p362
sg25
S'0x118d4L'
p363
sg27
Nsba(ibclass
BInstr
p364
(dp365
g2
Nsg17
S'cmp     r13d, ebx'
p366
sg19
S'4139dd'
p367
sg21
Vcmp r13d, ebx
p368
sg5
L71895L
sg6
Nsg23
S'cmp'
p369
sg25
S'0x118d7L'
p370
sg27
Nsba(ibclass
BInstr
p371
(dp372
g2
Nsg17
S'jnz     short loc_118A8'
p373
sg19
S'75cc'
p374
sg21
Vjne 0xffffffffffffffce
p375
sg5
L71898L
sg6
Nsg23
S'jnz'
p376
sg25
S'0x118daL'
p377
sg27
Nsbasg98
(lp378
S'add reg, 1'
p379
aS'cmp regd, reg'
p380
aS'jnz func'
p381
asg111
Nsg5
S'0x118d4L'
p382
sg113
(lp383
S'0x118c1L'
p384
aS'0x118caL'
p385
asg6
Nsg115
(lp386
S'0x118a8L'
p387
aS'0x118dcL'
p388
asg119
Nsg120
Nsg121
S'c95cb49ba4393ddb96d6068653426a43'
p389
sg123
S'4af9110b0f27842d2fd46bdf398ec131'
p390
sg125
(lp391
g362
ag369
ag376
asg127
Nsba(ibclass
BBasicBlock
p392
(dp393
g12
Nsg13
(lp394
(ibclass
BInstr
p395
(dp396
g2
Nsg17
S'add     rsp, 8'
p397
sg19
S'4883c408'
p398
sg21
Vadd rsp, 8
p399
sg5
L71900L
sg6
Nsg23
S'add'
p400
sg25
S'0x118dcL'
p401
sg27
Nsba(ibclass
BInstr
p402
(dp403
g2
Nsg17
S'xor     eax, eax'
p404
sg19
S'31c0'
p405
sg21
Vxor eax, eax
p406
sg5
L71904L
sg6
Nsg23
S'xor'
p407
sg25
S'0x118e0L'
p408
sg27
Nsba(ibclass
BInstr
p409
(dp410
g2
Nsg17
S'pop     rbx'
p411
sg19
S'5b'
p412
sg21
Vpop rbx
p413
sg5
L71906L
sg6
Nsg23
S'pop'
p414
sg25
S'0x118e2L'
p415
sg27
Nsba(ibclass
BInstr
p416
(dp417
g2
Nsg17
S'pop     rbp'
p418
sg19
S'5d'
p419
sg21
Vpop rbp
p420
sg5
L71907L
sg6
Nsg23
S'pop'
p421
sg25
S'0x118e3L'
p422
sg27
Nsba(ibclass
BInstr
p423
(dp424
g2
Nsg17
S'pop     p'
p425
sg19
S'415c'
p426
sg21
Vpop r12
p427
sg5
L71908L
sg6
Nsg23
S'pop'
p428
sg25
S'0x118e4L'
p429
sg27
Nsba(ibclass
BInstr
p430
(dp431
g2
Nsg17
S'pop     nArg'
p432
sg19
S'415d'
p433
sg21
Vpop r13
p434
sg5
L71910L
sg6
Nsg23
S'pop'
p435
sg25
S'0x118e6L'
p436
sg27
Nsba(ibclass
BInstr
p437
(dp438
g2
Nsg17
S'retn'
p439
sg19
S'c3'
p440
sg21
Vret 
p441
sg5
L71912L
sg6
Nsg23
S'retn'
p442
sg25
S'0x118e8L'
p443
sg27
Nsbasg98
(lp444
S'add reg, 8'
p445
aS'xor reg, reg'
p446
aS'pop reg'
p447
aS'pop reg'
p448
aS'pop p'
p449
aS'pop nArg'
p450
ag439
asg111
Nsg5
S'0x118dcL'
p451
sg113
(lp452
S'0x118a1L'
p453
aS'0x118d4L'
p454
asg6
Nsg115
(lp455
sg119
Nsg120
Nsg121
S'6821c194f41e689b9c815b2aa547d75d'
p456
sg123
S'6d1dcfaff48317ff15e7133884db7d3b'
p457
sg125
(lp458
g400
ag407
ag414
ag421
ag428
ag435
ag442
asg127
Nsba(ibclass
BBasicBlock
p459
(dp460
g12
Nsg13
(lp461
(ibclass
BInstr
p462
(dp463
g2
Nsg17
S'lea     nArg, zAppend   ; "|"'
p464
sg19
S'488d35138f0d00'
p465
sg21
Vlea rsi, [rip + 0xd8f13]
p466
sg5
L71920L
sg6
Nsg23
S'lea'
p467
sg25
S'0x118f0L'
p468
sg27
Nsba(ibclass
BInstr
p469
(dp470
g2
Nsg17
S'xor     edx, edx        ; quote'
p471
sg19
S'31d2'
p472
sg21
Vxor edx, edx
p473
sg5
L71927L
sg6
Nsg23
S'xor'
p474
sg25
S'0x118f7L'
p475
sg27
Nsba(ibclass
BInstr
p476
(dp477
g2
Nsg17
S'call    appendText'
p478
sg19
S'e8c2fdffff'
p479
sg21
Vcall 0xfffffffffffffdc7
p480
sg5
L71929L
sg6
Nsg23
S'call'
p481
sg25
S'0x118f9L'
p482
sg27
Nsba(ibclass
BInstr
p483
(dp484
g2
Nsg17
S'jmp     short loc_1189A'
p485
sg19
S'eb9a'
p486
sg21
Vjmp 0xffffffffffffff9c
p487
sg5
L71934L
sg6
Nsg23
S'jmp'
p488
sg25
S'0x118feL'
p489
sg27
Nsbasg98
(lp490
S'lea nArg, zAppend'
p491
aS'xor reg, reg'
p492
aS'cregl appendText'
p493
aS'jmp func'
p494
asg111
Nsg5
S'0x118f0L'
p495
sg113
(lp496
S'0x11880L'
p497
asg6
Nsg115
(lp498
S'0x1189aL'
p499
asg119
Nsg120
Nsg121
S'fa8b16855e1ae764c44a34f1e67d7982'
p500
sg123
S'ee78dc4cfdf3c29f9adbd92ac556635e'
p501
sg125
(lp502
g467
ag474
ag481
ag488
asg127
Nsbasb.