(ibclass
BFunc
p0
(dp1
S'hash'
p2
NsS'name'
p3
S'dump_callback'
p4
sS'start_address'
p5
L131216L
sS'flag'
p6
NsS'program'
p7
NsS'bbs'
p8
(lp9
(ibclass
BBasicBlock
p10
(dp11
S'function'
p12
NsS'binstrs'
p13
(lp14
(ibclass
BInstr
p15
(dp16
g2
NsS'disasm'
p17
S'push    r15'
p18
sS'bytes'
p19
S'4157'
p20
sS'disasm_striped'
p21
Vpush r15
p22
sg5
L131216L
sg6
NsS'mnem'
p23
S'push'
p24
sS'address'
p25
S'0x20090L'
p26
sS'basicblock'
p27
Nsba(ibclass
BInstr
p28
(dp29
g2
Nsg17
S'push    r14'
p30
sg19
S'4156'
p31
sg21
Vpush r14
p32
sg5
L131218L
sg6
Nsg23
S'push'
p33
sg25
S'0x20092L'
p34
sg27
Nsba(ibclass
BInstr
p35
(dp36
g2
Nsg17
S'push    r13'
p37
sg19
S'4155'
p38
sg21
Vpush r13
p39
sg5
L131220L
sg6
Nsg23
S'push'
p40
sg25
S'0x20094L'
p41
sg27
Nsba(ibclass
BInstr
p42
(dp43
g2
Nsg17
S'push    r12'
p44
sg19
S'4154'
p45
sg21
Vpush r12
p46
sg5
L131222L
sg6
Nsg23
S'push'
p47
sg25
S'0x20096L'
p48
sg27
Nsba(ibclass
BInstr
p49
(dp50
g2
Nsg17
S'push    rbp'
p51
sg19
S'55'
p52
sg21
Vpush rbp
p53
sg5
L131224L
sg6
Nsg23
S'push'
p54
sg25
S'0x20098L'
p55
sg27
Nsba(ibclass
BInstr
p56
(dp57
g2
Nsg17
S'push    rbx'
p58
sg19
S'53'
p59
sg21
Vpush rbx
p60
sg5
L131225L
sg6
Nsg23
S'push'
p61
sg25
S'0x20099L'
p62
sg27
Nsba(ibclass
BInstr
p63
(dp64
g2
Nsg17
S'sub     rsp, 68h'
p65
sg19
S'4883ec68'
p66
sg21
Vsub rsp, 0x68
p67
sg5
L131226L
sg6
Nsg23
S'sub'
p68
sg25
S'0x2009aL'
p69
sg27
Nsba(ibclass
BInstr
p70
(dp71
g2
Nsg17
S'mov     rax, fs:28h'
p72
sg19
S'64488b042528000000'
p73
sg21
Vmov rax, qword ptr fs:[0x28]
p74
sg5
L131230L
sg6
Nsg23
S'mov'
p75
sg25
S'0x2009eL'
p76
sg27
Nsba(ibclass
BInstr
p77
(dp78
g2
Nsg17
S'mov     [rsp+98h+var_40], rax'
p79
sg19
S'4889442458'
p80
sg21
Vmov qword ptr [rsp + 0x58], rax
p81
sg5
L131239L
sg6
Nsg23
S'mov'
p82
sg25
S'0x200a7L'
p83
sg27
Nsba(ibclass
BInstr
p84
(dp85
g2
Nsg17
S'xor     eax, eax'
p86
sg19
S'31c0'
p87
sg21
Vxor eax, eax
p88
sg5
L131244L
sg6
Nsg23
S'xor'
p89
sg25
S'0x200acL'
p90
sg27
Nsba(ibclass
BInstr
p91
(dp92
g2
Nsg17
S'cmp     esi, 3'
p93
sg19
S'83fe03'
p94
sg21
Vcmp esi, 3
p95
sg5
L131246L
sg6
Nsg23
S'cmp'
p96
sg25
S'0x200aeL'
p97
sg27
Nsba(ibclass
BInstr
p98
(dp99
g2
Nsg17
S'jnz     short loc_20108'
p100
sg19
S'7555'
p101
sg21
Vjne 0x57
p102
sg5
L131249L
sg6
Nsg23
S'jnz'
p103
sg25
S'0x200b1L'
p104
sg27
NsbasS'disasm_list'
p105
(lp106
S'push reg'
p107
aS'push reg'
p108
aS'push reg'
p109
aS'push reg'
p110
aS'push reg'
p111
aS'push reg'
p112
aS'sub reg, 68h'
p113
aS'mov reg, fs:28h'
p114
aS'mov mem, reg'
p115
aS'xor reg, reg'
p116
aS'cmp reg, 3'
p117
aS'jnz func'
p118
asS'end_address'
p119
Nsg5
S'0x20090L'
p120
sS'preds'
p121
(lp122
sg6
NsS'succs'
p123
(lp124
S'0x200b3L'
p125
aS'0x20108L'
p126
asS'hash_v3'
p127
NsS'flag_v2'
p128
NsS'hash_v1'
p129
S'7ea01a7fd925b6c49e8fc185353771bc'
p130
sS'hash_v2'
p131
S'3ae9daebc393669c13126b3c1893e1c7'
p132
sS'mnen_list'
p133
(lp134
g24
ag33
ag40
ag47
ag54
ag61
ag68
ag75
ag82
ag89
ag96
ag103
asS'neighbour_disasm_list'
p135
Nsba(ibclass
BBasicBlock
p136
(dp137
g12
Nsg13
(lp138
(ibclass
BInstr
p139
(dp140
g2
Nsg17
S'test    azArg, azArg'
p141
sg19
S'4885d2'
p142
sg21
Vtest rdx, rdx
p143
sg5
L131251L
sg6
Nsg23
S'test'
p144
sg25
S'0x200b3L'
p145
sg27
Nsba(ibclass
BInstr
p146
(dp147
g2
Nsg17
S'jz      short loc_20108'
p148
sg19
S'7450'
p149
sg21
Vje 0x52
p150
sg5
L131254L
sg6
Nsg23
S'jz'
p151
sg25
S'0x200b6L'
p152
sg27
Nsbasg105
(lp153
S'test azArg, azArg'
p154
aS'jz func'
p155
asg119
Nsg5
S'0x200b3L'
p156
sg121
(lp157
S'0x20090L'
p158
asg6
Nsg123
(lp159
S'0x200b8L'
p160
aS'0x20108L'
p161
asg127
Nsg128
Nsg129
S'84491ffb986a9ed3c0d756870de1b100'
p162
sg131
S'd5c23dd4f0a0a413c18007361d4c1b52'
p163
sg133
(lp164
g144
ag151
asg135
Nsba(ibclass
BBasicBlock
p165
(dp166
g12
Nsg13
(lp167
(ibclass
BInstr
p168
(dp169
g2
Nsg17
S'mov     nArg, [azArg]'
p170
sg19
S'488b32'
p171
sg21
Vmov rsi, qword ptr [rdx]
p172
sg5
L131256L
sg6
Nsg23
S'mov'
p173
sg25
S'0x200b8L'
p174
sg27
Nsba(ibclass
BInstr
p175
(dp176
g2
Nsg17
S'mov     r15, p'
p177
sg19
S'4989ff'
p178
sg21
Vmov r15, rdi
p179
sg5
L131259L
sg6
Nsg23
S'mov'
p180
sg25
S'0x200bbL'
p181
sg27
Nsba(ibclass
BInstr
p182
(dp183
g2
Nsg17
S'lea     p, aSqlite_sequenc; "sqlite_sequence"'
p184
sg19
S'488d3dcd7f0d00'
p185
sg21
Vlea rdi, [rip + 0xd7fcd]
p186
sg5
L131262L
sg6
Nsg23
S'lea'
p187
sg25
S'0x200beL'
p188
sg27
Nsba(ibclass
BInstr
p189
(dp190
g2
Nsg17
S'mov     ecx, 10h'
p191
sg19
S'b910000000'
p192
sg21
Vmov ecx, 0x10
p193
sg5
L131269L
sg6
Nsg23
S'mov'
p194
sg25
S'0x200c5L'
p195
sg27
Nsba(ibclass
BInstr
p196
(dp197
g2
Nsg17
S'mov     rbx, [azArg+8]'
p198
sg19
S'488b5a08'
p199
sg21
Vmov rbx, qword ptr [rdx + 8]
p200
sg5
L131274L
sg6
Nsg23
S'mov'
p201
sg25
S'0x200caL'
p202
sg27
Nsba(ibclass
BInstr
p203
(dp204
g2
Nsg17
S'mov     [rsp+98h+zTable], rsi'
p205
sg19
S'4889742418'
p206
sg21
Vmov qword ptr [rsp + 0x18], rsi
p207
sg5
L131278L
sg6
Nsg23
S'mov'
p208
sg25
S'0x200ceL'
p209
sg27
Nsba(ibclass
BInstr
p210
(dp211
g2
Nsg17
S'repe cmpsb'
p212
sg19
S'f3a6'
p213
sg21
Vrepe cmpsb byte ptr [rsi], byte ptr [rdi]
p214
sg5
L131283L
sg6
Nsg23
S'cmps'
p215
sg25
S'0x200d3L'
p216
sg27
Nsba(ibclass
BInstr
p217
(dp218
g2
Nsg17
S'jnz     short loc_20130'
p219
sg19
S'7559'
p220
sg21
Vjne 0x5b
p221
sg5
L131285L
sg6
Nsg23
S'jnz'
p222
sg25
S'0x200d5L'
p223
sg27
Nsbasg105
(lp224
S'mov nArg, mem'
p225
aS'mov reg, p'
p226
aS'lea p, aSqlite_sequenc'
p227
aS'mov reg, 10h'
p228
aS'mov reg, mem'
p229
aS'mov mem, reg'
p230
aS'repe cmpsb'
p231
aS'jnz func'
p232
asg119
Nsg5
S'0x200b8L'
p233
sg121
(lp234
S'0x200b3L'
p235
asg6
Nsg123
(lp236
S'0x200d7L'
p237
aS'0x20130L'
p238
asg127
Nsg128
Nsg129
S'24243710e9e71c8400ad6fe6bdefc3f2'
p239
sg131
S'a641146e55d951c378578c28d9052613'
p240
sg133
(lp241
g173
ag180
ag187
ag194
ag201
ag208
ag215
ag222
asg135
Nsba(ibclass
BBasicBlock
p242
(dp243
g12
Nsg13
(lp244
(ibclass
BInstr
p245
(dp246
g2
Nsg17
S'mov     rcx, [p+18h]    ; s'
p247
sg19
S'498b4f18'
p248
sg21
Vmov rcx, qword ptr [r15 + 0x18]
p249
sg5
L131287L
sg6
Nsg23
S'mov'
p250
sg25
S'0x200d7L'
p251
sg27
Nsba(ibclass
BInstr
p252
(dp253
g2
Nsg17
S'lea     rdi, aDeleteFromSqli; "DELETE FROM sqlite_sequence;\\n"'
p254
sg19
S'488d3dc07f0d00'
p255
sg21
Vlea rdi, [rip + 0xd7fc0]
p256
sg5
L131291L
sg6
Nsg23
S'lea'
p257
sg25
S'0x200dbL'
p258
sg27
Nsba(ibclass
BInstr
p259
(dp260
g2
Nsg17
S'mov     edx, 1Dh        ; n'
p261
sg19
S'ba1d000000'
p262
sg21
Vmov edx, 0x1d
p263
sg5
L131298L
sg6
Nsg23
S'mov'
p264
sg25
S'0x200e2L'
p265
sg27
Nsba(ibclass
BInstr
p266
(dp267
g2
Nsg17
S'mov     esi, 1          ; size'
p268
sg19
S'be01000000'
p269
sg21
Vmov esi, 1
p270
sg5
L131303L
sg6
Nsg23
S'mov'
p271
sg25
S'0x200e7L'
p272
sg27
Nsba(ibclass
BInstr
p273
(dp274
g2
Nsg17
S'call    fwrite'
p275
sg19
S'e81fc3feff'
p276
sg21
Vcall 0xfffffffffffec324
p277
sg5
L131308L
sg6
Nsg23
S'call'
p278
sg25
S'0x200ecL'
p279
sg27
Nsbasg105
(lp280
S'mov reg, mem'
p281
aS'lea reg, aDeleteFromSqli'
p282
aS'mov reg, 1Dh'
p283
aS'mov reg, 1'
p284
aS'cregl fwrite'
p285
asg119
Nsg5
S'0x200d7L'
p286
sg121
(lp287
S'0x200b8L'
p288
asg6
Nsg123
(lp289
S'0x200f1L'
p290
asg127
Nsg128
Nsg129
S'a1afbe77701a755dd1a4e82d7696468b'
p291
sg131
S'952f236444111b13f1f00a848d17a2d0'
p292
sg133
(lp293
g250
ag257
ag264
ag271
ag278
asg135
Nsba(ibclass
BBasicBlock
p294
(dp295
g12
Nsg13
(lp296
(ibclass
BInstr
p297
(dp298
g2
Nsg17
S'lea     rdi, aTable_0   ; "table"'
p299
sg19
S'488d3d36ed0d00'
p300
sg21
Vlea rdi, [rip + 0xded36]
p301
sg5
L131313L
sg6
Nsg23
S'lea'
p302
sg25
S'0x200f1L'
p303
sg27
Nsba(ibclass
BInstr
p304
(dp305
g2
Nsg17
S'mov     ecx, 6'
p306
sg19
S'b906000000'
p307
sg21
Vmov ecx, 6
p308
sg5
L131320L
sg6
Nsg23
S'mov'
p309
sg25
S'0x200f8L'
p310
sg27
Nsba(ibclass
BInstr
p311
(dp312
g2
Nsg17
S'mov     rsi, zType'
p313
sg19
S'4889de'
p314
sg21
Vmov rsi, rbx
p315
sg5
L131325L
sg6
Nsg23
S'mov'
p316
sg25
S'0x200fdL'
p317
sg27
Nsba(ibclass
BInstr
p318
(dp319
g2
Nsg17
S'repe cmpsb'
p320
sg19
S'f3a6'
p321
sg21
Vrepe cmpsb byte ptr [rsi], byte ptr [rdi]
p322
sg5
L131328L
sg6
Nsg23
S'cmps'
p323
sg25
S'0x20100L'
p324
sg27
Nsba(ibclass
BInstr
p325
(dp326
g2
Nsg17
S'jz      loc_201F0'
p327
sg19
S'0f84e8000000'
p328
sg21
Vje 0xee
p329
sg5
L131330L
sg6
Nsg23
S'jz'
p330
sg25
S'0x20102L'
p331
sg27
Nsbasg105
(lp332
S'lea reg, aTarege_0'
p333
aS'mov reg, 6'
p334
aS'mov reg, zType'
p335
aS'repe cmpsb'
p336
aS'jz func'
p337
asg119
Nsg5
S'0x200f1L'
p338
sg121
(lp339
S'0x200d7L'
p340
aS'0x20600L'
p341
aS'0x20698L'
p342
asg6
Nsg123
(lp343
S'0x20108L'
p344
aS'0x201f0L'
p345
asg127
Nsg128
Nsg129
S'9a8fdc1394cd6ce2763fb343f217133b'
p346
sg131
S'12c28605d08f30562b1604e13f864707'
p347
sg133
(lp348
g302
ag309
ag316
ag323
ag330
asg135
Nsba(ibclass
BBasicBlock
p349
(dp350
g12
Nsg13
(lp351
(ibclass
BInstr
p352
(dp353
g2
Nsg17
S'xor     eax, eax'
p354
sg19
S'31c0'
p355
sg21
Vxor eax, eax
p356
sg5
L131336L
sg6
Nsg23
S'xor'
p357
sg25
S'0x20108L'
p358
sg27
Nsba(ibclass
BInstr
p359
(dp360
g2
Nsg17
S'mov     rcx, [rsp+98h+var_40]'
p361
sg19
S'488b4c2458'
p362
sg21
Vmov rcx, qword ptr [rsp + 0x58]
p363
sg5
L131338L
sg6
Nsg23
S'mov'
p364
sg25
S'0x2010aL'
p365
sg27
Nsba(ibclass
BInstr
p366
(dp367
g2
Nsg17
S'xor     rcx, fs:28h'
p368
sg19
S'6448330c2528000000'
p369
sg21
Vxor rcx, qword ptr fs:[0x28]
p370
sg5
L131343L
sg6
Nsg23
S'xor'
p371
sg25
S'0x2010fL'
p372
sg27
Nsba(ibclass
BInstr
p373
(dp374
g2
Nsg17
S'jnz     loc_2078B'
p375
sg19
S'0f856d060000'
p376
sg21
Vjne 0x673
p377
sg5
L131352L
sg6
Nsg23
S'jnz'
p378
sg25
S'0x20118L'
p379
sg27
Nsbasg105
(lp380
S'xor reg, reg'
p381
aS'mov reg, mem'
p382
aS'xor reg, fs:28h'
p383
aS'jnz func'
p384
asg119
Nsg5
S'0x20108L'
p385
sg121
(lp386
S'0x20090L'
p387
aS'0x200b3L'
p388
aS'0x200f1L'
p389
aS'0x2014dL'
p390
aS'0x201a3L'
p391
aS'0x205ccL'
p392
aS'0x205eeL'
p393
asg6
Nsg123
(lp394
S'0x2011eL'
p395
aS'0x2078bL'
p396
asg127
Nsg128
Nsg129
S'32a855fd438568473432428227f69e46'
p397
sg131
S'7f471a03a88efaf79ab0f586a4e52e55'
p398
sg133
(lp399
g357
ag364
ag371
ag378
asg135
Nsba(ibclass
BBasicBlock
p400
(dp401
g12
Nsg13
(lp402
(ibclass
BInstr
p403
(dp404
g2
Nsg17
S'add     rsp, 68h'
p405
sg19
S'4883c468'
p406
sg21
Vadd rsp, 0x68
p407
sg5
L131358L
sg6
Nsg23
S'add'
p408
sg25
S'0x2011eL'
p409
sg27
Nsba(ibclass
BInstr
p410
(dp411
g2
Nsg17
S'pop     rbx'
p412
sg19
S'5b'
p413
sg21
Vpop rbx
p414
sg5
L131362L
sg6
Nsg23
S'pop'
p415
sg25
S'0x20122L'
p416
sg27
Nsba(ibclass
BInstr
p417
(dp418
g2
Nsg17
S'pop     rbp'
p419
sg19
S'5d'
p420
sg21
Vpop rbp
p421
sg5
L131363L
sg6
Nsg23
S'pop'
p422
sg25
S'0x20123L'
p423
sg27
Nsba(ibclass
BInstr
p424
(dp425
g2
Nsg17
S'pop     r12'
p426
sg19
S'415c'
p427
sg21
Vpop r12
p428
sg5
L131364L
sg6
Nsg23
S'pop'
p429
sg25
S'0x20124L'
p430
sg27
Nsba(ibclass
BInstr
p431
(dp432
g2
Nsg17
S'pop     r13'
p433
sg19
S'415d'
p434
sg21
Vpop r13
p435
sg5
L131366L
sg6
Nsg23
S'pop'
p436
sg25
S'0x20126L'
p437
sg27
Nsba(ibclass
BInstr
p438
(dp439
g2
Nsg17
S'pop     r14'
p440
sg19
S'415e'
p441
sg21
Vpop r14
p442
sg5
L131368L
sg6
Nsg23
S'pop'
p443
sg25
S'0x20128L'
p444
sg27
Nsba(ibclass
BInstr
p445
(dp446
g2
Nsg17
S'pop     r15'
p447
sg19
S'415f'
p448
sg21
Vpop r15
p449
sg5
L131370L
sg6
Nsg23
S'pop'
p450
sg25
S'0x2012aL'
p451
sg27
Nsba(ibclass
BInstr
p452
(dp453
g2
Nsg17
S'retn'
p454
sg19
S'c3'
p455
sg21
Vret 
p456
sg5
L131372L
sg6
Nsg23
S'retn'
p457
sg25
S'0x2012cL'
p458
sg27
Nsbasg105
(lp459
S'add reg, 68h'
p460
aS'pop reg'
p461
aS'pop reg'
p462
aS'pop reg'
p463
aS'pop reg'
p464
aS'pop reg'
p465
aS'pop reg'
p466
ag454
asg119
Nsg5
S'0x2011eL'
p467
sg121
(lp468
S'0x20108L'
p469
asg6
Nsg123
(lp470
sg127
Nsg128
Nsg129
S'c3503e3ea73488a7b1f3ba14f60b9d0c'
p471
sg131
S'c450290b40c366980c9180d8b6a614dc'
p472
sg133
(lp473
g408
ag415
ag422
ag429
ag436
ag443
ag450
ag457
asg135
Nsba(ibclass
BBasicBlock
p474
(dp475
g12
Nsg13
(lp476
(ibclass
BInstr
p477
(dp478
g2
Nsg17
S'mov     rsi, [rsp+98h+zTable]; zString'
p479
sg19
S'488b742418'
p480
sg21
Vmov rsi, qword ptr [rsp + 0x18]
p481
sg5
L131376L
sg6
Nsg23
S'mov'
p482
sg25
S'0x20130L'
p483
sg27
Nsba(ibclass
BInstr
p484
(dp485
g2
Nsg17
S'lea     rdi, aSqlite_stat?; "sqlite_stat?"'
p486
sg19
S'488d3d847f0d00'
p487
sg21
Vlea rdi, [rip + 0xd7f84]
p488
sg5
L131381L
sg6
Nsg23
S'lea'
p489
sg25
S'0x20135L'
p490
sg27
Nsba(ibclass
BInstr
p491
(dp492
g2
Nsg17
S'mov     rbp, [azArg+10h]'
p493
sg19
S'488b6a10'
p494
sg21
Vmov rbp, qword ptr [rdx + 0x10]
p495
sg5
L131388L
sg6
Nsg23
S'mov'
p496
sg25
S'0x2013cL'
p497
sg27
Nsba(ibclass
BInstr
p498
(dp499
g2
Nsg17
S'call    sqlite3_strglob'
p500
sg19
S'e82b3d0100'
p501
sg21
Vcall 0x13d30
p502
sg5
L131392L
sg6
Nsg23
S'call'
p503
sg25
S'0x20140L'
p504
sg27
Nsba(ibclass
BInstr
p505
(dp506
g2
Nsg17
S'test    eax, eax'
p507
sg19
S'85c0'
p508
sg21
Vtest eax, eax
p509
sg5
L131397L
sg6
Nsg23
S'test'
p510
sg25
S'0x20145L'
p511
sg27
Nsba(ibclass
BInstr
p512
(dp513
g2
Nsg17
S'jz      loc_20600'
p514
sg19
S'0f84b3040000'
p515
sg21
Vje 0x4b9
p516
sg5
L131399L
sg6
Nsg23
S'jz'
p517
sg25
S'0x20147L'
p518
sg27
Nsbasg105
(lp519
S'mov reg, mem'
p520
aS'lea reg, aSqlite_stat?'
p521
aS'mov reg, mem'
p522
aS'cregl sqlite3_strglob'
p523
aS'test reg, reg'
p524
aS'jz func'
p525
asg119
Nsg5
S'0x20130L'
p526
sg121
(lp527
S'0x200b8L'
p528
asg6
Nsg123
(lp529
S'0x2014dL'
p530
aS'0x20600L'
p531
asg127
Nsg128
Nsg129
S'ad83afdc7d96ef5a98d08b38cf202ca1'
p532
sg131
S'7b2e66d7baefed06c4b4f1f1c9e33a0e'
p533
sg133
(lp534
g482
ag489
ag496
ag503
ag510
ag517
asg135
Nsba(ibclass
BBasicBlock
p535
(dp536
g12
Nsg13
(lp537
(ibclass
BInstr
p538
(dp539
g2
Nsg17
S'mov     rsi, [rsp+98h+zTable]'
p540
sg19
S'488b742418'
p541
sg21
Vmov rsi, qword ptr [rsp + 0x18]
p542
sg5
L131405L
sg6
Nsg23
S'mov'
p543
sg25
S'0x2014dL'
p544
sg27
Nsba(ibclass
BInstr
p545
(dp546
g2
Nsg17
S'lea     rdi, aSqlite_   ; "sqlite_"'
p547
sg19
S'488d3d8c7f0d00'
p548
sg21
Vlea rdi, [rip + 0xd7f8c]
p549
sg5
L131410L
sg6
Nsg23
S'lea'
p550
sg25
S'0x20152L'
p551
sg27
Nsba(ibclass
BInstr
p552
(dp553
g2
Nsg17
S'mov     ecx, 7'
p554
sg19
S'b907000000'
p555
sg21
Vmov ecx, 7
p556
sg5
L131417L
sg6
Nsg23
S'mov'
p557
sg25
S'0x20159L'
p558
sg27
Nsba(ibclass
BInstr
p559
(dp560
g2
Nsg17
S'repe cmpsb'
p561
sg19
S'f3a6'
p562
sg21
Vrepe cmpsb byte ptr [rsi], byte ptr [rdi]
p563
sg5
L131422L
sg6
Nsg23
S'cmps'
p564
sg25
S'0x2015eL'
p565
sg27
Nsba(ibclass
BInstr
p566
(dp567
g2
Nsg17
S'jz      short loc_20108'
p568
sg19
S'74a6'
p569
sg21
Vje 0xffffffffffffffa8
p570
sg5
L131424L
sg6
Nsg23
S'jz'
p571
sg25
S'0x20160L'
p572
sg27
Nsbasg105
(lp573
S'mov reg, mem'
p574
aS'lea reg, aSqlite_'
p575
aS'mov reg, 7'
p576
aS'repe cmpsb'
p577
aS'jz func'
p578
asg119
Nsg5
S'0x2014dL'
p579
sg121
(lp580
S'0x20130L'
p581
asg6
Nsg123
(lp582
S'0x20108L'
p583
aS'0x20162L'
p584
asg127
Nsg128
Nsg129
S'593877911c5c870523dc64d3e34d8b32'
p585
sg131
S'e18c150e70ed7416a392ccdb11b04798'
p586
sg133
(lp587
g543
ag550
ag557
ag564
ag571
asg135
Nsba(ibclass
BBasicBlock
p588
(dp589
g12
Nsg13
(lp590
(ibclass
BInstr
p591
(dp592
g2
Nsg17
S'lea     rdi, unk_F80ED'
p593
sg19
S'488d3d847f0d00'
p594
sg21
Vlea rdi, [rip + 0xd7f84]
p595
sg5
L131426L
sg6
Nsg23
S'lea'
p596
sg25
S'0x20162L'
p597
sg27
Nsba(ibclass
BInstr
p598
(dp599
g2
Nsg17
S'mov     ecx, 14h'
p600
sg19
S'b914000000'
p601
sg21
Vmov ecx, 0x14
p602
sg5
L131433L
sg6
Nsg23
S'mov'
p603
sg25
S'0x20169L'
p604
sg27
Nsba(ibclass
BInstr
p605
(dp606
g2
Nsg17
S'mov     rsi, rbp'
p607
sg19
S'4889ee'
p608
sg21
Vmov rsi, rbp
p609
sg5
L131438L
sg6
Nsg23
S'mov'
p610
sg25
S'0x2016eL'
p611
sg27
Nsba(ibclass
BInstr
p612
(dp613
g2
Nsg17
S'repe cmpsb'
p614
sg19
S'f3a6'
p615
sg21
Vrepe cmpsb byte ptr [rsi], byte ptr [rdi]
p616
sg5
L131441L
sg6
Nsg23
S'cmps'
p617
sg25
S'0x20171L'
p618
sg27
Nsba(ibclass
BInstr
p619
(dp620
g2
Nsg17
S'jnz     loc_20698'
p621
sg19
S'0f851f050000'
p622
sg21
Vjne 0x525
p623
sg5
L131443L
sg6
Nsg23
S'jnz'
p624
sg25
S'0x20173L'
p625
sg27
Nsbasg105
(lp626
S'lea reg, func'
p627
aS'mov reg, 14h'
p628
aS'mov reg, reg'
p629
aS'repe cmpsb'
p630
aS'jnz func'
p631
asg119
Nsg5
S'0x20162L'
p632
sg121
(lp633
S'0x2014dL'
p634
asg6
Nsg123
(lp635
S'0x20179L'
p636
aS'0x20698L'
p637
asg127
Nsg128
Nsg129
S'be9d2e47a46f54e5f41abe8dbdabe284'
p638
sg131
S'd439e8cecc4008fff87a2708ca230dd9'
p639
sg133
(lp640
g596
ag603
ag610
ag617
ag624
asg135
Nsba(ibclass
BBasicBlock
p641
(dp642
g12
Nsg13
(lp643
(ibclass
BInstr
p644
(dp645
g2
Nsg17
S'mov     edx, [p+3Ch]'
p646
sg19
S'418b573c'
p647
sg21
Vmov edx, dword ptr [r15 + 0x3c]
p648
sg5
L131449L
sg6
Nsg23
S'mov'
p649
sg25
S'0x20179L'
p650
sg27
Nsba(ibclass
BInstr
p651
(dp652
g2
Nsg17
S'test    edx, edx'
p653
sg19
S'85d2'
p654
sg21
Vtest edx, edx
p655
sg5
L131453L
sg6
Nsg23
S'test'
p656
sg25
S'0x2017dL'
p657
sg27
Nsba(ibclass
BInstr
p658
(dp659
g2
Nsg17
S'jnz     short loc_201A3'
p660
sg19
S'7522'
p661
sg21
Vjne 0x24
p662
sg5
L131455L
sg6
Nsg23
S'jnz'
p663
sg25
S'0x2017fL'
p664
sg27
Nsbasg105
(lp665
S'mov reg, mem'
p666
aS'test reg, reg'
p667
aS'jnz func'
p668
asg119
Nsg5
S'0x20179L'
p669
sg121
(lp670
S'0x20162L'
p671
asg6
Nsg123
(lp672
S'0x20181L'
p673
aS'0x201a3L'
p674
asg127
Nsg128
Nsg129
S'a6d8ad6ec923c77b5487e3deac08e465'
p675
sg131
S'58cb979f9e7578d3326afbd56e773219'
p676
sg133
(lp677
g649
ag656
ag663
asg135
Nsba(ibclass
BBasicBlock
p678
(dp679
g12
Nsg13
(lp680
(ibclass
BInstr
p681
(dp682
g2
Nsg17
S'mov     rcx, [p+18h]    ; s'
p683
sg19
S'498b4f18'
p684
sg21
Vmov rcx, qword ptr [r15 + 0x18]
p685
sg5
L131457L
sg6
Nsg23
S'mov'
p686
sg25
S'0x20181L'
p687
sg27
Nsba(ibclass
BInstr
p688
(dp689
g2
Nsg17
S'lea     rdi, aPragmaWritable; "PRAGMA writable_schema=ON;\\n"'
p690
sg19
S'488d3d767f0d00'
p691
sg21
Vlea rdi, [rip + 0xd7f76]
p692
sg5
L131461L
sg6
Nsg23
S'lea'
p693
sg25
S'0x20185L'
p694
sg27
Nsba(ibclass
BInstr
p695
(dp696
g2
Nsg17
S'mov     edx, 1Bh        ; n'
p697
sg19
S'ba1b000000'
p698
sg21
Vmov edx, 0x1b
p699
sg5
L131468L
sg6
Nsg23
S'mov'
p700
sg25
S'0x2018cL'
p701
sg27
Nsba(ibclass
BInstr
p702
(dp703
g2
Nsg17
S'mov     esi, 1          ; size'
p704
sg19
S'be01000000'
p705
sg21
Vmov esi, 1
p706
sg5
L131473L
sg6
Nsg23
S'mov'
p707
sg25
S'0x20191L'
p708
sg27
Nsba(ibclass
BInstr
p709
(dp710
g2
Nsg17
S'call    fwrite'
p711
sg19
S'e875c2feff'
p712
sg21
Vcall 0xfffffffffffec27a
p713
sg5
L131478L
sg6
Nsg23
S'call'
p714
sg25
S'0x20196L'
p715
sg27
Nsba(ibclass
BInstr
p716
(dp717
g2
Nsg17
S'mov     dword ptr [p+3Ch], 1'
p718
sg19
S'41c7473c01000000'
p719
sg21
Vmov dword ptr [r15 + 0x3c], 1
p720
sg5
L131483L
sg6
Nsg23
S'mov'
p721
sg25
S'0x2019bL'
p722
sg27
Nsbasg105
(lp723
S'mov reg, mem'
p724
aS'lea reg, aPragmaWritarege'
p725
aS'mov reg, 1Bh'
p726
aS'mov reg, 1'
p727
aS'cregl fwrite'
p728
aS'mov mem, 1'
p729
asg119
Nsg5
S'0x20181L'
p730
sg121
(lp731
S'0x20179L'
p732
asg6
Nsg123
(lp733
S'0x201a3L'
p734
asg127
Nsg128
Nsg129
S'd04e1a4b14e46620acbd0177c1733080'
p735
sg131
S'172b1091592a75d2be2cf7de107d28ff'
p736
sg133
(lp737
g686
ag693
ag700
ag707
ag714
ag721
asg135
Nsba(ibclass
BBasicBlock
p738
(dp739
g12
Nsg13
(lp740
(ibclass
BInstr
p741
(dp742
g2
Nsg17
S'mov     rsi, [rsp+98h+zTable]'
p743
sg19
S'488b742418'
p744
sg21
Vmov rsi, qword ptr [rsp + 0x18]
p745
sg5
L131491L
sg6
Nsg23
S'mov'
p746
sg25
S'0x201a3L'
p747
sg27
Nsba(ibclass
BInstr
p748
(dp749
g2
Nsg17
S'lea     rdi, aInsertIntoSq_0; "INSERT INTO sqlite_master(type,name,tbl"...'
p750
sg19
S'488d3dc1aa0d00'
p751
sg21
Vlea rdi, [rip + 0xdaac1]
p752
sg5
L131496L
sg6
Nsg23
S'lea'
p753
sg25
S'0x201a8L'
p754
sg27
Nsba(ibclass
BInstr
p755
(dp756
g2
Nsg17
S'mov     rcx, rbp'
p757
sg19
S'4889e9'
p758
sg21
Vmov rcx, rbp
p759
sg5
L131503L
sg6
Nsg23
S'mov'
p760
sg25
S'0x201afL'
p761
sg27
Nsba(ibclass
BInstr
p762
(dp763
g2
Nsg17
S'xor     eax, eax'
p764
sg19
S'31c0'
p765
sg21
Vxor eax, eax
p766
sg5
L131506L
sg6
Nsg23
S'xor'
p767
sg25
S'0x201b2L'
p768
sg27
Nsba(ibclass
BInstr
p769
(dp770
g2
Nsg17
S'mov     rdx, rsi'
p771
sg19
S'4889f2'
p772
sg21
Vmov rdx, rsi
p773
sg5
L131508L
sg6
Nsg23
S'mov'
p774
sg25
S'0x201b4L'
p775
sg27
Nsba(ibclass
BInstr
p776
(dp777
g2
Nsg17
S'call    sqlite3_mprintf'
p778
sg19
S'e8a4a30500'
p779
sg21
Vcall 0x5a3a9
p780
sg5
L131511L
sg6
Nsg23
S'call'
p781
sg25
S'0x201b7L'
p782
sg27
Nsba(ibclass
BInstr
p783
(dp784
g2
Nsg17
S'mov     rdi, [p+18h]'
p785
sg19
S'498b7f18'
p786
sg21
Vmov rdi, qword ptr [r15 + 0x18]
p787
sg5
L131516L
sg6
Nsg23
S'mov'
p788
sg25
S'0x201bcL'
p789
sg27
Nsba(ibclass
BInstr
p790
(dp791
g2
Nsg17
S'lea     rdx, off_F8339'
p792
sg19
S'488d1572810d00'
p793
sg21
Vlea rdx, [rip + 0xd8172]
p794
sg5
L131520L
sg6
Nsg23
S'lea'
p795
sg25
S'0x201c0L'
p796
sg27
Nsba(ibclass
BInstr
p797
(dp798
g2
Nsg17
S'mov     zType, rax'
p799
sg19
S'4889c3'
p800
sg21
Vmov rbx, rax
p801
sg5
L131527L
sg6
Nsg23
S'mov'
p802
sg25
S'0x201c7L'
p803
sg27
Nsba(ibclass
BInstr
p804
(dp805
g2
Nsg17
S'mov     rcx, zIns'
p806
sg19
S'4889c1'
p807
sg21
Vmov rcx, rax
p808
sg5
L131530L
sg6
Nsg23
S'mov'
p809
sg25
S'0x201caL'
p810
sg27
Nsba(ibclass
BInstr
p811
(dp812
g2
Nsg17
S'mov     esi, 1'
p813
sg19
S'be01000000'
p814
sg21
Vmov esi, 1
p815
sg5
L131533L
sg6
Nsg23
S'mov'
p816
sg25
S'0x201cdL'
p817
sg27
Nsba(ibclass
BInstr
p818
(dp819
g2
Nsg17
S'xor     eax, eax'
p820
sg19
S'31c0'
p821
sg21
Vxor eax, eax
p822
sg5
L131538L
sg6
Nsg23
S'xor'
p823
sg25
S'0x201d2L'
p824
sg27
Nsba(ibclass
BInstr
p825
(dp826
g2
Nsg17
S'call    __fprintf_chk'
p827
sg19
S'e83fc2feff'
p828
sg21
Vcall 0xfffffffffffec244
p829
sg5
L131540L
sg6
Nsg23
S'call'
p830
sg25
S'0x201d4L'
p831
sg27
Nsba(ibclass
BInstr
p832
(dp833
g2
Nsg17
S'mov     rdi, zIns       ; p'
p834
sg19
S'4889df'
p835
sg21
Vmov rdi, rbx
p836
sg5
L131545L
sg6
Nsg23
S'mov'
p837
sg25
S'0x201d9L'
p838
sg27
Nsba(ibclass
BInstr
p839
(dp840
g2
Nsg17
S'call    sqlite3_free'
p841
sg19
S'e8df4b0100'
p842
sg21
Vcall 0x14be4
p843
sg5
L131548L
sg6
Nsg23
S'call'
p844
sg25
S'0x201dcL'
p845
sg27
Nsba(ibclass
BInstr
p846
(dp847
g2
Nsg17
S'jmp     loc_20108'
p848
sg19
S'e922ffffff'
p849
sg21
Vjmp 0xffffffffffffff27
p850
sg5
L131553L
sg6
Nsg23
S'jmp'
p851
sg25
S'0x201e1L'
p852
sg27
Nsbasg105
(lp853
S'mov reg, mem'
p854
aS'lea reg, aInsertIntoSq_0'
p855
aS'mov reg, reg'
p856
aS'xor reg, reg'
p857
aS'mov reg, reg'
p858
aS'cregl sqlite3_mprintf'
p859
aS'mov reg, mem'
p860
aS'lea reg, func'
p861
aS'mov zType, reg'
p862
aS'mov reg, zIns'
p863
aS'mov reg, 1'
p864
aS'xor reg, reg'
p865
aS'cregl __fprintf_chk'
p866
aS'mov reg, zIns'
p867
aS'cregl sqlite3_free'
p868
aS'jmp func'
p869
asg119
Nsg5
S'0x201a3L'
p870
sg121
(lp871
S'0x20179L'
p872
aS'0x20181L'
p873
asg6
Nsg123
(lp874
S'0x20108L'
p875
asg127
Nsg128
Nsg129
S'4c84f0c0283153f30cb3e72d239fac10'
p876
sg131
S'f7202d97d1c934185d439fa8b34251dc'
p877
sg133
(lp878
g746
ag753
ag760
ag767
ag774
ag781
ag788
ag795
ag802
ag809
ag816
ag823
ag830
ag837
ag844
ag851
asg135
Nsba(ibclass
BBasicBlock
p879
(dp880
g12
Nsg13
(lp881
(ibclass
BInstr
p882
(dp883
g2
Nsg17
S'mov     eax, [p+48h]'
p884
sg19
S'418b4748'
p885
sg21
Vmov eax, dword ptr [r15 + 0x48]
p886
sg5
L131568L
sg6
Nsg23
S'mov'
p887
sg25
S'0x201f0L'
p888
sg27
Nsba(ibclass
BInstr
p889
(dp890
g2
Nsg17
S'mov     rsi, [rsp+98h+zTable]'
p891
sg19
S'488b742418'
p892
sg21
Vmov rsi, qword ptr [rsp + 0x18]
p893
sg5
L131572L
sg6
Nsg23
S'mov'
p894
sg25
S'0x201f4L'
p895
sg27
Nsba(ibclass
BInstr
p896
(dp897
g2
Nsg17
S'lea     rdi, aPragmaTable_in; "PRAGMA table_info=%Q"'
p898
sg19
S'488d3d0a7e0d00'
p899
sg21
Vlea rdi, [rip + 0xd7e0a]
p900
sg5
L131577L
sg6
Nsg23
S'lea'
p901
sg25
S'0x201f9L'
p902
sg27
Nsba(ibclass
BInstr
p903
(dp904
g2
Nsg17
S'shr     eax, 3'
p905
sg19
S'c1e803'
p906
sg21
Vshr eax, 3
p907
sg5
L131584L
sg6
Nsg23
S'shr'
p908
sg25
S'0x20200L'
p909
sg27
Nsba(ibclass
BInstr
p910
(dp911
g2
Nsg17
S'and     eax, 1'
p912
sg19
S'83e001'
p913
sg21
Vand eax, 1
p914
sg5
L131587L
sg6
Nsg23
S'and'
p915
sg25
S'0x20203L'
p916
sg27
Nsba(ibclass
BInstr
p917
(dp918
g2
Nsg17
S'mov     byte ptr [rsp+98h+var_6C], al'
p919
sg19
S'8844242c'
p920
sg21
Vmov byte ptr [rsp + 0x2c], al
p921
sg5
L131590L
sg6
Nsg23
S'mov'
p922
sg25
S'0x20206L'
p923
sg27
Nsba(ibclass
BInstr
p924
(dp925
g2
Nsg17
S'xor     eax, eax'
p926
sg19
S'31c0'
p927
sg21
Vxor eax, eax
p928
sg5
L131594L
sg6
Nsg23
S'xor'
p929
sg25
S'0x2020aL'
p930
sg27
Nsba(ibclass
BInstr
p931
(dp932
g2
Nsg17
S'call    sqlite3_mprintf'
p933
sg19
S'e84fa30500'
p934
sg21
Vcall 0x5a354
p935
sg5
L131596L
sg6
Nsg23
S'call'
p936
sg25
S'0x2020cL'
p937
sg27
Nsba(ibclass
BInstr
p938
(dp939
g2
Nsg17
S'mov     rdi, [p]        ; db'
p940
sg19
S'498b3f'
p941
sg21
Vmov rdi, qword ptr [r15]
p942
sg5
L131601L
sg6
Nsg23
S'mov'
p943
sg25
S'0x20211L'
p944
sg27
Nsba(ibclass
BInstr
p945
(dp946
g2
Nsg17
S'mov     zType, rax'
p947
sg19
S'4889c3'
p948
sg21
Vmov rbx, rax
p949
sg5
L131604L
sg6
Nsg23
S'mov'
p950
sg25
S'0x20214L'
p951
sg27
Nsba(ibclass
BInstr
p952
(dp953
g2
Nsg17
S'lea     rax, [rsp+98h+sTable]'
p954
sg19
S'488d442440'
p955
sg21
Vlea rax, [rsp + 0x40]
p956
sg5
L131607L
sg6
Nsg23
S'lea'
p957
sg25
S'0x20217L'
p958
sg27
Nsba(ibclass
BInstr
p959
(dp960
g2
Nsg17
S'xor     r8d, r8d        ; pzTail'
p961
sg19
S'4531c0'
p962
sg21
Vxor r8d, r8d
p963
sg5
L131612L
sg6
Nsg23
S'xor'
p964
sg25
S'0x2021cL'
p965
sg27
Nsba(ibclass
BInstr
p966
(dp967
g2
Nsg17
S'mov     edx, 0FFFFFFFFh ; nBytes'
p968
sg19
S'baffffffff'
p969
sg21
Vmov edx, 0xffffffff
p970
sg5
L131615L
sg6
Nsg23
S'mov'
p971
sg25
S'0x2021fL'
p972
sg27
Nsba(ibclass
BInstr
p973
(dp974
g2
Nsg17
S'mov     rsi, rbx        ; zSql'
p975
sg19
S'4889de'
p976
sg21
Vmov rsi, rbx
p977
sg5
L131620L
sg6
Nsg23
S'mov'
p978
sg25
S'0x20224L'
p979
sg27
Nsba(ibclass
BInstr
p980
(dp981
g2
Nsg17
S'mov     rcx, rax        ; ppStmt'
p982
sg19
S'4889c1'
p983
sg21
Vmov rcx, rax
p984
sg5
L131623L
sg6
Nsg23
S'mov'
p985
sg25
S'0x20227L'
p986
sg27
Nsba(ibclass
BInstr
p987
(dp988
g2
Nsg17
S'mov     [rsp+98h+ppStmt], rax'
p989
sg19
S'4889442420'
p990
sg21
Vmov qword ptr [rsp + 0x20], rax
p991
sg5
L131626L
sg6
Nsg23
S'mov'
p992
sg25
S'0x2022aL'
p993
sg27
Nsba(ibclass
BInstr
p994
(dp995
g2
Nsg17
S'call    sqlite3_prepare_v2'
p996
sg19
S'e80c900a00'
p997
sg21
Vcall 0xa9011
p998
sg5
L131631L
sg6
Nsg23
S'call'
p999
sg25
S'0x2022fL'
p1000
sg27
Nsba(ibclass
BInstr
p1001
(dp1002
g2
Nsg17
S'mov     rdi, rbx        ; p'
p1003
sg19
S'4889df'
p1004
sg21
Vmov rdi, rbx
p1005
sg5
L131636L
sg6
Nsg23
S'mov'
p1006
sg25
S'0x20234L'
p1007
sg27
Nsba(ibclass
BInstr
p1008
(dp1009
g2
Nsg17
S'mov     ebp, eax'
p1010
sg19
S'89c5'
p1011
sg21
Vmov ebp, eax
p1012
sg5
L131639L
sg6
Nsg23
S'mov'
p1013
sg25
S'0x20237L'
p1014
sg27
Nsba(ibclass
BInstr
p1015
(dp1016
g2
Nsg17
S'call    sqlite3_free'
p1017
sg19
S'e8824b0100'
p1018
sg21
Vcall 0x14b87
p1019
sg5
L131641L
sg6
Nsg23
S'call'
p1020
sg25
S'0x20239L'
p1021
sg27
Nsba(ibclass
BInstr
p1022
(dp1023
g2
Nsg17
S'test    ebp, ebp'
p1024
sg19
S'85ed'
p1025
sg21
Vtest ebp, ebp
p1026
sg5
L131646L
sg6
Nsg23
S'test'
p1027
sg25
S'0x2023eL'
p1028
sg27
Nsba(ibclass
BInstr
p1029
(dp1030
g2
Nsg17
S'jnz     loc_205EE'
p1031
sg19
S'0f85a8030000'
p1032
sg21
Vjne 0x3ae
p1033
sg5
L131648L
sg6
Nsg23
S'jnz'
p1034
sg25
S'0x20240L'
p1035
sg27
Nsbasg105
(lp1036
S'mov reg, mem'
p1037
aS'mov reg, mem'
p1038
aS'lea reg, aPragmaTarege_in'
p1039
aS'shr reg, 3'
p1040
aS'and reg, 1'
p1041
aS'mov mem, reg'
p1042
aS'xor reg, reg'
p1043
aS'cregl sqlite3_mprintf'
p1044
aS'mov reg, mem'
p1045
aS'mov zType, reg'
p1046
aS'lea reg, mem'
p1047
aS'xor regd, regd'
p1048
aS'mov reg, 0FFFFFFFFh'
p1049
aS'mov reg, reg'
p1050
aS'mov reg, reg'
p1051
aS'mov mem, reg'
p1052
aS'cregl sqlite3_prepare_v2'
p1053
aS'mov reg, reg'
p1054
aS'mov reg, reg'
p1055
aS'cregl sqlite3_free'
p1056
aS'test reg, reg'
p1057
aS'jnz func'
p1058
asg119
Nsg5
S'0x201f0L'
p1059
sg121
(lp1060
S'0x200f1L'
p1061
asg6
Nsg123
(lp1062
S'0x20246L'
p1063
aS'0x205eeL'
p1064
asg127
Nsg128
Nsg129
S'70b838aa4293baded2fbc70d2217b75d'
p1065
sg131
S'c2811fadbe60c67b43ef035bb5e8fd50'
p1066
sg133
(lp1067
g887
ag894
ag901
ag908
ag915
ag922
ag929
ag936
ag943
ag950
ag957
ag964
ag971
ag978
ag985
ag992
ag999
ag1006
ag1013
ag1020
ag1027
ag1034
asg135
Nsba(ibclass
BBasicBlock
p1068
(dp1069
g12
Nsg13
(lp1070
(ibclass
BInstr
p1071
(dp1072
g2
Nsg17
S'mov     ebp, 8'
p1073
sg19
S'bd08000000'
p1074
sg21
Vmov ebp, 8
p1075
sg5
L131654L
sg6
Nsg23
S'mov'
p1076
sg25
S'0x20246L'
p1077
sg27
Nsba(ibclass
BInstr
p1078
(dp1079
g2
Nsg17
S'mov     dword ptr [rsp+98h+var_88], 0'
p1080
sg19
S'c744241000000000'
p1081
sg21
Vmov dword ptr [rsp + 0x10], 0
p1082
sg5
L131659L
sg6
Nsg23
S'mov'
p1083
sg25
S'0x2024bL'
p1084
sg27
Nsba(ibclass
BInstr
p1085
(dp1086
g2
Nsg17
S'mov     dword ptr [rsp+98h+var_90], 0'
p1087
sg19
S'c744240800000000'
p1088
sg21
Vmov dword ptr [rsp + 8], 0
p1089
sg5
L131667L
sg6
Nsg23
S'mov'
p1090
sg25
S'0x20253L'
p1091
sg27
Nsba(ibclass
BInstr
p1092
(dp1093
g2
Nsg17
S'xor     r13d, r13d'
p1094
sg19
S'4531ed'
p1095
sg21
Vxor r13d, r13d
p1096
sg5
L131675L
sg6
Nsg23
S'xor'
p1097
sg25
S'0x2025bL'
p1098
sg27
Nsba(ibclass
BInstr
p1099
(dp1100
g2
Nsg17
S'xor     ebx, ebx'
p1101
sg19
S'31db'
p1102
sg21
Vxor ebx, ebx
p1103
sg5
L131678L
sg6
Nsg23
S'xor'
p1104
sg25
S'0x2025eL'
p1105
sg27
Nsba(ibclass
BInstr
p1106
(dp1107
g2
Nsg17
S'xor     r12d, r12d'
p1108
sg19
S'4531e4'
p1109
sg21
Vxor r12d, r12d
p1110
sg5
L131680L
sg6
Nsg23
S'xor'
p1111
sg25
S'0x20260L'
p1112
sg27
Nsba(ibclass
BInstr
p1113
(dp1114
g2
Nsg17
S'jmp     short loc_2026C'
p1115
sg19
S'eb07'
p1116
sg21
Vjmp 9
p1117
sg5
L131683L
sg6
Nsg23
S'jmp'
p1118
sg25
S'0x20263L'
p1119
sg27
Nsbasg105
(lp1120
S'mov reg, 8'
p1121
aS'mov mem, 0'
p1122
aS'mov mem, 0'
p1123
aS'xor regd, regd'
p1124
aS'xor reg, reg'
p1125
aS'xor regd, regd'
p1126
aS'jmp func'
p1127
asg119
Nsg5
S'0x20246L'
p1128
sg121
(lp1129
S'0x201f0L'
p1130
asg6
Nsg123
(lp1131
S'0x2026cL'
p1132
asg127
Nsg128
Nsg129
S'cf649b39b3bb8dfe4e587f4662ae5baa'
p1133
sg131
S'cba1bf0fe19d8e6126017f2286a10ba5'
p1134
sg133
(lp1135
g1076
ag1083
ag1090
ag1097
ag1104
ag1111
ag1118
asg135
Nsba(ibclass
BBasicBlock
p1136
(dp1137
g12
Nsg13
(lp1138
(ibclass
BInstr
p1139
(dp1140
g2
Nsg17
S'add     rbp, 8'
p1141
sg19
S'4883c508'
p1142
sg21
Vadd rbp, 8
p1143
sg5
L131688L
sg6
Nsg23
S'add'
p1144
sg25
S'0x20268L'
p1145
sg27
Nsbasg105
(lp1146
S'add reg, 8'
p1147
asg119
Nsg5
S'0x20268L'
p1148
sg121
(lp1149
S'0x202a8L'
p1150
aS'0x202e5L'
p1151
aS'0x202ffL'
p1152
asg6
Nsg123
(lp1153
S'0x2026cL'
p1154
asg127
Nsg128
Nsg129
S'34ec78fcc91ffb1e54cd85e4a0924332'
p1155
sg131
S'31570efc3b6350b441e59dfc5ab65acd'
p1156
sg133
(lp1157
g1144
asg135
Nsba(ibclass
BBasicBlock
p1158
(dp1159
g12
Nsg13
(lp1160
(ibclass
BInstr
p1161
(dp1162
g2
Nsg17
S'mov     rdi, [rsp+98h+sTable.z]; pStmt'
p1163
sg19
S'488b7c2440'
p1164
sg21
Vmov rdi, qword ptr [rsp + 0x40]
p1165
sg5
L131692L
sg6
Nsg23
S'mov'
p1166
sg25
S'0x2026cL'
p1167
sg27
Nsba(ibclass
BInstr
p1168
(dp1169
g2
Nsg17
S'call    sqlite3_step'
p1170
sg19
S'e86a3e0900'
p1171
sg21
Vcall 0x93e6f
p1172
sg5
L131697L
sg6
Nsg23
S'call'
p1173
sg25
S'0x20271L'
p1174
sg27
Nsba(ibclass
BInstr
p1175
(dp1176
g2
Nsg17
S'cmp     eax, 64h'
p1177
sg19
S'83f864'
p1178
sg21
Vcmp eax, 0x64
p1179
sg5
L131702L
sg6
Nsg23
S'cmp'
p1180
sg25
S'0x20276L'
p1181
sg27
Nsba(ibclass
BInstr
p1182
(dp1183
g2
Nsg17
S'jnz     loc_20330'
p1184
sg19
S'0f85b1000000'
p1185
sg21
Vjne 0xb7
p1186
sg5
L131705L
sg6
Nsg23
S'jnz'
p1187
sg25
S'0x20279L'
p1188
sg27
Nsbasg105
(lp1189
S'mov reg, mem'
p1190
aS'cregl sqlite3_step'
p1191
aS'cmp reg, 64h'
p1192
aS'jnz func'
p1193
asg119
Nsg5
S'0x2026cL'
p1194
sg121
(lp1195
S'0x20246L'
p1196
aS'0x20268L'
p1197
asg6
Nsg123
(lp1198
S'0x2027fL'
p1199
aS'0x20330L'
p1200
asg127
Nsg128
Nsg129
S'52848fb257bff3459c6b3e63c99267ca'
p1201
sg131
S'1f4d12e441f302c335b2eced2418bf26'
p1202
sg133
(lp1203
g1166
ag1173
ag1180
ag1187
asg135
Nsba(ibclass
BBasicBlock
p1204
(dp1205
g12
Nsg13
(lp1206
(ibclass
BInstr
p1207
(dp1208
g2
Nsg17
S'lea     eax, [r13-2]'
p1209
sg19
S'418d45fe'
p1210
sg21
Vlea eax, [r13 - 2]
p1211
sg5
L131711L
sg6
Nsg23
S'lea'
p1212
sg25
S'0x2027fL'
p1213
sg27
Nsba(ibclass
BInstr
p1214
(dp1215
g2
Nsg17
S'cmp     eax, ebx'
p1216
sg19
S'39d8'
p1217
sg21
Vcmp eax, ebx
p1218
sg5
L131715L
sg6
Nsg23
S'cmp'
p1219
sg25
S'0x20283L'
p1220
sg27
Nsba(ibclass
BInstr
p1221
(dp1222
g2
Nsg17
S'jg      short loc_202A8'
p1223
sg19
S'7f21'
p1224
sg21
Vjg 0x23
p1225
sg5
L131717L
sg6
Nsg23
S'jg'
p1226
sg25
S'0x20285L'
p1227
sg27
Nsbasg105
(lp1228
S'lea reg, mem'
p1229
aS'cmp reg, reg'
p1230
aS'jg func'
p1231
asg119
Nsg5
S'0x2027fL'
p1232
sg121
(lp1233
S'0x2026cL'
p1234
asg6
Nsg123
(lp1235
S'0x20287L'
p1236
aS'0x202a8L'
p1237
asg127
Nsg128
Nsg129
S'd57b7a237bca28ab3ac03b80b4d78516'
p1238
sg131
S'7260fadc9b75502ec4796a2894e6c72b'
p1239
sg133
(lp1240
g1212
ag1219
ag1226
asg135
Nsba(ibclass
BBasicBlock
p1241
(dp1242
g12
Nsg13
(lp1243
(ibclass
BInstr
p1244
(dp1245
g2
Nsg17
S'lea     r13d, [rbx+r13*2+0Ah]'
p1246
sg19
S'468d6c6b0a'
p1247
sg21
Vlea r13d, [rbx + r13*2 + 0xa]
p1248
sg5
L131719L
sg6
Nsg23
S'lea'
p1249
sg25
S'0x20287L'
p1250
sg27
Nsba(ibclass
BInstr
p1251
(dp1252
g2
Nsg17
S'mov     rdi, r12        ; pOld'
p1253
sg19
S'4c89e7'
p1254
sg21
Vmov rdi, r12
p1255
sg5
L131724L
sg6
Nsg23
S'mov'
p1256
sg25
S'0x2028cL'
p1257
sg27
Nsba(ibclass
BInstr
p1258
(dp1259
g2
Nsg17
S'lea     esi, ds:0[r13*8]; n'
p1260
sg19
S'428d34ed00000000'
p1261
sg21
Vlea esi, [r13*8]
p1262
sg5
L131727L
sg6
Nsg23
S'lea'
p1263
sg25
S'0x2028fL'
p1264
sg27
Nsba(ibclass
BInstr
p1265
(dp1266
g2
Nsg17
S'call    sqlite3_realloc'
p1267
sg19
S'e884e60200'
p1268
sg21
Vcall 0x2e689
p1269
sg5
L131735L
sg6
Nsg23
S'call'
p1270
sg25
S'0x20297L'
p1271
sg27
Nsba(ibclass
BInstr
p1272
(dp1273
g2
Nsg17
S'test    rax, rax'
p1274
sg19
S'4885c0'
p1275
sg21
Vtest rax, rax
p1276
sg5
L131740L
sg6
Nsg23
S'test'
p1277
sg25
S'0x2029cL'
p1278
sg27
Nsba(ibclass
BInstr
p1279
(dp1280
g2
Nsg17
S'mov     r12, rax'
p1281
sg19
S'4989c4'
p1282
sg21
Vmov r12, rax
p1283
sg5
L131743L
sg6
Nsg23
S'mov'
p1284
sg25
S'0x2029fL'
p1285
sg27
Nsba(ibclass
BInstr
p1286
(dp1287
g2
Nsg17
S'jz      loc_20764'
p1288
sg19
S'0f84bc040000'
p1289
sg21
Vje 0x4c2
p1290
sg5
L131746L
sg6
Nsg23
S'jz'
p1291
sg25
S'0x202a2L'
p1292
sg27
Nsbasg105
(lp1293
S'lea regd, mem'
p1294
aS'mov reg, reg'
p1295
aS'lea reg, ds:0mem'
p1296
aS'cregl sqlite3_reregloc'
p1297
aS'test reg, reg'
p1298
aS'mov reg, reg'
p1299
aS'jz func'
p1300
asg119
Nsg5
S'0x20287L'
p1301
sg121
(lp1302
S'0x2027fL'
p1303
asg6
Nsg123
(lp1304
S'0x202a8L'
p1305
aS'0x20764L'
p1306
asg127
Nsg128
Nsg129
S'e1cc0c00928ee9deac952d54642c533f'
p1307
sg131
S'9b80087043cd431402d473495982b955'
p1308
sg133
(lp1309
g1249
ag1256
ag1263
ag1270
ag1277
ag1284
ag1291
asg135
Nsba(ibclass
BBasicBlock
p1310
(dp1311
g12
Nsg13
(lp1312
(ibclass
BInstr
p1313
(dp1314
g2
Nsg17
S'mov     rdi, [rsp+98h+sTable.z]; pStmt'
p1315
sg19
S'488b7c2440'
p1316
sg21
Vmov rdi, qword ptr [rsp + 0x40]
p1317
sg5
L131752L
sg6
Nsg23
S'mov'
p1318
sg25
S'0x202a8L'
p1319
sg27
Nsba(ibclass
BInstr
p1320
(dp1321
g2
Nsg17
S'mov     esi, 1          ; i'
p1322
sg19
S'be01000000'
p1323
sg21
Vmov esi, 1
p1324
sg5
L131757L
sg6
Nsg23
S'mov'
p1325
sg25
S'0x202adL'
p1326
sg27
Nsba(ibclass
BInstr
p1327
(dp1328
g2
Nsg17
S'lea     r14, [r12+rbp]'
p1329
sg19
S'4d8d342c'
p1330
sg21
Vlea r14, [r12 + rbp]
p1331
sg5
L131762L
sg6
Nsg23
S'lea'
p1332
sg25
S'0x202b2L'
p1333
sg27
Nsba(ibclass
BInstr
p1334
(dp1335
g2
Nsg17
S'add     ebx, 1'
p1336
sg19
S'83c301'
p1337
sg21
Vadd ebx, 1
p1338
sg5
L131766L
sg6
Nsg23
S'add'
p1339
sg25
S'0x202b6L'
p1340
sg27
Nsba(ibclass
BInstr
p1341
(dp1342
g2
Nsg17
S'call    sqlite3_column_text'
p1343
sg19
S'e812bf0300'
p1344
sg21
Vcall 0x3bf17
p1345
sg5
L131769L
sg6
Nsg23
S'call'
p1346
sg25
S'0x202b9L'
p1347
sg27
Nsba(ibclass
BInstr
p1348
(dp1349
g2
Nsg17
S'lea     rdi, aOptionsInclude+11h; zFormat'
p1350
sg19
S'488d3d9a8d0d00'
p1351
sg21
Vlea rdi, [rip + 0xd8d9a]
p1352
sg5
L131774L
sg6
Nsg23
S'lea'
p1353
sg25
S'0x202beL'
p1354
sg27
Nsba(ibclass
BInstr
p1355
(dp1356
g2
Nsg17
S'mov     rsi, rax'
p1357
sg19
S'4889c6'
p1358
sg21
Vmov rsi, rax
p1359
sg5
L131781L
sg6
Nsg23
S'mov'
p1360
sg25
S'0x202c5L'
p1361
sg27
Nsba(ibclass
BInstr
p1362
(dp1363
g2
Nsg17
S'xor     eax, eax'
p1364
sg19
S'31c0'
p1365
sg21
Vxor eax, eax
p1366
sg5
L131784L
sg6
Nsg23
S'xor'
p1367
sg25
S'0x202c8L'
p1368
sg27
Nsba(ibclass
BInstr
p1369
(dp1370
g2
Nsg17
S'call    sqlite3_mprintf'
p1371
sg19
S'e891a20500'
p1372
sg21
Vcall 0x5a296
p1373
sg5
L131786L
sg6
Nsg23
S'call'
p1374
sg25
S'0x202caL'
p1375
sg27
Nsba(ibclass
BInstr
p1376
(dp1377
g2
Nsg17
S'mov     [r14], rax'
p1378
sg19
S'498906'
p1379
sg21
Vmov qword ptr [r14], rax
p1380
sg5
L131791L
sg6
Nsg23
S'mov'
p1381
sg25
S'0x202cfL'
p1382
sg27
Nsba(ibclass
BInstr
p1383
(dp1384
g2
Nsg17
S'mov     rdi, [rsp+98h+sTable.z]; pStmt'
p1385
sg19
S'488b7c2440'
p1386
sg21
Vmov rdi, qword ptr [rsp + 0x40]
p1387
sg5
L131794L
sg6
Nsg23
S'mov'
p1388
sg25
S'0x202d2L'
p1389
sg27
Nsba(ibclass
BInstr
p1390
(dp1391
g2
Nsg17
S'mov     esi, 5          ; i'
p1392
sg19
S'be05000000'
p1393
sg21
Vmov esi, 5
p1394
sg5
L131799L
sg6
Nsg23
S'mov'
p1395
sg25
S'0x202d7L'
p1396
sg27
Nsba(ibclass
BInstr
p1397
(dp1398
g2
Nsg17
S'call    sqlite3_column_int'
p1399
sg19
S'e87f5e0200'
p1400
sg21
Vcall 0x25e84
p1401
sg5
L131804L
sg6
Nsg23
S'call'
p1402
sg25
S'0x202dcL'
p1403
sg27
Nsba(ibclass
BInstr
p1404
(dp1405
g2
Nsg17
S'test    eax, eax'
p1406
sg19
S'85c0'
p1407
sg21
Vtest eax, eax
p1408
sg5
L131809L
sg6
Nsg23
S'test'
p1409
sg25
S'0x202e1L'
p1410
sg27
Nsba(ibclass
BInstr
p1411
(dp1412
g2
Nsg17
S'jz      short loc_20268'
p1413
sg19
S'7483'
p1414
sg21
Vje 0xffffffffffffff85
p1415
sg5
L131811L
sg6
Nsg23
S'jz'
p1416
sg25
S'0x202e3L'
p1417
sg27
Nsbasg105
(lp1418
S'mov reg, mem'
p1419
aS'mov reg, 1'
p1420
aS'lea reg, mem'
p1421
aS'add reg, 1'
p1422
aS'cregl sqlite3_column_text'
p1423
aS'lea reg, aOptionsInregude+11h'
p1424
aS'mov reg, reg'
p1425
aS'xor reg, reg'
p1426
aS'cregl sqlite3_mprintf'
p1427
aS'mov mem, reg'
p1428
aS'mov reg, mem'
p1429
aS'mov reg, 5'
p1430
aS'cregl sqlite3_column_int'
p1431
aS'test reg, reg'
p1432
aS'jz func'
p1433
asg119
Nsg5
S'0x202a8L'
p1434
sg121
(lp1435
S'0x2027fL'
p1436
aS'0x20287L'
p1437
asg6
Nsg123
(lp1438
S'0x20268L'
p1439
aS'0x202e5L'
p1440
asg127
Nsg128
Nsg129
S'5c2378462062e656490269caaad6e4aa'
p1441
sg131
S'b84cc6aacfdf9741b4d19f1f8e14badf'
p1442
sg133
(lp1443
g1318
ag1325
ag1332
ag1339
ag1346
ag1353
ag1360
ag1367
ag1374
ag1381
ag1388
ag1395
ag1402
ag1409
ag1416
asg135
Nsba(ibclass
BBasicBlock
p1444
(dp1445
g12
Nsg13
(lp1446
(ibclass
BInstr
p1447
(dp1448
g2
Nsg17
S'add     dword ptr [rsp+98h+var_90], 1'
p1449
sg19
S'8344240801'
p1450
sg21
Vadd dword ptr [rsp + 8], 1
p1451
sg5
L131813L
sg6
Nsg23
S'add'
p1452
sg25
S'0x202e5L'
p1453
sg27
Nsba(ibclass
BInstr
p1454
(dp1455
g2
Nsg17
S'mov     dword ptr [rsp+98h+var_88], 0'
p1456
sg19
S'c744241000000000'
p1457
sg21
Vmov dword ptr [rsp + 0x10], 0
p1458
sg5
L131818L
sg6
Nsg23
S'mov'
p1459
sg25
S'0x202eaL'
p1460
sg27
Nsba(ibclass
BInstr
p1461
(dp1462
g2
Nsg17
S'mov     eax, dword ptr [rsp+98h+var_90]'
p1463
sg19
S'8b442408'
p1464
sg21
Vmov eax, dword ptr [rsp + 8]
p1465
sg5
L131826L
sg6
Nsg23
S'mov'
p1466
sg25
S'0x202f2L'
p1467
sg27
Nsba(ibclass
BInstr
p1468
(dp1469
g2
Nsg17
S'cmp     eax, 1'
p1470
sg19
S'83f801'
p1471
sg21
Vcmp eax, 1
p1472
sg5
L131830L
sg6
Nsg23
S'cmp'
p1473
sg25
S'0x202f6L'
p1474
sg27
Nsba(ibclass
BInstr
p1475
(dp1476
g2
Nsg17
S'jnz     loc_20268'
p1477
sg19
S'0f8569ffffff'
p1478
sg21
Vjne 0xffffffffffffff6f
p1479
sg5
L131833L
sg6
Nsg23
S'jnz'
p1480
sg25
S'0x202f9L'
p1481
sg27
Nsbasg105
(lp1482
S'add mem, 1'
p1483
aS'mov mem, 0'
p1484
aS'mov reg, mem'
p1485
aS'cmp reg, 1'
p1486
aS'jnz func'
p1487
asg119
Nsg5
S'0x202e5L'
p1488
sg121
(lp1489
S'0x202a8L'
p1490
asg6
Nsg123
(lp1491
S'0x20268L'
p1492
aS'0x202ffL'
p1493
asg127
Nsg128
Nsg129
S'302744fa0069e8f3fe987cb1f0432671'
p1494
sg131
S'b26add8886f29cfe2a454409f310f6e6'
p1495
sg133
(lp1496
g1452
ag1459
ag1466
ag1473
ag1480
asg135
Nsba(ibclass
BBasicBlock
p1497
(dp1498
g12
Nsg13
(lp1499
(ibclass
BInstr
p1500
(dp1501
g2
Nsg17
S'mov     rdi, [rsp+98h+sTable.z]; pStmt'
p1502
sg19
S'488b7c2440'
p1503
sg21
Vmov rdi, qword ptr [rsp + 0x40]
p1504
sg5
L131839L
sg6
Nsg23
S'mov'
p1505
sg25
S'0x202ffL'
p1506
sg27
Nsba(ibclass
BInstr
p1507
(dp1508
g2
Nsg17
S'mov     esi, 2          ; i'
p1509
sg19
S'be02000000'
p1510
sg21
Vmov esi, 2
p1511
sg5
L131844L
sg6
Nsg23
S'mov'
p1512
sg25
S'0x20304L'
p1513
sg27
Nsba(ibclass
BInstr
p1514
(dp1515
g2
Nsg17
S'call    sqlite3_column_text'
p1516
sg19
S'e8c2be0300'
p1517
sg21
Vcall 0x3bec7
p1518
sg5
L131849L
sg6
Nsg23
S'call'
p1519
sg25
S'0x20309L'
p1520
sg27
Nsba(ibclass
BInstr
p1521
(dp1522
g2
Nsg17
S'lea     rsi, aInteger   ; "INTEGER"'
p1523
sg19
S'488d351f7e0d00'
p1524
sg21
Vlea rsi, [rip + 0xd7e1f]
p1525
sg5
L131854L
sg6
Nsg23
S'lea'
p1526
sg25
S'0x2030eL'
p1527
sg27
Nsba(ibclass
BInstr
p1528
(dp1529
g2
Nsg17
S'mov     rdi, rax        ; zLeft'
p1530
sg19
S'4889c7'
p1531
sg21
Vmov rdi, rax
p1532
sg5
L131861L
sg6
Nsg23
S'mov'
p1533
sg25
S'0x20315L'
p1534
sg27
Nsba(ibclass
BInstr
p1535
(dp1536
g2
Nsg17
S'call    sqlite3_stricmp'
p1537
sg19
S'e803870000'
p1538
sg21
Vcall 0x8708
p1539
sg5
L131864L
sg6
Nsg23
S'call'
p1540
sg25
S'0x20318L'
p1541
sg27
Nsba(ibclass
BInstr
p1542
(dp1543
g2
Nsg17
S'test    eax, eax'
p1544
sg19
S'85c0'
p1545
sg21
Vtest eax, eax
p1546
sg5
L131869L
sg6
Nsg23
S'test'
p1547
sg25
S'0x2031dL'
p1548
sg27
Nsba(ibclass
BInstr
p1549
(dp1550
g2
Nsg17
S'setz    al'
p1551
sg19
S'0f94c0'
p1552
sg21
Vsete al
p1553
sg5
L131871L
sg6
Nsg23
S'setz'
p1554
sg25
S'0x2031fL'
p1555
sg27
Nsba(ibclass
BInstr
p1556
(dp1557
g2
Nsg17
S'movzx   eax, al'
p1558
sg19
S'0fb6c0'
p1559
sg21
Vmovzx eax, al
p1560
sg5
L131874L
sg6
Nsg23
S'movzx'
p1561
sg25
S'0x20322L'
p1562
sg27
Nsba(ibclass
BInstr
p1563
(dp1564
g2
Nsg17
S'mov     dword ptr [rsp+98h+var_88], eax'
p1565
sg19
S'89442410'
p1566
sg21
Vmov dword ptr [rsp + 0x10], eax
p1567
sg5
L131877L
sg6
Nsg23
S'mov'
p1568
sg25
S'0x20325L'
p1569
sg27
Nsba(ibclass
BInstr
p1570
(dp1571
g2
Nsg17
S'jmp     loc_20268'
p1572
sg19
S'e93affffff'
p1573
sg21
Vjmp 0xffffffffffffff3f
p1574
sg5
L131881L
sg6
Nsg23
S'jmp'
p1575
sg25
S'0x20329L'
p1576
sg27
Nsbasg105
(lp1577
S'mov reg, mem'
p1578
aS'mov reg, 2'
p1579
aS'cregl sqlite3_column_text'
p1580
aS'lea reg, aInteger'
p1581
aS'mov reg, reg'
p1582
aS'cregl sqlite3_stricmp'
p1583
aS'test reg, reg'
p1584
aS'setz reg'
p1585
aS'movzx reg, reg'
p1586
aS'mov mem, reg'
p1587
aS'jmp func'
p1588
asg119
Nsg5
S'0x202ffL'
p1589
sg121
(lp1590
S'0x202e5L'
p1591
asg6
Nsg123
(lp1592
S'0x20268L'
p1593
asg127
Nsg128
Nsg129
S'551913a892f1940b09db84b9dd9bc898'
p1594
sg131
S'121ebaf16eb72920cc08b1f37b57b4b9'
p1595
sg133
(lp1596
g1505
ag1512
ag1519
ag1526
ag1533
ag1540
ag1547
ag1554
ag1561
ag1568
ag1575
asg135
Nsba(ibclass
BBasicBlock
p1597
(dp1598
g12
Nsg13
(lp1599
(ibclass
BInstr
p1600
(dp1601
g2
Nsg17
S'mov     rdi, [rsp+98h+sTable.z]; pStmt'
p1602
sg19
S'488b7c2440'
p1603
sg21
Vmov rdi, qword ptr [rsp + 0x40]
p1604
sg5
L131888L
sg6
Nsg23
S'mov'
p1605
sg25
S'0x20330L'
p1606
sg27
Nsba(ibclass
BInstr
p1607
(dp1608
g2
Nsg17
S'call    sqlite3_finalize'
p1609
sg19
S'e8064d0800'
p1610
sg21
Vcall 0x84d0b
p1611
sg5
L131893L
sg6
Nsg23
S'call'
p1612
sg25
S'0x20335L'
p1613
sg27
Nsba(ibclass
BInstr
p1614
(dp1615
g2
Nsg17
S'test    r12, r12'
p1616
sg19
S'4d85e4'
p1617
sg21
Vtest r12, r12
p1618
sg5
L131898L
sg6
Nsg23
S'test'
p1619
sg25
S'0x2033aL'
p1620
sg27
Nsba(ibclass
BInstr
p1621
(dp1622
g2
Nsg17
S'jz      loc_205EE'
p1623
sg19
S'0f84ab020000'
p1624
sg21
Vje 0x2b1
p1625
sg5
L131901L
sg6
Nsg23
S'jz'
p1626
sg25
S'0x2033dL'
p1627
sg27
Nsbasg105
(lp1628
S'mov reg, mem'
p1629
aS'cregl sqlite3_finregize'
p1630
aS'test reg, reg'
p1631
aS'jz func'
p1632
asg119
Nsg5
S'0x20330L'
p1633
sg121
(lp1634
S'0x2026cL'
p1635
asg6
Nsg123
(lp1636
S'0x20343L'
p1637
aS'0x205eeL'
p1638
asg127
Nsg128
Nsg129
S'efa7c9619615046615ae01f40cf2737c'
p1639
sg131
S'ff49e9a0c309a46ce38dfe8f9f79a577'
p1640
sg133
(lp1641
g1605
ag1612
ag1619
ag1626
asg135
Nsba(ibclass
BBasicBlock
p1642
(dp1643
g12
Nsg13
(lp1644
(ibclass
BInstr
p1645
(dp1646
g2
Nsg17
S'movsxd  rax, ebx'
p1647
sg19
S'4863c3'
p1648
sg21
Vmovsxd rax, ebx
p1649
sg5
L131907L
sg6
Nsg23
S'movsxd'
p1650
sg25
S'0x20343L'
p1651
sg27
Nsba(ibclass
BInstr
p1652
(dp1653
g2
Nsg17
S'mov     qword ptr [r12], 0'
p1654
sg19
S'49c7042400000000'
p1655
sg21
Vmov qword ptr [r12], 0
p1656
sg5
L131910L
sg6
Nsg23
S'mov'
p1657
sg25
S'0x20346L'
p1658
sg27
Nsba(ibclass
BInstr
p1659
(dp1660
g2
Nsg17
S'mov     qword ptr [r12+rax*8+8], 0'
p1661
sg19
S'49c744c40800000000'
p1662
sg21
Vmov qword ptr [r12 + rax*8 + 8], 0
p1663
sg5
L131918L
sg6
Nsg23
S'mov'
p1664
sg25
S'0x2034eL'
p1665
sg27
Nsba(ibclass
BInstr
p1666
(dp1667
g2
Nsg17
S'mov     eax, dword ptr [rsp+98h+var_88]'
p1668
sg19
S'8b442410'
p1669
sg21
Vmov eax, dword ptr [rsp + 0x10]
p1670
sg5
L131927L
sg6
Nsg23
S'mov'
p1671
sg25
S'0x20357L'
p1672
sg27
Nsba(ibclass
BInstr
p1673
(dp1674
g2
Nsg17
S'test    eax, eax'
p1675
sg19
S'85c0'
p1676
sg21
Vtest eax, eax
p1677
sg5
L131931L
sg6
Nsg23
S'test'
p1678
sg25
S'0x2035bL'
p1679
sg27
Nsba(ibclass
BInstr
p1680
(dp1681
g2
Nsg17
S'jz      short loc_2036A'
p1682
sg19
S'740b'
p1683
sg21
Vje 0xd
p1684
sg5
L131933L
sg6
Nsg23
S'jz'
p1685
sg25
S'0x2035dL'
p1686
sg27
Nsbasg105
(lp1687
S'movsxd reg, reg'
p1688
aS'mov qmem, 0'
p1689
aS'mov qmem, 0'
p1690
aS'mov reg, mem'
p1691
aS'test reg, reg'
p1692
aS'jz func'
p1693
asg119
Nsg5
S'0x20343L'
p1694
sg121
(lp1695
S'0x20330L'
p1696
asg6
Nsg123
(lp1697
S'0x2035fL'
p1698
aS'0x2036aL'
p1699
asg127
Nsg128
Nsg129
S'7aff9266d06f373fa33d0b912a667c2a'
p1700
sg131
S'15603e947a07ecb970e4ebea7c9784c3'
p1701
sg133
(lp1702
g1650
ag1657
ag1664
ag1671
ag1678
ag1685
asg135
Nsba(ibclass
BBasicBlock
p1703
(dp1704
g12
Nsg13
(lp1705
(ibclass
BInstr
p1706
(dp1707
g2
Nsg17
S'cmp     byte ptr [rsp+98h+var_6C], 0'
p1708
sg19
S'807c242c00'
p1709
sg21
Vcmp byte ptr [rsp + 0x2c], 0
p1710
sg5
L131935L
sg6
Nsg23
S'cmp'
p1711
sg25
S'0x2035fL'
p1712
sg27
Nsba(ibclass
BInstr
p1713
(dp1714
g2
Nsg17
S'jnz     loc_20630'
p1715
sg19
S'0f85c6020000'
p1716
sg21
Vjne 0x2cc
p1717
sg5
L131940L
sg6
Nsg23
S'jnz'
p1718
sg25
S'0x20364L'
p1719
sg27
Nsbasg105
(lp1720
S'cmp mem, 0'
p1721
aS'jnz func'
p1722
asg119
Nsg5
S'0x2035fL'
p1723
sg121
(lp1724
S'0x20343L'
p1725
asg6
Nsg123
(lp1726
S'0x2036aL'
p1727
aS'0x20630L'
p1728
asg127
Nsg128
Nsg129
S'30cb3d6f6a174adfabcde507f6944a52'
p1729
sg131
S'98d72118630a4e08156799652c8790e6'
p1730
sg133
(lp1731
g1711
ag1718
asg135
Nsba(ibclass
BBasicBlock
p1732
(dp1733
g12
Nsg13
(lp1734
(ibclass
BInstr
p1735
(dp1736
g2
Nsg17
S'movzx   eax, byte ptr [rsp+98h+var_6C]'
p1737
sg19
S'0fb644242c'
p1738
sg21
Vmovzx eax, byte ptr [rsp + 0x2c]
p1739
sg5
L131946L
sg6
Nsg23
S'movzx'
p1740
sg25
S'0x2036aL'
p1741
sg27
Nsbasg105
(lp1742
S'movzx reg, mem'
p1743
asg119
Nsg5
S'0x2036aL'
p1744
sg121
(lp1745
S'0x20343L'
p1746
aS'0x2035fL'
p1747
asg6
Nsg123
(lp1748
S'0x2036fL'
p1749
asg127
Nsg128
Nsg129
S'a1514adb735a1622d784ed0b53f4afb6'
p1750
sg131
S'c0da5693c98d145961fef4445a14a5c1'
p1751
sg133
(lp1752
g1740
asg135
Nsba(ibclass
BBasicBlock
p1753
(dp1754
g12
Nsg13
(lp1755
(ibclass
BInstr
p1756
(dp1757
g2
Nsg17
S'test    eax, eax'
p1758
sg19
S'85c0'
p1759
sg21
Vtest eax, eax
p1760
sg5
L131951L
sg6
Nsg23
S'test'
p1761
sg25
S'0x2036fL'
p1762
sg27
Nsba(ibclass
BInstr
p1763
(dp1764
g2
Nsg17
S'jz      loc_20620'
p1765
sg19
S'0f84a9020000'
p1766
sg21
Vje 0x2af
p1767
sg5
L131953L
sg6
Nsg23
S'jz'
p1768
sg25
S'0x20371L'
p1769
sg27
Nsbasg105
(lp1770
S'test reg, reg'
p1771
aS'jz func'
p1772
asg119
Nsg5
S'0x2036fL'
p1773
sg121
(lp1774
S'0x2036aL'
p1775
aS'0x20672L'
p1776
asg6
Nsg123
(lp1777
S'0x20377L'
p1778
aS'0x20620L'
p1779
asg127
Nsg128
Nsg129
S'84491ffb986a9ed3c0d756870de1b100'
p1780
sg131
S'fbb15b446ae771d008c367d72e1a39f9'
p1781
sg133
(lp1782
g1761
ag1768
asg135
Nsba(ibclass
BBasicBlock
p1783
(dp1784
g12
Nsg13
(lp1785
(ibclass
BInstr
p1786
(dp1787
g2
Nsg17
S'lea     rax, [r12+8]'
p1788
sg19
S'498d442408'
p1789
sg21
Vlea rax, [r12 + 8]
p1790
sg5
L131959L
sg6
Nsg23
S'lea'
p1791
sg25
S'0x20377L'
p1792
sg27
Nsba(ibclass
BInstr
p1793
(dp1794
g2
Nsg17
S'mov     [rsp+98h+var_90], 0'
p1795
sg19
S'48c744240800000000'
p1796
sg21
Vmov qword ptr [rsp + 8], 0
p1797
sg5
L131964L
sg6
Nsg23
S'mov'
p1798
sg25
S'0x2037cL'
p1799
sg27
Nsba(ibclass
BInstr
p1800
(dp1801
g2
Nsg17
S'mov     [rsp+98h+var_88], rax'
p1802
sg19
S'4889442410'
p1803
sg21
Vmov qword ptr [rsp + 0x10], rax
p1804
sg5
L131973L
sg6
Nsg23
S'mov'
p1805
sg25
S'0x20385L'
p1806
sg27
Nsbasg105
(lp1807
S'lea reg, mem'
p1808
aS'mov mem, 0'
p1809
aS'mov mem, reg'
p1810
asg119
Nsg5
S'0x20377L'
p1811
sg121
(lp1812
S'0x2036fL'
p1813
asg6
Nsg123
(lp1814
S'0x2038aL'
p1815
asg127
Nsg128
Nsg129
S'c2dc975b163d092a0708e4a07b2f5787'
p1816
sg131
S'cf751d98ec57169d0561496214e5f506'
p1817
sg133
(lp1818
g1791
ag1798
ag1805
asg135
Nsba(ibclass
BBasicBlock
p1819
(dp1820
g12
Nsg13
(lp1821
(ibclass
BInstr
p1822
(dp1823
g2
Nsg17
S'mov     rax, [rsp+98h+var_90]'
p1824
sg19
S'488b442408'
p1825
sg21
Vmov rax, qword ptr [rsp + 8]
p1826
sg5
L131978L
sg6
Nsg23
S'mov'
p1827
sg25
S'0x2038aL'
p1828
sg27
Nsba(ibclass
BInstr
p1829
(dp1830
g2
Nsg17
S'test    ebx, ebx'
p1831
sg19
S'85db'
p1832
sg21
Vtest ebx, ebx
p1833
sg5
L131983L
sg6
Nsg23
S'test'
p1834
sg25
S'0x2038fL'
p1835
sg27
Nsba(ibclass
BInstr
p1836
(dp1837
g2
Nsg17
S'mov     [rsp+98h+var_6C], eax'
p1838
sg19
S'8944242c'
p1839
sg21
Vmov dword ptr [rsp + 0x2c], eax
p1840
sg5
L131985L
sg6
Nsg23
S'mov'
p1841
sg25
S'0x20391L'
p1842
sg27
Nsba(ibclass
BInstr
p1843
(dp1844
g2
Nsg17
S'jz      loc_2070B'
p1845
sg19
S'0f8470030000'
p1846
sg21
Vje 0x376
p1847
sg5
L131989L
sg6
Nsg23
S'jz'
p1848
sg25
S'0x20395L'
p1849
sg27
Nsbasg105
(lp1850
S'mov reg, mem'
p1851
aS'test reg, reg'
p1852
aS'mov mem, reg'
p1853
aS'jz func'
p1854
asg119
Nsg5
S'0x2038aL'
p1855
sg121
(lp1856
S'0x20377L'
p1857
aS'0x203e2L'
p1858
asg6
Nsg123
(lp1859
S'0x2039bL'
p1860
aS'0x2070bL'
p1861
asg127
Nsg128
Nsg129
S'bb8733e30badfc371d078a3917d2fb51'
p1862
sg131
S'08baf37587130a23d3584e450caf1a98'
p1863
sg133
(lp1864
g1827
ag1834
ag1841
ag1848
asg135
Nsba(ibclass
BBasicBlock
p1865
(dp1866
g12
Nsg13
(lp1867
(ibclass
BInstr
p1868
(dp1869
g2
Nsg17
S'lea     rcx, azRowid_11315'
p1870
sg19
S'488d0d0ef83000'
p1871
sg21
Vlea rcx, [rip + 0x30f80e]
p1872
sg5
L131995L
sg6
Nsg23
S'lea'
p1873
sg25
S'0x2039bL'
p1874
sg27
Nsba(ibclass
BInstr
p1875
(dp1876
g2
Nsg17
S'mov     r13, [rsp+98h+var_88]'
p1877
sg19
S'4c8b6c2410'
p1878
sg21
Vmov r13, qword ptr [rsp + 0x10]
p1879
sg5
L132002L
sg6
Nsg23
S'mov'
p1880
sg25
S'0x203a2L'
p1881
sg27
Nsba(ibclass
BInstr
p1882
(dp1883
g2
Nsg17
S'mov     r14d, 1'
p1884
sg19
S'41be01000000'
p1885
sg21
Vmov r14d, 1
p1886
sg5
L132007L
sg6
Nsg23
S'mov'
p1887
sg25
S'0x203a7L'
p1888
sg27
Nsba(ibclass
BInstr
p1889
(dp1890
g2
Nsg17
S'mov     rbp, [rcx+rax*8]'
p1891
sg19
S'488b2cc1'
p1892
sg21
Vmov rbp, qword ptr [rcx + rax*8]
p1893
sg5
L132013L
sg6
Nsg23
S'mov'
p1894
sg25
S'0x203adL'
p1895
sg27
Nsba(ibclass
BInstr
p1896
(dp1897
g2
Nsg17
S'jmp     short loc_203C9'
p1898
sg19
S'eb16'
p1899
sg21
Vjmp 0x18
p1900
sg5
L132017L
sg6
Nsg23
S'jmp'
p1901
sg25
S'0x203b1L'
p1902
sg27
Nsbasg105
(lp1903
S'lea reg, azRowid_11315'
p1904
aS'mov reg, mem'
p1905
aS'mov regd, 1'
p1906
aS'mov reg, mem'
p1907
aS'jmp func'
p1908
asg119
Nsg5
S'0x2039bL'
p1909
sg121
(lp1910
S'0x2038aL'
p1911
asg6
Nsg123
(lp1912
S'0x203c9L'
p1913
asg127
Nsg128
Nsg129
S'30c5af36368e13870b6414206e18b867'
p1914
sg131
S'0374a511e93057bb3f1f16f9873ec4ce'
p1915
sg133
(lp1916
g1873
ag1880
ag1887
ag1894
ag1901
asg135
Nsba(ibclass
BBasicBlock
p1917
(dp1918
g12
Nsg13
(lp1919
(ibclass
BInstr
p1920
(dp1921
g2
Nsg17
S'add     r14d, 1'
p1922
sg19
S'4183c601'
p1923
sg21
Vadd r14d, 1
p1924
sg5
L132024L
sg6
Nsg23
S'add'
p1925
sg25
S'0x203b8L'
p1926
sg27
Nsba(ibclass
BInstr
p1927
(dp1928
g2
Nsg17
S'add     r13, 8'
p1929
sg19
S'4983c508'
p1930
sg21
Vadd r13, 8
p1931
sg5
L132028L
sg6
Nsg23
S'add'
p1932
sg25
S'0x203bcL'
p1933
sg27
Nsba(ibclass
BInstr
p1934
(dp1935
g2
Nsg17
S'cmp     ebx, r14d'
p1936
sg19
S'4439f3'
p1937
sg21
Vcmp ebx, r14d
p1938
sg5
L132032L
sg6
Nsg23
S'cmp'
p1939
sg25
S'0x203c0L'
p1940
sg27
Nsba(ibclass
BInstr
p1941
(dp1942
g2
Nsg17
S'jl      loc_20720'
p1943
sg19
S'0f8c57030000'
p1944
sg21
Vjl 0x35d
p1945
sg5
L132035L
sg6
Nsg23
S'jl'
p1946
sg25
S'0x203c3L'
p1947
sg27
Nsbasg105
(lp1948
S'add regd, 1'
p1949
aS'add reg, 8'
p1950
aS'cmp reg, regd'
p1951
aS'jl func'
p1952
asg119
Nsg5
S'0x203b8L'
p1953
sg121
(lp1954
S'0x203c9L'
p1955
asg6
Nsg123
(lp1956
S'0x203c9L'
p1957
aS'0x20720L'
p1958
asg127
Nsg128
Nsg129
S'44081de1aaaed875edc8a3d8d5dc96dc'
p1959
sg131
S'2229098ad80cb40dc7c8409c4e150235'
p1960
sg133
(lp1961
g1925
ag1932
ag1939
ag1946
asg135
Nsba(ibclass
BBasicBlock
p1962
(dp1963
g12
Nsg13
(lp1964
(ibclass
BInstr
p1965
(dp1966
g2
Nsg17
S'mov     rsi, [r13+0]    ; zRight'
p1967
sg19
S'498b7500'
p1968
sg21
Vmov rsi, qword ptr [r13]
p1969
sg5
L132041L
sg6
Nsg23
S'mov'
p1970
sg25
S'0x203c9L'
p1971
sg27
Nsba(ibclass
BInstr
p1972
(dp1973
g2
Nsg17
S'mov     rdi, rbp        ; zLeft'
p1974
sg19
S'4889ef'
p1975
sg21
Vmov rdi, rbp
p1976
sg5
L132045L
sg6
Nsg23
S'mov'
p1977
sg25
S'0x203cdL'
p1978
sg27
Nsba(ibclass
BInstr
p1979
(dp1980
g2
Nsg17
S'call    sqlite3_stricmp'
p1981
sg19
S'e84b860000'
p1982
sg21
Vcall 0x8650
p1983
sg5
L132048L
sg6
Nsg23
S'call'
p1984
sg25
S'0x203d0L'
p1985
sg27
Nsba(ibclass
BInstr
p1986
(dp1987
g2
Nsg17
S'test    eax, eax'
p1988
sg19
S'85c0'
p1989
sg21
Vtest eax, eax
p1990
sg5
L132053L
sg6
Nsg23
S'test'
p1991
sg25
S'0x203d5L'
p1992
sg27
Nsba(ibclass
BInstr
p1993
(dp1994
g2
Nsg17
S'jnz     short loc_203B8'
p1995
sg19
S'75df'
p1996
sg21
Vjne 0xffffffffffffffe1
p1997
sg5
L132055L
sg6
Nsg23
S'jnz'
p1998
sg25
S'0x203d7L'
p1999
sg27
Nsbasg105
(lp2000
S'mov reg, mem'
p2001
aS'mov reg, reg'
p2002
aS'cregl sqlite3_stricmp'
p2003
aS'test reg, reg'
p2004
aS'jnz func'
p2005
asg119
Nsg5
S'0x203c9L'
p2006
sg121
(lp2007
S'0x2039bL'
p2008
aS'0x203b8L'
p2009
asg6
Nsg123
(lp2010
S'0x203b8L'
p2011
aS'0x203d9L'
p2012
asg127
Nsg128
Nsg129
S'8aa47bafac27863733b9d38d97a948f4'
p2013
sg131
S'ad4339117655635a2bc322081ebed959'
p2014
sg133
(lp2015
g1970
ag1977
ag1984
ag1991
ag1998
asg135
Nsba(ibclass
BBasicBlock
p2016
(dp2017
g12
Nsg13
(lp2018
(ibclass
BInstr
p2019
(dp2020
g2
Nsg17
S'cmp     ebx, r14d'
p2021
sg19
S'4439f3'
p2022
sg21
Vcmp ebx, r14d
p2023
sg5
L132057L
sg6
Nsg23
S'cmp'
p2024
sg25
S'0x203d9L'
p2025
sg27
Nsba(ibclass
BInstr
p2026
(dp2027
g2
Nsg17
S'jl      loc_2070B'
p2028
sg19
S'0f8c29030000'
p2029
sg21
Vjl 0x32f
p2030
sg5
L132060L
sg6
Nsg23
S'jl'
p2031
sg25
S'0x203dcL'
p2032
sg27
Nsbasg105
(lp2033
S'cmp reg, regd'
p2034
aS'jl func'
p2035
asg119
Nsg5
S'0x203d9L'
p2036
sg121
(lp2037
S'0x203c9L'
p2038
asg6
Nsg123
(lp2039
S'0x203e2L'
p2040
aS'0x2070bL'
p2041
asg127
Nsg128
Nsg129
S'a75a2c07efa9a1fc6004ec227098efc0'
p2042
sg131
S'fc81b4fab31fa1845682d9b3b455a97f'
p2043
sg133
(lp2044
g2024
ag2031
asg135
Nsba(ibclass
BBasicBlock
p2045
(dp2046
g12
Nsg13
(lp2047
(ibclass
BInstr
p2048
(dp2049
g2
Nsg17
S'add     [rsp+98h+var_90], 1'
p2050
sg19
S'488344240801'
p2051
sg21
Vadd qword ptr [rsp + 8], 1
p2052
sg5
L132066L
sg6
Nsg23
S'add'
p2053
sg25
S'0x203e2L'
p2054
sg27
Nsba(ibclass
BInstr
p2055
(dp2056
g2
Nsg17
S'mov     rax, [rsp+98h+var_90]'
p2057
sg19
S'488b442408'
p2058
sg21
Vmov rax, qword ptr [rsp + 8]
p2059
sg5
L132072L
sg6
Nsg23
S'mov'
p2060
sg25
S'0x203e8L'
p2061
sg27
Nsba(ibclass
BInstr
p2062
(dp2063
g2
Nsg17
S'cmp     rax, 3'
p2064
sg19
S'4883f803'
p2065
sg21
Vcmp rax, 3
p2066
sg5
L132077L
sg6
Nsg23
S'cmp'
p2067
sg25
S'0x203edL'
p2068
sg27
Nsba(ibclass
BInstr
p2069
(dp2070
g2
Nsg17
S'jnz     short loc_2038A'
p2071
sg19
S'7597'
p2072
sg21
Vjne 0xffffffffffffff99
p2073
sg5
L132081L
sg6
Nsg23
S'jnz'
p2074
sg25
S'0x203f1L'
p2075
sg27
Nsbasg105
(lp2076
S'add mem, 1'
p2077
aS'mov reg, mem'
p2078
aS'cmp reg, 3'
p2079
aS'jnz func'
p2080
asg119
Nsg5
S'0x203e2L'
p2081
sg121
(lp2082
S'0x203d9L'
p2083
asg6
Nsg123
(lp2084
S'0x2038aL'
p2085
aS'0x203f3L'
p2086
asg127
Nsg128
Nsg129
S'f71835efb35493d1e57e3c71044ca540'
p2087
sg131
S'1723069c50ec452b7df23a29514a1949'
p2088
sg133
(lp2089
g2053
ag2060
ag2067
ag2074
asg135
Nsba(ibclass
BBasicBlock
p2090
(dp2091
g12
Nsg13
(lp2092
(ibclass
BInstr
p2093
(dp2094
g2
Nsg17
S'mov     rbx, [rsp+98h+zTable]'
p2095
sg19
S'488b5c2418'
p2096
sg21
Vmov rbx, qword ptr [rsp + 0x18]
p2097
sg5
L132083L
sg6
Nsg23
S'mov'
p2098
sg25
S'0x203f3L'
p2099
sg27
Nsba(ibclass
BInstr
p2100
(dp2101
g2
Nsg17
S'mov     [rsp+98h+sTable.z], 0'
p2102
sg19
S'48c744244000000000'
p2103
sg21
Vmov qword ptr [rsp + 0x40], 0
p2104
sg5
L132088L
sg6
Nsg23
S'mov'
p2105
sg25
S'0x203f8L'
p2106
sg27
Nsba(ibclass
BInstr
p2107
(dp2108
g2
Nsg17
S'mov     qword ptr [rsp+98h+sTable.n], 0'
p2109
sg19
S'48c744244800000000'
p2110
sg21
Vmov qword ptr [rsp + 0x48], 0
p2111
sg5
L132097L
sg6
Nsg23
S'mov'
p2112
sg25
S'0x20401L'
p2113
sg27
Nsba(ibclass
BInstr
p2114
(dp2115
g2
Nsg17
S'mov     rdi, rbx        ; zName'
p2116
sg19
S'4889df'
p2117
sg21
Vmov rdi, rbx
p2118
sg5
L132106L
sg6
Nsg23
S'mov'
p2119
sg25
S'0x2040aL'
p2120
sg27
Nsba(ibclass
BInstr
p2121
(dp2122
g2
Nsg17
S'call    quoteChar'
p2123
sg19
S'e83e8bffff'
p2124
sg21
Vcall 0xffffffffffff8b43
p2125
sg5
L132109L
sg6
Nsg23
S'call'
p2126
sg25
S'0x2040dL'
p2127
sg27
Nsba(ibclass
BInstr
p2128
(dp2129
g2
Nsg17
S'mov     rdi, [rsp+98h+ppStmt]; p'
p2130
sg19
S'488b7c2420'
p2131
sg21
Vmov rdi, qword ptr [rsp + 0x20]
p2132
sg5
L132114L
sg6
Nsg23
S'mov'
p2133
sg25
S'0x20412L'
p2134
sg27
Nsba(ibclass
BInstr
p2135
(dp2136
g2
Nsg17
S'movsx   edx, al         ; quote'
p2137
sg19
S'0fbed0'
p2138
sg21
Vmovsx edx, al
p2139
sg5
L132119L
sg6
Nsg23
S'movsx'
p2140
sg25
S'0x20417L'
p2141
sg27
Nsba(ibclass
BInstr
p2142
(dp2143
g2
Nsg17
S'mov     rsi, rbx        ; zAppend'
p2144
sg19
S'4889de'
p2145
sg21
Vmov rsi, rbx
p2146
sg5
L132122L
sg6
Nsg23
S'mov'
p2147
sg25
S'0x2041aL'
p2148
sg27
Nsba(ibclass
BInstr
p2149
(dp2150
g2
Nsg17
S'call    appendText'
p2151
sg19
S'e8ae4fffff'
p2152
sg21
Vcall 0xffffffffffff4fb3
p2153
sg5
L132125L
sg6
Nsg23
S'call'
p2154
sg25
S'0x2041dL'
p2155
sg27
Nsba(ibclass
BInstr
p2156
(dp2157
g2
Nsg17
S'cmp     qword ptr [r12], 0'
p2158
sg19
S'49833c2400'
p2159
sg21
Vcmp qword ptr [r12], 0
p2160
sg5
L132130L
sg6
Nsg23
S'cmp'
p2161
sg25
S'0x20422L'
p2162
sg27
Nsba(ibclass
BInstr
p2163
(dp2164
g2
Nsg17
S'mov     r14, [rsp+98h+var_88]'
p2165
sg19
S'4c8b742410'
p2166
sg21
Vmov r14, qword ptr [rsp + 0x10]
p2167
sg5
L132135L
sg6
Nsg23
S'mov'
p2168
sg25
S'0x20427L'
p2169
sg27
Nsba(ibclass
BInstr
p2170
(dp2171
g2
Nsg17
S'jz      loc_204BB'
p2172
sg19
S'0f8489000000'
p2173
sg21
Vje 0x8f
p2174
sg5
L132140L
sg6
Nsg23
S'jz'
p2175
sg25
S'0x2042cL'
p2176
sg27
Nsbasg105
(lp2177
S'mov reg, mem'
p2178
aS'mov mem, 0'
p2179
aS'mov qmem, 0'
p2180
aS'mov reg, reg'
p2181
aS'cregl quoteChar'
p2182
aS'mov reg, mem'
p2183
aS'movsx reg, reg'
p2184
aS'mov reg, reg'
p2185
aS'cregl appendText'
p2186
aS'cmp qmem, 0'
p2187
aS'mov reg, mem'
p2188
aS'jz func'
p2189
asg119
Nsg5
S'0x203f3L'
p2190
sg121
(lp2191
S'0x203e2L'
p2192
aS'0x20620L'
p2193
aS'0x20720L'
p2194
aS'0x2074eL'
p2195
asg6
Nsg123
(lp2196
S'0x20432L'
p2197
aS'0x204bbL'
p2198
asg127
Nsg128
Nsg129
S'03adc7a32df411fc424b67d459962e7b'
p2199
sg131
S'5e5b5e2587e85e1e5dc05c4e90ffac7b'
p2200
sg133
(lp2201
g2098
ag2105
ag2112
ag2119
ag2126
ag2133
ag2140
ag2147
ag2154
ag2161
ag2168
ag2175
asg135
Nsba(ibclass
BBasicBlock
p2202
(dp2203
g12
Nsg13
(lp2204
(ibclass
BInstr
p2205
(dp2206
g2
Nsg17
S'mov     rbx, [rsp+98h+ppStmt]'
p2207
sg19
S'488b5c2420'
p2208
sg21
Vmov rbx, qword ptr [rsp + 0x20]
p2209
sg5
L132146L
sg6
Nsg23
S'mov'
p2210
sg25
S'0x20432L'
p2211
sg27
Nsba(ibclass
BInstr
p2212
(dp2213
g2
Nsg17
S'lea     rsi, asc_FE64C+1; zAppend'
p2214
sg19
S'488d350fe20d00'
p2215
sg21
Vlea rsi, [rip + 0xde20f]
p2216
sg5
L132151L
sg6
Nsg23
S'lea'
p2217
sg25
S'0x20437L'
p2218
sg27
Nsba(ibclass
BInstr
p2219
(dp2220
g2
Nsg17
S'xor     edx, edx        ; quote'
p2221
sg19
S'31d2'
p2222
sg21
Vxor edx, edx
p2223
sg5
L132158L
sg6
Nsg23
S'xor'
p2224
sg25
S'0x2043eL'
p2225
sg27
Nsba(ibclass
BInstr
p2226
(dp2227
g2
Nsg17
S'mov     rdi, rbx        ; p'
p2228
sg19
S'4889df'
p2229
sg21
Vmov rdi, rbx
p2230
sg5
L132160L
sg6
Nsg23
S'mov'
p2231
sg25
S'0x20440L'
p2232
sg27
Nsba(ibclass
BInstr
p2233
(dp2234
g2
Nsg17
S'call    appendText'
p2235
sg19
S'e8884fffff'
p2236
sg21
Vcall 0xffffffffffff4f8d
p2237
sg5
L132163L
sg6
Nsg23
S'call'
p2238
sg25
S'0x20443L'
p2239
sg27
Nsba(ibclass
BInstr
p2240
(dp2241
g2
Nsg17
S'mov     rsi, [r12]      ; zAppend'
p2242
sg19
S'498b3424'
p2243
sg21
Vmov rsi, qword ptr [r12]
p2244
sg5
L132168L
sg6
Nsg23
S'mov'
p2245
sg25
S'0x20448L'
p2246
sg27
Nsba(ibclass
BInstr
p2247
(dp2248
g2
Nsg17
S'xor     edx, edx        ; quote'
p2249
sg19
S'31d2'
p2250
sg21
Vxor edx, edx
p2251
sg5
L132172L
sg6
Nsg23
S'xor'
p2252
sg25
S'0x2044cL'
p2253
sg27
Nsba(ibclass
BInstr
p2254
(dp2255
g2
Nsg17
S'mov     rdi, rbx        ; p'
p2256
sg19
S'4889df'
p2257
sg21
Vmov rdi, rbx
p2258
sg5
L132174L
sg6
Nsg23
S'mov'
p2259
sg25
S'0x2044eL'
p2260
sg27
Nsba(ibclass
BInstr
p2261
(dp2262
g2
Nsg17
S'call    appendText'
p2263
sg19
S'e87a4fffff'
p2264
sg21
Vcall 0xffffffffffff4f7f
p2265
sg5
L132177L
sg6
Nsg23
S'call'
p2266
sg25
S'0x20451L'
p2267
sg27
Nsba(ibclass
BInstr
p2268
(dp2269
g2
Nsg17
S'cmp     qword ptr [r12+8], 0'
p2270
sg19
S'49837c240800'
p2271
sg21
Vcmp qword ptr [r12 + 8], 0
p2272
sg5
L132182L
sg6
Nsg23
S'cmp'
p2273
sg25
S'0x20456L'
p2274
sg27
Nsba(ibclass
BInstr
p2275
(dp2276
g2
Nsg17
S'mov     r14, [rsp+98h+var_88]'
p2277
sg19
S'4c8b742410'
p2278
sg21
Vmov r14, qword ptr [rsp + 0x10]
p2279
sg5
L132188L
sg6
Nsg23
S'mov'
p2280
sg25
S'0x2045cL'
p2281
sg27
Nsba(ibclass
BInstr
p2282
(dp2283
g2
Nsg17
S'mov     rbx, r14'
p2284
sg19
S'4c89f3'
p2285
sg21
Vmov rbx, r14
p2286
sg5
L132193L
sg6
Nsg23
S'mov'
p2287
sg25
S'0x20461L'
p2288
sg27
Nsba(ibclass
BInstr
p2289
(dp2290
g2
Nsg17
S'jz      short loc_204A8'
p2291
sg19
S'7442'
p2292
sg21
Vje 0x44
p2293
sg5
L132196L
sg6
Nsg23
S'jz'
p2294
sg25
S'0x20464L'
p2295
sg27
Nsbasg105
(lp2296
S'mov reg, mem'
p2297
aS'lea reg, func+1'
p2298
aS'xor reg, reg'
p2299
aS'mov reg, reg'
p2300
aS'cregl appendText'
p2301
aS'mov reg, mem'
p2302
aS'xor reg, reg'
p2303
aS'mov reg, reg'
p2304
aS'cregl appendText'
p2305
aS'cmp qmem, 0'
p2306
aS'mov reg, mem'
p2307
aS'mov reg, reg'
p2308
aS'jz func'
p2309
asg119
Nsg5
S'0x20432L'
p2310
sg121
(lp2311
S'0x203f3L'
p2312
asg6
Nsg123
(lp2313
S'0x20466L'
p2314
aS'0x204a8L'
p2315
asg127
Nsg128
Nsg129
S'1bee3a3f072304661f5264f3cb2cafea'
p2316
sg131
S'011046e11019bf6a60a5851c9425d9b5'
p2317
sg133
(lp2318
g2210
ag2217
ag2224
ag2231
ag2238
ag2245
ag2252
ag2259
ag2266
ag2273
ag2280
ag2287
ag2294
asg135
Nsba(ibclass
BBasicBlock
p2319
(dp2320
g12
Nsg13
(lp2321
(ibclass
BInstr
p2322
(dp2323
g2
Nsg17
S'nop     word ptr [rax+rax+00000000h]'
p2324
sg19
S'662e0f1f840000000000'
p2325
sg21
Vnop word ptr cs:[rax + rax]
p2326
sg5
L132198L
sg6
Nsg23
S'nop'
p2327
sg25
S'0x20466L'
p2328
sg27
Nsbasg105
(lp2329
S'nop mem'
p2330
asg119
Nsg5
S'0x20466L'
p2331
sg121
(lp2332
S'0x20432L'
p2333
asg6
Nsg123
(lp2334
S'0x20470L'
p2335
asg127
Nsg128
Nsg129
S'a571d969c8661fb0342afd08e571dfa0'
p2336
sg131
S'55c97f0b6b86d2e5eb995aea769d1ea4'
p2337
sg133
(lp2338
g2327
asg135
Nsba(ibclass
BBasicBlock
p2339
(dp2340
g12
Nsg13
(lp2341
(ibclass
BInstr
p2342
(dp2343
g2
Nsg17
S'mov     rbp, [rsp+98h+ppStmt]'
p2344
sg19
S'488b6c2420'
p2345
sg21
Vmov rbp, qword ptr [rsp + 0x20]
p2346
sg5
L132208L
sg6
Nsg23
S'mov'
p2347
sg25
S'0x20470L'
p2348
sg27
Nsba(ibclass
BInstr
p2349
(dp2350
g2
Nsg17
S'lea     rsi, aEqpD+0Ah  ; zAppend'
p2351
sg19
S'488d35ed7b0d00'
p2352
sg21
Vlea rsi, [rip + 0xd7bed]
p2353
sg5
L132213L
sg6
Nsg23
S'lea'
p2354
sg25
S'0x20475L'
p2355
sg27
Nsba(ibclass
BInstr
p2356
(dp2357
g2
Nsg17
S'xor     edx, edx        ; quote'
p2358
sg19
S'31d2'
p2359
sg21
Vxor edx, edx
p2360
sg5
L132220L
sg6
Nsg23
S'xor'
p2361
sg25
S'0x2047cL'
p2362
sg27
Nsba(ibclass
BInstr
p2363
(dp2364
g2
Nsg17
S'add     rbx, 8'
p2365
sg19
S'4883c308'
p2366
sg21
Vadd rbx, 8
p2367
sg5
L132222L
sg6
Nsg23
S'add'
p2368
sg25
S'0x2047eL'
p2369
sg27
Nsba(ibclass
BInstr
p2370
(dp2371
g2
Nsg17
S'mov     rdi, rbp        ; p'
p2372
sg19
S'4889ef'
p2373
sg21
Vmov rdi, rbp
p2374
sg5
L132226L
sg6
Nsg23
S'mov'
p2375
sg25
S'0x20482L'
p2376
sg27
Nsba(ibclass
BInstr
p2377
(dp2378
g2
Nsg17
S'call    appendText'
p2379
sg19
S'e8464fffff'
p2380
sg21
Vcall 0xffffffffffff4f4b
p2381
sg5
L132229L
sg6
Nsg23
S'call'
p2382
sg25
S'0x20485L'
p2383
sg27
Nsba(ibclass
BInstr
p2384
(dp2385
g2
Nsg17
S'mov     rdi, [rbx-8]    ; zName'
p2386
sg19
S'488b7bf8'
p2387
sg21
Vmov rdi, qword ptr [rbx - 8]
p2388
sg5
L132234L
sg6
Nsg23
S'mov'
p2389
sg25
S'0x2048aL'
p2390
sg27
Nsba(ibclass
BInstr
p2391
(dp2392
g2
Nsg17
S'call    quoteChar'
p2393
sg19
S'e8bd8affff'
p2394
sg21
Vcall 0xffffffffffff8ac2
p2395
sg5
L132238L
sg6
Nsg23
S'call'
p2396
sg25
S'0x2048eL'
p2397
sg27
Nsba(ibclass
BInstr
p2398
(dp2399
g2
Nsg17
S'mov     rsi, [rbx-8]    ; zAppend'
p2400
sg19
S'488b73f8'
p2401
sg21
Vmov rsi, qword ptr [rbx - 8]
p2402
sg5
L132243L
sg6
Nsg23
S'mov'
p2403
sg25
S'0x20493L'
p2404
sg27
Nsba(ibclass
BInstr
p2405
(dp2406
g2
Nsg17
S'movsx   edx, al         ; quote'
p2407
sg19
S'0fbed0'
p2408
sg21
Vmovsx edx, al
p2409
sg5
L132247L
sg6
Nsg23
S'movsx'
p2410
sg25
S'0x20497L'
p2411
sg27
Nsba(ibclass
BInstr
p2412
(dp2413
g2
Nsg17
S'mov     rdi, rbp        ; p'
p2414
sg19
S'4889ef'
p2415
sg21
Vmov rdi, rbp
p2416
sg5
L132250L
sg6
Nsg23
S'mov'
p2417
sg25
S'0x2049aL'
p2418
sg27
Nsba(ibclass
BInstr
p2419
(dp2420
g2
Nsg17
S'call    appendText'
p2421
sg19
S'e82e4fffff'
p2422
sg21
Vcall 0xffffffffffff4f33
p2423
sg5
L132253L
sg6
Nsg23
S'call'
p2424
sg25
S'0x2049dL'
p2425
sg27
Nsba(ibclass
BInstr
p2426
(dp2427
g2
Nsg17
S'cmp     qword ptr [rbx], 0'
p2428
sg19
S'48833b00'
p2429
sg21
Vcmp qword ptr [rbx], 0
p2430
sg5
L132258L
sg6
Nsg23
S'cmp'
p2431
sg25
S'0x204a2L'
p2432
sg27
Nsba(ibclass
BInstr
p2433
(dp2434
g2
Nsg17
S'jnz     short loc_20470'
p2435
sg19
S'75c8'
p2436
sg21
Vjne 0xffffffffffffffca
p2437
sg5
L132262L
sg6
Nsg23
S'jnz'
p2438
sg25
S'0x204a6L'
p2439
sg27
Nsbasg105
(lp2440
S'mov reg, mem'
p2441
aS'lea reg, aEqpD+0Ah'
p2442
aS'xor reg, reg'
p2443
aS'add reg, 8'
p2444
aS'mov reg, reg'
p2445
aS'cregl appendText'
p2446
aS'mov reg, mem'
p2447
aS'cregl quoteChar'
p2448
aS'mov reg, mem'
p2449
aS'movsx reg, reg'
p2450
aS'mov reg, reg'
p2451
aS'cregl appendText'
p2452
aS'cmp qmem, 0'
p2453
aS'jnz func'
p2454
asg119
Nsg5
S'0x20470L'
p2455
sg121
(lp2456
S'0x20466L'
p2457
aS'0x20470L'
p2458
asg6
Nsg123
(lp2459
S'0x204a8L'
p2460
aS'0x20470L'
p2461
asg127
Nsg128
Nsg129
S'90169994cfae67e31974dd1f53d64145'
p2462
sg131
S'33670ce1b7e174c508a00a0c5e23611e'
p2463
sg133
(lp2464
g2347
ag2354
ag2361
ag2368
ag2375
ag2382
ag2389
ag2396
ag2403
ag2410
ag2417
ag2424
ag2431
ag2438
asg135
Nsba(ibclass
BBasicBlock
p2465
(dp2466
g12
Nsg13
(lp2467
(ibclass
BInstr
p2468
(dp2469
g2
Nsg17
S'mov     rdi, [rsp+98h+ppStmt]; p'
p2470
sg19
S'488b7c2420'
p2471
sg21
Vmov rdi, qword ptr [rsp + 0x20]
p2472
sg5
L132264L
sg6
Nsg23
S'mov'
p2473
sg25
S'0x204a8L'
p2474
sg27
Nsba(ibclass
BInstr
p2475
(dp2476
g2
Nsg17
S'lea     rsi, aZ+3       ; zAppend'
p2477
sg19
S'488d355f820d00'
p2478
sg21
Vlea rsi, [rip + 0xd825f]
p2479
sg5
L132269L
sg6
Nsg23
S'lea'
p2480
sg25
S'0x204adL'
p2481
sg27
Nsba(ibclass
BInstr
p2482
(dp2483
g2
Nsg17
S'xor     edx, edx        ; quote'
p2484
sg19
S'31d2'
p2485
sg21
Vxor edx, edx
p2486
sg5
L132276L
sg6
Nsg23
S'xor'
p2487
sg25
S'0x204b4L'
p2488
sg27
Nsba(ibclass
BInstr
p2489
(dp2490
g2
Nsg17
S'call    appendText'
p2491
sg19
S'e8154fffff'
p2492
sg21
Vcall 0xffffffffffff4f1a
p2493
sg5
L132278L
sg6
Nsg23
S'call'
p2494
sg25
S'0x204b6L'
p2495
sg27
Nsbasg105
(lp2496
S'mov reg, mem'
p2497
aS'lea reg, aZ+3'
p2498
aS'xor reg, reg'
p2499
aS'cregl appendText'
p2500
asg119
Nsg5
S'0x204a8L'
p2501
sg121
(lp2502
S'0x20432L'
p2503
aS'0x20470L'
p2504
asg6
Nsg123
(lp2505
S'0x204bbL'
p2506
asg127
Nsg128
Nsg129
S'94a8ff9173cd0ccb64c967c417fd7784'
p2507
sg131
S'ea4ba105d8fcf34593396ea5191eeb46'
p2508
sg133
(lp2509
g2473
ag2480
ag2487
ag2494
asg135
Nsba(ibclass
BBasicBlock
p2510
(dp2511
g12
Nsg13
(lp2512
(ibclass
BInstr
p2513
(dp2514
g2
Nsg17
S'lea     rbx, [rsp+98h+sSelect]'
p2515
sg19
S'488d5c2430'
p2516
sg21
Vlea rbx, [rsp + 0x30]
p2517
sg5
L132283L
sg6
Nsg23
S'lea'
p2518
sg25
S'0x204bbL'
p2519
sg27
Nsba(ibclass
BInstr
p2520
(dp2521
g2
Nsg17
S'lea     rsi, aSelect    ; "SELECT "'
p2522
sg19
S'488d35757c0d00'
p2523
sg21
Vlea rsi, [rip + 0xd7c75]
p2524
sg5
L132288L
sg6
Nsg23
S'lea'
p2525
sg25
S'0x204c0L'
p2526
sg27
Nsba(ibclass
BInstr
p2527
(dp2528
g2
Nsg17
S'xor     edx, edx        ; quote'
p2529
sg19
S'31d2'
p2530
sg21
Vxor edx, edx
p2531
sg5
L132295L
sg6
Nsg23
S'xor'
p2532
sg25
S'0x204c7L'
p2533
sg27
Nsba(ibclass
BInstr
p2534
(dp2535
g2
Nsg17
S'mov     [rsp+98h+sSelect.z], 0'
p2536
sg19
S'48c744243000000000'
p2537
sg21
Vmov qword ptr [rsp + 0x30], 0
p2538
sg5
L132297L
sg6
Nsg23
S'mov'
p2539
sg25
S'0x204c9L'
p2540
sg27
Nsba(ibclass
BInstr
p2541
(dp2542
g2
Nsg17
S'mov     qword ptr [rsp+98h+sSelect.n], 0'
p2543
sg19
S'48c744243800000000'
p2544
sg21
Vmov qword ptr [rsp + 0x38], 0
p2545
sg5
L132306L
sg6
Nsg23
S'mov'
p2546
sg25
S'0x204d2L'
p2547
sg27
Nsba(ibclass
BInstr
p2548
(dp2549
g2
Nsg17
S'mov     rdi, rbx        ; p'
p2550
sg19
S'4889df'
p2551
sg21
Vmov rdi, rbx
p2552
sg5
L132315L
sg6
Nsg23
S'mov'
p2553
sg25
S'0x204dbL'
p2554
sg27
Nsba(ibclass
BInstr
p2555
(dp2556
g2
Nsg17
S'call    appendText'
p2557
sg19
S'e8ed4effff'
p2558
sg21
Vcall 0xffffffffffff4ef2
p2559
sg5
L132318L
sg6
Nsg23
S'call'
p2560
sg25
S'0x204deL'
p2561
sg27
Nsba(ibclass
BInstr
p2562
(dp2563
g2
Nsg17
S'mov     rsi, [r12]      ; zAppend'
p2564
sg19
S'498b3424'
p2565
sg21
Vmov rsi, qword ptr [r12]
p2566
sg5
L132323L
sg6
Nsg23
S'mov'
p2567
sg25
S'0x204e3L'
p2568
sg27
Nsba(ibclass
BInstr
p2569
(dp2570
g2
Nsg17
S'test    rsi, rsi'
p2571
sg19
S'4885f6'
p2572
sg21
Vtest rsi, rsi
p2573
sg5
L132327L
sg6
Nsg23
S'test'
p2574
sg25
S'0x204e7L'
p2575
sg27
Nsba(ibclass
BInstr
p2576
(dp2577
g2
Nsg17
S'jz      short loc_20507'
p2578
sg19
S'741b'
p2579
sg21
Vje 0x1d
p2580
sg5
L132330L
sg6
Nsg23
S'jz'
p2581
sg25
S'0x204eaL'
p2582
sg27
Nsbasg105
(lp2583
S'lea reg, mem'
p2584
aS'lea reg, aSelect'
p2585
aS'xor reg, reg'
p2586
aS'mov mem, 0'
p2587
aS'mov qmem, 0'
p2588
aS'mov reg, reg'
p2589
aS'cregl appendText'
p2590
aS'mov reg, mem'
p2591
aS'test reg, reg'
p2592
aS'jz func'
p2593
asg119
Nsg5
S'0x204bbL'
p2594
sg121
(lp2595
S'0x203f3L'
p2596
aS'0x204a8L'
p2597
asg6
Nsg123
(lp2598
S'0x204ecL'
p2599
aS'0x20507L'
p2600
asg127
Nsg128
Nsg129
S'ece8d620e2bbd19b612cbb688b5bb9e1'
p2601
sg131
S'2a04e09010ef1606c4449d37cfd16613'
p2602
sg133
(lp2603
g2518
ag2525
ag2532
ag2539
ag2546
ag2553
ag2560
ag2567
ag2574
ag2581
asg135
Nsba(ibclass
BBasicBlock
p2604
(dp2605
g12
Nsg13
(lp2606
(ibclass
BInstr
p2607
(dp2608
g2
Nsg17
S'xor     edx, edx        ; quote'
p2609
sg19
S'31d2'
p2610
sg21
Vxor edx, edx
p2611
sg5
L132332L
sg6
Nsg23
S'xor'
p2612
sg25
S'0x204ecL'
p2613
sg27
Nsba(ibclass
BInstr
p2614
(dp2615
g2
Nsg17
S'mov     rdi, rbx        ; p'
p2616
sg19
S'4889df'
p2617
sg21
Vmov rdi, rbx
p2618
sg5
L132334L
sg6
Nsg23
S'mov'
p2619
sg25
S'0x204eeL'
p2620
sg27
Nsba(ibclass
BInstr
p2621
(dp2622
g2
Nsg17
S'call    appendText'
p2623
sg19
S'e8da4effff'
p2624
sg21
Vcall 0xffffffffffff4edf
p2625
sg5
L132337L
sg6
Nsg23
S'call'
p2626
sg25
S'0x204f1L'
p2627
sg27
Nsba(ibclass
BInstr
p2628
(dp2629
g2
Nsg17
S'lea     rsi, aEqpD+0Ah  ; zAppend'
p2630
sg19
S'488d356c7b0d00'
p2631
sg21
Vlea rsi, [rip + 0xd7b6c]
p2632
sg5
L132342L
sg6
Nsg23
S'lea'
p2633
sg25
S'0x204f6L'
p2634
sg27
Nsba(ibclass
BInstr
p2635
(dp2636
g2
Nsg17
S'xor     edx, edx        ; quote'
p2637
sg19
S'31d2'
p2638
sg21
Vxor edx, edx
p2639
sg5
L132349L
sg6
Nsg23
S'xor'
p2640
sg25
S'0x204fdL'
p2641
sg27
Nsba(ibclass
BInstr
p2642
(dp2643
g2
Nsg17
S'mov     rdi, rbx        ; p'
p2644
sg19
S'4889df'
p2645
sg21
Vmov rdi, rbx
p2646
sg5
L132351L
sg6
Nsg23
S'mov'
p2647
sg25
S'0x204ffL'
p2648
sg27
Nsba(ibclass
BInstr
p2649
(dp2650
g2
Nsg17
S'call    appendText'
p2651
sg19
S'e8c94effff'
p2652
sg21
Vcall 0xffffffffffff4ece
p2653
sg5
L132354L
sg6
Nsg23
S'call'
p2654
sg25
S'0x20502L'
p2655
sg27
Nsbasg105
(lp2656
S'xor reg, reg'
p2657
aS'mov reg, reg'
p2658
aS'cregl appendText'
p2659
aS'lea reg, aEqpD+0Ah'
p2660
aS'xor reg, reg'
p2661
aS'mov reg, reg'
p2662
aS'cregl appendText'
p2663
asg119
Nsg5
S'0x204ecL'
p2664
sg121
(lp2665
S'0x204bbL'
p2666
asg6
Nsg123
(lp2667
S'0x20507L'
p2668
asg127
Nsg128
Nsg129
S'e24709622e8239618e78f6bf7f7c8bbf'
p2669
sg131
S'783cde34e965253c04c31643870e01c2'
p2670
sg133
(lp2671
g2612
ag2619
ag2626
ag2633
ag2640
ag2647
ag2654
asg135
Nsba(ibclass
BBasicBlock
p2672
(dp2673
g12
Nsg13
(lp2674
(ibclass
BInstr
p2675
(dp2676
g2
Nsg17
S'mov     rdi, [r12+8]    ; zName'
p2677
sg19
S'498b7c2408'
p2678
sg21
Vmov rdi, qword ptr [r12 + 8]
p2679
sg5
L132359L
sg6
Nsg23
S'mov'
p2680
sg25
S'0x20507L'
p2681
sg27
Nsba(ibclass
BInstr
p2682
(dp2683
g2
Nsg17
S'lea     rbp, [r12+10h]'
p2684
sg19
S'498d6c2410'
p2685
sg21
Vlea rbp, [r12 + 0x10]
p2686
sg5
L132364L
sg6
Nsg23
S'lea'
p2687
sg25
S'0x2050cL'
p2688
sg27
Nsba(ibclass
BInstr
p2689
(dp2690
g2
Nsg17
S'test    rdi, rdi'
p2691
sg19
S'4885ff'
p2692
sg21
Vtest rdi, rdi
p2693
sg5
L132369L
sg6
Nsg23
S'test'
p2694
sg25
S'0x20511L'
p2695
sg27
Nsba(ibclass
BInstr
p2696
(dp2697
g2
Nsg17
S'jz      short loc_2055B'
p2698
sg19
S'7445'
p2699
sg21
Vje 0x47
p2700
sg5
L132372L
sg6
Nsg23
S'jz'
p2701
sg25
S'0x20514L'
p2702
sg27
Nsbasg105
(lp2703
S'mov reg, mem'
p2704
aS'lea reg, mem'
p2705
aS'test reg, reg'
p2706
aS'jz func'
p2707
asg119
Nsg5
S'0x20507L'
p2708
sg121
(lp2709
S'0x204bbL'
p2710
aS'0x204ecL'
p2711
asg6
Nsg123
(lp2712
S'0x20516L'
p2713
aS'0x2055bL'
p2714
asg127
Nsg128
Nsg129
S'f991ae0ccd58826c072b2b8ad69d7c06'
p2715
sg131
S'761d7df0da070edb4138dfdc8b17cd9b'
p2716
sg133
(lp2717
g2680
ag2687
ag2694
ag2701
asg135
Nsba(ibclass
BBasicBlock
p2718
(dp2719
g12
Nsg13
(lp2720
(ibclass
BInstr
p2721
(dp2722
g2
Nsg17
S'nop     word ptr [rax+rax+00000000h]'
p2723
sg19
S'662e0f1f840000000000'
p2724
sg21
Vnop word ptr cs:[rax + rax]
p2725
sg5
L132374L
sg6
Nsg23
S'nop'
p2726
sg25
S'0x20516L'
p2727
sg27
Nsbasg105
(lp2728
S'nop mem'
p2729
asg119
Nsg5
S'0x20516L'
p2730
sg121
(lp2731
S'0x20507L'
p2732
asg6
Nsg123
(lp2733
S'0x20520L'
p2734
asg127
Nsg128
Nsg129
S'a571d969c8661fb0342afd08e571dfa0'
p2735
sg131
S'55c97f0b6b86d2e5eb995aea769d1ea4'
p2736
sg133
(lp2737
g2726
asg135
Nsba(ibclass
BBasicBlock
p2738
(dp2739
g12
Nsg13
(lp2740
(ibclass
BInstr
p2741
(dp2742
g2
Nsg17
S'call    quoteChar'
p2743
sg19
S'e82b8affff'
p2744
sg21
Vcall 0xffffffffffff8a30
p2745
sg5
L132384L
sg6
Nsg23
S'call'
p2746
sg25
S'0x20520L'
p2747
sg27
Nsba(ibclass
BInstr
p2748
(dp2749
g2
Nsg17
S'mov     rsi, [r14]      ; zAppend'
p2750
sg19
S'498b36'
p2751
sg21
Vmov rsi, qword ptr [r14]
p2752
sg5
L132389L
sg6
Nsg23
S'mov'
p2753
sg25
S'0x20525L'
p2754
sg27
Nsba(ibclass
BInstr
p2755
(dp2756
g2
Nsg17
S'movsx   edx, al         ; quote'
p2757
sg19
S'0fbed0'
p2758
sg21
Vmovsx edx, al
p2759
sg5
L132392L
sg6
Nsg23
S'movsx'
p2760
sg25
S'0x20528L'
p2761
sg27
Nsba(ibclass
BInstr
p2762
(dp2763
g2
Nsg17
S'mov     rdi, rbx        ; p'
p2764
sg19
S'4889df'
p2765
sg21
Vmov rdi, rbx
p2766
sg5
L132395L
sg6
Nsg23
S'mov'
p2767
sg25
S'0x2052bL'
p2768
sg27
Nsba(ibclass
BInstr
p2769
(dp2770
g2
Nsg17
S'mov     r14, rbp'
p2771
sg19
S'4989ee'
p2772
sg21
Vmov r14, rbp
p2773
sg5
L132398L
sg6
Nsg23
S'mov'
p2774
sg25
S'0x2052eL'
p2775
sg27
Nsba(ibclass
BInstr
p2776
(dp2777
g2
Nsg17
S'call    appendText'
p2778
sg19
S'e89a4effff'
p2779
sg21
Vcall 0xffffffffffff4e9f
p2780
sg5
L132401L
sg6
Nsg23
S'call'
p2781
sg25
S'0x20531L'
p2782
sg27
Nsba(ibclass
BInstr
p2783
(dp2784
g2
Nsg17
S'cmp     qword ptr [rbp+0], 0'
p2785
sg19
S'48837d0000'
p2786
sg21
Vcmp qword ptr [rbp], 0
p2787
sg5
L132406L
sg6
Nsg23
S'cmp'
p2788
sg25
S'0x20536L'
p2789
sg27
Nsba(ibclass
BInstr
p2790
(dp2791
g2
Nsg17
S'jz      short loc_2054E'
p2792
sg19
S'7411'
p2793
sg21
Vje 0x13
p2794
sg5
L132411L
sg6
Nsg23
S'jz'
p2795
sg25
S'0x2053bL'
p2796
sg27
Nsbasg105
(lp2797
S'cregl quoteChar'
p2798
aS'mov reg, mem'
p2799
aS'movsx reg, reg'
p2800
aS'mov reg, reg'
p2801
aS'mov reg, reg'
p2802
aS'cregl appendText'
p2803
aS'cmp qmem, 0'
p2804
aS'jz func'
p2805
asg119
Nsg5
S'0x20520L'
p2806
sg121
(lp2807
S'0x20516L'
p2808
aS'0x2054eL'
p2809
asg6
Nsg123
(lp2810
S'0x2053dL'
p2811
aS'0x2054eL'
p2812
asg127
Nsg128
Nsg129
S'e35f12bce2656569997b21888b25e3d1'
p2813
sg131
S'1549fa7aa159b840f5d2a7f0cc0b29cf'
p2814
sg133
(lp2815
g2746
ag2753
ag2760
ag2767
ag2774
ag2781
ag2788
ag2795
asg135
Nsba(ibclass
BBasicBlock
p2816
(dp2817
g12
Nsg13
(lp2818
(ibclass
BInstr
p2819
(dp2820
g2
Nsg17
S'lea     rsi, aEqpD+0Ah  ; zAppend'
p2821
sg19
S'488d35257b0d00'
p2822
sg21
Vlea rsi, [rip + 0xd7b25]
p2823
sg5
L132413L
sg6
Nsg23
S'lea'
p2824
sg25
S'0x2053dL'
p2825
sg27
Nsba(ibclass
BInstr
p2826
(dp2827
g2
Nsg17
S'xor     edx, edx        ; quote'
p2828
sg19
S'31d2'
p2829
sg21
Vxor edx, edx
p2830
sg5
L132420L
sg6
Nsg23
S'xor'
p2831
sg25
S'0x20544L'
p2832
sg27
Nsba(ibclass
BInstr
p2833
(dp2834
g2
Nsg17
S'mov     rdi, rbx        ; p'
p2835
sg19
S'4889df'
p2836
sg21
Vmov rdi, rbx
p2837
sg5
L132422L
sg6
Nsg23
S'mov'
p2838
sg25
S'0x20546L'
p2839
sg27
Nsba(ibclass
BInstr
p2840
(dp2841
g2
Nsg17
S'call    appendText'
p2842
sg19
S'e8824effff'
p2843
sg21
Vcall 0xffffffffffff4e87
p2844
sg5
L132425L
sg6
Nsg23
S'call'
p2845
sg25
S'0x20549L'
p2846
sg27
Nsbasg105
(lp2847
S'lea reg, aEqpD+0Ah'
p2848
aS'xor reg, reg'
p2849
aS'mov reg, reg'
p2850
aS'cregl appendText'
p2851
asg119
Nsg5
S'0x2053dL'
p2852
sg121
(lp2853
S'0x20520L'
p2854
asg6
Nsg123
(lp2855
S'0x2054eL'
p2856
asg127
Nsg128
Nsg129
S'ffd8f3515dd6249217085b26717de83e'
p2857
sg131
S'97003df38e75a33abe4a4f31cac96926'
p2858
sg133
(lp2859
g2824
ag2831
ag2838
ag2845
asg135
Nsba(ibclass
BBasicBlock
p2860
(dp2861
g12
Nsg13
(lp2862
(ibclass
BInstr
p2863
(dp2864
g2
Nsg17
S'add     rbp, 8'
p2865
sg19
S'4883c508'
p2866
sg21
Vadd rbp, 8
p2867
sg5
L132430L
sg6
Nsg23
S'add'
p2868
sg25
S'0x2054eL'
p2869
sg27
Nsba(ibclass
BInstr
p2870
(dp2871
g2
Nsg17
S'mov     rdi, [rbp-8]'
p2872
sg19
S'488b7df8'
p2873
sg21
Vmov rdi, qword ptr [rbp - 8]
p2874
sg5
L132434L
sg6
Nsg23
S'mov'
p2875
sg25
S'0x20552L'
p2876
sg27
Nsba(ibclass
BInstr
p2877
(dp2878
g2
Nsg17
S'test    rdi, rdi'
p2879
sg19
S'4885ff'
p2880
sg21
Vtest rdi, rdi
p2881
sg5
L132438L
sg6
Nsg23
S'test'
p2882
sg25
S'0x20556L'
p2883
sg27
Nsba(ibclass
BInstr
p2884
(dp2885
g2
Nsg17
S'jnz     short loc_20520'
p2886
sg19
S'75c5'
p2887
sg21
Vjne 0xffffffffffffffc7
p2888
sg5
L132441L
sg6
Nsg23
S'jnz'
p2889
sg25
S'0x20559L'
p2890
sg27
Nsbasg105
(lp2891
S'add reg, 8'
p2892
aS'mov reg, mem'
p2893
aS'test reg, reg'
p2894
aS'jnz func'
p2895
asg119
Nsg5
S'0x2054eL'
p2896
sg121
(lp2897
S'0x20520L'
p2898
aS'0x2053dL'
p2899
asg6
Nsg123
(lp2900
S'0x20520L'
p2901
aS'0x2055bL'
p2902
asg127
Nsg128
Nsg129
S'e3f07c8a4c870eb4a8aa706a434c0657'
p2903
sg131
S'f8de1c6c8a80e6c2002c4d316536a273'
p2904
sg133
(lp2905
g2868
ag2875
ag2882
ag2889
asg135
Nsba(ibclass
BBasicBlock
p2906
(dp2907
g12
Nsg13
(lp2908
(ibclass
BInstr
p2909
(dp2910
g2
Nsg17
S'mov     rdi, r12        ; azCol'
p2911
sg19
S'4c89e7'
p2912
sg21
Vmov rdi, r12
p2913
sg5
L132443L
sg6
Nsg23
S'mov'
p2914
sg25
S'0x2055bL'
p2915
sg27
Nsba(ibclass
BInstr
p2916
(dp2917
g2
Nsg17
S'call    freeColumnList'
p2918
sg19
S'e8ed17ffff'
p2919
sg21
Vcall 0xffffffffffff17f2
p2920
sg5
L132446L
sg6
Nsg23
S'call'
p2921
sg25
S'0x2055eL'
p2922
sg27
Nsba(ibclass
BInstr
p2923
(dp2924
g2
Nsg17
S'lea     rsi, aFrom      ; " FROM "'
p2925
sg19
S'488d3505870d00'
p2926
sg21
Vlea rsi, [rip + 0xd8705]
p2927
sg5
L132451L
sg6
Nsg23
S'lea'
p2928
sg25
S'0x20563L'
p2929
sg27
Nsba(ibclass
BInstr
p2930
(dp2931
g2
Nsg17
S'xor     edx, edx        ; quote'
p2932
sg19
S'31d2'
p2933
sg21
Vxor edx, edx
p2934
sg5
L132458L
sg6
Nsg23
S'xor'
p2935
sg25
S'0x2056aL'
p2936
sg27
Nsba(ibclass
BInstr
p2937
(dp2938
g2
Nsg17
S'mov     rdi, rbx        ; p'
p2939
sg19
S'4889df'
p2940
sg21
Vmov rdi, rbx
p2941
sg5
L132460L
sg6
Nsg23
S'mov'
p2942
sg25
S'0x2056cL'
p2943
sg27
Nsba(ibclass
BInstr
p2944
(dp2945
g2
Nsg17
S'call    appendText'
p2946
sg19
S'e85c4effff'
p2947
sg21
Vcall 0xffffffffffff4e61
p2948
sg5
L132463L
sg6
Nsg23
S'call'
p2949
sg25
S'0x2056fL'
p2950
sg27
Nsba(ibclass
BInstr
p2951
(dp2952
g2
Nsg17
S'mov     r14, [rsp+98h+zTable]'
p2953
sg19
S'4c8b742418'
p2954
sg21
Vmov r14, qword ptr [rsp + 0x18]
p2955
sg5
L132468L
sg6
Nsg23
S'mov'
p2956
sg25
S'0x20574L'
p2957
sg27
Nsba(ibclass
BInstr
p2958
(dp2959
g2
Nsg17
S'mov     rdi, r14        ; zName'
p2960
sg19
S'4c89f7'
p2961
sg21
Vmov rdi, r14
p2962
sg5
L132473L
sg6
Nsg23
S'mov'
p2963
sg25
S'0x20579L'
p2964
sg27
Nsba(ibclass
BInstr
p2965
(dp2966
g2
Nsg17
S'call    quoteChar'
p2967
sg19
S'e8cf89ffff'
p2968
sg21
Vcall 0xffffffffffff89d4
p2969
sg5
L132476L
sg6
Nsg23
S'call'
p2970
sg25
S'0x2057cL'
p2971
sg27
Nsba(ibclass
BInstr
p2972
(dp2973
g2
Nsg17
S'mov     rsi, r14        ; zAppend'
p2974
sg19
S'4c89f6'
p2975
sg21
Vmov rsi, r14
p2976
sg5
L132481L
sg6
Nsg23
S'mov'
p2977
sg25
S'0x20581L'
p2978
sg27
Nsba(ibclass
BInstr
p2979
(dp2980
g2
Nsg17
S'movsx   edx, al         ; quote'
p2981
sg19
S'0fbed0'
p2982
sg21
Vmovsx edx, al
p2983
sg5
L132484L
sg6
Nsg23
S'movsx'
p2984
sg25
S'0x20584L'
p2985
sg27
Nsba(ibclass
BInstr
p2986
(dp2987
g2
Nsg17
S'mov     rdi, rbx        ; p'
p2988
sg19
S'4889df'
p2989
sg21
Vmov rdi, rbx
p2990
sg5
L132487L
sg6
Nsg23
S'mov'
p2991
sg25
S'0x20587L'
p2992
sg27
Nsba(ibclass
BInstr
p2993
(dp2994
g2
Nsg17
S'call    appendText'
p2995
sg19
S'e8414effff'
p2996
sg21
Vcall 0xffffffffffff4e46
p2997
sg5
L132490L
sg6
Nsg23
S'call'
p2998
sg25
S'0x2058aL'
p2999
sg27
Nsba(ibclass
BInstr
p3000
(dp3001
g2
Nsg17
S'mov     rax, [rsp+98h+sTable.z]'
p3002
sg19
S'488b442440'
p3003
sg21
Vmov rax, qword ptr [rsp + 0x40]
p3004
sg5
L132495L
sg6
Nsg23
S'mov'
p3005
sg25
S'0x2058fL'
p3006
sg27
Nsba(ibclass
BInstr
p3007
(dp3008
g2
Nsg17
S'mov     rsi, [rsp+98h+sSelect.z]; zSql'
p3009
sg19
S'488b742430'
p3010
sg21
Vmov rsi, qword ptr [rsp + 0x30]
p3011
sg5
L132500L
sg6
Nsg23
S'mov'
p3012
sg25
S'0x20594L'
p3013
sg27
Nsba(ibclass
BInstr
p3014
(dp3015
g2
Nsg17
S'xor     ecx, ecx        ; pArg'
p3016
sg19
S'31c9'
p3017
sg21
Vxor ecx, ecx
p3018
sg5
L132505L
sg6
Nsg23
S'xor'
p3019
sg25
S'0x20599L'
p3020
sg27
Nsba(ibclass
BInstr
p3021
(dp3022
g2
Nsg17
S'mov     rdi, [p]        ; db'
p3023
sg19
S'498b3f'
p3024
sg21
Vmov rdi, qword ptr [r15]
p3025
sg5
L132507L
sg6
Nsg23
S'mov'
p3026
sg25
S'0x2059bL'
p3027
sg27
Nsba(ibclass
BInstr
p3028
(dp3029
g2
Nsg17
S'mov     r13, [p+50h]'
p3030
sg19
S'4d8b6f50'
p3031
sg21
Vmov r13, qword ptr [r15 + 0x50]
p3032
sg5
L132510L
sg6
Nsg23
S'mov'
p3033
sg25
S'0x2059eL'
p3034
sg27
Nsba(ibclass
BInstr
p3035
(dp3036
g2
Nsg17
S'mov     rdx, p          ; xCallback'
p3037
sg19
S'4c89fa'
p3038
sg21
Vmov rdx, r15
p3039
sg5
L132514L
sg6
Nsg23
S'mov'
p3040
sg25
S'0x205a2L'
p3041
sg27
Nsba(ibclass
BInstr
p3042
(dp3043
g2
Nsg17
S'mov     r12d, [p+2Ch]'
p3044
sg19
S'458b672c'
p3045
sg21
Vmov r12d, dword ptr [r15 + 0x2c]
p3046
sg5
L132517L
sg6
Nsg23
S'mov'
p3047
sg25
S'0x205a5L'
p3048
sg27
Nsba(ibclass
BInstr
p3049
(dp3050
g2
Nsg17
S'mov     dword ptr [p+34h], 5'
p3051
sg19
S'41c7473405000000'
p3052
sg21
Vmov dword ptr [r15 + 0x34], 5
p3053
sg5
L132521L
sg6
Nsg23
S'mov'
p3054
sg25
S'0x205a9L'
p3055
sg27
Nsba(ibclass
BInstr
p3056
(dp3057
g2
Nsg17
S'mov     [p+50h], rax'
p3058
sg19
S'49894750'
p3059
sg21
Vmov qword ptr [r15 + 0x50], rax
p3060
sg5
L132529L
sg6
Nsg23
S'mov'
p3061
sg25
S'0x205b1L'
p3062
sg27
Nsba(ibclass
BInstr
p3063
(dp3064
g2
Nsg17
S'mov     dword ptr [p+2Ch], 5'
p3065
sg19
S'41c7472c05000000'
p3066
sg21
Vmov dword ptr [r15 + 0x2c], 5
p3067
sg5
L132533L
sg6
Nsg23
S'mov'
p3068
sg25
S'0x205b5L'
p3069
sg27
Nsba(ibclass
BInstr
p3070
(dp3071
g2
Nsg17
S'call    shell_exec'
p3072
sg19
S'e8eeefffff'
p3073
sg21
Vcall 0xffffffffffffeff3
p3074
sg5
L132541L
sg6
Nsg23
S'call'
p3075
sg25
S'0x205bdL'
p3076
sg27
Nsba(ibclass
BInstr
p3077
(dp3078
g2
Nsg17
S'cmp     al, 0Bh'
p3079
sg19
S'3c0b'
p3080
sg21
Vcmp al, 0xb
p3081
sg5
L132546L
sg6
Nsg23
S'cmp'
p3082
sg25
S'0x205c2L'
p3083
sg27
Nsba(ibclass
BInstr
p3084
(dp3085
g2
Nsg17
S'mov     ebp, eax'
p3086
sg19
S'89c5'
p3087
sg21
Vmov ebp, eax
p3088
sg5
L132548L
sg6
Nsg23
S'mov'
p3089
sg25
S'0x205c4L'
p3090
sg27
Nsba(ibclass
BInstr
p3091
(dp3092
g2
Nsg17
S'jz      loc_206B0'
p3093
sg19
S'0f84e4000000'
p3094
sg21
Vje 0xea
p3095
sg5
L132550L
sg6
Nsg23
S'jz'
p3096
sg25
S'0x205c6L'
p3097
sg27
Nsbasg105
(lp3098
S'mov reg, reg'
p3099
aS'cregl freeColumnList'
p3100
aS'lea reg, aFrom'
p3101
aS'xor reg, reg'
p3102
aS'mov reg, reg'
p3103
aS'cregl appendText'
p3104
aS'mov reg, mem'
p3105
aS'mov reg, reg'
p3106
aS'cregl quoteChar'
p3107
aS'mov reg, reg'
p3108
aS'movsx reg, reg'
p3109
aS'mov reg, reg'
p3110
aS'cregl appendText'
p3111
aS'mov reg, mem'
p3112
aS'mov reg, mem'
p3113
aS'xor reg, reg'
p3114
aS'mov reg, mem'
p3115
aS'mov reg, mem'
p3116
aS'mov reg, p'
p3117
aS'mov regd, mem'
p3118
aS'mov mem, 5'
p3119
aS'mov mem, reg'
p3120
aS'mov mem, 5'
p3121
aS'cregl shell_exec'
p3122
aS'cmp reg, 0Bh'
p3123
aS'mov reg, reg'
p3124
aS'jz func'
p3125
asg119
Nsg5
S'0x2055bL'
p3126
sg121
(lp3127
S'0x20507L'
p3128
aS'0x2054eL'
p3129
asg6
Nsg123
(lp3130
S'0x205ccL'
p3131
aS'0x206b0L'
p3132
asg127
Nsg128
Nsg129
S'bedd289ac3c770c7283e578c254f8338'
p3133
sg131
S'da35c6e401a82c641102dff8924a57cc'
p3134
sg133
(lp3135
g2914
ag2921
ag2928
ag2935
ag2942
ag2949
ag2956
ag2963
ag2970
ag2977
ag2984
ag2991
ag2998
ag3005
ag3012
ag3019
ag3026
ag3033
ag3040
ag3047
ag3054
ag3061
ag3068
ag3075
ag3082
ag3089
ag3096
asg135
Nsba(ibclass
BBasicBlock
p3136
(dp3137
g12
Nsg13
(lp3138
(ibclass
BInstr
p3139
(dp3140
g2
Nsg17
S'mov     rdi, [rsp+98h+ppStmt]; p'
p3141
sg19
S'488b7c2420'
p3142
sg21
Vmov rdi, qword ptr [rsp + 0x20]
p3143
sg5
L132556L
sg6
Nsg23
S'mov'
p3144
sg25
S'0x205ccL'
p3145
sg27
Nsba(ibclass
BInstr
p3146
(dp3147
g2
Nsg17
S'mov     [p+50h], savedDestTable'
p3148
sg19
S'4d896f50'
p3149
sg21
Vmov qword ptr [r15 + 0x50], r13
p3150
sg5
L132561L
sg6
Nsg23
S'mov'
p3151
sg25
S'0x205d1L'
p3152
sg27
Nsba(ibclass
BInstr
p3153
(dp3154
g2
Nsg17
S'mov     [p+2Ch], r12d'
p3155
sg19
S'4589672c'
p3156
sg21
Vmov dword ptr [r15 + 0x2c], r12d
p3157
sg5
L132565L
sg6
Nsg23
S'mov'
p3158
sg25
S'0x205d5L'
p3159
sg27
Nsba(ibclass
BInstr
p3160
(dp3161
g2
Nsg17
S'call    freeText'
p3162
sg19
S'e88251ffff'
p3163
sg21
Vcall 0xffffffffffff5187
p3164
sg5
L132569L
sg6
Nsg23
S'call'
p3165
sg25
S'0x205d9L'
p3166
sg27
Nsba(ibclass
BInstr
p3167
(dp3168
g2
Nsg17
S'mov     rdi, rbx        ; p'
p3169
sg19
S'4889df'
p3170
sg21
Vmov rdi, rbx
p3171
sg5
L132574L
sg6
Nsg23
S'mov'
p3172
sg25
S'0x205deL'
p3173
sg27
Nsba(ibclass
BInstr
p3174
(dp3175
g2
Nsg17
S'call    freeText'
p3176
sg19
S'e87a51ffff'
p3177
sg21
Vcall 0xffffffffffff517f
p3178
sg5
L132577L
sg6
Nsg23
S'call'
p3179
sg25
S'0x205e1L'
p3180
sg27
Nsba(ibclass
BInstr
p3181
(dp3182
g2
Nsg17
S'test    ebp, ebp'
p3183
sg19
S'85ed'
p3184
sg21
Vtest ebp, ebp
p3185
sg5
L132582L
sg6
Nsg23
S'test'
p3186
sg25
S'0x205e6L'
p3187
sg27
Nsba(ibclass
BInstr
p3188
(dp3189
g2
Nsg17
S'jz      loc_20108'
p3190
sg19
S'0f841afbffff'
p3191
sg21
Vje 0xfffffffffffffb20
p3192
sg5
L132584L
sg6
Nsg23
S'jz'
p3193
sg25
S'0x205e8L'
p3194
sg27
Nsbasg105
(lp3195
S'mov reg, mem'
p3196
aS'mov mem, savedDestTarege'
p3197
aS'mov mem, regd'
p3198
aS'cregl freeText'
p3199
aS'mov reg, reg'
p3200
aS'cregl freeText'
p3201
aS'test reg, reg'
p3202
aS'jz func'
p3203
asg119
Nsg5
S'0x205ccL'
p3204
sg121
(lp3205
S'0x2055bL'
p3206
asg6
Nsg123
(lp3207
S'0x20108L'
p3208
aS'0x205eeL'
p3209
asg127
Nsg128
Nsg129
S'23808ed28d9f0f3e18350af50f908dbc'
p3210
sg131
S'77d395c9892e8bc4dac003e5e1a19963'
p3211
sg133
(lp3212
g3144
ag3151
ag3158
ag3165
ag3172
ag3179
ag3186
ag3193
asg135
Nsba(ibclass
BBasicBlock
p3213
(dp3214
g12
Nsg13
(lp3215
(ibclass
BInstr
p3216
(dp3217
g2
Nsg17
S'add     dword ptr [p+28h], 1'
p3218
sg19
S'4183472801'
p3219
sg21
Vadd dword ptr [r15 + 0x28], 1
p3220
sg5
L132590L
sg6
Nsg23
S'add'
p3221
sg25
S'0x205eeL'
p3222
sg27
Nsba(ibclass
BInstr
p3223
(dp3224
g2
Nsg17
S'jmp     loc_20108'
p3225
sg19
S'e910fbffff'
p3226
sg21
Vjmp 0xfffffffffffffb15
p3227
sg5
L132595L
sg6
Nsg23
S'jmp'
p3228
sg25
S'0x205f3L'
p3229
sg27
Nsbasg105
(lp3230
S'add mem, 1'
p3231
aS'jmp func'
p3232
asg119
Nsg5
S'0x205eeL'
p3233
sg121
(lp3234
S'0x201f0L'
p3235
aS'0x20330L'
p3236
aS'0x205ccL'
p3237
aS'0x206b0L'
p3238
aS'0x20757L'
p3239
asg6
Nsg123
(lp3240
S'0x20108L'
p3241
asg127
Nsg128
Nsg129
S'2f5fc2d28a4b560475b91fa819afa41f'
p3242
sg131
S'4575e0fb531856be504b564b434c96e4'
p3243
sg133
(lp3244
g3221
ag3228
asg135
Nsba(ibclass
BBasicBlock
p3245
(dp3246
g12
Nsg13
(lp3247
(ibclass
BInstr
p3248
(dp3249
g2
Nsg17
S'mov     rcx, [p+18h]    ; s'
p3250
sg19
S'498b4f18'
p3251
sg21
Vmov rcx, qword ptr [r15 + 0x18]
p3252
sg5
L132608L
sg6
Nsg23
S'mov'
p3253
sg25
S'0x20600L'
p3254
sg27
Nsba(ibclass
BInstr
p3255
(dp3256
g2
Nsg17
S'lea     rdi, aAnalyzeSqlit_0; "ANALYZE sqlite_master;\\n"'
p3257
sg19
S'488d3dc27a0d00'
p3258
sg21
Vlea rdi, [rip + 0xd7ac2]
p3259
sg5
L132612L
sg6
Nsg23
S'lea'
p3260
sg25
S'0x20604L'
p3261
sg27
Nsba(ibclass
BInstr
p3262
(dp3263
g2
Nsg17
S'mov     edx, 17h        ; n'
p3264
sg19
S'ba17000000'
p3265
sg21
Vmov edx, 0x17
p3266
sg5
L132619L
sg6
Nsg23
S'mov'
p3267
sg25
S'0x2060bL'
p3268
sg27
Nsba(ibclass
BInstr
p3269
(dp3270
g2
Nsg17
S'mov     esi, 1          ; size'
p3271
sg19
S'be01000000'
p3272
sg21
Vmov esi, 1
p3273
sg5
L132624L
sg6
Nsg23
S'mov'
p3274
sg25
S'0x20610L'
p3275
sg27
Nsba(ibclass
BInstr
p3276
(dp3277
g2
Nsg17
S'call    fwrite'
p3278
sg19
S'e8f6bdfeff'
p3279
sg21
Vcall 0xfffffffffffebdfb
p3280
sg5
L132629L
sg6
Nsg23
S'call'
p3281
sg25
S'0x20615L'
p3282
sg27
Nsba(ibclass
BInstr
p3283
(dp3284
g2
Nsg17
S'jmp     loc_200F1'
p3285
sg19
S'e9d2faffff'
p3286
sg21
Vjmp 0xfffffffffffffad7
p3287
sg5
L132634L
sg6
Nsg23
S'jmp'
p3288
sg25
S'0x2061aL'
p3289
sg27
Nsbasg105
(lp3290
S'mov reg, mem'
p3291
aS'lea reg, aAnregyzeSqlit_0'
p3292
aS'mov reg, 17h'
p3293
aS'mov reg, 1'
p3294
aS'cregl fwrite'
p3295
aS'jmp func'
p3296
asg119
Nsg5
S'0x20600L'
p3297
sg121
(lp3298
S'0x20130L'
p3299
asg6
Nsg123
(lp3300
S'0x200f1L'
p3301
asg127
Nsg128
Nsg129
S'4a5ac3a6e27ad62138cbb7956191b119'
p3302
sg131
S'e4b8390670e6fbc2edcf5be4ca5ea4ce'
p3303
sg133
(lp3304
g3253
ag3260
ag3267
ag3274
ag3281
ag3288
asg135
Nsba(ibclass
BBasicBlock
p3305
(dp3306
g12
Nsg13
(lp3307
(ibclass
BInstr
p3308
(dp3309
g2
Nsg17
S'lea     rax, [r12+8]'
p3310
sg19
S'498d442408'
p3311
sg21
Vlea rax, [r12 + 8]
p3312
sg5
L132640L
sg6
Nsg23
S'lea'
p3313
sg25
S'0x20620L'
p3314
sg27
Nsba(ibclass
BInstr
p3315
(dp3316
g2
Nsg17
S'mov     [rsp+98h+var_88], rax'
p3317
sg19
S'4889442410'
p3318
sg21
Vmov qword ptr [rsp + 0x10], rax
p3319
sg5
L132645L
sg6
Nsg23
S'mov'
p3320
sg25
S'0x20625L'
p3321
sg27
Nsba(ibclass
BInstr
p3322
(dp3323
g2
Nsg17
S'jmp     loc_203F3'
p3324
sg19
S'e9c4fdffff'
p3325
sg21
Vjmp 0xfffffffffffffdc9
p3326
sg5
L132650L
sg6
Nsg23
S'jmp'
p3327
sg25
S'0x2062aL'
p3328
sg27
Nsbasg105
(lp3329
S'lea reg, mem'
p3330
aS'mov mem, reg'
p3331
aS'jmp func'
p3332
asg119
Nsg5
S'0x20620L'
p3333
sg121
(lp3334
S'0x2036fL'
p3335
asg6
Nsg123
(lp3336
S'0x203f3L'
p3337
asg127
Nsg128
Nsg129
S'63dfe74c4487916b40802d25a76d3bfe'
p3338
sg131
S'bfd5f73e970218eb4731b332ab9e8aed'
p3339
sg133
(lp3340
g3313
ag3320
ag3327
asg135
Nsba(ibclass
BBasicBlock
p3341
(dp3342
g12
Nsg13
(lp3343
(ibclass
BInstr
p3344
(dp3345
g2
Nsg17
S'mov     rsi, [rsp+98h+zTable]'
p3346
sg19
S'488b742418'
p3347
sg21
Vmov rsi, qword ptr [rsp + 0x18]
p3348
sg5
L132656L
sg6
Nsg23
S'mov'
p3349
sg25
S'0x20630L'
p3350
sg27
Nsba(ibclass
BInstr
p3351
(dp3352
g2
Nsg17
S'lea     rdi, aSelect1FromPra; "SELECT 1 FROM pragma_index_list(%Q) WHE"...'
p3353
sg19
S'488d3d94a60d00'
p3354
sg21
Vlea rdi, [rip + 0xda694]
p3355
sg5
L132661L
sg6
Nsg23
S'lea'
p3356
sg25
S'0x20635L'
p3357
sg27
Nsba(ibclass
BInstr
p3358
(dp3359
g2
Nsg17
S'xor     eax, eax'
p3360
sg19
S'31c0'
p3361
sg21
Vxor eax, eax
p3362
sg5
L132668L
sg6
Nsg23
S'xor'
p3363
sg25
S'0x2063cL'
p3364
sg27
Nsba(ibclass
BInstr
p3365
(dp3366
g2
Nsg17
S'call    sqlite3_mprintf'
p3367
sg19
S'e81d9f0500'
p3368
sg21
Vcall 0x59f22
p3369
sg5
L132670L
sg6
Nsg23
S'call'
p3370
sg25
S'0x2063eL'
p3371
sg27
Nsba(ibclass
BInstr
p3372
(dp3373
g2
Nsg17
S'mov     rcx, [rsp+98h+ppStmt]; ppStmt'
p3374
sg19
S'488b4c2420'
p3375
sg21
Vmov rcx, qword ptr [rsp + 0x20]
p3376
sg5
L132675L
sg6
Nsg23
S'mov'
p3377
sg25
S'0x20643L'
p3378
sg27
Nsba(ibclass
BInstr
p3379
(dp3380
g2
Nsg17
S'mov     rdi, [p]        ; db'
p3381
sg19
S'498b3f'
p3382
sg21
Vmov rdi, qword ptr [r15]
p3383
sg5
L132680L
sg6
Nsg23
S'mov'
p3384
sg25
S'0x20648L'
p3385
sg27
Nsba(ibclass
BInstr
p3386
(dp3387
g2
Nsg17
S'xor     r8d, r8d        ; pzTail'
p3388
sg19
S'4531c0'
p3389
sg21
Vxor r8d, r8d
p3390
sg5
L132683L
sg6
Nsg23
S'xor'
p3391
sg25
S'0x2064bL'
p3392
sg27
Nsba(ibclass
BInstr
p3393
(dp3394
g2
Nsg17
S'mov     rbp, rax'
p3395
sg19
S'4889c5'
p3396
sg21
Vmov rbp, rax
p3397
sg5
L132686L
sg6
Nsg23
S'mov'
p3398
sg25
S'0x2064eL'
p3399
sg27
Nsba(ibclass
BInstr
p3400
(dp3401
g2
Nsg17
S'mov     edx, 0FFFFFFFFh ; nBytes'
p3402
sg19
S'baffffffff'
p3403
sg21
Vmov edx, 0xffffffff
p3404
sg5
L132689L
sg6
Nsg23
S'mov'
p3405
sg25
S'0x20651L'
p3406
sg27
Nsba(ibclass
BInstr
p3407
(dp3408
g2
Nsg17
S'mov     rsi, rax        ; zSql'
p3409
sg19
S'4889c6'
p3410
sg21
Vmov rsi, rax
p3411
sg5
L132694L
sg6
Nsg23
S'mov'
p3412
sg25
S'0x20656L'
p3413
sg27
Nsba(ibclass
BInstr
p3414
(dp3415
g2
Nsg17
S'call    sqlite3_prepare_v2'
p3416
sg19
S'e8e28b0a00'
p3417
sg21
Vcall 0xa8be7
p3418
sg5
L132697L
sg6
Nsg23
S'call'
p3419
sg25
S'0x20659L'
p3420
sg27
Nsba(ibclass
BInstr
p3421
(dp3422
g2
Nsg17
S'mov     rdi, rbp        ; p'
p3423
sg19
S'4889ef'
p3424
sg21
Vmov rdi, rbp
p3425
sg5
L132702L
sg6
Nsg23
S'mov'
p3426
sg25
S'0x2065eL'
p3427
sg27
Nsba(ibclass
BInstr
p3428
(dp3429
g2
Nsg17
S'mov     r13d, eax'
p3430
sg19
S'4189c5'
p3431
sg21
Vmov r13d, eax
p3432
sg5
L132705L
sg6
Nsg23
S'mov'
p3433
sg25
S'0x20661L'
p3434
sg27
Nsba(ibclass
BInstr
p3435
(dp3436
g2
Nsg17
S'call    sqlite3_free'
p3437
sg19
S'e857470100'
p3438
sg21
Vcall 0x1475c
p3439
sg5
L132708L
sg6
Nsg23
S'call'
p3440
sg25
S'0x20664L'
p3441
sg27
Nsba(ibclass
BInstr
p3442
(dp3443
g2
Nsg17
S'test    r13d, r13d'
p3444
sg19
S'4585ed'
p3445
sg21
Vtest r13d, r13d
p3446
sg5
L132713L
sg6
Nsg23
S'test'
p3447
sg25
S'0x20669L'
p3448
sg27
Nsba(ibclass
BInstr
p3449
(dp3450
g2
Nsg17
S'jnz     loc_20757'
p3451
sg19
S'0f85e5000000'
p3452
sg21
Vjne 0xeb
p3453
sg5
L132716L
sg6
Nsg23
S'jnz'
p3454
sg25
S'0x2066cL'
p3455
sg27
Nsbasg105
(lp3456
S'mov reg, mem'
p3457
aS'lea reg, aSelect1FromPra'
p3458
aS'xor reg, reg'
p3459
aS'cregl sqlite3_mprintf'
p3460
aS'mov reg, mem'
p3461
aS'mov reg, mem'
p3462
aS'xor regd, regd'
p3463
aS'mov reg, reg'
p3464
aS'mov reg, 0FFFFFFFFh'
p3465
aS'mov reg, reg'
p3466
aS'cregl sqlite3_prepare_v2'
p3467
aS'mov reg, reg'
p3468
aS'mov regd, reg'
p3469
aS'cregl sqlite3_free'
p3470
aS'test regd, regd'
p3471
aS'jnz func'
p3472
asg119
Nsg5
S'0x20630L'
p3473
sg121
(lp3474
S'0x2035fL'
p3475
asg6
Nsg123
(lp3476
S'0x20672L'
p3477
aS'0x20757L'
p3478
asg127
Nsg128
Nsg129
S'427c1e0cc1a80a8bab1d7f68d7185a37'
p3479
sg131
S'd49c4d92c2e7150e752a423a3a4d4254'
p3480
sg133
(lp3481
g3349
ag3356
ag3363
ag3370
ag3377
ag3384
ag3391
ag3398
ag3405
ag3412
ag3419
ag3426
ag3433
ag3440
ag3447
ag3454
asg135
Nsba(ibclass
BBasicBlock
p3482
(dp3483
g12
Nsg13
(lp3484
(ibclass
BInstr
p3485
(dp3486
g2
Nsg17
S'mov     rdi, [rsp+98h+sTable.z]; pStmt'
p3487
sg19
S'488b7c2440'
p3488
sg21
Vmov rdi, qword ptr [rsp + 0x40]
p3489
sg5
L132722L
sg6
Nsg23
S'mov'
p3490
sg25
S'0x20672L'
p3491
sg27
Nsba(ibclass
BInstr
p3492
(dp3493
g2
Nsg17
S'call    sqlite3_step'
p3494
sg19
S'e8643a0900'
p3495
sg21
Vcall 0x93a69
p3496
sg5
L132727L
sg6
Nsg23
S'call'
p3497
sg25
S'0x20677L'
p3498
sg27
Nsba(ibclass
BInstr
p3499
(dp3500
g2
Nsg17
S'mov     rdi, [rsp+98h+sTable.z]; pStmt'
p3501
sg19
S'488b7c2440'
p3502
sg21
Vmov rdi, qword ptr [rsp + 0x40]
p3503
sg5
L132732L
sg6
Nsg23
S'mov'
p3504
sg25
S'0x2067cL'
p3505
sg27
Nsba(ibclass
BInstr
p3506
(dp3507
g2
Nsg17
S'mov     ebp, eax'
p3508
sg19
S'89c5'
p3509
sg21
Vmov ebp, eax
p3510
sg5
L132737L
sg6
Nsg23
S'mov'
p3511
sg25
S'0x20681L'
p3512
sg27
Nsba(ibclass
BInstr
p3513
(dp3514
g2
Nsg17
S'call    sqlite3_finalize'
p3515
sg19
S'e8b8490800'
p3516
sg21
Vcall 0x849bd
p3517
sg5
L132739L
sg6
Nsg23
S'call'
p3518
sg25
S'0x20683L'
p3519
sg27
Nsba(ibclass
BInstr
p3520
(dp3521
g2
Nsg17
S'xor     eax, eax'
p3522
sg19
S'31c0'
p3523
sg21
Vxor eax, eax
p3524
sg5
L132744L
sg6
Nsg23
S'xor'
p3525
sg25
S'0x20688L'
p3526
sg27
Nsba(ibclass
BInstr
p3527
(dp3528
g2
Nsg17
S'cmp     ebp, 64h'
p3529
sg19
S'83fd64'
p3530
sg21
Vcmp ebp, 0x64
p3531
sg5
L132746L
sg6
Nsg23
S'cmp'
p3532
sg25
S'0x2068aL'
p3533
sg27
Nsba(ibclass
BInstr
p3534
(dp3535
g2
Nsg17
S'setz    al'
p3536
sg19
S'0f94c0'
p3537
sg21
Vsete al
p3538
sg5
L132749L
sg6
Nsg23
S'setz'
p3539
sg25
S'0x2068dL'
p3540
sg27
Nsba(ibclass
BInstr
p3541
(dp3542
g2
Nsg17
S'jmp     loc_2036F'
p3543
sg19
S'e9dafcffff'
p3544
sg21
Vjmp 0xfffffffffffffcdf
p3545
sg5
L132752L
sg6
Nsg23
S'jmp'
p3546
sg25
S'0x20690L'
p3547
sg27
Nsbasg105
(lp3548
S'mov reg, mem'
p3549
aS'cregl sqlite3_step'
p3550
aS'mov reg, mem'
p3551
aS'mov reg, reg'
p3552
aS'cregl sqlite3_finregize'
p3553
aS'xor reg, reg'
p3554
aS'cmp reg, 64h'
p3555
aS'setz reg'
p3556
aS'jmp func'
p3557
asg119
Nsg5
S'0x20672L'
p3558
sg121
(lp3559
S'0x20630L'
p3560
asg6
Nsg123
(lp3561
S'0x2036fL'
p3562
asg127
Nsg128
Nsg129
S'82de5b1c35677dcab93907d17f8501a0'
p3563
sg131
S'b7485fda2995ab72aafb9fce7a9f4958'
p3564
sg133
(lp3565
g3490
ag3497
ag3504
ag3511
ag3518
ag3525
ag3532
ag3539
ag3546
asg135
Nsba(ibclass
BBasicBlock
p3566
(dp3567
g12
Nsg13
(lp3568
(ibclass
BInstr
p3569
(dp3570
g2
Nsg17
S'mov     rdi, [p+18h]    ; out'
p3571
sg19
S'498b7f18'
p3572
sg21
Vmov rdi, qword ptr [r15 + 0x18]
p3573
sg5
L132760L
sg6
Nsg23
S'mov'
p3574
sg25
S'0x20698L'
p3575
sg27
Nsba(ibclass
BInstr
p3576
(dp3577
g2
Nsg17
S'lea     rdx, asc_F7EA0+1; zTail'
p3578
sg19
S'488d15fe770d00'
p3579
sg21
Vlea rdx, [rip + 0xd77fe]
p3580
sg5
L132764L
sg6
Nsg23
S'lea'
p3581
sg25
S'0x2069cL'
p3582
sg27
Nsba(ibclass
BInstr
p3583
(dp3584
g2
Nsg17
S'mov     rsi, rbp        ; z'
p3585
sg19
S'4889ee'
p3586
sg21
Vmov rsi, rbp
p3587
sg5
L132771L
sg6
Nsg23
S'mov'
p3588
sg25
S'0x206a3L'
p3589
sg27
Nsba(ibclass
BInstr
p3590
(dp3591
g2
Nsg17
S'call    printSchemaLine'
p3592
sg19
S'e865a7ffff'
p3593
sg21
Vcall 0xffffffffffffa76a
p3594
sg5
L132774L
sg6
Nsg23
S'call'
p3595
sg25
S'0x206a6L'
p3596
sg27
Nsba(ibclass
BInstr
p3597
(dp3598
g2
Nsg17
S'jmp     loc_200F1'
p3599
sg19
S'e941faffff'
p3600
sg21
Vjmp 0xfffffffffffffa46
p3601
sg5
L132779L
sg6
Nsg23
S'jmp'
p3602
sg25
S'0x206abL'
p3603
sg27
Nsbasg105
(lp3604
S'mov reg, mem'
p3605
aS'lea reg, func+1'
p3606
aS'mov reg, reg'
p3607
aS'cregl printSchemaLine'
p3608
aS'jmp func'
p3609
asg119
Nsg5
S'0x20698L'
p3610
sg121
(lp3611
S'0x20162L'
p3612
asg6
Nsg123
(lp3613
S'0x200f1L'
p3614
asg127
Nsg128
Nsg129
S'b04933084fb11ccc44733413adcff717'
p3615
sg131
S'c3ec773ad17a9c82b60b6dffb0e445fa'
p3616
sg133
(lp3617
g3574
ag3581
ag3588
ag3595
ag3602
asg135
Nsba(ibclass
BBasicBlock
p3618
(dp3619
g12
Nsg13
(lp3620
(ibclass
BInstr
p3621
(dp3622
g2
Nsg17
S'mov     rcx, [p+18h]    ; s'
p3623
sg19
S'498b4f18'
p3624
sg21
Vmov rcx, qword ptr [r15 + 0x18]
p3625
sg5
L132784L
sg6
Nsg23
S'mov'
p3626
sg25
S'0x206b0L'
p3627
sg27
Nsba(ibclass
BInstr
p3628
(dp3629
g2
Nsg17
S'lea     rdi, s          ; "/****** CORRUPTION ERROR *******/\\n"'
p3630
sg19
S'488d3d65940d00'
p3631
sg21
Vlea rdi, [rip + 0xd9465]
p3632
sg5
L132788L
sg6
Nsg23
S'lea'
p3633
sg25
S'0x206b4L'
p3634
sg27
Nsba(ibclass
BInstr
p3635
(dp3636
g2
Nsg17
S'mov     edx, 22h        ; n'
p3637
sg19
S'ba22000000'
p3638
sg21
Vmov edx, 0x22
p3639
sg5
L132795L
sg6
Nsg23
S'mov'
p3640
sg25
S'0x206bbL'
p3641
sg27
Nsba(ibclass
BInstr
p3642
(dp3643
g2
Nsg17
S'mov     esi, 1          ; size'
p3644
sg19
S'be01000000'
p3645
sg21
Vmov esi, 1
p3646
sg5
L132800L
sg6
Nsg23
S'mov'
p3647
sg25
S'0x206c0L'
p3648
sg27
Nsba(ibclass
BInstr
p3649
(dp3650
g2
Nsg17
S'call    fwrite'
p3651
sg19
S'e846bdfeff'
p3652
sg21
Vcall 0xfffffffffffebd4b
p3653
sg5
L132805L
sg6
Nsg23
S'call'
p3654
sg25
S'0x206c5L'
p3655
sg27
Nsba(ibclass
BInstr
p3656
(dp3657
g2
Nsg17
S'mov     rdi, [p]        ; db'
p3658
sg19
S'498b3f'
p3659
sg21
Vmov rdi, qword ptr [r15]
p3660
sg5
L132810L
sg6
Nsg23
S'mov'
p3661
sg25
S'0x206caL'
p3662
sg27
Nsba(ibclass
BInstr
p3663
(dp3664
g2
Nsg17
S'call    toggleSelectOrder'
p3665
sg19
S'e8be4fffff'
p3666
sg21
Vcall 0xffffffffffff4fc3
p3667
sg5
L132813L
sg6
Nsg23
S'call'
p3668
sg25
S'0x206cdL'
p3669
sg27
Nsba(ibclass
BInstr
p3670
(dp3671
g2
Nsg17
S'mov     rsi, [rsp+98h+sSelect.z]; zSql'
p3672
sg19
S'488b742430'
p3673
sg21
Vmov rsi, qword ptr [rsp + 0x30]
p3674
sg5
L132818L
sg6
Nsg23
S'mov'
p3675
sg25
S'0x206d2L'
p3676
sg27
Nsba(ibclass
BInstr
p3677
(dp3678
g2
Nsg17
S'mov     rdi, [p]        ; db'
p3679
sg19
S'498b3f'
p3680
sg21
Vmov rdi, qword ptr [r15]
p3681
sg5
L132823L
sg6
Nsg23
S'mov'
p3682
sg25
S'0x206d7L'
p3683
sg27
Nsba(ibclass
BInstr
p3684
(dp3685
g2
Nsg17
S'xor     ecx, ecx        ; pArg'
p3686
sg19
S'31c9'
p3687
sg21
Vxor ecx, ecx
p3688
sg5
L132826L
sg6
Nsg23
S'xor'
p3689
sg25
S'0x206daL'
p3690
sg27
Nsba(ibclass
BInstr
p3691
(dp3692
g2
Nsg17
S'mov     rdx, p          ; xCallback'
p3693
sg19
S'4c89fa'
p3694
sg21
Vmov rdx, r15
p3695
sg5
L132828L
sg6
Nsg23
S'mov'
p3696
sg25
S'0x206dcL'
p3697
sg27
Nsba(ibclass
BInstr
p3698
(dp3699
g2
Nsg17
S'call    shell_exec'
p3700
sg19
S'e8cceeffff'
p3701
sg21
Vcall 0xffffffffffffeed1
p3702
sg5
L132831L
sg6
Nsg23
S'call'
p3703
sg25
S'0x206dfL'
p3704
sg27
Nsba(ibclass
BInstr
p3705
(dp3706
g2
Nsg17
S'mov     rdi, [p]        ; db'
p3707
sg19
S'498b3f'
p3708
sg21
Vmov rdi, qword ptr [r15]
p3709
sg5
L132836L
sg6
Nsg23
S'mov'
p3710
sg25
S'0x206e4L'
p3711
sg27
Nsba(ibclass
BInstr
p3712
(dp3713
g2
Nsg17
S'call    toggleSelectOrder'
p3714
sg19
S'e8a44fffff'
p3715
sg21
Vcall 0xffffffffffff4fa9
p3716
sg5
L132839L
sg6
Nsg23
S'call'
p3717
sg25
S'0x206e7L'
p3718
sg27
Nsba(ibclass
BInstr
p3719
(dp3720
g2
Nsg17
S'mov     rdi, [rsp+98h+ppStmt]; p'
p3721
sg19
S'488b7c2420'
p3722
sg21
Vmov rdi, qword ptr [rsp + 0x20]
p3723
sg5
L132844L
sg6
Nsg23
S'mov'
p3724
sg25
S'0x206ecL'
p3725
sg27
Nsba(ibclass
BInstr
p3726
(dp3727
g2
Nsg17
S'mov     [p+50h], savedDestTable'
p3728
sg19
S'4d896f50'
p3729
sg21
Vmov qword ptr [r15 + 0x50], r13
p3730
sg5
L132849L
sg6
Nsg23
S'mov'
p3731
sg25
S'0x206f1L'
p3732
sg27
Nsba(ibclass
BInstr
p3733
(dp3734
g2
Nsg17
S'mov     [p+2Ch], r12d'
p3735
sg19
S'4589672c'
p3736
sg21
Vmov dword ptr [r15 + 0x2c], r12d
p3737
sg5
L132853L
sg6
Nsg23
S'mov'
p3738
sg25
S'0x206f5L'
p3739
sg27
Nsba(ibclass
BInstr
p3740
(dp3741
g2
Nsg17
S'call    freeText'
p3742
sg19
S'e86250ffff'
p3743
sg21
Vcall 0xffffffffffff5067
p3744
sg5
L132857L
sg6
Nsg23
S'call'
p3745
sg25
S'0x206f9L'
p3746
sg27
Nsba(ibclass
BInstr
p3747
(dp3748
g2
Nsg17
S'mov     rdi, rbx        ; p'
p3749
sg19
S'4889df'
p3750
sg21
Vmov rdi, rbx
p3751
sg5
L132862L
sg6
Nsg23
S'mov'
p3752
sg25
S'0x206feL'
p3753
sg27
Nsba(ibclass
BInstr
p3754
(dp3755
g2
Nsg17
S'call    freeText'
p3756
sg19
S'e85a50ffff'
p3757
sg21
Vcall 0xffffffffffff505f
p3758
sg5
L132865L
sg6
Nsg23
S'call'
p3759
sg25
S'0x20701L'
p3760
sg27
Nsba(ibclass
BInstr
p3761
(dp3762
g2
Nsg17
S'jmp     loc_205EE'
p3763
sg19
S'e9e3feffff'
p3764
sg21
Vjmp 0xfffffffffffffee8
p3765
sg5
L132870L
sg6
Nsg23
S'jmp'
p3766
sg25
S'0x20706L'
p3767
sg27
Nsbasg105
(lp3768
S'mov reg, mem'
p3769
aS'lea reg, s'
p3770
aS'mov reg, 22h'
p3771
aS'mov reg, 1'
p3772
aS'cregl fwrite'
p3773
aS'mov reg, mem'
p3774
aS'cregl toggleSelectOrder'
p3775
aS'mov reg, mem'
p3776
aS'mov reg, mem'
p3777
aS'xor reg, reg'
p3778
aS'mov reg, p'
p3779
aS'cregl shell_exec'
p3780
aS'mov reg, mem'
p3781
aS'cregl toggleSelectOrder'
p3782
aS'mov reg, mem'
p3783
aS'mov mem, savedDestTarege'
p3784
aS'mov mem, regd'
p3785
aS'cregl freeText'
p3786
aS'mov reg, reg'
p3787
aS'cregl freeText'
p3788
aS'jmp func'
p3789
asg119
Nsg5
S'0x206b0L'
p3790
sg121
(lp3791
S'0x2055bL'
p3792
asg6
Nsg123
(lp3793
S'0x205eeL'
p3794
asg127
Nsg128
Nsg129
S'525b6b2d0c85b3b9c4e86f3debfacdb1'
p3795
sg131
S'a29c8756b4a40addbd16a3c7e331715b'
p3796
sg133
(lp3797
g3626
ag3633
ag3640
ag3647
ag3654
ag3661
ag3668
ag3675
ag3682
ag3689
ag3696
ag3703
ag3710
ag3717
ag3724
ag3731
ag3738
ag3745
ag3752
ag3759
ag3766
asg135
Nsba(ibclass
BBasicBlock
p3798
(dp3799
g12
Nsg13
(lp3800
(ibclass
BInstr
p3801
(dp3802
g2
Nsg17
S'movsxd  rax, [rsp+98h+var_6C]'
p3803
sg19
S'486344242c'
p3804
sg21
Vmovsxd rax, dword ptr [rsp + 0x2c]
p3805
sg5
L132875L
sg6
Nsg23
S'movsxd'
p3806
sg25
S'0x2070bL'
p3807
sg27
Nsba(ibclass
BInstr
p3808
(dp3809
g2
Nsg17
S'lea     rcx, azRowid_11315'
p3810
sg19
S'488d0d99f43000'
p3811
sg21
Vlea rcx, [rip + 0x30f499]
p3812
sg5
L132880L
sg6
Nsg23
S'lea'
p3813
sg25
S'0x20710L'
p3814
sg27
Nsba(ibclass
BInstr
p3815
(dp3816
g2
Nsg17
S'mov     rbp, [rcx+rax*8]'
p3817
sg19
S'488b2cc1'
p3818
sg21
Vmov rbp, qword ptr [rcx + rax*8]
p3819
sg5
L132887L
sg6
Nsg23
S'mov'
p3820
sg25
S'0x20717L'
p3821
sg27
Nsba(ibclass
BInstr
p3822
(dp3823
g2
Nsg17
S'nop     dword ptr [rax+rax+00h]'
p3824
sg19
S'0f1f440000'
p3825
sg21
Vnop dword ptr [rax + rax]
p3826
sg5
L132891L
sg6
Nsg23
S'nop'
p3827
sg25
S'0x2071bL'
p3828
sg27
Nsbasg105
(lp3829
S'movsxd reg, mem'
p3830
aS'lea reg, azRowid_11315'
p3831
aS'mov reg, mem'
p3832
aS'nop mem'
p3833
asg119
Nsg5
S'0x2070bL'
p3834
sg121
(lp3835
S'0x2038aL'
p3836
aS'0x203d9L'
p3837
asg6
Nsg123
(lp3838
S'0x20720L'
p3839
asg127
Nsg128
Nsg129
S'9efacf93b8f27b4f664885d0735bc556'
p3840
sg131
S'f1ed34b8dc38e1bae218dc9ae864c54a'
p3841
sg133
(lp3842
g3806
ag3813
ag3820
ag3827
asg135
Nsba(ibclass
BBasicBlock
p3843
(dp3844
g12
Nsg13
(lp3845
(ibclass
BInstr
p3846
(dp3847
g2
Nsg17
S'sub     rsp, 8'
p3848
sg19
S'4883ec08'
p3849
sg21
Vsub rsp, 8
p3850
sg5
L132896L
sg6
Nsg23
S'sub'
p3851
sg25
S'0x20720L'
p3852
sg27
Nsba(ibclass
BInstr
p3853
(dp3854
g2
Nsg17
S'xor     r9d, r9d        ; pzCollSeq'
p3855
sg19
S'4531c9'
p3856
sg21
Vxor r9d, r9d
p3857
sg5
L132900L
sg6
Nsg23
S'xor'
p3858
sg25
S'0x20724L'
p3859
sg27
Nsba(ibclass
BInstr
p3860
(dp3861
g2
Nsg17
S'xor     r8d, r8d        ; pzDataType'
p3862
sg19
S'4531c0'
p3863
sg21
Vxor r8d, r8d
p3864
sg5
L132903L
sg6
Nsg23
S'xor'
p3865
sg25
S'0x20727L'
p3866
sg27
Nsba(ibclass
BInstr
p3867
(dp3868
g2
Nsg17
S'push    0               ; pAutoinc'
p3869
sg19
S'6a00'
p3870
sg21
Vpush 0
p3871
sg5
L132906L
sg6
Nsg23
S'push'
p3872
sg25
S'0x2072aL'
p3873
sg27
Nsba(ibclass
BInstr
p3874
(dp3875
g2
Nsg17
S'push    0               ; pPrimaryKey'
p3876
sg19
S'6a00'
p3877
sg21
Vpush 0
p3878
sg5
L132908L
sg6
Nsg23
S'push'
p3879
sg25
S'0x2072cL'
p3880
sg27
Nsba(ibclass
BInstr
p3881
(dp3882
g2
Nsg17
S'xor     esi, esi        ; zDbName'
p3883
sg19
S'31f6'
p3884
sg21
Vxor esi, esi
p3885
sg5
L132910L
sg6
Nsg23
S'xor'
p3886
sg25
S'0x2072eL'
p3887
sg27
Nsba(ibclass
BInstr
p3888
(dp3889
g2
Nsg17
S'push    0               ; pNotNull'
p3890
sg19
S'6a00'
p3891
sg21
Vpush 0
p3892
sg5
L132912L
sg6
Nsg23
S'push'
p3893
sg25
S'0x20730L'
p3894
sg27
Nsba(ibclass
BInstr
p3895
(dp3896
g2
Nsg17
S'mov     rdx, [rsp+0B8h+zTable]; zTableName'
p3897
sg19
S'488b542438'
p3898
sg21
Vmov rdx, qword ptr [rsp + 0x38]
p3899
sg5
L132914L
sg6
Nsg23
S'mov'
p3900
sg25
S'0x20732L'
p3901
sg27
Nsba(ibclass
BInstr
p3902
(dp3903
g2
Nsg17
S'mov     rcx, rbp        ; zColumnName'
p3904
sg19
S'4889e9'
p3905
sg21
Vmov rcx, rbp
p3906
sg5
L132919L
sg6
Nsg23
S'mov'
p3907
sg25
S'0x20737L'
p3908
sg27
Nsba(ibclass
BInstr
p3909
(dp3910
g2
Nsg17
S'mov     rdi, [p]        ; db'
p3911
sg19
S'498b3f'
p3912
sg21
Vmov rdi, qword ptr [r15]
p3913
sg5
L132922L
sg6
Nsg23
S'mov'
p3914
sg25
S'0x2073aL'
p3915
sg27
Nsba(ibclass
BInstr
p3916
(dp3917
g2
Nsg17
S'call    sqlite3_table_column_metadata'
p3918
sg19
S'e85eec0a00'
p3919
sg21
Vcall 0xaec63
p3920
sg5
L132925L
sg6
Nsg23
S'call'
p3921
sg25
S'0x2073dL'
p3922
sg27
Nsba(ibclass
BInstr
p3923
(dp3924
g2
Nsg17
S'add     rsp, 20h'
p3925
sg19
S'4883c420'
p3926
sg21
Vadd rsp, 0x20
p3927
sg5
L132930L
sg6
Nsg23
S'add'
p3928
sg25
S'0x20742L'
p3929
sg27
Nsba(ibclass
BInstr
p3930
(dp3931
g2
Nsg17
S'test    eax, eax'
p3932
sg19
S'85c0'
p3933
sg21
Vtest eax, eax
p3934
sg5
L132934L
sg6
Nsg23
S'test'
p3935
sg25
S'0x20746L'
p3936
sg27
Nsba(ibclass
BInstr
p3937
(dp3938
g2
Nsg17
S'jnz     loc_203F3'
p3939
sg19
S'0f85a5fcffff'
p3940
sg21
Vjne 0xfffffffffffffcab
p3941
sg5
L132936L
sg6
Nsg23
S'jnz'
p3942
sg25
S'0x20748L'
p3943
sg27
Nsbasg105
(lp3944
S'sub reg, 8'
p3945
aS'xor regd, regd'
p3946
aS'xor regd, regd'
p3947
aS'push 0'
p3948
aS'push 0'
p3949
aS'xor reg, reg'
p3950
aS'push 0'
p3951
aS'mov reg, mem'
p3952
aS'mov reg, reg'
p3953
aS'mov reg, mem'
p3954
aS'cregl sqlite3_tarege_column_metadata'
p3955
aS'add reg, 20h'
p3956
aS'test reg, reg'
p3957
aS'jnz func'
p3958
asg119
Nsg5
S'0x20720L'
p3959
sg121
(lp3960
S'0x203b8L'
p3961
aS'0x2070bL'
p3962
asg6
Nsg123
(lp3963
S'0x203f3L'
p3964
aS'0x2074eL'
p3965
asg127
Nsg128
Nsg129
S'9b1460c61eadc1173f7a483e76aa387e'
p3966
sg131
S'7b8230af84418ebd01a22809ab1d1867'
p3967
sg133
(lp3968
g3851
ag3858
ag3865
ag3872
ag3879
ag3886
ag3893
ag3900
ag3907
ag3914
ag3921
ag3928
ag3935
ag3942
asg135
Nsba(ibclass
BBasicBlock
p3969
(dp3970
g12
Nsg13
(lp3971
(ibclass
BInstr
p3972
(dp3973
g2
Nsg17
S'mov     [r12], rbp'
p3974
sg19
S'49892c24'
p3975
sg21
Vmov qword ptr [r12], rbp
p3976
sg5
L132942L
sg6
Nsg23
S'mov'
p3977
sg25
S'0x2074eL'
p3978
sg27
Nsba(ibclass
BInstr
p3979
(dp3980
g2
Nsg17
S'jmp     loc_203F3'
p3981
sg19
S'e99cfcffff'
p3982
sg21
Vjmp 0xfffffffffffffca1
p3983
sg5
L132946L
sg6
Nsg23
S'jmp'
p3984
sg25
S'0x20752L'
p3985
sg27
Nsbasg105
(lp3986
S'mov mem, reg'
p3987
aS'jmp func'
p3988
asg119
Nsg5
S'0x2074eL'
p3989
sg121
(lp3990
S'0x20720L'
p3991
asg6
Nsg123
(lp3992
S'0x203f3L'
p3993
asg127
Nsg128
Nsg129
S'8b9a0d40e062be2b9b2d9885108fb196'
p3994
sg131
S'8ffac03bdd2b3574d7482a6e2e693b2d'
p3995
sg133
(lp3996
g3977
ag3984
asg135
Nsba(ibclass
BBasicBlock
p3997
(dp3998
g12
Nsg13
(lp3999
(ibclass
BInstr
p4000
(dp4001
g2
Nsg17
S'mov     rdi, r12        ; azCol'
p4002
sg19
S'4c89e7'
p4003
sg21
Vmov rdi, r12
p4004
sg5
L132951L
sg6
Nsg23
S'mov'
p4005
sg25
S'0x20757L'
p4006
sg27
Nsba(ibclass
BInstr
p4007
(dp4008
g2
Nsg17
S'call    freeColumnList'
p4009
sg19
S'e8f115ffff'
p4010
sg21
Vcall 0xffffffffffff15f6
p4011
sg5
L132954L
sg6
Nsg23
S'call'
p4012
sg25
S'0x2075aL'
p4013
sg27
Nsba(ibclass
BInstr
p4014
(dp4015
g2
Nsg17
S'jmp     loc_205EE'
p4016
sg19
S'e98afeffff'
p4017
sg21
Vjmp 0xfffffffffffffe8f
p4018
sg5
L132959L
sg6
Nsg23
S'jmp'
p4019
sg25
S'0x2075fL'
p4020
sg27
Nsbasg105
(lp4021
S'mov reg, reg'
p4022
aS'cregl freeColumnList'
p4023
aS'jmp func'
p4024
asg119
Nsg5
S'0x20757L'
p4025
sg121
(lp4026
S'0x20630L'
p4027
asg6
Nsg123
(lp4028
S'0x205eeL'
p4029
asg127
Nsg128
Nsg129
S'5dbc049f58a658822af8d42cbec04b64'
p4030
sg131
S'ada75380ac7f6fdfd4d6a8936167afa4'
p4031
sg133
(lp4032
g4005
ag4012
ag4019
asg135
Nsba(ibclass
BBasicBlock
p4033
(dp4034
g12
Nsg13
(lp4035
(ibclass
BInstr
p4036
(dp4037
g2
Nsg17
S'mov     rcx, cs:stderr@@GLIBC_2_2_5; s'
p4038
sg19
S'488b0df55e3100'
p4039
sg21
Vmov rcx, qword ptr [rip + 0x315ef5]
p4040
sg5
L132964L
sg6
Nsg23
S'mov'
p4041
sg25
S'0x20764L'
p4042
sg27
Nsba(ibclass
BInstr
p4043
(dp4044
g2
Nsg17
S'lea     rdi, unk_F811E  ; ptr'
p4045
sg19
S'488d3dac790d00'
p4046
sg21
Vlea rdi, [rip + 0xd79ac]
p4047
sg5
L132971L
sg6
Nsg23
S'lea'
p4048
sg25
S'0x2076bL'
p4049
sg27
Nsba(ibclass
BInstr
p4050
(dp4051
g2
Nsg17
S'mov     edx, 15h        ; n'
p4052
sg19
S'ba15000000'
p4053
sg21
Vmov edx, 0x15
p4054
sg5
L132978L
sg6
Nsg23
S'mov'
p4055
sg25
S'0x20772L'
p4056
sg27
Nsba(ibclass
BInstr
p4057
(dp4058
g2
Nsg17
S'mov     esi, 1          ; size'
p4059
sg19
S'be01000000'
p4060
sg21
Vmov esi, 1
p4061
sg5
L132983L
sg6
Nsg23
S'mov'
p4062
sg25
S'0x20777L'
p4063
sg27
Nsba(ibclass
BInstr
p4064
(dp4065
g2
Nsg17
S'call    fwrite'
p4066
sg19
S'e88fbcfeff'
p4067
sg21
Vcall 0xfffffffffffebc94
p4068
sg5
L132988L
sg6
Nsg23
S'call'
p4069
sg25
S'0x2077cL'
p4070
sg27
Nsba(ibclass
BInstr
p4071
(dp4072
g2
Nsg17
S'mov     edi, 1          ; status'
p4073
sg19
S'bf01000000'
p4074
sg21
Vmov edi, 1
p4075
sg5
L132993L
sg6
Nsg23
S'mov'
p4076
sg25
S'0x20781L'
p4077
sg27
Nsba(ibclass
BInstr
p4078
(dp4079
g2
Nsg17
S'call    exit'
p4080
sg19
S'e87dbcfeff'
p4081
sg21
Vcall 0xfffffffffffebc82
p4082
sg5
L132998L
sg6
Nsg23
S'call'
p4083
sg25
S'0x20786L'
p4084
sg27
Nsbasg105
(lp4085
S'mov reg, cs:stderr@@GLIBC_2_2_5'
p4086
aS'lea reg, func'
p4087
aS'mov reg, 15h'
p4088
aS'mov reg, 1'
p4089
aS'cregl fwrite'
p4090
aS'mov reg, 1'
p4091
aS'cregl exit'
p4092
asg119
Nsg5
S'0x20764L'
p4093
sg121
(lp4094
S'0x20287L'
p4095
asg6
Nsg123
(lp4096
sg127
Nsg128
Nsg129
S'39f991c509c551fef46cbf8105f4aff4'
p4097
sg131
S'672647b50d9c46013d53a0ec7639100a'
p4098
sg133
(lp4099
g4041
ag4048
ag4055
ag4062
ag4069
ag4076
ag4083
asg135
Nsba(ibclass
BBasicBlock
p4100
(dp4101
g12
Nsg13
(lp4102
(ibclass
BInstr
p4103
(dp4104
g2
Nsg17
S'call    __stack_chk_fail'
p4105
sg19
S'e890bafeff'
p4106
sg21
Vcall 0xfffffffffffeba95
p4107
sg5
L133003L
sg6
Nsg23
S'call'
p4108
sg25
S'0x2078bL'
p4109
sg27
Nsbasg105
(lp4110
S'cregl __stack_chk_fail'
p4111
asg119
Nsg5
S'0x2078bL'
p4112
sg121
(lp4113
S'0x20108L'
p4114
asg6
Nsg123
(lp4115
sg127
Nsg128
Nsg129
S'53b9e9679a8ea25880376080b76f98ad'
p4116
sg131
S'5852027b1493af739b90283a2dc353c0'
p4117
sg133
(lp4118
g4108
asg135
Nsbasb.