(ibclass
BFunc
p0
(dp1
S'hash'
p2
NsS'name'
p3
S'sqlite3StrAccumEnlarge'
p4
sS'start_address'
p5
L260032L
sS'flag'
p6
NsS'program'
p7
NsS'bbs'
p8
(lp9
(ibclass
BBasicBlock
p10
(dp11
S'function'
p12
NsS'binstrs'
p13
(lp14
(ibclass
BInstr
p15
(dp16
g2
NsS'disasm'
p17
S'mov     ecx, [p+20h]'
p18
sS'bytes'
p19
S'8b4f20'
p20
sS'disasm_striped'
p21
Vmov ecx, dword ptr [rdi + 0x20]
p22
sg5
L260032L
sg6
NsS'mnem'
p23
S'mov'
p24
sS'address'
p25
S'0x3f7c0L'
p26
sS'basicblock'
p27
Nsba(ibclass
BInstr
p28
(dp29
g2
Nsg17
S'test    ecx, ecx'
p30
sg19
S'85c9'
p31
sg21
Vtest ecx, ecx
p32
sg5
L260035L
sg6
Nsg23
S'test'
p33
sg25
S'0x3f7c3L'
p34
sg27
Nsba(ibclass
BInstr
p35
(dp36
g2
Nsg17
S'jz      loc_3F870'
p37
sg19
S'0f84a5000000'
p38
sg21
Vje 0xab
p39
sg5
L260037L
sg6
Nsg23
S'jz'
p40
sg25
S'0x3f7c5L'
p41
sg27
NsbasS'disasm_list'
p42
(lp43
S'mov reg, mem'
p44
aS'test reg, reg'
p45
aS'jz func'
p46
asS'end_address'
p47
Nsg5
S'0x3f7c0L'
p48
sS'preds'
p49
(lp50
sg6
NsS'succs'
p51
(lp52
S'0x3f7cbL'
p53
aS'0x3f870L'
p54
asS'hash_v3'
p55
NsS'flag_v2'
p56
NsS'hash_v1'
p57
S'809d25367cfb363bba6d347ea4ff6183'
p58
sS'hash_v2'
p59
S'd782372d3ec587a87d37c330cb249184'
p60
sS'mnen_list'
p61
(lp62
g24
ag33
ag40
asS'neighbour_disasm_list'
p63
Nsba(ibclass
BBasicBlock
p64
(dp65
g12
Nsg13
(lp66
(ibclass
BInstr
p67
(dp68
g2
Nsg17
S'push    rbp'
p69
sg19
S'55'
p70
sg21
Vpush rbp
p71
sg5
L260043L
sg6
Nsg23
S'push'
p72
sg25
S'0x3f7cbL'
p73
sg27
Nsba(ibclass
BInstr
p74
(dp75
g2
Nsg17
S'push    rbx'
p76
sg19
S'53'
p77
sg21
Vpush rbx
p78
sg5
L260044L
sg6
Nsg23
S'push'
p79
sg25
S'0x3f7ccL'
p80
sg27
Nsba(ibclass
BInstr
p81
(dp82
g2
Nsg17
S'xor     r8d, r8d'
p83
sg19
S'4531c0'
p84
sg21
Vxor r8d, r8d
p85
sg5
L260045L
sg6
Nsg23
S'xor'
p86
sg25
S'0x3f7cdL'
p87
sg27
Nsba(ibclass
BInstr
p88
(dp89
g2
Nsg17
S'sub     rsp, 8'
p90
sg19
S'4883ec08'
p91
sg21
Vsub rsp, 8
p92
sg5
L260048L
sg6
Nsg23
S'sub'
p93
sg25
S'0x3f7d0L'
p94
sg27
Nsba(ibclass
BInstr
p95
(dp96
g2
Nsg17
S'test    byte ptr [p+25h], 4'
p97
sg19
S'f6472504'
p98
sg21
Vtest byte ptr [rdi + 0x25], 4
p99
sg5
L260052L
sg6
Nsg23
S'test'
p100
sg25
S'0x3f7d4L'
p101
sg27
Nsba(ibclass
BInstr
p102
(dp103
g2
Nsg17
S'jz      short loc_3F7DE'
p104
sg19
S'7404'
p105
sg21
Vje 6
p106
sg5
L260056L
sg6
Nsg23
S'jz'
p107
sg25
S'0x3f7d8L'
p108
sg27
Nsbasg42
(lp109
S'push reg'
p110
aS'push reg'
p111
aS'xor regd, regd'
p112
aS'sub reg, 8'
p113
aS'test mem, 4'
p114
aS'jz func'
p115
asg47
Nsg5
S'0x3f7cbL'
p116
sg49
(lp117
S'0x3f7c0L'
p118
asg6
Nsg51
(lp119
S'0x3f7daL'
p120
aS'0x3f7deL'
p121
asg55
Nsg56
Nsg57
S'2672fab71146234bcd32ebc1752dbffb'
p122
sg59
S'08fc1266dabcde286d753c0ae63134e2'
p123
sg61
(lp124
g72
ag79
ag86
ag93
ag100
ag107
asg63
Nsba(ibclass
BBasicBlock
p125
(dp126
g12
Nsg13
(lp127
(ibclass
BInstr
p128
(dp129
g2
Nsg17
S'mov     r8, [p+10h]'
p130
sg19
S'4c8b4710'
p131
sg21
Vmov r8, qword ptr [rdi + 0x10]
p132
sg5
L260058L
sg6
Nsg23
S'mov'
p133
sg25
S'0x3f7daL'
p134
sg27
Nsbasg42
(lp135
S'mov reg, mem'
p136
asg47
Nsg5
S'0x3f7daL'
p137
sg49
(lp138
S'0x3f7cbL'
p139
asg6
Nsg51
(lp140
S'0x3f7deL'
p141
asg55
Nsg56
Nsg57
S'96a4a0e6e9ac88756a0fcba989d0a844'
p142
sg59
S'655e24d9e6af0fc8724d2cb27e9554cd'
p143
sg61
(lp144
g133
asg63
Nsba(ibclass
BBasicBlock
p145
(dp146
g12
Nsg13
(lp147
(ibclass
BInstr
p148
(dp149
g2
Nsg17
S'mov     edx, [p+18h]'
p150
sg19
S'8b5718'
p151
sg21
Vmov edx, dword ptr [rdi + 0x18]
p152
sg5
L260062L
sg6
Nsg23
S'mov'
p153
sg25
S'0x3f7deL'
p154
sg27
Nsba(ibclass
BInstr
p155
(dp156
g2
Nsg17
S'lea     eax, [N+1]'
p157
sg19
S'8d4601'
p158
sg21
Vlea eax, [rsi + 1]
p159
sg5
L260065L
sg6
Nsg23
S'lea'
p160
sg25
S'0x3f7e1L'
p161
sg27
Nsba(ibclass
BInstr
p162
(dp163
g2
Nsg17
S'mov     ebp, esi'
p164
sg19
S'89f5'
p165
sg21
Vmov ebp, esi
p166
sg5
L260068L
sg6
Nsg23
S'mov'
p167
sg25
S'0x3f7e4L'
p168
sg27
Nsba(ibclass
BInstr
p169
(dp170
g2
Nsg17
S'mov     rbx, p'
p171
sg19
S'4889fb'
p172
sg21
Vmov rbx, rdi
p173
sg5
L260070L
sg6
Nsg23
S'mov'
p174
sg25
S'0x3f7e6L'
p175
sg27
Nsba(ibclass
BInstr
p176
(dp177
g2
Nsg17
S'cdqe'
p178
sg19
S'4898'
p179
sg21
Vcdqe 
p180
sg5
L260073L
sg6
Nsg23
S'cdqe'
p181
sg25
S'0x3f7e9L'
p182
sg27
Nsba(ibclass
BInstr
p183
(dp184
g2
Nsg17
S'add     rax, szNew'
p185
sg19
S'4801d0'
p186
sg21
Vadd rax, rdx
p187
sg5
L260075L
sg6
Nsg23
S'add'
p188
sg25
S'0x3f7ebL'
p189
sg27
Nsba(ibclass
BInstr
p190
(dp191
g2
Nsg17
S'add     rdx, szNew'
p192
sg19
S'4801c2'
p193
sg21
Vadd rdx, rax
p194
sg5
L260078L
sg6
Nsg23
S'add'
p195
sg25
S'0x3f7eeL'
p196
sg27
Nsba(ibclass
BInstr
p197
(dp198
g2
Nsg17
S'cmp     rdx, rcx'
p199
sg19
S'4839ca'
p200
sg21
Vcmp rdx, rcx
p201
sg5
L260081L
sg6
Nsg23
S'cmp'
p202
sg25
S'0x3f7f1L'
p203
sg27
Nsba(ibclass
BInstr
p204
(dp205
g2
Nsg17
S'jg      short loc_3F848'
p206
sg19
S'7f52'
p207
sg21
Vjg 0x54
p208
sg5
L260084L
sg6
Nsg23
S'jg'
p209
sg25
S'0x3f7f4L'
p210
sg27
Nsbasg42
(lp211
S'mov reg, mem'
p212
aS'lea reg, mem'
p213
aS'mov reg, reg'
p214
aS'mov reg, p'
p215
ag178
aS'add reg, szNew'
p216
aS'add reg, szNew'
p217
aS'cmp reg, reg'
p218
aS'jg func'
p219
asg47
Nsg5
S'0x3f7deL'
p220
sg49
(lp221
S'0x3f7cbL'
p222
aS'0x3f7daL'
p223
asg6
Nsg51
(lp224
S'0x3f7f6L'
p225
aS'0x3f848L'
p226
asg55
Nsg56
Nsg57
S'7afc9a0559db29766a9b50d0d79a5649'
p227
sg59
S'7ad2581ec0b90577321059f871bc1774'
p228
sg61
(lp229
g153
ag160
ag167
ag174
ag181
ag188
ag195
ag202
ag209
asg63
Nsba(ibclass
BBasicBlock
p230
(dp231
g12
Nsg13
(lp232
(ibclass
BInstr
p233
(dp234
g2
Nsg17
S'mov     rdi, [p]        ; db'
p235
sg19
S'488b3b'
p236
sg21
Vmov rdi, qword ptr [rbx]
p237
sg5
L260086L
sg6
Nsg23
S'mov'
p238
sg25
S'0x3f7f6L'
p239
sg27
Nsba(ibclass
BInstr
p240
(dp241
g2
Nsg17
S'mov     [p+1Ch], edx'
p242
sg19
S'89531c'
p243
sg21
Vmov dword ptr [rbx + 0x1c], edx
p244
sg5
L260089L
sg6
Nsg23
S'mov'
p245
sg25
S'0x3f7f9L'
p246
sg27
Nsba(ibclass
BInstr
p247
(dp248
g2
Nsg17
S'test    rdi, rdi'
p249
sg19
S'4885ff'
p250
sg21
Vtest rdi, rdi
p251
sg5
L260092L
sg6
Nsg23
S'test'
p252
sg25
S'0x3f7fcL'
p253
sg27
Nsba(ibclass
BInstr
p254
(dp255
g2
Nsg17
S'jz      loc_3F8A0'
p256
sg19
S'0f849b000000'
p257
sg21
Vje 0xa1
p258
sg5
L260095L
sg6
Nsg23
S'jz'
p259
sg25
S'0x3f7ffL'
p260
sg27
Nsbasg42
(lp261
S'mov reg, mem'
p262
aS'mov mem, reg'
p263
aS'test reg, reg'
p264
aS'jz func'
p265
asg47
Nsg5
S'0x3f7f6L'
p266
sg49
(lp267
S'0x3f7deL'
p268
aS'0x3f848L'
p269
asg6
Nsg51
(lp270
S'0x3f805L'
p271
aS'0x3f8a0L'
p272
asg55
Nsg56
Nsg57
S'ea5d08c7dcc07640d42787f826218f11'
p273
sg59
S'8d4bc3090d4c5e6523e82b0065581746'
p274
sg61
(lp275
g238
ag245
ag252
ag259
asg63
Nsba(ibclass
BBasicBlock
p276
(dp277
g12
Nsg13
(lp278
(ibclass
BInstr
p279
(dp280
g2
Nsg17
S'mov     edx, edx        ; n'
p281
sg19
S'89d2'
p282
sg21
Vmov edx, edx
p283
sg5
L260101L
sg6
Nsg23
S'mov'
p284
sg25
S'0x3f805L'
p285
sg27
Nsba(ibclass
BInstr
p286
(dp287
g2
Nsg17
S'mov     N, zOld         ; p'
p288
sg19
S'4c89c6'
p289
sg21
Vmov rsi, r8
p290
sg5
L260103L
sg6
Nsg23
S'mov'
p291
sg25
S'0x3f807L'
p292
sg27
Nsba(ibclass
BInstr
p293
(dp294
g2
Nsg17
S'call    sqlite3DbRealloc'
p295
sg19
S'e881adffff'
p296
sg21
Vcall 0xffffffffffffad86
p297
sg5
L260106L
sg6
Nsg23
S'call'
p298
sg25
S'0x3f80aL'
p299
sg27
Nsba(ibclass
BInstr
p300
(dp301
g2
Nsg17
S'mov     rcx, rax'
p302
sg19
S'4889c1'
p303
sg21
Vmov rcx, rax
p304
sg5
L260111L
sg6
Nsg23
S'mov'
p305
sg25
S'0x3f80fL'
p306
sg27
Nsbasg42
(lp307
S'mov reg, reg'
p308
aS'mov N, zOld'
p309
aS'cregl sqlite3DbReregloc'
p310
aS'mov reg, reg'
p311
asg47
Nsg5
S'0x3f805L'
p312
sg49
(lp313
S'0x3f7f6L'
p314
asg6
Nsg51
(lp315
S'0x3f812L'
p316
asg55
Nsg56
Nsg57
S'a6abb5d9994936d83c79ed1f9957ba18'
p317
sg59
S'f5dfa844034d1c7b7d039d9e7e402a7e'
p318
sg61
(lp319
g284
ag291
ag298
ag305
asg63
Nsba(ibclass
BBasicBlock
p320
(dp321
g12
Nsg13
(lp322
(ibclass
BInstr
p323
(dp324
g2
Nsg17
S'test    rcx, rcx'
p325
sg19
S'4885c9'
p326
sg21
Vtest rcx, rcx
p327
sg5
L260114L
sg6
Nsg23
S'test'
p328
sg25
S'0x3f812L'
p329
sg27
Nsba(ibclass
BInstr
p330
(dp331
g2
Nsg17
S'jz      loc_3F8B8'
p332
sg19
S'0f849d000000'
p333
sg21
Vje 0xa3
p334
sg5
L260117L
sg6
Nsg23
S'jz'
p335
sg25
S'0x3f815L'
p336
sg27
Nsbasg42
(lp337
S'test reg, reg'
p338
aS'jz func'
p339
asg47
Nsg5
S'0x3f812L'
p340
sg49
(lp341
S'0x3f805L'
p342
aS'0x3f8a0L'
p343
asg6
Nsg51
(lp344
S'0x3f81bL'
p345
aS'0x3f8b8L'
p346
asg55
Nsg56
Nsg57
S'84491ffb986a9ed3c0d756870de1b100'
p347
sg59
S'fbb15b446ae771d008c367d72e1a39f9'
p348
sg61
(lp349
g328
ag335
asg63
Nsba(ibclass
BBasicBlock
p350
(dp351
g12
Nsg13
(lp352
(ibclass
BInstr
p353
(dp354
g2
Nsg17
S'test    byte ptr [p+25h], 4'
p355
sg19
S'f6432504'
p356
sg21
Vtest byte ptr [rbx + 0x25], 4
p357
sg5
L260123L
sg6
Nsg23
S'test'
p358
sg25
S'0x3f81bL'
p359
sg27
Nsba(ibclass
BInstr
p360
(dp361
g2
Nsg17
S'jnz     short loc_3F828'
p362
sg19
S'7507'
p363
sg21
Vjne 9
p364
sg5
L260127L
sg6
Nsg23
S'jnz'
p365
sg25
S'0x3f81fL'
p366
sg27
Nsbasg42
(lp367
S'test mem, 4'
p368
aS'jnz func'
p369
asg47
Nsg5
S'0x3f81bL'
p370
sg49
(lp371
S'0x3f812L'
p372
asg6
Nsg51
(lp373
S'0x3f821L'
p374
aS'0x3f828L'
p375
asg55
Nsg56
Nsg57
S'69f35919c7dcb199d0057b2f8ce242da'
p376
sg59
S'a8c6d657d5d1b0813918fcb5ad8c111a'
p377
sg61
(lp378
g358
ag365
asg63
Nsba(ibclass
BBasicBlock
p379
(dp380
g12
Nsg13
(lp381
(ibclass
BInstr
p382
(dp383
g2
Nsg17
S'mov     edx, [p+18h]    ; n'
p384
sg19
S'8b5318'
p385
sg21
Vmov edx, dword ptr [rbx + 0x18]
p386
sg5
L260129L
sg6
Nsg23
S'mov'
p387
sg25
S'0x3f821L'
p388
sg27
Nsba(ibclass
BInstr
p389
(dp390
g2
Nsg17
S'test    edx, edx'
p391
sg19
S'85d2'
p392
sg21
Vtest edx, edx
p393
sg5
L260132L
sg6
Nsg23
S'test'
p394
sg25
S'0x3f824L'
p395
sg27
Nsba(ibclass
BInstr
p396
(dp397
g2
Nsg17
S'jnz     short loc_3F888'
p398
sg19
S'7560'
p399
sg21
Vjne 0x62
p400
sg5
L260134L
sg6
Nsg23
S'jnz'
p401
sg25
S'0x3f826L'
p402
sg27
Nsbasg42
(lp403
S'mov reg, mem'
p404
aS'test reg, reg'
p405
aS'jnz func'
p406
asg47
Nsg5
S'0x3f821L'
p407
sg49
(lp408
S'0x3f81bL'
p409
asg6
Nsg51
(lp410
S'0x3f828L'
p411
aS'0x3f888L'
p412
asg55
Nsg56
Nsg57
S'a6d8ad6ec923c77b5487e3deac08e465'
p413
sg59
S'58cb979f9e7578d3326afbd56e773219'
p414
sg61
(lp415
g387
ag394
ag401
asg63
Nsba(ibclass
BBasicBlock
p416
(dp417
g12
Nsg13
(lp418
(ibclass
BInstr
p419
(dp420
g2
Nsg17
S'mov     [p+10h], rcx'
p421
sg19
S'48894b10'
p422
sg21
Vmov qword ptr [rbx + 0x10], rcx
p423
sg5
L260136L
sg6
Nsg23
S'mov'
p424
sg25
S'0x3f828L'
p425
sg27
Nsba(ibclass
BInstr
p426
(dp427
g2
Nsg17
S'mov     rdi, rcx        ; p'
p428
sg19
S'4889cf'
p429
sg21
Vmov rdi, rcx
p430
sg5
L260140L
sg6
Nsg23
S'mov'
p431
sg25
S'0x3f82cL'
p432
sg27
Nsba(ibclass
BInstr
p433
(dp434
g2
Nsg17
S'call    cs:sqlite3Config.m.xSize'
p435
sg19
S'ff150b6a2c00'
p436
sg21
Vcall qword ptr [rip + 0x2c6a0b]
p437
sg5
L260143L
sg6
Nsg23
S'call'
p438
sg25
S'0x3f82fL'
p439
sg27
Nsba(ibclass
BInstr
p440
(dp441
g2
Nsg17
S'or      byte ptr [p+25h], 4'
p442
sg19
S'804b2504'
p443
sg21
Vor byte ptr [rbx + 0x25], 4
p444
sg5
L260149L
sg6
Nsg23
S'or'
p445
sg25
S'0x3f835L'
p446
sg27
Nsba(ibclass
BInstr
p447
(dp448
g2
Nsg17
S'mov     [p+1Ch], eax'
p449
sg19
S'89431c'
p450
sg21
Vmov dword ptr [rbx + 0x1c], eax
p451
sg5
L260153L
sg6
Nsg23
S'mov'
p452
sg25
S'0x3f839L'
p453
sg27
Nsba(ibclass
BInstr
p454
(dp455
g2
Nsg17
S'mov     eax, ebp'
p456
sg19
S'89e8'
p457
sg21
Vmov eax, ebp
p458
sg5
L260156L
sg6
Nsg23
S'mov'
p459
sg25
S'0x3f83cL'
p460
sg27
Nsbasg42
(lp461
S'mov mem, reg'
p462
aS'mov reg, reg'
p463
aS'cregl cs:sqlite3Config.m.xSize'
p464
aS'or mem, 4'
p465
aS'mov mem, reg'
p466
aS'mov reg, reg'
p467
asg47
Nsg5
S'0x3f828L'
p468
sg49
(lp469
S'0x3f81bL'
p470
aS'0x3f821L'
p471
aS'0x3f888L'
p472
asg6
Nsg51
(lp473
S'0x3f83eL'
p474
asg55
Nsg56
Nsg57
S'89e5e14c65b7730c1c4a96ce413a25ff'
p475
sg59
S'a4353cd4fcc2f4e1ab11d1bb038854c0'
p476
sg61
(lp477
g424
ag431
ag438
ag445
ag452
ag459
asg63
Nsba(ibclass
BBasicBlock
p478
(dp479
g12
Nsg13
(lp480
(ibclass
BInstr
p481
(dp482
g2
Nsg17
S'add     rsp, 8'
p483
sg19
S'4883c408'
p484
sg21
Vadd rsp, 8
p485
sg5
L260158L
sg6
Nsg23
S'add'
p486
sg25
S'0x3f83eL'
p487
sg27
Nsba(ibclass
BInstr
p488
(dp489
g2
Nsg17
S'pop     p'
p490
sg19
S'5b'
p491
sg21
Vpop rbx
p492
sg5
L260162L
sg6
Nsg23
S'pop'
p493
sg25
S'0x3f842L'
p494
sg27
Nsba(ibclass
BInstr
p495
(dp496
g2
Nsg17
S'pop     N'
p497
sg19
S'5d'
p498
sg21
Vpop rbp
p499
sg5
L260163L
sg6
Nsg23
S'pop'
p500
sg25
S'0x3f843L'
p501
sg27
Nsba(ibclass
BInstr
p502
(dp503
g2
Nsg17
S'retn'
p504
sg19
S'c3'
p505
sg21
Vret 
p506
sg5
L260164L
sg6
Nsg23
S'retn'
p507
sg25
S'0x3f844L'
p508
sg27
Nsbasg42
(lp509
S'add reg, 8'
p510
aS'pop p'
p511
aS'pop N'
p512
ag504
asg47
Nsg5
S'0x3f83eL'
p513
sg49
(lp514
S'0x3f828L'
p515
aS'0x3f8b8L'
p516
asg6
Nsg51
(lp517
sg55
Nsg56
Nsg57
S'4d1981a678d0c70281d5161c3174b44c'
p518
sg59
S'8c7150eea716864eaff9789b6779931a'
p519
sg61
(lp520
g486
ag493
ag500
ag507
asg63
Nsba(ibclass
BBasicBlock
p521
(dp522
g12
Nsg13
(lp523
(ibclass
BInstr
p524
(dp525
g2
Nsg17
S'cmp     szNew, rcx'
p526
sg19
S'4839c8'
p527
sg21
Vcmp rax, rcx
p528
sg5
L260168L
sg6
Nsg23
S'cmp'
p529
sg25
S'0x3f848L'
p530
sg27
Nsba(ibclass
BInstr
p531
(dp532
g2
Nsg17
S'mov     rdx, szNew'
p533
sg19
S'4889c2'
p534
sg21
Vmov rdx, rax
p535
sg5
L260171L
sg6
Nsg23
S'mov'
p536
sg25
S'0x3f84bL'
p537
sg27
Nsba(ibclass
BInstr
p538
(dp539
g2
Nsg17
S'jle     short loc_3F7F6'
p540
sg19
S'7ea6'
p541
sg21
Vjle 0xffffffffffffffa8
p542
sg5
L260174L
sg6
Nsg23
S'jle'
p543
sg25
S'0x3f84eL'
p544
sg27
Nsbasg42
(lp545
S'cmp szNew, reg'
p546
aS'mov reg, szNew'
p547
aS'jle func'
p548
asg47
Nsg5
S'0x3f848L'
p549
sg49
(lp550
S'0x3f7deL'
p551
asg6
Nsg51
(lp552
S'0x3f7f6L'
p553
aS'0x3f850L'
p554
asg55
Nsg56
Nsg57
S'15884b675aad312e2e6324718c6f52ae'
p555
sg59
S'e34302b0fed3fc8eca0a248ebf6c5d9a'
p556
sg61
(lp557
g529
ag536
ag543
asg63
Nsba(ibclass
BBasicBlock
p558
(dp559
g12
Nsg13
(lp560
(ibclass
BInstr
p561
(dp562
g2
Nsg17
S'call    sqlite3StrAccumReset'
p563
sg19
S'e87bb1fdff'
p564
sg21
Vcall 0xfffffffffffdb180
p565
sg5
L260176L
sg6
Nsg23
S'call'
p566
sg25
S'0x3f850L'
p567
sg27
Nsba(ibclass
BInstr
p568
(dp569
g2
Nsg17
S'mov     byte ptr [p+24h], 2'
p570
sg19
S'c6432402'
p571
sg21
Vmov byte ptr [rbx + 0x24], 2
p572
sg5
L260181L
sg6
Nsg23
S'mov'
p573
sg25
S'0x3f855L'
p574
sg27
Nsba(ibclass
BInstr
p575
(dp576
g2
Nsg17
S'mov     dword ptr [p+1Ch], 0'
p577
sg19
S'c7431c00000000'
p578
sg21
Vmov dword ptr [rbx + 0x1c], 0
p579
sg5
L260185L
sg6
Nsg23
S'mov'
p580
sg25
S'0x3f859L'
p581
sg27
Nsba(ibclass
BInstr
p582
(dp583
g2
Nsg17
S'add     rsp, 8'
p584
sg19
S'4883c408'
p585
sg21
Vadd rsp, 8
p586
sg5
L260192L
sg6
Nsg23
S'add'
p587
sg25
S'0x3f860L'
p588
sg27
Nsba(ibclass
BInstr
p589
(dp590
g2
Nsg17
S'xor     eax, eax'
p591
sg19
S'31c0'
p592
sg21
Vxor eax, eax
p593
sg5
L260196L
sg6
Nsg23
S'xor'
p594
sg25
S'0x3f864L'
p595
sg27
Nsba(ibclass
BInstr
p596
(dp597
g2
Nsg17
S'pop     p'
p598
sg19
S'5b'
p599
sg21
Vpop rbx
p600
sg5
L260198L
sg6
Nsg23
S'pop'
p601
sg25
S'0x3f866L'
p602
sg27
Nsba(ibclass
BInstr
p603
(dp604
g2
Nsg17
S'pop     N'
p605
sg19
S'5d'
p606
sg21
Vpop rbp
p607
sg5
L260199L
sg6
Nsg23
S'pop'
p608
sg25
S'0x3f867L'
p609
sg27
Nsba(ibclass
BInstr
p610
(dp611
g2
Nsg17
S'retn'
p612
sg19
S'c3'
p613
sg21
Vret 
p614
sg5
L260200L
sg6
Nsg23
S'retn'
p615
sg25
S'0x3f868L'
p616
sg27
Nsbasg42
(lp617
S'cregl sqlite3StrAccumReset'
p618
aS'mov mem, 2'
p619
aS'mov mem, 0'
p620
aS'add reg, 8'
p621
aS'xor reg, reg'
p622
aS'pop p'
p623
aS'pop N'
p624
ag612
asg47
Nsg5
S'0x3f850L'
p625
sg49
(lp626
S'0x3f848L'
p627
asg6
Nsg51
(lp628
sg55
Nsg56
Nsg57
S'6cea358559f3b5685bf31aaf06208400'
p629
sg59
S'd2c77d682c345d1ac47aafaa366b1b33'
p630
sg61
(lp631
g566
ag573
ag580
ag587
ag594
ag601
ag608
ag615
asg63
Nsba(ibclass
BBasicBlock
p632
(dp633
g12
Nsg13
(lp634
(ibclass
BInstr
p635
(dp636
g2
Nsg17
S'mov     eax, [p+1Ch]'
p637
sg19
S'8b471c'
p638
sg21
Vmov eax, dword ptr [rdi + 0x1c]
p639
sg5
L260208L
sg6
Nsg23
S'mov'
p640
sg25
S'0x3f870L'
p641
sg27
Nsba(ibclass
BInstr
p642
(dp643
g2
Nsg17
S'mov     byte ptr [p+24h], 2'
p644
sg19
S'c6472402'
p645
sg21
Vmov byte ptr [rdi + 0x24], 2
p646
sg5
L260211L
sg6
Nsg23
S'mov'
p647
sg25
S'0x3f873L'
p648
sg27
Nsba(ibclass
BInstr
p649
(dp650
g2
Nsg17
S'mov     dword ptr [p+1Ch], 0'
p651
sg19
S'c7471c00000000'
p652
sg21
Vmov dword ptr [rdi + 0x1c], 0
p653
sg5
L260215L
sg6
Nsg23
S'mov'
p654
sg25
S'0x3f877L'
p655
sg27
Nsba(ibclass
BInstr
p656
(dp657
g2
Nsg17
S'sub     eax, 1'
p658
sg19
S'83e801'
p659
sg21
Vsub eax, 1
p660
sg5
L260222L
sg6
Nsg23
S'sub'
p661
sg25
S'0x3f87eL'
p662
sg27
Nsba(ibclass
BInstr
p663
(dp664
g2
Nsg17
S'sub     eax, [p+18h]'
p665
sg19
S'2b4718'
p666
sg21
Vsub eax, dword ptr [rdi + 0x18]
p667
sg5
L260225L
sg6
Nsg23
S'sub'
p668
sg25
S'0x3f881L'
p669
sg27
Nsba(ibclass
BInstr
p670
(dp671
g2
Nsg17
S'retn'
p672
sg19
S'c3'
p673
sg21
Vret 
p674
sg5
L260228L
sg6
Nsg23
S'retn'
p675
sg25
S'0x3f884L'
p676
sg27
Nsbasg42
(lp677
S'mov reg, mem'
p678
aS'mov mem, 2'
p679
aS'mov mem, 0'
p680
aS'sub reg, 1'
p681
aS'sub reg, mem'
p682
ag672
asg47
Nsg5
S'0x3f870L'
p683
sg49
(lp684
S'0x3f7c0L'
p685
asg6
Nsg51
(lp686
sg55
Nsg56
Nsg57
S'8d1340d49f335be4eac106bc2dbeef99'
p687
sg59
S'71c1b12ac855e3ee6157e800af8a8d9e'
p688
sg61
(lp689
g640
ag647
ag654
ag661
ag668
ag675
asg63
Nsba(ibclass
BBasicBlock
p690
(dp691
g12
Nsg13
(lp692
(ibclass
BInstr
p693
(dp694
g2
Nsg17
S'mov     rsi, [p+10h]    ; src'
p695
sg19
S'488b7310'
p696
sg21
Vmov rsi, qword ptr [rbx + 0x10]
p697
sg5
L260232L
sg6
Nsg23
S'mov'
p698
sg25
S'0x3f888L'
p699
sg27
Nsba(ibclass
BInstr
p700
(dp701
g2
Nsg17
S'mov     rdi, rcx        ; dest'
p702
sg19
S'4889cf'
p703
sg21
Vmov rdi, rcx
p704
sg5
L260236L
sg6
Nsg23
S'mov'
p705
sg25
S'0x3f88cL'
p706
sg27
Nsba(ibclass
BInstr
p707
(dp708
g2
Nsg17
S'call    memcpy'
p709
sg19
S'e8f4cefcff'
p710
sg21
Vcall 0xfffffffffffccef9
p711
sg5
L260239L
sg6
Nsg23
S'call'
p712
sg25
S'0x3f88fL'
p713
sg27
Nsba(ibclass
BInstr
p714
(dp715
g2
Nsg17
S'mov     rcx, rax'
p716
sg19
S'4889c1'
p717
sg21
Vmov rcx, rax
p718
sg5
L260244L
sg6
Nsg23
S'mov'
p719
sg25
S'0x3f894L'
p720
sg27
Nsba(ibclass
BInstr
p721
(dp722
g2
Nsg17
S'jmp     short loc_3F828'
p723
sg19
S'eb8f'
p724
sg21
Vjmp 0xffffffffffffff91
p725
sg5
L260247L
sg6
Nsg23
S'jmp'
p726
sg25
S'0x3f897L'
p727
sg27
Nsbasg42
(lp728
S'mov reg, mem'
p729
aS'mov reg, reg'
p730
aS'cregl memcpy'
p731
aS'mov reg, reg'
p732
aS'jmp func'
p733
asg47
Nsg5
S'0x3f888L'
p734
sg49
(lp735
S'0x3f821L'
p736
asg6
Nsg51
(lp737
S'0x3f828L'
p738
asg55
Nsg56
Nsg57
S'a520f52f5785a217e8fe2f5e8207c873'
p739
sg59
S'2b464142017123bc67053cf8f6565b74'
p740
sg61
(lp741
g698
ag705
ag712
ag719
ag726
asg63
Nsba(ibclass
BBasicBlock
p742
(dp743
g12
Nsg13
(lp744
(ibclass
BInstr
p745
(dp746
g2
Nsg17
S'mov     esi, edx        ; n'
p747
sg19
S'89d6'
p748
sg21
Vmov esi, edx
p749
sg5
L260256L
sg6
Nsg23
S'mov'
p750
sg25
S'0x3f8a0L'
p751
sg27
Nsba(ibclass
BInstr
p752
(dp753
g2
Nsg17
S'mov     rdi, zOld       ; pOld'
p754
sg19
S'4c89c7'
p755
sg21
Vmov rdi, r8
p756
sg5
L260258L
sg6
Nsg23
S'mov'
p757
sg25
S'0x3f8a2L'
p758
sg27
Nsba(ibclass
BInstr
p759
(dp760
g2
Nsg17
S'call    sqlite3_realloc64'
p761
sg19
S'e836acffff'
p762
sg21
Vcall 0xffffffffffffac3b
p763
sg5
L260261L
sg6
Nsg23
S'call'
p764
sg25
S'0x3f8a5L'
p765
sg27
Nsba(ibclass
BInstr
p766
(dp767
g2
Nsg17
S'mov     rcx, rax'
p768
sg19
S'4889c1'
p769
sg21
Vmov rcx, rax
p770
sg5
L260266L
sg6
Nsg23
S'mov'
p771
sg25
S'0x3f8aaL'
p772
sg27
Nsba(ibclass
BInstr
p773
(dp774
g2
Nsg17
S'jmp     loc_3F812'
p775
sg19
S'e960ffffff'
p776
sg21
Vjmp 0xffffffffffffff65
p777
sg5
L260269L
sg6
Nsg23
S'jmp'
p778
sg25
S'0x3f8adL'
p779
sg27
Nsbasg42
(lp780
S'mov reg, reg'
p781
aS'mov reg, zOld'
p782
aS'cregl sqlite3_reregloc64'
p783
aS'mov reg, reg'
p784
aS'jmp func'
p785
asg47
Nsg5
S'0x3f8a0L'
p786
sg49
(lp787
S'0x3f7f6L'
p788
asg6
Nsg51
(lp789
S'0x3f812L'
p790
asg55
Nsg56
Nsg57
S'a520f52f5785a217e8fe2f5e8207c873'
p791
sg59
S'0cf0f44642c350d134d786c2a9415fa5'
p792
sg61
(lp793
g750
ag757
ag764
ag771
ag778
asg63
Nsba(ibclass
BBasicBlock
p794
(dp795
g12
Nsg13
(lp796
(ibclass
BInstr
p797
(dp798
g2
Nsg17
S'mov     rdi, p          ; p'
p799
sg19
S'4889df'
p800
sg21
Vmov rdi, rbx
p801
sg5
L260280L
sg6
Nsg23
S'mov'
p802
sg25
S'0x3f8b8L'
p803
sg27
Nsba(ibclass
BInstr
p804
(dp805
g2
Nsg17
S'call    sqlite3StrAccumReset'
p806
sg19
S'e810b1fdff'
p807
sg21
Vcall 0xfffffffffffdb115
p808
sg5
L260283L
sg6
Nsg23
S'call'
p809
sg25
S'0x3f8bbL'
p810
sg27
Nsba(ibclass
BInstr
p811
(dp812
g2
Nsg17
S'mov     byte ptr [p+24h], 1'
p813
sg19
S'c6432401'
p814
sg21
Vmov byte ptr [rbx + 0x24], 1
p815
sg5
L260288L
sg6
Nsg23
S'mov'
p816
sg25
S'0x3f8c0L'
p817
sg27
Nsba(ibclass
BInstr
p818
(dp819
g2
Nsg17
S'mov     dword ptr [p+1Ch], 0'
p820
sg19
S'c7431c00000000'
p821
sg21
Vmov dword ptr [rbx + 0x1c], 0
p822
sg5
L260292L
sg6
Nsg23
S'mov'
p823
sg25
S'0x3f8c4L'
p824
sg27
Nsba(ibclass
BInstr
p825
(dp826
g2
Nsg17
S'xor     eax, eax'
p827
sg19
S'31c0'
p828
sg21
Vxor eax, eax
p829
sg5
L260299L
sg6
Nsg23
S'xor'
p830
sg25
S'0x3f8cbL'
p831
sg27
Nsba(ibclass
BInstr
p832
(dp833
g2
Nsg17
S'jmp     loc_3F83E'
p834
sg19
S'e96cffffff'
p835
sg21
Vjmp 0xffffffffffffff71
p836
sg5
L260301L
sg6
Nsg23
S'jmp'
p837
sg25
S'0x3f8cdL'
p838
sg27
Nsbasg42
(lp839
S'mov reg, p'
p840
aS'cregl sqlite3StrAccumReset'
p841
aS'mov mem, 1'
p842
aS'mov mem, 0'
p843
aS'xor reg, reg'
p844
aS'jmp func'
p845
asg47
Nsg5
S'0x3f8b8L'
p846
sg49
(lp847
S'0x3f812L'
p848
asg6
Nsg51
(lp849
S'0x3f83eL'
p850
asg55
Nsg56
Nsg57
S'1a05ad472a5e636749e2f43b0dff8e5b'
p851
sg59
S'43029b7d71700b031fb26514a52feb10'
p852
sg61
(lp853
g802
ag809
ag816
ag823
ag830
ag837
asg63
Nsbasb.