(ibclass
BFunc
p0
(dp1
S'hash'
p2
NsS'name'
p3
S'sqlite3AppendChar'
p4
sS'start_address'
p5
L260320L
sS'flag'
p6
NsS'program'
p7
NsS'bbs'
p8
(lp9
(ibclass
BBasicBlock
p10
(dp11
S'function'
p12
NsS'binstrs'
p13
(lp14
(ibclass
BInstr
p15
(dp16
g2
NsS'disasm'
p17
S'push    rbp'
p18
sS'bytes'
p19
S'55'
p20
sS'disasm_striped'
p21
Vpush rbp
p22
sg5
L260320L
sg6
NsS'mnem'
p23
S'push'
p24
sS'address'
p25
S'0x3f8e0L'
p26
sS'basicblock'
p27
Nsba(ibclass
BInstr
p28
(dp29
g2
Nsg17
S'push    rbx'
p30
sg19
S'53'
p31
sg21
Vpush rbx
p32
sg5
L260321L
sg6
Nsg23
S'push'
p33
sg25
S'0x3f8e1L'
p34
sg27
Nsba(ibclass
BInstr
p35
(dp36
g2
Nsg17
S'mov     rbx, p'
p37
sg19
S'4889fb'
p38
sg21
Vmov rbx, rdi
p39
sg5
L260322L
sg6
Nsg23
S'mov'
p40
sg25
S'0x3f8e2L'
p41
sg27
Nsba(ibclass
BInstr
p42
(dp43
g2
Nsg17
S'movsxd  rcx, esi'
p44
sg19
S'4863ce'
p45
sg21
Vmovsxd rcx, esi
p46
sg5
L260325L
sg6
Nsg23
S'movsxd'
p47
sg25
S'0x3f8e5L'
p48
sg27
Nsba(ibclass
BInstr
p49
(dp50
g2
Nsg17
S'mov     ebp, edx'
p51
sg19
S'89d5'
p52
sg21
Vmov ebp, edx
p53
sg5
L260328L
sg6
Nsg23
S'mov'
p54
sg25
S'0x3f8e8L'
p55
sg27
Nsba(ibclass
BInstr
p56
(dp57
g2
Nsg17
S'sub     rsp, 8'
p58
sg19
S'4883ec08'
p59
sg21
Vsub rsp, 8
p60
sg5
L260330L
sg6
Nsg23
S'sub'
p61
sg25
S'0x3f8eaL'
p62
sg27
Nsba(ibclass
BInstr
p63
(dp64
g2
Nsg17
S'mov     edi, [p+18h]'
p65
sg19
S'8b7f18'
p66
sg21
Vmov edi, dword ptr [rdi + 0x18]
p67
sg5
L260334L
sg6
Nsg23
S'mov'
p68
sg25
S'0x3f8eeL'
p69
sg27
Nsba(ibclass
BInstr
p70
(dp71
g2
Nsg17
S'mov     r8d, [p+1Ch]'
p72
sg19
S'448b431c'
p73
sg21
Vmov r8d, dword ptr [rbx + 0x1c]
p74
sg5
L260337L
sg6
Nsg23
S'mov'
p75
sg25
S'0x3f8f1L'
p76
sg27
Nsba(ibclass
BInstr
p77
(dp78
g2
Nsg17
S'add     rcx, rdi'
p79
sg19
S'4801f9'
p80
sg21
Vadd rcx, rdi
p81
sg5
L260341L
sg6
Nsg23
S'add'
p82
sg25
S'0x3f8f5L'
p83
sg27
Nsba(ibclass
BInstr
p84
(dp85
g2
Nsg17
S'cmp     rcx, r8'
p86
sg19
S'4c39c1'
p87
sg21
Vcmp rcx, r8
p88
sg5
L260344L
sg6
Nsg23
S'cmp'
p89
sg25
S'0x3f8f8L'
p90
sg27
Nsba(ibclass
BInstr
p91
(dp92
g2
Nsg17
S'jl      short loc_3F910'
p93
sg19
S'7c13'
p94
sg21
Vjl 0x15
p95
sg5
L260347L
sg6
Nsg23
S'jl'
p96
sg25
S'0x3f8fbL'
p97
sg27
NsbasS'disasm_list'
p98
(lp99
S'push reg'
p100
aS'push reg'
p101
aS'mov reg, p'
p102
aS'movsxd reg, reg'
p103
aS'mov reg, reg'
p104
aS'sub reg, 8'
p105
aS'mov reg, mem'
p106
aS'mov regd, mem'
p107
aS'add reg, reg'
p108
aS'cmp reg, reg'
p109
aS'jl func'
p110
asS'end_address'
p111
Nsg5
S'0x3f8e0L'
p112
sS'preds'
p113
(lp114
sg6
NsS'succs'
p115
(lp116
S'0x3f8fdL'
p117
aS'0x3f910L'
p118
asS'hash_v3'
p119
NsS'flag_v2'
p120
NsS'hash_v1'
p121
S'0391ef82230a2a922cf927cee1f39b4a'
p122
sS'hash_v2'
p123
S'8969efb340ac302acb2a877234a241d3'
p124
sS'mnen_list'
p125
(lp126
g24
ag33
ag40
ag47
ag54
ag61
ag68
ag75
ag82
ag89
ag96
asS'neighbour_disasm_list'
p127
Nsba(ibclass
BBasicBlock
p128
(dp129
g12
Nsg13
(lp130
(ibclass
BInstr
p131
(dp132
g2
Nsg17
S'cmp     byte ptr [p+24h], 0'
p133
sg19
S'807b2400'
p134
sg21
Vcmp byte ptr [rbx + 0x24], 0
p135
sg5
L260349L
sg6
Nsg23
S'cmp'
p136
sg25
S'0x3f8fdL'
p137
sg27
Nsba(ibclass
BInstr
p138
(dp139
g2
Nsg17
S'jz      short loc_3F948'
p140
sg19
S'7445'
p141
sg21
Vje 0x47
p142
sg5
L260353L
sg6
Nsg23
S'jz'
p143
sg25
S'0x3f901L'
p144
sg27
Nsbasg98
(lp145
S'cmp mem, 0'
p146
aS'jz func'
p147
asg111
Nsg5
S'0x3f8fdL'
p148
sg113
(lp149
S'0x3f8e0L'
p150
asg6
Nsg115
(lp151
S'0x3f903L'
p152
aS'0x3f948L'
p153
asg119
Nsg120
Nsg121
S'613dbc2b0cb9d6264d802b24d709daea'
p154
sg123
S'7f4ecf78254be39f53e7a11cedd080e9'
p155
sg125
(lp156
g136
ag143
asg127
Nsba(ibclass
BBasicBlock
p157
(dp158
g12
Nsg13
(lp159
(ibclass
BInstr
p160
(dp161
g2
Nsg17
S'add     rsp, 8'
p162
sg19
S'4883c408'
p163
sg21
Vadd rsp, 8
p164
sg5
L260355L
sg6
Nsg23
S'add'
p165
sg25
S'0x3f903L'
p166
sg27
Nsba(ibclass
BInstr
p167
(dp168
g2
Nsg17
S'pop     p'
p169
sg19
S'5b'
p170
sg21
Vpop rbx
p171
sg5
L260359L
sg6
Nsg23
S'pop'
p172
sg25
S'0x3f907L'
p173
sg27
Nsba(ibclass
BInstr
p174
(dp175
g2
Nsg17
S'pop     c'
p176
sg19
S'5d'
p177
sg21
Vpop rbp
p178
sg5
L260360L
sg6
Nsg23
S'pop'
p179
sg25
S'0x3f908L'
p180
sg27
Nsba(ibclass
BInstr
p181
(dp182
g2
Nsg17
S'retn'
p183
sg19
S'c3'
p184
sg21
Vret 
p185
sg5
L260361L
sg6
Nsg23
S'retn'
p186
sg25
S'0x3f909L'
p187
sg27
Nsbasg98
(lp188
S'add reg, 8'
p189
aS'pop p'
p190
aS'pop c'
p191
ag183
asg111
Nsg5
S'0x3f903L'
p192
sg113
(lp193
S'0x3f8fdL'
p194
aS'0x3f91aL'
p195
aS'0x3f948L'
p196
asg6
Nsg115
(lp197
sg119
Nsg120
Nsg121
S'4d1981a678d0c70281d5161c3174b44c'
p198
sg123
S'50fe89873b986b67114df4acd31d402f'
p199
sg125
(lp200
g165
ag172
ag179
ag186
asg127
Nsba(ibclass
BBasicBlock
p201
(dp202
g12
Nsg13
(lp203
(ibclass
BInstr
p204
(dp205
g2
Nsg17
S'test    esi, esi'
p206
sg19
S'85f6'
p207
sg21
Vtest esi, esi
p208
sg5
L260368L
sg6
Nsg23
S'test'
p209
sg25
S'0x3f910L'
p210
sg27
Nsba(ibclass
BInstr
p211
(dp212
g2
Nsg17
S'mov     rax, rdi'
p213
sg19
S'4889f8'
p214
sg21
Vmov rax, rdi
p215
sg5
L260370L
sg6
Nsg23
S'mov'
p216
sg25
S'0x3f912L'
p217
sg27
Nsba(ibclass
BInstr
p218
(dp219
g2
Nsg17
S'lea     ecx, [N-1]'
p220
sg19
S'8d4eff'
p221
sg21
Vlea ecx, [rsi - 1]
p222
sg5
L260373L
sg6
Nsg23
S'lea'
p223
sg25
S'0x3f915L'
p224
sg27
Nsba(ibclass
BInstr
p225
(dp226
g2
Nsg17
S'jg      short loc_3F929'
p227
sg19
S'7f0f'
p228
sg21
Vjg 0x11
p229
sg5
L260376L
sg6
Nsg23
S'jg'
p230
sg25
S'0x3f918L'
p231
sg27
Nsbasg98
(lp232
S'test reg, reg'
p233
aS'mov reg, reg'
p234
aS'lea reg, mem'
p235
aS'jg func'
p236
asg111
Nsg5
S'0x3f910L'
p237
sg113
(lp238
S'0x3f8e0L'
p239
asg6
Nsg115
(lp240
S'0x3f91aL'
p241
aS'0x3f929L'
p242
asg119
Nsg120
Nsg121
S'629fad7f6f94f30c77adf39a95d80a15'
p243
sg123
S'12e45991b4b09fad66ef026ed1401fcc'
p244
sg125
(lp245
g209
ag216
ag223
ag230
asg127
Nsba(ibclass
BBasicBlock
p246
(dp247
g12
Nsg13
(lp248
(ibclass
BInstr
p249
(dp250
g2
Nsg17
S'jmp     short loc_3F903'
p251
sg19
S'ebe7'
p252
sg21
Vjmp 0xffffffffffffffe9
p253
sg5
L260378L
sg6
Nsg23
S'jmp'
p254
sg25
S'0x3f91aL'
p255
sg27
Nsbasg98
(lp256
S'jmp func'
p257
asg111
Nsg5
S'0x3f91aL'
p258
sg113
(lp259
S'0x3f910L'
p260
asg6
Nsg115
(lp261
S'0x3f903L'
p262
asg119
Nsg120
Nsg121
S'0ef6cf926f2f394b0cc8e11be8022625'
p263
sg123
S'6c64eaafdcb2d6ebd96fc3dc6cab1911'
p264
sg125
(lp265
g254
asg127
Nsba(ibclass
BBasicBlock
p266
(dp267
g12
Nsg13
(lp268
(ibclass
BInstr
p269
(dp270
g2
Nsg17
S'mov     edi, [p+18h]'
p271
sg19
S'8b7b18'
p272
sg21
Vmov edi, dword ptr [rbx + 0x18]
p273
sg5
L260384L
sg6
Nsg23
S'mov'
p274
sg25
S'0x3f920L'
p275
sg27
Nsba(ibclass
BInstr
p276
(dp277
g2
Nsg17
S'sub     ecx, 1'
p278
sg19
S'83e901'
p279
sg21
Vsub ecx, 1
p280
sg5
L260387L
sg6
Nsg23
S'sub'
p281
sg25
S'0x3f923L'
p282
sg27
Nsba(ibclass
BInstr
p283
(dp284
g2
Nsg17
S'mov     rax, rdi'
p285
sg19
S'4889f8'
p286
sg21
Vmov rax, rdi
p287
sg5
L260390L
sg6
Nsg23
S'mov'
p288
sg25
S'0x3f926L'
p289
sg27
Nsbasg98
(lp290
S'mov reg, mem'
p291
aS'sub reg, 1'
p292
aS'mov reg, reg'
p293
asg111
Nsg5
S'0x3f920L'
p294
sg113
(lp295
S'0x3f929L'
p296
asg6
Nsg115
(lp297
S'0x3f929L'
p298
asg119
Nsg120
Nsg121
S'afa8fd7489dd84ca1960c76cb3046536'
p299
sg123
S'621b683e7c98301596283c3ca9eba7ec'
p300
sg125
(lp301
g274
ag281
ag288
asg127
Nsba(ibclass
BBasicBlock
p302
(dp303
g12
Nsg13
(lp304
(ibclass
BInstr
p305
(dp306
g2
Nsg17
S'mov     rsi, [p+10h]    ; N'
p307
sg19
S'488b7310'
p308
sg21
Vmov rsi, qword ptr [rbx + 0x10]
p309
sg5
L260393L
sg6
Nsg23
S'mov'
p310
sg25
S'0x3f929L'
p311
sg27
Nsba(ibclass
BInstr
p312
(dp313
g2
Nsg17
S'add     eax, 1'
p314
sg19
S'83c001'
p315
sg21
Vadd eax, 1
p316
sg5
L260397L
sg6
Nsg23
S'add'
p317
sg25
S'0x3f92dL'
p318
sg27
Nsba(ibclass
BInstr
p319
(dp320
g2
Nsg17
S'test    ecx, ecx'
p321
sg19
S'85c9'
p322
sg21
Vtest ecx, ecx
p323
sg5
L260400L
sg6
Nsg23
S'test'
p324
sg25
S'0x3f930L'
p325
sg27
Nsba(ibclass
BInstr
p326
(dp327
g2
Nsg17
S'mov     [p+18h], eax'
p328
sg19
S'894318'
p329
sg21
Vmov dword ptr [rbx + 0x18], eax
p330
sg5
L260402L
sg6
Nsg23
S'mov'
p331
sg25
S'0x3f932L'
p332
sg27
Nsba(ibclass
BInstr
p333
(dp334
g2
Nsg17
S'mov     [rsi+rdi], bpl'
p335
sg19
S'40882c3e'
p336
sg21
Vmov byte ptr [rsi + rdi], bpl
p337
sg5
L260405L
sg6
Nsg23
S'mov'
p338
sg25
S'0x3f935L'
p339
sg27
Nsba(ibclass
BInstr
p340
(dp341
g2
Nsg17
S'jg      short loc_3F920'
p342
sg19
S'7fe5'
p343
sg21
Vjg 0xffffffffffffffe7
p344
sg5
L260409L
sg6
Nsg23
S'jg'
p345
sg25
S'0x3f939L'
p346
sg27
Nsbasg98
(lp347
S'mov reg, mem'
p348
aS'add reg, 1'
p349
aS'test reg, reg'
p350
aS'mov mem, reg'
p351
aS'mov mem, regl'
p352
aS'jg func'
p353
asg111
Nsg5
S'0x3f929L'
p354
sg113
(lp355
S'0x3f910L'
p356
aS'0x3f920L'
p357
aS'0x3f954L'
p358
asg6
Nsg115
(lp359
S'0x3f920L'
p360
aS'0x3f93bL'
p361
asg119
Nsg120
Nsg121
S'37145fa49256dbcd8a5bc7ad79c5bdc7'
p362
sg123
S'dfddcd4bde55f6062c355b0572348471'
p363
sg125
(lp364
g310
ag317
ag324
ag331
ag338
ag345
asg127
Nsba(ibclass
BBasicBlock
p365
(dp366
g12
Nsg13
(lp367
(ibclass
BInstr
p368
(dp369
g2
Nsg17
S'add     rsp, 8'
p370
sg19
S'4883c408'
p371
sg21
Vadd rsp, 8
p372
sg5
L260411L
sg6
Nsg23
S'add'
p373
sg25
S'0x3f93bL'
p374
sg27
Nsba(ibclass
BInstr
p375
(dp376
g2
Nsg17
S'pop     p'
p377
sg19
S'5b'
p378
sg21
Vpop rbx
p379
sg5
L260415L
sg6
Nsg23
S'pop'
p380
sg25
S'0x3f93fL'
p381
sg27
Nsba(ibclass
BInstr
p382
(dp383
g2
Nsg17
S'pop     c'
p384
sg19
S'5d'
p385
sg21
Vpop rbp
p386
sg5
L260416L
sg6
Nsg23
S'pop'
p387
sg25
S'0x3f940L'
p388
sg27
Nsba(ibclass
BInstr
p389
(dp390
g2
Nsg17
S'retn'
p391
sg19
S'c3'
p392
sg21
Vret 
p393
sg5
L260417L
sg6
Nsg23
S'retn'
p394
sg25
S'0x3f941L'
p395
sg27
Nsbasg98
(lp396
S'add reg, 8'
p397
aS'pop p'
p398
aS'pop c'
p399
ag391
asg111
Nsg5
S'0x3f93bL'
p400
sg113
(lp401
S'0x3f929L'
p402
asg6
Nsg115
(lp403
sg119
Nsg120
Nsg121
S'4d1981a678d0c70281d5161c3174b44c'
p404
sg123
S'50fe89873b986b67114df4acd31d402f'
p405
sg125
(lp406
g373
ag380
ag387
ag394
asg127
Nsba(ibclass
BBasicBlock
p407
(dp408
g12
Nsg13
(lp409
(ibclass
BInstr
p410
(dp411
g2
Nsg17
S'mov     rdi, p          ; p'
p412
sg19
S'4889df'
p413
sg21
Vmov rdi, rbx
p414
sg5
L260424L
sg6
Nsg23
S'mov'
p415
sg25
S'0x3f948L'
p416
sg27
Nsba(ibclass
BInstr
p417
(dp418
g2
Nsg17
S'call    sqlite3StrAccumEnlarge'
p419
sg19
S'e870feffff'
p420
sg21
Vcall 0xfffffffffffffe75
p421
sg5
L260427L
sg6
Nsg23
S'call'
p422
sg25
S'0x3f94bL'
p423
sg27
Nsba(ibclass
BInstr
p424
(dp425
g2
Nsg17
S'test    eax, eax'
p426
sg19
S'85c0'
p427
sg21
Vtest eax, eax
p428
sg5
L260432L
sg6
Nsg23
S'test'
p429
sg25
S'0x3f950L'
p430
sg27
Nsba(ibclass
BInstr
p431
(dp432
g2
Nsg17
S'jle     short loc_3F903'
p433
sg19
S'7eaf'
p434
sg21
Vjle 0xffffffffffffffb1
p435
sg5
L260434L
sg6
Nsg23
S'jle'
p436
sg25
S'0x3f952L'
p437
sg27
Nsbasg98
(lp438
S'mov reg, p'
p439
aS'cregl sqlite3StrAccumEnlarge'
p440
aS'test reg, reg'
p441
aS'jle func'
p442
asg111
Nsg5
S'0x3f948L'
p443
sg113
(lp444
S'0x3f8fdL'
p445
asg6
Nsg115
(lp446
S'0x3f903L'
p447
aS'0x3f954L'
p448
asg119
Nsg120
Nsg121
S'23637ccde51e5fbaaa2ec89cdeb4575b'
p449
sg123
S'd1753c6d4db7db3212da32fdab547a5d'
p450
sg125
(lp451
g415
ag422
ag429
ag436
asg127
Nsba(ibclass
BBasicBlock
p452
(dp453
g12
Nsg13
(lp454
(ibclass
BInstr
p455
(dp456
g2
Nsg17
S'mov     edi, [p+18h]'
p457
sg19
S'8b7b18'
p458
sg21
Vmov edi, dword ptr [rbx + 0x18]
p459
sg5
L260436L
sg6
Nsg23
S'mov'
p460
sg25
S'0x3f954L'
p461
sg27
Nsba(ibclass
BInstr
p462
(dp463
g2
Nsg17
S'lea     ecx, [N-1]'
p464
sg19
S'8d48ff'
p465
sg21
Vlea ecx, [rax - 1]
p466
sg5
L260439L
sg6
Nsg23
S'lea'
p467
sg25
S'0x3f957L'
p468
sg27
Nsba(ibclass
BInstr
p469
(dp470
g2
Nsg17
S'mov     rax, rdi'
p471
sg19
S'4889f8'
p472
sg21
Vmov rax, rdi
p473
sg5
L260442L
sg6
Nsg23
S'mov'
p474
sg25
S'0x3f95aL'
p475
sg27
Nsba(ibclass
BInstr
p476
(dp477
g2
Nsg17
S'jmp     short loc_3F929'
p478
sg19
S'ebca'
p479
sg21
Vjmp 0xffffffffffffffcc
p480
sg5
L260445L
sg6
Nsg23
S'jmp'
p481
sg25
S'0x3f95dL'
p482
sg27
Nsbasg98
(lp483
S'mov reg, mem'
p484
aS'lea reg, mem'
p485
aS'mov reg, reg'
p486
aS'jmp func'
p487
asg111
Nsg5
S'0x3f954L'
p488
sg113
(lp489
S'0x3f948L'
p490
asg6
Nsg115
(lp491
S'0x3f929L'
p492
asg119
Nsg120
Nsg121
S'624dffa5ed2eb89221c0ea54f6069626'
p493
sg123
S'fefc3a85e448d48020f3a799d1a69159'
p494
sg125
(lp495
g460
ag467
ag474
ag481
asg127
Nsbasb.