(ibclass
BFunc
p0
(dp1
S'hash'
p2
NsS'name'
p3
S'corruptSchema'
p4
sS'start_address'
p5
L335792L
sS'flag'
p6
NsS'program'
p7
NsS'bbs'
p8
(lp9
(ibclass
BBasicBlock
p10
(dp11
S'function'
p12
NsS'binstrs'
p13
(lp14
(ibclass
BInstr
p15
(dp16
g2
NsS'disasm'
p17
S'push    r13'
p18
sS'bytes'
p19
S'4155'
p20
sS'disasm_striped'
p21
Vpush r13
p22
sg5
L335792L
sg6
NsS'mnem'
p23
S'push'
p24
sS'address'
p25
S'0x51fb0L'
p26
sS'basicblock'
p27
Nsba(ibclass
BInstr
p28
(dp29
g2
Nsg17
S'push    r12'
p30
sg19
S'4154'
p31
sg21
Vpush r12
p32
sg5
L335794L
sg6
Nsg23
S'push'
p33
sg25
S'0x51fb2L'
p34
sg27
Nsba(ibclass
BInstr
p35
(dp36
g2
Nsg17
S'push    rbp'
p37
sg19
S'55'
p38
sg21
Vpush rbp
p39
sg5
L335796L
sg6
Nsg23
S'push'
p40
sg25
S'0x51fb4L'
p41
sg27
Nsba(ibclass
BInstr
p42
(dp43
g2
Nsg17
S'push    rbx'
p44
sg19
S'53'
p45
sg21
Vpush rbx
p46
sg5
L335797L
sg6
Nsg23
S'push'
p47
sg25
S'0x51fb5L'
p48
sg27
Nsba(ibclass
BInstr
p49
(dp50
g2
Nsg17
S'mov     rbx, pData'
p51
sg19
S'4889fb'
p52
sg21
Vmov rbx, rdi
p53
sg5
L335798L
sg6
Nsg23
S'mov'
p54
sg25
S'0x51fb6L'
p55
sg27
Nsba(ibclass
BInstr
p56
(dp57
g2
Nsg17
S'sub     rsp, 8'
p58
sg19
S'4883ec08'
p59
sg21
Vsub rsp, 8
p60
sg5
L335801L
sg6
Nsg23
S'sub'
p61
sg25
S'0x51fb9L'
p62
sg27
Nsba(ibclass
BInstr
p63
(dp64
g2
Nsg17
S'mov     rbp, [pData]'
p65
sg19
S'488b2f'
p66
sg21
Vmov rbp, qword ptr [rdi]
p67
sg5
L335805L
sg6
Nsg23
S'mov'
p68
sg25
S'0x51fbdL'
p69
sg27
Nsba(ibclass
BInstr
p70
(dp71
g2
Nsg17
S'cmp     byte ptr [db+61h], 0'
p72
sg19
S'807d6100'
p73
sg21
Vcmp byte ptr [rbp + 0x61], 0
p74
sg5
L335808L
sg6
Nsg23
S'cmp'
p75
sg25
S'0x51fc0L'
p76
sg27
Nsba(ibclass
BInstr
p77
(dp78
g2
Nsg17
S'jnz     short loc_52040'
p79
sg19
S'757a'
p80
sg21
Vjne 0x7c
p81
sg5
L335812L
sg6
Nsg23
S'jnz'
p82
sg25
S'0x51fc4L'
p83
sg27
NsbasS'disasm_list'
p84
(lp85
S'push reg'
p86
aS'push reg'
p87
aS'push reg'
p88
aS'push reg'
p89
aS'mov reg, pData'
p90
aS'sub reg, 8'
p91
aS'mov reg, mem'
p92
aS'cmp mem, 0'
p93
aS'jnz func'
p94
asS'end_address'
p95
Nsg5
S'0x51fb0L'
p96
sS'preds'
p97
(lp98
sg6
NsS'succs'
p99
(lp100
S'0x51fc6L'
p101
aS'0x52040L'
p102
asS'hash_v3'
p103
NsS'flag_v2'
p104
NsS'hash_v1'
p105
S'01b0c75f9ed7f5cba77cfba6c47acecf'
p106
sS'hash_v2'
p107
S'd2c163630d62c5af3df170f402a62621'
p108
sS'mnen_list'
p109
(lp110
g24
ag33
ag40
ag47
ag54
ag61
ag68
ag75
ag82
asS'neighbour_disasm_list'
p111
Nsba(ibclass
BBasicBlock
p112
(dp113
g12
Nsg13
(lp114
(ibclass
BInstr
p115
(dp116
g2
Nsg17
S'test    byte ptr [db+30h], 1'
p117
sg19
S'f6453001'
p118
sg21
Vtest byte ptr [rbp + 0x30], 1
p119
sg5
L335814L
sg6
Nsg23
S'test'
p120
sg25
S'0x51fc6L'
p121
sg27
Nsba(ibclass
BInstr
p122
(dp123
g2
Nsg17
S'jnz     short loc_52021'
p124
sg19
S'7555'
p125
sg21
Vjne 0x57
p126
sg5
L335818L
sg6
Nsg23
S'jnz'
p127
sg25
S'0x51fcaL'
p128
sg27
Nsbasg84
(lp129
S'test mem, 1'
p130
aS'jnz func'
p131
asg95
Nsg5
S'0x51fc6L'
p132
sg97
(lp133
S'0x51fb0L'
p134
asg6
Nsg99
(lp135
S'0x51fccL'
p136
aS'0x52021L'
p137
asg103
Nsg104
Nsg105
S'69f35919c7dcb199d0057b2f8ce242da'
p138
sg107
S'057ad40c2ef821a22923b3b24727e5ff'
p139
sg109
(lp140
g120
ag127
asg111
Nsba(ibclass
BBasicBlock
p141
(dp142
g12
Nsg13
(lp143
(ibclass
BInstr
p144
(dp145
g2
Nsg17
S'lea     rax, a?+2       ; "?"'
p146
sg19
S'488d0536850800'
p147
sg21
Vlea rax, [rip + 0x88536]
p148
sg5
L335820L
sg6
Nsg23
S'lea'
p149
sg25
S'0x51fccL'
p150
sg27
Nsba(ibclass
BInstr
p151
(dp152
g2
Nsg17
S'test    zObj, zObj'
p153
sg19
S'4885f6'
p154
sg21
Vtest rsi, rsi
p155
sg5
L335827L
sg6
Nsg23
S'test'
p156
sg25
S'0x51fd3L'
p157
sg27
Nsba(ibclass
BInstr
p158
(dp159
g2
Nsg17
S'mov     r12, zExtra'
p160
sg19
S'4989d4'
p161
sg21
Vmov r12, rdx
p162
sg5
L335830L
sg6
Nsg23
S'mov'
p163
sg25
S'0x51fd6L'
p164
sg27
Nsba(ibclass
BInstr
p165
(dp166
g2
Nsg17
S'mov     pData, db       ; db'
p167
sg19
S'4889ef'
p168
sg21
Vmov rdi, rbp
p169
sg5
L335833L
sg6
Nsg23
S'mov'
p170
sg25
S'0x51fd9L'
p171
sg27
Nsba(ibclass
BInstr
p172
(dp173
g2
Nsg17
S'cmovz   zObj, rax'
p174
sg19
S'480f44f0'
p175
sg21
Vcmove rsi, rax
p176
sg5
L335836L
sg6
Nsg23
S'cmovz'
p177
sg25
S'0x51fdcL'
p178
sg27
Nsba(ibclass
BInstr
p179
(dp180
g2
Nsg17
S'xor     eax, eax'
p181
sg19
S'31c0'
p182
sg21
Vxor eax, eax
p183
sg5
L335840L
sg6
Nsg23
S'xor'
p184
sg25
S'0x51fe0L'
p185
sg27
Nsba(ibclass
BInstr
p186
(dp187
g2
Nsg17
S'mov     zExtra, zObj'
p188
sg19
S'4889f2'
p189
sg21
Vmov rdx, rsi
p190
sg5
L335842L
sg6
Nsg23
S'mov'
p191
sg25
S'0x51fe2L'
p192
sg27
Nsba(ibclass
BInstr
p193
(dp194
g2
Nsg17
S'lea     zObj, aMalformedDatab; "malformed database schema (%s)"'
p195
sg19
S'488d350c010900'
p196
sg21
Vlea rsi, [rip + 0x9010c]
p197
sg5
L335845L
sg6
Nsg23
S'lea'
p198
sg25
S'0x51fe5L'
p199
sg27
Nsba(ibclass
BInstr
p200
(dp201
g2
Nsg17
S'call    sqlite3MPrintf'
p202
sg19
S'e8fffeffff'
p203
sg21
Vcall 0xffffffffffffff04
p204
sg5
L335852L
sg6
Nsg23
S'call'
p205
sg25
S'0x51fecL'
p206
sg27
Nsba(ibclass
BInstr
p207
(dp208
g2
Nsg17
S'test    zExtra, zExtra'
p209
sg19
S'4d85e4'
p210
sg21
Vtest r12, r12
p211
sg5
L335857L
sg6
Nsg23
S'test'
p212
sg25
S'0x51ff1L'
p213
sg27
Nsba(ibclass
BInstr
p214
(dp215
g2
Nsg17
S'mov     r13, rax'
p216
sg19
S'4989c5'
p217
sg21
Vmov r13, rax
p218
sg5
L335860L
sg6
Nsg23
S'mov'
p219
sg25
S'0x51ff4L'
p220
sg27
Nsba(ibclass
BInstr
p221
(dp222
g2
Nsg17
S'jz      short loc_52000'
p223
sg19
S'7407'
p224
sg21
Vje 9
p225
sg5
L335863L
sg6
Nsg23
S'jz'
p226
sg25
S'0x51ff7L'
p227
sg27
Nsbasg84
(lp228
S'lea reg, a?+2'
p229
aS'test zObj, zObj'
p230
aS'mov reg, zExtra'
p231
aS'mov pData, db'
p232
aS'cmovz zObj, reg'
p233
aS'xor reg, reg'
p234
aS'mov zExtra, zObj'
p235
aS'lea zObj, aMregformedDatab'
p236
aS'cregl sqlite3MPrintf'
p237
aS'test zExtra, zExtra'
p238
aS'mov reg, reg'
p239
aS'jz func'
p240
asg95
Nsg5
S'0x51fccL'
p241
sg97
(lp242
S'0x51fc6L'
p243
asg6
Nsg99
(lp244
S'0x51ff9L'
p245
aS'0x52000L'
p246
asg103
Nsg104
Nsg105
S'6ad2191d9f105f2c804046ca490882a0'
p247
sg107
S'de1755b70f5f1ba314bb52550174cc35'
p248
sg109
(lp249
g149
ag156
ag163
ag170
ag177
ag184
ag191
ag198
ag205
ag212
ag219
ag226
asg111
Nsba(ibclass
BBasicBlock
p250
(dp251
g12
Nsg13
(lp252
(ibclass
BInstr
p253
(dp254
g2
Nsg17
S'cmp     byte ptr [zExtra], 0'
p255
sg19
S'41803c2400'
p256
sg21
Vcmp byte ptr [r12], 0
p257
sg5
L335865L
sg6
Nsg23
S'cmp'
p258
sg25
S'0x51ff9L'
p259
sg27
Nsba(ibclass
BInstr
p260
(dp261
g2
Nsg17
S'jnz     short loc_52058'
p262
sg19
S'7558'
p263
sg21
Vjne 0x5a
p264
sg5
L335870L
sg6
Nsg23
S'jnz'
p265
sg25
S'0x51ffeL'
p266
sg27
Nsbasg84
(lp267
S'cmp mem, 0'
p268
aS'jnz func'
p269
asg95
Nsg5
S'0x51ff9L'
p270
sg97
(lp271
S'0x51fccL'
p272
asg6
Nsg99
(lp273
S'0x52000L'
p274
aS'0x52058L'
p275
asg103
Nsg104
Nsg105
S'30cb3d6f6a174adfabcde507f6944a52'
p276
sg107
S'98d72118630a4e08156799652c8790e6'
p277
sg109
(lp278
g258
ag265
asg111
Nsba(ibclass
BBasicBlock
p279
(dp280
g12
Nsg13
(lp281
(ibclass
BInstr
p282
(dp283
g2
Nsg17
S'mov     rcx, [pData+8]'
p284
sg19
S'488b4b08'
p285
sg21
Vmov rcx, qword ptr [rbx + 8]
p286
sg5
L335872L
sg6
Nsg23
S'mov'
p287
sg25
S'0x52000L'
p288
sg27
Nsba(ibclass
BInstr
p289
(dp290
g2
Nsg17
S'mov     rsi, [rcx]      ; p'
p291
sg19
S'488b31'
p292
sg21
Vmov rsi, qword ptr [rcx]
p293
sg5
L335876L
sg6
Nsg23
S'mov'
p294
sg25
S'0x52004L'
p295
sg27
Nsba(ibclass
BInstr
p296
(dp297
g2
Nsg17
S'test    rsi, rsi'
p298
sg19
S'4885f6'
p299
sg21
Vtest rsi, rsi
p300
sg5
L335879L
sg6
Nsg23
S'test'
p301
sg25
S'0x52007L'
p302
sg27
Nsba(ibclass
BInstr
p303
(dp304
g2
Nsg17
S'jz      short loc_52018'
p305
sg19
S'740c'
p306
sg21
Vje 0xe
p307
sg5
L335882L
sg6
Nsg23
S'jz'
p308
sg25
S'0x5200aL'
p309
sg27
Nsbasg84
(lp310
S'mov reg, mem'
p311
aS'mov reg, mem'
p312
aS'test reg, reg'
p313
aS'jz func'
p314
asg95
Nsg5
S'0x52000L'
p315
sg97
(lp316
S'0x51fccL'
p317
aS'0x51ff9L'
p318
aS'0x52058L'
p319
asg6
Nsg99
(lp320
S'0x5200cL'
p321
aS'0x52018L'
p322
asg103
Nsg104
Nsg105
S'ea5d08c7dcc07640d42787f826218f11'
p323
sg107
S'd54ee3a5cadc8316bc0dafeaa7f6c7f9'
p324
sg109
(lp325
g287
ag294
ag301
ag308
asg111
Nsba(ibclass
BBasicBlock
p326
(dp327
g12
Nsg13
(lp328
(ibclass
BInstr
p329
(dp330
g2
Nsg17
S'mov     rdi, db         ; db'
p331
sg19
S'4889ef'
p332
sg21
Vmov rdi, rbp
p333
sg5
L335884L
sg6
Nsg23
S'mov'
p334
sg25
S'0x5200cL'
p335
sg27
Nsba(ibclass
BInstr
p336
(dp337
g2
Nsg17
S'call    sqlite3DbFreeNN'
p338
sg19
S'e81c8dfcff'
p339
sg21
Vcall 0xfffffffffffc8d21
p340
sg5
L335887L
sg6
Nsg23
S'call'
p341
sg25
S'0x5200fL'
p342
sg27
Nsba(ibclass
BInstr
p343
(dp344
g2
Nsg17
S'mov     rcx, [pData+8]'
p345
sg19
S'488b4b08'
p346
sg21
Vmov rcx, qword ptr [rbx + 8]
p347
sg5
L335892L
sg6
Nsg23
S'mov'
p348
sg25
S'0x52014L'
p349
sg27
Nsbasg84
(lp350
S'mov reg, db'
p351
aS'cregl sqlite3DbFreeNN'
p352
aS'mov reg, mem'
p353
asg95
Nsg5
S'0x5200cL'
p354
sg97
(lp355
S'0x52000L'
p356
asg6
Nsg99
(lp357
S'0x52018L'
p358
asg103
Nsg104
Nsg105
S'bdd678288f6ec3a6c6cdf2db1999178a'
p359
sg107
S'63b944726040c9279b2b25f2e1a68bb7'
p360
sg109
(lp361
g334
ag341
ag348
asg111
Nsba(ibclass
BBasicBlock
p362
(dp363
g12
Nsg13
(lp364
(ibclass
BInstr
p365
(dp366
g2
Nsg17
S'mov     [rcx], z'
p367
sg19
S'4c8929'
p368
sg21
Vmov qword ptr [rcx], r13
p369
sg5
L335896L
sg6
Nsg23
S'mov'
p370
sg25
S'0x52018L'
p371
sg27
Nsba(ibclass
BInstr
p372
(dp373
g2
Nsg17
S'cmp     byte ptr [db+61h], 0'
p374
sg19
S'807d6100'
p375
sg21
Vcmp byte ptr [rbp + 0x61], 0
p376
sg5
L335899L
sg6
Nsg23
S'cmp'
p377
sg25
S'0x5201bL'
p378
sg27
Nsba(ibclass
BInstr
p379
(dp380
g2
Nsg17
S'jnz     short loc_52040'
p381
sg19
S'751f'
p382
sg21
Vjne 0x21
p383
sg5
L335903L
sg6
Nsg23
S'jnz'
p384
sg25
S'0x5201fL'
p385
sg27
Nsbasg84
(lp386
S'mov mem, z'
p387
aS'cmp mem, 0'
p388
aS'jnz func'
p389
asg95
Nsg5
S'0x52018L'
p390
sg97
(lp391
S'0x52000L'
p392
aS'0x5200cL'
p393
asg6
Nsg99
(lp394
S'0x52021L'
p395
aS'0x52040L'
p396
asg103
Nsg104
Nsg105
S'867045e6b0676193724ea51159324701'
p397
sg107
S'2e47babddb44661f80e61a0f49711930'
p398
sg109
(lp399
g370
ag377
ag384
asg111
Nsba(ibclass
BBasicBlock
p400
(dp401
g12
Nsg13
(lp402
(ibclass
BInstr
p403
(dp404
g2
Nsg17
S'mov     edi, offset loc_1CC40; lineno'
p405
sg19
S'bf40cc0100'
p406
sg21
Vmov edi, 0x1cc40
p407
sg5
L335905L
sg6
Nsg23
S'mov'
p408
sg25
S'0x52021L'
p409
sg27
Nsba(ibclass
BInstr
p410
(dp411
g2
Nsg17
S'call    sqlite3CorruptError'
p412
sg19
S'e8e53dffff'
p413
sg21
Vcall 0xffffffffffff3dea
p414
sg5
L335910L
sg6
Nsg23
S'call'
p415
sg25
S'0x52026L'
p416
sg27
Nsba(ibclass
BInstr
p417
(dp418
g2
Nsg17
S'mov     [pData+14h], eax'
p419
sg19
S'894314'
p420
sg21
Vmov dword ptr [rbx + 0x14], eax
p421
sg5
L335915L
sg6
Nsg23
S'mov'
p422
sg25
S'0x5202bL'
p423
sg27
Nsba(ibclass
BInstr
p424
(dp425
g2
Nsg17
S'add     rsp, 8'
p426
sg19
S'4883c408'
p427
sg21
Vadd rsp, 8
p428
sg5
L335918L
sg6
Nsg23
S'add'
p429
sg25
S'0x5202eL'
p430
sg27
Nsba(ibclass
BInstr
p431
(dp432
g2
Nsg17
S'pop     pData'
p433
sg19
S'5b'
p434
sg21
Vpop rbx
p435
sg5
L335922L
sg6
Nsg23
S'pop'
p436
sg25
S'0x52032L'
p437
sg27
Nsba(ibclass
BInstr
p438
(dp439
g2
Nsg17
S'pop     db'
p440
sg19
S'5d'
p441
sg21
Vpop rbp
p442
sg5
L335923L
sg6
Nsg23
S'pop'
p443
sg25
S'0x52033L'
p444
sg27
Nsba(ibclass
BInstr
p445
(dp446
g2
Nsg17
S'pop     r12'
p447
sg19
S'415c'
p448
sg21
Vpop r12
p449
sg5
L335924L
sg6
Nsg23
S'pop'
p450
sg25
S'0x52034L'
p451
sg27
Nsba(ibclass
BInstr
p452
(dp453
g2
Nsg17
S'pop     r13'
p454
sg19
S'415d'
p455
sg21
Vpop r13
p456
sg5
L335926L
sg6
Nsg23
S'pop'
p457
sg25
S'0x52036L'
p458
sg27
Nsba(ibclass
BInstr
p459
(dp460
g2
Nsg17
S'retn'
p461
sg19
S'c3'
p462
sg21
Vret 
p463
sg5
L335928L
sg6
Nsg23
S'retn'
p464
sg25
S'0x52038L'
p465
sg27
Nsbasg84
(lp466
S'mov reg, offset func'
p467
aS'cregl sqlite3CorruptError'
p468
aS'mov mem, reg'
p469
aS'add reg, 8'
p470
aS'pop pData'
p471
aS'pop db'
p472
aS'pop reg'
p473
aS'pop reg'
p474
ag461
asg95
Nsg5
S'0x52021L'
p475
sg97
(lp476
S'0x51fc6L'
p477
aS'0x52018L'
p478
asg6
Nsg99
(lp479
sg103
Nsg104
Nsg105
S'e14c9fed1cbba9e5690d4d6d840d8e50'
p480
sg107
S'bda93575e77ef8b00dcb21baade70db2'
p481
sg109
(lp482
g408
ag415
ag422
ag429
ag436
ag443
ag450
ag457
ag464
asg111
Nsba(ibclass
BBasicBlock
p483
(dp484
g12
Nsg13
(lp485
(ibclass
BInstr
p486
(dp487
g2
Nsg17
S'mov     eax, 7'
p488
sg19
S'b807000000'
p489
sg21
Vmov eax, 7
p490
sg5
L335936L
sg6
Nsg23
S'mov'
p491
sg25
S'0x52040L'
p492
sg27
Nsba(ibclass
BInstr
p493
(dp494
g2
Nsg17
S'mov     [pData+14h], eax'
p495
sg19
S'894314'
p496
sg21
Vmov dword ptr [rbx + 0x14], eax
p497
sg5
L335941L
sg6
Nsg23
S'mov'
p498
sg25
S'0x52045L'
p499
sg27
Nsba(ibclass
BInstr
p500
(dp501
g2
Nsg17
S'add     rsp, 8'
p502
sg19
S'4883c408'
p503
sg21
Vadd rsp, 8
p504
sg5
L335944L
sg6
Nsg23
S'add'
p505
sg25
S'0x52048L'
p506
sg27
Nsba(ibclass
BInstr
p507
(dp508
g2
Nsg17
S'pop     pData'
p509
sg19
S'5b'
p510
sg21
Vpop rbx
p511
sg5
L335948L
sg6
Nsg23
S'pop'
p512
sg25
S'0x5204cL'
p513
sg27
Nsba(ibclass
BInstr
p514
(dp515
g2
Nsg17
S'pop     db'
p516
sg19
S'5d'
p517
sg21
Vpop rbp
p518
sg5
L335949L
sg6
Nsg23
S'pop'
p519
sg25
S'0x5204dL'
p520
sg27
Nsba(ibclass
BInstr
p521
(dp522
g2
Nsg17
S'pop     r12'
p523
sg19
S'415c'
p524
sg21
Vpop r12
p525
sg5
L335950L
sg6
Nsg23
S'pop'
p526
sg25
S'0x5204eL'
p527
sg27
Nsba(ibclass
BInstr
p528
(dp529
g2
Nsg17
S'pop     r13'
p530
sg19
S'415d'
p531
sg21
Vpop r13
p532
sg5
L335952L
sg6
Nsg23
S'pop'
p533
sg25
S'0x52050L'
p534
sg27
Nsba(ibclass
BInstr
p535
(dp536
g2
Nsg17
S'retn'
p537
sg19
S'c3'
p538
sg21
Vret 
p539
sg5
L335954L
sg6
Nsg23
S'retn'
p540
sg25
S'0x52052L'
p541
sg27
Nsbasg84
(lp542
S'mov reg, 7'
p543
aS'mov mem, reg'
p544
aS'add reg, 8'
p545
aS'pop pData'
p546
aS'pop db'
p547
aS'pop reg'
p548
aS'pop reg'
p549
ag537
asg95
Nsg5
S'0x52040L'
p550
sg97
(lp551
S'0x51fb0L'
p552
aS'0x52018L'
p553
asg6
Nsg99
(lp554
sg103
Nsg104
Nsg105
S'22b758ea981a24f134c05f72ec163064'
p555
sg107
S'93457b13100bcc008809bc84d5bd59a6'
p556
sg109
(lp557
g491
ag498
ag505
ag512
ag519
ag526
ag533
ag540
asg111
Nsba(ibclass
BBasicBlock
p558
(dp559
g12
Nsg13
(lp560
(ibclass
BInstr
p561
(dp562
g2
Nsg17
S'lea     rsi, aZS        ; "%z - %s"'
p563
sg19
S'488d3532700800'
p564
sg21
Vlea rsi, [rip + 0x87032]
p565
sg5
L335960L
sg6
Nsg23
S'lea'
p566
sg25
S'0x52058L'
p567
sg27
Nsba(ibclass
BInstr
p568
(dp569
g2
Nsg17
S'mov     rdx, z'
p570
sg19
S'4889c2'
p571
sg21
Vmov rdx, rax
p572
sg5
L335967L
sg6
Nsg23
S'mov'
p573
sg25
S'0x5205fL'
p574
sg27
Nsba(ibclass
BInstr
p575
(dp576
g2
Nsg17
S'mov     rcx, zExtra'
p577
sg19
S'4c89e1'
p578
sg21
Vmov rcx, r12
p579
sg5
L335970L
sg6
Nsg23
S'mov'
p580
sg25
S'0x52062L'
p581
sg27
Nsba(ibclass
BInstr
p582
(dp583
g2
Nsg17
S'mov     rdi, db         ; db'
p584
sg19
S'4889ef'
p585
sg21
Vmov rdi, rbp
p586
sg5
L335973L
sg6
Nsg23
S'mov'
p587
sg25
S'0x52065L'
p588
sg27
Nsba(ibclass
BInstr
p589
(dp590
g2
Nsg17
S'xor     eax, eax'
p591
sg19
S'31c0'
p592
sg21
Vxor eax, eax
p593
sg5
L335976L
sg6
Nsg23
S'xor'
p594
sg25
S'0x52068L'
p595
sg27
Nsba(ibclass
BInstr
p596
(dp597
g2
Nsg17
S'call    sqlite3MPrintf'
p598
sg19
S'e881feffff'
p599
sg21
Vcall 0xfffffffffffffe86
p600
sg5
L335978L
sg6
Nsg23
S'call'
p601
sg25
S'0x5206aL'
p602
sg27
Nsba(ibclass
BInstr
p603
(dp604
g2
Nsg17
S'mov     z, rax'
p605
sg19
S'4989c5'
p606
sg21
Vmov r13, rax
p607
sg5
L335983L
sg6
Nsg23
S'mov'
p608
sg25
S'0x5206fL'
p609
sg27
Nsba(ibclass
BInstr
p610
(dp611
g2
Nsg17
S'jmp     short loc_52000'
p612
sg19
S'eb8c'
p613
sg21
Vjmp 0xffffffffffffff8e
p614
sg5
L335986L
sg6
Nsg23
S'jmp'
p615
sg25
S'0x52072L'
p616
sg27
Nsbasg84
(lp617
S'lea reg, aZS'
p618
aS'mov reg, z'
p619
aS'mov reg, zExtra'
p620
aS'mov reg, db'
p621
aS'xor reg, reg'
p622
aS'cregl sqlite3MPrintf'
p623
aS'mov z, reg'
p624
aS'jmp func'
p625
asg95
Nsg5
S'0x52058L'
p626
sg97
(lp627
S'0x51ff9L'
p628
asg6
Nsg99
(lp629
S'0x52000L'
p630
asg103
Nsg104
Nsg105
S'a4e6584e6e59269924e034d3162041fe'
p631
sg107
S'f64f6a8df70a1a279f05ee9ef32e718a'
p632
sg109
(lp633
g566
ag573
ag580
ag587
ag594
ag601
ag608
ag615
asg111
Nsbasb.