(ibclass
BFunc
p0
(dp1
S'hash'
p2
NsS'name'
p3
S'corruptSchema'
p4
sS'start_address'
p5
L335792L
sS'flag'
p6
NsS'program'
p7
NsS'bbs'
p8
(lp9
(ibclass
BBasicBlock
p10
(dp11
S'function'
p12
NsS'binstrs'
p13
(lp14
(ibclass
BInstr
p15
(dp16
g2
NsS'disasm'
p17
S'push    r13'
p18
sS'bytes'
p19
S'4155'
p20
sS'disasm_striped'
p21
Vpush r13
p22
sg5
L335792L
sg6
NsS'mnem'
p23
S'push'
p24
sS'address'
p25
S'0x51fb0L'
p26
sS'basicblock'
p27
Nsba(ibclass
BInstr
p28
(dp29
g2
Nsg17
S'push    r12'
p30
sg19
S'4154'
p31
sg21
Vpush r12
p32
sg5
L335794L
sg6
Nsg23
S'push'
p33
sg25
S'0x51fb2L'
p34
sg27
Nsba(ibclass
BInstr
p35
(dp36
g2
Nsg17
S'push    rbp'
p37
sg19
S'55'
p38
sg21
Vpush rbp
p39
sg5
L335796L
sg6
Nsg23
S'push'
p40
sg25
S'0x51fb4L'
p41
sg27
Nsba(ibclass
BInstr
p42
(dp43
g2
Nsg17
S'push    rbx'
p44
sg19
S'53'
p45
sg21
Vpush rbx
p46
sg5
L335797L
sg6
Nsg23
S'push'
p47
sg25
S'0x51fb5L'
p48
sg27
Nsba(ibclass
BInstr
p49
(dp50
g2
Nsg17
S'mov     rbx, pData'
p51
sg19
S'4889fb'
p52
sg21
Vmov rbx, rdi
p53
sg5
L335798L
sg6
Nsg23
S'mov'
p54
sg25
S'0x51fb6L'
p55
sg27
Nsba(ibclass
BInstr
p56
(dp57
g2
Nsg17
S'sub     rsp, 8'
p58
sg19
S'4883ec08'
p59
sg21
Vsub rsp, 8
p60
sg5
L335801L
sg6
Nsg23
S'sub'
p61
sg25
S'0x51fb9L'
p62
sg27
Nsba(ibclass
BInstr
p63
(dp64
g2
Nsg17
S'mov     rbp, [pData]'
p65
sg19
S'488b2f'
p66
sg21
Vmov rbp, qword ptr [rdi]
p67
sg5
L335805L
sg6
Nsg23
S'mov'
p68
sg25
S'0x51fbdL'
p69
sg27
Nsba(ibclass
BInstr
p70
(dp71
g2
Nsg17
S'cmp     byte ptr [db+61h], 0'
p72
sg19
S'807d6100'
p73
sg21
Vcmp byte ptr [rbp + 0x61], 0
p74
sg5
L335808L
sg6
Nsg23
S'cmp'
p75
sg25
S'0x51fc0L'
p76
sg27
Nsba(ibclass
BInstr
p77
(dp78
g2
Nsg17
S'jnz     loc_52050'
p79
sg19
S'0f8586000000'
p80
sg21
Vjne 0x8c
p81
sg5
L335812L
sg6
Nsg23
S'jnz'
p82
sg25
S'0x51fc4L'
p83
sg27
NsbasS'disasm_list'
p84
(lp85
S'push reg'
p86
aS'push reg'
p87
aS'push reg'
p88
aS'push reg'
p89
aS'mov reg, pData'
p90
aS'sub reg, 8'
p91
aS'mov reg, mem'
p92
aS'cmp mem, 0'
p93
aS'jnz func'
p94
asS'end_address'
p95
Nsg5
S'0x51fb0L'
p96
sS'preds'
p97
(lp98
sg6
NsS'succs'
p99
(lp100
S'0x51fcaL'
p101
aS'0x52050L'
p102
asS'hash_v3'
p103
NsS'flag_v2'
p104
NsS'hash_v1'
p105
S'01b0c75f9ed7f5cba77cfba6c47acecf'
p106
sS'hash_v2'
p107
S'd2c163630d62c5af3df170f402a62621'
p108
sS'mnen_list'
p109
(lp110
g24
ag33
ag40
ag47
ag54
ag61
ag68
ag75
ag82
asS'neighbour_disasm_list'
p111
Nsba(ibclass
BBasicBlock
p112
(dp113
g12
Nsg13
(lp114
(ibclass
BInstr
p115
(dp116
g2
Nsg17
S'test    byte ptr [db+30h], 1'
p117
sg19
S'f6453001'
p118
sg21
Vtest byte ptr [rbp + 0x30], 1
p119
sg5
L335818L
sg6
Nsg23
S'test'
p120
sg25
S'0x51fcaL'
p121
sg27
Nsba(ibclass
BInstr
p122
(dp123
g2
Nsg17
S'jnz     short loc_52038'
p124
sg19
S'7568'
p125
sg21
Vjne 0x6a
p126
sg5
L335822L
sg6
Nsg23
S'jnz'
p127
sg25
S'0x51fceL'
p128
sg27
Nsbasg84
(lp129
S'test mem, 1'
p130
aS'jnz func'
p131
asg95
Nsg5
S'0x51fcaL'
p132
sg97
(lp133
S'0x51fb0L'
p134
asg6
Nsg99
(lp135
S'0x51fd0L'
p136
aS'0x52038L'
p137
asg103
Nsg104
Nsg105
S'69f35919c7dcb199d0057b2f8ce242da'
p138
sg107
S'057ad40c2ef821a22923b3b24727e5ff'
p139
sg109
(lp140
g120
ag127
asg111
Nsba(ibclass
BBasicBlock
p141
(dp142
g12
Nsg13
(lp143
(ibclass
BInstr
p144
(dp145
g2
Nsg17
S'lea     rax, a?+2       ; "?"'
p146
sg19
S'488d0512850800'
p147
sg21
Vlea rax, [rip + 0x88512]
p148
sg5
L335824L
sg6
Nsg23
S'lea'
p149
sg25
S'0x51fd0L'
p150
sg27
Nsba(ibclass
BInstr
p151
(dp152
g2
Nsg17
S'test    zObj, zObj'
p153
sg19
S'4885f6'
p154
sg21
Vtest rsi, rsi
p155
sg5
L335831L
sg6
Nsg23
S'test'
p156
sg25
S'0x51fd7L'
p157
sg27
Nsba(ibclass
BInstr
p158
(dp159
g2
Nsg17
S'mov     r12, zExtra'
p160
sg19
S'4989d4'
p161
sg21
Vmov r12, rdx
p162
sg5
L335834L
sg6
Nsg23
S'mov'
p163
sg25
S'0x51fdaL'
p164
sg27
Nsba(ibclass
BInstr
p165
(dp166
g2
Nsg17
S'mov     pData, db       ; db'
p167
sg19
S'4889ef'
p168
sg21
Vmov rdi, rbp
p169
sg5
L335837L
sg6
Nsg23
S'mov'
p170
sg25
S'0x51fddL'
p171
sg27
Nsba(ibclass
BInstr
p172
(dp173
g2
Nsg17
S'cmovz   zObj, rax'
p174
sg19
S'480f44f0'
p175
sg21
Vcmove rsi, rax
p176
sg5
L335840L
sg6
Nsg23
S'cmovz'
p177
sg25
S'0x51fe0L'
p178
sg27
Nsba(ibclass
BInstr
p179
(dp180
g2
Nsg17
S'xor     eax, eax'
p181
sg19
S'31c0'
p182
sg21
Vxor eax, eax
p183
sg5
L335844L
sg6
Nsg23
S'xor'
p184
sg25
S'0x51fe4L'
p185
sg27
Nsba(ibclass
BInstr
p186
(dp187
g2
Nsg17
S'mov     zExtra, zObj'
p188
sg19
S'4889f2'
p189
sg21
Vmov rdx, rsi
p190
sg5
L335846L
sg6
Nsg23
S'mov'
p191
sg25
S'0x51fe6L'
p192
sg27
Nsba(ibclass
BInstr
p193
(dp194
g2
Nsg17
S'lea     zObj, aMalformedDatab; "malformed database schema (%s)"'
p195
sg19
S'488d35e8000900'
p196
sg21
Vlea rsi, [rip + 0x900e8]
p197
sg5
L335849L
sg6
Nsg23
S'lea'
p198
sg25
S'0x51fe9L'
p199
sg27
Nsba(ibclass
BInstr
p200
(dp201
g2
Nsg17
S'call    sqlite3MPrintf'
p202
sg19
S'e8fbfeffff'
p203
sg21
Vcall 0xffffffffffffff00
p204
sg5
L335856L
sg6
Nsg23
S'call'
p205
sg25
S'0x51ff0L'
p206
sg27
Nsba(ibclass
BInstr
p207
(dp208
g2
Nsg17
S'test    zExtra, zExtra'
p209
sg19
S'4d85e4'
p210
sg21
Vtest r12, r12
p211
sg5
L335861L
sg6
Nsg23
S'test'
p212
sg25
S'0x51ff5L'
p213
sg27
Nsba(ibclass
BInstr
p214
(dp215
g2
Nsg17
S'mov     r13, rax'
p216
sg19
S'4989c5'
p217
sg21
Vmov r13, rax
p218
sg5
L335864L
sg6
Nsg23
S'mov'
p219
sg25
S'0x51ff8L'
p220
sg27
Nsba(ibclass
BInstr
p221
(dp222
g2
Nsg17
S'jz      short loc_52017'
p223
sg19
S'741a'
p224
sg21
Vje 0x1c
p225
sg5
L335867L
sg6
Nsg23
S'jz'
p226
sg25
S'0x51ffbL'
p227
sg27
Nsbasg84
(lp228
S'lea reg, a?+2'
p229
aS'test zObj, zObj'
p230
aS'mov reg, zExtra'
p231
aS'mov pData, db'
p232
aS'cmovz zObj, reg'
p233
aS'xor reg, reg'
p234
aS'mov zExtra, zObj'
p235
aS'lea zObj, aMregformedDatab'
p236
aS'cregl sqlite3MPrintf'
p237
aS'test zExtra, zExtra'
p238
aS'mov reg, reg'
p239
aS'jz func'
p240
asg95
Nsg5
S'0x51fd0L'
p241
sg97
(lp242
S'0x51fcaL'
p243
asg6
Nsg99
(lp244
S'0x51ffdL'
p245
aS'0x52017L'
p246
asg103
Nsg104
Nsg105
S'6ad2191d9f105f2c804046ca490882a0'
p247
sg107
S'de1755b70f5f1ba314bb52550174cc35'
p248
sg109
(lp249
g149
ag156
ag163
ag170
ag177
ag184
ag191
ag198
ag205
ag212
ag219
ag226
asg111
Nsba(ibclass
BBasicBlock
p250
(dp251
g12
Nsg13
(lp252
(ibclass
BInstr
p253
(dp254
g2
Nsg17
S'lea     rsi, aZS        ; "%z - %s"'
p255
sg19
S'488d356d700800'
p256
sg21
Vlea rsi, [rip + 0x8706d]
p257
sg5
L335869L
sg6
Nsg23
S'lea'
p258
sg25
S'0x51ffdL'
p259
sg27
Nsba(ibclass
BInstr
p260
(dp261
g2
Nsg17
S'mov     rdx, z'
p262
sg19
S'4889c2'
p263
sg21
Vmov rdx, rax
p264
sg5
L335876L
sg6
Nsg23
S'mov'
p265
sg25
S'0x52004L'
p266
sg27
Nsba(ibclass
BInstr
p267
(dp268
g2
Nsg17
S'mov     rcx, zExtra'
p269
sg19
S'4c89e1'
p270
sg21
Vmov rcx, r12
p271
sg5
L335879L
sg6
Nsg23
S'mov'
p272
sg25
S'0x52007L'
p273
sg27
Nsba(ibclass
BInstr
p274
(dp275
g2
Nsg17
S'mov     rdi, db         ; db'
p276
sg19
S'4889ef'
p277
sg21
Vmov rdi, rbp
p278
sg5
L335882L
sg6
Nsg23
S'mov'
p279
sg25
S'0x5200aL'
p280
sg27
Nsba(ibclass
BInstr
p281
(dp282
g2
Nsg17
S'xor     eax, eax'
p283
sg19
S'31c0'
p284
sg21
Vxor eax, eax
p285
sg5
L335885L
sg6
Nsg23
S'xor'
p286
sg25
S'0x5200dL'
p287
sg27
Nsba(ibclass
BInstr
p288
(dp289
g2
Nsg17
S'call    sqlite3MPrintf'
p290
sg19
S'e8dcfeffff'
p291
sg21
Vcall 0xfffffffffffffee1
p292
sg5
L335887L
sg6
Nsg23
S'call'
p293
sg25
S'0x5200fL'
p294
sg27
Nsba(ibclass
BInstr
p295
(dp296
g2
Nsg17
S'mov     z, rax'
p297
sg19
S'4989c5'
p298
sg21
Vmov r13, rax
p299
sg5
L335892L
sg6
Nsg23
S'mov'
p300
sg25
S'0x52014L'
p301
sg27
Nsbasg84
(lp302
S'lea reg, aZS'
p303
aS'mov reg, z'
p304
aS'mov reg, zExtra'
p305
aS'mov reg, db'
p306
aS'xor reg, reg'
p307
aS'cregl sqlite3MPrintf'
p308
aS'mov z, reg'
p309
asg95
Nsg5
S'0x51ffdL'
p310
sg97
(lp311
S'0x51fd0L'
p312
asg6
Nsg99
(lp313
S'0x52017L'
p314
asg103
Nsg104
Nsg105
S'4b6142a2662574a9342d32debfefcad7'
p315
sg107
S'2c58ebc3f2fec0b648895baf0fcdda23'
p316
sg109
(lp317
g258
ag265
ag272
ag279
ag286
ag293
ag300
asg111
Nsba(ibclass
BBasicBlock
p318
(dp319
g12
Nsg13
(lp320
(ibclass
BInstr
p321
(dp322
g2
Nsg17
S'mov     rcx, [pData+8]'
p323
sg19
S'488b4b08'
p324
sg21
Vmov rcx, qword ptr [rbx + 8]
p325
sg5
L335895L
sg6
Nsg23
S'mov'
p326
sg25
S'0x52017L'
p327
sg27
Nsba(ibclass
BInstr
p328
(dp329
g2
Nsg17
S'mov     rsi, [rcx]      ; p'
p330
sg19
S'488b31'
p331
sg21
Vmov rsi, qword ptr [rcx]
p332
sg5
L335899L
sg6
Nsg23
S'mov'
p333
sg25
S'0x5201bL'
p334
sg27
Nsba(ibclass
BInstr
p335
(dp336
g2
Nsg17
S'test    rsi, rsi'
p337
sg19
S'4885f6'
p338
sg21
Vtest rsi, rsi
p339
sg5
L335902L
sg6
Nsg23
S'test'
p340
sg25
S'0x5201eL'
p341
sg27
Nsba(ibclass
BInstr
p342
(dp343
g2
Nsg17
S'jz      short loc_5202F'
p344
sg19
S'740c'
p345
sg21
Vje 0xe
p346
sg5
L335905L
sg6
Nsg23
S'jz'
p347
sg25
S'0x52021L'
p348
sg27
Nsbasg84
(lp349
S'mov reg, mem'
p350
aS'mov reg, mem'
p351
aS'test reg, reg'
p352
aS'jz func'
p353
asg95
Nsg5
S'0x52017L'
p354
sg97
(lp355
S'0x51fd0L'
p356
aS'0x51ffdL'
p357
asg6
Nsg99
(lp358
S'0x52023L'
p359
aS'0x5202fL'
p360
asg103
Nsg104
Nsg105
S'ea5d08c7dcc07640d42787f826218f11'
p361
sg107
S'd54ee3a5cadc8316bc0dafeaa7f6c7f9'
p362
sg109
(lp363
g326
ag333
ag340
ag347
asg111
Nsba(ibclass
BBasicBlock
p364
(dp365
g12
Nsg13
(lp366
(ibclass
BInstr
p367
(dp368
g2
Nsg17
S'mov     rdi, db         ; db'
p369
sg19
S'4889ef'
p370
sg21
Vmov rdi, rbp
p371
sg5
L335907L
sg6
Nsg23
S'mov'
p372
sg25
S'0x52023L'
p373
sg27
Nsba(ibclass
BInstr
p374
(dp375
g2
Nsg17
S'call    sqlite3DbFreeNN'
p376
sg19
S'e8058dfcff'
p377
sg21
Vcall 0xfffffffffffc8d0a
p378
sg5
L335910L
sg6
Nsg23
S'call'
p379
sg25
S'0x52026L'
p380
sg27
Nsba(ibclass
BInstr
p381
(dp382
g2
Nsg17
S'mov     rcx, [pData+8]'
p383
sg19
S'488b4b08'
p384
sg21
Vmov rcx, qword ptr [rbx + 8]
p385
sg5
L335915L
sg6
Nsg23
S'mov'
p386
sg25
S'0x5202bL'
p387
sg27
Nsbasg84
(lp388
S'mov reg, db'
p389
aS'cregl sqlite3DbFreeNN'
p390
aS'mov reg, mem'
p391
asg95
Nsg5
S'0x52023L'
p392
sg97
(lp393
S'0x52017L'
p394
asg6
Nsg99
(lp395
S'0x5202fL'
p396
asg103
Nsg104
Nsg105
S'bdd678288f6ec3a6c6cdf2db1999178a'
p397
sg107
S'63b944726040c9279b2b25f2e1a68bb7'
p398
sg109
(lp399
g372
ag379
ag386
asg111
Nsba(ibclass
BBasicBlock
p400
(dp401
g12
Nsg13
(lp402
(ibclass
BInstr
p403
(dp404
g2
Nsg17
S'mov     [rcx], z'
p405
sg19
S'4c8929'
p406
sg21
Vmov qword ptr [rcx], r13
p407
sg5
L335919L
sg6
Nsg23
S'mov'
p408
sg25
S'0x5202fL'
p409
sg27
Nsba(ibclass
BInstr
p410
(dp411
g2
Nsg17
S'cmp     byte ptr [db+61h], 0'
p412
sg19
S'807d6100'
p413
sg21
Vcmp byte ptr [rbp + 0x61], 0
p414
sg5
L335922L
sg6
Nsg23
S'cmp'
p415
sg25
S'0x52032L'
p416
sg27
Nsba(ibclass
BInstr
p417
(dp418
g2
Nsg17
S'jnz     short loc_52050'
p419
sg19
S'7518'
p420
sg21
Vjne 0x1a
p421
sg5
L335926L
sg6
Nsg23
S'jnz'
p422
sg25
S'0x52036L'
p423
sg27
Nsbasg84
(lp424
S'mov mem, z'
p425
aS'cmp mem, 0'
p426
aS'jnz func'
p427
asg95
Nsg5
S'0x5202fL'
p428
sg97
(lp429
S'0x52017L'
p430
aS'0x52023L'
p431
asg6
Nsg99
(lp432
S'0x52038L'
p433
aS'0x52050L'
p434
asg103
Nsg104
Nsg105
S'867045e6b0676193724ea51159324701'
p435
sg107
S'2e47babddb44661f80e61a0f49711930'
p436
sg109
(lp437
g408
ag415
ag422
asg111
Nsba(ibclass
BBasicBlock
p438
(dp439
g12
Nsg13
(lp440
(ibclass
BInstr
p441
(dp442
g2
Nsg17
S'mov     edi, 1CC3Eh     ; lineno'
p443
sg19
S'bf3ecc0100'
p444
sg21
Vmov edi, 0x1cc3e
p445
sg5
L335928L
sg6
Nsg23
S'mov'
p446
sg25
S'0x52038L'
p447
sg27
Nsba(ibclass
BInstr
p448
(dp449
g2
Nsg17
S'call    sqlite3CorruptError'
p450
sg19
S'e8ce3dffff'
p451
sg21
Vcall 0xffffffffffff3dd3
p452
sg5
L335933L
sg6
Nsg23
S'call'
p453
sg25
S'0x5203dL'
p454
sg27
Nsba(ibclass
BInstr
p455
(dp456
g2
Nsg17
S'mov     [pData+14h], eax'
p457
sg19
S'894314'
p458
sg21
Vmov dword ptr [rbx + 0x14], eax
p459
sg5
L335938L
sg6
Nsg23
S'mov'
p460
sg25
S'0x52042L'
p461
sg27
Nsba(ibclass
BInstr
p462
(dp463
g2
Nsg17
S'add     rsp, 8'
p464
sg19
S'4883c408'
p465
sg21
Vadd rsp, 8
p466
sg5
L335941L
sg6
Nsg23
S'add'
p467
sg25
S'0x52045L'
p468
sg27
Nsba(ibclass
BInstr
p469
(dp470
g2
Nsg17
S'pop     pData'
p471
sg19
S'5b'
p472
sg21
Vpop rbx
p473
sg5
L335945L
sg6
Nsg23
S'pop'
p474
sg25
S'0x52049L'
p475
sg27
Nsba(ibclass
BInstr
p476
(dp477
g2
Nsg17
S'pop     db'
p478
sg19
S'5d'
p479
sg21
Vpop rbp
p480
sg5
L335946L
sg6
Nsg23
S'pop'
p481
sg25
S'0x5204aL'
p482
sg27
Nsba(ibclass
BInstr
p483
(dp484
g2
Nsg17
S'pop     r12'
p485
sg19
S'415c'
p486
sg21
Vpop r12
p487
sg5
L335947L
sg6
Nsg23
S'pop'
p488
sg25
S'0x5204bL'
p489
sg27
Nsba(ibclass
BInstr
p490
(dp491
g2
Nsg17
S'pop     r13'
p492
sg19
S'415d'
p493
sg21
Vpop r13
p494
sg5
L335949L
sg6
Nsg23
S'pop'
p495
sg25
S'0x5204dL'
p496
sg27
Nsba(ibclass
BInstr
p497
(dp498
g2
Nsg17
S'retn'
p499
sg19
S'c3'
p500
sg21
Vret 
p501
sg5
L335951L
sg6
Nsg23
S'retn'
p502
sg25
S'0x5204fL'
p503
sg27
Nsbasg84
(lp504
S'mov reg, 1CC3Eh'
p505
aS'cregl sqlite3CorruptError'
p506
aS'mov mem, reg'
p507
aS'add reg, 8'
p508
aS'pop pData'
p509
aS'pop db'
p510
aS'pop reg'
p511
aS'pop reg'
p512
ag499
asg95
Nsg5
S'0x52038L'
p513
sg97
(lp514
S'0x51fcaL'
p515
aS'0x5202fL'
p516
asg6
Nsg99
(lp517
sg103
Nsg104
Nsg105
S'e14c9fed1cbba9e5690d4d6d840d8e50'
p518
sg107
S'31252dd265ceebda4f5621784433e81d'
p519
sg109
(lp520
g446
ag453
ag460
ag467
ag474
ag481
ag488
ag495
ag502
asg111
Nsba(ibclass
BBasicBlock
p521
(dp522
g12
Nsg13
(lp523
(ibclass
BInstr
p524
(dp525
g2
Nsg17
S'mov     eax, 7'
p526
sg19
S'b807000000'
p527
sg21
Vmov eax, 7
p528
sg5
L335952L
sg6
Nsg23
S'mov'
p529
sg25
S'0x52050L'
p530
sg27
Nsba(ibclass
BInstr
p531
(dp532
g2
Nsg17
S'mov     [pData+14h], eax'
p533
sg19
S'894314'
p534
sg21
Vmov dword ptr [rbx + 0x14], eax
p535
sg5
L335957L
sg6
Nsg23
S'mov'
p536
sg25
S'0x52055L'
p537
sg27
Nsba(ibclass
BInstr
p538
(dp539
g2
Nsg17
S'add     rsp, 8'
p540
sg19
S'4883c408'
p541
sg21
Vadd rsp, 8
p542
sg5
L335960L
sg6
Nsg23
S'add'
p543
sg25
S'0x52058L'
p544
sg27
Nsba(ibclass
BInstr
p545
(dp546
g2
Nsg17
S'pop     pData'
p547
sg19
S'5b'
p548
sg21
Vpop rbx
p549
sg5
L335964L
sg6
Nsg23
S'pop'
p550
sg25
S'0x5205cL'
p551
sg27
Nsba(ibclass
BInstr
p552
(dp553
g2
Nsg17
S'pop     db'
p554
sg19
S'5d'
p555
sg21
Vpop rbp
p556
sg5
L335965L
sg6
Nsg23
S'pop'
p557
sg25
S'0x5205dL'
p558
sg27
Nsba(ibclass
BInstr
p559
(dp560
g2
Nsg17
S'pop     r12'
p561
sg19
S'415c'
p562
sg21
Vpop r12
p563
sg5
L335966L
sg6
Nsg23
S'pop'
p564
sg25
S'0x5205eL'
p565
sg27
Nsba(ibclass
BInstr
p566
(dp567
g2
Nsg17
S'pop     r13'
p568
sg19
S'415d'
p569
sg21
Vpop r13
p570
sg5
L335968L
sg6
Nsg23
S'pop'
p571
sg25
S'0x52060L'
p572
sg27
Nsba(ibclass
BInstr
p573
(dp574
g2
Nsg17
S'retn'
p575
sg19
S'c3'
p576
sg21
Vret 
p577
sg5
L335970L
sg6
Nsg23
S'retn'
p578
sg25
S'0x52062L'
p579
sg27
Nsbasg84
(lp580
S'mov reg, 7'
p581
aS'mov mem, reg'
p582
aS'add reg, 8'
p583
aS'pop pData'
p584
aS'pop db'
p585
aS'pop reg'
p586
aS'pop reg'
p587
ag575
asg95
Nsg5
S'0x52050L'
p588
sg97
(lp589
S'0x51fb0L'
p590
aS'0x5202fL'
p591
asg6
Nsg99
(lp592
sg103
Nsg104
Nsg105
S'22b758ea981a24f134c05f72ec163064'
p593
sg107
S'93457b13100bcc008809bc84d5bd59a6'
p594
sg109
(lp595
g529
ag536
ag543
ag550
ag557
ag564
ag571
ag578
asg111
Nsbasb.