(ibclass
BFunc
p0
(dp1
S'hash'
p2
NsS'name'
p3
S'sqlite3ExprAddCollateString'
p4
sS'start_address'
p5
L190528L
sS'flag'
p6
NsS'program'
p7
NsS'bbs'
p8
(lp9
(ibclass
BBasicBlock
p10
(dp11
S'function'
p12
NsS'binstrs'
p13
(lp14
(ibclass
BInstr
p15
(dp16
g2
NsS'disasm'
p17
S'push    rbp'
p18
sS'bytes'
p19
S'55'
p20
sS'disasm_striped'
p21
Vpush rbp
p22
sg5
L190528L
sg6
NsS'mnem'
p23
S'push'
p24
sS'address'
p25
S'0x2e840L'
p26
sS'basicblock'
p27
Nsba(ibclass
BInstr
p28
(dp29
g2
Nsg17
S'push    rbx'
p30
sg19
S'53'
p31
sg21
Vpush rbx
p32
sg5
L190529L
sg6
Nsg23
S'push'
p33
sg25
S'0x2e841L'
p34
sg27
Nsba(ibclass
BInstr
p35
(dp36
g2
Nsg17
S'mov     rbx, pExpr'
p37
sg19
S'4889f3'
p38
sg21
Vmov rbx, rsi
p39
sg5
L190530L
sg6
Nsg23
S'mov'
p40
sg25
S'0x2e842L'
p41
sg27
Nsba(ibclass
BInstr
p42
(dp43
g2
Nsg17
S'sub     rsp, 28h'
p44
sg19
S'4883ec28'
p45
sg21
Vsub rsp, 0x28
p46
sg5
L190533L
sg6
Nsg23
S'sub'
p47
sg25
S'0x2e845L'
p48
sg27
Nsba(ibclass
BInstr
p49
(dp50
g2
Nsg17
S'mov     rax, fs:28h'
p51
sg19
S'64488b042528000000'
p52
sg21
Vmov rax, qword ptr fs:[0x28]
p53
sg5
L190537L
sg6
Nsg23
S'mov'
p54
sg25
S'0x2e849L'
p55
sg27
Nsba(ibclass
BInstr
p56
(dp57
g2
Nsg17
S'mov     [rsp+38h+var_20], rax'
p58
sg19
S'4889442418'
p59
sg21
Vmov qword ptr [rsp + 0x18], rax
p60
sg5
L190546L
sg6
Nsg23
S'mov'
p61
sg25
S'0x2e852L'
p62
sg27
Nsba(ibclass
BInstr
p63
(dp64
g2
Nsg17
S'xor     eax, eax'
p65
sg19
S'31c0'
p66
sg21
Vxor eax, eax
p67
sg5
L190551L
sg6
Nsg23
S'xor'
p68
sg25
S'0x2e857L'
p69
sg27
Nsba(ibclass
BInstr
p70
(dp71
g2
Nsg17
S'test    zC, zC'
p72
sg19
S'4885d2'
p73
sg21
Vtest rdx, rdx
p74
sg5
L190553L
sg6
Nsg23
S'test'
p75
sg25
S'0x2e859L'
p76
sg27
Nsba(ibclass
BInstr
p77
(dp78
g2
Nsg17
S'mov     [rsp+38h+s.z], zC'
p79
sg19
S'48891424'
p80
sg21
Vmov qword ptr [rsp], rdx
p81
sg5
L190556L
sg6
Nsg23
S'mov'
p82
sg25
S'0x2e85cL'
p83
sg27
Nsba(ibclass
BInstr
p84
(dp85
g2
Nsg17
S'jz      short loc_2E87A'
p86
sg19
S'7418'
p87
sg21
Vje 0x1a
p88
sg5
L190560L
sg6
Nsg23
S'jz'
p89
sg25
S'0x2e860L'
p90
sg27
NsbasS'disasm_list'
p91
(lp92
S'push reg'
p93
aS'push reg'
p94
aS'mov reg, pExpr'
p95
aS'sub reg, 28h'
p96
aS'mov reg, fs:28h'
p97
aS'mov mem, reg'
p98
aS'xor reg, reg'
p99
aS'test zC, zC'
p100
aS'mov mem, zC'
p101
aS'jz func'
p102
asS'end_address'
p103
Nsg5
S'0x2e840L'
p104
sS'preds'
p105
(lp106
sg6
NsS'succs'
p107
(lp108
S'0x2e862L'
p109
aS'0x2e87aL'
p110
asS'hash_v3'
p111
NsS'flag_v2'
p112
NsS'hash_v1'
p113
S'baff84aeb824329a8496f3c7ca15db1d'
p114
sS'hash_v2'
p115
S'df7b0bb2ed48afed5f3c38aea4fbf56d'
p116
sS'mnen_list'
p117
(lp118
g24
ag33
ag40
ag47
ag54
ag61
ag68
ag75
ag82
ag89
asS'neighbour_disasm_list'
p119
Nsba(ibclass
BBasicBlock
p120
(dp121
g12
Nsg13
(lp122
(ibclass
BInstr
p123
(dp124
g2
Nsg17
S'mov     rbp, pParse'
p125
sg19
S'4889fd'
p126
sg21
Vmov rbp, rdi
p127
sg5
L190562L
sg6
Nsg23
S'mov'
p128
sg25
S'0x2e862L'
p129
sg27
Nsba(ibclass
BInstr
p130
(dp131
g2
Nsg17
S'mov     pParse, zC      ; s'
p132
sg19
S'4889d7'
p133
sg21
Vmov rdi, rdx
p134
sg5
L190565L
sg6
Nsg23
S'mov'
p135
sg25
S'0x2e865L'
p136
sg27
Nsba(ibclass
BInstr
p137
(dp138
g2
Nsg17
S'call    strlen'
p139
sg19
S'e8e3e1fdff'
p140
sg21
Vcall 0xfffffffffffde1e8
p141
sg5
L190568L
sg6
Nsg23
S'call'
p142
sg25
S'0x2e868L'
p143
sg27
Nsba(ibclass
BInstr
p144
(dp145
g2
Nsg17
S'and     eax, 3FFFFFFFh'
p146
sg19
S'25ffffff3f'
p147
sg21
Vand eax, 0x3fffffff
p148
sg5
L190573L
sg6
Nsg23
S'and'
p149
sg25
S'0x2e86dL'
p150
sg27
Nsba(ibclass
BInstr
p151
(dp152
g2
Nsg17
S'test    eax, eax'
p153
sg19
S'85c0'
p154
sg21
Vtest eax, eax
p155
sg5
L190578L
sg6
Nsg23
S'test'
p156
sg25
S'0x2e872L'
p157
sg27
Nsba(ibclass
BInstr
p158
(dp159
g2
Nsg17
S'mov     [rsp+38h+s.n], eax'
p160
sg19
S'89442408'
p161
sg21
Vmov dword ptr [rsp + 8], eax
p162
sg5
L190580L
sg6
Nsg23
S'mov'
p163
sg25
S'0x2e874L'
p164
sg27
Nsba(ibclass
BInstr
p165
(dp166
g2
Nsg17
S'jnz     short loc_2E898'
p167
sg19
S'751e'
p168
sg21
Vjne 0x20
p169
sg5
L190584L
sg6
Nsg23
S'jnz'
p170
sg25
S'0x2e878L'
p171
sg27
Nsbasg91
(lp172
S'mov reg, pParse'
p173
aS'mov pParse, zC'
p174
aS'cregl strlen'
p175
aS'and reg, 3FFFFFFFh'
p176
aS'test reg, reg'
p177
aS'mov mem, reg'
p178
aS'jnz func'
p179
asg103
Nsg5
S'0x2e862L'
p180
sg105
(lp181
S'0x2e840L'
p182
asg6
Nsg107
(lp183
S'0x2e87aL'
p184
aS'0x2e898L'
p185
asg111
Nsg112
Nsg113
S'cf4f6396283ea9f363dfda86b6c19f77'
p186
sg115
S'9406f7365bae98ffb513f38ec2d138cc'
p187
sg117
(lp188
g128
ag135
ag142
ag149
ag156
ag163
ag170
asg119
Nsba(ibclass
BBasicBlock
p189
(dp190
g12
Nsg13
(lp191
(ibclass
BInstr
p192
(dp193
g2
Nsg17
S'mov     rcx, [rsp+38h+var_20]'
p194
sg19
S'488b4c2418'
p195
sg21
Vmov rcx, qword ptr [rsp + 0x18]
p196
sg5
L190586L
sg6
Nsg23
S'mov'
p197
sg25
S'0x2e87aL'
p198
sg27
Nsba(ibclass
BInstr
p199
(dp200
g2
Nsg17
S'xor     rcx, fs:28h'
p201
sg19
S'6448330c2528000000'
p202
sg21
Vxor rcx, qword ptr fs:[0x28]
p203
sg5
L190591L
sg6
Nsg23
S'xor'
p204
sg25
S'0x2e87fL'
p205
sg27
Nsba(ibclass
BInstr
p206
(dp207
g2
Nsg17
S'mov     rax, rbx'
p208
sg19
S'4889d8'
p209
sg21
Vmov rax, rbx
p210
sg5
L190600L
sg6
Nsg23
S'mov'
p211
sg25
S'0x2e888L'
p212
sg27
Nsba(ibclass
BInstr
p213
(dp214
g2
Nsg17
S'jnz     short loc_2E8C0'
p215
sg19
S'7533'
p216
sg21
Vjne 0x35
p217
sg5
L190603L
sg6
Nsg23
S'jnz'
p218
sg25
S'0x2e88bL'
p219
sg27
Nsbasg91
(lp220
S'mov reg, mem'
p221
aS'xor reg, fs:28h'
p222
aS'mov reg, reg'
p223
aS'jnz func'
p224
asg103
Nsg5
S'0x2e87aL'
p225
sg105
(lp226
S'0x2e840L'
p227
aS'0x2e862L'
p228
aS'0x2e898L'
p229
aS'0x2e8b0L'
p230
asg6
Nsg107
(lp231
S'0x2e88dL'
p232
aS'0x2e8c0L'
p233
asg111
Nsg112
Nsg113
S'd4598d9a6850b12c13df5f0f3fb9a41a'
p234
sg115
S'adaa5019de34641a6169c8ea6ea41273'
p235
sg117
(lp236
g197
ag204
ag211
ag218
asg119
Nsba(ibclass
BBasicBlock
p237
(dp238
g12
Nsg13
(lp239
(ibclass
BInstr
p240
(dp241
g2
Nsg17
S'add     rsp, 28h'
p242
sg19
S'4883c428'
p243
sg21
Vadd rsp, 0x28
p244
sg5
L190605L
sg6
Nsg23
S'add'
p245
sg25
S'0x2e88dL'
p246
sg27
Nsba(ibclass
BInstr
p247
(dp248
g2
Nsg17
S'pop     rbx'
p249
sg19
S'5b'
p250
sg21
Vpop rbx
p251
sg5
L190609L
sg6
Nsg23
S'pop'
p252
sg25
S'0x2e891L'
p253
sg27
Nsba(ibclass
BInstr
p254
(dp255
g2
Nsg17
S'pop     rbp'
p256
sg19
S'5d'
p257
sg21
Vpop rbp
p258
sg5
L190610L
sg6
Nsg23
S'pop'
p259
sg25
S'0x2e892L'
p260
sg27
Nsba(ibclass
BInstr
p261
(dp262
g2
Nsg17
S'retn'
p263
sg19
S'c3'
p264
sg21
Vret 
p265
sg5
L190611L
sg6
Nsg23
S'retn'
p266
sg25
S'0x2e893L'
p267
sg27
Nsbasg91
(lp268
S'add reg, 28h'
p269
aS'pop reg'
p270
aS'pop reg'
p271
ag263
asg103
Nsg5
S'0x2e88dL'
p272
sg105
(lp273
S'0x2e87aL'
p274
asg6
Nsg107
(lp275
sg111
Nsg112
Nsg113
S'4d1981a678d0c70281d5161c3174b44c'
p276
sg115
S'dc27960931e9e2ae90fd817665e34271'
p277
sg117
(lp278
g245
ag252
ag259
ag266
asg119
Nsba(ibclass
BBasicBlock
p279
(dp280
g12
Nsg13
(lp281
(ibclass
BInstr
p282
(dp283
g2
Nsg17
S'mov     rdi, [pParse+0] ; db'
p284
sg19
S'488b7d00'
p285
sg21
Vmov rdi, qword ptr [rbp]
p286
sg5
L190616L
sg6
Nsg23
S'mov'
p287
sg25
S'0x2e898L'
p288
sg27
Nsba(ibclass
BInstr
p289
(dp290
g2
Nsg17
S'xor     ecx, ecx        ; dequote'
p291
sg19
S'31c9'
p292
sg21
Vxor ecx, ecx
p293
sg5
L190620L
sg6
Nsg23
S'xor'
p294
sg25
S'0x2e89cL'
p295
sg27
Nsba(ibclass
BInstr
p296
(dp297
g2
Nsg17
S'mov     rdx, rsp        ; pToken'
p298
sg19
S'4889e2'
p299
sg21
Vmov rdx, rsp
p300
sg5
L190622L
sg6
Nsg23
S'mov'
p301
sg25
S'0x2e89eL'
p302
sg27
Nsba(ibclass
BInstr
p303
(dp304
g2
Nsg17
S'mov     esi, 5Eh        ; op'
p305
sg19
S'be5e000000'
p306
sg21
Vmov esi, 0x5e
p307
sg5
L190625L
sg6
Nsg23
S'mov'
p308
sg25
S'0x2e8a1L'
p309
sg27
Nsba(ibclass
BInstr
p310
(dp311
g2
Nsg17
S'call    sqlite3ExprAlloc'
p312
sg19
S'e8e5effeff'
p313
sg21
Vcall 0xfffffffffffeefea
p314
sg5
L190630L
sg6
Nsg23
S'call'
p315
sg25
S'0x2e8a6L'
p316
sg27
Nsba(ibclass
BInstr
p317
(dp318
g2
Nsg17
S'test    rax, rax'
p319
sg19
S'4885c0'
p320
sg21
Vtest rax, rax
p321
sg5
L190635L
sg6
Nsg23
S'test'
p322
sg25
S'0x2e8abL'
p323
sg27
Nsba(ibclass
BInstr
p324
(dp325
g2
Nsg17
S'jz      short loc_2E87A'
p326
sg19
S'74ca'
p327
sg21
Vje 0xffffffffffffffcc
p328
sg5
L190638L
sg6
Nsg23
S'jz'
p329
sg25
S'0x2e8aeL'
p330
sg27
Nsbasg91
(lp331
S'mov reg, mem'
p332
aS'xor reg, reg'
p333
aS'mov reg, reg'
p334
aS'mov reg, 5Eh'
p335
aS'cregl sqlite3ExprAlloc'
p336
aS'test reg, reg'
p337
aS'jz func'
p338
asg103
Nsg5
S'0x2e898L'
p339
sg105
(lp340
S'0x2e862L'
p341
asg6
Nsg107
(lp342
S'0x2e87aL'
p343
aS'0x2e8b0L'
p344
asg111
Nsg112
Nsg113
S'6af2644eb10108e840b8c77dc2beae0d'
p345
sg115
S'4e8128696e49ae0d6aa20f80b5feaaa0'
p346
sg117
(lp347
g287
ag294
ag301
ag308
ag315
ag322
ag329
asg119
Nsba(ibclass
BBasicBlock
p348
(dp349
g12
Nsg13
(lp350
(ibclass
BInstr
p351
(dp352
g2
Nsg17
S'mov     [rax+10h], pExpr'
p353
sg19
S'48895810'
p354
sg21
Vmov qword ptr [rax + 0x10], rbx
p355
sg5
L190640L
sg6
Nsg23
S'mov'
p356
sg25
S'0x2e8b0L'
p357
sg27
Nsba(ibclass
BInstr
p358
(dp359
g2
Nsg17
S'or      dword ptr [rax+4], 1100h'
p360
sg19
S'81480400110000'
p361
sg21
Vor dword ptr [rax + 4], 0x1100
p362
sg5
L190644L
sg6
Nsg23
S'or'
p363
sg25
S'0x2e8b4L'
p364
sg27
Nsba(ibclass
BInstr
p365
(dp366
g2
Nsg17
S'mov     pExpr, rax'
p367
sg19
S'4889c3'
p368
sg21
Vmov rbx, rax
p369
sg5
L190651L
sg6
Nsg23
S'mov'
p370
sg25
S'0x2e8bbL'
p371
sg27
Nsba(ibclass
BInstr
p372
(dp373
g2
Nsg17
S'jmp     short loc_2E87A'
p374
sg19
S'ebba'
p375
sg21
Vjmp 0xffffffffffffffbc
p376
sg5
L190654L
sg6
Nsg23
S'jmp'
p377
sg25
S'0x2e8beL'
p378
sg27
Nsbasg91
(lp379
S'mov mem, pExpr'
p380
aS'or mem, 1100h'
p381
aS'mov pExpr, reg'
p382
aS'jmp func'
p383
asg103
Nsg5
S'0x2e8b0L'
p384
sg105
(lp385
S'0x2e898L'
p386
asg6
Nsg107
(lp387
S'0x2e87aL'
p388
asg111
Nsg112
Nsg113
S'd9bb8c77f817d4e43f75017b977aae43'
p389
sg115
S'31ad405fc29633556a07e2308d90b52b'
p390
sg117
(lp391
g356
ag363
ag370
ag377
asg119
Nsba(ibclass
BBasicBlock
p392
(dp393
g12
Nsg13
(lp394
(ibclass
BInstr
p395
(dp396
g2
Nsg17
S'call    __stack_chk_fail'
p397
sg19
S'e89be1fdff'
p398
sg21
Vcall 0xfffffffffffde1a0
p399
sg5
L190656L
sg6
Nsg23
S'call'
p400
sg25
S'0x2e8c0L'
p401
sg27
Nsbasg91
(lp402
S'cregl __stack_chk_fail'
p403
asg103
Nsg5
S'0x2e8c0L'
p404
sg105
(lp405
S'0x2e87aL'
p406
asg6
Nsg107
(lp407
sg111
Nsg112
Nsg113
S'53b9e9679a8ea25880376080b76f98ad'
p408
sg115
S'5852027b1493af739b90283a2dc353c0'
p409
sg117
(lp410
g400
asg119
Nsbasb.