(ibclass
BFunc
p0
(dp1
S'hash'
p2
NsS'name'
p3
S'sqlite3AppendChar'
p4
sS'start_address'
p5
L262464L
sS'flag'
p6
NsS'program'
p7
NsS'bbs'
p8
(lp9
(ibclass
BBasicBlock
p10
(dp11
S'function'
p12
NsS'binstrs'
p13
(lp14
(ibclass
BInstr
p15
(dp16
g2
NsS'disasm'
p17
S'push    rbx'
p18
sS'bytes'
p19
S'53'
p20
sS'disasm_striped'
p21
Vpush rbx
p22
sg5
L262464L
sg6
NsS'mnem'
p23
S'push'
p24
sS'address'
p25
S'0x40140L'
p26
sS'basicblock'
p27
Nsba(ibclass
BInstr
p28
(dp29
g2
Nsg17
S'mov     ecx, [p+18h]'
p30
sg19
S'8b4f18'
p31
sg21
Vmov ecx, dword ptr [rdi + 0x18]
p32
sg5
L262465L
sg6
Nsg23
S'mov'
p33
sg25
S'0x40141L'
p34
sg27
Nsba(ibclass
BInstr
p35
(dp36
g2
Nsg17
S'mov     rbx, p'
p37
sg19
S'4889fb'
p38
sg21
Vmov rbx, rdi
p39
sg5
L262468L
sg6
Nsg23
S'mov'
p40
sg25
S'0x40144L'
p41
sg27
Nsba(ibclass
BInstr
p42
(dp43
g2
Nsg17
S'mov     edi, [p+10h]'
p44
sg19
S'8b7f10'
p45
sg21
Vmov edi, dword ptr [rdi + 0x10]
p46
sg5
L262471L
sg6
Nsg23
S'mov'
p47
sg25
S'0x40147L'
p48
sg27
Nsba(ibclass
BInstr
p49
(dp50
g2
Nsg17
S'movsxd  rdx, esi'
p51
sg19
S'4863d6'
p52
sg21
Vmovsxd rdx, esi
p53
sg5
L262474L
sg6
Nsg23
S'movsxd'
p54
sg25
S'0x4014aL'
p55
sg27
Nsba(ibclass
BInstr
p56
(dp57
g2
Nsg17
S'add     rdx, rcx'
p58
sg19
S'4801ca'
p59
sg21
Vadd rdx, rcx
p60
sg5
L262477L
sg6
Nsg23
S'add'
p61
sg25
S'0x4014dL'
p62
sg27
Nsba(ibclass
BInstr
p63
(dp64
g2
Nsg17
S'cmp     rdx, rdi'
p65
sg19
S'4839fa'
p66
sg21
Vcmp rdx, rdi
p67
sg5
L262480L
sg6
Nsg23
S'cmp'
p68
sg25
S'0x40150L'
p69
sg27
Nsba(ibclass
BInstr
p70
(dp71
g2
Nsg17
S'jl      short loc_40160'
p72
sg19
S'7c0b'
p73
sg21
Vjl 0xd
p74
sg5
L262483L
sg6
Nsg23
S'jl'
p75
sg25
S'0x40153L'
p76
sg27
NsbasS'disasm_list'
p77
(lp78
S'push reg'
p79
aS'mov reg, mem'
p80
aS'mov reg, p'
p81
aS'mov reg, mem'
p82
aS'movsxd reg, reg'
p83
aS'add reg, reg'
p84
aS'cmp reg, reg'
p85
aS'jl func'
p86
asS'end_address'
p87
Nsg5
S'0x40140L'
p88
sS'preds'
p89
(lp90
sg6
NsS'succs'
p91
(lp92
S'0x40155L'
p93
aS'0x40160L'
p94
asS'hash_v3'
p95
NsS'flag_v2'
p96
NsS'hash_v1'
p97
S'1648dee7b41d85fb650cba6cf6670229'
p98
sS'hash_v2'
p99
S'155f7306f030edfbd43c2ebedb1f27d9'
p100
sS'mnen_list'
p101
(lp102
g24
ag33
ag40
ag47
ag54
ag61
ag68
ag75
asS'neighbour_disasm_list'
p103
Nsba(ibclass
BBasicBlock
p104
(dp105
g12
Nsg13
(lp106
(ibclass
BInstr
p107
(dp108
g2
Nsg17
S'cmp     byte ptr [p+1Ch], 0'
p109
sg19
S'807b1c00'
p110
sg21
Vcmp byte ptr [rbx + 0x1c], 0
p111
sg5
L262485L
sg6
Nsg23
S'cmp'
p112
sg25
S'0x40155L'
p113
sg27
Nsba(ibclass
BInstr
p114
(dp115
g2
Nsg17
S'jz      short loc_40190'
p116
sg19
S'7435'
p117
sg21
Vje 0x37
p118
sg5
L262489L
sg6
Nsg23
S'jz'
p119
sg25
S'0x40159L'
p120
sg27
Nsbasg77
(lp121
S'cmp mem, 0'
p122
aS'jz func'
p123
asg87
Nsg5
S'0x40155L'
p124
sg89
(lp125
S'0x40140L'
p126
asg6
Nsg91
(lp127
S'0x4015bL'
p128
aS'0x40190L'
p129
asg95
Nsg96
Nsg97
S'613dbc2b0cb9d6264d802b24d709daea'
p130
sg99
S'7f4ecf78254be39f53e7a11cedd080e9'
p131
sg101
(lp132
g112
ag119
asg103
Nsba(ibclass
BBasicBlock
p133
(dp134
g12
Nsg13
(lp135
(ibclass
BInstr
p136
(dp137
g2
Nsg17
S'pop     p'
p138
sg19
S'5b'
p139
sg21
Vpop rbx
p140
sg5
L262491L
sg6
Nsg23
S'pop'
p141
sg25
S'0x4015bL'
p142
sg27
Nsba(ibclass
BInstr
p143
(dp144
g2
Nsg17
S'retn'
p145
sg19
S'c3'
p146
sg21
Vret 
p147
sg5
L262492L
sg6
Nsg23
S'retn'
p148
sg25
S'0x4015cL'
p149
sg27
Nsbasg77
(lp150
S'pop p'
p151
ag145
asg87
Nsg5
S'0x4015bL'
p152
sg89
(lp153
S'0x40155L'
p154
aS'0x4016aL'
p155
aS'0x40190L'
p156
asg6
Nsg91
(lp157
sg95
Nsg96
Nsg97
S'959e63ef7de005c3fd9b9535d382f6e9'
p158
sg99
S'92e8cc8829f81f69f56ffecc14ddc42c'
p159
sg101
(lp160
g141
ag148
asg103
Nsba(ibclass
BBasicBlock
p161
(dp162
g12
Nsg13
(lp163
(ibclass
BInstr
p164
(dp165
g2
Nsg17
S'test    esi, esi'
p166
sg19
S'85f6'
p167
sg21
Vtest esi, esi
p168
sg5
L262496L
sg6
Nsg23
S'test'
p169
sg25
S'0x40160L'
p170
sg27
Nsba(ibclass
BInstr
p171
(dp172
g2
Nsg17
S'mov     rax, rcx'
p173
sg19
S'4889c8'
p174
sg21
Vmov rax, rcx
p175
sg5
L262498L
sg6
Nsg23
S'mov'
p176
sg25
S'0x40162L'
p177
sg27
Nsba(ibclass
BInstr
p178
(dp179
g2
Nsg17
S'lea     edx, [N-1]'
p180
sg19
S'8d56ff'
p181
sg21
Vlea edx, [rsi - 1]
p182
sg5
L262501L
sg6
Nsg23
S'lea'
p183
sg25
S'0x40165L'
p184
sg27
Nsba(ibclass
BInstr
p185
(dp186
g2
Nsg17
S'jg      short loc_40179'
p187
sg19
S'7f0f'
p188
sg21
Vjg 0x11
p189
sg5
L262504L
sg6
Nsg23
S'jg'
p190
sg25
S'0x40168L'
p191
sg27
Nsbasg77
(lp192
S'test reg, reg'
p193
aS'mov reg, reg'
p194
aS'lea reg, mem'
p195
aS'jg func'
p196
asg87
Nsg5
S'0x40160L'
p197
sg89
(lp198
S'0x40140L'
p199
asg6
Nsg91
(lp200
S'0x4016aL'
p201
aS'0x40179L'
p202
asg95
Nsg96
Nsg97
S'629fad7f6f94f30c77adf39a95d80a15'
p203
sg99
S'12e45991b4b09fad66ef026ed1401fcc'
p204
sg101
(lp205
g169
ag176
ag183
ag190
asg103
Nsba(ibclass
BBasicBlock
p206
(dp207
g12
Nsg13
(lp208
(ibclass
BInstr
p209
(dp210
g2
Nsg17
S'jmp     short loc_4015B'
p211
sg19
S'ebef'
p212
sg21
Vjmp 0xfffffffffffffff1
p213
sg5
L262506L
sg6
Nsg23
S'jmp'
p214
sg25
S'0x4016aL'
p215
sg27
Nsbasg77
(lp216
S'jmp func'
p217
asg87
Nsg5
S'0x4016aL'
p218
sg89
(lp219
S'0x40160L'
p220
asg6
Nsg91
(lp221
S'0x4015bL'
p222
asg95
Nsg96
Nsg97
S'0ef6cf926f2f394b0cc8e11be8022625'
p223
sg99
S'6c64eaafdcb2d6ebd96fc3dc6cab1911'
p224
sg101
(lp225
g214
asg103
Nsba(ibclass
BBasicBlock
p226
(dp227
g12
Nsg13
(lp228
(ibclass
BInstr
p229
(dp230
g2
Nsg17
S'mov     ecx, [p+18h]'
p231
sg19
S'8b4b18'
p232
sg21
Vmov ecx, dword ptr [rbx + 0x18]
p233
sg5
L262512L
sg6
Nsg23
S'mov'
p234
sg25
S'0x40170L'
p235
sg27
Nsba(ibclass
BInstr
p236
(dp237
g2
Nsg17
S'sub     edx, 1'
p238
sg19
S'83ea01'
p239
sg21
Vsub edx, 1
p240
sg5
L262515L
sg6
Nsg23
S'sub'
p241
sg25
S'0x40173L'
p242
sg27
Nsba(ibclass
BInstr
p243
(dp244
g2
Nsg17
S'mov     rax, rcx'
p245
sg19
S'4889c8'
p246
sg21
Vmov rax, rcx
p247
sg5
L262518L
sg6
Nsg23
S'mov'
p248
sg25
S'0x40176L'
p249
sg27
Nsbasg77
(lp250
S'mov reg, mem'
p251
aS'sub reg, 1'
p252
aS'mov reg, reg'
p253
asg87
Nsg5
S'0x40170L'
p254
sg89
(lp255
S'0x40179L'
p256
asg6
Nsg91
(lp257
S'0x40179L'
p258
asg95
Nsg96
Nsg97
S'afa8fd7489dd84ca1960c76cb3046536'
p259
sg99
S'621b683e7c98301596283c3ca9eba7ec'
p260
sg101
(lp261
g234
ag241
ag248
asg103
Nsba(ibclass
BBasicBlock
p262
(dp263
g12
Nsg13
(lp264
(ibclass
BInstr
p265
(dp266
g2
Nsg17
S'mov     rsi, [p+8]      ; N'
p267
sg19
S'488b7308'
p268
sg21
Vmov rsi, qword ptr [rbx + 8]
p269
sg5
L262521L
sg6
Nsg23
S'mov'
p270
sg25
S'0x40179L'
p271
sg27
Nsba(ibclass
BInstr
p272
(dp273
g2
Nsg17
S'add     eax, 1'
p274
sg19
S'83c001'
p275
sg21
Vadd eax, 1
p276
sg5
L262525L
sg6
Nsg23
S'add'
p277
sg25
S'0x4017dL'
p278
sg27
Nsba(ibclass
BInstr
p279
(dp280
g2
Nsg17
S'test    edx, edx'
p281
sg19
S'85d2'
p282
sg21
Vtest edx, edx
p283
sg5
L262528L
sg6
Nsg23
S'test'
p284
sg25
S'0x40180L'
p285
sg27
Nsba(ibclass
BInstr
p286
(dp287
g2
Nsg17
S'mov     [p+18h], eax'
p288
sg19
S'894318'
p289
sg21
Vmov dword ptr [rbx + 0x18], eax
p290
sg5
L262530L
sg6
Nsg23
S'mov'
p291
sg25
S'0x40182L'
p292
sg27
Nsba(ibclass
BInstr
p293
(dp294
g2
Nsg17
S'mov     byte ptr [rsi+rcx], 20h'
p295
sg19
S'c6040e20'
p296
sg21
Vmov byte ptr [rsi + rcx], 0x20
p297
sg5
L262533L
sg6
Nsg23
S'mov'
p298
sg25
S'0x40185L'
p299
sg27
Nsba(ibclass
BInstr
p300
(dp301
g2
Nsg17
S'jg      short loc_40170'
p302
sg19
S'7fe5'
p303
sg21
Vjg 0xffffffffffffffe7
p304
sg5
L262537L
sg6
Nsg23
S'jg'
p305
sg25
S'0x40189L'
p306
sg27
Nsbasg77
(lp307
S'mov reg, mem'
p308
aS'add reg, 1'
p309
aS'test reg, reg'
p310
aS'mov mem, reg'
p311
aS'mov mem, 20h'
p312
aS'jg func'
p313
asg87
Nsg5
S'0x40179L'
p314
sg89
(lp315
S'0x40160L'
p316
aS'0x40170L'
p317
aS'0x4019cL'
p318
asg6
Nsg91
(lp319
S'0x40170L'
p320
aS'0x4018bL'
p321
asg95
Nsg96
Nsg97
S'37145fa49256dbcd8a5bc7ad79c5bdc7'
p322
sg99
S'1069b8417a613068865754ccb3883ec1'
p323
sg101
(lp324
g270
ag277
ag284
ag291
ag298
ag305
asg103
Nsba(ibclass
BBasicBlock
p325
(dp326
g12
Nsg13
(lp327
(ibclass
BInstr
p328
(dp329
g2
Nsg17
S'pop     p'
p330
sg19
S'5b'
p331
sg21
Vpop rbx
p332
sg5
L262539L
sg6
Nsg23
S'pop'
p333
sg25
S'0x4018bL'
p334
sg27
Nsba(ibclass
BInstr
p335
(dp336
g2
Nsg17
S'retn'
p337
sg19
S'c3'
p338
sg21
Vret 
p339
sg5
L262540L
sg6
Nsg23
S'retn'
p340
sg25
S'0x4018cL'
p341
sg27
Nsbasg77
(lp342
S'pop p'
p343
ag337
asg87
Nsg5
S'0x4018bL'
p344
sg89
(lp345
S'0x40179L'
p346
asg6
Nsg91
(lp347
sg95
Nsg96
Nsg97
S'959e63ef7de005c3fd9b9535d382f6e9'
p348
sg99
S'92e8cc8829f81f69f56ffecc14ddc42c'
p349
sg101
(lp350
g333
ag340
asg103
Nsba(ibclass
BBasicBlock
p351
(dp352
g12
Nsg13
(lp353
(ibclass
BInstr
p354
(dp355
g2
Nsg17
S'mov     rdi, p          ; p'
p356
sg19
S'4889df'
p357
sg21
Vmov rdi, rbx
p358
sg5
L262544L
sg6
Nsg23
S'mov'
p359
sg25
S'0x40190L'
p360
sg27
Nsba(ibclass
BInstr
p361
(dp362
g2
Nsg17
S'call    sqlite3StrAccumEnlarge'
p363
sg19
S'e8f8fbffff'
p364
sg21
Vcall 0xfffffffffffffbfd
p365
sg5
L262547L
sg6
Nsg23
S'call'
p366
sg25
S'0x40193L'
p367
sg27
Nsba(ibclass
BInstr
p368
(dp369
g2
Nsg17
S'test    eax, eax'
p370
sg19
S'85c0'
p371
sg21
Vtest eax, eax
p372
sg5
L262552L
sg6
Nsg23
S'test'
p373
sg25
S'0x40198L'
p374
sg27
Nsba(ibclass
BInstr
p375
(dp376
g2
Nsg17
S'jle     short loc_4015B'
p377
sg19
S'7ebf'
p378
sg21
Vjle 0xffffffffffffffc1
p379
sg5
L262554L
sg6
Nsg23
S'jle'
p380
sg25
S'0x4019aL'
p381
sg27
Nsbasg77
(lp382
S'mov reg, p'
p383
aS'cregl sqlite3StrAccumEnlarge'
p384
aS'test reg, reg'
p385
aS'jle func'
p386
asg87
Nsg5
S'0x40190L'
p387
sg89
(lp388
S'0x40155L'
p389
asg6
Nsg91
(lp390
S'0x4015bL'
p391
aS'0x4019cL'
p392
asg95
Nsg96
Nsg97
S'23637ccde51e5fbaaa2ec89cdeb4575b'
p393
sg99
S'd1753c6d4db7db3212da32fdab547a5d'
p394
sg101
(lp395
g359
ag366
ag373
ag380
asg103
Nsba(ibclass
BBasicBlock
p396
(dp397
g12
Nsg13
(lp398
(ibclass
BInstr
p399
(dp400
g2
Nsg17
S'mov     ecx, [p+18h]'
p401
sg19
S'8b4b18'
p402
sg21
Vmov ecx, dword ptr [rbx + 0x18]
p403
sg5
L262556L
sg6
Nsg23
S'mov'
p404
sg25
S'0x4019cL'
p405
sg27
Nsba(ibclass
BInstr
p406
(dp407
g2
Nsg17
S'lea     edx, [N-1]'
p408
sg19
S'8d50ff'
p409
sg21
Vlea edx, [rax - 1]
p410
sg5
L262559L
sg6
Nsg23
S'lea'
p411
sg25
S'0x4019fL'
p412
sg27
Nsba(ibclass
BInstr
p413
(dp414
g2
Nsg17
S'mov     rax, rcx'
p415
sg19
S'4889c8'
p416
sg21
Vmov rax, rcx
p417
sg5
L262562L
sg6
Nsg23
S'mov'
p418
sg25
S'0x401a2L'
p419
sg27
Nsba(ibclass
BInstr
p420
(dp421
g2
Nsg17
S'jmp     short loc_40179'
p422
sg19
S'ebd2'
p423
sg21
Vjmp 0xffffffffffffffd4
p424
sg5
L262565L
sg6
Nsg23
S'jmp'
p425
sg25
S'0x401a5L'
p426
sg27
Nsbasg77
(lp427
S'mov reg, mem'
p428
aS'lea reg, mem'
p429
aS'mov reg, reg'
p430
aS'jmp func'
p431
asg87
Nsg5
S'0x4019cL'
p432
sg89
(lp433
S'0x40190L'
p434
asg6
Nsg91
(lp435
S'0x40179L'
p436
asg95
Nsg96
Nsg97
S'624dffa5ed2eb89221c0ea54f6069626'
p437
sg99
S'fefc3a85e448d48020f3a799d1a69159'
p438
sg101
(lp439
g404
ag411
ag418
ag425
asg103
Nsbasb.