(ibclass
BFunc
p0
(dp1
S'hash'
p2
NsS'name'
p3
S'sqlite3ExprAddCollateToken'
p4
sS'start_address'
p5
L113856L
sS'flag'
p6
NsS'program'
p7
NsS'bbs'
p8
(lp9
(ibclass
BBasicBlock
p10
(dp11
S'function'
p12
NsS'binstrs'
p13
(lp14
(ibclass
BInstr
p15
(dp16
g2
NsS'disasm'
p17
S'push    rbx'
p18
sS'bytes'
p19
S'53'
p20
sS'disasm_striped'
p21
Vpush rbx
p22
sg5
L113856L
sg6
NsS'mnem'
p23
S'push'
p24
sS'address'
p25
S'0x1bcc0L'
p26
sS'basicblock'
p27
Nsba(ibclass
BInstr
p28
(dp29
g2
Nsg17
S'mov     rdi, [rdi]      ; db'
p30
sg19
S'488b3f'
p31
sg21
Vmov rdi, qword ptr [rdi]
p32
sg5
L113857L
sg6
Nsg23
S'mov'
p33
sg25
S'0x1bcc1L'
p34
sg27
Nsba(ibclass
BInstr
p35
(dp36
g2
Nsg17
S'mov     rbx, pExpr'
p37
sg19
S'4889f3'
p38
sg21
Vmov rbx, rsi
p39
sg5
L113860L
sg6
Nsg23
S'mov'
p40
sg25
S'0x1bcc4L'
p41
sg27
Nsba(ibclass
BInstr
p42
(dp43
g2
Nsg17
S'mov     esi, 5Fh        ; op'
p44
sg19
S'be5f000000'
p45
sg21
Vmov esi, 0x5f
p46
sg5
L113863L
sg6
Nsg23
S'mov'
p47
sg25
S'0x1bcc7L'
p48
sg27
Nsba(ibclass
BInstr
p49
(dp50
g2
Nsg17
S'call    sqlite3ExprAlloc'
p51
sg19
S'e84f94ffff'
p52
sg21
Vcall 0xffffffffffff9454
p53
sg5
L113868L
sg6
Nsg23
S'call'
p54
sg25
S'0x1bcccL'
p55
sg27
Nsba(ibclass
BInstr
p56
(dp57
g2
Nsg17
S'test    pNew, pNew'
p58
sg19
S'4885c0'
p59
sg21
Vtest rax, rax
p60
sg5
L113873L
sg6
Nsg23
S'test'
p61
sg25
S'0x1bcd1L'
p62
sg27
Nsba(ibclass
BInstr
p63
(dp64
g2
Nsg17
S'jz      short loc_1BCE8'
p65
sg19
S'7412'
p66
sg21
Vje 0x14
p67
sg5
L113876L
sg6
Nsg23
S'jz'
p68
sg25
S'0x1bcd4L'
p69
sg27
NsbasS'disasm_list'
p70
(lp71
S'push reg'
p72
aS'mov reg, mem'
p73
aS'mov reg, pExpr'
p74
aS'mov reg, 5Fh'
p75
aS'cregl sqlite3ExprAlloc'
p76
aS'test pNew, pNew'
p77
aS'jz func'
p78
asS'end_address'
p79
Nsg5
S'0x1bcc0L'
p80
sS'preds'
p81
(lp82
sg6
NsS'succs'
p83
(lp84
S'0x1bcd6L'
p85
aS'0x1bce8L'
p86
asS'hash_v3'
p87
NsS'flag_v2'
p88
NsS'hash_v1'
p89
S'044dc85715d2cac419f7581629067ad7'
p90
sS'hash_v2'
p91
S'fe7eacc6a99ca07836dd2c8efcf9af25'
p92
sS'mnen_list'
p93
(lp94
g24
ag33
ag40
ag47
ag54
ag61
ag68
asS'neighbour_disasm_list'
p95
Nsba(ibclass
BBasicBlock
p96
(dp97
g12
Nsg13
(lp98
(ibclass
BInstr
p99
(dp100
g2
Nsg17
S'or      dword ptr [pNew+4], 1100h'
p101
sg19
S'81480400110000'
p102
sg21
Vor dword ptr [rax + 4], 0x1100
p103
sg5
L113878L
sg6
Nsg23
S'or'
p104
sg25
S'0x1bcd6L'
p105
sg27
Nsba(ibclass
BInstr
p106
(dp107
g2
Nsg17
S'mov     [pNew+10h], rbx'
p108
sg19
S'48895810'
p109
sg21
Vmov qword ptr [rax + 0x10], rbx
p110
sg5
L113885L
sg6
Nsg23
S'mov'
p111
sg25
S'0x1bcddL'
p112
sg27
Nsba(ibclass
BInstr
p113
(dp114
g2
Nsg17
S'pop     rbx'
p115
sg19
S'5b'
p116
sg21
Vpop rbx
p117
sg5
L113889L
sg6
Nsg23
S'pop'
p118
sg25
S'0x1bce1L'
p119
sg27
Nsba(ibclass
BInstr
p120
(dp121
g2
Nsg17
S'retn'
p122
sg19
S'c3'
p123
sg21
Vret 
p124
sg5
L113890L
sg6
Nsg23
S'retn'
p125
sg25
S'0x1bce2L'
p126
sg27
Nsbasg70
(lp127
S'or mem, 1100h'
p128
aS'mov mem, reg'
p129
aS'pop reg'
p130
ag122
asg79
Nsg5
S'0x1bcd6L'
p131
sg81
(lp132
S'0x1bcc0L'
p133
asg6
Nsg83
(lp134
sg87
Nsg88
Nsg89
S'c942c0f6f920097efa7281fb6d9248c5'
p135
sg91
S'401e949baf52626895e148eefac19d00'
p136
sg93
(lp137
g104
ag111
ag118
ag125
asg95
Nsba(ibclass
BBasicBlock
p138
(dp139
g12
Nsg13
(lp140
(ibclass
BInstr
p141
(dp142
g2
Nsg17
S'mov     pNew, pExpr'
p143
sg19
S'4889d8'
p144
sg21
Vmov rax, rbx
p145
sg5
L113896L
sg6
Nsg23
S'mov'
p146
sg25
S'0x1bce8L'
p147
sg27
Nsba(ibclass
BInstr
p148
(dp149
g2
Nsg17
S'pop     rbx'
p150
sg19
S'5b'
p151
sg21
Vpop rbx
p152
sg5
L113899L
sg6
Nsg23
S'pop'
p153
sg25
S'0x1bcebL'
p154
sg27
Nsba(ibclass
BInstr
p155
(dp156
g2
Nsg17
S'retn'
p157
sg19
S'c3'
p158
sg21
Vret 
p159
sg5
L113900L
sg6
Nsg23
S'retn'
p160
sg25
S'0x1bcecL'
p161
sg27
Nsbasg70
(lp162
S'mov pNew, pExpr'
p163
aS'pop reg'
p164
ag157
asg79
Nsg5
S'0x1bce8L'
p165
sg81
(lp166
S'0x1bcc0L'
p167
asg6
Nsg83
(lp168
sg87
Nsg88
Nsg89
S'0a5de58d322e2f2473ef5d4e2305d453'
p169
sg91
S'fe732237d460a2e6b0eccee36d128c2b'
p170
sg93
(lp171
g146
ag153
ag160
asg95
Nsbasb.