(ibclass
BFunc
p0
(dp1
S'hash'
p2
NsS'name'
p3
S'sqlite3ExprAddCollateString'
p4
sS'start_address'
p5
L113312L
sS'flag'
p6
NsS'program'
p7
NsS'bbs'
p8
(lp9
(ibclass
BBasicBlock
p10
(dp11
S'function'
p12
NsS'binstrs'
p13
(lp14
(ibclass
BInstr
p15
(dp16
g2
NsS'disasm'
p17
S'sub     rsp, 28h'
p18
sS'bytes'
p19
S'4883ec28'
p20
sS'disasm_striped'
p21
Vsub rsp, 0x28
p22
sg5
L113312L
sg6
NsS'mnem'
p23
S'sub'
p24
sS'address'
p25
S'0x1baa0L'
p26
sS'basicblock'
p27
Nsba(ibclass
BInstr
p28
(dp29
g2
Nsg17
S'mov     rax, pExpr'
p30
sg19
S'4889f0'
p31
sg21
Vmov rax, rsi
p32
sg5
L113316L
sg6
Nsg23
S'mov'
p33
sg25
S'0x1baa4L'
p34
sg27
Nsba(ibclass
BInstr
p35
(dp36
g2
Nsg17
S'mov     pExpr, fs:28h'
p37
sg19
S'64488b342528000000'
p38
sg21
Vmov rsi, qword ptr fs:[0x28]
p39
sg5
L113319L
sg6
Nsg23
S'mov'
p40
sg25
S'0x1baa7L'
p41
sg27
Nsba(ibclass
BInstr
p42
(dp43
g2
Nsg17
S'mov     [rsp+28h+var_10], pExpr'
p44
sg19
S'4889742418'
p45
sg21
Vmov qword ptr [rsp + 0x18], rsi
p46
sg5
L113328L
sg6
Nsg23
S'mov'
p47
sg25
S'0x1bab0L'
p48
sg27
Nsba(ibclass
BInstr
p49
(dp50
g2
Nsg17
S'xor     esi, esi'
p51
sg19
S'31f6'
p52
sg21
Vxor esi, esi
p53
sg5
L113333L
sg6
Nsg23
S'xor'
p54
sg25
S'0x1bab5L'
p55
sg27
Nsba(ibclass
BInstr
p56
(dp57
g2
Nsg17
S'test    zC, zC'
p58
sg19
S'4885d2'
p59
sg21
Vtest rdx, rdx
p60
sg5
L113335L
sg6
Nsg23
S'test'
p61
sg25
S'0x1bab7L'
p62
sg27
Nsba(ibclass
BInstr
p63
(dp64
g2
Nsg17
S'mov     [rsp+28h+s.z], zC'
p65
sg19
S'48891424'
p66
sg21
Vmov qword ptr [rsp], rdx
p67
sg5
L113338L
sg6
Nsg23
S'mov'
p68
sg25
S'0x1babaL'
p69
sg27
Nsba(ibclass
BInstr
p70
(dp71
g2
Nsg17
S'jz      short loc_1BAF5'
p72
sg19
S'7435'
p73
sg21
Vje 0x37
p74
sg5
L113342L
sg6
Nsg23
S'jz'
p75
sg25
S'0x1babeL'
p76
sg27
NsbasS'disasm_list'
p77
(lp78
S'sub reg, 28h'
p79
aS'mov reg, pExpr'
p80
aS'mov pExpr, fs:28h'
p81
aS'mov mem, pExpr'
p82
aS'xor reg, reg'
p83
aS'test zC, zC'
p84
aS'mov mem, zC'
p85
aS'jz func'
p86
asS'end_address'
p87
Nsg5
S'0x1baa0L'
p88
sS'preds'
p89
(lp90
sg6
NsS'succs'
p91
(lp92
S'0x1bac0L'
p93
aS'0x1baf5L'
p94
asS'hash_v3'
p95
NsS'flag_v2'
p96
NsS'hash_v1'
p97
S'e4ec854ab0148717af0e41f76bf79e93'
p98
sS'hash_v2'
p99
S'07b43afffedfb1070d38e9f93bbe2beb'
p100
sS'mnen_list'
p101
(lp102
g24
ag33
ag40
ag47
ag54
ag61
ag68
ag75
asS'neighbour_disasm_list'
p103
Nsba(ibclass
BBasicBlock
p104
(dp105
g12
Nsg13
(lp106
(ibclass
BInstr
p107
(dp108
g2
Nsg17
S'cmp     byte ptr [zC], 0'
p109
sg19
S'803a00'
p110
sg21
Vcmp byte ptr [rdx], 0
p111
sg5
L113344L
sg6
Nsg23
S'cmp'
p112
sg25
S'0x1bac0L'
p113
sg27
Nsba(ibclass
BInstr
p114
(dp115
g2
Nsg17
S'jz      short loc_1BAF5'
p116
sg19
S'7430'
p117
sg21
Vje 0x32
p118
sg5
L113347L
sg6
Nsg23
S'jz'
p119
sg25
S'0x1bac3L'
p120
sg27
Nsbasg77
(lp121
S'cmp mem, 0'
p122
aS'jz func'
p123
asg87
Nsg5
S'0x1bac0L'
p124
sg89
(lp125
S'0x1baa0L'
p126
asg6
Nsg91
(lp127
S'0x1bac5L'
p128
aS'0x1baf5L'
p129
asg95
Nsg96
Nsg97
S'613dbc2b0cb9d6264d802b24d709daea'
p130
sg99
S'7f4ecf78254be39f53e7a11cedd080e9'
p131
sg101
(lp132
g112
ag119
asg103
Nsba(ibclass
BBasicBlock
p133
(dp134
g12
Nsg13
(lp135
(ibclass
BInstr
p136
(dp137
g2
Nsg17
S'mov     rcx, zC'
p138
sg19
S'4889d1'
p139
sg21
Vmov rcx, rdx
p140
sg5
L113349L
sg6
Nsg23
S'mov'
p141
sg25
S'0x1bac5L'
p142
sg27
Nsba(ibclass
BInstr
p143
(dp144
g2
Nsg17
S'nop     dword ptr [pExpr+pExpr+00000000h]'
p145
sg19
S'0f1f840000000000'
p146
sg21
Vnop dword ptr [rax + rax]
p147
sg5
L113352L
sg6
Nsg23
S'nop'
p148
sg25
S'0x1bac8L'
p149
sg27
Nsbasg77
(lp150
S'mov reg, zC'
p151
aS'nop mem'
p152
asg87
Nsg5
S'0x1bac5L'
p153
sg89
(lp154
S'0x1bac0L'
p155
asg6
Nsg91
(lp156
S'0x1bad0L'
p157
asg95
Nsg96
Nsg97
S'd879575edf838c14a63d2d0b096a9ca4'
p158
sg99
S'446ee2e4527a022a81ffc6755cd2a429'
p159
sg101
(lp160
g141
ag148
asg103
Nsba(ibclass
BBasicBlock
p161
(dp162
g12
Nsg13
(lp163
(ibclass
BInstr
p164
(dp165
g2
Nsg17
S'add     rcx, 1'
p166
sg19
S'4883c101'
p167
sg21
Vadd rcx, 1
p168
sg5
L113360L
sg6
Nsg23
S'add'
p169
sg25
S'0x1bad0L'
p170
sg27
Nsba(ibclass
BInstr
p171
(dp172
g2
Nsg17
S'cmp     byte ptr [rcx], 0'
p173
sg19
S'803900'
p174
sg21
Vcmp byte ptr [rcx], 0
p175
sg5
L113364L
sg6
Nsg23
S'cmp'
p176
sg25
S'0x1bad4L'
p177
sg27
Nsba(ibclass
BInstr
p178
(dp179
g2
Nsg17
S'jnz     short loc_1BAD0'
p180
sg19
S'75f7'
p181
sg21
Vjne 0xfffffffffffffff9
p182
sg5
L113367L
sg6
Nsg23
S'jnz'
p183
sg25
S'0x1bad7L'
p184
sg27
Nsbasg77
(lp185
S'add reg, 1'
p186
aS'cmp mem, 0'
p187
aS'jnz func'
p188
asg87
Nsg5
S'0x1bad0L'
p189
sg89
(lp190
S'0x1bac5L'
p191
aS'0x1bad0L'
p192
asg6
Nsg91
(lp193
S'0x1bad9L'
p194
aS'0x1bad0L'
p195
asg95
Nsg96
Nsg97
S'c95cb49ba4393ddb96d6068653426a43'
p196
sg99
S'8be9454d79dca792517c868415f4dc8e'
p197
sg101
(lp198
g169
ag176
ag183
asg103
Nsba(ibclass
BBasicBlock
p199
(dp200
g12
Nsg13
(lp201
(ibclass
BInstr
p202
(dp203
g2
Nsg17
S'sub     rcx, zC'
p204
sg19
S'4829d1'
p205
sg21
Vsub rcx, rdx
p206
sg5
L113369L
sg6
Nsg23
S'sub'
p207
sg25
S'0x1bad9L'
p208
sg27
Nsba(ibclass
BInstr
p209
(dp210
g2
Nsg17
S'and     ecx, 3FFFFFFFh'
p211
sg19
S'81e1ffffff3f'
p212
sg21
Vand ecx, 0x3fffffff
p213
sg5
L113372L
sg6
Nsg23
S'and'
p214
sg25
S'0x1badcL'
p215
sg27
Nsba(ibclass
BInstr
p216
(dp217
g2
Nsg17
S'test    ecx, ecx'
p218
sg19
S'85c9'
p219
sg21
Vtest ecx, ecx
p220
sg5
L113378L
sg6
Nsg23
S'test'
p221
sg25
S'0x1bae2L'
p222
sg27
Nsba(ibclass
BInstr
p223
(dp224
g2
Nsg17
S'mov     [rsp+28h+s.n], ecx'
p225
sg19
S'894c2408'
p226
sg21
Vmov dword ptr [rsp + 8], ecx
p227
sg5
L113380L
sg6
Nsg23
S'mov'
p228
sg25
S'0x1bae4L'
p229
sg27
Nsba(ibclass
BInstr
p230
(dp231
g2
Nsg17
S'jz      short loc_1BAF5'
p232
sg19
S'740b'
p233
sg21
Vje 0xd
p234
sg5
L113384L
sg6
Nsg23
S'jz'
p235
sg25
S'0x1bae8L'
p236
sg27
Nsbasg77
(lp237
S'sub reg, zC'
p238
aS'and reg, 3FFFFFFFh'
p239
aS'test reg, reg'
p240
aS'mov mem, reg'
p241
aS'jz func'
p242
asg87
Nsg5
S'0x1bad9L'
p243
sg89
(lp244
S'0x1bad0L'
p245
asg6
Nsg91
(lp246
S'0x1baeaL'
p247
aS'0x1baf5L'
p248
asg95
Nsg96
Nsg97
S'6db314f9ce9634f955ef2ca8555a200f'
p249
sg99
S'f834d7ad5e5f7642515e1015a35b1474'
p250
sg101
(lp251
g207
ag214
ag221
ag228
ag235
asg103
Nsba(ibclass
BBasicBlock
p252
(dp253
g12
Nsg13
(lp254
(ibclass
BInstr
p255
(dp256
g2
Nsg17
S'mov     zC, rsp         ; pCollName'
p257
sg19
S'4889e2'
p258
sg21
Vmov rdx, rsp
p259
sg5
L113386L
sg6
Nsg23
S'mov'
p260
sg25
S'0x1baeaL'
p261
sg27
Nsba(ibclass
BInstr
p262
(dp263
g2
Nsg17
S'mov     rsi, pExpr      ; pExpr'
p264
sg19
S'4889c6'
p265
sg21
Vmov rsi, rax
p266
sg5
L113389L
sg6
Nsg23
S'mov'
p267
sg25
S'0x1baedL'
p268
sg27
Nsba(ibclass
BInstr
p269
(dp270
g2
Nsg17
S'call    sqlite3ExprAddCollateToken'
p271
sg19
S'e86bffffff'
p272
sg21
Vcall 0xffffffffffffff70
p273
sg5
L113392L
sg6
Nsg23
S'call'
p274
sg25
S'0x1baf0L'
p275
sg27
Nsbasg77
(lp276
S'mov zC, reg'
p277
aS'mov reg, pExpr'
p278
aS'cregl sqlite3ExprAddCollateToken'
p279
asg87
Nsg5
S'0x1baeaL'
p280
sg89
(lp281
S'0x1bad9L'
p282
asg6
Nsg91
(lp283
S'0x1baf5L'
p284
asg95
Nsg96
Nsg97
S'0bf1a79a6a1155c5085c1c85d6d83d05'
p285
sg99
S'1424faddbe851f03b90a104acaf1dac7'
p286
sg101
(lp287
g260
ag267
ag274
asg103
Nsba(ibclass
BBasicBlock
p288
(dp289
g12
Nsg13
(lp290
(ibclass
BInstr
p291
(dp292
g2
Nsg17
S'mov     rsi, [rsp+28h+var_10]'
p293
sg19
S'488b742418'
p294
sg21
Vmov rsi, qword ptr [rsp + 0x18]
p295
sg5
L113397L
sg6
Nsg23
S'mov'
p296
sg25
S'0x1baf5L'
p297
sg27
Nsba(ibclass
BInstr
p298
(dp299
g2
Nsg17
S'xor     rsi, fs:28h'
p300
sg19
S'644833342528000000'
p301
sg21
Vxor rsi, qword ptr fs:[0x28]
p302
sg5
L113402L
sg6
Nsg23
S'xor'
p303
sg25
S'0x1bafaL'
p304
sg27
Nsba(ibclass
BInstr
p305
(dp306
g2
Nsg17
S'jnz     short loc_1BB0A'
p307
sg19
S'7505'
p308
sg21
Vjne 7
p309
sg5
L113411L
sg6
Nsg23
S'jnz'
p310
sg25
S'0x1bb03L'
p311
sg27
Nsbasg77
(lp312
S'mov reg, mem'
p313
aS'xor reg, fs:28h'
p314
aS'jnz func'
p315
asg87
Nsg5
S'0x1baf5L'
p316
sg89
(lp317
S'0x1baa0L'
p318
aS'0x1bac0L'
p319
aS'0x1bad9L'
p320
aS'0x1baeaL'
p321
asg6
Nsg91
(lp322
S'0x1bb05L'
p323
aS'0x1bb0aL'
p324
asg95
Nsg96
Nsg97
S'2b8f3df5ad0f18a2e177b5e941a9e9e2'
p325
sg99
S'32b415e46b956084b9208b4befc12149'
p326
sg101
(lp327
g296
ag303
ag310
asg103
Nsba(ibclass
BBasicBlock
p328
(dp329
g12
Nsg13
(lp330
(ibclass
BInstr
p331
(dp332
g2
Nsg17
S'add     rsp, 28h'
p333
sg19
S'4883c428'
p334
sg21
Vadd rsp, 0x28
p335
sg5
L113413L
sg6
Nsg23
S'add'
p336
sg25
S'0x1bb05L'
p337
sg27
Nsba(ibclass
BInstr
p338
(dp339
g2
Nsg17
S'retn'
p340
sg19
S'c3'
p341
sg21
Vret 
p342
sg5
L113417L
sg6
Nsg23
S'retn'
p343
sg25
S'0x1bb09L'
p344
sg27
Nsbasg77
(lp345
S'add reg, 28h'
p346
ag340
asg87
Nsg5
S'0x1bb05L'
p347
sg89
(lp348
S'0x1baf5L'
p349
asg6
Nsg91
(lp350
sg95
Nsg96
Nsg97
S'9de37b11f2792664f8b6978bb5ff68a7'
p351
sg99
S'f0339f56c0a61521a9d0ebba7660462f'
p352
sg101
(lp353
g336
ag343
asg103
Nsba(ibclass
BBasicBlock
p354
(dp355
g12
Nsg13
(lp356
(ibclass
BInstr
p357
(dp358
g2
Nsg17
S'call    __stack_chk_fail'
p359
sg19
S'e861e5feff'
p360
sg21
Vcall 0xfffffffffffee566
p361
sg5
L113418L
sg6
Nsg23
S'call'
p362
sg25
S'0x1bb0aL'
p363
sg27
Nsbasg77
(lp364
S'cregl __stack_chk_fail'
p365
asg87
Nsg5
S'0x1bb0aL'
p366
sg89
(lp367
S'0x1baf5L'
p368
asg6
Nsg91
(lp369
sg95
Nsg96
Nsg97
S'53b9e9679a8ea25880376080b76f98ad'
p370
sg99
S'5852027b1493af739b90283a2dc353c0'
p371
sg101
(lp372
g362
asg103
Nsbasb.