(ibclass
BFunc
p0
(dp1
S'hash'
p2
NsS'name'
p3
S'sqlite3AppendChar'
p4
sS'start_address'
p5
L173584L
sS'flag'
p6
NsS'program'
p7
NsS'bbs'
p8
(lp9
(ibclass
BBasicBlock
p10
(dp11
S'function'
p12
NsS'binstrs'
p13
(lp14
(ibclass
BInstr
p15
(dp16
g2
NsS'disasm'
p17
S'push    rbp'
p18
sS'bytes'
p19
S'55'
p20
sS'disasm_striped'
p21
Vpush rbp
p22
sg5
L173584L
sg6
NsS'mnem'
p23
S'push'
p24
sS'address'
p25
S'0x2a610L'
p26
sS'basicblock'
p27
Nsba(ibclass
BInstr
p28
(dp29
g2
Nsg17
S'push    rbx'
p30
sg19
S'53'
p31
sg21
Vpush rbx
p32
sg5
L173585L
sg6
Nsg23
S'push'
p33
sg25
S'0x2a611L'
p34
sg27
Nsba(ibclass
BInstr
p35
(dp36
g2
Nsg17
S'mov     ebp, edx'
p37
sg19
S'89d5'
p38
sg21
Vmov ebp, edx
p39
sg5
L173586L
sg6
Nsg23
S'mov'
p40
sg25
S'0x2a612L'
p41
sg27
Nsba(ibclass
BInstr
p42
(dp43
g2
Nsg17
S'mov     rbx, p'
p44
sg19
S'4889fb'
p45
sg21
Vmov rbx, rdi
p46
sg5
L173588L
sg6
Nsg23
S'mov'
p47
sg25
S'0x2a614L'
p48
sg27
Nsba(ibclass
BInstr
p49
(dp50
g2
Nsg17
S'sub     rsp, 8'
p51
sg19
S'4883ec08'
p52
sg21
Vsub rsp, 8
p53
sg5
L173591L
sg6
Nsg23
S'sub'
p54
sg25
S'0x2a617L'
p55
sg27
Nsba(ibclass
BInstr
p56
(dp57
g2
Nsg17
S'movsxd  rax, dword ptr [p+18h]'
p58
sg19
S'48634718'
p59
sg21
Vmovsxd rax, dword ptr [rdi + 0x18]
p60
sg5
L173595L
sg6
Nsg23
S'movsxd'
p61
sg25
S'0x2a61bL'
p62
sg27
Nsba(ibclass
BInstr
p63
(dp64
g2
Nsg17
S'lea     ecx, [rax+N]'
p65
sg19
S'8d0c30'
p66
sg21
Vlea ecx, [rax + rsi]
p67
sg5
L173599L
sg6
Nsg23
S'lea'
p68
sg25
S'0x2a61fL'
p69
sg27
Nsba(ibclass
BInstr
p70
(dp71
g2
Nsg17
S'cmp     ecx, [p+1Ch]'
p72
sg19
S'3b4f1c'
p73
sg21
Vcmp ecx, dword ptr [rdi + 0x1c]
p74
sg5
L173602L
sg6
Nsg23
S'cmp'
p75
sg25
S'0x2a622L'
p76
sg27
Nsba(ibclass
BInstr
p77
(dp78
g2
Nsg17
S'jl      short loc_2A638'
p79
sg19
S'7c11'
p80
sg21
Vjl 0x13
p81
sg5
L173605L
sg6
Nsg23
S'jl'
p82
sg25
S'0x2a625L'
p83
sg27
NsbasS'disasm_list'
p84
(lp85
S'push reg'
p86
aS'push reg'
p87
aS'mov reg, reg'
p88
aS'mov reg, p'
p89
aS'sub reg, 8'
p90
aS'movsxd reg, mem'
p91
aS'lea reg, mem'
p92
aS'cmp reg, mem'
p93
aS'jl func'
p94
asS'end_address'
p95
Nsg5
S'0x2a610L'
p96
sS'preds'
p97
(lp98
sg6
NsS'succs'
p99
(lp100
S'0x2a627L'
p101
aS'0x2a638L'
p102
asS'hash_v3'
p103
NsS'flag_v2'
p104
NsS'hash_v1'
p105
S'78b701c0e863e551ad2eb293b8101eaa'
p106
sS'hash_v2'
p107
S'a97ff8f52fd70f827b119cbe7b5ab781'
p108
sS'mnen_list'
p109
(lp110
g24
ag33
ag40
ag47
ag54
ag61
ag68
ag75
ag82
asS'neighbour_disasm_list'
p111
Nsba(ibclass
BBasicBlock
p112
(dp113
g12
Nsg13
(lp114
(ibclass
BInstr
p115
(dp116
g2
Nsg17
S'cmp     byte ptr [p+25h], 0'
p117
sg19
S'807f2500'
p118
sg21
Vcmp byte ptr [rdi + 0x25], 0
p119
sg5
L173607L
sg6
Nsg23
S'cmp'
p120
sg25
S'0x2a627L'
p121
sg27
Nsba(ibclass
BInstr
p122
(dp123
g2
Nsg17
S'jz      short loc_2A670'
p124
sg19
S'7443'
p125
sg21
Vje 0x45
p126
sg5
L173611L
sg6
Nsg23
S'jz'
p127
sg25
S'0x2a62bL'
p128
sg27
Nsbasg84
(lp129
S'cmp mem, 0'
p130
aS'jz func'
p131
asg95
Nsg5
S'0x2a627L'
p132
sg97
(lp133
S'0x2a610L'
p134
asg6
Nsg99
(lp135
S'0x2a62dL'
p136
aS'0x2a670L'
p137
asg103
Nsg104
Nsg105
S'613dbc2b0cb9d6264d802b24d709daea'
p138
sg107
S'7f4ecf78254be39f53e7a11cedd080e9'
p139
sg109
(lp140
g120
ag127
asg111
Nsba(ibclass
BBasicBlock
p141
(dp142
g12
Nsg13
(lp143
(ibclass
BInstr
p144
(dp145
g2
Nsg17
S'add     rsp, 8'
p146
sg19
S'4883c408'
p147
sg21
Vadd rsp, 8
p148
sg5
L173613L
sg6
Nsg23
S'add'
p149
sg25
S'0x2a62dL'
p150
sg27
Nsba(ibclass
BInstr
p151
(dp152
g2
Nsg17
S'pop     p'
p153
sg19
S'5b'
p154
sg21
Vpop rbx
p155
sg5
L173617L
sg6
Nsg23
S'pop'
p156
sg25
S'0x2a631L'
p157
sg27
Nsba(ibclass
BInstr
p158
(dp159
g2
Nsg17
S'pop     c'
p160
sg19
S'5d'
p161
sg21
Vpop rbp
p162
sg5
L173618L
sg6
Nsg23
S'pop'
p163
sg25
S'0x2a632L'
p164
sg27
Nsba(ibclass
BInstr
p165
(dp166
g2
Nsg17
S'retn'
p167
sg19
S'c3'
p168
sg21
Vret 
p169
sg5
L173619L
sg6
Nsg23
S'retn'
p170
sg25
S'0x2a633L'
p171
sg27
Nsbasg84
(lp172
S'add reg, 8'
p173
aS'pop p'
p174
aS'pop c'
p175
ag167
asg95
Nsg5
S'0x2a62dL'
p176
sg97
(lp177
S'0x2a627L'
p178
aS'0x2a63fL'
p179
aS'0x2a670L'
p180
asg6
Nsg99
(lp181
sg103
Nsg104
Nsg105
S'4d1981a678d0c70281d5161c3174b44c'
p182
sg107
S'50fe89873b986b67114df4acd31d402f'
p183
sg109
(lp184
g149
ag156
ag163
ag170
asg111
Nsba(ibclass
BBasicBlock
p185
(dp186
g12
Nsg13
(lp187
(ibclass
BInstr
p188
(dp189
g2
Nsg17
S'test    esi, esi'
p190
sg19
S'85f6'
p191
sg21
Vtest esi, esi
p192
sg5
L173624L
sg6
Nsg23
S'test'
p193
sg25
S'0x2a638L'
p194
sg27
Nsba(ibclass
BInstr
p195
(dp196
g2
Nsg17
S'lea     ecx, [N-1]'
p197
sg19
S'8d4eff'
p198
sg21
Vlea ecx, [rsi - 1]
p199
sg5
L173626L
sg6
Nsg23
S'lea'
p200
sg25
S'0x2a63aL'
p201
sg27
Nsba(ibclass
BInstr
p202
(dp203
g2
Nsg17
S'jg      short loc_2A64F'
p204
sg19
S'7f10'
p205
sg21
Vjg 0x12
p206
sg5
L173629L
sg6
Nsg23
S'jg'
p207
sg25
S'0x2a63dL'
p208
sg27
Nsbasg84
(lp209
S'test reg, reg'
p210
aS'lea reg, mem'
p211
aS'jg func'
p212
asg95
Nsg5
S'0x2a638L'
p213
sg97
(lp214
S'0x2a610L'
p215
asg6
Nsg99
(lp216
S'0x2a63fL'
p217
aS'0x2a64fL'
p218
asg103
Nsg104
Nsg105
S'b30b25e3c0c6b288a6235a043b47fcac'
p219
sg107
S'67d2c757fe5ac93296fc7fd1b948026a'
p220
sg109
(lp221
g193
ag200
ag207
asg111
Nsba(ibclass
BBasicBlock
p222
(dp223
g12
Nsg13
(lp224
(ibclass
BInstr
p225
(dp226
g2
Nsg17
S'jmp     short loc_2A62D'
p227
sg19
S'ebec'
p228
sg21
Vjmp 0xffffffffffffffee
p229
sg5
L173631L
sg6
Nsg23
S'jmp'
p230
sg25
S'0x2a63fL'
p231
sg27
Nsbasg84
(lp232
S'jmp func'
p233
asg95
Nsg5
S'0x2a63fL'
p234
sg97
(lp235
S'0x2a638L'
p236
asg6
Nsg99
(lp237
S'0x2a62dL'
p238
asg103
Nsg104
Nsg105
S'0ef6cf926f2f394b0cc8e11be8022625'
p239
sg107
S'6c64eaafdcb2d6ebd96fc3dc6cab1911'
p240
sg109
(lp241
g230
asg111
Nsba(ibclass
BBasicBlock
p242
(dp243
g12
Nsg13
(lp244
(ibclass
BInstr
p245
(dp246
g2
Nsg17
S'movsxd  rax, dword ptr [p+18h]'
p247
sg19
S'48634318'
p248
sg21
Vmovsxd rax, dword ptr [rbx + 0x18]
p249
sg5
L173640L
sg6
Nsg23
S'movsxd'
p250
sg25
S'0x2a648L'
p251
sg27
Nsba(ibclass
BInstr
p252
(dp253
g2
Nsg17
S'sub     ecx, 1'
p254
sg19
S'83e901'
p255
sg21
Vsub ecx, 1
p256
sg5
L173644L
sg6
Nsg23
S'sub'
p257
sg25
S'0x2a64cL'
p258
sg27
Nsbasg84
(lp259
S'movsxd reg, mem'
p260
aS'sub reg, 1'
p261
asg95
Nsg5
S'0x2a648L'
p262
sg97
(lp263
S'0x2a64fL'
p264
asg6
Nsg99
(lp265
S'0x2a64fL'
p266
asg103
Nsg104
Nsg105
S'ee094a6a7515d0c9a895479f4d13d0ac'
p267
sg107
S'b1170b661c1334dd2321a9c61d9b5a59'
p268
sg109
(lp269
g250
ag257
asg111
Nsba(ibclass
BBasicBlock
p270
(dp271
g12
Nsg13
(lp272
(ibclass
BInstr
p273
(dp274
g2
Nsg17
S'mov     rsi, [p+10h]    ; N'
p275
sg19
S'488b7310'
p276
sg21
Vmov rsi, qword ptr [rbx + 0x10]
p277
sg5
L173647L
sg6
Nsg23
S'mov'
p278
sg25
S'0x2a64fL'
p279
sg27
Nsba(ibclass
BInstr
p280
(dp281
g2
Nsg17
S'lea     edi, [rax+1]    ; p'
p282
sg19
S'8d7801'
p283
sg21
Vlea edi, [rax + 1]
p284
sg5
L173651L
sg6
Nsg23
S'lea'
p285
sg25
S'0x2a653L'
p286
sg27
Nsba(ibclass
BInstr
p287
(dp288
g2
Nsg17
S'test    ecx, ecx'
p289
sg19
S'85c9'
p290
sg21
Vtest ecx, ecx
p291
sg5
L173654L
sg6
Nsg23
S'test'
p292
sg25
S'0x2a656L'
p293
sg27
Nsba(ibclass
BInstr
p294
(dp295
g2
Nsg17
S'mov     [p+18h], edi'
p296
sg19
S'897b18'
p297
sg21
Vmov dword ptr [rbx + 0x18], edi
p298
sg5
L173656L
sg6
Nsg23
S'mov'
p299
sg25
S'0x2a658L'
p300
sg27
Nsba(ibclass
BInstr
p301
(dp302
g2
Nsg17
S'mov     [rsi+rax], bpl'
p303
sg19
S'40882c06'
p304
sg21
Vmov byte ptr [rsi + rax], bpl
p305
sg5
L173659L
sg6
Nsg23
S'mov'
p306
sg25
S'0x2a65bL'
p307
sg27
Nsba(ibclass
BInstr
p308
(dp309
g2
Nsg17
S'jg      short loc_2A648'
p310
sg19
S'7fe7'
p311
sg21
Vjg 0xffffffffffffffe9
p312
sg5
L173663L
sg6
Nsg23
S'jg'
p313
sg25
S'0x2a65fL'
p314
sg27
Nsbasg84
(lp315
S'mov reg, mem'
p316
aS'lea reg, mem'
p317
aS'test reg, reg'
p318
aS'mov mem, reg'
p319
aS'mov mem, regl'
p320
aS'jg func'
p321
asg95
Nsg5
S'0x2a64fL'
p322
sg97
(lp323
S'0x2a638L'
p324
aS'0x2a648L'
p325
aS'0x2a679L'
p326
asg6
Nsg99
(lp327
S'0x2a648L'
p328
aS'0x2a661L'
p329
asg103
Nsg104
Nsg105
S'4b431f9dcf45ebe0d02abe8091497bfc'
p330
sg107
S'82f09b03929fd84a55806a955af22b92'
p331
sg109
(lp332
g278
ag285
ag292
ag299
ag306
ag313
asg111
Nsba(ibclass
BBasicBlock
p333
(dp334
g12
Nsg13
(lp335
(ibclass
BInstr
p336
(dp337
g2
Nsg17
S'add     rsp, 8'
p338
sg19
S'4883c408'
p339
sg21
Vadd rsp, 8
p340
sg5
L173665L
sg6
Nsg23
S'add'
p341
sg25
S'0x2a661L'
p342
sg27
Nsba(ibclass
BInstr
p343
(dp344
g2
Nsg17
S'pop     p'
p345
sg19
S'5b'
p346
sg21
Vpop rbx
p347
sg5
L173669L
sg6
Nsg23
S'pop'
p348
sg25
S'0x2a665L'
p349
sg27
Nsba(ibclass
BInstr
p350
(dp351
g2
Nsg17
S'pop     c'
p352
sg19
S'5d'
p353
sg21
Vpop rbp
p354
sg5
L173670L
sg6
Nsg23
S'pop'
p355
sg25
S'0x2a666L'
p356
sg27
Nsba(ibclass
BInstr
p357
(dp358
g2
Nsg17
S'retn'
p359
sg19
S'c3'
p360
sg21
Vret 
p361
sg5
L173671L
sg6
Nsg23
S'retn'
p362
sg25
S'0x2a667L'
p363
sg27
Nsbasg84
(lp364
S'add reg, 8'
p365
aS'pop p'
p366
aS'pop c'
p367
ag359
asg95
Nsg5
S'0x2a661L'
p368
sg97
(lp369
S'0x2a64fL'
p370
asg6
Nsg99
(lp371
sg103
Nsg104
Nsg105
S'4d1981a678d0c70281d5161c3174b44c'
p372
sg107
S'50fe89873b986b67114df4acd31d402f'
p373
sg109
(lp374
g341
ag348
ag355
ag362
asg111
Nsba(ibclass
BBasicBlock
p375
(dp376
g12
Nsg13
(lp377
(ibclass
BInstr
p378
(dp379
g2
Nsg17
S'call    sqlite3StrAccumEnlarge'
p380
sg19
S'e85bfdffff'
p381
sg21
Vcall 0xfffffffffffffd60
p382
sg5
L173680L
sg6
Nsg23
S'call'
p383
sg25
S'0x2a670L'
p384
sg27
Nsba(ibclass
BInstr
p385
(dp386
g2
Nsg17
S'test    eax, eax'
p387
sg19
S'85c0'
p388
sg21
Vtest eax, eax
p389
sg5
L173685L
sg6
Nsg23
S'test'
p390
sg25
S'0x2a675L'
p391
sg27
Nsba(ibclass
BInstr
p392
(dp393
g2
Nsg17
S'jle     short loc_2A62D'
p394
sg19
S'7eb4'
p395
sg21
Vjle 0xffffffffffffffb6
p396
sg5
L173687L
sg6
Nsg23
S'jle'
p397
sg25
S'0x2a677L'
p398
sg27
Nsbasg84
(lp399
S'cregl sqlite3StrAccumEnlarge'
p400
aS'test reg, reg'
p401
aS'jle func'
p402
asg95
Nsg5
S'0x2a670L'
p403
sg97
(lp404
S'0x2a627L'
p405
asg6
Nsg99
(lp406
S'0x2a62dL'
p407
aS'0x2a679L'
p408
asg103
Nsg104
Nsg105
S'91535c79442b9051d98e20498fcfb454'
p409
sg107
S'b2de7d02c6c4e9448a9d61899b1865ea'
p410
sg109
(lp411
g383
ag390
ag397
asg111
Nsba(ibclass
BBasicBlock
p412
(dp413
g12
Nsg13
(lp414
(ibclass
BInstr
p415
(dp416
g2
Nsg17
S'lea     ecx, [N-1]'
p417
sg19
S'8d48ff'
p418
sg21
Vlea ecx, [rax - 1]
p419
sg5
L173689L
sg6
Nsg23
S'lea'
p420
sg25
S'0x2a679L'
p421
sg27
Nsba(ibclass
BInstr
p422
(dp423
g2
Nsg17
S'movsxd  rax, dword ptr [p+18h]'
p424
sg19
S'48634318'
p425
sg21
Vmovsxd rax, dword ptr [rbx + 0x18]
p426
sg5
L173692L
sg6
Nsg23
S'movsxd'
p427
sg25
S'0x2a67cL'
p428
sg27
Nsba(ibclass
BInstr
p429
(dp430
g2
Nsg17
S'jmp     short loc_2A64F'
p431
sg19
S'ebcd'
p432
sg21
Vjmp 0xffffffffffffffcf
p433
sg5
L173696L
sg6
Nsg23
S'jmp'
p434
sg25
S'0x2a680L'
p435
sg27
Nsbasg84
(lp436
S'lea reg, mem'
p437
aS'movsxd reg, mem'
p438
aS'jmp func'
p439
asg95
Nsg5
S'0x2a679L'
p440
sg97
(lp441
S'0x2a670L'
p442
asg6
Nsg99
(lp443
S'0x2a64fL'
p444
asg103
Nsg104
Nsg105
S'9a079e4cc32bcb64d5391ae2935b3258'
p445
sg107
S'9dfcd291ef55c756d42dfbea1889b519'
p446
sg109
(lp447
g420
ag427
ag434
asg111
Nsbasb.