(ibclass
BFunc
p0
(dp1
S'hash'
p2
NsS'name'
p3
S'corruptSchema'
p4
sS'start_address'
p5
L231088L
sS'flag'
p6
NsS'program'
p7
NsS'bbs'
p8
(lp9
(ibclass
BBasicBlock
p10
(dp11
S'function'
p12
NsS'binstrs'
p13
(lp14
(ibclass
BInstr
p15
(dp16
g2
NsS'disasm'
p17
S'push    r13'
p18
sS'bytes'
p19
S'4155'
p20
sS'disasm_striped'
p21
Vpush r13
p22
sg5
L231088L
sg6
NsS'mnem'
p23
S'push'
p24
sS'address'
p25
S'0x386b0L'
p26
sS'basicblock'
p27
Nsba(ibclass
BInstr
p28
(dp29
g2
Nsg17
S'push    r12'
p30
sg19
S'4154'
p31
sg21
Vpush r12
p32
sg5
L231090L
sg6
Nsg23
S'push'
p33
sg25
S'0x386b2L'
p34
sg27
Nsba(ibclass
BInstr
p35
(dp36
g2
Nsg17
S'push    rbp'
p37
sg19
S'55'
p38
sg21
Vpush rbp
p39
sg5
L231092L
sg6
Nsg23
S'push'
p40
sg25
S'0x386b4L'
p41
sg27
Nsba(ibclass
BInstr
p42
(dp43
g2
Nsg17
S'push    rbx'
p44
sg19
S'53'
p45
sg21
Vpush rbx
p46
sg5
L231093L
sg6
Nsg23
S'push'
p47
sg25
S'0x386b5L'
p48
sg27
Nsba(ibclass
BInstr
p49
(dp50
g2
Nsg17
S'mov     rbx, pData'
p51
sg19
S'4889fb'
p52
sg21
Vmov rbx, rdi
p53
sg5
L231094L
sg6
Nsg23
S'mov'
p54
sg25
S'0x386b6L'
p55
sg27
Nsba(ibclass
BInstr
p56
(dp57
g2
Nsg17
S'sub     rsp, 8'
p58
sg19
S'4883ec08'
p59
sg21
Vsub rsp, 8
p60
sg5
L231097L
sg6
Nsg23
S'sub'
p61
sg25
S'0x386b9L'
p62
sg27
Nsba(ibclass
BInstr
p63
(dp64
g2
Nsg17
S'mov     rbp, [pData]'
p65
sg19
S'488b2f'
p66
sg21
Vmov rbp, qword ptr [rdi]
p67
sg5
L231101L
sg6
Nsg23
S'mov'
p68
sg25
S'0x386bdL'
p69
sg27
Nsba(ibclass
BInstr
p70
(dp71
g2
Nsg17
S'cmp     byte ptr [db+51h], 0'
p72
sg19
S'807d5100'
p73
sg21
Vcmp byte ptr [rbp + 0x51], 0
p74
sg5
L231104L
sg6
Nsg23
S'cmp'
p75
sg25
S'0x386c0L'
p76
sg27
Nsba(ibclass
BInstr
p77
(dp78
g2
Nsg17
S'jnz     short loc_38740'
p79
sg19
S'757a'
p80
sg21
Vjne 0x7c
p81
sg5
L231108L
sg6
Nsg23
S'jnz'
p82
sg25
S'0x386c4L'
p83
sg27
NsbasS'disasm_list'
p84
(lp85
S'push reg'
p86
aS'push reg'
p87
aS'push reg'
p88
aS'push reg'
p89
aS'mov reg, pData'
p90
aS'sub reg, 8'
p91
aS'mov reg, mem'
p92
aS'cmp mem, 0'
p93
aS'jnz func'
p94
asS'end_address'
p95
Nsg5
S'0x386b0L'
p96
sS'preds'
p97
(lp98
sg6
NsS'succs'
p99
(lp100
S'0x386c6L'
p101
aS'0x38740L'
p102
asS'hash_v3'
p103
NsS'flag_v2'
p104
NsS'hash_v1'
p105
S'01b0c75f9ed7f5cba77cfba6c47acecf'
p106
sS'hash_v2'
p107
S'd2c163630d62c5af3df170f402a62621'
p108
sS'mnen_list'
p109
(lp110
g24
ag33
ag40
ag47
ag54
ag61
ag68
ag75
ag82
asS'neighbour_disasm_list'
p111
Nsba(ibclass
BBasicBlock
p112
(dp113
g12
Nsg13
(lp114
(ibclass
BInstr
p115
(dp116
g2
Nsg17
S'test    byte ptr [db+2Eh], 1'
p117
sg19
S'f6452e01'
p118
sg21
Vtest byte ptr [rbp + 0x2e], 1
p119
sg5
L231110L
sg6
Nsg23
S'test'
p120
sg25
S'0x386c6L'
p121
sg27
Nsba(ibclass
BInstr
p122
(dp123
g2
Nsg17
S'jnz     short loc_38723'
p124
sg19
S'7557'
p125
sg21
Vjne 0x59
p126
sg5
L231114L
sg6
Nsg23
S'jnz'
p127
sg25
S'0x386caL'
p128
sg27
Nsbasg84
(lp129
S'test mem, 1'
p130
aS'jnz func'
p131
asg95
Nsg5
S'0x386c6L'
p132
sg97
(lp133
S'0x386b0L'
p134
asg6
Nsg99
(lp135
S'0x386ccL'
p136
aS'0x38723L'
p137
asg103
Nsg104
Nsg105
S'69f35919c7dcb199d0057b2f8ce242da'
p138
sg107
S'057ad40c2ef821a22923b3b24727e5ff'
p139
sg109
(lp140
g120
ag127
asg111
Nsba(ibclass
BBasicBlock
p141
(dp142
g12
Nsg13
(lp143
(ibclass
BInstr
p144
(dp145
g2
Nsg17
S'lea     rax, a?+2       ; "?"'
p146
sg19
S'488d0502c00600'
p147
sg21
Vlea rax, [rip + 0x6c002]
p148
sg5
L231116L
sg6
Nsg23
S'lea'
p149
sg25
S'0x386ccL'
p150
sg27
Nsba(ibclass
BInstr
p151
(dp152
g2
Nsg17
S'test    zObj, zObj'
p153
sg19
S'4885f6'
p154
sg21
Vtest rsi, rsi
p155
sg5
L231123L
sg6
Nsg23
S'test'
p156
sg25
S'0x386d3L'
p157
sg27
Nsba(ibclass
BInstr
p158
(dp159
g2
Nsg17
S'mov     pData, [pData+8]; pz'
p160
sg19
S'488b7f08'
p161
sg21
Vmov rdi, qword ptr [rdi + 8]
p162
sg5
L231126L
sg6
Nsg23
S'mov'
p163
sg25
S'0x386d6L'
p164
sg27
Nsba(ibclass
BInstr
p165
(dp166
g2
Nsg17
S'mov     r12, zExtra'
p167
sg19
S'4989d4'
p168
sg21
Vmov r12, rdx
p169
sg5
L231130L
sg6
Nsg23
S'mov'
p170
sg25
S'0x386daL'
p171
sg27
Nsba(ibclass
BInstr
p172
(dp173
g2
Nsg17
S'lea     zExtra, aMalformedDatab; "malformed database schema (%s)"'
p174
sg19
S'488d15ac280700'
p175
sg21
Vlea rdx, [rip + 0x728ac]
p176
sg5
L231133L
sg6
Nsg23
S'lea'
p177
sg25
S'0x386ddL'
p178
sg27
Nsba(ibclass
BInstr
p179
(dp180
g2
Nsg17
S'cmovz   zObj, rax'
p181
sg19
S'480f44f0'
p182
sg21
Vcmove rsi, rax
p183
sg5
L231140L
sg6
Nsg23
S'cmovz'
p184
sg25
S'0x386e4L'
p185
sg27
Nsba(ibclass
BInstr
p186
(dp187
g2
Nsg17
S'xor     eax, eax'
p188
sg19
S'31c0'
p189
sg21
Vxor eax, eax
p190
sg5
L231144L
sg6
Nsg23
S'xor'
p191
sg25
S'0x386e8L'
p192
sg27
Nsba(ibclass
BInstr
p193
(dp194
g2
Nsg17
S'mov     rcx, zObj'
p195
sg19
S'4889f1'
p196
sg21
Vmov rcx, rsi
p197
sg5
L231146L
sg6
Nsg23
S'mov'
p198
sg25
S'0x386eaL'
p199
sg27
Nsba(ibclass
BInstr
p200
(dp201
g2
Nsg17
S'mov     zObj, db        ; db'
p202
sg19
S'4889ee'
p203
sg21
Vmov rsi, rbp
p204
sg5
L231149L
sg6
Nsg23
S'mov'
p205
sg25
S'0x386edL'
p206
sg27
Nsba(ibclass
BInstr
p207
(dp208
g2
Nsg17
S'call    sqlite3SetString'
p209
sg19
S'e86becffff'
p210
sg21
Vcall 0xffffffffffffec70
p211
sg5
L231152L
sg6
Nsg23
S'call'
p212
sg25
S'0x386f0L'
p213
sg27
Nsba(ibclass
BInstr
p214
(dp215
g2
Nsg17
S'test    zExtra, zExtra'
p216
sg19
S'4d85e4'
p217
sg21
Vtest r12, r12
p218
sg5
L231157L
sg6
Nsg23
S'test'
p219
sg25
S'0x386f5L'
p220
sg27
Nsba(ibclass
BInstr
p221
(dp222
g2
Nsg17
S'jz      short loc_3871D'
p223
sg19
S'7423'
p224
sg21
Vje 0x25
p225
sg5
L231160L
sg6
Nsg23
S'jz'
p226
sg25
S'0x386f8L'
p227
sg27
Nsbasg84
(lp228
S'lea reg, a?+2'
p229
aS'test zObj, zObj'
p230
aS'mov pData, mem'
p231
aS'mov reg, zExtra'
p232
aS'lea zExtra, aMregformedDatab'
p233
aS'cmovz zObj, reg'
p234
aS'xor reg, reg'
p235
aS'mov reg, zObj'
p236
aS'mov zObj, db'
p237
aS'cregl sqlite3SetString'
p238
aS'test zExtra, zExtra'
p239
aS'jz func'
p240
asg95
Nsg5
S'0x386ccL'
p241
sg97
(lp242
S'0x386c6L'
p243
asg6
Nsg99
(lp244
S'0x386faL'
p245
aS'0x3871dL'
p246
asg103
Nsg104
Nsg105
S'b85dafca01b12a618f1e1a102004b838'
p247
sg107
S'fcaa2b146c9b3c45cfd5357bd496d3ac'
p248
sg109
(lp249
g149
ag156
ag163
ag170
ag177
ag184
ag191
ag198
ag205
ag212
ag219
ag226
asg111
Nsba(ibclass
BBasicBlock
p250
(dp251
g12
Nsg13
(lp252
(ibclass
BInstr
p253
(dp254
g2
Nsg17
S'mov     r13, [pData+8]'
p255
sg19
S'4c8b6b08'
p256
sg21
Vmov r13, qword ptr [rbx + 8]
p257
sg5
L231162L
sg6
Nsg23
S'mov'
p258
sg25
S'0x386faL'
p259
sg27
Nsba(ibclass
BInstr
p260
(dp261
g2
Nsg17
S'lea     rdx, aSS_1      ; "%s - %s"'
p262
sg19
S'488d1538ae0600'
p263
sg21
Vlea rdx, [rip + 0x6ae38]
p264
sg5
L231166L
sg6
Nsg23
S'lea'
p265
sg25
S'0x386feL'
p266
sg27
Nsba(ibclass
BInstr
p267
(dp268
g2
Nsg17
S'mov     r8, zExtra'
p269
sg19
S'4d89e0'
p270
sg21
Vmov r8, r12
p271
sg5
L231173L
sg6
Nsg23
S'mov'
p272
sg25
S'0x38705L'
p273
sg27
Nsba(ibclass
BInstr
p274
(dp275
g2
Nsg17
S'mov     rdi, db         ; db'
p276
sg19
S'4889ef'
p277
sg21
Vmov rdi, rbp
p278
sg5
L231176L
sg6
Nsg23
S'mov'
p279
sg25
S'0x38708L'
p280
sg27
Nsba(ibclass
BInstr
p281
(dp282
g2
Nsg17
S'xor     eax, eax'
p283
sg19
S'31c0'
p284
sg21
Vxor eax, eax
p285
sg5
L231179L
sg6
Nsg23
S'xor'
p286
sg25
S'0x3870bL'
p287
sg27
Nsba(ibclass
BInstr
p288
(dp289
g2
Nsg17
S'mov     rsi, [r13+0]    ; zStr'
p290
sg19
S'498b7500'
p291
sg21
Vmov rsi, qword ptr [r13]
p292
sg5
L231181L
sg6
Nsg23
S'mov'
p293
sg25
S'0x3870dL'
p294
sg27
Nsba(ibclass
BInstr
p295
(dp296
g2
Nsg17
S'mov     rcx, rsi        ; zFormat'
p297
sg19
S'4889f1'
p298
sg21
Vmov rcx, rsi
p299
sg5
L231185L
sg6
Nsg23
S'mov'
p300
sg25
S'0x38711L'
p301
sg27
Nsba(ibclass
BInstr
p302
(dp303
g2
Nsg17
S'call    sqlite3MAppendf'
p304
sg19
S'e8b7feffff'
p305
sg21
Vcall 0xfffffffffffffebc
p306
sg5
L231188L
sg6
Nsg23
S'call'
p307
sg25
S'0x38714L'
p308
sg27
Nsba(ibclass
BInstr
p309
(dp310
g2
Nsg17
S'mov     [r13+0], rax'
p311
sg19
S'49894500'
p312
sg21
Vmov qword ptr [r13], rax
p313
sg5
L231193L
sg6
Nsg23
S'mov'
p314
sg25
S'0x38719L'
p315
sg27
Nsbasg84
(lp316
S'mov reg, mem'
p317
aS'lea reg, aSS_1'
p318
aS'mov reg, zExtra'
p319
aS'mov reg, db'
p320
aS'xor reg, reg'
p321
aS'mov reg, mem'
p322
aS'mov reg, reg'
p323
aS'cregl sqlite3MAppendf'
p324
aS'mov mem, reg'
p325
asg95
Nsg5
S'0x386faL'
p326
sg97
(lp327
S'0x386ccL'
p328
asg6
Nsg99
(lp329
S'0x3871dL'
p330
asg103
Nsg104
Nsg105
S'4697b0c4559694e6c455c116c6b40b9b'
p331
sg107
S'debc5a649d2b1e2a8236e53f5a12fb28'
p332
sg109
(lp333
g258
ag265
ag272
ag279
ag286
ag293
ag300
ag307
ag314
asg111
Nsba(ibclass
BBasicBlock
p334
(dp335
g12
Nsg13
(lp336
(ibclass
BInstr
p337
(dp338
g2
Nsg17
S'cmp     byte ptr [db+51h], 0'
p339
sg19
S'807d5100'
p340
sg21
Vcmp byte ptr [rbp + 0x51], 0
p341
sg5
L231197L
sg6
Nsg23
S'cmp'
p342
sg25
S'0x3871dL'
p343
sg27
Nsba(ibclass
BInstr
p344
(dp345
g2
Nsg17
S'jnz     short loc_38740'
p346
sg19
S'751d'
p347
sg21
Vjne 0x1f
p348
sg5
L231201L
sg6
Nsg23
S'jnz'
p349
sg25
S'0x38721L'
p350
sg27
Nsbasg84
(lp351
S'cmp mem, 0'
p352
aS'jnz func'
p353
asg95
Nsg5
S'0x3871dL'
p354
sg97
(lp355
S'0x386ccL'
p356
aS'0x386faL'
p357
asg6
Nsg99
(lp358
S'0x38723L'
p359
aS'0x38740L'
p360
asg103
Nsg104
Nsg105
S'30cb3d6f6a174adfabcde507f6944a52'
p361
sg107
S'98d72118630a4e08156799652c8790e6'
p362
sg109
(lp363
g342
ag349
asg111
Nsba(ibclass
BBasicBlock
p364
(dp365
g12
Nsg13
(lp366
(ibclass
BInstr
p367
(dp368
g2
Nsg17
S'mov     edi, offset loc_19AFB; lineno'
p369
sg19
S'bffb9a0100'
p370
sg21
Vmov edi, 0x19afb
p371
sg5
L231203L
sg6
Nsg23
S'mov'
p372
sg25
S'0x38723L'
p373
sg27
Nsba(ibclass
BInstr
p374
(dp375
g2
Nsg17
S'call    sqlite3CorruptError'
p376
sg19
S'e8637bffff'
p377
sg21
Vcall 0xffffffffffff7b68
p378
sg5
L231208L
sg6
Nsg23
S'call'
p379
sg25
S'0x38728L'
p380
sg27
Nsba(ibclass
BInstr
p381
(dp382
g2
Nsg17
S'mov     [pData+14h], eax'
p383
sg19
S'894314'
p384
sg21
Vmov dword ptr [rbx + 0x14], eax
p385
sg5
L231213L
sg6
Nsg23
S'mov'
p386
sg25
S'0x3872dL'
p387
sg27
Nsba(ibclass
BInstr
p388
(dp389
g2
Nsg17
S'add     rsp, 8'
p390
sg19
S'4883c408'
p391
sg21
Vadd rsp, 8
p392
sg5
L231216L
sg6
Nsg23
S'add'
p393
sg25
S'0x38730L'
p394
sg27
Nsba(ibclass
BInstr
p395
(dp396
g2
Nsg17
S'pop     pData'
p397
sg19
S'5b'
p398
sg21
Vpop rbx
p399
sg5
L231220L
sg6
Nsg23
S'pop'
p400
sg25
S'0x38734L'
p401
sg27
Nsba(ibclass
BInstr
p402
(dp403
g2
Nsg17
S'pop     db'
p404
sg19
S'5d'
p405
sg21
Vpop rbp
p406
sg5
L231221L
sg6
Nsg23
S'pop'
p407
sg25
S'0x38735L'
p408
sg27
Nsba(ibclass
BInstr
p409
(dp410
g2
Nsg17
S'pop     r12'
p411
sg19
S'415c'
p412
sg21
Vpop r12
p413
sg5
L231222L
sg6
Nsg23
S'pop'
p414
sg25
S'0x38736L'
p415
sg27
Nsba(ibclass
BInstr
p416
(dp417
g2
Nsg17
S'pop     r13'
p418
sg19
S'415d'
p419
sg21
Vpop r13
p420
sg5
L231224L
sg6
Nsg23
S'pop'
p421
sg25
S'0x38738L'
p422
sg27
Nsba(ibclass
BInstr
p423
(dp424
g2
Nsg17
S'retn'
p425
sg19
S'c3'
p426
sg21
Vret 
p427
sg5
L231226L
sg6
Nsg23
S'retn'
p428
sg25
S'0x3873aL'
p429
sg27
Nsbasg84
(lp430
S'mov reg, offset func'
p431
aS'cregl sqlite3CorruptError'
p432
aS'mov mem, reg'
p433
aS'add reg, 8'
p434
aS'pop pData'
p435
aS'pop db'
p436
aS'pop reg'
p437
aS'pop reg'
p438
ag425
asg95
Nsg5
S'0x38723L'
p439
sg97
(lp440
S'0x386c6L'
p441
aS'0x3871dL'
p442
asg6
Nsg99
(lp443
sg103
Nsg104
Nsg105
S'e14c9fed1cbba9e5690d4d6d840d8e50'
p444
sg107
S'bda93575e77ef8b00dcb21baade70db2'
p445
sg109
(lp446
g372
ag379
ag386
ag393
ag400
ag407
ag414
ag421
ag428
asg111
Nsba(ibclass
BBasicBlock
p447
(dp448
g12
Nsg13
(lp449
(ibclass
BInstr
p450
(dp451
g2
Nsg17
S'mov     eax, 7'
p452
sg19
S'b807000000'
p453
sg21
Vmov eax, 7
p454
sg5
L231232L
sg6
Nsg23
S'mov'
p455
sg25
S'0x38740L'
p456
sg27
Nsba(ibclass
BInstr
p457
(dp458
g2
Nsg17
S'mov     [pData+14h], eax'
p459
sg19
S'894314'
p460
sg21
Vmov dword ptr [rbx + 0x14], eax
p461
sg5
L231237L
sg6
Nsg23
S'mov'
p462
sg25
S'0x38745L'
p463
sg27
Nsba(ibclass
BInstr
p464
(dp465
g2
Nsg17
S'add     rsp, 8'
p466
sg19
S'4883c408'
p467
sg21
Vadd rsp, 8
p468
sg5
L231240L
sg6
Nsg23
S'add'
p469
sg25
S'0x38748L'
p470
sg27
Nsba(ibclass
BInstr
p471
(dp472
g2
Nsg17
S'pop     pData'
p473
sg19
S'5b'
p474
sg21
Vpop rbx
p475
sg5
L231244L
sg6
Nsg23
S'pop'
p476
sg25
S'0x3874cL'
p477
sg27
Nsba(ibclass
BInstr
p478
(dp479
g2
Nsg17
S'pop     db'
p480
sg19
S'5d'
p481
sg21
Vpop rbp
p482
sg5
L231245L
sg6
Nsg23
S'pop'
p483
sg25
S'0x3874dL'
p484
sg27
Nsba(ibclass
BInstr
p485
(dp486
g2
Nsg17
S'pop     r12'
p487
sg19
S'415c'
p488
sg21
Vpop r12
p489
sg5
L231246L
sg6
Nsg23
S'pop'
p490
sg25
S'0x3874eL'
p491
sg27
Nsba(ibclass
BInstr
p492
(dp493
g2
Nsg17
S'pop     r13'
p494
sg19
S'415d'
p495
sg21
Vpop r13
p496
sg5
L231248L
sg6
Nsg23
S'pop'
p497
sg25
S'0x38750L'
p498
sg27
Nsba(ibclass
BInstr
p499
(dp500
g2
Nsg17
S'retn'
p501
sg19
S'c3'
p502
sg21
Vret 
p503
sg5
L231250L
sg6
Nsg23
S'retn'
p504
sg25
S'0x38752L'
p505
sg27
Nsbasg84
(lp506
S'mov reg, 7'
p507
aS'mov mem, reg'
p508
aS'add reg, 8'
p509
aS'pop pData'
p510
aS'pop db'
p511
aS'pop reg'
p512
aS'pop reg'
p513
ag501
asg95
Nsg5
S'0x38740L'
p514
sg97
(lp515
S'0x386b0L'
p516
aS'0x3871dL'
p517
asg6
Nsg99
(lp518
sg103
Nsg104
Nsg105
S'22b758ea981a24f134c05f72ec163064'
p519
sg107
S'93457b13100bcc008809bc84d5bd59a6'
p520
sg109
(lp521
g455
ag462
ag469
ag476
ag483
ag490
ag497
ag504
asg111
Nsbasb.