(ibclass
BFunc
p0
(dp1
S'hash'
p2
NsS'name'
p3
S'xsltAddTextString'
p4
sS'start_address'
p5
L217414L
sS'flag'
p6
NsS'program'
p7
NsS'bbs'
p8
(lp9
(ibclass
BBasicBlock
p10
(dp11
S'function'
p12
NsS'binstrs'
p13
(lp14
(ibclass
BInstr
p15
(dp16
g2
NsS'disasm'
p17
S'push    rbp'
p18
sS'bytes'
p19
S'55'
p20
sS'disasm_striped'
p21
Vpush rbp
p22
sg5
L217414L
sg6
NsS'mnem'
p23
S'push'
p24
sS'address'
p25
S'0x35146L'
p26
sS'basicblock'
p27
Nsba(ibclass
BInstr
p28
(dp29
g2
Nsg17
S'mov     rbp, rsp'
p30
sg19
S'4889e5'
p31
sg21
Vmov rbp, rsp
p32
sg5
L217415L
sg6
Nsg23
S'mov'
p33
sg25
S'0x35147L'
p34
sg27
Nsba(ibclass
BInstr
p35
(dp36
g2
Nsg17
S'sub     rsp, 40h'
p37
sg19
S'4883ec40'
p38
sg21
Vsub rsp, 0x40
p39
sg5
L217418L
sg6
Nsg23
S'sub'
p40
sg25
S'0x3514aL'
p41
sg27
Nsba(ibclass
BInstr
p42
(dp43
g2
Nsg17
S'mov     [rbp+ctxt], rdi'
p44
sg19
S'48897dd8'
p45
sg21
Vmov qword ptr [rbp - 0x28], rdi
p46
sg5
L217422L
sg6
Nsg23
S'mov'
p47
sg25
S'0x3514eL'
p48
sg27
Nsba(ibclass
BInstr
p49
(dp50
g2
Nsg17
S'mov     [rbp+target], rsi'
p51
sg19
S'488975d0'
p52
sg21
Vmov qword ptr [rbp - 0x30], rsi
p53
sg5
L217426L
sg6
Nsg23
S'mov'
p54
sg25
S'0x35152L'
p55
sg27
Nsba(ibclass
BInstr
p56
(dp57
g2
Nsg17
S'mov     [rbp+string], rdx'
p58
sg19
S'488955c8'
p59
sg21
Vmov qword ptr [rbp - 0x38], rdx
p60
sg5
L217430L
sg6
Nsg23
S'mov'
p61
sg25
S'0x35156L'
p62
sg27
Nsba(ibclass
BInstr
p63
(dp64
g2
Nsg17
S'mov     [rbp+len], ecx'
p65
sg19
S'894dc4'
p66
sg21
Vmov dword ptr [rbp - 0x3c], ecx
p67
sg5
L217434L
sg6
Nsg23
S'mov'
p68
sg25
S'0x3515aL'
p69
sg27
Nsba(ibclass
BInstr
p70
(dp71
g2
Nsg17
S'cmp     [rbp+len], 0'
p72
sg19
S'837dc400'
p73
sg21
Vcmp dword ptr [rbp - 0x3c], 0
p74
sg5
L217437L
sg6
Nsg23
S'cmp'
p75
sg25
S'0x3515dL'
p76
sg27
Nsba(ibclass
BInstr
p77
(dp78
g2
Nsg17
S'jle     short loc_35171'
p79
sg19
S'7e0e'
p80
sg21
Vjle 0x10
p81
sg5
L217441L
sg6
Nsg23
S'jle'
p82
sg25
S'0x35161L'
p83
sg27
NsbasS'disasm_list'
p84
(lp85
S'push reg'
p86
aS'mov reg, reg'
p87
aS'sub reg, 40h'
p88
aS'mov mem, reg'
p89
aS'mov mem, reg'
p90
aS'mov mem, reg'
p91
aS'mov mem, reg'
p92
aS'cmp mem, 0'
p93
aS'jle func'
p94
asS'end_address'
p95
Nsg5
S'0x35146L'
p96
sS'preds'
p97
(lp98
sg6
NsS'succs'
p99
(lp100
S'0x35163L'
p101
aS'0x35171L'
p102
asS'hash_v3'
p103
NsS'flag_v2'
p104
NsS'hash_v1'
p105
S'd53b8377189dc7fc0fe5e8a05e70de61'
p106
sS'hash_v2'
p107
S'b6481a76992a16ca7b1f0050c705f26c'
p108
sS'mnen_list'
p109
(lp110
g24
ag33
ag40
ag47
ag54
ag61
ag68
ag75
ag82
asS'neighbour_disasm_list'
p111
Nsba(ibclass
BBasicBlock
p112
(dp113
g12
Nsg13
(lp114
(ibclass
BInstr
p115
(dp116
g2
Nsg17
S'cmp     [rbp+string], 0'
p117
sg19
S'48837dc800'
p118
sg21
Vcmp qword ptr [rbp - 0x38], 0
p119
sg5
L217443L
sg6
Nsg23
S'cmp'
p120
sg25
S'0x35163L'
p121
sg27
Nsba(ibclass
BInstr
p122
(dp123
g2
Nsg17
S'jz      short loc_35171'
p124
sg19
S'7407'
p125
sg21
Vje 9
p126
sg5
L217448L
sg6
Nsg23
S'jz'
p127
sg25
S'0x35168L'
p128
sg27
Nsbasg84
(lp129
S'cmp mem, 0'
p130
aS'jz func'
p131
asg95
Nsg5
S'0x35163L'
p132
sg97
(lp133
S'0x35146L'
p134
asg6
Nsg99
(lp135
S'0x3516aL'
p136
aS'0x35171L'
p137
asg103
Nsg104
Nsg105
S'613dbc2b0cb9d6264d802b24d709daea'
p138
sg107
S'7f4ecf78254be39f53e7a11cedd080e9'
p139
sg109
(lp140
g120
ag127
asg111
Nsba(ibclass
BBasicBlock
p141
(dp142
g12
Nsg13
(lp143
(ibclass
BInstr
p144
(dp145
g2
Nsg17
S'cmp     [rbp+target], 0'
p146
sg19
S'48837dd000'
p147
sg21
Vcmp qword ptr [rbp - 0x30], 0
p148
sg5
L217450L
sg6
Nsg23
S'cmp'
p149
sg25
S'0x3516aL'
p150
sg27
Nsba(ibclass
BInstr
p151
(dp152
g2
Nsg17
S'jnz     short loc_3517A'
p153
sg19
S'7509'
p154
sg21
Vjne 0xb
p155
sg5
L217455L
sg6
Nsg23
S'jnz'
p156
sg25
S'0x3516fL'
p157
sg27
Nsbasg84
(lp158
S'cmp mem, 0'
p159
aS'jnz func'
p160
asg95
Nsg5
S'0x3516aL'
p161
sg97
(lp162
S'0x35163L'
p163
asg6
Nsg99
(lp164
S'0x35171L'
p165
aS'0x3517aL'
p166
asg103
Nsg104
Nsg105
S'30cb3d6f6a174adfabcde507f6944a52'
p167
sg107
S'98d72118630a4e08156799652c8790e6'
p168
sg109
(lp169
g149
ag156
asg111
Nsba(ibclass
BBasicBlock
p170
(dp171
g12
Nsg13
(lp172
(ibclass
BInstr
p173
(dp174
g2
Nsg17
S'mov     rax, [rbp+target]'
p175
sg19
S'488b45d0'
p176
sg21
Vmov rax, qword ptr [rbp - 0x30]
p177
sg5
L217457L
sg6
Nsg23
S'mov'
p178
sg25
S'0x35171L'
p179
sg27
Nsba(ibclass
BInstr
p180
(dp181
g2
Nsg17
S'jmp     locret_3537A'
p182
sg19
S'e900020000'
p183
sg21
Vjmp 0x205
p184
sg5
L217461L
sg6
Nsg23
S'jmp'
p185
sg25
S'0x35175L'
p186
sg27
Nsbasg84
(lp187
S'mov reg, mem'
p188
aS'jmp func'
p189
asg95
Nsg5
S'0x35171L'
p190
sg97
(lp191
S'0x35146L'
p192
aS'0x35163L'
p193
aS'0x3516aL'
p194
asg6
Nsg99
(lp195
S'0x3537aL'
p196
asg103
Nsg104
Nsg105
S'8b9a0d40e062be2b9b2d9885108fb196'
p197
sg107
S'fb93e62bb77eb0a3c977d8bf344bb0b7'
p198
sg109
(lp199
g178
ag185
asg111
Nsba(ibclass
BBasicBlock
p200
(dp201
g12
Nsg13
(lp202
(ibclass
BInstr
p203
(dp204
g2
Nsg17
S'mov     rax, [rbp+ctxt]'
p205
sg19
S'488b45d8'
p206
sg21
Vmov rax, qword ptr [rbp - 0x28]
p207
sg5
L217466L
sg6
Nsg23
S'mov'
p208
sg25
S'0x3517aL'
p209
sg27
Nsba(ibclass
BInstr
p210
(dp211
g2
Nsg17
S'mov     rdx, [rax+148h]'
p212
sg19
S'488b9048010000'
p213
sg21
Vmov rdx, qword ptr [rax + 0x148]
p214
sg5
L217470L
sg6
Nsg23
S'mov'
p215
sg25
S'0x3517eL'
p216
sg27
Nsba(ibclass
BInstr
p217
(dp218
g2
Nsg17
S'mov     rax, [rbp+target]'
p219
sg19
S'488b45d0'
p220
sg21
Vmov rax, qword ptr [rbp - 0x30]
p221
sg5
L217477L
sg6
Nsg23
S'mov'
p222
sg25
S'0x35185L'
p223
sg27
Nsba(ibclass
BInstr
p224
(dp225
g2
Nsg17
S'mov     rax, [rax+50h]'
p226
sg19
S'488b4050'
p227
sg21
Vmov rax, qword ptr [rax + 0x50]
p228
sg5
L217481L
sg6
Nsg23
S'mov'
p229
sg25
S'0x35189L'
p230
sg27
Nsba(ibclass
BInstr
p231
(dp232
g2
Nsg17
S'cmp     rdx, rax'
p233
sg19
S'4839c2'
p234
sg21
Vcmp rdx, rax
p235
sg5
L217485L
sg6
Nsg23
S'cmp'
p236
sg25
S'0x3518dL'
p237
sg27
Nsba(ibclass
BInstr
p238
(dp239
g2
Nsg17
S'jnz     loc_35323'
p240
sg19
S'0f858d010000'
p241
sg21
Vjne 0x193
p242
sg5
L217488L
sg6
Nsg23
S'jnz'
p243
sg25
S'0x35190L'
p244
sg27
Nsbasg84
(lp245
S'mov reg, mem'
p246
aS'mov reg, mem'
p247
aS'mov reg, mem'
p248
aS'mov reg, mem'
p249
aS'cmp reg, reg'
p250
aS'jnz func'
p251
asg95
Nsg5
S'0x3517aL'
p252
sg97
(lp253
S'0x3516aL'
p254
asg6
Nsg99
(lp255
S'0x35196L'
p256
aS'0x35323L'
p257
asg103
Nsg104
Nsg105
S'45c68668edd69ebd97af22bf008165f4'
p258
sg107
S'78cb94cd96146dee0bb1d3a89835f79d'
p259
sg109
(lp260
g208
ag215
ag222
ag229
ag236
ag243
asg111
Nsba(ibclass
BBasicBlock
p261
(dp262
g12
Nsg13
(lp263
(ibclass
BInstr
p264
(dp265
g2
Nsg17
S'mov     rax, [rbp+ctxt]'
p266
sg19
S'488b45d8'
p267
sg21
Vmov rax, qword ptr [rbp - 0x28]
p268
sg5
L217494L
sg6
Nsg23
S'mov'
p269
sg25
S'0x35196L'
p270
sg27
Nsba(ibclass
BInstr
p271
(dp272
g2
Nsg17
S'mov     eax, [rax+154h]'
p273
sg19
S'8b8054010000'
p274
sg21
Vmov eax, dword ptr [rax + 0x154]
p275
sg5
L217498L
sg6
Nsg23
S'mov'
p276
sg25
S'0x3519aL'
p277
sg27
Nsba(ibclass
BInstr
p278
(dp279
g2
Nsg17
S'mov     edx, 7FFFFFFFh'
p280
sg19
S'baffffff7f'
p281
sg21
Vmov edx, 0x7fffffff
p282
sg5
L217504L
sg6
Nsg23
S'mov'
p283
sg25
S'0x351a0L'
p284
sg27
Nsba(ibclass
BInstr
p285
(dp286
g2
Nsg17
S'sub     edx, eax'
p287
sg19
S'29c2'
p288
sg21
Vsub edx, eax
p289
sg5
L217509L
sg6
Nsg23
S'sub'
p290
sg25
S'0x351a5L'
p291
sg27
Nsba(ibclass
BInstr
p292
(dp293
g2
Nsg17
S'mov     eax, edx'
p294
sg19
S'89d0'
p295
sg21
Vmov eax, edx
p296
sg5
L217511L
sg6
Nsg23
S'mov'
p297
sg25
S'0x351a7L'
p298
sg27
Nsba(ibclass
BInstr
p299
(dp300
g2
Nsg17
S'cmp     eax, [rbp+len]'
p301
sg19
S'3b45c4'
p302
sg21
Vcmp eax, dword ptr [rbp - 0x3c]
p303
sg5
L217513L
sg6
Nsg23
S'cmp'
p304
sg25
S'0x351a9L'
p305
sg27
Nsba(ibclass
BInstr
p306
(dp307
g2
Nsg17
S'jg      short loc_351D9'
p308
sg19
S'7f2b'
p309
sg21
Vjg 0x2d
p310
sg5
L217516L
sg6
Nsg23
S'jg'
p311
sg25
S'0x351acL'
p312
sg27
Nsbasg84
(lp313
S'mov reg, mem'
p314
aS'mov reg, mem'
p315
aS'mov reg, 7FFFFFFFh'
p316
aS'sub reg, reg'
p317
aS'mov reg, reg'
p318
aS'cmp reg, mem'
p319
aS'jg func'
p320
asg95
Nsg5
S'0x35196L'
p321
sg97
(lp322
S'0x3517aL'
p323
asg6
Nsg99
(lp324
S'0x351aeL'
p325
aS'0x351d9L'
p326
asg103
Nsg104
Nsg105
S'6aa6d58a03b469baea0b73b728f3d6da'
p327
sg107
S'334ffe136d98cc39e63201c8ba3052a6'
p328
sg109
(lp329
g269
ag276
ag283
ag290
ag297
ag304
ag311
asg111
Nsba(ibclass
BBasicBlock
p330
(dp331
g12
Nsg13
(lp332
(ibclass
BInstr
p333
(dp334
g2
Nsg17
S'mov     rdx, [rbp+target]; node'
p335
sg19
S'488b55d0'
p336
sg21
Vmov rdx, qword ptr [rbp - 0x30]
p337
sg5
L217518L
sg6
Nsg23
S'mov'
p338
sg25
S'0x351aeL'
p339
sg27
Nsba(ibclass
BInstr
p340
(dp341
g2
Nsg17
S'mov     rax, [rbp+ctxt]'
p342
sg19
S'488b45d8'
p343
sg21
Vmov rax, qword ptr [rbp - 0x28]
p344
sg5
L217522L
sg6
Nsg23
S'mov'
p345
sg25
S'0x351b2L'
p346
sg27
Nsba(ibclass
BInstr
p347
(dp348
g2
Nsg17
S'lea     rcx, aXsltcopytextTe; "xsltCopyText: text allocation failed\\n"'
p349
sg19
S'488d0d33180100'
p350
sg21
Vlea rcx, [rip + 0x11833]
p351
sg5
L217526L
sg6
Nsg23
S'lea'
p352
sg25
S'0x351b6L'
p353
sg27
Nsba(ibclass
BInstr
p354
(dp355
g2
Nsg17
S'mov     esi, 0          ; style'
p356
sg19
S'be00000000'
p357
sg21
Vmov esi, 0
p358
sg5
L217533L
sg6
Nsg23
S'mov'
p359
sg25
S'0x351bdL'
p360
sg27
Nsba(ibclass
BInstr
p361
(dp362
g2
Nsg17
S'mov     rdi, rax        ; ctxt'
p363
sg19
S'4889c7'
p364
sg21
Vmov rdi, rax
p365
sg5
L217538L
sg6
Nsg23
S'mov'
p366
sg25
S'0x351c2L'
p367
sg27
Nsba(ibclass
BInstr
p368
(dp369
g2
Nsg17
S'mov     eax, 0'
p370
sg19
S'b800000000'
p371
sg21
Vmov eax, 0
p372
sg5
L217541L
sg6
Nsg23
S'mov'
p373
sg25
S'0x351c5L'
p374
sg27
Nsba(ibclass
BInstr
p375
(dp376
g2
Nsg17
S'call    xsltTransformError'
p377
sg19
S'e85dbcfdff'
p378
sg21
Vcall 0xfffffffffffdbc62
p379
sg5
L217546L
sg6
Nsg23
S'call'
p380
sg25
S'0x351caL'
p381
sg27
Nsba(ibclass
BInstr
p382
(dp383
g2
Nsg17
S'mov     eax, 0'
p384
sg19
S'b800000000'
p385
sg21
Vmov eax, 0
p386
sg5
L217551L
sg6
Nsg23
S'mov'
p387
sg25
S'0x351cfL'
p388
sg27
Nsba(ibclass
BInstr
p389
(dp390
g2
Nsg17
S'jmp     locret_3537A'
p391
sg19
S'e9a1010000'
p392
sg21
Vjmp 0x1a6
p393
sg5
L217556L
sg6
Nsg23
S'jmp'
p394
sg25
S'0x351d4L'
p395
sg27
Nsbasg84
(lp396
S'mov reg, mem'
p397
aS'mov reg, mem'
p398
aS'lea reg, aXsltcopytextTe'
p399
aS'mov reg, 0'
p400
aS'mov reg, reg'
p401
aS'mov reg, 0'
p402
aS'cregl xsltTransformError'
p403
aS'mov reg, 0'
p404
aS'jmp func'
p405
asg95
Nsg5
S'0x351aeL'
p406
sg97
(lp407
S'0x35196L'
p408
asg6
Nsg99
(lp409
S'0x3537aL'
p410
asg103
Nsg104
Nsg105
S'b02dccd14fb6a7dbc60065c007da7865'
p411
sg107
S'582a5870cc7ff61bf2faec74473db152'
p412
sg109
(lp413
g338
ag345
ag352
ag359
ag366
ag373
ag380
ag387
ag394
asg111
Nsba(ibclass
BBasicBlock
p414
(dp415
g12
Nsg13
(lp416
(ibclass
BInstr
p417
(dp418
g2
Nsg17
S'mov     rax, [rbp+ctxt]'
p419
sg19
S'488b45d8'
p420
sg21
Vmov rax, qword ptr [rbp - 0x28]
p421
sg5
L217561L
sg6
Nsg23
S'mov'
p422
sg25
S'0x351d9L'
p423
sg27
Nsba(ibclass
BInstr
p424
(dp425
g2
Nsg17
S'mov     edx, [rax+154h]'
p426
sg19
S'8b9054010000'
p427
sg21
Vmov edx, dword ptr [rax + 0x154]
p428
sg5
L217565L
sg6
Nsg23
S'mov'
p429
sg25
S'0x351ddL'
p430
sg27
Nsba(ibclass
BInstr
p431
(dp432
g2
Nsg17
S'mov     eax, [rbp+len]'
p433
sg19
S'8b45c4'
p434
sg21
Vmov eax, dword ptr [rbp - 0x3c]
p435
sg5
L217571L
sg6
Nsg23
S'mov'
p436
sg25
S'0x351e3L'
p437
sg27
Nsba(ibclass
BInstr
p438
(dp439
g2
Nsg17
S'add     eax, edx'
p440
sg19
S'01d0'
p441
sg21
Vadd eax, edx
p442
sg5
L217574L
sg6
Nsg23
S'add'
p443
sg25
S'0x351e6L'
p444
sg27
Nsba(ibclass
BInstr
p445
(dp446
g2
Nsg17
S'add     eax, 1'
p447
sg19
S'83c001'
p448
sg21
Vadd eax, 1
p449
sg5
L217576L
sg6
Nsg23
S'add'
p450
sg25
S'0x351e8L'
p451
sg27
Nsba(ibclass
BInstr
p452
(dp453
g2
Nsg17
S'mov     [rbp+minSize], eax'
p454
sg19
S'8945f0'
p455
sg21
Vmov dword ptr [rbp - 0x10], eax
p456
sg5
L217579L
sg6
Nsg23
S'mov'
p457
sg25
S'0x351ebL'
p458
sg27
Nsba(ibclass
BInstr
p459
(dp460
g2
Nsg17
S'mov     rax, [rbp+ctxt]'
p461
sg19
S'488b45d8'
p462
sg21
Vmov rax, qword ptr [rbp - 0x28]
p463
sg5
L217582L
sg6
Nsg23
S'mov'
p464
sg25
S'0x351eeL'
p465
sg27
Nsba(ibclass
BInstr
p466
(dp467
g2
Nsg17
S'mov     eax, [rax+150h]'
p468
sg19
S'8b8050010000'
p469
sg21
Vmov eax, dword ptr [rax + 0x150]
p470
sg5
L217586L
sg6
Nsg23
S'mov'
p471
sg25
S'0x351f2L'
p472
sg27
Nsba(ibclass
BInstr
p473
(dp474
g2
Nsg17
S'cmp     eax, [rbp+minSize]'
p475
sg19
S'3b45f0'
p476
sg21
Vcmp eax, dword ptr [rbp - 0x10]
p477
sg5
L217592L
sg6
Nsg23
S'cmp'
p478
sg25
S'0x351f8L'
p479
sg27
Nsba(ibclass
BInstr
p480
(dp481
g2
Nsg17
S'jge     loc_352C2'
p482
sg19
S'0f8dc1000000'
p483
sg21
Vjge 0xc7
p484
sg5
L217595L
sg6
Nsg23
S'jge'
p485
sg25
S'0x351fbL'
p486
sg27
Nsbasg84
(lp487
S'mov reg, mem'
p488
aS'mov reg, mem'
p489
aS'mov reg, mem'
p490
aS'add reg, reg'
p491
aS'add reg, 1'
p492
aS'mov mem, reg'
p493
aS'mov reg, mem'
p494
aS'mov reg, mem'
p495
aS'cmp reg, mem'
p496
aS'jge func'
p497
asg95
Nsg5
S'0x351d9L'
p498
sg97
(lp499
S'0x35196L'
p500
asg6
Nsg99
(lp501
S'0x35201L'
p502
aS'0x352c2L'
p503
asg103
Nsg104
Nsg105
S'b295c06d457896181dc9313f6789774b'
p504
sg107
S'1af49bf9b9ca74b043b61d5a21b6579a'
p505
sg109
(lp506
g422
ag429
ag436
ag443
ag450
ag457
ag464
ag471
ag478
ag485
asg111
Nsba(ibclass
BBasicBlock
p507
(dp508
g12
Nsg13
(lp509
(ibclass
BInstr
p510
(dp511
g2
Nsg17
S'mov     eax, 64h'
p512
sg19
S'b864000000'
p513
sg21
Vmov eax, 0x64
p514
sg5
L217601L
sg6
Nsg23
S'mov'
p515
sg25
S'0x35201L'
p516
sg27
Nsba(ibclass
BInstr
p517
(dp518
g2
Nsg17
S'cmp     [rbp+minSize], 64h'
p519
sg19
S'837df064'
p520
sg21
Vcmp dword ptr [rbp - 0x10], 0x64
p521
sg5
L217606L
sg6
Nsg23
S'cmp'
p522
sg25
S'0x35206L'
p523
sg27
Nsba(ibclass
BInstr
p524
(dp525
g2
Nsg17
S'cmovge  eax, [rbp+minSize]'
p526
sg19
S'0f4d45f0'
p527
sg21
Vcmovge eax, dword ptr [rbp - 0x10]
p528
sg5
L217610L
sg6
Nsg23
S'cmovge'
p529
sg25
S'0x3520aL'
p530
sg27
Nsba(ibclass
BInstr
p531
(dp532
g2
Nsg17
S'mov     [rbp+extra], eax'
p533
sg19
S'8945f4'
p534
sg21
Vmov dword ptr [rbp - 0xc], eax
p535
sg5
L217614L
sg6
Nsg23
S'mov'
p536
sg25
S'0x3520eL'
p537
sg27
Nsba(ibclass
BInstr
p538
(dp539
g2
Nsg17
S'mov     rax, [rbp+ctxt]'
p540
sg19
S'488b45d8'
p541
sg21
Vmov rax, qword ptr [rbp - 0x28]
p542
sg5
L217617L
sg6
Nsg23
S'mov'
p543
sg25
S'0x35211L'
p544
sg27
Nsba(ibclass
BInstr
p545
(dp546
g2
Nsg17
S'mov     eax, [rax+150h]'
p547
sg19
S'8b8050010000'
p548
sg21
Vmov eax, dword ptr [rax + 0x150]
p549
sg5
L217621L
sg6
Nsg23
S'mov'
p550
sg25
S'0x35215L'
p551
sg27
Nsba(ibclass
BInstr
p552
(dp553
g2
Nsg17
S'mov     edx, 7FFFFFFFh'
p554
sg19
S'baffffff7f'
p555
sg21
Vmov edx, 0x7fffffff
p556
sg5
L217627L
sg6
Nsg23
S'mov'
p557
sg25
S'0x3521bL'
p558
sg27
Nsba(ibclass
BInstr
p559
(dp560
g2
Nsg17
S'sub     edx, eax'
p561
sg19
S'29c2'
p562
sg21
Vsub edx, eax
p563
sg5
L217632L
sg6
Nsg23
S'sub'
p564
sg25
S'0x35220L'
p565
sg27
Nsba(ibclass
BInstr
p566
(dp567
g2
Nsg17
S'mov     eax, edx'
p568
sg19
S'89d0'
p569
sg21
Vmov eax, edx
p570
sg5
L217634L
sg6
Nsg23
S'mov'
p571
sg25
S'0x35222L'
p572
sg27
Nsba(ibclass
BInstr
p573
(dp574
g2
Nsg17
S'cmp     eax, [rbp+extra]'
p575
sg19
S'3b45f4'
p576
sg21
Vcmp eax, dword ptr [rbp - 0xc]
p577
sg5
L217636L
sg6
Nsg23
S'cmp'
p578
sg25
S'0x35224L'
p579
sg27
Nsba(ibclass
BInstr
p580
(dp581
g2
Nsg17
S'jge     short loc_35232'
p582
sg19
S'7d09'
p583
sg21
Vjge 0xb
p584
sg5
L217639L
sg6
Nsg23
S'jge'
p585
sg25
S'0x35227L'
p586
sg27
Nsbasg84
(lp587
S'mov reg, 64h'
p588
aS'cmp mem, 64h'
p589
aS'cmovge reg, mem'
p590
aS'mov mem, reg'
p591
aS'mov reg, mem'
p592
aS'mov reg, mem'
p593
aS'mov reg, 7FFFFFFFh'
p594
aS'sub reg, reg'
p595
aS'mov reg, reg'
p596
aS'cmp reg, mem'
p597
aS'jge func'
p598
asg95
Nsg5
S'0x35201L'
p599
sg97
(lp600
S'0x351d9L'
p601
asg6
Nsg99
(lp602
S'0x35229L'
p603
aS'0x35232L'
p604
asg103
Nsg104
Nsg105
S'91d8d5c309c781a498023e7d551bb32b'
p605
sg107
S'417c7e22ea4ecec93bb8ec970a688172'
p606
sg109
(lp607
g515
ag522
ag529
ag536
ag543
ag550
ag557
ag564
ag571
ag578
ag585
asg111
Nsba(ibclass
BBasicBlock
p608
(dp609
g12
Nsg13
(lp610
(ibclass
BInstr
p611
(dp612
g2
Nsg17
S'mov     [rbp+size], 7FFFFFFFh'
p613
sg19
S'c745ecffffff7f'
p614
sg21
Vmov dword ptr [rbp - 0x14], 0x7fffffff
p615
sg5
L217641L
sg6
Nsg23
S'mov'
p616
sg25
S'0x35229L'
p617
sg27
Nsba(ibclass
BInstr
p618
(dp619
g2
Nsg17
S'jmp     short loc_35244'
p620
sg19
S'eb12'
p621
sg21
Vjmp 0x14
p622
sg5
L217648L
sg6
Nsg23
S'jmp'
p623
sg25
S'0x35230L'
p624
sg27
Nsbasg84
(lp625
S'mov mem, 7FFFFFFFh'
p626
aS'jmp func'
p627
asg95
Nsg5
S'0x35229L'
p628
sg97
(lp629
S'0x35201L'
p630
asg6
Nsg99
(lp631
S'0x35244L'
p632
asg103
Nsg104
Nsg105
S'8b9a0d40e062be2b9b2d9885108fb196'
p633
sg107
S'c874bfab2a09ff699ce761adf22a88d5'
p634
sg109
(lp635
g616
ag623
asg111
Nsba(ibclass
BBasicBlock
p636
(dp637
g12
Nsg13
(lp638
(ibclass
BInstr
p639
(dp640
g2
Nsg17
S'mov     rax, [rbp+ctxt]'
p641
sg19
S'488b45d8'
p642
sg21
Vmov rax, qword ptr [rbp - 0x28]
p643
sg5
L217650L
sg6
Nsg23
S'mov'
p644
sg25
S'0x35232L'
p645
sg27
Nsba(ibclass
BInstr
p646
(dp647
g2
Nsg17
S'mov     edx, [rax+150h]'
p648
sg19
S'8b9050010000'
p649
sg21
Vmov edx, dword ptr [rax + 0x150]
p650
sg5
L217654L
sg6
Nsg23
S'mov'
p651
sg25
S'0x35236L'
p652
sg27
Nsba(ibclass
BInstr
p653
(dp654
g2
Nsg17
S'mov     eax, [rbp+extra]'
p655
sg19
S'8b45f4'
p656
sg21
Vmov eax, dword ptr [rbp - 0xc]
p657
sg5
L217660L
sg6
Nsg23
S'mov'
p658
sg25
S'0x3523cL'
p659
sg27
Nsba(ibclass
BInstr
p660
(dp661
g2
Nsg17
S'add     eax, edx'
p662
sg19
S'01d0'
p663
sg21
Vadd eax, edx
p664
sg5
L217663L
sg6
Nsg23
S'add'
p665
sg25
S'0x3523fL'
p666
sg27
Nsba(ibclass
BInstr
p667
(dp668
g2
Nsg17
S'mov     [rbp+size], eax'
p669
sg19
S'8945ec'
p670
sg21
Vmov dword ptr [rbp - 0x14], eax
p671
sg5
L217665L
sg6
Nsg23
S'mov'
p672
sg25
S'0x35241L'
p673
sg27
Nsbasg84
(lp674
S'mov reg, mem'
p675
aS'mov reg, mem'
p676
aS'mov reg, mem'
p677
aS'add reg, reg'
p678
aS'mov mem, reg'
p679
asg95
Nsg5
S'0x35232L'
p680
sg97
(lp681
S'0x35201L'
p682
asg6
Nsg99
(lp683
S'0x35244L'
p684
asg103
Nsg104
Nsg105
S'be8ef6dad65dce1fb14247a993f8130f'
p685
sg107
S'1345de6ee8a292cc465be241756c4771'
p686
sg109
(lp687
g644
ag651
ag658
ag665
ag672
asg111
Nsba(ibclass
BBasicBlock
p688
(dp689
g12
Nsg13
(lp690
(ibclass
BInstr
p691
(dp692
g2
Nsg17
S'mov     rax, cs:xmlRealloc_ptr'
p693
sg19
S'488b059d8a2100'
p694
sg21
Vmov rax, qword ptr [rip + 0x218a9d]
p695
sg5
L217668L
sg6
Nsg23
S'mov'
p696
sg25
S'0x35244L'
p697
sg27
Nsba(ibclass
BInstr
p698
(dp699
g2
Nsg17
S'mov     rax, [rax]'
p700
sg19
S'488b00'
p701
sg21
Vmov rax, qword ptr [rax]
p702
sg5
L217675L
sg6
Nsg23
S'mov'
p703
sg25
S'0x3524bL'
p704
sg27
Nsba(ibclass
BInstr
p705
(dp706
g2
Nsg17
S'mov     edx, [rbp+size]'
p707
sg19
S'8b55ec'
p708
sg21
Vmov edx, dword ptr [rbp - 0x14]
p709
sg5
L217678L
sg6
Nsg23
S'mov'
p710
sg25
S'0x3524eL'
p711
sg27
Nsba(ibclass
BInstr
p712
(dp713
g2
Nsg17
S'movsxd  rcx, edx'
p714
sg19
S'4863ca'
p715
sg21
Vmovsxd rcx, edx
p716
sg5
L217681L
sg6
Nsg23
S'movsxd'
p717
sg25
S'0x35251L'
p718
sg27
Nsba(ibclass
BInstr
p719
(dp720
g2
Nsg17
S'mov     rdx, [rbp+target]'
p721
sg19
S'488b55d0'
p722
sg21
Vmov rdx, qword ptr [rbp - 0x30]
p723
sg5
L217684L
sg6
Nsg23
S'mov'
p724
sg25
S'0x35254L'
p725
sg27
Nsba(ibclass
BInstr
p726
(dp727
g2
Nsg17
S'mov     rdx, [rdx+50h]'
p728
sg19
S'488b5250'
p729
sg21
Vmov rdx, qword ptr [rdx + 0x50]
p730
sg5
L217688L
sg6
Nsg23
S'mov'
p731
sg25
S'0x35258L'
p732
sg27
Nsba(ibclass
BInstr
p733
(dp734
g2
Nsg17
S'mov     rsi, rcx'
p735
sg19
S'4889ce'
p736
sg21
Vmov rsi, rcx
p737
sg5
L217692L
sg6
Nsg23
S'mov'
p738
sg25
S'0x3525cL'
p739
sg27
Nsba(ibclass
BInstr
p740
(dp741
g2
Nsg17
S'mov     rdi, rdx'
p742
sg19
S'4889d7'
p743
sg21
Vmov rdi, rdx
p744
sg5
L217695L
sg6
Nsg23
S'mov'
p745
sg25
S'0x3525fL'
p746
sg27
Nsba(ibclass
BInstr
p747
(dp748
g2
Nsg17
S'call    rax'
p749
sg19
S'ffd0'
p750
sg21
Vcall rax
p751
sg5
L217698L
sg6
Nsg23
S'call'
p752
sg25
S'0x35262L'
p753
sg27
Nsba(ibclass
BInstr
p754
(dp755
g2
Nsg17
S'mov     [rbp+newbuf], rax'
p756
sg19
S'488945f8'
p757
sg21
Vmov qword ptr [rbp - 8], rax
p758
sg5
L217700L
sg6
Nsg23
S'mov'
p759
sg25
S'0x35264L'
p760
sg27
Nsba(ibclass
BInstr
p761
(dp762
g2
Nsg17
S'cmp     [rbp+newbuf], 0'
p763
sg19
S'48837df800'
p764
sg21
Vcmp qword ptr [rbp - 8], 0
p765
sg5
L217704L
sg6
Nsg23
S'cmp'
p766
sg25
S'0x35268L'
p767
sg27
Nsba(ibclass
BInstr
p768
(dp769
g2
Nsg17
S'jnz     short loc_3529A'
p770
sg19
S'752b'
p771
sg21
Vjne 0x2d
p772
sg5
L217709L
sg6
Nsg23
S'jnz'
p773
sg25
S'0x3526dL'
p774
sg27
Nsbasg84
(lp775
S'mov reg, cs:xmlReregloc_ptr'
p776
aS'mov reg, mem'
p777
aS'mov reg, mem'
p778
aS'movsxd reg, reg'
p779
aS'mov reg, mem'
p780
aS'mov reg, mem'
p781
aS'mov reg, reg'
p782
aS'mov reg, reg'
p783
aS'cregl reg'
p784
aS'mov mem, reg'
p785
aS'cmp mem, 0'
p786
aS'jnz func'
p787
asg95
Nsg5
S'0x35244L'
p788
sg97
(lp789
S'0x35229L'
p790
aS'0x35232L'
p791
asg6
Nsg99
(lp792
S'0x3526fL'
p793
aS'0x3529aL'
p794
asg103
Nsg104
Nsg105
S'09c77d60246cfc7836773bc428315b67'
p795
sg107
S'ee5ebcc95f5f95017e0e249ad320be6f'
p796
sg109
(lp797
g696
ag703
ag710
ag717
ag724
ag731
ag738
ag745
ag752
ag759
ag766
ag773
asg111
Nsba(ibclass
BBasicBlock
p798
(dp799
g12
Nsg13
(lp800
(ibclass
BInstr
p801
(dp802
g2
Nsg17
S'mov     rdx, [rbp+target]; node'
p803
sg19
S'488b55d0'
p804
sg21
Vmov rdx, qword ptr [rbp - 0x30]
p805
sg5
L217711L
sg6
Nsg23
S'mov'
p806
sg25
S'0x3526fL'
p807
sg27
Nsba(ibclass
BInstr
p808
(dp809
g2
Nsg17
S'mov     rax, [rbp+ctxt]'
p810
sg19
S'488b45d8'
p811
sg21
Vmov rax, qword ptr [rbp - 0x28]
p812
sg5
L217715L
sg6
Nsg23
S'mov'
p813
sg25
S'0x35273L'
p814
sg27
Nsba(ibclass
BInstr
p815
(dp816
g2
Nsg17
S'lea     rcx, aXsltcopytextTe; "xsltCopyText: text allocation failed\\n"'
p817
sg19
S'488d0d72170100'
p818
sg21
Vlea rcx, [rip + 0x11772]
p819
sg5
L217719L
sg6
Nsg23
S'lea'
p820
sg25
S'0x35277L'
p821
sg27
Nsba(ibclass
BInstr
p822
(dp823
g2
Nsg17
S'mov     esi, 0          ; style'
p824
sg19
S'be00000000'
p825
sg21
Vmov esi, 0
p826
sg5
L217726L
sg6
Nsg23
S'mov'
p827
sg25
S'0x3527eL'
p828
sg27
Nsba(ibclass
BInstr
p829
(dp830
g2
Nsg17
S'mov     rdi, rax        ; ctxt'
p831
sg19
S'4889c7'
p832
sg21
Vmov rdi, rax
p833
sg5
L217731L
sg6
Nsg23
S'mov'
p834
sg25
S'0x35283L'
p835
sg27
Nsba(ibclass
BInstr
p836
(dp837
g2
Nsg17
S'mov     eax, 0'
p838
sg19
S'b800000000'
p839
sg21
Vmov eax, 0
p840
sg5
L217734L
sg6
Nsg23
S'mov'
p841
sg25
S'0x35286L'
p842
sg27
Nsba(ibclass
BInstr
p843
(dp844
g2
Nsg17
S'call    xsltTransformError'
p845
sg19
S'e89cbbfdff'
p846
sg21
Vcall 0xfffffffffffdbba1
p847
sg5
L217739L
sg6
Nsg23
S'call'
p848
sg25
S'0x3528bL'
p849
sg27
Nsba(ibclass
BInstr
p850
(dp851
g2
Nsg17
S'mov     eax, 0'
p852
sg19
S'b800000000'
p853
sg21
Vmov eax, 0
p854
sg5
L217744L
sg6
Nsg23
S'mov'
p855
sg25
S'0x35290L'
p856
sg27
Nsba(ibclass
BInstr
p857
(dp858
g2
Nsg17
S'jmp     locret_3537A'
p859
sg19
S'e9e0000000'
p860
sg21
Vjmp 0xe5
p861
sg5
L217749L
sg6
Nsg23
S'jmp'
p862
sg25
S'0x35295L'
p863
sg27
Nsbasg84
(lp864
S'mov reg, mem'
p865
aS'mov reg, mem'
p866
aS'lea reg, aXsltcopytextTe'
p867
aS'mov reg, 0'
p868
aS'mov reg, reg'
p869
aS'mov reg, 0'
p870
aS'cregl xsltTransformError'
p871
aS'mov reg, 0'
p872
aS'jmp func'
p873
asg95
Nsg5
S'0x3526fL'
p874
sg97
(lp875
S'0x35244L'
p876
asg6
Nsg99
(lp877
S'0x3537aL'
p878
asg103
Nsg104
Nsg105
S'b02dccd14fb6a7dbc60065c007da7865'
p879
sg107
S'582a5870cc7ff61bf2faec74473db152'
p880
sg109
(lp881
g806
ag813
ag820
ag827
ag834
ag841
ag848
ag855
ag862
asg111
Nsba(ibclass
BBasicBlock
p882
(dp883
g12
Nsg13
(lp884
(ibclass
BInstr
p885
(dp886
g2
Nsg17
S'mov     rax, [rbp+ctxt]'
p887
sg19
S'488b45d8'
p888
sg21
Vmov rax, qword ptr [rbp - 0x28]
p889
sg5
L217754L
sg6
Nsg23
S'mov'
p890
sg25
S'0x3529aL'
p891
sg27
Nsba(ibclass
BInstr
p892
(dp893
g2
Nsg17
S'mov     edx, [rbp+size]'
p894
sg19
S'8b55ec'
p895
sg21
Vmov edx, dword ptr [rbp - 0x14]
p896
sg5
L217758L
sg6
Nsg23
S'mov'
p897
sg25
S'0x3529eL'
p898
sg27
Nsba(ibclass
BInstr
p899
(dp900
g2
Nsg17
S'mov     [rax+150h], edx'
p901
sg19
S'899050010000'
p902
sg21
Vmov dword ptr [rax + 0x150], edx
p903
sg5
L217761L
sg6
Nsg23
S'mov'
p904
sg25
S'0x352a1L'
p905
sg27
Nsba(ibclass
BInstr
p906
(dp907
g2
Nsg17
S'mov     rax, [rbp+ctxt]'
p908
sg19
S'488b45d8'
p909
sg21
Vmov rax, qword ptr [rbp - 0x28]
p910
sg5
L217767L
sg6
Nsg23
S'mov'
p911
sg25
S'0x352a7L'
p912
sg27
Nsba(ibclass
BInstr
p913
(dp914
g2
Nsg17
S'mov     rdx, [rbp+newbuf]'
p915
sg19
S'488b55f8'
p916
sg21
Vmov rdx, qword ptr [rbp - 8]
p917
sg5
L217771L
sg6
Nsg23
S'mov'
p918
sg25
S'0x352abL'
p919
sg27
Nsba(ibclass
BInstr
p920
(dp921
g2
Nsg17
S'mov     [rax+148h], rdx'
p922
sg19
S'48899048010000'
p923
sg21
Vmov qword ptr [rax + 0x148], rdx
p924
sg5
L217775L
sg6
Nsg23
S'mov'
p925
sg25
S'0x352afL'
p926
sg27
Nsba(ibclass
BInstr
p927
(dp928
g2
Nsg17
S'mov     rax, [rbp+target]'
p929
sg19
S'488b45d0'
p930
sg21
Vmov rax, qword ptr [rbp - 0x30]
p931
sg5
L217782L
sg6
Nsg23
S'mov'
p932
sg25
S'0x352b6L'
p933
sg27
Nsba(ibclass
BInstr
p934
(dp935
g2
Nsg17
S'mov     rdx, [rbp+newbuf]'
p936
sg19
S'488b55f8'
p937
sg21
Vmov rdx, qword ptr [rbp - 8]
p938
sg5
L217786L
sg6
Nsg23
S'mov'
p939
sg25
S'0x352baL'
p940
sg27
Nsba(ibclass
BInstr
p941
(dp942
g2
Nsg17
S'mov     [rax+50h], rdx'
p943
sg19
S'48895050'
p944
sg21
Vmov qword ptr [rax + 0x50], rdx
p945
sg5
L217790L
sg6
Nsg23
S'mov'
p946
sg25
S'0x352beL'
p947
sg27
Nsbasg84
(lp948
S'mov reg, mem'
p949
aS'mov reg, mem'
p950
aS'mov mem, reg'
p951
aS'mov reg, mem'
p952
aS'mov reg, mem'
p953
aS'mov mem, reg'
p954
aS'mov reg, mem'
p955
aS'mov reg, mem'
p956
aS'mov mem, reg'
p957
asg95
Nsg5
S'0x3529aL'
p958
sg97
(lp959
S'0x35244L'
p960
asg6
Nsg99
(lp961
S'0x352c2L'
p962
asg103
Nsg104
Nsg105
S'5c30e15a2a2fe6a89c860c9319cce88e'
p963
sg107
S'1e12eaaab72ee67283463097a69c3a38'
p964
sg109
(lp965
g890
ag897
ag904
ag911
ag918
ag925
ag932
ag939
ag946
asg111
Nsba(ibclass
BBasicBlock
p966
(dp967
g12
Nsg13
(lp968
(ibclass
BInstr
p969
(dp970
g2
Nsg17
S'mov     eax, [rbp+len]'
p971
sg19
S'8b45c4'
p972
sg21
Vmov eax, dword ptr [rbp - 0x3c]
p973
sg5
L217794L
sg6
Nsg23
S'mov'
p974
sg25
S'0x352c2L'
p975
sg27
Nsba(ibclass
BInstr
p976
(dp977
g2
Nsg17
S'movsxd  rdx, eax        ; n'
p978
sg19
S'4863d0'
p979
sg21
Vmovsxd rdx, eax
p980
sg5
L217797L
sg6
Nsg23
S'movsxd'
p981
sg25
S'0x352c5L'
p982
sg27
Nsba(ibclass
BInstr
p983
(dp984
g2
Nsg17
S'mov     rax, [rbp+target]'
p985
sg19
S'488b45d0'
p986
sg21
Vmov rax, qword ptr [rbp - 0x30]
p987
sg5
L217800L
sg6
Nsg23
S'mov'
p988
sg25
S'0x352c8L'
p989
sg27
Nsba(ibclass
BInstr
p990
(dp991
g2
Nsg17
S'mov     rcx, [rax+50h]'
p992
sg19
S'488b4850'
p993
sg21
Vmov rcx, qword ptr [rax + 0x50]
p994
sg5
L217804L
sg6
Nsg23
S'mov'
p995
sg25
S'0x352ccL'
p996
sg27
Nsba(ibclass
BInstr
p997
(dp998
g2
Nsg17
S'mov     rax, [rbp+ctxt]'
p999
sg19
S'488b45d8'
p1000
sg21
Vmov rax, qword ptr [rbp - 0x28]
p1001
sg5
L217808L
sg6
Nsg23
S'mov'
p1002
sg25
S'0x352d0L'
p1003
sg27
Nsba(ibclass
BInstr
p1004
(dp1005
g2
Nsg17
S'mov     eax, [rax+154h]'
p1006
sg19
S'8b8054010000'
p1007
sg21
Vmov eax, dword ptr [rax + 0x154]
p1008
sg5
L217812L
sg6
Nsg23
S'mov'
p1009
sg25
S'0x352d4L'
p1010
sg27
Nsba(ibclass
BInstr
p1011
(dp1012
g2
Nsg17
S'cdqe'
p1013
sg19
S'4898'
p1014
sg21
Vcdqe 
p1015
sg5
L217818L
sg6
Nsg23
S'cdqe'
p1016
sg25
S'0x352daL'
p1017
sg27
Nsba(ibclass
BInstr
p1018
(dp1019
g2
Nsg17
S'add     rcx, rax'
p1020
sg19
S'4801c1'
p1021
sg21
Vadd rcx, rax
p1022
sg5
L217820L
sg6
Nsg23
S'add'
p1023
sg25
S'0x352dcL'
p1024
sg27
Nsba(ibclass
BInstr
p1025
(dp1026
g2
Nsg17
S'mov     rax, [rbp+string]'
p1027
sg19
S'488b45c8'
p1028
sg21
Vmov rax, qword ptr [rbp - 0x38]
p1029
sg5
L217823L
sg6
Nsg23
S'mov'
p1030
sg25
S'0x352dfL'
p1031
sg27
Nsba(ibclass
BInstr
p1032
(dp1033
g2
Nsg17
S'mov     rsi, rax        ; src'
p1034
sg19
S'4889c6'
p1035
sg21
Vmov rsi, rax
p1036
sg5
L217827L
sg6
Nsg23
S'mov'
p1037
sg25
S'0x352e3L'
p1038
sg27
Nsba(ibclass
BInstr
p1039
(dp1040
g2
Nsg17
S'mov     rdi, rcx        ; dest'
p1041
sg19
S'4889cf'
p1042
sg21
Vmov rdi, rcx
p1043
sg5
L217830L
sg6
Nsg23
S'mov'
p1044
sg25
S'0x352e6L'
p1045
sg27
Nsba(ibclass
BInstr
p1046
(dp1047
g2
Nsg17
S'call    memcpy'
p1048
sg19
S'e8da37fdff'
p1049
sg21
Vcall 0xfffffffffffd37df
p1050
sg5
L217833L
sg6
Nsg23
S'call'
p1051
sg25
S'0x352e9L'
p1052
sg27
Nsba(ibclass
BInstr
p1053
(dp1054
g2
Nsg17
S'mov     rax, [rbp+ctxt]'
p1055
sg19
S'488b45d8'
p1056
sg21
Vmov rax, qword ptr [rbp - 0x28]
p1057
sg5
L217838L
sg6
Nsg23
S'mov'
p1058
sg25
S'0x352eeL'
p1059
sg27
Nsba(ibclass
BInstr
p1060
(dp1061
g2
Nsg17
S'mov     edx, [rax+154h]'
p1062
sg19
S'8b9054010000'
p1063
sg21
Vmov edx, dword ptr [rax + 0x154]
p1064
sg5
L217842L
sg6
Nsg23
S'mov'
p1065
sg25
S'0x352f2L'
p1066
sg27
Nsba(ibclass
BInstr
p1067
(dp1068
g2
Nsg17
S'mov     eax, [rbp+len]'
p1069
sg19
S'8b45c4'
p1070
sg21
Vmov eax, dword ptr [rbp - 0x3c]
p1071
sg5
L217848L
sg6
Nsg23
S'mov'
p1072
sg25
S'0x352f8L'
p1073
sg27
Nsba(ibclass
BInstr
p1074
(dp1075
g2
Nsg17
S'add     edx, eax'
p1076
sg19
S'01c2'
p1077
sg21
Vadd edx, eax
p1078
sg5
L217851L
sg6
Nsg23
S'add'
p1079
sg25
S'0x352fbL'
p1080
sg27
Nsba(ibclass
BInstr
p1081
(dp1082
g2
Nsg17
S'mov     rax, [rbp+ctxt]'
p1083
sg19
S'488b45d8'
p1084
sg21
Vmov rax, qword ptr [rbp - 0x28]
p1085
sg5
L217853L
sg6
Nsg23
S'mov'
p1086
sg25
S'0x352fdL'
p1087
sg27
Nsba(ibclass
BInstr
p1088
(dp1089
g2
Nsg17
S'mov     [rax+154h], edx'
p1090
sg19
S'899054010000'
p1091
sg21
Vmov dword ptr [rax + 0x154], edx
p1092
sg5
L217857L
sg6
Nsg23
S'mov'
p1093
sg25
S'0x35301L'
p1094
sg27
Nsba(ibclass
BInstr
p1095
(dp1096
g2
Nsg17
S'mov     rax, [rbp+target]'
p1097
sg19
S'488b45d0'
p1098
sg21
Vmov rax, qword ptr [rbp - 0x30]
p1099
sg5
L217863L
sg6
Nsg23
S'mov'
p1100
sg25
S'0x35307L'
p1101
sg27
Nsba(ibclass
BInstr
p1102
(dp1103
g2
Nsg17
S'mov     rdx, [rax+50h]'
p1104
sg19
S'488b5050'
p1105
sg21
Vmov rdx, qword ptr [rax + 0x50]
p1106
sg5
L217867L
sg6
Nsg23
S'mov'
p1107
sg25
S'0x3530bL'
p1108
sg27
Nsba(ibclass
BInstr
p1109
(dp1110
g2
Nsg17
S'mov     rax, [rbp+ctxt]'
p1111
sg19
S'488b45d8'
p1112
sg21
Vmov rax, qword ptr [rbp - 0x28]
p1113
sg5
L217871L
sg6
Nsg23
S'mov'
p1114
sg25
S'0x3530fL'
p1115
sg27
Nsba(ibclass
BInstr
p1116
(dp1117
g2
Nsg17
S'mov     eax, [rax+154h]'
p1118
sg19
S'8b8054010000'
p1119
sg21
Vmov eax, dword ptr [rax + 0x154]
p1120
sg5
L217875L
sg6
Nsg23
S'mov'
p1121
sg25
S'0x35313L'
p1122
sg27
Nsba(ibclass
BInstr
p1123
(dp1124
g2
Nsg17
S'cdqe'
p1125
sg19
S'4898'
p1126
sg21
Vcdqe 
p1127
sg5
L217881L
sg6
Nsg23
S'cdqe'
p1128
sg25
S'0x35319L'
p1129
sg27
Nsba(ibclass
BInstr
p1130
(dp1131
g2
Nsg17
S'add     rax, rdx'
p1132
sg19
S'4801d0'
p1133
sg21
Vadd rax, rdx
p1134
sg5
L217883L
sg6
Nsg23
S'add'
p1135
sg25
S'0x3531bL'
p1136
sg27
Nsba(ibclass
BInstr
p1137
(dp1138
g2
Nsg17
S'mov     byte ptr [rax], 0'
p1139
sg19
S'c60000'
p1140
sg21
Vmov byte ptr [rax], 0
p1141
sg5
L217886L
sg6
Nsg23
S'mov'
p1142
sg25
S'0x3531eL'
p1143
sg27
Nsba(ibclass
BInstr
p1144
(dp1145
g2
Nsg17
S'jmp     short loc_35376'
p1146
sg19
S'eb53'
p1147
sg21
Vjmp 0x55
p1148
sg5
L217889L
sg6
Nsg23
S'jmp'
p1149
sg25
S'0x35321L'
p1150
sg27
Nsbasg84
(lp1151
S'mov reg, mem'
p1152
aS'movsxd reg, reg'
p1153
aS'mov reg, mem'
p1154
aS'mov reg, mem'
p1155
aS'mov reg, mem'
p1156
aS'mov reg, mem'
p1157
ag1013
aS'add reg, reg'
p1158
aS'mov reg, mem'
p1159
aS'mov reg, reg'
p1160
aS'mov reg, reg'
p1161
aS'cregl memcpy'
p1162
aS'mov reg, mem'
p1163
aS'mov reg, mem'
p1164
aS'mov reg, mem'
p1165
aS'add reg, reg'
p1166
aS'mov reg, mem'
p1167
aS'mov mem, reg'
p1168
aS'mov reg, mem'
p1169
aS'mov reg, mem'
p1170
aS'mov reg, mem'
p1171
aS'mov reg, mem'
p1172
ag1125
aS'add reg, reg'
p1173
aS'mov mem, 0'
p1174
aS'jmp func'
p1175
asg95
Nsg5
S'0x352c2L'
p1176
sg97
(lp1177
S'0x351d9L'
p1178
aS'0x3529aL'
p1179
asg6
Nsg99
(lp1180
S'0x35376L'
p1181
asg103
Nsg104
Nsg105
S'fb95095af22372cfa0c1277b3b2b8efe'
p1182
sg107
S'c27ecb3ebbfa3d7e855aa4ff7ac44600'
p1183
sg109
(lp1184
g974
ag981
ag988
ag995
ag1002
ag1009
ag1016
ag1023
ag1030
ag1037
ag1044
ag1051
ag1058
ag1065
ag1072
ag1079
ag1086
ag1093
ag1100
ag1107
ag1114
ag1121
ag1128
ag1135
ag1142
ag1149
asg111
Nsba(ibclass
BBasicBlock
p1185
(dp1186
g12
Nsg13
(lp1187
(ibclass
BInstr
p1188
(dp1189
g2
Nsg17
S'mov     rdx, [rbp+string]'
p1190
sg19
S'488b55c8'
p1191
sg21
Vmov rdx, qword ptr [rbp - 0x38]
p1192
sg5
L217891L
sg6
Nsg23
S'mov'
p1193
sg25
S'0x35323L'
p1194
sg27
Nsba(ibclass
BInstr
p1195
(dp1196
g2
Nsg17
S'mov     rax, [rbp+target]'
p1197
sg19
S'488b45d0'
p1198
sg21
Vmov rax, qword ptr [rbp - 0x30]
p1199
sg5
L217895L
sg6
Nsg23
S'mov'
p1200
sg25
S'0x35327L'
p1201
sg27
Nsba(ibclass
BInstr
p1202
(dp1203
g2
Nsg17
S'mov     rsi, rdx'
p1204
sg19
S'4889d6'
p1205
sg21
Vmov rsi, rdx
p1206
sg5
L217899L
sg6
Nsg23
S'mov'
p1207
sg25
S'0x3532bL'
p1208
sg27
Nsba(ibclass
BInstr
p1209
(dp1210
g2
Nsg17
S'mov     rdi, rax'
p1211
sg19
S'4889c7'
p1212
sg21
Vmov rdi, rax
p1213
sg5
L217902L
sg6
Nsg23
S'mov'
p1214
sg25
S'0x3532eL'
p1215
sg27
Nsba(ibclass
BInstr
p1216
(dp1217
g2
Nsg17
S'call    xmlNodeAddContent'
p1218
sg19
S'e81234fdff'
p1219
sg21
Vcall 0xfffffffffffd3417
p1220
sg5
L217905L
sg6
Nsg23
S'call'
p1221
sg25
S'0x35331L'
p1222
sg27
Nsba(ibclass
BInstr
p1223
(dp1224
g2
Nsg17
S'mov     rax, [rbp+target]'
p1225
sg19
S'488b45d0'
p1226
sg21
Vmov rax, qword ptr [rbp - 0x30]
p1227
sg5
L217910L
sg6
Nsg23
S'mov'
p1228
sg25
S'0x35336L'
p1229
sg27
Nsba(ibclass
BInstr
p1230
(dp1231
g2
Nsg17
S'mov     rdx, [rax+50h]'
p1232
sg19
S'488b5050'
p1233
sg21
Vmov rdx, qword ptr [rax + 0x50]
p1234
sg5
L217914L
sg6
Nsg23
S'mov'
p1235
sg25
S'0x3533aL'
p1236
sg27
Nsba(ibclass
BInstr
p1237
(dp1238
g2
Nsg17
S'mov     rax, [rbp+ctxt]'
p1239
sg19
S'488b45d8'
p1240
sg21
Vmov rax, qword ptr [rbp - 0x28]
p1241
sg5
L217918L
sg6
Nsg23
S'mov'
p1242
sg25
S'0x3533eL'
p1243
sg27
Nsba(ibclass
BInstr
p1244
(dp1245
g2
Nsg17
S'mov     [rax+148h], rdx'
p1246
sg19
S'48899048010000'
p1247
sg21
Vmov qword ptr [rax + 0x148], rdx
p1248
sg5
L217922L
sg6
Nsg23
S'mov'
p1249
sg25
S'0x35342L'
p1250
sg27
Nsba(ibclass
BInstr
p1251
(dp1252
g2
Nsg17
S'mov     rax, [rbp+target]'
p1253
sg19
S'488b45d0'
p1254
sg21
Vmov rax, qword ptr [rbp - 0x30]
p1255
sg5
L217929L
sg6
Nsg23
S'mov'
p1256
sg25
S'0x35349L'
p1257
sg27
Nsba(ibclass
BInstr
p1258
(dp1259
g2
Nsg17
S'mov     rax, [rax+50h]'
p1260
sg19
S'488b4050'
p1261
sg21
Vmov rax, qword ptr [rax + 0x50]
p1262
sg5
L217933L
sg6
Nsg23
S'mov'
p1263
sg25
S'0x3534dL'
p1264
sg27
Nsba(ibclass
BInstr
p1265
(dp1266
g2
Nsg17
S'mov     rdi, rax'
p1267
sg19
S'4889c7'
p1268
sg21
Vmov rdi, rax
p1269
sg5
L217937L
sg6
Nsg23
S'mov'
p1270
sg25
S'0x35351L'
p1271
sg27
Nsba(ibclass
BInstr
p1272
(dp1273
g2
Nsg17
S'call    xmlStrlen'
p1274
sg19
S'e87f33fdff'
p1275
sg21
Vcall 0xfffffffffffd3384
p1276
sg5
L217940L
sg6
Nsg23
S'call'
p1277
sg25
S'0x35354L'
p1278
sg27
Nsba(ibclass
BInstr
p1279
(dp1280
g2
Nsg17
S'mov     [rbp+len], eax'
p1281
sg19
S'8945c4'
p1282
sg21
Vmov dword ptr [rbp - 0x3c], eax
p1283
sg5
L217945L
sg6
Nsg23
S'mov'
p1284
sg25
S'0x35359L'
p1285
sg27
Nsba(ibclass
BInstr
p1286
(dp1287
g2
Nsg17
S'mov     rax, [rbp+ctxt]'
p1288
sg19
S'488b45d8'
p1289
sg21
Vmov rax, qword ptr [rbp - 0x28]
p1290
sg5
L217948L
sg6
Nsg23
S'mov'
p1291
sg25
S'0x3535cL'
p1292
sg27
Nsba(ibclass
BInstr
p1293
(dp1294
g2
Nsg17
S'mov     edx, [rbp+len]'
p1295
sg19
S'8b55c4'
p1296
sg21
Vmov edx, dword ptr [rbp - 0x3c]
p1297
sg5
L217952L
sg6
Nsg23
S'mov'
p1298
sg25
S'0x35360L'
p1299
sg27
Nsba(ibclass
BInstr
p1300
(dp1301
g2
Nsg17
S'mov     [rax+150h], edx'
p1302
sg19
S'899050010000'
p1303
sg21
Vmov dword ptr [rax + 0x150], edx
p1304
sg5
L217955L
sg6
Nsg23
S'mov'
p1305
sg25
S'0x35363L'
p1306
sg27
Nsba(ibclass
BInstr
p1307
(dp1308
g2
Nsg17
S'mov     rax, [rbp+ctxt]'
p1309
sg19
S'488b45d8'
p1310
sg21
Vmov rax, qword ptr [rbp - 0x28]
p1311
sg5
L217961L
sg6
Nsg23
S'mov'
p1312
sg25
S'0x35369L'
p1313
sg27
Nsba(ibclass
BInstr
p1314
(dp1315
g2
Nsg17
S'mov     edx, [rbp+len]'
p1316
sg19
S'8b55c4'
p1317
sg21
Vmov edx, dword ptr [rbp - 0x3c]
p1318
sg5
L217965L
sg6
Nsg23
S'mov'
p1319
sg25
S'0x3536dL'
p1320
sg27
Nsba(ibclass
BInstr
p1321
(dp1322
g2
Nsg17
S'mov     [rax+154h], edx'
p1323
sg19
S'899054010000'
p1324
sg21
Vmov dword ptr [rax + 0x154], edx
p1325
sg5
L217968L
sg6
Nsg23
S'mov'
p1326
sg25
S'0x35370L'
p1327
sg27
Nsbasg84
(lp1328
S'mov reg, mem'
p1329
aS'mov reg, mem'
p1330
aS'mov reg, reg'
p1331
aS'mov reg, reg'
p1332
aS'cregl xmlNodeAddContent'
p1333
aS'mov reg, mem'
p1334
aS'mov reg, mem'
p1335
aS'mov reg, mem'
p1336
aS'mov mem, reg'
p1337
aS'mov reg, mem'
p1338
aS'mov reg, mem'
p1339
aS'mov reg, reg'
p1340
aS'cregl xmlStrlen'
p1341
aS'mov mem, reg'
p1342
aS'mov reg, mem'
p1343
aS'mov reg, mem'
p1344
aS'mov mem, reg'
p1345
aS'mov reg, mem'
p1346
aS'mov reg, mem'
p1347
aS'mov mem, reg'
p1348
asg95
Nsg5
S'0x35323L'
p1349
sg97
(lp1350
S'0x3517aL'
p1351
asg6
Nsg99
(lp1352
S'0x35376L'
p1353
asg103
Nsg104
Nsg105
S'fe9180236053afbcf3af26a280160b22'
p1354
sg107
S'49fdf0ee5794f77a6a269dd1533b64c6'
p1355
sg109
(lp1356
g1193
ag1200
ag1207
ag1214
ag1221
ag1228
ag1235
ag1242
ag1249
ag1256
ag1263
ag1270
ag1277
ag1284
ag1291
ag1298
ag1305
ag1312
ag1319
ag1326
asg111
Nsba(ibclass
BBasicBlock
p1357
(dp1358
g12
Nsg13
(lp1359
(ibclass
BInstr
p1360
(dp1361
g2
Nsg17
S'mov     rax, [rbp+target]'
p1362
sg19
S'488b45d0'
p1363
sg21
Vmov rax, qword ptr [rbp - 0x30]
p1364
sg5
L217974L
sg6
Nsg23
S'mov'
p1365
sg25
S'0x35376L'
p1366
sg27
Nsbasg84
(lp1367
S'mov reg, mem'
p1368
asg95
Nsg5
S'0x35376L'
p1369
sg97
(lp1370
S'0x352c2L'
p1371
aS'0x35323L'
p1372
asg6
Nsg99
(lp1373
S'0x3537aL'
p1374
asg103
Nsg104
Nsg105
S'96a4a0e6e9ac88756a0fcba989d0a844'
p1375
sg107
S'655e24d9e6af0fc8724d2cb27e9554cd'
p1376
sg109
(lp1377
g1365
asg111
Nsba(ibclass
BBasicBlock
p1378
(dp1379
g12
Nsg13
(lp1380
(ibclass
BInstr
p1381
(dp1382
g2
Nsg17
S'leave'
p1383
sg19
S'c9'
p1384
sg21
Vleave 
p1385
sg5
L217978L
sg6
Nsg23
S'leave'
p1386
sg25
S'0x3537aL'
p1387
sg27
Nsba(ibclass
BInstr
p1388
(dp1389
g2
Nsg17
S'retn'
p1390
sg19
S'c3'
p1391
sg21
Vret 
p1392
sg5
L217979L
sg6
Nsg23
S'retn'
p1393
sg25
S'0x3537bL'
p1394
sg27
Nsbasg84
(lp1395
g1383
ag1390
asg95
Nsg5
S'0x3537aL'
p1396
sg97
(lp1397
S'0x35171L'
p1398
aS'0x351aeL'
p1399
aS'0x3526fL'
p1400
aS'0x35376L'
p1401
asg6
Nsg99
(lp1402
sg103
Nsg104
Nsg105
S'08c78f73a6f87c85da88b2982f54ce2a'
p1403
sg107
S'08c78f73a6f87c85da88b2982f54ce2a'
p1404
sg109
(lp1405
g1386
ag1393
asg111
Nsbasb.