(ibclass
BFunc
p0
(dp1
S'hash'
p2
NsS'name'
p3
S'packet_id_read'
p4
sS'start_address'
p5
L451143L
sS'flag'
p6
NsS'program'
p7
NsS'bbs'
p8
(lp9
(ibclass
BBasicBlock
p10
(dp11
S'function'
p12
NsS'binstrs'
p13
(lp14
(ibclass
BInstr
p15
(dp16
g2
NsS'disasm'
p17
S'push    rbp'
p18
sS'bytes'
p19
S'55'
p20
sS'disasm_striped'
p21
Vpush rbp
p22
sg5
L451143L
sg6
NsS'mnem'
p23
S'push'
p24
sS'address'
p25
S'0x6e247L'
p26
sS'basicblock'
p27
Nsba(ibclass
BInstr
p28
(dp29
g2
Nsg17
S'mov     rbp, rsp'
p30
sg19
S'4889e5'
p31
sg21
Vmov rbp, rsp
p32
sg5
L451144L
sg6
Nsg23
S'mov'
p33
sg25
S'0x6e248L'
p34
sg27
Nsba(ibclass
BInstr
p35
(dp36
g2
Nsg17
S'sub     rsp, 30h'
p37
sg19
S'4883ec30'
p38
sg21
Vsub rsp, 0x30
p39
sg5
L451147L
sg6
Nsg23
S'sub'
p40
sg25
S'0x6e24bL'
p41
sg27
Nsba(ibclass
BInstr
p42
(dp43
g2
Nsg17
S'mov     [rbp+pin], rdi'
p44
sg19
S'48897de8'
p45
sg21
Vmov qword ptr [rbp - 0x18], rdi
p46
sg5
L451151L
sg6
Nsg23
S'mov'
p47
sg25
S'0x6e24fL'
p48
sg27
Nsba(ibclass
BInstr
p49
(dp50
g2
Nsg17
S'mov     [rbp+buf], rsi'
p51
sg19
S'488975e0'
p52
sg21
Vmov qword ptr [rbp - 0x20], rsi
p53
sg5
L451155L
sg6
Nsg23
S'mov'
p54
sg25
S'0x6e253L'
p55
sg27
Nsba(ibclass
BInstr
p56
(dp57
g2
Nsg17
S'mov     eax, edx'
p58
sg19
S'89d0'
p59
sg21
Vmov eax, edx
p60
sg5
L451159L
sg6
Nsg23
S'mov'
p61
sg25
S'0x6e257L'
p62
sg27
Nsba(ibclass
BInstr
p63
(dp64
g2
Nsg17
S'mov     [rbp+long_form], al'
p65
sg19
S'8845dc'
p66
sg21
Vmov byte ptr [rbp - 0x24], al
p67
sg5
L451161L
sg6
Nsg23
S'mov'
p68
sg25
S'0x6e259L'
p69
sg27
Nsba(ibclass
BInstr
p70
(dp71
g2
Nsg17
S'mov     rax, fs:28h'
p72
sg19
S'64488b042528000000'
p73
sg21
Vmov rax, qword ptr fs:[0x28]
p74
sg5
L451164L
sg6
Nsg23
S'mov'
p75
sg25
S'0x6e25cL'
p76
sg27
Nsba(ibclass
BInstr
p77
(dp78
g2
Nsg17
S'mov     [rbp+var_8], rax'
p79
sg19
S'488945f8'
p80
sg21
Vmov qword ptr [rbp - 8], rax
p81
sg5
L451173L
sg6
Nsg23
S'mov'
p82
sg25
S'0x6e265L'
p83
sg27
Nsba(ibclass
BInstr
p84
(dp85
g2
Nsg17
S'xor     eax, eax'
p86
sg19
S'31c0'
p87
sg21
Vxor eax, eax
p88
sg5
L451177L
sg6
Nsg23
S'xor'
p89
sg25
S'0x6e269L'
p90
sg27
Nsba(ibclass
BInstr
p91
(dp92
g2
Nsg17
S'mov     rax, [rbp+pin]'
p93
sg19
S'488b45e8'
p94
sg21
Vmov rax, qword ptr [rbp - 0x18]
p95
sg5
L451179L
sg6
Nsg23
S'mov'
p96
sg25
S'0x6e26bL'
p97
sg27
Nsba(ibclass
BInstr
p98
(dp99
g2
Nsg17
S'mov     dword ptr [rax], 0'
p100
sg19
S'c70000000000'
p101
sg21
Vmov dword ptr [rax], 0
p102
sg5
L451183L
sg6
Nsg23
S'mov'
p103
sg25
S'0x6e26fL'
p104
sg27
Nsba(ibclass
BInstr
p105
(dp106
g2
Nsg17
S'mov     rax, [rbp+pin]'
p107
sg19
S'488b45e8'
p108
sg21
Vmov rax, qword ptr [rbp - 0x18]
p109
sg5
L451189L
sg6
Nsg23
S'mov'
p110
sg25
S'0x6e275L'
p111
sg27
Nsba(ibclass
BInstr
p112
(dp113
g2
Nsg17
S'mov     qword ptr [rax+8], 0'
p114
sg19
S'48c7400800000000'
p115
sg21
Vmov qword ptr [rax + 8], 0
p116
sg5
L451193L
sg6
Nsg23
S'mov'
p117
sg25
S'0x6e279L'
p118
sg27
Nsba(ibclass
BInstr
p119
(dp120
g2
Nsg17
S'lea     rcx, [rbp+net_id]'
p121
sg19
S'488d4df0'
p122
sg21
Vlea rcx, [rbp - 0x10]
p123
sg5
L451201L
sg6
Nsg23
S'lea'
p124
sg25
S'0x6e281L'
p125
sg27
Nsba(ibclass
BInstr
p126
(dp127
g2
Nsg17
S'mov     rax, [rbp+buf]'
p128
sg19
S'488b45e0'
p129
sg21
Vmov rax, qword ptr [rbp - 0x20]
p130
sg5
L451205L
sg6
Nsg23
S'mov'
p131
sg25
S'0x6e285L'
p132
sg27
Nsba(ibclass
BInstr
p133
(dp134
g2
Nsg17
S'mov     edx, 4          ; size'
p135
sg19
S'ba04000000'
p136
sg21
Vmov edx, 4
p137
sg5
L451209L
sg6
Nsg23
S'mov'
p138
sg25
S'0x6e289L'
p139
sg27
Nsba(ibclass
BInstr
p140
(dp141
g2
Nsg17
S'mov     rsi, rcx        ; dest'
p142
sg19
S'4889ce'
p143
sg21
Vmov rsi, rcx
p144
sg5
L451214L
sg6
Nsg23
S'mov'
p145
sg25
S'0x6e28eL'
p146
sg27
Nsba(ibclass
BInstr
p147
(dp148
g2
Nsg17
S'mov     rdi, rax        ; src'
p149
sg19
S'4889c7'
p150
sg21
Vmov rdi, rax
p151
sg5
L451217L
sg6
Nsg23
S'mov'
p152
sg25
S'0x6e291L'
p153
sg27
Nsba(ibclass
BInstr
p154
(dp155
g2
Nsg17
S'call    buf_read_1'
p156
sg19
S'e826f6ffff'
p157
sg21
Vcall 0xfffffffffffff62b
p158
sg5
L451220L
sg6
Nsg23
S'call'
p159
sg25
S'0x6e294L'
p160
sg27
Nsba(ibclass
BInstr
p161
(dp162
g2
Nsg17
S'xor     eax, 1'
p163
sg19
S'83f001'
p164
sg21
Vxor eax, 1
p165
sg5
L451225L
sg6
Nsg23
S'xor'
p166
sg25
S'0x6e299L'
p167
sg27
Nsba(ibclass
BInstr
p168
(dp169
g2
Nsg17
S'test    al, al'
p170
sg19
S'84c0'
p171
sg21
Vtest al, al
p172
sg5
L451228L
sg6
Nsg23
S'test'
p173
sg25
S'0x6e29cL'
p174
sg27
Nsba(ibclass
BInstr
p175
(dp176
g2
Nsg17
S'jz      short loc_6E2A7'
p177
sg19
S'7407'
p178
sg21
Vje 9
p179
sg5
L451230L
sg6
Nsg23
S'jz'
p180
sg25
S'0x6e29eL'
p181
sg27
NsbasS'disasm_list'
p182
(lp183
S'push reg'
p184
aS'mov reg, reg'
p185
aS'sub reg, 30h'
p186
aS'mov mem, reg'
p187
aS'mov mem, reg'
p188
aS'mov reg, reg'
p189
aS'mov mem, reg'
p190
aS'mov reg, fs:28h'
p191
aS'mov mem, reg'
p192
aS'xor reg, reg'
p193
aS'mov reg, mem'
p194
aS'mov mem, 0'
p195
aS'mov reg, mem'
p196
aS'mov qmem, 0'
p197
aS'lea reg, mem'
p198
aS'mov reg, mem'
p199
aS'mov reg, 4'
p200
aS'mov reg, reg'
p201
aS'mov reg, reg'
p202
aS'cregl buf_read_1'
p203
aS'xor reg, 1'
p204
aS'test reg, reg'
p205
aS'jz func'
p206
asS'end_address'
p207
Nsg5
S'0x6e247L'
p208
sS'preds'
p209
(lp210
sg6
NsS'succs'
p211
(lp212
S'0x6e2a0L'
p213
aS'0x6e2a7L'
p214
asS'hash_v3'
p215
NsS'flag_v2'
p216
NsS'hash_v1'
p217
S'498c224856856e314ddecb88a409d541'
p218
sS'hash_v2'
p219
S'59402e5f6e8c4e96202061c5c156d83b'
p220
sS'mnen_list'
p221
(lp222
g24
ag33
ag40
ag47
ag54
ag61
ag68
ag75
ag82
ag89
ag96
ag103
ag110
ag117
ag124
ag131
ag138
ag145
ag152
ag159
ag166
ag173
ag180
asS'neighbour_disasm_list'
p223
Nsba(ibclass
BBasicBlock
p224
(dp225
g12
Nsg13
(lp226
(ibclass
BInstr
p227
(dp228
g2
Nsg17
S'mov     eax, 0'
p229
sg19
S'b800000000'
p230
sg21
Vmov eax, 0
p231
sg5
L451232L
sg6
Nsg23
S'mov'
p232
sg25
S'0x6e2a0L'
p233
sg27
Nsba(ibclass
BInstr
p234
(dp235
g2
Nsg17
S'jmp     short loc_6E2FE'
p236
sg19
S'eb57'
p237
sg21
Vjmp 0x59
p238
sg5
L451237L
sg6
Nsg23
S'jmp'
p239
sg25
S'0x6e2a5L'
p240
sg27
Nsbasg182
(lp241
S'mov reg, 0'
p242
aS'jmp func'
p243
asg207
Nsg5
S'0x6e2a0L'
p244
sg209
(lp245
S'0x6e247L'
p246
asg6
Nsg211
(lp247
S'0x6e2feL'
p248
asg215
Nsg216
Nsg217
S'8b9a0d40e062be2b9b2d9885108fb196'
p249
sg219
S'b9bc48935b5443504e35a59843f17cfd'
p250
sg221
(lp251
g232
ag239
asg223
Nsba(ibclass
BBasicBlock
p252
(dp253
g12
Nsg13
(lp254
(ibclass
BInstr
p255
(dp256
g2
Nsg17
S'mov     eax, [rbp+net_id]'
p257
sg19
S'8b45f0'
p258
sg21
Vmov eax, dword ptr [rbp - 0x10]
p259
sg5
L451239L
sg6
Nsg23
S'mov'
p260
sg25
S'0x6e2a7L'
p261
sg27
Nsba(ibclass
BInstr
p262
(dp263
g2
Nsg17
S'mov     edi, eax        ; netlong'
p264
sg19
S'89c7'
p265
sg21
Vmov edi, eax
p266
sg5
L451242L
sg6
Nsg23
S'mov'
p267
sg25
S'0x6e2aaL'
p268
sg27
Nsba(ibclass
BInstr
p269
(dp270
g2
Nsg17
S'call    ntohl'
p271
sg19
S'e86fb3f9ff'
p272
sg21
Vcall 0xfffffffffff9b374
p273
sg5
L451244L
sg6
Nsg23
S'call'
p274
sg25
S'0x6e2acL'
p275
sg27
Nsba(ibclass
BInstr
p276
(dp277
g2
Nsg17
S'mov     edx, eax'
p278
sg19
S'89c2'
p279
sg21
Vmov edx, eax
p280
sg5
L451249L
sg6
Nsg23
S'mov'
p281
sg25
S'0x6e2b1L'
p282
sg27
Nsba(ibclass
BInstr
p283
(dp284
g2
Nsg17
S'mov     rax, [rbp+pin]'
p285
sg19
S'488b45e8'
p286
sg21
Vmov rax, qword ptr [rbp - 0x18]
p287
sg5
L451251L
sg6
Nsg23
S'mov'
p288
sg25
S'0x6e2b3L'
p289
sg27
Nsba(ibclass
BInstr
p290
(dp291
g2
Nsg17
S'mov     [rax], edx'
p292
sg19
S'8910'
p293
sg21
Vmov dword ptr [rax], edx
p294
sg5
L451255L
sg6
Nsg23
S'mov'
p295
sg25
S'0x6e2b7L'
p296
sg27
Nsba(ibclass
BInstr
p297
(dp298
g2
Nsg17
S'cmp     [rbp+long_form], 0'
p299
sg19
S'807ddc00'
p300
sg21
Vcmp byte ptr [rbp - 0x24], 0
p301
sg5
L451257L
sg6
Nsg23
S'cmp'
p302
sg25
S'0x6e2b9L'
p303
sg27
Nsba(ibclass
BInstr
p304
(dp305
g2
Nsg17
S'jz      short loc_6E2F9'
p306
sg19
S'743a'
p307
sg21
Vje 0x3c
p308
sg5
L451261L
sg6
Nsg23
S'jz'
p309
sg25
S'0x6e2bdL'
p310
sg27
Nsbasg182
(lp311
S'mov reg, mem'
p312
aS'mov reg, reg'
p313
aS'cregl ntohl'
p314
aS'mov reg, reg'
p315
aS'mov reg, mem'
p316
aS'mov mem, reg'
p317
aS'cmp mem, 0'
p318
aS'jz func'
p319
asg207
Nsg5
S'0x6e2a7L'
p320
sg209
(lp321
S'0x6e247L'
p322
asg6
Nsg211
(lp323
S'0x6e2bfL'
p324
aS'0x6e2f9L'
p325
asg215
Nsg216
Nsg217
S'4c0b510ccf2e320311973d4acfeb0755'
p326
sg219
S'8248a8515b68938f1b383466d86f3fba'
p327
sg221
(lp328
g260
ag267
ag274
ag281
ag288
ag295
ag302
ag309
asg223
Nsba(ibclass
BBasicBlock
p329
(dp330
g12
Nsg13
(lp331
(ibclass
BInstr
p332
(dp333
g2
Nsg17
S'lea     rcx, [rbp+net_time]'
p334
sg19
S'488d4df4'
p335
sg21
Vlea rcx, [rbp - 0xc]
p336
sg5
L451263L
sg6
Nsg23
S'lea'
p337
sg25
S'0x6e2bfL'
p338
sg27
Nsba(ibclass
BInstr
p339
(dp340
g2
Nsg17
S'mov     rax, [rbp+buf]'
p341
sg19
S'488b45e0'
p342
sg21
Vmov rax, qword ptr [rbp - 0x20]
p343
sg5
L451267L
sg6
Nsg23
S'mov'
p344
sg25
S'0x6e2c3L'
p345
sg27
Nsba(ibclass
BInstr
p346
(dp347
g2
Nsg17
S'mov     edx, 4          ; size'
p348
sg19
S'ba04000000'
p349
sg21
Vmov edx, 4
p350
sg5
L451271L
sg6
Nsg23
S'mov'
p351
sg25
S'0x6e2c7L'
p352
sg27
Nsba(ibclass
BInstr
p353
(dp354
g2
Nsg17
S'mov     rsi, rcx        ; dest'
p355
sg19
S'4889ce'
p356
sg21
Vmov rsi, rcx
p357
sg5
L451276L
sg6
Nsg23
S'mov'
p358
sg25
S'0x6e2ccL'
p359
sg27
Nsba(ibclass
BInstr
p360
(dp361
g2
Nsg17
S'mov     rdi, rax        ; src'
p362
sg19
S'4889c7'
p363
sg21
Vmov rdi, rax
p364
sg5
L451279L
sg6
Nsg23
S'mov'
p365
sg25
S'0x6e2cfL'
p366
sg27
Nsba(ibclass
BInstr
p367
(dp368
g2
Nsg17
S'call    buf_read_1'
p369
sg19
S'e8e8f5ffff'
p370
sg21
Vcall 0xfffffffffffff5ed
p371
sg5
L451282L
sg6
Nsg23
S'call'
p372
sg25
S'0x6e2d2L'
p373
sg27
Nsba(ibclass
BInstr
p374
(dp375
g2
Nsg17
S'xor     eax, 1'
p376
sg19
S'83f001'
p377
sg21
Vxor eax, 1
p378
sg5
L451287L
sg6
Nsg23
S'xor'
p379
sg25
S'0x6e2d7L'
p380
sg27
Nsba(ibclass
BInstr
p381
(dp382
g2
Nsg17
S'test    al, al'
p383
sg19
S'84c0'
p384
sg21
Vtest al, al
p385
sg5
L451290L
sg6
Nsg23
S'test'
p386
sg25
S'0x6e2daL'
p387
sg27
Nsba(ibclass
BInstr
p388
(dp389
g2
Nsg17
S'jz      short loc_6E2E5'
p390
sg19
S'7407'
p391
sg21
Vje 9
p392
sg5
L451292L
sg6
Nsg23
S'jz'
p393
sg25
S'0x6e2dcL'
p394
sg27
Nsbasg182
(lp395
S'lea reg, mem'
p396
aS'mov reg, mem'
p397
aS'mov reg, 4'
p398
aS'mov reg, reg'
p399
aS'mov reg, reg'
p400
aS'cregl buf_read_1'
p401
aS'xor reg, 1'
p402
aS'test reg, reg'
p403
aS'jz func'
p404
asg207
Nsg5
S'0x6e2bfL'
p405
sg209
(lp406
S'0x6e2a7L'
p407
asg6
Nsg211
(lp408
S'0x6e2deL'
p409
aS'0x6e2e5L'
p410
asg215
Nsg216
Nsg217
S'2e8986e07d467b57d3ee0912a10897be'
p411
sg219
S'993365b09f63d50ff31e3dcbf4f054a3'
p412
sg221
(lp413
g337
ag344
ag351
ag358
ag365
ag372
ag379
ag386
ag393
asg223
Nsba(ibclass
BBasicBlock
p414
(dp415
g12
Nsg13
(lp416
(ibclass
BInstr
p417
(dp418
g2
Nsg17
S'mov     eax, 0'
p419
sg19
S'b800000000'
p420
sg21
Vmov eax, 0
p421
sg5
L451294L
sg6
Nsg23
S'mov'
p422
sg25
S'0x6e2deL'
p423
sg27
Nsba(ibclass
BInstr
p424
(dp425
g2
Nsg17
S'jmp     short loc_6E2FE'
p426
sg19
S'eb19'
p427
sg21
Vjmp 0x1b
p428
sg5
L451299L
sg6
Nsg23
S'jmp'
p429
sg25
S'0x6e2e3L'
p430
sg27
Nsbasg182
(lp431
S'mov reg, 0'
p432
aS'jmp func'
p433
asg207
Nsg5
S'0x6e2deL'
p434
sg209
(lp435
S'0x6e2bfL'
p436
asg6
Nsg211
(lp437
S'0x6e2feL'
p438
asg215
Nsg216
Nsg217
S'8b9a0d40e062be2b9b2d9885108fb196'
p439
sg219
S'b9bc48935b5443504e35a59843f17cfd'
p440
sg221
(lp441
g422
ag429
asg223
Nsba(ibclass
BBasicBlock
p442
(dp443
g12
Nsg13
(lp444
(ibclass
BInstr
p445
(dp446
g2
Nsg17
S'mov     eax, [rbp+net_time]'
p447
sg19
S'8b45f4'
p448
sg21
Vmov eax, dword ptr [rbp - 0xc]
p449
sg5
L451301L
sg6
Nsg23
S'mov'
p450
sg25
S'0x6e2e5L'
p451
sg27
Nsba(ibclass
BInstr
p452
(dp453
g2
Nsg17
S'mov     edi, eax        ; netlong'
p454
sg19
S'89c7'
p455
sg21
Vmov edi, eax
p456
sg5
L451304L
sg6
Nsg23
S'mov'
p457
sg25
S'0x6e2e8L'
p458
sg27
Nsba(ibclass
BInstr
p459
(dp460
g2
Nsg17
S'call    ntohl'
p461
sg19
S'e831b3f9ff'
p462
sg21
Vcall 0xfffffffffff9b336
p463
sg5
L451306L
sg6
Nsg23
S'call'
p464
sg25
S'0x6e2eaL'
p465
sg27
Nsba(ibclass
BInstr
p466
(dp467
g2
Nsg17
S'mov     edx, eax'
p468
sg19
S'89c2'
p469
sg21
Vmov edx, eax
p470
sg5
L451311L
sg6
Nsg23
S'mov'
p471
sg25
S'0x6e2efL'
p472
sg27
Nsba(ibclass
BInstr
p473
(dp474
g2
Nsg17
S'mov     rax, [rbp+pin]'
p475
sg19
S'488b45e8'
p476
sg21
Vmov rax, qword ptr [rbp - 0x18]
p477
sg5
L451313L
sg6
Nsg23
S'mov'
p478
sg25
S'0x6e2f1L'
p479
sg27
Nsba(ibclass
BInstr
p480
(dp481
g2
Nsg17
S'mov     [rax+8], rdx'
p482
sg19
S'48895008'
p483
sg21
Vmov qword ptr [rax + 8], rdx
p484
sg5
L451317L
sg6
Nsg23
S'mov'
p485
sg25
S'0x6e2f5L'
p486
sg27
Nsbasg182
(lp487
S'mov reg, mem'
p488
aS'mov reg, reg'
p489
aS'cregl ntohl'
p490
aS'mov reg, reg'
p491
aS'mov reg, mem'
p492
aS'mov mem, reg'
p493
asg207
Nsg5
S'0x6e2e5L'
p494
sg209
(lp495
S'0x6e2bfL'
p496
asg6
Nsg211
(lp497
S'0x6e2f9L'
p498
asg215
Nsg216
Nsg217
S'9b7ff509eeb5d50276ce14ff061fe18c'
p499
sg219
S'0e4e6ecbf9c459d82bba5c770a557627'
p500
sg221
(lp501
g450
ag457
ag464
ag471
ag478
ag485
asg223
Nsba(ibclass
BBasicBlock
p502
(dp503
g12
Nsg13
(lp504
(ibclass
BInstr
p505
(dp506
g2
Nsg17
S'mov     eax, 1'
p507
sg19
S'b801000000'
p508
sg21
Vmov eax, 1
p509
sg5
L451321L
sg6
Nsg23
S'mov'
p510
sg25
S'0x6e2f9L'
p511
sg27
Nsbasg182
(lp512
S'mov reg, 1'
p513
asg207
Nsg5
S'0x6e2f9L'
p514
sg209
(lp515
S'0x6e2a7L'
p516
aS'0x6e2e5L'
p517
asg6
Nsg211
(lp518
S'0x6e2feL'
p519
asg215
Nsg216
Nsg217
S'96a4a0e6e9ac88756a0fcba989d0a844'
p520
sg219
S'ad808d1693d1d0ca6e7b37fb755f4c8d'
p521
sg221
(lp522
g510
asg223
Nsba(ibclass
BBasicBlock
p523
(dp524
g12
Nsg13
(lp525
(ibclass
BInstr
p526
(dp527
g2
Nsg17
S'mov     rsi, [rbp+var_8]'
p528
sg19
S'488b75f8'
p529
sg21
Vmov rsi, qword ptr [rbp - 8]
p530
sg5
L451326L
sg6
Nsg23
S'mov'
p531
sg25
S'0x6e2feL'
p532
sg27
Nsba(ibclass
BInstr
p533
(dp534
g2
Nsg17
S'xor     rsi, fs:28h'
p535
sg19
S'644833342528000000'
p536
sg21
Vxor rsi, qword ptr fs:[0x28]
p537
sg5
L451330L
sg6
Nsg23
S'xor'
p538
sg25
S'0x6e302L'
p539
sg27
Nsba(ibclass
BInstr
p540
(dp541
g2
Nsg17
S'jz      short locret_6E312'
p542
sg19
S'7405'
p543
sg21
Vje 7
p544
sg5
L451339L
sg6
Nsg23
S'jz'
p545
sg25
S'0x6e30bL'
p546
sg27
Nsbasg182
(lp547
S'mov reg, mem'
p548
aS'xor reg, fs:28h'
p549
aS'jz short func'
p550
asg207
Nsg5
S'0x6e2feL'
p551
sg209
(lp552
S'0x6e2a0L'
p553
aS'0x6e2deL'
p554
aS'0x6e2f9L'
p555
asg6
Nsg211
(lp556
S'0x6e30dL'
p557
aS'0x6e312L'
p558
asg215
Nsg216
Nsg217
S'81354ac238b6424b069ead35b2072afc'
p559
sg219
S'd17531f88b7fe391cec4b57881664cc8'
p560
sg221
(lp561
g531
ag538
ag545
asg223
Nsba(ibclass
BBasicBlock
p562
(dp563
g12
Nsg13
(lp564
(ibclass
BInstr
p565
(dp566
g2
Nsg17
S'call    __stack_chk_fail'
p567
sg19
S'e856b6f9ff'
p568
sg21
Vcall 0xfffffffffff9b65b
p569
sg5
L451341L
sg6
Nsg23
S'call'
p570
sg25
S'0x6e30dL'
p571
sg27
Nsbasg182
(lp572
S'cregl __stack_chk_fail'
p573
asg207
Nsg5
S'0x6e30dL'
p574
sg209
(lp575
S'0x6e2feL'
p576
asg6
Nsg211
(lp577
sg215
Nsg216
Nsg217
S'53b9e9679a8ea25880376080b76f98ad'
p578
sg219
S'5852027b1493af739b90283a2dc353c0'
p579
sg221
(lp580
g570
asg223
Nsba(ibclass
BBasicBlock
p581
(dp582
g12
Nsg13
(lp583
(ibclass
BInstr
p584
(dp585
g2
Nsg17
S'leave'
p586
sg19
S'c9'
p587
sg21
Vleave 
p588
sg5
L451346L
sg6
Nsg23
S'leave'
p589
sg25
S'0x6e312L'
p590
sg27
Nsba(ibclass
BInstr
p591
(dp592
g2
Nsg17
S'retn'
p593
sg19
S'c3'
p594
sg21
Vret 
p595
sg5
L451347L
sg6
Nsg23
S'retn'
p596
sg25
S'0x6e313L'
p597
sg27
Nsbasg182
(lp598
g586
ag593
asg207
Nsg5
S'0x6e312L'
p599
sg209
(lp600
S'0x6e2feL'
p601
asg6
Nsg211
(lp602
sg215
Nsg216
Nsg217
S'08c78f73a6f87c85da88b2982f54ce2a'
p603
sg219
S'08c78f73a6f87c85da88b2982f54ce2a'
p604
sg221
(lp605
g589
ag596
asg223
Nsbasb.