(ibclass
BFunc
p0
(dp1
S'hash'
p2
NsS'name'
p3
S'openvpn_encrypt'
p4
sS'start_address'
p5
L72179L
sS'flag'
p6
NsS'program'
p7
NsS'bbs'
p8
(lp9
(ibclass
BBasicBlock
p10
(dp11
S'function'
p12
NsS'binstrs'
p13
(lp14
(ibclass
BInstr
p15
(dp16
g2
NsS'disasm'
p17
S'push    rbp'
p18
sS'bytes'
p19
S'55'
p20
sS'disasm_striped'
p21
Vpush rbp
p22
sg5
L72179L
sg6
NsS'mnem'
p23
S'push'
p24
sS'address'
p25
S'0x119f3L'
p26
sS'basicblock'
p27
Nsba(ibclass
BInstr
p28
(dp29
g2
Nsg17
S'mov     rbp, rsp'
p30
sg19
S'4889e5'
p31
sg21
Vmov rbp, rsp
p32
sg5
L72180L
sg6
Nsg23
S'mov'
p33
sg25
S'0x119f4L'
p34
sg27
Nsba(ibclass
BInstr
p35
(dp36
g2
Nsg17
S'sub     rsp, 20h'
p37
sg19
S'4883ec20'
p38
sg21
Vsub rsp, 0x20
p39
sg5
L72183L
sg6
Nsg23
S'sub'
p40
sg25
S'0x119f7L'
p41
sg27
Nsba(ibclass
BInstr
p42
(dp43
g2
Nsg17
S'mov     [rbp+buf], rdi'
p44
sg19
S'48897de8'
p45
sg21
Vmov qword ptr [rbp - 0x18], rdi
p46
sg5
L72187L
sg6
Nsg23
S'mov'
p47
sg25
S'0x119fbL'
p48
sg27
Nsba(ibclass
BInstr
p49
(dp50
g2
Nsg17
S'mov     [rbp+opt], rsi'
p51
sg19
S'488975e0'
p52
sg21
Vmov qword ptr [rbp - 0x20], rsi
p53
sg5
L72191L
sg6
Nsg23
S'mov'
p54
sg25
S'0x119ffL'
p55
sg27
Nsba(ibclass
BInstr
p56
(dp57
g2
Nsg17
S'mov     rax, [rbp+buf]'
p58
sg19
S'488b45e8'
p59
sg21
Vmov rax, qword ptr [rbp - 0x18]
p60
sg5
L72195L
sg6
Nsg23
S'mov'
p61
sg25
S'0x11a03L'
p62
sg27
Nsba(ibclass
BInstr
p63
(dp64
g2
Nsg17
S'mov     eax, [rax+8]'
p65
sg19
S'8b4008'
p66
sg21
Vmov eax, dword ptr [rax + 8]
p67
sg5
L72199L
sg6
Nsg23
S'mov'
p68
sg25
S'0x11a07L'
p69
sg27
Nsba(ibclass
BInstr
p70
(dp71
g2
Nsg17
S'test    eax, eax'
p72
sg19
S'85c0'
p73
sg21
Vtest eax, eax
p74
sg5
L72202L
sg6
Nsg23
S'test'
p75
sg25
S'0x11a0aL'
p76
sg27
Nsba(ibclass
BInstr
p77
(dp78
g2
Nsg17
S'jle     short loc_11A82'
p79
sg19
S'7e74'
p80
sg21
Vjle 0x76
p81
sg5
L72204L
sg6
Nsg23
S'jle'
p82
sg25
S'0x11a0cL'
p83
sg27
NsbasS'disasm_list'
p84
(lp85
S'push reg'
p86
aS'mov reg, reg'
p87
aS'sub reg, 20h'
p88
aS'mov mem, reg'
p89
aS'mov mem, reg'
p90
aS'mov reg, mem'
p91
aS'mov reg, mem'
p92
aS'test reg, reg'
p93
aS'jle func'
p94
asS'end_address'
p95
Nsg5
S'0x119f3L'
p96
sS'preds'
p97
(lp98
sg6
NsS'succs'
p99
(lp100
S'0x11a0eL'
p101
aS'0x11a82L'
p102
asS'hash_v3'
p103
NsS'flag_v2'
p104
NsS'hash_v1'
p105
S'2342c7ac2d36d1ee56497450d2aed15b'
p106
sS'hash_v2'
p107
S'910f572261c424032953b4a9284f046c'
p108
sS'mnen_list'
p109
(lp110
g24
ag33
ag40
ag47
ag54
ag61
ag68
ag75
ag82
asS'neighbour_disasm_list'
p111
Nsba(ibclass
BBasicBlock
p112
(dp113
g12
Nsg13
(lp114
(ibclass
BInstr
p115
(dp116
g2
Nsg17
S'cmp     [rbp+opt], 0'
p117
sg19
S'48837de000'
p118
sg21
Vcmp qword ptr [rbp - 0x20], 0
p119
sg5
L72206L
sg6
Nsg23
S'cmp'
p120
sg25
S'0x11a0eL'
p121
sg27
Nsba(ibclass
BInstr
p122
(dp123
g2
Nsg17
S'jz      short loc_11A82'
p124
sg19
S'746d'
p125
sg21
Vje 0x6f
p126
sg5
L72211L
sg6
Nsg23
S'jz'
p127
sg25
S'0x11a13L'
p128
sg27
Nsbasg84
(lp129
S'cmp mem, 0'
p130
aS'jz func'
p131
asg95
Nsg5
S'0x11a0eL'
p132
sg97
(lp133
S'0x119f3L'
p134
asg6
Nsg99
(lp135
S'0x11a15L'
p136
aS'0x11a82L'
p137
asg103
Nsg104
Nsg105
S'613dbc2b0cb9d6264d802b24d709daea'
p138
sg107
S'7f4ecf78254be39f53e7a11cedd080e9'
p139
sg109
(lp140
g120
ag127
asg111
Nsba(ibclass
BBasicBlock
p141
(dp142
g12
Nsg13
(lp143
(ibclass
BInstr
p144
(dp145
g2
Nsg17
S'mov     rax, [rbp+opt]'
p146
sg19
S'488b45e0'
p147
sg21
Vmov rax, qword ptr [rbp - 0x20]
p148
sg5
L72213L
sg6
Nsg23
S'mov'
p149
sg25
S'0x11a15L'
p150
sg27
Nsba(ibclass
BInstr
p151
(dp152
g2
Nsg17
S'mov     rax, [rax]'
p153
sg19
S'488b00'
p154
sg21
Vmov rax, qword ptr [rax]
p155
sg5
L72217L
sg6
Nsg23
S'mov'
p156
sg25
S'0x11a19L'
p157
sg27
Nsba(ibclass
BInstr
p158
(dp159
g2
Nsg17
S'mov     rdi, rax        ; ctx'
p160
sg19
S'4889c7'
p161
sg21
Vmov rdi, rax
p162
sg5
L72220L
sg6
Nsg23
S'mov'
p163
sg25
S'0x11a1cL'
p164
sg27
Nsba(ibclass
BInstr
p165
(dp166
g2
Nsg17
S'call    cipher_ctx_get_cipher_kt'
p167
sg19
S'e87d560000'
p168
sg21
Vcall 0x5682
p169
sg5
L72223L
sg6
Nsg23
S'call'
p170
sg25
S'0x11a1fL'
p171
sg27
Nsba(ibclass
BInstr
p172
(dp173
g2
Nsg17
S'mov     [rbp+cipher_kt], rax'
p174
sg19
S'488945f8'
p175
sg21
Vmov qword ptr [rbp - 8], rax
p176
sg5
L72228L
sg6
Nsg23
S'mov'
p177
sg25
S'0x11a24L'
p178
sg27
Nsba(ibclass
BInstr
p179
(dp180
g2
Nsg17
S'mov     rax, [rbp+cipher_kt]'
p181
sg19
S'488b45f8'
p182
sg21
Vmov rax, qword ptr [rbp - 8]
p183
sg5
L72232L
sg6
Nsg23
S'mov'
p184
sg25
S'0x11a28L'
p185
sg27
Nsba(ibclass
BInstr
p186
(dp187
g2
Nsg17
S'mov     rdi, rax        ; cipher'
p188
sg19
S'4889c7'
p189
sg21
Vmov rdi, rax
p190
sg5
L72236L
sg6
Nsg23
S'mov'
p191
sg25
S'0x11a2cL'
p192
sg27
Nsba(ibclass
BInstr
p193
(dp194
g2
Nsg17
S'call    cipher_kt_mode_aead'
p195
sg19
S'e8c3530000'
p196
sg21
Vcall 0x53c8
p197
sg5
L72239L
sg6
Nsg23
S'call'
p198
sg25
S'0x11a2fL'
p199
sg27
Nsba(ibclass
BInstr
p200
(dp201
g2
Nsg17
S'test    al, al'
p202
sg19
S'84c0'
p203
sg21
Vtest al, al
p204
sg5
L72244L
sg6
Nsg23
S'test'
p205
sg25
S'0x11a34L'
p206
sg27
Nsba(ibclass
BInstr
p207
(dp208
g2
Nsg17
S'jz      short loc_11A5E'
p209
sg19
S'7426'
p210
sg21
Vje 0x28
p211
sg5
L72246L
sg6
Nsg23
S'jz'
p212
sg25
S'0x11a36L'
p213
sg27
Nsbasg84
(lp214
S'mov reg, mem'
p215
aS'mov reg, mem'
p216
aS'mov reg, reg'
p217
aS'cregl cipher_ctx_get_cipher_kt'
p218
aS'mov mem, reg'
p219
aS'mov reg, mem'
p220
aS'mov reg, reg'
p221
aS'cregl cipher_kt_mode_aead'
p222
aS'test reg, reg'
p223
aS'jz func'
p224
asg95
Nsg5
S'0x11a15L'
p225
sg97
(lp226
S'0x11a0eL'
p227
asg6
Nsg99
(lp228
S'0x11a38L'
p229
aS'0x11a5eL'
p230
asg103
Nsg104
Nsg105
S'4ca217babdf98b1bb9f7bdf928746197'
p231
sg107
S'b80898e6ba9294da5edfb4e2b90a5c13'
p232
sg109
(lp233
g149
ag156
ag163
ag170
ag177
ag184
ag191
ag198
ag205
ag212
asg111
Nsba(ibclass
BBasicBlock
p234
(dp235
g12
Nsg13
(lp236
(ibclass
BInstr
p237
(dp238
g2
Nsg17
S'mov     rdx, [rbp+opt]'
p239
sg19
S'488b55e0'
p240
sg21
Vmov rdx, qword ptr [rbp - 0x20]
p241
sg5
L72248L
sg6
Nsg23
S'mov'
p242
sg25
S'0x11a38L'
p243
sg27
Nsba(ibclass
BInstr
p244
(dp245
g2
Nsg17
S'mov     rax, [rbp+buf]'
p246
sg19
S'488b45e8'
p247
sg21
Vmov rax, qword ptr [rbp - 0x18]
p248
sg5
L72252L
sg6
Nsg23
S'mov'
p249
sg25
S'0x11a3cL'
p250
sg27
Nsba(ibclass
BInstr
p251
(dp252
g2
Nsg17
S'sub     rsp, 8'
p253
sg19
S'4883ec08'
p254
sg21
Vsub rsp, 8
p255
sg5
L72256L
sg6
Nsg23
S'sub'
p256
sg25
S'0x11a40L'
p257
sg27
Nsba(ibclass
BInstr
p258
(dp259
g2
Nsg17
S'push    [rbp+work.data]'
p260
sg19
S'ff7520'
p261
sg21
Vpush qword ptr [rbp + 0x20]
p262
sg5
L72260L
sg6
Nsg23
S'push'
p263
sg25
S'0x11a44L'
p264
sg27
Nsba(ibclass
BInstr
p265
(dp266
g2
Nsg17
S'push    qword ptr [rbp+work.len]'
p267
sg19
S'ff7518'
p268
sg21
Vpush qword ptr [rbp + 0x18]
p269
sg5
L72263L
sg6
Nsg23
S'push'
p270
sg25
S'0x11a47L'
p271
sg27
Nsba(ibclass
BInstr
p272
(dp273
g2
Nsg17
S'push    qword ptr [rbp+work.capacity]; work'
p274
sg19
S'ff7510'
p275
sg21
Vpush qword ptr [rbp + 0x10]
p276
sg5
L72266L
sg6
Nsg23
S'push'
p277
sg25
S'0x11a4aL'
p278
sg27
Nsba(ibclass
BInstr
p279
(dp280
g2
Nsg17
S'mov     rsi, rdx        ; opt'
p281
sg19
S'4889d6'
p282
sg21
Vmov rsi, rdx
p283
sg5
L72269L
sg6
Nsg23
S'mov'
p284
sg25
S'0x11a4dL'
p285
sg27
Nsba(ibclass
BInstr
p286
(dp287
g2
Nsg17
S'mov     rdi, rax        ; buf'
p288
sg19
S'4889c7'
p289
sg21
Vmov rdi, rax
p290
sg5
L72272L
sg6
Nsg23
S'mov'
p291
sg25
S'0x11a50L'
p292
sg27
Nsba(ibclass
BInstr
p293
(dp294
g2
Nsg17
S'call    openvpn_encrypt_aead'
p295
sg19
S'e87af0ffff'
p296
sg21
Vcall 0xfffffffffffff07f
p297
sg5
L72275L
sg6
Nsg23
S'call'
p298
sg25
S'0x11a53L'
p299
sg27
Nsba(ibclass
BInstr
p300
(dp301
g2
Nsg17
S'add     rsp, 20h'
p302
sg19
S'4883c420'
p303
sg21
Vadd rsp, 0x20
p304
sg5
L72280L
sg6
Nsg23
S'add'
p305
sg25
S'0x11a58L'
p306
sg27
Nsba(ibclass
BInstr
p307
(dp308
g2
Nsg17
S'jmp     short loc_11A82'
p309
sg19
S'eb24'
p310
sg21
Vjmp 0x26
p311
sg5
L72284L
sg6
Nsg23
S'jmp'
p312
sg25
S'0x11a5cL'
p313
sg27
Nsbasg84
(lp314
S'mov reg, mem'
p315
aS'mov reg, mem'
p316
aS'sub reg, 8'
p317
aS'push mem'
p318
aS'push qmem'
p319
aS'push qmem'
p320
aS'mov reg, reg'
p321
aS'mov reg, reg'
p322
aS'cregl openvpn_encrypt_aead'
p323
aS'add reg, 20h'
p324
aS'jmp func'
p325
asg95
Nsg5
S'0x11a38L'
p326
sg97
(lp327
S'0x11a15L'
p328
asg6
Nsg99
(lp329
S'0x11a82L'
p330
asg103
Nsg104
Nsg105
S'5fef535dc50244fb05807107fffb08dd'
p331
sg107
S'122689834590377fdb4d4acb0ba12c4f'
p332
sg109
(lp333
g242
ag249
ag256
ag263
ag270
ag277
ag284
ag291
ag298
ag305
ag312
asg111
Nsba(ibclass
BBasicBlock
p334
(dp335
g12
Nsg13
(lp336
(ibclass
BInstr
p337
(dp338
g2
Nsg17
S'mov     rdx, [rbp+opt]'
p339
sg19
S'488b55e0'
p340
sg21
Vmov rdx, qword ptr [rbp - 0x20]
p341
sg5
L72286L
sg6
Nsg23
S'mov'
p342
sg25
S'0x11a5eL'
p343
sg27
Nsba(ibclass
BInstr
p344
(dp345
g2
Nsg17
S'mov     rax, [rbp+buf]'
p346
sg19
S'488b45e8'
p347
sg21
Vmov rax, qword ptr [rbp - 0x18]
p348
sg5
L72290L
sg6
Nsg23
S'mov'
p349
sg25
S'0x11a62L'
p350
sg27
Nsba(ibclass
BInstr
p351
(dp352
g2
Nsg17
S'sub     rsp, 8'
p353
sg19
S'4883ec08'
p354
sg21
Vsub rsp, 8
p355
sg5
L72294L
sg6
Nsg23
S'sub'
p356
sg25
S'0x11a66L'
p357
sg27
Nsba(ibclass
BInstr
p358
(dp359
g2
Nsg17
S'push    [rbp+work.data]'
p360
sg19
S'ff7520'
p361
sg21
Vpush qword ptr [rbp + 0x20]
p362
sg5
L72298L
sg6
Nsg23
S'push'
p363
sg25
S'0x11a6aL'
p364
sg27
Nsba(ibclass
BInstr
p365
(dp366
g2
Nsg17
S'push    qword ptr [rbp+work.len]'
p367
sg19
S'ff7518'
p368
sg21
Vpush qword ptr [rbp + 0x18]
p369
sg5
L72301L
sg6
Nsg23
S'push'
p370
sg25
S'0x11a6dL'
p371
sg27
Nsba(ibclass
BInstr
p372
(dp373
g2
Nsg17
S'push    qword ptr [rbp+work.capacity]; work'
p374
sg19
S'ff7510'
p375
sg21
Vpush qword ptr [rbp + 0x10]
p376
sg5
L72304L
sg6
Nsg23
S'push'
p377
sg25
S'0x11a70L'
p378
sg27
Nsba(ibclass
BInstr
p379
(dp380
g2
Nsg17
S'mov     rsi, rdx        ; opt'
p381
sg19
S'4889d6'
p382
sg21
Vmov rsi, rdx
p383
sg5
L72307L
sg6
Nsg23
S'mov'
p384
sg25
S'0x11a73L'
p385
sg27
Nsba(ibclass
BInstr
p386
(dp387
g2
Nsg17
S'mov     rdi, rax        ; buf'
p388
sg19
S'4889c7'
p389
sg21
Vmov rdi, rax
p390
sg5
L72310L
sg6
Nsg23
S'mov'
p391
sg25
S'0x11a76L'
p392
sg27
Nsba(ibclass
BInstr
p393
(dp394
g2
Nsg17
S'call    openvpn_encrypt_v1'
p395
sg19
S'e803f7ffff'
p396
sg21
Vcall 0xfffffffffffff708
p397
sg5
L72313L
sg6
Nsg23
S'call'
p398
sg25
S'0x11a79L'
p399
sg27
Nsba(ibclass
BInstr
p400
(dp401
g2
Nsg17
S'add     rsp, 20h'
p402
sg19
S'4883c420'
p403
sg21
Vadd rsp, 0x20
p404
sg5
L72318L
sg6
Nsg23
S'add'
p405
sg25
S'0x11a7eL'
p406
sg27
Nsbasg84
(lp407
S'mov reg, mem'
p408
aS'mov reg, mem'
p409
aS'sub reg, 8'
p410
aS'push mem'
p411
aS'push qmem'
p412
aS'push qmem'
p413
aS'mov reg, reg'
p414
aS'mov reg, reg'
p415
aS'cregl openvpn_encrypt_v1'
p416
aS'add reg, 20h'
p417
asg95
Nsg5
S'0x11a5eL'
p418
sg97
(lp419
S'0x11a15L'
p420
asg6
Nsg99
(lp421
S'0x11a82L'
p422
asg103
Nsg104
Nsg105
S'88c6a246127788c960dff9fe3ff7a0b2'
p423
sg107
S'665bae4fc90e43d99b69c1f209f31a28'
p424
sg109
(lp425
g342
ag349
ag356
ag363
ag370
ag377
ag384
ag391
ag398
ag405
asg111
Nsba(ibclass
BBasicBlock
p426
(dp427
g12
Nsg13
(lp428
(ibclass
BInstr
p429
(dp430
g2
Nsg17
S'nop'
p431
sg19
S'90'
p432
sg21
Vnop 
p433
sg5
L72322L
sg6
Nsg23
S'nop'
p434
sg25
S'0x11a82L'
p435
sg27
Nsba(ibclass
BInstr
p436
(dp437
g2
Nsg17
S'leave'
p438
sg19
S'c9'
p439
sg21
Vleave 
p440
sg5
L72323L
sg6
Nsg23
S'leave'
p441
sg25
S'0x11a83L'
p442
sg27
Nsba(ibclass
BInstr
p443
(dp444
g2
Nsg17
S'retn'
p445
sg19
S'c3'
p446
sg21
Vret 
p447
sg5
L72324L
sg6
Nsg23
S'retn'
p448
sg25
S'0x11a84L'
p449
sg27
Nsbasg84
(lp450
g431
ag438
ag445
asg95
Nsg5
S'0x11a82L'
p451
sg97
(lp452
S'0x119f3L'
p453
aS'0x11a0eL'
p454
aS'0x11a38L'
p455
aS'0x11a5eL'
p456
asg6
Nsg99
(lp457
sg103
Nsg104
Nsg105
S'e60dd6e5cf91846c815faeb59967c602'
p458
sg107
S'e60dd6e5cf91846c815faeb59967c602'
p459
sg109
(lp460
g434
ag441
ag448
asg111
Nsbasb.