(ibclass
BFunc
p0
(dp1
S'hash'
p2
NsS'name'
p3
S'mss_fixup_ipv6'
p4
sS'start_address'
p5
L252016L
sS'flag'
p6
NsS'program'
p7
NsS'bbs'
p8
(lp9
(ibclass
BBasicBlock
p10
(dp11
S'function'
p12
NsS'binstrs'
p13
(lp14
(ibclass
BInstr
p15
(dp16
g2
NsS'disasm'
p17
S'push    rbp'
p18
sS'bytes'
p19
S'55'
p20
sS'disasm_striped'
p21
Vpush rbp
p22
sg5
L252016L
sg6
NsS'mnem'
p23
S'push'
p24
sS'address'
p25
S'0x3d870L'
p26
sS'basicblock'
p27
Nsba(ibclass
BInstr
p28
(dp29
g2
Nsg17
S'mov     rbp, rsp'
p30
sg19
S'4889e5'
p31
sg21
Vmov rbp, rsp
p32
sg5
L252017L
sg6
Nsg23
S'mov'
p33
sg25
S'0x3d871L'
p34
sg27
Nsba(ibclass
BInstr
p35
(dp36
g2
Nsg17
S'push    rbx'
p37
sg19
S'53'
p38
sg21
Vpush rbx
p39
sg5
L252020L
sg6
Nsg23
S'push'
p40
sg25
S'0x3d874L'
p41
sg27
Nsba(ibclass
BInstr
p42
(dp43
g2
Nsg17
S'sub     rsp, 48h'
p44
sg19
S'4883ec48'
p45
sg21
Vsub rsp, 0x48
p46
sg5
L252021L
sg6
Nsg23
S'sub'
p47
sg25
S'0x3d875L'
p48
sg27
Nsba(ibclass
BInstr
p49
(dp50
g2
Nsg17
S'mov     [rbp+buf], rdi'
p51
sg19
S'48897db8'
p52
sg21
Vmov qword ptr [rbp - 0x48], rdi
p53
sg5
L252025L
sg6
Nsg23
S'mov'
p54
sg25
S'0x3d879L'
p55
sg27
Nsba(ibclass
BInstr
p56
(dp57
g2
Nsg17
S'mov     [rbp+maxmss], esi'
p58
sg19
S'8975b4'
p59
sg21
Vmov dword ptr [rbp - 0x4c], esi
p60
sg5
L252029L
sg6
Nsg23
S'mov'
p61
sg25
S'0x3d87dL'
p62
sg27
Nsba(ibclass
BInstr
p63
(dp64
g2
Nsg17
S'mov     rax, fs:28h'
p65
sg19
S'64488b042528000000'
p66
sg21
Vmov rax, qword ptr fs:[0x28]
p67
sg5
L252032L
sg6
Nsg23
S'mov'
p68
sg25
S'0x3d880L'
p69
sg27
Nsba(ibclass
BInstr
p70
(dp71
g2
Nsg17
S'mov     [rbp+var_18], rax'
p72
sg19
S'488945e8'
p73
sg21
Vmov qword ptr [rbp - 0x18], rax
p74
sg5
L252041L
sg6
Nsg23
S'mov'
p75
sg25
S'0x3d889L'
p76
sg27
Nsba(ibclass
BInstr
p77
(dp78
g2
Nsg17
S'xor     eax, eax'
p79
sg19
S'31c0'
p80
sg21
Vxor eax, eax
p81
sg5
L252045L
sg6
Nsg23
S'xor'
p82
sg25
S'0x3d88dL'
p83
sg27
Nsba(ibclass
BInstr
p84
(dp85
g2
Nsg17
S'mov     rax, [rbp+buf]'
p86
sg19
S'488b45b8'
p87
sg21
Vmov rax, qword ptr [rbp - 0x48]
p88
sg5
L252047L
sg6
Nsg23
S'mov'
p89
sg25
S'0x3d88fL'
p90
sg27
Nsba(ibclass
BInstr
p91
(dp92
g2
Nsg17
S'mov     rdi, rax        ; buf'
p93
sg19
S'4889c7'
p94
sg21
Vmov rdi, rax
p95
sg5
L252051L
sg6
Nsg23
S'mov'
p96
sg25
S'0x3d893L'
p97
sg27
Nsba(ibclass
BInstr
p98
(dp99
g2
Nsg17
S'call    buf_len_27'
p100
sg19
S'e8e6fdffff'
p101
sg21
Vcall 0xfffffffffffffdeb
p102
sg5
L252054L
sg6
Nsg23
S'call'
p103
sg25
S'0x3d896L'
p104
sg27
Nsba(ibclass
BInstr
p105
(dp106
g2
Nsg17
S'cmp     eax, 27h'
p107
sg19
S'83f827'
p108
sg21
Vcmp eax, 0x27
p109
sg5
L252059L
sg6
Nsg23
S'cmp'
p110
sg25
S'0x3d89bL'
p111
sg27
Nsba(ibclass
BInstr
p112
(dp113
g2
Nsg17
S'jle     loc_3D955'
p114
sg19
S'0f8eb1000000'
p115
sg21
Vjle 0xb7
p116
sg5
L252062L
sg6
Nsg23
S'jle'
p117
sg25
S'0x3d89eL'
p118
sg27
NsbasS'disasm_list'
p119
(lp120
S'push reg'
p121
aS'mov reg, reg'
p122
aS'push reg'
p123
aS'sub reg, 48h'
p124
aS'mov mem, reg'
p125
aS'mov mem, reg'
p126
aS'mov reg, fs:28h'
p127
aS'mov mem, reg'
p128
aS'xor reg, reg'
p129
aS'mov reg, mem'
p130
aS'mov reg, reg'
p131
aS'cregl buf_len_27'
p132
aS'cmp reg, 27h'
p133
aS'jle func'
p134
asS'end_address'
p135
Nsg5
S'0x3d870L'
p136
sS'preds'
p137
(lp138
sg6
NsS'succs'
p139
(lp140
S'0x3d8a4L'
p141
aS'0x3d955L'
p142
asS'hash_v3'
p143
NsS'flag_v2'
p144
NsS'hash_v1'
p145
S'5c75bf5cada556c7e32c315228ae1d71'
p146
sS'hash_v2'
p147
S'45b1efbdf2c7bbf2b2548d42f98eacc2'
p148
sS'mnen_list'
p149
(lp150
g24
ag33
ag40
ag47
ag54
ag61
ag68
ag75
ag82
ag89
ag96
ag103
ag110
ag117
asS'neighbour_disasm_list'
p151
Nsba(ibclass
BBasicBlock
p152
(dp153
g12
Nsg13
(lp154
(ibclass
BInstr
p155
(dp156
g2
Nsg17
S'mov     rax, [rbp+buf]'
p157
sg19
S'488b45b8'
p158
sg21
Vmov rax, qword ptr [rbp - 0x48]
p159
sg5
L252068L
sg6
Nsg23
S'mov'
p160
sg25
S'0x3d8a4L'
p161
sg27
Nsba(ibclass
BInstr
p162
(dp163
g2
Nsg17
S'mov     rdi, rax        ; buf'
p164
sg19
S'4889c7'
p165
sg21
Vmov rdi, rax
p166
sg5
L252072L
sg6
Nsg23
S'mov'
p167
sg25
S'0x3d8a8L'
p168
sg27
Nsba(ibclass
BInstr
p169
(dp170
g2
Nsg17
S'call    buf_bptr_16'
p171
sg19
S'e898fdffff'
p172
sg21
Vcall 0xfffffffffffffd9d
p173
sg5
L252075L
sg6
Nsg23
S'call'
p174
sg25
S'0x3d8abL'
p175
sg27
Nsba(ibclass
BInstr
p176
(dp177
g2
Nsg17
S'mov     [rbp+pip6], rax'
p178
sg19
S'488945c0'
p179
sg21
Vmov qword ptr [rbp - 0x40], rax
p180
sg5
L252080L
sg6
Nsg23
S'mov'
p181
sg25
S'0x3d8b0L'
p182
sg27
Nsba(ibclass
BInstr
p183
(dp184
g2
Nsg17
S'mov     rax, [rbp+buf]'
p185
sg19
S'488b45b8'
p186
sg21
Vmov rax, qword ptr [rbp - 0x48]
p187
sg5
L252084L
sg6
Nsg23
S'mov'
p188
sg25
S'0x3d8b4L'
p189
sg27
Nsba(ibclass
BInstr
p190
(dp191
g2
Nsg17
S'mov     rdi, rax        ; buf'
p192
sg19
S'4889c7'
p193
sg21
Vmov rdi, rax
p194
sg5
L252088L
sg6
Nsg23
S'mov'
p195
sg25
S'0x3d8b8L'
p196
sg27
Nsba(ibclass
BInstr
p197
(dp198
g2
Nsg17
S'call    buf_len_27'
p199
sg19
S'e8c1fdffff'
p200
sg21
Vcall 0xfffffffffffffdc6
p201
sg5
L252091L
sg6
Nsg23
S'call'
p202
sg25
S'0x3d8bbL'
p203
sg27
Nsba(ibclass
BInstr
p204
(dp205
g2
Nsg17
S'mov     ebx, eax'
p206
sg19
S'89c3'
p207
sg21
Vmov ebx, eax
p208
sg5
L252096L
sg6
Nsg23
S'mov'
p209
sg25
S'0x3d8c0L'
p210
sg27
Nsba(ibclass
BInstr
p211
(dp212
g2
Nsg17
S'mov     rax, [rbp+pip6]'
p213
sg19
S'488b45c0'
p214
sg21
Vmov rax, qword ptr [rbp - 0x40]
p215
sg5
L252098L
sg6
Nsg23
S'mov'
p216
sg25
S'0x3d8c2L'
p217
sg27
Nsba(ibclass
BInstr
p218
(dp219
g2
Nsg17
S'movzx   eax, word ptr [rax+4]'
p220
sg19
S'0fb74004'
p221
sg21
Vmovzx eax, word ptr [rax + 4]
p222
sg5
L252102L
sg6
Nsg23
S'movzx'
p223
sg25
S'0x3d8c6L'
p224
sg27
Nsba(ibclass
BInstr
p225
(dp226
g2
Nsg17
S'movzx   eax, ax'
p227
sg19
S'0fb7c0'
p228
sg21
Vmovzx eax, ax
p229
sg5
L252106L
sg6
Nsg23
S'movzx'
p230
sg25
S'0x3d8caL'
p231
sg27
Nsba(ibclass
BInstr
p232
(dp233
g2
Nsg17
S'mov     edi, eax        ; netshort'
p234
sg19
S'89c7'
p235
sg21
Vmov edi, eax
p236
sg5
L252109L
sg6
Nsg23
S'mov'
p237
sg25
S'0x3d8cdL'
p238
sg27
Nsba(ibclass
BInstr
p239
(dp240
g2
Nsg17
S'call    ntohs'
p241
sg19
S'e85cb9fcff'
p242
sg21
Vcall 0xfffffffffffcb961
p243
sg5
L252111L
sg6
Nsg23
S'call'
p244
sg25
S'0x3d8cfL'
p245
sg27
Nsba(ibclass
BInstr
p246
(dp247
g2
Nsg17
S'movzx   eax, ax'
p248
sg19
S'0fb7c0'
p249
sg21
Vmovzx eax, ax
p250
sg5
L252116L
sg6
Nsg23
S'movzx'
p251
sg25
S'0x3d8d4L'
p252
sg27
Nsba(ibclass
BInstr
p253
(dp254
g2
Nsg17
S'add     eax, 28h'
p255
sg19
S'83c028'
p256
sg21
Vadd eax, 0x28
p257
sg5
L252119L
sg6
Nsg23
S'add'
p258
sg25
S'0x3d8d7L'
p259
sg27
Nsba(ibclass
BInstr
p260
(dp261
g2
Nsg17
S'cmp     ebx, eax'
p262
sg19
S'39c3'
p263
sg21
Vcmp ebx, eax
p264
sg5
L252122L
sg6
Nsg23
S'cmp'
p265
sg25
S'0x3d8daL'
p266
sg27
Nsba(ibclass
BInstr
p267
(dp268
g2
Nsg17
S'jnz     short loc_3D958'
p269
sg19
S'757a'
p270
sg21
Vjne 0x7c
p271
sg5
L252124L
sg6
Nsg23
S'jnz'
p272
sg25
S'0x3d8dcL'
p273
sg27
Nsbasg119
(lp274
S'mov reg, mem'
p275
aS'mov reg, reg'
p276
aS'cregl buf_regtr_16'
p277
aS'mov mem, reg'
p278
aS'mov reg, mem'
p279
aS'mov reg, reg'
p280
aS'cregl buf_len_27'
p281
aS'mov reg, reg'
p282
aS'mov reg, mem'
p283
aS'movzx reg, mem'
p284
aS'movzx reg, reg'
p285
aS'mov reg, reg'
p286
aS'cregl ntohs'
p287
aS'movzx reg, reg'
p288
aS'add reg, 28h'
p289
aS'cmp reg, reg'
p290
aS'jnz func'
p291
asg135
Nsg5
S'0x3d8a4L'
p292
sg137
(lp293
S'0x3d870L'
p294
asg6
Nsg139
(lp295
S'0x3d8deL'
p296
aS'0x3d958L'
p297
asg143
Nsg144
Nsg145
S'f0c2ce1975e6fd951fab17350fe9cda8'
p298
sg147
S'08db99b9fcc273c77ee42da20f1be7a5'
p299
sg149
(lp300
g160
ag167
ag174
ag181
ag188
ag195
ag202
ag209
ag216
ag223
ag230
ag237
ag244
ag251
ag258
ag265
ag272
asg151
Nsba(ibclass
BBasicBlock
p301
(dp302
g12
Nsg13
(lp303
(ibclass
BInstr
p304
(dp305
g2
Nsg17
S'mov     rax, [rbp+pip6]'
p306
sg19
S'488b45c0'
p307
sg21
Vmov rax, qword ptr [rbp - 0x40]
p308
sg5
L252126L
sg6
Nsg23
S'mov'
p309
sg25
S'0x3d8deL'
p310
sg27
Nsba(ibclass
BInstr
p311
(dp312
g2
Nsg17
S'movzx   eax, byte ptr [rax+6]'
p313
sg19
S'0fb64006'
p314
sg21
Vmovzx eax, byte ptr [rax + 6]
p315
sg5
L252130L
sg6
Nsg23
S'movzx'
p316
sg25
S'0x3d8e2L'
p317
sg27
Nsba(ibclass
BInstr
p318
(dp319
g2
Nsg17
S'cmp     al, 6'
p320
sg19
S'3c06'
p321
sg21
Vcmp al, 6
p322
sg5
L252134L
sg6
Nsg23
S'cmp'
p323
sg25
S'0x3d8e6L'
p324
sg27
Nsba(ibclass
BInstr
p325
(dp326
g2
Nsg17
S'jnz     short loc_3D95B'
p327
sg19
S'7571'
p328
sg21
Vjne 0x73
p329
sg5
L252136L
sg6
Nsg23
S'jnz'
p330
sg25
S'0x3d8e8L'
p331
sg27
Nsbasg119
(lp332
S'mov reg, mem'
p333
aS'movzx reg, mem'
p334
aS'cmp reg, 6'
p335
aS'jnz func'
p336
asg135
Nsg5
S'0x3d8deL'
p337
sg137
(lp338
S'0x3d8a4L'
p339
asg6
Nsg139
(lp340
S'0x3d8eaL'
p341
aS'0x3d95bL'
p342
asg143
Nsg144
Nsg145
S'abeb40643ed11eecc9d44e99a64a1171'
p343
sg147
S'a7ceffddd685e5a2a1348c13bfb36345'
p344
sg149
(lp345
g309
ag316
ag323
ag330
asg151
Nsba(ibclass
BBasicBlock
p346
(dp347
g12
Nsg13
(lp348
(ibclass
BInstr
p349
(dp350
g2
Nsg17
S'mov     rax, [rbp+buf]'
p351
sg19
S'488b45b8'
p352
sg21
Vmov rax, qword ptr [rbp - 0x48]
p353
sg5
L252138L
sg6
Nsg23
S'mov'
p354
sg25
S'0x3d8eaL'
p355
sg27
Nsba(ibclass
BInstr
p356
(dp357
g2
Nsg17
S'mov     rdx, [rax]'
p358
sg19
S'488b10'
p359
sg21
Vmov rdx, qword ptr [rax]
p360
sg5
L252142L
sg6
Nsg23
S'mov'
p361
sg25
S'0x3d8eeL'
p362
sg27
Nsba(ibclass
BInstr
p363
(dp364
g2
Nsg17
S'mov     qword ptr [rbp+newbuf.capacity], rdx'
p365
sg19
S'488955d0'
p366
sg21
Vmov qword ptr [rbp - 0x30], rdx
p367
sg5
L252145L
sg6
Nsg23
S'mov'
p368
sg25
S'0x3d8f1L'
p369
sg27
Nsba(ibclass
BInstr
p370
(dp371
g2
Nsg17
S'mov     rdx, [rax+8]'
p372
sg19
S'488b5008'
p373
sg21
Vmov rdx, qword ptr [rax + 8]
p374
sg5
L252149L
sg6
Nsg23
S'mov'
p375
sg25
S'0x3d8f5L'
p376
sg27
Nsba(ibclass
BInstr
p377
(dp378
g2
Nsg17
S'mov     qword ptr [rbp+newbuf.len], rdx'
p379
sg19
S'488955d8'
p380
sg21
Vmov qword ptr [rbp - 0x28], rdx
p381
sg5
L252153L
sg6
Nsg23
S'mov'
p382
sg25
S'0x3d8f9L'
p383
sg27
Nsba(ibclass
BInstr
p384
(dp385
g2
Nsg17
S'mov     rax, [rax+10h]'
p386
sg19
S'488b4010'
p387
sg21
Vmov rax, qword ptr [rax + 0x10]
p388
sg5
L252157L
sg6
Nsg23
S'mov'
p389
sg25
S'0x3d8fdL'
p390
sg27
Nsba(ibclass
BInstr
p391
(dp392
g2
Nsg17
S'mov     [rbp+newbuf.data], rax'
p393
sg19
S'488945e0'
p394
sg21
Vmov qword ptr [rbp - 0x20], rax
p395
sg5
L252161L
sg6
Nsg23
S'mov'
p396
sg25
S'0x3d901L'
p397
sg27
Nsba(ibclass
BInstr
p398
(dp399
g2
Nsg17
S'lea     rax, [rbp+newbuf]'
p400
sg19
S'488d45d0'
p401
sg21
Vlea rax, [rbp - 0x30]
p402
sg5
L252165L
sg6
Nsg23
S'lea'
p403
sg25
S'0x3d905L'
p404
sg27
Nsba(ibclass
BInstr
p405
(dp406
g2
Nsg17
S'mov     esi, 28h        ; size'
p407
sg19
S'be28000000'
p408
sg21
Vmov esi, 0x28
p409
sg5
L252169L
sg6
Nsg23
S'mov'
p410
sg25
S'0x3d909L'
p411
sg27
Nsba(ibclass
BInstr
p412
(dp413
g2
Nsg17
S'mov     rdi, rax        ; buf'
p414
sg19
S'4889c7'
p415
sg21
Vmov rdi, rax
p416
sg5
L252174L
sg6
Nsg23
S'mov'
p417
sg25
S'0x3d90eL'
p418
sg27
Nsba(ibclass
BInstr
p419
(dp420
g2
Nsg17
S'call    buf_advance_6'
p421
sg19
S'e897fdffff'
p422
sg21
Vcall 0xfffffffffffffd9c
p423
sg5
L252177L
sg6
Nsg23
S'call'
p424
sg25
S'0x3d911L'
p425
sg27
Nsba(ibclass
BInstr
p426
(dp427
g2
Nsg17
S'test    al, al'
p428
sg19
S'84c0'
p429
sg21
Vtest al, al
p430
sg5
L252182L
sg6
Nsg23
S'test'
p431
sg25
S'0x3d916L'
p432
sg27
Nsba(ibclass
BInstr
p433
(dp434
g2
Nsg17
S'jz      short loc_3D95C'
p435
sg19
S'7442'
p436
sg21
Vje 0x44
p437
sg5
L252184L
sg6
Nsg23
S'jz'
p438
sg25
S'0x3d918L'
p439
sg27
Nsbasg119
(lp440
S'mov reg, mem'
p441
aS'mov reg, mem'
p442
aS'mov qmem, reg'
p443
aS'mov reg, mem'
p444
aS'mov qmem, reg'
p445
aS'mov reg, mem'
p446
aS'mov mem, reg'
p447
aS'lea reg, mem'
p448
aS'mov reg, 28h'
p449
aS'mov reg, reg'
p450
aS'cregl buf_advance_6'
p451
aS'test reg, reg'
p452
aS'jz func'
p453
asg135
Nsg5
S'0x3d8eaL'
p454
sg137
(lp455
S'0x3d8deL'
p456
asg6
Nsg139
(lp457
S'0x3d91aL'
p458
aS'0x3d95cL'
p459
asg143
Nsg144
Nsg145
S'5d0334ddb3a311ee9307e605df3f129e'
p460
sg147
S'ec69dbdf43b81273b510c5a0b73af347'
p461
sg149
(lp462
g354
ag361
ag368
ag375
ag382
ag389
ag396
ag403
ag410
ag417
ag424
ag431
ag438
asg151
Nsba(ibclass
BBasicBlock
p463
(dp464
g12
Nsg13
(lp465
(ibclass
BInstr
p466
(dp467
g2
Nsg17
S'lea     rax, [rbp+newbuf]'
p468
sg19
S'488d45d0'
p469
sg21
Vlea rax, [rbp - 0x30]
p470
sg5
L252186L
sg6
Nsg23
S'lea'
p471
sg25
S'0x3d91aL'
p472
sg27
Nsba(ibclass
BInstr
p473
(dp474
g2
Nsg17
S'mov     rdi, rax        ; buf'
p475
sg19
S'4889c7'
p476
sg21
Vmov rdi, rax
p477
sg5
L252190L
sg6
Nsg23
S'mov'
p478
sg25
S'0x3d91eL'
p479
sg27
Nsba(ibclass
BInstr
p480
(dp481
g2
Nsg17
S'call    buf_bptr_16'
p482
sg19
S'e822fdffff'
p483
sg21
Vcall 0xfffffffffffffd27
p484
sg5
L252193L
sg6
Nsg23
S'call'
p485
sg25
S'0x3d921L'
p486
sg27
Nsba(ibclass
BInstr
p487
(dp488
g2
Nsg17
S'mov     [rbp+tc], rax'
p489
sg19
S'488945c8'
p490
sg21
Vmov qword ptr [rbp - 0x38], rax
p491
sg5
L252198L
sg6
Nsg23
S'mov'
p492
sg25
S'0x3d926L'
p493
sg27
Nsba(ibclass
BInstr
p494
(dp495
g2
Nsg17
S'mov     rax, [rbp+tc]'
p496
sg19
S'488b45c8'
p497
sg21
Vmov rax, qword ptr [rbp - 0x38]
p498
sg5
L252202L
sg6
Nsg23
S'mov'
p499
sg25
S'0x3d92aL'
p500
sg27
Nsba(ibclass
BInstr
p501
(dp502
g2
Nsg17
S'movzx   eax, byte ptr [rax+0Dh]'
p503
sg19
S'0fb6400d'
p504
sg21
Vmovzx eax, byte ptr [rax + 0xd]
p505
sg5
L252206L
sg6
Nsg23
S'movzx'
p506
sg25
S'0x3d92eL'
p507
sg27
Nsba(ibclass
BInstr
p508
(dp509
g2
Nsg17
S'movzx   eax, al'
p510
sg19
S'0fb6c0'
p511
sg21
Vmovzx eax, al
p512
sg5
L252210L
sg6
Nsg23
S'movzx'
p513
sg25
S'0x3d932L'
p514
sg27
Nsba(ibclass
BInstr
p515
(dp516
g2
Nsg17
S'and     eax, 2'
p517
sg19
S'83e002'
p518
sg21
Vand eax, 2
p519
sg5
L252213L
sg6
Nsg23
S'and'
p520
sg25
S'0x3d935L'
p521
sg27
Nsba(ibclass
BInstr
p522
(dp523
g2
Nsg17
S'test    eax, eax'
p524
sg19
S'85c0'
p525
sg21
Vtest eax, eax
p526
sg5
L252216L
sg6
Nsg23
S'test'
p527
sg25
S'0x3d938L'
p528
sg27
Nsba(ibclass
BInstr
p529
(dp530
g2
Nsg17
S'jz      short loc_3D95C'
p531
sg19
S'7420'
p532
sg21
Vje 0x22
p533
sg5
L252218L
sg6
Nsg23
S'jz'
p534
sg25
S'0x3d93aL'
p535
sg27
Nsbasg119
(lp536
S'lea reg, mem'
p537
aS'mov reg, reg'
p538
aS'cregl buf_regtr_16'
p539
aS'mov mem, reg'
p540
aS'mov reg, mem'
p541
aS'movzx reg, mem'
p542
aS'movzx reg, reg'
p543
aS'and reg, 2'
p544
aS'test reg, reg'
p545
aS'jz func'
p546
asg135
Nsg5
S'0x3d91aL'
p547
sg137
(lp548
S'0x3d8eaL'
p549
asg6
Nsg139
(lp550
S'0x3d93cL'
p551
aS'0x3d95cL'
p552
asg143
Nsg144
Nsg145
S'4c27ad15f9b902f24274cb495797b187'
p553
sg147
S'25bc5f2ba0bf28762713304444219516'
p554
sg149
(lp555
g471
ag478
ag485
ag492
ag499
ag506
ag513
ag520
ag527
ag534
asg151
Nsba(ibclass
BBasicBlock
p556
(dp557
g12
Nsg13
(lp558
(ibclass
BInstr
p559
(dp560
g2
Nsg17
S'mov     eax, [rbp+maxmss]'
p561
sg19
S'8b45b4'
p562
sg21
Vmov eax, dword ptr [rbp - 0x4c]
p563
sg5
L252220L
sg6
Nsg23
S'mov'
p564
sg25
S'0x3d93cL'
p565
sg27
Nsba(ibclass
BInstr
p566
(dp567
g2
Nsg17
S'sub     eax, 14h'
p568
sg19
S'83e814'
p569
sg21
Vsub eax, 0x14
p570
sg5
L252223L
sg6
Nsg23
S'sub'
p571
sg25
S'0x3d93fL'
p572
sg27
Nsba(ibclass
BInstr
p573
(dp574
g2
Nsg17
S'movzx   edx, ax'
p575
sg19
S'0fb7d0'
p576
sg21
Vmovzx edx, ax
p577
sg5
L252226L
sg6
Nsg23
S'movzx'
p578
sg25
S'0x3d942L'
p579
sg27
Nsba(ibclass
BInstr
p580
(dp581
g2
Nsg17
S'lea     rax, [rbp+newbuf]'
p582
sg19
S'488d45d0'
p583
sg21
Vlea rax, [rbp - 0x30]
p584
sg5
L252229L
sg6
Nsg23
S'lea'
p585
sg25
S'0x3d945L'
p586
sg27
Nsba(ibclass
BInstr
p587
(dp588
g2
Nsg17
S'mov     esi, edx        ; maxmss'
p589
sg19
S'89d6'
p590
sg21
Vmov esi, edx
p591
sg5
L252233L
sg6
Nsg23
S'mov'
p592
sg25
S'0x3d949L'
p593
sg27
Nsba(ibclass
BInstr
p594
(dp595
g2
Nsg17
S'mov     rdi, rax        ; buf'
p596
sg19
S'4889c7'
p597
sg21
Vmov rdi, rax
p598
sg5
L252235L
sg6
Nsg23
S'mov'
p599
sg25
S'0x3d94bL'
p600
sg27
Nsba(ibclass
BInstr
p601
(dp602
g2
Nsg17
S'call    mss_fixup_dowork'
p603
sg19
S'e824000000'
p604
sg21
Vcall 0x29
p605
sg5
L252238L
sg6
Nsg23
S'call'
p606
sg25
S'0x3d94eL'
p607
sg27
Nsba(ibclass
BInstr
p608
(dp609
g2
Nsg17
S'jmp     short loc_3D95C'
p610
sg19
S'eb07'
p611
sg21
Vjmp 9
p612
sg5
L252243L
sg6
Nsg23
S'jmp'
p613
sg25
S'0x3d953L'
p614
sg27
Nsbasg119
(lp615
S'mov reg, mem'
p616
aS'sub reg, 14h'
p617
aS'movzx reg, reg'
p618
aS'lea reg, mem'
p619
aS'mov reg, reg'
p620
aS'mov reg, reg'
p621
aS'cregl mss_fixup_dowork'
p622
aS'jmp func'
p623
asg135
Nsg5
S'0x3d93cL'
p624
sg137
(lp625
S'0x3d91aL'
p626
asg6
Nsg139
(lp627
S'0x3d95cL'
p628
asg143
Nsg144
Nsg145
S'385d8fa20db9a42f9f02e738ff41a45c'
p629
sg147
S'b59a744221a6bfe46c53ae662244cbf1'
p630
sg149
(lp631
g564
ag571
ag578
ag585
ag592
ag599
ag606
ag613
asg151
Nsba(ibclass
BBasicBlock
p632
(dp633
g12
Nsg13
(lp634
(ibclass
BInstr
p635
(dp636
g2
Nsg17
S'nop'
p637
sg19
S'90'
p638
sg21
Vnop 
p639
sg5
L252245L
sg6
Nsg23
S'nop'
p640
sg25
S'0x3d955L'
p641
sg27
Nsba(ibclass
BInstr
p642
(dp643
g2
Nsg17
S'jmp     short loc_3D95C'
p644
sg19
S'eb04'
p645
sg21
Vjmp 6
p646
sg5
L252246L
sg6
Nsg23
S'jmp'
p647
sg25
S'0x3d956L'
p648
sg27
Nsbasg119
(lp649
g637
aS'jmp func'
p650
asg135
Nsg5
S'0x3d955L'
p651
sg137
(lp652
S'0x3d870L'
p653
asg6
Nsg139
(lp654
S'0x3d95cL'
p655
asg143
Nsg144
Nsg145
S'217d062bc83dd33b9e09691126db1c76'
p656
sg147
S'cb8109f184dcbcbce6890ff6282c896b'
p657
sg149
(lp658
g640
ag647
asg151
Nsba(ibclass
BBasicBlock
p659
(dp660
g12
Nsg13
(lp661
(ibclass
BInstr
p662
(dp663
g2
Nsg17
S'nop'
p664
sg19
S'90'
p665
sg21
Vnop 
p666
sg5
L252248L
sg6
Nsg23
S'nop'
p667
sg25
S'0x3d958L'
p668
sg27
Nsba(ibclass
BInstr
p669
(dp670
g2
Nsg17
S'jmp     short loc_3D95C'
p671
sg19
S'eb01'
p672
sg21
Vjmp 3
p673
sg5
L252249L
sg6
Nsg23
S'jmp'
p674
sg25
S'0x3d959L'
p675
sg27
Nsbasg119
(lp676
g664
aS'jmp func'
p677
asg135
Nsg5
S'0x3d958L'
p678
sg137
(lp679
S'0x3d8a4L'
p680
asg6
Nsg139
(lp681
S'0x3d95cL'
p682
asg143
Nsg144
Nsg145
S'217d062bc83dd33b9e09691126db1c76'
p683
sg147
S'cb8109f184dcbcbce6890ff6282c896b'
p684
sg149
(lp685
g667
ag674
asg151
Nsba(ibclass
BBasicBlock
p686
(dp687
g12
Nsg13
(lp688
(ibclass
BInstr
p689
(dp690
g2
Nsg17
S'nop'
p691
sg19
S'90'
p692
sg21
Vnop 
p693
sg5
L252251L
sg6
Nsg23
S'nop'
p694
sg25
S'0x3d95bL'
p695
sg27
Nsbasg119
(lp696
g691
asg135
Nsg5
S'0x3d95bL'
p697
sg137
(lp698
S'0x3d8deL'
p699
asg6
Nsg139
(lp700
S'0x3d95cL'
p701
asg143
Nsg144
Nsg145
S'a571d969c8661fb0342afd08e571dfa0'
p702
sg147
S'a571d969c8661fb0342afd08e571dfa0'
p703
sg149
(lp704
g694
asg151
Nsba(ibclass
BBasicBlock
p705
(dp706
g12
Nsg13
(lp707
(ibclass
BInstr
p708
(dp709
g2
Nsg17
S'mov     rax, [rbp+var_18]'
p710
sg19
S'488b45e8'
p711
sg21
Vmov rax, qword ptr [rbp - 0x18]
p712
sg5
L252252L
sg6
Nsg23
S'mov'
p713
sg25
S'0x3d95cL'
p714
sg27
Nsba(ibclass
BInstr
p715
(dp716
g2
Nsg17
S'xor     rax, fs:28h'
p717
sg19
S'644833042528000000'
p718
sg21
Vxor rax, qword ptr fs:[0x28]
p719
sg5
L252256L
sg6
Nsg23
S'xor'
p720
sg25
S'0x3d960L'
p721
sg27
Nsba(ibclass
BInstr
p722
(dp723
g2
Nsg17
S'jz      short loc_3D970'
p724
sg19
S'7405'
p725
sg21
Vje 7
p726
sg5
L252265L
sg6
Nsg23
S'jz'
p727
sg25
S'0x3d969L'
p728
sg27
Nsbasg119
(lp729
S'mov reg, mem'
p730
aS'xor reg, fs:28h'
p731
aS'jz func'
p732
asg135
Nsg5
S'0x3d95cL'
p733
sg137
(lp734
S'0x3d8eaL'
p735
aS'0x3d91aL'
p736
aS'0x3d93cL'
p737
aS'0x3d955L'
p738
aS'0x3d958L'
p739
aS'0x3d95bL'
p740
asg6
Nsg139
(lp741
S'0x3d96bL'
p742
aS'0x3d970L'
p743
asg143
Nsg144
Nsg145
S'81354ac238b6424b069ead35b2072afc'
p744
sg147
S'42d5f870648ece6e1dc7e92a9f72192a'
p745
sg149
(lp746
g713
ag720
ag727
asg151
Nsba(ibclass
BBasicBlock
p747
(dp748
g12
Nsg13
(lp749
(ibclass
BInstr
p750
(dp751
g2
Nsg17
S'call    __stack_chk_fail'
p752
sg19
S'e810bcfcff'
p753
sg21
Vcall 0xfffffffffffcbc15
p754
sg5
L252267L
sg6
Nsg23
S'call'
p755
sg25
S'0x3d96bL'
p756
sg27
Nsbasg119
(lp757
S'cregl __stack_chk_fail'
p758
asg135
Nsg5
S'0x3d96bL'
p759
sg137
(lp760
S'0x3d95cL'
p761
asg6
Nsg139
(lp762
sg143
Nsg144
Nsg145
S'53b9e9679a8ea25880376080b76f98ad'
p763
sg147
S'5852027b1493af739b90283a2dc353c0'
p764
sg149
(lp765
g755
asg151
Nsba(ibclass
BBasicBlock
p766
(dp767
g12
Nsg13
(lp768
(ibclass
BInstr
p769
(dp770
g2
Nsg17
S'add     rsp, 48h'
p771
sg19
S'4883c448'
p772
sg21
Vadd rsp, 0x48
p773
sg5
L252272L
sg6
Nsg23
S'add'
p774
sg25
S'0x3d970L'
p775
sg27
Nsba(ibclass
BInstr
p776
(dp777
g2
Nsg17
S'pop     rbx'
p778
sg19
S'5b'
p779
sg21
Vpop rbx
p780
sg5
L252276L
sg6
Nsg23
S'pop'
p781
sg25
S'0x3d974L'
p782
sg27
Nsba(ibclass
BInstr
p783
(dp784
g2
Nsg17
S'pop     rbp'
p785
sg19
S'5d'
p786
sg21
Vpop rbp
p787
sg5
L252277L
sg6
Nsg23
S'pop'
p788
sg25
S'0x3d975L'
p789
sg27
Nsba(ibclass
BInstr
p790
(dp791
g2
Nsg17
S'retn'
p792
sg19
S'c3'
p793
sg21
Vret 
p794
sg5
L252278L
sg6
Nsg23
S'retn'
p795
sg25
S'0x3d976L'
p796
sg27
Nsbasg119
(lp797
S'add reg, 48h'
p798
aS'pop reg'
p799
aS'pop reg'
p800
ag792
asg135
Nsg5
S'0x3d970L'
p801
sg137
(lp802
S'0x3d95cL'
p803
asg6
Nsg139
(lp804
sg143
Nsg144
Nsg145
S'4d1981a678d0c70281d5161c3174b44c'
p805
sg147
S'19cdccafab2f266292edef053f55ee4c'
p806
sg149
(lp807
g774
ag781
ag788
ag795
asg151
Nsbasb.