(ibclass
BFunc
p0
(dp1
S'hash'
p2
NsS'name'
p3
S'extract_x509_extension'
p4
sS'start_address'
p5
L647874L
sS'flag'
p6
NsS'program'
p7
NsS'bbs'
p8
(lp9
(ibclass
BBasicBlock
p10
(dp11
S'function'
p12
NsS'binstrs'
p13
(lp14
(ibclass
BInstr
p15
(dp16
g2
NsS'disasm'
p17
S'push    rbp'
p18
sS'bytes'
p19
S'55'
p20
sS'disasm_striped'
p21
Vpush rbp
p22
sg5
L647874L
sg6
NsS'mnem'
p23
S'push'
p24
sS'address'
p25
S'0x9e2c2L'
p26
sS'basicblock'
p27
Nsba(ibclass
BInstr
p28
(dp29
g2
Nsg17
S'mov     rbp, rsp'
p30
sg19
S'4889e5'
p31
sg21
Vmov rbp, rsp
p32
sg5
L647875L
sg6
Nsg23
S'mov'
p33
sg25
S'0x9e2c3L'
p34
sg27
Nsba(ibclass
BInstr
p35
(dp36
g2
Nsg17
S'sub     rsp, 50h'
p37
sg19
S'4883ec50'
p38
sg21
Vsub rsp, 0x50
p39
sg5
L647878L
sg6
Nsg23
S'sub'
p40
sg25
S'0x9e2c6L'
p41
sg27
Nsba(ibclass
BInstr
p42
(dp43
g2
Nsg17
S'mov     [rbp+cert], rdi'
p44
sg19
S'48897dc8'
p45
sg21
Vmov qword ptr [rbp - 0x38], rdi
p46
sg5
L647882L
sg6
Nsg23
S'mov'
p47
sg25
S'0x9e2caL'
p48
sg27
Nsba(ibclass
BInstr
p49
(dp50
g2
Nsg17
S'mov     [rbp+fieldname], rsi'
p51
sg19
S'488975c0'
p52
sg21
Vmov qword ptr [rbp - 0x40], rsi
p53
sg5
L647886L
sg6
Nsg23
S'mov'
p54
sg25
S'0x9e2ceL'
p55
sg27
Nsba(ibclass
BInstr
p56
(dp57
g2
Nsg17
S'mov     [rbp+out], rdx'
p58
sg19
S'488955b8'
p59
sg21
Vmov qword ptr [rbp - 0x48], rdx
p60
sg5
L647890L
sg6
Nsg23
S'mov'
p61
sg25
S'0x9e2d2L'
p62
sg27
Nsba(ibclass
BInstr
p63
(dp64
g2
Nsg17
S'mov     [rbp+size], ecx'
p65
sg19
S'894db4'
p66
sg21
Vmov dword ptr [rbp - 0x4c], ecx
p67
sg5
L647894L
sg6
Nsg23
S'mov'
p68
sg25
S'0x9e2d6L'
p69
sg27
Nsba(ibclass
BInstr
p70
(dp71
g2
Nsg17
S'mov     rax, fs:28h'
p72
sg19
S'64488b042528000000'
p73
sg21
Vmov rax, qword ptr fs:[0x28]
p74
sg5
L647897L
sg6
Nsg23
S'mov'
p75
sg25
S'0x9e2d9L'
p76
sg27
Nsba(ibclass
BInstr
p77
(dp78
g2
Nsg17
S'mov     [rbp+var_8], rax'
p79
sg19
S'488945f8'
p80
sg21
Vmov qword ptr [rbp - 8], rax
p81
sg5
L647906L
sg6
Nsg23
S'mov'
p82
sg25
S'0x9e2e2L'
p83
sg27
Nsba(ibclass
BInstr
p84
(dp85
g2
Nsg17
S'xor     eax, eax'
p86
sg19
S'31c0'
p87
sg21
Vxor eax, eax
p88
sg5
L647910L
sg6
Nsg23
S'xor'
p89
sg25
S'0x9e2e6L'
p90
sg27
Nsba(ibclass
BInstr
p91
(dp92
g2
Nsg17
S'mov     [rbp+retval], 0'
p93
sg19
S'c645d300'
p94
sg21
Vmov byte ptr [rbp - 0x2d], 0
p95
sg5
L647912L
sg6
Nsg23
S'mov'
p96
sg25
S'0x9e2e8L'
p97
sg27
Nsba(ibclass
BInstr
p98
(dp99
g2
Nsg17
S'mov     [rbp+buf], 0'
p100
sg19
S'48c745e000000000'
p101
sg21
Vmov qword ptr [rbp - 0x20], 0
p102
sg5
L647916L
sg6
Nsg23
S'mov'
p103
sg25
S'0x9e2ecL'
p104
sg27
Nsba(ibclass
BInstr
p105
(dp106
g2
Nsg17
S'mov     rax, [rbp+fieldname]'
p107
sg19
S'488b45c0'
p108
sg21
Vmov rax, qword ptr [rbp - 0x40]
p109
sg5
L647924L
sg6
Nsg23
S'mov'
p110
sg25
S'0x9e2f4L'
p111
sg27
Nsba(ibclass
BInstr
p112
(dp113
g2
Nsg17
S'mov     rdi, rax        ; fieldname'
p114
sg19
S'4889c7'
p115
sg21
Vmov rdi, rax
p116
sg5
L647928L
sg6
Nsg23
S'mov'
p117
sg25
S'0x9e2f8L'
p118
sg27
Nsba(ibclass
BInstr
p119
(dp120
g2
Nsg17
S'call    x509_username_field_ext_supported'
p121
sg19
S'e88affffff'
p122
sg21
Vcall 0xffffffffffffff8f
p123
sg5
L647931L
sg6
Nsg23
S'call'
p124
sg25
S'0x9e2fbL'
p125
sg27
Nsba(ibclass
BInstr
p126
(dp127
g2
Nsg17
S'xor     eax, 1'
p128
sg19
S'83f001'
p129
sg21
Vxor eax, 1
p130
sg5
L647936L
sg6
Nsg23
S'xor'
p131
sg25
S'0x9e300L'
p132
sg27
Nsba(ibclass
BInstr
p133
(dp134
g2
Nsg17
S'test    al, al'
p135
sg19
S'84c0'
p136
sg21
Vtest al, al
p137
sg5
L647939L
sg6
Nsg23
S'test'
p138
sg25
S'0x9e303L'
p139
sg27
Nsba(ibclass
BInstr
p140
(dp141
g2
Nsg17
S'jz      short loc_9E33C'
p142
sg19
S'7435'
p143
sg21
Vje 0x37
p144
sg5
L647941L
sg6
Nsg23
S'jz'
p145
sg25
S'0x9e305L'
p146
sg27
NsbasS'disasm_list'
p147
(lp148
S'push reg'
p149
aS'mov reg, reg'
p150
aS'sub reg, 50h'
p151
aS'mov mem, reg'
p152
aS'mov mem, reg'
p153
aS'mov mem, reg'
p154
aS'mov mem, reg'
p155
aS'mov reg, fs:28h'
p156
aS'mov mem, reg'
p157
aS'xor reg, reg'
p158
aS'mov mem, 0'
p159
aS'mov mem, 0'
p160
aS'mov reg, mem'
p161
aS'mov reg, reg'
p162
aS'cregl x509_username_field_ext_supported'
p163
aS'xor reg, 1'
p164
aS'test reg, reg'
p165
aS'jz func'
p166
asS'end_address'
p167
Nsg5
S'0x9e2c2L'
p168
sS'preds'
p169
(lp170
sg6
NsS'succs'
p171
(lp172
S'0x9e307L'
p173
aS'0x9e33cL'
p174
asS'hash_v3'
p175
NsS'flag_v2'
p176
NsS'hash_v1'
p177
S'0810398b7274b8794d22c14be18b525e'
p178
sS'hash_v2'
p179
S'21a74213c5a79b456a24cbd8639114e7'
p180
sS'mnen_list'
p181
(lp182
g24
ag33
ag40
ag47
ag54
ag61
ag68
ag75
ag82
ag89
ag96
ag103
ag110
ag117
ag124
ag131
ag138
ag145
asS'neighbour_disasm_list'
p183
Nsba(ibclass
BBasicBlock
p184
(dp185
g12
Nsg13
(lp186
(ibclass
BInstr
p187
(dp188
g2
Nsg17
S'mov     edi, 3000021h   ; flags'
p189
sg19
S'bf21000003'
p190
sg21
Vmov edi, 0x3000021
p191
sg5
L647943L
sg6
Nsg23
S'mov'
p192
sg25
S'0x9e307L'
p193
sg27
Nsba(ibclass
BInstr
p194
(dp195
g2
Nsg17
S'call    msg_test_52'
p196
sg19
S'e8f3f9ffff'
p197
sg21
Vcall 0xfffffffffffff9f8
p198
sg5
L647948L
sg6
Nsg23
S'call'
p199
sg25
S'0x9e30cL'
p200
sg27
Nsba(ibclass
BInstr
p201
(dp202
g2
Nsg17
S'test    al, al'
p203
sg19
S'84c0'
p204
sg21
Vtest al, al
p205
sg5
L647953L
sg6
Nsg23
S'test'
p206
sg25
S'0x9e311L'
p207
sg27
Nsba(ibclass
BInstr
p208
(dp209
g2
Nsg17
S'jz      short loc_9E332'
p210
sg19
S'741d'
p211
sg21
Vje 0x1f
p212
sg5
L647955L
sg6
Nsg23
S'jz'
p213
sg25
S'0x9e313L'
p214
sg27
Nsbasg147
(lp215
S'mov reg, 3000021h'
p216
aS'cregl msg_test_52'
p217
aS'test reg, reg'
p218
aS'jz func'
p219
asg167
Nsg5
S'0x9e307L'
p220
sg169
(lp221
S'0x9e2c2L'
p222
asg6
Nsg171
(lp223
S'0x9e315L'
p224
aS'0x9e332L'
p225
asg175
Nsg176
Nsg177
S'efa7c9619615046615ae01f40cf2737c'
p226
sg179
S'a7247ad898196d6871c731335dc5cc6f'
p227
sg181
(lp228
g192
ag199
ag206
ag213
asg183
Nsba(ibclass
BBasicBlock
p229
(dp230
g12
Nsg13
(lp231
(ibclass
BInstr
p232
(dp233
g2
Nsg17
S'mov     rax, [rbp+fieldname]'
p234
sg19
S'488b45c0'
p235
sg21
Vmov rax, qword ptr [rbp - 0x40]
p236
sg5
L647957L
sg6
Nsg23
S'mov'
p237
sg25
S'0x9e315L'
p238
sg27
Nsba(ibclass
BInstr
p239
(dp240
g2
Nsg17
S'mov     rdx, rax'
p241
sg19
S'4889c2'
p242
sg21
Vmov rdx, rax
p243
sg5
L647961L
sg6
Nsg23
S'mov'
p244
sg25
S'0x9e319L'
p245
sg27
Nsba(ibclass
BInstr
p246
(dp247
g2
Nsg17
S'lea     rsi, aErrorX509AltUs; "ERROR: --x509-alt-username field \'ext:%"...'
p248
sg19
S'488d3505ae0200'
p249
sg21
Vlea rsi, [rip + 0x2ae05]
p250
sg5
L647964L
sg6
Nsg23
S'lea'
p251
sg25
S'0x9e31cL'
p252
sg27
Nsba(ibclass
BInstr
p253
(dp254
g2
Nsg17
S'mov     edi, 3000021h   ; flags'
p255
sg19
S'bf21000003'
p256
sg21
Vmov edi, 0x3000021
p257
sg5
L647971L
sg6
Nsg23
S'mov'
p258
sg25
S'0x9e323L'
p259
sg27
Nsba(ibclass
BInstr
p260
(dp261
g2
Nsg17
S'mov     eax, 0'
p262
sg19
S'b800000000'
p263
sg21
Vmov eax, 0
p264
sg5
L647976L
sg6
Nsg23
S'mov'
p265
sg25
S'0x9e328L'
p266
sg27
Nsba(ibclass
BInstr
p267
(dp268
g2
Nsg17
S'call    x_msg'
p269
sg19
S'e86c9ff7ff'
p270
sg21
Vcall 0xfffffffffff79f71
p271
sg5
L647981L
sg6
Nsg23
S'call'
p272
sg25
S'0x9e32dL'
p273
sg27
Nsbasg147
(lp274
S'mov reg, mem'
p275
aS'mov reg, reg'
p276
aS'lea reg, aErrorX509AltUs'
p277
aS'mov reg, 3000021h'
p278
aS'mov reg, 0'
p279
aS'cregl x_msg'
p280
asg167
Nsg5
S'0x9e315L'
p281
sg169
(lp282
S'0x9e307L'
p283
asg6
Nsg171
(lp284
S'0x9e332L'
p285
asg175
Nsg176
Nsg177
S'31003f7d178b59d982df20659ab2143b'
p286
sg179
S'bb6ab7e2cf794ea8e94a7d29ca203cc8'
p287
sg181
(lp288
g237
ag244
ag251
ag258
ag265
ag272
asg183
Nsba(ibclass
BBasicBlock
p289
(dp290
g12
Nsg13
(lp291
(ibclass
BInstr
p292
(dp293
g2
Nsg17
S'mov     eax, 0'
p294
sg19
S'b800000000'
p295
sg21
Vmov eax, 0
p296
sg5
L647986L
sg6
Nsg23
S'mov'
p297
sg25
S'0x9e332L'
p298
sg27
Nsba(ibclass
BInstr
p299
(dp300
g2
Nsg17
S'jmp     loc_9E4A7'
p301
sg19
S'e96b010000'
p302
sg21
Vjmp 0x170
p303
sg5
L647991L
sg6
Nsg23
S'jmp'
p304
sg25
S'0x9e337L'
p305
sg27
Nsbasg147
(lp306
S'mov reg, 0'
p307
aS'jmp func'
p308
asg167
Nsg5
S'0x9e332L'
p309
sg169
(lp310
S'0x9e307L'
p311
aS'0x9e315L'
p312
asg6
Nsg171
(lp313
S'0x9e4a7L'
p314
asg175
Nsg176
Nsg177
S'8b9a0d40e062be2b9b2d9885108fb196'
p315
sg179
S'b9bc48935b5443504e35a59843f17cfd'
p316
sg181
(lp317
g297
ag304
asg183
Nsba(ibclass
BBasicBlock
p318
(dp319
g12
Nsg13
(lp320
(ibclass
BInstr
p321
(dp322
g2
Nsg17
S'mov     rax, [rbp+fieldname]'
p323
sg19
S'488b45c0'
p324
sg21
Vmov rax, qword ptr [rbp - 0x40]
p325
sg5
L647996L
sg6
Nsg23
S'mov'
p326
sg25
S'0x9e33cL'
p327
sg27
Nsba(ibclass
BInstr
p328
(dp329
g2
Nsg17
S'mov     rdi, rax'
p330
sg19
S'4889c7'
p331
sg21
Vmov rdi, rax
p332
sg5
L648000L
sg6
Nsg23
S'mov'
p333
sg25
S'0x9e340L'
p334
sg27
Nsba(ibclass
BInstr
p335
(dp336
g2
Nsg17
S'call    OBJ_txt2nid'
p337
sg19
S'e8c8b1f6ff'
p338
sg21
Vcall 0xfffffffffff6b1cd
p339
sg5
L648003L
sg6
Nsg23
S'call'
p340
sg25
S'0x9e343L'
p341
sg27
Nsba(ibclass
BInstr
p342
(dp343
g2
Nsg17
S'mov     [rbp+nid], eax'
p344
sg19
S'8945d8'
p345
sg21
Vmov dword ptr [rbp - 0x28], eax
p346
sg5
L648008L
sg6
Nsg23
S'mov'
p347
sg25
S'0x9e348L'
p348
sg27
Nsba(ibclass
BInstr
p349
(dp350
g2
Nsg17
S'mov     esi, [rbp+nid]'
p351
sg19
S'8b75d8'
p352
sg21
Vmov esi, dword ptr [rbp - 0x28]
p353
sg5
L648011L
sg6
Nsg23
S'mov'
p354
sg25
S'0x9e34bL'
p355
sg27
Nsba(ibclass
BInstr
p356
(dp357
g2
Nsg17
S'mov     rax, [rbp+cert]'
p358
sg19
S'488b45c8'
p359
sg21
Vmov rax, qword ptr [rbp - 0x38]
p360
sg5
L648014L
sg6
Nsg23
S'mov'
p361
sg25
S'0x9e34eL'
p362
sg27
Nsba(ibclass
BInstr
p363
(dp364
g2
Nsg17
S'mov     ecx, 0'
p365
sg19
S'b900000000'
p366
sg21
Vmov ecx, 0
p367
sg5
L648018L
sg6
Nsg23
S'mov'
p368
sg25
S'0x9e352L'
p369
sg27
Nsba(ibclass
BInstr
p370
(dp371
g2
Nsg17
S'mov     edx, 0'
p372
sg19
S'ba00000000'
p373
sg21
Vmov edx, 0
p374
sg5
L648023L
sg6
Nsg23
S'mov'
p375
sg25
S'0x9e357L'
p376
sg27
Nsba(ibclass
BInstr
p377
(dp378
g2
Nsg17
S'mov     rdi, rax'
p379
sg19
S'4889c7'
p380
sg21
Vmov rdi, rax
p381
sg5
L648028L
sg6
Nsg23
S'mov'
p382
sg25
S'0x9e35cL'
p383
sg27
Nsba(ibclass
BInstr
p384
(dp385
g2
Nsg17
S'call    X509_get_ext_d2i'
p386
sg19
S'e894b1f6ff'
p387
sg21
Vcall 0xfffffffffff6b199
p388
sg5
L648031L
sg6
Nsg23
S'call'
p389
sg25
S'0x9e35fL'
p390
sg27
Nsba(ibclass
BInstr
p391
(dp392
g2
Nsg17
S'mov     [rbp+extensions], rax'
p393
sg19
S'488945e8'
p394
sg21
Vmov qword ptr [rbp - 0x18], rax
p395
sg5
L648036L
sg6
Nsg23
S'mov'
p396
sg25
S'0x9e364L'
p397
sg27
Nsba(ibclass
BInstr
p398
(dp399
g2
Nsg17
S'cmp     [rbp+extensions], 0'
p400
sg19
S'48837de800'
p401
sg21
Vcmp qword ptr [rbp - 0x18], 0
p402
sg5
L648040L
sg6
Nsg23
S'cmp'
p403
sg25
S'0x9e368L'
p404
sg27
Nsba(ibclass
BInstr
p405
(dp406
g2
Nsg17
S'jz      loc_9E4A3'
p407
sg19
S'0f8430010000'
p408
sg21
Vje 0x136
p409
sg5
L648045L
sg6
Nsg23
S'jz'
p410
sg25
S'0x9e36dL'
p411
sg27
Nsbasg147
(lp412
S'mov reg, mem'
p413
aS'mov reg, reg'
p414
aS'cregl OBJ_txt2nid'
p415
aS'mov mem, reg'
p416
aS'mov reg, mem'
p417
aS'mov reg, mem'
p418
aS'mov reg, 0'
p419
aS'mov reg, 0'
p420
aS'mov reg, reg'
p421
aS'cregl X509_get_ext_d2i'
p422
aS'mov mem, reg'
p423
aS'cmp mem, 0'
p424
aS'jz func'
p425
asg167
Nsg5
S'0x9e33cL'
p426
sg169
(lp427
S'0x9e2c2L'
p428
asg6
Nsg171
(lp429
S'0x9e373L'
p430
aS'0x9e4a3L'
p431
asg175
Nsg176
Nsg177
S'b219fc7c4f0a9d83c1e1295a71173ec2'
p432
sg179
S'0fbd04f104d0ee42238ca9466bb3dbdb'
p433
sg181
(lp434
g326
ag333
ag340
ag347
ag354
ag361
ag368
ag375
ag382
ag389
ag396
ag403
ag410
asg183
Nsba(ibclass
BBasicBlock
p435
(dp436
g12
Nsg13
(lp437
(ibclass
BInstr
p438
(dp439
g2
Nsg17
S'mov     rax, [rbp+extensions]'
p440
sg19
S'488b45e8'
p441
sg21
Vmov rax, qword ptr [rbp - 0x18]
p442
sg5
L648051L
sg6
Nsg23
S'mov'
p443
sg25
S'0x9e373L'
p444
sg27
Nsba(ibclass
BInstr
p445
(dp446
g2
Nsg17
S'mov     rdi, rax'
p447
sg19
S'4889c7'
p448
sg21
Vmov rdi, rax
p449
sg5
L648055L
sg6
Nsg23
S'mov'
p450
sg25
S'0x9e377L'
p451
sg27
Nsba(ibclass
BInstr
p452
(dp453
g2
Nsg17
S'call    sk_num'
p454
sg19
S'e8c1b4f6ff'
p455
sg21
Vcall 0xfffffffffff6b4c6
p456
sg5
L648058L
sg6
Nsg23
S'call'
p457
sg25
S'0x9e37aL'
p458
sg27
Nsba(ibclass
BInstr
p459
(dp460
g2
Nsg17
S'mov     [rbp+numalts], eax'
p461
sg19
S'8945dc'
p462
sg21
Vmov dword ptr [rbp - 0x24], eax
p463
sg5
L648063L
sg6
Nsg23
S'mov'
p464
sg25
S'0x9e37fL'
p465
sg27
Nsba(ibclass
BInstr
p466
(dp467
g2
Nsg17
S'mov     [rbp+i], 0'
p468
sg19
S'c745d400000000'
p469
sg21
Vmov dword ptr [rbp - 0x2c], 0
p470
sg5
L648066L
sg6
Nsg23
S'mov'
p471
sg25
S'0x9e382L'
p472
sg27
Nsba(ibclass
BInstr
p473
(dp474
g2
Nsg17
S'jmp     loc_9E48B'
p475
sg19
S'e9fd000000'
p476
sg21
Vjmp 0x102
p477
sg5
L648073L
sg6
Nsg23
S'jmp'
p478
sg25
S'0x9e389L'
p479
sg27
Nsbasg147
(lp480
S'mov reg, mem'
p481
aS'mov reg, reg'
p482
aS'cregl sk_num'
p483
aS'mov mem, reg'
p484
aS'mov mem, 0'
p485
aS'jmp func'
p486
asg167
Nsg5
S'0x9e373L'
p487
sg169
(lp488
S'0x9e33cL'
p489
asg6
Nsg171
(lp490
S'0x9e48bL'
p491
asg175
Nsg176
Nsg177
S'41ab5c28ec510e6a50b3169afec83ed7'
p492
sg179
S'4736166df4a6b9a88b5c0ccd8778f8cc'
p493
sg181
(lp494
g443
ag450
ag457
ag464
ag471
ag478
asg183
Nsba(ibclass
BBasicBlock
p495
(dp496
g12
Nsg13
(lp497
(ibclass
BInstr
p498
(dp499
g2
Nsg17
S'mov     edx, [rbp+i]'
p500
sg19
S'8b55d4'
p501
sg21
Vmov edx, dword ptr [rbp - 0x2c]
p502
sg5
L648078L
sg6
Nsg23
S'mov'
p503
sg25
S'0x9e38eL'
p504
sg27
Nsba(ibclass
BInstr
p505
(dp506
g2
Nsg17
S'mov     rax, [rbp+extensions]'
p507
sg19
S'488b45e8'
p508
sg21
Vmov rax, qword ptr [rbp - 0x18]
p509
sg5
L648081L
sg6
Nsg23
S'mov'
p510
sg25
S'0x9e391L'
p511
sg27
Nsba(ibclass
BInstr
p512
(dp513
g2
Nsg17
S'mov     esi, edx'
p514
sg19
S'89d6'
p515
sg21
Vmov esi, edx
p516
sg5
L648085L
sg6
Nsg23
S'mov'
p517
sg25
S'0x9e395L'
p518
sg27
Nsba(ibclass
BInstr
p519
(dp520
g2
Nsg17
S'mov     rdi, rax'
p521
sg19
S'4889c7'
p522
sg21
Vmov rdi, rax
p523
sg5
L648087L
sg6
Nsg23
S'mov'
p524
sg25
S'0x9e397L'
p525
sg27
Nsba(ibclass
BInstr
p526
(dp527
g2
Nsg17
S'call    sk_value'
p528
sg19
S'e869b7f6ff'
p529
sg21
Vcall 0xfffffffffff6b76e
p530
sg5
L648090L
sg6
Nsg23
S'call'
p531
sg25
S'0x9e39aL'
p532
sg27
Nsba(ibclass
BInstr
p533
(dp534
g2
Nsg17
S'mov     [rbp+name], rax'
p535
sg19
S'488945f0'
p536
sg21
Vmov qword ptr [rbp - 0x10], rax
p537
sg5
L648095L
sg6
Nsg23
S'mov'
p538
sg25
S'0x9e39fL'
p539
sg27
Nsba(ibclass
BInstr
p540
(dp541
g2
Nsg17
S'mov     rax, [rbp+name]'
p542
sg19
S'488b45f0'
p543
sg21
Vmov rax, qword ptr [rbp - 0x10]
p544
sg5
L648099L
sg6
Nsg23
S'mov'
p545
sg25
S'0x9e3a3L'
p546
sg27
Nsba(ibclass
BInstr
p547
(dp548
g2
Nsg17
S'mov     eax, [rax]'
p549
sg19
S'8b00'
p550
sg21
Vmov eax, dword ptr [rax]
p551
sg5
L648103L
sg6
Nsg23
S'mov'
p552
sg25
S'0x9e3a7L'
p553
sg27
Nsba(ibclass
BInstr
p554
(dp555
g2
Nsg17
S'cmp     eax, 1'
p556
sg19
S'83f801'
p557
sg21
Vcmp eax, 1
p558
sg5
L648105L
sg6
Nsg23
S'cmp'
p559
sg25
S'0x9e3a9L'
p560
sg27
Nsba(ibclass
BInstr
p561
(dp562
g2
Nsg17
S'jnz     loc_9E44E'
p563
sg19
S'0f859c000000'
p564
sg21
Vjne 0xa2
p565
sg5
L648108L
sg6
Nsg23
S'jnz'
p566
sg25
S'0x9e3acL'
p567
sg27
Nsbasg147
(lp568
S'mov reg, mem'
p569
aS'mov reg, mem'
p570
aS'mov reg, reg'
p571
aS'mov reg, reg'
p572
aS'cregl sk_vregue'
p573
aS'mov mem, reg'
p574
aS'mov reg, mem'
p575
aS'mov reg, mem'
p576
aS'cmp reg, 1'
p577
aS'jnz func'
p578
asg167
Nsg5
S'0x9e38eL'
p579
sg169
(lp580
S'0x9e48bL'
p581
asg6
Nsg171
(lp582
S'0x9e3b2L'
p583
aS'0x9e44eL'
p584
asg175
Nsg176
Nsg177
S'4af83e277f711def2b2f4e4e7fbd4b1d'
p585
sg179
S'022e49e199f478e405d942ca51ef22c0'
p586
sg181
(lp587
g503
ag510
ag517
ag524
ag531
ag538
ag545
ag552
ag559
ag566
asg183
Nsba(ibclass
BBasicBlock
p588
(dp589
g12
Nsg13
(lp590
(ibclass
BInstr
p591
(dp592
g2
Nsg17
S'mov     rax, [rbp+name]'
p593
sg19
S'488b45f0'
p594
sg21
Vmov rax, qword ptr [rbp - 0x10]
p595
sg5
L648114L
sg6
Nsg23
S'mov'
p596
sg25
S'0x9e3b2L'
p597
sg27
Nsba(ibclass
BInstr
p598
(dp599
g2
Nsg17
S'mov     rdx, [rax+8]'
p600
sg19
S'488b5008'
p601
sg21
Vmov rdx, qword ptr [rax + 8]
p602
sg5
L648118L
sg6
Nsg23
S'mov'
p603
sg25
S'0x9e3b6L'
p604
sg27
Nsba(ibclass
BInstr
p605
(dp606
g2
Nsg17
S'lea     rax, [rbp+buf]'
p607
sg19
S'488d45e0'
p608
sg21
Vlea rax, [rbp - 0x20]
p609
sg5
L648122L
sg6
Nsg23
S'lea'
p610
sg25
S'0x9e3baL'
p611
sg27
Nsba(ibclass
BInstr
p612
(dp613
g2
Nsg17
S'mov     rsi, rdx'
p614
sg19
S'4889d6'
p615
sg21
Vmov rsi, rdx
p616
sg5
L648126L
sg6
Nsg23
S'mov'
p617
sg25
S'0x9e3beL'
p618
sg27
Nsba(ibclass
BInstr
p619
(dp620
g2
Nsg17
S'mov     rdi, rax'
p621
sg19
S'4889c7'
p622
sg21
Vmov rdi, rax
p623
sg5
L648129L
sg6
Nsg23
S'mov'
p624
sg25
S'0x9e3c1L'
p625
sg27
Nsba(ibclass
BInstr
p626
(dp627
g2
Nsg17
S'call    ASN1_STRING_to_UTF8'
p628
sg19
S'e8bfb0f6ff'
p629
sg21
Vcall 0xfffffffffff6b0c4
p630
sg5
L648132L
sg6
Nsg23
S'call'
p631
sg25
S'0x9e3c4L'
p632
sg27
Nsba(ibclass
BInstr
p633
(dp634
g2
Nsg17
S'test    eax, eax'
p635
sg19
S'85c0'
p636
sg21
Vtest eax, eax
p637
sg5
L648137L
sg6
Nsg23
S'test'
p638
sg25
S'0x9e3c9L'
p639
sg27
Nsba(ibclass
BInstr
p640
(dp641
g2
Nsg17
S'js      loc_9E483'
p642
sg19
S'0f88b2000000'
p643
sg21
Vjs 0xb8
p644
sg5
L648139L
sg6
Nsg23
S'js'
p645
sg25
S'0x9e3cbL'
p646
sg27
Nsbasg147
(lp647
S'mov reg, mem'
p648
aS'mov reg, mem'
p649
aS'lea reg, mem'
p650
aS'mov reg, reg'
p651
aS'mov reg, reg'
p652
aS'cregl ASN1_STRING_to_UTF8'
p653
aS'test reg, reg'
p654
aS'js func'
p655
asg167
Nsg5
S'0x9e3b2L'
p656
sg169
(lp657
S'0x9e38eL'
p658
asg6
Nsg171
(lp659
S'0x9e3d1L'
p660
aS'0x9e483L'
p661
asg175
Nsg176
Nsg177
S'3394875957755591a6e7bac06bb18a8b'
p662
sg179
S'26d9b0fffd66ec9be01b74bd4abb2d2a'
p663
sg181
(lp664
g596
ag603
ag610
ag617
ag624
ag631
ag638
ag645
asg183
Nsba(ibclass
BBasicBlock
p665
(dp666
g12
Nsg13
(lp667
(ibclass
BInstr
p668
(dp669
g2
Nsg17
S'mov     rax, [rbp+buf]'
p670
sg19
S'488b45e0'
p671
sg21
Vmov rax, qword ptr [rbp - 0x20]
p672
sg5
L648145L
sg6
Nsg23
S'mov'
p673
sg25
S'0x9e3d1L'
p674
sg27
Nsba(ibclass
BInstr
p675
(dp676
g2
Nsg17
S'mov     rdi, rax        ; s'
p677
sg19
S'4889c7'
p678
sg21
Vmov rdi, rax
p679
sg5
L648149L
sg6
Nsg23
S'mov'
p680
sg25
S'0x9e3d5L'
p681
sg27
Nsba(ibclass
BInstr
p682
(dp683
g2
Nsg17
S'call    strlen'
p684
sg19
S'e853b1f6ff'
p685
sg21
Vcall 0xfffffffffff6b158
p686
sg5
L648152L
sg6
Nsg23
S'call'
p687
sg25
S'0x9e3d8L'
p688
sg27
Nsba(ibclass
BInstr
p689
(dp690
g2
Nsg17
S'mov     rdx, rax'
p691
sg19
S'4889c2'
p692
sg21
Vmov rdx, rax
p693
sg5
L648157L
sg6
Nsg23
S'mov'
p694
sg25
S'0x9e3ddL'
p695
sg27
Nsba(ibclass
BInstr
p696
(dp697
g2
Nsg17
S'mov     rax, [rbp+name]'
p698
sg19
S'488b45f0'
p699
sg21
Vmov rax, qword ptr [rbp - 0x10]
p700
sg5
L648160L
sg6
Nsg23
S'mov'
p701
sg25
S'0x9e3e0L'
p702
sg27
Nsba(ibclass
BInstr
p703
(dp704
g2
Nsg17
S'mov     rax, [rax+8]'
p705
sg19
S'488b4008'
p706
sg21
Vmov rax, qword ptr [rax + 8]
p707
sg5
L648164L
sg6
Nsg23
S'mov'
p708
sg25
S'0x9e3e4L'
p709
sg27
Nsba(ibclass
BInstr
p710
(dp711
g2
Nsg17
S'mov     eax, [rax]'
p712
sg19
S'8b00'
p713
sg21
Vmov eax, dword ptr [rax]
p714
sg5
L648168L
sg6
Nsg23
S'mov'
p715
sg25
S'0x9e3e8L'
p716
sg27
Nsba(ibclass
BInstr
p717
(dp718
g2
Nsg17
S'cdqe'
p719
sg19
S'4898'
p720
sg21
Vcdqe 
p721
sg5
L648170L
sg6
Nsg23
S'cdqe'
p722
sg25
S'0x9e3eaL'
p723
sg27
Nsba(ibclass
BInstr
p724
(dp725
g2
Nsg17
S'cmp     rdx, rax'
p726
sg19
S'4839c2'
p727
sg21
Vcmp rdx, rax
p728
sg5
L648172L
sg6
Nsg23
S'cmp'
p729
sg25
S'0x9e3ecL'
p730
sg27
Nsba(ibclass
BInstr
p731
(dp732
g2
Nsg17
S'jz      short loc_9E423'
p733
sg19
S'7432'
p734
sg21
Vje 0x34
p735
sg5
L648175L
sg6
Nsg23
S'jz'
p736
sg25
S'0x9e3efL'
p737
sg27
Nsbasg147
(lp738
S'mov reg, mem'
p739
aS'mov reg, reg'
p740
aS'cregl strlen'
p741
aS'mov reg, reg'
p742
aS'mov reg, mem'
p743
aS'mov reg, mem'
p744
aS'mov reg, mem'
p745
ag719
aS'cmp reg, reg'
p746
aS'jz func'
p747
asg167
Nsg5
S'0x9e3d1L'
p748
sg169
(lp749
S'0x9e3b2L'
p750
asg6
Nsg171
(lp751
S'0x9e3f1L'
p752
aS'0x9e423L'
p753
asg175
Nsg176
Nsg177
S'e768e5c06729efcec075c3ded8b8dbfb'
p754
sg179
S'cee441686e86400cefd2ccd2a4caf050'
p755
sg181
(lp756
g673
ag680
ag687
ag694
ag701
ag708
ag715
ag722
ag729
ag736
asg183
Nsba(ibclass
BBasicBlock
p757
(dp758
g12
Nsg13
(lp759
(ibclass
BInstr
p760
(dp761
g2
Nsg17
S'mov     edi, 3000021h   ; flags'
p762
sg19
S'bf21000003'
p763
sg21
Vmov edi, 0x3000021
p764
sg5
L648177L
sg6
Nsg23
S'mov'
p765
sg25
S'0x9e3f1L'
p766
sg27
Nsba(ibclass
BInstr
p767
(dp768
g2
Nsg17
S'call    msg_test_52'
p769
sg19
S'e809f9ffff'
p770
sg21
Vcall 0xfffffffffffff90e
p771
sg5
L648182L
sg6
Nsg23
S'call'
p772
sg25
S'0x9e3f6L'
p773
sg27
Nsba(ibclass
BInstr
p774
(dp775
g2
Nsg17
S'test    al, al'
p776
sg19
S'84c0'
p777
sg21
Vtest al, al
p778
sg5
L648187L
sg6
Nsg23
S'test'
p779
sg25
S'0x9e3fbL'
p780
sg27
Nsba(ibclass
BInstr
p781
(dp782
g2
Nsg17
S'jz      short loc_9E415'
p783
sg19
S'7416'
p784
sg21
Vje 0x18
p785
sg5
L648189L
sg6
Nsg23
S'jz'
p786
sg25
S'0x9e3fdL'
p787
sg27
Nsbasg147
(lp788
S'mov reg, 3000021h'
p789
aS'cregl msg_test_52'
p790
aS'test reg, reg'
p791
aS'jz func'
p792
asg167
Nsg5
S'0x9e3f1L'
p793
sg169
(lp794
S'0x9e3d1L'
p795
asg6
Nsg171
(lp796
S'0x9e3ffL'
p797
aS'0x9e415L'
p798
asg175
Nsg176
Nsg177
S'efa7c9619615046615ae01f40cf2737c'
p799
sg179
S'a7247ad898196d6871c731335dc5cc6f'
p800
sg181
(lp801
g765
ag772
ag779
ag786
asg183
Nsba(ibclass
BBasicBlock
p802
(dp803
g12
Nsg13
(lp804
(ibclass
BInstr
p805
(dp806
g2
Nsg17
S'lea     rsi, aAsn1ErrorStrin; "ASN1 ERROR: string contained terminatin"...'
p807
sg19
S'488d355aad0200'
p808
sg21
Vlea rsi, [rip + 0x2ad5a]
p809
sg5
L648191L
sg6
Nsg23
S'lea'
p810
sg25
S'0x9e3ffL'
p811
sg27
Nsba(ibclass
BInstr
p812
(dp813
g2
Nsg17
S'mov     edi, 3000021h   ; flags'
p814
sg19
S'bf21000003'
p815
sg21
Vmov edi, 0x3000021
p816
sg5
L648198L
sg6
Nsg23
S'mov'
p817
sg25
S'0x9e406L'
p818
sg27
Nsba(ibclass
BInstr
p819
(dp820
g2
Nsg17
S'mov     eax, 0'
p821
sg19
S'b800000000'
p822
sg21
Vmov eax, 0
p823
sg5
L648203L
sg6
Nsg23
S'mov'
p824
sg25
S'0x9e40bL'
p825
sg27
Nsba(ibclass
BInstr
p826
(dp827
g2
Nsg17
S'call    x_msg'
p828
sg19
S'e8899ef7ff'
p829
sg21
Vcall 0xfffffffffff79e8e
p830
sg5
L648208L
sg6
Nsg23
S'call'
p831
sg25
S'0x9e410L'
p832
sg27
Nsbasg147
(lp833
S'lea reg, aAsn1ErrorStrin'
p834
aS'mov reg, 3000021h'
p835
aS'mov reg, 0'
p836
aS'cregl x_msg'
p837
asg167
Nsg5
S'0x9e3ffL'
p838
sg169
(lp839
S'0x9e3f1L'
p840
asg6
Nsg171
(lp841
S'0x9e415L'
p842
asg175
Nsg176
Nsg177
S'e7cfdf38c2bee06623fca0d241d4157d'
p843
sg179
S'bcdf01d7f2f6918a4709ea1615a82e23'
p844
sg181
(lp845
g810
ag817
ag824
ag831
asg183
Nsba(ibclass
BBasicBlock
p846
(dp847
g12
Nsg13
(lp848
(ibclass
BInstr
p849
(dp850
g2
Nsg17
S'mov     rax, [rbp+buf]'
p851
sg19
S'488b45e0'
p852
sg21
Vmov rax, qword ptr [rbp - 0x20]
p853
sg5
L648213L
sg6
Nsg23
S'mov'
p854
sg25
S'0x9e415L'
p855
sg27
Nsba(ibclass
BInstr
p856
(dp857
g2
Nsg17
S'mov     rdi, rax'
p858
sg19
S'4889c7'
p859
sg21
Vmov rdi, rax
p860
sg5
L648217L
sg6
Nsg23
S'mov'
p861
sg25
S'0x9e419L'
p862
sg27
Nsba(ibclass
BInstr
p863
(dp864
g2
Nsg17
S'call    CRYPTO_free'
p865
sg19
S'e8efb5f6ff'
p866
sg21
Vcall 0xfffffffffff6b5f4
p867
sg5
L648220L
sg6
Nsg23
S'call'
p868
sg25
S'0x9e41cL'
p869
sg27
Nsba(ibclass
BInstr
p870
(dp871
g2
Nsg17
S'jmp     short loc_9E487'
p872
sg19
S'eb64'
p873
sg21
Vjmp 0x66
p874
sg5
L648225L
sg6
Nsg23
S'jmp'
p875
sg25
S'0x9e421L'
p876
sg27
Nsbasg147
(lp877
S'mov reg, mem'
p878
aS'mov reg, reg'
p879
aS'cregl CRYPTO_free'
p880
aS'jmp func'
p881
asg167
Nsg5
S'0x9e415L'
p882
sg169
(lp883
S'0x9e3f1L'
p884
aS'0x9e3ffL'
p885
asg6
Nsg171
(lp886
S'0x9e487L'
p887
asg175
Nsg176
Nsg177
S'21359965f3b3ac9d057fd4a2b03f927b'
p888
sg179
S'59397cde4f1fb97fb30598e0ee3be5d1'
p889
sg181
(lp890
g854
ag861
ag868
ag875
asg183
Nsba(ibclass
BBasicBlock
p891
(dp892
g12
Nsg13
(lp893
(ibclass
BInstr
p894
(dp895
g2
Nsg17
S'mov     eax, [rbp+size]'
p896
sg19
S'8b45b4'
p897
sg21
Vmov eax, dword ptr [rbp - 0x4c]
p898
sg5
L648227L
sg6
Nsg23
S'mov'
p899
sg25
S'0x9e423L'
p900
sg27
Nsba(ibclass
BInstr
p901
(dp902
g2
Nsg17
S'movsxd  rdx, eax        ; maxlen'
p903
sg19
S'4863d0'
p904
sg21
Vmovsxd rdx, eax
p905
sg5
L648230L
sg6
Nsg23
S'movsxd'
p906
sg25
S'0x9e426L'
p907
sg27
Nsba(ibclass
BInstr
p908
(dp909
g2
Nsg17
S'mov     rcx, [rbp+buf]'
p910
sg19
S'488b4de0'
p911
sg21
Vmov rcx, qword ptr [rbp - 0x20]
p912
sg5
L648233L
sg6
Nsg23
S'mov'
p913
sg25
S'0x9e429L'
p914
sg27
Nsba(ibclass
BInstr
p915
(dp916
g2
Nsg17
S'mov     rax, [rbp+out]'
p917
sg19
S'488b45b8'
p918
sg21
Vmov rax, qword ptr [rbp - 0x48]
p919
sg5
L648237L
sg6
Nsg23
S'mov'
p920
sg25
S'0x9e42dL'
p921
sg27
Nsba(ibclass
BInstr
p922
(dp923
g2
Nsg17
S'mov     rsi, rcx        ; src'
p924
sg19
S'4889ce'
p925
sg21
Vmov rsi, rcx
p926
sg5
L648241L
sg6
Nsg23
S'mov'
p927
sg25
S'0x9e431L'
p928
sg27
Nsba(ibclass
BInstr
p929
(dp930
g2
Nsg17
S'mov     rdi, rax        ; dest'
p931
sg19
S'4889c7'
p932
sg21
Vmov rdi, rax
p933
sg5
L648244L
sg6
Nsg23
S'mov'
p934
sg25
S'0x9e434L'
p935
sg27
Nsba(ibclass
BInstr
p936
(dp937
g2
Nsg17
S'call    strncpynt_12'
p938
sg19
S'e805faffff'
p939
sg21
Vcall 0xfffffffffffffa0a
p940
sg5
L648247L
sg6
Nsg23
S'call'
p941
sg25
S'0x9e437L'
p942
sg27
Nsba(ibclass
BInstr
p943
(dp944
g2
Nsg17
S'mov     rax, [rbp+buf]'
p945
sg19
S'488b45e0'
p946
sg21
Vmov rax, qword ptr [rbp - 0x20]
p947
sg5
L648252L
sg6
Nsg23
S'mov'
p948
sg25
S'0x9e43cL'
p949
sg27
Nsba(ibclass
BInstr
p950
(dp951
g2
Nsg17
S'mov     rdi, rax'
p952
sg19
S'4889c7'
p953
sg21
Vmov rdi, rax
p954
sg5
L648256L
sg6
Nsg23
S'mov'
p955
sg25
S'0x9e440L'
p956
sg27
Nsba(ibclass
BInstr
p957
(dp958
g2
Nsg17
S'call    CRYPTO_free'
p959
sg19
S'e8c8b5f6ff'
p960
sg21
Vcall 0xfffffffffff6b5cd
p961
sg5
L648259L
sg6
Nsg23
S'call'
p962
sg25
S'0x9e443L'
p963
sg27
Nsba(ibclass
BInstr
p964
(dp965
g2
Nsg17
S'mov     [rbp+retval], 1'
p966
sg19
S'c645d301'
p967
sg21
Vmov byte ptr [rbp - 0x2d], 1
p968
sg5
L648264L
sg6
Nsg23
S'mov'
p969
sg25
S'0x9e448L'
p970
sg27
Nsba(ibclass
BInstr
p971
(dp972
g2
Nsg17
S'jmp     short loc_9E487'
p973
sg19
S'eb39'
p974
sg21
Vjmp 0x3b
p975
sg5
L648268L
sg6
Nsg23
S'jmp'
p976
sg25
S'0x9e44cL'
p977
sg27
Nsbasg147
(lp978
S'mov reg, mem'
p979
aS'movsxd reg, reg'
p980
aS'mov reg, mem'
p981
aS'mov reg, mem'
p982
aS'mov reg, reg'
p983
aS'mov reg, reg'
p984
aS'cregl strncpynt_12'
p985
aS'mov reg, mem'
p986
aS'mov reg, reg'
p987
aS'cregl CRYPTO_free'
p988
aS'mov mem, 1'
p989
aS'jmp func'
p990
asg167
Nsg5
S'0x9e423L'
p991
sg169
(lp992
S'0x9e3d1L'
p993
asg6
Nsg171
(lp994
S'0x9e487L'
p995
asg175
Nsg176
Nsg177
S'd174dc41b93bf4559a4f34c779c40776'
p996
sg179
S'0434539c372b7594a0d50860baa2f287'
p997
sg181
(lp998
g899
ag906
ag913
ag920
ag927
ag934
ag941
ag948
ag955
ag962
ag969
ag976
asg183
Nsba(ibclass
BBasicBlock
p999
(dp1000
g12
Nsg13
(lp1001
(ibclass
BInstr
p1002
(dp1003
g2
Nsg17
S'mov     edi, 46000089h  ; flags'
p1004
sg19
S'bf89000046'
p1005
sg21
Vmov edi, 0x46000089
p1006
sg5
L648270L
sg6
Nsg23
S'mov'
p1007
sg25
S'0x9e44eL'
p1008
sg27
Nsba(ibclass
BInstr
p1009
(dp1010
g2
Nsg17
S'call    msg_test_52'
p1011
sg19
S'e8acf8ffff'
p1012
sg21
Vcall 0xfffffffffffff8b1
p1013
sg5
L648275L
sg6
Nsg23
S'call'
p1014
sg25
S'0x9e453L'
p1015
sg27
Nsba(ibclass
BInstr
p1016
(dp1017
g2
Nsg17
S'test    al, al'
p1018
sg19
S'84c0'
p1019
sg21
Vtest al, al
p1020
sg5
L648280L
sg6
Nsg23
S'test'
p1021
sg25
S'0x9e458L'
p1022
sg27
Nsba(ibclass
BInstr
p1023
(dp1024
g2
Nsg17
S'jz      short loc_9E486'
p1025
sg19
S'742a'
p1026
sg21
Vje 0x2c
p1027
sg5
L648282L
sg6
Nsg23
S'jz'
p1028
sg25
S'0x9e45aL'
p1029
sg27
Nsbasg147
(lp1030
S'mov reg, 46000089h'
p1031
aS'cregl msg_test_52'
p1032
aS'test reg, reg'
p1033
aS'jz func'
p1034
asg167
Nsg5
S'0x9e44eL'
p1035
sg169
(lp1036
S'0x9e38eL'
p1037
asg6
Nsg171
(lp1038
S'0x9e45cL'
p1039
aS'0x9e486L'
p1040
asg175
Nsg176
Nsg177
S'efa7c9619615046615ae01f40cf2737c'
p1041
sg179
S'830d5c5b5eab192d9200c10059791302'
p1042
sg181
(lp1043
g1007
ag1014
ag1021
ag1028
asg183
Nsba(ibclass
BBasicBlock
p1044
(dp1045
g12
Nsg13
(lp1046
(ibclass
BInstr
p1047
(dp1048
g2
Nsg17
S'mov     rax, [rbp+name]'
p1049
sg19
S'488b45f0'
p1050
sg21
Vmov rax, qword ptr [rbp - 0x10]
p1051
sg5
L648284L
sg6
Nsg23
S'mov'
p1052
sg25
S'0x9e45cL'
p1053
sg27
Nsba(ibclass
BInstr
p1054
(dp1055
g2
Nsg17
S'mov     eax, [rax]'
p1056
sg19
S'8b00'
p1057
sg21
Vmov eax, dword ptr [rax]
p1058
sg5
L648288L
sg6
Nsg23
S'mov'
p1059
sg25
S'0x9e460L'
p1060
sg27
Nsba(ibclass
BInstr
p1061
(dp1062
g2
Nsg17
S'mov     ecx, eax'
p1063
sg19
S'89c1'
p1064
sg21
Vmov ecx, eax
p1065
sg5
L648290L
sg6
Nsg23
S'mov'
p1066
sg25
S'0x9e462L'
p1067
sg27
Nsba(ibclass
BInstr
p1068
(dp1069
g2
Nsg17
S'lea     rdx, __func___24093; "extract_x509_extension"'
p1070
sg19
S'488d15c5b00200'
p1071
sg21
Vlea rdx, [rip + 0x2b0c5]
p1072
sg5
L648292L
sg6
Nsg23
S'lea'
p1073
sg25
S'0x9e464L'
p1074
sg27
Nsba(ibclass
BInstr
p1075
(dp1076
g2
Nsg17
S'lea     rsi, aSIgnoringGener; "%s: ignoring general name field type %i"'
p1077
sg19
S'488d351ead0200'
p1078
sg21
Vlea rsi, [rip + 0x2ad1e]
p1079
sg5
L648299L
sg6
Nsg23
S'lea'
p1080
sg25
S'0x9e46bL'
p1081
sg27
Nsba(ibclass
BInstr
p1082
(dp1083
g2
Nsg17
S'mov     edi, 46000089h  ; flags'
p1084
sg19
S'bf89000046'
p1085
sg21
Vmov edi, 0x46000089
p1086
sg5
L648306L
sg6
Nsg23
S'mov'
p1087
sg25
S'0x9e472L'
p1088
sg27
Nsba(ibclass
BInstr
p1089
(dp1090
g2
Nsg17
S'mov     eax, 0'
p1091
sg19
S'b800000000'
p1092
sg21
Vmov eax, 0
p1093
sg5
L648311L
sg6
Nsg23
S'mov'
p1094
sg25
S'0x9e477L'
p1095
sg27
Nsba(ibclass
BInstr
p1096
(dp1097
g2
Nsg17
S'call    x_msg'
p1098
sg19
S'e81d9ef7ff'
p1099
sg21
Vcall 0xfffffffffff79e22
p1100
sg5
L648316L
sg6
Nsg23
S'call'
p1101
sg25
S'0x9e47cL'
p1102
sg27
Nsba(ibclass
BInstr
p1103
(dp1104
g2
Nsg17
S'jmp     short loc_9E486'
p1105
sg19
S'eb03'
p1106
sg21
Vjmp 5
p1107
sg5
L648321L
sg6
Nsg23
S'jmp'
p1108
sg25
S'0x9e481L'
p1109
sg27
Nsbasg147
(lp1110
S'mov reg, mem'
p1111
aS'mov reg, mem'
p1112
aS'mov reg, reg'
p1113
aS'lea reg, __func___24093'
p1114
aS'lea reg, aSIgnoringGener'
p1115
aS'mov reg, 46000089h'
p1116
aS'mov reg, 0'
p1117
aS'cregl x_msg'
p1118
aS'jmp func'
p1119
asg167
Nsg5
S'0x9e45cL'
p1120
sg169
(lp1121
S'0x9e44eL'
p1122
asg6
Nsg171
(lp1123
S'0x9e486L'
p1124
asg175
Nsg176
Nsg177
S'd55604024cb68fce1eefede6fea8d474'
p1125
sg179
S'69f9253ca283151f3b097fd294c3fc38'
p1126
sg181
(lp1127
g1052
ag1059
ag1066
ag1073
ag1080
ag1087
ag1094
ag1101
ag1108
asg183
Nsba(ibclass
BBasicBlock
p1128
(dp1129
g12
Nsg13
(lp1130
(ibclass
BInstr
p1131
(dp1132
g2
Nsg17
S'nop'
p1133
sg19
S'90'
p1134
sg21
Vnop 
p1135
sg5
L648323L
sg6
Nsg23
S'nop'
p1136
sg25
S'0x9e483L'
p1137
sg27
Nsba(ibclass
BInstr
p1138
(dp1139
g2
Nsg17
S'jmp     short loc_9E487'
p1140
sg19
S'eb01'
p1141
sg21
Vjmp 3
p1142
sg5
L648324L
sg6
Nsg23
S'jmp'
p1143
sg25
S'0x9e484L'
p1144
sg27
Nsbasg147
(lp1145
g1133
aS'jmp func'
p1146
asg167
Nsg5
S'0x9e483L'
p1147
sg169
(lp1148
S'0x9e3b2L'
p1149
asg6
Nsg171
(lp1150
S'0x9e487L'
p1151
asg175
Nsg176
Nsg177
S'217d062bc83dd33b9e09691126db1c76'
p1152
sg179
S'cb8109f184dcbcbce6890ff6282c896b'
p1153
sg181
(lp1154
g1136
ag1143
asg183
Nsba(ibclass
BBasicBlock
p1155
(dp1156
g12
Nsg13
(lp1157
(ibclass
BInstr
p1158
(dp1159
g2
Nsg17
S'nop'
p1160
sg19
S'90'
p1161
sg21
Vnop 
p1162
sg5
L648326L
sg6
Nsg23
S'nop'
p1163
sg25
S'0x9e486L'
p1164
sg27
Nsbasg147
(lp1165
g1160
asg167
Nsg5
S'0x9e486L'
p1166
sg169
(lp1167
S'0x9e44eL'
p1168
aS'0x9e45cL'
p1169
asg6
Nsg171
(lp1170
S'0x9e487L'
p1171
asg175
Nsg176
Nsg177
S'a571d969c8661fb0342afd08e571dfa0'
p1172
sg179
S'a571d969c8661fb0342afd08e571dfa0'
p1173
sg181
(lp1174
g1163
asg183
Nsba(ibclass
BBasicBlock
p1175
(dp1176
g12
Nsg13
(lp1177
(ibclass
BInstr
p1178
(dp1179
g2
Nsg17
S'add     [rbp+i], 1'
p1180
sg19
S'8345d401'
p1181
sg21
Vadd dword ptr [rbp - 0x2c], 1
p1182
sg5
L648327L
sg6
Nsg23
S'add'
p1183
sg25
S'0x9e487L'
p1184
sg27
Nsbasg147
(lp1185
S'add mem, 1'
p1186
asg167
Nsg5
S'0x9e487L'
p1187
sg169
(lp1188
S'0x9e415L'
p1189
aS'0x9e423L'
p1190
aS'0x9e483L'
p1191
aS'0x9e486L'
p1192
asg6
Nsg171
(lp1193
S'0x9e48bL'
p1194
asg175
Nsg176
Nsg177
S'34ec78fcc91ffb1e54cd85e4a0924332'
p1195
sg179
S'a96bc17fab599ee98a3ba3552917a0a2'
p1196
sg181
(lp1197
g1183
asg183
Nsba(ibclass
BBasicBlock
p1198
(dp1199
g12
Nsg13
(lp1200
(ibclass
BInstr
p1201
(dp1202
g2
Nsg17
S'mov     eax, [rbp+i]'
p1203
sg19
S'8b45d4'
p1204
sg21
Vmov eax, dword ptr [rbp - 0x2c]
p1205
sg5
L648331L
sg6
Nsg23
S'mov'
p1206
sg25
S'0x9e48bL'
p1207
sg27
Nsba(ibclass
BInstr
p1208
(dp1209
g2
Nsg17
S'cmp     eax, [rbp+numalts]'
p1210
sg19
S'3b45dc'
p1211
sg21
Vcmp eax, dword ptr [rbp - 0x24]
p1212
sg5
L648334L
sg6
Nsg23
S'cmp'
p1213
sg25
S'0x9e48eL'
p1214
sg27
Nsba(ibclass
BInstr
p1215
(dp1216
g2
Nsg17
S'jl      loc_9E38E'
p1217
sg19
S'0f8cf7feffff'
p1218
sg21
Vjl 0xfffffffffffffefd
p1219
sg5
L648337L
sg6
Nsg23
S'jl'
p1220
sg25
S'0x9e491L'
p1221
sg27
Nsbasg147
(lp1222
S'mov reg, mem'
p1223
aS'cmp reg, mem'
p1224
aS'jl func'
p1225
asg167
Nsg5
S'0x9e48bL'
p1226
sg169
(lp1227
S'0x9e373L'
p1228
aS'0x9e487L'
p1229
asg6
Nsg171
(lp1230
S'0x9e38eL'
p1231
aS'0x9e497L'
p1232
asg175
Nsg176
Nsg177
S'526b113ed2eebe7f68de960c06dad62b'
p1233
sg179
S'c3279eb05900345488c0a4487d930b74'
p1234
sg181
(lp1235
g1206
ag1213
ag1220
asg183
Nsba(ibclass
BBasicBlock
p1236
(dp1237
g12
Nsg13
(lp1238
(ibclass
BInstr
p1239
(dp1240
g2
Nsg17
S'mov     rax, [rbp+extensions]'
p1241
sg19
S'488b45e8'
p1242
sg21
Vmov rax, qword ptr [rbp - 0x18]
p1243
sg5
L648343L
sg6
Nsg23
S'mov'
p1244
sg25
S'0x9e497L'
p1245
sg27
Nsba(ibclass
BInstr
p1246
(dp1247
g2
Nsg17
S'mov     rdi, rax'
p1248
sg19
S'4889c7'
p1249
sg21
Vmov rdi, rax
p1250
sg5
L648347L
sg6
Nsg23
S'mov'
p1251
sg25
S'0x9e49bL'
p1252
sg27
Nsba(ibclass
BInstr
p1253
(dp1254
g2
Nsg17
S'call    GENERAL_NAMES_free'
p1255
sg19
S'e865b4f6ff'
p1256
sg21
Vcall 0xfffffffffff6b46a
p1257
sg5
L648350L
sg6
Nsg23
S'call'
p1258
sg25
S'0x9e49eL'
p1259
sg27
Nsbasg147
(lp1260
S'mov reg, mem'
p1261
aS'mov reg, reg'
p1262
aS'cregl GENERAL_NAMES_free'
p1263
asg167
Nsg5
S'0x9e497L'
p1264
sg169
(lp1265
S'0x9e48bL'
p1266
asg6
Nsg171
(lp1267
S'0x9e4a3L'
p1268
asg175
Nsg176
Nsg177
S'0bf1a79a6a1155c5085c1c85d6d83d05'
p1269
sg179
S'ff2954be54435452f560ea939467faad'
p1270
sg181
(lp1271
g1244
ag1251
ag1258
asg183
Nsba(ibclass
BBasicBlock
p1272
(dp1273
g12
Nsg13
(lp1274
(ibclass
BInstr
p1275
(dp1276
g2
Nsg17
S'movzx   eax, [rbp+retval]'
p1277
sg19
S'0fb645d3'
p1278
sg21
Vmovzx eax, byte ptr [rbp - 0x2d]
p1279
sg5
L648355L
sg6
Nsg23
S'movzx'
p1280
sg25
S'0x9e4a3L'
p1281
sg27
Nsbasg147
(lp1282
S'movzx reg, mem'
p1283
asg167
Nsg5
S'0x9e4a3L'
p1284
sg169
(lp1285
S'0x9e33cL'
p1286
aS'0x9e497L'
p1287
asg6
Nsg171
(lp1288
S'0x9e4a7L'
p1289
asg175
Nsg176
Nsg177
S'a1514adb735a1622d784ed0b53f4afb6'
p1290
sg179
S'c0da5693c98d145961fef4445a14a5c1'
p1291
sg181
(lp1292
g1280
asg183
Nsba(ibclass
BBasicBlock
p1293
(dp1294
g12
Nsg13
(lp1295
(ibclass
BInstr
p1296
(dp1297
g2
Nsg17
S'mov     rcx, [rbp+var_8]'
p1298
sg19
S'488b4df8'
p1299
sg21
Vmov rcx, qword ptr [rbp - 8]
p1300
sg5
L648359L
sg6
Nsg23
S'mov'
p1301
sg25
S'0x9e4a7L'
p1302
sg27
Nsba(ibclass
BInstr
p1303
(dp1304
g2
Nsg17
S'xor     rcx, fs:28h'
p1305
sg19
S'6448330c2528000000'
p1306
sg21
Vxor rcx, qword ptr fs:[0x28]
p1307
sg5
L648363L
sg6
Nsg23
S'xor'
p1308
sg25
S'0x9e4abL'
p1309
sg27
Nsba(ibclass
BInstr
p1310
(dp1311
g2
Nsg17
S'jz      short locret_9E4BB'
p1312
sg19
S'7405'
p1313
sg21
Vje 7
p1314
sg5
L648372L
sg6
Nsg23
S'jz'
p1315
sg25
S'0x9e4b4L'
p1316
sg27
Nsbasg147
(lp1317
S'mov reg, mem'
p1318
aS'xor reg, fs:28h'
p1319
aS'jz short func'
p1320
asg167
Nsg5
S'0x9e4a7L'
p1321
sg169
(lp1322
S'0x9e332L'
p1323
aS'0x9e4a3L'
p1324
asg6
Nsg171
(lp1325
S'0x9e4b6L'
p1326
aS'0x9e4bbL'
p1327
asg175
Nsg176
Nsg177
S'81354ac238b6424b069ead35b2072afc'
p1328
sg179
S'd17531f88b7fe391cec4b57881664cc8'
p1329
sg181
(lp1330
g1301
ag1308
ag1315
asg183
Nsba(ibclass
BBasicBlock
p1331
(dp1332
g12
Nsg13
(lp1333
(ibclass
BInstr
p1334
(dp1335
g2
Nsg17
S'call    __stack_chk_fail'
p1336
sg19
S'e8adb4f6ff'
p1337
sg21
Vcall 0xfffffffffff6b4b2
p1338
sg5
L648374L
sg6
Nsg23
S'call'
p1339
sg25
S'0x9e4b6L'
p1340
sg27
Nsbasg147
(lp1341
S'cregl __stack_chk_fail'
p1342
asg167
Nsg5
S'0x9e4b6L'
p1343
sg169
(lp1344
S'0x9e4a7L'
p1345
asg6
Nsg171
(lp1346
sg175
Nsg176
Nsg177
S'53b9e9679a8ea25880376080b76f98ad'
p1347
sg179
S'5852027b1493af739b90283a2dc353c0'
p1348
sg181
(lp1349
g1339
asg183
Nsba(ibclass
BBasicBlock
p1350
(dp1351
g12
Nsg13
(lp1352
(ibclass
BInstr
p1353
(dp1354
g2
Nsg17
S'leave'
p1355
sg19
S'c9'
p1356
sg21
Vleave 
p1357
sg5
L648379L
sg6
Nsg23
S'leave'
p1358
sg25
S'0x9e4bbL'
p1359
sg27
Nsba(ibclass
BInstr
p1360
(dp1361
g2
Nsg17
S'retn'
p1362
sg19
S'c3'
p1363
sg21
Vret 
p1364
sg5
L648380L
sg6
Nsg23
S'retn'
p1365
sg25
S'0x9e4bcL'
p1366
sg27
Nsbasg147
(lp1367
g1355
ag1362
asg167
Nsg5
S'0x9e4bbL'
p1368
sg169
(lp1369
S'0x9e4a7L'
p1370
asg6
Nsg171
(lp1371
sg175
Nsg176
Nsg177
S'08c78f73a6f87c85da88b2982f54ce2a'
p1372
sg179
S'08c78f73a6f87c85da88b2982f54ce2a'
p1373
sg181
(lp1374
g1358
ag1365
asg183
Nsbasb.