(ibclass
BFunc
p0
(dp1
S'hash'
p2
NsS'name'
p3
S'exif_convert_utf16_to_utf8'
p4
sS'start_address'
p5
L92992L
sS'flag'
p6
NsS'program'
p7
NsS'bbs'
p8
(lp9
(ibclass
BBasicBlock
p10
(dp11
S'function'
p12
NsS'binstrs'
p13
(lp14
(ibclass
BInstr
p15
(dp16
g2
NsS'disasm'
p17
S'test    edx, edx'
p18
sS'bytes'
p19
S'85d2'
p20
sS'disasm_striped'
p21
Vtest edx, edx
p22
sg5
L92992L
sg6
NsS'mnem'
p23
S'test'
p24
sS'address'
p25
S'0x16b40L'
p26
sS'basicblock'
p27
Nsba(ibclass
BInstr
p28
(dp29
g2
Nsg17
S'jle     locret_16BF8'
p30
sg19
S'0f8eb0000000'
p31
sg21
Vjle 0xb6
p32
sg5
L92994L
sg6
Nsg23
S'jle'
p33
sg25
S'0x16b42L'
p34
sg27
NsbasS'disasm_list'
p35
(lp36
S'test reg, reg'
p37
aS'jle func'
p38
asS'end_address'
p39
Nsg5
S'0x16b40L'
p40
sS'preds'
p41
(lp42
sg6
NsS'succs'
p43
(lp44
S'0x16b48L'
p45
aS'0x16bf8L'
p46
asS'hash_v3'
p47
NsS'flag_v2'
p48
NsS'hash_v1'
p49
S'905c5646a71e5a23695e29612b4ece3e'
p50
sS'hash_v2'
p51
S'9023f32591a2dfb4fb71369c37cb41b7'
p52
sS'mnen_list'
p53
(lp54
g24
ag33
asS'neighbour_disasm_list'
p55
Nsba(ibclass
BBasicBlock
p56
(dp57
g12
Nsg13
(lp58
(ibclass
BInstr
p59
(dp60
g2
Nsg17
S'nop     dword ptr [rax+rax+00000000h]'
p61
sg19
S'0f1f840000000000'
p62
sg21
Vnop dword ptr [rax + rax]
p63
sg5
L93000L
sg6
Nsg23
S'nop'
p64
sg25
S'0x16b48L'
p65
sg27
Nsbasg35
(lp66
S'nop mem'
p67
asg39
Nsg5
S'0x16b48L'
p68
sg41
(lp69
S'0x16b40L'
p70
asg6
Nsg43
(lp71
S'0x16b50L'
p72
asg47
Nsg48
Nsg49
S'a571d969c8661fb0342afd08e571dfa0'
p73
sg51
S'55c97f0b6b86d2e5eb995aea769d1ea4'
p74
sg53
(lp75
g64
asg55
Nsba(ibclass
BBasicBlock
p76
(dp77
g12
Nsg13
(lp78
(ibclass
BInstr
p79
(dp80
g2
Nsg17
S'add     rsi, 2'
p81
sg19
S'4883c602'
p82
sg21
Vadd rsi, 2
p83
sg5
L93008L
sg6
Nsg23
S'add'
p84
sg25
S'0x16b50L'
p85
sg27
Nsba(ibclass
BInstr
p86
(dp87
g2
Nsg17
S'movzx   eax, word ptr [rsi-2]'
p88
sg19
S'0fb746fe'
p89
sg21
Vmovzx eax, word ptr [rsi - 2]
p90
sg5
L93012L
sg6
Nsg23
S'movzx'
p91
sg25
S'0x16b54L'
p92
sg27
Nsba(ibclass
BInstr
p93
(dp94
g2
Nsg17
S'test    ax, ax'
p95
sg19
S'6685c0'
p96
sg21
Vtest ax, ax
p97
sg5
L93016L
sg6
Nsg23
S'test'
p98
sg25
S'0x16b58L'
p99
sg27
Nsba(ibclass
BInstr
p100
(dp101
g2
Nsg17
S'jz      short loc_16B7E'
p102
sg19
S'7421'
p103
sg21
Vje 0x23
p104
sg5
L93019L
sg6
Nsg23
S'jz'
p105
sg25
S'0x16b5bL'
p106
sg27
Nsbasg35
(lp107
S'add reg, 2'
p108
aS'movzx reg, mem'
p109
aS'test reg, reg'
p110
aS'jz func'
p111
asg39
Nsg5
S'0x16b50L'
p112
sg41
(lp113
S'0x16b48L'
p114
aS'0x16b93L'
p115
aS'0x16bbdL'
p116
asg6
Nsg43
(lp117
S'0x16b5dL'
p118
aS'0x16b7eL'
p119
asg47
Nsg48
Nsg49
S'760026a30230e841daf98dd1b2faefbb'
p120
sg51
S'7952c329ad3c60422f5391f856d31d51'
p121
sg53
(lp122
g84
ag91
ag98
ag105
asg55
Nsba(ibclass
BBasicBlock
p123
(dp124
g12
Nsg13
(lp125
(ibclass
BInstr
p126
(dp127
g2
Nsg17
S'cmp     ax, 7Fh'
p128
sg19
S'6683f87f'
p129
sg21
Vcmp ax, 0x7f
p130
sg5
L93021L
sg6
Nsg23
S'cmp'
p131
sg25
S'0x16b5dL'
p132
sg27
Nsba(ibclass
BInstr
p133
(dp134
g2
Nsg17
S'ja      short loc_16B88'
p135
sg19
S'7725'
p136
sg21
Vja 0x27
p137
sg5
L93025L
sg6
Nsg23
S'ja'
p138
sg25
S'0x16b61L'
p139
sg27
Nsbasg35
(lp140
S'cmp reg, 7Fh'
p141
aS'ja func'
p142
asg39
Nsg5
S'0x16b5dL'
p143
sg41
(lp144
S'0x16b50L'
p145
aS'0x16b68L'
p146
asg6
Nsg43
(lp147
S'0x16b63L'
p148
aS'0x16b88L'
p149
asg47
Nsg48
Nsg49
S'5ee79b999041868da271272ad202dbc3'
p150
sg51
S'01b6086d5fc0c08ef26980f637ebe18e'
p151
sg53
(lp152
g131
ag138
asg55
Nsba(ibclass
BBasicBlock
p153
(dp154
g12
Nsg13
(lp155
(ibclass
BInstr
p156
(dp157
g2
Nsg17
S'cmp     edx, 1'
p158
sg19
S'83fa01'
p159
sg21
Vcmp edx, 1
p160
sg5
L93027L
sg6
Nsg23
S'cmp'
p161
sg25
S'0x16b63L'
p162
sg27
Nsba(ibclass
BInstr
p163
(dp164
g2
Nsg17
S'jle     short loc_16B7E'
p165
sg19
S'7e16'
p166
sg21
Vjle 0x18
p167
sg5
L93030L
sg6
Nsg23
S'jle'
p168
sg25
S'0x16b66L'
p169
sg27
Nsbasg35
(lp170
S'cmp reg, 1'
p171
aS'jle func'
p172
asg39
Nsg5
S'0x16b63L'
p173
sg41
(lp174
S'0x16b5dL'
p175
asg6
Nsg43
(lp176
S'0x16b68L'
p177
aS'0x16b7eL'
p178
asg47
Nsg48
Nsg49
S'0bc4bf9881c1ed8eb91420cf78755dd7'
p179
sg51
S'ae30c38c80a7b7f8af793a3685659584'
p180
sg53
(lp181
g161
ag168
asg55
Nsba(ibclass
BBasicBlock
p182
(dp183
g12
Nsg13
(lp184
(ibclass
BInstr
p185
(dp186
g2
Nsg17
S'add     in, 2'
p187
sg19
S'4883c602'
p188
sg21
Vadd rsi, 2
p189
sg5
L93032L
sg6
Nsg23
S'add'
p190
sg25
S'0x16b68L'
p191
sg27
Nsba(ibclass
BInstr
p192
(dp193
g2
Nsg17
S'mov     [rdi], al'
p194
sg19
S'8807'
p195
sg21
Vmov byte ptr [rdi], al
p196
sg5
L93036L
sg6
Nsg23
S'mov'
p197
sg25
S'0x16b6cL'
p198
sg27
Nsba(ibclass
BInstr
p199
(dp200
g2
Nsg17
S'sub     edx, 1'
p201
sg19
S'83ea01'
p202
sg21
Vsub edx, 1
p203
sg5
L93038L
sg6
Nsg23
S'sub'
p204
sg25
S'0x16b6eL'
p205
sg27
Nsba(ibclass
BInstr
p206
(dp207
g2
Nsg17
S'movzx   eax, word ptr [rsi-2]'
p208
sg19
S'0fb746fe'
p209
sg21
Vmovzx eax, word ptr [rsi - 2]
p210
sg5
L93041L
sg6
Nsg23
S'movzx'
p211
sg25
S'0x16b71L'
p212
sg27
Nsba(ibclass
BInstr
p213
(dp214
g2
Nsg17
S'add     rdi, 1'
p215
sg19
S'4883c701'
p216
sg21
Vadd rdi, 1
p217
sg5
L93045L
sg6
Nsg23
S'add'
p218
sg25
S'0x16b75L'
p219
sg27
Nsba(ibclass
BInstr
p220
(dp221
g2
Nsg17
S'test    ax, ax'
p222
sg19
S'6685c0'
p223
sg21
Vtest ax, ax
p224
sg5
L93049L
sg6
Nsg23
S'test'
p225
sg25
S'0x16b79L'
p226
sg27
Nsba(ibclass
BInstr
p227
(dp228
g2
Nsg17
S'jnz     short loc_16B5D'
p229
sg19
S'75df'
p230
sg21
Vjne 0xffffffffffffffe1
p231
sg5
L93052L
sg6
Nsg23
S'jnz'
p232
sg25
S'0x16b7cL'
p233
sg27
Nsbasg35
(lp234
S'add in, 2'
p235
aS'mov mem, reg'
p236
aS'sub reg, 1'
p237
aS'movzx reg, mem'
p238
aS'add reg, 1'
p239
aS'test reg, reg'
p240
aS'jnz func'
p241
asg39
Nsg5
S'0x16b68L'
p242
sg41
(lp243
S'0x16b63L'
p244
asg6
Nsg43
(lp245
S'0x16b5dL'
p246
aS'0x16b7eL'
p247
asg47
Nsg48
Nsg49
S'064be3f41636348436bd2054feced452'
p248
sg51
S'76fe971f512aee32cab97ae88d5af5d6'
p249
sg53
(lp250
g190
ag197
ag204
ag211
ag218
ag225
ag232
asg55
Nsba(ibclass
BBasicBlock
p251
(dp252
g12
Nsg13
(lp253
(ibclass
BInstr
p254
(dp255
g2
Nsg17
S'mov     byte ptr [out], 0'
p256
sg19
S'c60700'
p257
sg21
Vmov byte ptr [rdi], 0
p258
sg5
L93054L
sg6
Nsg23
S'mov'
p259
sg25
S'0x16b7eL'
p260
sg27
Nsba(ibclass
BInstr
p261
(dp262
g2
Nsg17
S'retn'
p263
sg19
S'c3'
p264
sg21
Vret 
p265
sg5
L93057L
sg6
Nsg23
S'retn'
p266
sg25
S'0x16b81L'
p267
sg27
Nsbasg35
(lp268
S'mov mem, 0'
p269
ag263
asg39
Nsg5
S'0x16b7eL'
p270
sg41
(lp271
S'0x16b50L'
p272
aS'0x16b63L'
p273
aS'0x16b68L'
p274
aS'0x16b8eL'
p275
aS'0x16bb8L'
p276
asg6
Nsg43
(lp277
sg47
Nsg48
Nsg49
S'5844969133d39992211459acca1a7189'
p278
sg51
S'12fe519d2c6eb6de8547f93a4d7bf8b0'
p279
sg53
(lp280
g259
ag266
asg55
Nsba(ibclass
BBasicBlock
p281
(dp282
g12
Nsg13
(lp283
(ibclass
BInstr
p284
(dp285
g2
Nsg17
S'cmp     ax, 7FFh'
p286
sg19
S'663dff07'
p287
sg21
Vcmp ax, 0x7ff
p288
sg5
L93064L
sg6
Nsg23
S'cmp'
p289
sg25
S'0x16b88L'
p290
sg27
Nsba(ibclass
BInstr
p291
(dp292
g2
Nsg17
S'ja      short loc_16BB8'
p293
sg19
S'772a'
p294
sg21
Vja 0x2c
p295
sg5
L93068L
sg6
Nsg23
S'ja'
p296
sg25
S'0x16b8cL'
p297
sg27
Nsbasg35
(lp298
S'cmp reg, 7FFh'
p299
aS'ja func'
p300
asg39
Nsg5
S'0x16b88L'
p301
sg41
(lp302
S'0x16b5dL'
p303
asg6
Nsg43
(lp304
S'0x16b8eL'
p305
aS'0x16bb8L'
p306
asg47
Nsg48
Nsg49
S'5ee79b999041868da271272ad202dbc3'
p307
sg51
S'6df3dc92edcc5703a85b421fd2307cd7'
p308
sg53
(lp309
g289
ag296
asg55
Nsba(ibclass
BBasicBlock
p310
(dp311
g12
Nsg13
(lp312
(ibclass
BInstr
p313
(dp314
g2
Nsg17
S'cmp     edx, 2'
p315
sg19
S'83fa02'
p316
sg21
Vcmp edx, 2
p317
sg5
L93070L
sg6
Nsg23
S'cmp'
p318
sg25
S'0x16b8eL'
p319
sg27
Nsba(ibclass
BInstr
p320
(dp321
g2
Nsg17
S'jle     short loc_16B7E'
p322
sg19
S'7eeb'
p323
sg21
Vjle 0xffffffffffffffed
p324
sg5
L93073L
sg6
Nsg23
S'jle'
p325
sg25
S'0x16b91L'
p326
sg27
Nsbasg35
(lp327
S'cmp reg, 2'
p328
aS'jle func'
p329
asg39
Nsg5
S'0x16b8eL'
p330
sg41
(lp331
S'0x16b88L'
p332
asg6
Nsg43
(lp333
S'0x16b7eL'
p334
aS'0x16b93L'
p335
asg47
Nsg48
Nsg49
S'0bc4bf9881c1ed8eb91420cf78755dd7'
p336
sg51
S'4676d6245c88e52882738560585f9e54'
p337
sg53
(lp338
g318
ag325
asg55
Nsba(ibclass
BBasicBlock
p339
(dp340
g12
Nsg13
(lp341
(ibclass
BInstr
p342
(dp343
g2
Nsg17
S'shr     ax, 6'
p344
sg19
S'66c1e806'
p345
sg21
Vshr ax, 6
p346
sg5
L93075L
sg6
Nsg23
S'shr'
p347
sg25
S'0x16b93L'
p348
sg27
Nsba(ibclass
BInstr
p349
(dp350
g2
Nsg17
S'sub     edx, 2'
p351
sg19
S'83ea02'
p352
sg21
Vsub edx, 2
p353
sg5
L93079L
sg6
Nsg23
S'sub'
p354
sg25
S'0x16b97L'
p355
sg27
Nsba(ibclass
BInstr
p356
(dp357
g2
Nsg17
S'add     rdi, 2'
p358
sg19
S'4883c702'
p359
sg21
Vadd rdi, 2
p360
sg5
L93082L
sg6
Nsg23
S'add'
p361
sg25
S'0x16b9aL'
p362
sg27
Nsba(ibclass
BInstr
p363
(dp364
g2
Nsg17
S'or      eax, 0FFFFFFC0h'
p365
sg19
S'83c8c0'
p366
sg21
Vor eax, 0xffffffc0
p367
sg5
L93086L
sg6
Nsg23
S'or'
p368
sg25
S'0x16b9eL'
p369
sg27
Nsba(ibclass
BInstr
p370
(dp371
g2
Nsg17
S'mov     [out-2], al'
p372
sg19
S'8847fe'
p373
sg21
Vmov byte ptr [rdi - 2], al
p374
sg5
L93089L
sg6
Nsg23
S'mov'
p375
sg25
S'0x16ba1L'
p376
sg27
Nsba(ibclass
BInstr
p377
(dp378
g2
Nsg17
S'movzx   eax, byte ptr [in-2]'
p379
sg19
S'0fb646fe'
p380
sg21
Vmovzx eax, byte ptr [rsi - 2]
p381
sg5
L93092L
sg6
Nsg23
S'movzx'
p382
sg25
S'0x16ba4L'
p383
sg27
Nsba(ibclass
BInstr
p384
(dp385
g2
Nsg17
S'and     eax, 3Fh'
p386
sg19
S'83e03f'
p387
sg21
Vand eax, 0x3f
p388
sg5
L93096L
sg6
Nsg23
S'and'
p389
sg25
S'0x16ba8L'
p390
sg27
Nsba(ibclass
BInstr
p391
(dp392
g2
Nsg17
S'or      eax, 0FFFFFF80h'
p393
sg19
S'83c880'
p394
sg21
Vor eax, 0xffffff80
p395
sg5
L93099L
sg6
Nsg23
S'or'
p396
sg25
S'0x16babL'
p397
sg27
Nsba(ibclass
BInstr
p398
(dp399
g2
Nsg17
S'mov     [out-1], al'
p400
sg19
S'8847ff'
p401
sg21
Vmov byte ptr [rdi - 1], al
p402
sg5
L93102L
sg6
Nsg23
S'mov'
p403
sg25
S'0x16baeL'
p404
sg27
Nsba(ibclass
BInstr
p405
(dp406
g2
Nsg17
S'jmp     short loc_16B50'
p407
sg19
S'eb9d'
p408
sg21
Vjmp 0xffffffffffffff9f
p409
sg5
L93105L
sg6
Nsg23
S'jmp'
p410
sg25
S'0x16bb1L'
p411
sg27
Nsbasg35
(lp412
S'shr reg, 6'
p413
aS'sub reg, 2'
p414
aS'add reg, 2'
p415
aS'or reg, 0FFFFFFC0h'
p416
aS'mov mem, reg'
p417
aS'movzx reg, mem'
p418
aS'and reg, 3Fh'
p419
aS'or reg, 0FFFFFF80h'
p420
aS'mov mem, reg'
p421
aS'jmp func'
p422
asg39
Nsg5
S'0x16b93L'
p423
sg41
(lp424
S'0x16b8eL'
p425
asg6
Nsg43
(lp426
S'0x16b50L'
p427
asg47
Nsg48
Nsg49
S'b17f599b8df2368047a9a332d2d63f11'
p428
sg51
S'603cdf80c73d288b023626b848f7758d'
p429
sg53
(lp430
g347
ag354
ag361
ag368
ag375
ag382
ag389
ag396
ag403
ag410
asg55
Nsba(ibclass
BBasicBlock
p431
(dp432
g12
Nsg13
(lp433
(ibclass
BInstr
p434
(dp435
g2
Nsg17
S'cmp     edx, 2'
p436
sg19
S'83fa02'
p437
sg21
Vcmp edx, 2
p438
sg5
L93112L
sg6
Nsg23
S'cmp'
p439
sg25
S'0x16bb8L'
p440
sg27
Nsba(ibclass
BInstr
p441
(dp442
g2
Nsg17
S'jle     short loc_16B7E'
p443
sg19
S'7ec1'
p444
sg21
Vjle 0xffffffffffffffc3
p445
sg5
L93115L
sg6
Nsg23
S'jle'
p446
sg25
S'0x16bbbL'
p447
sg27
Nsbasg35
(lp448
S'cmp reg, 2'
p449
aS'jle func'
p450
asg39
Nsg5
S'0x16bb8L'
p451
sg41
(lp452
S'0x16b88L'
p453
asg6
Nsg43
(lp454
S'0x16b7eL'
p455
aS'0x16bbdL'
p456
asg47
Nsg48
Nsg49
S'0bc4bf9881c1ed8eb91420cf78755dd7'
p457
sg51
S'4676d6245c88e52882738560585f9e54'
p458
sg53
(lp459
g439
ag446
asg55
Nsba(ibclass
BBasicBlock
p460
(dp461
g12
Nsg13
(lp462
(ibclass
BInstr
p463
(dp464
g2
Nsg17
S'shr     ax, 0Ch'
p465
sg19
S'66c1e80c'
p466
sg21
Vshr ax, 0xc
p467
sg5
L93117L
sg6
Nsg23
S'shr'
p468
sg25
S'0x16bbdL'
p469
sg27
Nsba(ibclass
BInstr
p470
(dp471
g2
Nsg17
S'sub     edx, 3'
p472
sg19
S'83ea03'
p473
sg21
Vsub edx, 3
p474
sg5
L93121L
sg6
Nsg23
S'sub'
p475
sg25
S'0x16bc1L'
p476
sg27
Nsba(ibclass
BInstr
p477
(dp478
g2
Nsg17
S'add     rdi, 3'
p479
sg19
S'4883c703'
p480
sg21
Vadd rdi, 3
p481
sg5
L93124L
sg6
Nsg23
S'add'
p482
sg25
S'0x16bc4L'
p483
sg27
Nsba(ibclass
BInstr
p484
(dp485
g2
Nsg17
S'or      eax, 0FFFFFFE0h'
p486
sg19
S'83c8e0'
p487
sg21
Vor eax, 0xffffffe0
p488
sg5
L93128L
sg6
Nsg23
S'or'
p489
sg25
S'0x16bc8L'
p490
sg27
Nsba(ibclass
BInstr
p491
(dp492
g2
Nsg17
S'mov     [rdi-3], al'
p493
sg19
S'8847fd'
p494
sg21
Vmov byte ptr [rdi - 3], al
p495
sg5
L93131L
sg6
Nsg23
S'mov'
p496
sg25
S'0x16bcbL'
p497
sg27
Nsba(ibclass
BInstr
p498
(dp499
g2
Nsg17
S'movzx   eax, word ptr [in-2]'
p500
sg19
S'0fb746fe'
p501
sg21
Vmovzx eax, word ptr [rsi - 2]
p502
sg5
L93134L
sg6
Nsg23
S'movzx'
p503
sg25
S'0x16bceL'
p504
sg27
Nsba(ibclass
BInstr
p505
(dp506
g2
Nsg17
S'shr     ax, 6'
p507
sg19
S'66c1e806'
p508
sg21
Vshr ax, 6
p509
sg5
L93138L
sg6
Nsg23
S'shr'
p510
sg25
S'0x16bd2L'
p511
sg27
Nsba(ibclass
BInstr
p512
(dp513
g2
Nsg17
S'and     eax, 3Fh'
p514
sg19
S'83e03f'
p515
sg21
Vand eax, 0x3f
p516
sg5
L93142L
sg6
Nsg23
S'and'
p517
sg25
S'0x16bd6L'
p518
sg27
Nsba(ibclass
BInstr
p519
(dp520
g2
Nsg17
S'or      eax, 0FFFFFF80h'
p521
sg19
S'83c880'
p522
sg21
Vor eax, 0xffffff80
p523
sg5
L93145L
sg6
Nsg23
S'or'
p524
sg25
S'0x16bd9L'
p525
sg27
Nsba(ibclass
BInstr
p526
(dp527
g2
Nsg17
S'mov     [rdi-2], al'
p528
sg19
S'8847fe'
p529
sg21
Vmov byte ptr [rdi - 2], al
p530
sg5
L93148L
sg6
Nsg23
S'mov'
p531
sg25
S'0x16bdcL'
p532
sg27
Nsba(ibclass
BInstr
p533
(dp534
g2
Nsg17
S'movzx   eax, byte ptr [in-2]'
p535
sg19
S'0fb646fe'
p536
sg21
Vmovzx eax, byte ptr [rsi - 2]
p537
sg5
L93151L
sg6
Nsg23
S'movzx'
p538
sg25
S'0x16bdfL'
p539
sg27
Nsba(ibclass
BInstr
p540
(dp541
g2
Nsg17
S'and     eax, 3Fh'
p542
sg19
S'83e03f'
p543
sg21
Vand eax, 0x3f
p544
sg5
L93155L
sg6
Nsg23
S'and'
p545
sg25
S'0x16be3L'
p546
sg27
Nsba(ibclass
BInstr
p547
(dp548
g2
Nsg17
S'or      eax, 0FFFFFF80h'
p549
sg19
S'83c880'
p550
sg21
Vor eax, 0xffffff80
p551
sg5
L93158L
sg6
Nsg23
S'or'
p552
sg25
S'0x16be6L'
p553
sg27
Nsba(ibclass
BInstr
p554
(dp555
g2
Nsg17
S'mov     [rdi-1], al'
p556
sg19
S'8847ff'
p557
sg21
Vmov byte ptr [rdi - 1], al
p558
sg5
L93161L
sg6
Nsg23
S'mov'
p559
sg25
S'0x16be9L'
p560
sg27
Nsba(ibclass
BInstr
p561
(dp562
g2
Nsg17
S'jmp     loc_16B50'
p563
sg19
S'e95fffffff'
p564
sg21
Vjmp 0xffffffffffffff64
p565
sg5
L93164L
sg6
Nsg23
S'jmp'
p566
sg25
S'0x16becL'
p567
sg27
Nsbasg35
(lp568
S'shr reg, 0Ch'
p569
aS'sub reg, 3'
p570
aS'add reg, 3'
p571
aS'or reg, 0FFFFFFE0h'
p572
aS'mov mem, reg'
p573
aS'movzx reg, mem'
p574
aS'shr reg, 6'
p575
aS'and reg, 3Fh'
p576
aS'or reg, 0FFFFFF80h'
p577
aS'mov mem, reg'
p578
aS'movzx reg, mem'
p579
aS'and reg, 3Fh'
p580
aS'or reg, 0FFFFFF80h'
p581
aS'mov mem, reg'
p582
aS'jmp func'
p583
asg39
Nsg5
S'0x16bbdL'
p584
sg41
(lp585
S'0x16bb8L'
p586
asg6
Nsg43
(lp587
S'0x16b50L'
p588
asg47
Nsg48
Nsg49
S'72cd52614e6f8a13fbd9f421c2e5780d'
p589
sg51
S'bcef2c26b1d0f9d77ae0482b9389bb7d'
p590
sg53
(lp591
g468
ag475
ag482
ag489
ag496
ag503
ag510
ag517
ag524
ag531
ag538
ag545
ag552
ag559
ag566
asg55
Nsba(ibclass
BBasicBlock
p592
(dp593
g12
Nsg13
(lp594
(ibclass
BInstr
p595
(dp596
g2
Nsg17
S'rep retn'
p597
sg19
S'f3c3'
p598
sg21
Vret 
p599
sg5
L93176L
sg6
Nsg23
S'retn'
p600
sg25
S'0x16bf8L'
p601
sg27
Nsbasg35
(lp602
S'rep retn'
p603
asg39
Nsg5
S'0x16bf8L'
p604
sg41
(lp605
S'0x16b40L'
p606
asg6
Nsg43
(lp607
sg47
Nsg48
Nsg49
S'02677669c82bc92597ebd4106dde552a'
p608
sg51
S'9b628c259ffb6315b108baa16faf0e0a'
p609
sg53
(lp610
g600
asg55
Nsbasb.