(ibclass
BFunc
p0
(dp1
S'hash'
p2
NsS'name'
p3
S'match_repeated_char'
p4
sS'start_address'
p5
L85963L
sS'flag'
p6
NsS'program'
p7
NsS'bbs'
p8
(lp9
(ibclass
BBasicBlock
p10
(dp11
S'function'
p12
NsS'binstrs'
p13
(lp14
(ibclass
BInstr
p15
(dp16
g2
NsS'disasm'
p17
S'push    rbp'
p18
sS'bytes'
p19
S'55'
p20
sS'disasm_striped'
p21
Vpush rbp
p22
sg5
L85963L
sg6
NsS'mnem'
p23
S'push'
p24
sS'address'
p25
S'0x14fcbL'
p26
sS'basicblock'
p27
Nsba(ibclass
BInstr
p28
(dp29
g2
Nsg17
S'mov     rbp, rsp'
p30
sg19
S'4889e5'
p31
sg21
Vmov rbp, rsp
p32
sg5
L85964L
sg6
Nsg23
S'mov'
p33
sg25
S'0x14fccL'
p34
sg27
Nsba(ibclass
BInstr
p35
(dp36
g2
Nsg17
S'mov     [rbp+data], rdi'
p37
sg19
S'48897de8'
p38
sg21
Vmov qword ptr [rbp - 0x18], rdi
p39
sg5
L85967L
sg6
Nsg23
S'mov'
p40
sg25
S'0x14fcfL'
p41
sg27
Nsba(ibclass
BInstr
p42
(dp43
g2
Nsg17
S'mov     eax, esi'
p44
sg19
S'89f0'
p45
sg21
Vmov eax, esi
p46
sg5
L85971L
sg6
Nsg23
S'mov'
p47
sg25
S'0x14fd3L'
p48
sg27
Nsba(ibclass
BInstr
p49
(dp50
g2
Nsg17
S'mov     [rbp+n], rdx'
p51
sg19
S'488955d8'
p52
sg21
Vmov qword ptr [rbp - 0x28], rdx
p53
sg5
L85973L
sg6
Nsg23
S'mov'
p54
sg25
S'0x14fd5L'
p55
sg27
Nsba(ibclass
BInstr
p56
(dp57
g2
Nsg17
S'mov     [rbp+ch_0], al'
p58
sg19
S'8845e4'
p59
sg21
Vmov byte ptr [rbp - 0x1c], al
p60
sg5
L85977L
sg6
Nsg23
S'mov'
p61
sg25
S'0x14fd9L'
p62
sg27
Nsba(ibclass
BInstr
p63
(dp64
g2
Nsg17
S'mov     rax, [rbp+n]'
p65
sg19
S'488b45d8'
p66
sg21
Vmov rax, qword ptr [rbp - 0x28]
p67
sg5
L85980L
sg6
Nsg23
S'mov'
p68
sg25
S'0x14fdcL'
p69
sg27
Nsba(ibclass
BInstr
p70
(dp71
g2
Nsg17
S'mov     [rbp+i], eax'
p72
sg19
S'8945fc'
p73
sg21
Vmov dword ptr [rbp - 4], eax
p74
sg5
L85984L
sg6
Nsg23
S'mov'
p75
sg25
S'0x14fe0L'
p76
sg27
Nsba(ibclass
BInstr
p77
(dp78
g2
Nsg17
S'jmp     short loc_1500E'
p79
sg19
S'eb29'
p80
sg21
Vjmp 0x2b
p81
sg5
L85987L
sg6
Nsg23
S'jmp'
p82
sg25
S'0x14fe3L'
p83
sg27
NsbasS'disasm_list'
p84
(lp85
S'push reg'
p86
aS'mov reg, reg'
p87
aS'mov mem, reg'
p88
aS'mov reg, reg'
p89
aS'mov mem, reg'
p90
aS'mov mem, reg'
p91
aS'mov reg, mem'
p92
aS'mov mem, reg'
p93
aS'jmp func'
p94
asS'end_address'
p95
Nsg5
S'0x14fcbL'
p96
sS'preds'
p97
(lp98
sg6
NsS'succs'
p99
(lp100
S'0x1500eL'
p101
asS'hash_v3'
p102
NsS'flag_v2'
p103
NsS'hash_v1'
p104
S'741289c2af4470d02565fa39798c5f0c'
p105
sS'hash_v2'
p106
S'25ce2858afe2d6cc652770add83882c0'
p107
sS'mnen_list'
p108
(lp109
g24
ag33
ag40
ag47
ag54
ag61
ag68
ag75
ag82
asS'neighbour_disasm_list'
p110
Nsba(ibclass
BBasicBlock
p111
(dp112
g12
Nsg13
(lp113
(ibclass
BInstr
p114
(dp115
g2
Nsg17
S'mov     rax, [rbp+data]'
p116
sg19
S'488b45e8'
p117
sg21
Vmov rax, qword ptr [rbp - 0x18]
p118
sg5
L85989L
sg6
Nsg23
S'mov'
p119
sg25
S'0x14fe5L'
p120
sg27
Nsba(ibclass
BInstr
p121
(dp122
g2
Nsg17
S'movzx   eax, byte ptr [rax]'
p123
sg19
S'0fb600'
p124
sg21
Vmovzx eax, byte ptr [rax]
p125
sg5
L85993L
sg6
Nsg23
S'movzx'
p126
sg25
S'0x14fe9L'
p127
sg27
Nsba(ibclass
BInstr
p128
(dp129
g2
Nsg17
S'test    al, al'
p130
sg19
S'84c0'
p131
sg21
Vtest al, al
p132
sg5
L85996L
sg6
Nsg23
S'test'
p133
sg25
S'0x14fecL'
p134
sg27
Nsba(ibclass
BInstr
p135
(dp136
g2
Nsg17
S'jnz     short loc_14FF9'
p137
sg19
S'7509'
p138
sg21
Vjne 0xb
p139
sg5
L85998L
sg6
Nsg23
S'jnz'
p140
sg25
S'0x14feeL'
p141
sg27
Nsbasg84
(lp142
S'mov reg, mem'
p143
aS'movzx reg, mem'
p144
aS'test reg, reg'
p145
aS'jnz func'
p146
asg95
Nsg5
S'0x14fe5L'
p147
sg97
(lp148
S'0x1500eL'
p149
asg6
Nsg99
(lp150
S'0x14ff0L'
p151
aS'0x14ff9L'
p152
asg102
Nsg103
Nsg104
S'b42736704bd2dfbd0ad28dae5fb30cbc'
p153
sg106
S'e105f449e966deec6f4287082047de7d'
p154
sg108
(lp155
g119
ag126
ag133
ag140
asg110
Nsba(ibclass
BBasicBlock
p156
(dp157
g12
Nsg13
(lp158
(ibclass
BInstr
p159
(dp160
g2
Nsg17
S'mov     [rbp+i], 0'
p161
sg19
S'c745fc00000000'
p162
sg21
Vmov dword ptr [rbp - 4], 0
p163
sg5
L86000L
sg6
Nsg23
S'mov'
p164
sg25
S'0x14ff0L'
p165
sg27
Nsba(ibclass
BInstr
p166
(dp167
g2
Nsg17
S'jmp     short loc_15017'
p168
sg19
S'eb1e'
p169
sg21
Vjmp 0x20
p170
sg5
L86007L
sg6
Nsg23
S'jmp'
p171
sg25
S'0x14ff7L'
p172
sg27
Nsbasg84
(lp173
S'mov mem, 0'
p174
aS'jmp func'
p175
asg95
Nsg5
S'0x14ff0L'
p176
sg97
(lp177
S'0x14fe5L'
p178
asg6
Nsg99
(lp179
S'0x15017L'
p180
asg102
Nsg103
Nsg104
S'8b9a0d40e062be2b9b2d9885108fb196'
p181
sg106
S'7cf882b8c6f2a7fee5b65dbb6327183a'
p182
sg108
(lp183
g164
ag171
asg110
Nsba(ibclass
BBasicBlock
p184
(dp185
g12
Nsg13
(lp186
(ibclass
BInstr
p187
(dp188
g2
Nsg17
S'mov     rax, [rbp+data]'
p189
sg19
S'488b45e8'
p190
sg21
Vmov rax, qword ptr [rbp - 0x18]
p191
sg5
L86009L
sg6
Nsg23
S'mov'
p192
sg25
S'0x14ff9L'
p193
sg27
Nsba(ibclass
BInstr
p194
(dp195
g2
Nsg17
S'movzx   eax, byte ptr [rax]'
p196
sg19
S'0fb600'
p197
sg21
Vmovzx eax, byte ptr [rax]
p198
sg5
L86013L
sg6
Nsg23
S'movzx'
p199
sg25
S'0x14ffdL'
p200
sg27
Nsba(ibclass
BInstr
p201
(dp202
g2
Nsg17
S'cmp     al, [rbp+ch_0]'
p203
sg19
S'3a45e4'
p204
sg21
Vcmp al, byte ptr [rbp - 0x1c]
p205
sg5
L86016L
sg6
Nsg23
S'cmp'
p206
sg25
S'0x15000L'
p207
sg27
Nsba(ibclass
BInstr
p208
(dp209
g2
Nsg17
S'jnz     short loc_15016'
p210
sg19
S'7511'
p211
sg21
Vjne 0x13
p212
sg5
L86019L
sg6
Nsg23
S'jnz'
p213
sg25
S'0x15003L'
p214
sg27
Nsbasg84
(lp215
S'mov reg, mem'
p216
aS'movzx reg, mem'
p217
aS'cmp reg, mem'
p218
aS'jnz func'
p219
asg95
Nsg5
S'0x14ff9L'
p220
sg97
(lp221
S'0x14fe5L'
p222
asg6
Nsg99
(lp223
S'0x15005L'
p224
aS'0x15016L'
p225
asg102
Nsg103
Nsg104
S'abeb40643ed11eecc9d44e99a64a1171'
p226
sg106
S'a45d490d6e8a921b849a200cbed9ebc8'
p227
sg108
(lp228
g192
ag199
ag206
ag213
asg110
Nsba(ibclass
BBasicBlock
p229
(dp230
g12
Nsg13
(lp231
(ibclass
BInstr
p232
(dp233
g2
Nsg17
S'sub     [rbp+i], 1'
p234
sg19
S'836dfc01'
p235
sg21
Vsub dword ptr [rbp - 4], 1
p236
sg5
L86021L
sg6
Nsg23
S'sub'
p237
sg25
S'0x15005L'
p238
sg27
Nsba(ibclass
BInstr
p239
(dp240
g2
Nsg17
S'add     [rbp+data], 1'
p241
sg19
S'488345e801'
p242
sg21
Vadd qword ptr [rbp - 0x18], 1
p243
sg5
L86025L
sg6
Nsg23
S'add'
p244
sg25
S'0x15009L'
p245
sg27
Nsbasg84
(lp246
S'sub mem, 1'
p247
aS'add mem, 1'
p248
asg95
Nsg5
S'0x15005L'
p249
sg97
(lp250
S'0x14ff9L'
p251
asg6
Nsg99
(lp252
S'0x1500eL'
p253
asg102
Nsg103
Nsg104
S'a1e0bfc41d11007f5c46707534d02b09'
p254
sg106
S'2a767ad173cd1b3202bd67f97392ee88'
p255
sg108
(lp256
g237
ag244
asg110
Nsba(ibclass
BBasicBlock
p257
(dp258
g12
Nsg13
(lp259
(ibclass
BInstr
p260
(dp261
g2
Nsg17
S'cmp     [rbp+i], 0'
p262
sg19
S'837dfc00'
p263
sg21
Vcmp dword ptr [rbp - 4], 0
p264
sg5
L86030L
sg6
Nsg23
S'cmp'
p265
sg25
S'0x1500eL'
p266
sg27
Nsba(ibclass
BInstr
p267
(dp268
g2
Nsg17
S'jnz     short loc_14FE5'
p269
sg19
S'75d1'
p270
sg21
Vjne 0xffffffffffffffd3
p271
sg5
L86034L
sg6
Nsg23
S'jnz'
p272
sg25
S'0x15012L'
p273
sg27
Nsbasg84
(lp274
S'cmp mem, 0'
p275
aS'jnz func'
p276
asg95
Nsg5
S'0x1500eL'
p277
sg97
(lp278
S'0x14fcbL'
p279
aS'0x15005L'
p280
asg6
Nsg99
(lp281
S'0x14fe5L'
p282
aS'0x15014L'
p283
asg102
Nsg103
Nsg104
S'30cb3d6f6a174adfabcde507f6944a52'
p284
sg106
S'98d72118630a4e08156799652c8790e6'
p285
sg108
(lp286
g265
ag272
asg110
Nsba(ibclass
BBasicBlock
p287
(dp288
g12
Nsg13
(lp289
(ibclass
BInstr
p290
(dp291
g2
Nsg17
S'jmp     short loc_15017'
p292
sg19
S'eb01'
p293
sg21
Vjmp 3
p294
sg5
L86036L
sg6
Nsg23
S'jmp'
p295
sg25
S'0x15014L'
p296
sg27
Nsbasg84
(lp297
S'jmp func'
p298
asg95
Nsg5
S'0x15014L'
p299
sg97
(lp300
S'0x1500eL'
p301
asg6
Nsg99
(lp302
S'0x15017L'
p303
asg102
Nsg103
Nsg104
S'0ef6cf926f2f394b0cc8e11be8022625'
p304
sg106
S'6c64eaafdcb2d6ebd96fc3dc6cab1911'
p305
sg108
(lp306
g295
asg110
Nsba(ibclass
BBasicBlock
p307
(dp308
g12
Nsg13
(lp309
(ibclass
BInstr
p310
(dp311
g2
Nsg17
S'nop'
p312
sg19
S'90'
p313
sg21
Vnop 
p314
sg5
L86038L
sg6
Nsg23
S'nop'
p315
sg25
S'0x15016L'
p316
sg27
Nsbasg84
(lp317
g312
asg95
Nsg5
S'0x15016L'
p318
sg97
(lp319
S'0x14ff9L'
p320
asg6
Nsg99
(lp321
S'0x15017L'
p322
asg102
Nsg103
Nsg104
S'a571d969c8661fb0342afd08e571dfa0'
p323
sg106
S'a571d969c8661fb0342afd08e571dfa0'
p324
sg108
(lp325
g315
asg110
Nsba(ibclass
BBasicBlock
p326
(dp327
g12
Nsg13
(lp328
(ibclass
BInstr
p329
(dp330
g2
Nsg17
S'mov     eax, [rbp+i]'
p331
sg19
S'8b45fc'
p332
sg21
Vmov eax, dword ptr [rbp - 4]
p333
sg5
L86039L
sg6
Nsg23
S'mov'
p334
sg25
S'0x15017L'
p335
sg27
Nsba(ibclass
BInstr
p336
(dp337
g2
Nsg17
S'pop     rbp'
p338
sg19
S'5d'
p339
sg21
Vpop rbp
p340
sg5
L86042L
sg6
Nsg23
S'pop'
p341
sg25
S'0x1501aL'
p342
sg27
Nsba(ibclass
BInstr
p343
(dp344
g2
Nsg17
S'retn'
p345
sg19
S'c3'
p346
sg21
Vret 
p347
sg5
L86043L
sg6
Nsg23
S'retn'
p348
sg25
S'0x1501bL'
p349
sg27
Nsbasg84
(lp350
S'mov reg, mem'
p351
aS'pop reg'
p352
ag345
asg95
Nsg5
S'0x15017L'
p353
sg97
(lp354
S'0x14ff0L'
p355
aS'0x15014L'
p356
aS'0x15016L'
p357
asg6
Nsg99
(lp358
sg102
Nsg103
Nsg104
S'0a5de58d322e2f2473ef5d4e2305d453'
p359
sg106
S'd4138a376bf714bb51018c73367657e6'
p360
sg108
(lp361
g334
ag341
ag348
asg110
Nsbasb.