(ibclass
BFunc
p0
(dp1
S'hash'
p2
NsS'name'
p3
S'__qseecom_process_rpmb_svc_cmd'
p4
sS'start_address'
p5
L18446743798837737320L
sS'flag'
p6
NsS'program'
p7
NsS'bbs'
p8
(lp9
(ibclass
BBasicBlock
p10
(dp11
S'function'
p12
NsS'binstrs'
p13
(lp14
(ibclass
BInstr
p15
(dp16
g2
NsS'disasm'
p17
S'STP             X29, X30, [SP,#-0x10+var_s0]!'
p18
sS'bytes'
p19
S'fd7bbfa9'
p20
sS'disasm_striped'
p21
Vstp x29, x30, [sp, #-0x10]!
p22
sg5
L18446743798837737320L
sg6
NsS'mnem'
p23
S'STP'
p24
sS'address'
p25
S'0xffffffc0005cf768L'
p26
sS'basicblock'
p27
Nsba(ibclass
BInstr
p28
(dp29
g2
Nsg17
S'MOV             X29, SP'
p30
sg19
S'fd030091'
p31
sg21
Vmov x29, sp
p32
sg5
L18446743798837737324L
sg6
Nsg23
S'MOV'
p33
sg25
S'0xffffffc0005cf76cL'
p34
sg27
Nsba(ibclass
BInstr
p35
(dp36
g2
Nsg17
S'MOV             X4, X1'
p37
sg19
S'e40301aa'
p38
sg21
Vmov x4, x1
p39
sg5
L18446743798837737328L
sg6
Nsg23
S'MOV'
p40
sg25
S'0xffffffc0005cf770L'
p41
sg27
Nsba(ibclass
BInstr
p42
(dp43
g2
Nsg17
S'MOV             X3, X2'
p44
sg19
S'e30302aa'
p45
sg21
Vmov x3, x2
p46
sg5
L18446743798837737332L
sg6
Nsg23
S'MOV'
p47
sg25
S'0xffffffc0005cf774L'
p48
sg27
Nsba(ibclass
BInstr
p49
(dp50
g2
Nsg17
S'CBZ             X1, loc_FFFFFFC0005CF788'
p51
sg19
S'810000b4'
p52
sg21
Vcbz x1, #0x10
p53
sg5
L18446743798837737336L
sg6
Nsg23
S'CBZ'
p54
sg25
S'0xffffffc0005cf778L'
p55
sg27
NsbasS'disasm_list'
p56
(lp57
S'STP reg9, reg0, mem!'
p58
aS'MOV reg9, SP'
p59
aS'MOV reg, reg'
p60
aS'MOV reg, reg'
p61
aS'CBZ reg, func'
p62
asS'end_address'
p63
Nsg5
S'0xffffffc0005cf768L'
p64
sS'preds'
p65
(lp66
sg6
NsS'succs'
p67
(lp68
S'0xffffffc0005cf77cL'
p69
aS'0xffffffc0005cf788L'
p70
asS'hash_v3'
p71
NsS'flag_v2'
p72
NsS'hash_v1'
p73
S'6cdab1c3ee6d1072eb779340a93dabaa'
p74
sS'hash_v2'
p75
S'2ab7f751cded0515916dad30c30ff9dc'
p76
sS'mnen_list'
p77
(lp78
g24
ag33
ag40
ag47
ag54
asS'neighbour_disasm_list'
p79
Nsba(ibclass
BBasicBlock
p80
(dp81
g12
Nsg13
(lp82
(ibclass
BInstr
p83
(dp84
g2
Nsg17
S'CMP             X2, XZR'
p85
sg19
S'5f001feb'
p86
sg21
Vcmp x2, xzr
p87
sg5
L18446743798837737340L
sg6
Nsg23
S'CMP'
p88
sg25
S'0xffffffc0005cf77cL'
p89
sg27
Nsba(ibclass
BInstr
p90
(dp91
g2
Nsg17
S'CSET            W5, EQ'
p92
sg19
S'e5179f1a'
p93
sg21
Vcset w5, eq
p94
sg5
L18446743798837737344L
sg6
Nsg23
S'CSET'
p95
sg25
S'0xffffffc0005cf780L'
p96
sg27
Nsba(ibclass
BInstr
p97
(dp98
g2
Nsg17
S'CBZ             W5, loc_FFFFFFC0005CF7A8'
p99
sg19
S'25010034'
p100
sg21
Vcbz w5, #0x24
p101
sg5
L18446743798837737348L
sg6
Nsg23
S'CBZ'
p102
sg25
S'0xffffffc0005cf784L'
p103
sg27
Nsbasg56
(lp104
S'CMP reg, XZR'
p105
aS'CSET reg, EQ'
p106
aS'CBZ reg, func'
p107
asg63
Nsg5
S'0xffffffc0005cf77cL'
p108
sg65
(lp109
S'0xffffffc0005cf768L'
p110
asg6
Nsg67
(lp111
S'0xffffffc0005cf788L'
p112
aS'0xffffffc0005cf7a8L'
p113
asg71
Nsg72
Nsg73
S'f704f93687a6b1bd84c9bea144c50305'
p114
sg75
S'291fdfb7623f16d71f67ed81d3d11dcf'
p115
sg77
(lp116
g88
ag95
ag102
asg79
Nsba(ibclass
BBasicBlock
p117
(dp118
g12
Nsg13
(lp119
(ibclass
BInstr
p120
(dp121
g2
Nsg17
S'ADRP            X1, #__func__.24859@PAGE; "qseecom_unregister_listener"'
p122
sg19
S'015300f0'
p123
sg21
Vadrp x1, #0xa63000
p124
sg5
L18446743798837737352L
sg6
Nsg23
S'ADRP'
p125
sg25
S'0xffffffc0005cf788L'
p126
sg27
Nsba(ibclass
BInstr
p127
(dp128
g2
Nsg17
S'ADRP            X0, #unk_FFFFFFC00135EF46@PAGE'
p129
sg19
S'606c00f0'
p130
sg21
Vadrp x0, #0xd8f000
p131
sg5
L18446743798837737356L
sg6
Nsg23
S'ADRP'
p132
sg25
S'0xffffffc0005cf78cL'
p133
sg27
Nsba(ibclass
BInstr
p134
(dp135
g2
Nsg17
S'ADD             X1, X1, #__func__.24859@PAGEOFF; "qseecom_unregister_listener"'
p136
sg19
S'21000b91'
p137
sg21
Vadd x1, x1, #0x2c0
p138
sg5
L18446743798837737360L
sg6
Nsg23
S'ADD'
p139
sg25
S'0xffffffc0005cf790L'
p140
sg27
Nsba(ibclass
BInstr
p141
(dp142
g2
Nsg17
S'ADD             X1, X1, #0x470'
p143
sg19
S'21c01191'
p144
sg21
Vadd x1, x1, #0x470
p145
sg5
L18446743798837737364L
sg6
Nsg23
S'ADD'
p146
sg25
S'0xffffffc0005cf794L'
p147
sg27
Nsba(ibclass
BInstr
p148
(dp149
g2
Nsg17
S'MOV             X2, X4'
p150
sg19
S'e20304aa'
p151
sg21
Vmov x2, x4
p152
sg5
L18446743798837737368L
sg6
Nsg23
S'MOV'
p153
sg25
S'0xffffffc0005cf798L'
p154
sg27
Nsba(ibclass
BInstr
p155
(dp156
g2
Nsg17
S'ADD             X0, X0, #unk_FFFFFFC00135EF46@PAGEOFF'
p157
sg19
S'00183d91'
p158
sg21
Vadd x0, x0, #0xf46
p159
sg5
L18446743798837737372L
sg6
Nsg23
S'ADD'
p160
sg25
S'0xffffffc0005cf79cL'
p161
sg27
Nsba(ibclass
BInstr
p162
(dp163
g2
Nsg17
S'BL              printk'
p164
sg19
S'75762194'
p165
sg21
Vbl #0x85d9d4
p166
sg5
L18446743798837737376L
sg6
Nsg23
S'BL'
p167
sg25
S'0xffffffc0005cf7a0L'
p168
sg27
Nsba(ibclass
BInstr
p169
(dp170
g2
Nsg17
S'B               loc_FFFFFFC0005CF7D0'
p171
sg19
S'0b000014'
p172
sg21
Vb #0x2c
p173
sg5
L18446743798837737380L
sg6
Nsg23
S'B'
p174
sg25
S'0xffffffc0005cf7a4L'
p175
sg27
Nsbasg56
(lp176
S'ADRP reg, #__func__.24859@PAGE'
p177
aS'ADRP reg, #func@PAGE'
p178
aS'ADD reg, reg, #__func__.24859@PAGEOFF'
p179
aS'ADD reg, reg, #0x470'
p180
aS'MOV reg, reg'
p181
aS'ADD reg, reg, #func@PAGEOFF'
p182
aS'BL printk'
p183
aS'B func'
p184
asg63
Nsg5
S'0xffffffc0005cf788L'
p185
sg65
(lp186
S'0xffffffc0005cf768L'
p187
aS'0xffffffc0005cf77cL'
p188
asg6
Nsg67
(lp189
S'0xffffffc0005cf7d0L'
p190
asg71
Nsg72
Nsg73
S'57fbdd9827ba8a6f7ec6550f3bc8f167'
p191
sg75
S'7a57cccbb1c2fc33133952840ad36748'
p192
sg77
(lp193
g125
ag132
ag139
ag146
ag153
ag160
ag167
ag174
asg79
Nsba(ibclass
BBasicBlock
p194
(dp195
g12
Nsg13
(lp196
(ibclass
BInstr
p197
(dp198
g2
Nsg17
S'LDR             X1, [X1,#8]'
p199
sg19
S'210440f9'
p200
sg21
Vldr x1, [x1, #8]
p201
sg5
L18446743798837737384L
sg6
Nsg23
S'LDR'
p202
sg25
S'0xffffffc0005cf7a8L'
p203
sg27
Nsba(ibclass
BInstr
p204
(dp205
g2
Nsg17
S'CBZ             X1, loc_FFFFFFC0005CF7B8'
p206
sg19
S'610000b4'
p207
sg21
Vcbz x1, #0xc
p208
sg5
L18446743798837737388L
sg6
Nsg23
S'CBZ'
p209
sg25
S'0xffffffc0005cf7acL'
p210
sg27
Nsbasg56
(lp211
S'LDR reg, mem'
p212
aS'CBZ reg, func'
p213
asg63
Nsg5
S'0xffffffc0005cf7a8L'
p214
sg65
(lp215
S'0xffffffc0005cf77cL'
p216
asg6
Nsg67
(lp217
S'0xffffffc0005cf7b0L'
p218
aS'0xffffffc0005cf7b8L'
p219
asg71
Nsg72
Nsg73
S'a0c488049ab653dbdfa1dc805bb83f13'
p220
sg75
S'33abe016da9abbebb8608f035d51762d'
p221
sg77
(lp222
g202
ag209
asg79
Nsba(ibclass
BBasicBlock
p223
(dp224
g12
Nsg13
(lp225
(ibclass
BInstr
p226
(dp227
g2
Nsg17
S'LDR             X2, [X4,#0x18]'
p228
sg19
S'820c40f9'
p229
sg21
Vldr x2, [x4, #0x18]
p230
sg5
L18446743798837737392L
sg6
Nsg23
S'LDR'
p231
sg25
S'0xffffffc0005cf7b0L'
p232
sg27
Nsba(ibclass
BInstr
p233
(dp234
g2
Nsg17
S'CBNZ            X2, loc_FFFFFFC0005CF7D8'
p235
sg19
S'220100b5'
p236
sg21
Vcbnz x2, #0x24
p237
sg5
L18446743798837737396L
sg6
Nsg23
S'CBNZ'
p238
sg25
S'0xffffffc0005cf7b4L'
p239
sg27
Nsbasg56
(lp240
S'LDR reg, mem'
p241
aS'CBNZ reg, func'
p242
asg63
Nsg5
S'0xffffffc0005cf7b0L'
p243
sg65
(lp244
S'0xffffffc0005cf7a8L'
p245
asg6
Nsg67
(lp246
S'0xffffffc0005cf7b8L'
p247
aS'0xffffffc0005cf7d8L'
p248
asg71
Nsg72
Nsg73
S'5522ad3e8b25e3a8f9013bb9571723e7'
p249
sg75
S'7604765c3c810c2510cc031abcc4f1e2'
p250
sg77
(lp251
g231
ag238
asg79
Nsba(ibclass
BBasicBlock
p252
(dp253
g12
Nsg13
(lp254
(ibclass
BInstr
p255
(dp256
g2
Nsg17
S'ADRP            X0, #unk_FFFFFFC00135EF8A@PAGE'
p257
sg19
S'606c00f0'
p258
sg21
Vadrp x0, #0xd8f000
p259
sg5
L18446743798837737400L
sg6
Nsg23
S'ADRP'
p260
sg25
S'0xffffffc0005cf7b8L'
p261
sg27
Nsba(ibclass
BInstr
p262
(dp263
g2
Nsg17
S'ADD             X0, X0, #unk_FFFFFFC00135EF8A@PAGEOFF'
p264
sg19
S'00283e91'
p265
sg21
Vadd x0, x0, #0xf8a
p266
sg5
L18446743798837737404L
sg6
Nsg23
S'ADD'
p267
sg25
S'0xffffffc0005cf7bcL'
p268
sg27
Nsbasg56
(lp269
S'ADRP reg, #func@PAGE'
p270
aS'ADD reg, reg, #func@PAGEOFF'
p271
asg63
Nsg5
S'0xffffffc0005cf7b8L'
p272
sg65
(lp273
S'0xffffffc0005cf7a8L'
p274
aS'0xffffffc0005cf7b0L'
p275
asg6
Nsg67
(lp276
S'0xffffffc0005cf7c0L'
p277
asg71
Nsg72
Nsg73
S'4c330fd47d9d30794e360f434bcba16f'
p278
sg75
S'5d0c12c1c2f0dc35884d116bfd571de9'
p279
sg77
(lp280
g260
ag267
asg79
Nsba(ibclass
BBasicBlock
p281
(dp282
g12
Nsg13
(lp283
(ibclass
BInstr
p284
(dp285
g2
Nsg17
S'ADRP            X1, #__func__.24859@PAGE; "qseecom_unregister_listener"'
p286
sg19
S'015300f0'
p287
sg21
Vadrp x1, #0xa63000
p288
sg5
L18446743798837737408L
sg6
Nsg23
S'ADRP'
p289
sg25
S'0xffffffc0005cf7c0L'
p290
sg27
Nsba(ibclass
BInstr
p291
(dp292
g2
Nsg17
S'ADD             X1, X1, #__func__.24859@PAGEOFF; "qseecom_unregister_listener"'
p293
sg19
S'21000b91'
p294
sg21
Vadd x1, x1, #0x2c0
p295
sg5
L18446743798837737412L
sg6
Nsg23
S'ADD'
p296
sg25
S'0xffffffc0005cf7c4L'
p297
sg27
Nsba(ibclass
BInstr
p298
(dp299
g2
Nsg17
S'ADD             X1, X1, #0x470'
p300
sg19
S'21c01191'
p301
sg21
Vadd x1, x1, #0x470
p302
sg5
L18446743798837737416L
sg6
Nsg23
S'ADD'
p303
sg25
S'0xffffffc0005cf7c8L'
p304
sg27
Nsba(ibclass
BInstr
p305
(dp306
g2
Nsg17
S'BL              printk'
p307
sg19
S'6a762194'
p308
sg21
Vbl #0x85d9a8
p309
sg5
L18446743798837737420L
sg6
Nsg23
S'BL'
p310
sg25
S'0xffffffc0005cf7ccL'
p311
sg27
Nsbasg56
(lp312
S'ADRP reg, #__func__.24859@PAGE'
p313
aS'ADD reg, reg, #__func__.24859@PAGEOFF'
p314
aS'ADD reg, reg, #0x470'
p315
aS'BL printk'
p316
asg63
Nsg5
S'0xffffffc0005cf7c0L'
p317
sg65
(lp318
S'0xffffffc0005cf7b8L'
p319
aS'0xffffffc0005cf7e4L'
p320
aS'0xffffffc0005cf808L'
p321
asg6
Nsg67
(lp322
S'0xffffffc0005cf7d0L'
p323
asg71
Nsg72
Nsg73
S'c8a90cccbd9f57e80b680be252a83539'
p324
sg75
S'1c44739ec3cb89638aa460128dacf1a7'
p325
sg77
(lp326
g289
ag296
ag303
ag310
asg79
Nsba(ibclass
BBasicBlock
p327
(dp328
g12
Nsg13
(lp329
(ibclass
BInstr
p330
(dp331
g2
Nsg17
S'MOV             W0, #0xFFFFFFEA'
p332
sg19
S'a0028012'
p333
sg21
Vmovn w0, #0x15
p334
sg5
L18446743798837737424L
sg6
Nsg23
S'MOV'
p335
sg25
S'0xffffffc0005cf7d0L'
p336
sg27
Nsba(ibclass
BInstr
p337
(dp338
g2
Nsg17
S'B               loc_FFFFFFC0005CF854'
p339
sg19
S'20000014'
p340
sg21
Vb #0x80
p341
sg5
L18446743798837737428L
sg6
Nsg23
g174
sg25
S'0xffffffc0005cf7d4L'
p342
sg27
Nsbasg56
(lp343
S'MOV reg, #0xFFFFFFEA'
p344
aS'B func'
p345
asg63
Nsg5
S'0xffffffc0005cf7d0L'
p346
sg65
(lp347
S'0xffffffc0005cf788L'
p348
aS'0xffffffc0005cf7c0L'
p349
asg6
Nsg67
(lp350
S'0xffffffc0005cf854L'
p351
asg71
Nsg72
Nsg73
S'b6c4e95ccfe77a95e4cf2019dd3d5574'
p352
sg75
S'a17f88dd95e9c87c91b756bdda64e5a5'
p353
sg77
(lp354
g335
ag174
asg79
Nsba(ibclass
BBasicBlock
p355
(dp356
g12
Nsg13
(lp357
(ibclass
BInstr
p358
(dp359
g2
Nsg17
S'LDR             X6, [X0,#0x20]'
p360
sg19
S'061040f9'
p361
sg21
Vldr x6, [x0, #0x20]
p362
sg5
L18446743798837737432L
sg6
Nsg23
S'LDR'
p363
sg25
S'0xffffffc0005cf7d8L'
p364
sg27
Nsba(ibclass
BInstr
p365
(dp366
g2
Nsg17
S'CMP             X1, X6'
p367
sg19
S'3f0006eb'
p368
sg21
Vcmp x1, x6
p369
sg5
L18446743798837737436L
sg6
Nsg23
S'CMP'
p370
sg25
S'0xffffffc0005cf7dcL'
p371
sg27
Nsba(ibclass
BInstr
p372
(dp373
g2
Nsg17
S'B.EQ            loc_FFFFFFC0005CF7F0'
p374
sg19
S'80000054'
p375
sg21
Vb.eq #0x10
p376
sg5
L18446743798837737440L
sg6
Nsg23
g174
sg25
S'0xffffffc0005cf7e0L'
p377
sg27
Nsbasg56
(lp378
S'LDR reg, mem'
p379
aS'CMP reg, reg'
p380
aS'B.EQ func'
p381
asg63
Nsg5
S'0xffffffc0005cf7d8L'
p382
sg65
(lp383
S'0xffffffc0005cf7b0L'
p384
asg6
Nsg67
(lp385
S'0xffffffc0005cf7e4L'
p386
aS'0xffffffc0005cf7f0L'
p387
asg71
Nsg72
Nsg73
S'fa4df767a85c49648339e2dc5c6807f6'
p388
sg75
S'851e7ff11fafbc29240da4b24261b732'
p389
sg77
(lp390
g363
ag370
ag174
asg79
Nsba(ibclass
BBasicBlock
p391
(dp392
g12
Nsg13
(lp393
(ibclass
BInstr
p394
(dp395
g2
Nsg17
S'ADRP            X0, #unk_FFFFFFC00135EFBB@PAGE'
p396
sg19
S'606c00f0'
p397
sg21
Vadrp x0, #0xd8f000
p398
sg5
L18446743798837737444L
sg6
Nsg23
S'ADRP'
p399
sg25
S'0xffffffc0005cf7e4L'
p400
sg27
Nsba(ibclass
BInstr
p401
(dp402
g2
Nsg17
S'ADD             X0, X0, #unk_FFFFFFC00135EFBB@PAGEOFF'
p403
sg19
S'00ec3e91'
p404
sg21
Vadd x0, x0, #0xfbb
p405
sg5
L18446743798837737448L
sg6
Nsg23
S'ADD'
p406
sg25
S'0xffffffc0005cf7e8L'
p407
sg27
Nsba(ibclass
BInstr
p408
(dp409
g2
Nsg17
S'B               loc_FFFFFFC0005CF7C0'
p410
sg19
S'f5ffff17'
p411
sg21
Vb #0xffffffffffffffd4
p412
sg5
L18446743798837737452L
sg6
Nsg23
g174
sg25
S'0xffffffc0005cf7ecL'
p413
sg27
Nsbasg56
(lp414
S'ADRP reg, #func@PAGE'
p415
aS'ADD reg, reg, #func@PAGEOFF'
p416
aS'B func'
p417
asg63
Nsg5
S'0xffffffc0005cf7e4L'
p418
sg65
(lp419
S'0xffffffc0005cf7d8L'
p420
asg6
Nsg67
(lp421
S'0xffffffc0005cf7c0L'
p422
asg71
Nsg72
Nsg73
S'fbb05d8d8f727699d69de49f56b5b4c8'
p423
sg75
S'504e84c4ef9350eb8240fe83ea7f699a'
p424
sg77
(lp425
g399
ag406
ag174
asg79
Nsba(ibclass
BBasicBlock
p426
(dp427
g12
Nsg13
(lp428
(ibclass
BInstr
p429
(dp430
g2
Nsg17
S'CMP             X2, X1'
p431
sg19
S'5f0001eb'
p432
sg21
Vcmp x2, x1
p433
sg5
L18446743798837737456L
sg6
Nsg23
S'CMP'
p434
sg25
S'0xffffffc0005cf7f0L'
p435
sg27
Nsba(ibclass
BInstr
p436
(dp437
g2
Nsg17
S'B.CC            loc_FFFFFFC0005CF808'
p438
sg19
S'a3000054'
p439
sg21
Vb.lo #0x14
p440
sg5
L18446743798837737460L
sg6
Nsg23
g174
sg25
S'0xffffffc0005cf7f4L'
p441
sg27
Nsbasg56
(lp442
S'CMP reg, reg'
p443
aS'B.CC func'
p444
asg63
Nsg5
S'0xffffffc0005cf7f0L'
p445
sg65
(lp446
S'0xffffffc0005cf7d8L'
p447
asg6
Nsg67
(lp448
S'0xffffffc0005cf7f8L'
p449
aS'0xffffffc0005cf808L'
p450
asg71
Nsg72
Nsg73
S'c78fd620a449e3c979d3f3ec12d4ee88'
p451
sg75
S'a56b730cef05e4dbbe273d7f30aeabb8'
p452
sg77
(lp453
g434
ag174
asg79
Nsba(ibclass
BBasicBlock
p454
(dp455
g12
Nsg13
(lp456
(ibclass
BInstr
p457
(dp458
g2
Nsg17
S'LDR             X6, [X0,#0x28]'
p459
sg19
S'061440f9'
p460
sg21
Vldr x6, [x0, #0x28]
p461
sg5
L18446743798837737464L
sg6
Nsg23
S'LDR'
p462
sg25
S'0xffffffc0005cf7f8L'
p463
sg27
Nsba(ibclass
BInstr
p464
(dp465
g2
Nsg17
S'ADD             X1, X1, X6'
p466
sg19
S'2100068b'
p467
sg21
Vadd x1, x1, x6
p468
sg5
L18446743798837737468L
sg6
Nsg23
S'ADD'
p469
sg25
S'0xffffffc0005cf7fcL'
p470
sg27
Nsba(ibclass
BInstr
p471
(dp472
g2
Nsg17
S'CMP             X2, X1'
p473
sg19
S'5f0001eb'
p474
sg21
Vcmp x2, x1
p475
sg5
L18446743798837737472L
sg6
Nsg23
S'CMP'
p476
sg25
S'0xffffffc0005cf800L'
p477
sg27
Nsba(ibclass
BInstr
p478
(dp479
g2
Nsg17
S'B.CC            loc_FFFFFFC0005CF814'
p480
sg19
S'83000054'
p481
sg21
Vb.lo #0x10
p482
sg5
L18446743798837737476L
sg6
Nsg23
g174
sg25
S'0xffffffc0005cf804L'
p483
sg27
Nsbasg56
(lp484
S'LDR reg, mem'
p485
aS'ADD reg, reg, reg'
p486
aS'CMP reg, reg'
p487
aS'B.CC func'
p488
asg63
Nsg5
S'0xffffffc0005cf7f8L'
p489
sg65
(lp490
S'0xffffffc0005cf7f0L'
p491
asg6
Nsg67
(lp492
S'0xffffffc0005cf808L'
p493
aS'0xffffffc0005cf814L'
p494
asg71
Nsg72
Nsg73
S'f58179a3884326010ced9866bee49b8f'
p495
sg75
S'c4de18e463ac2b10a981ced144df1ed4'
p496
sg77
(lp497
g462
ag469
ag476
ag174
asg79
Nsba(ibclass
BBasicBlock
p498
(dp499
g12
Nsg13
(lp500
(ibclass
BInstr
p501
(dp502
g2
Nsg17
S'ADRP            X0, #unk_FFFFFFC00135CA06@PAGE'
p503
sg19
S'606c00b0'
p504
sg21
Vadrp x0, #0xd8d000
p505
sg5
L18446743798837737480L
sg6
Nsg23
S'ADRP'
p506
sg25
S'0xffffffc0005cf808L'
p507
sg27
Nsba(ibclass
BInstr
p508
(dp509
g2
Nsg17
S'ADD             X0, X0, #unk_FFFFFFC00135CA06@PAGEOFF'
p510
sg19
S'00182891'
p511
sg21
Vadd x0, x0, #0xa06
p512
sg5
L18446743798837737484L
sg6
Nsg23
S'ADD'
p513
sg25
S'0xffffffc0005cf80cL'
p514
sg27
Nsba(ibclass
BInstr
p515
(dp516
g2
Nsg17
S'B               loc_FFFFFFC0005CF7C0'
p517
sg19
S'ecffff17'
p518
sg21
Vb #0xffffffffffffffb0
p519
sg5
L18446743798837737488L
sg6
Nsg23
g174
sg25
S'0xffffffc0005cf810L'
p520
sg27
Nsbasg56
(lp521
S'ADRP reg, #func@PAGE'
p522
aS'ADD reg, reg, #func@PAGEOFF'
p523
aS'B func'
p524
asg63
Nsg5
S'0xffffffc0005cf808L'
p525
sg65
(lp526
S'0xffffffc0005cf7f0L'
p527
aS'0xffffffc0005cf7f8L'
p528
asg6
Nsg67
(lp529
S'0xffffffc0005cf7c0L'
p530
asg71
Nsg72
Nsg73
S'fbb05d8d8f727699d69de49f56b5b4c8'
p531
sg75
S'504e84c4ef9350eb8240fe83ea7f699a'
p532
sg77
(lp533
g506
ag513
ag174
asg79
Nsba(ibclass
BBasicBlock
p534
(dp535
g12
Nsg13
(lp536
(ibclass
BInstr
p537
(dp538
g2
Nsg17
S'LDR             W2, [X4]'
p539
sg19
S'820040b9'
p540
sg21
Vldr w2, [x4]
p541
sg5
L18446743798837737492L
sg6
Nsg23
S'LDR'
p542
sg25
S'0xffffffc0005cf814L'
p543
sg27
Nsba(ibclass
BInstr
p544
(dp545
g2
Nsg17
S'LDR             X1, [X0,#0x10]'
p546
sg19
S'010840f9'
p547
sg21
Vldr x1, [x0, #0x10]
p548
sg5
L18446743798837737496L
sg6
Nsg23
S'LDR'
p549
sg25
S'0xffffffc0005cf818L'
p550
sg27
Nsba(ibclass
BInstr
p551
(dp552
g2
Nsg17
S'STR             W2, [X3]'
p553
sg19
S'620000b9'
p554
sg21
Vstr w2, [x3]
p555
sg5
L18446743798837737500L
sg6
Nsg23
S'STR'
p556
sg25
S'0xffffffc0005cf81cL'
p557
sg27
Nsba(ibclass
BInstr
p558
(dp559
g2
Nsg17
S'LDR             W1, [X1]'
p560
sg19
S'210040b9'
p561
sg21
Vldr w1, [x1]
p562
sg5
L18446743798837737504L
sg6
Nsg23
S'LDR'
p563
sg25
S'0xffffffc0005cf820L'
p564
sg27
Nsba(ibclass
BInstr
p565
(dp566
g2
Nsg17
S'STR             W1, [X3,#4]'
p567
sg19
S'610400b9'
p568
sg21
Vstr w1, [x3, #4]
p569
sg5
L18446743798837737508L
sg6
Nsg23
S'STR'
p570
sg25
S'0xffffffc0005cf824L'
p571
sg27
Nsba(ibclass
BInstr
p572
(dp573
g2
Nsg17
S'LDR             W1, [X4,#0x10]'
p574
sg19
S'811040b9'
p575
sg21
Vldr w1, [x4, #0x10]
p576
sg5
L18446743798837737512L
sg6
Nsg23
S'LDR'
p577
sg25
S'0xffffffc0005cf828L'
p578
sg27
Nsba(ibclass
BInstr
p579
(dp580
g2
Nsg17
S'STR             W1, [X3,#8]'
p581
sg19
S'610800b9'
p582
sg21
Vstr w1, [x3, #8]
p583
sg5
L18446743798837737516L
sg6
Nsg23
S'STR'
p584
sg25
S'0xffffffc0005cf82cL'
p585
sg27
Nsba(ibclass
BInstr
p586
(dp587
g2
Nsg17
S'LDR             X1, [X0,#0x20]'
p588
sg19
S'011040f9'
p589
sg21
Vldr x1, [x0, #0x20]
p590
sg5
L18446743798837737520L
sg6
Nsg23
S'LDR'
p591
sg25
S'0xffffffc0005cf830L'
p592
sg27
Nsba(ibclass
BInstr
p593
(dp594
g2
Nsg17
S'LDR             X2, [X4,#0x18]'
p595
sg19
S'820c40f9'
p596
sg21
Vldr x2, [x4, #0x18]
p597
sg5
L18446743798837737524L
sg6
Nsg23
S'LDR'
p598
sg25
S'0xffffffc0005cf834L'
p599
sg27
Nsba(ibclass
BInstr
p600
(dp601
g2
Nsg17
S'SUB             X2, X2, X1'
p602
sg19
S'420001cb'
p603
sg21
Vsub x2, x2, x1
p604
sg5
L18446743798837737528L
sg6
Nsg23
S'SUB'
p605
sg25
S'0xffffffc0005cf838L'
p606
sg27
Nsba(ibclass
BInstr
p607
(dp608
g2
Nsg17
S'LDR             X1, [X0,#0x18]'
p609
sg19
S'010c40f9'
p610
sg21
Vldr x1, [x0, #0x18]
p611
sg5
L18446743798837737532L
sg6
Nsg23
S'LDR'
p612
sg25
S'0xffffffc0005cf83cL'
p613
sg27
Nsba(ibclass
BInstr
p614
(dp615
g2
Nsg17
S'ADD             X0, X2, X1'
p616
sg19
S'4000018b'
p617
sg21
Vadd x0, x2, x1
p618
sg5
L18446743798837737536L
sg6
Nsg23
S'ADD'
p619
sg25
S'0xffffffc0005cf840L'
p620
sg27
Nsba(ibclass
BInstr
p621
(dp622
g2
Nsg17
S'STR             W0, [X3,#0xC]'
p623
sg19
S'600c00b9'
p624
sg21
Vstr w0, [x3, #0xc]
p625
sg5
L18446743798837737540L
sg6
Nsg23
S'STR'
p626
sg25
S'0xffffffc0005cf844L'
p627
sg27
Nsba(ibclass
BInstr
p628
(dp629
g2
Nsg17
S'LDR             W0, [X4,#0x20]'
p630
sg19
S'802040b9'
p631
sg21
Vldr w0, [x4, #0x20]
p632
sg5
L18446743798837737544L
sg6
Nsg23
S'LDR'
p633
sg25
S'0xffffffc0005cf848L'
p634
sg27
Nsba(ibclass
BInstr
p635
(dp636
g2
Nsg17
S'STR             W0, [X3,#0x10]'
p637
sg19
S'601000b9'
p638
sg21
Vstr w0, [x3, #0x10]
p639
sg5
L18446743798837737548L
sg6
Nsg23
S'STR'
p640
sg25
S'0xffffffc0005cf84cL'
p641
sg27
Nsba(ibclass
BInstr
p642
(dp643
g2
Nsg17
S'MOV             W0, W5'
p644
sg19
S'e003052a'
p645
sg21
Vmov w0, w5
p646
sg5
L18446743798837737552L
sg6
Nsg23
S'MOV'
p647
sg25
S'0xffffffc0005cf850L'
p648
sg27
Nsbasg56
(lp649
S'LDR reg, mem'
p650
aS'LDR reg, mem'
p651
aS'STR reg, mem'
p652
aS'LDR reg, mem'
p653
aS'STR reg, mem'
p654
aS'LDR reg, mem'
p655
aS'STR reg, mem'
p656
aS'LDR reg, mem'
p657
aS'LDR reg, mem'
p658
aS'SUB reg, reg, reg'
p659
aS'LDR reg, mem'
p660
aS'ADD reg, reg, reg'
p661
aS'STR reg, mem'
p662
aS'LDR reg, mem'
p663
aS'STR reg, mem'
p664
aS'MOV reg, reg'
p665
asg63
Nsg5
S'0xffffffc0005cf814L'
p666
sg65
(lp667
S'0xffffffc0005cf7f8L'
p668
asg6
Nsg67
(lp669
S'0xffffffc0005cf854L'
p670
asg71
Nsg72
Nsg73
S'ccb32274c28649af42ec2e319fcda536'
p671
sg75
S'7a143052a355e5048c064e7baaa8e701'
p672
sg77
(lp673
g542
ag549
ag556
ag563
ag570
ag577
ag584
ag591
ag598
ag605
ag612
ag619
ag626
ag633
ag640
ag647
asg79
Nsba(ibclass
BBasicBlock
p674
(dp675
g12
Nsg13
(lp676
(ibclass
BInstr
p677
(dp678
g2
Nsg17
S'LDP             X29, X30, [SP+var_s0],#0x10'
p679
sg19
S'fd7bc1a8'
p680
sg21
Vldp x29, x30, [sp], #0x10
p681
sg5
L18446743798837737556L
sg6
Nsg23
S'LDP'
p682
sg25
S'0xffffffc0005cf854L'
p683
sg27
Nsba(ibclass
BInstr
p684
(dp685
g2
Nsg17
S'RET'
p686
sg19
S'c0035fd6'
p687
sg21
Vret 
p688
sg5
L18446743798837737560L
sg6
Nsg23
S'RET'
p689
sg25
S'0xffffffc0005cf858L'
p690
sg27
Nsbasg56
(lp691
S'LDP reg9, reg0, mem,#0x10'
p692
ag686
asg63
Nsg5
S'0xffffffc0005cf854L'
p693
sg65
(lp694
S'0xffffffc0005cf7d0L'
p695
aS'0xffffffc0005cf814L'
p696
asg6
Nsg67
(lp697
sg71
Nsg72
Nsg73
S'3d517d9f03fd129b48e60b4db531cca0'
p698
sg75
S'8846ee026fc62da58c19e0b2e704071d'
p699
sg77
(lp700
g682
ag689
asg79
Nsbasb.