(ibclass
BFunc
p0
(dp1
S'hash'
p2
NsS'name'
p3
S'__alloc_from_pool'
p4
sS'start_address'
p5
L18446743798833809996L
sS'flag'
p6
NsS'program'
p7
NsS'bbs'
p8
(lp9
(ibclass
BBasicBlock
p10
(dp11
S'function'
p12
NsS'binstrs'
p13
(lp14
(ibclass
BInstr
p15
(dp16
g2
NsS'disasm'
p17
S'STP             X29, X30, [SP,#-0x10+var_40]!'
p18
sS'bytes'
p19
S'fd7bbba9'
p20
sS'disasm_striped'
p21
Vstp x29, x30, [sp, #-0x50]!
p22
sg5
L18446743798833809996L
sg6
NsS'mnem'
p23
S'STP'
p24
sS'address'
p25
S'0xffffffc000210a4cL'
p26
sS'basicblock'
p27
Nsba(ibclass
BInstr
p28
(dp29
g2
Nsg17
S'MOV             X29, SP'
p30
sg19
S'fd030091'
p31
sg21
Vmov x29, sp
p32
sg5
L18446743798833810000L
sg6
Nsg23
S'MOV'
p33
sg25
S'0xffffffc000210a50L'
p34
sg27
Nsba(ibclass
BInstr
p35
(dp36
g2
Nsg17
S'STP             X21, X22, [SP,#0x40+var_20]'
p37
sg19
S'f55b02a9'
p38
sg21
Vstp x21, x22, [sp, #0x20]
p39
sg5
L18446743798833810004L
sg6
Nsg23
S'STP'
p40
sg25
S'0xffffffc000210a54L'
p41
sg27
Nsba(ibclass
BInstr
p42
(dp43
g2
Nsg17
S'ADRP            X22, #atomic_pool@PAGE'
p44
sg19
S'b6b00090'
p45
sg21
Vadrp x22, #0x1614000
p46
sg5
L18446743798833810008L
sg6
Nsg23
S'ADRP'
p47
sg25
S'0xffffffc000210a58L'
p48
sg27
Nsba(ibclass
BInstr
p49
(dp50
g2
Nsg17
S'STP             X23, X24, [SP,#0x40+var_10]'
p51
sg19
S'f76303a9'
p52
sg21
Vstp x23, x24, [sp, #0x30]
p53
sg5
L18446743798833810012L
sg6
Nsg23
S'STP'
p54
sg25
S'0xffffffc000210a5cL'
p55
sg27
Nsba(ibclass
BInstr
p56
(dp57
g2
Nsg17
S'STP             X19, X20, [SP,#0x40+var_30]'
p58
sg19
S'f35301a9'
p59
sg21
Vstp x19, x20, [sp, #0x10]
p60
sg5
L18446743798833810016L
sg6
Nsg23
S'STP'
p61
sg25
S'0xffffffc000210a60L'
p62
sg27
Nsba(ibclass
BInstr
p63
(dp64
g2
Nsg17
S'STR             X25, [SP,#0x40+var_s0]'
p65
sg19
S'f92300f9'
p66
sg21
Vstr x25, [sp, #0x40]
p67
sg5
L18446743798833810020L
sg6
Nsg23
S'STR'
p68
sg25
S'0xffffffc000210a64L'
p69
sg27
Nsba(ibclass
BInstr
p70
(dp71
g2
Nsg17
S'MOV             X24, X1'
p72
sg19
S'f80301aa'
p73
sg21
Vmov x24, x1
p74
sg5
L18446743798833810024L
sg6
Nsg23
S'MOV'
p75
sg25
S'0xffffffc000210a68L'
p76
sg27
Nsba(ibclass
BInstr
p77
(dp78
g2
Nsg17
S'ADD             X1, X22, #atomic_pool@PAGEOFF'
p79
sg19
S'c1421e91'
p80
sg21
Vadd x1, x22, #0x790
p81
sg5
L18446743798833810028L
sg6
Nsg23
S'ADD'
p82
sg25
S'0xffffffc000210a6cL'
p83
sg27
Nsba(ibclass
BInstr
p84
(dp85
g2
Nsg17
S'LDR             X19, [X1,#(qword_FFFFFFC0018247A0 - 0xFFFFFFC001824790)]'
p86
sg19
S'330840f9'
p87
sg21
Vldr x19, [x1, #0x10]
p88
sg5
L18446743798833810032L
sg6
Nsg23
S'LDR'
p89
sg25
S'0xffffffc000210a70L'
p90
sg27
Nsba(ibclass
BInstr
p91
(dp92
g2
Nsg17
S'CBNZ            X19, loc_FFFFFFC000210A94'
p93
sg19
S'130100b5'
p94
sg21
Vcbnz x19, #0x20
p95
sg5
L18446743798833810036L
sg6
Nsg23
S'CBNZ'
p96
sg25
S'0xffffffc000210a74L'
p97
sg27
NsbasS'disasm_list'
p98
(lp99
S'STP reg9, reg0, mem!'
p100
aS'MOV reg9, SP'
p101
aS'STP reg1, reg2, mem'
p102
aS'ADRP reg2, #atomic_pool@PAGE'
p103
aS'STP reg3, reg4, mem'
p104
aS'STP reg9, reg0, mem'
p105
aS'STR reg5, mem'
p106
aS'MOV reg4, reg'
p107
aS'ADD reg, reg2, #atomic_pool@PAGEOFF'
p108
aS'LDR reg9, mem'
p109
aS'CBNZ reg9, func'
p110
asS'end_address'
p111
Nsg5
S'0xffffffc000210a4cL'
p112
sS'preds'
p113
(lp114
sg6
NsS'succs'
p115
(lp116
S'0xffffffc000210a78L'
p117
aS'0xffffffc000210a94L'
p118
asS'hash_v3'
p119
NsS'flag_v2'
p120
NsS'hash_v1'
p121
S'a2595b061da0912633c5010a7d0fc49a'
p122
sS'hash_v2'
p123
S'e999510e0fbb4290994904b921a54420'
p124
sS'mnen_list'
p125
(lp126
g24
ag33
ag40
ag47
ag54
ag61
ag68
ag75
ag82
ag89
ag96
asS'neighbour_disasm_list'
p127
Nsba(ibclass
BBasicBlock
p128
(dp129
g12
Nsg13
(lp130
(ibclass
BInstr
p131
(dp132
g2
Nsg17
S'ADRP            X0, #aArchArm64MmDma@PAGE; "arch/arm64/mm/dma-mapping.c"'
p133
sg19
S'c08600b0'
p134
sg21
Vadrp x0, #0x10d9000
p135
sg5
L18446743798833810040L
sg6
Nsg23
S'ADRP'
p136
sg25
S'0xffffffc000210a78L'
p137
sg27
Nsba(ibclass
BInstr
p138
(dp139
g2
Nsg17
S'ADRP            X2, #aCoherentPoolNo@PAGE; "coherent pool not initialised!\\n"'
p140
sg19
S'c28600d0'
p141
sg21
Vadrp x2, #0x10da000
p142
sg5
L18446743798833810044L
sg6
Nsg23
S'ADRP'
p143
sg25
S'0xffffffc000210a7cL'
p144
sg27
Nsba(ibclass
BInstr
p145
(dp146
g2
Nsg17
S'ADD             X0, X0, #aArchArm64MmDma@PAGEOFF; "arch/arm64/mm/dma-mapping.c"'
p147
sg19
S'00403e91'
p148
sg21
Vadd x0, x0, #0xf90
p149
sg5
L18446743798833810048L
sg6
Nsg23
S'ADD'
p150
sg25
S'0xffffffc000210a80L'
p151
sg27
Nsba(ibclass
BInstr
p152
(dp153
g2
Nsg17
S'MOV             W1, #0x4A'
p154
sg19
S'41098052'
p155
sg21
Vmovz w1, #0x4a
p156
sg5
L18446743798833810052L
sg6
Nsg23
S'MOV'
p157
sg25
S'0xffffffc000210a84L'
p158
sg27
Nsba(ibclass
BInstr
p159
(dp160
g2
Nsg17
S'ADD             X2, X2, #aCoherentPoolNo@PAGEOFF; "coherent pool not initialised!\\n"'
p161
sg19
S'42280091'
p162
sg21
Vadd x2, x2, #0xa
p163
sg5
L18446743798833810056L
sg6
Nsg23
S'ADD'
p164
sg25
S'0xffffffc000210a88L'
p165
sg27
Nsba(ibclass
BInstr
p166
(dp167
g2
Nsg17
S'BL              warn_slowpath_fmt'
p168
sg19
S'a42e0094'
p169
sg21
Vbl #0xba90
p170
sg5
L18446743798833810060L
sg6
Nsg23
S'BL'
p171
sg25
S'0xffffffc000210a8cL'
p172
sg27
Nsba(ibclass
BInstr
p173
(dp174
g2
Nsg17
S'B               loc_FFFFFFC000210B68'
p175
sg19
S'36000014'
p176
sg21
Vb #0xd8
p177
sg5
L18446743798833810064L
sg6
Nsg23
S'B'
p178
sg25
S'0xffffffc000210a90L'
p179
sg27
Nsbasg98
(lp180
S'ADRP reg, #aArchArm64MmDma@PAGE'
p181
aS'ADRP reg, #aCoherentPoolNo@PAGE'
p182
aS'ADD reg, reg, #aArchArm64MmDma@PAGEOFF'
p183
aS'MOV reg, #0x4A'
p184
aS'ADD reg, reg, #aCoherentPoolNo@PAGEOFF'
p185
aS'BL warn_slowpath_fmt'
p186
aS'B func'
p187
asg111
Nsg5
S'0xffffffc000210a78L'
p188
sg113
(lp189
S'0xffffffc000210a4cL'
p190
asg6
Nsg115
(lp191
S'0xffffffc000210b68L'
p192
asg119
Nsg120
Nsg121
S'ff7f44466e74267aa9d96fda41da35ba'
p193
sg123
S'6089864524c811b8f8061b1e4c5671f2'
p194
sg125
(lp195
g136
ag143
ag150
ag157
ag164
ag171
ag178
asg127
Nsba(ibclass
BBasicBlock
p196
(dp197
g12
Nsg13
(lp198
(ibclass
BInstr
p199
(dp200
g2
Nsg17
S'SUB             X1, X0, #1'
p201
sg19
S'010400d1'
p202
sg21
Vsub x1, x0, #1
p203
sg5
L18446743798833810068L
sg6
Nsg23
S'SUB'
p204
sg25
S'0xffffffc000210a94L'
p205
sg27
Nsba(ibclass
BInstr
p206
(dp207
g2
Nsg17
S'UBFM            X1, X1, #0xC, #0x3F'
p208
sg19
S'21fc4cd3'
p209
sg21
Vlsr x1, x1, #0xc
p210
sg5
L18446743798833810072L
sg6
Nsg23
S'UBFM'
p211
sg25
S'0xffffffc000210a98L'
p212
sg27
Nsba(ibclass
BInstr
p213
(dp214
g2
Nsg17
S'MOV             W20, #0'
p215
sg19
S'14008052'
p216
sg21
Vmovz w20, #0
p217
sg5
L18446743798833810076L
sg6
Nsg23
S'MOV'
p218
sg25
S'0xffffffc000210a9cL'
p219
sg27
Nsba(ibclass
BInstr
p220
(dp221
g2
Nsg17
S'CBZ             X1, loc_FFFFFFC000210AB4'
p222
sg19
S'a10000b4'
p223
sg21
Vcbz x1, #0x14
p224
sg5
L18446743798833810080L
sg6
Nsg23
S'CBZ'
p225
sg25
S'0xffffffc000210aa0L'
p226
sg27
Nsbasg98
(lp227
S'SUB reg, reg, #1'
p228
aS'UBFM reg, reg, #0xC, #0x3F'
p229
aS'MOV reg0, #0'
p230
aS'CBZ reg, func'
p231
asg111
Nsg5
S'0xffffffc000210a94L'
p232
sg113
(lp233
S'0xffffffc000210a4cL'
p234
asg6
Nsg115
(lp235
S'0xffffffc000210aa4L'
p236
aS'0xffffffc000210ab4L'
p237
asg119
Nsg120
Nsg121
S'1f6e2200f100bb5fffce9dc3af05a97f'
p238
sg123
S'0162b83aa5d96cd9f4d629428bae2a27'
p239
sg125
(lp240
g204
ag211
ag218
ag225
asg127
Nsba(ibclass
BBasicBlock
p241
(dp242
g12
Nsg13
(lp243
(ibclass
BInstr
p244
(dp245
g2
Nsg17
S'CLZ             X1, X1'
p246
sg19
S'2110c0da'
p247
sg21
Vclz x1, x1
p248
sg5
L18446743798833810084L
sg6
Nsg23
S'CLZ'
p249
sg25
S'0xffffffc000210aa4L'
p250
sg27
Nsba(ibclass
BInstr
p251
(dp252
g2
Nsg17
S'MOV             X20, #0x3F'
p253
sg19
S'f40780d2'
p254
sg21
Vmovz x20, #0x3f
p255
sg5
L18446743798833810088L
sg6
Nsg23
S'MOV'
p256
sg25
S'0xffffffc000210aa8L'
p257
sg27
Nsba(ibclass
BInstr
p258
(dp259
g2
Nsg17
S'SUB             X20, X20, X1'
p260
sg19
S'940201cb'
p261
sg21
Vsub x20, x20, x1
p262
sg5
L18446743798833810092L
sg6
Nsg23
S'SUB'
p263
sg25
S'0xffffffc000210aacL'
p264
sg27
Nsba(ibclass
BInstr
p265
(dp266
g2
Nsg17
S'ADD             W20, W20, #1'
p267
sg19
S'94060011'
p268
sg21
Vadd w20, w20, #1
p269
sg5
L18446743798833810096L
sg6
Nsg23
S'ADD'
p270
sg25
S'0xffffffc000210ab0L'
p271
sg27
Nsbasg98
(lp272
S'CLZ reg, reg'
p273
aS'MOV reg0, #0x3F'
p274
aS'SUB reg0, reg0, reg'
p275
aS'ADD reg0, reg0, #1'
p276
asg111
Nsg5
S'0xffffffc000210aa4L'
p277
sg113
(lp278
S'0xffffffc000210a94L'
p279
asg6
Nsg115
(lp280
S'0xffffffc000210ab4L'
p281
asg119
Nsg120
Nsg121
S'ae723e597241e59887353aaf9d7ab9a1'
p282
sg123
S'a37a1b1c08b20e7993c9111b684d66b7'
p283
sg125
(lp284
g249
ag256
ag263
ag270
asg127
Nsba(ibclass
BBasicBlock
p285
(dp286
g12
Nsg13
(lp287
(ibclass
BInstr
p288
(dp289
g2
Nsg17
S'ADD             X19, X22, #atomic_pool@PAGEOFF'
p290
sg19
S'd3421e91'
p291
sg21
Vadd x19, x22, #0x790
p292
sg5
L18446743798833810100L
sg6
Nsg23
S'ADD'
p293
sg25
S'0xffffffc000210ab4L'
p294
sg27
Nsba(ibclass
BInstr
p295
(dp296
g2
Nsg17
S'ADD             X21, X0, #0xFFF'
p297
sg19
S'15fc3f91'
p298
sg21
Vadd x21, x0, #0xfff
p299
sg5
L18446743798833810104L
sg6
Nsg23
S'ADD'
p300
sg25
S'0xffffffc000210ab8L'
p301
sg27
Nsba(ibclass
BInstr
p302
(dp303
g2
Nsg17
S'MOV             W23, #1'
p304
sg19
S'37008052'
p305
sg21
Vmovz w23, #0x1
p306
sg5
L18446743798833810108L
sg6
Nsg23
S'MOV'
p307
sg25
S'0xffffffc000210abcL'
p308
sg27
Nsba(ibclass
BInstr
p309
(dp310
g2
Nsg17
S'ADD             X0, X19, #8'
p311
sg19
S'60220091'
p312
sg21
Vadd x0, x19, #8
p313
sg5
L18446743798833810112L
sg6
Nsg23
S'ADD'
p314
sg25
S'0xffffffc000210ac0L'
p315
sg27
Nsba(ibclass
BInstr
p316
(dp317
g2
Nsg17
S'BL              _raw_spin_lock_irqsave'
p318
sg19
S'daaf3094'
p319
sg21
Vbl #0xc2bf68
p320
sg5
L18446743798833810116L
sg6
Nsg23
S'BL'
p321
sg25
S'0xffffffc000210ac4L'
p322
sg27
Nsba(ibclass
BInstr
p323
(dp324
g2
Nsg17
S'LSL             W20, W23, W20'
p325
sg19
S'f422d41a'
p326
sg21
Vlsl w20, w23, w20
p327
sg5
L18446743798833810120L
sg6
Nsg23
S'LSL'
p328
sg25
S'0xffffffc000210ac8L'
p329
sg27
Nsba(ibclass
BInstr
p330
(dp331
g2
Nsg17
S'SUB             W4, W20, #1'
p332
sg19
S'84060051'
p333
sg21
Vsub w4, w20, #1
p334
sg5
L18446743798833810124L
sg6
Nsg23
S'SUB'
p335
sg25
S'0xffffffc000210accL'
p336
sg27
Nsba(ibclass
BInstr
p337
(dp338
g2
Nsg17
S'LDR             X1, [X19,#(qword_FFFFFFC0018247B0 - 0xFFFFFFC001824790)]'
p339
sg19
S'611240f9'
p340
sg21
Vldr x1, [x19, #0x20]
p341
sg5
L18446743798833810128L
sg6
Nsg23
S'LDR'
p342
sg25
S'0xffffffc000210ad0L'
p343
sg27
Nsba(ibclass
BInstr
p344
(dp345
g2
Nsg17
S'MOV             X2, #0'
p346
sg19
S'020080d2'
p347
sg21
Vmovz x2, #0
p348
sg5
L18446743798833810132L
sg6
Nsg23
S'MOV'
p349
sg25
S'0xffffffc000210ad4L'
p350
sg27
Nsba(ibclass
BInstr
p351
(dp352
g2
Nsg17
S'UBFM            X21, X21, #0xC, #0x3F'
p353
sg19
S'b5fe4cd3'
p354
sg21
Vlsr x21, x21, #0xc
p355
sg5
L18446743798833810136L
sg6
Nsg23
S'UBFM'
p356
sg25
S'0xffffffc000210ad8L'
p357
sg27
Nsba(ibclass
BInstr
p358
(dp359
g2
Nsg17
S'MOV             X25, X0'
p360
sg19
S'f90300aa'
p361
sg21
Vmov x25, x0
p362
sg5
L18446743798833810140L
sg6
Nsg23
S'MOV'
p363
sg25
S'0xffffffc000210adcL'
p364
sg27
Nsba(ibclass
BInstr
p365
(dp366
g2
Nsg17
S'LDR             X0, [X19,#(qword_FFFFFFC0018247A8 - 0xFFFFFFC001824790)]'
p367
sg19
S'600e40f9'
p368
sg21
Vldr x0, [x19, #0x18]
p369
sg5
L18446743798833810144L
sg6
Nsg23
S'LDR'
p370
sg25
S'0xffffffc000210ae0L'
p371
sg27
Nsba(ibclass
BInstr
p372
(dp373
g2
Nsg17
S'MOV             W3, W21'
p374
sg19
S'e303152a'
p375
sg21
Vmov w3, w21
p376
sg5
L18446743798833810148L
sg6
Nsg23
S'MOV'
p377
sg25
S'0xffffffc000210ae4L'
p378
sg27
Nsba(ibclass
BInstr
p379
(dp380
g2
Nsg17
S'SBFM            X4, X4, #0, #0x1F'
p381
sg19
S'847c4093'
p382
sg21
Vsxtw x4, w4
p383
sg5
L18446743798833810152L
sg6
Nsg23
S'SBFM'
p384
sg25
S'0xffffffc000210ae8L'
p385
sg27
Nsba(ibclass
BInstr
p386
(dp387
g2
Nsg17
S'MOV             X5, X2'
p388
sg19
S'e50302aa'
p389
sg21
Vmov x5, x2
p390
sg5
L18446743798833810156L
sg6
Nsg23
S'MOV'
p391
sg25
S'0xffffffc000210aecL'
p392
sg27
Nsba(ibclass
BInstr
p393
(dp394
g2
Nsg17
S'BL              bitmap_find_next_zero_area_off'
p395
sg19
S'4c710894'
p396
sg21
Vbl #0x21c530
p397
sg5
L18446743798833810160L
sg6
Nsg23
S'BL'
p398
sg25
S'0xffffffc000210af0L'
p399
sg27
Nsba(ibclass
BInstr
p400
(dp401
g2
Nsg17
S'AND             X20, X0, #0xFFFFFFFF'
p402
sg19
S'147c4092'
p403
sg21
Vand x20, x0, #0xffffffff
p404
sg5
L18446743798833810164L
sg6
Nsg23
S'AND'
p405
sg25
S'0xffffffc000210af4L'
p406
sg27
Nsba(ibclass
BInstr
p407
(dp408
g2
Nsg17
S'MOV             X1, X0'
p409
sg19
S'e10300aa'
p410
sg21
Vmov x1, x0
p411
sg5
L18446743798833810168L
sg6
Nsg23
S'MOV'
p412
sg25
S'0xffffffc000210af8L'
p413
sg27
Nsba(ibclass
BInstr
p414
(dp415
g2
Nsg17
S'LDR             X0, [X19,#(qword_FFFFFFC0018247B0 - 0xFFFFFFC001824790)]'
p416
sg19
S'601240f9'
p417
sg21
Vldr x0, [x19, #0x20]
p418
sg5
L18446743798833810172L
sg6
Nsg23
S'LDR'
p419
sg25
S'0xffffffc000210afcL'
p420
sg27
Nsba(ibclass
BInstr
p421
(dp422
g2
Nsg17
S'CMP             X20, X0'
p423
sg19
S'9f0200eb'
p424
sg21
Vcmp x20, x0
p425
sg5
L18446743798833810176L
sg6
Nsg23
S'CMP'
p426
sg25
S'0xffffffc000210b00L'
p427
sg27
Nsba(ibclass
BInstr
p428
(dp429
g2
Nsg17
S'B.CS            loc_FFFFFFC000210B2C'
p430
sg19
S'42010054'
p431
sg21
Vb.hs #0x28
p432
sg5
L18446743798833810180L
sg6
Nsg23
g178
sg25
S'0xffffffc000210b04L'
p433
sg27
Nsbasg98
(lp434
S'ADD reg9, reg2, #atomic_pool@PAGEOFF'
p435
aS'ADD reg1, reg, #0xFFF'
p436
aS'MOV reg3, #1'
p437
aS'ADD reg, reg9, #8'
p438
aS'BL _raw_spin_lock_irqsave'
p439
aS'LSL reg0, reg3, reg0'
p440
aS'SUB reg, reg0, #1'
p441
aS'LDR reg, mem'
p442
aS'MOV reg, #0'
p443
aS'UBFM reg1, reg1, #0xC, #0x3F'
p444
aS'MOV reg5, reg'
p445
aS'LDR reg, mem'
p446
aS'MOV reg, reg1'
p447
aS'SBFM reg, reg, #0, #0x1F'
p448
aS'MOV reg, reg'
p449
aS'BL bitmap_find_next_zero_area_off'
p450
aS'AND reg0, reg, #0xFFFFFFFF'
p451
aS'MOV reg, reg'
p452
aS'LDR reg, mem'
p453
aS'CMP reg0, reg'
p454
aS'B.CS func'
p455
asg111
Nsg5
S'0xffffffc000210ab4L'
p456
sg113
(lp457
S'0xffffffc000210a94L'
p458
aS'0xffffffc000210aa4L'
p459
asg6
Nsg115
(lp460
S'0xffffffc000210b08L'
p461
aS'0xffffffc000210b2cL'
p462
asg119
Nsg120
Nsg121
S'6c04dc083c93f1ffb1706e65cdf59927'
p463
sg123
S'cca8ea3177d819d85d89a9aa03991a7e'
p464
sg125
(lp465
g293
ag300
ag307
ag314
ag321
ag328
ag335
ag342
ag349
ag356
ag363
ag370
ag377
ag384
ag391
ag398
ag405
ag412
ag419
ag426
ag178
asg127
Nsba(ibclass
BBasicBlock
p466
(dp467
g12
Nsg13
(lp468
(ibclass
BInstr
p469
(dp470
g2
Nsg17
S'LDR             X0, [X19,#(qword_FFFFFFC0018247A8 - 0xFFFFFFC001824790)]'
p471
sg19
S'600e40f9'
p472
sg21
Vldr x0, [x19, #0x18]
p473
sg5
L18446743798833810184L
sg6
Nsg23
S'LDR'
p474
sg25
S'0xffffffc000210b08L'
p475
sg27
Nsba(ibclass
BInstr
p476
(dp477
g2
Nsg17
S'MOV             W2, W21'
p478
sg19
S'e203152a'
p479
sg21
Vmov w2, w21
p480
sg5
L18446743798833810188L
sg6
Nsg23
S'MOV'
p481
sg25
S'0xffffffc000210b0cL'
p482
sg27
Nsba(ibclass
BInstr
p483
(dp484
g2
Nsg17
S'BL              bitmap_set'
p485
sg19
S'f6700894'
p486
sg21
Vbl #0x21c3d8
p487
sg5
L18446743798833810192L
sg6
Nsg23
S'BL'
p488
sg25
S'0xffffffc000210b10L'
p489
sg27
Nsba(ibclass
BInstr
p490
(dp491
g2
Nsg17
S'LDR             X0, [X19,#(qword_FFFFFFC0018247B8 - 0xFFFFFFC001824790)]'
p492
sg19
S'601640f9'
p493
sg21
Vldr x0, [x19, #0x28]
p494
sg5
L18446743798833810196L
sg6
Nsg23
S'LDR'
p495
sg25
S'0xffffffc000210b14L'
p496
sg27
Nsba(ibclass
BInstr
p497
(dp498
g2
Nsg17
S'LDR             X21, [X19,#(qword_FFFFFFC0018247A0 - 0xFFFFFFC001824790)]'
p499
sg19
S'750a40f9'
p500
sg21
Vldr x21, [x19, #0x10]
p501
sg5
L18446743798833810200L
sg6
Nsg23
S'LDR'
p502
sg25
S'0xffffffc000210b18L'
p503
sg27
Nsba(ibclass
BInstr
p504
(dp505
g2
Nsg17
S'LDR             X0, [X0,X20,LSL#3]'
p506
sg19
S'007874f8'
p507
sg21
Vldr x0, [x0, x20, lsl #3]
p508
sg5
L18446743798833810204L
sg6
Nsg23
S'LDR'
p509
sg25
S'0xffffffc000210b1cL'
p510
sg27
Nsba(ibclass
BInstr
p511
(dp512
g2
Nsg17
S'ADD             X21, X21, X20,LSL#12'
p513
sg19
S'b532148b'
p514
sg21
Vadd x21, x21, x20, lsl #12
p515
sg5
L18446743798833810208L
sg6
Nsg23
S'ADD'
p516
sg25
S'0xffffffc000210b20L'
p517
sg27
Nsba(ibclass
BInstr
p518
(dp519
g2
Nsg17
S'STR             X0, [X24]'
p520
sg19
S'000300f9'
p521
sg21
Vstr x0, [x24]
p522
sg5
L18446743798833810212L
sg6
Nsg23
S'STR'
p523
sg25
S'0xffffffc000210b24L'
p524
sg27
Nsba(ibclass
BInstr
p525
(dp526
g2
Nsg17
S'B               loc_FFFFFFC000210B54'
p527
sg19
S'0b000014'
p528
sg21
Vb #0x2c
p529
sg5
L18446743798833810216L
sg6
Nsg23
g178
sg25
S'0xffffffc000210b28L'
p530
sg27
Nsbasg98
(lp531
S'LDR reg, mem'
p532
aS'MOV reg, reg1'
p533
aS'BL bitmap_set'
p534
aS'LDR reg, mem'
p535
aS'LDR reg1, mem'
p536
aS'LDR reg, mem'
p537
aS'ADD reg1, reg1, reg0,LSL#12'
p538
aS'STR reg, mem'
p539
aS'B func'
p540
asg111
Nsg5
S'0xffffffc000210b08L'
p541
sg113
(lp542
S'0xffffffc000210ab4L'
p543
asg6
Nsg115
(lp544
S'0xffffffc000210b54L'
p545
asg119
Nsg120
Nsg121
S'cc790567da1b2a5f28d7796261a43a52'
p546
sg123
S'b2a6b0555b0ffe0beadfa135f1a654c2'
p547
sg125
(lp548
g474
ag481
ag488
ag495
ag502
ag509
ag516
ag523
ag178
asg127
Nsba(ibclass
BBasicBlock
p549
(dp550
g12
Nsg13
(lp551
(ibclass
BInstr
p552
(dp553
g2
Nsg17
S'ADRP            X0, #__print_once.17434@PAGE'
p554
sg19
S'60c500b0'
p555
sg21
Vadrp x0, #0x18ad000
p556
sg5
L18446743798833810220L
sg6
Nsg23
S'ADRP'
p557
sg25
S'0xffffffc000210b2cL'
p558
sg27
Nsba(ibclass
BInstr
p559
(dp560
g2
Nsg17
S'LDRB            W1, [X0,#__print_once.17434@PAGEOFF]'
p561
sg19
S'01c04d39'
p562
sg21
Vldrb w1, [x0, #0x370]
p563
sg5
L18446743798833810224L
sg6
Nsg23
S'LDR'
p564
sg25
S'0xffffffc000210b30L'
p565
sg27
Nsba(ibclass
BInstr
p566
(dp567
g2
Nsg17
S'MOV             X21, #0'
p568
sg19
S'150080d2'
p569
sg21
Vmovz x21, #0
p570
sg5
L18446743798833810228L
sg6
Nsg23
S'MOV'
p571
sg25
S'0xffffffc000210b34L'
p572
sg27
Nsba(ibclass
BInstr
p573
(dp574
g2
Nsg17
S'CBNZ            W1, loc_FFFFFFC000210B54'
p575
sg19
S'e1000035'
p576
sg21
Vcbnz w1, #0x1c
p577
sg5
L18446743798833810232L
sg6
Nsg23
S'CBNZ'
p578
sg25
S'0xffffffc000210b38L'
p579
sg27
Nsbasg98
(lp580
S'ADRP reg, #__print_once.17434@PAGE'
p581
aS'LDRB reg, mem'
p582
aS'MOV reg1, #0'
p583
aS'CBNZ reg, func'
p584
asg111
Nsg5
S'0xffffffc000210b2cL'
p585
sg113
(lp586
S'0xffffffc000210ab4L'
p587
asg6
Nsg115
(lp588
S'0xffffffc000210b3cL'
p589
aS'0xffffffc000210b54L'
p590
asg119
Nsg120
Nsg121
S'85da856f2d32506f3ae6b6b15c12a757'
p591
sg123
S'31f0d8d4fb3bf791a6adcee902edf376'
p592
sg125
(lp593
g557
ag564
ag571
ag578
asg127
Nsba(ibclass
BBasicBlock
p594
(dp595
g12
Nsg13
(lp596
(ibclass
BInstr
p597
(dp598
g2
Nsg17
S'LDR             X1, [X19]'
p599
sg19
S'610240f9'
p600
sg21
Vldr x1, [x19]
p601
sg5
L18446743798833810236L
sg6
Nsg23
S'LDR'
p602
sg25
S'0xffffffc000210b3cL'
p603
sg27
Nsba(ibclass
BInstr
p604
(dp605
g2
Nsg17
S'STRB            W23, [X0,#__print_once.17434@PAGEOFF]'
p606
sg19
S'17c00d39'
p607
sg21
Vstrb w23, [x0, #0x370]
p608
sg5
L18446743798833810240L
sg6
Nsg23
S'STR'
p609
sg25
S'0xffffffc000210b40L'
p610
sg27
Nsba(ibclass
BInstr
p611
(dp612
g2
Nsg17
S'ADRP            X0, #unk_FFFFFFC0012EA02A@PAGE'
p613
sg19
S'c08600d0'
p614
sg21
Vadrp x0, #0x10da000
p615
sg5
L18446743798833810244L
sg6
Nsg23
S'ADRP'
p616
sg25
S'0xffffffc000210b44L'
p617
sg27
Nsba(ibclass
BInstr
p618
(dp619
g2
Nsg17
S'ADD             X0, X0, #unk_FFFFFFC0012EA02A@PAGEOFF'
p620
sg19
S'00a80091'
p621
sg21
Vadd x0, x0, #0x2a
p622
sg5
L18446743798833810248L
sg6
Nsg23
S'ADD'
p623
sg25
S'0xffffffc000210b48L'
p624
sg27
Nsba(ibclass
BInstr
p625
(dp626
g2
Nsg17
S'UBFM            W1, W1, #0xA, #0x1F'
p627
sg19
S'217c0a53'
p628
sg21
Vlsr w1, w1, #0xa
p629
sg5
L18446743798833810252L
sg6
Nsg23
S'UBFM'
p630
sg25
S'0xffffffc000210b4cL'
p631
sg27
Nsba(ibclass
BInstr
p632
(dp633
g2
Nsg17
S'BL              printk'
p634
sg19
S'89713094'
p635
sg21
Vbl #0xc1c624
p636
sg5
L18446743798833810256L
sg6
Nsg23
S'BL'
p637
sg25
S'0xffffffc000210b50L'
p638
sg27
Nsbasg98
(lp639
S'LDR reg, mem'
p640
aS'STRB reg3, mem'
p641
aS'ADRP reg, #func@PAGE'
p642
aS'ADD reg, reg, #func@PAGEOFF'
p643
aS'UBFM reg, reg, #0xA, #0x1F'
p644
aS'BL printk'
p645
asg111
Nsg5
S'0xffffffc000210b3cL'
p646
sg113
(lp647
S'0xffffffc000210b2cL'
p648
asg6
Nsg115
(lp649
S'0xffffffc000210b54L'
p650
asg119
Nsg120
Nsg121
S'05c652b35590a7bf5a2a99491108ea3c'
p651
sg123
S'423bc1d4f7233d083f13aec00ecf0a1c'
p652
sg125
(lp653
g602
ag609
ag616
ag623
ag630
ag637
asg127
Nsba(ibclass
BBasicBlock
p654
(dp655
g12
Nsg13
(lp656
(ibclass
BInstr
p657
(dp658
g2
Nsg17
S'ADD             X0, X22, #atomic_pool@PAGEOFF'
p659
sg19
S'c0421e91'
p660
sg21
Vadd x0, x22, #0x790
p661
sg5
L18446743798833810260L
sg6
Nsg23
S'ADD'
p662
sg25
S'0xffffffc000210b54L'
p663
sg27
Nsba(ibclass
BInstr
p664
(dp665
g2
Nsg17
S'ADD             X0, X0, #8'
p666
sg19
S'00200091'
p667
sg21
Vadd x0, x0, #8
p668
sg5
L18446743798833810264L
sg6
Nsg23
S'ADD'
p669
sg25
S'0xffffffc000210b58L'
p670
sg27
Nsba(ibclass
BInstr
p671
(dp672
g2
Nsg17
S'MOV             X1, X25'
p673
sg19
S'e10319aa'
p674
sg21
Vmov x1, x25
p675
sg5
L18446743798833810268L
sg6
Nsg23
S'MOV'
p676
sg25
S'0xffffffc000210b5cL'
p677
sg27
Nsba(ibclass
BInstr
p678
(dp679
g2
Nsg17
S'BL              _raw_spin_unlock_irqrestore'
p680
sg19
S'07b03094'
p681
sg21
Vbl #0xc2c01c
p682
sg5
L18446743798833810272L
sg6
Nsg23
S'BL'
p683
sg25
S'0xffffffc000210b60L'
p684
sg27
Nsba(ibclass
BInstr
p685
(dp686
g2
Nsg17
S'MOV             X19, X21'
p687
sg19
S'f30315aa'
p688
sg21
Vmov x19, x21
p689
sg5
L18446743798833810276L
sg6
Nsg23
S'MOV'
p690
sg25
S'0xffffffc000210b64L'
p691
sg27
Nsbasg98
(lp692
S'ADD reg, reg2, #atomic_pool@PAGEOFF'
p693
aS'ADD reg, reg, #8'
p694
aS'MOV reg, reg5'
p695
aS'BL _raw_spin_unlock_irqrestore'
p696
aS'MOV reg9, reg1'
p697
asg111
Nsg5
S'0xffffffc000210b54L'
p698
sg113
(lp699
S'0xffffffc000210b08L'
p700
aS'0xffffffc000210b2cL'
p701
aS'0xffffffc000210b3cL'
p702
asg6
Nsg115
(lp703
S'0xffffffc000210b68L'
p704
asg119
Nsg120
Nsg121
S'7d154dd3aed051c50f13bc99ee83ff6c'
p705
sg123
S'ec5277cefd5ade2796923c8711bbb871'
p706
sg125
(lp707
g662
ag669
ag676
ag683
ag690
asg127
Nsba(ibclass
BBasicBlock
p708
(dp709
g12
Nsg13
(lp710
(ibclass
BInstr
p711
(dp712
g2
Nsg17
S'MOV             X0, X19'
p713
sg19
S'e00313aa'
p714
sg21
Vmov x0, x19
p715
sg5
L18446743798833810280L
sg6
Nsg23
S'MOV'
p716
sg25
S'0xffffffc000210b68L'
p717
sg27
Nsba(ibclass
BInstr
p718
(dp719
g2
Nsg17
S'LDP             X21, X22, [SP,#0x40+var_20]'
p720
sg19
S'f55b42a9'
p721
sg21
Vldp x21, x22, [sp, #0x20]
p722
sg5
L18446743798833810284L
sg6
Nsg23
S'LDP'
p723
sg25
S'0xffffffc000210b6cL'
p724
sg27
Nsba(ibclass
BInstr
p725
(dp726
g2
Nsg17
S'LDP             X19, X20, [SP,#0x40+var_30]'
p727
sg19
S'f35341a9'
p728
sg21
Vldp x19, x20, [sp, #0x10]
p729
sg5
L18446743798833810288L
sg6
Nsg23
S'LDP'
p730
sg25
S'0xffffffc000210b70L'
p731
sg27
Nsba(ibclass
BInstr
p732
(dp733
g2
Nsg17
S'LDP             X23, X24, [SP,#0x40+var_10]'
p734
sg19
S'f76343a9'
p735
sg21
Vldp x23, x24, [sp, #0x30]
p736
sg5
L18446743798833810292L
sg6
Nsg23
S'LDP'
p737
sg25
S'0xffffffc000210b74L'
p738
sg27
Nsba(ibclass
BInstr
p739
(dp740
g2
Nsg17
S'LDR             X25, [SP,#0x40+var_s0]'
p741
sg19
S'f92340f9'
p742
sg21
Vldr x25, [sp, #0x40]
p743
sg5
L18446743798833810296L
sg6
Nsg23
S'LDR'
p744
sg25
S'0xffffffc000210b78L'
p745
sg27
Nsba(ibclass
BInstr
p746
(dp747
g2
Nsg17
S'LDP             X29, X30, [SP+0x40+var_40],#0x50'
p748
sg19
S'fd7bc5a8'
p749
sg21
Vldp x29, x30, [sp], #0x50
p750
sg5
L18446743798833810300L
sg6
Nsg23
S'LDP'
p751
sg25
S'0xffffffc000210b7cL'
p752
sg27
Nsba(ibclass
BInstr
p753
(dp754
g2
Nsg17
S'RET'
p755
sg19
S'c0035fd6'
p756
sg21
Vret 
p757
sg5
L18446743798833810304L
sg6
Nsg23
S'RET'
p758
sg25
S'0xffffffc000210b80L'
p759
sg27
Nsbasg98
(lp760
S'MOV reg, reg9'
p761
aS'LDP reg1, reg2, mem'
p762
aS'LDP reg9, reg0, mem'
p763
aS'LDP reg3, reg4, mem'
p764
aS'LDR reg5, mem'
p765
aS'LDP reg9, reg0, mem,#0x50'
p766
ag755
asg111
Nsg5
S'0xffffffc000210b68L'
p767
sg113
(lp768
S'0xffffffc000210a78L'
p769
aS'0xffffffc000210b54L'
p770
asg6
Nsg115
(lp771
sg119
Nsg120
Nsg121
S'fb9f6e8d5d3e5fc6fae0c461caa9e135'
p772
sg123
S'c6a0f9c2384c636a32bffcd35a78f582'
p773
sg125
(lp774
g716
ag723
ag730
ag737
ag744
ag751
ag758
asg127
Nsbasb.