(ibclass
BFunc
p0
(dp1
S'hash'
p2
NsS'name'
p3
S'__free_ocmem'
p4
sS'start_address'
p5
L18446743798839740916L
sS'flag'
p6
NsS'program'
p7
NsS'bbs'
p8
(lp9
(ibclass
BBasicBlock
p10
(dp11
S'function'
p12
NsS'binstrs'
p13
(lp14
(ibclass
BInstr
p15
(dp16
g2
NsS'disasm'
p17
S'STP             X29, X30, [SP,#-0x10+var_10]!'
p18
sS'bytes'
p19
S'fd7bbea9'
p20
sS'disasm_striped'
p21
Vstp x29, x30, [sp, #-0x20]!
p22
sg5
L18446743798839740916L
sg6
NsS'mnem'
p23
S'STP'
p24
sS'address'
p25
S'0xffffffc0007b89f4L'
p26
sS'basicblock'
p27
Nsba(ibclass
BInstr
p28
(dp29
g2
Nsg17
S'MOV             X29, SP'
p30
sg19
S'fd030091'
p31
sg21
Vmov x29, sp
p32
sg5
L18446743798839740920L
sg6
Nsg23
S'MOV'
p33
sg25
S'0xffffffc0007b89f8L'
p34
sg27
Nsba(ibclass
BInstr
p35
(dp36
g2
Nsg17
S'STP             X19, X20, [SP,#0x10+var_s0]'
p37
sg19
S'f35301a9'
p38
sg21
Vstp x19, x20, [sp, #0x10]
p39
sg5
L18446743798839740924L
sg6
Nsg23
S'STP'
p40
sg25
S'0xffffffc0007b89fcL'
p41
sg27
Nsba(ibclass
BInstr
p42
(dp43
g2
Nsg17
S'MOV             X19, X0'
p44
sg19
S'f30300aa'
p45
sg21
Vmov x19, x0
p46
sg5
L18446743798839740928L
sg6
Nsg23
S'MOV'
p47
sg25
S'0xffffffc0007b8a00L'
p48
sg27
Nsba(ibclass
BInstr
p49
(dp50
g2
Nsg17
S'CBZ             X0, loc_FFFFFFC0007B8A10'
p51
sg19
S'600000b4'
p52
sg21
Vcbz x0, #0xc
p53
sg5
L18446743798839740932L
sg6
Nsg23
S'CBZ'
p54
sg25
S'0xffffffc0007b8a04L'
p55
sg27
NsbasS'disasm_list'
p56
(lp57
S'STP reg9, reg0, mem!'
p58
aS'MOV reg9, SP'
p59
aS'STP reg9, reg0, mem'
p60
aS'MOV reg9, reg'
p61
aS'CBZ reg, func'
p62
asS'end_address'
p63
Nsg5
S'0xffffffc0007b89f4L'
p64
sS'preds'
p65
(lp66
sg6
NsS'succs'
p67
(lp68
S'0xffffffc0007b8a08L'
p69
aS'0xffffffc0007b8a10L'
p70
asS'hash_v3'
p71
NsS'flag_v2'
p72
NsS'hash_v1'
p73
S'cf5dd108378c93560275fd7c80ebe7d9'
p74
sS'hash_v2'
p75
S'79a76b1ca78527e79284b9725f91073c'
p76
sS'mnen_list'
p77
(lp78
g24
ag33
ag40
ag47
ag54
asS'neighbour_disasm_list'
p79
Nsba(ibclass
BBasicBlock
p80
(dp81
g12
Nsg13
(lp82
(ibclass
BInstr
p83
(dp84
g2
Nsg17
S'LDR             X0, [X0,#0x248]'
p85
sg19
S'002441f9'
p86
sg21
Vldr x0, [x0, #0x248]
p87
sg5
L18446743798839740936L
sg6
Nsg23
S'LDR'
p88
sg25
S'0xffffffc0007b8a08L'
p89
sg27
Nsba(ibclass
BInstr
p90
(dp91
g2
Nsg17
S'CBNZ            X0, loc_FFFFFFC0007B8A5C'
p92
sg19
S'800200b5'
p93
sg21
Vcbnz x0, #0x50
p94
sg5
L18446743798839740940L
sg6
Nsg23
S'CBNZ'
p95
sg25
S'0xffffffc0007b8a0cL'
p96
sg27
Nsbasg56
(lp97
S'LDR reg, mem'
p98
aS'CBNZ reg, func'
p99
asg63
Nsg5
S'0xffffffc0007b8a08L'
p100
sg65
(lp101
S'0xffffffc0007b89f4L'
p102
asg6
Nsg67
(lp103
S'0xffffffc0007b8a10L'
p104
aS'0xffffffc0007b8a5cL'
p105
asg71
Nsg72
Nsg73
S'5522ad3e8b25e3a8f9013bb9571723e7'
p106
sg75
S'7604765c3c810c2510cc031abcc4f1e2'
p107
sg77
(lp108
g88
ag95
asg79
Nsba(ibclass
BBasicBlock
p109
(dp110
g12
Nsg13
(lp111
(ibclass
BInstr
p112
(dp113
g2
Nsg17
S'ADRP            X0, #qword_FFFFFFC000E440A0@PAGE'
p114
sg19
S'60340090'
p115
sg21
Vadrp x0, #0x68c000
p116
sg5
L18446743798839740944L
sg6
Nsg23
S'ADRP'
p117
sg25
S'0xffffffc0007b8a10L'
p118
sg27
Nsba(ibclass
BInstr
p119
(dp120
g2
Nsg17
S'LDR             X0, [X0,#qword_FFFFFFC000E440A0@PAGEOFF]'
p121
sg19
S'005040f9'
p122
sg21
Vldr x0, [x0, #0xa0]
p123
sg5
L18446743798839740948L
sg6
Nsg23
S'LDR'
p124
sg25
S'0xffffffc0007b8a14L'
p125
sg27
Nsba(ibclass
BInstr
p126
(dp127
g2
Nsg17
S'LDR             W0, [X0]'
p128
sg19
S'000040b9'
p129
sg21
Vldr w0, [x0]
p130
sg5
L18446743798839740952L
sg6
Nsg23
S'LDR'
p131
sg25
S'0xffffffc0007b8a18L'
p132
sg27
Nsba(ibclass
BInstr
p133
(dp134
g2
Nsg17
S'TBZ             W0, #0, loc_FFFFFFC0007B8ABC'
p135
sg19
S'00050036'
p136
sg21
Vtbz w0, #0, #0xa0
p137
sg5
L18446743798839740956L
sg6
Nsg23
S'TBZ'
p138
sg25
S'0xffffffc0007b8a1cL'
p139
sg27
Nsbasg56
(lp140
S'ADRP reg, #func@PAGE'
p141
aS'LDR reg, mem'
p142
aS'LDR reg, mem'
p143
aS'TBZ reg, #0, func'
p144
asg63
Nsg5
S'0xffffffc0007b8a10L'
p145
sg65
(lp146
S'0xffffffc0007b89f4L'
p147
aS'0xffffffc0007b8a08L'
p148
asg6
Nsg67
(lp149
S'0xffffffc0007b8a20L'
p150
aS'0xffffffc0007b8abcL'
p151
asg71
Nsg72
Nsg73
S'2de94c9e326481f2f467f11acce8dcc9'
p152
sg75
S'f9f7225e2bae36aff04e5d93bafe5e1d'
p153
sg77
(lp154
g117
ag124
ag131
ag138
asg79
Nsba(ibclass
BBasicBlock
p155
(dp156
g12
Nsg13
(lp157
(ibclass
BInstr
p158
(dp159
g2
Nsg17
S'ADRP            X0, #qword_FFFFFFC000E42548@PAGE'
p160
sg19
S'403400d0'
p161
sg21
Vadrp x0, #0x68a000
p162
sg5
L18446743798839740960L
sg6
Nsg23
S'ADRP'
p163
sg25
S'0xffffffc0007b8a20L'
p164
sg27
Nsba(ibclass
BInstr
p165
(dp166
g2
Nsg17
S'LDR             X0, [X0,#qword_FFFFFFC000E42548@PAGEOFF]'
p167
sg19
S'00a442f9'
p168
sg21
Vldr x0, [x0, #0x548]
p169
sg5
L18446743798839740964L
sg6
Nsg23
S'LDR'
p170
sg25
S'0xffffffc0007b8a24L'
p171
sg27
Nsba(ibclass
BInstr
p172
(dp173
g2
Nsg17
S'MOV             W20, #0xFFFFFFEA'
p174
sg19
S'b4028012'
p175
sg21
Vmovn w20, #0x15
p176
sg5
L18446743798839740968L
sg6
Nsg23
S'MOV'
p177
sg25
S'0xffffffc0007b8a28L'
p178
sg27
Nsba(ibclass
BInstr
p179
(dp180
g2
Nsg17
S'LDR             W0, [X0]'
p181
sg19
S'000040b9'
p182
sg21
Vldr w0, [x0]
p183
sg5
L18446743798839740972L
sg6
Nsg23
S'LDR'
p184
sg25
S'0xffffffc0007b8a2cL'
p185
sg27
Nsba(ibclass
BInstr
p186
(dp187
g2
Nsg17
S'CBNZ            W0, loc_FFFFFFC0007B8AC0'
p188
sg19
S'80040035'
p189
sg21
Vcbnz w0, #0x90
p190
sg5
L18446743798839740976L
sg6
Nsg23
S'CBNZ'
p191
sg25
S'0xffffffc0007b8a30L'
p192
sg27
Nsbasg56
(lp193
S'ADRP reg, #func@PAGE'
p194
aS'LDR reg, mem'
p195
aS'MOV reg0, #0xFFFFFFEA'
p196
aS'LDR reg, mem'
p197
aS'CBNZ reg, func'
p198
asg63
Nsg5
S'0xffffffc0007b8a20L'
p199
sg65
(lp200
S'0xffffffc0007b8a10L'
p201
asg6
Nsg67
(lp202
S'0xffffffc0007b8a34L'
p203
aS'0xffffffc0007b8ac0L'
p204
asg71
Nsg72
Nsg73
S'd80cc6d531f24a5b2d60307977d236c7'
p205
sg75
S'aeb30c42a5eaa4a016930da3733155ca'
p206
sg77
(lp207
g163
ag170
ag177
ag184
ag191
asg79
Nsba(ibclass
BBasicBlock
p208
(dp209
g12
Nsg13
(lp210
(ibclass
BInstr
p211
(dp212
g2
Nsg17
S'ADRP            X2, #__func__.33986@PAGE; "venus_hfi_suspend"'
p213
sg19
S'824400d0'
p214
sg21
Vadrp x2, #0x892000
p215
sg5
L18446743798839740980L
sg6
Nsg23
S'ADRP'
p216
sg25
S'0xffffffc0007b8a34L'
p217
sg27
Nsba(ibclass
BInstr
p218
(dp219
g2
Nsg17
S'ADRP            X0, #unk_FFFFFFC0013BE3C9@PAGE'
p220
sg19
S'206000d0'
p221
sg21
Vadrp x0, #0xc06000
p222
sg5
L18446743798839740984L
sg6
Nsg23
S'ADRP'
p223
sg25
S'0xffffffc0007b8a38L'
p224
sg27
Nsba(ibclass
BInstr
p225
(dp226
g2
Nsg17
S'ADRP            X1, #(aQcomMdssDsi_17+0x1B)@PAGE; "err"'
p227
sg19
S'a15b00f0'
p228
sg21
Vadrp x1, #0xb77000
p229
sg5
L18446743798839740988L
sg6
Nsg23
S'ADRP'
p230
sg25
S'0xffffffc0007b8a3cL'
p231
sg27
Nsba(ibclass
BInstr
p232
(dp233
g2
Nsg17
S'ADD             X2, X2, #__func__.33986@PAGEOFF; "venus_hfi_suspend"'
p234
sg19
S'42001991'
p235
sg21
Vadd x2, x2, #0x640
p236
sg5
L18446743798839740992L
sg6
Nsg23
S'ADD'
p237
sg25
S'0xffffffc0007b8a40L'
p238
sg27
Nsba(ibclass
BInstr
p239
(dp240
g2
Nsg17
S'ADD             X1, X1, #(aQcomMdssDsi_17+0x1B)@PAGEOFF; "err"'
p241
sg19
S'212c0591'
p242
sg21
Vadd x1, x1, #0x14b
p243
sg5
L18446743798839740996L
sg6
Nsg23
S'ADD'
p244
sg25
S'0xffffffc0007b8a44L'
p245
sg27
Nsba(ibclass
BInstr
p246
(dp247
g2
Nsg17
S'ADD             X2, X2, #0x1A8'
p248
sg19
S'42a00691'
p249
sg21
Vadd x2, x2, #0x1a8
p250
sg5
L18446743798839741000L
sg6
Nsg23
S'ADD'
p251
sg25
S'0xffffffc0007b8a48L'
p252
sg27
Nsba(ibclass
BInstr
p253
(dp254
g2
Nsg17
S'MOV             X3, X19'
p255
sg19
S'e30313aa'
p256
sg21
Vmov x3, x19
p257
sg5
L18446743798839741004L
sg6
Nsg23
S'MOV'
p258
sg25
S'0xffffffc0007b8a4cL'
p259
sg27
Nsba(ibclass
BInstr
p260
(dp261
g2
Nsg17
S'ADD             X0, X0, #unk_FFFFFFC0013BE3C9@PAGEOFF'
p262
sg19
S'00240f91'
p263
sg21
Vadd x0, x0, #0x3c9
p264
sg5
L18446743798839741008L
sg6
Nsg23
S'ADD'
p265
sg25
S'0xffffffc0007b8a50L'
p266
sg27
Nsba(ibclass
BInstr
p267
(dp268
g2
Nsg17
S'BL              printk'
p269
sg19
S'c8d11994'
p270
sg21
Vbl #0x674720
p271
sg5
L18446743798839741012L
sg6
Nsg23
S'BL'
p272
sg25
S'0xffffffc0007b8a54L'
p273
sg27
Nsba(ibclass
BInstr
p274
(dp275
g2
Nsg17
S'B               loc_FFFFFFC0007B8AC0'
p276
sg19
S'1a000014'
p277
sg21
Vb #0x68
p278
sg5
L18446743798839741016L
sg6
Nsg23
S'B'
p279
sg25
S'0xffffffc0007b8a58L'
p280
sg27
Nsbasg56
(lp281
S'ADRP reg, #__func__.33986@PAGE'
p282
aS'ADRP reg, #func@PAGE'
p283
aS'ADRP reg, #(aQcomMdssDsi_17+0x1B)@PAGE'
p284
aS'ADD reg, reg, #__func__.33986@PAGEOFF'
p285
aS'ADD reg, reg, #(aQcomMdssDsi_17+0x1B)@PAGEOFF'
p286
aS'ADD reg, reg, #0x1A8'
p287
aS'MOV reg, reg9'
p288
aS'ADD reg, reg, #func@PAGEOFF'
p289
aS'BL printk'
p290
aS'B func'
p291
asg63
Nsg5
S'0xffffffc0007b8a34L'
p292
sg65
(lp293
S'0xffffffc0007b8a20L'
p294
asg6
Nsg67
(lp295
S'0xffffffc0007b8ac0L'
p296
asg71
Nsg72
Nsg73
S'7e3e61d7f8547903d75fbbc718c41713'
p297
sg75
S'004038b504702d714172c959675ff115'
p298
sg77
(lp299
g216
ag223
ag230
ag237
ag244
ag251
ag258
ag265
ag272
ag279
asg79
Nsba(ibclass
BBasicBlock
p300
(dp301
g12
Nsg13
(lp302
(ibclass
BInstr
p303
(dp304
g2
Nsg17
S'LDR             W0, [X0,#0x68]'
p305
sg19
S'006840b9'
p306
sg21
Vldr w0, [x0, #0x68]
p307
sg5
L18446743798839741020L
sg6
Nsg23
S'LDR'
p308
sg25
S'0xffffffc0007b8a5cL'
p309
sg27
Nsba(ibclass
BInstr
p310
(dp311
g2
Nsg17
S'MOV             W20, #0'
p312
sg19
S'14008052'
p313
sg21
Vmovz w20, #0
p314
sg5
L18446743798839741024L
sg6
Nsg23
S'MOV'
p315
sg25
S'0xffffffc0007b8a60L'
p316
sg27
Nsba(ibclass
BInstr
p317
(dp318
g2
Nsg17
S'CBZ             W0, loc_FFFFFFC0007B8AC0'
p319
sg19
S'e0020034'
p320
sg21
Vcbz w0, #0x5c
p321
sg5
L18446743798839741028L
sg6
Nsg23
S'CBZ'
p322
sg25
S'0xffffffc0007b8a64L'
p323
sg27
Nsbasg56
(lp324
S'LDR reg, mem'
p325
aS'MOV reg0, #0'
p326
aS'CBZ reg, func'
p327
asg63
Nsg5
S'0xffffffc0007b8a5cL'
p328
sg65
(lp329
S'0xffffffc0007b8a08L'
p330
asg6
Nsg67
(lp331
S'0xffffffc0007b8a68L'
p332
aS'0xffffffc0007b8ac0L'
p333
asg71
Nsg72
Nsg73
S'ca75ebdf03c6cd15dee0fdb326dd7235'
p334
sg75
S'0d0e4002ce2ec2cc8b01ab1405e7f2a0'
p335
sg77
(lp336
g308
ag315
ag322
asg79
Nsba(ibclass
BBasicBlock
p337
(dp338
g12
Nsg13
(lp339
(ibclass
BInstr
p340
(dp341
g2
Nsg17
S'LDR             X1, [X19,#0x220]'
p342
sg19
S'611241f9'
p343
sg21
Vldr x1, [x19, #0x220]
p344
sg5
L18446743798839741032L
sg6
Nsg23
S'LDR'
p345
sg25
S'0xffffffc0007b8a68L'
p346
sg27
Nsba(ibclass
BInstr
p347
(dp348
g2
Nsg17
S'CBZ             X1, loc_FFFFFFC0007B8AC0'
p349
sg19
S'a10200b4'
p350
sg21
Vcbz x1, #0x54
p351
sg5
L18446743798839741036L
sg6
Nsg23
S'CBZ'
p352
sg25
S'0xffffffc0007b8a6cL'
p353
sg27
Nsbasg56
(lp354
S'LDR reg, mem'
p355
aS'CBZ reg, func'
p356
asg63
Nsg5
S'0xffffffc0007b8a68L'
p357
sg65
(lp358
S'0xffffffc0007b8a5cL'
p359
asg6
Nsg67
(lp360
S'0xffffffc0007b8a70L'
p361
aS'0xffffffc0007b8ac0L'
p362
asg71
Nsg72
Nsg73
S'a0c488049ab653dbdfa1dc805bb83f13'
p363
sg75
S'33abe016da9abbebb8608f035d51762d'
p364
sg77
(lp365
g345
ag352
asg79
Nsba(ibclass
BBasicBlock
p366
(dp367
g12
Nsg13
(lp368
(ibclass
BInstr
p369
(dp370
g2
Nsg17
S'MOV             W0, #1'
p371
sg19
S'20008052'
p372
sg21
Vmovz w0, #0x1
p373
sg5
L18446743798839741040L
sg6
Nsg23
S'MOV'
p374
sg25
S'0xffffffc0007b8a70L'
p375
sg27
Nsba(ibclass
BInstr
p376
(dp377
g2
Nsg17
S'BL              ocmem_free'
p378
sg19
S'216ff597'
p379
sg21
Vbl #0xffffffffffd5bc84
p380
sg5
L18446743798839741044L
sg6
Nsg23
S'BL'
p381
sg25
S'0xffffffc0007b8a74L'
p382
sg27
Nsba(ibclass
BInstr
p383
(dp384
g2
Nsg17
S'MOV             W20, W0'
p385
sg19
S'f403002a'
p386
sg21
Vmov w20, w0
p387
sg5
L18446743798839741048L
sg6
Nsg23
S'MOV'
p388
sg25
S'0xffffffc0007b8a78L'
p389
sg27
Nsba(ibclass
BInstr
p390
(dp391
g2
Nsg17
S'CBZ             W0, loc_FFFFFFC0007B8AB4'
p392
sg19
S'c0010034'
p393
sg21
Vcbz w0, #0x38
p394
sg5
L18446743798839741052L
sg6
Nsg23
S'CBZ'
p395
sg25
S'0xffffffc0007b8a7cL'
p396
sg27
Nsbasg56
(lp397
S'MOV reg, #1'
p398
aS'BL ocmem_free'
p399
aS'MOV reg0, reg'
p400
aS'CBZ reg, func'
p401
asg63
Nsg5
S'0xffffffc0007b8a70L'
p402
sg65
(lp403
S'0xffffffc0007b8a68L'
p404
asg6
Nsg67
(lp405
S'0xffffffc0007b8a80L'
p406
aS'0xffffffc0007b8ab4L'
p407
asg71
Nsg72
Nsg73
S'f5246e006a605030327646fe1b99d696'
p408
sg75
S'110431405e1a3452464ce3026b416aa2'
p409
sg77
(lp410
g374
ag381
ag388
ag395
asg79
Nsba(ibclass
BBasicBlock
p411
(dp412
g12
Nsg13
(lp413
(ibclass
BInstr
p414
(dp415
g2
Nsg17
S'ADRP            X0, #qword_FFFFFFC000E440A0@PAGE'
p416
sg19
S'60340090'
p417
sg21
Vadrp x0, #0x68c000
p418
sg5
L18446743798839741056L
sg6
Nsg23
S'ADRP'
p419
sg25
S'0xffffffc0007b8a80L'
p420
sg27
Nsba(ibclass
BInstr
p421
(dp422
g2
Nsg17
S'LDR             X0, [X0,#qword_FFFFFFC000E440A0@PAGEOFF]'
p423
sg19
S'005040f9'
p424
sg21
Vldr x0, [x0, #0xa0]
p425
sg5
L18446743798839741060L
sg6
Nsg23
S'LDR'
p426
sg25
S'0xffffffc0007b8a84L'
p427
sg27
Nsba(ibclass
BInstr
p428
(dp429
g2
Nsg17
S'LDR             W0, [X0]'
p430
sg19
S'000040b9'
p431
sg21
Vldr w0, [x0]
p432
sg5
L18446743798839741064L
sg6
Nsg23
S'LDR'
p433
sg25
S'0xffffffc0007b8a88L'
p434
sg27
Nsba(ibclass
BInstr
p435
(dp436
g2
Nsg17
S'TBZ             W0, #0, loc_FFFFFFC0007B8AB4'
p437
sg19
S'40010036'
p438
sg21
Vtbz w0, #0, #0x28
p439
sg5
L18446743798839741068L
sg6
Nsg23
S'TBZ'
p440
sg25
S'0xffffffc0007b8a8cL'
p441
sg27
Nsbasg56
(lp442
S'ADRP reg, #func@PAGE'
p443
aS'LDR reg, mem'
p444
aS'LDR reg, mem'
p445
aS'TBZ reg, #0, func'
p446
asg63
Nsg5
S'0xffffffc0007b8a80L'
p447
sg65
(lp448
S'0xffffffc0007b8a70L'
p449
asg6
Nsg67
(lp450
S'0xffffffc0007b8a90L'
p451
aS'0xffffffc0007b8ab4L'
p452
asg71
Nsg72
Nsg73
S'2de94c9e326481f2f467f11acce8dcc9'
p453
sg75
S'f9f7225e2bae36aff04e5d93bafe5e1d'
p454
sg77
(lp455
g419
ag426
ag433
ag440
asg79
Nsba(ibclass
BBasicBlock
p456
(dp457
g12
Nsg13
(lp458
(ibclass
BInstr
p459
(dp460
g2
Nsg17
S'ADRP            X0, #qword_FFFFFFC000E42548@PAGE'
p461
sg19
S'403400d0'
p462
sg21
Vadrp x0, #0x68a000
p463
sg5
L18446743798839741072L
sg6
Nsg23
S'ADRP'
p464
sg25
S'0xffffffc0007b8a90L'
p465
sg27
Nsba(ibclass
BInstr
p466
(dp467
g2
Nsg17
S'LDR             X0, [X0,#qword_FFFFFFC000E42548@PAGEOFF]'
p468
sg19
S'00a442f9'
p469
sg21
Vldr x0, [x0, #0x548]
p470
sg5
L18446743798839741076L
sg6
Nsg23
S'LDR'
p471
sg25
S'0xffffffc0007b8a94L'
p472
sg27
Nsba(ibclass
BInstr
p473
(dp474
g2
Nsg17
S'LDR             W0, [X0]'
p475
sg19
S'000040b9'
p476
sg21
Vldr w0, [x0]
p477
sg5
L18446743798839741080L
sg6
Nsg23
S'LDR'
p478
sg25
S'0xffffffc0007b8a98L'
p479
sg27
Nsba(ibclass
BInstr
p480
(dp481
g2
Nsg17
S'CBNZ            W0, loc_FFFFFFC0007B8AB4'
p482
sg19
S'c0000035'
p483
sg21
Vcbnz w0, #0x18
p484
sg5
L18446743798839741084L
sg6
Nsg23
S'CBNZ'
p485
sg25
S'0xffffffc0007b8a9cL'
p486
sg27
Nsbasg56
(lp487
S'ADRP reg, #func@PAGE'
p488
aS'LDR reg, mem'
p489
aS'LDR reg, mem'
p490
aS'CBNZ reg, func'
p491
asg63
Nsg5
S'0xffffffc0007b8a90L'
p492
sg65
(lp493
S'0xffffffc0007b8a80L'
p494
asg6
Nsg67
(lp495
S'0xffffffc0007b8aa0L'
p496
aS'0xffffffc0007b8ab4L'
p497
asg71
Nsg72
Nsg73
S'9c97521b8b0f280d47a50ec9a5e4f86f'
p498
sg75
S'bd26f8893557dc5fa132ff2490be0ebf'
p499
sg77
(lp500
g464
ag471
ag478
ag485
asg79
Nsba(ibclass
BBasicBlock
p501
(dp502
g12
Nsg13
(lp503
(ibclass
BInstr
p504
(dp505
g2
Nsg17
S'ADRP            X0, #unk_FFFFFFC0013BF714@PAGE'
p506
sg19
S'206000f0'
p507
sg21
Vadrp x0, #0xc07000
p508
sg5
L18446743798839741088L
sg6
Nsg23
S'ADRP'
p509
sg25
S'0xffffffc0007b8aa0L'
p510
sg27
Nsba(ibclass
BInstr
p511
(dp512
g2
Nsg17
S'ADRP            X1, #(aQcomMdssDsi_17+0x1B)@PAGE; "err"'
p513
sg19
S'a15b00f0'
p514
sg21
Vadrp x1, #0xb77000
p515
sg5
L18446743798839741092L
sg6
Nsg23
S'ADRP'
p516
sg25
S'0xffffffc0007b8aa4L'
p517
sg27
Nsba(ibclass
BInstr
p518
(dp519
g2
Nsg17
S'ADD             X0, X0, #unk_FFFFFFC0013BF714@PAGEOFF'
p520
sg19
S'00501c91'
p521
sg21
Vadd x0, x0, #0x714
p522
sg5
L18446743798839741096L
sg6
Nsg23
S'ADD'
p523
sg25
S'0xffffffc0007b8aa8L'
p524
sg27
Nsba(ibclass
BInstr
p525
(dp526
g2
Nsg17
S'ADD             X1, X1, #(aQcomMdssDsi_17+0x1B)@PAGEOFF; "err"'
p527
sg19
S'212c0591'
p528
sg21
Vadd x1, x1, #0x14b
p529
sg5
L18446743798839741100L
sg6
Nsg23
S'ADD'
p530
sg25
S'0xffffffc0007b8aacL'
p531
sg27
Nsba(ibclass
BInstr
p532
(dp533
g2
Nsg17
S'BL              printk'
p534
sg19
S'b1d11994'
p535
sg21
Vbl #0x6746c4
p536
sg5
L18446743798839741104L
sg6
Nsg23
S'BL'
p537
sg25
S'0xffffffc0007b8ab0L'
p538
sg27
Nsbasg56
(lp539
S'ADRP reg, #func@PAGE'
p540
aS'ADRP reg, #(aQcomMdssDsi_17+0x1B)@PAGE'
p541
aS'ADD reg, reg, #func@PAGEOFF'
p542
aS'ADD reg, reg, #(aQcomMdssDsi_17+0x1B)@PAGEOFF'
p543
aS'BL printk'
p544
asg63
Nsg5
S'0xffffffc0007b8aa0L'
p545
sg65
(lp546
S'0xffffffc0007b8a90L'
p547
asg6
Nsg67
(lp548
S'0xffffffc0007b8ab4L'
p549
asg71
Nsg72
Nsg73
S'4bb3c333f0963e9d264d92b454a1960d'
p550
sg75
S'dfc7b5984a675b3239ed3585bd2eb73a'
p551
sg77
(lp552
g509
ag516
ag523
ag530
ag537
asg79
Nsba(ibclass
BBasicBlock
p553
(dp554
g12
Nsg13
(lp555
(ibclass
BInstr
p556
(dp557
g2
Nsg17
S'STR             XZR, [X19,#0x220]'
p558
sg19
S'7f1201f9'
p559
sg21
Vstr xzr, [x19, #0x220]
p560
sg5
L18446743798839741108L
sg6
Nsg23
S'STR'
p561
sg25
S'0xffffffc0007b8ab4L'
p562
sg27
Nsba(ibclass
BInstr
p563
(dp564
g2
Nsg17
S'B               loc_FFFFFFC0007B8AC0'
p565
sg19
S'02000014'
p566
sg21
Vb #8
p567
sg5
L18446743798839741112L
sg6
Nsg23
g279
sg25
S'0xffffffc0007b8ab8L'
p568
sg27
Nsbasg56
(lp569
S'STR XZR, mem'
p570
aS'B func'
p571
asg63
Nsg5
S'0xffffffc0007b8ab4L'
p572
sg65
(lp573
S'0xffffffc0007b8a70L'
p574
aS'0xffffffc0007b8a80L'
p575
aS'0xffffffc0007b8a90L'
p576
aS'0xffffffc0007b8aa0L'
p577
asg6
Nsg67
(lp578
S'0xffffffc0007b8ac0L'
p579
asg71
Nsg72
Nsg73
S'bb4d1d0d0e01d20d3b7cbdf52fe2caa6'
p580
sg75
S'f6e70724ce17fdde232af6d4acf97c50'
p581
sg77
(lp582
g561
ag279
asg79
Nsba(ibclass
BBasicBlock
p583
(dp584
g12
Nsg13
(lp585
(ibclass
BInstr
p586
(dp587
g2
Nsg17
S'MOV             W20, #0xFFFFFFEA'
p588
sg19
S'b4028012'
p589
sg21
Vmovn w20, #0x15
p590
sg5
L18446743798839741116L
sg6
Nsg23
S'MOV'
p591
sg25
S'0xffffffc0007b8abcL'
p592
sg27
Nsbasg56
(lp593
S'MOV reg0, #0xFFFFFFEA'
p594
asg63
Nsg5
S'0xffffffc0007b8abcL'
p595
sg65
(lp596
S'0xffffffc0007b8a10L'
p597
asg6
Nsg67
(lp598
S'0xffffffc0007b8ac0L'
p599
asg71
Nsg72
Nsg73
S'17b32100aef1fc19670be7fd58bc85df'
p600
sg75
S'df9685dff01bfe08ae98ed966d387ffe'
p601
sg77
(lp602
g591
asg79
Nsba(ibclass
BBasicBlock
p603
(dp604
g12
Nsg13
(lp605
(ibclass
BInstr
p606
(dp607
g2
Nsg17
S'MOV             W0, W20'
p608
sg19
S'e003142a'
p609
sg21
Vmov w0, w20
p610
sg5
L18446743798839741120L
sg6
Nsg23
S'MOV'
p611
sg25
S'0xffffffc0007b8ac0L'
p612
sg27
Nsba(ibclass
BInstr
p613
(dp614
g2
Nsg17
S'LDP             X19, X20, [SP,#0x10+var_s0]'
p615
sg19
S'f35341a9'
p616
sg21
Vldp x19, x20, [sp, #0x10]
p617
sg5
L18446743798839741124L
sg6
Nsg23
S'LDP'
p618
sg25
S'0xffffffc0007b8ac4L'
p619
sg27
Nsba(ibclass
BInstr
p620
(dp621
g2
Nsg17
S'LDP             X29, X30, [SP+0x10+var_10],#0x20'
p622
sg19
S'fd7bc2a8'
p623
sg21
Vldp x29, x30, [sp], #0x20
p624
sg5
L18446743798839741128L
sg6
Nsg23
S'LDP'
p625
sg25
S'0xffffffc0007b8ac8L'
p626
sg27
Nsba(ibclass
BInstr
p627
(dp628
g2
Nsg17
S'RET'
p629
sg19
S'c0035fd6'
p630
sg21
Vret 
p631
sg5
L18446743798839741132L
sg6
Nsg23
S'RET'
p632
sg25
S'0xffffffc0007b8accL'
p633
sg27
Nsbasg56
(lp634
S'MOV reg, reg0'
p635
aS'LDP reg9, reg0, mem'
p636
aS'LDP reg9, reg0, mem,#0x20'
p637
ag629
asg63
Nsg5
S'0xffffffc0007b8ac0L'
p638
sg65
(lp639
S'0xffffffc0007b8a20L'
p640
aS'0xffffffc0007b8a34L'
p641
aS'0xffffffc0007b8a5cL'
p642
aS'0xffffffc0007b8a68L'
p643
aS'0xffffffc0007b8ab4L'
p644
aS'0xffffffc0007b8abcL'
p645
asg6
Nsg67
(lp646
sg71
Nsg72
Nsg73
S'71ab966c7236e9c8ca7660e140718091'
p647
sg75
S'a49a1cf691fb3a5071861ee16c9640a3'
p648
sg77
(lp649
g611
ag618
ag625
ag632
asg79
Nsbasb.