(ibclass
BFunc
p0
(dp1
S'hash'
p2
NsS'name'
p3
S'audio_compat_ioctl'
p4
sS'start_address'
p5
L18446743798837781972L
sS'flag'
p6
NsS'program'
p7
NsS'bbs'
p8
(lp9
(ibclass
BBasicBlock
p10
(dp11
S'function'
p12
NsS'binstrs'
p13
(lp14
(ibclass
BInstr
p15
(dp16
g2
NsS'disasm'
p17
S'STP             X29, X30, [SP,#-0x10+var_40]!'
p18
sS'bytes'
p19
S'fd7bbba9'
p20
sS'disasm_striped'
p21
Vstp x29, x30, [sp, #-0x50]!
p22
sg5
L18446743798837781972L
sg6
NsS'mnem'
p23
S'STP'
p24
sS'address'
p25
S'0xffffffc0005da5d4L'
p26
sS'basicblock'
p27
Nsba(ibclass
BInstr
p28
(dp29
g2
Nsg17
S'MOV             X29, SP'
p30
sg19
S'fd030091'
p31
sg21
Vmov x29, sp
p32
sg5
L18446743798837781976L
sg6
Nsg23
S'MOV'
p33
sg25
S'0xffffffc0005da5d8L'
p34
sg27
Nsba(ibclass
BInstr
p35
(dp36
g2
Nsg17
S'STP             X19, X20, [SP,#0x40+var_30]'
p37
sg19
S'f35301a9'
p38
sg21
Vstp x19, x20, [sp, #0x10]
p39
sg5
L18446743798837781980L
sg6
Nsg23
S'STP'
p40
sg25
S'0xffffffc0005da5dcL'
p41
sg27
Nsba(ibclass
BInstr
p42
(dp43
g2
Nsg17
S'MOV             W20, W1'
p44
sg19
S'f403012a'
p45
sg21
Vmov w20, w1
p46
sg5
L18446743798837781984L
sg6
Nsg23
S'MOV'
p47
sg25
S'0xffffffc0005da5e0L'
p48
sg27
Nsba(ibclass
BInstr
p49
(dp50
g2
Nsg17
S'MOV             W1, #0x616C'
p51
sg19
S'812d8c52'
p52
sg21
Vmovz w1, #0x616c
p53
sg5
L18446743798837781988L
sg6
Nsg23
S'MOV'
p54
sg25
S'0xffffffc0005da5e4L'
p55
sg27
Nsba(ibclass
BInstr
p56
(dp57
g2
Nsg17
S'MOVK            W1, #0x4018,LSL#16'
p58
sg19
S'0103a872'
p59
sg21
Vmovk w1, #0x4018, lsl #16
p60
sg5
L18446743798837781992L
sg6
Nsg23
S'MOVK'
p61
sg25
S'0xffffffc0005da5e8L'
p62
sg27
Nsba(ibclass
BInstr
p63
(dp64
g2
Nsg17
S'STP             X21, X22, [SP,#0x40+var_20]'
p65
sg19
S'f55b02a9'
p66
sg21
Vstp x21, x22, [sp, #0x20]
p67
sg5
L18446743798837781996L
sg6
Nsg23
S'STP'
p68
sg25
S'0xffffffc0005da5ecL'
p69
sg27
Nsba(ibclass
BInstr
p70
(dp71
g2
Nsg17
S'CMP             W20, W1'
p72
sg19
S'9f02016b'
p73
sg21
Vcmp w20, w1
p74
sg5
L18446743798837782000L
sg6
Nsg23
S'CMP'
p75
sg25
S'0xffffffc0005da5f0L'
p76
sg27
Nsba(ibclass
BInstr
p77
(dp78
g2
Nsg17
S'MOV             X22, X0'
p79
sg19
S'f60300aa'
p80
sg21
Vmov x22, x0
p81
sg5
L18446743798837782004L
sg6
Nsg23
S'MOV'
p82
sg25
S'0xffffffc0005da5f4L'
p83
sg27
Nsba(ibclass
BInstr
p84
(dp85
g2
Nsg17
S'MOV             X19, X2'
p86
sg19
S'f30302aa'
p87
sg21
Vmov x19, x2
p88
sg5
L18446743798837782008L
sg6
Nsg23
S'MOV'
p89
sg25
S'0xffffffc0005da5f8L'
p90
sg27
Nsba(ibclass
BInstr
p91
(dp92
g2
Nsg17
S'LDR             X21, [X0,#0xA8]'
p93
sg19
S'155440f9'
p94
sg21
Vldr x21, [x0, #0xa8]
p95
sg5
L18446743798837782012L
sg6
Nsg23
S'LDR'
p96
sg25
S'0xffffffc0005da5fcL'
p97
sg27
Nsba(ibclass
BInstr
p98
(dp99
g2
Nsg17
S'B.EQ            loc_FFFFFFC0005DA6BC'
p100
sg19
S'e0050054'
p101
sg21
Vb.eq #0xbc
p102
sg5
L18446743798837782016L
sg6
Nsg23
S'B'
p103
sg25
S'0xffffffc0005da600L'
p104
sg27
NsbasS'disasm_list'
p105
(lp106
S'STP reg9, reg0, mem!'
p107
aS'MOV reg9, SP'
p108
aS'STP reg9, reg0, mem'
p109
aS'MOV reg0, reg'
p110
aS'MOV reg, #0x616C'
p111
aS'MOVK reg, #0x4018,LSL#16'
p112
aS'STP reg1, reg2, mem'
p113
aS'CMP reg0, reg'
p114
aS'MOV reg2, reg'
p115
aS'MOV reg9, reg'
p116
aS'LDR reg1, mem'
p117
aS'B.EQ func'
p118
asS'end_address'
p119
Nsg5
S'0xffffffc0005da5d4L'
p120
sS'preds'
p121
(lp122
sg6
NsS'succs'
p123
(lp124
S'0xffffffc0005da604L'
p125
aS'0xffffffc0005da6bcL'
p126
asS'hash_v3'
p127
NsS'flag_v2'
p128
NsS'hash_v1'
p129
S'17078b1505f1012a60cdf1a78909f774'
p130
sS'hash_v2'
p131
S'65ecde9e48a941918faf041c21b7ea3d'
p132
sS'mnen_list'
p133
(lp134
g24
ag33
ag40
ag47
ag54
ag61
ag68
ag75
ag82
ag89
ag96
ag103
asS'neighbour_disasm_list'
p135
Nsba(ibclass
BBasicBlock
p136
(dp137
g12
Nsg13
(lp138
(ibclass
BInstr
p139
(dp140
g2
Nsg17
S'MOV             W1, #0x616B'
p141
sg19
S'612d8c52'
p142
sg21
Vmovz w1, #0x616b
p143
sg5
L18446743798837782020L
sg6
Nsg23
S'MOV'
p144
sg25
S'0xffffffc0005da604L'
p145
sg27
Nsba(ibclass
BInstr
p146
(dp147
g2
Nsg17
S'MOVK            W1, #0x8018,LSL#16'
p148
sg19
S'0103b072'
p149
sg21
Vmovk w1, #0x8018, lsl #16
p150
sg5
L18446743798837782024L
sg6
Nsg23
S'MOVK'
p151
sg25
S'0xffffffc0005da608L'
p152
sg27
Nsba(ibclass
BInstr
p153
(dp154
g2
Nsg17
S'CMP             W20, W1'
p155
sg19
S'9f02016b'
p156
sg21
Vcmp w20, w1
p157
sg5
L18446743798837782028L
sg6
Nsg23
S'CMP'
p158
sg25
S'0xffffffc0005da60cL'
p159
sg27
Nsba(ibclass
BInstr
p160
(dp161
g2
Nsg17
S'B.EQ            loc_FFFFFFC0005DA634'
p162
sg19
S'20010054'
p163
sg21
Vb.eq #0x24
p164
sg5
L18446743798837782032L
sg6
Nsg23
g103
sg25
S'0xffffffc0005da610L'
p165
sg27
Nsbasg105
(lp166
S'MOV reg, #0x616B'
p167
aS'MOVK reg, #0x8018,LSL#16'
p168
aS'CMP reg0, reg'
p169
aS'B.EQ func'
p170
asg119
Nsg5
S'0xffffffc0005da604L'
p171
sg121
(lp172
S'0xffffffc0005da5d4L'
p173
asg6
Nsg123
(lp174
S'0xffffffc0005da614L'
p175
aS'0xffffffc0005da634L'
p176
asg127
Nsg128
Nsg129
S'fbe85b71e0db4b451ef16ba1f8d96770'
p177
sg131
S'abc5793e375fb978481e2dec6047c7e7'
p178
sg133
(lp179
g144
ag151
ag158
ag103
asg135
Nsba(ibclass
BBasicBlock
p180
(dp181
g12
Nsg13
(lp182
(ibclass
BInstr
p183
(dp184
g2
Nsg17
S'MOV             W1, #0x6100'
p185
sg19
S'01208c52'
p186
sg21
Vmovz w1, #0x6100
p187
sg5
L18446743798837782036L
sg6
Nsg23
S'MOV'
p188
sg25
S'0xffffffc0005da614L'
p189
sg27
Nsba(ibclass
BInstr
p190
(dp191
g2
Nsg17
S'MOVK            W1, #0x4004,LSL#16'
p192
sg19
S'8100a872'
p193
sg21
Vmovk w1, #0x4004, lsl #16
p194
sg5
L18446743798837782040L
sg6
Nsg23
S'MOVK'
p195
sg25
S'0xffffffc0005da618L'
p196
sg27
Nsba(ibclass
BInstr
p197
(dp198
g2
Nsg17
S'CMP             W20, W1'
p199
sg19
S'9f02016b'
p200
sg21
Vcmp w20, w1
p201
sg5
L18446743798837782044L
sg6
Nsg23
S'CMP'
p202
sg25
S'0xffffffc0005da61cL'
p203
sg27
Nsba(ibclass
BInstr
p204
(dp205
g2
Nsg17
S'B.NE            loc_FFFFFFC0005DA768'
p206
sg19
S'410a0054'
p207
sg21
Vb.ne #0x148
p208
sg5
L18446743798837782048L
sg6
Nsg23
g103
sg25
S'0xffffffc0005da620L'
p209
sg27
Nsbasg105
(lp210
S'MOV reg, #0x6100'
p211
aS'MOVK reg, #0x4004,LSL#16'
p212
aS'CMP reg0, reg'
p213
aS'B.NE func'
p214
asg119
Nsg5
S'0xffffffc0005da614L'
p215
sg121
(lp216
S'0xffffffc0005da604L'
p217
asg6
Nsg123
(lp218
S'0xffffffc0005da624L'
p219
aS'0xffffffc0005da768L'
p220
asg127
Nsg128
Nsg129
S'fbe85b71e0db4b451ef16ba1f8d96770'
p221
sg131
S'85b1764e395be345b1d6ef95e489bb71'
p222
sg133
(lp223
g188
ag195
ag202
ag103
asg135
Nsba(ibclass
BBasicBlock
p224
(dp225
g12
Nsg13
(lp226
(ibclass
BInstr
p227
(dp228
g2
Nsg17
S'MOV             W1, #0x6100'
p229
sg19
S'01208c52'
p230
sg21
Vmovz w1, #0x6100
p231
sg5
L18446743798837782052L
sg6
Nsg23
S'MOV'
p232
sg25
S'0xffffffc0005da624L'
p233
sg27
Nsba(ibclass
BInstr
p234
(dp235
g2
Nsg17
S'MOVK            W1, #0x4004,LSL#16'
p236
sg19
S'8100a872'
p237
sg21
Vmovk w1, #0x4004, lsl #16
p238
sg5
L18446743798837782056L
sg6
Nsg23
S'MOVK'
p239
sg25
S'0xffffffc0005da628L'
p240
sg27
Nsba(ibclass
BInstr
p241
(dp242
g2
Nsg17
S'BL              audio_ioctl_shared.isra.0'
p243
sg19
S'85ffff97'
p244
sg21
Vbl #0xfffffffffffffe14
p245
sg5
L18446743798837782060L
sg6
Nsg23
S'BL'
p246
sg25
S'0xffffffc0005da62cL'
p247
sg27
Nsba(ibclass
BInstr
p248
(dp249
g2
Nsg17
S'B               loc_FFFFFFC0005DA760'
p250
sg19
S'4c000014'
p251
sg21
Vb #0x130
p252
sg5
L18446743798837782064L
sg6
Nsg23
g103
sg25
S'0xffffffc0005da630L'
p253
sg27
Nsbasg105
(lp254
S'MOV reg, #0x6100'
p255
aS'MOVK reg, #0x4004,LSL#16'
p256
aS'BL audio_ioctl_shared.isra.0'
p257
aS'B func'
p258
asg119
Nsg5
S'0xffffffc0005da624L'
p259
sg121
(lp260
S'0xffffffc0005da614L'
p261
asg6
Nsg123
(lp262
S'0xffffffc0005da760L'
p263
asg127
Nsg128
Nsg129
S'eaec8b67a65b8c1834cd8f98faf081c8'
p264
sg131
S'e76844fdb2a1dd9b135c9352e82a0e44'
p265
sg133
(lp266
g232
ag239
ag246
ag103
asg135
Nsba(ibclass
BBasicBlock
p267
(dp268
g12
Nsg13
(lp269
(ibclass
BInstr
p270
(dp271
g2
Nsg17
S'LDR             X3, [X21,#0x40]'
p272
sg19
S'a32240f9'
p273
sg21
Vldr x3, [x21, #0x40]
p274
sg5
L18446743798837782068L
sg6
Nsg23
S'LDR'
p275
sg25
S'0xffffffc0005da634L'
p276
sg27
Nsba(ibclass
BInstr
p277
(dp278
g2
Nsg17
S'MOV             X1, SP'
p279
sg19
S'e1030091'
p280
sg21
Vmov x1, sp
p281
sg5
L18446743798837782072L
sg6
Nsg23
S'MOV'
p282
sg25
S'0xffffffc0005da638L'
p283
sg27
Nsba(ibclass
BInstr
p284
(dp285
g2
Nsg17
S'LDRH            W0, [X3]'
p286
sg19
S'60004079'
p287
sg21
Vldrh w0, [x3]
p288
sg5
L18446743798837782076L
sg6
Nsg23
S'LDR'
p289
sg25
S'0xffffffc0005da63cL'
p290
sg27
Nsba(ibclass
BInstr
p291
(dp292
g2
Nsg17
S'STRH            W0, [X29,#arg_20]'
p293
sg19
S'a0630079'
p294
sg21
Vstrh w0, [x29, #0x30]
p295
sg5
L18446743798837782080L
sg6
Nsg23
S'STR'
p296
sg25
S'0xffffffc0005da640L'
p297
sg27
Nsba(ibclass
BInstr
p298
(dp299
g2
Nsg17
S'LDRH            W0, [X3,#2]'
p300
sg19
S'60044079'
p301
sg21
Vldrh w0, [x3, #2]
p302
sg5
L18446743798837782084L
sg6
Nsg23
S'LDR'
p303
sg25
S'0xffffffc0005da644L'
p304
sg27
Nsba(ibclass
BInstr
p305
(dp306
g2
Nsg17
S'STRH            W0, [X29,#arg_20+2]'
p307
sg19
S'a0670079'
p308
sg21
Vstrh w0, [x29, #0x32]
p309
sg5
L18446743798837782088L
sg6
Nsg23
S'STR'
p310
sg25
S'0xffffffc0005da648L'
p311
sg27
Nsba(ibclass
BInstr
p312
(dp313
g2
Nsg17
S'LDR             W0, [X3,#4]'
p314
sg19
S'600440b9'
p315
sg21
Vldr w0, [x3, #4]
p316
sg5
L18446743798837782092L
sg6
Nsg23
S'LDR'
p317
sg25
S'0xffffffc0005da64cL'
p318
sg27
Nsba(ibclass
BInstr
p319
(dp320
g2
Nsg17
S'STR             W0, [X29,#arg_20+4]'
p321
sg19
S'a03700b9'
p322
sg21
Vstr w0, [x29, #0x34]
p323
sg5
L18446743798837782096L
sg6
Nsg23
S'STR'
p324
sg25
S'0xffffffc0005da650L'
p325
sg27
Nsba(ibclass
BInstr
p326
(dp327
g2
Nsg17
S'LDR             W0, [X3,#8]'
p328
sg19
S'600840b9'
p329
sg21
Vldr w0, [x3, #8]
p330
sg5
L18446743798837782100L
sg6
Nsg23
S'LDR'
p331
sg25
S'0xffffffc0005da654L'
p332
sg27
Nsba(ibclass
BInstr
p333
(dp334
g2
Nsg17
S'STR             W0, [X29,#arg_28]'
p335
sg19
S'a03b00b9'
p336
sg21
Vstr w0, [x29, #0x38]
p337
sg5
L18446743798837782104L
sg6
Nsg23
S'STR'
p338
sg25
S'0xffffffc0005da658L'
p339
sg27
Nsba(ibclass
BInstr
p340
(dp341
g2
Nsg17
S'LDRH            W0, [X3,#0xC]'
p342
sg19
S'60184079'
p343
sg21
Vldrh w0, [x3, #0xc]
p344
sg5
L18446743798837782108L
sg6
Nsg23
S'LDR'
p345
sg25
S'0xffffffc0005da65cL'
p346
sg27
Nsba(ibclass
BInstr
p347
(dp348
g2
Nsg17
S'STRH            W0, [X29,#arg_2C]'
p349
sg19
S'a07b0079'
p350
sg21
Vstrh w0, [x29, #0x3c]
p351
sg5
L18446743798837782112L
sg6
Nsg23
S'STR'
p352
sg25
S'0xffffffc0005da660L'
p353
sg27
Nsba(ibclass
BInstr
p354
(dp355
g2
Nsg17
S'LDRH            W0, [X3,#0xE]'
p356
sg19
S'601c4079'
p357
sg21
Vldrh w0, [x3, #0xe]
p358
sg5
L18446743798837782116L
sg6
Nsg23
S'LDR'
p359
sg25
S'0xffffffc0005da664L'
p360
sg27
Nsba(ibclass
BInstr
p361
(dp362
g2
Nsg17
S'STRH            W0, [X29,#arg_2E]'
p363
sg19
S'a07f0079'
p364
sg21
Vstrh w0, [x29, #0x3e]
p365
sg5
L18446743798837782120L
sg6
Nsg23
S'STR'
p366
sg25
S'0xffffffc0005da668L'
p367
sg27
Nsba(ibclass
BInstr
p368
(dp369
g2
Nsg17
S'LDR             W0, [X3,#0x10]'
p370
sg19
S'601040b9'
p371
sg21
Vldr w0, [x3, #0x10]
p372
sg5
L18446743798837782124L
sg6
Nsg23
S'LDR'
p373
sg25
S'0xffffffc0005da66cL'
p374
sg27
Nsba(ibclass
BInstr
p375
(dp376
g2
Nsg17
S'STR             W0, [X29,#arg_30]'
p377
sg19
S'a04300b9'
p378
sg21
Vstr w0, [x29, #0x40]
p379
sg5
L18446743798837782128L
sg6
Nsg23
S'STR'
p380
sg25
S'0xffffffc0005da670L'
p381
sg27
Nsba(ibclass
BInstr
p382
(dp383
g2
Nsg17
S'LDRH            W0, [X3,#0x14]'
p384
sg19
S'60284079'
p385
sg21
Vldrh w0, [x3, #0x14]
p386
sg5
L18446743798837782132L
sg6
Nsg23
S'LDR'
p387
sg25
S'0xffffffc0005da674L'
p388
sg27
Nsba(ibclass
BInstr
p389
(dp390
g2
Nsg17
S'STRH            W0, [X29,#arg_30+4]'
p391
sg19
S'a08b0079'
p392
sg21
Vstrh w0, [x29, #0x44]
p393
sg5
L18446743798837782136L
sg6
Nsg23
S'STR'
p394
sg25
S'0xffffffc0005da678L'
p395
sg27
Nsba(ibclass
BInstr
p396
(dp397
g2
Nsg17
S'AND             X0, X1, #0xFFFFFFFFFFFFC000'
p398
sg19
S'20c47292'
p399
sg21
Vand x0, x1, #0xffffffffffffc000
p400
sg5
L18446743798837782140L
sg6
Nsg23
S'AND'
p401
sg25
S'0xffffffc0005da67cL'
p402
sg27
Nsba(ibclass
BInstr
p403
(dp404
g2
Nsg17
S'LDR             X1, [X0,#8]'
p405
sg19
S'010440f9'
p406
sg21
Vldr x1, [x0, #8]
p407
sg5
L18446743798837782144L
sg6
Nsg23
S'LDR'
p408
sg25
S'0xffffffc0005da680L'
p409
sg27
Nsba(ibclass
BInstr
p410
(dp411
g2
Nsg17
S'MOV             X0, X2'
p412
sg19
S'e00302aa'
p413
sg21
Vmov x0, x2
p414
sg5
L18446743798837782148L
sg6
Nsg23
S'MOV'
p415
sg25
S'0xffffffc0005da684L'
p416
sg27
Nsba(ibclass
BInstr
p417
(dp418
g2
Nsg17
S'ADDS            X0, X0, #0x18'
p419
sg19
S'006000b1'
p420
sg21
Vadds x0, x0, #0x18
p421
sg5
L18446743798837782152L
sg6
Nsg23
S'ADD'
p422
sg25
S'0xffffffc0005da688L'
p423
sg27
Nsba(ibclass
BInstr
p424
(dp425
g2
Nsg17
S'CCMP            X0, X1, #2, CC'
p426
sg19
S'023041fa'
p427
sg21
Vccmp x0, x1, #2, lo
p428
sg5
L18446743798837782156L
sg6
Nsg23
S'CCMP'
p429
sg25
S'0xffffffc0005da68cL'
p430
sg27
Nsba(ibclass
BInstr
p431
(dp432
g2
Nsg17
S'CSET            X2, LS'
p433
sg19
S'e2879f9a'
p434
sg21
Vcset x2, ls
p435
sg5
L18446743798837782160L
sg6
Nsg23
S'CSET'
p436
sg25
S'0xffffffc0005da690L'
p437
sg27
Nsba(ibclass
BInstr
p438
(dp439
g2
Nsg17
S'CBNZ            X2, loc_FFFFFFC0005DA6A4'
p440
sg19
S'820000b5'
p441
sg21
Vcbnz x2, #0x10
p442
sg5
L18446743798837782164L
sg6
Nsg23
S'CBNZ'
p443
sg25
S'0xffffffc0005da694L'
p444
sg27
Nsbasg105
(lp445
S'LDR reg, mem'
p446
aS'MOV reg, SP'
p447
aS'LDRH reg, mem'
p448
aS'STRH reg, mem'
p449
aS'LDRH reg, mem'
p450
aS'STRH reg, mem'
p451
aS'LDR reg, mem'
p452
aS'STR reg, mem'
p453
aS'LDR reg, mem'
p454
aS'STR reg, mem'
p455
aS'LDRH reg, mem'
p456
aS'STRH reg, mem'
p457
aS'LDRH reg, mem'
p458
aS'STRH reg, mem'
p459
aS'LDR reg, mem'
p460
aS'STR reg, mem'
p461
aS'LDRH reg, mem'
p462
aS'STRH reg, mem'
p463
aS'AND reg, reg, #0xFFFFFFFFFFFFC000'
p464
aS'LDR reg, mem'
p465
aS'MOV reg, reg'
p466
aS'ADDS reg, reg, #0x18'
p467
aS'CCMP reg, reg, #2, CC'
p468
aS'CSET reg, LS'
p469
aS'CBNZ reg, func'
p470
asg119
Nsg5
S'0xffffffc0005da634L'
p471
sg121
(lp472
S'0xffffffc0005da604L'
p473
asg6
Nsg123
(lp474
S'0xffffffc0005da698L'
p475
aS'0xffffffc0005da6a4L'
p476
asg127
Nsg128
Nsg129
S'3401cd39808d67298740c21b5fe6f890'
p477
sg131
S'b39d0484d0f62d25d5199d44149428ad'
p478
sg133
(lp479
g275
ag282
ag289
ag296
ag303
ag310
ag317
ag324
ag331
ag338
ag345
ag352
ag359
ag366
ag373
ag380
ag387
ag394
ag401
ag408
ag415
ag422
ag429
ag436
ag443
asg135
Nsba(ibclass
BBasicBlock
p480
(dp481
g12
Nsg13
(lp482
(ibclass
BInstr
p483
(dp484
g2
Nsg17
S'ADRP            X0, #unk_FFFFFFC0013622AD@PAGE'
p485
sg19
S'406c0090'
p486
sg21
Vadrp x0, #0xd88000
p487
sg5
L18446743798837782168L
sg6
Nsg23
S'ADRP'
p488
sg25
S'0xffffffc0005da698L'
p489
sg27
Nsba(ibclass
BInstr
p490
(dp491
g2
Nsg17
S'ADD             X0, X0, #unk_FFFFFFC0013622AD@PAGEOFF'
p492
sg19
S'00b40a91'
p493
sg21
Vadd x0, x0, #0x2ad
p494
sg5
L18446743798837782172L
sg6
Nsg23
S'ADD'
p495
sg25
S'0xffffffc0005da69cL'
p496
sg27
Nsba(ibclass
BInstr
p497
(dp498
g2
Nsg17
S'B               loc_FFFFFFC0005DA704'
p499
sg19
S'19000014'
p500
sg21
Vb #0x64
p501
sg5
L18446743798837782176L
sg6
Nsg23
g103
sg25
S'0xffffffc0005da6a0L'
p502
sg27
Nsbasg105
(lp503
S'ADRP reg, #func@PAGE'
p504
aS'ADD reg, reg, #func@PAGEOFF'
p505
aS'B func'
p506
asg119
Nsg5
S'0xffffffc0005da698L'
p507
sg121
(lp508
S'0xffffffc0005da634L'
p509
aS'0xffffffc0005da6b8L'
p510
asg6
Nsg123
(lp511
S'0xffffffc0005da704L'
p512
asg127
Nsg128
Nsg129
S'fbb05d8d8f727699d69de49f56b5b4c8'
p513
sg131
S'504e84c4ef9350eb8240fe83ea7f699a'
p514
sg133
(lp515
g488
ag495
ag103
asg135
Nsba(ibclass
BBasicBlock
p516
(dp517
g12
Nsg13
(lp518
(ibclass
BInstr
p519
(dp520
g2
Nsg17
S'MOV             X0, X19'
p521
sg19
S'e00313aa'
p522
sg21
Vmov x0, x19
p523
sg5
L18446743798837782180L
sg6
Nsg23
S'MOV'
p524
sg25
S'0xffffffc0005da6a4L'
p525
sg27
Nsba(ibclass
BInstr
p526
(dp527
g2
Nsg17
S'ADD             X1, X29, #0x30'
p528
sg19
S'a1c30091'
p529
sg21
Vadd x1, x29, #0x30
p530
sg5
L18446743798837782184L
sg6
Nsg23
S'ADD'
p531
sg25
S'0xffffffc0005da6a8L'
p532
sg27
Nsba(ibclass
BInstr
p533
(dp534
g2
Nsg17
S'MOV             X2, #0x18'
p535
sg19
S'020380d2'
p536
sg21
Vmovz x2, #0x18
p537
sg5
L18446743798837782188L
sg6
Nsg23
S'MOV'
p538
sg25
S'0xffffffc0005da6acL'
p539
sg27
Nsba(ibclass
BInstr
p540
(dp541
g2
Nsg17
S'BL              __copy_to_user'
p542
sg19
S'4012f997'
p543
sg21
Vbl #0xffffffffffe44900
p544
sg5
L18446743798837782192L
sg6
Nsg23
S'BL'
p545
sg25
S'0xffffffc0005da6b0L'
p546
sg27
Nsba(ibclass
BInstr
p547
(dp548
g2
Nsg17
S'CBZ             X0, loc_FFFFFFC0005DA760'
p549
sg19
S'600500b4'
p550
sg21
Vcbz x0, #0xac
p551
sg5
L18446743798837782196L
sg6
Nsg23
S'CBZ'
p552
sg25
S'0xffffffc0005da6b4L'
p553
sg27
Nsbasg105
(lp554
S'MOV reg, reg9'
p555
aS'ADD reg, reg9, #0x30'
p556
aS'MOV reg, #0x18'
p557
aS'BL __copy_to_user'
p558
aS'CBZ reg, func'
p559
asg119
Nsg5
S'0xffffffc0005da6a4L'
p560
sg121
(lp561
S'0xffffffc0005da634L'
p562
asg6
Nsg123
(lp563
S'0xffffffc0005da6b8L'
p564
aS'0xffffffc0005da760L'
p565
asg127
Nsg128
Nsg129
S'3e437ed62a5b5551da045745ec200d0f'
p566
sg131
S'5efbbf6e7b60027e5743d06e1d1cf7be'
p567
sg133
(lp568
g524
ag531
ag538
ag545
ag552
asg135
Nsba(ibclass
BBasicBlock
p569
(dp570
g12
Nsg13
(lp571
(ibclass
BInstr
p572
(dp573
g2
Nsg17
S'B               loc_FFFFFFC0005DA698'
p574
sg19
S'f8ffff17'
p575
sg21
Vb #0xffffffffffffffe0
p576
sg5
L18446743798837782200L
sg6
Nsg23
g103
sg25
S'0xffffffc0005da6b8L'
p577
sg27
Nsbasg105
(lp578
S'B func'
p579
asg119
Nsg5
S'0xffffffc0005da6b8L'
p580
sg121
(lp581
S'0xffffffc0005da6a4L'
p582
asg6
Nsg123
(lp583
S'0xffffffc0005da698L'
p584
asg127
Nsg128
Nsg129
S'9d5ed678fe57bcca610140957afab571'
p585
sg131
S'071b057c420e304c628380fd3541c021'
p586
sg133
(lp587
g103
asg135
Nsba(ibclass
BBasicBlock
p588
(dp589
g12
Nsg13
(lp590
(ibclass
BInstr
p591
(dp592
g2
Nsg17
S'MOV             X2, SP'
p593
sg19
S'e2030091'
p594
sg21
Vmov x2, sp
p595
sg5
L18446743798837782204L
sg6
Nsg23
S'MOV'
p596
sg25
S'0xffffffc0005da6bcL'
p597
sg27
Nsba(ibclass
BInstr
p598
(dp599
g2
Nsg17
S'AND             X0, X2, #0xFFFFFFFFFFFFC000'
p600
sg19
S'40c47292'
p601
sg21
Vand x0, x2, #0xffffffffffffc000
p602
sg5
L18446743798837782208L
sg6
Nsg23
S'AND'
p603
sg25
S'0xffffffc0005da6c0L'
p604
sg27
Nsba(ibclass
BInstr
p605
(dp606
g2
Nsg17
S'LDR             X2, [X0,#8]'
p607
sg19
S'020440f9'
p608
sg21
Vldr x2, [x0, #8]
p609
sg5
L18446743798837782212L
sg6
Nsg23
S'LDR'
p610
sg25
S'0xffffffc0005da6c4L'
p611
sg27
Nsba(ibclass
BInstr
p612
(dp613
g2
Nsg17
S'MOV             X0, X19'
p614
sg19
S'e00313aa'
p615
sg21
Vmov x0, x19
p616
sg5
L18446743798837782216L
sg6
Nsg23
S'MOV'
p617
sg25
S'0xffffffc0005da6c8L'
p618
sg27
Nsba(ibclass
BInstr
p619
(dp620
g2
Nsg17
S'ADDS            X0, X0, #0x18'
p621
sg19
S'006000b1'
p622
sg21
Vadds x0, x0, #0x18
p623
sg5
L18446743798837782220L
sg6
Nsg23
S'ADD'
p624
sg25
S'0xffffffc0005da6ccL'
p625
sg27
Nsba(ibclass
BInstr
p626
(dp627
g2
Nsg17
S'CCMP            X0, X2, #2, CC'
p628
sg19
S'023042fa'
p629
sg21
Vccmp x0, x2, #2, lo
p630
sg5
L18446743798837782224L
sg6
Nsg23
S'CCMP'
p631
sg25
S'0xffffffc0005da6d0L'
p632
sg27
Nsba(ibclass
BInstr
p633
(dp634
g2
Nsg17
S'CSET            X1, LS'
p635
sg19
S'e1879f9a'
p636
sg21
Vcset x1, ls
p637
sg5
L18446743798837782228L
sg6
Nsg23
S'CSET'
p638
sg25
S'0xffffffc0005da6d4L'
p639
sg27
Nsba(ibclass
BInstr
p640
(dp641
g2
Nsg17
S'CBZ             X1, loc_FFFFFFC0005DA6F4'
p642
sg19
S'e10000b4'
p643
sg21
Vcbz x1, #0x1c
p644
sg5
L18446743798837782232L
sg6
Nsg23
S'CBZ'
p645
sg25
S'0xffffffc0005da6d8L'
p646
sg27
Nsbasg105
(lp647
S'MOV reg, SP'
p648
aS'AND reg, reg, #0xFFFFFFFFFFFFC000'
p649
aS'LDR reg, mem'
p650
aS'MOV reg, reg9'
p651
aS'ADDS reg, reg, #0x18'
p652
aS'CCMP reg, reg, #2, CC'
p653
aS'CSET reg, LS'
p654
aS'CBZ reg, func'
p655
asg119
Nsg5
S'0xffffffc0005da6bcL'
p656
sg121
(lp657
S'0xffffffc0005da5d4L'
p658
asg6
Nsg123
(lp659
S'0xffffffc0005da6dcL'
p660
aS'0xffffffc0005da6f4L'
p661
asg127
Nsg128
Nsg129
S'5ae3dea6cb27b3562b32637751486b27'
p662
sg131
S'3a82b0eb2fa4374b9153246d8190b838'
p663
sg133
(lp664
g596
ag603
ag610
ag617
ag624
ag631
ag638
ag645
asg135
Nsba(ibclass
BBasicBlock
p665
(dp666
g12
Nsg13
(lp667
(ibclass
BInstr
p668
(dp669
g2
Nsg17
S'ADD             X0, X29, #0x30'
p670
sg19
S'a0c30091'
p671
sg21
Vadd x0, x29, #0x30
p672
sg5
L18446743798837782236L
sg6
Nsg23
S'ADD'
p673
sg25
S'0xffffffc0005da6dcL'
p674
sg27
Nsba(ibclass
BInstr
p675
(dp676
g2
Nsg17
S'MOV             X1, X19'
p677
sg19
S'e10313aa'
p678
sg21
Vmov x1, x19
p679
sg5
L18446743798837782240L
sg6
Nsg23
S'MOV'
p680
sg25
S'0xffffffc0005da6e0L'
p681
sg27
Nsba(ibclass
BInstr
p682
(dp683
g2
Nsg17
S'MOV             X2, #0x18'
p684
sg19
S'020380d2'
p685
sg21
Vmovz x2, #0x18
p686
sg5
L18446743798837782244L
sg6
Nsg23
S'MOV'
p687
sg25
S'0xffffffc0005da6e4L'
p688
sg27
Nsba(ibclass
BInstr
p689
(dp690
g2
Nsg17
S'BL              __copy_from_user'
p691
sg19
S'f211f997'
p692
sg21
Vbl #0xffffffffffe447c8
p693
sg5
L18446743798837782248L
sg6
Nsg23
S'BL'
p694
sg25
S'0xffffffc0005da6e8L'
p695
sg27
Nsba(ibclass
BInstr
p696
(dp697
g2
Nsg17
S'CBZ             X0, loc_FFFFFFC0005DA71C'
p698
sg19
S'800100b4'
p699
sg21
Vcbz x0, #0x30
p700
sg5
L18446743798837782252L
sg6
Nsg23
S'CBZ'
p701
sg25
S'0xffffffc0005da6ecL'
p702
sg27
Nsbasg105
(lp703
S'ADD reg, reg9, #0x30'
p704
aS'MOV reg, reg9'
p705
aS'MOV reg, #0x18'
p706
aS'BL __copy_from_user'
p707
aS'CBZ reg, func'
p708
asg119
Nsg5
S'0xffffffc0005da6dcL'
p709
sg121
(lp710
S'0xffffffc0005da6bcL'
p711
asg6
Nsg123
(lp712
S'0xffffffc0005da6f0L'
p713
aS'0xffffffc0005da71cL'
p714
asg127
Nsg128
Nsg129
S'86059e30b211087ba38d807f0379b4c0'
p715
sg131
S'22157e6e63873d6099f1f91da5f61046'
p716
sg133
(lp717
g673
ag680
ag687
ag694
ag701
asg135
Nsba(ibclass
BBasicBlock
p718
(dp719
g12
Nsg13
(lp720
(ibclass
BInstr
p721
(dp722
g2
Nsg17
S'B               loc_FFFFFFC0005DA6FC'
p723
sg19
S'03000014'
p724
sg21
Vb #0xc
p725
sg5
L18446743798837782256L
sg6
Nsg23
g103
sg25
S'0xffffffc0005da6f0L'
p726
sg27
Nsbasg105
(lp727
S'B func'
p728
asg119
Nsg5
S'0xffffffc0005da6f0L'
p729
sg121
(lp730
S'0xffffffc0005da6dcL'
p731
asg6
Nsg123
(lp732
S'0xffffffc0005da6fcL'
p733
asg127
Nsg128
Nsg129
S'9d5ed678fe57bcca610140957afab571'
p734
sg131
S'071b057c420e304c628380fd3541c021'
p735
sg133
(lp736
g103
asg135
Nsba(ibclass
BBasicBlock
p737
(dp738
g12
Nsg13
(lp739
(ibclass
BInstr
p740
(dp741
g2
Nsg17
S'STP             XZR, XZR, [X29,#arg_20]'
p742
sg19
S'bf7f03a9'
p743
sg21
Vstp xzr, xzr, [x29, #0x30]
p744
sg5
L18446743798837782260L
sg6
Nsg23
S'STP'
p745
sg25
S'0xffffffc0005da6f4L'
p746
sg27
Nsba(ibclass
BInstr
p747
(dp748
g2
Nsg17
S'STR             X1, [X29,#arg_30]'
p749
sg19
S'a12300f9'
p750
sg21
Vstr x1, [x29, #0x40]
p751
sg5
L18446743798837782264L
sg6
Nsg23
S'STR'
p752
sg25
S'0xffffffc0005da6f8L'
p753
sg27
Nsbasg105
(lp754
S'STP XZR, XZR, mem'
p755
aS'STR reg, mem'
p756
asg119
Nsg5
S'0xffffffc0005da6f4L'
p757
sg121
(lp758
S'0xffffffc0005da6bcL'
p759
asg6
Nsg123
(lp760
S'0xffffffc0005da6fcL'
p761
asg127
Nsg128
Nsg129
S'00565659e37b673d46346eae1834fd70'
p762
sg131
S'49408eebe7fd16e30ccf590a56f7ecdf'
p763
sg133
(lp764
g745
ag752
asg135
Nsba(ibclass
BBasicBlock
p765
(dp766
g12
Nsg13
(lp767
(ibclass
BInstr
p768
(dp769
g2
Nsg17
S'ADRP            X0, #unk_FFFFFFC0013622E1@PAGE'
p770
sg19
S'406c0090'
p771
sg21
Vadrp x0, #0xd88000
p772
sg5
L18446743798837782268L
sg6
Nsg23
S'ADRP'
p773
sg25
S'0xffffffc0005da6fcL'
p774
sg27
Nsba(ibclass
BInstr
p775
(dp776
g2
Nsg17
S'ADD             X0, X0, #unk_FFFFFFC0013622E1@PAGEOFF'
p777
sg19
S'00840b91'
p778
sg21
Vadd x0, x0, #0x2e1
p779
sg5
L18446743798837782272L
sg6
Nsg23
S'ADD'
p780
sg25
S'0xffffffc0005da700L'
p781
sg27
Nsbasg105
(lp782
S'ADRP reg, #func@PAGE'
p783
aS'ADD reg, reg, #func@PAGEOFF'
p784
asg119
Nsg5
S'0xffffffc0005da6fcL'
p785
sg121
(lp786
S'0xffffffc0005da6f0L'
p787
aS'0xffffffc0005da6f4L'
p788
asg6
Nsg123
(lp789
S'0xffffffc0005da704L'
p790
asg127
Nsg128
Nsg129
S'4c330fd47d9d30794e360f434bcba16f'
p791
sg131
S'5d0c12c1c2f0dc35884d116bfd571de9'
p792
sg133
(lp793
g773
ag780
asg135
Nsba(ibclass
BBasicBlock
p794
(dp795
g12
Nsg13
(lp796
(ibclass
BInstr
p797
(dp798
g2
Nsg17
S'ADRP            X1, #__func__.22664@PAGE; "audio_open"'
p799
sg19
S'c1520090'
p800
sg21
Vadrp x1, #0xa58000
p801
sg5
L18446743798837782276L
sg6
Nsg23
S'ADRP'
p802
sg25
S'0xffffffc0005da704L'
p803
sg27
Nsba(ibclass
BInstr
p804
(dp805
g2
Nsg17
S'ADD             X1, X1, #__func__.22664@PAGEOFF; "audio_open"'
p806
sg19
S'21403991'
p807
sg21
Vadd x1, x1, #0xe50
p808
sg5
L18446743798837782280L
sg6
Nsg23
S'ADD'
p809
sg25
S'0xffffffc0005da708L'
p810
sg27
Nsba(ibclass
BInstr
p811
(dp812
g2
Nsg17
S'ADD             X1, X1, #0x28'
p813
sg19
S'21a00091'
p814
sg21
Vadd x1, x1, #0x28
p815
sg5
L18446743798837782284L
sg6
Nsg23
S'ADD'
p816
sg25
S'0xffffffc0005da70cL'
p817
sg27
Nsba(ibclass
BInstr
p818
(dp819
g2
Nsg17
S'BL              printk'
p820
sg19
S'994a2194'
p821
sg21
Vbl #0x852a64
p822
sg5
L18446743798837782288L
sg6
Nsg23
S'BL'
p823
sg25
S'0xffffffc0005da710L'
p824
sg27
Nsba(ibclass
BInstr
p825
(dp826
g2
Nsg17
S'MOV             W19, #0xFFFFFFF2'
p827
sg19
S'b3018012'
p828
sg21
Vmovn w19, #0xd
p829
sg5
L18446743798837782292L
sg6
Nsg23
S'MOV'
p830
sg25
S'0xffffffc0005da714L'
p831
sg27
Nsba(ibclass
BInstr
p832
(dp833
g2
Nsg17
S'B               loc_FFFFFFC0005DA7C4'
p834
sg19
S'2b000014'
p835
sg21
Vb #0xac
p836
sg5
L18446743798837782296L
sg6
Nsg23
g103
sg25
S'0xffffffc0005da718L'
p837
sg27
Nsbasg105
(lp838
S'ADRP reg, #__func__.22664@PAGE'
p839
aS'ADD reg, reg, #__func__.22664@PAGEOFF'
p840
aS'ADD reg, reg, #0x28'
p841
aS'BL printk'
p842
aS'MOV reg9, #0xFFFFFFF2'
p843
aS'B func'
p844
asg119
Nsg5
S'0xffffffc0005da704L'
p845
sg121
(lp846
S'0xffffffc0005da698L'
p847
aS'0xffffffc0005da6fcL'
p848
asg6
Nsg123
(lp849
S'0xffffffc0005da7c4L'
p850
asg127
Nsg128
Nsg129
S'fe74aaa914ff61a969aa45615523adbb'
p851
sg131
S'79ab1a532e8c427f540bd4aeb9bc45ed'
p852
sg133
(lp853
g802
ag809
ag816
ag823
ag830
ag103
asg135
Nsba(ibclass
BBasicBlock
p854
(dp855
g12
Nsg13
(lp856
(ibclass
BInstr
p857
(dp858
g2
Nsg17
S'LDRH            W2, [X29,#arg_20]'
p859
sg19
S'a2634079'
p860
sg21
Vldrh w2, [x29, #0x30]
p861
sg5
L18446743798837782300L
sg6
Nsg23
S'LDR'
p862
sg25
S'0xffffffc0005da71cL'
p863
sg27
Nsba(ibclass
BInstr
p864
(dp865
g2
Nsg17
S'LDR             X1, [X21,#0x40]'
p866
sg19
S'a12240f9'
p867
sg21
Vldr x1, [x21, #0x40]
p868
sg5
L18446743798837782304L
sg6
Nsg23
S'LDR'
p869
sg25
S'0xffffffc0005da720L'
p870
sg27
Nsba(ibclass
BInstr
p871
(dp872
g2
Nsg17
S'STRH            W2, [X1]'
p873
sg19
S'22000079'
p874
sg21
Vstrh w2, [x1]
p875
sg5
L18446743798837782308L
sg6
Nsg23
S'STR'
p876
sg25
S'0xffffffc0005da724L'
p877
sg27
Nsba(ibclass
BInstr
p878
(dp879
g2
Nsg17
S'LDRH            W2, [X29,#arg_20+2]'
p880
sg19
S'a2674079'
p881
sg21
Vldrh w2, [x29, #0x32]
p882
sg5
L18446743798837782312L
sg6
Nsg23
S'LDR'
p883
sg25
S'0xffffffc0005da728L'
p884
sg27
Nsba(ibclass
BInstr
p885
(dp886
g2
Nsg17
S'STRH            W2, [X1,#2]'
p887
sg19
S'22040079'
p888
sg21
Vstrh w2, [x1, #2]
p889
sg5
L18446743798837782316L
sg6
Nsg23
S'STR'
p890
sg25
S'0xffffffc0005da72cL'
p891
sg27
Nsba(ibclass
BInstr
p892
(dp893
g2
Nsg17
S'LDR             W2, [X29,#arg_20+4]'
p894
sg19
S'a23740b9'
p895
sg21
Vldr w2, [x29, #0x34]
p896
sg5
L18446743798837782320L
sg6
Nsg23
S'LDR'
p897
sg25
S'0xffffffc0005da730L'
p898
sg27
Nsba(ibclass
BInstr
p899
(dp900
g2
Nsg17
S'STR             W2, [X1,#4]'
p901
sg19
S'220400b9'
p902
sg21
Vstr w2, [x1, #4]
p903
sg5
L18446743798837782324L
sg6
Nsg23
S'STR'
p904
sg25
S'0xffffffc0005da734L'
p905
sg27
Nsba(ibclass
BInstr
p906
(dp907
g2
Nsg17
S'LDR             W2, [X29,#arg_28]'
p908
sg19
S'a23b40b9'
p909
sg21
Vldr w2, [x29, #0x38]
p910
sg5
L18446743798837782328L
sg6
Nsg23
S'LDR'
p911
sg25
S'0xffffffc0005da738L'
p912
sg27
Nsba(ibclass
BInstr
p913
(dp914
g2
Nsg17
S'STR             W2, [X1,#8]'
p915
sg19
S'220800b9'
p916
sg21
Vstr w2, [x1, #8]
p917
sg5
L18446743798837782332L
sg6
Nsg23
S'STR'
p918
sg25
S'0xffffffc0005da73cL'
p919
sg27
Nsba(ibclass
BInstr
p920
(dp921
g2
Nsg17
S'LDRH            W2, [X29,#arg_2C]'
p922
sg19
S'a27b4079'
p923
sg21
Vldrh w2, [x29, #0x3c]
p924
sg5
L18446743798837782336L
sg6
Nsg23
S'LDR'
p925
sg25
S'0xffffffc0005da740L'
p926
sg27
Nsba(ibclass
BInstr
p927
(dp928
g2
Nsg17
S'STRH            W2, [X1,#0xC]'
p929
sg19
S'22180079'
p930
sg21
Vstrh w2, [x1, #0xc]
p931
sg5
L18446743798837782340L
sg6
Nsg23
S'STR'
p932
sg25
S'0xffffffc0005da744L'
p933
sg27
Nsba(ibclass
BInstr
p934
(dp935
g2
Nsg17
S'LDRH            W2, [X29,#arg_2E]'
p936
sg19
S'a27f4079'
p937
sg21
Vldrh w2, [x29, #0x3e]
p938
sg5
L18446743798837782344L
sg6
Nsg23
S'LDR'
p939
sg25
S'0xffffffc0005da748L'
p940
sg27
Nsba(ibclass
BInstr
p941
(dp942
g2
Nsg17
S'STRH            W2, [X1,#0xE]'
p943
sg19
S'221c0079'
p944
sg21
Vstrh w2, [x1, #0xe]
p945
sg5
L18446743798837782348L
sg6
Nsg23
S'STR'
p946
sg25
S'0xffffffc0005da74cL'
p947
sg27
Nsba(ibclass
BInstr
p948
(dp949
g2
Nsg17
S'LDR             W2, [X29,#arg_30]'
p950
sg19
S'a24340b9'
p951
sg21
Vldr w2, [x29, #0x40]
p952
sg5
L18446743798837782352L
sg6
Nsg23
S'LDR'
p953
sg25
S'0xffffffc0005da750L'
p954
sg27
Nsba(ibclass
BInstr
p955
(dp956
g2
Nsg17
S'STR             W2, [X1,#0x10]'
p957
sg19
S'221000b9'
p958
sg21
Vstr w2, [x1, #0x10]
p959
sg5
L18446743798837782356L
sg6
Nsg23
S'STR'
p960
sg25
S'0xffffffc0005da754L'
p961
sg27
Nsba(ibclass
BInstr
p962
(dp963
g2
Nsg17
S'LDRH            W2, [X29,#arg_30+4]'
p964
sg19
S'a28b4079'
p965
sg21
Vldrh w2, [x29, #0x44]
p966
sg5
L18446743798837782360L
sg6
Nsg23
S'LDR'
p967
sg25
S'0xffffffc0005da758L'
p968
sg27
Nsba(ibclass
BInstr
p969
(dp970
g2
Nsg17
S'STRH            W2, [X1,#0x14]'
p971
sg19
S'22280079'
p972
sg21
Vstrh w2, [x1, #0x14]
p973
sg5
L18446743798837782364L
sg6
Nsg23
S'STR'
p974
sg25
S'0xffffffc0005da75cL'
p975
sg27
Nsbasg105
(lp976
S'LDRH reg, mem'
p977
aS'LDR reg, mem'
p978
aS'STRH reg, mem'
p979
aS'LDRH reg, mem'
p980
aS'STRH reg, mem'
p981
aS'LDR reg, mem'
p982
aS'STR reg, mem'
p983
aS'LDR reg, mem'
p984
aS'STR reg, mem'
p985
aS'LDRH reg, mem'
p986
aS'STRH reg, mem'
p987
aS'LDRH reg, mem'
p988
aS'STRH reg, mem'
p989
aS'LDR reg, mem'
p990
aS'STR reg, mem'
p991
aS'LDRH reg, mem'
p992
aS'STRH reg, mem'
p993
asg119
Nsg5
S'0xffffffc0005da71cL'
p994
sg121
(lp995
S'0xffffffc0005da6dcL'
p996
asg6
Nsg123
(lp997
S'0xffffffc0005da760L'
p998
asg127
Nsg128
Nsg129
S'7a45371a03d6541af62dfbb049016c5d'
p999
sg131
S'4f1e2883d52326bdac9eb67841344873'
p1000
sg133
(lp1001
g862
ag869
ag876
ag883
ag890
ag897
ag904
ag911
ag918
ag925
ag932
ag939
ag946
ag953
ag960
ag967
ag974
asg135
Nsba(ibclass
BBasicBlock
p1002
(dp1003
g12
Nsg13
(lp1004
(ibclass
BInstr
p1005
(dp1006
g2
Nsg17
S'MOV             W19, W0'
p1007
sg19
S'f303002a'
p1008
sg21
Vmov w19, w0
p1009
sg5
L18446743798837782368L
sg6
Nsg23
S'MOV'
p1010
sg25
S'0xffffffc0005da760L'
p1011
sg27
Nsba(ibclass
BInstr
p1012
(dp1013
g2
Nsg17
S'B               loc_FFFFFFC0005DA7C4'
p1014
sg19
S'18000014'
p1015
sg21
Vb #0x60
p1016
sg5
L18446743798837782372L
sg6
Nsg23
g103
sg25
S'0xffffffc0005da764L'
p1017
sg27
Nsbasg105
(lp1018
S'MOV reg9, reg'
p1019
aS'B func'
p1020
asg119
Nsg5
S'0xffffffc0005da760L'
p1021
sg121
(lp1022
S'0xffffffc0005da624L'
p1023
aS'0xffffffc0005da6a4L'
p1024
aS'0xffffffc0005da71cL'
p1025
asg6
Nsg123
(lp1026
S'0xffffffc0005da7c4L'
p1027
asg127
Nsg128
Nsg129
S'b6c4e95ccfe77a95e4cf2019dd3d5574'
p1028
sg131
S'1b743682713ad886e49754f9dd80e2a9'
p1029
sg133
(lp1030
g1010
ag103
asg135
Nsba(ibclass
BBasicBlock
p1031
(dp1032
g12
Nsg13
(lp1033
(ibclass
BInstr
p1034
(dp1035
g2
Nsg17
S'ADRP            X0, #descriptor.22666@PAGE'
p1036
sg19
S'609500f0'
p1037
sg21
Vadrp x0, #0x12af000
p1038
sg5
L18446743798837782376L
sg6
Nsg23
S'ADRP'
p1039
sg25
S'0xffffffc0005da768L'
p1040
sg27
Nsba(ibclass
BInstr
p1041
(dp1042
g2
Nsg17
S'ADD             X0, X0, #descriptor.22666@PAGEOFF'
p1043
sg19
S'00801591'
p1044
sg21
Vadd x0, x0, #0x560
p1045
sg5
L18446743798837782380L
sg6
Nsg23
S'ADD'
p1046
sg25
S'0xffffffc0005da76cL'
p1047
sg27
Nsba(ibclass
BInstr
p1048
(dp1049
g2
Nsg17
S'ADD             X0, X0, #0x78'
p1050
sg19
S'00e00191'
p1051
sg21
Vadd x0, x0, #0x78
p1052
sg5
L18446743798837782384L
sg6
Nsg23
S'ADD'
p1053
sg25
S'0xffffffc0005da770L'
p1054
sg27
Nsba(ibclass
BInstr
p1055
(dp1056
g2
Nsg17
S'LDRH            W1, [X0,#(word_FFFFFFC0018895FA - 0xFFFFFFC0018895D8)]'
p1057
sg19
S'01444079'
p1058
sg21
Vldrh w1, [x0, #0x22]
p1059
sg5
L18446743798837782388L
sg6
Nsg23
S'LDR'
p1060
sg25
S'0xffffffc0005da774L'
p1061
sg27
Nsba(ibclass
BInstr
p1062
(dp1063
g2
Nsg17
S'TBZ             W1, #2, loc_FFFFFFC0005DA798'
p1064
sg19
S'01011036'
p1065
sg21
Vtbz w1, #2, #0x20
p1066
sg5
L18446743798837782392L
sg6
Nsg23
S'TBZ'
p1067
sg25
S'0xffffffc0005da778L'
p1068
sg27
Nsbasg105
(lp1069
S'ADRP reg, #descriptor.22666@PAGE'
p1070
aS'ADD reg, reg, #descriptor.22666@PAGEOFF'
p1071
aS'ADD reg, reg, #0x78'
p1072
aS'LDRH reg, mem'
p1073
aS'TBZ reg, #2, func'
p1074
asg119
Nsg5
S'0xffffffc0005da768L'
p1075
sg121
(lp1076
S'0xffffffc0005da614L'
p1077
asg6
Nsg123
(lp1078
S'0xffffffc0005da77cL'
p1079
aS'0xffffffc0005da798L'
p1080
asg127
Nsg128
Nsg129
S'6587a2c05df004845eaae6fa4bb61607'
p1081
sg131
S'ca7d0014b9582d137d0bb1966d301823'
p1082
sg133
(lp1083
g1039
ag1046
ag1053
ag1060
ag1067
asg135
Nsba(ibclass
BBasicBlock
p1084
(dp1085
g12
Nsg13
(lp1086
(ibclass
BInstr
p1087
(dp1088
g2
Nsg17
S'ADRP            X2, #__func__.22664@PAGE; "audio_open"'
p1089
sg19
S'c2520090'
p1090
sg21
Vadrp x2, #0xa58000
p1091
sg5
L18446743798837782396L
sg6
Nsg23
S'ADRP'
p1092
sg25
S'0xffffffc0005da77cL'
p1093
sg27
Nsba(ibclass
BInstr
p1094
(dp1095
g2
Nsg17
S'ADRP            X1, #aSPCallingUtils@PAGE; "%s[%p]: Calling utils ioctl\\n"'
p1096
sg19
S'416c0090'
p1097
sg21
Vadrp x1, #0xd88000
p1098
sg5
L18446743798837782400L
sg6
Nsg23
S'ADRP'
p1099
sg25
S'0xffffffc0005da780L'
p1100
sg27
Nsba(ibclass
BInstr
p1101
(dp1102
g2
Nsg17
S'ADD             X2, X2, #__func__.22664@PAGEOFF; "audio_open"'
p1103
sg19
S'42403991'
p1104
sg21
Vadd x2, x2, #0xe50
p1105
sg5
L18446743798837782404L
sg6
Nsg23
S'ADD'
p1106
sg25
S'0xffffffc0005da784L'
p1107
sg27
Nsba(ibclass
BInstr
p1108
(dp1109
g2
Nsg17
S'ADD             X1, X1, #aSPCallingUtils@PAGEOFF; "%s[%p]: Calling utils ioctl\\n"'
p1110
sg19
S'215c0c91'
p1111
sg21
Vadd x1, x1, #0x317
p1112
sg5
L18446743798837782408L
sg6
Nsg23
S'ADD'
p1113
sg25
S'0xffffffc0005da788L'
p1114
sg27
Nsba(ibclass
BInstr
p1115
(dp1116
g2
Nsg17
S'ADD             X2, X2, #0x28'
p1117
sg19
S'42a00091'
p1118
sg21
Vadd x2, x2, #0x28
p1119
sg5
L18446743798837782412L
sg6
Nsg23
S'ADD'
p1120
sg25
S'0xffffffc0005da78cL'
p1121
sg27
Nsba(ibclass
BInstr
p1122
(dp1123
g2
Nsg17
S'MOV             X3, X21'
p1124
sg19
S'e30315aa'
p1125
sg21
Vmov x3, x21
p1126
sg5
L18446743798837782416L
sg6
Nsg23
S'MOV'
p1127
sg25
S'0xffffffc0005da790L'
p1128
sg27
Nsba(ibclass
BInstr
p1129
(dp1130
g2
Nsg17
S'BL              __dynamic_pr_debug'
p1131
sg19
S'858ef997'
p1132
sg21
Vbl #0xffffffffffe63a14
p1133
sg5
L18446743798837782420L
sg6
Nsg23
S'BL'
p1134
sg25
S'0xffffffc0005da794L'
p1135
sg27
Nsbasg105
(lp1136
S'ADRP reg, #__func__.22664@PAGE'
p1137
aS'ADRP reg, #aSPCallingUtils@PAGE'
p1138
aS'ADD reg, reg, #__func__.22664@PAGEOFF'
p1139
aS'ADD reg, reg, #aSPCallingUtils@PAGEOFF'
p1140
aS'ADD reg, reg, #0x28'
p1141
aS'MOV reg, reg1'
p1142
aS'BL __dynamic_pr_debug'
p1143
asg119
Nsg5
S'0xffffffc0005da77cL'
p1144
sg121
(lp1145
S'0xffffffc0005da768L'
p1146
asg6
Nsg123
(lp1147
S'0xffffffc0005da798L'
p1148
asg127
Nsg128
Nsg129
S'1ec7e3272c47417a60d3daea1bb753b5'
p1149
sg131
S'9cca8e0175a10a1a100b891ae9fe250d'
p1150
sg133
(lp1151
g1092
ag1099
ag1106
ag1113
ag1120
ag1127
ag1134
asg135
Nsba(ibclass
BBasicBlock
p1152
(dp1153
g12
Nsg13
(lp1154
(ibclass
BInstr
p1155
(dp1156
g2
Nsg17
S'LDR             X3, [X21,#0x208]'
p1157
sg19
S'a30641f9'
p1158
sg21
Vldr x3, [x21, #0x208]
p1159
sg5
L18446743798837782424L
sg6
Nsg23
S'LDR'
p1160
sg25
S'0xffffffc0005da798L'
p1161
sg27
Nsba(ibclass
BInstr
p1162
(dp1163
g2
Nsg17
S'MOV             W1, W20'
p1164
sg19
S'e103142a'
p1165
sg21
Vmov w1, w20
p1166
sg5
L18446743798837782428L
sg6
Nsg23
S'MOV'
p1167
sg25
S'0xffffffc0005da79cL'
p1168
sg27
Nsba(ibclass
BInstr
p1169
(dp1170
g2
Nsg17
S'MOV             X2, X19'
p1171
sg19
S'e20313aa'
p1172
sg21
Vmov x2, x19
p1173
sg5
L18446743798837782432L
sg6
Nsg23
S'MOV'
p1174
sg25
S'0xffffffc0005da7a0L'
p1175
sg27
Nsba(ibclass
BInstr
p1176
(dp1177
g2
Nsg17
S'MOV             X0, X22'
p1178
sg19
S'e00316aa'
p1179
sg21
Vmov x0, x22
p1180
sg5
L18446743798837782436L
sg6
Nsg23
S'MOV'
p1181
sg25
S'0xffffffc0005da7a4L'
p1182
sg27
Nsba(ibclass
BInstr
p1183
(dp1184
g2
Nsg17
S'BLR             X3'
p1185
sg19
S'60003fd6'
p1186
sg21
Vblr x3
p1187
sg5
L18446743798837782440L
sg6
Nsg23
S'BLR'
p1188
sg25
S'0xffffffc0005da7a8L'
p1189
sg27
Nsba(ibclass
BInstr
p1190
(dp1191
g2
Nsg17
S'MOV             X1, X0'
p1192
sg19
S'e10300aa'
p1193
sg21
Vmov x1, x0
p1194
sg5
L18446743798837782444L
sg6
Nsg23
S'MOV'
p1195
sg25
S'0xffffffc0005da7acL'
p1196
sg27
Nsba(ibclass
BInstr
p1197
(dp1198
g2
Nsg17
S'MOV             W19, W0'
p1199
sg19
S'f303002a'
p1200
sg21
Vmov w19, w0
p1201
sg5
L18446743798837782448L
sg6
Nsg23
S'MOV'
p1202
sg25
S'0xffffffc0005da7b0L'
p1203
sg27
Nsba(ibclass
BInstr
p1204
(dp1205
g2
Nsg17
S'CBZ             W0, loc_FFFFFFC0005DA7C4'
p1206
sg19
S'80000034'
p1207
sg21
Vcbz w0, #0x10
p1208
sg5
L18446743798837782452L
sg6
Nsg23
S'CBZ'
p1209
sg25
S'0xffffffc0005da7b4L'
p1210
sg27
Nsbasg105
(lp1211
S'LDR reg, mem'
p1212
aS'MOV reg, reg0'
p1213
aS'MOV reg, reg9'
p1214
aS'MOV reg, reg2'
p1215
aS'BLR reg'
p1216
aS'MOV reg, reg'
p1217
aS'MOV reg9, reg'
p1218
aS'CBZ reg, func'
p1219
asg119
Nsg5
S'0xffffffc0005da798L'
p1220
sg121
(lp1221
S'0xffffffc0005da768L'
p1222
aS'0xffffffc0005da77cL'
p1223
asg6
Nsg123
(lp1224
S'0xffffffc0005da7b8L'
p1225
aS'0xffffffc0005da7c4L'
p1226
asg127
Nsg128
Nsg129
S'c2e4c62d9b7b6bc82d910ae0eb33084a'
p1227
sg131
S'7211c51c8a96e0895b4ae257633088e8'
p1228
sg133
(lp1229
g1160
ag1167
ag1174
ag1181
ag1188
ag1195
ag1202
ag1209
asg135
Nsba(ibclass
BBasicBlock
p1230
(dp1231
g12
Nsg13
(lp1232
(ibclass
BInstr
p1233
(dp1234
g2
Nsg17
S'ADRP            X0, #unk_FFFFFFC001362334@PAGE'
p1235
sg19
S'406c0090'
p1236
sg21
Vadrp x0, #0xd88000
p1237
sg5
L18446743798837782456L
sg6
Nsg23
S'ADRP'
p1238
sg25
S'0xffffffc0005da7b8L'
p1239
sg27
Nsba(ibclass
BInstr
p1240
(dp1241
g2
Nsg17
S'ADD             X0, X0, #unk_FFFFFFC001362334@PAGEOFF'
p1242
sg19
S'00d00c91'
p1243
sg21
Vadd x0, x0, #0x334
p1244
sg5
L18446743798837782460L
sg6
Nsg23
S'ADD'
p1245
sg25
S'0xffffffc0005da7bcL'
p1246
sg27
Nsba(ibclass
BInstr
p1247
(dp1248
g2
Nsg17
S'BL              printk'
p1249
sg19
S'6d4a2194'
p1250
sg21
Vbl #0x8529b4
p1251
sg5
L18446743798837782464L
sg6
Nsg23
S'BL'
p1252
sg25
S'0xffffffc0005da7c0L'
p1253
sg27
Nsbasg105
(lp1254
S'ADRP reg, #func@PAGE'
p1255
aS'ADD reg, reg, #func@PAGEOFF'
p1256
aS'BL printk'
p1257
asg119
Nsg5
S'0xffffffc0005da7b8L'
p1258
sg121
(lp1259
S'0xffffffc0005da798L'
p1260
asg6
Nsg123
(lp1261
S'0xffffffc0005da7c4L'
p1262
asg127
Nsg128
Nsg129
S'3978eda3c31164848c06da18e89bbc7d'
p1263
sg131
S'7a716edacee305175604b6bfd6f0590e'
p1264
sg133
(lp1265
g1238
ag1245
ag1252
asg135
Nsba(ibclass
BBasicBlock
p1266
(dp1267
g12
Nsg13
(lp1268
(ibclass
BInstr
p1269
(dp1270
g2
Nsg17
S'SBFM            X0, X19, #0, #0x1F'
p1271
sg19
S'607e4093'
p1272
sg21
Vsxtw x0, w19
p1273
sg5
L18446743798837782468L
sg6
Nsg23
S'SBFM'
p1274
sg25
S'0xffffffc0005da7c4L'
p1275
sg27
Nsba(ibclass
BInstr
p1276
(dp1277
g2
Nsg17
S'LDP             X21, X22, [SP,#0x40+var_20]'
p1278
sg19
S'f55b42a9'
p1279
sg21
Vldp x21, x22, [sp, #0x20]
p1280
sg5
L18446743798837782472L
sg6
Nsg23
S'LDP'
p1281
sg25
S'0xffffffc0005da7c8L'
p1282
sg27
Nsba(ibclass
BInstr
p1283
(dp1284
g2
Nsg17
S'LDP             X19, X20, [SP,#0x40+var_30]'
p1285
sg19
S'f35341a9'
p1286
sg21
Vldp x19, x20, [sp, #0x10]
p1287
sg5
L18446743798837782476L
sg6
Nsg23
S'LDP'
p1288
sg25
S'0xffffffc0005da7ccL'
p1289
sg27
Nsba(ibclass
BInstr
p1290
(dp1291
g2
Nsg17
S'LDP             X29, X30, [SP+0x40+var_40],#0x50'
p1292
sg19
S'fd7bc5a8'
p1293
sg21
Vldp x29, x30, [sp], #0x50
p1294
sg5
L18446743798837782480L
sg6
Nsg23
S'LDP'
p1295
sg25
S'0xffffffc0005da7d0L'
p1296
sg27
Nsba(ibclass
BInstr
p1297
(dp1298
g2
Nsg17
S'RET'
p1299
sg19
S'c0035fd6'
p1300
sg21
Vret 
p1301
sg5
L18446743798837782484L
sg6
Nsg23
S'RET'
p1302
sg25
S'0xffffffc0005da7d4L'
p1303
sg27
Nsbasg105
(lp1304
S'SBFM reg, reg9, #0, #0x1F'
p1305
aS'LDP reg1, reg2, mem'
p1306
aS'LDP reg9, reg0, mem'
p1307
aS'LDP reg9, reg0, mem,#0x50'
p1308
ag1299
asg119
Nsg5
S'0xffffffc0005da7c4L'
p1309
sg121
(lp1310
S'0xffffffc0005da704L'
p1311
aS'0xffffffc0005da760L'
p1312
aS'0xffffffc0005da798L'
p1313
aS'0xffffffc0005da7b8L'
p1314
asg6
Nsg123
(lp1315
sg127
Nsg128
Nsg129
S'9d1c3a242786b39a1bdc5f2309fc107f'
p1316
sg131
S'ca07e3d2b761105ff62d0e7f47f64124'
p1317
sg133
(lp1318
g1274
ag1281
ag1288
ag1295
ag1302
asg135
Nsbasb.