(ibclass
BFunc
p0
(dp1
S'hash'
p2
NsS'name'
p3
S'audio_aio_release'
p4
sS'start_address'
p5
L18446743798837795820L
sS'flag'
p6
NsS'program'
p7
NsS'bbs'
p8
(lp9
(ibclass
BBasicBlock
p10
(dp11
S'function'
p12
NsS'binstrs'
p13
(lp14
(ibclass
BInstr
p15
(dp16
g2
NsS'disasm'
p17
S'STP             X29, X30, [SP,#-0x10+var_40]!'
p18
sS'bytes'
p19
S'fd7bbba9'
p20
sS'disasm_striped'
p21
Vstp x29, x30, [sp, #-0x50]!
p22
sg5
L18446743798837795820L
sg6
NsS'mnem'
p23
S'STP'
p24
sS'address'
p25
S'0xffffffc0005ddbecL'
p26
sS'basicblock'
p27
Nsba(ibclass
BInstr
p28
(dp29
g2
Nsg17
S'MOV             X29, SP'
p30
sg19
S'fd030091'
p31
sg21
Vmov x29, sp
p32
sg5
L18446743798837795824L
sg6
Nsg23
S'MOV'
p33
sg25
S'0xffffffc0005ddbf0L'
p34
sg27
Nsba(ibclass
BInstr
p35
(dp36
g2
Nsg17
S'STP             X23, X24, [SP,#0x40+var_10]'
p37
sg19
S'f76303a9'
p38
sg21
Vstp x23, x24, [sp, #0x30]
p39
sg5
L18446743798837795828L
sg6
Nsg23
S'STP'
p40
sg25
S'0xffffffc0005ddbf4L'
p41
sg27
Nsba(ibclass
BInstr
p42
(dp43
g2
Nsg17
S'ADRP            X23, #descriptor.26836@PAGE'
p44
sg19
S'77950090'
p45
sg21
Vadrp x23, #0x12ac000
p46
sg5
L18446743798837795832L
sg6
Nsg23
S'ADRP'
p47
sg25
S'0xffffffc0005ddbf8L'
p48
sg27
Nsba(ibclass
BInstr
p49
(dp50
g2
Nsg17
S'ADD             X0, X23, #descriptor.26836@PAGEOFF'
p51
sg19
S'e0422891'
p52
sg21
Vadd x0, x23, #0xa10
p53
sg5
L18446743798837795836L
sg6
Nsg23
S'ADD'
p54
sg25
S'0xffffffc0005ddbfcL'
p55
sg27
Nsba(ibclass
BInstr
p56
(dp57
g2
Nsg17
S'STP             X19, X20, [SP,#0x40+var_30]'
p58
sg19
S'f35301a9'
p59
sg21
Vstp x19, x20, [sp, #0x10]
p60
sg5
L18446743798837795840L
sg6
Nsg23
S'STP'
p61
sg25
S'0xffffffc0005ddc00L'
p62
sg27
Nsba(ibclass
BInstr
p63
(dp64
g2
Nsg17
S'STP             X21, X22, [SP,#0x40+var_20]'
p65
sg19
S'f55b02a9'
p66
sg21
Vstp x21, x22, [sp, #0x20]
p67
sg5
L18446743798837795844L
sg6
Nsg23
S'STP'
p68
sg25
S'0xffffffc0005ddc04L'
p69
sg27
Nsba(ibclass
BInstr
p70
(dp71
g2
Nsg17
S'STR             X25, [SP,#0x40+var_s0]'
p72
sg19
S'f92300f9'
p73
sg21
Vstr x25, [sp, #0x40]
p74
sg5
L18446743798837795848L
sg6
Nsg23
S'STR'
p75
sg25
S'0xffffffc0005ddc08L'
p76
sg27
Nsba(ibclass
BInstr
p77
(dp78
g2
Nsg17
S'ADD             X0, X0, #0x2D0'
p79
sg19
S'00400b91'
p80
sg21
Vadd x0, x0, #0x2d0
p81
sg5
L18446743798837795852L
sg6
Nsg23
S'ADD'
p82
sg25
S'0xffffffc0005ddc0cL'
p83
sg27
Nsba(ibclass
BInstr
p84
(dp85
g2
Nsg17
S'LDR             X19, [X1,#0xA8]'
p86
sg19
S'335440f9'
p87
sg21
Vldr x19, [x1, #0xa8]
p88
sg5
L18446743798837795856L
sg6
Nsg23
S'LDR'
p89
sg25
S'0xffffffc0005ddc10L'
p90
sg27
Nsba(ibclass
BInstr
p91
(dp92
g2
Nsg17
S'LDRH            W1, [X0,#(word_FFFFFFC001889D02 - 0xFFFFFFC001889CE0)]'
p93
sg19
S'01444079'
p94
sg21
Vldrh w1, [x0, #0x22]
p95
sg5
L18446743798837795860L
sg6
Nsg23
S'LDR'
p96
sg25
S'0xffffffc0005ddc14L'
p97
sg27
Nsba(ibclass
BInstr
p98
(dp99
g2
Nsg17
S'TBZ             W1, #2, loc_FFFFFFC0005DDC38'
p100
sg19
S'01011036'
p101
sg21
Vtbz w1, #2, #0x20
p102
sg5
L18446743798837795864L
sg6
Nsg23
S'TBZ'
p103
sg25
S'0xffffffc0005ddc18L'
p104
sg27
NsbasS'disasm_list'
p105
(lp106
S'STP reg9, reg0, mem!'
p107
aS'MOV reg9, SP'
p108
aS'STP reg3, reg4, mem'
p109
aS'ADRP reg3, #descriptor.26836@PAGE'
p110
aS'ADD reg, reg3, #descriptor.26836@PAGEOFF'
p111
aS'STP reg9, reg0, mem'
p112
aS'STP reg1, reg2, mem'
p113
aS'STR reg5, mem'
p114
aS'ADD reg, reg, #0x2D0'
p115
aS'LDR reg9, mem'
p116
aS'LDRH reg, mem'
p117
aS'TBZ reg, #2, func'
p118
asS'end_address'
p119
Nsg5
S'0xffffffc0005ddbecL'
p120
sS'preds'
p121
(lp122
sg6
NsS'succs'
p123
(lp124
S'0xffffffc0005ddc1cL'
p125
aS'0xffffffc0005ddc38L'
p126
asS'hash_v3'
p127
NsS'flag_v2'
p128
NsS'hash_v1'
p129
S'd265e162a0b4cbf47d6cb851ec1388d3'
p130
sS'hash_v2'
p131
S'b678277b883ed4df461774f53d0eb5c4'
p132
sS'mnen_list'
p133
(lp134
g24
ag33
ag40
ag47
ag54
ag61
ag68
ag75
ag82
ag89
ag96
ag103
asS'neighbour_disasm_list'
p135
Nsba(ibclass
BBasicBlock
p136
(dp137
g12
Nsg13
(lp138
(ibclass
BInstr
p139
(dp140
g2
Nsg17
S'ADRP            X2, #__func__.26915@PAGE; "audio_aio_disable"'
p141
sg19
S'a25200d0'
p142
sg21
Vadrp x2, #0xa56000
p143
sg5
L18446743798837795868L
sg6
Nsg23
S'ADRP'
p144
sg25
S'0xffffffc0005ddc1cL'
p145
sg27
Nsba(ibclass
BInstr
p146
(dp147
g2
Nsg17
S'ADRP            X1, #aSP_0@PAGE; "%s[%p]\\n"'
p148
sg19
S'216c00d0'
p149
sg21
Vadrp x1, #0xd86000
p150
sg5
L18446743798837795872L
sg6
Nsg23
S'ADRP'
p151
sg25
S'0xffffffc0005ddc20L'
p152
sg27
Nsba(ibclass
BInstr
p153
(dp154
g2
Nsg17
S'ADD             X2, X2, #__func__.26915@PAGEOFF; "audio_aio_disable"'
p155
sg19
S'42400391'
p156
sg21
Vadd x2, x2, #0xd0
p157
sg5
L18446743798837795876L
sg6
Nsg23
S'ADD'
p158
sg25
S'0xffffffc0005ddc24L'
p159
sg27
Nsba(ibclass
BInstr
p160
(dp161
g2
Nsg17
S'ADD             X1, X1, #aSP_0@PAGEOFF; "%s[%p]\\n"'
p162
sg19
S'21f00491'
p163
sg21
Vadd x1, x1, #0x13c
p164
sg5
L18446743798837795880L
sg6
Nsg23
S'ADD'
p165
sg25
S'0xffffffc0005ddc28L'
p166
sg27
Nsba(ibclass
BInstr
p167
(dp168
g2
Nsg17
S'ADD             X2, X2, #0x18'
p169
sg19
S'42600091'
p170
sg21
Vadd x2, x2, #0x18
p171
sg5
L18446743798837795884L
sg6
Nsg23
S'ADD'
p172
sg25
S'0xffffffc0005ddc2cL'
p173
sg27
Nsba(ibclass
BInstr
p174
(dp175
g2
Nsg17
S'MOV             X3, X19'
p176
sg19
S'e30313aa'
p177
sg21
Vmov x3, x19
p178
sg5
L18446743798837795888L
sg6
Nsg23
S'MOV'
p179
sg25
S'0xffffffc0005ddc30L'
p180
sg27
Nsba(ibclass
BInstr
p181
(dp182
g2
Nsg17
S'BL              __dynamic_pr_debug'
p183
sg19
S'5d81f997'
p184
sg21
Vbl #0xffffffffffe60574
p185
sg5
L18446743798837795892L
sg6
Nsg23
S'BL'
p186
sg25
S'0xffffffc0005ddc34L'
p187
sg27
Nsbasg105
(lp188
S'ADRP reg, #__func__.26915@PAGE'
p189
aS'ADRP reg, #aSP_0@PAGE'
p190
aS'ADD reg, reg, #__func__.26915@PAGEOFF'
p191
aS'ADD reg, reg, #aSP_0@PAGEOFF'
p192
aS'ADD reg, reg, #0x18'
p193
aS'MOV reg, reg9'
p194
aS'BL __dynamic_pr_debug'
p195
asg119
Nsg5
S'0xffffffc0005ddc1cL'
p196
sg121
(lp197
S'0xffffffc0005ddbecL'
p198
asg6
Nsg123
(lp199
S'0xffffffc0005ddc38L'
p200
asg127
Nsg128
Nsg129
S'1ec7e3272c47417a60d3daea1bb753b5'
p201
sg131
S'05ead1fb7e5b13024498bdde854ab767'
p202
sg133
(lp203
g144
ag151
ag158
ag165
ag172
ag179
ag186
asg135
Nsba(ibclass
BBasicBlock
p204
(dp205
g12
Nsg13
(lp206
(ibclass
BInstr
p207
(dp208
g2
Nsg17
S'ADD             X22, X19, #0x50'
p209
sg19
S'76420191'
p210
sg21
Vadd x22, x19, #0x50
p211
sg5
L18446743798837795896L
sg6
Nsg23
S'ADD'
p212
sg25
S'0xffffffc0005ddc38L'
p213
sg27
Nsba(ibclass
BInstr
p214
(dp215
g2
Nsg17
S'MOV             X0, X22'
p216
sg19
S'e00316aa'
p217
sg21
Vmov x0, x22
p218
sg5
L18446743798837795900L
sg6
Nsg23
S'MOV'
p219
sg25
S'0xffffffc0005ddc3cL'
p220
sg27
Nsba(ibclass
BInstr
p221
(dp222
g2
Nsg17
S'BL              mutex_lock'
p223
sg19
S'af712194'
p224
sg21
Vbl #0x85c6bc
p225
sg5
L18446743798837795904L
sg6
Nsg23
S'BL'
p226
sg25
S'0xffffffc0005ddc40L'
p227
sg27
Nsba(ibclass
BInstr
p228
(dp229
g2
Nsg17
S'MOV             W0, #1'
p230
sg19
S'20008052'
p231
sg21
Vmovz w0, #0x1
p232
sg5
L18446743798837795908L
sg6
Nsg23
S'MOV'
p233
sg25
S'0xffffffc0005ddc44L'
p234
sg27
Nsba(ibclass
BInstr
p235
(dp236
g2
Nsg17
S'STR             W0, [X19,#0x1FC]'
p237
sg19
S'60fe01b9'
p238
sg21
Vstr w0, [x19, #0x1fc]
p239
sg5
L18446743798837795912L
sg6
Nsg23
S'STR'
p240
sg25
S'0xffffffc0005ddc48L'
p241
sg27
Nsba(ibclass
BInstr
p242
(dp243
g2
Nsg17
S'LDR             W0, [X19,#0x1EC]'
p244
sg19
S'60ee41b9'
p245
sg21
Vldr w0, [x19, #0x1ec]
p246
sg5
L18446743798837795916L
sg6
Nsg23
S'LDR'
p247
sg25
S'0xffffffc0005ddc4cL'
p248
sg27
Nsba(ibclass
BInstr
p249
(dp250
g2
Nsg17
S'CBZ             W0, loc_FFFFFFC0005DDC5C'
p251
sg19
S'60000034'
p252
sg21
Vcbz w0, #0xc
p253
sg5
L18446743798837795920L
sg6
Nsg23
S'CBZ'
p254
sg25
S'0xffffffc0005ddc50L'
p255
sg27
Nsbasg105
(lp256
S'ADD reg2, reg9, #0x50'
p257
aS'MOV reg, reg2'
p258
aS'BL mutex_lock'
p259
aS'MOV reg, #1'
p260
aS'STR reg, mem'
p261
aS'LDR reg, mem'
p262
aS'CBZ reg, func'
p263
asg119
Nsg5
S'0xffffffc0005ddc38L'
p264
sg121
(lp265
S'0xffffffc0005ddbecL'
p266
aS'0xffffffc0005ddc1cL'
p267
asg6
Nsg123
(lp268
S'0xffffffc0005ddc54L'
p269
aS'0xffffffc0005ddc5cL'
p270
asg127
Nsg128
Nsg129
S'd7144d1af5bf3e9f9714ae26518e162f'
p271
sg131
S'9842b0e89fe7a62f05e27ad23b1df049'
p272
sg133
(lp273
g212
ag219
ag226
ag233
ag240
ag247
ag254
asg135
Nsba(ibclass
BBasicBlock
p274
(dp275
g12
Nsg13
(lp276
(ibclass
BInstr
p277
(dp278
g2
Nsg17
S'MOV             X0, X19'
p279
sg19
S'e00313aa'
p280
sg21
Vmov x0, x19
p281
sg5
L18446743798837795924L
sg6
Nsg23
S'MOV'
p282
sg25
S'0xffffffc0005ddc54L'
p283
sg27
Nsba(ibclass
BInstr
p284
(dp285
g2
Nsg17
S'BL              audio_aio_flush'
p286
sg19
S'a2fdff97'
p287
sg21
Vbl #0xfffffffffffff688
p288
sg5
L18446743798837795928L
sg6
Nsg23
S'BL'
p289
sg25
S'0xffffffc0005ddc58L'
p290
sg27
Nsbasg105
(lp291
S'MOV reg, reg9'
p292
aS'BL audio_aio_flush'
p293
asg119
Nsg5
S'0xffffffc0005ddc54L'
p294
sg121
(lp295
S'0xffffffc0005ddc38L'
p296
asg6
Nsg123
(lp297
S'0xffffffc0005ddc5cL'
p298
asg127
Nsg128
Nsg129
S'd358f8b13c87ca08ba6d4b865203703e'
p299
sg131
S'a84dcd18bb64f4518e2d141ffddd476e'
p300
sg133
(lp301
g282
ag289
asg135
Nsba(ibclass
BBasicBlock
p302
(dp303
g12
Nsg13
(lp304
(ibclass
BInstr
p305
(dp306
g2
Nsg17
S'LDR             X1, [X19,#0x1A0]'
p307
sg19
S'61d240f9'
p308
sg21
Vldr x1, [x19, #0x1a0]
p309
sg5
L18446743798837795932L
sg6
Nsg23
S'LDR'
p310
sg25
S'0xffffffc0005ddc5cL'
p311
sg27
Nsba(ibclass
BInstr
p312
(dp313
g2
Nsg17
S'MOV             X0, X19'
p314
sg19
S'e00313aa'
p315
sg21
Vmov x0, x19
p316
sg5
L18446743798837795936L
sg6
Nsg23
S'MOV'
p317
sg25
S'0xffffffc0005ddc60L'
p318
sg27
Nsba(ibclass
BInstr
p319
(dp320
g2
Nsg17
S'STR             WZR, [X19,#0x1FC]'
p321
sg19
S'7ffe01b9'
p322
sg21
Vstr wzr, [x19, #0x1fc]
p323
sg5
L18446743798837795940L
sg6
Nsg23
S'STR'
p324
sg25
S'0xffffffc0005ddc64L'
p325
sg27
Nsba(ibclass
BInstr
p326
(dp327
g2
Nsg17
S'BLR             X1'
p328
sg19
S'20003fd6'
p329
sg21
Vblr x1
p330
sg5
L18446743798837795944L
sg6
Nsg23
S'BLR'
p331
sg25
S'0xffffffc0005ddc68L'
p332
sg27
Nsba(ibclass
BInstr
p333
(dp334
g2
Nsg17
S'LDR             X1, [X19,#0x1A8]'
p335
sg19
S'61d640f9'
p336
sg21
Vldr x1, [x19, #0x1a8]
p337
sg5
L18446743798837795948L
sg6
Nsg23
S'LDR'
p338
sg25
S'0xffffffc0005ddc6cL'
p339
sg27
Nsba(ibclass
BInstr
p340
(dp341
g2
Nsg17
S'MOV             X0, X19'
p342
sg19
S'e00313aa'
p343
sg21
Vmov x0, x19
p344
sg5
L18446743798837795952L
sg6
Nsg23
S'MOV'
p345
sg25
S'0xffffffc0005ddc70L'
p346
sg27
Nsba(ibclass
BInstr
p347
(dp348
g2
Nsg17
S'BLR             X1'
p349
sg19
S'20003fd6'
p350
sg21
Vblr x1
p351
sg5
L18446743798837795956L
sg6
Nsg23
S'BLR'
p352
sg25
S'0xffffffc0005ddc74L'
p353
sg27
Nsba(ibclass
BInstr
p354
(dp355
g2
Nsg17
S'MOV             X0, X19'
p356
sg19
S'e00313aa'
p357
sg21
Vmov x0, x19
p358
sg5
L18446743798837795960L
sg6
Nsg23
S'MOV'
p359
sg25
S'0xffffffc0005ddc78L'
p360
sg27
Nsba(ibclass
BInstr
p361
(dp362
g2
Nsg17
S'BL              audio_aio_disable'
p363
sg19
S'3cffff97'
p364
sg21
Vbl #0xfffffffffffffcf0
p365
sg5
L18446743798837795964L
sg6
Nsg23
S'BL'
p366
sg25
S'0xffffffc0005ddc7cL'
p367
sg27
Nsba(ibclass
BInstr
p368
(dp369
g2
Nsg17
S'ADD             X0, X23, #descriptor.26836@PAGEOFF'
p370
sg19
S'e0422891'
p371
sg21
Vadd x0, x23, #0xa10
p372
sg5
L18446743798837795968L
sg6
Nsg23
S'ADD'
p373
sg25
S'0xffffffc0005ddc80L'
p374
sg27
Nsba(ibclass
BInstr
p375
(dp376
g2
Nsg17
S'ADD             X0, X0, #0x2F8'
p377
sg19
S'00e00b91'
p378
sg21
Vadd x0, x0, #0x2f8
p379
sg5
L18446743798837795972L
sg6
Nsg23
S'ADD'
p380
sg25
S'0xffffffc0005ddc84L'
p381
sg27
Nsba(ibclass
BInstr
p382
(dp383
g2
Nsg17
S'LDRH            W1, [X0,#(word_FFFFFFC001889D2A - 0xFFFFFFC001889D08)]'
p384
sg19
S'01444079'
p385
sg21
Vldrh w1, [x0, #0x22]
p386
sg5
L18446743798837795976L
sg6
Nsg23
S'LDR'
p387
sg25
S'0xffffffc0005ddc88L'
p388
sg27
Nsba(ibclass
BInstr
p389
(dp390
g2
Nsg17
S'TBZ             W1, #2, loc_FFFFFFC0005DDCAC'
p391
sg19
S'01011036'
p392
sg21
Vtbz w1, #2, #0x20
p393
sg5
L18446743798837795980L
sg6
Nsg23
S'TBZ'
p394
sg25
S'0xffffffc0005ddc8cL'
p395
sg27
Nsbasg105
(lp396
S'LDR reg, mem'
p397
aS'MOV reg, reg9'
p398
aS'STR WZR, mem'
p399
aS'BLR reg'
p400
aS'LDR reg, mem'
p401
aS'MOV reg, reg9'
p402
aS'BLR reg'
p403
aS'MOV reg, reg9'
p404
aS'BL audio_aio_disable'
p405
aS'ADD reg, reg3, #descriptor.26836@PAGEOFF'
p406
aS'ADD reg, reg, #0x2F8'
p407
aS'LDRH reg, mem'
p408
aS'TBZ reg, #2, func'
p409
asg119
Nsg5
S'0xffffffc0005ddc5cL'
p410
sg121
(lp411
S'0xffffffc0005ddc38L'
p412
aS'0xffffffc0005ddc54L'
p413
asg6
Nsg123
(lp414
S'0xffffffc0005ddc90L'
p415
aS'0xffffffc0005ddcacL'
p416
asg127
Nsg128
Nsg129
S'df0311a326283368f272e0ca77cb2528'
p417
sg131
S'aaad9ada14871cc52ce4133c51b75d7a'
p418
sg133
(lp419
g310
ag317
ag324
ag331
ag338
ag345
ag352
ag359
ag366
ag373
ag380
ag387
ag394
asg135
Nsba(ibclass
BBasicBlock
p420
(dp421
g12
Nsg13
(lp422
(ibclass
BInstr
p423
(dp424
g2
Nsg17
S'ADRP            X2, #__func__.26915@PAGE; "audio_aio_disable"'
p425
sg19
S'a25200d0'
p426
sg21
Vadrp x2, #0xa56000
p427
sg5
L18446743798837795984L
sg6
Nsg23
S'ADRP'
p428
sg25
S'0xffffffc0005ddc90L'
p429
sg27
Nsba(ibclass
BInstr
p430
(dp431
g2
Nsg17
S'ADRP            X1, #aSP@PAGE; "%s[%p]:\\n"'
p432
sg19
S'216c00b0'
p433
sg21
Vadrp x1, #0xd85000
p434
sg5
L18446743798837795988L
sg6
Nsg23
S'ADRP'
p435
sg25
S'0xffffffc0005ddc94L'
p436
sg27
Nsba(ibclass
BInstr
p437
(dp438
g2
Nsg17
S'ADD             X2, X2, #__func__.26915@PAGEOFF; "audio_aio_disable"'
p439
sg19
S'42400391'
p440
sg21
Vadd x2, x2, #0xd0
p441
sg5
L18446743798837795992L
sg6
Nsg23
S'ADD'
p442
sg25
S'0xffffffc0005ddc98L'
p443
sg27
Nsba(ibclass
BInstr
p444
(dp445
g2
Nsg17
S'ADD             X1, X1, #aSP@PAGEOFF; "%s[%p]:\\n"'
p446
sg19
S'21183891'
p447
sg21
Vadd x1, x1, #0xe06
p448
sg5
L18446743798837795996L
sg6
Nsg23
S'ADD'
p449
sg25
S'0xffffffc0005ddc9cL'
p450
sg27
Nsba(ibclass
BInstr
p451
(dp452
g2
Nsg17
S'ADD             X2, X2, #0x30'
p453
sg19
S'42c00091'
p454
sg21
Vadd x2, x2, #0x30
p455
sg5
L18446743798837796000L
sg6
Nsg23
S'ADD'
p456
sg25
S'0xffffffc0005ddca0L'
p457
sg27
Nsba(ibclass
BInstr
p458
(dp459
g2
Nsg17
S'MOV             X3, X19'
p460
sg19
S'e30313aa'
p461
sg21
Vmov x3, x19
p462
sg5
L18446743798837796004L
sg6
Nsg23
S'MOV'
p463
sg25
S'0xffffffc0005ddca4L'
p464
sg27
Nsba(ibclass
BInstr
p465
(dp466
g2
Nsg17
S'BL              __dynamic_pr_debug'
p467
sg19
S'4081f997'
p468
sg21
Vbl #0xffffffffffe60500
p469
sg5
L18446743798837796008L
sg6
Nsg23
S'BL'
p470
sg25
S'0xffffffc0005ddca8L'
p471
sg27
Nsbasg105
(lp472
S'ADRP reg, #__func__.26915@PAGE'
p473
aS'ADRP reg, #aSP@PAGE'
p474
aS'ADD reg, reg, #__func__.26915@PAGEOFF'
p475
aS'ADD reg, reg, #aSP@PAGEOFF'
p476
aS'ADD reg, reg, #0x30'
p477
aS'MOV reg, reg9'
p478
aS'BL __dynamic_pr_debug'
p479
asg119
Nsg5
S'0xffffffc0005ddc90L'
p480
sg121
(lp481
S'0xffffffc0005ddc5cL'
p482
asg6
Nsg123
(lp483
S'0xffffffc0005ddcacL'
p484
asg127
Nsg128
Nsg129
S'1ec7e3272c47417a60d3daea1bb753b5'
p485
sg131
S'1b8537b83c31cf10aa7d74a4614099df'
p486
sg133
(lp487
g428
ag435
ag442
ag449
ag456
ag463
ag470
asg135
Nsba(ibclass
BBasicBlock
p488
(dp489
g12
Nsg13
(lp490
(ibclass
BInstr
p491
(dp492
g2
Nsg17
S'LDR             X20, [X19,#0x188]'
p493
sg19
S'74c640f9'
p494
sg21
Vldr x20, [x19, #0x188]
p495
sg5
L18446743798837796012L
sg6
Nsg23
S'LDR'
p496
sg25
S'0xffffffc0005ddcacL'
p497
sg27
Nsba(ibclass
BInstr
p498
(dp499
g2
Nsg17
S'ADRP            X24, #__func__.26915@PAGE; "audio_aio_disable"'
p500
sg19
S'b85200d0'
p501
sg21
Vadrp x24, #0xa56000
p502
sg5
L18446743798837796016L
sg6
Nsg23
S'ADRP'
p503
sg25
S'0xffffffc0005ddcb0L'
p504
sg27
Nsba(ibclass
BInstr
p505
(dp506
g2
Nsg17
S'ADD             X23, X23, #descriptor.26836@PAGEOFF'
p507
sg19
S'f7422891'
p508
sg21
Vadd x23, x23, #0xa10
p509
sg5
L18446743798837796020L
sg6
Nsg23
S'ADD'
p510
sg25
S'0xffffffc0005ddcb4L'
p511
sg27
Nsba(ibclass
BInstr
p512
(dp513
g2
Nsg17
S'ADD             X24, X24, #__func__.26915@PAGEOFF; "audio_aio_disable"'
p514
sg19
S'18430391'
p515
sg21
Vadd x24, x24, #0xd0
p516
sg5
L18446743798837796024L
sg6
Nsg23
S'ADD'
p517
sg25
S'0xffffffc0005ddcb8L'
p518
sg27
Nsba(ibclass
BInstr
p519
(dp520
g2
Nsg17
S'LDR             X21, [X20]'
p521
sg19
S'950240f9'
p522
sg21
Vldr x21, [x20]
p523
sg5
L18446743798837796028L
sg6
Nsg23
S'LDR'
p524
sg25
S'0xffffffc0005ddcbcL'
p525
sg27
Nsba(ibclass
BInstr
p526
(dp527
g2
Nsg17
S'ADD             X25, X19, #0x188'
p528
sg19
S'79220691'
p529
sg21
Vadd x25, x19, #0x188
p530
sg5
L18446743798837796032L
sg6
Nsg23
S'ADD'
p531
sg25
S'0xffffffc0005ddcc0L'
p532
sg27
Nsba(ibclass
BInstr
p533
(dp534
g2
Nsg17
S'ADD             X23, X23, #0x320'
p535
sg19
S'f7820c91'
p536
sg21
Vadd x23, x23, #0x320
p537
sg5
L18446743798837796036L
sg6
Nsg23
S'ADD'
p538
sg25
S'0xffffffc0005ddcc4L'
p539
sg27
Nsba(ibclass
BInstr
p540
(dp541
g2
Nsg17
S'ADD             X24, X24, #0x30'
p542
sg19
S'18c30091'
p543
sg21
Vadd x24, x24, #0x30
p544
sg5
L18446743798837796040L
sg6
Nsg23
S'ADD'
p545
sg25
S'0xffffffc0005ddcc8L'
p546
sg27
Nsbasg105
(lp547
S'LDR reg0, mem'
p548
aS'ADRP reg4, #__func__.26915@PAGE'
p549
aS'ADD reg3, reg3, #descriptor.26836@PAGEOFF'
p550
aS'ADD reg4, reg4, #__func__.26915@PAGEOFF'
p551
aS'LDR reg1, mem'
p552
aS'ADD reg5, reg9, #0x188'
p553
aS'ADD reg3, reg3, #0x320'
p554
aS'ADD reg4, reg4, #0x30'
p555
asg119
Nsg5
S'0xffffffc0005ddcacL'
p556
sg121
(lp557
S'0xffffffc0005ddc5cL'
p558
aS'0xffffffc0005ddc90L'
p559
asg6
Nsg123
(lp560
S'0xffffffc0005ddcccL'
p561
asg127
Nsg128
Nsg129
S'e245c93bc47c784739ab98a6b81f888a'
p562
sg131
S'02ba70dc1a7812cfd5c492cb163197c2'
p563
sg133
(lp564
g496
ag503
ag510
ag517
ag524
ag531
ag538
ag545
asg135
Nsba(ibclass
BBasicBlock
p565
(dp566
g12
Nsg13
(lp567
(ibclass
BInstr
p568
(dp569
g2
Nsg17
S'CMP             X20, X25'
p570
sg19
S'9f0219eb'
p571
sg21
Vcmp x20, x25
p572
sg5
L18446743798837796044L
sg6
Nsg23
S'CMP'
p573
sg25
S'0xffffffc0005ddcccL'
p574
sg27
Nsba(ibclass
BInstr
p575
(dp576
g2
Nsg17
S'B.EQ            loc_FFFFFFC0005DDD30'
p577
sg19
S'00030054'
p578
sg21
Vb.eq #0x60
p579
sg5
L18446743798837796048L
sg6
Nsg23
S'B'
p580
sg25
S'0xffffffc0005ddcd0L'
p581
sg27
Nsbasg105
(lp582
S'CMP reg0, reg5'
p583
aS'B.EQ func'
p584
asg119
Nsg5
S'0xffffffc0005ddcccL'
p585
sg121
(lp586
S'0xffffffc0005ddcacL'
p587
aS'0xffffffc0005ddd24L'
p588
asg6
Nsg123
(lp589
S'0xffffffc0005ddcd4L'
p590
aS'0xffffffc0005ddd30L'
p591
asg127
Nsg128
Nsg129
S'c78fd620a449e3c979d3f3ec12d4ee88'
p592
sg131
S'b6972d61064e9720485fe01c1cc5b82f'
p593
sg133
(lp594
g573
ag580
asg135
Nsba(ibclass
BBasicBlock
p595
(dp596
g12
Nsg13
(lp597
(ibclass
BInstr
p598
(dp599
g2
Nsg17
S'CBZ             X20, loc_FFFFFFC0005DDD24'
p600
sg19
S'940200b4'
p601
sg21
Vcbz x20, #0x50
p602
sg5
L18446743798837796052L
sg6
Nsg23
S'CBZ'
p603
sg25
S'0xffffffc0005ddcd4L'
p604
sg27
Nsbasg105
(lp605
S'CBZ reg0, func'
p606
asg119
Nsg5
S'0xffffffc0005ddcd4L'
p607
sg121
(lp608
S'0xffffffc0005ddcccL'
p609
asg6
Nsg123
(lp610
S'0xffffffc0005ddcd8L'
p611
aS'0xffffffc0005ddd24L'
p612
asg127
Nsg128
Nsg129
S'de8e361453cf9f764a4abe9d486f8fbe'
p613
sg131
S'002fdf30aefe9033232096dde6ad5565'
p614
sg133
(lp615
g603
asg135
Nsba(ibclass
BBasicBlock
p616
(dp617
g12
Nsg13
(lp618
(ibclass
BInstr
p619
(dp620
g2
Nsg17
S'LDRH            W0, [X23,#(word_FFFFFFC001889D52 - 0xFFFFFFC001889D30)]'
p621
sg19
S'e0464079'
p622
sg21
Vldrh w0, [x23, #0x22]
p623
sg5
L18446743798837796056L
sg6
Nsg23
S'LDR'
p624
sg25
S'0xffffffc0005ddcd8L'
p625
sg27
Nsba(ibclass
BInstr
p626
(dp627
g2
Nsg17
S'TBZ             W0, #2, loc_FFFFFFC0005DDCFC'
p628
sg19
S'00011036'
p629
sg21
Vtbz w0, #2, #0x20
p630
sg5
L18446743798837796060L
sg6
Nsg23
S'TBZ'
p631
sg25
S'0xffffffc0005ddcdcL'
p632
sg27
Nsbasg105
(lp633
S'LDRH reg, mem'
p634
aS'TBZ reg, #2, func'
p635
asg119
Nsg5
S'0xffffffc0005ddcd8L'
p636
sg121
(lp637
S'0xffffffc0005ddcd4L'
p638
asg6
Nsg123
(lp639
S'0xffffffc0005ddce0L'
p640
aS'0xffffffc0005ddcfcL'
p641
asg127
Nsg128
Nsg129
S'1cf4e33a651c04ed202c51992a2f5549'
p642
sg131
S'ebdc09270d34e8b74b27ab6c8c85fb09'
p643
sg133
(lp644
g624
ag631
asg135
Nsba(ibclass
BBasicBlock
p645
(dp646
g12
Nsg13
(lp647
(ibclass
BInstr
p648
(dp649
g2
Nsg17
S'ADRP            X1, #aSPPhy_address0@PAGE; "%s[%p]: phy_address = 0x%pa\\n"'
p650
sg19
S'216c00d0'
p651
sg21
Vadrp x1, #0xd86000
p652
sg5
L18446743798837796064L
sg6
Nsg23
S'ADRP'
p653
sg25
S'0xffffffc0005ddce0L'
p654
sg27
Nsba(ibclass
BInstr
p655
(dp656
g2
Nsg17
S'MOV             X0, X23'
p657
sg19
S'e00317aa'
p658
sg21
Vmov x0, x23
p659
sg5
L18446743798837796068L
sg6
Nsg23
S'MOV'
p660
sg25
S'0xffffffc0005ddce4L'
p661
sg27
Nsba(ibclass
BInstr
p662
(dp663
g2
Nsg17
S'ADD             X1, X1, #aSPPhy_address0@PAGEOFF; "%s[%p]: phy_address = 0x%pa\\n"'
p664
sg19
S'21100591'
p665
sg21
Vadd x1, x1, #0x144
p666
sg5
L18446743798837796072L
sg6
Nsg23
S'ADD'
p667
sg25
S'0xffffffc0005ddce8L'
p668
sg27
Nsba(ibclass
BInstr
p669
(dp670
g2
Nsg17
S'MOV             X2, X24'
p671
sg19
S'e20318aa'
p672
sg21
Vmov x2, x24
p673
sg5
L18446743798837796076L
sg6
Nsg23
S'MOV'
p674
sg25
S'0xffffffc0005ddcecL'
p675
sg27
Nsba(ibclass
BInstr
p676
(dp677
g2
Nsg17
S'MOV             X3, X19'
p678
sg19
S'e30313aa'
p679
sg21
Vmov x3, x19
p680
sg5
L18446743798837796080L
sg6
Nsg23
S'MOV'
p681
sg25
S'0xffffffc0005ddcf0L'
p682
sg27
Nsba(ibclass
BInstr
p683
(dp684
g2
Nsg17
S'ADD             X4, X20, #0x28'
p685
sg19
S'84a20091'
p686
sg21
Vadd x4, x20, #0x28
p687
sg5
L18446743798837796084L
sg6
Nsg23
S'ADD'
p688
sg25
S'0xffffffc0005ddcf4L'
p689
sg27
Nsba(ibclass
BInstr
p690
(dp691
g2
Nsg17
S'BL              __dynamic_pr_debug'
p692
sg19
S'2c81f997'
p693
sg21
Vbl #0xffffffffffe604b0
p694
sg5
L18446743798837796088L
sg6
Nsg23
S'BL'
p695
sg25
S'0xffffffc0005ddcf8L'
p696
sg27
Nsbasg105
(lp697
S'ADRP reg, #aSPPhy_address0@PAGE'
p698
aS'MOV reg, reg3'
p699
aS'ADD reg, reg, #aSPPhy_address0@PAGEOFF'
p700
aS'MOV reg, reg4'
p701
aS'MOV reg, reg9'
p702
aS'ADD reg, reg0, #0x28'
p703
aS'BL __dynamic_pr_debug'
p704
asg119
Nsg5
S'0xffffffc0005ddce0L'
p705
sg121
(lp706
S'0xffffffc0005ddcd8L'
p707
asg6
Nsg123
(lp708
S'0xffffffc0005ddcfcL'
p709
asg127
Nsg128
Nsg129
S'282ec2472ec61fd48af72f058eb75197'
p710
sg131
S'8ff0d46cb04b70a71e778e81dd4b5ce8'
p711
sg133
(lp712
g653
ag660
ag667
ag674
ag681
ag688
ag695
asg135
Nsba(ibclass
BBasicBlock
p713
(dp714
g12
Nsg13
(lp715
(ibclass
BInstr
p716
(dp717
g2
Nsg17
S'LDR             X0, [X19,#0x48]'
p718
sg19
S'602640f9'
p719
sg21
Vldr x0, [x19, #0x48]
p720
sg5
L18446743798837796092L
sg6
Nsg23
S'LDR'
p721
sg25
S'0xffffffc0005ddcfcL'
p722
sg27
Nsba(ibclass
BInstr
p723
(dp724
g2
Nsg17
S'LDR             X1, [X20,#0x28]'
p725
sg19
S'811640f9'
p726
sg21
Vldr x1, [x20, #0x28]
p727
sg5
L18446743798837796096L
sg6
Nsg23
S'LDR'
p728
sg25
S'0xffffffc0005ddd00L'
p729
sg27
Nsba(ibclass
BInstr
p730
(dp731
g2
Nsg17
S'MOV             W2, #0'
p732
sg19
S'02008052'
p733
sg21
Vmovz w2, #0
p734
sg5
L18446743798837796100L
sg6
Nsg23
S'MOV'
p735
sg25
S'0xffffffc0005ddd04L'
p736
sg27
Nsba(ibclass
BInstr
p737
(dp738
g2
Nsg17
S'BL              q6asm_memory_unmap'
p739
sg19
S'f4dc1994'
p740
sg21
Vbl #0x6773d0
p741
sg5
L18446743798837796104L
sg6
Nsg23
S'BL'
p742
sg25
S'0xffffffc0005ddd08L'
p743
sg27
Nsba(ibclass
BInstr
p744
(dp745
g2
Nsg17
S'TBZ             W0, #0x1F, loc_FFFFFFC0005DDD24'
p746
sg19
S'c000f836'
p747
sg21
Vtbz w0, #0x1f, #0x18
p748
sg5
L18446743798837796108L
sg6
Nsg23
S'TBZ'
p749
sg25
S'0xffffffc0005ddd0cL'
p750
sg27
Nsbasg105
(lp751
S'LDR reg, mem'
p752
aS'LDR reg, mem'
p753
aS'MOV reg, #0'
p754
aS'BL q6asm_memory_unmap'
p755
aS'TBZ reg, #0x1F, func'
p756
asg119
Nsg5
S'0xffffffc0005ddcfcL'
p757
sg121
(lp758
S'0xffffffc0005ddcd8L'
p759
aS'0xffffffc0005ddce0L'
p760
asg6
Nsg123
(lp761
S'0xffffffc0005ddd10L'
p762
aS'0xffffffc0005ddd24L'
p763
asg127
Nsg128
Nsg129
S'f0369a844f01b3dff13ea028d29a69c4'
p764
sg131
S'6d4b7dd41d223a7b252da88368a10390'
p765
sg133
(lp766
g721
ag728
ag735
ag742
ag749
asg135
Nsba(ibclass
BBasicBlock
p767
(dp768
g12
Nsg13
(lp769
(ibclass
BInstr
p770
(dp771
g2
Nsg17
S'ADRP            X0, #unk_FFFFFFC001362D53@PAGE'
p772
sg19
S'206c00b0'
p773
sg21
Vadrp x0, #0xd85000
p774
sg5
L18446743798837796112L
sg6
Nsg23
S'ADRP'
p775
sg25
S'0xffffffc0005ddd10L'
p776
sg27
Nsba(ibclass
BInstr
p777
(dp778
g2
Nsg17
S'ADD             X0, X0, #unk_FFFFFFC001362D53@PAGEOFF'
p779
sg19
S'004c3591'
p780
sg21
Vadd x0, x0, #0xd53
p781
sg5
L18446743798837796116L
sg6
Nsg23
S'ADD'
p782
sg25
S'0xffffffc0005ddd14L'
p783
sg27
Nsba(ibclass
BInstr
p784
(dp785
g2
Nsg17
S'MOV             X1, X24'
p786
sg19
S'e10318aa'
p787
sg21
Vmov x1, x24
p788
sg5
L18446743798837796120L
sg6
Nsg23
S'MOV'
p789
sg25
S'0xffffffc0005ddd18L'
p790
sg27
Nsba(ibclass
BInstr
p791
(dp792
g2
Nsg17
S'MOV             X2, X19'
p793
sg19
S'e20313aa'
p794
sg21
Vmov x2, x19
p795
sg5
L18446743798837796124L
sg6
Nsg23
S'MOV'
p796
sg25
S'0xffffffc0005ddd1cL'
p797
sg27
Nsba(ibclass
BInstr
p798
(dp799
g2
Nsg17
S'BL              printk'
p800
sg19
S'153d2194'
p801
sg21
Vbl #0x84f454
p802
sg5
L18446743798837796128L
sg6
Nsg23
S'BL'
p803
sg25
S'0xffffffc0005ddd20L'
p804
sg27
Nsbasg105
(lp805
S'ADRP reg, #func@PAGE'
p806
aS'ADD reg, reg, #func@PAGEOFF'
p807
aS'MOV reg, reg4'
p808
aS'MOV reg, reg9'
p809
aS'BL printk'
p810
asg119
Nsg5
S'0xffffffc0005ddd10L'
p811
sg121
(lp812
S'0xffffffc0005ddcfcL'
p813
asg6
Nsg123
(lp814
S'0xffffffc0005ddd24L'
p815
asg127
Nsg128
Nsg129
S'e89efe96687527b85a09180f590c74eb'
p816
sg131
S'761a4b7644636d43f5a9d0cc81f68e8f'
p817
sg133
(lp818
g775
ag782
ag789
ag796
ag803
asg135
Nsba(ibclass
BBasicBlock
p819
(dp820
g12
Nsg13
(lp821
(ibclass
BInstr
p822
(dp823
g2
Nsg17
S'MOV             X20, X21'
p824
sg19
S'f40315aa'
p825
sg21
Vmov x20, x21
p826
sg5
L18446743798837796132L
sg6
Nsg23
S'MOV'
p827
sg25
S'0xffffffc0005ddd24L'
p828
sg27
Nsba(ibclass
BInstr
p829
(dp830
g2
Nsg17
S'LDR             X21, [X21]'
p831
sg19
S'b50240f9'
p832
sg21
Vldr x21, [x21]
p833
sg5
L18446743798837796136L
sg6
Nsg23
S'LDR'
p834
sg25
S'0xffffffc0005ddd28L'
p835
sg27
Nsba(ibclass
BInstr
p836
(dp837
g2
Nsg17
S'B               loc_FFFFFFC0005DDCCC'
p838
sg19
S'e8ffff17'
p839
sg21
Vb #0xffffffffffffffa0
p840
sg5
L18446743798837796140L
sg6
Nsg23
g580
sg25
S'0xffffffc0005ddd2cL'
p841
sg27
Nsbasg105
(lp842
S'MOV reg0, reg1'
p843
aS'LDR reg1, mem'
p844
aS'B func'
p845
asg119
Nsg5
S'0xffffffc0005ddd24L'
p846
sg121
(lp847
S'0xffffffc0005ddcd4L'
p848
aS'0xffffffc0005ddcfcL'
p849
aS'0xffffffc0005ddd10L'
p850
asg6
Nsg123
(lp851
S'0xffffffc0005ddcccL'
p852
asg127
Nsg128
Nsg129
S'59fec51b96903419ce74db6c8543c4e0'
p853
sg131
S'd0bb67d7bdbd5a431ab40344fcf6e4b3'
p854
sg133
(lp855
g827
ag834
ag580
asg135
Nsba(ibclass
BBasicBlock
p856
(dp857
g12
Nsg13
(lp858
(ibclass
BInstr
p859
(dp860
g2
Nsg17
S'MOV             X0, X19'
p861
sg19
S'e00313aa'
p862
sg21
Vmov x0, x19
p863
sg5
L18446743798837796144L
sg6
Nsg23
S'MOV'
p864
sg25
S'0xffffffc0005ddd30L'
p865
sg27
Nsba(ibclass
BInstr
p866
(dp867
g2
Nsg17
S'BL              audio_aio_reset_ion_region'
p868
sg19
S'4dffff97'
p869
sg21
Vbl #0xfffffffffffffd34
p870
sg5
L18446743798837796148L
sg6
Nsg23
S'BL'
p871
sg25
S'0xffffffc0005ddd34L'
p872
sg27
Nsba(ibclass
BInstr
p873
(dp874
g2
Nsg17
S'LDR             X0, [X19,#0x198]'
p875
sg19
S'60ce40f9'
p876
sg21
Vldr x0, [x19, #0x198]
p877
sg5
L18446743798837796152L
sg6
Nsg23
S'LDR'
p878
sg25
S'0xffffffc0005ddd38L'
p879
sg27
Nsba(ibclass
BInstr
p880
(dp881
g2
Nsg17
S'BL              msm_audio_ion_client_destroy'
p882
sg19
S'9717fc97'
p883
sg21
Vbl #0xfffffffffff05e5c
p884
sg5
L18446743798837796156L
sg6
Nsg23
S'BL'
p885
sg25
S'0xffffffc0005ddd3cL'
p886
sg27
Nsba(ibclass
BInstr
p887
(dp888
g2
Nsg17
S'MOV             W2, #1'
p889
sg19
S'22008052'
p890
sg21
Vmovz w2, #0x1
p891
sg5
L18446743798837796160L
sg6
Nsg23
S'MOV'
p892
sg25
S'0xffffffc0005ddd40L'
p893
sg27
Nsba(ibclass
BInstr
p894
(dp895
g2
Nsg17
S'STR             W2, [X19,#0x1DC]'
p896
sg19
S'62de01b9'
p897
sg21
Vstr w2, [x19, #0x1dc]
p898
sg5
L18446743798837796164L
sg6
Nsg23
S'STR'
p899
sg25
S'0xffffffc0005ddd44L'
p900
sg27
Nsba(ibclass
BInstr
p901
(dp902
g2
Nsg17
S'MOV             W1, #3'
p903
sg19
S'61008052'
p904
sg21
Vmovz w1, #0x3
p905
sg5
L18446743798837796168L
sg6
Nsg23
S'MOV'
p906
sg25
S'0xffffffc0005ddd48L'
p907
sg27
Nsba(ibclass
BInstr
p908
(dp909
g2
Nsg17
S'MOV             X3, #0'
p910
sg19
S'030080d2'
p911
sg21
Vmovz x3, #0
p912
sg5
L18446743798837796172L
sg6
Nsg23
S'MOV'
p913
sg25
S'0xffffffc0005ddd4cL'
p914
sg27
Nsba(ibclass
BInstr
p915
(dp916
g2
Nsg17
S'ADD             X0, X19, #0x120'
p917
sg19
S'60820491'
p918
sg21
Vadd x0, x19, #0x120
p919
sg5
L18446743798837796176L
sg6
Nsg23
S'ADD'
p920
sg25
S'0xffffffc0005ddd50L'
p921
sg27
Nsba(ibclass
BInstr
p922
(dp923
g2
Nsg17
S'BL              __wake_up'
p924
sg19
S'ebbcf197'
p925
sg21
Vbl #0xffffffffffc6f3ac
p926
sg5
L18446743798837796180L
sg6
Nsg23
S'BL'
p927
sg25
S'0xffffffc0005ddd54L'
p928
sg27
Nsba(ibclass
BInstr
p929
(dp930
g2
Nsg17
S'MOV             X0, X19'
p931
sg19
S'e00313aa'
p932
sg21
Vmov x0, x19
p933
sg5
L18446743798837796184L
sg6
Nsg23
S'MOV'
p934
sg25
S'0xffffffc0005ddd58L'
p935
sg27
Nsba(ibclass
BInstr
p936
(dp937
g2
Nsg17
S'BL              audio_aio_reset_event_queue'
p938
sg19
S'63ffff97'
p939
sg21
Vbl #0xfffffffffffffd8c
p940
sg5
L18446743798837796188L
sg6
Nsg23
S'BL'
p941
sg25
S'0xffffffc0005ddd5cL'
p942
sg27
Nsba(ibclass
BInstr
p943
(dp944
g2
Nsg17
S'LDR             X0, [X19,#0x48]'
p945
sg19
S'602640f9'
p946
sg21
Vldr x0, [x19, #0x48]
p947
sg5
L18446743798837796192L
sg6
Nsg23
S'LDR'
p948
sg25
S'0xffffffc0005ddd60L'
p949
sg27
Nsba(ibclass
BInstr
p950
(dp951
g2
Nsg17
S'BL              q6asm_audio_client_free'
p952
sg19
S'c6cc1994'
p953
sg21
Vbl #0x673318
p954
sg5
L18446743798837796196L
sg6
Nsg23
S'BL'
p955
sg25
S'0xffffffc0005ddd64L'
p956
sg27
Nsba(ibclass
BInstr
p957
(dp958
g2
Nsg17
S'MOV             X0, X22'
p959
sg19
S'e00316aa'
p960
sg21
Vmov x0, x22
p961
sg5
L18446743798837796200L
sg6
Nsg23
S'MOV'
p962
sg25
S'0xffffffc0005ddd68L'
p963
sg27
Nsba(ibclass
BInstr
p964
(dp965
g2
Nsg17
S'BL              mutex_unlock'
p966
sg19
S'a7702194'
p967
sg21
Vbl #0x85c29c
p968
sg5
L18446743798837796204L
sg6
Nsg23
S'BL'
p969
sg25
S'0xffffffc0005ddd6cL'
p970
sg27
Nsba(ibclass
BInstr
p971
(dp972
g2
Nsg17
S'MOV             X0, X19'
p973
sg19
S'e00313aa'
p974
sg21
Vmov x0, x19
p975
sg5
L18446743798837796208L
sg6
Nsg23
S'MOV'
p976
sg25
S'0xffffffc0005ddd70L'
p977
sg27
Nsba(ibclass
BInstr
p978
(dp979
g2
Nsg17
S'BL              unregister_volume_listener'
p980
sg19
S'9bffff97'
p981
sg21
Vbl #0xfffffffffffffe6c
p982
sg5
L18446743798837796212L
sg6
Nsg23
S'BL'
p983
sg25
S'0xffffffc0005ddd74L'
p984
sg27
Nsba(ibclass
BInstr
p985
(dp986
g2
Nsg17
S'LDR             X0, [X19,#0x140]'
p987
sg19
S'60a240f9'
p988
sg21
Vldr x0, [x19, #0x140]
p989
sg5
L18446743798837796216L
sg6
Nsg23
S'LDR'
p990
sg25
S'0xffffffc0005ddd78L'
p991
sg27
Nsba(ibclass
BInstr
p992
(dp993
g2
Nsg17
S'CBZ             X0, loc_FFFFFFC0005DDD84'
p994
sg19
S'400000b4'
p995
sg21
Vcbz x0, #8
p996
sg5
L18446743798837796220L
sg6
Nsg23
S'CBZ'
p997
sg25
S'0xffffffc0005ddd7cL'
p998
sg27
Nsbasg105
(lp999
S'MOV reg, reg9'
p1000
aS'BL audio_aio_reset_ion_region'
p1001
aS'LDR reg, mem'
p1002
aS'BL msm_audio_ion_client_destroy'
p1003
aS'MOV reg, #1'
p1004
aS'STR reg, mem'
p1005
aS'MOV reg, #3'
p1006
aS'MOV reg, #0'
p1007
aS'ADD reg, reg9, #0x120'
p1008
aS'BL __wake_up'
p1009
aS'MOV reg, reg9'
p1010
aS'BL audio_aio_reset_event_queue'
p1011
aS'LDR reg, mem'
p1012
aS'BL q6asm_audio_client_free'
p1013
aS'MOV reg, reg2'
p1014
aS'BL mutex_unlock'
p1015
aS'MOV reg, reg9'
p1016
aS'BL unregister_volume_listener'
p1017
aS'LDR reg, mem'
p1018
aS'CBZ reg, func'
p1019
asg119
Nsg5
S'0xffffffc0005ddd30L'
p1020
sg121
(lp1021
S'0xffffffc0005ddcccL'
p1022
asg6
Nsg123
(lp1023
S'0xffffffc0005ddd80L'
p1024
aS'0xffffffc0005ddd84L'
p1025
asg127
Nsg128
Nsg129
S'32065cdf71e520be4df9b1405d0bc0ed'
p1026
sg131
S'064ed77ff54bb5af779cfa9b2ebd77e9'
p1027
sg133
(lp1028
g864
ag871
ag878
ag885
ag892
ag899
ag906
ag913
ag920
ag927
ag934
ag941
ag948
ag955
ag962
ag969
ag976
ag983
ag990
ag997
asg135
Nsba(ibclass
BBasicBlock
p1029
(dp1030
g12
Nsg13
(lp1031
(ibclass
BInstr
p1032
(dp1033
g2
Nsg17
S'BL              debugfs_remove'
p1034
sg19
S'd78df797'
p1035
sg21
Vbl #0xffffffffffde375c
p1036
sg5
L18446743798837796224L
sg6
Nsg23
S'BL'
p1037
sg25
S'0xffffffc0005ddd80L'
p1038
sg27
Nsbasg105
(lp1039
S'BL debugfs_remove'
p1040
asg119
Nsg5
S'0xffffffc0005ddd80L'
p1041
sg121
(lp1042
S'0xffffffc0005ddd30L'
p1043
asg6
Nsg123
(lp1044
S'0xffffffc0005ddd84L'
p1045
asg127
Nsg128
Nsg129
S'a6f5350f5a2b25a96d66757f761ce65c'
p1046
sg131
S'd4109c22367747709637a0921102ceeb'
p1047
sg133
(lp1048
g1037
asg135
Nsba(ibclass
BBasicBlock
p1049
(dp1050
g12
Nsg13
(lp1051
(ibclass
BInstr
p1052
(dp1053
g2
Nsg17
S'LDR             X0, [X19,#0x40]'
p1054
sg19
S'602240f9'
p1055
sg21
Vldr x0, [x19, #0x40]
p1056
sg5
L18446743798837796228L
sg6
Nsg23
S'LDR'
p1057
sg25
S'0xffffffc0005ddd84L'
p1058
sg27
Nsba(ibclass
BInstr
p1059
(dp1060
g2
Nsg17
S'BL              kfree'
p1061
sg19
S'5a4cf497'
p1062
sg21
Vbl #0xffffffffffd13168
p1063
sg5
L18446743798837796232L
sg6
Nsg23
S'BL'
p1064
sg25
S'0xffffffc0005ddd88L'
p1065
sg27
Nsba(ibclass
BInstr
p1066
(dp1067
g2
Nsg17
S'MOV             X0, X19'
p1068
sg19
S'e00313aa'
p1069
sg21
Vmov x0, x19
p1070
sg5
L18446743798837796236L
sg6
Nsg23
S'MOV'
p1071
sg25
S'0xffffffc0005ddd8cL'
p1072
sg27
Nsba(ibclass
BInstr
p1073
(dp1074
g2
Nsg17
S'BL              kfree'
p1075
sg19
S'584cf497'
p1076
sg21
Vbl #0xffffffffffd13160
p1077
sg5
L18446743798837796240L
sg6
Nsg23
S'BL'
p1078
sg25
S'0xffffffc0005ddd90L'
p1079
sg27
Nsba(ibclass
BInstr
p1080
(dp1081
g2
Nsg17
S'MOV             W0, #0'
p1082
sg19
S'00008052'
p1083
sg21
Vmovz w0, #0
p1084
sg5
L18446743798837796244L
sg6
Nsg23
S'MOV'
p1085
sg25
S'0xffffffc0005ddd94L'
p1086
sg27
Nsba(ibclass
BInstr
p1087
(dp1088
g2
Nsg17
S'LDP             X19, X20, [SP,#0x40+var_30]'
p1089
sg19
S'f35341a9'
p1090
sg21
Vldp x19, x20, [sp, #0x10]
p1091
sg5
L18446743798837796248L
sg6
Nsg23
S'LDP'
p1092
sg25
S'0xffffffc0005ddd98L'
p1093
sg27
Nsba(ibclass
BInstr
p1094
(dp1095
g2
Nsg17
S'LDP             X21, X22, [SP,#0x40+var_20]'
p1096
sg19
S'f55b42a9'
p1097
sg21
Vldp x21, x22, [sp, #0x20]
p1098
sg5
L18446743798837796252L
sg6
Nsg23
S'LDP'
p1099
sg25
S'0xffffffc0005ddd9cL'
p1100
sg27
Nsba(ibclass
BInstr
p1101
(dp1102
g2
Nsg17
S'LDP             X23, X24, [SP,#0x40+var_10]'
p1103
sg19
S'f76343a9'
p1104
sg21
Vldp x23, x24, [sp, #0x30]
p1105
sg5
L18446743798837796256L
sg6
Nsg23
S'LDP'
p1106
sg25
S'0xffffffc0005ddda0L'
p1107
sg27
Nsba(ibclass
BInstr
p1108
(dp1109
g2
Nsg17
S'LDR             X25, [SP,#0x40+var_s0]'
p1110
sg19
S'f92340f9'
p1111
sg21
Vldr x25, [sp, #0x40]
p1112
sg5
L18446743798837796260L
sg6
Nsg23
S'LDR'
p1113
sg25
S'0xffffffc0005ddda4L'
p1114
sg27
Nsba(ibclass
BInstr
p1115
(dp1116
g2
Nsg17
S'LDP             X29, X30, [SP+0x40+var_40],#0x50'
p1117
sg19
S'fd7bc5a8'
p1118
sg21
Vldp x29, x30, [sp], #0x50
p1119
sg5
L18446743798837796264L
sg6
Nsg23
S'LDP'
p1120
sg25
S'0xffffffc0005ddda8L'
p1121
sg27
Nsba(ibclass
BInstr
p1122
(dp1123
g2
Nsg17
S'RET'
p1124
sg19
S'c0035fd6'
p1125
sg21
Vret 
p1126
sg5
L18446743798837796268L
sg6
Nsg23
S'RET'
p1127
sg25
S'0xffffffc0005dddacL'
p1128
sg27
Nsbasg105
(lp1129
S'LDR reg, mem'
p1130
aS'BL kfree'
p1131
aS'MOV reg, reg9'
p1132
aS'BL kfree'
p1133
aS'MOV reg, #0'
p1134
aS'LDP reg9, reg0, mem'
p1135
aS'LDP reg1, reg2, mem'
p1136
aS'LDP reg3, reg4, mem'
p1137
aS'LDR reg5, mem'
p1138
aS'LDP reg9, reg0, mem,#0x50'
p1139
ag1124
asg119
Nsg5
S'0xffffffc0005ddd84L'
p1140
sg121
(lp1141
S'0xffffffc0005ddd30L'
p1142
aS'0xffffffc0005ddd80L'
p1143
asg6
Nsg123
(lp1144
sg127
Nsg128
Nsg129
S'2fe106fda7b0ec7c789ac38272524b98'
p1145
sg131
S'3a0b2e9c5aa2cc32479b636c73abbec0'
p1146
sg133
(lp1147
g1057
ag1064
ag1071
ag1078
ag1085
ag1092
ag1099
ag1106
ag1113
ag1120
ag1127
asg135
Nsbasb.