(ibclass
BFunc
p0
(dp1
S'hash'
p2
NsS'name'
p3
S'change_inst_state'
p4
sS'start_address'
p5
L18446743798839609832L
sS'flag'
p6
NsS'program'
p7
NsS'bbs'
p8
(lp9
(ibclass
BBasicBlock
p10
(dp11
S'function'
p12
NsS'binstrs'
p13
(lp14
(ibclass
BInstr
p15
(dp16
g2
NsS'disasm'
p17
S'STP             X29, X30, [SP,#-0x10+var_20]!'
p18
sS'bytes'
p19
S'fd7bbda9'
p20
sS'disasm_striped'
p21
Vstp x29, x30, [sp, #-0x30]!
p22
sg5
L18446743798839609832L
sg6
NsS'mnem'
p23
S'STP'
p24
sS'address'
p25
S'0xffffffc0007989e8L'
p26
sS'basicblock'
p27
Nsba(ibclass
BInstr
p28
(dp29
g2
Nsg17
S'MOV             X29, SP'
p30
sg19
S'fd030091'
p31
sg21
Vmov x29, sp
p32
sg5
L18446743798839609836L
sg6
Nsg23
S'MOV'
p33
sg25
S'0xffffffc0007989ecL'
p34
sg27
Nsba(ibclass
BInstr
p35
(dp36
g2
Nsg17
S'STP             X19, X20, [SP,#0x20+var_10]'
p37
sg19
S'f35301a9'
p38
sg21
Vstp x19, x20, [sp, #0x10]
p39
sg5
L18446743798839609840L
sg6
Nsg23
S'STP'
p40
sg25
S'0xffffffc0007989f0L'
p41
sg27
Nsba(ibclass
BInstr
p42
(dp43
g2
Nsg17
S'STP             X21, X22, [SP,#0x20+var_s0]'
p44
sg19
S'f55b02a9'
p45
sg21
Vstp x21, x22, [sp, #0x20]
p46
sg5
L18446743798839609844L
sg6
Nsg23
S'STP'
p47
sg25
S'0xffffffc0007989f4L'
p48
sg27
Nsba(ibclass
BInstr
p49
(dp50
g2
Nsg17
S'MOV             X19, X0'
p51
sg19
S'f30300aa'
p52
sg21
Vmov x19, x0
p53
sg5
L18446743798839609848L
sg6
Nsg23
S'MOV'
p54
sg25
S'0xffffffc0007989f8L'
p55
sg27
Nsba(ibclass
BInstr
p56
(dp57
g2
Nsg17
S'MOV             W20, W1'
p58
sg19
S'f403012a'
p59
sg21
Vmov w20, w1
p60
sg5
L18446743798839609852L
sg6
Nsg23
S'MOV'
p61
sg25
S'0xffffffc0007989fcL'
p62
sg27
Nsba(ibclass
BInstr
p63
(dp64
g2
Nsg17
S'ADRP            X21, #qword_FFFFFFC000E440A0@PAGE'
p65
sg19
S'75350090'
p66
sg21
Vadrp x21, #0x6ac000
p67
sg5
L18446743798839609856L
sg6
Nsg23
S'ADRP'
p68
sg25
S'0xffffffc000798a00L'
p69
sg27
Nsba(ibclass
BInstr
p70
(dp71
g2
Nsg17
S'CBNZ            X0, loc_FFFFFFC000798A48'
p72
sg19
S'200200b5'
p73
sg21
Vcbnz x0, #0x44
p74
sg5
L18446743798839609860L
sg6
Nsg23
S'CBNZ'
p75
sg25
S'0xffffffc000798a04L'
p76
sg27
NsbasS'disasm_list'
p77
(lp78
S'STP reg9, reg0, mem!'
p79
aS'MOV reg9, SP'
p80
aS'STP reg9, reg0, mem'
p81
aS'STP reg1, reg2, mem'
p82
aS'MOV reg9, reg'
p83
aS'MOV reg0, reg'
p84
aS'ADRP reg1, #func@PAGE'
p85
aS'CBNZ reg, func'
p86
asS'end_address'
p87
Nsg5
S'0xffffffc0007989e8L'
p88
sS'preds'
p89
(lp90
sg6
NsS'succs'
p91
(lp92
S'0xffffffc000798a08L'
p93
aS'0xffffffc000798a48L'
p94
asS'hash_v3'
p95
NsS'flag_v2'
p96
NsS'hash_v1'
p97
S'5900a05136c0ce8cd7887b56e838f510'
p98
sS'hash_v2'
p99
S'b90b33e0876832401a029fbb3486caaf'
p100
sS'mnen_list'
p101
(lp102
g24
ag33
ag40
ag47
ag54
ag61
ag68
ag75
asS'neighbour_disasm_list'
p103
Nsba(ibclass
BBasicBlock
p104
(dp105
g12
Nsg13
(lp106
(ibclass
BInstr
p107
(dp108
g2
Nsg17
S'LDR             X21, [X21,#qword_FFFFFFC000E440A0@PAGEOFF]'
p109
sg19
S'b55240f9'
p110
sg21
Vldr x21, [x21, #0xa0]
p111
sg5
L18446743798839609864L
sg6
Nsg23
S'LDR'
p112
sg25
S'0xffffffc000798a08L'
p113
sg27
Nsba(ibclass
BInstr
p114
(dp115
g2
Nsg17
S'LDR             W0, [X21]'
p116
sg19
S'a00240b9'
p117
sg21
Vldr w0, [x21]
p118
sg5
L18446743798839609868L
sg6
Nsg23
S'LDR'
p119
sg25
S'0xffffffc000798a0cL'
p120
sg27
Nsba(ibclass
BInstr
p121
(dp122
g2
Nsg17
S'TBZ             W0, #0, loc_FFFFFFC000798AD8'
p123
sg19
S'40060036'
p124
sg21
Vtbz w0, #0, #0xc8
p125
sg5
L18446743798839609872L
sg6
Nsg23
S'TBZ'
p126
sg25
S'0xffffffc000798a10L'
p127
sg27
Nsbasg77
(lp128
S'LDR reg1, mem'
p129
aS'LDR reg, mem'
p130
aS'TBZ reg, #0, func'
p131
asg87
Nsg5
S'0xffffffc000798a08L'
p132
sg89
(lp133
S'0xffffffc0007989e8L'
p134
asg6
Nsg91
(lp135
S'0xffffffc000798a14L'
p136
aS'0xffffffc000798ad8L'
p137
asg95
Nsg96
Nsg97
S'ac18b97d3a767be1a0530f85211830b6'
p138
sg99
S'2478b64da29ecfe38454d786a6f38612'
p139
sg101
(lp140
g112
ag119
ag126
asg103
Nsba(ibclass
BBasicBlock
p141
(dp142
g12
Nsg13
(lp143
(ibclass
BInstr
p144
(dp145
g2
Nsg17
S'ADRP            X0, #qword_FFFFFFC000E42548@PAGE'
p146
sg19
S'403500d0'
p147
sg21
Vadrp x0, #0x6aa000
p148
sg5
L18446743798839609876L
sg6
Nsg23
S'ADRP'
p149
sg25
S'0xffffffc000798a14L'
p150
sg27
Nsba(ibclass
BInstr
p151
(dp152
g2
Nsg17
S'LDR             X0, [X0,#qword_FFFFFFC000E42548@PAGEOFF]'
p153
sg19
S'00a442f9'
p154
sg21
Vldr x0, [x0, #0x548]
p155
sg5
L18446743798839609880L
sg6
Nsg23
S'LDR'
p156
sg25
S'0xffffffc000798a18L'
p157
sg27
Nsba(ibclass
BInstr
p158
(dp159
g2
Nsg17
S'LDR             W0, [X0]'
p160
sg19
S'000040b9'
p161
sg21
Vldr w0, [x0]
p162
sg5
L18446743798839609884L
sg6
Nsg23
S'LDR'
p163
sg25
S'0xffffffc000798a1cL'
p164
sg27
Nsba(ibclass
BInstr
p165
(dp166
g2
Nsg17
S'CBNZ            W0, loc_FFFFFFC000798AD8'
p167
sg19
S'c0050035'
p168
sg21
Vcbnz w0, #0xb8
p169
sg5
L18446743798839609888L
sg6
Nsg23
S'CBNZ'
p170
sg25
S'0xffffffc000798a20L'
p171
sg27
Nsbasg77
(lp172
S'ADRP reg, #func@PAGE'
p173
aS'LDR reg, mem'
p174
aS'LDR reg, mem'
p175
aS'CBNZ reg, func'
p176
asg87
Nsg5
S'0xffffffc000798a14L'
p177
sg89
(lp178
S'0xffffffc000798a08L'
p179
asg6
Nsg91
(lp180
S'0xffffffc000798a24L'
p181
aS'0xffffffc000798ad8L'
p182
asg95
Nsg96
Nsg97
S'9c97521b8b0f280d47a50ec9a5e4f86f'
p183
sg99
S'bd26f8893557dc5fa132ff2490be0ebf'
p184
sg101
(lp185
g149
ag156
ag163
ag170
asg103
Nsba(ibclass
BBasicBlock
p186
(dp187
g12
Nsg13
(lp188
(ibclass
BInstr
p189
(dp190
g2
Nsg17
S'ADRP            X2, #__func__.30179_0@PAGE; "msm_comm_unvote_buses"'
p191
sg19
S'824500b0'
p192
sg21
Vadrp x2, #0x8b1000
p193
sg5
L18446743798839609892L
sg6
Nsg23
S'ADRP'
p194
sg25
S'0xffffffc000798a24L'
p195
sg27
Nsba(ibclass
BInstr
p196
(dp197
g2
Nsg17
S'ADRP            X0, #unk_FFFFFFC0013B5B18@PAGE'
p198
sg19
S'e06000b0'
p199
sg21
Vadrp x0, #0xc1d000
p200
sg5
L18446743798839609896L
sg6
Nsg23
S'ADRP'
p201
sg25
S'0xffffffc000798a28L'
p202
sg27
Nsba(ibclass
BInstr
p203
(dp204
g2
Nsg17
S'ADRP            X1, #(aQcomMdssDsi_17+0x1B)@PAGE; "err"'
p205
sg19
S'a15c00f0'
p206
sg21
Vadrp x1, #0xb97000
p207
sg5
L18446743798839609900L
sg6
Nsg23
S'ADRP'
p208
sg25
S'0xffffffc000798a2cL'
p209
sg27
Nsba(ibclass
BInstr
p210
(dp211
g2
Nsg17
S'ADD             X2, X2, #__func__.30179_0@PAGEOFF; "msm_comm_unvote_buses"'
p212
sg19
S'42601a91'
p213
sg21
Vadd x2, x2, #0x698
p214
sg5
L18446743798839609904L
sg6
Nsg23
S'ADD'
p215
sg25
S'0xffffffc000798a30L'
p216
sg27
Nsba(ibclass
BInstr
p217
(dp218
g2
Nsg17
S'ADD             X1, X1, #(aQcomMdssDsi_17+0x1B)@PAGEOFF; "err"'
p219
sg19
S'212c0591'
p220
sg21
Vadd x1, x1, #0x14b
p221
sg5
L18446743798839609908L
sg6
Nsg23
S'ADD'
p222
sg25
S'0xffffffc000798a34L'
p223
sg27
Nsba(ibclass
BInstr
p224
(dp225
g2
Nsg17
S'ADD             X2, X2, #0x38'
p226
sg19
S'42e00091'
p227
sg21
Vadd x2, x2, #0x38
p228
sg5
L18446743798839609912L
sg6
Nsg23
S'ADD'
p229
sg25
S'0xffffffc000798a38L'
p230
sg27
Nsba(ibclass
BInstr
p231
(dp232
g2
Nsg17
S'ADD             X0, X0, #unk_FFFFFFC0013B5B18@PAGEOFF'
p233
sg19
S'00602c91'
p234
sg21
Vadd x0, x0, #0xb18
p235
sg5
L18446743798839609916L
sg6
Nsg23
S'ADD'
p236
sg25
S'0xffffffc000798a3cL'
p237
sg27
Nsba(ibclass
BInstr
p238
(dp239
g2
Nsg17
S'BL              printk'
p240
sg19
S'cd511a94'
p241
sg21
Vbl #0x694734
p242
sg5
L18446743798839609920L
sg6
Nsg23
S'BL'
p243
sg25
S'0xffffffc000798a40L'
p244
sg27
Nsba(ibclass
BInstr
p245
(dp246
g2
Nsg17
S'B               loc_FFFFFFC000798AD8'
p247
sg19
S'25000014'
p248
sg21
Vb #0x94
p249
sg5
L18446743798839609924L
sg6
Nsg23
S'B'
p250
sg25
S'0xffffffc000798a44L'
p251
sg27
Nsbasg77
(lp252
S'ADRP reg, #__func__.30179_0@PAGE'
p253
aS'ADRP reg, #func@PAGE'
p254
aS'ADRP reg, #(aQcomMdssDsi_17+0x1B)@PAGE'
p255
aS'ADD reg, reg, #__func__.30179_0@PAGEOFF'
p256
aS'ADD reg, reg, #(aQcomMdssDsi_17+0x1B)@PAGEOFF'
p257
aS'ADD reg, reg, #0x38'
p258
aS'ADD reg, reg, #func@PAGEOFF'
p259
aS'BL printk'
p260
aS'B func'
p261
asg87
Nsg5
S'0xffffffc000798a24L'
p262
sg89
(lp263
S'0xffffffc000798a14L'
p264
asg6
Nsg91
(lp265
S'0xffffffc000798ad8L'
p266
asg95
Nsg96
Nsg97
S'8d01fe9050abe03509e35279925e126f'
p267
sg99
S'bb511c509cb9f39bc86eb1fad715686f'
p268
sg101
(lp269
g194
ag201
ag208
ag215
ag222
ag229
ag236
ag243
ag250
asg103
Nsba(ibclass
BBasicBlock
p270
(dp271
g12
Nsg13
(lp272
(ibclass
BInstr
p273
(dp274
g2
Nsg17
S'ADD             X22, X0, #0x38'
p275
sg19
S'16e00091'
p276
sg21
Vadd x22, x0, #0x38
p277
sg5
L18446743798839609928L
sg6
Nsg23
S'ADD'
p278
sg25
S'0xffffffc000798a48L'
p279
sg27
Nsba(ibclass
BInstr
p280
(dp281
g2
Nsg17
S'MOV             X0, X22'
p282
sg19
S'e00316aa'
p283
sg21
Vmov x0, x22
p284
sg5
L18446743798839609932L
sg6
Nsg23
S'MOV'
p285
sg25
S'0xffffffc000798a4cL'
p286
sg27
Nsba(ibclass
BInstr
p287
(dp288
g2
Nsg17
S'BL              mutex_lock'
p289
sg19
S'2b861a94'
p290
sg21
Vbl #0x6a18ac
p291
sg5
L18446743798839609936L
sg6
Nsg23
S'BL'
p292
sg25
S'0xffffffc000798a50L'
p293
sg27
Nsba(ibclass
BInstr
p294
(dp295
g2
Nsg17
S'LDR             W3, [X19,#0x90]'
p296
sg19
S'639240b9'
p297
sg21
Vldr w3, [x19, #0x90]
p298
sg5
L18446743798839609940L
sg6
Nsg23
S'LDR'
p299
sg25
S'0xffffffc000798a54L'
p300
sg27
Nsba(ibclass
BInstr
p301
(dp302
g2
Nsg17
S'LDR             X21, [X21,#qword_FFFFFFC000E440A0@PAGEOFF]'
p303
sg19
S'b55240f9'
p304
sg21
Vldr x21, [x21, #0xa0]
p305
sg5
L18446743798839609944L
sg6
Nsg23
S'LDR'
p306
sg25
S'0xffffffc000798a58L'
p307
sg27
Nsba(ibclass
BInstr
p308
(dp309
g2
Nsg17
S'CMP             W3, #0x11'
p310
sg19
S'7f440071'
p311
sg21
Vcmp w3, #0x11
p312
sg5
L18446743798839609948L
sg6
Nsg23
S'CMP'
p313
sg25
S'0xffffffc000798a5cL'
p314
sg27
Nsba(ibclass
BInstr
p315
(dp316
g2
Nsg17
S'LDR             W0, [X21]'
p317
sg19
S'a00240b9'
p318
sg21
Vldr w0, [x21]
p319
sg5
L18446743798839609952L
sg6
Nsg23
S'LDR'
p320
sg25
S'0xffffffc000798a60L'
p321
sg27
Nsba(ibclass
BInstr
p322
(dp323
g2
Nsg17
S'B.NE            loc_FFFFFFC000798A9C'
p324
sg19
S'c1010054'
p325
sg21
Vb.ne #0x38
p326
sg5
L18446743798839609956L
sg6
Nsg23
g250
sg25
S'0xffffffc000798a64L'
p327
sg27
Nsbasg77
(lp328
S'ADD reg2, reg, #0x38'
p329
aS'MOV reg, reg2'
p330
aS'BL mutex_lock'
p331
aS'LDR reg, mem'
p332
aS'LDR reg1, mem'
p333
aS'CMP reg, #0x11'
p334
aS'LDR reg, mem'
p335
aS'B.NE func'
p336
asg87
Nsg5
S'0xffffffc000798a48L'
p337
sg89
(lp338
S'0xffffffc0007989e8L'
p339
asg6
Nsg91
(lp340
S'0xffffffc000798a68L'
p341
aS'0xffffffc000798a9cL'
p342
asg95
Nsg96
Nsg97
S'd5b4419b3357e36b148830c57dbe9785'
p343
sg99
S'2de583916db905cffebe76ea79d8ee49'
p344
sg101
(lp345
g278
ag285
ag292
ag299
ag306
ag313
ag320
ag250
asg103
Nsba(ibclass
BBasicBlock
p346
(dp347
g12
Nsg13
(lp348
(ibclass
BInstr
p349
(dp350
g2
Nsg17
S'TBZ             W0, #3, loc_FFFFFFC000798AD0'
p351
sg19
S'40031836'
p352
sg21
Vtbz w0, #3, #0x68
p353
sg5
L18446743798839609960L
sg6
Nsg23
S'TBZ'
p354
sg25
S'0xffffffc000798a68L'
p355
sg27
Nsbasg77
(lp356
S'TBZ reg, #3, func'
p357
asg87
Nsg5
S'0xffffffc000798a68L'
p358
sg89
(lp359
S'0xffffffc000798a48L'
p360
asg6
Nsg91
(lp361
S'0xffffffc000798a6cL'
p362
aS'0xffffffc000798ad0L'
p363
asg95
Nsg96
Nsg97
S'b05993cf85beb302c9604086eec65e11'
p364
sg99
S'7411ce3a55876e9501953a6aa4dfd665'
p365
sg101
(lp366
g354
asg103
Nsba(ibclass
BBasicBlock
p367
(dp368
g12
Nsg13
(lp369
(ibclass
BInstr
p370
(dp371
g2
Nsg17
S'ADRP            X0, #qword_FFFFFFC000E42548@PAGE'
p372
sg19
S'403500d0'
p373
sg21
Vadrp x0, #0x6aa000
p374
sg5
L18446743798839609964L
sg6
Nsg23
S'ADRP'
p375
sg25
S'0xffffffc000798a6cL'
p376
sg27
Nsba(ibclass
BInstr
p377
(dp378
g2
Nsg17
S'LDR             X0, [X0,#qword_FFFFFFC000E42548@PAGEOFF]'
p379
sg19
S'00a442f9'
p380
sg21
Vldr x0, [x0, #0x548]
p381
sg5
L18446743798839609968L
sg6
Nsg23
S'LDR'
p382
sg25
S'0xffffffc000798a70L'
p383
sg27
Nsba(ibclass
BInstr
p384
(dp385
g2
Nsg17
S'LDR             W0, [X0]'
p386
sg19
S'000040b9'
p387
sg21
Vldr w0, [x0]
p388
sg5
L18446743798839609972L
sg6
Nsg23
S'LDR'
p389
sg25
S'0xffffffc000798a74L'
p390
sg27
Nsba(ibclass
BInstr
p391
(dp392
g2
Nsg17
S'CBNZ            W0, loc_FFFFFFC000798AD0'
p393
sg19
S'c0020035'
p394
sg21
Vcbnz w0, #0x58
p395
sg5
L18446743798839609976L
sg6
Nsg23
S'CBNZ'
p396
sg25
S'0xffffffc000798a78L'
p397
sg27
Nsbasg77
(lp398
S'ADRP reg, #func@PAGE'
p399
aS'LDR reg, mem'
p400
aS'LDR reg, mem'
p401
aS'CBNZ reg, func'
p402
asg87
Nsg5
S'0xffffffc000798a6cL'
p403
sg89
(lp404
S'0xffffffc000798a68L'
p405
asg6
Nsg91
(lp406
S'0xffffffc000798a7cL'
p407
aS'0xffffffc000798ad0L'
p408
asg95
Nsg96
Nsg97
S'9c97521b8b0f280d47a50ec9a5e4f86f'
p409
sg99
S'bd26f8893557dc5fa132ff2490be0ebf'
p410
sg101
(lp411
g375
ag382
ag389
ag396
asg103
Nsba(ibclass
BBasicBlock
p412
(dp413
g12
Nsg13
(lp414
(ibclass
BInstr
p415
(dp416
g2
Nsg17
S'ADRP            X0, #unk_FFFFFFC0013B5B3F@PAGE'
p417
sg19
S'e06000b0'
p418
sg21
Vadrp x0, #0xc1d000
p419
sg5
L18446743798839609980L
sg6
Nsg23
S'ADRP'
p420
sg25
S'0xffffffc000798a7cL'
p421
sg27
Nsba(ibclass
BInstr
p422
(dp423
g2
Nsg17
S'ADRP            X1, #(aRulesDbg+6)@PAGE; "dbg"'
p424
sg19
S'21680090'
p425
sg21
Vadrp x1, #0xd04000
p426
sg5
L18446743798839609984L
sg6
Nsg23
S'ADRP'
p427
sg25
S'0xffffffc000798a80L'
p428
sg27
Nsba(ibclass
BInstr
p429
(dp430
g2
Nsg17
S'ADD             X1, X1, #(aRulesDbg+6)@PAGEOFF; "dbg"'
p431
sg19
S'21883391'
p432
sg21
Vadd x1, x1, #0xce2
p433
sg5
L18446743798839609988L
sg6
Nsg23
S'ADD'
p434
sg25
S'0xffffffc000798a84L'
p435
sg27
Nsba(ibclass
BInstr
p436
(dp437
g2
Nsg17
S'MOV             X2, X19'
p438
sg19
S'e20313aa'
p439
sg21
Vmov x2, x19
p440
sg5
L18446743798839609992L
sg6
Nsg23
S'MOV'
p441
sg25
S'0xffffffc000798a88L'
p442
sg27
Nsba(ibclass
BInstr
p443
(dp444
g2
Nsg17
S'MOV             W3, W20'
p445
sg19
S'e303142a'
p446
sg21
Vmov w3, w20
p447
sg5
L18446743798839609996L
sg6
Nsg23
S'MOV'
p448
sg25
S'0xffffffc000798a8cL'
p449
sg27
Nsba(ibclass
BInstr
p450
(dp451
g2
Nsg17
S'ADD             X0, X0, #unk_FFFFFFC0013B5B3F@PAGEOFF'
p452
sg19
S'00fc2c91'
p453
sg21
Vadd x0, x0, #0xb3f
p454
sg5
L18446743798839610000L
sg6
Nsg23
S'ADD'
p455
sg25
S'0xffffffc000798a90L'
p456
sg27
Nsba(ibclass
BInstr
p457
(dp458
g2
Nsg17
S'BL              printk'
p459
sg19
S'b8511a94'
p460
sg21
Vbl #0x6946e0
p461
sg5
L18446743798839610004L
sg6
Nsg23
S'BL'
p462
sg25
S'0xffffffc000798a94L'
p463
sg27
Nsba(ibclass
BInstr
p464
(dp465
g2
Nsg17
S'B               loc_FFFFFFC000798AD0'
p466
sg19
S'0e000014'
p467
sg21
Vb #0x38
p468
sg5
L18446743798839610008L
sg6
Nsg23
g250
sg25
S'0xffffffc000798a98L'
p469
sg27
Nsbasg77
(lp470
S'ADRP reg, #func@PAGE'
p471
aS'ADRP reg, #(aRulesDbg+6)@PAGE'
p472
aS'ADD reg, reg, #(aRulesDbg+6)@PAGEOFF'
p473
aS'MOV reg, reg9'
p474
aS'MOV reg, reg0'
p475
aS'ADD reg, reg, #func@PAGEOFF'
p476
aS'BL printk'
p477
aS'B func'
p478
asg87
Nsg5
S'0xffffffc000798a7cL'
p479
sg89
(lp480
S'0xffffffc000798a6cL'
p481
asg6
Nsg91
(lp482
S'0xffffffc000798ad0L'
p483
asg95
Nsg96
Nsg97
S'1b980a54a3aef08e829e8b1361742454'
p484
sg99
S'c70a742ea0bf2bd109f8cc9acd24333e'
p485
sg101
(lp486
g420
ag427
ag434
ag441
ag448
ag455
ag462
ag250
asg103
Nsba(ibclass
BBasicBlock
p487
(dp488
g12
Nsg13
(lp489
(ibclass
BInstr
p490
(dp491
g2
Nsg17
S'TBZ             W0, #3, loc_FFFFFFC000798ACC'
p492
sg19
S'80011836'
p493
sg21
Vtbz w0, #3, #0x30
p494
sg5
L18446743798839610012L
sg6
Nsg23
S'TBZ'
p495
sg25
S'0xffffffc000798a9cL'
p496
sg27
Nsbasg77
(lp497
S'TBZ reg, #3, func'
p498
asg87
Nsg5
S'0xffffffc000798a9cL'
p499
sg89
(lp500
S'0xffffffc000798a48L'
p501
asg6
Nsg91
(lp502
S'0xffffffc000798aa0L'
p503
aS'0xffffffc000798accL'
p504
asg95
Nsg96
Nsg97
S'b05993cf85beb302c9604086eec65e11'
p505
sg99
S'7411ce3a55876e9501953a6aa4dfd665'
p506
sg101
(lp507
g495
asg103
Nsba(ibclass
BBasicBlock
p508
(dp509
g12
Nsg13
(lp510
(ibclass
BInstr
p511
(dp512
g2
Nsg17
S'ADRP            X0, #qword_FFFFFFC000E42548@PAGE'
p513
sg19
S'403500d0'
p514
sg21
Vadrp x0, #0x6aa000
p515
sg5
L18446743798839610016L
sg6
Nsg23
S'ADRP'
p516
sg25
S'0xffffffc000798aa0L'
p517
sg27
Nsba(ibclass
BInstr
p518
(dp519
g2
Nsg17
S'LDR             X0, [X0,#qword_FFFFFFC000E42548@PAGEOFF]'
p520
sg19
S'00a442f9'
p521
sg21
Vldr x0, [x0, #0x548]
p522
sg5
L18446743798839610020L
sg6
Nsg23
S'LDR'
p523
sg25
S'0xffffffc000798aa4L'
p524
sg27
Nsba(ibclass
BInstr
p525
(dp526
g2
Nsg17
S'LDR             W0, [X0]'
p527
sg19
S'000040b9'
p528
sg21
Vldr w0, [x0]
p529
sg5
L18446743798839610024L
sg6
Nsg23
S'LDR'
p530
sg25
S'0xffffffc000798aa8L'
p531
sg27
Nsba(ibclass
BInstr
p532
(dp533
g2
Nsg17
S'CBNZ            W0, loc_FFFFFFC000798ACC'
p534
sg19
S'00010035'
p535
sg21
Vcbnz w0, #0x20
p536
sg5
L18446743798839610028L
sg6
Nsg23
S'CBNZ'
p537
sg25
S'0xffffffc000798aacL'
p538
sg27
Nsbasg77
(lp539
S'ADRP reg, #func@PAGE'
p540
aS'LDR reg, mem'
p541
aS'LDR reg, mem'
p542
aS'CBNZ reg, func'
p543
asg87
Nsg5
S'0xffffffc000798aa0L'
p544
sg89
(lp545
S'0xffffffc000798a9cL'
p546
asg6
Nsg91
(lp547
S'0xffffffc000798ab0L'
p548
aS'0xffffffc000798accL'
p549
asg95
Nsg96
Nsg97
S'9c97521b8b0f280d47a50ec9a5e4f86f'
p550
sg99
S'bd26f8893557dc5fa132ff2490be0ebf'
p551
sg101
(lp552
g516
ag523
ag530
ag537
asg103
Nsba(ibclass
BBasicBlock
p553
(dp554
g12
Nsg13
(lp555
(ibclass
BInstr
p556
(dp557
g2
Nsg17
S'ADRP            X0, #unk_FFFFFFC0013B5B83@PAGE'
p558
sg19
S'e06000b0'
p559
sg21
Vadrp x0, #0xc1d000
p560
sg5
L18446743798839610032L
sg6
Nsg23
S'ADRP'
p561
sg25
S'0xffffffc000798ab0L'
p562
sg27
Nsba(ibclass
BInstr
p563
(dp564
g2
Nsg17
S'ADRP            X1, #(aRulesDbg+6)@PAGE; "dbg"'
p565
sg19
S'21680090'
p566
sg21
Vadrp x1, #0xd04000
p567
sg5
L18446743798839610036L
sg6
Nsg23
S'ADRP'
p568
sg25
S'0xffffffc000798ab4L'
p569
sg27
Nsba(ibclass
BInstr
p570
(dp571
g2
Nsg17
S'ADD             X0, X0, #unk_FFFFFFC0013B5B83@PAGEOFF'
p572
sg19
S'000c2e91'
p573
sg21
Vadd x0, x0, #0xb83
p574
sg5
L18446743798839610040L
sg6
Nsg23
S'ADD'
p575
sg25
S'0xffffffc000798ab8L'
p576
sg27
Nsba(ibclass
BInstr
p577
(dp578
g2
Nsg17
S'ADD             X1, X1, #(aRulesDbg+6)@PAGEOFF; "dbg"'
p579
sg19
S'21883391'
p580
sg21
Vadd x1, x1, #0xce2
p581
sg5
L18446743798839610044L
sg6
Nsg23
S'ADD'
p582
sg25
S'0xffffffc000798abcL'
p583
sg27
Nsba(ibclass
BInstr
p584
(dp585
g2
Nsg17
S'MOV             X2, X19'
p586
sg19
S'e20313aa'
p587
sg21
Vmov x2, x19
p588
sg5
L18446743798839610048L
sg6
Nsg23
S'MOV'
p589
sg25
S'0xffffffc000798ac0L'
p590
sg27
Nsba(ibclass
BInstr
p591
(dp592
g2
Nsg17
S'MOV             W4, W20'
p593
sg19
S'e403142a'
p594
sg21
Vmov w4, w20
p595
sg5
L18446743798839610052L
sg6
Nsg23
S'MOV'
p596
sg25
S'0xffffffc000798ac4L'
p597
sg27
Nsba(ibclass
BInstr
p598
(dp599
g2
Nsg17
S'BL              printk'
p600
sg19
S'ab511a94'
p601
sg21
Vbl #0x6946ac
p602
sg5
L18446743798839610056L
sg6
Nsg23
S'BL'
p603
sg25
S'0xffffffc000798ac8L'
p604
sg27
Nsbasg77
(lp605
S'ADRP reg, #func@PAGE'
p606
aS'ADRP reg, #(aRulesDbg+6)@PAGE'
p607
aS'ADD reg, reg, #func@PAGEOFF'
p608
aS'ADD reg, reg, #(aRulesDbg+6)@PAGEOFF'
p609
aS'MOV reg, reg9'
p610
aS'MOV reg, reg0'
p611
aS'BL printk'
p612
asg87
Nsg5
S'0xffffffc000798ab0L'
p613
sg89
(lp614
S'0xffffffc000798aa0L'
p615
asg6
Nsg91
(lp616
S'0xffffffc000798accL'
p617
asg95
Nsg96
Nsg97
S'ffb6f4fd63f1f89296178080f44de9c2'
p618
sg99
S'999c442c14bff59de3a204351a354cae'
p619
sg101
(lp620
g561
ag568
ag575
ag582
ag589
ag596
ag603
asg103
Nsba(ibclass
BBasicBlock
p621
(dp622
g12
Nsg13
(lp623
(ibclass
BInstr
p624
(dp625
g2
Nsg17
S'STR             W20, [X19,#0x90]'
p626
sg19
S'749200b9'
p627
sg21
Vstr w20, [x19, #0x90]
p628
sg5
L18446743798839610060L
sg6
Nsg23
S'STR'
p629
sg25
S'0xffffffc000798accL'
p630
sg27
Nsbasg77
(lp631
S'STR reg0, mem'
p632
asg87
Nsg5
S'0xffffffc000798accL'
p633
sg89
(lp634
S'0xffffffc000798a9cL'
p635
aS'0xffffffc000798aa0L'
p636
aS'0xffffffc000798ab0L'
p637
asg6
Nsg91
(lp638
S'0xffffffc000798ad0L'
p639
asg95
Nsg96
Nsg97
S'3fe0dfff438296bb525e0e8642586c2d'
p640
sg99
S'd9df76a9e81b31a5787a32c33e7b02b8'
p641
sg101
(lp642
g629
asg103
Nsba(ibclass
BBasicBlock
p643
(dp644
g12
Nsg13
(lp645
(ibclass
BInstr
p646
(dp647
g2
Nsg17
S'MOV             X0, X22'
p648
sg19
S'e00316aa'
p649
sg21
Vmov x0, x22
p650
sg5
L18446743798839610064L
sg6
Nsg23
S'MOV'
p651
sg25
S'0xffffffc000798ad0L'
p652
sg27
Nsba(ibclass
BInstr
p653
(dp654
g2
Nsg17
S'BL              mutex_unlock'
p655
sg19
S'4d851a94'
p656
sg21
Vbl #0x6a1534
p657
sg5
L18446743798839610068L
sg6
Nsg23
S'BL'
p658
sg25
S'0xffffffc000798ad4L'
p659
sg27
Nsbasg77
(lp660
S'MOV reg, reg2'
p661
aS'BL mutex_unlock'
p662
asg87
Nsg5
S'0xffffffc000798ad0L'
p663
sg89
(lp664
S'0xffffffc000798a68L'
p665
aS'0xffffffc000798a6cL'
p666
aS'0xffffffc000798a7cL'
p667
aS'0xffffffc000798accL'
p668
asg6
Nsg91
(lp669
S'0xffffffc000798ad8L'
p670
asg95
Nsg96
Nsg97
S'd358f8b13c87ca08ba6d4b865203703e'
p671
sg99
S'214e7de9d991fe577c991378c8b4539d'
p672
sg101
(lp673
g651
ag658
asg103
Nsba(ibclass
BBasicBlock
p674
(dp675
g12
Nsg13
(lp676
(ibclass
BInstr
p677
(dp678
g2
Nsg17
S'LDP             X19, X20, [SP,#0x20+var_10]'
p679
sg19
S'f35341a9'
p680
sg21
Vldp x19, x20, [sp, #0x10]
p681
sg5
L18446743798839610072L
sg6
Nsg23
S'LDP'
p682
sg25
S'0xffffffc000798ad8L'
p683
sg27
Nsba(ibclass
BInstr
p684
(dp685
g2
Nsg17
S'LDP             X21, X22, [SP,#0x20+var_s0]'
p686
sg19
S'f55b42a9'
p687
sg21
Vldp x21, x22, [sp, #0x20]
p688
sg5
L18446743798839610076L
sg6
Nsg23
S'LDP'
p689
sg25
S'0xffffffc000798adcL'
p690
sg27
Nsba(ibclass
BInstr
p691
(dp692
g2
Nsg17
S'LDP             X29, X30, [SP+0x20+var_20],#0x30'
p693
sg19
S'fd7bc3a8'
p694
sg21
Vldp x29, x30, [sp], #0x30
p695
sg5
L18446743798839610080L
sg6
Nsg23
S'LDP'
p696
sg25
S'0xffffffc000798ae0L'
p697
sg27
Nsba(ibclass
BInstr
p698
(dp699
g2
Nsg17
S'RET'
p700
sg19
S'c0035fd6'
p701
sg21
Vret 
p702
sg5
L18446743798839610084L
sg6
Nsg23
S'RET'
p703
sg25
S'0xffffffc000798ae4L'
p704
sg27
Nsbasg77
(lp705
S'LDP reg9, reg0, mem'
p706
aS'LDP reg1, reg2, mem'
p707
aS'LDP reg9, reg0, mem,#0x30'
p708
ag700
asg87
Nsg5
S'0xffffffc000798ad8L'
p709
sg89
(lp710
S'0xffffffc000798a08L'
p711
aS'0xffffffc000798a14L'
p712
aS'0xffffffc000798a24L'
p713
aS'0xffffffc000798ad0L'
p714
asg6
Nsg91
(lp715
sg95
Nsg96
Nsg97
S'e506acdec8f0d1b80ba12a70d6d398f7'
p716
sg99
S'3ac81bdcde4eb0fd97ff7d602d4ab967'
p717
sg101
(lp718
g682
ag689
ag696
ag703
asg103
Nsbasb.