(ibclass
BFunc
p0
(dp1
S'hash'
p2
NsS'name'
p3
S'diag_dci_notify_client'
p4
sS'start_address'
p5
L18446743798837316816L
sS'flag'
p6
NsS'program'
p7
NsS'bbs'
p8
(lp9
(ibclass
BBasicBlock
p10
(dp11
S'function'
p12
NsS'binstrs'
p13
(lp14
(ibclass
BInstr
p15
(dp16
g2
NsS'disasm'
p17
S'STP             X29, X30, [SP,#-0x10+var_B0]!'
p18
sS'bytes'
p19
S'fd7bb4a9'
p20
sS'disasm_striped'
p21
Vstp x29, x30, [sp, #-0xc0]!
p22
sg5
L18446743798837316816L
sg6
NsS'mnem'
p23
S'STP'
p24
sS'address'
p25
S'0xffffffc000568cd0L'
p26
sS'basicblock'
p27
Nsba(ibclass
BInstr
p28
(dp29
g2
Nsg17
S'MOV             X29, SP'
p30
sg19
S'fd030091'
p31
sg21
Vmov x29, sp
p32
sg5
L18446743798837316820L
sg6
Nsg23
S'MOV'
p33
sg25
S'0xffffffc000568cd4L'
p34
sg27
Nsba(ibclass
BInstr
p35
(dp36
g2
Nsg17
S'STP             X19, X20, [SP,#0xB0+var_A0]'
p37
sg19
S'f35301a9'
p38
sg21
Vstp x19, x20, [sp, #0x10]
p39
sg5
L18446743798837316824L
sg6
Nsg23
S'STP'
p40
sg25
S'0xffffffc000568cd8L'
p41
sg27
Nsba(ibclass
BInstr
p42
(dp43
g2
Nsg17
S'STP             X21, X22, [SP,#0xB0+var_90]'
p44
sg19
S'f55b02a9'
p45
sg21
Vstp x21, x22, [sp, #0x20]
p46
sg5
L18446743798837316828L
sg6
Nsg23
S'STP'
p47
sg25
S'0xffffffc000568cdcL'
p48
sg27
Nsba(ibclass
BInstr
p49
(dp50
g2
Nsg17
S'MOV             W20, W1'
p51
sg19
S'f403012a'
p52
sg21
Vmov w20, w1
p53
sg5
L18446743798837316832L
sg6
Nsg23
S'MOV'
p54
sg25
S'0xffffffc000568ce0L'
p55
sg27
Nsba(ibclass
BInstr
p56
(dp57
g2
Nsg17
S'MOV             W19, W0'
p58
sg19
S'f303002a'
p59
sg21
Vmov w19, w0
p60
sg5
L18446743798837316836L
sg6
Nsg23
S'MOV'
p61
sg25
S'0xffffffc000568ce4L'
p62
sg27
Nsba(ibclass
BInstr
p63
(dp64
g2
Nsg17
S'MOV             W21, W2'
p65
sg19
S'f503022a'
p66
sg21
Vmov w21, w2
p67
sg5
L18446743798837316840L
sg6
Nsg23
S'MOV'
p68
sg25
S'0xffffffc000568ce8L'
p69
sg27
Nsba(ibclass
BInstr
p70
(dp71
g2
Nsg17
S'MOV             W1, #0'
p72
sg19
S'01008052'
p73
sg21
Vmovz w1, #0
p74
sg5
L18446743798837316844L
sg6
Nsg23
S'MOV'
p75
sg25
S'0xffffffc000568cecL'
p76
sg27
Nsba(ibclass
BInstr
p77
(dp78
g2
Nsg17
S'MOV             X2, #0x80'
p79
sg19
S'021080d2'
p80
sg21
Vmovz x2, #0x80
p81
sg5
L18446743798837316848L
sg6
Nsg23
S'MOV'
p82
sg25
S'0xffffffc000568cf0L'
p83
sg27
Nsba(ibclass
BInstr
p84
(dp85
g2
Nsg17
S'ADD             X0, X29, #0x40'
p86
sg19
S'a0030191'
p87
sg21
Vadd x0, x29, #0x40
p88
sg5
L18446743798837316852L
sg6
Nsg23
S'ADD'
p89
sg25
S'0xffffffc000568cf4L'
p90
sg27
Nsba(ibclass
BInstr
p91
(dp92
g2
Nsg17
S'STR             X23, [SP,#0xB0+var_80]'
p93
sg19
S'f71b00f9'
p94
sg21
Vstr x23, [sp, #0x30]
p95
sg5
L18446743798837316856L
sg6
Nsg23
S'STR'
p96
sg25
S'0xffffffc000568cf8L'
p97
sg27
Nsba(ibclass
BInstr
p98
(dp99
g2
Nsg17
S'BL              memset'
p100
sg19
S'41dafa97'
p101
sg21
Vbl #0xffffffffffeb6904
p102
sg5
L18446743798837316860L
sg6
Nsg23
S'BL'
p103
sg25
S'0xffffffc000568cfcL'
p104
sg27
Nsba(ibclass
BInstr
p105
(dp106
g2
Nsg17
S'MOV             W0, #0xFFFFFFFF'
p107
sg19
S'00008012'
p108
sg21
Vmovn w0, #0
p109
sg5
L18446743798837316864L
sg6
Nsg23
S'MOV'
p110
sg25
S'0xffffffc000568d00L'
p111
sg27
Nsba(ibclass
BInstr
p112
(dp113
g2
Nsg17
S'STR             W0, [X29,#0xB0+var_68]'
p114
sg19
S'a04b00b9'
p115
sg21
Vstr w0, [x29, #0x48]
p116
sg5
L18446743798837316868L
sg6
Nsg23
S'STR'
p117
sg25
S'0xffffffc000568d04L'
p118
sg27
Nsba(ibclass
BInstr
p119
(dp120
g2
Nsg17
S'ORR             W0, W19, W20'
p121
sg19
S'6002142a'
p122
sg21
Vorr w0, w19, w20
p123
sg5
L18446743798837316872L
sg6
Nsg23
S'ORR'
p124
sg25
S'0xffffffc000568d08L'
p125
sg27
Nsba(ibclass
BInstr
p126
(dp127
g2
Nsg17
S'STR             W0, [X29,#0xB0+var_58]'
p128
sg19
S'a05b00b9'
p129
sg21
Vstr w0, [x29, #0x58]
p130
sg5
L18446743798837316876L
sg6
Nsg23
S'STR'
p131
sg25
S'0xffffffc000568d0cL'
p132
sg27
Nsba(ibclass
BInstr
p133
(dp134
g2
Nsg17
S'CMP             W20, #0x10,LSL#12'
p135
sg19
S'9f424071'
p136
sg21
Vcmp w20, #0x10, lsl #12
p137
sg5
L18446743798837316880L
sg6
Nsg23
S'CMP'
p138
sg25
S'0xffffffc000568d10L'
p139
sg27
Nsba(ibclass
BInstr
p140
(dp141
g2
Nsg17
S'ADRP            X0, #qword_FFFFFFC000E46B20@PAGE'
p142
sg19
S'e04600d0'
p143
sg21
Vadrp x0, #0x8de000
p144
sg5
L18446743798837316884L
sg6
Nsg23
S'ADRP'
p145
sg25
S'0xffffffc000568d14L'
p146
sg27
Nsba(ibclass
BInstr
p147
(dp148
g2
Nsg17
S'SBFM            X2, X21, #0, #0x1F'
p149
sg19
S'a27e4093'
p150
sg21
Vsxtw x2, w21
p151
sg5
L18446743798837316888L
sg6
Nsg23
S'SBFM'
p152
sg25
S'0xffffffc000568d18L'
p153
sg27
Nsba(ibclass
BInstr
p154
(dp155
g2
Nsg17
S'MOV             X1, #0x223A'
p156
sg19
S'414784d2'
p157
sg21
Vmovz x1, #0x223a
p158
sg5
L18446743798837316892L
sg6
Nsg23
S'MOV'
p159
sg25
S'0xffffffc000568d1cL'
p160
sg27
Nsba(ibclass
BInstr
p161
(dp162
g2
Nsg17
S'LDR             X0, [X0,#qword_FFFFFFC000E46B20@PAGEOFF]'
p163
sg19
S'009045f9'
p164
sg21
Vldr x0, [x0, #0xb20]
p165
sg5
L18446743798837316896L
sg6
Nsg23
S'LDR'
p166
sg25
S'0xffffffc000568d20L'
p167
sg27
Nsba(ibclass
BInstr
p168
(dp169
g2
Nsg17
S'B.NE            loc_FFFFFFC000568D40'
p170
sg19
S'e1000054'
p171
sg21
Vb.ne #0x1c
p172
sg5
L18446743798837316900L
sg6
Nsg23
S'B'
p173
sg25
S'0xffffffc000568d24L'
p174
sg27
NsbasS'disasm_list'
p175
(lp176
S'STP reg9, reg0, mem!'
p177
aS'MOV reg9, SP'
p178
aS'STP reg9, reg0, mem'
p179
aS'STP reg1, reg2, mem'
p180
aS'MOV reg0, reg'
p181
aS'MOV reg9, reg'
p182
aS'MOV reg1, reg'
p183
aS'MOV reg, #0'
p184
aS'MOV reg, #0x80'
p185
aS'ADD reg, reg9, #0x40'
p186
aS'STR reg3, mem'
p187
aS'BL memset'
p188
aS'MOV reg, #0xFFFFFFFF'
p189
aS'STR reg, mem'
p190
aS'ORR reg, reg9, reg0'
p191
aS'STR reg, mem'
p192
aS'CMP reg0, #0x10,LSL#12'
p193
aS'ADRP reg, #func@PAGE'
p194
aS'SBFM reg, reg1, #0, #0x1F'
p195
aS'MOV reg, #0x223A'
p196
aS'LDR reg, mem'
p197
aS'B.NE func'
p198
asS'end_address'
p199
Nsg5
S'0xffffffc000568cd0L'
p200
sS'preds'
p201
(lp202
sg6
NsS'succs'
p203
(lp204
S'0xffffffc000568d28L'
p205
aS'0xffffffc000568d40L'
p206
asS'hash_v3'
p207
NsS'flag_v2'
p208
NsS'hash_v1'
p209
S'1942dd451bd9b93e48959ec8a0503266'
p210
sS'hash_v2'
p211
S'9c65bb5393cb1cb522400c2cf35fd5ce'
p212
sS'mnen_list'
p213
(lp214
g24
ag33
ag40
ag47
ag54
ag61
ag68
ag75
ag82
ag89
ag96
ag103
ag110
ag117
ag124
ag131
ag138
ag145
ag152
ag159
ag166
ag173
asS'neighbour_disasm_list'
p215
Nsba(ibclass
BBasicBlock
p216
(dp217
g12
Nsg13
(lp218
(ibclass
BInstr
p219
(dp220
g2
Nsg17
S'MADD            X1, X2, X1, X0'
p221
sg19
S'4100019b'
p222
sg21
Vmadd x1, x2, x1, x0
p223
sg5
L18446743798837316904L
sg6
Nsg23
S'MADD'
p224
sg25
S'0xffffffc000568d28L'
p225
sg27
Nsba(ibclass
BInstr
p226
(dp227
g2
Nsg17
S'ADD             X1, X1, #2,LSL#12'
p228
sg19
S'21084091'
p229
sg21
Vadd x1, x1, #2, lsl #12
p230
sg5
L18446743798837316908L
sg6
Nsg23
S'ADD'
p231
sg25
S'0xffffffc000568d2cL'
p232
sg27
Nsba(ibclass
BInstr
p233
(dp234
g2
Nsg17
S'LDRH            W0, [X1,#0x238]'
p235
sg19
S'20704479'
p236
sg21
Vldrh w0, [x1, #0x238]
p237
sg5
L18446743798837316912L
sg6
Nsg23
S'LDR'
p238
sg25
S'0xffffffc000568d30L'
p239
sg27
Nsba(ibclass
BInstr
p240
(dp241
g2
Nsg17
S'ORR             W0, W19, W0'
p242
sg19
S'6002002a'
p243
sg21
Vorr w0, w19, w0
p244
sg5
L18446743798837316916L
sg6
Nsg23
S'ORR'
p245
sg25
S'0xffffffc000568d34L'
p246
sg27
Nsba(ibclass
BInstr
p247
(dp248
g2
Nsg17
S'STRH            W0, [X1,#0x238]'
p249
sg19
S'20700479'
p250
sg21
Vstrh w0, [x1, #0x238]
p251
sg5
L18446743798837316920L
sg6
Nsg23
S'STR'
p252
sg25
S'0xffffffc000568d38L'
p253
sg27
Nsba(ibclass
BInstr
p254
(dp255
g2
Nsg17
S'B               loc_FFFFFFC000568D5C'
p256
sg19
S'08000014'
p257
sg21
Vb #0x20
p258
sg5
L18446743798837316924L
sg6
Nsg23
g173
sg25
S'0xffffffc000568d3cL'
p259
sg27
Nsbasg175
(lp260
S'MADD reg, reg, reg, reg'
p261
aS'ADD reg, reg, #2,LSL#12'
p262
aS'LDRH reg, mem'
p263
aS'ORR reg, reg9, reg'
p264
aS'STRH reg, mem'
p265
aS'B func'
p266
asg199
Nsg5
S'0xffffffc000568d28L'
p267
sg201
(lp268
S'0xffffffc000568cd0L'
p269
asg6
Nsg203
(lp270
S'0xffffffc000568d5cL'
p271
asg207
Nsg208
Nsg209
S'cf607d1b69ce483b4b8578c13d52ce7f'
p272
sg211
S'734dc363649a2454e25970ec31dcc5f5'
p273
sg213
(lp274
g224
ag231
ag238
ag245
ag252
ag173
asg215
Nsba(ibclass
BBasicBlock
p275
(dp276
g12
Nsg13
(lp277
(ibclass
BInstr
p278
(dp279
g2
Nsg17
S'MADD            X0, X2, X1, X0'
p280
sg19
S'4000019b'
p281
sg21
Vmadd x0, x2, x1, x0
p282
sg5
L18446743798837316928L
sg6
Nsg23
S'MADD'
p283
sg25
S'0xffffffc000568d40L'
p284
sg27
Nsba(ibclass
BInstr
p285
(dp286
g2
Nsg17
S'ADD             X0, X0, #2,LSL#12'
p287
sg19
S'00084091'
p288
sg21
Vadd x0, x0, #2, lsl #12
p289
sg5
L18446743798837316932L
sg6
Nsg23
S'ADD'
p290
sg25
S'0xffffffc000568d44L'
p291
sg27
Nsba(ibclass
BInstr
p292
(dp293
g2
Nsg17
S'LDRH            W1, [X0,#0x238]'
p294
sg19
S'01704479'
p295
sg21
Vldrh w1, [x0, #0x238]
p296
sg5
L18446743798837316936L
sg6
Nsg23
S'LDR'
p297
sg25
S'0xffffffc000568d48L'
p298
sg27
Nsba(ibclass
BInstr
p299
(dp300
g2
Nsg17
S'CMP             W19, WZR'
p301
sg19
S'7f021f6b'
p302
sg21
Vcmp w19, wzr
p303
sg5
L18446743798837316940L
sg6
Nsg23
S'CMP'
p304
sg25
S'0xffffffc000568d4cL'
p305
sg27
Nsba(ibclass
BInstr
p306
(dp307
g2
Nsg17
S'CSET            W2, EQ'
p308
sg19
S'e2179f1a'
p309
sg21
Vcset w2, eq
p310
sg5
L18446743798837316944L
sg6
Nsg23
S'CSET'
p311
sg25
S'0xffffffc000568d50L'
p312
sg27
Nsba(ibclass
BInstr
p313
(dp314
g2
Nsg17
S'AND             W1, W2, W1'
p315
sg19
S'4100010a'
p316
sg21
Vand w1, w2, w1
p317
sg5
L18446743798837316948L
sg6
Nsg23
S'AND'
p318
sg25
S'0xffffffc000568d54L'
p319
sg27
Nsba(ibclass
BInstr
p320
(dp321
g2
Nsg17
S'STRH            W1, [X0,#0x238]'
p322
sg19
S'01700479'
p323
sg21
Vstrh w1, [x0, #0x238]
p324
sg5
L18446743798837316952L
sg6
Nsg23
S'STR'
p325
sg25
S'0xffffffc000568d58L'
p326
sg27
Nsbasg175
(lp327
S'MADD reg, reg, reg, reg'
p328
aS'ADD reg, reg, #2,LSL#12'
p329
aS'LDRH reg, mem'
p330
aS'CMP reg9, WZR'
p331
aS'CSET reg, EQ'
p332
aS'AND reg, reg, reg'
p333
aS'STRH reg, mem'
p334
asg199
Nsg5
S'0xffffffc000568d40L'
p335
sg201
(lp336
S'0xffffffc000568cd0L'
p337
asg6
Nsg203
(lp338
S'0xffffffc000568d5cL'
p339
asg207
Nsg208
Nsg209
S'f7f6cf0a32a8cd0002d649254620a747'
p340
sg211
S'c8cccebb39712c77b561378f6b19a05a'
p341
sg213
(lp342
g283
ag290
ag297
ag304
ag311
ag318
ag325
asg215
Nsba(ibclass
BBasicBlock
p343
(dp344
g12
Nsg13
(lp345
(ibclass
BInstr
p346
(dp347
g2
Nsg17
S'ADRP            X0, #qword_FFFFFFC000E464D8@PAGE'
p348
sg19
S'e04600d0'
p349
sg21
Vadrp x0, #0x8de000
p350
sg5
L18446743798837316956L
sg6
Nsg23
S'ADRP'
p351
sg25
S'0xffffffc000568d5cL'
p352
sg27
Nsba(ibclass
BInstr
p353
(dp354
g2
Nsg17
S'LDR             X1, [X0,#qword_FFFFFFC000E464D8@PAGEOFF]'
p355
sg19
S'016c42f9'
p356
sg21
Vldr x1, [x0, #0x4d8]
p357
sg5
L18446743798837316960L
sg6
Nsg23
S'LDR'
p358
sg25
S'0xffffffc000568d60L'
p359
sg27
Nsba(ibclass
BInstr
p360
(dp361
g2
Nsg17
S'ADRP            X23, #unk_FFFFFFC001352360@PAGE'
p362
sg19
S'576f00d0'
p363
sg21
Vadrp x23, #0xdea000
p364
sg5
L18446743798837316964L
sg6
Nsg23
S'ADRP'
p365
sg25
S'0xffffffc000568d64L'
p366
sg27
Nsba(ibclass
BInstr
p367
(dp368
g2
Nsg17
S'LDR             X1, [X1]'
p369
sg19
S'210040f9'
p370
sg21
Vldr x1, [x1]
p371
sg5
L18446743798837316968L
sg6
Nsg23
S'LDR'
p372
sg25
S'0xffffffc000568d68L'
p373
sg27
Nsba(ibclass
BInstr
p374
(dp375
g2
Nsg17
S'MOV             X22, X0'
p376
sg19
S'f60300aa'
p377
sg21
Vmov x22, x0
p378
sg5
L18446743798837316972L
sg6
Nsg23
S'MOV'
p379
sg25
S'0xffffffc000568d6cL'
p380
sg27
Nsba(ibclass
BInstr
p381
(dp382
g2
Nsg17
S'LDR             X1, [X1,#0x130]'
p383
sg19
S'219840f9'
p384
sg21
Vldr x1, [x1, #0x130]
p385
sg5
L18446743798837316976L
sg6
Nsg23
S'LDR'
p386
sg25
S'0xffffffc000568d70L'
p387
sg27
Nsba(ibclass
BInstr
p388
(dp389
g2
Nsg17
S'ADD             X23, X23, #unk_FFFFFFC001352360@PAGEOFF'
p390
sg19
S'f7820d91'
p391
sg21
Vadd x23, x23, #0x360
p392
sg5
L18446743798837316980L
sg6
Nsg23
S'ADD'
p393
sg25
S'0xffffffc000568d74L'
p394
sg27
Nsba(ibclass
BInstr
p395
(dp396
g2
Nsg17
S'LDR             X20, [X1]'
p397
sg19
S'340040f9'
p398
sg21
Vldr x20, [x1]
p399
sg5
L18446743798837316984L
sg6
Nsg23
S'LDR'
p400
sg25
S'0xffffffc000568d78L'
p401
sg27
Nsbasg175
(lp402
S'ADRP reg, #func@PAGE'
p403
aS'LDR reg, mem'
p404
aS'ADRP reg3, #func@PAGE'
p405
aS'LDR reg, mem'
p406
aS'MOV reg2, reg'
p407
aS'LDR reg, mem'
p408
aS'ADD reg3, reg3, #func@PAGEOFF'
p409
aS'LDR reg0, mem'
p410
asg199
Nsg5
S'0xffffffc000568d5cL'
p411
sg201
(lp412
S'0xffffffc000568d28L'
p413
aS'0xffffffc000568d40L'
p414
asg6
Nsg203
(lp415
S'0xffffffc000568d7cL'
p416
asg207
Nsg208
Nsg209
S'd2b95117c1926c00a93ace95babbb357'
p417
sg211
S'f2143af8679965271c43c17e7a5aff75'
p418
sg213
(lp419
g351
ag358
ag365
ag372
ag379
ag386
ag393
ag400
asg215
Nsba(ibclass
BBasicBlock
p420
(dp421
g12
Nsg13
(lp422
(ibclass
BInstr
p423
(dp424
g2
Nsg17
S'LDR             X0, [X22,#(qword_FFFFFFC000E464D8 - 0xFFFFFFC000E46000)]'
p425
sg19
S'c06e42f9'
p426
sg21
Vldr x0, [x22, #0x4d8]
p427
sg5
L18446743798837316988L
sg6
Nsg23
S'LDR'
p428
sg25
S'0xffffffc000568d7cL'
p429
sg27
Nsba(ibclass
BInstr
p430
(dp431
g2
Nsg17
S'LDR             X0, [X0]'
p432
sg19
S'000040f9'
p433
sg21
Vldr x0, [x0]
p434
sg5
L18446743798837316992L
sg6
Nsg23
S'LDR'
p435
sg25
S'0xffffffc000568d80L'
p436
sg27
Nsba(ibclass
BInstr
p437
(dp438
g2
Nsg17
S'ADD             X0, X0, #0x130'
p439
sg19
S'00c00491'
p440
sg21
Vadd x0, x0, #0x130
p441
sg5
L18446743798837316996L
sg6
Nsg23
S'ADD'
p442
sg25
S'0xffffffc000568d84L'
p443
sg27
Nsba(ibclass
BInstr
p444
(dp445
g2
Nsg17
S'CMP             X1, X0'
p446
sg19
S'3f0000eb'
p447
sg21
Vcmp x1, x0
p448
sg5
L18446743798837317000L
sg6
Nsg23
S'CMP'
p449
sg25
S'0xffffffc000568d88L'
p450
sg27
Nsba(ibclass
BInstr
p451
(dp452
g2
Nsg17
S'B.EQ            loc_FFFFFFC000568DE4'
p453
sg19
S'c0020054'
p454
sg21
Vb.eq #0x58
p455
sg5
L18446743798837317004L
sg6
Nsg23
g173
sg25
S'0xffffffc000568d8cL'
p456
sg27
Nsbasg175
(lp457
S'LDR reg, mem'
p458
aS'LDR reg, mem'
p459
aS'ADD reg, reg, #0x130'
p460
aS'CMP reg, reg'
p461
aS'B.EQ func'
p462
asg199
Nsg5
S'0xffffffc000568d7cL'
p463
sg201
(lp464
S'0xffffffc000568d5cL'
p465
aS'0xffffffc000568dd8L'
p466
asg6
Nsg203
(lp467
S'0xffffffc000568d90L'
p468
aS'0xffffffc000568de4L'
p469
asg207
Nsg208
Nsg209
S'a0703b534d2d7ae3018108197bcd8c1b'
p470
sg211
S'57ea3b7c9b7ca334b0608b6bfee7d659'
p471
sg213
(lp472
g428
ag435
ag442
ag449
ag173
asg215
Nsba(ibclass
BBasicBlock
p473
(dp474
g12
Nsg13
(lp475
(ibclass
BInstr
p476
(dp477
g2
Nsg17
S'LDUR            W0, [X1,#-0x26]'
p478
sg19
S'20a05db8'
p479
sg21
Vldur w0, [x1, #-0x26]
p480
sg5
L18446743798837317008L
sg6
Nsg23
S'LDUR'
p481
sg25
S'0xffffffc000568d90L'
p482
sg27
Nsba(ibclass
BInstr
p483
(dp484
g2
Nsg17
S'SUB             X3, X1, #0x30'
p485
sg19
S'23c000d1'
p486
sg21
Vsub x3, x1, #0x30
p487
sg5
L18446743798837317012L
sg6
Nsg23
S'SUB'
p488
sg25
S'0xffffffc000568d94L'
p489
sg27
Nsba(ibclass
BInstr
p490
(dp491
g2
Nsg17
S'CMP             W0, W21'
p492
sg19
S'1f00156b'
p493
sg21
Vcmp w0, w21
p494
sg5
L18446743798837317016L
sg6
Nsg23
S'CMP'
p495
sg25
S'0xffffffc000568d98L'
p496
sg27
Nsba(ibclass
BInstr
p497
(dp498
g2
Nsg17
S'B.NE            loc_FFFFFFC000568DD8'
p499
sg19
S'e1010054'
p500
sg21
Vb.ne #0x3c
p501
sg5
L18446743798837317020L
sg6
Nsg23
g173
sg25
S'0xffffffc000568d9cL'
p502
sg27
Nsbasg175
(lp503
S'LDUR reg, mem'
p504
aS'SUB reg, reg, #0x30'
p505
aS'CMP reg, reg1'
p506
aS'B.NE func'
p507
asg199
Nsg5
S'0xffffffc000568d90L'
p508
sg201
(lp509
S'0xffffffc000568d7cL'
p510
asg6
Nsg203
(lp511
S'0xffffffc000568da0L'
p512
aS'0xffffffc000568dd8L'
p513
asg207
Nsg208
Nsg209
S'e2b78a4d2de8fa18a7868d26b6b80262'
p514
sg211
S'f115655caa5d14470ff9cb9a0afa5bd1'
p515
sg213
(lp516
g481
ag488
ag495
ag173
asg215
Nsba(ibclass
BBasicBlock
p517
(dp518
g12
Nsg13
(lp519
(ibclass
BInstr
p520
(dp521
g2
Nsg17
S'LDURH           W0, [X1,#-0x2C]'
p522
sg19
S'20405d78'
p523
sg21
Vldurh w0, [x1, #-0x2c]
p524
sg5
L18446743798837317024L
sg6
Nsg23
S'LDUR'
p525
sg25
S'0xffffffc000568da0L'
p526
sg27
Nsba(ibclass
BInstr
p527
(dp528
g2
Nsg17
S'TST             W19, W0'
p529
sg19
S'7f02006a'
p530
sg21
Vtst w19, w0
p531
sg5
L18446743798837317028L
sg6
Nsg23
S'TST'
p532
sg25
S'0xffffffc000568da4L'
p533
sg27
Nsba(ibclass
BInstr
p534
(dp535
g2
Nsg17
S'B.EQ            loc_FFFFFFC000568DD8'
p536
sg19
S'80010054'
p537
sg21
Vb.eq #0x30
p538
sg5
L18446743798837317032L
sg6
Nsg23
g173
sg25
S'0xffffffc000568da8L'
p539
sg27
Nsbasg175
(lp540
S'LDURH reg, mem'
p541
aS'TST reg9, reg'
p542
aS'B.EQ func'
p543
asg199
Nsg5
S'0xffffffc000568da0L'
p544
sg201
(lp545
S'0xffffffc000568d90L'
p546
asg6
Nsg203
(lp547
S'0xffffffc000568dacL'
p548
aS'0xffffffc000568dd8L'
p549
asg207
Nsg208
Nsg209
S'179878f829d393924d841da22d314667'
p550
sg211
S'7241a3661678a8059ac8db27f8c3a2aa'
p551
sg213
(lp552
g525
ag532
ag173
asg215
Nsba(ibclass
BBasicBlock
p553
(dp554
g12
Nsg13
(lp555
(ibclass
BInstr
p556
(dp557
g2
Nsg17
S'LDUR            W0, [X1,#-0x2A]'
p558
sg19
S'20605db8'
p559
sg21
Vldur w0, [x1, #-0x2a]
p560
sg5
L18446743798837317036L
sg6
Nsg23
S'LDUR'
p561
sg25
S'0xffffffc000568dacL'
p562
sg27
Nsba(ibclass
BInstr
p563
(dp564
g2
Nsg17
S'STR             W0, [X29,#arg_30]'
p565
sg19
S'a04300b9'
p566
sg21
Vstr w0, [x29, #0x40]
p567
sg5
L18446743798837317040L
sg6
Nsg23
S'STR'
p568
sg25
S'0xffffffc000568db0L'
p569
sg27
Nsba(ibclass
BInstr
p570
(dp571
g2
Nsg17
S'LDUR            W0, [X1,#-0x2A]'
p572
sg19
S'20605db8'
p573
sg21
Vldur w0, [x1, #-0x2a]
p574
sg5
L18446743798837317044L
sg6
Nsg23
S'LDUR'
p575
sg25
S'0xffffffc000568db4L'
p576
sg27
Nsba(ibclass
BInstr
p577
(dp578
g2
Nsg17
S'LDR             X2, [X3,#0x10]'
p579
sg19
S'620840f9'
p580
sg21
Vldr x2, [x3, #0x10]
p581
sg5
L18446743798837317048L
sg6
Nsg23
S'LDR'
p582
sg25
S'0xffffffc000568db8L'
p583
sg27
Nsba(ibclass
BInstr
p584
(dp585
g2
Nsg17
S'ADD             X1, X29, #0x40'
p586
sg19
S'a1030191'
p587
sg21
Vadd x1, x29, #0x40
p588
sg5
L18446743798837317052L
sg6
Nsg23
S'ADD'
p589
sg25
S'0xffffffc000568dbcL'
p590
sg27
Nsba(ibclass
BInstr
p591
(dp592
g2
Nsg17
S'BL              send_sig_info'
p593
sg19
S'9a16f397'
p594
sg21
Vbl #0xffffffffffcc5a68
p595
sg5
L18446743798837317056L
sg6
Nsg23
S'BL'
p596
sg25
S'0xffffffc000568dc0L'
p597
sg27
Nsba(ibclass
BInstr
p598
(dp599
g2
Nsg17
S'MOV             W2, W0'
p600
sg19
S'e203002a'
p601
sg21
Vmov w2, w0
p602
sg5
L18446743798837317060L
sg6
Nsg23
S'MOV'
p603
sg25
S'0xffffffc000568dc4L'
p604
sg27
Nsba(ibclass
BInstr
p605
(dp606
g2
Nsg17
S'CBZ             W0, loc_FFFFFFC000568DD8'
p607
sg19
S'80000034'
p608
sg21
Vcbz w0, #0x10
p609
sg5
L18446743798837317064L
sg6
Nsg23
S'CBZ'
p610
sg25
S'0xffffffc000568dc8L'
p611
sg27
Nsbasg175
(lp612
S'LDUR reg, mem'
p613
aS'STR reg, mem'
p614
aS'LDUR reg, mem'
p615
aS'LDR reg, mem'
p616
aS'ADD reg, reg9, #0x40'
p617
aS'BL send_sig_info'
p618
aS'MOV reg, reg'
p619
aS'CBZ reg, func'
p620
asg199
Nsg5
S'0xffffffc000568dacL'
p621
sg201
(lp622
S'0xffffffc000568da0L'
p623
asg6
Nsg203
(lp624
S'0xffffffc000568dccL'
p625
aS'0xffffffc000568dd8L'
p626
asg207
Nsg208
Nsg209
S'654b239a039a4b22ba449ac82afbd5a1'
p627
sg211
S'07e36b0a546d09aff5a01f4e5cfbe54e'
p628
sg213
(lp629
g561
ag568
ag575
ag582
ag589
ag596
ag603
ag610
asg215
Nsba(ibclass
BBasicBlock
p630
(dp631
g12
Nsg13
(lp632
(ibclass
BInstr
p633
(dp634
g2
Nsg17
S'LDR             W1, [X29,#arg_48]'
p635
sg19
S'a15b40b9'
p636
sg21
Vldr w1, [x29, #0x58]
p637
sg5
L18446743798837317068L
sg6
Nsg23
S'LDR'
p638
sg25
S'0xffffffc000568dccL'
p639
sg27
Nsba(ibclass
BInstr
p640
(dp641
g2
Nsg17
S'MOV             X0, X23'
p642
sg19
S'e00317aa'
p643
sg21
Vmov x0, x23
p644
sg5
L18446743798837317072L
sg6
Nsg23
S'MOV'
p645
sg25
S'0xffffffc000568dd0L'
p646
sg27
Nsba(ibclass
BInstr
p647
(dp648
g2
Nsg17
S'BL              printk'
p649
sg19
S'e8102394'
p650
sg21
Vbl #0x8c43a0
p651
sg5
L18446743798837317076L
sg6
Nsg23
S'BL'
p652
sg25
S'0xffffffc000568dd4L'
p653
sg27
Nsbasg175
(lp654
S'LDR reg, mem'
p655
aS'MOV reg, reg3'
p656
aS'BL printk'
p657
asg199
Nsg5
S'0xffffffc000568dccL'
p658
sg201
(lp659
S'0xffffffc000568dacL'
p660
asg6
Nsg203
(lp661
S'0xffffffc000568dd8L'
p662
asg207
Nsg208
Nsg209
S'a5bdcea2b88425429e322fcc207bad5b'
p663
sg211
S'abeb31bafbe47310a1cb2bcf79cc0d3a'
p664
sg213
(lp665
g638
ag645
ag652
asg215
Nsba(ibclass
BBasicBlock
p666
(dp667
g12
Nsg13
(lp668
(ibclass
BInstr
p669
(dp670
g2
Nsg17
S'MOV             X1, X20'
p671
sg19
S'e10314aa'
p672
sg21
Vmov x1, x20
p673
sg5
L18446743798837317080L
sg6
Nsg23
S'MOV'
p674
sg25
S'0xffffffc000568dd8L'
p675
sg27
Nsba(ibclass
BInstr
p676
(dp677
g2
Nsg17
S'LDR             X20, [X20]'
p678
sg19
S'940240f9'
p679
sg21
Vldr x20, [x20]
p680
sg5
L18446743798837317084L
sg6
Nsg23
S'LDR'
p681
sg25
S'0xffffffc000568ddcL'
p682
sg27
Nsba(ibclass
BInstr
p683
(dp684
g2
Nsg17
S'B               loc_FFFFFFC000568D7C'
p685
sg19
S'e7ffff17'
p686
sg21
Vb #0xffffffffffffff9c
p687
sg5
L18446743798837317088L
sg6
Nsg23
g173
sg25
S'0xffffffc000568de0L'
p688
sg27
Nsbasg175
(lp689
S'MOV reg, reg0'
p690
aS'LDR reg0, mem'
p691
aS'B func'
p692
asg199
Nsg5
S'0xffffffc000568dd8L'
p693
sg201
(lp694
S'0xffffffc000568d90L'
p695
aS'0xffffffc000568da0L'
p696
aS'0xffffffc000568dacL'
p697
aS'0xffffffc000568dccL'
p698
asg6
Nsg203
(lp699
S'0xffffffc000568d7cL'
p700
asg207
Nsg208
Nsg209
S'59fec51b96903419ce74db6c8543c4e0'
p701
sg211
S'e653f114c99a38c2dbaf10ca86647b54'
p702
sg213
(lp703
g674
ag681
ag173
asg215
Nsba(ibclass
BBasicBlock
p704
(dp705
g12
Nsg13
(lp706
(ibclass
BInstr
p707
(dp708
g2
Nsg17
S'LDP             X19, X20, [SP,#0xB0+var_A0]'
p709
sg19
S'f35341a9'
p710
sg21
Vldp x19, x20, [sp, #0x10]
p711
sg5
L18446743798837317092L
sg6
Nsg23
S'LDP'
p712
sg25
S'0xffffffc000568de4L'
p713
sg27
Nsba(ibclass
BInstr
p714
(dp715
g2
Nsg17
S'LDP             X21, X22, [SP,#0xB0+var_90]'
p716
sg19
S'f55b42a9'
p717
sg21
Vldp x21, x22, [sp, #0x20]
p718
sg5
L18446743798837317096L
sg6
Nsg23
S'LDP'
p719
sg25
S'0xffffffc000568de8L'
p720
sg27
Nsba(ibclass
BInstr
p721
(dp722
g2
Nsg17
S'LDR             X23, [SP,#0xB0+var_80]'
p723
sg19
S'f71b40f9'
p724
sg21
Vldr x23, [sp, #0x30]
p725
sg5
L18446743798837317100L
sg6
Nsg23
S'LDR'
p726
sg25
S'0xffffffc000568decL'
p727
sg27
Nsba(ibclass
BInstr
p728
(dp729
g2
Nsg17
S'LDP             X29, X30, [SP+0xB0+var_B0],#0xC0'
p730
sg19
S'fd7bcca8'
p731
sg21
Vldp x29, x30, [sp], #0xc0
p732
sg5
L18446743798837317104L
sg6
Nsg23
S'LDP'
p733
sg25
S'0xffffffc000568df0L'
p734
sg27
Nsba(ibclass
BInstr
p735
(dp736
g2
Nsg17
S'RET'
p737
sg19
S'c0035fd6'
p738
sg21
Vret 
p739
sg5
L18446743798837317108L
sg6
Nsg23
S'RET'
p740
sg25
S'0xffffffc000568df4L'
p741
sg27
Nsbasg175
(lp742
S'LDP reg9, reg0, mem'
p743
aS'LDP reg1, reg2, mem'
p744
aS'LDR reg3, mem'
p745
aS'LDP reg9, reg0, mem,#0xC0'
p746
ag737
asg199
Nsg5
S'0xffffffc000568de4L'
p747
sg201
(lp748
S'0xffffffc000568d7cL'
p749
asg6
Nsg203
(lp750
sg207
Nsg208
Nsg209
S'1e0216626bc1d2c4a3818c295262fb77'
p751
sg211
S'7ecd8da9073c13ff8b75ff61a27f154e'
p752
sg213
(lp753
g712
ag719
ag726
ag733
ag740
asg215
Nsbasb.