(ibclass
BFunc
p0
(dp1
S'hash'
p2
NsS'name'
p3
S'has_ns_capability_noaudit'
p4
sS'start_address'
p5
L18446743798833904300L
sS'flag'
p6
NsS'program'
p7
NsS'bbs'
p8
(lp9
(ibclass
BBasicBlock
p10
(dp11
S'function'
p12
NsS'binstrs'
p13
(lp14
(ibclass
BInstr
p15
(dp16
g2
NsS'disasm'
p17
S'STP             X29, X30, [SP,#-0x10+var_20]!'
p18
sS'bytes'
p19
S'fd7bbda9'
p20
sS'disasm_striped'
p21
Vstp x29, x30, [sp, #-0x30]!
p22
sg5
L18446743798833904300L
sg6
NsS'mnem'
p23
S'STP'
p24
sS'address'
p25
S'0xffffffc000227aacL'
p26
sS'basicblock'
p27
Nsba(ibclass
BInstr
p28
(dp29
g2
Nsg17
S'MOV             X29, SP'
p30
sg19
S'fd030091'
p31
sg21
Vmov x29, sp
p32
sg5
L18446743798833904304L
sg6
Nsg23
S'MOV'
p33
sg25
S'0xffffffc000227ab0L'
p34
sg27
Nsba(ibclass
BInstr
p35
(dp36
g2
Nsg17
S'STR             X0, [X29,#0x20+var_s0]'
p37
sg19
S'a01300f9'
p38
sg21
Vstr x0, [x29, #0x20]
p39
sg5
L18446743798833904308L
sg6
Nsg23
S'STR'
p40
sg25
S'0xffffffc000227ab4L'
p41
sg27
Nsba(ibclass
BInstr
p42
(dp43
g2
Nsg17
S'STR             X1, [X29,#0x20+var_10]'
p44
sg19
S'a10b00f9'
p45
sg21
Vstr x1, [x29, #0x10]
p46
sg5
L18446743798833904312L
sg6
Nsg23
S'STR'
p47
sg25
S'0xffffffc000227ab8L'
p48
sg27
Nsba(ibclass
BInstr
p49
(dp50
g2
Nsg17
S'STR             X2, [X29,#0x20+var_8]'
p51
sg19
S'a20f00f9'
p52
sg21
Vstr x2, [x29, #0x18]
p53
sg5
L18446743798833904316L
sg6
Nsg23
S'STR'
p54
sg25
S'0xffffffc000227abcL'
p55
sg27
Nsba(ibclass
BInstr
p56
(dp57
g2
Nsg17
S'BL              __rcu_read_lock'
p58
sg19
S'c44c0094'
p59
sg21
Vbl #0x13310
p60
sg5
L18446743798833904320L
sg6
Nsg23
S'BL'
p61
sg25
S'0xffffffc000227ac0L'
p62
sg27
Nsba(ibclass
BInstr
p63
(dp64
g2
Nsg17
S'LDR             X0, [X29,#0x20+var_s0]'
p65
sg19
S'a01340f9'
p66
sg21
Vldr x0, [x29, #0x20]
p67
sg5
L18446743798833904324L
sg6
Nsg23
S'LDR'
p68
sg25
S'0xffffffc000227ac4L'
p69
sg27
Nsba(ibclass
BInstr
p70
(dp71
g2
Nsg17
S'LDR             X1, [X29,#0x20+var_10]'
p72
sg19
S'a10b40f9'
p73
sg21
Vldr x1, [x29, #0x10]
p74
sg5
L18446743798833904328L
sg6
Nsg23
S'LDR'
p75
sg25
S'0xffffffc000227ac8L'
p76
sg27
Nsba(ibclass
BInstr
p77
(dp78
g2
Nsg17
S'LDR             X2, [X29,#0x20+var_8]'
p79
sg19
S'a20f40f9'
p80
sg21
Vldr x2, [x29, #0x18]
p81
sg5
L18446743798833904332L
sg6
Nsg23
S'LDR'
p82
sg25
S'0xffffffc000227accL'
p83
sg27
Nsba(ibclass
BInstr
p84
(dp85
g2
Nsg17
S'LDR             X0, [X0,#0x4D0]'
p86
sg19
S'006842f9'
p87
sg21
Vldr x0, [x0, #0x4d0]
p88
sg5
L18446743798833904336L
sg6
Nsg23
S'LDR'
p89
sg25
S'0xffffffc000227ad0L'
p90
sg27
Nsba(ibclass
BInstr
p91
(dp92
g2
Nsg17
S'BL              security_capable_noaudit'
p93
sg19
S'48960694'
p94
sg21
Vbl #0x1a5920
p95
sg5
L18446743798833904340L
sg6
Nsg23
S'BL'
p96
sg25
S'0xffffffc000227ad4L'
p97
sg27
Nsba(ibclass
BInstr
p98
(dp99
g2
Nsg17
S'STR             X0, [X29,#0x20+var_s0]'
p100
sg19
S'a01300f9'
p101
sg21
Vstr x0, [x29, #0x20]
p102
sg5
L18446743798833904344L
sg6
Nsg23
S'STR'
p103
sg25
S'0xffffffc000227ad8L'
p104
sg27
Nsba(ibclass
BInstr
p105
(dp106
g2
Nsg17
S'BL              __rcu_read_unlock'
p107
sg19
S'c44c0094'
p108
sg21
Vbl #0x13310
p109
sg5
L18446743798833904348L
sg6
Nsg23
S'BL'
p110
sg25
S'0xffffffc000227adcL'
p111
sg27
Nsba(ibclass
BInstr
p112
(dp113
g2
Nsg17
S'LDR             X0, [X29,#0x20+var_s0]'
p114
sg19
S'a01340f9'
p115
sg21
Vldr x0, [x29, #0x20]
p116
sg5
L18446743798833904352L
sg6
Nsg23
S'LDR'
p117
sg25
S'0xffffffc000227ae0L'
p118
sg27
Nsba(ibclass
BInstr
p119
(dp120
g2
Nsg17
S'LDP             X29, X30, [SP+0x20+var_20],#0x30'
p121
sg19
S'fd7bc3a8'
p122
sg21
Vldp x29, x30, [sp], #0x30
p123
sg5
L18446743798833904356L
sg6
Nsg23
S'LDP'
p124
sg25
S'0xffffffc000227ae4L'
p125
sg27
Nsba(ibclass
BInstr
p126
(dp127
g2
Nsg17
S'CMP             W0, WZR'
p128
sg19
S'1f001f6b'
p129
sg21
Vcmp w0, wzr
p130
sg5
L18446743798833904360L
sg6
Nsg23
S'CMP'
p131
sg25
S'0xffffffc000227ae8L'
p132
sg27
Nsba(ibclass
BInstr
p133
(dp134
g2
Nsg17
S'CSET            W0, EQ'
p135
sg19
S'e0179f1a'
p136
sg21
Vcset w0, eq
p137
sg5
L18446743798833904364L
sg6
Nsg23
S'CSET'
p138
sg25
S'0xffffffc000227aecL'
p139
sg27
Nsba(ibclass
BInstr
p140
(dp141
g2
Nsg17
S'RET'
p142
sg19
S'c0035fd6'
p143
sg21
Vret 
p144
sg5
L18446743798833904368L
sg6
Nsg23
S'RET'
p145
sg25
S'0xffffffc000227af0L'
p146
sg27
NsbasS'disasm_list'
p147
(lp148
S'STP reg9, reg0, mem!'
p149
aS'MOV reg9, SP'
p150
aS'STR reg, mem'
p151
aS'STR reg, mem'
p152
aS'STR reg, mem'
p153
aS'BL __rcu_read_lock'
p154
aS'LDR reg, mem'
p155
aS'LDR reg, mem'
p156
aS'LDR reg, mem'
p157
aS'LDR reg, mem'
p158
aS'BL security_capable_noaudit'
p159
aS'STR reg, mem'
p160
aS'BL __rcu_read_unlock'
p161
aS'LDR reg, mem'
p162
aS'LDP reg9, reg0, mem,#0x30'
p163
aS'CMP reg, WZR'
p164
aS'CSET reg, EQ'
p165
ag142
asS'end_address'
p166
Nsg5
S'0xffffffc000227aacL'
p167
sS'preds'
p168
(lp169
sg6
NsS'succs'
p170
(lp171
sS'hash_v3'
p172
NsS'flag_v2'
p173
NsS'hash_v1'
p174
S'f0e1163f368c1c50e75504652af40aef'
p175
sS'hash_v2'
p176
S'c7c9915667cdf7fc6484fb06de102e76'
p177
sS'mnen_list'
p178
(lp179
g24
ag33
ag40
ag47
ag54
ag61
ag68
ag75
ag82
ag89
ag96
ag103
ag110
ag117
ag124
ag131
ag138
ag145
asS'neighbour_disasm_list'
p180
Nsbasb.