(ibclass
BFunc
p0
(dp1
S'hash'
p2
NsS'name'
p3
S'hfi_process_session_rel_buf_done'
p4
sS'start_address'
p5
L18446743798839766200L
sS'flag'
p6
NsS'program'
p7
NsS'bbs'
p8
(lp9
(ibclass
BBasicBlock
p10
(dp11
S'function'
p12
NsS'binstrs'
p13
(lp14
(ibclass
BInstr
p15
(dp16
g2
NsS'disasm'
p17
S'STP             X29, X30, [SP,#-0x10+var_40]!'
p18
sS'bytes'
p19
S'fd7bbba9'
p20
sS'disasm_striped'
p21
Vstp x29, x30, [sp, #-0x50]!
p22
sg5
L18446743798839766200L
sg6
NsS'mnem'
p23
S'STP'
p24
sS'address'
p25
S'0xffffffc0007becb8L'
p26
sS'basicblock'
p27
Nsba(ibclass
BInstr
p28
(dp29
g2
Nsg17
S'MOV             X29, SP'
p30
sg19
S'fd030091'
p31
sg21
Vmov x29, sp
p32
sg5
L18446743798839766204L
sg6
Nsg23
S'MOV'
p33
sg25
S'0xffffffc0007becbcL'
p34
sg27
Nsba(ibclass
BInstr
p35
(dp36
g2
Nsg17
S'STP             X19, X20, [SP,#0x40+var_30]'
p37
sg19
S'f35301a9'
p38
sg21
Vstp x19, x20, [sp, #0x10]
p39
sg5
L18446743798839766208L
sg6
Nsg23
S'STP'
p40
sg25
S'0xffffffc0007becc0L'
p41
sg27
Nsba(ibclass
BInstr
p42
(dp43
g2
Nsg17
S'STP             X21, X22, [SP,#0x40+var_20]'
p44
sg19
S'f55b02a9'
p45
sg21
Vstp x21, x22, [sp, #0x20]
p46
sg5
L18446743798839766212L
sg6
Nsg23
S'STP'
p47
sg25
S'0xffffffc0007becc4L'
p48
sg27
Nsba(ibclass
BInstr
p49
(dp50
g2
Nsg17
S'MOV             X19, X3'
p51
sg19
S'f30303aa'
p52
sg21
Vmov x19, x3
p53
sg5
L18446743798839766216L
sg6
Nsg23
S'MOV'
p54
sg25
S'0xffffffc0007becc8L'
p55
sg27
Nsba(ibclass
BInstr
p56
(dp57
g2
Nsg17
S'STP             XZR, XZR, [X29,#0x40+var_10]'
p58
sg19
S'bf7f03a9'
p59
sg21
Vstp xzr, xzr, [x29, #0x30]
p60
sg5
L18446743798839766220L
sg6
Nsg23
S'STP'
p61
sg25
S'0xffffffc0007becccL'
p62
sg27
Nsba(ibclass
BInstr
p63
(dp64
g2
Nsg17
S'STP             XZR, XZR, [X29,#0x40+var_s0]'
p65
sg19
S'bf7f04a9'
p66
sg21
Vstp xzr, xzr, [x29, #0x40]
p67
sg5
L18446743798839766224L
sg6
Nsg23
S'STP'
p68
sg25
S'0xffffffc0007becd0L'
p69
sg27
Nsba(ibclass
BInstr
p70
(dp71
g2
Nsg17
S'MOV             X20, X0'
p72
sg19
S'f40300aa'
p73
sg21
Vmov x20, x0
p74
sg5
L18446743798839766228L
sg6
Nsg23
S'MOV'
p75
sg25
S'0xffffffc0007becd4L'
p76
sg27
Nsba(ibclass
BInstr
p77
(dp78
g2
Nsg17
S'MOV             W22, W1'
p79
sg19
S'f603012a'
p80
sg21
Vmov w22, w1
p81
sg5
L18446743798839766232L
sg6
Nsg23
S'MOV'
p82
sg25
S'0xffffffc0007becd8L'
p83
sg27
Nsba(ibclass
BInstr
p84
(dp85
g2
Nsg17
S'MOV             X21, X2'
p86
sg19
S'f50302aa'
p87
sg21
Vmov x21, x2
p88
sg5
L18446743798839766236L
sg6
Nsg23
S'MOV'
p89
sg25
S'0xffffffc0007becdcL'
p90
sg27
Nsba(ibclass
BInstr
p91
(dp92
g2
Nsg17
S'ADRP            X3, #qword_FFFFFFC000E440A0@PAGE'
p93
sg19
S'233400d0'
p94
sg21
Vadrp x3, #0x686000
p95
sg5
L18446743798839766240L
sg6
Nsg23
S'ADRP'
p96
sg25
S'0xffffffc0007bece0L'
p97
sg27
Nsba(ibclass
BInstr
p98
(dp99
g2
Nsg17
S'CBZ             X19, loc_FFFFFFC0007BECF4'
p100
sg19
S'930000b4'
p101
sg21
Vcbz x19, #0x10
p102
sg5
L18446743798839766244L
sg6
Nsg23
S'CBZ'
p103
sg25
S'0xffffffc0007bece4L'
p104
sg27
NsbasS'disasm_list'
p105
(lp106
S'STP reg9, reg0, mem!'
p107
aS'MOV reg9, SP'
p108
aS'STP reg9, reg0, mem'
p109
aS'STP reg1, reg2, mem'
p110
aS'MOV reg9, reg'
p111
aS'STP XZR, XZR, mem'
p112
aS'STP XZR, XZR, mem'
p113
aS'MOV reg0, reg'
p114
aS'MOV reg2, reg'
p115
aS'MOV reg1, reg'
p116
aS'ADRP reg, #func@PAGE'
p117
aS'CBZ reg9, func'
p118
asS'end_address'
p119
Nsg5
S'0xffffffc0007becb8L'
p120
sS'preds'
p121
(lp122
sg6
NsS'succs'
p123
(lp124
S'0xffffffc0007bece8L'
p125
aS'0xffffffc0007becf4L'
p126
asS'hash_v3'
p127
NsS'flag_v2'
p128
NsS'hash_v1'
p129
S'8dd4f6ea24c659ce52bf6c5bda15d13b'
p130
sS'hash_v2'
p131
S'b791311e0bac9942ad6b633962e49a67'
p132
sS'mnen_list'
p133
(lp134
g24
ag33
ag40
ag47
ag54
ag61
ag68
ag75
ag82
ag89
ag96
ag103
asS'neighbour_disasm_list'
p135
Nsba(ibclass
BBasicBlock
p136
(dp137
g12
Nsg13
(lp138
(ibclass
BInstr
p139
(dp140
g2
Nsg17
S'LDR             W0, [X19]'
p141
sg19
S'600240b9'
p142
sg21
Vldr w0, [x19]
p143
sg5
L18446743798839766248L
sg6
Nsg23
S'LDR'
p144
sg25
S'0xffffffc0007bece8L'
p145
sg27
Nsba(ibclass
BInstr
p146
(dp147
g2
Nsg17
S'CMP             W0, #0x17'
p148
sg19
S'1f5c0071'
p149
sg21
Vcmp w0, #0x17
p150
sg5
L18446743798839766252L
sg6
Nsg23
S'CMP'
p151
sg25
S'0xffffffc0007bececL'
p152
sg27
Nsba(ibclass
BInstr
p153
(dp154
g2
Nsg17
S'B.HI            loc_FFFFFFC0007BED38'
p155
sg19
S'48020054'
p156
sg21
Vb.hi #0x48
p157
sg5
L18446743798839766256L
sg6
Nsg23
S'B'
p158
sg25
S'0xffffffc0007becf0L'
p159
sg27
Nsbasg105
(lp160
S'LDR reg, mem'
p161
aS'CMP reg, #0x17'
p162
aS'B.HI func'
p163
asg119
Nsg5
S'0xffffffc0007bece8L'
p164
sg121
(lp165
S'0xffffffc0007becb8L'
p166
asg6
Nsg123
(lp167
S'0xffffffc0007becf4L'
p168
aS'0xffffffc0007bed38L'
p169
asg127
Nsg128
Nsg129
S'fa4df767a85c49648339e2dc5c6807f6'
p170
sg131
S'c9e6de06bbd2d25524f89eeded4eab99'
p171
sg133
(lp172
g144
ag151
ag158
asg135
Nsba(ibclass
BBasicBlock
p173
(dp174
g12
Nsg13
(lp175
(ibclass
BInstr
p176
(dp177
g2
Nsg17
S'LDR             X3, [X3,#qword_FFFFFFC000E440A0@PAGEOFF]'
p178
sg19
S'635040f9'
p179
sg21
Vldr x3, [x3, #0xa0]
p180
sg5
L18446743798839766260L
sg6
Nsg23
S'LDR'
p181
sg25
S'0xffffffc0007becf4L'
p182
sg27
Nsba(ibclass
BInstr
p183
(dp184
g2
Nsg17
S'LDR             W0, [X3]'
p185
sg19
S'600040b9'
p186
sg21
Vldr w0, [x3]
p187
sg5
L18446743798839766264L
sg6
Nsg23
S'LDR'
p188
sg25
S'0xffffffc0007becf8L'
p189
sg27
Nsba(ibclass
BInstr
p190
(dp191
g2
Nsg17
S'TBZ             W0, #0, loc_FFFFFFC0007BED9C'
p192
sg19
S'00050036'
p193
sg21
Vtbz w0, #0, #0xa0
p194
sg5
L18446743798839766268L
sg6
Nsg23
S'TBZ'
p195
sg25
S'0xffffffc0007becfcL'
p196
sg27
Nsbasg105
(lp197
S'LDR reg, mem'
p198
aS'LDR reg, mem'
p199
aS'TBZ reg, #0, func'
p200
asg119
Nsg5
S'0xffffffc0007becf4L'
p201
sg121
(lp202
S'0xffffffc0007becb8L'
p203
aS'0xffffffc0007bece8L'
p204
asg6
Nsg123
(lp205
S'0xffffffc0007bed00L'
p206
aS'0xffffffc0007bed9cL'
p207
asg127
Nsg128
Nsg129
S'ac18b97d3a767be1a0530f85211830b6'
p208
sg131
S'cfb0ff94d456b2f240c58b5e12918539'
p209
sg133
(lp210
g181
ag188
ag195
asg135
Nsba(ibclass
BBasicBlock
p211
(dp212
g12
Nsg13
(lp213
(ibclass
BInstr
p214
(dp215
g2
Nsg17
S'ADRP            X0, #qword_FFFFFFC000E42548@PAGE'
p216
sg19
S'20340090'
p217
sg21
Vadrp x0, #0x684000
p218
sg5
L18446743798839766272L
sg6
Nsg23
S'ADRP'
p219
sg25
S'0xffffffc0007bed00L'
p220
sg27
Nsba(ibclass
BInstr
p221
(dp222
g2
Nsg17
S'LDR             X0, [X0,#qword_FFFFFFC000E42548@PAGEOFF]'
p223
sg19
S'00a442f9'
p224
sg21
Vldr x0, [x0, #0x548]
p225
sg5
L18446743798839766276L
sg6
Nsg23
S'LDR'
p226
sg25
S'0xffffffc0007bed04L'
p227
sg27
Nsba(ibclass
BInstr
p228
(dp229
g2
Nsg17
S'LDR             W0, [X0]'
p230
sg19
S'000040b9'
p231
sg21
Vldr w0, [x0]
p232
sg5
L18446743798839766280L
sg6
Nsg23
S'LDR'
p233
sg25
S'0xffffffc0007bed08L'
p234
sg27
Nsba(ibclass
BInstr
p235
(dp236
g2
Nsg17
S'CBNZ            W0, loc_FFFFFFC0007BED9C'
p237
sg19
S'80040035'
p238
sg21
Vcbnz w0, #0x90
p239
sg5
L18446743798839766284L
sg6
Nsg23
S'CBNZ'
p240
sg25
S'0xffffffc0007bed0cL'
p241
sg27
Nsbasg105
(lp242
S'ADRP reg, #func@PAGE'
p243
aS'LDR reg, mem'
p244
aS'LDR reg, mem'
p245
aS'CBNZ reg, func'
p246
asg119
Nsg5
S'0xffffffc0007bed00L'
p247
sg121
(lp248
S'0xffffffc0007becf4L'
p249
asg6
Nsg123
(lp250
S'0xffffffc0007bed10L'
p251
aS'0xffffffc0007bed9cL'
p252
asg127
Nsg128
Nsg129
S'9c97521b8b0f280d47a50ec9a5e4f86f'
p253
sg131
S'bd26f8893557dc5fa132ff2490be0ebf'
p254
sg133
(lp255
g219
ag226
ag233
ag240
asg135
Nsba(ibclass
BBasicBlock
p256
(dp257
g12
Nsg13
(lp258
(ibclass
BInstr
p259
(dp260
g2
Nsg17
S'CBZ             X19, loc_FFFFFFC0007BED1C'
p261
sg19
S'730000b4'
p262
sg21
Vcbz x19, #0xc
p263
sg5
L18446743798839766288L
sg6
Nsg23
S'CBZ'
p264
sg25
S'0xffffffc0007bed10L'
p265
sg27
Nsbasg105
(lp266
S'CBZ reg9, func'
p267
asg119
Nsg5
S'0xffffffc0007bed10L'
p268
sg121
(lp269
S'0xffffffc0007bed00L'
p270
asg6
Nsg123
(lp271
S'0xffffffc0007bed14L'
p272
aS'0xffffffc0007bed1cL'
p273
asg127
Nsg128
Nsg129
S'de8e361453cf9f764a4abe9d486f8fbe'
p274
sg131
S'830c6bea92de9557dd5d63ad5b77ee9d'
p275
sg133
(lp276
g264
asg135
Nsba(ibclass
BBasicBlock
p277
(dp278
g12
Nsg13
(lp279
(ibclass
BInstr
p280
(dp281
g2
Nsg17
S'LDR             W2, [X19]'
p282
sg19
S'620240b9'
p283
sg21
Vldr w2, [x19]
p284
sg5
L18446743798839766292L
sg6
Nsg23
S'LDR'
p285
sg25
S'0xffffffc0007bed14L'
p286
sg27
Nsba(ibclass
BInstr
p287
(dp288
g2
Nsg17
S'B               loc_FFFFFFC0007BED20'
p289
sg19
S'02000014'
p290
sg21
Vb #8
p291
sg5
L18446743798839766296L
sg6
Nsg23
g158
sg25
S'0xffffffc0007bed18L'
p292
sg27
Nsbasg105
(lp293
S'LDR reg, mem'
p294
aS'B func'
p295
asg119
Nsg5
S'0xffffffc0007bed14L'
p296
sg121
(lp297
S'0xffffffc0007bed10L'
p298
asg6
Nsg123
(lp299
S'0xffffffc0007bed20L'
p300
asg127
Nsg128
Nsg129
S'd269f92813b7f9be0535ea2960d9947c'
p301
sg131
S'ae729ca63de59cc36787fc83d808cb9e'
p302
sg133
(lp303
g285
ag158
asg135
Nsba(ibclass
BBasicBlock
p304
(dp305
g12
Nsg13
(lp306
(ibclass
BInstr
p307
(dp308
g2
Nsg17
S'MOV             W2, W19'
p309
sg19
S'e203132a'
p310
sg21
Vmov w2, w19
p311
sg5
L18446743798839766300L
sg6
Nsg23
S'MOV'
p312
sg25
S'0xffffffc0007bed1cL'
p313
sg27
Nsbasg105
(lp314
S'MOV reg, reg9'
p315
asg119
Nsg5
S'0xffffffc0007bed1cL'
p316
sg121
(lp317
S'0xffffffc0007bed10L'
p318
asg6
Nsg123
(lp319
S'0xffffffc0007bed20L'
p320
asg127
Nsg128
Nsg129
S'17b32100aef1fc19670be7fd58bc85df'
p321
sg131
S'a4b54317fbf3a1e024a6b7f7c73546da'
p322
sg133
(lp323
g312
asg135
Nsba(ibclass
BBasicBlock
p324
(dp325
g12
Nsg13
(lp326
(ibclass
BInstr
p327
(dp328
g2
Nsg17
S'ADRP            X0, #unk_FFFFFFC0013C1637@PAGE'
p329
sg19
S'006000f0'
p330
sg21
Vadrp x0, #0xc03000
p331
sg5
L18446743798839766304L
sg6
Nsg23
S'ADRP'
p332
sg25
S'0xffffffc0007bed20L'
p333
sg27
Nsba(ibclass
BInstr
p334
(dp335
g2
Nsg17
S'ADRP            X1, #(aQcomMdssDsi_17+0x1B)@PAGE; "err"'
p336
sg19
S'815b00b0'
p337
sg21
Vadrp x1, #0xb71000
p338
sg5
L18446743798839766308L
sg6
Nsg23
S'ADRP'
p339
sg25
S'0xffffffc0007bed24L'
p340
sg27
Nsba(ibclass
BInstr
p341
(dp342
g2
Nsg17
S'ADD             X1, X1, #(aQcomMdssDsi_17+0x1B)@PAGEOFF; "err"'
p343
sg19
S'212c0591'
p344
sg21
Vadd x1, x1, #0x14b
p345
sg5
L18446743798839766312L
sg6
Nsg23
S'ADD'
p346
sg25
S'0xffffffc0007bed28L'
p347
sg27
Nsba(ibclass
BInstr
p348
(dp349
g2
Nsg17
S'ADD             X0, X0, #unk_FFFFFFC0013C1637@PAGEOFF'
p350
sg19
S'00dc1891'
p351
sg21
Vadd x0, x0, #0x637
p352
sg5
L18446743798839766316L
sg6
Nsg23
S'ADD'
p353
sg25
S'0xffffffc0007bed2cL'
p354
sg27
Nsba(ibclass
BInstr
p355
(dp356
g2
Nsg17
S'BL              printk'
p357
sg19
S'11b91994'
p358
sg21
Vbl #0x66e444
p359
sg5
L18446743798839766320L
sg6
Nsg23
S'BL'
p360
sg25
S'0xffffffc0007bed30L'
p361
sg27
Nsba(ibclass
BInstr
p362
(dp363
g2
Nsg17
S'B               loc_FFFFFFC0007BED9C'
p364
sg19
S'1a000014'
p365
sg21
Vb #0x68
p366
sg5
L18446743798839766324L
sg6
Nsg23
g158
sg25
S'0xffffffc0007bed34L'
p367
sg27
Nsbasg105
(lp368
S'ADRP reg, #func@PAGE'
p369
aS'ADRP reg, #(aQcomMdssDsi_17+0x1B)@PAGE'
p370
aS'ADD reg, reg, #(aQcomMdssDsi_17+0x1B)@PAGEOFF'
p371
aS'ADD reg, reg, #func@PAGEOFF'
p372
aS'BL printk'
p373
aS'B func'
p374
asg119
Nsg5
S'0xffffffc0007bed20L'
p375
sg121
(lp376
S'0xffffffc0007bed14L'
p377
aS'0xffffffc0007bed1cL'
p378
asg6
Nsg123
(lp379
S'0xffffffc0007bed9cL'
p380
asg127
Nsg128
Nsg129
S'b2a3927201f2643e37e238d870ced3c2'
p381
sg131
S'3e167cdac8f124cfbacea29ee5c30eb0'
p382
sg133
(lp383
g332
ag339
ag346
ag353
ag360
ag158
asg135
Nsba(ibclass
BBasicBlock
p384
(dp385
g12
Nsg13
(lp386
(ibclass
BInstr
p387
(dp388
g2
Nsg17
S'LDR             X3, [X3,#qword_FFFFFFC000E440A0@PAGEOFF]'
p389
sg19
S'635040f9'
p390
sg21
Vldr x3, [x3, #0xa0]
p391
sg5
L18446743798839766328L
sg6
Nsg23
S'LDR'
p392
sg25
S'0xffffffc0007bed38L'
p393
sg27
Nsba(ibclass
BInstr
p394
(dp395
g2
Nsg17
S'LDR             W0, [X3]'
p396
sg19
S'600040b9'
p397
sg21
Vldr w0, [x3]
p398
sg5
L18446743798839766332L
sg6
Nsg23
S'LDR'
p399
sg25
S'0xffffffc0007bed3cL'
p400
sg27
Nsba(ibclass
BInstr
p401
(dp402
g2
Nsg17
S'TBZ             W0, #3, loc_FFFFFFC0007BED68'
p403
sg19
S'40011836'
p404
sg21
Vtbz w0, #3, #0x28
p405
sg5
L18446743798839766336L
sg6
Nsg23
S'TBZ'
p406
sg25
S'0xffffffc0007bed40L'
p407
sg27
Nsbasg105
(lp408
S'LDR reg, mem'
p409
aS'LDR reg, mem'
p410
aS'TBZ reg, #3, func'
p411
asg119
Nsg5
S'0xffffffc0007bed38L'
p412
sg121
(lp413
S'0xffffffc0007bece8L'
p414
asg6
Nsg123
(lp415
S'0xffffffc0007bed44L'
p416
aS'0xffffffc0007bed68L'
p417
asg127
Nsg128
Nsg129
S'ac18b97d3a767be1a0530f85211830b6'
p418
sg131
S'b1146fe23cec63f1a8ccc474229ea6eb'
p419
sg133
(lp420
g392
ag399
ag406
asg135
Nsba(ibclass
BBasicBlock
p421
(dp422
g12
Nsg13
(lp423
(ibclass
BInstr
p424
(dp425
g2
Nsg17
S'ADRP            X0, #qword_FFFFFFC000E42548@PAGE'
p426
sg19
S'20340090'
p427
sg21
Vadrp x0, #0x684000
p428
sg5
L18446743798839766340L
sg6
Nsg23
S'ADRP'
p429
sg25
S'0xffffffc0007bed44L'
p430
sg27
Nsba(ibclass
BInstr
p431
(dp432
g2
Nsg17
S'LDR             X0, [X0,#qword_FFFFFFC000E42548@PAGEOFF]'
p433
sg19
S'00a442f9'
p434
sg21
Vldr x0, [x0, #0x548]
p435
sg5
L18446743798839766344L
sg6
Nsg23
S'LDR'
p436
sg25
S'0xffffffc0007bed48L'
p437
sg27
Nsba(ibclass
BInstr
p438
(dp439
g2
Nsg17
S'LDR             W0, [X0]'
p440
sg19
S'000040b9'
p441
sg21
Vldr w0, [x0]
p442
sg5
L18446743798839766348L
sg6
Nsg23
S'LDR'
p443
sg25
S'0xffffffc0007bed4cL'
p444
sg27
Nsba(ibclass
BInstr
p445
(dp446
g2
Nsg17
S'CBNZ            W0, loc_FFFFFFC0007BED68'
p447
sg19
S'c0000035'
p448
sg21
Vcbnz w0, #0x18
p449
sg5
L18446743798839766352L
sg6
Nsg23
S'CBNZ'
p450
sg25
S'0xffffffc0007bed50L'
p451
sg27
Nsbasg105
(lp452
S'ADRP reg, #func@PAGE'
p453
aS'LDR reg, mem'
p454
aS'LDR reg, mem'
p455
aS'CBNZ reg, func'
p456
asg119
Nsg5
S'0xffffffc0007bed44L'
p457
sg121
(lp458
S'0xffffffc0007bed38L'
p459
asg6
Nsg123
(lp460
S'0xffffffc0007bed54L'
p461
aS'0xffffffc0007bed68L'
p462
asg127
Nsg128
Nsg129
S'9c97521b8b0f280d47a50ec9a5e4f86f'
p463
sg131
S'bd26f8893557dc5fa132ff2490be0ebf'
p464
sg133
(lp465
g429
ag436
ag443
ag450
asg135
Nsba(ibclass
BBasicBlock
p466
(dp467
g12
Nsg13
(lp468
(ibclass
BInstr
p469
(dp470
g2
Nsg17
S'ADRP            X0, #unk_FFFFFFC0013C1663@PAGE'
p471
sg19
S'006000f0'
p472
sg21
Vadrp x0, #0xc03000
p473
sg5
L18446743798839766356L
sg6
Nsg23
S'ADRP'
p474
sg25
S'0xffffffc0007bed54L'
p475
sg27
Nsba(ibclass
BInstr
p476
(dp477
g2
Nsg17
S'ADRP            X1, #(aRulesDbg+6)@PAGE; "dbg"'
p478
sg19
S'e16600d0'
p479
sg21
Vadrp x1, #0xcde000
p480
sg5
L18446743798839766360L
sg6
Nsg23
S'ADRP'
p481
sg25
S'0xffffffc0007bed58L'
p482
sg27
Nsba(ibclass
BInstr
p483
(dp484
g2
Nsg17
S'ADD             X0, X0, #unk_FFFFFFC0013C1663@PAGEOFF'
p485
sg19
S'008c1991'
p486
sg21
Vadd x0, x0, #0x663
p487
sg5
L18446743798839766364L
sg6
Nsg23
S'ADD'
p488
sg25
S'0xffffffc0007bed5cL'
p489
sg27
Nsba(ibclass
BInstr
p490
(dp491
g2
Nsg17
S'ADD             X1, X1, #(aRulesDbg+6)@PAGEOFF; "dbg"'
p492
sg19
S'21883391'
p493
sg21
Vadd x1, x1, #0xce2
p494
sg5
L18446743798839766368L
sg6
Nsg23
S'ADD'
p495
sg25
S'0xffffffc0007bed60L'
p496
sg27
Nsba(ibclass
BInstr
p497
(dp498
g2
Nsg17
S'BL              printk'
p499
sg19
S'04b91994'
p500
sg21
Vbl #0x66e410
p501
sg5
L18446743798839766372L
sg6
Nsg23
S'BL'
p502
sg25
S'0xffffffc0007bed64L'
p503
sg27
Nsbasg105
(lp504
S'ADRP reg, #func@PAGE'
p505
aS'ADRP reg, #(aRulesDbg+6)@PAGE'
p506
aS'ADD reg, reg, #func@PAGEOFF'
p507
aS'ADD reg, reg, #(aRulesDbg+6)@PAGEOFF'
p508
aS'BL printk'
p509
asg119
Nsg5
S'0xffffffc0007bed54L'
p510
sg121
(lp511
S'0xffffffc0007bed44L'
p512
asg6
Nsg123
(lp513
S'0xffffffc0007bed68L'
p514
asg127
Nsg128
Nsg129
S'4bb3c333f0963e9d264d92b454a1960d'
p515
sg131
S'36534e33ccd44d7ab83b7abd909d3dd4'
p516
sg133
(lp517
g474
ag481
ag488
ag495
ag502
asg135
Nsba(ibclass
BBasicBlock
p518
(dp519
g12
Nsg13
(lp520
(ibclass
BInstr
p521
(dp522
g2
Nsg17
S'LDR             X0, [X21,#0x10]'
p523
sg19
S'a00a40f9'
p524
sg21
Vldr x0, [x21, #0x10]
p525
sg5
L18446743798839766376L
sg6
Nsg23
S'LDR'
p526
sg25
S'0xffffffc0007bed68L'
p527
sg27
Nsba(ibclass
BInstr
p528
(dp529
g2
Nsg17
S'STR             W22, [X29,#arg_20]'
p530
sg19
S'b63300b9'
p531
sg21
Vstr w22, [x29, #0x30]
p532
sg5
L18446743798839766380L
sg6
Nsg23
S'STR'
p533
sg25
S'0xffffffc0007bed6cL'
p534
sg27
Nsba(ibclass
BInstr
p535
(dp536
g2
Nsg17
S'STR             X0, [X29,#arg_28]'
p537
sg19
S'a01f00f9'
p538
sg21
Vstr x0, [x29, #0x38]
p539
sg5
L18446743798839766384L
sg6
Nsg23
S'STR'
p540
sg25
S'0xffffffc0007bed70L'
p541
sg27
Nsba(ibclass
BInstr
p542
(dp543
g2
Nsg17
S'LDR             W0, [X19,#0xC]'
p544
sg19
S'600e40b9'
p545
sg21
Vldr w0, [x19, #0xc]
p546
sg5
L18446743798839766388L
sg6
Nsg23
S'LDR'
p547
sg25
S'0xffffffc0007bed74L'
p548
sg27
Nsba(ibclass
BInstr
p549
(dp550
g2
Nsg17
S'ADD             X19, X19, #0x14'
p551
sg19
S'73520091'
p552
sg21
Vadd x19, x19, #0x14
p553
sg5
L18446743798839766392L
sg6
Nsg23
S'ADD'
p554
sg25
S'0xffffffc0007bed78L'
p555
sg27
Nsba(ibclass
BInstr
p556
(dp557
g2
Nsg17
S'BL              hfi_map_err_status'
p558
sg19
S'35ffff97'
p559
sg21
Vbl #0xfffffffffffffcd4
p560
sg5
L18446743798839766396L
sg6
Nsg23
S'BL'
p561
sg25
S'0xffffffc0007bed7cL'
p562
sg27
Nsba(ibclass
BInstr
p563
(dp564
g2
Nsg17
S'STR             W0, [X29,#arg_30]'
p565
sg19
S'a04300b9'
p566
sg21
Vstr w0, [x29, #0x40]
p567
sg5
L18446743798839766400L
sg6
Nsg23
S'STR'
p568
sg25
S'0xffffffc0007bed80L'
p569
sg27
Nsba(ibclass
BInstr
p570
(dp571
g2
Nsg17
S'MOV             W0, #8'
p572
sg19
S'00018052'
p573
sg21
Vmovz w0, #0x8
p574
sg5
L18446743798839766404L
sg6
Nsg23
S'MOV'
p575
sg25
S'0xffffffc0007bed84L'
p576
sg27
Nsba(ibclass
BInstr
p577
(dp578
g2
Nsg17
S'STR             W0, [X29,#arg_34]'
p579
sg19
S'a04700b9'
p580
sg21
Vstr w0, [x29, #0x44]
p581
sg5
L18446743798839766408L
sg6
Nsg23
S'STR'
p582
sg25
S'0xffffffc0007bed88L'
p583
sg27
Nsba(ibclass
BInstr
p584
(dp585
g2
Nsg17
S'ADD             X1, X29, #0x30'
p586
sg19
S'a1c30091'
p587
sg21
Vadd x1, x29, #0x30
p588
sg5
L18446743798839766412L
sg6
Nsg23
S'ADD'
p589
sg25
S'0xffffffc0007bed8cL'
p590
sg27
Nsba(ibclass
BInstr
p591
(dp592
g2
Nsg17
S'MOV             W0, #0x19'
p593
sg19
S'20038052'
p594
sg21
Vmovz w0, #0x19
p595
sg5
L18446743798839766416L
sg6
Nsg23
S'MOV'
p596
sg25
S'0xffffffc0007bed90L'
p597
sg27
Nsba(ibclass
BInstr
p598
(dp599
g2
Nsg17
S'STR             X19, [X29,#arg_38]'
p600
sg19
S'b32700f9'
p601
sg21
Vstr x19, [x29, #0x48]
p602
sg5
L18446743798839766420L
sg6
Nsg23
S'STR'
p603
sg25
S'0xffffffc0007bed94L'
p604
sg27
Nsba(ibclass
BInstr
p605
(dp606
g2
Nsg17
S'BLR             X20'
p607
sg19
S'80023fd6'
p608
sg21
Vblr x20
p609
sg5
L18446743798839766424L
sg6
Nsg23
S'BLR'
p610
sg25
S'0xffffffc0007bed98L'
p611
sg27
Nsbasg105
(lp612
S'LDR reg, mem'
p613
aS'STR reg2, mem'
p614
aS'STR reg, mem'
p615
aS'LDR reg, mem'
p616
aS'ADD reg9, reg9, #0x14'
p617
aS'BL hfi_map_err_status'
p618
aS'STR reg, mem'
p619
aS'MOV reg, #8'
p620
aS'STR reg, mem'
p621
aS'ADD reg, reg9, #0x30'
p622
aS'MOV reg, #0x19'
p623
aS'STR reg9, mem'
p624
aS'BLR reg0'
p625
asg119
Nsg5
S'0xffffffc0007bed68L'
p626
sg121
(lp627
S'0xffffffc0007bed38L'
p628
aS'0xffffffc0007bed44L'
p629
aS'0xffffffc0007bed54L'
p630
asg6
Nsg123
(lp631
S'0xffffffc0007bed9cL'
p632
asg127
Nsg128
Nsg129
S'eac65b84393fdee86bab64fd624ed2b9'
p633
sg131
S'fd18848654a0ff36b9b5996e2230375f'
p634
sg133
(lp635
g526
ag533
ag540
ag547
ag554
ag561
ag568
ag575
ag582
ag589
ag596
ag603
ag610
asg135
Nsba(ibclass
BBasicBlock
p636
(dp637
g12
Nsg13
(lp638
(ibclass
BInstr
p639
(dp640
g2
Nsg17
S'LDP             X19, X20, [SP,#0x40+var_30]'
p641
sg19
S'f35341a9'
p642
sg21
Vldp x19, x20, [sp, #0x10]
p643
sg5
L18446743798839766428L
sg6
Nsg23
S'LDP'
p644
sg25
S'0xffffffc0007bed9cL'
p645
sg27
Nsba(ibclass
BInstr
p646
(dp647
g2
Nsg17
S'LDP             X21, X22, [SP,#0x40+var_20]'
p648
sg19
S'f55b42a9'
p649
sg21
Vldp x21, x22, [sp, #0x20]
p650
sg5
L18446743798839766432L
sg6
Nsg23
S'LDP'
p651
sg25
S'0xffffffc0007beda0L'
p652
sg27
Nsba(ibclass
BInstr
p653
(dp654
g2
Nsg17
S'LDP             X29, X30, [SP+0x40+var_40],#0x50'
p655
sg19
S'fd7bc5a8'
p656
sg21
Vldp x29, x30, [sp], #0x50
p657
sg5
L18446743798839766436L
sg6
Nsg23
S'LDP'
p658
sg25
S'0xffffffc0007beda4L'
p659
sg27
Nsba(ibclass
BInstr
p660
(dp661
g2
Nsg17
S'RET'
p662
sg19
S'c0035fd6'
p663
sg21
Vret 
p664
sg5
L18446743798839766440L
sg6
Nsg23
S'RET'
p665
sg25
S'0xffffffc0007beda8L'
p666
sg27
Nsbasg105
(lp667
S'LDP reg9, reg0, mem'
p668
aS'LDP reg1, reg2, mem'
p669
aS'LDP reg9, reg0, mem,#0x50'
p670
ag662
asg119
Nsg5
S'0xffffffc0007bed9cL'
p671
sg121
(lp672
S'0xffffffc0007becf4L'
p673
aS'0xffffffc0007bed00L'
p674
aS'0xffffffc0007bed20L'
p675
aS'0xffffffc0007bed68L'
p676
asg6
Nsg123
(lp677
sg127
Nsg128
Nsg129
S'e506acdec8f0d1b80ba12a70d6d398f7'
p678
sg131
S'2538b1b6e4f21f59fd7bd4d570d1363d'
p679
sg133
(lp680
g644
ag651
ag658
ag665
asg135
Nsbasb.