(ibclass
BFunc
p0
(dp1
S'hash'
p2
NsS'name'
p3
S'hfi_process_session_rel_res_done'
p4
sS'start_address'
p5
L18446743798839766976L
sS'flag'
p6
NsS'program'
p7
NsS'bbs'
p8
(lp9
(ibclass
BBasicBlock
p10
(dp11
S'function'
p12
NsS'binstrs'
p13
(lp14
(ibclass
BInstr
p15
(dp16
g2
NsS'disasm'
p17
S'STP             X29, X30, [SP,#-0x10+var_50]!'
p18
sS'bytes'
p19
S'fd7bbaa9'
p20
sS'disasm_striped'
p21
Vstp x29, x30, [sp, #-0x60]!
p22
sg5
L18446743798839766976L
sg6
NsS'mnem'
p23
S'STP'
p24
sS'address'
p25
S'0xffffffc0007befc0L'
p26
sS'basicblock'
p27
Nsba(ibclass
BInstr
p28
(dp29
g2
Nsg17
S'MOV             X29, SP'
p30
sg19
S'fd030091'
p31
sg21
Vmov x29, sp
p32
sg5
L18446743798839766980L
sg6
Nsg23
S'MOV'
p33
sg25
S'0xffffffc0007befc4L'
p34
sg27
Nsba(ibclass
BInstr
p35
(dp36
g2
Nsg17
S'ADRP            X4, #qword_FFFFFFC000E440A0@PAGE'
p37
sg19
S'243400d0'
p38
sg21
Vadrp x4, #0x686000
p39
sg5
L18446743798839766984L
sg6
Nsg23
S'ADRP'
p40
sg25
S'0xffffffc0007befc8L'
p41
sg27
Nsba(ibclass
BInstr
p42
(dp43
g2
Nsg17
S'STP             X19, X20, [SP,#0x50+var_40]'
p44
sg19
S'f35301a9'
p45
sg21
Vstp x19, x20, [sp, #0x10]
p46
sg5
L18446743798839766988L
sg6
Nsg23
S'STP'
p47
sg25
S'0xffffffc0007befccL'
p48
sg27
Nsba(ibclass
BInstr
p49
(dp50
g2
Nsg17
S'MOV             X19, X0'
p51
sg19
S'f30300aa'
p52
sg21
Vmov x19, x0
p53
sg5
L18446743798839766992L
sg6
Nsg23
S'MOV'
p54
sg25
S'0xffffffc0007befd0L'
p55
sg27
Nsba(ibclass
BInstr
p56
(dp57
g2
Nsg17
S'LDR             X0, [X4,#qword_FFFFFFC000E440A0@PAGEOFF]'
p58
sg19
S'805040f9'
p59
sg21
Vldr x0, [x4, #0xa0]
p60
sg5
L18446743798839766996L
sg6
Nsg23
S'LDR'
p61
sg25
S'0xffffffc0007befd4L'
p62
sg27
Nsba(ibclass
BInstr
p63
(dp64
g2
Nsg17
S'STP             X21, X22, [SP,#0x50+var_30]'
p65
sg19
S'f55b02a9'
p66
sg21
Vstp x21, x22, [sp, #0x20]
p67
sg5
L18446743798839767000L
sg6
Nsg23
S'STP'
p68
sg25
S'0xffffffc0007befd8L'
p69
sg27
Nsba(ibclass
BInstr
p70
(dp71
g2
Nsg17
S'LDR             W0, [X0]'
p72
sg19
S'000040b9'
p73
sg21
Vldr w0, [x0]
p74
sg5
L18446743798839767004L
sg6
Nsg23
S'LDR'
p75
sg25
S'0xffffffc0007befdcL'
p76
sg27
Nsba(ibclass
BInstr
p77
(dp78
g2
Nsg17
S'STP             XZR, XZR, [X29,#0x50+var_20]'
p79
sg19
S'bf7f03a9'
p80
sg21
Vstp xzr, xzr, [x29, #0x30]
p81
sg5
L18446743798839767008L
sg6
Nsg23
S'STP'
p82
sg25
S'0xffffffc0007befe0L'
p83
sg27
Nsba(ibclass
BInstr
p84
(dp85
g2
Nsg17
S'STP             XZR, XZR, [X29,#0x50+var_10]'
p86
sg19
S'bf7f04a9'
p87
sg21
Vstp xzr, xzr, [x29, #0x40]
p88
sg5
L18446743798839767012L
sg6
Nsg23
S'STP'
p89
sg25
S'0xffffffc0007befe4L'
p90
sg27
Nsba(ibclass
BInstr
p91
(dp92
g2
Nsg17
S'MOV             W21, W1'
p93
sg19
S'f503012a'
p94
sg21
Vmov w21, w1
p95
sg5
L18446743798839767016L
sg6
Nsg23
S'MOV'
p96
sg25
S'0xffffffc0007befe8L'
p97
sg27
Nsba(ibclass
BInstr
p98
(dp99
g2
Nsg17
S'MOV             X20, X2'
p100
sg19
S'f40302aa'
p101
sg21
Vmov x20, x2
p102
sg5
L18446743798839767020L
sg6
Nsg23
S'MOV'
p103
sg25
S'0xffffffc0007befecL'
p104
sg27
Nsba(ibclass
BInstr
p105
(dp106
g2
Nsg17
S'MOV             X22, X4'
p107
sg19
S'f60304aa'
p108
sg21
Vmov x22, x4
p109
sg5
L18446743798839767024L
sg6
Nsg23
S'MOV'
p110
sg25
S'0xffffffc0007beff0L'
p111
sg27
Nsba(ibclass
BInstr
p112
(dp113
g2
Nsg17
S'TBZ             W0, #3, loc_FFFFFFC0007BF024'
p114
sg19
S'80011836'
p115
sg21
Vtbz w0, #3, #0x30
p116
sg5
L18446743798839767028L
sg6
Nsg23
S'TBZ'
p117
sg25
S'0xffffffc0007beff4L'
p118
sg27
NsbasS'disasm_list'
p119
(lp120
S'STP reg9, reg0, mem!'
p121
aS'MOV reg9, SP'
p122
aS'ADRP reg, #func@PAGE'
p123
aS'STP reg9, reg0, mem'
p124
aS'MOV reg9, reg'
p125
aS'LDR reg, mem'
p126
aS'STP reg1, reg2, mem'
p127
aS'LDR reg, mem'
p128
aS'STP XZR, XZR, mem'
p129
aS'STP XZR, XZR, mem'
p130
aS'MOV reg1, reg'
p131
aS'MOV reg0, reg'
p132
aS'MOV reg2, reg'
p133
aS'TBZ reg, #3, func'
p134
asS'end_address'
p135
Nsg5
S'0xffffffc0007befc0L'
p136
sS'preds'
p137
(lp138
sg6
NsS'succs'
p139
(lp140
S'0xffffffc0007beff8L'
p141
aS'0xffffffc0007bf024L'
p142
asS'hash_v3'
p143
NsS'flag_v2'
p144
NsS'hash_v1'
p145
S'6e53134e1d040ca5bee2f23d8428bd68'
p146
sS'hash_v2'
p147
S'1d24a70e5bf57670732100afb93222f2'
p148
sS'mnen_list'
p149
(lp150
g24
ag33
ag40
ag47
ag54
ag61
ag68
ag75
ag82
ag89
ag96
ag103
ag110
ag117
asS'neighbour_disasm_list'
p151
Nsba(ibclass
BBasicBlock
p152
(dp153
g12
Nsg13
(lp154
(ibclass
BInstr
p155
(dp156
g2
Nsg17
S'ADRP            X0, #qword_FFFFFFC000E42548@PAGE'
p157
sg19
S'20340090'
p158
sg21
Vadrp x0, #0x684000
p159
sg5
L18446743798839767032L
sg6
Nsg23
S'ADRP'
p160
sg25
S'0xffffffc0007beff8L'
p161
sg27
Nsba(ibclass
BInstr
p162
(dp163
g2
Nsg17
S'LDR             X0, [X0,#qword_FFFFFFC000E42548@PAGEOFF]'
p164
sg19
S'00a442f9'
p165
sg21
Vldr x0, [x0, #0x548]
p166
sg5
L18446743798839767036L
sg6
Nsg23
S'LDR'
p167
sg25
S'0xffffffc0007beffcL'
p168
sg27
Nsba(ibclass
BInstr
p169
(dp170
g2
Nsg17
S'B               e843419_0048_000003b5_37ba80'
p171
sg19
S'429d0f14'
p172
sg21
Vb #0x3e7508
p173
sg5
L18446743798839767040L
sg6
Nsg23
S'B'
p174
sg25
S'0xffffffc0007bf000L'
p175
sg27
Nsbasg119
(lp176
S'ADRP reg, #func@PAGE'
p177
aS'LDR reg, mem'
p178
aS'B e843419_0048_000003b5_37ba80'
p179
asg135
Nsg5
S'0xffffffc0007beff8L'
p180
sg137
(lp181
S'0xffffffc0007befc0L'
p182
asg6
Nsg139
(lp183
S'0xffffffc000ba6508L'
p184
asg143
Nsg144
Nsg145
S'd96d8e061d8bf57246e8747c88156f08'
p185
sg147
S'328835870fd8d75684aa8b6bb883288b'
p186
sg149
(lp187
g160
ag167
ag174
asg151
Nsba(ibclass
BBasicBlock
p188
(dp189
g12
Nsg13
(lp190
(ibclass
BInstr
p191
(dp192
g2
Nsg17
S'CBNZ            W0, loc_FFFFFFC0007BF024'
p193
sg19
S'00010035'
p194
sg21
Vcbnz w0, #0x20
p195
sg5
L18446743798839767044L
sg6
Nsg23
S'CBNZ'
p196
sg25
S'0xffffffc0007bf004L'
p197
sg27
Nsbasg119
(lp198
S'CBNZ reg, func'
p199
asg135
Nsg5
S'0xffffffc0007bf004L'
p200
sg137
(lp201
sg6
Nsg139
(lp202
S'0xffffffc0007bf008L'
p203
aS'0xffffffc0007bf024L'
p204
asg143
Nsg144
Nsg145
S'482b7d814ad85789cad59d80ecb8562a'
p205
sg147
S'c81d544e8093e123ef790602aa39a0d0'
p206
sg149
(lp207
g196
asg151
Nsba(ibclass
BBasicBlock
p208
(dp209
g12
Nsg13
(lp210
(ibclass
BInstr
p211
(dp212
g2
Nsg17
S'ADRP            X0, #unk_FFFFFFC0013C17A7@PAGE'
p213
sg19
S'006000d0'
p214
sg21
Vadrp x0, #0xc02000
p215
sg5
L18446743798839767048L
sg6
Nsg23
S'ADRP'
p216
sg25
S'0xffffffc0007bf008L'
p217
sg27
Nsba(ibclass
BInstr
p218
(dp219
g2
Nsg17
S'ADRP            X1, #(aRulesDbg+6)@PAGE; "dbg"'
p220
sg19
S'e16600b0'
p221
sg21
Vadrp x1, #0xcdd000
p222
sg5
L18446743798839767052L
sg6
Nsg23
S'ADRP'
p223
sg25
S'0xffffffc0007bf00cL'
p224
sg27
Nsba(ibclass
BInstr
p225
(dp226
g2
Nsg17
S'ADD             X0, X0, #unk_FFFFFFC0013C17A7@PAGEOFF'
p227
sg19
S'009c1e91'
p228
sg21
Vadd x0, x0, #0x7a7
p229
sg5
L18446743798839767056L
sg6
Nsg23
S'ADD'
p230
sg25
S'0xffffffc0007bf010L'
p231
sg27
Nsba(ibclass
BInstr
p232
(dp233
g2
Nsg17
S'ADD             X1, X1, #(aRulesDbg+6)@PAGEOFF; "dbg"'
p234
sg19
S'21883391'
p235
sg21
Vadd x1, x1, #0xce2
p236
sg5
L18446743798839767060L
sg6
Nsg23
S'ADD'
p237
sg25
S'0xffffffc0007bf014L'
p238
sg27
Nsba(ibclass
BInstr
p239
(dp240
g2
Nsg17
S'STR             X3, [X29,#arg_40]'
p241
sg19
S'a32b00f9'
p242
sg21
Vstr x3, [x29, #0x50]
p243
sg5
L18446743798839767064L
sg6
Nsg23
S'STR'
p244
sg25
S'0xffffffc0007bf018L'
p245
sg27
Nsba(ibclass
BInstr
p246
(dp247
g2
Nsg17
S'BL              printk'
p248
sg19
S'56b81994'
p249
sg21
Vbl #0x66e158
p250
sg5
L18446743798839767068L
sg6
Nsg23
S'BL'
p251
sg25
S'0xffffffc0007bf01cL'
p252
sg27
Nsba(ibclass
BInstr
p253
(dp254
g2
Nsg17
S'LDR             X3, [X29,#arg_40]'
p255
sg19
S'a32b40f9'
p256
sg21
Vldr x3, [x29, #0x50]
p257
sg5
L18446743798839767072L
sg6
Nsg23
S'LDR'
p258
sg25
S'0xffffffc0007bf020L'
p259
sg27
Nsbasg119
(lp260
S'ADRP reg, #func@PAGE'
p261
aS'ADRP reg, #(aRulesDbg+6)@PAGE'
p262
aS'ADD reg, reg, #func@PAGEOFF'
p263
aS'ADD reg, reg, #(aRulesDbg+6)@PAGEOFF'
p264
aS'STR reg, mem'
p265
aS'BL printk'
p266
aS'LDR reg, mem'
p267
asg135
Nsg5
S'0xffffffc0007bf008L'
p268
sg137
(lp269
S'0xffffffc0007bf004L'
p270
asg6
Nsg139
(lp271
S'0xffffffc0007bf024L'
p272
asg143
Nsg144
Nsg145
S'4fef620e9f7eba3f608ec57728523200'
p273
sg147
S'89b1d0d9a1ad023f7414ba56d500ab13'
p274
sg149
(lp275
g216
ag223
ag230
ag237
ag244
ag251
ag258
asg151
Nsba(ibclass
BBasicBlock
p276
(dp277
g12
Nsg13
(lp278
(ibclass
BInstr
p279
(dp280
g2
Nsg17
S'CBZ             X3, loc_FFFFFFC0007BF034'
p281
sg19
S'830000b4'
p282
sg21
Vcbz x3, #0x10
p283
sg5
L18446743798839767076L
sg6
Nsg23
S'CBZ'
p284
sg25
S'0xffffffc0007bf024L'
p285
sg27
Nsbasg119
(lp286
S'CBZ reg, func'
p287
asg135
Nsg5
S'0xffffffc0007bf024L'
p288
sg137
(lp289
S'0xffffffc0007befc0L'
p290
aS'0xffffffc0007bf004L'
p291
aS'0xffffffc0007bf008L'
p292
asg6
Nsg139
(lp293
S'0xffffffc0007bf028L'
p294
aS'0xffffffc0007bf034L'
p295
asg143
Nsg144
Nsg145
S'de8e361453cf9f764a4abe9d486f8fbe'
p296
sg147
S'1f44e7b7d6ea8c93b4632bf8395c86c6'
p297
sg149
(lp298
g284
asg151
Nsba(ibclass
BBasicBlock
p299
(dp300
g12
Nsg13
(lp301
(ibclass
BInstr
p302
(dp303
g2
Nsg17
S'LDR             W0, [X3]'
p304
sg19
S'600040b9'
p305
sg21
Vldr w0, [x3]
p306
sg5
L18446743798839767080L
sg6
Nsg23
S'LDR'
p307
sg25
S'0xffffffc0007bf028L'
p308
sg27
Nsba(ibclass
BInstr
p309
(dp310
g2
Nsg17
S'CMP             W0, #0x10'
p311
sg19
S'1f400071'
p312
sg21
Vcmp w0, #0x10
p313
sg5
L18446743798839767084L
sg6
Nsg23
S'CMP'
p314
sg25
S'0xffffffc0007bf02cL'
p315
sg27
Nsba(ibclass
BInstr
p316
(dp317
g2
Nsg17
S'B.EQ            loc_FFFFFFC0007BF074'
p318
sg19
S'20020054'
p319
sg21
Vb.eq #0x44
p320
sg5
L18446743798839767088L
sg6
Nsg23
g174
sg25
S'0xffffffc0007bf030L'
p321
sg27
Nsbasg119
(lp322
S'LDR reg, mem'
p323
aS'CMP reg, #0x10'
p324
aS'B.EQ func'
p325
asg135
Nsg5
S'0xffffffc0007bf028L'
p326
sg137
(lp327
S'0xffffffc0007bf024L'
p328
asg6
Nsg139
(lp329
S'0xffffffc0007bf034L'
p330
aS'0xffffffc0007bf074L'
p331
asg143
Nsg144
Nsg145
S'fa4df767a85c49648339e2dc5c6807f6'
p332
sg147
S'709ad4fabade5546c8c153c1fed471e2'
p333
sg149
(lp334
g307
ag314
ag174
asg151
Nsba(ibclass
BBasicBlock
p335
(dp336
g12
Nsg13
(lp337
(ibclass
BInstr
p338
(dp339
g2
Nsg17
S'LDR             X22, [X22,#(qword_FFFFFFC000E440A0 - 0xFFFFFFC000E44000)]'
p340
sg19
S'd65240f9'
p341
sg21
Vldr x22, [x22, #0xa0]
p342
sg5
L18446743798839767092L
sg6
Nsg23
S'LDR'
p343
sg25
S'0xffffffc0007bf034L'
p344
sg27
Nsba(ibclass
BInstr
p345
(dp346
g2
Nsg17
S'LDR             W0, [X22]'
p347
sg19
S'c00240b9'
p348
sg21
Vldr w0, [x22]
p349
sg5
L18446743798839767096L
sg6
Nsg23
S'LDR'
p350
sg25
S'0xffffffc0007bf038L'
p351
sg27
Nsba(ibclass
BInstr
p352
(dp353
g2
Nsg17
S'TBZ             W0, #0, loc_FFFFFFC0007BF0A0'
p354
sg19
S'20030036'
p355
sg21
Vtbz w0, #0, #0x64
p356
sg5
L18446743798839767100L
sg6
Nsg23
S'TBZ'
p357
sg25
S'0xffffffc0007bf03cL'
p358
sg27
Nsbasg119
(lp359
S'LDR reg2, mem'
p360
aS'LDR reg, mem'
p361
aS'TBZ reg, #0, func'
p362
asg135
Nsg5
S'0xffffffc0007bf034L'
p363
sg137
(lp364
S'0xffffffc0007bf024L'
p365
aS'0xffffffc0007bf028L'
p366
asg6
Nsg139
(lp367
S'0xffffffc0007bf040L'
p368
aS'0xffffffc0007bf0a0L'
p369
asg143
Nsg144
Nsg145
S'ac18b97d3a767be1a0530f85211830b6'
p370
sg147
S'661777bb57fd04b48c40457f1d7e4dee'
p371
sg149
(lp372
g343
ag350
ag357
asg151
Nsba(ibclass
BBasicBlock
p373
(dp374
g12
Nsg13
(lp375
(ibclass
BInstr
p376
(dp377
g2
Nsg17
S'ADRP            X0, #qword_FFFFFFC000E42548@PAGE'
p378
sg19
S'003400f0'
p379
sg21
Vadrp x0, #0x683000
p380
sg5
L18446743798839767104L
sg6
Nsg23
S'ADRP'
p381
sg25
S'0xffffffc0007bf040L'
p382
sg27
Nsba(ibclass
BInstr
p383
(dp384
g2
Nsg17
S'LDR             X0, [X0,#qword_FFFFFFC000E42548@PAGEOFF]'
p385
sg19
S'00a442f9'
p386
sg21
Vldr x0, [x0, #0x548]
p387
sg5
L18446743798839767108L
sg6
Nsg23
S'LDR'
p388
sg25
S'0xffffffc0007bf044L'
p389
sg27
Nsba(ibclass
BInstr
p390
(dp391
g2
Nsg17
S'LDR             W0, [X0]'
p392
sg19
S'000040b9'
p393
sg21
Vldr w0, [x0]
p394
sg5
L18446743798839767112L
sg6
Nsg23
S'LDR'
p395
sg25
S'0xffffffc0007bf048L'
p396
sg27
Nsba(ibclass
BInstr
p397
(dp398
g2
Nsg17
S'CBNZ            W0, loc_FFFFFFC0007BF0A0'
p399
sg19
S'a0020035'
p400
sg21
Vcbnz w0, #0x54
p401
sg5
L18446743798839767116L
sg6
Nsg23
S'CBNZ'
p402
sg25
S'0xffffffc0007bf04cL'
p403
sg27
Nsbasg119
(lp404
S'ADRP reg, #func@PAGE'
p405
aS'LDR reg, mem'
p406
aS'LDR reg, mem'
p407
aS'CBNZ reg, func'
p408
asg135
Nsg5
S'0xffffffc0007bf040L'
p409
sg137
(lp410
S'0xffffffc0007bf034L'
p411
asg6
Nsg139
(lp412
S'0xffffffc0007bf050L'
p413
aS'0xffffffc0007bf0a0L'
p414
asg143
Nsg144
Nsg145
S'9c97521b8b0f280d47a50ec9a5e4f86f'
p415
sg147
S'bd26f8893557dc5fa132ff2490be0ebf'
p416
sg149
(lp417
g381
ag388
ag395
ag402
asg151
Nsba(ibclass
BBasicBlock
p418
(dp419
g12
Nsg13
(lp420
(ibclass
BInstr
p421
(dp422
g2
Nsg17
S'ADRP            X2, #__func__.31869@PAGE; "hfi_process_session_abort_done"'
p423
sg19
S'424400f0'
p424
sg21
Vadrp x2, #0x88b000
p425
sg5
L18446743798839767120L
sg6
Nsg23
S'ADRP'
p426
sg25
S'0xffffffc0007bf050L'
p427
sg27
Nsba(ibclass
BInstr
p428
(dp429
g2
Nsg17
S'ADRP            X0, #unk_FFFFFFC0013C169E@PAGE'
p430
sg19
S'006000d0'
p431
sg21
Vadrp x0, #0xc02000
p432
sg5
L18446743798839767124L
sg6
Nsg23
S'ADRP'
p433
sg25
S'0xffffffc0007bf054L'
p434
sg27
Nsba(ibclass
BInstr
p435
(dp436
g2
Nsg17
S'ADRP            X1, #(aQcomMdssDsi_17+0x1B)@PAGE; "err"'
p437
sg19
S'815b0090'
p438
sg21
Vadrp x1, #0xb70000
p439
sg5
L18446743798839767128L
sg6
Nsg23
S'ADRP'
p440
sg25
S'0xffffffc0007bf058L'
p441
sg27
Nsba(ibclass
BInstr
p442
(dp443
g2
Nsg17
S'ADD             X2, X2, #__func__.31869@PAGEOFF; "hfi_process_session_abort_done"'
p444
sg19
S'42602991'
p445
sg21
Vadd x2, x2, #0xa58
p446
sg5
L18446743798839767132L
sg6
Nsg23
S'ADD'
p447
sg25
S'0xffffffc0007bf05cL'
p448
sg27
Nsba(ibclass
BInstr
p449
(dp450
g2
Nsg17
S'ADD             X1, X1, #(aQcomMdssDsi_17+0x1B)@PAGEOFF; "err"'
p451
sg19
S'212c0591'
p452
sg21
Vadd x1, x1, #0x14b
p453
sg5
L18446743798839767136L
sg6
Nsg23
S'ADD'
p454
sg25
S'0xffffffc0007bf060L'
p455
sg27
Nsba(ibclass
BInstr
p456
(dp457
g2
Nsg17
S'ADD             X2, X2, #0x48'
p458
sg19
S'42200191'
p459
sg21
Vadd x2, x2, #0x48
p460
sg5
L18446743798839767140L
sg6
Nsg23
S'ADD'
p461
sg25
S'0xffffffc0007bf064L'
p462
sg27
Nsba(ibclass
BInstr
p463
(dp464
g2
Nsg17
S'ADD             X0, X0, #unk_FFFFFFC0013C169E@PAGEOFF'
p465
sg19
S'00781a91'
p466
sg21
Vadd x0, x0, #0x69e
p467
sg5
L18446743798839767144L
sg6
Nsg23
S'ADD'
p468
sg25
S'0xffffffc0007bf068L'
p469
sg27
Nsba(ibclass
BInstr
p470
(dp471
g2
Nsg17
S'BL              printk'
p472
sg19
S'42b81994'
p473
sg21
Vbl #0x66e108
p474
sg5
L18446743798839767148L
sg6
Nsg23
S'BL'
p475
sg25
S'0xffffffc0007bf06cL'
p476
sg27
Nsba(ibclass
BInstr
p477
(dp478
g2
Nsg17
S'B               loc_FFFFFFC0007BF0A0'
p479
sg19
S'0c000014'
p480
sg21
Vb #0x30
p481
sg5
L18446743798839767152L
sg6
Nsg23
g174
sg25
S'0xffffffc0007bf070L'
p482
sg27
Nsbasg119
(lp483
S'ADRP reg, #__func__.31869@PAGE'
p484
aS'ADRP reg, #func@PAGE'
p485
aS'ADRP reg, #(aQcomMdssDsi_17+0x1B)@PAGE'
p486
aS'ADD reg, reg, #__func__.31869@PAGEOFF'
p487
aS'ADD reg, reg, #(aQcomMdssDsi_17+0x1B)@PAGEOFF'
p488
aS'ADD reg, reg, #0x48'
p489
aS'ADD reg, reg, #func@PAGEOFF'
p490
aS'BL printk'
p491
aS'B func'
p492
asg135
Nsg5
S'0xffffffc0007bf050L'
p493
sg137
(lp494
S'0xffffffc0007bf040L'
p495
asg6
Nsg139
(lp496
S'0xffffffc0007bf0a0L'
p497
asg143
Nsg144
Nsg145
S'8d01fe9050abe03509e35279925e126f'
p498
sg147
S'be417572ae1cc3c410e3b4a95cad4bf6'
p499
sg149
(lp500
g426
ag433
ag440
ag447
ag454
ag461
ag468
ag475
ag174
asg151
Nsba(ibclass
BBasicBlock
p501
(dp502
g12
Nsg13
(lp503
(ibclass
BInstr
p504
(dp505
g2
Nsg17
S'LDR             X0, [X20,#0x10]'
p506
sg19
S'800a40f9'
p507
sg21
Vldr x0, [x20, #0x10]
p508
sg5
L18446743798839767156L
sg6
Nsg23
S'LDR'
p509
sg25
S'0xffffffc0007bf074L'
p510
sg27
Nsba(ibclass
BInstr
p511
(dp512
g2
Nsg17
S'STR             W21, [X29,#arg_20]'
p513
sg19
S'b53300b9'
p514
sg21
Vstr w21, [x29, #0x30]
p515
sg5
L18446743798839767160L
sg6
Nsg23
S'STR'
p516
sg25
S'0xffffffc0007bf078L'
p517
sg27
Nsba(ibclass
BInstr
p518
(dp519
g2
Nsg17
S'STR             X0, [X29,#arg_28]'
p520
sg19
S'a01f00f9'
p521
sg21
Vstr x0, [x29, #0x38]
p522
sg5
L18446743798839767164L
sg6
Nsg23
S'STR'
p523
sg25
S'0xffffffc0007bf07cL'
p524
sg27
Nsba(ibclass
BInstr
p525
(dp526
g2
Nsg17
S'LDR             W0, [X3,#0xC]'
p527
sg19
S'600c40b9'
p528
sg21
Vldr w0, [x3, #0xc]
p529
sg5
L18446743798839767168L
sg6
Nsg23
S'LDR'
p530
sg25
S'0xffffffc0007bf080L'
p531
sg27
Nsba(ibclass
BInstr
p532
(dp533
g2
Nsg17
S'BL              hfi_map_err_status'
p534
sg19
S'73feff97'
p535
sg21
Vbl #0xfffffffffffff9cc
p536
sg5
L18446743798839767172L
sg6
Nsg23
S'BL'
p537
sg25
S'0xffffffc0007bf084L'
p538
sg27
Nsba(ibclass
BInstr
p539
(dp540
g2
Nsg17
S'STR             W0, [X29,#arg_30]'
p541
sg19
S'a04300b9'
p542
sg21
Vstr w0, [x29, #0x40]
p543
sg5
L18446743798839767176L
sg6
Nsg23
S'STR'
p544
sg25
S'0xffffffc0007bf088L'
p545
sg27
Nsba(ibclass
BInstr
p546
(dp547
g2
Nsg17
S'ADD             X1, X29, #0x30'
p548
sg19
S'a1c30091'
p549
sg21
Vadd x1, x29, #0x30
p550
sg5
L18446743798839767180L
sg6
Nsg23
S'ADD'
p551
sg25
S'0xffffffc0007bf08cL'
p552
sg27
Nsba(ibclass
BInstr
p553
(dp554
g2
Nsg17
S'MOV             W0, #0x1A'
p555
sg19
S'40038052'
p556
sg21
Vmovz w0, #0x1a
p557
sg5
L18446743798839767184L
sg6
Nsg23
S'MOV'
p558
sg25
S'0xffffffc0007bf090L'
p559
sg27
Nsba(ibclass
BInstr
p560
(dp561
g2
Nsg17
S'STR             XZR, [X29,#arg_38]'
p562
sg19
S'bf2700f9'
p563
sg21
Vstr xzr, [x29, #0x48]
p564
sg5
L18446743798839767188L
sg6
Nsg23
S'STR'
p565
sg25
S'0xffffffc0007bf094L'
p566
sg27
Nsba(ibclass
BInstr
p567
(dp568
g2
Nsg17
S'STR             WZR, [X29,#arg_34]'
p569
sg19
S'bf4700b9'
p570
sg21
Vstr wzr, [x29, #0x44]
p571
sg5
L18446743798839767192L
sg6
Nsg23
S'STR'
p572
sg25
S'0xffffffc0007bf098L'
p573
sg27
Nsba(ibclass
BInstr
p574
(dp575
g2
Nsg17
S'BLR             X19'
p576
sg19
S'60023fd6'
p577
sg21
Vblr x19
p578
sg5
L18446743798839767196L
sg6
Nsg23
S'BLR'
p579
sg25
S'0xffffffc0007bf09cL'
p580
sg27
Nsbasg119
(lp581
S'LDR reg, mem'
p582
aS'STR reg1, mem'
p583
aS'STR reg, mem'
p584
aS'LDR reg, mem'
p585
aS'BL hfi_map_err_status'
p586
aS'STR reg, mem'
p587
aS'ADD reg, reg9, #0x30'
p588
aS'MOV reg, #0x1A'
p589
aS'STR XZR, mem'
p590
aS'STR WZR, mem'
p591
aS'BLR reg9'
p592
asg135
Nsg5
S'0xffffffc0007bf074L'
p593
sg137
(lp594
S'0xffffffc0007bf028L'
p595
asg6
Nsg139
(lp596
S'0xffffffc0007bf0a0L'
p597
asg143
Nsg144
Nsg145
S'65224f592c85712ef347a4f2a43caa0a'
p598
sg147
S'fbdc7551119e4d8210a359c7392a0311'
p599
sg149
(lp600
g509
ag516
ag523
ag530
ag537
ag544
ag551
ag558
ag565
ag572
ag579
asg151
Nsba(ibclass
BBasicBlock
p601
(dp602
g12
Nsg13
(lp603
(ibclass
BInstr
p604
(dp605
g2
Nsg17
S'LDP             X19, X20, [SP,#0x50+var_40]'
p606
sg19
S'f35341a9'
p607
sg21
Vldp x19, x20, [sp, #0x10]
p608
sg5
L18446743798839767200L
sg6
Nsg23
S'LDP'
p609
sg25
S'0xffffffc0007bf0a0L'
p610
sg27
Nsba(ibclass
BInstr
p611
(dp612
g2
Nsg17
S'LDP             X21, X22, [SP,#0x50+var_30]'
p613
sg19
S'f55b42a9'
p614
sg21
Vldp x21, x22, [sp, #0x20]
p615
sg5
L18446743798839767204L
sg6
Nsg23
S'LDP'
p616
sg25
S'0xffffffc0007bf0a4L'
p617
sg27
Nsba(ibclass
BInstr
p618
(dp619
g2
Nsg17
S'LDP             X29, X30, [SP+0x50+var_50],#0x60'
p620
sg19
S'fd7bc6a8'
p621
sg21
Vldp x29, x30, [sp], #0x60
p622
sg5
L18446743798839767208L
sg6
Nsg23
S'LDP'
p623
sg25
S'0xffffffc0007bf0a8L'
p624
sg27
Nsba(ibclass
BInstr
p625
(dp626
g2
Nsg17
S'RET'
p627
sg19
S'c0035fd6'
p628
sg21
Vret 
p629
sg5
L18446743798839767212L
sg6
Nsg23
S'RET'
p630
sg25
S'0xffffffc0007bf0acL'
p631
sg27
Nsbasg119
(lp632
S'LDP reg9, reg0, mem'
p633
aS'LDP reg1, reg2, mem'
p634
aS'LDP reg9, reg0, mem,#0x60'
p635
ag627
asg135
Nsg5
S'0xffffffc0007bf0a0L'
p636
sg137
(lp637
S'0xffffffc0007bf034L'
p638
aS'0xffffffc0007bf040L'
p639
aS'0xffffffc0007bf050L'
p640
aS'0xffffffc0007bf074L'
p641
asg6
Nsg139
(lp642
sg143
Nsg144
Nsg145
S'e506acdec8f0d1b80ba12a70d6d398f7'
p643
sg147
S'47a4ce7dd1d7cf82ef19de57a0763938'
p644
sg149
(lp645
g609
ag616
ag623
ag630
asg151
Nsba(ibclass
BBasicBlock
p646
(dp647
g12
Nsg13
(lp648
(ibclass
BInstr
p649
(dp650
g2
Nsg17
S"LDR             W0, [X0]; Alternative name is '$x'"
p651
sg19
Nsg21
S''
p652
sg5
L18446743798843860232L
sg6
Nsg23
S'LDR'
p653
sg25
S'0xffffffc000ba6508L'
p654
sg27
Nsbasg119
(lp655
S'LDR reg, mem'
p656
asg135
Nsg5
S'0xffffffc000ba6508L'
p657
sg137
(lp658
S'0xffffffc0007beff8L'
p659
asg6
Nsg139
(lp660
sg143
Nsg144
Nsg145
S'6645d4de79aee6373f120d72c0030e5f'
p661
sg147
S'f8d2f8f4cdf40ad12a334448a2a08c78'
p662
sg149
(lp663
g653
asg151
Nsbasb.