(ibclass
BFunc
p0
(dp1
S'hash'
p2
NsS'name'
p3
S'hfi_process_session_etb_done'
p4
sS'start_address'
p5
L18446743798839771304L
sS'flag'
p6
NsS'program'
p7
NsS'bbs'
p8
(lp9
(ibclass
BBasicBlock
p10
(dp11
S'function'
p12
NsS'binstrs'
p13
(lp14
(ibclass
BInstr
p15
(dp16
g2
NsS'disasm'
p17
S'STP             X29, X30, [SP,#-0x10+var_F0]!'
p18
sS'bytes'
p19
S'fd7bb0a9'
p20
sS'disasm_striped'
p21
Vstp x29, x30, [sp, #-0x100]!
p22
sg5
L18446743798839771304L
sg6
NsS'mnem'
p23
S'STP'
p24
sS'address'
p25
S'0xffffffc0007c00a8L'
p26
sS'basicblock'
p27
Nsba(ibclass
BInstr
p28
(dp29
g2
Nsg17
S'MOV             X29, SP'
p30
sg19
S'fd030091'
p31
sg21
Vmov x29, sp
p32
sg5
L18446743798839771308L
sg6
Nsg23
S'MOV'
p33
sg25
S'0xffffffc0007c00acL'
p34
sg27
Nsba(ibclass
BInstr
p35
(dp36
g2
Nsg17
S'STP             X19, X20, [SP,#0xF0+var_E0]'
p37
sg19
S'f35301a9'
p38
sg21
Vstp x19, x20, [sp, #0x10]
p39
sg5
L18446743798839771312L
sg6
Nsg23
S'STP'
p40
sg25
S'0xffffffc0007c00b0L'
p41
sg27
Nsba(ibclass
BInstr
p42
(dp43
g2
Nsg17
S'STP             X21, X22, [SP,#0xF0+var_D0]'
p44
sg19
S'f55b02a9'
p45
sg21
Vstp x21, x22, [sp, #0x20]
p46
sg5
L18446743798839771316L
sg6
Nsg23
S'STP'
p47
sg25
S'0xffffffc0007c00b4L'
p48
sg27
Nsba(ibclass
BInstr
p49
(dp50
g2
Nsg17
S'STP             X23, X24, [SP,#0xF0+var_C0]'
p51
sg19
S'f76303a9'
p52
sg21
Vstp x23, x24, [sp, #0x30]
p53
sg5
L18446743798839771320L
sg6
Nsg23
S'STP'
p54
sg25
S'0xffffffc0007c00b8L'
p55
sg27
Nsba(ibclass
BInstr
p56
(dp57
g2
Nsg17
S'MOV             W21, W1'
p58
sg19
S'f503012a'
p59
sg21
Vmov w21, w1
p60
sg5
L18446743798839771324L
sg6
Nsg23
S'MOV'
p61
sg25
S'0xffffffc0007c00bcL'
p62
sg27
Nsba(ibclass
BInstr
p63
(dp64
g2
Nsg17
S'MOV             X24, X0'
p65
sg19
S'f80300aa'
p66
sg21
Vmov x24, x0
p67
sg5
L18446743798839771328L
sg6
Nsg23
S'MOV'
p68
sg25
S'0xffffffc0007c00c0L'
p69
sg27
Nsba(ibclass
BInstr
p70
(dp71
g2
Nsg17
S'MOV             X20, X2'
p72
sg19
S'f40302aa'
p73
sg21
Vmov x20, x2
p74
sg5
L18446743798839771332L
sg6
Nsg23
S'MOV'
p75
sg25
S'0xffffffc0007c00c4L'
p76
sg27
Nsba(ibclass
BInstr
p77
(dp78
g2
Nsg17
S'ADD             X0, X29, #0x50'
p79
sg19
S'a0430191'
p80
sg21
Vadd x0, x29, #0x50
p81
sg5
L18446743798839771336L
sg6
Nsg23
S'ADD'
p82
sg25
S'0xffffffc0007c00c8L'
p83
sg27
Nsba(ibclass
BInstr
p84
(dp85
g2
Nsg17
S'MOV             X2, #0xB0'
p86
sg19
S'021680d2'
p87
sg21
Vmovz x2, #0xb0
p88
sg5
L18446743798839771340L
sg6
Nsg23
S'MOV'
p89
sg25
S'0xffffffc0007c00ccL'
p90
sg27
Nsba(ibclass
BInstr
p91
(dp92
g2
Nsg17
S'MOV             W1, #0'
p93
sg19
S'01008052'
p94
sg21
Vmovz w1, #0
p95
sg5
L18446743798839771344L
sg6
Nsg23
S'MOV'
p96
sg25
S'0xffffffc0007c00d0L'
p97
sg27
Nsba(ibclass
BInstr
p98
(dp99
g2
Nsg17
S'STR             X25, [SP,#0xF0+var_B0]'
p100
sg19
S'f92300f9'
p101
sg21
Vstr x25, [sp, #0x40]
p102
sg5
L18446743798839771348L
sg6
Nsg23
S'STR'
p103
sg25
S'0xffffffc0007c00d4L'
p104
sg27
Nsba(ibclass
BInstr
p105
(dp106
g2
Nsg17
S'MOV             X19, X3'
p107
sg19
S'f30303aa'
p108
sg21
Vmov x19, x3
p109
sg5
L18446743798839771352L
sg6
Nsg23
S'MOV'
p110
sg25
S'0xffffffc0007c00d8L'
p111
sg27
Nsba(ibclass
BInstr
p112
(dp113
g2
Nsg17
S'BL              memset'
p114
sg19
S'497df197'
p115
sg21
Vbl #0xffffffffffc5f524
p116
sg5
L18446743798839771356L
sg6
Nsg23
S'BL'
p117
sg25
S'0xffffffc0007c00dcL'
p118
sg27
Nsba(ibclass
BInstr
p119
(dp120
g2
Nsg17
S'ADRP            X2, #qword_FFFFFFC000E440A0@PAGE'
p121
sg19
S'22340090'
p122
sg21
Vadrp x2, #0x684000
p123
sg5
L18446743798839771360L
sg6
Nsg23
S'ADRP'
p124
sg25
S'0xffffffc0007c00e0L'
p125
sg27
Nsba(ibclass
BInstr
p126
(dp127
g2
Nsg17
S'LDR             X0, [X2,#qword_FFFFFFC000E440A0@PAGEOFF]'
p128
sg19
S'405040f9'
p129
sg21
Vldr x0, [x2, #0xa0]
p130
sg5
L18446743798839771364L
sg6
Nsg23
S'LDR'
p131
sg25
S'0xffffffc0007c00e4L'
p132
sg27
Nsba(ibclass
BInstr
p133
(dp134
g2
Nsg17
S'MOV             X22, X2'
p135
sg19
S'f60302aa'
p136
sg21
Vmov x22, x2
p137
sg5
L18446743798839771368L
sg6
Nsg23
S'MOV'
p138
sg25
S'0xffffffc0007c00e8L'
p139
sg27
Nsba(ibclass
BInstr
p140
(dp141
g2
Nsg17
S'LDR             W0, [X0]'
p142
sg19
S'000040b9'
p143
sg21
Vldr w0, [x0]
p144
sg5
L18446743798839771372L
sg6
Nsg23
S'LDR'
p145
sg25
S'0xffffffc0007c00ecL'
p146
sg27
Nsba(ibclass
BInstr
p147
(dp148
g2
Nsg17
S'TBZ             W0, #3, loc_FFFFFFC0007C011C'
p149
sg19
S'60011836'
p150
sg21
Vtbz w0, #3, #0x2c
p151
sg5
L18446743798839771376L
sg6
Nsg23
S'TBZ'
p152
sg25
S'0xffffffc0007c00f0L'
p153
sg27
NsbasS'disasm_list'
p154
(lp155
S'STP reg9, reg0, mem!'
p156
aS'MOV reg9, SP'
p157
aS'STP reg9, reg0, mem'
p158
aS'STP reg1, reg2, mem'
p159
aS'STP reg3, reg4, mem'
p160
aS'MOV reg1, reg'
p161
aS'MOV reg4, reg'
p162
aS'MOV reg0, reg'
p163
aS'ADD reg, reg9, #0x50'
p164
aS'MOV reg, #0xB0'
p165
aS'MOV reg, #0'
p166
aS'STR reg5, mem'
p167
aS'MOV reg9, reg'
p168
aS'BL memset'
p169
aS'ADRP reg, #func@PAGE'
p170
aS'LDR reg, mem'
p171
aS'MOV reg2, reg'
p172
aS'LDR reg, mem'
p173
aS'TBZ reg, #3, func'
p174
asS'end_address'
p175
Nsg5
S'0xffffffc0007c00a8L'
p176
sS'preds'
p177
(lp178
sg6
NsS'succs'
p179
(lp180
S'0xffffffc0007c00f4L'
p181
aS'0xffffffc0007c011cL'
p182
asS'hash_v3'
p183
NsS'flag_v2'
p184
NsS'hash_v1'
p185
S'64a37029261eaded093a5bc2911fc556'
p186
sS'hash_v2'
p187
S'69512a0df88a0200204f3f0d945fadc1'
p188
sS'mnen_list'
p189
(lp190
g24
ag33
ag40
ag47
ag54
ag61
ag68
ag75
ag82
ag89
ag96
ag103
ag110
ag117
ag124
ag131
ag138
ag145
ag152
asS'neighbour_disasm_list'
p191
Nsba(ibclass
BBasicBlock
p192
(dp193
g12
Nsg13
(lp194
(ibclass
BInstr
p195
(dp196
g2
Nsg17
S'ADRP            X0, #qword_FFFFFFC000E42548@PAGE'
p197
sg19
S'003400d0'
p198
sg21
Vadrp x0, #0x682000
p199
sg5
L18446743798839771380L
sg6
Nsg23
S'ADRP'
p200
sg25
S'0xffffffc0007c00f4L'
p201
sg27
Nsba(ibclass
BInstr
p202
(dp203
g2
Nsg17
S'LDR             X0, [X0,#qword_FFFFFFC000E42548@PAGEOFF]'
p204
sg19
S'00a442f9'
p205
sg21
Vldr x0, [x0, #0x548]
p206
sg5
L18446743798839771384L
sg6
Nsg23
S'LDR'
p207
sg25
S'0xffffffc0007c00f8L'
p208
sg27
Nsba(ibclass
BInstr
p209
(dp210
g2
Nsg17
S'LDR             W0, [X0]'
p211
sg19
S'000040b9'
p212
sg21
Vldr w0, [x0]
p213
sg5
L18446743798839771388L
sg6
Nsg23
S'LDR'
p214
sg25
S'0xffffffc0007c00fcL'
p215
sg27
Nsba(ibclass
BInstr
p216
(dp217
g2
Nsg17
S'CBNZ            W0, loc_FFFFFFC0007C011C'
p218
sg19
S'e0000035'
p219
sg21
Vcbnz w0, #0x1c
p220
sg5
L18446743798839771392L
sg6
Nsg23
S'CBNZ'
p221
sg25
S'0xffffffc0007c0100L'
p222
sg27
Nsbasg154
(lp223
S'ADRP reg, #func@PAGE'
p224
aS'LDR reg, mem'
p225
aS'LDR reg, mem'
p226
aS'CBNZ reg, func'
p227
asg175
Nsg5
S'0xffffffc0007c00f4L'
p228
sg177
(lp229
S'0xffffffc0007c00a8L'
p230
asg6
Nsg179
(lp231
S'0xffffffc0007c0104L'
p232
aS'0xffffffc0007c011cL'
p233
asg183
Nsg184
Nsg185
S'9c97521b8b0f280d47a50ec9a5e4f86f'
p234
sg187
S'bd26f8893557dc5fa132ff2490be0ebf'
p235
sg189
(lp236
g200
ag207
ag214
ag221
asg191
Nsba(ibclass
BBasicBlock
p237
(dp238
g12
Nsg13
(lp239
(ibclass
BInstr
p240
(dp241
g2
Nsg17
S'ADRP            X0, #unk_FFFFFFC0013C1DFA@PAGE'
p242
sg19
S'006000b0'
p243
sg21
Vadrp x0, #0xc01000
p244
sg5
L18446743798839771396L
sg6
Nsg23
S'ADRP'
p245
sg25
S'0xffffffc0007c0104L'
p246
sg27
Nsba(ibclass
BInstr
p247
(dp248
g2
Nsg17
S'ADRP            X1, #(aRulesDbg+6)@PAGE; "dbg"'
p249
sg19
S'e1660090'
p250
sg21
Vadrp x1, #0xcdc000
p251
sg5
L18446743798839771400L
sg6
Nsg23
S'ADRP'
p252
sg25
S'0xffffffc0007c0108L'
p253
sg27
Nsba(ibclass
BInstr
p254
(dp255
g2
Nsg17
S'ADD             X0, X0, #unk_FFFFFFC0013C1DFA@PAGEOFF'
p256
sg19
S'00e83791'
p257
sg21
Vadd x0, x0, #0xdfa
p258
sg5
L18446743798839771404L
sg6
Nsg23
S'ADD'
p259
sg25
S'0xffffffc0007c010cL'
p260
sg27
Nsba(ibclass
BInstr
p261
(dp262
g2
Nsg17
S'ADD             X1, X1, #(aRulesDbg+6)@PAGEOFF; "dbg"'
p263
sg19
S'21883391'
p264
sg21
Vadd x1, x1, #0xce2
p265
sg5
L18446743798839771408L
sg6
Nsg23
S'ADD'
p266
sg25
S'0xffffffc0007c0110L'
p267
sg27
Nsba(ibclass
BInstr
p268
(dp269
g2
Nsg17
S'MOV             X2, X20'
p270
sg19
S'e20314aa'
p271
sg21
Vmov x2, x20
p272
sg5
L18446743798839771412L
sg6
Nsg23
S'MOV'
p273
sg25
S'0xffffffc0007c0114L'
p274
sg27
Nsba(ibclass
BInstr
p275
(dp276
g2
Nsg17
S'BL              printk'
p277
sg19
S'17b41994'
p278
sg21
Vbl #0x66d05c
p279
sg5
L18446743798839771416L
sg6
Nsg23
S'BL'
p280
sg25
S'0xffffffc0007c0118L'
p281
sg27
Nsbasg154
(lp282
S'ADRP reg, #func@PAGE'
p283
aS'ADRP reg, #(aRulesDbg+6)@PAGE'
p284
aS'ADD reg, reg, #func@PAGEOFF'
p285
aS'ADD reg, reg, #(aRulesDbg+6)@PAGEOFF'
p286
aS'MOV reg, reg0'
p287
aS'BL printk'
p288
asg175
Nsg5
S'0xffffffc0007c0104L'
p289
sg177
(lp290
S'0xffffffc0007c00f4L'
p291
asg6
Nsg179
(lp292
S'0xffffffc0007c011cL'
p293
asg183
Nsg184
Nsg185
S'eb549194eba9a07b906701fad5f00138'
p294
sg187
S'60e776427350444dac5986dea6465f12'
p295
sg189
(lp296
g245
ag252
ag259
ag266
ag273
ag280
asg191
Nsba(ibclass
BBasicBlock
p297
(dp298
g12
Nsg13
(lp299
(ibclass
BInstr
p300
(dp301
g2
Nsg17
S'CBZ             X19, loc_FFFFFFC0007C012C'
p302
sg19
S'930000b4'
p303
sg21
Vcbz x19, #0x10
p304
sg5
L18446743798839771420L
sg6
Nsg23
S'CBZ'
p305
sg25
S'0xffffffc0007c011cL'
p306
sg27
Nsbasg154
(lp307
S'CBZ reg9, func'
p308
asg175
Nsg5
S'0xffffffc0007c011cL'
p309
sg177
(lp310
S'0xffffffc0007c00a8L'
p311
aS'0xffffffc0007c00f4L'
p312
aS'0xffffffc0007c0104L'
p313
asg6
Nsg179
(lp314
S'0xffffffc0007c0120L'
p315
aS'0xffffffc0007c012cL'
p316
asg183
Nsg184
Nsg185
S'de8e361453cf9f764a4abe9d486f8fbe'
p317
sg187
S'830c6bea92de9557dd5d63ad5b77ee9d'
p318
sg189
(lp319
g305
asg191
Nsba(ibclass
BBasicBlock
p320
(dp321
g12
Nsg13
(lp322
(ibclass
BInstr
p323
(dp324
g2
Nsg17
S'LDR             W0, [X19]'
p325
sg19
S'600240b9'
p326
sg21
Vldr w0, [x19]
p327
sg5
L18446743798839771424L
sg6
Nsg23
S'LDR'
p328
sg25
S'0xffffffc0007c0120L'
p329
sg27
Nsba(ibclass
BInstr
p330
(dp331
g2
Nsg17
S'CMP             W0, #0x23'
p332
sg19
S'1f8c0071'
p333
sg21
Vcmp w0, #0x23
p334
sg5
L18446743798839771428L
sg6
Nsg23
S'CMP'
p335
sg25
S'0xffffffc0007c0124L'
p336
sg27
Nsba(ibclass
BInstr
p337
(dp338
g2
Nsg17
S'B.HI            loc_FFFFFFC0007C0160'
p339
sg19
S'c8010054'
p340
sg21
Vb.hi #0x38
p341
sg5
L18446743798839771432L
sg6
Nsg23
S'B'
p342
sg25
S'0xffffffc0007c0128L'
p343
sg27
Nsbasg154
(lp344
S'LDR reg, mem'
p345
aS'CMP reg, #0x23'
p346
aS'B.HI func'
p347
asg175
Nsg5
S'0xffffffc0007c0120L'
p348
sg177
(lp349
S'0xffffffc0007c011cL'
p350
asg6
Nsg179
(lp351
S'0xffffffc0007c012cL'
p352
aS'0xffffffc0007c0160L'
p353
asg183
Nsg184
Nsg185
S'fa4df767a85c49648339e2dc5c6807f6'
p354
sg187
S'309c459660a544cf21824c7b9d7fb575'
p355
sg189
(lp356
g328
ag335
ag342
asg191
Nsba(ibclass
BBasicBlock
p357
(dp358
g12
Nsg13
(lp359
(ibclass
BInstr
p360
(dp361
g2
Nsg17
S'LDR             X22, [X22,#(qword_FFFFFFC000E440A0 - 0xFFFFFFC000E44000)]'
p362
sg19
S'd65240f9'
p363
sg21
Vldr x22, [x22, #0xa0]
p364
sg5
L18446743798839771436L
sg6
Nsg23
S'LDR'
p365
sg25
S'0xffffffc0007c012cL'
p366
sg27
Nsba(ibclass
BInstr
p367
(dp368
g2
Nsg17
S'LDR             W0, [X22]'
p369
sg19
S'c00240b9'
p370
sg21
Vldr w0, [x22]
p371
sg5
L18446743798839771440L
sg6
Nsg23
S'LDR'
p372
sg25
S'0xffffffc0007c0130L'
p373
sg27
Nsba(ibclass
BInstr
p374
(dp375
g2
Nsg17
S'TBZ             W0, #0, loc_FFFFFFC0007C0248'
p376
sg19
S'a0080036'
p377
sg21
Vtbz w0, #0, #0x114
p378
sg5
L18446743798839771444L
sg6
Nsg23
S'TBZ'
p379
sg25
S'0xffffffc0007c0134L'
p380
sg27
Nsbasg154
(lp381
S'LDR reg2, mem'
p382
aS'LDR reg, mem'
p383
aS'TBZ reg, #0, func'
p384
asg175
Nsg5
S'0xffffffc0007c012cL'
p385
sg177
(lp386
S'0xffffffc0007c011cL'
p387
aS'0xffffffc0007c0120L'
p388
asg6
Nsg179
(lp389
S'0xffffffc0007c0138L'
p390
aS'0xffffffc0007c0248L'
p391
asg183
Nsg184
Nsg185
S'ac18b97d3a767be1a0530f85211830b6'
p392
sg187
S'661777bb57fd04b48c40457f1d7e4dee'
p393
sg189
(lp394
g365
ag372
ag379
asg191
Nsba(ibclass
BBasicBlock
p395
(dp396
g12
Nsg13
(lp397
(ibclass
BInstr
p398
(dp399
g2
Nsg17
S'ADRP            X0, #qword_FFFFFFC000E42548@PAGE'
p400
sg19
S'003400d0'
p401
sg21
Vadrp x0, #0x682000
p402
sg5
L18446743798839771448L
sg6
Nsg23
S'ADRP'
p403
sg25
S'0xffffffc0007c0138L'
p404
sg27
Nsba(ibclass
BInstr
p405
(dp406
g2
Nsg17
S'LDR             X0, [X0,#qword_FFFFFFC000E42548@PAGEOFF]'
p407
sg19
S'00a442f9'
p408
sg21
Vldr x0, [x0, #0x548]
p409
sg5
L18446743798839771452L
sg6
Nsg23
S'LDR'
p410
sg25
S'0xffffffc0007c013cL'
p411
sg27
Nsba(ibclass
BInstr
p412
(dp413
g2
Nsg17
S'LDR             W0, [X0]'
p414
sg19
S'000040b9'
p415
sg21
Vldr w0, [x0]
p416
sg5
L18446743798839771456L
sg6
Nsg23
S'LDR'
p417
sg25
S'0xffffffc0007c0140L'
p418
sg27
Nsba(ibclass
BInstr
p419
(dp420
g2
Nsg17
S'CBNZ            W0, loc_FFFFFFC0007C0248'
p421
sg19
S'20080035'
p422
sg21
Vcbnz w0, #0x104
p423
sg5
L18446743798839771460L
sg6
Nsg23
S'CBNZ'
p424
sg25
S'0xffffffc0007c0144L'
p425
sg27
Nsbasg154
(lp426
S'ADRP reg, #func@PAGE'
p427
aS'LDR reg, mem'
p428
aS'LDR reg, mem'
p429
aS'CBNZ reg, func'
p430
asg175
Nsg5
S'0xffffffc0007c0138L'
p431
sg177
(lp432
S'0xffffffc0007c012cL'
p433
asg6
Nsg179
(lp434
S'0xffffffc0007c0148L'
p435
aS'0xffffffc0007c0248L'
p436
asg183
Nsg184
Nsg185
S'9c97521b8b0f280d47a50ec9a5e4f86f'
p437
sg187
S'bd26f8893557dc5fa132ff2490be0ebf'
p438
sg189
(lp439
g403
ag410
ag417
ag424
asg191
Nsba(ibclass
BBasicBlock
p440
(dp441
g12
Nsg13
(lp442
(ibclass
BInstr
p443
(dp444
g2
Nsg17
S'ADRP            X0, #unk_FFFFFFC0013C1E2B@PAGE'
p445
sg19
S'006000b0'
p446
sg21
Vadrp x0, #0xc01000
p447
sg5
L18446743798839771464L
sg6
Nsg23
S'ADRP'
p448
sg25
S'0xffffffc0007c0148L'
p449
sg27
Nsba(ibclass
BInstr
p450
(dp451
g2
Nsg17
S'ADRP            X1, #(aQcomMdssDsi_17+0x1B)@PAGE; "err"'
p452
sg19
S'615b00f0'
p453
sg21
Vadrp x1, #0xb6f000
p454
sg5
L18446743798839771468L
sg6
Nsg23
S'ADRP'
p455
sg25
S'0xffffffc0007c014cL'
p456
sg27
Nsba(ibclass
BInstr
p457
(dp458
g2
Nsg17
S'ADD             X1, X1, #(aQcomMdssDsi_17+0x1B)@PAGEOFF; "err"'
p459
sg19
S'212c0591'
p460
sg21
Vadd x1, x1, #0x14b
p461
sg5
L18446743798839771472L
sg6
Nsg23
S'ADD'
p462
sg25
S'0xffffffc0007c0150L'
p463
sg27
Nsba(ibclass
BInstr
p464
(dp465
g2
Nsg17
S'ADD             X0, X0, #unk_FFFFFFC0013C1E2B@PAGEOFF'
p466
sg19
S'00ac3891'
p467
sg21
Vadd x0, x0, #0xe2b
p468
sg5
L18446743798839771476L
sg6
Nsg23
S'ADD'
p469
sg25
S'0xffffffc0007c0154L'
p470
sg27
Nsba(ibclass
BInstr
p471
(dp472
g2
Nsg17
S'BL              printk'
p473
sg19
S'07b41994'
p474
sg21
Vbl #0x66d01c
p475
sg5
L18446743798839771480L
sg6
Nsg23
S'BL'
p476
sg25
S'0xffffffc0007c0158L'
p477
sg27
Nsba(ibclass
BInstr
p478
(dp479
g2
Nsg17
S'B               loc_FFFFFFC0007C0248'
p480
sg19
S'3b000014'
p481
sg21
Vb #0xec
p482
sg5
L18446743798839771484L
sg6
Nsg23
g342
sg25
S'0xffffffc0007c015cL'
p483
sg27
Nsbasg154
(lp484
S'ADRP reg, #func@PAGE'
p485
aS'ADRP reg, #(aQcomMdssDsi_17+0x1B)@PAGE'
p486
aS'ADD reg, reg, #(aQcomMdssDsi_17+0x1B)@PAGEOFF'
p487
aS'ADD reg, reg, #func@PAGEOFF'
p488
aS'BL printk'
p489
aS'B func'
p490
asg175
Nsg5
S'0xffffffc0007c0148L'
p491
sg177
(lp492
S'0xffffffc0007c0138L'
p493
asg6
Nsg179
(lp494
S'0xffffffc0007c0248L'
p495
asg183
Nsg184
Nsg185
S'b2a3927201f2643e37e238d870ced3c2'
p496
sg187
S'3e167cdac8f124cfbacea29ee5c30eb0'
p497
sg189
(lp498
g448
ag455
ag462
ag469
ag476
ag342
asg191
Nsba(ibclass
BBasicBlock
p499
(dp500
g12
Nsg13
(lp501
(ibclass
BInstr
p502
(dp503
g2
Nsg17
S'LDR             X0, [X20,#0x10]'
p504
sg19
S'800a40f9'
p505
sg21
Vldr x0, [x20, #0x10]
p506
sg5
L18446743798839771488L
sg6
Nsg23
S'LDR'
p507
sg25
S'0xffffffc0007c0160L'
p508
sg27
Nsba(ibclass
BInstr
p509
(dp510
g2
Nsg17
S'STR             W21, [X29,#arg_40]'
p511
sg19
S'b55300b9'
p512
sg21
Vstr w21, [x29, #0x50]
p513
sg5
L18446743798839771492L
sg6
Nsg23
S'STR'
p514
sg25
S'0xffffffc0007c0164L'
p515
sg27
Nsba(ibclass
BInstr
p516
(dp517
g2
Nsg17
S'STR             X0, [X29,#arg_48]'
p518
sg19
S'a02f00f9'
p519
sg21
Vstr x0, [x29, #0x58]
p520
sg5
L18446743798839771496L
sg6
Nsg23
S'STR'
p521
sg25
S'0xffffffc0007c0168L'
p522
sg27
Nsba(ibclass
BInstr
p523
(dp524
g2
Nsg17
S'LDR             W0, [X19,#0xC]'
p525
sg19
S'600e40b9'
p526
sg21
Vldr w0, [x19, #0xc]
p527
sg5
L18446743798839771500L
sg6
Nsg23
S'LDR'
p528
sg25
S'0xffffffc0007c016cL'
p529
sg27
Nsba(ibclass
BInstr
p530
(dp531
g2
Nsg17
S'BL              hfi_map_err_status'
p532
sg19
S'38faff97'
p533
sg21
Vbl #0xffffffffffffe8e0
p534
sg5
L18446743798839771504L
sg6
Nsg23
S'BL'
p535
sg25
S'0xffffffc0007c0170L'
p536
sg27
Nsba(ibclass
BInstr
p537
(dp538
g2
Nsg17
S'MOV             W1, #0xB0'
p539
sg19
S'01168052'
p540
sg21
Vmovz w1, #0xb0
p541
sg5
L18446743798839771508L
sg6
Nsg23
S'MOV'
p542
sg25
S'0xffffffc0007c0174L'
p543
sg27
Nsba(ibclass
BInstr
p544
(dp545
g2
Nsg17
S'STR             W1, [X29,#arg_54]'
p546
sg19
S'a16700b9'
p547
sg21
Vstr w1, [x29, #0x64]
p548
sg5
L18446743798839771512L
sg6
Nsg23
S'STR'
p549
sg25
S'0xffffffc0007c0178L'
p550
sg27
Nsba(ibclass
BInstr
p551
(dp552
g2
Nsg17
S'LDR             W22, [X19,#0x1C]'
p553
sg19
S'761e40b9'
p554
sg21
Vldr w22, [x19, #0x1c]
p555
sg5
L18446743798839771516L
sg6
Nsg23
S'LDR'
p556
sg25
S'0xffffffc0007c017cL'
p557
sg27
Nsba(ibclass
BInstr
p558
(dp559
g2
Nsg17
S'LDR             W1, [X19,#0x18]'
p560
sg19
S'611a40b9'
p561
sg21
Vldr w1, [x19, #0x18]
p562
sg5
L18446743798839771520L
sg6
Nsg23
S'LDR'
p563
sg25
S'0xffffffc0007c0180L'
p564
sg27
Nsba(ibclass
BInstr
p565
(dp566
g2
Nsg17
S'STR             W0, [X29,#arg_50]'
p567
sg19
S'a06300b9'
p568
sg21
Vstr w0, [x29, #0x60]
p569
sg5
L18446743798839771524L
sg6
Nsg23
S'STR'
p570
sg25
S'0xffffffc0007c0184L'
p571
sg27
Nsba(ibclass
BInstr
p572
(dp573
g2
Nsg17
S'STR             W1, [X29,#arg_58]'
p574
sg19
S'a16b00b9'
p575
sg21
Vstr w1, [x29, #0x68]
p576
sg5
L18446743798839771528L
sg6
Nsg23
S'STR'
p577
sg25
S'0xffffffc0007c0188L'
p578
sg27
Nsba(ibclass
BInstr
p579
(dp580
g2
Nsg17
S'MOV             W1, W22'
p581
sg19
S'e103162a'
p582
sg21
Vmov w1, w22
p583
sg5
L18446743798839771532L
sg6
Nsg23
S'MOV'
p584
sg25
S'0xffffffc0007c018cL'
p585
sg27
Nsba(ibclass
BInstr
p586
(dp587
g2
Nsg17
S'STR             X1, [X29,#arg_90]'
p588
sg19
S'a15300f9'
p589
sg21
Vstr x1, [x29, #0xa0]
p590
sg5
L18446743798839771536L
sg6
Nsg23
S'STR'
p591
sg25
S'0xffffffc0007c0190L'
p592
sg27
Nsba(ibclass
BInstr
p593
(dp594
g2
Nsg17
S'LDR             W1, [X19,#0x20]'
p595
sg19
S'612240b9'
p596
sg21
Vldr w1, [x19, #0x20]
p597
sg5
L18446743798839771540L
sg6
Nsg23
S'LDR'
p598
sg25
S'0xffffffc0007c0194L'
p599
sg27
Nsba(ibclass
BInstr
p600
(dp601
g2
Nsg17
S'STR             W0, [X29,#arg_6C]'
p602
sg19
S'a07f00b9'
p603
sg21
Vstr w0, [x29, #0x7c]
p604
sg5
L18446743798839771544L
sg6
Nsg23
S'STR'
p605
sg25
S'0xffffffc0007c0198L'
p606
sg27
Nsba(ibclass
BInstr
p607
(dp608
g2
Nsg17
S'ADRP            X0, #qword_FFFFFFC000E47920@PAGE'
p609
sg19
S'203400f0'
p610
sg21
Vadrp x0, #0x687000
p611
sg5
L18446743798839771548L
sg6
Nsg23
S'ADRP'
p612
sg25
S'0xffffffc0007c019cL'
p613
sg27
Nsba(ibclass
BInstr
p614
(dp615
g2
Nsg17
S'STR             X1, [X29,#arg_98]'
p616
sg19
S'a15700f9'
p617
sg21
Vstr x1, [x29, #0xa8]
p618
sg5
L18446743798839771552L
sg6
Nsg23
S'STR'
p619
sg25
S'0xffffffc0007c01a0L'
p620
sg27
Nsba(ibclass
BInstr
p621
(dp622
g2
Nsg17
S'LDR             X1, [X0,#qword_FFFFFFC000E47920@PAGEOFF]'
p623
sg19
S'019044f9'
p624
sg21
Vldr x1, [x0, #0x920]
p625
sg5
L18446743798839771556L
sg6
Nsg23
S'LDR'
p626
sg25
S'0xffffffc0007c01a4L'
p627
sg27
Nsba(ibclass
BInstr
p628
(dp629
g2
Nsg17
S'LDR             W20, [X19,#0x10]'
p630
sg19
S'741240b9'
p631
sg21
Vldr w20, [x19, #0x10]
p632
sg5
L18446743798839771560L
sg6
Nsg23
S'LDR'
p633
sg25
S'0xffffffc0007c01a8L'
p634
sg27
Nsba(ibclass
BInstr
p635
(dp636
g2
Nsg17
S'LDR             W21, [X19,#0x14]'
p637
sg19
S'751640b9'
p638
sg21
Vldr w21, [x19, #0x14]
p639
sg5
L18446743798839771564L
sg6
Nsg23
S'LDR'
p640
sg25
S'0xffffffc0007c01acL'
p641
sg27
Nsba(ibclass
BInstr
p642
(dp643
g2
Nsg17
S'LDR             W1, [X1,#8]'
p644
sg19
S'210840b9'
p645
sg21
Vldr w1, [x1, #8]
p646
sg5
L18446743798839771568L
sg6
Nsg23
S'LDR'
p647
sg25
S'0xffffffc0007c01b0L'
p648
sg27
Nsba(ibclass
BInstr
p649
(dp650
g2
Nsg17
S'STR             W20, [X29,#arg_7C]'
p651
sg19
S'b48f00b9'
p652
sg21
Vstr w20, [x29, #0x8c]
p653
sg5
L18446743798839771572L
sg6
Nsg23
S'STR'
p654
sg25
S'0xffffffc0007c01b4L'
p655
sg27
Nsba(ibclass
BInstr
p656
(dp657
g2
Nsg17
S'STR             W21, [X29,#arg_84]'
p658
sg19
S'b59700b9'
p659
sg21
Vstr w21, [x29, #0x94]
p660
sg5
L18446743798839771576L
sg6
Nsg23
S'STR'
p661
sg25
S'0xffffffc0007c01b8L'
p662
sg27
Nsba(ibclass
BInstr
p663
(dp664
g2
Nsg17
S'CBZ             W1, loc_FFFFFFC0007C023C'
p665
sg19
S'01040034'
p666
sg21
Vcbz w1, #0x80
p667
sg5
L18446743798839771580L
sg6
Nsg23
S'CBZ'
p668
sg25
S'0xffffffc0007c01bcL'
p669
sg27
Nsbasg154
(lp670
S'LDR reg, mem'
p671
aS'STR reg1, mem'
p672
aS'STR reg, mem'
p673
aS'LDR reg, mem'
p674
aS'BL hfi_map_err_status'
p675
aS'MOV reg, #0xB0'
p676
aS'STR reg, mem'
p677
aS'LDR reg2, mem'
p678
aS'LDR reg, mem'
p679
aS'STR reg, mem'
p680
aS'STR reg, mem'
p681
aS'MOV reg, reg2'
p682
aS'STR reg, mem'
p683
aS'LDR reg, mem'
p684
aS'STR reg, mem'
p685
aS'ADRP reg, #func@PAGE'
p686
aS'STR reg, mem'
p687
aS'LDR reg, mem'
p688
aS'LDR reg0, mem'
p689
aS'LDR reg1, mem'
p690
aS'LDR reg, mem'
p691
aS'STR reg0, mem'
p692
aS'STR reg1, mem'
p693
aS'CBZ reg, func'
p694
asg175
Nsg5
S'0xffffffc0007c0160L'
p695
sg177
(lp696
S'0xffffffc0007c0120L'
p697
asg6
Nsg179
(lp698
S'0xffffffc0007c01c0L'
p699
aS'0xffffffc0007c023cL'
p700
asg183
Nsg184
Nsg185
S'7e7014a86d1cae8c55371c644c0e04f3'
p701
sg187
S'560cfdfe95dd2850b85a966a83b820e7'
p702
sg189
(lp703
g507
ag514
ag521
ag528
ag535
ag542
ag549
ag556
ag563
ag570
ag577
ag584
ag591
ag598
ag605
ag612
ag619
ag626
ag633
ag640
ag647
ag654
ag661
ag668
asg191
Nsba(ibclass
BBasicBlock
p704
(dp705
g12
Nsg13
(lp706
(ibclass
BInstr
p707
(dp708
g2
Nsg17
S'MOV             X2, SP'
p709
sg19
S'e2030091'
p710
sg21
Vmov x2, sp
p711
sg5
L18446743798839771584L
sg6
Nsg23
S'MOV'
p712
sg25
S'0xffffffc0007c01c0L'
p713
sg27
Nsba(ibclass
BInstr
p714
(dp715
g2
Nsg17
S'AND             X1, X2, #0xFFFFFFFFFFFFC000'
p716
sg19
S'41c47292'
p717
sg21
Vand x1, x2, #0xffffffffffffc000
p718
sg5
L18446743798839771588L
sg6
Nsg23
S'AND'
p719
sg25
S'0xffffffc0007c01c4L'
p720
sg27
Nsba(ibclass
BInstr
p721
(dp722
g2
Nsg17
S'LDR             W2, [X1,#0x50]'
p723
sg19
S'225040b9'
p724
sg21
Vldr w2, [x1, #0x50]
p725
sg5
L18446743798839771592L
sg6
Nsg23
S'LDR'
p726
sg25
S'0xffffffc0007c01c8L'
p727
sg27
Nsba(ibclass
BInstr
p728
(dp729
g2
Nsg17
S'ADD             W2, W2, #1'
p730
sg19
S'42040011'
p731
sg21
Vadd w2, w2, #1
p732
sg5
L18446743798839771596L
sg6
Nsg23
S'ADD'
p733
sg25
S'0xffffffc0007c01ccL'
p734
sg27
Nsba(ibclass
BInstr
p735
(dp736
g2
Nsg17
S'STR             W2, [X1,#0x50]'
p737
sg19
S'225000b9'
p738
sg21
Vstr w2, [x1, #0x50]
p739
sg5
L18446743798839771600L
sg6
Nsg23
S'STR'
p740
sg25
S'0xffffffc0007c01d0L'
p741
sg27
Nsba(ibclass
BInstr
p742
(dp743
g2
Nsg17
S'LDR             X0, [X0,#qword_FFFFFFC000E47920@PAGEOFF]'
p744
sg19
S'009044f9'
p745
sg21
Vldr x0, [x0, #0x920]
p746
sg5
L18446743798839771604L
sg6
Nsg23
S'LDR'
p747
sg25
S'0xffffffc0007c01d4L'
p748
sg27
Nsba(ibclass
BInstr
p749
(dp750
g2
Nsg17
S'LDR             X19, [X0,#0x20]'
p751
sg19
S'131040f9'
p752
sg21
Vldr x19, [x0, #0x20]
p753
sg5
L18446743798839771608L
sg6
Nsg23
S'LDR'
p754
sg25
S'0xffffffc0007c01d8L'
p755
sg27
Nsba(ibclass
BInstr
p756
(dp757
g2
Nsg17
S'MOV             X0, SP'
p758
sg19
S'e0030091'
p759
sg21
Vmov x0, sp
p760
sg5
L18446743798839771612L
sg6
Nsg23
S'MOV'
p761
sg25
S'0xffffffc0007c01dcL'
p762
sg27
Nsba(ibclass
BInstr
p763
(dp764
g2
Nsg17
S'AND             X23, X0, #0xFFFFFFFFFFFFC000'
p765
sg19
S'17c47292'
p766
sg21
Vand x23, x0, #0xffffffffffffc000
p767
sg5
L18446743798839771616L
sg6
Nsg23
S'AND'
p768
sg25
S'0xffffffc0007c01e0L'
p769
sg27
Nsba(ibclass
BInstr
p770
(dp771
g2
Nsg17
S'CBZ             X19, loc_FFFFFFC0007C021C'
p772
sg19
S'd30100b4'
p773
sg21
Vcbz x19, #0x38
p774
sg5
L18446743798839771620L
sg6
Nsg23
S'CBZ'
p775
sg25
S'0xffffffc0007c01e4L'
p776
sg27
Nsbasg154
(lp777
S'MOV reg, SP'
p778
aS'AND reg, reg, #0xFFFFFFFFFFFFC000'
p779
aS'LDR reg, mem'
p780
aS'ADD reg, reg, #1'
p781
aS'STR reg, mem'
p782
aS'LDR reg, mem'
p783
aS'LDR reg9, mem'
p784
aS'MOV reg, SP'
p785
aS'AND reg3, reg, #0xFFFFFFFFFFFFC000'
p786
aS'CBZ reg9, func'
p787
asg175
Nsg5
S'0xffffffc0007c01c0L'
p788
sg177
(lp789
S'0xffffffc0007c0160L'
p790
asg6
Nsg179
(lp791
S'0xffffffc0007c01e8L'
p792
aS'0xffffffc0007c021cL'
p793
asg183
Nsg184
Nsg185
S'17565935db79b1349000da327327877e'
p794
sg187
S'b9956ceef6fd9190ee16e422b0392c1f'
p795
sg189
(lp796
g712
ag719
ag726
ag733
ag740
ag747
ag754
ag761
ag768
ag775
asg191
Nsba(ibclass
BBasicBlock
p797
(dp798
g12
Nsg13
(lp799
(ibclass
BInstr
p800
(dp801
g2
Nsg17
S'ADRP            X25, #unk_FFFFFFC0013C1E68@PAGE'
p802
sg19
S'196000b0'
p803
sg21
Vadrp x25, #0xc01000
p804
sg5
L18446743798839771624L
sg6
Nsg23
S'ADRP'
p805
sg25
S'0xffffffc0007c01e8L'
p806
sg27
Nsba(ibclass
BInstr
p807
(dp808
g2
Nsg17
S'ADD             X25, X25, #unk_FFFFFFC0013C1E68@PAGEOFF'
p809
sg19
S'39a33991'
p810
sg21
Vadd x25, x25, #0xe68
p811
sg5
L18446743798839771628L
sg6
Nsg23
S'ADD'
p812
sg25
S'0xffffffc0007c01ecL'
p813
sg27
Nsbasg154
(lp814
S'ADRP reg5, #func@PAGE'
p815
aS'ADD reg5, reg5, #func@PAGEOFF'
p816
asg175
Nsg5
S'0xffffffc0007c01e8L'
p817
sg177
(lp818
S'0xffffffc0007c01c0L'
p819
asg6
Nsg179
(lp820
S'0xffffffc0007c01f0L'
p821
asg183
Nsg184
Nsg185
S'4c330fd47d9d30794e360f434bcba16f'
p822
sg187
S'ed92607087446651a29c56fd8aa6780b'
p823
sg189
(lp824
g805
ag812
asg191
Nsba(ibclass
BBasicBlock
p825
(dp826
g12
Nsg13
(lp827
(ibclass
BInstr
p828
(dp829
g2
Nsg17
S'LDR             X7, [X19]'
p830
sg19
S'670240f9'
p831
sg21
Vldr x7, [x19]
p832
sg5
L18446743798839771632L
sg6
Nsg23
S'LDR'
p833
sg25
S'0xffffffc0007c01f0L'
p834
sg27
Nsba(ibclass
BInstr
p835
(dp836
g2
Nsg17
S'LDR             X0, [X19,#8]'
p837
sg19
S'600640f9'
p838
sg21
Vldr x0, [x19, #8]
p839
sg5
L18446743798839771636L
sg6
Nsg23
S'LDR'
p840
sg25
S'0xffffffc0007c01f4L'
p841
sg27
Nsba(ibclass
BInstr
p842
(dp843
g2
Nsg17
S'MOV             X3, #0xFFFFFFFFFFFFFFFF'
p844
sg19
S'03008092'
p845
sg21
Vmovn x3, #0
p846
sg5
L18446743798839771640L
sg6
Nsg23
S'MOV'
p847
sg25
S'0xffffffc0007c01f8L'
p848
sg27
Nsba(ibclass
BInstr
p849
(dp850
g2
Nsg17
S'MOV             X1, X25'
p851
sg19
S'e10319aa'
p852
sg21
Vmov x1, x25
p853
sg5
L18446743798839771644L
sg6
Nsg23
S'MOV'
p854
sg25
S'0xffffffc0007c01fcL'
p855
sg27
Nsba(ibclass
BInstr
p856
(dp857
g2
Nsg17
S'MOV             W2, W22'
p858
sg19
S'e203162a'
p859
sg21
Vmov w2, w22
p860
sg5
L18446743798839771648L
sg6
Nsg23
S'MOV'
p861
sg25
S'0xffffffc0007c0200L'
p862
sg27
Nsba(ibclass
BInstr
p863
(dp864
g2
Nsg17
S'MOV             W4, W3'
p865
sg19
S'e403032a'
p866
sg21
Vmov w4, w3
p867
sg5
L18446743798839771652L
sg6
Nsg23
S'MOV'
p868
sg25
S'0xffffffc0007c0204L'
p869
sg27
Nsba(ibclass
BInstr
p870
(dp871
g2
Nsg17
S'MOV             W5, W21'
p872
sg19
S'e503152a'
p873
sg21
Vmov w5, w21
p874
sg5
L18446743798839771656L
sg6
Nsg23
S'MOV'
p875
sg25
S'0xffffffc0007c0208L'
p876
sg27
Nsba(ibclass
BInstr
p877
(dp878
g2
Nsg17
S'MOV             W6, W20'
p879
sg19
S'e603142a'
p880
sg21
Vmov w6, w20
p881
sg5
L18446743798839771660L
sg6
Nsg23
S'MOV'
p882
sg25
S'0xffffffc0007c020cL'
p883
sg27
Nsba(ibclass
BInstr
p884
(dp885
g2
Nsg17
S'BLR             X7'
p886
sg19
S'e0003fd6'
p887
sg21
Vblr x7
p888
sg5
L18446743798839771664L
sg6
Nsg23
S'BLR'
p889
sg25
S'0xffffffc0007c0210L'
p890
sg27
Nsba(ibclass
BInstr
p891
(dp892
g2
Nsg17
S'LDR             X0, [X19,#0x10]!'
p893
sg19
S'600e41f8'
p894
sg21
Vldr x0, [x19, #0x10]!
p895
sg5
L18446743798839771668L
sg6
Nsg23
S'LDR'
p896
sg25
S'0xffffffc0007c0214L'
p897
sg27
Nsba(ibclass
BInstr
p898
(dp899
g2
Nsg17
S'CBNZ            X0, loc_FFFFFFC0007C01F0'
p900
sg19
S'c0feffb5'
p901
sg21
Vcbnz x0, #0xffffffffffffffd8
p902
sg5
L18446743798839771672L
sg6
Nsg23
S'CBNZ'
p903
sg25
S'0xffffffc0007c0218L'
p904
sg27
Nsbasg154
(lp905
S'LDR reg, mem'
p906
aS'LDR reg, mem'
p907
aS'MOV reg, #0xFFFFFFFFFFFFFFFF'
p908
aS'MOV reg, reg5'
p909
aS'MOV reg, reg2'
p910
aS'MOV reg, reg'
p911
aS'MOV reg, reg1'
p912
aS'MOV reg, reg0'
p913
aS'BLR reg'
p914
aS'LDR reg, mem!'
p915
aS'CBNZ reg, func'
p916
asg175
Nsg5
S'0xffffffc0007c01f0L'
p917
sg177
(lp918
S'0xffffffc0007c01e8L'
p919
aS'0xffffffc0007c01f0L'
p920
asg6
Nsg179
(lp921
S'0xffffffc0007c021cL'
p922
aS'0xffffffc0007c01f0L'
p923
asg183
Nsg184
Nsg185
S'a8133e2834b271baeb8780233d3c96cf'
p924
sg187
S'0a21ee91b2156745e9d0f1405e2d7bcb'
p925
sg189
(lp926
g833
ag840
ag847
ag854
ag861
ag868
ag875
ag882
ag889
ag896
ag903
asg191
Nsba(ibclass
BBasicBlock
p927
(dp928
g12
Nsg13
(lp929
(ibclass
BInstr
p930
(dp931
g2
Nsg17
S'LDR             W0, [X23,#0x50]'
p932
sg19
S'e05240b9'
p933
sg21
Vldr w0, [x23, #0x50]
p934
sg5
L18446743798839771676L
sg6
Nsg23
S'LDR'
p935
sg25
S'0xffffffc0007c021cL'
p936
sg27
Nsba(ibclass
BInstr
p937
(dp938
g2
Nsg17
S'SUB             W0, W0, #1'
p939
sg19
S'00040051'
p940
sg21
Vsub w0, w0, #1
p941
sg5
L18446743798839771680L
sg6
Nsg23
S'SUB'
p942
sg25
S'0xffffffc0007c0220L'
p943
sg27
Nsba(ibclass
BInstr
p944
(dp945
g2
Nsg17
S'STR             W0, [X23,#0x50]'
p946
sg19
S'e05200b9'
p947
sg21
Vstr w0, [x23, #0x50]
p948
sg5
L18446743798839771684L
sg6
Nsg23
S'STR'
p949
sg25
S'0xffffffc0007c0224L'
p950
sg27
Nsba(ibclass
BInstr
p951
(dp952
g2
Nsg17
S'MOV             X1, SP'
p953
sg19
S'e1030091'
p954
sg21
Vmov x1, sp
p955
sg5
L18446743798839771688L
sg6
Nsg23
S'MOV'
p956
sg25
S'0xffffffc0007c0228L'
p957
sg27
Nsba(ibclass
BInstr
p958
(dp959
g2
Nsg17
S'AND             X0, X1, #0xFFFFFFFFFFFFC000'
p960
sg19
S'20c47292'
p961
sg21
Vand x0, x1, #0xffffffffffffc000
p962
sg5
L18446743798839771692L
sg6
Nsg23
S'AND'
p963
sg25
S'0xffffffc0007c022cL'
p964
sg27
Nsba(ibclass
BInstr
p965
(dp966
g2
Nsg17
S'LDR             X0, [X0]'
p967
sg19
S'000040f9'
p968
sg21
Vldr x0, [x0]
p969
sg5
L18446743798839771696L
sg6
Nsg23
S'LDR'
p970
sg25
S'0xffffffc0007c0230L'
p971
sg27
Nsba(ibclass
BInstr
p972
(dp973
g2
Nsg17
S'TBZ             W0, #1, loc_FFFFFFC0007C023C'
p974
sg19
S'40000836'
p975
sg21
Vtbz w0, #1, #8
p976
sg5
L18446743798839771700L
sg6
Nsg23
S'TBZ'
p977
sg25
S'0xffffffc0007c0234L'
p978
sg27
Nsbasg154
(lp979
S'LDR reg, mem'
p980
aS'SUB reg, reg, #1'
p981
aS'STR reg, mem'
p982
aS'MOV reg, SP'
p983
aS'AND reg, reg, #0xFFFFFFFFFFFFC000'
p984
aS'LDR reg, mem'
p985
aS'TBZ reg, #1, func'
p986
asg175
Nsg5
S'0xffffffc0007c021cL'
p987
sg177
(lp988
S'0xffffffc0007c01c0L'
p989
aS'0xffffffc0007c01f0L'
p990
asg6
Nsg179
(lp991
S'0xffffffc0007c0238L'
p992
aS'0xffffffc0007c023cL'
p993
asg183
Nsg184
Nsg185
S'3720064751a364c91ffbeb0560410e63'
p994
sg187
S'37582c0faffe5543c0f071979b371e8c'
p995
sg189
(lp996
g935
ag942
ag949
ag956
ag963
ag970
ag977
asg191
Nsba(ibclass
BBasicBlock
p997
(dp998
g12
Nsg13
(lp999
(ibclass
BInstr
p1000
(dp1001
g2
Nsg17
S'BL              preempt_schedule'
p1002
sg19
S'68ea1994'
p1003
sg21
Vbl #0x67a9a0
p1004
sg5
L18446743798839771704L
sg6
Nsg23
S'BL'
p1005
sg25
S'0xffffffc0007c0238L'
p1006
sg27
Nsbasg154
(lp1007
S'BL preempt_schedule'
p1008
asg175
Nsg5
S'0xffffffc0007c0238L'
p1009
sg177
(lp1010
S'0xffffffc0007c021cL'
p1011
asg6
Nsg179
(lp1012
S'0xffffffc0007c023cL'
p1013
asg183
Nsg184
Nsg185
S'a6f5350f5a2b25a96d66757f761ce65c'
p1014
sg187
S'abf5f2d6f93e306e960abf1c303135c2'
p1015
sg189
(lp1016
g1005
asg191
Nsba(ibclass
BBasicBlock
p1017
(dp1018
g12
Nsg13
(lp1019
(ibclass
BInstr
p1020
(dp1021
g2
Nsg17
S'MOV             W0, #0x10'
p1022
sg19
S'00028052'
p1023
sg21
Vmovz w0, #0x10
p1024
sg5
L18446743798839771708L
sg6
Nsg23
S'MOV'
p1025
sg25
S'0xffffffc0007c023cL'
p1026
sg27
Nsba(ibclass
BInstr
p1027
(dp1028
g2
Nsg17
S'ADD             X1, X29, #0x50'
p1029
sg19
S'a1430191'
p1030
sg21
Vadd x1, x29, #0x50
p1031
sg5
L18446743798839771712L
sg6
Nsg23
S'ADD'
p1032
sg25
S'0xffffffc0007c0240L'
p1033
sg27
Nsba(ibclass
BInstr
p1034
(dp1035
g2
Nsg17
S'BLR             X24'
p1036
sg19
S'00033fd6'
p1037
sg21
Vblr x24
p1038
sg5
L18446743798839771716L
sg6
Nsg23
S'BLR'
p1039
sg25
S'0xffffffc0007c0244L'
p1040
sg27
Nsbasg154
(lp1041
S'MOV reg, #0x10'
p1042
aS'ADD reg, reg9, #0x50'
p1043
aS'BLR reg4'
p1044
asg175
Nsg5
S'0xffffffc0007c023cL'
p1045
sg177
(lp1046
S'0xffffffc0007c0160L'
p1047
aS'0xffffffc0007c021cL'
p1048
aS'0xffffffc0007c0238L'
p1049
asg6
Nsg179
(lp1050
S'0xffffffc0007c0248L'
p1051
asg183
Nsg184
Nsg185
S'325a0c928ad984d97c6619410888b346'
p1052
sg187
S'a3865de2310d8ed950c2d00bccd53fb2'
p1053
sg189
(lp1054
g1025
ag1032
ag1039
asg191
Nsba(ibclass
BBasicBlock
p1055
(dp1056
g12
Nsg13
(lp1057
(ibclass
BInstr
p1058
(dp1059
g2
Nsg17
S'LDP             X19, X20, [SP,#0xF0+var_E0]'
p1060
sg19
S'f35341a9'
p1061
sg21
Vldp x19, x20, [sp, #0x10]
p1062
sg5
L18446743798839771720L
sg6
Nsg23
S'LDP'
p1063
sg25
S'0xffffffc0007c0248L'
p1064
sg27
Nsba(ibclass
BInstr
p1065
(dp1066
g2
Nsg17
S'LDP             X21, X22, [SP,#0xF0+var_D0]'
p1067
sg19
S'f55b42a9'
p1068
sg21
Vldp x21, x22, [sp, #0x20]
p1069
sg5
L18446743798839771724L
sg6
Nsg23
S'LDP'
p1070
sg25
S'0xffffffc0007c024cL'
p1071
sg27
Nsba(ibclass
BInstr
p1072
(dp1073
g2
Nsg17
S'LDP             X23, X24, [SP,#0xF0+var_C0]'
p1074
sg19
S'f76343a9'
p1075
sg21
Vldp x23, x24, [sp, #0x30]
p1076
sg5
L18446743798839771728L
sg6
Nsg23
S'LDP'
p1077
sg25
S'0xffffffc0007c0250L'
p1078
sg27
Nsba(ibclass
BInstr
p1079
(dp1080
g2
Nsg17
S'LDR             X25, [SP,#0xF0+var_B0]'
p1081
sg19
S'f92340f9'
p1082
sg21
Vldr x25, [sp, #0x40]
p1083
sg5
L18446743798839771732L
sg6
Nsg23
S'LDR'
p1084
sg25
S'0xffffffc0007c0254L'
p1085
sg27
Nsba(ibclass
BInstr
p1086
(dp1087
g2
Nsg17
S'LDP             X29, X30, [SP+0xF0+var_F0],#0x100'
p1088
sg19
S'fd7bd0a8'
p1089
sg21
Vldp x29, x30, [sp], #0x100
p1090
sg5
L18446743798839771736L
sg6
Nsg23
S'LDP'
p1091
sg25
S'0xffffffc0007c0258L'
p1092
sg27
Nsba(ibclass
BInstr
p1093
(dp1094
g2
Nsg17
S'RET'
p1095
sg19
S'c0035fd6'
p1096
sg21
Vret 
p1097
sg5
L18446743798839771740L
sg6
Nsg23
S'RET'
p1098
sg25
S'0xffffffc0007c025cL'
p1099
sg27
Nsbasg154
(lp1100
S'LDP reg9, reg0, mem'
p1101
aS'LDP reg1, reg2, mem'
p1102
aS'LDP reg3, reg4, mem'
p1103
aS'LDR reg5, mem'
p1104
aS'LDP reg9, reg0, mem,#0x100'
p1105
ag1095
asg175
Nsg5
S'0xffffffc0007c0248L'
p1106
sg177
(lp1107
S'0xffffffc0007c012cL'
p1108
aS'0xffffffc0007c0138L'
p1109
aS'0xffffffc0007c0148L'
p1110
aS'0xffffffc0007c023cL'
p1111
asg6
Nsg179
(lp1112
sg183
Nsg184
Nsg185
S'435e86ed5c81e680f6e6bba6930929fc'
p1113
sg187
S'5618b6d28b00db864c9b361c9e550cdd'
p1114
sg189
(lp1115
g1063
ag1070
ag1077
ag1084
ag1091
ag1098
asg191
Nsbasb.