(ibclass
BFunc
p0
(dp1
S'hash'
p2
NsS'name'
p3
S'ip4_datagram_release_cb'
p4
sS'start_address'
p5
L18446743798845330604L
sS'flag'
p6
NsS'program'
p7
NsS'bbs'
p8
(lp9
(ibclass
BBasicBlock
p10
(dp11
S'function'
p12
NsS'binstrs'
p13
(lp14
(ibclass
BInstr
p15
(dp16
g2
NsS'disasm'
p17
S'STP             X29, X30, [SP,#-0x10+var_90]!'
p18
sS'bytes'
p19
S'fd7bb6a9'
p20
sS'disasm_striped'
p21
Vstp x29, x30, [sp, #-0xa0]!
p22
sg5
L18446743798845330604L
sg6
NsS'mnem'
p23
S'STP'
p24
sS'address'
p25
S'0xffffffc000d0d4acL'
p26
sS'basicblock'
p27
Nsba(ibclass
BInstr
p28
(dp29
g2
Nsg17
S'MOV             X29, SP'
p30
sg19
S'fd030091'
p31
sg21
Vmov x29, sp
p32
sg5
L18446743798845330608L
sg6
Nsg23
S'MOV'
p33
sg25
S'0xffffffc000d0d4b0L'
p34
sg27
Nsba(ibclass
BInstr
p35
(dp36
g2
Nsg17
S'STP             X19, X20, [SP,#0x90+var_80]'
p37
sg19
S'f35301a9'
p38
sg21
Vstp x19, x20, [sp, #0x10]
p39
sg5
L18446743798845330612L
sg6
Nsg23
S'STP'
p40
sg25
S'0xffffffc000d0d4b4L'
p41
sg27
Nsba(ibclass
BInstr
p42
(dp43
g2
Nsg17
S'STP             X21, X22, [SP,#0x90+var_70]'
p44
sg19
S'f55b02a9'
p45
sg21
Vstp x21, x22, [sp, #0x20]
p46
sg5
L18446743798845330616L
sg6
Nsg23
S'STP'
p47
sg25
S'0xffffffc000d0d4b8L'
p48
sg27
Nsba(ibclass
BInstr
p49
(dp50
g2
Nsg17
S'STP             X23, X24, [SP,#0x90+var_60]'
p51
sg19
S'f76303a9'
p52
sg21
Vstp x23, x24, [sp, #0x30]
p53
sg5
L18446743798845330620L
sg6
Nsg23
S'STP'
p54
sg25
S'0xffffffc000d0d4bcL'
p55
sg27
Nsba(ibclass
BInstr
p56
(dp57
g2
Nsg17
S'STP             X25, X26, [SP,#0x90+var_50]'
p58
sg19
S'f96b04a9'
p59
sg21
Vstp x25, x26, [sp, #0x40]
p60
sg5
L18446743798845330624L
sg6
Nsg23
S'STP'
p61
sg25
S'0xffffffc000d0d4c0L'
p62
sg27
Nsba(ibclass
BInstr
p63
(dp64
g2
Nsg17
S'STP             X27, X28, [SP,#0x90+var_40]'
p65
sg19
S'fb7305a9'
p66
sg21
Vstp x27, x28, [sp, #0x50]
p67
sg5
L18446743798845330628L
sg6
Nsg23
S'STP'
p68
sg25
S'0xffffffc000d0d4c4L'
p69
sg27
Nsba(ibclass
BInstr
p70
(dp71
g2
Nsg17
S'LDR             X1, [X0,#0xE0]'
p72
sg19
S'017040f9'
p73
sg21
Vldr x1, [x0, #0xe0]
p74
sg5
L18446743798845330632L
sg6
Nsg23
S'LDR'
p75
sg25
S'0xffffffc000d0d4c8L'
p76
sg27
Nsba(ibclass
BInstr
p77
(dp78
g2
Nsg17
S'MOV             X19, X0'
p79
sg19
S'f30300aa'
p80
sg21
Vmov x19, x0
p81
sg5
L18446743798845330636L
sg6
Nsg23
S'MOV'
p82
sg25
S'0xffffffc000d0d4ccL'
p83
sg27
Nsba(ibclass
BInstr
p84
(dp85
g2
Nsg17
S'LDR             W21, [X0]'
p86
sg19
S'150040b9'
p87
sg21
Vldr w21, [x0]
p88
sg5
L18446743798845330640L
sg6
Nsg23
S'LDR'
p89
sg25
S'0xffffffc000d0d4d0L'
p90
sg27
Nsba(ibclass
BInstr
p91
(dp92
g2
Nsg17
S'CBZ             X1, loc_FFFFFFC000D0D5E8'
p93
sg19
S'a10800b4'
p94
sg21
Vcbz x1, #0x114
p95
sg5
L18446743798845330644L
sg6
Nsg23
S'CBZ'
p96
sg25
S'0xffffffc000d0d4d4L'
p97
sg27
NsbasS'disasm_list'
p98
(lp99
S'STP reg9, reg0, mem!'
p100
aS'MOV reg9, SP'
p101
aS'STP reg9, reg0, mem'
p102
aS'STP reg1, reg2, mem'
p103
aS'STP reg3, reg4, mem'
p104
aS'STP reg5, reg6, mem'
p105
aS'STP reg7, reg8, mem'
p106
aS'LDR reg, mem'
p107
aS'MOV reg9, reg'
p108
aS'LDR reg1, mem'
p109
aS'CBZ reg, func'
p110
asS'end_address'
p111
Nsg5
S'0xffffffc000d0d4acL'
p112
sS'preds'
p113
(lp114
sg6
NsS'succs'
p115
(lp116
S'0xffffffc000d0d4d8L'
p117
aS'0xffffffc000d0d5e8L'
p118
asS'hash_v3'
p119
NsS'flag_v2'
p120
NsS'hash_v1'
p121
S'45dfb00e93a3fa991b84b196d9ac28fd'
p122
sS'hash_v2'
p123
S'78adcca01674f18c69764e9f1c3b23ef'
p124
sS'mnen_list'
p125
(lp126
g24
ag33
ag40
ag47
ag54
ag61
ag68
ag75
ag82
ag89
ag96
asS'neighbour_disasm_list'
p127
Nsba(ibclass
BBasicBlock
p128
(dp129
g12
Nsg13
(lp130
(ibclass
BInstr
p131
(dp132
g2
Nsg17
S'MOV             W1, #0'
p133
sg19
S'01008052'
p134
sg21
Vmovz w1, #0
p135
sg5
L18446743798845330648L
sg6
Nsg23
S'MOV'
p136
sg25
S'0xffffffc000d0d4d8L'
p137
sg27
Nsba(ibclass
BInstr
p138
(dp139
g2
Nsg17
S'BL              __sk_dst_check'
p140
sg19
S'0db0fd97'
p141
sg21
Vbl #0xfffffffffff6c034
p142
sg5
L18446743798845330652L
sg6
Nsg23
S'BL'
p143
sg25
S'0xffffffc000d0d4dcL'
p144
sg27
Nsba(ibclass
BInstr
p145
(dp146
g2
Nsg17
S'CBNZ            X0, loc_FFFFFFC000D0D5E8'
p147
sg19
S'400800b5'
p148
sg21
Vcbnz x0, #0x108
p149
sg5
L18446743798845330656L
sg6
Nsg23
S'CBNZ'
p150
sg25
S'0xffffffc000d0d4e0L'
p151
sg27
Nsbasg98
(lp152
S'MOV reg, #0'
p153
aS'BL __sk_dst_check'
p154
aS'CBNZ reg, func'
p155
asg111
Nsg5
S'0xffffffc000d0d4d8L'
p156
sg113
(lp157
S'0xffffffc000d0d4acL'
p158
asg6
Nsg115
(lp159
S'0xffffffc000d0d4e4L'
p160
aS'0xffffffc000d0d5e8L'
p161
asg119
Nsg120
Nsg121
S'd94dd35a389202654e8130c5e135dc43'
p162
sg123
S'e5be0b6eeca7cfaa865fdd1d530afe8a'
p163
sg125
(lp164
g136
ag143
ag150
asg127
Nsba(ibclass
BBasicBlock
p165
(dp166
g12
Nsg13
(lp167
(ibclass
BInstr
p168
(dp169
g2
Nsg17
S'BL              __rcu_read_lock'
p170
sg19
S'3bb6d497'
p171
sg21
Vbl #0xffffffffff52d8ec
p172
sg5
L18446743798845330660L
sg6
Nsg23
S'BL'
p173
sg25
S'0xffffffc000d0d4e4L'
p174
sg27
Nsba(ibclass
BInstr
p175
(dp176
g2
Nsg17
S'LDR             X0, [X19,#0x290]'
p177
sg19
S'604a41f9'
p178
sg21
Vldr x0, [x19, #0x290]
p179
sg5
L18446743798845330664L
sg6
Nsg23
S'LDR'
p180
sg25
S'0xffffffc000d0d4e8L'
p181
sg27
Nsba(ibclass
BInstr
p182
(dp183
g2
Nsg17
S'CBZ             X0, loc_FFFFFFC000D0D4FC'
p184
sg19
S'800000b4'
p185
sg21
Vcbz x0, #0x10
p186
sg5
L18446743798845330668L
sg6
Nsg23
S'CBZ'
p187
sg25
S'0xffffffc000d0d4ecL'
p188
sg27
Nsbasg98
(lp189
S'BL __rcu_read_lock'
p190
aS'LDR reg, mem'
p191
aS'CBZ reg, func'
p192
asg111
Nsg5
S'0xffffffc000d0d4e4L'
p193
sg113
(lp194
S'0xffffffc000d0d4d8L'
p195
asg6
Nsg115
(lp196
S'0xffffffc000d0d4f0L'
p197
aS'0xffffffc000d0d4fcL'
p198
asg119
Nsg120
Nsg121
S'43b6126292f35baea3557c66e3343c55'
p199
sg123
S'0321f4d042a61770cc23782e000d9ab6'
p200
sg125
(lp201
g173
ag180
ag187
asg127
Nsba(ibclass
BBasicBlock
p202
(dp203
g12
Nsg13
(lp204
(ibclass
BInstr
p205
(dp206
g2
Nsg17
S'LDRB            W1, [X0,#0x19]'
p207
sg19
S'01644039'
p208
sg21
Vldrb w1, [x0, #0x19]
p209
sg5
L18446743798845330672L
sg6
Nsg23
S'LDR'
p210
sg25
S'0xffffffc000d0d4f0L'
p211
sg27
Nsba(ibclass
BInstr
p212
(dp213
g2
Nsg17
S'CBZ             W1, loc_FFFFFFC000D0D4FC'
p214
sg19
S'41000034'
p215
sg21
Vcbz w1, #8
p216
sg5
L18446743798845330676L
sg6
Nsg23
S'CBZ'
p217
sg25
S'0xffffffc000d0d4f4L'
p218
sg27
Nsbasg98
(lp219
S'LDRB reg, mem'
p220
aS'CBZ reg, func'
p221
asg111
Nsg5
S'0xffffffc000d0d4f0L'
p222
sg113
(lp223
S'0xffffffc000d0d4e4L'
p224
asg6
Nsg115
(lp225
S'0xffffffc000d0d4f8L'
p226
aS'0xffffffc000d0d4fcL'
p227
asg119
Nsg120
Nsg121
S'a0c488049ab653dbdfa1dc805bb83f13'
p228
sg123
S'b1e37b9f660dcea597f0caebd1994bf4'
p229
sg125
(lp230
g210
ag217
asg127
Nsba(ibclass
BBasicBlock
p231
(dp232
g12
Nsg13
(lp233
(ibclass
BInstr
p234
(dp235
g2
Nsg17
S'LDR             W21, [X0,#0x10]'
p236
sg19
S'151040b9'
p237
sg21
Vldr w21, [x0, #0x10]
p238
sg5
L18446743798845330680L
sg6
Nsg23
S'LDR'
p239
sg25
S'0xffffffc000d0d4f8L'
p240
sg27
Nsbasg98
(lp241
S'LDR reg1, mem'
p242
asg111
Nsg5
S'0xffffffc000d0d4f8L'
p243
sg113
(lp244
S'0xffffffc000d0d4f0L'
p245
asg6
Nsg115
(lp246
S'0xffffffc000d0d4fcL'
p247
asg119
Nsg120
Nsg121
S'6645d4de79aee6373f120d72c0030e5f'
p248
sg123
S'00fca5ee3498913438e6960528510a75'
p249
sg125
(lp250
g239
asg127
Nsba(ibclass
BBasicBlock
p251
(dp252
g12
Nsg13
(lp253
(ibclass
BInstr
p254
(dp255
g2
Nsg17
S'LDR             X28, [X19,#0xD0]'
p256
sg19
S'7c6a40f9'
p257
sg21
Vldr x28, [x19, #0xd0]
p258
sg5
L18446743798845330684L
sg6
Nsg23
S'LDR'
p259
sg25
S'0xffffffc000d0d4fcL'
p260
sg27
Nsba(ibclass
BInstr
p261
(dp262
g2
Nsg17
S'LDRB            W0, [X19,#0x29C]'
p263
sg19
S'60724a39'
p264
sg21
Vldrb w0, [x19, #0x29c]
p265
sg5
L18446743798845330688L
sg6
Nsg23
S'LDR'
p266
sg25
S'0xffffffc000d0d500L'
p267
sg27
Nsba(ibclass
BInstr
p268
(dp269
g2
Nsg17
S'UBFM            X28, X28, #0xD, #0xD'
p270
sg19
S'9c374dd3'
p271
sg21
Vubfx x28, x28, #0xd, #1
p272
sg5
L18446743798845330692L
sg6
Nsg23
S'UBFM'
p273
sg25
S'0xffffffc000d0d504L'
p274
sg27
Nsba(ibclass
BInstr
p275
(dp276
g2
Nsg17
S'AND             W0, W0, #0x1E'
p277
sg19
S'000c1f12'
p278
sg21
Vand w0, w0, #0x1e
p279
sg5
L18446743798845330696L
sg6
Nsg23
S'AND'
p280
sg25
S'0xffffffc000d0d508L'
p281
sg27
Nsba(ibclass
BInstr
p282
(dp283
g2
Nsg17
S'LDR             X23, [X19,#0x30]'
p284
sg19
S'771a40f9'
p285
sg21
Vldr x23, [x19, #0x30]
p286
sg5
L18446743798845330700L
sg6
Nsg23
S'LDR'
p287
sg25
S'0xffffffc000d0d50cL'
p288
sg27
Nsba(ibclass
BInstr
p289
(dp290
g2
Nsg17
S'LDR             W24, [X19,#0x280]'
p291
sg19
S'788242b9'
p292
sg21
Vldr w24, [x19, #0x280]
p293
sg5
L18446743798845330704L
sg6
Nsg23
S'LDR'
p294
sg25
S'0xffffffc000d0d510L'
p295
sg27
Nsba(ibclass
BInstr
p296
(dp297
g2
Nsg17
S'LDRH            W25, [X19,#0xC]'
p298
sg19
S'791a4079'
p299
sg21
Vldrh w25, [x19, #0xc]
p300
sg5
L18446743798845330708L
sg6
Nsg23
S'LDR'
p301
sg25
S'0xffffffc000d0d514L'
p302
sg27
Nsba(ibclass
BInstr
p303
(dp304
g2
Nsg17
S'LDRH            W26, [X19,#0x288]'
p305
sg19
S'7a124579'
p306
sg21
Vldrh w26, [x19, #0x288]
p307
sg5
L18446743798845330712L
sg6
Nsg23
S'LDR'
p308
sg25
S'0xffffffc000d0d518L'
p309
sg27
Nsba(ibclass
BInstr
p310
(dp311
g2
Nsg17
S'LDRB            W27, [X19,#0x111]'
p312
sg19
S'7b464439'
p313
sg21
Vldrb w27, [x19, #0x111]
p314
sg5
L18446743798845330716L
sg6
Nsg23
S'LDR'
p315
sg25
S'0xffffffc000d0d51cL'
p316
sg27
Nsba(ibclass
BInstr
p317
(dp318
g2
Nsg17
S'ORR             W28, W28, W0'
p319
sg19
S'9c03002a'
p320
sg21
Vorr w28, w28, w0
p321
sg5
L18446743798845330720L
sg6
Nsg23
S'ORR'
p322
sg25
S'0xffffffc000d0d520L'
p323
sg27
Nsba(ibclass
BInstr
p324
(dp325
g2
Nsg17
S'LDR             W2, [X19,#0x14]'
p326
sg19
S'621640b9'
p327
sg21
Vldr w2, [x19, #0x14]
p328
sg5
L18446743798845330724L
sg6
Nsg23
S'LDR'
p329
sg25
S'0xffffffc000d0d524L'
p330
sg27
Nsba(ibclass
BInstr
p331
(dp332
g2
Nsg17
S'CBZ             X19, loc_FFFFFFC000D0D544'
p333
sg19
S'f30000b4'
p334
sg21
Vcbz x19, #0x1c
p335
sg5
L18446743798845330728L
sg6
Nsg23
S'CBZ'
p336
sg25
S'0xffffffc000d0d528L'
p337
sg27
Nsbasg98
(lp338
S'LDR reg8, mem'
p339
aS'LDRB reg, mem'
p340
aS'UBFM reg8, reg8, #0xD, #0xD'
p341
aS'AND reg, reg, #0x1E'
p342
aS'LDR reg3, mem'
p343
aS'LDR reg4, mem'
p344
aS'LDRH reg5, mem'
p345
aS'LDRH reg6, mem'
p346
aS'LDRB reg7, mem'
p347
aS'ORR reg8, reg8, reg'
p348
aS'LDR reg, mem'
p349
aS'CBZ reg9, func'
p350
asg111
Nsg5
S'0xffffffc000d0d4fcL'
p351
sg113
(lp352
S'0xffffffc000d0d4e4L'
p353
aS'0xffffffc000d0d4f0L'
p354
aS'0xffffffc000d0d4f8L'
p355
asg6
Nsg115
(lp356
S'0xffffffc000d0d52cL'
p357
aS'0xffffffc000d0d544L'
p358
asg119
Nsg120
Nsg121
S'b6a00dc42648dcb98419cd6436d42910'
p359
sg123
S'0904a7eb9a9fb6dcfdc2d957e40ff5f8'
p360
sg125
(lp361
g259
ag266
ag273
ag280
ag287
ag294
ag301
ag308
ag315
ag322
ag329
ag336
asg127
Nsba(ibclass
BBasicBlock
p362
(dp363
g12
Nsg13
(lp364
(ibclass
BInstr
p365
(dp366
g2
Nsg17
S'LDRB            W1, [X19,#0x2A0]'
p367
sg19
S'61824a39'
p368
sg21
Vldrb w1, [x19, #0x2a0]
p369
sg5
L18446743798845330732L
sg6
Nsg23
S'LDR'
p370
sg25
S'0xffffffc000d0d52cL'
p371
sg27
Nsba(ibclass
BInstr
p372
(dp373
g2
Nsg17
S'LDR             W22, [X19,#0x238]'
p374
sg19
S'763a42b9'
p375
sg21
Vldr w22, [x19, #0x238]
p376
sg5
L18446743798845330736L
sg6
Nsg23
S'LDR'
p377
sg25
S'0xffffffc000d0d530L'
p378
sg27
Nsba(ibclass
BInstr
p379
(dp380
g2
Nsg17
S'MOV             W20, #1'
p381
sg19
S'34008052'
p382
sg21
Vmovz w20, #0x1
p383
sg5
L18446743798845330740L
sg6
Nsg23
S'MOV'
p384
sg25
S'0xffffffc000d0d534L'
p385
sg27
Nsba(ibclass
BInstr
p386
(dp387
g2
Nsg17
S'TBNZ            W1, #5, loc_FFFFFFC000D0D5D4'
p388
sg19
S'e1042837'
p389
sg21
Vtbnz w1, #5, #0x9c
p390
sg5
L18446743798845330744L
sg6
Nsg23
S'TBNZ'
p391
sg25
S'0xffffffc000d0d538L'
p392
sg27
Nsbasg98
(lp393
S'LDRB reg, mem'
p394
aS'LDR reg2, mem'
p395
aS'MOV reg0, #1'
p396
aS'TBNZ reg, #5, func'
p397
asg111
Nsg5
S'0xffffffc000d0d52cL'
p398
sg113
(lp399
S'0xffffffc000d0d4fcL'
p400
asg6
Nsg115
(lp401
S'0xffffffc000d0d53cL'
p402
aS'0xffffffc000d0d5d4L'
p403
asg119
Nsg120
Nsg121
S'c558b173e821323a10b48229012b692d'
p404
sg123
S'25b88ccd1945df908118c088b8e2bf00'
p405
sg125
(lp406
g370
ag377
ag384
ag391
asg127
Nsba(ibclass
BBasicBlock
p407
(dp408
g12
Nsg13
(lp409
(ibclass
BInstr
p410
(dp411
g2
Nsg17
S'UBFM            X20, X1, #3, #3'
p412
sg19
S'340c43d3'
p413
sg21
Vubfx x20, x1, #3, #1
p414
sg5
L18446743798845330748L
sg6
Nsg23
S'UBFM'
p415
sg25
S'0xffffffc000d0d53cL'
p416
sg27
Nsba(ibclass
BInstr
p417
(dp418
g2
Nsg17
S'B               loc_FFFFFFC000D0D5D4'
p419
sg19
S'25000014'
p420
sg21
Vb #0x94
p421
sg5
L18446743798845330752L
sg6
Nsg23
S'B'
p422
sg25
S'0xffffffc000d0d540L'
p423
sg27
Nsbasg98
(lp424
S'UBFM reg0, reg, #3, #3'
p425
aS'B func'
p426
asg111
Nsg5
S'0xffffffc000d0d53cL'
p427
sg113
(lp428
S'0xffffffc000d0d52cL'
p429
asg6
Nsg115
(lp430
S'0xffffffc000d0d5d4L'
p431
asg119
Nsg120
Nsg121
S'5fb26592406e4c9de3440c01d61d89a0'
p432
sg123
S'377b7fcfcf143482c5149ee3901a5385'
p433
sg125
(lp434
g415
ag422
asg127
Nsba(ibclass
BBasicBlock
p435
(dp436
g12
Nsg13
(lp437
(ibclass
BInstr
p438
(dp439
g2
Nsg17
S'MOV             W20, W19'
p440
sg19
S'f403132a'
p441
sg21
Vmov w20, w19
p442
sg5
L18446743798845330756L
sg6
Nsg23
S'MOV'
p443
sg25
S'0xffffffc000d0d544L'
p444
sg27
Nsba(ibclass
BInstr
p445
(dp446
g2
Nsg17
S'MOV             W22, W19'
p447
sg19
S'f603132a'
p448
sg21
Vmov w22, w19
p449
sg5
L18446743798845330760L
sg6
Nsg23
S'MOV'
p450
sg25
S'0xffffffc000d0d548L'
p451
sg27
Nsba(ibclass
BInstr
p452
(dp453
g2
Nsg17
S'MOV             W0, W19'
p454
sg19
S'e003132a'
p455
sg21
Vmov w0, w19
p456
sg5
L18446743798845330764L
sg6
Nsg23
S'MOV'
p457
sg25
S'0xffffffc000d0d54cL'
p458
sg27
Nsbasg98
(lp459
S'MOV reg0, reg9'
p460
aS'MOV reg2, reg9'
p461
aS'MOV reg, reg9'
p462
asg111
Nsg5
S'0xffffffc000d0d544L'
p463
sg113
(lp464
S'0xffffffc000d0d4fcL'
p465
asg6
Nsg115
(lp466
S'0xffffffc000d0d550L'
p467
asg119
Nsg120
Nsg121
S'a0d1ef45ab3bcd8bca0bb7a5bc71fdc4'
p468
sg123
S'03cc66a4f6b8217b8182e622943e69f3'
p469
sg125
(lp470
g443
ag450
ag457
asg127
Nsba(ibclass
BBasicBlock
p471
(dp472
g12
Nsg13
(lp473
(ibclass
BInstr
p474
(dp475
g2
Nsg17
S'MOV             W1, #1'
p476
sg19
S'21008052'
p477
sg21
Vmovz w1, #0x1
p478
sg5
L18446743798845330768L
sg6
Nsg23
S'MOV'
p479
sg25
S'0xffffffc000d0d550L'
p480
sg27
Nsba(ibclass
BInstr
p481
(dp482
g2
Nsg17
S'STR             W2, [X29,#arg_50]'
p483
sg19
S'a26300b9'
p484
sg21
Vstr w2, [x29, #0x60]
p485
sg5
L18446743798845330772L
sg6
Nsg23
S'STR'
p486
sg25
S'0xffffffc000d0d554L'
p487
sg27
Nsba(ibclass
BInstr
p488
(dp489
g2
Nsg17
S'STR             W1, [X29,#arg_54]'
p490
sg19
S'a16700b9'
p491
sg21
Vstr w1, [x29, #0x64]
p492
sg5
L18446743798845330776L
sg6
Nsg23
S'STR'
p493
sg25
S'0xffffffc000d0d558L'
p494
sg27
Nsba(ibclass
BInstr
p495
(dp496
g2
Nsg17
S'STR             W22, [X29,#arg_58]'
p497
sg19
S'b66b00b9'
p498
sg21
Vstr w22, [x29, #0x68]
p499
sg5
L18446743798845330780L
sg6
Nsg23
S'STR'
p500
sg25
S'0xffffffc000d0d55cL'
p501
sg27
Nsba(ibclass
BInstr
p502
(dp503
g2
Nsg17
S'STRB            W28, [X29,#arg_5C]'
p504
sg19
S'bcb30139'
p505
sg21
Vstrb w28, [x29, #0x6c]
p506
sg5
L18446743798845330784L
sg6
Nsg23
S'STR'
p507
sg25
S'0xffffffc000d0d560L'
p508
sg27
Nsba(ibclass
BInstr
p509
(dp510
g2
Nsg17
S'STRB            WZR, [X29,#arg_5D]'
p511
sg19
S'bfb70139'
p512
sg21
Vstrb wzr, [x29, #0x6d]
p513
sg5
L18446743798845330788L
sg6
Nsg23
S'STR'
p514
sg25
S'0xffffffc000d0d564L'
p515
sg27
Nsba(ibclass
BInstr
p516
(dp517
g2
Nsg17
S'STRB            W27, [X29,#arg_5E]'
p518
sg19
S'bbbb0139'
p519
sg21
Vstrb w27, [x29, #0x6e]
p520
sg5
L18446743798845330792L
sg6
Nsg23
S'STR'
p521
sg25
S'0xffffffc000d0d568L'
p522
sg27
Nsba(ibclass
BInstr
p523
(dp524
g2
Nsg17
S'STRB            W20, [X29,#arg_5F]'
p525
sg19
S'b4bf0139'
p526
sg21
Vstrb w20, [x29, #0x6f]
p527
sg5
L18446743798845330796L
sg6
Nsg23
S'STR'
p528
sg25
S'0xffffffc000d0d56cL'
p529
sg27
Nsba(ibclass
BInstr
p530
(dp531
g2
Nsg17
S'STR             WZR, [X29,#arg_60]'
p532
sg19
S'bf7300b9'
p533
sg21
Vstr wzr, [x29, #0x70]
p534
sg5
L18446743798845330800L
sg6
Nsg23
S'STR'
p535
sg25
S'0xffffffc000d0d570L'
p536
sg27
Nsba(ibclass
BInstr
p537
(dp538
g2
Nsg17
S'STR             W0, [X29,#arg_64]'
p539
sg19
S'a07700b9'
p540
sg21
Vstr w0, [x29, #0x74]
p541
sg5
L18446743798845330804L
sg6
Nsg23
S'STR'
p542
sg25
S'0xffffffc000d0d574L'
p543
sg27
Nsba(ibclass
BInstr
p544
(dp545
g2
Nsg17
S'STR             W21, [X29,#arg_6C]'
p546
sg19
S'b57f00b9'
p547
sg21
Vstr w21, [x29, #0x7c]
p548
sg5
L18446743798845330808L
sg6
Nsg23
S'STR'
p549
sg25
S'0xffffffc000d0d578L'
p550
sg27
Nsba(ibclass
BInstr
p551
(dp552
g2
Nsg17
S'STR             W24, [X29,#arg_68]'
p553
sg19
S'b87b00b9'
p554
sg21
Vstr w24, [x29, #0x78]
p555
sg5
L18446743798845330812L
sg6
Nsg23
S'STR'
p556
sg25
S'0xffffffc000d0d57cL'
p557
sg27
Nsba(ibclass
BInstr
p558
(dp559
g2
Nsg17
S'STRH            W25, [X29,#arg_70]'
p560
sg19
S'b9030179'
p561
sg21
Vstrh w25, [x29, #0x80]
p562
sg5
L18446743798845330816L
sg6
Nsg23
S'STR'
p563
sg25
S'0xffffffc000d0d580L'
p564
sg27
Nsba(ibclass
BInstr
p565
(dp566
g2
Nsg17
S'STRH            W26, [X29,#arg_72]'
p567
sg19
S'ba070179'
p568
sg21
Vstrh w26, [x29, #0x82]
p569
sg5
L18446743798845330820L
sg6
Nsg23
S'STR'
p570
sg25
S'0xffffffc000d0d584L'
p571
sg27
Nsba(ibclass
BInstr
p572
(dp573
g2
Nsg17
S'CBZ             X19, loc_FFFFFFC000D0D598'
p574
sg19
S'930000b4'
p575
sg21
Vcbz x19, #0x10
p576
sg5
L18446743798845330824L
sg6
Nsg23
S'CBZ'
p577
sg25
S'0xffffffc000d0d588L'
p578
sg27
Nsbasg98
(lp579
S'MOV reg, #1'
p580
aS'STR reg, mem'
p581
aS'STR reg, mem'
p582
aS'STR reg2, mem'
p583
aS'STRB reg8, mem'
p584
aS'STRB WZR, mem'
p585
aS'STRB reg7, mem'
p586
aS'STRB reg0, mem'
p587
aS'STR WZR, mem'
p588
aS'STR reg, mem'
p589
aS'STR reg1, mem'
p590
aS'STR reg4, mem'
p591
aS'STRH reg5, mem'
p592
aS'STRH reg6, mem'
p593
aS'CBZ reg9, func'
p594
asg111
Nsg5
S'0xffffffc000d0d550L'
p595
sg113
(lp596
S'0xffffffc000d0d544L'
p597
aS'0xffffffc000d0d5d4L'
p598
asg6
Nsg115
(lp599
S'0xffffffc000d0d58cL'
p600
aS'0xffffffc000d0d598L'
p601
asg119
Nsg120
Nsg121
S'cc9209359f481e04c7fcee28dd624362'
p602
sg123
S'82adf63dffaa2cbf6ff7afcabe298a59'
p603
sg125
(lp604
g479
ag486
ag493
ag500
ag507
ag514
ag521
ag528
ag535
ag542
ag549
ag556
ag563
ag570
ag577
asg127
Nsba(ibclass
BBasicBlock
p605
(dp606
g12
Nsg13
(lp607
(ibclass
BInstr
p608
(dp609
g2
Nsg17
S'MOV             X0, X19'
p610
sg19
S'e00313aa'
p611
sg21
Vmov x0, x19
p612
sg5
L18446743798845330828L
sg6
Nsg23
S'MOV'
p613
sg25
S'0xffffffc000d0d58cL'
p614
sg27
Nsba(ibclass
BInstr
p615
(dp616
g2
Nsg17
S'ADD             X1, X29, #0x60'
p617
sg19
S'a1830191'
p618
sg21
Vadd x1, x29, #0x60
p619
sg5
L18446743798845330832L
sg6
Nsg23
S'ADD'
p620
sg25
S'0xffffffc000d0d590L'
p621
sg27
Nsba(ibclass
BInstr
p622
(dp623
g2
Nsg17
S'BL              security_sk_classify_flow'
p624
sg19
S'a805db97'
p625
sg21
Vbl #0xffffffffff6c16a0
p626
sg5
L18446743798845330836L
sg6
Nsg23
S'BL'
p627
sg25
S'0xffffffc000d0d594L'
p628
sg27
Nsbasg98
(lp629
S'MOV reg, reg9'
p630
aS'ADD reg, reg9, #0x60'
p631
aS'BL security_sk_classify_flow'
p632
asg111
Nsg5
S'0xffffffc000d0d58cL'
p633
sg113
(lp634
S'0xffffffc000d0d550L'
p635
asg6
Nsg115
(lp636
S'0xffffffc000d0d598L'
p637
asg119
Nsg120
Nsg121
S'b62f2f66b25c13a97459b6aa2f571f11'
p638
sg123
S'14848f2816fa047bde3813d461132aa7'
p639
sg125
(lp640
g613
ag620
ag627
asg127
Nsba(ibclass
BBasicBlock
p641
(dp642
g12
Nsg13
(lp643
(ibclass
BInstr
p644
(dp645
g2
Nsg17
S'MOV             X0, X23'
p646
sg19
S'e00317aa'
p647
sg21
Vmov x0, x23
p648
sg5
L18446743798845330840L
sg6
Nsg23
S'MOV'
p649
sg25
S'0xffffffc000d0d598L'
p650
sg27
Nsba(ibclass
BInstr
p651
(dp652
g2
Nsg17
S'ADD             X1, X29, #0x60'
p653
sg19
S'a1830191'
p654
sg21
Vadd x1, x29, #0x60
p655
sg5
L18446743798845330844L
sg6
Nsg23
S'ADD'
p656
sg25
S'0xffffffc000d0d59cL'
p657
sg27
Nsba(ibclass
BInstr
p658
(dp659
g2
Nsg17
S'MOV             X2, X19'
p660
sg19
S'e20313aa'
p661
sg21
Vmov x2, x19
p662
sg5
L18446743798845330848L
sg6
Nsg23
S'MOV'
p663
sg25
S'0xffffffc000d0d5a0L'
p664
sg27
Nsba(ibclass
BInstr
p665
(dp666
g2
Nsg17
S'BL              ip_route_output_flow'
p667
sg19
S'836cff97'
p668
sg21
Vbl #0xfffffffffffdb20c
p669
sg5
L18446743798845330852L
sg6
Nsg23
S'BL'
p670
sg25
S'0xffffffc000d0d5a4L'
p671
sg27
Nsba(ibclass
BInstr
p672
(dp673
g2
Nsg17
S'CMN             X0, #1,LSL#12'
p674
sg19
S'1f0440b1'
p675
sg21
Vcmn x0, #1, lsl #12
p676
sg5
L18446743798845330856L
sg6
Nsg23
S'CMN'
p677
sg25
S'0xffffffc000d0d5a8L'
p678
sg27
Nsba(ibclass
BInstr
p679
(dp680
g2
Nsg17
S'B.HI            loc_FFFFFFC000D0D5CC'
p681
sg19
S'08010054'
p682
sg21
Vb.hi #0x20
p683
sg5
L18446743798845330860L
sg6
Nsg23
g422
sg25
S'0xffffffc000d0d5acL'
p684
sg27
Nsbasg98
(lp685
S'MOV reg, reg3'
p686
aS'ADD reg, reg9, #0x60'
p687
aS'MOV reg, reg9'
p688
aS'BL ip_route_output_flow'
p689
aS'CMN reg, #1,LSL#12'
p690
aS'B.HI func'
p691
asg111
Nsg5
S'0xffffffc000d0d598L'
p692
sg113
(lp693
S'0xffffffc000d0d550L'
p694
aS'0xffffffc000d0d58cL'
p695
asg6
Nsg115
(lp696
S'0xffffffc000d0d5b0L'
p697
aS'0xffffffc000d0d5ccL'
p698
asg119
Nsg120
Nsg121
S'2ff7635d31b187dd1df4bca2bb5dd6d3'
p699
sg123
S'be61cd7e98c97e7c2aee27dd28d5dad5'
p700
sg125
(lp701
g649
ag656
ag663
ag670
ag677
ag422
asg127
Nsba(ibclass
BBasicBlock
p702
(dp703
g12
Nsg13
(lp704
(ibclass
BInstr
p705
(dp706
g2
Nsg17
S'MOV             W1, #0xFFFFFFFF'
p707
sg19
S'01008012'
p708
sg21
Vmovn w1, #0
p709
sg5
L18446743798845330864L
sg6
Nsg23
S'MOV'
p710
sg25
S'0xffffffc000d0d5b0L'
p711
sg27
Nsba(ibclass
BInstr
p712
(dp713
g2
Nsg17
S'STR             W1, [X19,#0x48]'
p714
sg19
S'614a00b9'
p715
sg21
Vstr w1, [x19, #0x48]
p716
sg5
L18446743798845330868L
sg6
Nsg23
S'STR'
p717
sg25
S'0xffffffc000d0d5b4L'
p718
sg27
Nsba(ibclass
BInstr
p719
(dp720
g2
Nsg17
S'LDR             X1, [X19,#0xE0]'
p721
sg19
S'617240f9'
p722
sg21
Vldr x1, [x19, #0xe0]
p723
sg5
L18446743798845330872L
sg6
Nsg23
S'LDR'
p724
sg25
S'0xffffffc000d0d5b8L'
p725
sg27
Nsba(ibclass
BInstr
p726
(dp727
g2
Nsg17
S'DMB             ISHST'
p728
sg19
S'bf3a03d5'
p729
sg21
Vdmb ishst
p730
sg5
L18446743798845330876L
sg6
Nsg23
S'DMB'
p731
sg25
S'0xffffffc000d0d5bcL'
p732
sg27
Nsba(ibclass
BInstr
p733
(dp734
g2
Nsg17
S'STR             X0, [X19,#0xE0]'
p735
sg19
S'607200f9'
p736
sg21
Vstr x0, [x19, #0xe0]
p737
sg5
L18446743798845330880L
sg6
Nsg23
S'STR'
p738
sg25
S'0xffffffc000d0d5c0L'
p739
sg27
Nsba(ibclass
BInstr
p740
(dp741
g2
Nsg17
S'MOV             X0, X1'
p742
sg19
S'e00301aa'
p743
sg21
Vmov x0, x1
p744
sg5
L18446743798845330884L
sg6
Nsg23
S'MOV'
p745
sg25
S'0xffffffc000d0d5c4L'
p746
sg27
Nsba(ibclass
BInstr
p747
(dp748
g2
Nsg17
S'BL              dst_release'
p749
sg19
S'ca13fe97'
p750
sg21
Vbl #0xfffffffffff84f28
p751
sg5
L18446743798845330888L
sg6
Nsg23
S'BL'
p752
sg25
S'0xffffffc000d0d5c8L'
p753
sg27
Nsbasg98
(lp754
S'MOV reg, #0xFFFFFFFF'
p755
aS'STR reg, mem'
p756
aS'LDR reg, mem'
p757
aS'DMB ISHST'
p758
aS'STR reg, mem'
p759
aS'MOV reg, reg'
p760
aS'BL dst_release'
p761
asg111
Nsg5
S'0xffffffc000d0d5b0L'
p762
sg113
(lp763
S'0xffffffc000d0d598L'
p764
asg6
Nsg115
(lp765
S'0xffffffc000d0d5ccL'
p766
asg119
Nsg120
Nsg121
S'02a2601ceb0bd3226fa05a2f55099728'
p767
sg123
S'68b5a1f2406b82ccaa906c3d02799c4e'
p768
sg125
(lp769
g710
ag717
ag724
ag731
ag738
ag745
ag752
asg127
Nsba(ibclass
BBasicBlock
p770
(dp771
g12
Nsg13
(lp772
(ibclass
BInstr
p773
(dp774
g2
Nsg17
S'BL              __rcu_read_unlock'
p775
sg19
S'08b6d497'
p776
sg21
Vbl #0xffffffffff52d820
p777
sg5
L18446743798845330892L
sg6
Nsg23
S'BL'
p778
sg25
S'0xffffffc000d0d5ccL'
p779
sg27
Nsba(ibclass
BInstr
p780
(dp781
g2
Nsg17
S'B               loc_FFFFFFC000D0D5E8'
p782
sg19
S'06000014'
p783
sg21
Vb #0x18
p784
sg5
L18446743798845330896L
sg6
Nsg23
g422
sg25
S'0xffffffc000d0d5d0L'
p785
sg27
Nsbasg98
(lp786
S'BL __rcu_read_unlock'
p787
aS'B func'
p788
asg111
Nsg5
S'0xffffffc000d0d5ccL'
p789
sg113
(lp790
S'0xffffffc000d0d598L'
p791
aS'0xffffffc000d0d5b0L'
p792
asg6
Nsg115
(lp793
S'0xffffffc000d0d5e8L'
p794
asg119
Nsg120
Nsg121
S'be97a5cc528a44f4f1daeedd1e2f20e2'
p795
sg123
S'9ce5594909a622d386a0895158403759'
p796
sg125
(lp797
g778
ag422
asg127
Nsba(ibclass
BBasicBlock
p798
(dp799
g12
Nsg13
(lp800
(ibclass
BInstr
p801
(dp802
g2
Nsg17
S'MOV             X0, X19'
p803
sg19
S'e00313aa'
p804
sg21
Vmov x0, x19
p805
sg5
L18446743798845330900L
sg6
Nsg23
S'MOV'
p806
sg25
S'0xffffffc000d0d5d4L'
p807
sg27
Nsba(ibclass
BInstr
p808
(dp809
g2
Nsg17
S'STR             X2, [X29,#arg_80]'
p810
sg19
S'a24b00f9'
p811
sg21
Vstr x2, [x29, #0x90]
p812
sg5
L18446743798845330904L
sg6
Nsg23
S'STR'
p813
sg25
S'0xffffffc000d0d5d8L'
p814
sg27
Nsba(ibclass
BInstr
p815
(dp816
g2
Nsg17
S'BL              sock_i_uid'
p817
sg19
S'15b3fd97'
p818
sg21
Vbl #0xfffffffffff6cc54
p819
sg5
L18446743798845330908L
sg6
Nsg23
S'BL'
p820
sg25
S'0xffffffc000d0d5dcL'
p821
sg27
Nsba(ibclass
BInstr
p822
(dp823
g2
Nsg17
S'LDR             X2, [X29,#arg_80]'
p824
sg19
S'a24b40f9'
p825
sg21
Vldr x2, [x29, #0x90]
p826
sg5
L18446743798845330912L
sg6
Nsg23
S'LDR'
p827
sg25
S'0xffffffc000d0d5e0L'
p828
sg27
Nsba(ibclass
BInstr
p829
(dp830
g2
Nsg17
S'B               loc_FFFFFFC000D0D550'
p831
sg19
S'dbffff17'
p832
sg21
Vb #0xffffffffffffff6c
p833
sg5
L18446743798845330916L
sg6
Nsg23
g422
sg25
S'0xffffffc000d0d5e4L'
p834
sg27
Nsbasg98
(lp835
S'MOV reg, reg9'
p836
aS'STR reg, mem'
p837
aS'BL sock_i_uid'
p838
aS'LDR reg, mem'
p839
aS'B func'
p840
asg111
Nsg5
S'0xffffffc000d0d5d4L'
p841
sg113
(lp842
S'0xffffffc000d0d52cL'
p843
aS'0xffffffc000d0d53cL'
p844
asg6
Nsg115
(lp845
S'0xffffffc000d0d550L'
p846
asg119
Nsg120
Nsg121
S'b8d52111164dabbb68e6bbe35ed5e131'
p847
sg123
S'1ee2a5188644acf6f77a83b693766f48'
p848
sg125
(lp849
g806
ag813
ag820
ag827
ag422
asg127
Nsba(ibclass
BBasicBlock
p850
(dp851
g12
Nsg13
(lp852
(ibclass
BInstr
p853
(dp854
g2
Nsg17
S'LDP             X19, X20, [SP,#0x90+var_80]'
p855
sg19
S'f35341a9'
p856
sg21
Vldp x19, x20, [sp, #0x10]
p857
sg5
L18446743798845330920L
sg6
Nsg23
S'LDP'
p858
sg25
S'0xffffffc000d0d5e8L'
p859
sg27
Nsba(ibclass
BInstr
p860
(dp861
g2
Nsg17
S'LDP             X21, X22, [SP,#0x90+var_70]'
p862
sg19
S'f55b42a9'
p863
sg21
Vldp x21, x22, [sp, #0x20]
p864
sg5
L18446743798845330924L
sg6
Nsg23
S'LDP'
p865
sg25
S'0xffffffc000d0d5ecL'
p866
sg27
Nsba(ibclass
BInstr
p867
(dp868
g2
Nsg17
S'LDP             X23, X24, [SP,#0x90+var_60]'
p869
sg19
S'f76343a9'
p870
sg21
Vldp x23, x24, [sp, #0x30]
p871
sg5
L18446743798845330928L
sg6
Nsg23
S'LDP'
p872
sg25
S'0xffffffc000d0d5f0L'
p873
sg27
Nsba(ibclass
BInstr
p874
(dp875
g2
Nsg17
S'LDP             X25, X26, [SP,#0x90+var_50]'
p876
sg19
S'f96b44a9'
p877
sg21
Vldp x25, x26, [sp, #0x40]
p878
sg5
L18446743798845330932L
sg6
Nsg23
S'LDP'
p879
sg25
S'0xffffffc000d0d5f4L'
p880
sg27
Nsba(ibclass
BInstr
p881
(dp882
g2
Nsg17
S'LDP             X27, X28, [SP,#0x90+var_40]'
p883
sg19
S'fb7345a9'
p884
sg21
Vldp x27, x28, [sp, #0x50]
p885
sg5
L18446743798845330936L
sg6
Nsg23
S'LDP'
p886
sg25
S'0xffffffc000d0d5f8L'
p887
sg27
Nsba(ibclass
BInstr
p888
(dp889
g2
Nsg17
S'LDP             X29, X30, [SP+0x90+var_90],#0xA0'
p890
sg19
S'fd7bcaa8'
p891
sg21
Vldp x29, x30, [sp], #0xa0
p892
sg5
L18446743798845330940L
sg6
Nsg23
S'LDP'
p893
sg25
S'0xffffffc000d0d5fcL'
p894
sg27
Nsba(ibclass
BInstr
p895
(dp896
g2
Nsg17
S'RET'
p897
sg19
S'c0035fd6'
p898
sg21
Vret 
p899
sg5
L18446743798845330944L
sg6
Nsg23
S'RET'
p900
sg25
S'0xffffffc000d0d600L'
p901
sg27
Nsbasg98
(lp902
S'LDP reg9, reg0, mem'
p903
aS'LDP reg1, reg2, mem'
p904
aS'LDP reg3, reg4, mem'
p905
aS'LDP reg5, reg6, mem'
p906
aS'LDP reg7, reg8, mem'
p907
aS'LDP reg9, reg0, mem,#0xA0'
p908
ag897
asg111
Nsg5
S'0xffffffc000d0d5e8L'
p909
sg113
(lp910
S'0xffffffc000d0d4acL'
p911
aS'0xffffffc000d0d4d8L'
p912
aS'0xffffffc000d0d5ccL'
p913
asg6
Nsg115
(lp914
sg119
Nsg120
Nsg121
S'55f004df594cd7b606f87005407214ab'
p915
sg123
S'388dc616accd8f2ebf2abaec2841d712'
p916
sg125
(lp917
g858
ag865
ag872
ag879
ag886
ag893
ag900
asg127
Nsbasb.