(ibclass
BFunc
p0
(dp1
S'hash'
p2
NsS'name'
p3
S'mdss_debug_perf_panic_write'
p4
sS'start_address'
p5
L18446743798836602432L
sS'flag'
p6
NsS'program'
p7
NsS'bbs'
p8
(lp9
(ibclass
BBasicBlock
p10
(dp11
S'function'
p12
NsS'binstrs'
p13
(lp14
(ibclass
BInstr
p15
(dp16
g2
NsS'disasm'
p17
S'STP             X29, X30, [SP,#-0x10+var_20]!'
p18
sS'bytes'
p19
S'fd7bbda9'
p20
sS'disasm_striped'
p21
Vstp x29, x30, [sp, #-0x30]!
p22
sg5
L18446743798836602432L
sg6
NsS'mnem'
p23
S'STP'
p24
sS'address'
p25
S'0xffffffc0004ba640L'
p26
sS'basicblock'
p27
Nsba(ibclass
BInstr
p28
(dp29
g2
Nsg17
S'MOV             X29, SP'
p30
sg19
S'fd030091'
p31
sg21
Vmov x29, sp
p32
sg5
L18446743798836602436L
sg6
Nsg23
S'MOV'
p33
sg25
S'0xffffffc0004ba644L'
p34
sg27
Nsba(ibclass
BInstr
p35
(dp36
g2
Nsg17
S'STP             X19, X20, [SP,#0x20+var_10]'
p37
sg19
S'f35301a9'
p38
sg21
Vstp x19, x20, [sp, #0x10]
p39
sg5
L18446743798836602440L
sg6
Nsg23
S'STP'
p40
sg25
S'0xffffffc0004ba648L'
p41
sg27
Nsba(ibclass
BInstr
p42
(dp43
g2
Nsg17
S'LDR             X19, [X0,#0xA8]'
p44
sg19
S'135440f9'
p45
sg21
Vldr x19, [x0, #0xa8]
p46
sg5
L18446743798836602444L
sg6
Nsg23
S'LDR'
p47
sg25
S'0xffffffc0004ba64cL'
p48
sg27
Nsba(ibclass
BInstr
p49
(dp50
g2
Nsg17
S'MOV             X20, X2'
p51
sg19
S'f40302aa'
p52
sg21
Vmov x20, x2
p53
sg5
L18446743798836602448L
sg6
Nsg23
S'MOV'
p54
sg25
S'0xffffffc0004ba650L'
p55
sg27
Nsba(ibclass
BInstr
p56
(dp57
g2
Nsg17
S'CBNZ            X19, loc_FFFFFFC0004BA660'
p58
sg19
S'730000b5'
p59
sg21
Vcbnz x19, #0xc
p60
sg5
L18446743798836602452L
sg6
Nsg23
S'CBNZ'
p61
sg25
S'0xffffffc0004ba654L'
p62
sg27
NsbasS'disasm_list'
p63
(lp64
S'STP reg9, reg0, mem!'
p65
aS'MOV reg9, SP'
p66
aS'STP reg9, reg0, mem'
p67
aS'LDR reg9, mem'
p68
aS'MOV reg0, reg'
p69
aS'CBNZ reg9, func'
p70
asS'end_address'
p71
Nsg5
S'0xffffffc0004ba640L'
p72
sS'preds'
p73
(lp74
sg6
NsS'succs'
p75
(lp76
S'0xffffffc0004ba658L'
p77
aS'0xffffffc0004ba660L'
p78
asS'hash_v3'
p79
NsS'flag_v2'
p80
NsS'hash_v1'
p81
S'2ad760444d4e17c0324815674c53fffa'
p82
sS'hash_v2'
p83
S'c10c2f6c556437d3b06a1524ca33d26c'
p84
sS'mnen_list'
p85
(lp86
g24
ag33
ag40
ag47
ag54
ag61
asS'neighbour_disasm_list'
p87
Nsba(ibclass
BBasicBlock
p88
(dp89
g12
Nsg13
(lp90
(ibclass
BInstr
p91
(dp92
g2
Nsg17
S'MOV             X0, #0xFFFFFFFFFFFFFFF2'
p93
sg19
S'a0018092'
p94
sg21
Vmovn x0, #0xd
p95
sg5
L18446743798836602456L
sg6
Nsg23
S'MOV'
p96
sg25
S'0xffffffc0004ba658L'
p97
sg27
Nsba(ibclass
BInstr
p98
(dp99
g2
Nsg17
S'B               loc_FFFFFFC0004BA738'
p100
sg19
S'37000014'
p101
sg21
Vb #0xdc
p102
sg5
L18446743798836602460L
sg6
Nsg23
S'B'
p103
sg25
S'0xffffffc0004ba65cL'
p104
sg27
Nsbasg63
(lp105
S'MOV reg, #0xFFFFFFFFFFFFFFF2'
p106
aS'B func'
p107
asg71
Nsg5
S'0xffffffc0004ba658L'
p108
sg73
(lp109
S'0xffffffc0004ba640L'
p110
aS'0xffffffc0004ba698L'
p111
aS'0xffffffc0004ba69cL'
p112
asg6
Nsg75
(lp113
S'0xffffffc0004ba738L'
p114
asg79
Nsg80
Nsg81
S'b6c4e95ccfe77a95e4cf2019dd3d5574'
p115
sg83
S'de5cd3634b99fc7484a5299a0e06a6dc'
p116
sg85
(lp117
g96
ag103
asg87
Nsba(ibclass
BBasicBlock
p118
(dp119
g12
Nsg13
(lp120
(ibclass
BInstr
p121
(dp122
g2
Nsg17
S'MOV             X4, SP'
p123
sg19
S'e4030091'
p124
sg21
Vmov x4, sp
p125
sg5
L18446743798836602464L
sg6
Nsg23
S'MOV'
p126
sg25
S'0xffffffc0004ba660L'
p127
sg27
Nsba(ibclass
BInstr
p128
(dp129
g2
Nsg17
S'AND             X0, X4, #0xFFFFFFFFFFFFC000'
p130
sg19
S'80c47292'
p131
sg21
Vand x0, x4, #0xffffffffffffc000
p132
sg5
L18446743798836602468L
sg6
Nsg23
S'AND'
p133
sg25
S'0xffffffc0004ba664L'
p134
sg27
Nsba(ibclass
BInstr
p135
(dp136
g2
Nsg17
S'LDR             X4, [X0,#8]'
p137
sg19
S'040440f9'
p138
sg21
Vldr x4, [x0, #8]
p139
sg5
L18446743798836602472L
sg6
Nsg23
S'LDR'
p140
sg25
S'0xffffffc0004ba668L'
p141
sg27
Nsba(ibclass
BInstr
p142
(dp143
g2
Nsg17
S'MOV             X0, X1'
p144
sg19
S'e00301aa'
p145
sg21
Vmov x0, x1
p146
sg5
L18446743798836602476L
sg6
Nsg23
S'MOV'
p147
sg25
S'0xffffffc0004ba66cL'
p148
sg27
Nsba(ibclass
BInstr
p149
(dp150
g2
Nsg17
S'ADDS            X0, X0, X2'
p151
sg19
S'000002ab'
p152
sg21
Vadds x0, x0, x2
p153
sg5
L18446743798836602480L
sg6
Nsg23
S'ADD'
p154
sg25
S'0xffffffc0004ba670L'
p155
sg27
Nsba(ibclass
BInstr
p156
(dp157
g2
Nsg17
S'CCMP            X0, X4, #2, CC'
p158
sg19
S'023044fa'
p159
sg21
Vccmp x0, x4, #2, lo
p160
sg5
L18446743798836602484L
sg6
Nsg23
S'CCMP'
p161
sg25
S'0xffffffc0004ba674L'
p162
sg27
Nsba(ibclass
BInstr
p163
(dp164
g2
Nsg17
S'CSET            X3, LS'
p165
sg19
S'e3879f9a'
p166
sg21
Vcset x3, ls
p167
sg5
L18446743798836602488L
sg6
Nsg23
S'CSET'
p168
sg25
S'0xffffffc0004ba678L'
p169
sg27
Nsba(ibclass
BInstr
p170
(dp171
g2
Nsg17
S'ADD             X0, X29, #0x20'
p172
sg19
S'a0830091'
p173
sg21
Vadd x0, x29, #0x20
p174
sg5
L18446743798836602492L
sg6
Nsg23
S'ADD'
p175
sg25
S'0xffffffc0004ba67cL'
p176
sg27
Nsba(ibclass
BInstr
p177
(dp178
g2
Nsg17
S'CBZ             X3, loc_FFFFFFC0004BA68C'
p179
sg19
S'630000b4'
p180
sg21
Vcbz x3, #0xc
p181
sg5
L18446743798836602496L
sg6
Nsg23
S'CBZ'
p182
sg25
S'0xffffffc0004ba680L'
p183
sg27
Nsbasg63
(lp184
S'MOV reg, SP'
p185
aS'AND reg, reg, #0xFFFFFFFFFFFFC000'
p186
aS'LDR reg, mem'
p187
aS'MOV reg, reg'
p188
aS'ADDS reg, reg, reg'
p189
aS'CCMP reg, reg, #2, CC'
p190
aS'CSET reg, LS'
p191
aS'ADD reg, reg9, #0x20'
p192
aS'CBZ reg, func'
p193
asg71
Nsg5
S'0xffffffc0004ba660L'
p194
sg73
(lp195
S'0xffffffc0004ba640L'
p196
asg6
Nsg75
(lp197
S'0xffffffc0004ba684L'
p198
aS'0xffffffc0004ba68cL'
p199
asg79
Nsg80
Nsg81
S'855fef765c622f509009a0d487bbf388'
p200
sg83
S'bc3f0fac9d02270ceb9174dae4389b49'
p201
sg85
(lp202
g126
ag133
ag140
ag147
ag154
ag161
ag168
ag175
ag182
asg87
Nsba(ibclass
BBasicBlock
p203
(dp204
g12
Nsg13
(lp205
(ibclass
BInstr
p206
(dp207
g2
Nsg17
S'BL              __copy_from_user'
p208
sg19
S'0b92fd97'
p209
sg21
Vbl #0xfffffffffff6482c
p210
sg5
L18446743798836602500L
sg6
Nsg23
S'BL'
p211
sg25
S'0xffffffc0004ba684L'
p212
sg27
Nsba(ibclass
BInstr
p213
(dp214
g2
Nsg17
S'B               loc_FFFFFFC0004BA698'
p215
sg19
S'04000014'
p216
sg21
Vb #0x10
p217
sg5
L18446743798836602504L
sg6
Nsg23
g103
sg25
S'0xffffffc0004ba688L'
p218
sg27
Nsbasg63
(lp219
S'BL __copy_from_user'
p220
aS'B func'
p221
asg71
Nsg5
S'0xffffffc0004ba684L'
p222
sg73
(lp223
S'0xffffffc0004ba660L'
p224
asg6
Nsg75
(lp225
S'0xffffffc0004ba698L'
p226
asg79
Nsg80
Nsg81
S'be97a5cc528a44f4f1daeedd1e2f20e2'
p227
sg83
S'7e45db96c1415e7fdb37fa04bdb93402'
p228
sg85
(lp229
g211
ag103
asg87
Nsba(ibclass
BBasicBlock
p230
(dp231
g12
Nsg13
(lp232
(ibclass
BInstr
p233
(dp234
g2
Nsg17
S'MOV             W1, W3'
p235
sg19
S'e103032a'
p236
sg21
Vmov w1, w3
p237
sg5
L18446743798836602508L
sg6
Nsg23
S'MOV'
p238
sg25
S'0xffffffc0004ba68cL'
p239
sg27
Nsba(ibclass
BInstr
p240
(dp241
g2
Nsg17
S'BL              memset'
p242
sg19
S'dc93fd97'
p243
sg21
Vbl #0xfffffffffff64f70
p244
sg5
L18446743798836602512L
sg6
Nsg23
S'BL'
p245
sg25
S'0xffffffc0004ba690L'
p246
sg27
Nsba(ibclass
BInstr
p247
(dp248
g2
Nsg17
S'MOV             X0, X20'
p249
sg19
S'e00314aa'
p250
sg21
Vmov x0, x20
p251
sg5
L18446743798836602516L
sg6
Nsg23
S'MOV'
p252
sg25
S'0xffffffc0004ba694L'
p253
sg27
Nsbasg63
(lp254
S'MOV reg, reg'
p255
aS'BL memset'
p256
aS'MOV reg, reg0'
p257
asg71
Nsg5
S'0xffffffc0004ba68cL'
p258
sg73
(lp259
S'0xffffffc0004ba660L'
p260
asg6
Nsg75
(lp261
S'0xffffffc0004ba698L'
p262
asg79
Nsg80
Nsg81
S'f5aca26e8f695df15220ab59afc1e815'
p263
sg83
S'ef698bc96124255d52ca0c75cfa6055b'
p264
sg85
(lp265
g238
ag245
ag252
asg87
Nsba(ibclass
BBasicBlock
p266
(dp267
g12
Nsg13
(lp268
(ibclass
BInstr
p269
(dp270
g2
Nsg17
S'CBNZ            X0, loc_FFFFFFC0004BA658'
p271
sg19
S'00feffb5'
p272
sg21
Vcbnz x0, #0xffffffffffffffc0
p273
sg5
L18446743798836602520L
sg6
Nsg23
S'CBNZ'
p274
sg25
S'0xffffffc0004ba698L'
p275
sg27
Nsbasg63
(lp276
S'CBNZ reg, func'
p277
asg71
Nsg5
S'0xffffffc0004ba698L'
p278
sg73
(lp279
S'0xffffffc0004ba684L'
p280
aS'0xffffffc0004ba68cL'
p281
asg6
Nsg75
(lp282
S'0xffffffc0004ba658L'
p283
aS'0xffffffc0004ba69cL'
p284
asg79
Nsg80
Nsg81
S'482b7d814ad85789cad59d80ecb8562a'
p285
sg83
S'c81d544e8093e123ef790602aa39a0d0'
p286
sg85
(lp287
g274
asg87
Nsba(ibclass
BBasicBlock
p288
(dp289
g12
Nsg13
(lp290
(ibclass
BInstr
p291
(dp292
g2
Nsg17
S'ADRP            X1, #unk_FFFFFFC0014C0B88@PAGE'
p293
sg19
S'218000d0'
p294
sg21
Vadrp x1, #0x1006000
p295
sg5
L18446743798836602524L
sg6
Nsg23
S'ADRP'
p296
sg25
S'0xffffffc0004ba69cL'
p297
sg27
Nsba(ibclass
BInstr
p298
(dp299
g2
Nsg17
S'ADD             X0, X29, #0x20'
p300
sg19
S'a0830091'
p301
sg21
Vadd x0, x29, #0x20
p302
sg5
L18446743798836602528L
sg6
Nsg23
S'ADD'
p303
sg25
S'0xffffffc0004ba6a0L'
p304
sg27
Nsba(ibclass
BInstr
p305
(dp306
g2
Nsg17
S'ADD             X1, X1, #unk_FFFFFFC0014C0B88@PAGEOFF'
p307
sg19
S'21202e91'
p308
sg21
Vadd x1, x1, #0xb88
p309
sg5
L18446743798836602532L
sg6
Nsg23
S'ADD'
p310
sg25
S'0xffffffc0004ba6a4L'
p311
sg27
Nsba(ibclass
BInstr
p312
(dp313
g2
Nsg17
S'ADD             X2, X29, #0x2C'
p314
sg19
S'a2b30091'
p315
sg21
Vadd x2, x29, #0x2c
p316
sg5
L18446743798836602536L
sg6
Nsg23
S'ADD'
p317
sg25
S'0xffffffc0004ba6a8L'
p318
sg27
Nsba(ibclass
BInstr
p319
(dp320
g2
Nsg17
S'BL              sscanf'
p321
sg19
S'03c3fd97'
p322
sg21
Vbl #0xfffffffffff70c0c
p323
sg5
L18446743798836602540L
sg6
Nsg23
S'BL'
p324
sg25
S'0xffffffc0004ba6acL'
p325
sg27
Nsba(ibclass
BInstr
p326
(dp327
g2
Nsg17
S'CMP             W0, #1'
p328
sg19
S'1f040071'
p329
sg21
Vcmp w0, #1
p330
sg5
L18446743798836602544L
sg6
Nsg23
S'CMP'
p331
sg25
S'0xffffffc0004ba6b0L'
p332
sg27
Nsba(ibclass
BInstr
p333
(dp334
g2
Nsg17
S'B.NE            loc_FFFFFFC0004BA658'
p335
sg19
S'21fdff54'
p336
sg21
Vb.ne #0xffffffffffffffa4
p337
sg5
L18446743798836602548L
sg6
Nsg23
g103
sg25
S'0xffffffc0004ba6b4L'
p338
sg27
Nsbasg63
(lp339
S'ADRP reg, #func@PAGE'
p340
aS'ADD reg, reg9, #0x20'
p341
aS'ADD reg, reg, #func@PAGEOFF'
p342
aS'ADD reg, reg9, #0x2C'
p343
aS'BL sscanf'
p344
aS'CMP reg, #1'
p345
aS'B.NE func'
p346
asg71
Nsg5
S'0xffffffc0004ba69cL'
p347
sg73
(lp348
S'0xffffffc0004ba698L'
p349
asg6
Nsg75
(lp350
S'0xffffffc0004ba658L'
p351
aS'0xffffffc0004ba6b8L'
p352
asg79
Nsg80
Nsg81
S'be755508fdb57635731c4e75834663ba'
p353
sg83
S'274fdd721fd33f08f2346f16f0259041'
p354
sg85
(lp355
g296
ag303
ag310
ag317
ag324
ag331
ag103
asg87
Nsba(ibclass
BBasicBlock
p356
(dp357
g12
Nsg13
(lp358
(ibclass
BInstr
p359
(dp360
g2
Nsg17
S'LDR             W1, [X29,#arg_1C]'
p361
sg19
S'a12f40b9'
p362
sg21
Vldr w1, [x29, #0x2c]
p363
sg5
L18446743798836602552L
sg6
Nsg23
S'LDR'
p364
sg25
S'0xffffffc0004ba6b8L'
p365
sg27
Nsba(ibclass
BInstr
p366
(dp367
g2
Nsg17
S'ADRP            X0, #descriptor.26830@PAGE'
p368
sg19
S'209e00d0'
p369
sg21
Vadrp x0, #0x13c6000
p370
sg5
L18446743798836602556L
sg6
Nsg23
S'ADRP'
p371
sg25
S'0xffffffc0004ba6bcL'
p372
sg27
Nsba(ibclass
BInstr
p373
(dp374
g2
Nsg17
S'ADD             X0, X0, #descriptor.26830@PAGEOFF'
p375
sg19
S'00002391'
p376
sg21
Vadd x0, x0, #0x8c0
p377
sg5
L18446743798836602560L
sg6
Nsg23
S'ADD'
p378
sg25
S'0xffffffc0004ba6c0L'
p379
sg27
Nsba(ibclass
BInstr
p380
(dp381
g2
Nsg17
S'CBZ             W1, loc_FFFFFFC0004BA700'
p382
sg19
S'e1010034'
p383
sg21
Vcbz w1, #0x3c
p384
sg5
L18446743798836602564L
sg6
Nsg23
S'CBZ'
p385
sg25
S'0xffffffc0004ba6c4L'
p386
sg27
Nsbasg63
(lp387
S'LDR reg, mem'
p388
aS'ADRP reg, #descriptor.26830@PAGE'
p389
aS'ADD reg, reg, #descriptor.26830@PAGEOFF'
p390
aS'CBZ reg, func'
p391
asg71
Nsg5
S'0xffffffc0004ba6b8L'
p392
sg73
(lp393
S'0xffffffc0004ba69cL'
p394
asg6
Nsg75
(lp395
S'0xffffffc0004ba6c8L'
p396
aS'0xffffffc0004ba700L'
p397
asg79
Nsg80
Nsg81
S'0bcd3a7d061fd21fe42676bc0b1cb058'
p398
sg83
S'1da4533a6cf6a6527579974b01b3b008'
p399
sg85
(lp400
g364
ag371
ag378
ag385
asg87
Nsba(ibclass
BBasicBlock
p401
(dp402
g12
Nsg13
(lp403
(ibclass
BInstr
p404
(dp405
g2
Nsg17
S'ADD             X0, X0, #0x258'
p406
sg19
S'00600991'
p407
sg21
Vadd x0, x0, #0x258
p408
sg5
L18446743798836602568L
sg6
Nsg23
S'ADD'
p409
sg25
S'0xffffffc0004ba6c8L'
p410
sg27
Nsba(ibclass
BInstr
p411
(dp412
g2
Nsg17
S'LDRH            W1, [X0,#(word_FFFFFFC001880B3A - 0xFFFFFFC001880B18)]'
p413
sg19
S'01444079'
p414
sg21
Vldrh w1, [x0, #0x22]
p415
sg5
L18446743798836602572L
sg6
Nsg23
S'LDR'
p416
sg25
S'0xffffffc0004ba6ccL'
p417
sg27
Nsba(ibclass
BInstr
p418
(dp419
g2
Nsg17
S'TBZ             W1, #2, loc_FFFFFFC0004BA6EC'
p420
sg19
S'e1001036'
p421
sg21
Vtbz w1, #2, #0x1c
p422
sg5
L18446743798836602576L
sg6
Nsg23
S'TBZ'
p423
sg25
S'0xffffffc0004ba6d0L'
p424
sg27
Nsbasg63
(lp425
S'ADD reg, reg, #0x258'
p426
aS'LDRH reg, mem'
p427
aS'TBZ reg, #2, func'
p428
asg71
Nsg5
S'0xffffffc0004ba6c8L'
p429
sg73
(lp430
S'0xffffffc0004ba6b8L'
p431
asg6
Nsg75
(lp432
S'0xffffffc0004ba6d4L'
p433
aS'0xffffffc0004ba6ecL'
p434
asg79
Nsg80
Nsg81
S'fd1487b74198afa5a4cbb8ff070d99ba'
p435
sg83
S'51a0d6ce548a37f62196ad1a6cce3651'
p436
sg85
(lp437
g409
ag416
ag423
asg87
Nsba(ibclass
BBasicBlock
p438
(dp439
g12
Nsg13
(lp440
(ibclass
BInstr
p441
(dp442
g2
Nsg17
S'ADRP            X2, #__func__.26831@PAGE; "panel_debug_base_offset_write"'
p443
sg19
S'425b0090'
p444
sg21
Vadrp x2, #0xb68000
p445
sg5
L18446743798836602580L
sg6
Nsg23
S'ADRP'
p446
sg25
S'0xffffffc0004ba6d4L'
p447
sg27
Nsba(ibclass
BInstr
p448
(dp449
g2
Nsg17
S'ADRP            X1, #aSDisablingPani@PAGE; "%s: Disabling panic:\\n"'
p450
sg19
S'81730090'
p451
sg21
Vadrp x1, #0xe70000
p452
sg5
L18446743798836602584L
sg6
Nsg23
S'ADRP'
p453
sg25
S'0xffffffc0004ba6d8L'
p454
sg27
Nsba(ibclass
BInstr
p455
(dp456
g2
Nsg17
S'ADD             X2, X2, #__func__.26831@PAGEOFF; "panel_debug_base_offset_write"'
p457
sg19
S'42c01691'
p458
sg21
Vadd x2, x2, #0x5b0
p459
sg5
L18446743798836602588L
sg6
Nsg23
S'ADD'
p460
sg25
S'0xffffffc0004ba6dcL'
p461
sg27
Nsba(ibclass
BInstr
p462
(dp463
g2
Nsg17
S'ADD             X1, X1, #aSDisablingPani@PAGEOFF; "%s: Disabling panic:\\n"'
p464
sg19
S'21143691'
p465
sg21
Vadd x1, x1, #0xd85
p466
sg5
L18446743798836602592L
sg6
Nsg23
S'ADD'
p467
sg25
S'0xffffffc0004ba6e0L'
p468
sg27
Nsba(ibclass
BInstr
p469
(dp470
g2
Nsg17
S'ADD             X2, X2, #0x118'
p471
sg19
S'42600491'
p472
sg21
Vadd x2, x2, #0x118
p473
sg5
L18446743798836602596L
sg6
Nsg23
S'ADD'
p474
sg25
S'0xffffffc0004ba6e4L'
p475
sg27
Nsba(ibclass
BInstr
p476
(dp477
g2
Nsg17
S'BL              __dynamic_pr_debug'
p478
sg19
S'b00efe97'
p479
sg21
Vbl #0xfffffffffff83ac0
p480
sg5
L18446743798836602600L
sg6
Nsg23
S'BL'
p481
sg25
S'0xffffffc0004ba6e8L'
p482
sg27
Nsbasg63
(lp483
S'ADRP reg, #__func__.26831@PAGE'
p484
aS'ADRP reg, #aSDisablingPani@PAGE'
p485
aS'ADD reg, reg, #__func__.26831@PAGEOFF'
p486
aS'ADD reg, reg, #aSDisablingPani@PAGEOFF'
p487
aS'ADD reg, reg, #0x118'
p488
aS'BL __dynamic_pr_debug'
p489
asg71
Nsg5
S'0xffffffc0004ba6d4L'
p490
sg73
(lp491
S'0xffffffc0004ba6c8L'
p492
asg6
Nsg75
(lp493
S'0xffffffc0004ba6ecL'
p494
asg79
Nsg80
Nsg81
S'e4dcad9e7cd2c60a0b76a9fee40dbab3'
p495
sg83
S'ee8dc73dcfe5260b86c92bb9af633e77'
p496
sg85
(lp497
g446
ag453
ag460
ag467
ag474
ag481
asg87
Nsba(ibclass
BBasicBlock
p498
(dp499
g12
Nsg13
(lp500
(ibclass
BInstr
p501
(dp502
g2
Nsg17
S'MOV             X0, X19'
p503
sg19
S'e00313aa'
p504
sg21
Vmov x0, x19
p505
sg5
L18446743798836602604L
sg6
Nsg23
S'MOV'
p506
sg25
S'0xffffffc0004ba6ecL'
p507
sg27
Nsba(ibclass
BInstr
p508
(dp509
g2
Nsg17
S'MOV             W1, #0'
p510
sg19
S'01008052'
p511
sg21
Vmovz w1, #0
p512
sg5
L18446743798836602608L
sg6
Nsg23
S'MOV'
p513
sg25
S'0xffffffc0004ba6f0L'
p514
sg27
Nsba(ibclass
BInstr
p515
(dp516
g2
Nsg17
S'BL              mdss_debug_set_panic_state'
p517
sg19
S'7affff97'
p518
sg21
Vbl #0xfffffffffffffde8
p519
sg5
L18446743798836602612L
sg6
Nsg23
S'BL'
p520
sg25
S'0xffffffc0004ba6f4L'
p521
sg27
Nsba(ibclass
BInstr
p522
(dp523
g2
Nsg17
S'STRB            WZR, [X19,#0x10D]'
p524
sg19
S'7f360439'
p525
sg21
Vstrb wzr, [x19, #0x10d]
p526
sg5
L18446743798836602616L
sg6
Nsg23
S'STR'
p527
sg25
S'0xffffffc0004ba6f8L'
p528
sg27
Nsba(ibclass
BInstr
p529
(dp530
g2
Nsg17
S'B               loc_FFFFFFC0004BA734'
p531
sg19
S'0e000014'
p532
sg21
Vb #0x38
p533
sg5
L18446743798836602620L
sg6
Nsg23
g103
sg25
S'0xffffffc0004ba6fcL'
p534
sg27
Nsbasg63
(lp535
S'MOV reg, reg9'
p536
aS'MOV reg, #0'
p537
aS'BL mdss_debug_set_panic_state'
p538
aS'STRB WZR, mem'
p539
aS'B func'
p540
asg71
Nsg5
S'0xffffffc0004ba6ecL'
p541
sg73
(lp542
S'0xffffffc0004ba6c8L'
p543
aS'0xffffffc0004ba6d4L'
p544
asg6
Nsg75
(lp545
S'0xffffffc0004ba734L'
p546
asg79
Nsg80
Nsg81
S'6b44341c3cd0607a298c99b9096b99bc'
p547
sg83
S'5d1c8ea6ad0fdb043ec3206e675402b0'
p548
sg85
(lp549
g506
ag513
ag520
ag527
ag103
asg87
Nsba(ibclass
BBasicBlock
p550
(dp551
g12
Nsg13
(lp552
(ibclass
BInstr
p553
(dp554
g2
Nsg17
S'ADD             X0, X0, #0x280'
p555
sg19
S'00000a91'
p556
sg21
Vadd x0, x0, #0x280
p557
sg5
L18446743798836602624L
sg6
Nsg23
S'ADD'
p558
sg25
S'0xffffffc0004ba700L'
p559
sg27
Nsba(ibclass
BInstr
p560
(dp561
g2
Nsg17
S'LDRH            W1, [X0,#(word_FFFFFFC001880B62 - 0xFFFFFFC001880B40)]'
p562
sg19
S'01444079'
p563
sg21
Vldrh w1, [x0, #0x22]
p564
sg5
L18446743798836602628L
sg6
Nsg23
S'LDR'
p565
sg25
S'0xffffffc0004ba704L'
p566
sg27
Nsba(ibclass
BInstr
p567
(dp568
g2
Nsg17
S'TBZ             W1, #2, loc_FFFFFFC0004BA724'
p569
sg19
S'e1001036'
p570
sg21
Vtbz w1, #2, #0x1c
p571
sg5
L18446743798836602632L
sg6
Nsg23
S'TBZ'
p572
sg25
S'0xffffffc0004ba708L'
p573
sg27
Nsbasg63
(lp574
S'ADD reg, reg, #0x280'
p575
aS'LDRH reg, mem'
p576
aS'TBZ reg, #2, func'
p577
asg71
Nsg5
S'0xffffffc0004ba700L'
p578
sg73
(lp579
S'0xffffffc0004ba6b8L'
p580
asg6
Nsg75
(lp581
S'0xffffffc0004ba70cL'
p582
aS'0xffffffc0004ba724L'
p583
asg79
Nsg80
Nsg81
S'fd1487b74198afa5a4cbb8ff070d99ba'
p584
sg83
S'c1eebc760619d22b8b5210ad7267ca0b'
p585
sg85
(lp586
g558
ag565
ag572
asg87
Nsba(ibclass
BBasicBlock
p587
(dp588
g12
Nsg13
(lp589
(ibclass
BInstr
p590
(dp591
g2
Nsg17
S'ADRP            X2, #__func__.26831@PAGE; "panel_debug_base_offset_write"'
p592
sg19
S'425b0090'
p593
sg21
Vadrp x2, #0xb68000
p594
sg5
L18446743798836602636L
sg6
Nsg23
S'ADRP'
p595
sg25
S'0xffffffc0004ba70cL'
p596
sg27
Nsba(ibclass
BInstr
p597
(dp598
g2
Nsg17
S'ADRP            X1, #aSEnablingPanic@PAGE; "%s: Enabling panic:\\n"'
p599
sg19
S'81730090'
p600
sg21
Vadrp x1, #0xe70000
p601
sg5
L18446743798836602640L
sg6
Nsg23
S'ADRP'
p602
sg25
S'0xffffffc0004ba710L'
p603
sg27
Nsba(ibclass
BInstr
p604
(dp605
g2
Nsg17
S'ADD             X2, X2, #__func__.26831@PAGEOFF; "panel_debug_base_offset_write"'
p606
sg19
S'42c01691'
p607
sg21
Vadd x2, x2, #0x5b0
p608
sg5
L18446743798836602644L
sg6
Nsg23
S'ADD'
p609
sg25
S'0xffffffc0004ba714L'
p610
sg27
Nsba(ibclass
BInstr
p611
(dp612
g2
Nsg17
S'ADD             X1, X1, #aSEnablingPanic@PAGEOFF; "%s: Enabling panic:\\n"'
p613
sg19
S'216c3691'
p614
sg21
Vadd x1, x1, #0xd9b
p615
sg5
L18446743798836602648L
sg6
Nsg23
S'ADD'
p616
sg25
S'0xffffffc0004ba718L'
p617
sg27
Nsba(ibclass
BInstr
p618
(dp619
g2
Nsg17
S'ADD             X2, X2, #0x118'
p620
sg19
S'42600491'
p621
sg21
Vadd x2, x2, #0x118
p622
sg5
L18446743798836602652L
sg6
Nsg23
S'ADD'
p623
sg25
S'0xffffffc0004ba71cL'
p624
sg27
Nsba(ibclass
BInstr
p625
(dp626
g2
Nsg17
S'BL              __dynamic_pr_debug'
p627
sg19
S'a20efe97'
p628
sg21
Vbl #0xfffffffffff83a88
p629
sg5
L18446743798836602656L
sg6
Nsg23
S'BL'
p630
sg25
S'0xffffffc0004ba720L'
p631
sg27
Nsbasg63
(lp632
S'ADRP reg, #__func__.26831@PAGE'
p633
aS'ADRP reg, #aSEnablingPanic@PAGE'
p634
aS'ADD reg, reg, #__func__.26831@PAGEOFF'
p635
aS'ADD reg, reg, #aSEnablingPanic@PAGEOFF'
p636
aS'ADD reg, reg, #0x118'
p637
aS'BL __dynamic_pr_debug'
p638
asg71
Nsg5
S'0xffffffc0004ba70cL'
p639
sg73
(lp640
S'0xffffffc0004ba700L'
p641
asg6
Nsg75
(lp642
S'0xffffffc0004ba724L'
p643
asg79
Nsg80
Nsg81
S'e4dcad9e7cd2c60a0b76a9fee40dbab3'
p644
sg83
S'ec3244230d528c74b9bf413407136485'
p645
sg85
(lp646
g595
ag602
ag609
ag616
ag623
ag630
asg87
Nsba(ibclass
BBasicBlock
p647
(dp648
g12
Nsg13
(lp649
(ibclass
BInstr
p650
(dp651
g2
Nsg17
S'MOV             W1, #1'
p652
sg19
S'21008052'
p653
sg21
Vmovz w1, #0x1
p654
sg5
L18446743798836602660L
sg6
Nsg23
S'MOV'
p655
sg25
S'0xffffffc0004ba724L'
p656
sg27
Nsba(ibclass
BInstr
p657
(dp658
g2
Nsg17
S'STRB            W1, [X19,#0x10D]'
p659
sg19
S'61360439'
p660
sg21
Vstrb w1, [x19, #0x10d]
p661
sg5
L18446743798836602664L
sg6
Nsg23
S'STR'
p662
sg25
S'0xffffffc0004ba728L'
p663
sg27
Nsba(ibclass
BInstr
p664
(dp665
g2
Nsg17
S'MOV             X0, X19'
p666
sg19
S'e00313aa'
p667
sg21
Vmov x0, x19
p668
sg5
L18446743798836602668L
sg6
Nsg23
S'MOV'
p669
sg25
S'0xffffffc0004ba72cL'
p670
sg27
Nsba(ibclass
BInstr
p671
(dp672
g2
Nsg17
S'BL              mdss_debug_set_panic_state'
p673
sg19
S'6bffff97'
p674
sg21
Vbl #0xfffffffffffffdac
p675
sg5
L18446743798836602672L
sg6
Nsg23
S'BL'
p676
sg25
S'0xffffffc0004ba730L'
p677
sg27
Nsbasg63
(lp678
S'MOV reg, #1'
p679
aS'STRB reg, mem'
p680
aS'MOV reg, reg9'
p681
aS'BL mdss_debug_set_panic_state'
p682
asg71
Nsg5
S'0xffffffc0004ba724L'
p683
sg73
(lp684
S'0xffffffc0004ba700L'
p685
aS'0xffffffc0004ba70cL'
p686
asg6
Nsg75
(lp687
S'0xffffffc0004ba734L'
p688
asg79
Nsg80
Nsg81
S'3eb90796a21da058ac8856f59b4ad706'
p689
sg83
S'050b76b8e41b5f1a5be83bcf97afbece'
p690
sg85
(lp691
g655
ag662
ag669
ag676
asg87
Nsba(ibclass
BBasicBlock
p692
(dp693
g12
Nsg13
(lp694
(ibclass
BInstr
p695
(dp696
g2
Nsg17
S'MOV             X0, X20'
p697
sg19
S'e00314aa'
p698
sg21
Vmov x0, x20
p699
sg5
L18446743798836602676L
sg6
Nsg23
S'MOV'
p700
sg25
S'0xffffffc0004ba734L'
p701
sg27
Nsbasg63
(lp702
S'MOV reg, reg0'
p703
asg71
Nsg5
S'0xffffffc0004ba734L'
p704
sg73
(lp705
S'0xffffffc0004ba6ecL'
p706
aS'0xffffffc0004ba724L'
p707
asg6
Nsg75
(lp708
S'0xffffffc0004ba738L'
p709
asg79
Nsg80
Nsg81
S'17b32100aef1fc19670be7fd58bc85df'
p710
sg83
S'f4168b5bab158e8f6facf4e66b27a1ef'
p711
sg85
(lp712
g700
asg87
Nsba(ibclass
BBasicBlock
p713
(dp714
g12
Nsg13
(lp715
(ibclass
BInstr
p716
(dp717
g2
Nsg17
S'LDP             X19, X20, [SP,#0x20+var_10]'
p718
sg19
S'f35341a9'
p719
sg21
Vldp x19, x20, [sp, #0x10]
p720
sg5
L18446743798836602680L
sg6
Nsg23
S'LDP'
p721
sg25
S'0xffffffc0004ba738L'
p722
sg27
Nsba(ibclass
BInstr
p723
(dp724
g2
Nsg17
S'LDP             X29, X30, [SP+0x20+var_20],#0x30'
p725
sg19
S'fd7bc3a8'
p726
sg21
Vldp x29, x30, [sp], #0x30
p727
sg5
L18446743798836602684L
sg6
Nsg23
S'LDP'
p728
sg25
S'0xffffffc0004ba73cL'
p729
sg27
Nsba(ibclass
BInstr
p730
(dp731
g2
Nsg17
S'RET'
p732
sg19
S'c0035fd6'
p733
sg21
Vret 
p734
sg5
L18446743798836602688L
sg6
Nsg23
S'RET'
p735
sg25
S'0xffffffc0004ba740L'
p736
sg27
Nsbasg63
(lp737
S'LDP reg9, reg0, mem'
p738
aS'LDP reg9, reg0, mem,#0x30'
p739
ag732
asg71
Nsg5
S'0xffffffc0004ba738L'
p740
sg73
(lp741
S'0xffffffc0004ba658L'
p742
aS'0xffffffc0004ba734L'
p743
asg6
Nsg75
(lp744
sg79
Nsg80
Nsg81
S'0abd6d226edb2f97e9eefc6c1654aa67'
p745
sg83
S'56629ba96f0e8aaad5a8dd165d8f6fe6'
p746
sg85
(lp747
g721
ag728
ag735
asg87
Nsbasb.