(ibclass
BFunc
p0
(dp1
S'hash'
p2
NsS'name'
p3
S'media_device_enum_entities'
p4
sS'start_address'
p5
L18446743798839509872L
sS'flag'
p6
NsS'program'
p7
NsS'bbs'
p8
(lp9
(ibclass
BBasicBlock
p10
(dp11
S'function'
p12
NsS'binstrs'
p13
(lp14
(ibclass
BInstr
p15
(dp16
g2
NsS'disasm'
p17
S'STP             X29, X30, [SP,#-0x10+var_120]!'
p18
sS'bytes'
p19
S'fd7bada9'
p20
sS'disasm_striped'
p21
Vstp x29, x30, [sp, #-0x130]!
p22
sg5
L18446743798839509872L
sg6
NsS'mnem'
p23
S'STP'
p24
sS'address'
p25
S'0xffffffc000780370L'
p26
sS'basicblock'
p27
Nsba(ibclass
BInstr
p28
(dp29
g2
Nsg17
S'MOV             X29, SP'
p30
sg19
S'fd030091'
p31
sg21
Vmov x29, sp
p32
sg5
L18446743798839509876L
sg6
Nsg23
S'MOV'
p33
sg25
S'0xffffffc000780374L'
p34
sg27
Nsba(ibclass
BInstr
p35
(dp36
g2
Nsg17
S'STP             X19, X20, [SP,#0x120+var_110]'
p37
sg19
S'f35301a9'
p38
sg21
Vstp x19, x20, [sp, #0x10]
p39
sg5
L18446743798839509880L
sg6
Nsg23
S'STP'
p40
sg25
S'0xffffffc000780378L'
p41
sg27
Nsba(ibclass
BInstr
p42
(dp43
g2
Nsg17
S'MOV             X19, X0'
p44
sg19
S'f30300aa'
p45
sg21
Vmov x19, x0
p46
sg5
L18446743798839509884L
sg6
Nsg23
S'MOV'
p47
sg25
S'0xffffffc00078037cL'
p48
sg27
Nsba(ibclass
BInstr
p49
(dp50
g2
Nsg17
S'MOV             X0, SP'
p51
sg19
S'e0030091'
p52
sg21
Vmov x0, sp
p53
sg5
L18446743798839509888L
sg6
Nsg23
S'MOV'
p54
sg25
S'0xffffffc000780380L'
p55
sg27
Nsba(ibclass
BInstr
p56
(dp57
g2
Nsg17
S'STP             X21, X22, [SP,#0x120+var_100]'
p58
sg19
S'f55b02a9'
p59
sg21
Vstp x21, x22, [sp, #0x20]
p60
sg5
L18446743798839509892L
sg6
Nsg23
S'STP'
p61
sg25
S'0xffffffc000780384L'
p62
sg27
Nsba(ibclass
BInstr
p63
(dp64
g2
Nsg17
S'AND             X21, X0, #0xFFFFFFFFFFFFC000'
p65
sg19
S'15c47292'
p66
sg21
Vand x21, x0, #0xffffffffffffc000
p67
sg5
L18446743798839509896L
sg6
Nsg23
S'AND'
p68
sg25
S'0xffffffc000780388L'
p69
sg27
Nsba(ibclass
BInstr
p70
(dp71
g2
Nsg17
S'LDR             X3, [X21,#8]'
p72
sg19
S'a30640f9'
p73
sg21
Vldr x3, [x21, #8]
p74
sg5
L18446743798839509900L
sg6
Nsg23
S'LDR'
p75
sg25
S'0xffffffc00078038cL'
p76
sg27
Nsba(ibclass
BInstr
p77
(dp78
g2
Nsg17
S'MOV             X2, X1'
p79
sg19
S'e20301aa'
p80
sg21
Vmov x2, x1
p81
sg5
L18446743798839509904L
sg6
Nsg23
S'MOV'
p82
sg25
S'0xffffffc000780390L'
p83
sg27
Nsba(ibclass
BInstr
p84
(dp85
g2
Nsg17
S'MOV             X20, X1'
p86
sg19
S'f40301aa'
p87
sg21
Vmov x20, x1
p88
sg5
L18446743798839509908L
sg6
Nsg23
S'MOV'
p89
sg25
S'0xffffffc000780394L'
p90
sg27
Nsba(ibclass
BInstr
p91
(dp92
g2
Nsg17
S'ADDS            X2, X2, #4'
p93
sg19
S'421000b1'
p94
sg21
Vadds x2, x2, #4
p95
sg5
L18446743798839509912L
sg6
Nsg23
S'ADD'
p96
sg25
S'0xffffffc000780398L'
p97
sg27
Nsba(ibclass
BInstr
p98
(dp99
g2
Nsg17
S'CCMP            X2, X3, #2, CC'
p100
sg19
S'423043fa'
p101
sg21
Vccmp x2, x3, #2, lo
p102
sg5
L18446743798839509916L
sg6
Nsg23
S'CCMP'
p103
sg25
S'0xffffffc00078039cL'
p104
sg27
Nsba(ibclass
BInstr
p105
(dp106
g2
Nsg17
S'CSET            X0, LS'
p107
sg19
S'e0879f9a'
p108
sg21
Vcset x0, ls
p109
sg5
L18446743798839509920L
sg6
Nsg23
S'CSET'
p110
sg25
S'0xffffffc0007803a0L'
p111
sg27
Nsba(ibclass
BInstr
p112
(dp113
g2
Nsg17
S'CBNZ            X0, loc_FFFFFFC0007803B0'
p114
sg19
S'600000b5'
p115
sg21
Vcbnz x0, #0xc
p116
sg5
L18446743798839509924L
sg6
Nsg23
S'CBNZ'
p117
sg25
S'0xffffffc0007803a4L'
p118
sg27
NsbasS'disasm_list'
p119
(lp120
S'STP reg9, reg0, mem!'
p121
aS'MOV reg9, SP'
p122
aS'STP reg9, reg0, mem'
p123
aS'MOV reg9, reg'
p124
aS'MOV reg, SP'
p125
aS'STP reg1, reg2, mem'
p126
aS'AND reg1, reg, #0xFFFFFFFFFFFFC000'
p127
aS'LDR reg, mem'
p128
aS'MOV reg, reg'
p129
aS'MOV reg0, reg'
p130
aS'ADDS reg, reg, #4'
p131
aS'CCMP reg, reg, #2, CC'
p132
aS'CSET reg, LS'
p133
aS'CBNZ reg, func'
p134
asS'end_address'
p135
Nsg5
S'0xffffffc000780370L'
p136
sS'preds'
p137
(lp138
sg6
NsS'succs'
p139
(lp140
S'0xffffffc0007803a8L'
p141
aS'0xffffffc0007803b0L'
p142
asS'hash_v3'
p143
NsS'flag_v2'
p144
NsS'hash_v1'
p145
S'f8be5a315321fc9a66e14bff3eb583d3'
p146
sS'hash_v2'
p147
S'e66936de60e7407dd3f96558c121e7bf'
p148
sS'mnen_list'
p149
(lp150
g24
ag33
ag40
ag47
ag54
ag61
ag68
ag75
ag82
ag89
ag96
ag103
ag110
ag117
asS'neighbour_disasm_list'
p151
Nsba(ibclass
BBasicBlock
p152
(dp153
g12
Nsg13
(lp154
(ibclass
BInstr
p155
(dp156
g2
Nsg17
S'MOV             X0, #0xFFFFFFFFFFFFFFF2'
p157
sg19
S'a0018092'
p158
sg21
Vmovn x0, #0xd
p159
sg5
L18446743798839509928L
sg6
Nsg23
S'MOV'
p160
sg25
S'0xffffffc0007803a8L'
p161
sg27
Nsba(ibclass
BInstr
p162
(dp163
g2
Nsg17
S'B               loc_FFFFFFC000780474'
p164
sg19
S'32000014'
p165
sg21
Vb #0xc8
p166
sg5
L18446743798839509932L
sg6
Nsg23
S'B'
p167
sg25
S'0xffffffc0007803acL'
p168
sg27
Nsbasg119
(lp169
S'MOV reg, #0xFFFFFFFFFFFFFFF2'
p170
aS'B func'
p171
asg135
Nsg5
S'0xffffffc0007803a8L'
p172
sg137
(lp173
S'0xffffffc000780370L'
p174
aS'0xffffffc0007803b0L'
p175
aS'0xffffffc0007803f8L'
p176
aS'0xffffffc00078046cL'
p177
asg6
Nsg139
(lp178
S'0xffffffc000780474L'
p179
asg143
Nsg144
Nsg145
S'b6c4e95ccfe77a95e4cf2019dd3d5574'
p180
sg147
S'de5cd3634b99fc7484a5299a0e06a6dc'
p181
sg149
(lp182
g160
ag167
asg151
Nsba(ibclass
BBasicBlock
p183
(dp184
g12
Nsg13
(lp185
(ibclass
BInstr
p186
(dp187
g2
Nsg17
S'ADD             X0, X29, #0x30'
p188
sg19
S'a0c30091'
p189
sg21
Vadd x0, x29, #0x30
p190
sg5
L18446743798839509936L
sg6
Nsg23
S'ADD'
p191
sg25
S'0xffffffc0007803b0L'
p192
sg27
Nsba(ibclass
BInstr
p193
(dp194
g2
Nsg17
S'MOV             X2, #4'
p195
sg19
S'820080d2'
p196
sg21
Vmovz x2, #0x4
p197
sg5
L18446743798839509940L
sg6
Nsg23
S'MOV'
p198
sg25
S'0xffffffc0007803b4L'
p199
sg27
Nsba(ibclass
BInstr
p200
(dp201
g2
Nsg17
S'BL              __copy_from_user'
p202
sg19
S'be7af297'
p203
sg21
Vbl #0xffffffffffc9eaf8
p204
sg5
L18446743798839509944L
sg6
Nsg23
S'BL'
p205
sg25
S'0xffffffc0007803b8L'
p206
sg27
Nsba(ibclass
BInstr
p207
(dp208
g2
Nsg17
S'MOV             X22, X0'
p209
sg19
S'f60300aa'
p210
sg21
Vmov x22, x0
p211
sg5
L18446743798839509948L
sg6
Nsg23
S'MOV'
p212
sg25
S'0xffffffc0007803bcL'
p213
sg27
Nsba(ibclass
BInstr
p214
(dp215
g2
Nsg17
S'CBNZ            X0, loc_FFFFFFC0007803A8'
p216
sg19
S'40ffffb5'
p217
sg21
Vcbnz x0, #0xffffffffffffffe8
p218
sg5
L18446743798839509952L
sg6
Nsg23
S'CBNZ'
p219
sg25
S'0xffffffc0007803c0L'
p220
sg27
Nsbasg119
(lp221
S'ADD reg, reg9, #0x30'
p222
aS'MOV reg, #4'
p223
aS'BL __copy_from_user'
p224
aS'MOV reg2, reg'
p225
aS'CBNZ reg, func'
p226
asg135
Nsg5
S'0xffffffc0007803b0L'
p227
sg137
(lp228
S'0xffffffc000780370L'
p229
asg6
Nsg139
(lp230
S'0xffffffc0007803a8L'
p231
aS'0xffffffc0007803c4L'
p232
asg143
Nsg144
Nsg145
S'ae370e97634f2fb122ff0c3ea898eb1e'
p233
sg147
S'267103f6ff20a5460c23029eeba24f90'
p234
sg149
(lp235
g191
ag198
ag205
ag212
ag219
asg151
Nsba(ibclass
BBasicBlock
p236
(dp237
g12
Nsg13
(lp238
(ibclass
BInstr
p239
(dp240
g2
Nsg17
S'LDR             W1, [X29,#arg_20]'
p241
sg19
S'a13340b9'
p242
sg21
Vldr w1, [x29, #0x30]
p243
sg5
L18446743798839509956L
sg6
Nsg23
S'LDR'
p244
sg25
S'0xffffffc0007803c4L'
p245
sg27
Nsba(ibclass
BInstr
p246
(dp247
g2
Nsg17
S'MOV             X0, X19'
p248
sg19
S'e00313aa'
p249
sg21
Vmov x0, x19
p250
sg5
L18446743798839509960L
sg6
Nsg23
S'MOV'
p251
sg25
S'0xffffffc0007803c8L'
p252
sg27
Nsba(ibclass
BInstr
p253
(dp254
g2
Nsg17
S'BL              find_entity'
p255
sg19
S'91ffff97'
p256
sg21
Vbl #0xfffffffffffffe44
p257
sg5
L18446743798839509964L
sg6
Nsg23
S'BL'
p258
sg25
S'0xffffffc0007803ccL'
p259
sg27
Nsba(ibclass
BInstr
p260
(dp261
g2
Nsg17
S'MOV             X19, X0'
p262
sg19
S'f30300aa'
p263
sg21
Vmov x19, x0
p264
sg5
L18446743798839509968L
sg6
Nsg23
S'MOV'
p265
sg25
S'0xffffffc0007803d0L'
p266
sg27
Nsba(ibclass
BInstr
p267
(dp268
g2
Nsg17
S'CBZ             X0, loc_FFFFFFC000780470'
p269
sg19
S'e00400b4'
p270
sg21
Vcbz x0, #0x9c
p271
sg5
L18446743798839509972L
sg6
Nsg23
S'CBZ'
p272
sg25
S'0xffffffc0007803d4L'
p273
sg27
Nsbasg119
(lp274
S'LDR reg, mem'
p275
aS'MOV reg, reg9'
p276
aS'BL find_entity'
p277
aS'MOV reg9, reg'
p278
aS'CBZ reg, func'
p279
asg135
Nsg5
S'0xffffffc0007803c4L'
p280
sg137
(lp281
S'0xffffffc0007803b0L'
p282
asg6
Nsg139
(lp283
S'0xffffffc0007803d8L'
p284
aS'0xffffffc000780470L'
p285
asg143
Nsg144
Nsg145
S'8348348dbc0b6c19e4df8a88691f9312'
p286
sg147
S'7472c323537f7e5f00faf56bb55c3d8e'
p287
sg149
(lp288
g244
ag251
ag258
ag265
ag272
asg151
Nsba(ibclass
BBasicBlock
p289
(dp290
g12
Nsg13
(lp291
(ibclass
BInstr
p292
(dp293
g2
Nsg17
S'LDR             W0, [X0,#0x18]'
p294
sg19
S'001840b9'
p295
sg21
Vldr w0, [x0, #0x18]
p296
sg5
L18446743798839509976L
sg6
Nsg23
S'LDR'
p297
sg25
S'0xffffffc0007803d8L'
p298
sg27
Nsba(ibclass
BInstr
p299
(dp300
g2
Nsg17
S'LDR             X1, [X19,#0x20]'
p301
sg19
S'611240f9'
p302
sg21
Vldr x1, [x19, #0x20]
p303
sg5
L18446743798839509980L
sg6
Nsg23
S'LDR'
p304
sg25
S'0xffffffc0007803dcL'
p305
sg27
Nsba(ibclass
BInstr
p306
(dp307
g2
Nsg17
S'STR             W0, [X29,#arg_20]'
p308
sg19
S'a03300b9'
p309
sg21
Vstr w0, [x29, #0x30]
p310
sg5
L18446743798839509984L
sg6
Nsg23
S'STR'
p311
sg25
S'0xffffffc0007803e0L'
p312
sg27
Nsba(ibclass
BInstr
p313
(dp314
g2
Nsg17
S'CBZ             X1, loc_FFFFFFC0007803F8'
p315
sg19
S'a10000b4'
p316
sg21
Vcbz x1, #0x14
p317
sg5
L18446743798839509988L
sg6
Nsg23
S'CBZ'
p318
sg25
S'0xffffffc0007803e4L'
p319
sg27
Nsbasg119
(lp320
S'LDR reg, mem'
p321
aS'LDR reg, mem'
p322
aS'STR reg, mem'
p323
aS'CBZ reg, func'
p324
asg135
Nsg5
S'0xffffffc0007803d8L'
p325
sg137
(lp326
S'0xffffffc0007803c4L'
p327
asg6
Nsg139
(lp328
S'0xffffffc0007803e8L'
p329
aS'0xffffffc0007803f8L'
p330
asg143
Nsg144
Nsg145
S'd6e77d086802db3fd1acd5d180b6e374'
p331
sg147
S'397c88536f3542386b55b622873708c0'
p332
sg149
(lp333
g297
ag304
ag311
ag318
asg151
Nsba(ibclass
BBasicBlock
p334
(dp335
g12
Nsg13
(lp336
(ibclass
BInstr
p337
(dp338
g2
Nsg17
S'ADD             X0, X29, #0x34'
p339
sg19
S'a0d30091'
p340
sg21
Vadd x0, x29, #0x34
p341
sg5
L18446743798839509992L
sg6
Nsg23
S'ADD'
p342
sg25
S'0xffffffc0007803e8L'
p343
sg27
Nsba(ibclass
BInstr
p344
(dp345
g2
Nsg17
S'MOV             X2, #0x20'
p346
sg19
S'020480d2'
p347
sg21
Vmovz x2, #0x20
p348
sg5
L18446743798839509996L
sg6
Nsg23
S'MOV'
p349
sg25
S'0xffffffc0007803ecL'
p350
sg27
Nsba(ibclass
BInstr
p351
(dp352
g2
Nsg17
S'BL              strncpy'
p353
sg19
S'869ef297'
p354
sg21
Vbl #0xffffffffffca7a18
p355
sg5
L18446743798839510000L
sg6
Nsg23
S'BL'
p356
sg25
S'0xffffffc0007803f0L'
p357
sg27
Nsba(ibclass
BInstr
p358
(dp359
g2
Nsg17
S'STRB            W22, [X29,#arg_43]'
p360
sg19
S'b64f0139'
p361
sg21
Vstrb w22, [x29, #0x53]
p362
sg5
L18446743798839510004L
sg6
Nsg23
S'STR'
p363
sg25
S'0xffffffc0007803f4L'
p364
sg27
Nsbasg119
(lp365
S'ADD reg, reg9, #0x34'
p366
aS'MOV reg, #0x20'
p367
aS'BL strncpy'
p368
aS'STRB reg2, mem'
p369
asg135
Nsg5
S'0xffffffc0007803e8L'
p370
sg137
(lp371
S'0xffffffc0007803d8L'
p372
asg6
Nsg139
(lp373
S'0xffffffc0007803f8L'
p374
asg143
Nsg144
Nsg145
S'2070ef260544f4cd375caea2a29946ce'
p375
sg147
S'77042bd570b0f61240939200a50c131d'
p376
sg149
(lp377
g342
ag349
ag356
ag363
asg151
Nsba(ibclass
BBasicBlock
p378
(dp379
g12
Nsg13
(lp380
(ibclass
BInstr
p381
(dp382
g2
Nsg17
S'LDR             W0, [X19,#0x28]'
p383
sg19
S'602a40b9'
p384
sg21
Vldr w0, [x19, #0x28]
p385
sg5
L18446743798839510008L
sg6
Nsg23
S'LDR'
p386
sg25
S'0xffffffc0007803f8L'
p387
sg27
Nsba(ibclass
BInstr
p388
(dp389
g2
Nsg17
S'LDRH            W1, [X19,#0x3E]'
p390
sg19
S'617e4079'
p391
sg21
Vldrh w1, [x19, #0x3e]
p392
sg5
L18446743798839510012L
sg6
Nsg23
S'LDR'
p393
sg25
S'0xffffffc0007803fcL'
p394
sg27
Nsba(ibclass
BInstr
p395
(dp396
g2
Nsg17
S'STR             W0, [X29,#arg_44]'
p397
sg19
S'a05700b9'
p398
sg21
Vstr w0, [x29, #0x54]
p399
sg5
L18446743798839510016L
sg6
Nsg23
S'STR'
p400
sg25
S'0xffffffc000780400L'
p401
sg27
Nsba(ibclass
BInstr
p402
(dp403
g2
Nsg17
S'LDR             W0, [X19,#0x2C]'
p404
sg19
S'602e40b9'
p405
sg21
Vldr w0, [x19, #0x2c]
p406
sg5
L18446743798839510020L
sg6
Nsg23
S'LDR'
p407
sg25
S'0xffffffc000780404L'
p408
sg27
Nsba(ibclass
BInstr
p409
(dp410
g2
Nsg17
S'STR             W0, [X29,#arg_48]'
p411
sg19
S'a05b00b9'
p412
sg21
Vstr w0, [x29, #0x58]
p413
sg5
L18446743798839510024L
sg6
Nsg23
S'STR'
p414
sg25
S'0xffffffc000780408L'
p415
sg27
Nsba(ibclass
BInstr
p416
(dp417
g2
Nsg17
S'LDR             X0, [X19,#0x30]'
p418
sg19
S'601a40f9'
p419
sg21
Vldr x0, [x19, #0x30]
p420
sg5
L18446743798839510028L
sg6
Nsg23
S'LDR'
p421
sg25
S'0xffffffc00078040cL'
p422
sg27
Nsba(ibclass
BInstr
p423
(dp424
g2
Nsg17
S'STR             W0, [X29,#arg_4C]'
p425
sg19
S'a05f00b9'
p426
sg21
Vstr w0, [x29, #0x5c]
p427
sg5
L18446743798839510032L
sg6
Nsg23
S'STR'
p428
sg25
S'0xffffffc000780410L'
p429
sg27
Nsba(ibclass
BInstr
p430
(dp431
g2
Nsg17
S'LDR             W0, [X19,#0x38]'
p432
sg19
S'603a40b9'
p433
sg21
Vldr w0, [x19, #0x38]
p434
sg5
L18446743798839510036L
sg6
Nsg23
S'LDR'
p435
sg25
S'0xffffffc000780414L'
p436
sg27
Nsba(ibclass
BInstr
p437
(dp438
g2
Nsg17
S'STR             W0, [X29,#arg_50]'
p439
sg19
S'a06300b9'
p440
sg21
Vstr w0, [x29, #0x60]
p441
sg5
L18446743798839510040L
sg6
Nsg23
S'STR'
p442
sg25
S'0xffffffc000780418L'
p443
sg27
Nsba(ibclass
BInstr
p444
(dp445
g2
Nsg17
S'LDRH            W0, [X19,#0x3C]'
p446
sg19
S'607a4079'
p447
sg21
Vldrh w0, [x19, #0x3c]
p448
sg5
L18446743798839510044L
sg6
Nsg23
S'LDR'
p449
sg25
S'0xffffffc00078041cL'
p450
sg27
Nsba(ibclass
BInstr
p451
(dp452
g2
Nsg17
S'STRH            W0, [X29,#arg_54]'
p453
sg19
S'a0cb0079'
p454
sg21
Vstrh w0, [x29, #0x64]
p455
sg5
L18446743798839510048L
sg6
Nsg23
S'STR'
p456
sg25
S'0xffffffc000780420L'
p457
sg27
Nsba(ibclass
BInstr
p458
(dp459
g2
Nsg17
S'LDRH            W0, [X19,#0x40]'
p460
sg19
S'60824079'
p461
sg21
Vldrh w0, [x19, #0x40]
p462
sg5
L18446743798839510052L
sg6
Nsg23
S'LDR'
p463
sg25
S'0xffffffc000780424L'
p464
sg27
Nsba(ibclass
BInstr
p465
(dp466
g2
Nsg17
S'SUB             W0, W1, W0'
p467
sg19
S'2000004b'
p468
sg21
Vsub w0, w1, w0
p469
sg5
L18446743798839510056L
sg6
Nsg23
S'SUB'
p470
sg25
S'0xffffffc000780428L'
p471
sg27
Nsba(ibclass
BInstr
p472
(dp473
g2
Nsg17
S'STRH            W0, [X29,#arg_56]'
p474
sg19
S'a0cf0079'
p475
sg21
Vstrh w0, [x29, #0x66]
p476
sg5
L18446743798839510060L
sg6
Nsg23
S'STR'
p477
sg25
S'0xffffffc00078042cL'
p478
sg27
Nsba(ibclass
BInstr
p479
(dp480
g2
Nsg17
S'LDR             X0, [X19,#0x70]'
p481
sg19
S'603a40f9'
p482
sg21
Vldr x0, [x19, #0x70]
p483
sg5
L18446743798839510064L
sg6
Nsg23
S'LDR'
p484
sg25
S'0xffffffc000780430L'
p485
sg27
Nsba(ibclass
BInstr
p486
(dp487
g2
Nsg17
S'STR             X0, [X29,#arg_68]'
p488
sg19
S'a03f00f9'
p489
sg21
Vstr x0, [x29, #0x78]
p490
sg5
L18446743798839510068L
sg6
Nsg23
S'STR'
p491
sg25
S'0xffffffc000780434L'
p492
sg27
Nsba(ibclass
BInstr
p493
(dp494
g2
Nsg17
S'LDR             W0, [X19,#0x78]'
p495
sg19
S'607a40b9'
p496
sg21
Vldr w0, [x19, #0x78]
p497
sg5
L18446743798839510072L
sg6
Nsg23
S'LDR'
p498
sg25
S'0xffffffc000780438L'
p499
sg27
Nsba(ibclass
BInstr
p500
(dp501
g2
Nsg17
S'STR             W0, [X29,#arg_70]'
p502
sg19
S'a08300b9'
p503
sg21
Vstr w0, [x29, #0x80]
p504
sg5
L18446743798839510076L
sg6
Nsg23
S'STR'
p505
sg25
S'0xffffffc00078043cL'
p506
sg27
Nsba(ibclass
BInstr
p507
(dp508
g2
Nsg17
S'LDR             X1, [X21,#8]'
p509
sg19
S'a10640f9'
p510
sg21
Vldr x1, [x21, #8]
p511
sg5
L18446743798839510080L
sg6
Nsg23
S'LDR'
p512
sg25
S'0xffffffc000780440L'
p513
sg27
Nsba(ibclass
BInstr
p514
(dp515
g2
Nsg17
S'MOV             X0, X20'
p516
sg19
S'e00314aa'
p517
sg21
Vmov x0, x20
p518
sg5
L18446743798839510084L
sg6
Nsg23
S'MOV'
p519
sg25
S'0xffffffc000780444L'
p520
sg27
Nsba(ibclass
BInstr
p521
(dp522
g2
Nsg17
S'ADDS            X0, X0, #0x100'
p523
sg19
S'000004b1'
p524
sg21
Vadds x0, x0, #0x100
p525
sg5
L18446743798839510088L
sg6
Nsg23
S'ADD'
p526
sg25
S'0xffffffc000780448L'
p527
sg27
Nsba(ibclass
BInstr
p528
(dp529
g2
Nsg17
S'CCMP            X0, X1, #2, CC'
p530
sg19
S'023041fa'
p531
sg21
Vccmp x0, x1, #2, lo
p532
sg5
L18446743798839510092L
sg6
Nsg23
S'CCMP'
p533
sg25
S'0xffffffc00078044cL'
p534
sg27
Nsba(ibclass
BInstr
p535
(dp536
g2
Nsg17
S'CSET            X2, LS'
p537
sg19
S'e2879f9a'
p538
sg21
Vcset x2, ls
p539
sg5
L18446743798839510096L
sg6
Nsg23
S'CSET'
p540
sg25
S'0xffffffc000780450L'
p541
sg27
Nsba(ibclass
BInstr
p542
(dp543
g2
Nsg17
S'CBZ             X2, loc_FFFFFFC0007803A8'
p544
sg19
S'a2faffb4'
p545
sg21
Vcbz x2, #0xffffffffffffff54
p546
sg5
L18446743798839510100L
sg6
Nsg23
S'CBZ'
p547
sg25
S'0xffffffc000780454L'
p548
sg27
Nsbasg119
(lp549
S'LDR reg, mem'
p550
aS'LDRH reg, mem'
p551
aS'STR reg, mem'
p552
aS'LDR reg, mem'
p553
aS'STR reg, mem'
p554
aS'LDR reg, mem'
p555
aS'STR reg, mem'
p556
aS'LDR reg, mem'
p557
aS'STR reg, mem'
p558
aS'LDRH reg, mem'
p559
aS'STRH reg, mem'
p560
aS'LDRH reg, mem'
p561
aS'SUB reg, reg, reg'
p562
aS'STRH reg, mem'
p563
aS'LDR reg, mem'
p564
aS'STR reg, mem'
p565
aS'LDR reg, mem'
p566
aS'STR reg, mem'
p567
aS'LDR reg, mem'
p568
aS'MOV reg, reg0'
p569
aS'ADDS reg, reg, #0x100'
p570
aS'CCMP reg, reg, #2, CC'
p571
aS'CSET reg, LS'
p572
aS'CBZ reg, func'
p573
asg135
Nsg5
S'0xffffffc0007803f8L'
p574
sg137
(lp575
S'0xffffffc0007803d8L'
p576
aS'0xffffffc0007803e8L'
p577
asg6
Nsg139
(lp578
S'0xffffffc0007803a8L'
p579
aS'0xffffffc000780458L'
p580
asg143
Nsg144
Nsg145
S'fcc02ca4e86dc219cf6b7d859cfbc56a'
p581
sg147
S'1a47a333b63567f70dd10825ad415606'
p582
sg149
(lp583
g386
ag393
ag400
ag407
ag414
ag421
ag428
ag435
ag442
ag449
ag456
ag463
ag470
ag477
ag484
ag491
ag498
ag505
ag512
ag519
ag526
ag533
ag540
ag547
asg151
Nsba(ibclass
BBasicBlock
p584
(dp585
g12
Nsg13
(lp586
(ibclass
BInstr
p587
(dp588
g2
Nsg17
S'MOV             X0, X20'
p589
sg19
S'e00314aa'
p590
sg21
Vmov x0, x20
p591
sg5
L18446743798839510104L
sg6
Nsg23
S'MOV'
p592
sg25
S'0xffffffc000780458L'
p593
sg27
Nsba(ibclass
BInstr
p594
(dp595
g2
Nsg17
S'ADD             X1, X29, #0x30'
p596
sg19
S'a1c30091'
p597
sg21
Vadd x1, x29, #0x30
p598
sg5
L18446743798839510108L
sg6
Nsg23
S'ADD'
p599
sg25
S'0xffffffc00078045cL'
p600
sg27
Nsba(ibclass
BInstr
p601
(dp602
g2
Nsg17
S'MOV             X2, #0x100'
p603
sg19
S'022080d2'
p604
sg21
Vmovz x2, #0x100
p605
sg5
L18446743798839510112L
sg6
Nsg23
S'MOV'
p606
sg25
S'0xffffffc000780460L'
p607
sg27
Nsba(ibclass
BInstr
p608
(dp609
g2
Nsg17
S'BL              __copy_to_user'
p610
sg19
S'd37af297'
p611
sg21
Vbl #0xffffffffffc9eb4c
p612
sg5
L18446743798839510116L
sg6
Nsg23
S'BL'
p613
sg25
S'0xffffffc000780464L'
p614
sg27
Nsba(ibclass
BInstr
p615
(dp616
g2
Nsg17
S'CBZ             X0, loc_FFFFFFC000780474'
p617
sg19
S'600000b4'
p618
sg21
Vcbz x0, #0xc
p619
sg5
L18446743798839510120L
sg6
Nsg23
S'CBZ'
p620
sg25
S'0xffffffc000780468L'
p621
sg27
Nsbasg119
(lp622
S'MOV reg, reg0'
p623
aS'ADD reg, reg9, #0x30'
p624
aS'MOV reg, #0x100'
p625
aS'BL __copy_to_user'
p626
aS'CBZ reg, func'
p627
asg135
Nsg5
S'0xffffffc000780458L'
p628
sg137
(lp629
S'0xffffffc0007803f8L'
p630
asg6
Nsg139
(lp631
S'0xffffffc00078046cL'
p632
aS'0xffffffc000780474L'
p633
asg143
Nsg144
Nsg145
S'3e437ed62a5b5551da045745ec200d0f'
p634
sg147
S'612b013a0b84d8d3d9942c0f32ed07b5'
p635
sg149
(lp636
g592
ag599
ag606
ag613
ag620
asg151
Nsba(ibclass
BBasicBlock
p637
(dp638
g12
Nsg13
(lp639
(ibclass
BInstr
p640
(dp641
g2
Nsg17
S'B               loc_FFFFFFC0007803A8'
p642
sg19
S'cfffff17'
p643
sg21
Vb #0xffffffffffffff3c
p644
sg5
L18446743798839510124L
sg6
Nsg23
g167
sg25
S'0xffffffc00078046cL'
p645
sg27
Nsbasg119
(lp646
S'B func'
p647
asg135
Nsg5
S'0xffffffc00078046cL'
p648
sg137
(lp649
S'0xffffffc000780458L'
p650
asg6
Nsg139
(lp651
S'0xffffffc0007803a8L'
p652
asg143
Nsg144
Nsg145
S'9d5ed678fe57bcca610140957afab571'
p653
sg147
S'071b057c420e304c628380fd3541c021'
p654
sg149
(lp655
g167
asg151
Nsba(ibclass
BBasicBlock
p656
(dp657
g12
Nsg13
(lp658
(ibclass
BInstr
p659
(dp660
g2
Nsg17
S'MOV             X0, #0xFFFFFFFFFFFFFFEA'
p661
sg19
S'a0028092'
p662
sg21
Vmovn x0, #0x15
p663
sg5
L18446743798839510128L
sg6
Nsg23
S'MOV'
p664
sg25
S'0xffffffc000780470L'
p665
sg27
Nsbasg119
(lp666
S'MOV reg, #0xFFFFFFFFFFFFFFEA'
p667
asg135
Nsg5
S'0xffffffc000780470L'
p668
sg137
(lp669
S'0xffffffc0007803c4L'
p670
asg6
Nsg139
(lp671
S'0xffffffc000780474L'
p672
asg143
Nsg144
Nsg145
S'17b32100aef1fc19670be7fd58bc85df'
p673
sg147
S'e246af720660f75a784ce8a959acd15d'
p674
sg149
(lp675
g664
asg151
Nsba(ibclass
BBasicBlock
p676
(dp677
g12
Nsg13
(lp678
(ibclass
BInstr
p679
(dp680
g2
Nsg17
S'LDP             X19, X20, [SP,#0x120+var_110]'
p681
sg19
S'f35341a9'
p682
sg21
Vldp x19, x20, [sp, #0x10]
p683
sg5
L18446743798839510132L
sg6
Nsg23
S'LDP'
p684
sg25
S'0xffffffc000780474L'
p685
sg27
Nsba(ibclass
BInstr
p686
(dp687
g2
Nsg17
S'LDP             X21, X22, [SP,#0x120+var_100]'
p688
sg19
S'f55b42a9'
p689
sg21
Vldp x21, x22, [sp, #0x20]
p690
sg5
L18446743798839510136L
sg6
Nsg23
S'LDP'
p691
sg25
S'0xffffffc000780478L'
p692
sg27
Nsba(ibclass
BInstr
p693
(dp694
g2
Nsg17
S'LDP             X29, X30, [SP+0x120+var_120],#0x130'
p695
sg19
S'fd7bd3a8'
p696
sg21
Vldp x29, x30, [sp], #0x130
p697
sg5
L18446743798839510140L
sg6
Nsg23
S'LDP'
p698
sg25
S'0xffffffc00078047cL'
p699
sg27
Nsba(ibclass
BInstr
p700
(dp701
g2
Nsg17
S'RET'
p702
sg19
S'c0035fd6'
p703
sg21
Vret 
p704
sg5
L18446743798839510144L
sg6
Nsg23
S'RET'
p705
sg25
S'0xffffffc000780480L'
p706
sg27
Nsbasg119
(lp707
S'LDP reg9, reg0, mem'
p708
aS'LDP reg1, reg2, mem'
p709
aS'LDP reg9, reg0, mem,#0x130'
p710
ag702
asg135
Nsg5
S'0xffffffc000780474L'
p711
sg137
(lp712
S'0xffffffc0007803a8L'
p713
aS'0xffffffc000780458L'
p714
aS'0xffffffc000780470L'
p715
asg6
Nsg139
(lp716
sg143
Nsg144
Nsg145
S'e506acdec8f0d1b80ba12a70d6d398f7'
p717
sg147
S'a5c6d6504162b013c7fff7ddcc61869a'
p718
sg149
(lp719
g684
ag691
ag698
ag705
asg151
Nsbasb.