(ibclass
BFunc
p0
(dp1
S'hash'
p2
NsS'name'
p3
S'mmc_wr_pack_stats_write'
p4
sS'start_address'
p5
L18446743798840721600L
sS'flag'
p6
NsS'program'
p7
NsS'bbs'
p8
(lp9
(ibclass
BBasicBlock
p10
(dp11
S'function'
p12
NsS'binstrs'
p13
(lp14
(ibclass
BInstr
p15
(dp16
g2
NsS'disasm'
p17
S'STP             X29, X30, [SP,#-0x10+var_30]!'
p18
sS'bytes'
p19
S'fd7bbca9'
p20
sS'disasm_striped'
p21
Vstp x29, x30, [sp, #-0x40]!
p22
sg5
L18446743798840721600L
sg6
NsS'mnem'
p23
S'STP'
p24
sS'address'
p25
S'0xffffffc0008a80c0L'
p26
sS'basicblock'
p27
Nsba(ibclass
BInstr
p28
(dp29
g2
Nsg17
S'MOV             X29, SP'
p30
sg19
S'fd030091'
p31
sg21
Vmov x29, sp
p32
sg5
L18446743798840721604L
sg6
Nsg23
S'MOV'
p33
sg25
S'0xffffffc0008a80c4L'
p34
sg27
Nsba(ibclass
BInstr
p35
(dp36
g2
Nsg17
S'STP             X21, X22, [SP,#0x30+var_10]'
p37
sg19
S'f55b02a9'
p38
sg21
Vstp x21, x22, [sp, #0x20]
p39
sg5
L18446743798840721608L
sg6
Nsg23
S'STP'
p40
sg25
S'0xffffffc0008a80c8L'
p41
sg27
Nsba(ibclass
BInstr
p42
(dp43
g2
Nsg17
S'STP             X19, X20, [SP,#0x30+var_20]'
p44
sg19
S'f35301a9'
p45
sg21
Vstp x19, x20, [sp, #0x10]
p46
sg5
L18446743798840721612L
sg6
Nsg23
S'STP'
p47
sg25
S'0xffffffc0008a80ccL'
p48
sg27
Nsba(ibclass
BInstr
p49
(dp50
g2
Nsg17
S'LDR             X19, [X0,#0xA8]'
p51
sg19
S'135440f9'
p52
sg21
Vldr x19, [x0, #0xa8]
p53
sg5
L18446743798840721616L
sg6
Nsg23
S'LDR'
p54
sg25
S'0xffffffc0008a80d0L'
p55
sg27
Nsba(ibclass
BInstr
p56
(dp57
g2
Nsg17
S'MOV             X22, X2'
p58
sg19
S'f60302aa'
p59
sg21
Vmov x22, x2
p60
sg5
L18446743798840721620L
sg6
Nsg23
S'MOV'
p61
sg25
S'0xffffffc0008a80d4L'
p62
sg27
Nsba(ibclass
BInstr
p63
(dp64
g2
Nsg17
S'CBZ             X19, loc_FFFFFFC0008A811C'
p65
sg19
S'330200b4'
p66
sg21
Vcbz x19, #0x44
p67
sg5
L18446743798840721624L
sg6
Nsg23
S'CBZ'
p68
sg25
S'0xffffffc0008a80d8L'
p69
sg27
NsbasS'disasm_list'
p70
(lp71
S'STP reg9, reg0, mem!'
p72
aS'MOV reg9, SP'
p73
aS'STP reg1, reg2, mem'
p74
aS'STP reg9, reg0, mem'
p75
aS'LDR reg9, mem'
p76
aS'MOV reg2, reg'
p77
aS'CBZ reg9, func'
p78
asS'end_address'
p79
Nsg5
S'0xffffffc0008a80c0L'
p80
sS'preds'
p81
(lp82
sg6
NsS'succs'
p83
(lp84
S'0xffffffc0008a80dcL'
p85
aS'0xffffffc0008a811cL'
p86
asS'hash_v3'
p87
NsS'flag_v2'
p88
NsS'hash_v1'
p89
S'e5a1f04b1920f29308d5667d50316af5'
p90
sS'hash_v2'
p91
S'dffc91deaec9fde9b40fd3f4de6f1367'
p92
sS'mnen_list'
p93
(lp94
g24
ag33
ag40
ag47
ag54
ag61
ag68
asS'neighbour_disasm_list'
p95
Nsba(ibclass
BBasicBlock
p96
(dp97
g12
Nsg13
(lp98
(ibclass
BInstr
p99
(dp100
g2
Nsg17
S'MOV             X0, X1'
p101
sg19
S'e00301aa'
p102
sg21
Vmov x0, x1
p103
sg5
L18446743798840721628L
sg6
Nsg23
S'MOV'
p104
sg25
S'0xffffffc0008a80dcL'
p105
sg27
Nsba(ibclass
BInstr
p106
(dp107
g2
Nsg17
S'ADRP            X1, #unk_FFFFFFC0014C0B88@PAGE'
p108
sg19
S'c1600090'
p109
sg21
Vadrp x1, #0xc18000
p110
sg5
L18446743798840721632L
sg6
Nsg23
S'ADRP'
p111
sg25
S'0xffffffc0008a80e0L'
p112
sg27
Nsba(ibclass
BInstr
p113
(dp114
g2
Nsg17
S'ADD             X1, X1, #unk_FFFFFFC0014C0B88@PAGEOFF'
p115
sg19
S'21202e91'
p116
sg21
Vadd x1, x1, #0xb88
p117
sg5
L18446743798840721636L
sg6
Nsg23
S'ADD'
p118
sg25
S'0xffffffc0008a80e4L'
p119
sg27
Nsba(ibclass
BInstr
p120
(dp121
g2
Nsg17
S'ADD             X2, X29, #0x30'
p122
sg19
S'a2c30091'
p123
sg21
Vadd x2, x29, #0x30
p124
sg5
L18446743798840721640L
sg6
Nsg23
S'ADD'
p125
sg25
S'0xffffffc0008a80e8L'
p126
sg27
Nsba(ibclass
BInstr
p127
(dp128
g2
Nsg17
S'BL              sscanf'
p129
sg19
S'730cee97'
p130
sg21
Vbl #0xffffffffffb831cc
p131
sg5
L18446743798840721644L
sg6
Nsg23
S'BL'
p132
sg25
S'0xffffffc0008a80ecL'
p133
sg27
Nsba(ibclass
BInstr
p134
(dp135
g2
Nsg17
S'LDR             W21, [X29,#0x30+var_s0]'
p136
sg19
S'b53340b9'
p137
sg21
Vldr w21, [x29, #0x30]
p138
sg5
L18446743798840721648L
sg6
Nsg23
S'LDR'
p139
sg25
S'0xffffffc0008a80f0L'
p140
sg27
Nsba(ibclass
BInstr
p141
(dp142
g2
Nsg17
S'CBZ             W21, loc_FFFFFFC0008A8104'
p143
sg19
S'95000034'
p144
sg21
Vcbz w21, #0x10
p145
sg5
L18446743798840721652L
sg6
Nsg23
S'CBZ'
p146
sg25
S'0xffffffc0008a80f4L'
p147
sg27
Nsbasg70
(lp148
S'MOV reg, reg'
p149
aS'ADRP reg, #func@PAGE'
p150
aS'ADD reg, reg, #func@PAGEOFF'
p151
aS'ADD reg, reg9, #0x30'
p152
aS'BL sscanf'
p153
aS'LDR reg1, mem'
p154
aS'CBZ reg1, func'
p155
asg79
Nsg5
S'0xffffffc0008a80dcL'
p156
sg81
(lp157
S'0xffffffc0008a80c0L'
p158
asg6
Nsg83
(lp159
S'0xffffffc0008a80f8L'
p160
aS'0xffffffc0008a8104L'
p161
asg87
Nsg88
Nsg89
S'493ff3fa3b35049c1bebec46486e23ef'
p162
sg91
S'9384a278e4f4fd6d2321fc72a1e270bc'
p163
sg93
(lp164
g104
ag111
ag118
ag125
ag132
ag139
ag146
asg95
Nsba(ibclass
BBasicBlock
p165
(dp166
g12
Nsg13
(lp167
(ibclass
BInstr
p168
(dp169
g2
Nsg17
S'MOV             X0, X19'
p170
sg19
S'e00313aa'
p171
sg21
Vmov x0, x19
p172
sg5
L18446743798840721656L
sg6
Nsg23
S'MOV'
p173
sg25
S'0xffffffc0008a80f8L'
p174
sg27
Nsba(ibclass
BInstr
p175
(dp176
g2
Nsg17
S'BL              mmc_blk_init_packed_statistics'
p177
sg19
S'2a160094'
p178
sg21
Vbl #0x58a8
p179
sg5
L18446743798840721660L
sg6
Nsg23
S'BL'
p180
sg25
S'0xffffffc0008a80fcL'
p181
sg27
Nsba(ibclass
BInstr
p182
(dp183
g2
Nsg17
S'B               loc_FFFFFFC0008A811C'
p184
sg19
S'07000014'
p185
sg21
Vb #0x1c
p186
sg5
L18446743798840721664L
sg6
Nsg23
S'B'
p187
sg25
S'0xffffffc0008a8100L'
p188
sg27
Nsbasg70
(lp189
S'MOV reg, reg9'
p190
aS'BL mmc_blk_init_packed_statistics'
p191
aS'B func'
p192
asg79
Nsg5
S'0xffffffc0008a80f8L'
p193
sg81
(lp194
S'0xffffffc0008a80dcL'
p195
asg6
Nsg83
(lp196
S'0xffffffc0008a811cL'
p197
asg87
Nsg88
Nsg89
S'f3f645dfcfe38b34211b70b425c07bfe'
p198
sg91
S'd552949a436fdec84dfb0af9e49a2656'
p199
sg93
(lp200
g173
ag180
ag187
asg95
Nsba(ibclass
BBasicBlock
p201
(dp202
g12
Nsg13
(lp203
(ibclass
BInstr
p204
(dp205
g2
Nsg17
S'ADD             X20, X19, #0x578'
p206
sg19
S'74e21591'
p207
sg21
Vadd x20, x19, #0x578
p208
sg5
L18446743798840721668L
sg6
Nsg23
S'ADD'
p209
sg25
S'0xffffffc0008a8104L'
p210
sg27
Nsba(ibclass
BInstr
p211
(dp212
g2
Nsg17
S'MOV             X0, X20'
p213
sg19
S'e00314aa'
p214
sg21
Vmov x0, x20
p215
sg5
L18446743798840721672L
sg6
Nsg23
S'MOV'
p216
sg25
S'0xffffffc0008a8108L'
p217
sg27
Nsba(ibclass
BInstr
p218
(dp219
g2
Nsg17
S'BL              _raw_spin_lock'
p220
sg19
S'33521694'
p221
sg21
Vbl #0x5948cc
p222
sg5
L18446743798840721676L
sg6
Nsg23
S'BL'
p223
sg25
S'0xffffffc0008a810cL'
p224
sg27
Nsba(ibclass
BInstr
p225
(dp226
g2
Nsg17
S'MOV             X0, X20'
p227
sg19
S'e00314aa'
p228
sg21
Vmov x0, x20
p229
sg5
L18446743798840721680L
sg6
Nsg23
S'MOV'
p230
sg25
S'0xffffffc0008a8110L'
p231
sg27
Nsba(ibclass
BInstr
p232
(dp233
g2
Nsg17
S'STRB            W21, [X19,#0x57C]'
p234
sg19
S'75f21539'
p235
sg21
Vstrb w21, [x19, #0x57c]
p236
sg5
L18446743798840721684L
sg6
Nsg23
S'STR'
p237
sg25
S'0xffffffc0008a8114L'
p238
sg27
Nsba(ibclass
BInstr
p239
(dp240
g2
Nsg17
S'BL              _raw_spin_unlock'
p241
sg19
S'89521694'
p242
sg21
Vbl #0x594a24
p243
sg5
L18446743798840721688L
sg6
Nsg23
S'BL'
p244
sg25
S'0xffffffc0008a8118L'
p245
sg27
Nsbasg70
(lp246
S'ADD reg0, reg9, #0x578'
p247
aS'MOV reg, reg0'
p248
aS'BL _raw_spin_lock'
p249
aS'MOV reg, reg0'
p250
aS'STRB reg1, mem'
p251
aS'BL _raw_spin_unlock'
p252
asg79
Nsg5
S'0xffffffc0008a8104L'
p253
sg81
(lp254
S'0xffffffc0008a80dcL'
p255
asg6
Nsg83
(lp256
S'0xffffffc0008a811cL'
p257
asg87
Nsg88
Nsg89
S'65c8fb31daaaceaac2d18a60c636efc6'
p258
sg91
S'4f681d6d0abf09ed371d313b9699cf84'
p259
sg93
(lp260
g209
ag216
ag223
ag230
ag237
ag244
asg95
Nsba(ibclass
BBasicBlock
p261
(dp262
g12
Nsg13
(lp263
(ibclass
BInstr
p264
(dp265
g2
Nsg17
S'MOV             X0, X22'
p266
sg19
S'e00316aa'
p267
sg21
Vmov x0, x22
p268
sg5
L18446743798840721692L
sg6
Nsg23
S'MOV'
p269
sg25
S'0xffffffc0008a811cL'
p270
sg27
Nsba(ibclass
BInstr
p271
(dp272
g2
Nsg17
S'LDP             X19, X20, [SP,#0x30+var_20]'
p273
sg19
S'f35341a9'
p274
sg21
Vldp x19, x20, [sp, #0x10]
p275
sg5
L18446743798840721696L
sg6
Nsg23
S'LDP'
p276
sg25
S'0xffffffc0008a8120L'
p277
sg27
Nsba(ibclass
BInstr
p278
(dp279
g2
Nsg17
S'LDP             X21, X22, [SP,#0x30+var_10]'
p280
sg19
S'f55b42a9'
p281
sg21
Vldp x21, x22, [sp, #0x20]
p282
sg5
L18446743798840721700L
sg6
Nsg23
S'LDP'
p283
sg25
S'0xffffffc0008a8124L'
p284
sg27
Nsba(ibclass
BInstr
p285
(dp286
g2
Nsg17
S'LDP             X29, X30, [SP+0x30+var_30],#0x40'
p287
sg19
S'fd7bc4a8'
p288
sg21
Vldp x29, x30, [sp], #0x40
p289
sg5
L18446743798840721704L
sg6
Nsg23
S'LDP'
p290
sg25
S'0xffffffc0008a8128L'
p291
sg27
Nsba(ibclass
BInstr
p292
(dp293
g2
Nsg17
S'RET'
p294
sg19
S'c0035fd6'
p295
sg21
Vret 
p296
sg5
L18446743798840721708L
sg6
Nsg23
S'RET'
p297
sg25
S'0xffffffc0008a812cL'
p298
sg27
Nsbasg70
(lp299
S'MOV reg, reg2'
p300
aS'LDP reg9, reg0, mem'
p301
aS'LDP reg1, reg2, mem'
p302
aS'LDP reg9, reg0, mem,#0x40'
p303
ag294
asg79
Nsg5
S'0xffffffc0008a811cL'
p304
sg81
(lp305
S'0xffffffc0008a80c0L'
p306
aS'0xffffffc0008a80f8L'
p307
aS'0xffffffc0008a8104L'
p308
asg6
Nsg83
(lp309
sg87
Nsg88
Nsg89
S'db0416338a9284f5d25dbdb684cf2c5b'
p310
sg91
S'0c9ae4d385ae9e2be975e4305f2c917e'
p311
sg93
(lp312
g269
ag276
ag283
ag290
ag297
asg95
Nsbasb.