(ibclass
BFunc
p0
(dp1
S'hash'
p2
NsS'name'
p3
S'msm_actuator_move_focus'
p4
sS'start_address'
p5
L18446743798839878708L
sS'flag'
p6
NsS'program'
p7
NsS'bbs'
p8
(lp9
(ibclass
BBasicBlock
p10
(dp11
S'function'
p12
NsS'binstrs'
p13
(lp14
(ibclass
BInstr
p15
(dp16
g2
NsS'disasm'
p17
S'STP             X29, X30, [SP,#-0x10+var_90]!'
p18
sS'bytes'
p19
S'fd7bb6a9'
p20
sS'disasm_striped'
p21
Vstp x29, x30, [sp, #-0xa0]!
p22
sg5
L18446743798839878708L
sg6
NsS'mnem'
p23
S'STP'
p24
sS'address'
p25
S'0xffffffc0007da434L'
p26
sS'basicblock'
p27
Nsba(ibclass
BInstr
p28
(dp29
g2
Nsg17
S'MOV             X29, SP'
p30
sg19
S'fd030091'
p31
sg21
Vmov x29, sp
p32
sg5
L18446743798839878712L
sg6
Nsg23
S'MOV'
p33
sg25
S'0xffffffc0007da438L'
p34
sg27
Nsba(ibclass
BInstr
p35
(dp36
g2
Nsg17
S'STP             X19, X20, [SP,#0x90+var_80]'
p37
sg19
S'f35301a9'
p38
sg21
Vstp x19, x20, [sp, #0x10]
p39
sg5
L18446743798839878716L
sg6
Nsg23
S'STP'
p40
sg25
S'0xffffffc0007da43cL'
p41
sg27
Nsba(ibclass
BInstr
p42
(dp43
g2
Nsg17
S'STP             X25, X26, [SP,#0x90+var_50]'
p44
sg19
S'f96b04a9'
p45
sg21
Vstp x25, x26, [sp, #0x40]
p46
sg5
L18446743798839878720L
sg6
Nsg23
S'STP'
p47
sg25
S'0xffffffc0007da440L'
p48
sg27
Nsba(ibclass
BInstr
p49
(dp50
g2
Nsg17
S'STP             X21, X22, [SP,#0x90+var_70]'
p51
sg19
S'f55b02a9'
p52
sg21
Vstp x21, x22, [sp, #0x20]
p53
sg5
L18446743798839878724L
sg6
Nsg23
S'STP'
p54
sg25
S'0xffffffc0007da444L'
p55
sg27
Nsba(ibclass
BInstr
p56
(dp57
g2
Nsg17
S'STP             X23, X24, [SP,#0x90+var_60]'
p58
sg19
S'f76303a9'
p59
sg21
Vstp x23, x24, [sp, #0x30]
p60
sg5
L18446743798839878728L
sg6
Nsg23
S'STP'
p61
sg25
S'0xffffffc0007da448L'
p62
sg27
Nsba(ibclass
BInstr
p63
(dp64
g2
Nsg17
S'STP             X27, X28, [SP,#0x90+var_40]'
p65
sg19
S'fb7305a9'
p66
sg21
Vstp x27, x28, [sp, #0x50]
p67
sg5
L18446743798839878732L
sg6
Nsg23
S'STP'
p68
sg25
S'0xffffffc0007da44cL'
p69
sg27
Nsba(ibclass
BInstr
p70
(dp71
g2
Nsg17
S'MOV             X25, X0'
p72
sg19
S'f90300aa'
p73
sg21
Vmov x25, x0
p74
sg5
L18446743798839878736L
sg6
Nsg23
S'MOV'
p75
sg25
S'0xffffffc0007da450L'
p76
sg27
Nsba(ibclass
BInstr
p77
(dp78
g2
Nsg17
S'LDR             X0, [X0,#0x290]'
p79
sg19
S'004841f9'
p80
sg21
Vldr x0, [x0, #0x290]
p81
sg5
L18446743798839878740L
sg6
Nsg23
S'LDR'
p82
sg25
S'0xffffffc0007da454L'
p83
sg27
Nsba(ibclass
BInstr
p84
(dp85
g2
Nsg17
S'MOV             X19, X1'
p86
sg19
S'f30301aa'
p87
sg21
Vmov x19, x1
p88
sg5
L18446743798839878744L
sg6
Nsg23
S'MOV'
p89
sg25
S'0xffffffc0007da458L'
p90
sg27
Nsba(ibclass
BInstr
p91
(dp92
g2
Nsg17
S'LDRSB           W21, [X1,#1]'
p93
sg19
S'3504c039'
p94
sg21
Vldrsb w21, [x1, #1]
p95
sg5
L18446743798839878748L
sg6
Nsg23
S'LDR'
p96
sg25
S'0xffffffc0007da45cL'
p97
sg27
Nsba(ibclass
BInstr
p98
(dp99
g2
Nsg17
S'LDRSH           W20, [X1,#2]'
p100
sg19
S'3404c079'
p101
sg21
Vldrsh w20, [x1, #2]
p102
sg5
L18446743798839878752L
sg6
Nsg23
S'LDR'
p103
sg25
S'0xffffffc0007da460L'
p104
sg27
Nsba(ibclass
BInstr
p105
(dp106
g2
Nsg17
S'LDRSB           W27, [X1]'
p107
sg19
S'3b00c039'
p108
sg21
Vldrsb w27, [x1]
p109
sg5
L18446743798839878756L
sg6
Nsg23
S'LDR'
p110
sg25
S'0xffffffc0007da464L'
p111
sg27
Nsba(ibclass
BInstr
p112
(dp113
g2
Nsg17
S'LDR             W5, [X1,#4]'
p114
sg19
S'250440b9'
p115
sg21
Vldr w5, [x1, #4]
p116
sg5
L18446743798839878760L
sg6
Nsg23
S'LDR'
p117
sg25
S'0xffffffc0007da468L'
p118
sg27
Nsba(ibclass
BInstr
p119
(dp120
g2
Nsg17
S'CBNZ            X0, loc_FFFFFFC0007DA494'
p121
sg19
S'400100b5'
p122
sg21
Vcbnz x0, #0x28
p123
sg5
L18446743798839878764L
sg6
Nsg23
S'CBNZ'
p124
sg25
S'0xffffffc0007da46cL'
p125
sg27
NsbasS'disasm_list'
p126
(lp127
S'STP reg9, reg0, mem!'
p128
aS'MOV reg9, SP'
p129
aS'STP reg9, reg0, mem'
p130
aS'STP reg5, reg6, mem'
p131
aS'STP reg1, reg2, mem'
p132
aS'STP reg3, reg4, mem'
p133
aS'STP reg7, reg8, mem'
p134
aS'MOV reg5, reg'
p135
aS'LDR reg, mem'
p136
aS'MOV reg9, reg'
p137
aS'LDRSB reg1, mem'
p138
aS'LDRSH reg0, mem'
p139
aS'LDRSB reg7, mem'
p140
aS'LDR reg, mem'
p141
aS'CBNZ reg, func'
p142
asS'end_address'
p143
Nsg5
S'0xffffffc0007da434L'
p144
sS'preds'
p145
(lp146
sg6
NsS'succs'
p147
(lp148
S'0xffffffc0007da470L'
p149
aS'0xffffffc0007da494L'
p150
asS'hash_v3'
p151
NsS'flag_v2'
p152
NsS'hash_v1'
p153
S'f94aa9f6c6279db97a6b3fbd3d9251b4'
p154
sS'hash_v2'
p155
S'1d8cf4ad04872ac2c4b0a69263bee061'
p156
sS'mnen_list'
p157
(lp158
g24
ag33
ag40
ag47
ag54
ag61
ag68
ag75
ag82
ag89
ag96
ag103
ag110
ag117
ag124
asS'neighbour_disasm_list'
p159
Nsba(ibclass
BBasicBlock
p160
(dp161
g12
Nsg13
(lp162
(ibclass
BInstr
p163
(dp164
g2
Nsg17
S'ADRP            X1, #__func__.27950_0@PAGE; "msm_actuator_bivcm_set_position"'
p165
sg19
S'814300d0'
p166
sg21
Vadrp x1, #0x872000
p167
sg5
L18446743798839878768L
sg6
Nsg23
S'ADRP'
p168
sg25
S'0xffffffc0007da470L'
p169
sg27
Nsba(ibclass
BInstr
p170
(dp171
g2
Nsg17
S'ADRP            X0, #unk_FFFFFFC0013C7582@PAGE'
p172
sg19
S'605f00b0'
p173
sg21
Vadrp x0, #0xbed000
p174
sg5
L18446743798839878772L
sg6
Nsg23
S'ADRP'
p175
sg25
S'0xffffffc0007da474L'
p176
sg27
Nsba(ibclass
BInstr
p177
(dp178
g2
Nsg17
S'ADD             X1, X1, #__func__.27950_0@PAGEOFF; "msm_actuator_bivcm_set_position"'
p179
sg19
S'21c01291'
p180
sg21
Vadd x1, x1, #0x4b0
p181
sg5
L18446743798839878776L
sg6
Nsg23
S'ADD'
p182
sg25
S'0xffffffc0007da478L'
p183
sg27
Nsba(ibclass
BInstr
p184
(dp185
g2
Nsg17
S'ADD             X0, X0, #unk_FFFFFFC0013C7582@PAGEOFF'
p186
sg19
S'00081691'
p187
sg21
Vadd x0, x0, #0x582
p188
sg5
L18446743798839878780L
sg6
Nsg23
S'ADD'
p189
sg25
S'0xffffffc0007da47cL'
p190
sg27
Nsba(ibclass
BInstr
p191
(dp192
g2
Nsg17
S'ADD             X1, X1, #0x78'
p193
sg19
S'21e00191'
p194
sg21
Vadd x1, x1, #0x78
p195
sg5
L18446743798839878784L
sg6
Nsg23
S'ADD'
p196
sg25
S'0xffffffc0007da480L'
p197
sg27
Nsba(ibclass
BInstr
p198
(dp199
g2
Nsg17
S'MOV             W2, #0x221'
p200
sg19
S'22448052'
p201
sg21
Vmovz w2, #0x221
p202
sg5
L18446743798839878788L
sg6
Nsg23
S'MOV'
p203
sg25
S'0xffffffc0007da484L'
p204
sg27
Nsba(ibclass
BInstr
p205
(dp206
g2
Nsg17
S'BL              printk'
p207
sg19
S'3b4b1994'
p208
sg21
Vbl #0x652cec
p209
sg5
L18446743798839878792L
sg6
Nsg23
S'BL'
p210
sg25
S'0xffffffc0007da488L'
p211
sg27
Nsba(ibclass
BInstr
p212
(dp213
g2
Nsg17
S'MOV             W19, #0xFFFFFFF2'
p214
sg19
S'b3018012'
p215
sg21
Vmovn w19, #0xd
p216
sg5
L18446743798839878796L
sg6
Nsg23
S'MOV'
p217
sg25
S'0xffffffc0007da48cL'
p218
sg27
Nsba(ibclass
BInstr
p219
(dp220
g2
Nsg17
S'B               loc_FFFFFFC0007DA684'
p221
sg19
S'7d000014'
p222
sg21
Vb #0x1f4
p223
sg5
L18446743798839878800L
sg6
Nsg23
S'B'
p224
sg25
S'0xffffffc0007da490L'
p225
sg27
Nsbasg126
(lp226
S'ADRP reg, #__func__.27950_0@PAGE'
p227
aS'ADRP reg, #func@PAGE'
p228
aS'ADD reg, reg, #__func__.27950_0@PAGEOFF'
p229
aS'ADD reg, reg, #func@PAGEOFF'
p230
aS'ADD reg, reg, #0x78'
p231
aS'MOV reg, #0x221'
p232
aS'BL printk'
p233
aS'MOV reg9, #0xFFFFFFF2'
p234
aS'B func'
p235
asg143
Nsg5
S'0xffffffc0007da470L'
p236
sg145
(lp237
S'0xffffffc0007da434L'
p238
asg6
Nsg147
(lp239
S'0xffffffc0007da684L'
p240
asg151
Nsg152
Nsg153
S'522c3c0e6de122270d6ac2790e6e001d'
p241
sg155
S'9da4e10c0b5027fe322e9b26af8c5fb6'
p242
sg157
(lp243
g168
ag175
ag182
ag189
ag196
ag203
ag210
ag217
ag224
asg159
Nsba(ibclass
BBasicBlock
p244
(dp245
g12
Nsg13
(lp246
(ibclass
BInstr
p247
(dp248
g2
Nsg17
S'ADRP            X22, #descriptor.27751@PAGE'
p249
sg19
S'768600d0'
p250
sg21
Vadrp x22, #0x10ce000
p251
sg5
L18446743798839878804L
sg6
Nsg23
S'ADRP'
p252
sg25
S'0xffffffc0007da494L'
p253
sg27
Nsba(ibclass
BInstr
p254
(dp255
g2
Nsg17
S'ADD             X0, X22, #descriptor.27751@PAGEOFF'
p256
sg19
S'c0622791'
p257
sg21
Vadd x0, x22, #0x9d8
p258
sg5
L18446743798839878808L
sg6
Nsg23
S'ADD'
p259
sg25
S'0xffffffc0007da498L'
p260
sg27
Nsba(ibclass
BInstr
p261
(dp262
g2
Nsg17
S'ADD             X0, X0, #0x280'
p263
sg19
S'00000a91'
p264
sg21
Vadd x0, x0, #0x280
p265
sg5
L18446743798839878812L
sg6
Nsg23
S'ADD'
p266
sg25
S'0xffffffc0007da49cL'
p267
sg27
Nsba(ibclass
BInstr
p268
(dp269
g2
Nsg17
S'LDRH            W1, [X0,#(word_FFFFFFC0018A8C7A - 0xFFFFFFC0018A8C58)]'
p270
sg19
S'01444079'
p271
sg21
Vldrh w1, [x0, #0x22]
p272
sg5
L18446743798839878816L
sg6
Nsg23
S'LDR'
p273
sg25
S'0xffffffc0007da4a0L'
p274
sg27
Nsba(ibclass
BInstr
p275
(dp276
g2
Nsg17
S'TBZ             W1, #2, loc_FFFFFFC0007DA4C8'
p277
sg19
S'21011036'
p278
sg21
Vtbz w1, #2, #0x24
p279
sg5
L18446743798839878820L
sg6
Nsg23
S'TBZ'
p280
sg25
S'0xffffffc0007da4a4L'
p281
sg27
Nsbasg126
(lp282
S'ADRP reg2, #descriptor.27751@PAGE'
p283
aS'ADD reg, reg2, #descriptor.27751@PAGEOFF'
p284
aS'ADD reg, reg, #0x280'
p285
aS'LDRH reg, mem'
p286
aS'TBZ reg, #2, func'
p287
asg143
Nsg5
S'0xffffffc0007da494L'
p288
sg145
(lp289
S'0xffffffc0007da434L'
p290
asg6
Nsg147
(lp291
S'0xffffffc0007da4a8L'
p292
aS'0xffffffc0007da4c8L'
p293
asg151
Nsg152
Nsg153
S'6587a2c05df004845eaae6fa4bb61607'
p294
sg155
S'a89c71565d63b16662785dcd9a876a9a'
p295
sg157
(lp296
g252
ag259
ag266
ag273
ag280
asg159
Nsba(ibclass
BBasicBlock
p297
(dp298
g12
Nsg13
(lp299
(ibclass
BInstr
p300
(dp301
g2
Nsg17
S'ADRP            X2, #__func__.27950_0@PAGE; "msm_actuator_bivcm_set_position"'
p302
sg19
S'824300d0'
p303
sg21
Vadrp x2, #0x872000
p304
sg5
L18446743798839878824L
sg6
Nsg23
S'ADRP'
p305
sg25
S'0xffffffc0007da4a8L'
p306
sg27
Nsba(ibclass
BInstr
p307
(dp308
g2
Nsg17
S'ADRP            X1, #aSDCalledDirDNu@PAGE; "%s:%d called, dir %d, num_steps %d\\n"'
p309
sg19
S'615f00b0'
p310
sg21
Vadrp x1, #0xbed000
p311
sg5
L18446743798839878828L
sg6
Nsg23
S'ADRP'
p312
sg25
S'0xffffffc0007da4acL'
p313
sg27
Nsba(ibclass
BInstr
p314
(dp315
g2
Nsg17
S'ADD             X2, X2, #__func__.27950_0@PAGEOFF; "msm_actuator_bivcm_set_position"'
p316
sg19
S'42c01291'
p317
sg21
Vadd x2, x2, #0x4b0
p318
sg5
L18446743798839878832L
sg6
Nsg23
S'ADD'
p319
sg25
S'0xffffffc0007da4b0L'
p320
sg27
Nsba(ibclass
BInstr
p321
(dp322
g2
Nsg17
S'ADD             X1, X1, #aSDCalledDirDNu@PAGEOFF; "%s:%d called, dir %d, num_steps %d\\n"'
p323
sg19
S'21981691'
p324
sg21
Vadd x1, x1, #0x5a6
p325
sg5
L18446743798839878836L
sg6
Nsg23
S'ADD'
p326
sg25
S'0xffffffc0007da4b4L'
p327
sg27
Nsba(ibclass
BInstr
p328
(dp329
g2
Nsg17
S'ADD             X2, X2, #0x78'
p330
sg19
S'42e00191'
p331
sg21
Vadd x2, x2, #0x78
p332
sg5
L18446743798839878840L
sg6
Nsg23
S'ADD'
p333
sg25
S'0xffffffc0007da4b8L'
p334
sg27
Nsba(ibclass
BInstr
p335
(dp336
g2
Nsg17
S'MOV             W3, #0x227'
p337
sg19
S'e3448052'
p338
sg21
Vmovz w3, #0x227
p339
sg5
L18446743798839878844L
sg6
Nsg23
S'MOV'
p340
sg25
S'0xffffffc0007da4bcL'
p341
sg27
Nsba(ibclass
BInstr
p342
(dp343
g2
Nsg17
S'MOV             W4, W27'
p344
sg19
S'e4031b2a'
p345
sg21
Vmov w4, w27
p346
sg5
L18446743798839878848L
sg6
Nsg23
S'MOV'
p347
sg25
S'0xffffffc0007da4c0L'
p348
sg27
Nsba(ibclass
BInstr
p349
(dp350
g2
Nsg17
S'BL              __dynamic_pr_debug'
p351
sg19
S'398ff197'
p352
sg21
Vbl #0xffffffffffc63ce4
p353
sg5
L18446743798839878852L
sg6
Nsg23
S'BL'
p354
sg25
S'0xffffffc0007da4c4L'
p355
sg27
Nsbasg126
(lp356
S'ADRP reg, #__func__.27950_0@PAGE'
p357
aS'ADRP reg, #aSDCalledDirDNu@PAGE'
p358
aS'ADD reg, reg, #__func__.27950_0@PAGEOFF'
p359
aS'ADD reg, reg, #aSDCalledDirDNu@PAGEOFF'
p360
aS'ADD reg, reg, #0x78'
p361
aS'MOV reg, #0x227'
p362
aS'MOV reg, reg7'
p363
aS'BL __dynamic_pr_debug'
p364
asg143
Nsg5
S'0xffffffc0007da4a8L'
p365
sg145
(lp366
S'0xffffffc0007da494L'
p367
asg6
Nsg147
(lp368
S'0xffffffc0007da4c8L'
p369
asg151
Nsg152
Nsg153
S'304d16e2ee7ab520d9597ca3e9d9055a'
p370
sg155
S'ec127258f28effa07adb5f0b85a4d72b'
p371
sg157
(lp372
g305
ag312
ag319
ag326
ag333
ag340
ag347
ag354
asg159
Nsba(ibclass
BBasicBlock
p373
(dp374
g12
Nsg13
(lp375
(ibclass
BInstr
p376
(dp377
g2
Nsg17
S'LDRSH           W4, [X25,#0x288]'
p378
sg19
S'2413c579'
p379
sg21
Vldrsh w4, [x25, #0x288]
p380
sg5
L18446743798839878856L
sg6
Nsg23
S'LDR'
p381
sg25
S'0xffffffc0007da4c8L'
p382
sg27
Nsba(ibclass
BInstr
p383
(dp384
g2
Nsg17
S'CMP             W20, W4'
p385
sg19
S'9f02046b'
p386
sg21
Vcmp w20, w4
p387
sg5
L18446743798839878860L
sg6
Nsg23
S'CMP'
p388
sg25
S'0xffffffc0007da4ccL'
p389
sg27
Nsba(ibclass
BInstr
p390
(dp391
g2
Nsg17
S'B.EQ            loc_FFFFFFC0007DA680'
p392
sg19
S'800d0054'
p393
sg21
Vb.eq #0x1b0
p394
sg5
L18446743798839878864L
sg6
Nsg23
g224
sg25
S'0xffffffc0007da4d0L'
p395
sg27
Nsbasg126
(lp396
S'LDRSH reg, mem'
p397
aS'CMP reg0, reg'
p398
aS'B.EQ func'
p399
asg143
Nsg5
S'0xffffffc0007da4c8L'
p400
sg145
(lp401
S'0xffffffc0007da494L'
p402
aS'0xffffffc0007da4a8L'
p403
asg6
Nsg147
(lp404
S'0xffffffc0007da4d4L'
p405
aS'0xffffffc0007da680L'
p406
asg151
Nsg152
Nsg153
S'fa4df767a85c49648339e2dc5c6807f6'
p407
sg155
S'066d9c3687d3cf6a97c51d5b8a0e0b0c'
p408
sg157
(lp409
g381
ag388
ag224
asg159
Nsba(ibclass
BBasicBlock
p410
(dp411
g12
Nsg13
(lp412
(ibclass
BInstr
p413
(dp414
g2
Nsg17
S'LDR             X0, [X25,#0x290]'
p415
sg19
S'204b41f9'
p416
sg21
Vldr x0, [x25, #0x290]
p417
sg5
L18446743798839878868L
sg6
Nsg23
S'LDR'
p418
sg25
S'0xffffffc0007da4d4L'
p419
sg27
Nsba(ibclass
BInstr
p420
(dp421
g2
Nsg17
S'LDRH            W8, [X0,W4,SXTW#1]'
p422
sg19
S'08d86478'
p423
sg21
Vldrh w8, [x0, w4, sxtw #1]
p424
sg5
L18446743798839878872L
sg6
Nsg23
S'LDR'
p425
sg25
S'0xffffffc0007da4d8L'
p426
sg27
Nsba(ibclass
BInstr
p427
(dp428
g2
Nsg17
S'ADD             X0, X22, #descriptor.27751@PAGEOFF'
p429
sg19
S'c0622791'
p430
sg21
Vadd x0, x22, #0x9d8
p431
sg5
L18446743798839878876L
sg6
Nsg23
S'ADD'
p432
sg25
S'0xffffffc0007da4dcL'
p433
sg27
Nsba(ibclass
BInstr
p434
(dp435
g2
Nsg17
S'ADD             X0, X0, #0x2A8'
p436
sg19
S'00a00a91'
p437
sg21
Vadd x0, x0, #0x2a8
p438
sg5
L18446743798839878880L
sg6
Nsg23
S'ADD'
p439
sg25
S'0xffffffc0007da4e0L'
p440
sg27
Nsba(ibclass
BInstr
p441
(dp442
g2
Nsg17
S'LDRH            W1, [X0,#(word_FFFFFFC0018A8CA2 - 0xFFFFFFC0018A8C80)]'
p443
sg19
S'01444079'
p444
sg21
Vldrh w1, [x0, #0x22]
p445
sg5
L18446743798839878884L
sg6
Nsg23
S'LDR'
p446
sg25
S'0xffffffc0007da4e4L'
p447
sg27
Nsba(ibclass
BInstr
p448
(dp449
g2
Nsg17
S'STRH            WZR, [X25,#0x3B8]'
p450
sg19
S'3f730779'
p451
sg21
Vstrh wzr, [x25, #0x3b8]
p452
sg5
L18446743798839878888L
sg6
Nsg23
S'STR'
p453
sg25
S'0xffffffc0007da4e8L'
p454
sg27
Nsba(ibclass
BInstr
p455
(dp456
g2
Nsg17
S'TBZ             W1, #2, loc_FFFFFFC0007DA51C'
p457
sg19
S'81011036'
p458
sg21
Vtbz w1, #2, #0x30
p459
sg5
L18446743798839878892L
sg6
Nsg23
S'TBZ'
p460
sg25
S'0xffffffc0007da4ecL'
p461
sg27
Nsbasg126
(lp462
S'LDR reg, mem'
p463
aS'LDRH reg, mem'
p464
aS'ADD reg, reg2, #descriptor.27751@PAGEOFF'
p465
aS'ADD reg, reg, #0x2A8'
p466
aS'LDRH reg, mem'
p467
aS'STRH WZR, mem'
p468
aS'TBZ reg, #2, func'
p469
asg143
Nsg5
S'0xffffffc0007da4d4L'
p470
sg145
(lp471
S'0xffffffc0007da4c8L'
p472
asg6
Nsg147
(lp473
S'0xffffffc0007da4f0L'
p474
aS'0xffffffc0007da51cL'
p475
asg151
Nsg152
Nsg153
S'780c361c5427118a85b09f25342734b4'
p476
sg155
S'3e6f50a8aa86676530f745d8a4fd9387'
p477
sg157
(lp478
g418
ag425
ag432
ag439
ag446
ag453
ag460
asg159
Nsba(ibclass
BBasicBlock
p479
(dp480
g12
Nsg13
(lp481
(ibclass
BInstr
p482
(dp483
g2
Nsg17
S'ADRP            X2, #__func__.27950_0@PAGE; "msm_actuator_bivcm_set_position"'
p484
sg19
S'824300d0'
p485
sg21
Vadrp x2, #0x872000
p486
sg5
L18446743798839878896L
sg6
Nsg23
S'ADRP'
p487
sg25
S'0xffffffc0007da4f0L'
p488
sg27
Nsba(ibclass
BInstr
p489
(dp490
g2
Nsg17
S'ADRP            X1, #aSDCurr_step_po@PAGE; "%s:%d curr_step_pos =%d dest_step_pos ="...'
p491
sg19
S'615f00b0'
p492
sg21
Vadrp x1, #0xbed000
p493
sg5
L18446743798839878900L
sg6
Nsg23
S'ADRP'
p494
sg25
S'0xffffffc0007da4f4L'
p495
sg27
Nsba(ibclass
BInstr
p496
(dp497
g2
Nsg17
S'ADD             X2, X2, #__func__.27950_0@PAGEOFF; "msm_actuator_bivcm_set_position"'
p498
sg19
S'42c01291'
p499
sg21
Vadd x2, x2, #0x4b0
p500
sg5
L18446743798839878904L
sg6
Nsg23
S'ADD'
p501
sg25
S'0xffffffc0007da4f8L'
p502
sg27
Nsba(ibclass
BInstr
p503
(dp504
g2
Nsg17
S'MOV             W6, W8'
p505
sg19
S'e603082a'
p506
sg21
Vmov w6, w8
p507
sg5
L18446743798839878908L
sg6
Nsg23
S'MOV'
p508
sg25
S'0xffffffc0007da4fcL'
p509
sg27
Nsba(ibclass
BInstr
p510
(dp511
g2
Nsg17
S'ADD             X1, X1, #aSDCurr_step_po@PAGEOFF; "%s:%d curr_step_pos =%d dest_step_pos ="...'
p512
sg19
S'21281791'
p513
sg21
Vadd x1, x1, #0x5ca
p514
sg5
L18446743798839878912L
sg6
Nsg23
S'ADD'
p515
sg25
S'0xffffffc0007da500L'
p516
sg27
Nsba(ibclass
BInstr
p517
(dp518
g2
Nsg17
S'ADD             X2, X2, #0x78'
p519
sg19
S'42e00191'
p520
sg21
Vadd x2, x2, #0x78
p521
sg5
L18446743798839878916L
sg6
Nsg23
S'ADD'
p522
sg25
S'0xffffffc0007da504L'
p523
sg27
Nsba(ibclass
BInstr
p524
(dp525
g2
Nsg17
S'MOV             W3, #0x230'
p526
sg19
S'03468052'
p527
sg21
Vmovz w3, #0x230
p528
sg5
L18446743798839878920L
sg6
Nsg23
S'MOV'
p529
sg25
S'0xffffffc0007da508L'
p530
sg27
Nsba(ibclass
BInstr
p531
(dp532
g2
Nsg17
S'MOV             W5, W20'
p533
sg19
S'e503142a'
p534
sg21
Vmov w5, w20
p535
sg5
L18446743798839878924L
sg6
Nsg23
S'MOV'
p536
sg25
S'0xffffffc0007da50cL'
p537
sg27
Nsba(ibclass
BInstr
p538
(dp539
g2
Nsg17
S'STR             X8, [X29,#arg_80]'
p540
sg19
S'a84b00f9'
p541
sg21
Vstr x8, [x29, #0x90]
p542
sg5
L18446743798839878928L
sg6
Nsg23
S'STR'
p543
sg25
S'0xffffffc0007da510L'
p544
sg27
Nsba(ibclass
BInstr
p545
(dp546
g2
Nsg17
S'BL              __dynamic_pr_debug'
p547
sg19
S'258ff197'
p548
sg21
Vbl #0xffffffffffc63c94
p549
sg5
L18446743798839878932L
sg6
Nsg23
S'BL'
p550
sg25
S'0xffffffc0007da514L'
p551
sg27
Nsba(ibclass
BInstr
p552
(dp553
g2
Nsg17
S'LDR             X8, [X29,#arg_80]'
p554
sg19
S'a84b40f9'
p555
sg21
Vldr x8, [x29, #0x90]
p556
sg5
L18446743798839878936L
sg6
Nsg23
S'LDR'
p557
sg25
S'0xffffffc0007da518L'
p558
sg27
Nsbasg126
(lp559
S'ADRP reg, #__func__.27950_0@PAGE'
p560
aS'ADRP reg, #aSDCurr_step_po@PAGE'
p561
aS'ADD reg, reg, #__func__.27950_0@PAGEOFF'
p562
aS'MOV reg, reg'
p563
aS'ADD reg, reg, #aSDCurr_step_po@PAGEOFF'
p564
aS'ADD reg, reg, #0x78'
p565
aS'MOV reg, #0x230'
p566
aS'MOV reg, reg0'
p567
aS'STR reg, mem'
p568
aS'BL __dynamic_pr_debug'
p569
aS'LDR reg, mem'
p570
asg143
Nsg5
S'0xffffffc0007da4f0L'
p571
sg145
(lp572
S'0xffffffc0007da4d4L'
p573
asg6
Nsg147
(lp574
S'0xffffffc0007da51cL'
p575
asg151
Nsg152
Nsg153
S'002148da8c5ece78552dc8d2c85ec8a9'
p576
sg155
S'513a1dcd94e4d5c1b80f5809359d9303'
p577
sg157
(lp578
g487
ag494
ag501
ag508
ag515
ag522
ag529
ag536
ag543
ag550
ag557
asg159
Nsba(ibclass
BBasicBlock
p579
(dp580
g12
Nsg13
(lp581
(ibclass
BInstr
p582
(dp583
g2
Nsg17
S'UBFM            W23, W20, #0, #0xF'
p584
sg19
S'973e0053'
p585
sg21
Vuxth w23, w20
p586
sg5
L18446743798839878940L
sg6
Nsg23
S'UBFM'
p587
sg25
S'0xffffffc0007da51cL'
p588
sg27
Nsba(ibclass
BInstr
p589
(dp590
g2
Nsg17
S'MADD            W4, W20, W21, WZR'
p591
sg19
S'847e151b'
p592
sg21
Vmul w4, w20, w21
p593
sg5
L18446743798839878944L
sg6
Nsg23
S'MADD'
p594
sg25
S'0xffffffc0007da520L'
p595
sg27
Nsba(ibclass
BInstr
p596
(dp597
g2
Nsg17
S'UBFM            X0, X23, #0x3F, #0xF'
p598
sg19
S'e03e7fd3'
p599
sg21
Vubfiz x0, x23, #1, #0x10
p600
sg5
L18446743798839878948L
sg6
Nsg23
S'UBFM'
p601
sg25
S'0xffffffc0007da524L'
p602
sg27
Nsba(ibclass
BInstr
p603
(dp604
g2
Nsg17
S'STR             W4, [X29,#arg_70]'
p605
sg19
S'a48300b9'
p606
sg21
Vstr w4, [x29, #0x80]
p607
sg5
L18446743798839878952L
sg6
Nsg23
S'STR'
p608
sg25
S'0xffffffc0007da528L'
p609
sg27
Nsba(ibclass
BInstr
p610
(dp611
g2
Nsg17
S'STR             X0, [X29,#arg_78]'
p612
sg19
S'a04700f9'
p613
sg21
Vstr x0, [x29, #0x88]
p614
sg5
L18446743798839878956L
sg6
Nsg23
S'STR'
p615
sg25
S'0xffffffc0007da52cL'
p616
sg27
Nsba(ibclass
BInstr
p617
(dp618
g2
Nsg17
S'SBFM            X27, X27, #0, #0x1F'
p619
sg19
S'7b7f4093'
p620
sg21
Vsxtw x27, w27
p621
sg5
L18446743798839878960L
sg6
Nsg23
S'SBFM'
p622
sg25
S'0xffffffc0007da530L'
p623
sg27
Nsba(ibclass
BInstr
p624
(dp625
g2
Nsg17
S'MOV             X28, #6'
p626
sg19
S'dc0080d2'
p627
sg21
Vmovz x28, #0x6
p628
sg5
L18446743798839878964L
sg6
Nsg23
S'MOV'
p629
sg25
S'0xffffffc0007da534L'
p630
sg27
Nsba(ibclass
BInstr
p631
(dp632
g2
Nsg17
S'MOV             W24, #0xC'
p633
sg19
S'98018052'
p634
sg21
Vmovz w24, #0xc
p635
sg5
L18446743798839878968L
sg6
Nsg23
S'MOV'
p636
sg25
S'0xffffffc0007da538L'
p637
sg27
Nsbasg126
(lp638
S'UBFM reg3, reg0, #0, #0xF'
p639
aS'MADD reg, reg0, reg1, WZR'
p640
aS'UBFM reg, reg3, #0x3F, #0xF'
p641
aS'STR reg, mem'
p642
aS'STR reg, mem'
p643
aS'SBFM reg7, reg7, #0, #0x1F'
p644
aS'MOV reg8, #6'
p645
aS'MOV reg4, #0xC'
p646
asg143
Nsg5
S'0xffffffc0007da51cL'
p647
sg145
(lp648
S'0xffffffc0007da4d4L'
p649
aS'0xffffffc0007da4f0L'
p650
asg6
Nsg147
(lp651
S'0xffffffc0007da53cL'
p652
asg151
Nsg152
Nsg153
S'e8672d147d8fc7cc5ac48764ccbd7e9a'
p653
sg155
S'3dacd9b019173f0e89a368073a1d2c25'
p654
sg157
(lp655
g587
ag594
ag601
ag608
ag615
ag622
ag629
ag636
asg159
Nsba(ibclass
BBasicBlock
p656
(dp657
g12
Nsg13
(lp658
(ibclass
BInstr
p659
(dp660
g2
Nsg17
S'LDRSH           W0, [X25,#0x288]'
p661
sg19
S'2013c579'
p662
sg21
Vldrsh w0, [x25, #0x288]
p663
sg5
L18446743798839878972L
sg6
Nsg23
S'LDR'
p664
sg25
S'0xffffffc0007da53cL'
p665
sg27
Nsba(ibclass
BInstr
p666
(dp667
g2
Nsg17
S'CMP             W0, W20'
p668
sg19
S'1f00146b'
p669
sg21
Vcmp w0, w20
p670
sg5
L18446743798839878976L
sg6
Nsg23
S'CMP'
p671
sg25
S'0xffffffc0007da540L'
p672
sg27
Nsba(ibclass
BInstr
p673
(dp674
g2
Nsg17
S'B.EQ            loc_FFFFFFC0007DA5F0'
p675
sg19
S'60050054'
p676
sg21
Vb.eq #0xac
p677
sg5
L18446743798839878980L
sg6
Nsg23
g224
sg25
S'0xffffffc0007da544L'
p678
sg27
Nsbasg126
(lp679
S'LDRSH reg, mem'
p680
aS'CMP reg, reg0'
p681
aS'B.EQ func'
p682
asg143
Nsg5
S'0xffffffc0007da53cL'
p683
sg145
(lp684
S'0xffffffc0007da51cL'
p685
aS'0xffffffc0007da5e4L'
p686
asg6
Nsg147
(lp687
S'0xffffffc0007da548L'
p688
aS'0xffffffc0007da5f0L'
p689
asg151
Nsg152
Nsg153
S'fa4df767a85c49648339e2dc5c6807f6'
p690
sg155
S'89b57c818d203044bea83f152a08cb69'
p691
sg157
(lp692
g664
ag671
ag224
asg159
Nsba(ibclass
BBasicBlock
p693
(dp694
g12
Nsg13
(lp695
(ibclass
BInstr
p696
(dp697
g2
Nsg17
S'LDRH            W0, [X25,#0x28A]'
p698
sg19
S'20174579'
p699
sg21
Vldrh w0, [x25, #0x28a]
p700
sg5
L18446743798839878984L
sg6
Nsg23
S'LDR'
p701
sg25
S'0xffffffc0007da548L'
p702
sg27
Nsba(ibclass
BInstr
p703
(dp704
g2
Nsg17
S'LDR             W2, [X29,#arg_70]'
p705
sg19
S'a28340b9'
p706
sg21
Vldr w2, [x29, #0x80]
p707
sg5
L18446743798839878988L
sg6
Nsg23
S'LDR'
p708
sg25
S'0xffffffc0007da54cL'
p709
sg27
Nsba(ibclass
BInstr
p710
(dp711
g2
Nsg17
S'SBFM            X1, X0, #0, #0x1F'
p712
sg19
S'017c4093'
p713
sg21
Vsxtw x1, w0
p714
sg5
L18446743798839878992L
sg6
Nsg23
S'SBFM'
p715
sg25
S'0xffffffc0007da550L'
p716
sg27
Nsba(ibclass
BInstr
p717
(dp718
g2
Nsg17
S'MADD            X1, X1, X28, X27'
p719
sg19
S'216c1c9b'
p720
sg21
Vmadd x1, x1, x28, x27
p721
sg5
L18446743798839878996L
sg6
Nsg23
S'MADD'
p722
sg25
S'0xffffffc0007da554L'
p723
sg27
Nsba(ibclass
BInstr
p724
(dp725
g2
Nsg17
S'ADD             X1, X25, X1,LSL#1'
p726
sg19
S'2107018b'
p727
sg21
Vadd x1, x25, x1, lsl #1
p728
sg5
L18446743798839879000L
sg6
Nsg23
S'ADD'
p729
sg25
S'0xffffffc0007da558L'
p730
sg27
Nsba(ibclass
BInstr
p731
(dp732
g2
Nsg17
S'LDRH            W6, [X1,#0x298]'
p733
sg19
S'26304579'
p734
sg21
Vldrh w6, [x1, #0x298]
p735
sg5
L18446743798839879004L
sg6
Nsg23
S'LDR'
p736
sg25
S'0xffffffc0007da55cL'
p737
sg27
Nsba(ibclass
BInstr
p738
(dp739
g2
Nsg17
S'LDR             X3, [X25,#0x290]'
p740
sg19
S'234b41f9'
p741
sg21
Vldr x3, [x25, #0x290]
p742
sg5
L18446743798839879008L
sg6
Nsg23
S'LDR'
p743
sg25
S'0xffffffc0007da560L'
p744
sg27
Nsba(ibclass
BInstr
p745
(dp746
g2
Nsg17
S'MADD            W1, W6, W21, WZR'
p747
sg19
S'c17c151b'
p748
sg21
Vmul w1, w6, w21
p749
sg5
L18446743798839879012L
sg6
Nsg23
S'MADD'
p750
sg25
S'0xffffffc0007da564L'
p751
sg27
Nsba(ibclass
BInstr
p752
(dp753
g2
Nsg17
S'CMP             W2, W1'
p754
sg19
S'5f00016b'
p755
sg21
Vcmp w2, w1
p756
sg5
L18446743798839879016L
sg6
Nsg23
S'CMP'
p757
sg25
S'0xffffffc0007da568L'
p758
sg27
Nsba(ibclass
BInstr
p759
(dp760
g2
Nsg17
S'LDR             X1, [X25,#0x170]'
p761
sg19
S'21bb40f9'
p762
sg21
Vldr x1, [x25, #0x170]
p763
sg5
L18446743798839879020L
sg6
Nsg23
S'LDR'
p764
sg25
S'0xffffffc0007da56cL'
p765
sg27
Nsba(ibclass
BInstr
p766
(dp767
g2
Nsg17
S'LDR             X2, [X19,#0x10]'
p768
sg19
S'620a40f9'
p769
sg21
Vldr x2, [x19, #0x10]
p770
sg5
L18446743798839879024L
sg6
Nsg23
S'LDR'
p771
sg25
S'0xffffffc0007da570L'
p772
sg27
Nsba(ibclass
BInstr
p773
(dp774
g2
Nsg17
S'B.GT            loc_FFFFFFC0007DA5A8'
p775
sg19
S'ac010054'
p776
sg21
Vb.gt #0x34
p777
sg5
L18446743798839879028L
sg6
Nsg23
g224
sg25
S'0xffffffc0007da574L'
p778
sg27
Nsbasg126
(lp779
S'LDRH reg, mem'
p780
aS'LDR reg, mem'
p781
aS'SBFM reg, reg, #0, #0x1F'
p782
aS'MADD reg, reg, reg8, reg7'
p783
aS'ADD reg, reg5, reg,LSL#1'
p784
aS'LDRH reg, mem'
p785
aS'LDR reg, mem'
p786
aS'MADD reg, reg, reg1, WZR'
p787
aS'CMP reg, reg'
p788
aS'LDR reg, mem'
p789
aS'LDR reg, mem'
p790
aS'B.GT func'
p791
asg143
Nsg5
S'0xffffffc0007da548L'
p792
sg145
(lp793
S'0xffffffc0007da53cL'
p794
asg6
Nsg147
(lp795
S'0xffffffc0007da578L'
p796
aS'0xffffffc0007da5a8L'
p797
asg151
Nsg152
Nsg153
S'0fe3d7e063f7561e5d68e91a71d20c4c'
p798
sg155
S'aa04516382a5f78c07937fe7e4430f26'
p799
sg157
(lp800
g701
ag708
ag715
ag722
ag729
ag736
ag743
ag750
ag757
ag764
ag771
ag224
asg159
Nsba(ibclass
BBasicBlock
p801
(dp802
g12
Nsg13
(lp803
(ibclass
BInstr
p804
(dp805
g2
Nsg17
S'LDR             X4, [X29,#arg_78]'
p806
sg19
S'a44740f9'
p807
sg21
Vldr x4, [x29, #0x88]
p808
sg5
L18446743798839879032L
sg6
Nsg23
S'LDR'
p809
sg25
S'0xffffffc0007da578L'
p810
sg27
Nsba(ibclass
BInstr
p811
(dp812
g2
Nsg17
S'LDR             X6, [X1,#0x30]'
p813
sg19
S'261840f9'
p814
sg21
Vldr x6, [x1, #0x30]
p815
sg5
L18446743798839879036L
sg6
Nsg23
S'LDR'
p816
sg25
S'0xffffffc0007da57cL'
p817
sg27
Nsba(ibclass
BInstr
p818
(dp819
g2
Nsg17
S'LDRH            W26, [X3,X4]'
p820
sg19
S'7a686478'
p821
sg21
Vldrh w26, [x3, x4]
p822
sg5
L18446743798839879040L
sg6
Nsg23
S'LDR'
p823
sg25
S'0xffffffc0007da580L'
p824
sg27
Nsba(ibclass
BInstr
p825
(dp826
g2
Nsg17
S'UMADDL          X3, W0, W24, XZR'
p827
sg19
S'037cb89b'
p828
sg21
Vumull x3, w0, w24
p829
sg5
L18446743798839879044L
sg6
Nsg23
S'UMADDL'
p830
sg25
S'0xffffffc0007da584L'
p831
sg27
Nsba(ibclass
BInstr
p832
(dp833
g2
Nsg17
S'ADD             X2, X2, X3'
p834
sg19
S'4200038b'
p835
sg21
Vadd x2, x2, x3
p836
sg5
L18446743798839879048L
sg6
Nsg23
S'ADD'
p837
sg25
S'0xffffffc0007da588L'
p838
sg27
Nsba(ibclass
BInstr
p839
(dp840
g2
Nsg17
S'MOV             X0, X25'
p841
sg19
S'e00319aa'
p842
sg21
Vmov x0, x25
p843
sg5
L18446743798839879052L
sg6
Nsg23
S'MOV'
p844
sg25
S'0xffffffc0007da58cL'
p845
sg27
Nsba(ibclass
BInstr
p846
(dp847
g2
Nsg17
S'MOV             W1, W8'
p848
sg19
S'e103082a'
p849
sg21
Vmov w1, w8
p850
sg5
L18446743798839879056L
sg6
Nsg23
S'MOV'
p851
sg25
S'0xffffffc0007da590L'
p852
sg27
Nsba(ibclass
BInstr
p853
(dp854
g2
Nsg17
S'MOV             W3, W21'
p855
sg19
S'e303152a'
p856
sg21
Vmov w3, w21
p857
sg5
L18446743798839879060L
sg6
Nsg23
S'MOV'
p858
sg25
S'0xffffffc0007da594L'
p859
sg27
Nsba(ibclass
BInstr
p860
(dp861
g2
Nsg17
S'MOV             W4, W26'
p862
sg19
S'e4031a2a'
p863
sg21
Vmov w4, w26
p864
sg5
L18446743798839879064L
sg6
Nsg23
S'MOV'
p865
sg25
S'0xffffffc0007da598L'
p866
sg27
Nsba(ibclass
BInstr
p867
(dp868
g2
Nsg17
S'BLR             X6'
p869
sg19
S'c0003fd6'
p870
sg21
Vblr x6
p871
sg5
L18446743798839879068L
sg6
Nsg23
S'BLR'
p872
sg25
S'0xffffffc0007da59cL'
p873
sg27
Nsba(ibclass
BInstr
p874
(dp875
g2
Nsg17
S'MOV             W6, W23'
p876
sg19
S'e603172a'
p877
sg21
Vmov w6, w23
p878
sg5
L18446743798839879072L
sg6
Nsg23
S'MOV'
p879
sg25
S'0xffffffc0007da5a0L'
p880
sg27
Nsba(ibclass
BInstr
p881
(dp882
g2
Nsg17
S'B               loc_FFFFFFC0007DA5E4'
p883
sg19
S'10000014'
p884
sg21
Vb #0x40
p885
sg5
L18446743798839879076L
sg6
Nsg23
g224
sg25
S'0xffffffc0007da5a4L'
p886
sg27
Nsbasg126
(lp887
S'LDR reg, mem'
p888
aS'LDR reg, mem'
p889
aS'LDRH reg6, mem'
p890
aS'UMADDL reg, reg, reg4, XZR'
p891
aS'ADD reg, reg, reg'
p892
aS'MOV reg, reg5'
p893
aS'MOV reg, reg'
p894
aS'MOV reg, reg1'
p895
aS'MOV reg, reg6'
p896
aS'BLR reg'
p897
aS'MOV reg, reg3'
p898
aS'B func'
p899
asg143
Nsg5
S'0xffffffc0007da578L'
p900
sg145
(lp901
S'0xffffffc0007da548L'
p902
asg6
Nsg147
(lp903
S'0xffffffc0007da5e4L'
p904
asg151
Nsg152
Nsg153
S'82f0cf6ea1b9fd4599504f8f8ad34b72'
p905
sg155
S'811a621cf5b5e0d9feed8eedc0661033'
p906
sg157
(lp907
g809
ag816
ag823
ag830
ag837
ag844
ag851
ag858
ag865
ag872
ag879
ag224
asg159
Nsba(ibclass
BBasicBlock
p908
(dp909
g12
Nsg13
(lp910
(ibclass
BInstr
p911
(dp912
g2
Nsg17
S'UBFM            X4, X6, #0x3F, #0xF'
p913
sg19
S'c43c7fd3'
p914
sg21
Vubfiz x4, x6, #1, #0x10
p915
sg5
L18446743798839879080L
sg6
Nsg23
S'UBFM'
p916
sg25
S'0xffffffc0007da5a8L'
p917
sg27
Nsba(ibclass
BInstr
p918
(dp919
g2
Nsg17
S'LDRH            W26, [X3,X4]'
p920
sg19
S'7a686478'
p921
sg21
Vldrh w26, [x3, x4]
p922
sg5
L18446743798839879084L
sg6
Nsg23
S'LDR'
p923
sg25
S'0xffffffc0007da5acL'
p924
sg27
Nsba(ibclass
BInstr
p925
(dp926
g2
Nsg17
S'LDR             X9, [X1,#0x30]'
p927
sg19
S'291840f9'
p928
sg21
Vldr x9, [x1, #0x30]
p929
sg5
L18446743798839879088L
sg6
Nsg23
S'LDR'
p930
sg25
S'0xffffffc0007da5b0L'
p931
sg27
Nsba(ibclass
BInstr
p932
(dp933
g2
Nsg17
S'UMADDL          X3, W0, W24, XZR'
p934
sg19
S'037cb89b'
p935
sg21
Vumull x3, w0, w24
p936
sg5
L18446743798839879092L
sg6
Nsg23
S'UMADDL'
p937
sg25
S'0xffffffc0007da5b4L'
p938
sg27
Nsba(ibclass
BInstr
p939
(dp940
g2
Nsg17
S'ADD             X2, X2, X3'
p941
sg19
S'4200038b'
p942
sg21
Vadd x2, x2, x3
p943
sg5
L18446743798839879096L
sg6
Nsg23
S'ADD'
p944
sg25
S'0xffffffc0007da5b8L'
p945
sg27
Nsba(ibclass
BInstr
p946
(dp947
g2
Nsg17
S'MOV             X0, X25'
p948
sg19
S'e00319aa'
p949
sg21
Vmov x0, x25
p950
sg5
L18446743798839879100L
sg6
Nsg23
S'MOV'
p951
sg25
S'0xffffffc0007da5bcL'
p952
sg27
Nsba(ibclass
BInstr
p953
(dp954
g2
Nsg17
S'STR             X6, [X29,#arg_80]'
p955
sg19
S'a64b00f9'
p956
sg21
Vstr x6, [x29, #0x90]
p957
sg5
L18446743798839879104L
sg6
Nsg23
S'STR'
p958
sg25
S'0xffffffc0007da5c0L'
p959
sg27
Nsba(ibclass
BInstr
p960
(dp961
g2
Nsg17
S'MOV             W1, W8'
p962
sg19
S'e103082a'
p963
sg21
Vmov w1, w8
p964
sg5
L18446743798839879108L
sg6
Nsg23
S'MOV'
p965
sg25
S'0xffffffc0007da5c4L'
p966
sg27
Nsba(ibclass
BInstr
p967
(dp968
g2
Nsg17
S'MOV             W3, W21'
p969
sg19
S'e303152a'
p970
sg21
Vmov w3, w21
p971
sg5
L18446743798839879112L
sg6
Nsg23
S'MOV'
p972
sg25
S'0xffffffc0007da5c8L'
p973
sg27
Nsba(ibclass
BInstr
p974
(dp975
g2
Nsg17
S'MOV             W4, W26'
p976
sg19
S'e4031a2a'
p977
sg21
Vmov w4, w26
p978
sg5
L18446743798839879116L
sg6
Nsg23
S'MOV'
p979
sg25
S'0xffffffc0007da5ccL'
p980
sg27
Nsba(ibclass
BInstr
p981
(dp982
g2
Nsg17
S'BLR             X9'
p983
sg19
S'20013fd6'
p984
sg21
Vblr x9
p985
sg5
L18446743798839879120L
sg6
Nsg23
S'BLR'
p986
sg25
S'0xffffffc0007da5d0L'
p987
sg27
Nsba(ibclass
BInstr
p988
(dp989
g2
Nsg17
S'LDRH            W0, [X25,#0x28A]'
p990
sg19
S'20174579'
p991
sg21
Vldrh w0, [x25, #0x28a]
p992
sg5
L18446743798839879124L
sg6
Nsg23
S'LDR'
p993
sg25
S'0xffffffc0007da5d4L'
p994
sg27
Nsba(ibclass
BInstr
p995
(dp996
g2
Nsg17
S'LDR             X6, [X29,#arg_80]'
p997
sg19
S'a64b40f9'
p998
sg21
Vldr x6, [x29, #0x90]
p999
sg5
L18446743798839879128L
sg6
Nsg23
S'LDR'
p1000
sg25
S'0xffffffc0007da5d8L'
p1001
sg27
Nsba(ibclass
BInstr
p1002
(dp1003
g2
Nsg17
S'ADD             W0, W21, W0'
p1004
sg19
S'a002000b'
p1005
sg21
Vadd w0, w21, w0
p1006
sg5
L18446743798839879132L
sg6
Nsg23
S'ADD'
p1007
sg25
S'0xffffffc0007da5dcL'
p1008
sg27
Nsba(ibclass
BInstr
p1009
(dp1010
g2
Nsg17
S'STRH            W0, [X25,#0x28A]'
p1011
sg19
S'20170579'
p1012
sg21
Vstrh w0, [x25, #0x28a]
p1013
sg5
L18446743798839879136L
sg6
Nsg23
S'STR'
p1014
sg25
S'0xffffffc0007da5e0L'
p1015
sg27
Nsbasg126
(lp1016
S'UBFM reg, reg, #0x3F, #0xF'
p1017
aS'LDRH reg6, mem'
p1018
aS'LDR reg, mem'
p1019
aS'UMADDL reg, reg, reg4, XZR'
p1020
aS'ADD reg, reg, reg'
p1021
aS'MOV reg, reg5'
p1022
aS'STR reg, mem'
p1023
aS'MOV reg, reg'
p1024
aS'MOV reg, reg1'
p1025
aS'MOV reg, reg6'
p1026
aS'BLR reg'
p1027
aS'LDRH reg, mem'
p1028
aS'LDR reg, mem'
p1029
aS'ADD reg, reg1, reg'
p1030
aS'STRH reg, mem'
p1031
asg143
Nsg5
S'0xffffffc0007da5a8L'
p1032
sg145
(lp1033
S'0xffffffc0007da548L'
p1034
asg6
Nsg147
(lp1035
S'0xffffffc0007da5e4L'
p1036
asg151
Nsg152
Nsg153
S'cbd0d7ea9eddd3c034c4a27cadb2987f'
p1037
sg155
S'3985fbcde0e47292f2213b840e402054'
p1038
sg157
(lp1039
g916
ag923
ag930
ag937
ag944
ag951
ag958
ag965
ag972
ag979
ag986
ag993
ag1000
ag1007
ag1014
asg159
Nsba(ibclass
BBasicBlock
p1040
(dp1041
g12
Nsg13
(lp1042
(ibclass
BInstr
p1043
(dp1044
g2
Nsg17
S'STRH            W6, [X25,#0x288]'
p1045
sg19
S'26130579'
p1046
sg21
Vstrh w6, [x25, #0x288]
p1047
sg5
L18446743798839879140L
sg6
Nsg23
S'STR'
p1048
sg25
S'0xffffffc0007da5e4L'
p1049
sg27
Nsba(ibclass
BInstr
p1050
(dp1051
g2
Nsg17
S'MOV             W8, W26'
p1052
sg19
S'e8031a2a'
p1053
sg21
Vmov w8, w26
p1054
sg5
L18446743798839879144L
sg6
Nsg23
S'MOV'
p1055
sg25
S'0xffffffc0007da5e8L'
p1056
sg27
Nsba(ibclass
BInstr
p1057
(dp1058
g2
Nsg17
S'B               loc_FFFFFFC0007DA53C'
p1059
sg19
S'd4ffff17'
p1060
sg21
Vb #0xffffffffffffff50
p1061
sg5
L18446743798839879148L
sg6
Nsg23
g224
sg25
S'0xffffffc0007da5ecL'
p1062
sg27
Nsbasg126
(lp1063
S'STRH reg, mem'
p1064
aS'MOV reg, reg6'
p1065
aS'B func'
p1066
asg143
Nsg5
S'0xffffffc0007da5e4L'
p1067
sg145
(lp1068
S'0xffffffc0007da578L'
p1069
aS'0xffffffc0007da5a8L'
p1070
asg6
Nsg147
(lp1071
S'0xffffffc0007da53cL'
p1072
asg151
Nsg152
Nsg153
S'ae67871e53439720ff237cbdfb357aa2'
p1073
sg155
S'1fecab67948ceb93a44a7aa53f91caac'
p1074
sg157
(lp1075
g1048
ag1055
ag224
asg159
Nsba(ibclass
BBasicBlock
p1076
(dp1077
g12
Nsg13
(lp1078
(ibclass
BInstr
p1079
(dp1080
g2
Nsg17
S'STRH            W8, [X19,#8]'
p1081
sg19
S'68120079'
p1082
sg21
Vstrh w8, [x19, #8]
p1083
sg5
L18446743798839879152L
sg6
Nsg23
S'STR'
p1084
sg25
S'0xffffffc0007da5f0L'
p1085
sg27
Nsba(ibclass
BInstr
p1086
(dp1087
g2
Nsg17
S'LDR             X0, [X25,#0x3B0]'
p1088
sg19
S'20db41f9'
p1089
sg21
Vldr x0, [x25, #0x3b0]
p1090
sg5
L18446743798839879156L
sg6
Nsg23
S'LDR'
p1091
sg25
S'0xffffffc0007da5f4L'
p1092
sg27
Nsba(ibclass
BInstr
p1093
(dp1094
g2
Nsg17
S'STR             X0, [X29,#arg_50]'
p1095
sg19
S'a03300f9'
p1096
sg21
Vstr x0, [x29, #0x60]
p1097
sg5
L18446743798839879160L
sg6
Nsg23
S'STR'
p1098
sg25
S'0xffffffc0007da5f8L'
p1099
sg27
Nsba(ibclass
BInstr
p1100
(dp1101
g2
Nsg17
S'LDR             W0, [X25,#0x178]'
p1102
sg19
S'207b41b9'
p1103
sg21
Vldr w0, [x25, #0x178]
p1104
sg5
L18446743798839879164L
sg6
Nsg23
S'LDR'
p1105
sg25
S'0xffffffc0007da5fcL'
p1106
sg27
Nsba(ibclass
BInstr
p1107
(dp1108
g2
Nsg17
S'STR             W0, [X29,#arg_60]'
p1109
sg19
S'a07300b9'
p1110
sg21
Vstr w0, [x29, #0x70]
p1111
sg5
L18446743798839879168L
sg6
Nsg23
S'STR'
p1112
sg25
S'0xffffffc0007da600L'
p1113
sg27
Nsba(ibclass
BInstr
p1114
(dp1115
g2
Nsg17
S'LDRH            W0, [X25,#0x3B8]'
p1116
sg19
S'20734779'
p1117
sg21
Vldrh w0, [x25, #0x3b8]
p1118
sg5
L18446743798839879172L
sg6
Nsg23
S'LDR'
p1119
sg25
S'0xffffffc0007da604L'
p1120
sg27
Nsba(ibclass
BInstr
p1121
(dp1122
g2
Nsg17
S'STRH            W0, [X29,#arg_58]'
p1123
sg19
S'a0d30079'
p1124
sg21
Vstrh w0, [x29, #0x68]
p1125
sg5
L18446743798839879176L
sg6
Nsg23
S'STR'
p1126
sg25
S'0xffffffc0007da608L'
p1127
sg27
Nsba(ibclass
BInstr
p1128
(dp1129
g2
Nsg17
S'MOV             X0, X25'
p1130
sg19
S'e00319aa'
p1131
sg21
Vmov x0, x25
p1132
sg5
L18446743798839879180L
sg6
Nsg23
S'MOV'
p1133
sg25
S'0xffffffc0007da60cL'
p1134
sg27
Nsba(ibclass
BInstr
p1135
(dp1136
g2
Nsg17
S'LDR             X1, [X0,#0x18]!'
p1137
sg19
S'018c41f8'
p1138
sg21
Vldr x1, [x0, #0x18]!
p1139
sg5
L18446743798839879184L
sg6
Nsg23
S'LDR'
p1140
sg25
S'0xffffffc0007da610L'
p1141
sg27
Nsba(ibclass
BInstr
p1142
(dp1143
g2
Nsg17
S'LDR             X2, [X1,#0x30]'
p1144
sg19
S'221840f9'
p1145
sg21
Vldr x2, [x1, #0x30]
p1146
sg5
L18446743798839879188L
sg6
Nsg23
S'LDR'
p1147
sg25
S'0xffffffc0007da614L'
p1148
sg27
Nsba(ibclass
BInstr
p1149
(dp1150
g2
Nsg17
S'ADD             X1, X29, #0x60'
p1151
sg19
S'a1830191'
p1152
sg21
Vadd x1, x29, #0x60
p1153
sg5
L18446743798839879192L
sg6
Nsg23
S'ADD'
p1154
sg25
S'0xffffffc0007da618L'
p1155
sg27
Nsba(ibclass
BInstr
p1156
(dp1157
g2
Nsg17
S'BLR             X2'
p1158
sg19
S'40003fd6'
p1159
sg21
Vblr x2
p1160
sg5
L18446743798839879196L
sg6
Nsg23
S'BLR'
p1161
sg25
S'0xffffffc0007da61cL'
p1162
sg27
Nsba(ibclass
BInstr
p1163
(dp1164
g2
Nsg17
S'MOV             W19, W0'
p1165
sg19
S'f303002a'
p1166
sg21
Vmov w19, w0
p1167
sg5
L18446743798839879200L
sg6
Nsg23
S'MOV'
p1168
sg25
S'0xffffffc0007da620L'
p1169
sg27
Nsba(ibclass
BInstr
p1170
(dp1171
g2
Nsg17
S'TBZ             W19, #0x1F, loc_FFFFFFC0007DA64C'
p1172
sg19
S'5301f836'
p1173
sg21
Vtbz w19, #0x1f, #0x28
p1174
sg5
L18446743798839879204L
sg6
Nsg23
S'TBZ'
p1175
sg25
S'0xffffffc0007da624L'
p1176
sg27
Nsbasg126
(lp1177
S'STRH reg, mem'
p1178
aS'LDR reg, mem'
p1179
aS'STR reg, mem'
p1180
aS'LDR reg, mem'
p1181
aS'STR reg, mem'
p1182
aS'LDRH reg, mem'
p1183
aS'STRH reg, mem'
p1184
aS'MOV reg, reg5'
p1185
aS'LDR reg, mem!'
p1186
aS'LDR reg, mem'
p1187
aS'ADD reg, reg9, #0x60'
p1188
aS'BLR reg'
p1189
aS'MOV reg9, reg'
p1190
aS'TBZ reg9, #0x1F, func'
p1191
asg143
Nsg5
S'0xffffffc0007da5f0L'
p1192
sg145
(lp1193
S'0xffffffc0007da53cL'
p1194
asg6
Nsg147
(lp1195
S'0xffffffc0007da628L'
p1196
aS'0xffffffc0007da64cL'
p1197
asg151
Nsg152
Nsg153
S'fda1cd729b73765283042ad3df0a9a95'
p1198
sg155
S'5dcec1ea8e5f0585626c2b3f5e28e6b4'
p1199
sg157
(lp1200
g1084
ag1091
ag1098
ag1105
ag1112
ag1119
ag1126
ag1133
ag1140
ag1147
ag1154
ag1161
ag1168
ag1175
asg159
Nsba(ibclass
BBasicBlock
p1201
(dp1202
g12
Nsg13
(lp1203
(ibclass
BInstr
p1204
(dp1205
g2
Nsg17
S'ADRP            X1, #__func__.27950_0@PAGE; "msm_actuator_bivcm_set_position"'
p1206
sg19
S'814300d0'
p1207
sg21
Vadrp x1, #0x872000
p1208
sg5
L18446743798839879208L
sg6
Nsg23
S'ADRP'
p1209
sg25
S'0xffffffc0007da628L'
p1210
sg27
Nsba(ibclass
BInstr
p1211
(dp1212
g2
Nsg17
S'ADRP            X0, #unk_FFFFFFC0013C7412@PAGE'
p1213
sg19
S'605f00b0'
p1214
sg21
Vadrp x0, #0xbed000
p1215
sg5
L18446743798839879212L
sg6
Nsg23
S'ADRP'
p1216
sg25
S'0xffffffc0007da62cL'
p1217
sg27
Nsba(ibclass
BInstr
p1218
(dp1219
g2
Nsg17
S'ADD             X1, X1, #__func__.27950_0@PAGEOFF; "msm_actuator_bivcm_set_position"'
p1220
sg19
S'21c01291'
p1221
sg21
Vadd x1, x1, #0x4b0
p1222
sg5
L18446743798839879216L
sg6
Nsg23
S'ADD'
p1223
sg25
S'0xffffffc0007da630L'
p1224
sg27
Nsba(ibclass
BInstr
p1225
(dp1226
g2
Nsg17
S'ADD             X1, X1, #0x78'
p1227
sg19
S'21e00191'
p1228
sg21
Vadd x1, x1, #0x78
p1229
sg5
L18446743798839879220L
sg6
Nsg23
S'ADD'
p1230
sg25
S'0xffffffc0007da634L'
p1231
sg27
Nsba(ibclass
BInstr
p1232
(dp1233
g2
Nsg17
S'MOV             W2, #0x25D'
p1234
sg19
S'a24b8052'
p1235
sg21
Vmovz w2, #0x25d
p1236
sg5
L18446743798839879224L
sg6
Nsg23
S'MOV'
p1237
sg25
S'0xffffffc0007da638L'
p1238
sg27
Nsba(ibclass
BInstr
p1239
(dp1240
g2
Nsg17
S'MOV             W3, W19'
p1241
sg19
S'e303132a'
p1242
sg21
Vmov w3, w19
p1243
sg5
L18446743798839879228L
sg6
Nsg23
S'MOV'
p1244
sg25
S'0xffffffc0007da63cL'
p1245
sg27
Nsba(ibclass
BInstr
p1246
(dp1247
g2
Nsg17
S'ADD             X0, X0, #unk_FFFFFFC0013C7412@PAGEOFF'
p1248
sg19
S'00481091'
p1249
sg21
Vadd x0, x0, #0x412
p1250
sg5
L18446743798839879232L
sg6
Nsg23
S'ADD'
p1251
sg25
S'0xffffffc0007da640L'
p1252
sg27
Nsba(ibclass
BInstr
p1253
(dp1254
g2
Nsg17
S'BL              printk'
p1255
sg19
S'cc4a1994'
p1256
sg21
Vbl #0x652b30
p1257
sg5
L18446743798839879236L
sg6
Nsg23
S'BL'
p1258
sg25
S'0xffffffc0007da644L'
p1259
sg27
Nsba(ibclass
BInstr
p1260
(dp1261
g2
Nsg17
S'B               loc_FFFFFFC0007DA684'
p1262
sg19
S'0f000014'
p1263
sg21
Vb #0x3c
p1264
sg5
L18446743798839879240L
sg6
Nsg23
g224
sg25
S'0xffffffc0007da648L'
p1265
sg27
Nsbasg126
(lp1266
S'ADRP reg, #__func__.27950_0@PAGE'
p1267
aS'ADRP reg, #func@PAGE'
p1268
aS'ADD reg, reg, #__func__.27950_0@PAGEOFF'
p1269
aS'ADD reg, reg, #0x78'
p1270
aS'MOV reg, #0x25D'
p1271
aS'MOV reg, reg9'
p1272
aS'ADD reg, reg, #func@PAGEOFF'
p1273
aS'BL printk'
p1274
aS'B func'
p1275
asg143
Nsg5
S'0xffffffc0007da628L'
p1276
sg145
(lp1277
S'0xffffffc0007da5f0L'
p1278
asg6
Nsg147
(lp1279
S'0xffffffc0007da684L'
p1280
asg151
Nsg152
Nsg153
S'04d91caef80f22dd3c12475f1db0be9e'
p1281
sg155
S'ec0d9a348dad9bd299e5607be0ba9fcf'
p1282
sg157
(lp1283
g1209
ag1216
ag1223
ag1230
ag1237
ag1244
ag1251
ag1258
ag224
asg159
Nsba(ibclass
BBasicBlock
p1284
(dp1285
g12
Nsg13
(lp1286
(ibclass
BInstr
p1287
(dp1288
g2
Nsg17
S'ADD             X22, X22, #descriptor.27751@PAGEOFF'
p1289
sg19
S'd6622791'
p1290
sg21
Vadd x22, x22, #0x9d8
p1291
sg5
L18446743798839879244L
sg6
Nsg23
S'ADD'
p1292
sg25
S'0xffffffc0007da64cL'
p1293
sg27
Nsba(ibclass
BInstr
p1294
(dp1295
g2
Nsg17
S'ADD             X0, X22, #0x2D0'
p1296
sg19
S'c0420b91'
p1297
sg21
Vadd x0, x22, #0x2d0
p1298
sg5
L18446743798839879248L
sg6
Nsg23
S'ADD'
p1299
sg25
S'0xffffffc0007da650L'
p1300
sg27
Nsba(ibclass
BInstr
p1301
(dp1302
g2
Nsg17
S'LDRH            W1, [X0,#(word_FFFFFFC0018A8CCA - 0xFFFFFFC0018A8CA8)]'
p1303
sg19
S'01444079'
p1304
sg21
Vldrh w1, [x0, #0x22]
p1305
sg5
L18446743798839879252L
sg6
Nsg23
S'LDR'
p1306
sg25
S'0xffffffc0007da654L'
p1307
sg27
Nsba(ibclass
BInstr
p1308
(dp1309
g2
Nsg17
S'STRH            WZR, [X25,#0x3B8]'
p1310
sg19
S'3f730779'
p1311
sg21
Vstrh wzr, [x25, #0x3b8]
p1312
sg5
L18446743798839879256L
sg6
Nsg23
S'STR'
p1313
sg25
S'0xffffffc0007da658L'
p1314
sg27
Nsba(ibclass
BInstr
p1315
(dp1316
g2
Nsg17
S'TBZ             W1, #2, loc_FFFFFFC0007DA684'
p1317
sg19
S'41011036'
p1318
sg21
Vtbz w1, #2, #0x28
p1319
sg5
L18446743798839879260L
sg6
Nsg23
S'TBZ'
p1320
sg25
S'0xffffffc0007da65cL'
p1321
sg27
Nsbasg126
(lp1322
S'ADD reg2, reg2, #descriptor.27751@PAGEOFF'
p1323
aS'ADD reg, reg2, #0x2D0'
p1324
aS'LDRH reg, mem'
p1325
aS'STRH WZR, mem'
p1326
aS'TBZ reg, #2, func'
p1327
asg143
Nsg5
S'0xffffffc0007da64cL'
p1328
sg145
(lp1329
S'0xffffffc0007da5f0L'
p1330
asg6
Nsg147
(lp1331
S'0xffffffc0007da660L'
p1332
aS'0xffffffc0007da684L'
p1333
asg151
Nsg152
Nsg153
S'6e3740d6ca7c37e823cd7cf7eee03ad7'
p1334
sg155
S'efaf9fe91ff19f913fe8155b066e77e6'
p1335
sg157
(lp1336
g1292
ag1299
ag1306
ag1313
ag1320
asg159
Nsba(ibclass
BBasicBlock
p1337
(dp1338
g12
Nsg13
(lp1339
(ibclass
BInstr
p1340
(dp1341
g2
Nsg17
S'ADRP            X2, #__func__.27950_0@PAGE; "msm_actuator_bivcm_set_position"'
p1342
sg19
S'824300d0'
p1343
sg21
Vadrp x2, #0x872000
p1344
sg5
L18446743798839879264L
sg6
Nsg23
S'ADRP'
p1345
sg25
S'0xffffffc0007da660L'
p1346
sg27
Nsba(ibclass
BInstr
p1347
(dp1348
g2
Nsg17
S'ADRP            X1, #aSDExit@PAGE; "%s:%d Exit\\n"'
p1349
sg19
S'216600b0'
p1350
sg21
Vadrp x1, #0xcc5000
p1351
sg5
L18446743798839879268L
sg6
Nsg23
S'ADRP'
p1352
sg25
S'0xffffffc0007da664L'
p1353
sg27
Nsba(ibclass
BInstr
p1354
(dp1355
g2
Nsg17
S'ADD             X2, X2, #__func__.27950_0@PAGEOFF; "msm_actuator_bivcm_set_position"'
p1356
sg19
S'42c01291'
p1357
sg21
Vadd x2, x2, #0x4b0
p1358
sg5
L18446743798839879272L
sg6
Nsg23
S'ADD'
p1359
sg25
S'0xffffffc0007da668L'
p1360
sg27
Nsba(ibclass
BInstr
p1361
(dp1362
g2
Nsg17
S'ADD             X1, X1, #aSDExit@PAGEOFF; "%s:%d Exit\\n"'
p1363
sg19
S'21ac1c91'
p1364
sg21
Vadd x1, x1, #0x72b
p1365
sg5
L18446743798839879276L
sg6
Nsg23
S'ADD'
p1366
sg25
S'0xffffffc0007da66cL'
p1367
sg27
Nsba(ibclass
BInstr
p1368
(dp1369
g2
Nsg17
S'ADD             X2, X2, #0x78'
p1370
sg19
S'42e00191'
p1371
sg21
Vadd x2, x2, #0x78
p1372
sg5
L18446743798839879280L
sg6
Nsg23
S'ADD'
p1373
sg25
S'0xffffffc0007da670L'
p1374
sg27
Nsba(ibclass
BInstr
p1375
(dp1376
g2
Nsg17
S'MOV             W3, #0x261'
p1377
sg19
S'234c8052'
p1378
sg21
Vmovz w3, #0x261
p1379
sg5
L18446743798839879284L
sg6
Nsg23
S'MOV'
p1380
sg25
S'0xffffffc0007da674L'
p1381
sg27
Nsba(ibclass
BInstr
p1382
(dp1383
g2
Nsg17
S'BL              __dynamic_pr_debug'
p1384
sg19
S'cc8ef197'
p1385
sg21
Vbl #0xffffffffffc63b30
p1386
sg5
L18446743798839879288L
sg6
Nsg23
S'BL'
p1387
sg25
S'0xffffffc0007da678L'
p1388
sg27
Nsba(ibclass
BInstr
p1389
(dp1390
g2
Nsg17
S'B               loc_FFFFFFC0007DA684'
p1391
sg19
S'02000014'
p1392
sg21
Vb #8
p1393
sg5
L18446743798839879292L
sg6
Nsg23
g224
sg25
S'0xffffffc0007da67cL'
p1394
sg27
Nsbasg126
(lp1395
S'ADRP reg, #__func__.27950_0@PAGE'
p1396
aS'ADRP reg, #aSDExit@PAGE'
p1397
aS'ADD reg, reg, #__func__.27950_0@PAGEOFF'
p1398
aS'ADD reg, reg, #aSDExit@PAGEOFF'
p1399
aS'ADD reg, reg, #0x78'
p1400
aS'MOV reg, #0x261'
p1401
aS'BL __dynamic_pr_debug'
p1402
aS'B func'
p1403
asg143
Nsg5
S'0xffffffc0007da660L'
p1404
sg145
(lp1405
S'0xffffffc0007da64cL'
p1406
asg6
Nsg147
(lp1407
S'0xffffffc0007da684L'
p1408
asg151
Nsg152
Nsg153
S'40d473a4d279c1a115294d63ef9969dd'
p1409
sg155
S'8859ed396a0ac2f41a941ecc3796ad68'
p1410
sg157
(lp1411
g1345
ag1352
ag1359
ag1366
ag1373
ag1380
ag1387
ag224
asg159
Nsba(ibclass
BBasicBlock
p1412
(dp1413
g12
Nsg13
(lp1414
(ibclass
BInstr
p1415
(dp1416
g2
Nsg17
S'MOV             W19, #0'
p1417
sg19
S'13008052'
p1418
sg21
Vmovz w19, #0
p1419
sg5
L18446743798839879296L
sg6
Nsg23
S'MOV'
p1420
sg25
S'0xffffffc0007da680L'
p1421
sg27
Nsbasg126
(lp1422
S'MOV reg9, #0'
p1423
asg143
Nsg5
S'0xffffffc0007da680L'
p1424
sg145
(lp1425
S'0xffffffc0007da4c8L'
p1426
asg6
Nsg147
(lp1427
S'0xffffffc0007da684L'
p1428
asg151
Nsg152
Nsg153
S'17b32100aef1fc19670be7fd58bc85df'
p1429
sg155
S'72f573c87f6f3c56e29191a101e77110'
p1430
sg157
(lp1431
g1420
asg159
Nsba(ibclass
BBasicBlock
p1432
(dp1433
g12
Nsg13
(lp1434
(ibclass
BInstr
p1435
(dp1436
g2
Nsg17
S'MOV             W0, W19'
p1437
sg19
S'e003132a'
p1438
sg21
Vmov w0, w19
p1439
sg5
L18446743798839879300L
sg6
Nsg23
S'MOV'
p1440
sg25
S'0xffffffc0007da684L'
p1441
sg27
Nsba(ibclass
BInstr
p1442
(dp1443
g2
Nsg17
S'LDP             X21, X22, [SP,#0x90+var_70]'
p1444
sg19
S'f55b42a9'
p1445
sg21
Vldp x21, x22, [sp, #0x20]
p1446
sg5
L18446743798839879304L
sg6
Nsg23
S'LDP'
p1447
sg25
S'0xffffffc0007da688L'
p1448
sg27
Nsba(ibclass
BInstr
p1449
(dp1450
g2
Nsg17
S'LDP             X19, X20, [SP,#0x90+var_80]'
p1451
sg19
S'f35341a9'
p1452
sg21
Vldp x19, x20, [sp, #0x10]
p1453
sg5
L18446743798839879308L
sg6
Nsg23
S'LDP'
p1454
sg25
S'0xffffffc0007da68cL'
p1455
sg27
Nsba(ibclass
BInstr
p1456
(dp1457
g2
Nsg17
S'LDP             X23, X24, [SP,#0x90+var_60]'
p1458
sg19
S'f76343a9'
p1459
sg21
Vldp x23, x24, [sp, #0x30]
p1460
sg5
L18446743798839879312L
sg6
Nsg23
S'LDP'
p1461
sg25
S'0xffffffc0007da690L'
p1462
sg27
Nsba(ibclass
BInstr
p1463
(dp1464
g2
Nsg17
S'LDP             X25, X26, [SP,#0x90+var_50]'
p1465
sg19
S'f96b44a9'
p1466
sg21
Vldp x25, x26, [sp, #0x40]
p1467
sg5
L18446743798839879316L
sg6
Nsg23
S'LDP'
p1468
sg25
S'0xffffffc0007da694L'
p1469
sg27
Nsba(ibclass
BInstr
p1470
(dp1471
g2
Nsg17
S'LDP             X27, X28, [SP,#0x90+var_40]'
p1472
sg19
S'fb7345a9'
p1473
sg21
Vldp x27, x28, [sp, #0x50]
p1474
sg5
L18446743798839879320L
sg6
Nsg23
S'LDP'
p1475
sg25
S'0xffffffc0007da698L'
p1476
sg27
Nsba(ibclass
BInstr
p1477
(dp1478
g2
Nsg17
S'LDP             X29, X30, [SP+0x90+var_90],#0xA0'
p1479
sg19
S'fd7bcaa8'
p1480
sg21
Vldp x29, x30, [sp], #0xa0
p1481
sg5
L18446743798839879324L
sg6
Nsg23
S'LDP'
p1482
sg25
S'0xffffffc0007da69cL'
p1483
sg27
Nsba(ibclass
BInstr
p1484
(dp1485
g2
Nsg17
S'RET'
p1486
sg19
S'c0035fd6'
p1487
sg21
Vret 
p1488
sg5
L18446743798839879328L
sg6
Nsg23
S'RET'
p1489
sg25
S'0xffffffc0007da6a0L'
p1490
sg27
Nsbasg126
(lp1491
S'MOV reg, reg9'
p1492
aS'LDP reg1, reg2, mem'
p1493
aS'LDP reg9, reg0, mem'
p1494
aS'LDP reg3, reg4, mem'
p1495
aS'LDP reg5, reg6, mem'
p1496
aS'LDP reg7, reg8, mem'
p1497
aS'LDP reg9, reg0, mem,#0xA0'
p1498
ag1486
asg143
Nsg5
S'0xffffffc0007da684L'
p1499
sg145
(lp1500
S'0xffffffc0007da470L'
p1501
aS'0xffffffc0007da628L'
p1502
aS'0xffffffc0007da64cL'
p1503
aS'0xffffffc0007da660L'
p1504
aS'0xffffffc0007da680L'
p1505
asg6
Nsg147
(lp1506
sg151
Nsg152
Nsg153
S'fb51b4f49e207839e4541c8a63536464'
p1507
sg155
S'4b2e870c48d9cb5f511f55ad4142351e'
p1508
sg157
(lp1509
g1440
ag1447
ag1454
ag1461
ag1468
ag1475
ag1482
ag1489
asg159
Nsbasb.