(ibclass
BFunc
p0
(dp1
S'hash'
p2
NsS'name'
p3
S'msm_comm_get_pixel_fmt_index'
p4
sS'start_address'
p5
L18446743798839612608L
sS'flag'
p6
NsS'program'
p7
NsS'bbs'
p8
(lp9
(ibclass
BBasicBlock
p10
(dp11
S'function'
p12
NsS'binstrs'
p13
(lp14
(ibclass
BInstr
p15
(dp16
g2
NsS'disasm'
p17
S'STP             X29, X30, [SP,#-0x10+var_10]!'
p18
sS'bytes'
p19
S'fd7bbea9'
p20
sS'disasm_striped'
p21
Vstp x29, x30, [sp, #-0x20]!
p22
sg5
L18446743798839612608L
sg6
NsS'mnem'
p23
S'STP'
p24
sS'address'
p25
S'0xffffffc0007994c0L'
p26
sS'basicblock'
p27
Nsba(ibclass
BInstr
p28
(dp29
g2
Nsg17
S'MOV             X29, SP'
p30
sg19
S'fd030091'
p31
sg21
Vmov x29, sp
p32
sg5
L18446743798839612612L
sg6
Nsg23
S'MOV'
p33
sg25
S'0xffffffc0007994c4L'
p34
sg27
Nsba(ibclass
BInstr
p35
(dp36
g2
Nsg17
S'STR             X19, [SP,#0x10+var_s0]'
p37
sg19
S'f30b00f9'
p38
sg21
Vstr x19, [sp, #0x10]
p39
sg5
L18446743798839612616L
sg6
Nsg23
S'STR'
p40
sg25
S'0xffffffc0007994c8L'
p41
sg27
Nsba(ibclass
BInstr
p42
(dp43
g2
Nsg17
S'MOV             X5, X0'
p44
sg19
S'e50300aa'
p45
sg21
Vmov x5, x0
p46
sg5
L18446743798839612620L
sg6
Nsg23
S'MOV'
p47
sg25
S'0xffffffc0007994ccL'
p48
sg27
Nsba(ibclass
BInstr
p49
(dp50
g2
Nsg17
S'MOV             W6, W2'
p51
sg19
S'e603022a'
p52
sg21
Vmov w6, w2
p53
sg5
L18446743798839612624L
sg6
Nsg23
S'MOV'
p54
sg25
S'0xffffffc0007994d0L'
p55
sg27
Nsba(ibclass
BInstr
p56
(dp57
g2
Nsg17
S'CBZ             X0, loc_FFFFFFC0007994EC'
p58
sg19
S'c00000b4'
p59
sg21
Vcbz x0, #0x18
p60
sg5
L18446743798839612628L
sg6
Nsg23
S'CBZ'
p61
sg25
S'0xffffffc0007994d4L'
p62
sg27
NsbasS'disasm_list'
p63
(lp64
S'STP reg9, reg0, mem!'
p65
aS'MOV reg9, SP'
p66
aS'STR reg9, mem'
p67
aS'MOV reg, reg'
p68
aS'MOV reg, reg'
p69
aS'CBZ reg, func'
p70
asS'end_address'
p71
Nsg5
S'0xffffffc0007994c0L'
p72
sS'preds'
p73
(lp74
sg6
NsS'succs'
p75
(lp76
S'0xffffffc0007994d8L'
p77
aS'0xffffffc0007994ecL'
p78
asS'hash_v3'
p79
NsS'flag_v2'
p80
NsS'hash_v1'
p81
S'd18e45ed326c6c131a76f96fbb4641a0'
p82
sS'hash_v2'
p83
S'49fea10d0455d29bf0d099630c052fff'
p84
sS'mnen_list'
p85
(lp86
g24
ag33
ag40
ag47
ag54
ag61
asS'neighbour_disasm_list'
p87
Nsba(ibclass
BBasicBlock
p88
(dp89
g12
Nsg13
(lp90
(ibclass
BInstr
p91
(dp92
g2
Nsg17
S'TBNZ            W2, #0x1F, loc_FFFFFFC0007994EC'
p93
sg19
S'a200f837'
p94
sg21
Vtbnz w2, #0x1f, #0x14
p95
sg5
L18446743798839612632L
sg6
Nsg23
S'TBNZ'
p96
sg25
S'0xffffffc0007994d8L'
p97
sg27
Nsbasg63
(lp98
S'TBNZ reg, #0x1F, func'
p99
asg71
Nsg5
S'0xffffffc0007994d8L'
p100
sg73
(lp101
S'0xffffffc0007994c0L'
p102
asg6
Nsg75
(lp103
S'0xffffffc0007994dcL'
p104
aS'0xffffffc0007994ecL'
p105
asg79
Nsg80
Nsg81
S'1e87583633efc2ba1131acfd744a2ae7'
p106
sg83
S'c0601abc5298015b9e8485f4f7d7bbdc'
p107
sg85
(lp108
g96
asg87
Nsba(ibclass
BBasicBlock
p109
(dp110
g12
Nsg13
(lp111
(ibclass
BInstr
p112
(dp113
g2
Nsg17
S'MOV             X4, #0'
p114
sg19
S'040080d2'
p115
sg21
Vmovz x4, #0
p116
sg5
L18446743798839612636L
sg6
Nsg23
S'MOV'
p117
sg25
S'0xffffffc0007994dcL'
p118
sg27
Nsba(ibclass
BInstr
p119
(dp120
g2
Nsg17
S'MOV             W0, W4'
p121
sg19
S'e003042a'
p122
sg21
Vmov w0, w4
p123
sg5
L18446743798839612640L
sg6
Nsg23
S'MOV'
p124
sg25
S'0xffffffc0007994e0L'
p125
sg27
Nsba(ibclass
BInstr
p126
(dp127
g2
Nsg17
S'MOV             X7, #0x78'
p128
sg19
S'070f80d2'
p129
sg21
Vmovz x7, #0x78
p130
sg5
L18446743798839612644L
sg6
Nsg23
S'MOV'
p131
sg25
S'0xffffffc0007994e4L'
p132
sg27
Nsba(ibclass
BInstr
p133
(dp134
g2
Nsg17
S'B               loc_FFFFFFC000799544'
p135
sg19
S'17000014'
p136
sg21
Vb #0x5c
p137
sg5
L18446743798839612648L
sg6
Nsg23
S'B'
p138
sg25
S'0xffffffc0007994e8L'
p139
sg27
Nsbasg63
(lp140
S'MOV reg, #0'
p141
aS'MOV reg, reg'
p142
aS'MOV reg, #0x78'
p143
aS'B func'
p144
asg71
Nsg5
S'0xffffffc0007994dcL'
p145
sg73
(lp146
S'0xffffffc0007994d8L'
p147
asg6
Nsg75
(lp148
S'0xffffffc000799544L'
p149
asg79
Nsg80
Nsg81
S'2439f386655f4b117057fab90f35afd0'
p150
sg83
S'01a4f32a4c84b6b38075626670ca5592'
p151
sg85
(lp152
g117
ag124
ag131
ag138
asg87
Nsba(ibclass
BBasicBlock
p153
(dp154
g12
Nsg13
(lp155
(ibclass
BInstr
p156
(dp157
g2
Nsg17
S'ADRP            X0, #qword_FFFFFFC000E440A0@PAGE'
p158
sg19
S'403500f0'
p159
sg21
Vadrp x0, #0x6ab000
p160
sg5
L18446743798839612652L
sg6
Nsg23
S'ADRP'
p161
sg25
S'0xffffffc0007994ecL'
p162
sg27
Nsba(ibclass
BInstr
p163
(dp164
g2
Nsg17
S'LDR             X0, [X0,#qword_FFFFFFC000E440A0@PAGEOFF]'
p165
sg19
S'005040f9'
p166
sg21
Vldr x0, [x0, #0xa0]
p167
sg5
L18446743798839612656L
sg6
Nsg23
S'LDR'
p168
sg25
S'0xffffffc0007994f0L'
p169
sg27
Nsba(ibclass
BInstr
p170
(dp171
g2
Nsg17
S'LDR             W0, [X0]'
p172
sg19
S'000040b9'
p173
sg21
Vldr w0, [x0]
p174
sg5
L18446743798839612660L
sg6
Nsg23
S'LDR'
p175
sg25
S'0xffffffc0007994f4L'
p176
sg27
Nsba(ibclass
BInstr
p177
(dp178
g2
Nsg17
S'TBZ             W0, #0, loc_FFFFFFC0007995B8'
p179
sg19
S'00060036'
p180
sg21
Vtbz w0, #0, #0xc0
p181
sg5
L18446743798839612664L
sg6
Nsg23
S'TBZ'
p182
sg25
S'0xffffffc0007994f8L'
p183
sg27
Nsbasg63
(lp184
S'ADRP reg, #func@PAGE'
p185
aS'LDR reg, mem'
p186
aS'LDR reg, mem'
p187
aS'TBZ reg, #0, func'
p188
asg71
Nsg5
S'0xffffffc0007994ecL'
p189
sg73
(lp190
S'0xffffffc0007994c0L'
p191
aS'0xffffffc0007994d8L'
p192
asg6
Nsg75
(lp193
S'0xffffffc0007994fcL'
p194
aS'0xffffffc0007995b8L'
p195
asg79
Nsg80
Nsg81
S'2de94c9e326481f2f467f11acce8dcc9'
p196
sg83
S'f9f7225e2bae36aff04e5d93bafe5e1d'
p197
sg85
(lp198
g161
ag168
ag175
ag182
asg87
Nsba(ibclass
BBasicBlock
p199
(dp200
g12
Nsg13
(lp201
(ibclass
BInstr
p202
(dp203
g2
Nsg17
S'ADRP            X0, #qword_FFFFFFC000E42548@PAGE'
p204
sg19
S'403500b0'
p205
sg21
Vadrp x0, #0x6a9000
p206
sg5
L18446743798839612668L
sg6
Nsg23
S'ADRP'
p207
sg25
S'0xffffffc0007994fcL'
p208
sg27
Nsba(ibclass
BInstr
p209
(dp210
g2
Nsg17
S'LDR             X0, [X0,#qword_FFFFFFC000E42548@PAGEOFF]'
p211
sg19
S'00a442f9'
p212
sg21
Vldr x0, [x0, #0x548]
p213
sg5
L18446743798839612672L
sg6
Nsg23
S'LDR'
p214
sg25
S'0xffffffc000799500L'
p215
sg27
Nsba(ibclass
BInstr
p216
(dp217
g2
Nsg17
S'MOV             X19, #0'
p218
sg19
S'130080d2'
p219
sg21
Vmovz x19, #0
p220
sg5
L18446743798839612676L
sg6
Nsg23
S'MOV'
p221
sg25
S'0xffffffc000799504L'
p222
sg27
Nsba(ibclass
BInstr
p223
(dp224
g2
Nsg17
S'LDR             W0, [X0]'
p225
sg19
S'000040b9'
p226
sg21
Vldr w0, [x0]
p227
sg5
L18446743798839612680L
sg6
Nsg23
S'LDR'
p228
sg25
S'0xffffffc000799508L'
p229
sg27
Nsba(ibclass
BInstr
p230
(dp231
g2
Nsg17
S'CBNZ            W0, loc_FFFFFFC0007995BC'
p232
sg19
S'80050035'
p233
sg21
Vcbnz w0, #0xb0
p234
sg5
L18446743798839612684L
sg6
Nsg23
S'CBNZ'
p235
sg25
S'0xffffffc00079950cL'
p236
sg27
Nsbasg63
(lp237
S'ADRP reg, #func@PAGE'
p238
aS'LDR reg, mem'
p239
aS'MOV reg9, #0'
p240
aS'LDR reg, mem'
p241
aS'CBNZ reg, func'
p242
asg71
Nsg5
S'0xffffffc0007994fcL'
p243
sg73
(lp244
S'0xffffffc0007994ecL'
p245
asg6
Nsg75
(lp246
S'0xffffffc000799510L'
p247
aS'0xffffffc0007995bcL'
p248
asg79
Nsg80
Nsg81
S'd80cc6d531f24a5b2d60307977d236c7'
p249
sg83
S'ea76a59f29ab8e93dd3b835600e7dc93'
p250
sg85
(lp251
g207
ag214
ag221
ag228
ag235
asg87
Nsba(ibclass
BBasicBlock
p252
(dp253
g12
Nsg13
(lp254
(ibclass
BInstr
p255
(dp256
g2
Nsg17
S'ADRP            X0, #unk_FFFFFFC0013B5DD7@PAGE'
p257
sg19
S'e0600090'
p258
sg21
Vadrp x0, #0xc1c000
p259
sg5
L18446743798839612688L
sg6
Nsg23
S'ADRP'
p260
sg25
S'0xffffffc000799510L'
p261
sg27
Nsba(ibclass
BInstr
p262
(dp263
g2
Nsg17
S'ADRP            X1, #(aQcomMdssDsi_17+0x1B)@PAGE; "err"'
p264
sg19
S'a15c00d0'
p265
sg21
Vadrp x1, #0xb96000
p266
sg5
L18446743798839612692L
sg6
Nsg23
S'ADRP'
p267
sg25
S'0xffffffc000799514L'
p268
sg27
Nsba(ibclass
BInstr
p269
(dp270
g2
Nsg17
S'ADD             X1, X1, #(aQcomMdssDsi_17+0x1B)@PAGEOFF; "err"'
p271
sg19
S'212c0591'
p272
sg21
Vadd x1, x1, #0x14b
p273
sg5
L18446743798839612696L
sg6
Nsg23
S'ADD'
p274
sg25
S'0xffffffc000799518L'
p275
sg27
Nsba(ibclass
BInstr
p276
(dp277
g2
Nsg17
S'MOV             X2, X5'
p278
sg19
S'e20305aa'
p279
sg21
Vmov x2, x5
p280
sg5
L18446743798839612700L
sg6
Nsg23
S'MOV'
p281
sg25
S'0xffffffc00079951cL'
p282
sg27
Nsba(ibclass
BInstr
p283
(dp284
g2
Nsg17
S'MOV             W3, W6'
p285
sg19
S'e303062a'
p286
sg21
Vmov w3, w6
p287
sg5
L18446743798839612704L
sg6
Nsg23
S'MOV'
p288
sg25
S'0xffffffc000799520L'
p289
sg27
Nsba(ibclass
BInstr
p290
(dp291
g2
Nsg17
S'ADD             X0, X0, #unk_FFFFFFC0013B5DD7@PAGEOFF'
p292
sg19
S'005c3791'
p293
sg21
Vadd x0, x0, #0xdd7
p294
sg5
L18446743798839612708L
sg6
Nsg23
S'ADD'
p295
sg25
S'0xffffffc000799524L'
p296
sg27
Nsba(ibclass
BInstr
p297
(dp298
g2
Nsg17
S'BL              printk'
p299
sg19
S'134f1a94'
p300
sg21
Vbl #0x693c4c
p301
sg5
L18446743798839612712L
sg6
Nsg23
S'BL'
p302
sg25
S'0xffffffc000799528L'
p303
sg27
Nsba(ibclass
BInstr
p304
(dp305
g2
Nsg17
S'B               loc_FFFFFFC0007995BC'
p306
sg19
S'24000014'
p307
sg21
Vb #0x90
p308
sg5
L18446743798839612716L
sg6
Nsg23
g138
sg25
S'0xffffffc00079952cL'
p309
sg27
Nsbasg63
(lp310
S'ADRP reg, #func@PAGE'
p311
aS'ADRP reg, #(aQcomMdssDsi_17+0x1B)@PAGE'
p312
aS'ADD reg, reg, #(aQcomMdssDsi_17+0x1B)@PAGEOFF'
p313
aS'MOV reg, reg'
p314
aS'MOV reg, reg'
p315
aS'ADD reg, reg, #func@PAGEOFF'
p316
aS'BL printk'
p317
aS'B func'
p318
asg71
Nsg5
S'0xffffffc000799510L'
p319
sg73
(lp320
S'0xffffffc0007994fcL'
p321
asg6
Nsg75
(lp322
S'0xffffffc0007995bcL'
p323
asg79
Nsg80
Nsg81
S'1b980a54a3aef08e829e8b1361742454'
p324
sg83
S'edc3e2e9abc54faba1d0d0f4e8185a8f'
p325
sg85
(lp326
g260
ag267
ag274
ag281
ag288
ag295
ag302
ag138
asg87
Nsba(ibclass
BBasicBlock
p327
(dp328
g12
Nsg13
(lp329
(ibclass
BInstr
p330
(dp331
g2
Nsg17
S'MADD            X8, X4, X7, X5'
p332
sg19
S'8814079b'
p333
sg21
Vmadd x8, x4, x7, x5
p334
sg5
L18446743798839612720L
sg6
Nsg23
S'MADD'
p335
sg25
S'0xffffffc000799530L'
p336
sg27
Nsba(ibclass
BInstr
p337
(dp338
g2
Nsg17
S'LDR             W8, [X8,#0x68]'
p339
sg19
S'086940b9'
p340
sg21
Vldr w8, [x8, #0x68]
p341
sg5
L18446743798839612724L
sg6
Nsg23
S'LDR'
p342
sg25
S'0xffffffc000799534L'
p343
sg27
Nsba(ibclass
BInstr
p344
(dp345
g2
Nsg17
S'CMP             W8, W3'
p346
sg19
S'1f01036b'
p347
sg21
Vcmp w8, w3
p348
sg5
L18446743798839612728L
sg6
Nsg23
S'CMP'
p349
sg25
S'0xffffffc000799538L'
p350
sg27
Nsba(ibclass
BInstr
p351
(dp352
g2
Nsg17
S'B.EQ            loc_FFFFFFC000799554'
p353
sg19
S'c0000054'
p354
sg21
Vb.eq #0x18
p355
sg5
L18446743798839612732L
sg6
Nsg23
g138
sg25
S'0xffffffc00079953cL'
p356
sg27
Nsbasg63
(lp357
S'MADD reg, reg, reg, reg'
p358
aS'LDR reg, mem'
p359
aS'CMP reg, reg'
p360
aS'B.EQ func'
p361
asg71
Nsg5
S'0xffffffc000799530L'
p362
sg73
(lp363
S'0xffffffc000799544L'
p364
asg6
Nsg75
(lp365
S'0xffffffc000799540L'
p366
aS'0xffffffc000799554L'
p367
asg79
Nsg80
Nsg81
S'5e2e19d0b8d2bec84bd3450de68fa131'
p368
sg83
S'03da6d94f19ba84383c70757cd19f05e'
p369
sg85
(lp370
g335
ag342
ag349
ag138
asg87
Nsba(ibclass
BBasicBlock
p371
(dp372
g12
Nsg13
(lp373
(ibclass
BInstr
p374
(dp375
g2
Nsg17
S'ADD             X4, X4, #1'
p376
sg19
S'84040091'
p377
sg21
Vadd x4, x4, #1
p378
sg5
L18446743798839612736L
sg6
Nsg23
S'ADD'
p379
sg25
S'0xffffffc000799540L'
p380
sg27
Nsbasg63
(lp381
S'ADD reg, reg, #1'
p382
asg71
Nsg5
S'0xffffffc000799540L'
p383
sg73
(lp384
S'0xffffffc000799530L'
p385
aS'0xffffffc000799568L'
p386
asg6
Nsg75
(lp387
S'0xffffffc000799544L'
p388
asg79
Nsg80
Nsg81
S'9eeb52badb613229884838847294b90d'
p389
sg83
S'd9b40ffd2ae5b64a4f96e1e8dfae49fb'
p390
sg85
(lp391
g379
asg87
Nsba(ibclass
BBasicBlock
p392
(dp393
g12
Nsg13
(lp394
(ibclass
BInstr
p395
(dp396
g2
Nsg17
S'CMP             W4, W1'
p397
sg19
S'9f00016b'
p398
sg21
Vcmp w4, w1
p399
sg5
L18446743798839612740L
sg6
Nsg23
S'CMP'
p400
sg25
S'0xffffffc000799544L'
p401
sg27
Nsba(ibclass
BInstr
p402
(dp403
g2
Nsg17
S'MOV             W2, W4'
p404
sg19
S'e203042a'
p405
sg21
Vmov w2, w4
p406
sg5
L18446743798839612744L
sg6
Nsg23
S'MOV'
p407
sg25
S'0xffffffc000799548L'
p408
sg27
Nsba(ibclass
BInstr
p409
(dp410
g2
Nsg17
S'B.LT            loc_FFFFFFC000799530'
p411
sg19
S'2bffff54'
p412
sg21
Vb.lt #0xffffffffffffffe4
p413
sg5
L18446743798839612748L
sg6
Nsg23
g138
sg25
S'0xffffffc00079954cL'
p414
sg27
Nsbasg63
(lp415
S'CMP reg, reg'
p416
aS'MOV reg, reg'
p417
aS'B.LT func'
p418
asg71
Nsg5
S'0xffffffc000799544L'
p419
sg73
(lp420
S'0xffffffc0007994dcL'
p421
aS'0xffffffc000799540L'
p422
asg6
Nsg75
(lp423
S'0xffffffc000799530L'
p424
aS'0xffffffc000799550L'
p425
asg79
Nsg80
Nsg81
S'e8df9ba4cde3984b4ab59d5bb6791e02'
p426
sg83
S'580579e3a228dad7eb6af049e67ea2a7'
p427
sg85
(lp428
g400
ag407
ag138
asg87
Nsba(ibclass
BBasicBlock
p429
(dp430
g12
Nsg13
(lp431
(ibclass
BInstr
p432
(dp433
g2
Nsg17
S'B               loc_FFFFFFC00079955C'
p434
sg19
S'03000014'
p435
sg21
Vb #0xc
p436
sg5
L18446743798839612752L
sg6
Nsg23
g138
sg25
S'0xffffffc000799550L'
p437
sg27
Nsbasg63
(lp438
S'B func'
p439
asg71
Nsg5
S'0xffffffc000799550L'
p440
sg73
(lp441
S'0xffffffc000799544L'
p442
asg6
Nsg75
(lp443
S'0xffffffc00079955cL'
p444
asg79
Nsg80
Nsg81
S'9d5ed678fe57bcca610140957afab571'
p445
sg83
S'071b057c420e304c628380fd3541c021'
p446
sg85
(lp447
g138
asg87
Nsba(ibclass
BBasicBlock
p448
(dp449
g12
Nsg13
(lp450
(ibclass
BInstr
p451
(dp452
g2
Nsg17
S'CMP             W0, W6'
p453
sg19
S'1f00066b'
p454
sg21
Vcmp w0, w6
p455
sg5
L18446743798839612756L
sg6
Nsg23
S'CMP'
p456
sg25
S'0xffffffc000799554L'
p457
sg27
Nsba(ibclass
BInstr
p458
(dp459
g2
Nsg17
S'B.NE            loc_FFFFFFC000799568'
p460
sg19
S'81000054'
p461
sg21
Vb.ne #0x10
p462
sg5
L18446743798839612760L
sg6
Nsg23
g138
sg25
S'0xffffffc000799558L'
p463
sg27
Nsbasg63
(lp464
S'CMP reg, reg'
p465
aS'B.NE func'
p466
asg71
Nsg5
S'0xffffffc000799554L'
p467
sg73
(lp468
S'0xffffffc000799530L'
p469
asg6
Nsg75
(lp470
S'0xffffffc00079955cL'
p471
aS'0xffffffc000799568L'
p472
asg79
Nsg80
Nsg81
S'c78fd620a449e3c979d3f3ec12d4ee88'
p473
sg83
S'540ee9ce1e0ac85e4f670464eda924b3'
p474
sg85
(lp475
g456
ag138
asg87
Nsba(ibclass
BBasicBlock
p476
(dp477
g12
Nsg13
(lp478
(ibclass
BInstr
p479
(dp480
g2
Nsg17
S'CMP             W2, W1'
p481
sg19
S'5f00016b'
p482
sg21
Vcmp w2, w1
p483
sg5
L18446743798839612764L
sg6
Nsg23
S'CMP'
p484
sg25
S'0xffffffc00079955cL'
p485
sg27
Nsba(ibclass
BInstr
p486
(dp487
g2
Nsg17
S'B.NE            loc_FFFFFFC0007995AC'
p488
sg19
S'61020054'
p489
sg21
Vb.ne #0x4c
p490
sg5
L18446743798839612768L
sg6
Nsg23
g138
sg25
S'0xffffffc000799560L'
p491
sg27
Nsbasg63
(lp492
S'CMP reg, reg'
p493
aS'B.NE func'
p494
asg71
Nsg5
S'0xffffffc00079955cL'
p495
sg73
(lp496
S'0xffffffc000799550L'
p497
aS'0xffffffc000799554L'
p498
asg6
Nsg75
(lp499
S'0xffffffc000799564L'
p500
aS'0xffffffc0007995acL'
p501
asg79
Nsg80
Nsg81
S'c78fd620a449e3c979d3f3ec12d4ee88'
p502
sg83
S'540ee9ce1e0ac85e4f670464eda924b3'
p503
sg85
(lp504
g484
ag138
asg87
Nsba(ibclass
BBasicBlock
p505
(dp506
g12
Nsg13
(lp507
(ibclass
BInstr
p508
(dp509
g2
Nsg17
S'B               loc_FFFFFFC000799570'
p510
sg19
S'03000014'
p511
sg21
Vb #0xc
p512
sg5
L18446743798839612772L
sg6
Nsg23
g138
sg25
S'0xffffffc000799564L'
p513
sg27
Nsbasg63
(lp514
S'B func'
p515
asg71
Nsg5
S'0xffffffc000799564L'
p516
sg73
(lp517
S'0xffffffc00079955cL'
p518
asg6
Nsg75
(lp519
S'0xffffffc000799570L'
p520
asg79
Nsg80
Nsg81
S'9d5ed678fe57bcca610140957afab571'
p521
sg83
S'071b057c420e304c628380fd3541c021'
p522
sg85
(lp523
g138
asg87
Nsba(ibclass
BBasicBlock
p524
(dp525
g12
Nsg13
(lp526
(ibclass
BInstr
p527
(dp528
g2
Nsg17
S'ADD             W0, W0, #1'
p529
sg19
S'00040011'
p530
sg21
Vadd w0, w0, #1
p531
sg5
L18446743798839612776L
sg6
Nsg23
S'ADD'
p532
sg25
S'0xffffffc000799568L'
p533
sg27
Nsba(ibclass
BInstr
p534
(dp535
g2
Nsg17
S'B               loc_FFFFFFC000799540'
p536
sg19
S'f5ffff17'
p537
sg21
Vb #0xffffffffffffffd4
p538
sg5
L18446743798839612780L
sg6
Nsg23
g138
sg25
S'0xffffffc00079956cL'
p539
sg27
Nsbasg63
(lp540
S'ADD reg, reg, #1'
p541
aS'B func'
p542
asg71
Nsg5
S'0xffffffc000799568L'
p543
sg73
(lp544
S'0xffffffc000799554L'
p545
asg6
Nsg75
(lp546
S'0xffffffc000799540L'
p547
asg79
Nsg80
Nsg81
S'f59ed0fb4617df9a98cc94b1d7075f92'
p548
sg83
S'cee4ed047876b9909a7833592f765a91'
p549
sg85
(lp550
g532
ag138
asg87
Nsba(ibclass
BBasicBlock
p551
(dp552
g12
Nsg13
(lp553
(ibclass
BInstr
p554
(dp555
g2
Nsg17
S'ADRP            X0, #qword_FFFFFFC000E440A0@PAGE'
p556
sg19
S'403500f0'
p557
sg21
Vadrp x0, #0x6ab000
p558
sg5
L18446743798839612784L
sg6
Nsg23
S'ADRP'
p559
sg25
S'0xffffffc000799570L'
p560
sg27
Nsba(ibclass
BInstr
p561
(dp562
g2
Nsg17
S'LDR             X0, [X0,#qword_FFFFFFC000E440A0@PAGEOFF]'
p563
sg19
S'005040f9'
p564
sg21
Vldr x0, [x0, #0xa0]
p565
sg5
L18446743798839612788L
sg6
Nsg23
S'LDR'
p566
sg25
S'0xffffffc000799574L'
p567
sg27
Nsba(ibclass
BInstr
p568
(dp569
g2
Nsg17
S'LDR             W0, [X0]'
p570
sg19
S'000040b9'
p571
sg21
Vldr w0, [x0]
p572
sg5
L18446743798839612792L
sg6
Nsg23
S'LDR'
p573
sg25
S'0xffffffc000799578L'
p574
sg27
Nsba(ibclass
BInstr
p575
(dp576
g2
Nsg17
S'TBZ             W0, #2, loc_FFFFFFC0007995B8'
p577
sg19
S'e0011036'
p578
sg21
Vtbz w0, #2, #0x3c
p579
sg5
L18446743798839612796L
sg6
Nsg23
S'TBZ'
p580
sg25
S'0xffffffc00079957cL'
p581
sg27
Nsbasg63
(lp582
S'ADRP reg, #func@PAGE'
p583
aS'LDR reg, mem'
p584
aS'LDR reg, mem'
p585
aS'TBZ reg, #2, func'
p586
asg71
Nsg5
S'0xffffffc000799570L'
p587
sg73
(lp588
S'0xffffffc000799564L'
p589
asg6
Nsg75
(lp590
S'0xffffffc000799580L'
p591
aS'0xffffffc0007995b8L'
p592
asg79
Nsg80
Nsg81
S'2de94c9e326481f2f467f11acce8dcc9'
p593
sg83
S'3804d876f2352d338a315acfdd643f15'
p594
sg85
(lp595
g559
ag566
ag573
ag580
asg87
Nsba(ibclass
BBasicBlock
p596
(dp597
g12
Nsg13
(lp598
(ibclass
BInstr
p599
(dp600
g2
Nsg17
S'ADRP            X0, #qword_FFFFFFC000E42548@PAGE'
p601
sg19
S'403500b0'
p602
sg21
Vadrp x0, #0x6a9000
p603
sg5
L18446743798839612800L
sg6
Nsg23
S'ADRP'
p604
sg25
S'0xffffffc000799580L'
p605
sg27
Nsba(ibclass
BInstr
p606
(dp607
g2
Nsg17
S'LDR             X0, [X0,#qword_FFFFFFC000E42548@PAGEOFF]'
p608
sg19
S'00a442f9'
p609
sg21
Vldr x0, [x0, #0x548]
p610
sg5
L18446743798839612804L
sg6
Nsg23
S'LDR'
p611
sg25
S'0xffffffc000799584L'
p612
sg27
Nsba(ibclass
BInstr
p613
(dp614
g2
Nsg17
S'MOV             X19, #0'
p615
sg19
S'130080d2'
p616
sg21
Vmovz x19, #0
p617
sg5
L18446743798839612808L
sg6
Nsg23
S'MOV'
p618
sg25
S'0xffffffc000799588L'
p619
sg27
Nsba(ibclass
BInstr
p620
(dp621
g2
Nsg17
S'LDR             W0, [X0]'
p622
sg19
S'000040b9'
p623
sg21
Vldr w0, [x0]
p624
sg5
L18446743798839612812L
sg6
Nsg23
S'LDR'
p625
sg25
S'0xffffffc00079958cL'
p626
sg27
Nsba(ibclass
BInstr
p627
(dp628
g2
Nsg17
S'CBNZ            W0, loc_FFFFFFC0007995BC'
p629
sg19
S'60010035'
p630
sg21
Vcbnz w0, #0x2c
p631
sg5
L18446743798839612816L
sg6
Nsg23
S'CBNZ'
p632
sg25
S'0xffffffc000799590L'
p633
sg27
Nsbasg63
(lp634
S'ADRP reg, #func@PAGE'
p635
aS'LDR reg, mem'
p636
aS'MOV reg9, #0'
p637
aS'LDR reg, mem'
p638
aS'CBNZ reg, func'
p639
asg71
Nsg5
S'0xffffffc000799580L'
p640
sg73
(lp641
S'0xffffffc000799570L'
p642
asg6
Nsg75
(lp643
S'0xffffffc000799594L'
p644
aS'0xffffffc0007995bcL'
p645
asg79
Nsg80
Nsg81
S'd80cc6d531f24a5b2d60307977d236c7'
p646
sg83
S'ea76a59f29ab8e93dd3b835600e7dc93'
p647
sg85
(lp648
g604
ag611
ag618
ag625
ag632
asg87
Nsba(ibclass
BBasicBlock
p649
(dp650
g12
Nsg13
(lp651
(ibclass
BInstr
p652
(dp653
g2
Nsg17
S'ADRP            X0, #unk_FFFFFFC0013B5E0E@PAGE'
p654
sg19
S'e0600090'
p655
sg21
Vadrp x0, #0xc1c000
p656
sg5
L18446743798839612820L
sg6
Nsg23
S'ADRP'
p657
sg25
S'0xffffffc000799594L'
p658
sg27
Nsba(ibclass
BInstr
p659
(dp660
g2
Nsg17
S'ADRP            X1, #aInfo@PAGE; "info"'
p661
sg19
S'c15e00b0'
p662
sg21
Vadrp x1, #0xbd9000
p663
sg5
L18446743798839612824L
sg6
Nsg23
S'ADRP'
p664
sg25
S'0xffffffc000799598L'
p665
sg27
Nsba(ibclass
BInstr
p666
(dp667
g2
Nsg17
S'ADD             X1, X1, #aInfo@PAGEOFF; "info"'
p668
sg19
S'21243a91'
p669
sg21
Vadd x1, x1, #0xe89
p670
sg5
L18446743798839612828L
sg6
Nsg23
S'ADD'
p671
sg25
S'0xffffffc00079959cL'
p672
sg27
Nsba(ibclass
BInstr
p673
(dp674
g2
Nsg17
S'ADD             X0, X0, #unk_FFFFFFC0013B5E0E@PAGEOFF'
p675
sg19
S'00383891'
p676
sg21
Vadd x0, x0, #0xe0e
p677
sg5
L18446743798839612832L
sg6
Nsg23
S'ADD'
p678
sg25
S'0xffffffc0007995a0L'
p679
sg27
Nsba(ibclass
BInstr
p680
(dp681
g2
Nsg17
S'BL              printk'
p682
sg19
S'f44e1a94'
p683
sg21
Vbl #0x693bd0
p684
sg5
L18446743798839612836L
sg6
Nsg23
S'BL'
p685
sg25
S'0xffffffc0007995a4L'
p686
sg27
Nsba(ibclass
BInstr
p687
(dp688
g2
Nsg17
S'B               loc_FFFFFFC0007995BC'
p689
sg19
S'05000014'
p690
sg21
Vb #0x14
p691
sg5
L18446743798839612840L
sg6
Nsg23
g138
sg25
S'0xffffffc0007995a8L'
p692
sg27
Nsbasg63
(lp693
S'ADRP reg, #func@PAGE'
p694
aS'ADRP reg, #aInfo@PAGE'
p695
aS'ADD reg, reg, #aInfo@PAGEOFF'
p696
aS'ADD reg, reg, #func@PAGEOFF'
p697
aS'BL printk'
p698
aS'B func'
p699
asg71
Nsg5
S'0xffffffc000799594L'
p700
sg73
(lp701
S'0xffffffc000799580L'
p702
asg6
Nsg75
(lp703
S'0xffffffc0007995bcL'
p704
asg79
Nsg80
Nsg81
S'b2a3927201f2643e37e238d870ced3c2'
p705
sg83
S'a889cc12cd570e572d0c0f1e966f615f'
p706
sg85
(lp707
g657
ag664
ag671
ag678
ag685
ag138
asg87
Nsba(ibclass
BBasicBlock
p708
(dp709
g12
Nsg13
(lp710
(ibclass
BInstr
p711
(dp712
g2
Nsg17
S'MOV             W19, #0x78'
p713
sg19
S'130f8052'
p714
sg21
Vmovz w19, #0x78
p715
sg5
L18446743798839612844L
sg6
Nsg23
S'MOV'
p716
sg25
S'0xffffffc0007995acL'
p717
sg27
Nsba(ibclass
BInstr
p718
(dp719
g2
Nsg17
S'SMADDL          X19, W2, W19, X5'
p720
sg19
S'5314339b'
p721
sg21
Vsmaddl x19, w2, w19, x5
p722
sg5
L18446743798839612848L
sg6
Nsg23
S'SMADDL'
p723
sg25
S'0xffffffc0007995b0L'
p724
sg27
Nsba(ibclass
BInstr
p725
(dp726
g2
Nsg17
S'B               loc_FFFFFFC0007995BC'
p727
sg19
S'02000014'
p728
sg21
Vb #8
p729
sg5
L18446743798839612852L
sg6
Nsg23
g138
sg25
S'0xffffffc0007995b4L'
p730
sg27
Nsbasg63
(lp731
S'MOV reg9, #0x78'
p732
aS'SMADDL reg9, reg, reg9, reg'
p733
aS'B func'
p734
asg71
Nsg5
S'0xffffffc0007995acL'
p735
sg73
(lp736
S'0xffffffc00079955cL'
p737
asg6
Nsg75
(lp738
S'0xffffffc0007995bcL'
p739
asg79
Nsg80
Nsg81
S'e0810f87982ff2b501b90664a54ca702'
p740
sg83
S'b7fa608ebdb2d74f3f37dec689c8e0d0'
p741
sg85
(lp742
g716
ag723
ag138
asg87
Nsba(ibclass
BBasicBlock
p743
(dp744
g12
Nsg13
(lp745
(ibclass
BInstr
p746
(dp747
g2
Nsg17
S'MOV             X19, #0'
p748
sg19
S'130080d2'
p749
sg21
Vmovz x19, #0
p750
sg5
L18446743798839612856L
sg6
Nsg23
S'MOV'
p751
sg25
S'0xffffffc0007995b8L'
p752
sg27
Nsbasg63
(lp753
S'MOV reg9, #0'
p754
asg71
Nsg5
S'0xffffffc0007995b8L'
p755
sg73
(lp756
S'0xffffffc0007994ecL'
p757
aS'0xffffffc000799570L'
p758
asg6
Nsg75
(lp759
S'0xffffffc0007995bcL'
p760
asg79
Nsg80
Nsg81
S'17b32100aef1fc19670be7fd58bc85df'
p761
sg83
S'72f573c87f6f3c56e29191a101e77110'
p762
sg85
(lp763
g751
asg87
Nsba(ibclass
BBasicBlock
p764
(dp765
g12
Nsg13
(lp766
(ibclass
BInstr
p767
(dp768
g2
Nsg17
S'MOV             X0, X19'
p769
sg19
S'e00313aa'
p770
sg21
Vmov x0, x19
p771
sg5
L18446743798839612860L
sg6
Nsg23
S'MOV'
p772
sg25
S'0xffffffc0007995bcL'
p773
sg27
Nsba(ibclass
BInstr
p774
(dp775
g2
Nsg17
S'LDR             X19, [SP,#0x10+var_s0]'
p776
sg19
S'f30b40f9'
p777
sg21
Vldr x19, [sp, #0x10]
p778
sg5
L18446743798839612864L
sg6
Nsg23
S'LDR'
p779
sg25
S'0xffffffc0007995c0L'
p780
sg27
Nsba(ibclass
BInstr
p781
(dp782
g2
Nsg17
S'LDP             X29, X30, [SP+0x10+var_10],#0x20'
p783
sg19
S'fd7bc2a8'
p784
sg21
Vldp x29, x30, [sp], #0x20
p785
sg5
L18446743798839612868L
sg6
Nsg23
S'LDP'
p786
sg25
S'0xffffffc0007995c4L'
p787
sg27
Nsba(ibclass
BInstr
p788
(dp789
g2
Nsg17
S'RET'
p790
sg19
S'c0035fd6'
p791
sg21
Vret 
p792
sg5
L18446743798839612872L
sg6
Nsg23
S'RET'
p793
sg25
S'0xffffffc0007995c8L'
p794
sg27
Nsbasg63
(lp795
S'MOV reg, reg9'
p796
aS'LDR reg9, mem'
p797
aS'LDP reg9, reg0, mem,#0x20'
p798
ag790
asg71
Nsg5
S'0xffffffc0007995bcL'
p799
sg73
(lp800
S'0xffffffc0007994fcL'
p801
aS'0xffffffc000799510L'
p802
aS'0xffffffc000799580L'
p803
aS'0xffffffc000799594L'
p804
aS'0xffffffc0007995acL'
p805
aS'0xffffffc0007995b8L'
p806
asg6
Nsg75
(lp807
sg79
Nsg80
Nsg81
S'700b6007ea89efb2d19f65eecdfbdc66'
p808
sg83
S'2540ec61573c55ff75133ef1ef4cbd07'
p809
sg85
(lp810
g772
ag779
ag786
ag793
asg87
Nsbasb.