(ibclass
BFunc
p0
(dp1
S'hash'
p2
NsS'name'
p3
S'msm_vidc_enum_framesizes'
p4
sS'start_address'
p5
L18446743798839654912L
sS'flag'
p6
NsS'program'
p7
NsS'bbs'
p8
(lp9
(ibclass
BBasicBlock
p10
(dp11
S'function'
p12
NsS'binstrs'
p13
(lp14
(ibclass
BInstr
p15
(dp16
g2
NsS'disasm'
p17
S'STP             X29, X30, [SP,#-0x10+var_10]!'
p18
sS'bytes'
p19
S'fd7bbea9'
p20
sS'disasm_striped'
p21
Vstp x29, x30, [sp, #-0x20]!
p22
sg5
L18446743798839654912L
sg6
NsS'mnem'
p23
S'STP'
p24
sS'address'
p25
S'0xffffffc0007a3a00L'
p26
sS'basicblock'
p27
Nsba(ibclass
BInstr
p28
(dp29
g2
Nsg17
S'MOV             X29, SP'
p30
sg19
S'fd030091'
p31
sg21
Vmov x29, sp
p32
sg5
L18446743798839654916L
sg6
Nsg23
S'MOV'
p33
sg25
S'0xffffffc0007a3a04L'
p34
sg27
Nsba(ibclass
BInstr
p35
(dp36
g2
Nsg17
S'STR             X19, [SP,#0x10+var_s0]'
p37
sg19
S'f30b00f9'
p38
sg21
Vstr x19, [sp, #0x10]
p39
sg5
L18446743798839654920L
sg6
Nsg23
S'STR'
p40
sg25
S'0xffffffc0007a3a08L'
p41
sg27
Nsba(ibclass
BInstr
p42
(dp43
g2
Nsg17
S'MOV             X3, X0'
p44
sg19
S'e30300aa'
p45
sg21
Vmov x3, x0
p46
sg5
L18446743798839654924L
sg6
Nsg23
S'MOV'
p47
sg25
S'0xffffffc0007a3a0cL'
p48
sg27
Nsba(ibclass
BInstr
p49
(dp50
g2
Nsg17
S'MOV             X4, X1'
p51
sg19
S'e40301aa'
p52
sg21
Vmov x4, x1
p53
sg5
L18446743798839654928L
sg6
Nsg23
S'MOV'
p54
sg25
S'0xffffffc0007a3a10L'
p55
sg27
Nsba(ibclass
BInstr
p56
(dp57
g2
Nsg17
S'CBZ             X0, loc_FFFFFFC0007A3A24'
p58
sg19
S'800000b4'
p59
sg21
Vcbz x0, #0x10
p60
sg5
L18446743798839654932L
sg6
Nsg23
S'CBZ'
p61
sg25
S'0xffffffc0007a3a14L'
p62
sg27
NsbasS'disasm_list'
p63
(lp64
S'STP reg9, reg0, mem!'
p65
aS'MOV reg9, SP'
p66
aS'STR reg9, mem'
p67
aS'MOV reg, reg'
p68
aS'MOV reg, reg'
p69
aS'CBZ reg, func'
p70
asS'end_address'
p71
Nsg5
S'0xffffffc0007a3a00L'
p72
sS'preds'
p73
(lp74
sg6
NsS'succs'
p75
(lp76
S'0xffffffc0007a3a18L'
p77
aS'0xffffffc0007a3a24L'
p78
asS'hash_v3'
p79
NsS'flag_v2'
p80
NsS'hash_v1'
p81
S'd18e45ed326c6c131a76f96fbb4641a0'
p82
sS'hash_v2'
p83
S'49fea10d0455d29bf0d099630c052fff'
p84
sS'mnen_list'
p85
(lp86
g24
ag33
ag40
ag47
ag54
ag61
asS'neighbour_disasm_list'
p87
Nsba(ibclass
BBasicBlock
p88
(dp89
g12
Nsg13
(lp90
(ibclass
BInstr
p91
(dp92
g2
Nsg17
S'CMP             X1, XZR'
p93
sg19
S'3f001feb'
p94
sg21
Vcmp x1, xzr
p95
sg5
L18446743798839654936L
sg6
Nsg23
S'CMP'
p96
sg25
S'0xffffffc0007a3a18L'
p97
sg27
Nsba(ibclass
BInstr
p98
(dp99
g2
Nsg17
S'CSET            W19, EQ'
p100
sg19
S'f3179f1a'
p101
sg21
Vcset w19, eq
p102
sg5
L18446743798839654940L
sg6
Nsg23
S'CSET'
p103
sg25
S'0xffffffc0007a3a1cL'
p104
sg27
Nsba(ibclass
BInstr
p105
(dp106
g2
Nsg17
S'CBZ             W19, loc_FFFFFFC0007A3A6C'
p107
sg19
S'73020034'
p108
sg21
Vcbz w19, #0x4c
p109
sg5
L18446743798839654944L
sg6
Nsg23
S'CBZ'
p110
sg25
S'0xffffffc0007a3a20L'
p111
sg27
Nsbasg63
(lp112
S'CMP reg, XZR'
p113
aS'CSET reg9, EQ'
p114
aS'CBZ reg9, func'
p115
asg71
Nsg5
S'0xffffffc0007a3a18L'
p116
sg73
(lp117
S'0xffffffc0007a3a00L'
p118
asg6
Nsg75
(lp119
S'0xffffffc0007a3a24L'
p120
aS'0xffffffc0007a3a6cL'
p121
asg79
Nsg80
Nsg81
S'f704f93687a6b1bd84c9bea144c50305'
p122
sg83
S'17a196ea1103e82a8b09d82d74475acc'
p123
sg85
(lp124
g96
ag103
ag110
asg87
Nsba(ibclass
BBasicBlock
p125
(dp126
g12
Nsg13
(lp127
(ibclass
BInstr
p128
(dp129
g2
Nsg17
S'ADRP            X0, #qword_FFFFFFC000E440A0@PAGE'
p130
sg19
S'003500b0'
p131
sg21
Vadrp x0, #0x6a1000
p132
sg5
L18446743798839654948L
sg6
Nsg23
S'ADRP'
p133
sg25
S'0xffffffc0007a3a24L'
p134
sg27
Nsba(ibclass
BInstr
p135
(dp136
g2
Nsg17
S'LDR             X0, [X0,#qword_FFFFFFC000E440A0@PAGEOFF]'
p137
sg19
S'005040f9'
p138
sg21
Vldr x0, [x0, #0xa0]
p139
sg5
L18446743798839654952L
sg6
Nsg23
S'LDR'
p140
sg25
S'0xffffffc0007a3a28L'
p141
sg27
Nsba(ibclass
BInstr
p142
(dp143
g2
Nsg17
S'LDR             W0, [X0]'
p144
sg19
S'000040b9'
p145
sg21
Vldr w0, [x0]
p146
sg5
L18446743798839654956L
sg6
Nsg23
S'LDR'
p147
sg25
S'0xffffffc0007a3a2cL'
p148
sg27
Nsba(ibclass
BInstr
p149
(dp150
g2
Nsg17
S'TBZ             W0, #0, loc_FFFFFFC0007A3AB0'
p151
sg19
S'00040036'
p152
sg21
Vtbz w0, #0, #0x80
p153
sg5
L18446743798839654960L
sg6
Nsg23
S'TBZ'
p154
sg25
S'0xffffffc0007a3a30L'
p155
sg27
Nsbasg63
(lp156
S'ADRP reg, #func@PAGE'
p157
aS'LDR reg, mem'
p158
aS'LDR reg, mem'
p159
aS'TBZ reg, #0, func'
p160
asg71
Nsg5
S'0xffffffc0007a3a24L'
p161
sg73
(lp162
S'0xffffffc0007a3a00L'
p163
aS'0xffffffc0007a3a18L'
p164
asg6
Nsg75
(lp165
S'0xffffffc0007a3a34L'
p166
aS'0xffffffc0007a3ab0L'
p167
asg79
Nsg80
Nsg81
S'2de94c9e326481f2f467f11acce8dcc9'
p168
sg83
S'f9f7225e2bae36aff04e5d93bafe5e1d'
p169
sg85
(lp170
g133
ag140
ag147
ag154
asg87
Nsba(ibclass
BBasicBlock
p171
(dp172
g12
Nsg13
(lp173
(ibclass
BInstr
p174
(dp175
g2
Nsg17
S'ADRP            X0, #qword_FFFFFFC000E42548@PAGE'
p176
sg19
S'e03400f0'
p177
sg21
Vadrp x0, #0x69f000
p178
sg5
L18446743798839654964L
sg6
Nsg23
S'ADRP'
p179
sg25
S'0xffffffc0007a3a34L'
p180
sg27
Nsba(ibclass
BInstr
p181
(dp182
g2
Nsg17
S'LDR             X0, [X0,#qword_FFFFFFC000E42548@PAGEOFF]'
p183
sg19
S'00a442f9'
p184
sg21
Vldr x0, [x0, #0x548]
p185
sg5
L18446743798839654968L
sg6
Nsg23
S'LDR'
p186
sg25
S'0xffffffc0007a3a38L'
p187
sg27
Nsba(ibclass
BInstr
p188
(dp189
g2
Nsg17
S'MOV             W19, #0xFFFFFFEA'
p190
sg19
S'b3028012'
p191
sg21
Vmovn w19, #0x15
p192
sg5
L18446743798839654972L
sg6
Nsg23
S'MOV'
p193
sg25
S'0xffffffc0007a3a3cL'
p194
sg27
Nsba(ibclass
BInstr
p195
(dp196
g2
Nsg17
S'LDR             W0, [X0]'
p197
sg19
S'000040b9'
p198
sg21
Vldr w0, [x0]
p199
sg5
L18446743798839654976L
sg6
Nsg23
S'LDR'
p200
sg25
S'0xffffffc0007a3a40L'
p201
sg27
Nsba(ibclass
BInstr
p202
(dp203
g2
Nsg17
S'CBNZ            W0, loc_FFFFFFC0007A3AB4'
p204
sg19
S'80030035'
p205
sg21
Vcbnz w0, #0x70
p206
sg5
L18446743798839654980L
sg6
Nsg23
S'CBNZ'
p207
sg25
S'0xffffffc0007a3a44L'
p208
sg27
Nsbasg63
(lp209
S'ADRP reg, #func@PAGE'
p210
aS'LDR reg, mem'
p211
aS'MOV reg9, #0xFFFFFFEA'
p212
aS'LDR reg, mem'
p213
aS'CBNZ reg, func'
p214
asg71
Nsg5
S'0xffffffc0007a3a34L'
p215
sg73
(lp216
S'0xffffffc0007a3a24L'
p217
asg6
Nsg75
(lp218
S'0xffffffc0007a3a48L'
p219
aS'0xffffffc0007a3ab4L'
p220
asg79
Nsg80
Nsg81
S'd80cc6d531f24a5b2d60307977d236c7'
p221
sg83
S'baaaa11d303d94886d47725c6dea0608'
p222
sg85
(lp223
g179
ag186
ag193
ag200
ag207
asg87
Nsba(ibclass
BBasicBlock
p224
(dp225
g12
Nsg13
(lp226
(ibclass
BInstr
p227
(dp228
g2
Nsg17
S'ADRP            X2, #__func__.29884@PAGE; "map_and_register_buf"'
p229
sg19
S'224500d0'
p230
sg21
Vadrp x2, #0x8a6000
p231
sg5
L18446743798839654984L
sg6
Nsg23
S'ADRP'
p232
sg25
S'0xffffffc0007a3a48L'
p233
sg27
Nsba(ibclass
BInstr
p234
(dp235
g2
Nsg17
S'ADRP            X0, #unk_FFFFFFC0013B95C1@PAGE'
p236
sg19
S'a06000d0'
p237
sg21
Vadrp x0, #0xc16000
p238
sg5
L18446743798839654988L
sg6
Nsg23
S'ADRP'
p239
sg25
S'0xffffffc0007a3a4cL'
p240
sg27
Nsba(ibclass
BInstr
p241
(dp242
g2
Nsg17
S'ADRP            X1, #(aQcomMdssDsi_17+0x1B)@PAGE; "err"'
p243
sg19
S'615c0090'
p244
sg21
Vadrp x1, #0xb8c000
p245
sg5
L18446743798839654992L
sg6
Nsg23
S'ADRP'
p246
sg25
S'0xffffffc0007a3a50L'
p247
sg27
Nsba(ibclass
BInstr
p248
(dp249
g2
Nsg17
S'ADD             X2, X2, #__func__.29884@PAGEOFF; "map_and_register_buf"'
p250
sg19
S'42803391'
p251
sg21
Vadd x2, x2, #0xce0
p252
sg5
L18446743798839654996L
sg6
Nsg23
S'ADD'
p253
sg25
S'0xffffffc0007a3a54L'
p254
sg27
Nsba(ibclass
BInstr
p255
(dp256
g2
Nsg17
S'ADD             X1, X1, #(aQcomMdssDsi_17+0x1B)@PAGEOFF; "err"'
p257
sg19
S'212c0591'
p258
sg21
Vadd x1, x1, #0x14b
p259
sg5
L18446743798839655000L
sg6
Nsg23
S'ADD'
p260
sg25
S'0xffffffc0007a3a58L'
p261
sg27
Nsba(ibclass
BInstr
p262
(dp263
g2
Nsg17
S'ADD             X2, X2, #0x138'
p264
sg19
S'42e00491'
p265
sg21
Vadd x2, x2, #0x138
p266
sg5
L18446743798839655004L
sg6
Nsg23
S'ADD'
p267
sg25
S'0xffffffc0007a3a5cL'
p268
sg27
Nsba(ibclass
BInstr
p269
(dp270
g2
Nsg17
S'ADD             X0, X0, #unk_FFFFFFC0013B95C1@PAGEOFF'
p271
sg19
S'00041791'
p272
sg21
Vadd x0, x0, #0x5c1
p273
sg5
L18446743798839655008L
sg6
Nsg23
S'ADD'
p274
sg25
S'0xffffffc0007a3a60L'
p275
sg27
Nsba(ibclass
BInstr
p276
(dp277
g2
Nsg17
S'BL              printk'
p278
sg19
S'c4251a94'
p279
sg21
Vbl #0x689710
p280
sg5
L18446743798839655012L
sg6
Nsg23
S'BL'
p281
sg25
S'0xffffffc0007a3a64L'
p282
sg27
Nsba(ibclass
BInstr
p283
(dp284
g2
Nsg17
S'B               loc_FFFFFFC0007A3AB4'
p285
sg19
S'13000014'
p286
sg21
Vb #0x4c
p287
sg5
L18446743798839655016L
sg6
Nsg23
S'B'
p288
sg25
S'0xffffffc0007a3a68L'
p289
sg27
Nsbasg63
(lp290
S'ADRP reg, #__func__.29884@PAGE'
p291
aS'ADRP reg, #func@PAGE'
p292
aS'ADRP reg, #(aQcomMdssDsi_17+0x1B)@PAGE'
p293
aS'ADD reg, reg, #__func__.29884@PAGEOFF'
p294
aS'ADD reg, reg, #(aQcomMdssDsi_17+0x1B)@PAGEOFF'
p295
aS'ADD reg, reg, #0x138'
p296
aS'ADD reg, reg, #func@PAGEOFF'
p297
aS'BL printk'
p298
aS'B func'
p299
asg71
Nsg5
S'0xffffffc0007a3a48L'
p300
sg73
(lp301
S'0xffffffc0007a3a34L'
p302
asg6
Nsg75
(lp303
S'0xffffffc0007a3ab4L'
p304
asg79
Nsg80
Nsg81
S'8d01fe9050abe03509e35279925e126f'
p305
sg83
S'885bedaffe6865e14f85d80c3931879c'
p306
sg85
(lp307
g232
ag239
ag246
ag253
ag260
ag267
ag274
ag281
ag288
asg87
Nsba(ibclass
BBasicBlock
p308
(dp309
g12
Nsg13
(lp310
(ibclass
BInstr
p311
(dp312
g2
Nsg17
S'LDR             X0, [X0,#0x60]'
p313
sg19
S'003040f9'
p314
sg21
Vldr x0, [x0, #0x60]
p315
sg5
L18446743798839655020L
sg6
Nsg23
S'LDR'
p316
sg25
S'0xffffffc0007a3a6cL'
p317
sg27
Nsba(ibclass
BInstr
p318
(dp319
g2
Nsg17
S'CBZ             X0, loc_FFFFFFC0007A3AB0'
p320
sg19
S'000200b4'
p321
sg21
Vcbz x0, #0x40
p322
sg5
L18446743798839655024L
sg6
Nsg23
S'CBZ'
p323
sg25
S'0xffffffc0007a3a70L'
p324
sg27
Nsbasg63
(lp325
S'LDR reg, mem'
p326
aS'CBZ reg, func'
p327
asg71
Nsg5
S'0xffffffc0007a3a6cL'
p328
sg73
(lp329
S'0xffffffc0007a3a18L'
p330
asg6
Nsg75
(lp331
S'0xffffffc0007a3a74L'
p332
aS'0xffffffc0007a3ab0L'
p333
asg79
Nsg80
Nsg81
S'a0c488049ab653dbdfa1dc805bb83f13'
p334
sg83
S'33abe016da9abbebb8608f035d51762d'
p335
sg85
(lp336
g316
ag323
asg87
Nsba(ibclass
BBasicBlock
p337
(dp338
g12
Nsg13
(lp339
(ibclass
BInstr
p340
(dp341
g2
Nsg17
S'MOV             W0, #3'
p342
sg19
S'60008052'
p343
sg21
Vmovz w0, #0x3
p344
sg5
L18446743798839655028L
sg6
Nsg23
S'MOV'
p345
sg25
S'0xffffffc0007a3a74L'
p346
sg27
Nsba(ibclass
BInstr
p347
(dp348
g2
Nsg17
S'STR             W0, [X1,#8]'
p349
sg19
S'200800b9'
p350
sg21
Vstr w0, [x1, #8]
p351
sg5
L18446743798839655032L
sg6
Nsg23
S'STR'
p352
sg25
S'0xffffffc0007a3a78L'
p353
sg27
Nsba(ibclass
BInstr
p354
(dp355
g2
Nsg17
S'LDR             W0, [X3,#0xFAC]'
p356
sg19
S'60ac4fb9'
p357
sg21
Vldr w0, [x3, #0xfac]
p358
sg5
L18446743798839655036L
sg6
Nsg23
S'LDR'
p359
sg25
S'0xffffffc0007a3a7cL'
p360
sg27
Nsba(ibclass
BInstr
p361
(dp362
g2
Nsg17
S'STR             W0, [X1,#0xC]'
p363
sg19
S'200c00b9'
p364
sg21
Vstr w0, [x1, #0xc]
p365
sg5
L18446743798839655040L
sg6
Nsg23
S'STR'
p366
sg25
S'0xffffffc0007a3a80L'
p367
sg27
Nsba(ibclass
BInstr
p368
(dp369
g2
Nsg17
S'LDR             W0, [X3,#0xFB0]'
p370
sg19
S'60b04fb9'
p371
sg21
Vldr w0, [x3, #0xfb0]
p372
sg5
L18446743798839655044L
sg6
Nsg23
S'LDR'
p373
sg25
S'0xffffffc0007a3a84L'
p374
sg27
Nsba(ibclass
BInstr
p375
(dp376
g2
Nsg17
S'STR             W0, [X1,#0x10]'
p377
sg19
S'201000b9'
p378
sg21
Vstr w0, [x1, #0x10]
p379
sg5
L18446743798839655048L
sg6
Nsg23
S'STR'
p380
sg25
S'0xffffffc0007a3a88L'
p381
sg27
Nsba(ibclass
BInstr
p382
(dp383
g2
Nsg17
S'LDR             W0, [X3,#0xFB4]'
p384
sg19
S'60b44fb9'
p385
sg21
Vldr w0, [x3, #0xfb4]
p386
sg5
L18446743798839655052L
sg6
Nsg23
S'LDR'
p387
sg25
S'0xffffffc0007a3a8cL'
p388
sg27
Nsba(ibclass
BInstr
p389
(dp390
g2
Nsg17
S'STR             W0, [X1,#0x14]'
p391
sg19
S'201400b9'
p392
sg21
Vstr w0, [x1, #0x14]
p393
sg5
L18446743798839655056L
sg6
Nsg23
S'STR'
p394
sg25
S'0xffffffc0007a3a90L'
p395
sg27
Nsba(ibclass
BInstr
p396
(dp397
g2
Nsg17
S'LDR             W0, [X3,#0xFBC]'
p398
sg19
S'60bc4fb9'
p399
sg21
Vldr w0, [x3, #0xfbc]
p400
sg5
L18446743798839655060L
sg6
Nsg23
S'LDR'
p401
sg25
S'0xffffffc0007a3a94L'
p402
sg27
Nsba(ibclass
BInstr
p403
(dp404
g2
Nsg17
S'STR             W0, [X1,#0x18]'
p405
sg19
S'201800b9'
p406
sg21
Vstr w0, [x1, #0x18]
p407
sg5
L18446743798839655064L
sg6
Nsg23
S'STR'
p408
sg25
S'0xffffffc0007a3a98L'
p409
sg27
Nsba(ibclass
BInstr
p410
(dp411
g2
Nsg17
S'LDR             W0, [X3,#0xFC0]'
p412
sg19
S'60c04fb9'
p413
sg21
Vldr w0, [x3, #0xfc0]
p414
sg5
L18446743798839655068L
sg6
Nsg23
S'LDR'
p415
sg25
S'0xffffffc0007a3a9cL'
p416
sg27
Nsba(ibclass
BInstr
p417
(dp418
g2
Nsg17
S'STR             W0, [X1,#0x1C]'
p419
sg19
S'201c00b9'
p420
sg21
Vstr w0, [x1, #0x1c]
p421
sg5
L18446743798839655072L
sg6
Nsg23
S'STR'
p422
sg25
S'0xffffffc0007a3aa0L'
p423
sg27
Nsba(ibclass
BInstr
p424
(dp425
g2
Nsg17
S'LDR             W0, [X3,#0xFC4]'
p426
sg19
S'60c44fb9'
p427
sg21
Vldr w0, [x3, #0xfc4]
p428
sg5
L18446743798839655076L
sg6
Nsg23
S'LDR'
p429
sg25
S'0xffffffc0007a3aa4L'
p430
sg27
Nsba(ibclass
BInstr
p431
(dp432
g2
Nsg17
S'STR             W0, [X1,#0x20]'
p433
sg19
S'202000b9'
p434
sg21
Vstr w0, [x1, #0x20]
p435
sg5
L18446743798839655080L
sg6
Nsg23
S'STR'
p436
sg25
S'0xffffffc0007a3aa8L'
p437
sg27
Nsba(ibclass
BInstr
p438
(dp439
g2
Nsg17
S'B               loc_FFFFFFC0007A3AB4'
p440
sg19
S'02000014'
p441
sg21
Vb #8
p442
sg5
L18446743798839655084L
sg6
Nsg23
g288
sg25
S'0xffffffc0007a3aacL'
p443
sg27
Nsbasg63
(lp444
S'MOV reg, #3'
p445
aS'STR reg, mem'
p446
aS'LDR reg, mem'
p447
aS'STR reg, mem'
p448
aS'LDR reg, mem'
p449
aS'STR reg, mem'
p450
aS'LDR reg, mem'
p451
aS'STR reg, mem'
p452
aS'LDR reg, mem'
p453
aS'STR reg, mem'
p454
aS'LDR reg, mem'
p455
aS'STR reg, mem'
p456
aS'LDR reg, mem'
p457
aS'STR reg, mem'
p458
aS'B func'
p459
asg71
Nsg5
S'0xffffffc0007a3a74L'
p460
sg73
(lp461
S'0xffffffc0007a3a6cL'
p462
asg6
Nsg75
(lp463
S'0xffffffc0007a3ab4L'
p464
asg79
Nsg80
Nsg81
S'5e0fc4005d97d9821c6ec7c51d158b13'
p465
sg83
S'8039782471c4f668c7c547c6c97ded10'
p466
sg85
(lp467
g345
ag352
ag359
ag366
ag373
ag380
ag387
ag394
ag401
ag408
ag415
ag422
ag429
ag436
ag288
asg87
Nsba(ibclass
BBasicBlock
p468
(dp469
g12
Nsg13
(lp470
(ibclass
BInstr
p471
(dp472
g2
Nsg17
S'MOV             W19, #0xFFFFFFEA'
p473
sg19
S'b3028012'
p474
sg21
Vmovn w19, #0x15
p475
sg5
L18446743798839655088L
sg6
Nsg23
S'MOV'
p476
sg25
S'0xffffffc0007a3ab0L'
p477
sg27
Nsbasg63
(lp478
S'MOV reg9, #0xFFFFFFEA'
p479
asg71
Nsg5
S'0xffffffc0007a3ab0L'
p480
sg73
(lp481
S'0xffffffc0007a3a24L'
p482
aS'0xffffffc0007a3a6cL'
p483
asg6
Nsg75
(lp484
S'0xffffffc0007a3ab4L'
p485
asg79
Nsg80
Nsg81
S'17b32100aef1fc19670be7fd58bc85df'
p486
sg83
S'b3606159d658f642fff4e1852538bd21'
p487
sg85
(lp488
g476
asg87
Nsba(ibclass
BBasicBlock
p489
(dp490
g12
Nsg13
(lp491
(ibclass
BInstr
p492
(dp493
g2
Nsg17
S'MOV             W0, W19'
p494
sg19
S'e003132a'
p495
sg21
Vmov w0, w19
p496
sg5
L18446743798839655092L
sg6
Nsg23
S'MOV'
p497
sg25
S'0xffffffc0007a3ab4L'
p498
sg27
Nsba(ibclass
BInstr
p499
(dp500
g2
Nsg17
S'LDR             X19, [SP,#0x10+var_s0]'
p501
sg19
S'f30b40f9'
p502
sg21
Vldr x19, [sp, #0x10]
p503
sg5
L18446743798839655096L
sg6
Nsg23
S'LDR'
p504
sg25
S'0xffffffc0007a3ab8L'
p505
sg27
Nsba(ibclass
BInstr
p506
(dp507
g2
Nsg17
S'LDP             X29, X30, [SP+0x10+var_10],#0x20'
p508
sg19
S'fd7bc2a8'
p509
sg21
Vldp x29, x30, [sp], #0x20
p510
sg5
L18446743798839655100L
sg6
Nsg23
S'LDP'
p511
sg25
S'0xffffffc0007a3abcL'
p512
sg27
Nsba(ibclass
BInstr
p513
(dp514
g2
Nsg17
S'RET'
p515
sg19
S'c0035fd6'
p516
sg21
Vret 
p517
sg5
L18446743798839655104L
sg6
Nsg23
S'RET'
p518
sg25
S'0xffffffc0007a3ac0L'
p519
sg27
Nsbasg63
(lp520
S'MOV reg, reg9'
p521
aS'LDR reg9, mem'
p522
aS'LDP reg9, reg0, mem,#0x20'
p523
ag515
asg71
Nsg5
S'0xffffffc0007a3ab4L'
p524
sg73
(lp525
S'0xffffffc0007a3a34L'
p526
aS'0xffffffc0007a3a48L'
p527
aS'0xffffffc0007a3a74L'
p528
aS'0xffffffc0007a3ab0L'
p529
asg6
Nsg75
(lp530
sg79
Nsg80
Nsg81
S'700b6007ea89efb2d19f65eecdfbdc66'
p531
sg83
S'2540ec61573c55ff75133ef1ef4cbd07'
p532
sg85
(lp533
g497
ag504
ag511
ag518
asg87
Nsbasb.