(ibclass
BFunc
p0
(dp1
S'hash'
p2
NsS'name'
p3
S'msm_comm_smem_get_domain_partition'
p4
sS'start_address'
p5
L18446743798839645524L
sS'flag'
p6
NsS'program'
p7
NsS'bbs'
p8
(lp9
(ibclass
BBasicBlock
p10
(dp11
S'function'
p12
NsS'binstrs'
p13
(lp14
(ibclass
BInstr
p15
(dp16
g2
NsS'disasm'
p17
S'STP             X29, X30, [SP,#-0x10+var_10]!'
p18
sS'bytes'
p19
S'fd7bbea9'
p20
sS'disasm_striped'
p21
Vstp x29, x30, [sp, #-0x20]!
p22
sg5
L18446743798839645524L
sg6
NsS'mnem'
p23
S'STP'
p24
sS'address'
p25
S'0xffffffc0007a1554L'
p26
sS'basicblock'
p27
Nsba(ibclass
BInstr
p28
(dp29
g2
Nsg17
S'MOV             X29, SP'
p30
sg19
S'fd030091'
p31
sg21
Vmov x29, sp
p32
sg5
L18446743798839645528L
sg6
Nsg23
S'MOV'
p33
sg25
S'0xffffffc0007a1558L'
p34
sg27
Nsba(ibclass
BInstr
p35
(dp36
g2
Nsg17
S'STR             X19, [SP,#0x10+var_s0]'
p37
sg19
S'f30b00f9'
p38
sg21
Vstr x19, [sp, #0x10]
p39
sg5
L18446743798839645532L
sg6
Nsg23
S'STR'
p40
sg25
S'0xffffffc0007a155cL'
p41
sg27
Nsba(ibclass
BInstr
p42
(dp43
g2
Nsg17
S'MOV             X6, X0'
p44
sg19
S'e60300aa'
p45
sg21
Vmov x6, x0
p46
sg5
L18446743798839645536L
sg6
Nsg23
S'MOV'
p47
sg25
S'0xffffffc0007a1560L'
p48
sg27
Nsba(ibclass
BInstr
p49
(dp50
g2
Nsg17
S'MOV             X7, X3'
p51
sg19
S'e70303aa'
p52
sg21
Vmov x7, x3
p53
sg5
L18446743798839645540L
sg6
Nsg23
S'MOV'
p54
sg25
S'0xffffffc0007a1564L'
p55
sg27
Nsba(ibclass
BInstr
p56
(dp57
g2
Nsg17
S'MOV             X5, X4'
p58
sg19
S'e50304aa'
p59
sg21
Vmov x5, x4
p60
sg5
L18446743798839645544L
sg6
Nsg23
S'MOV'
p61
sg25
S'0xffffffc0007a1568L'
p62
sg27
Nsba(ibclass
BInstr
p63
(dp64
g2
Nsg17
S'CBZ             X0, loc_FFFFFFC0007A1578'
p65
sg19
S'600000b4'
p66
sg21
Vcbz x0, #0xc
p67
sg5
L18446743798839645548L
sg6
Nsg23
S'CBZ'
p68
sg25
S'0xffffffc0007a156cL'
p69
sg27
NsbasS'disasm_list'
p70
(lp71
S'STP reg9, reg0, mem!'
p72
aS'MOV reg9, SP'
p73
aS'STR reg9, mem'
p74
aS'MOV reg, reg'
p75
aS'MOV reg, reg'
p76
aS'MOV reg, reg'
p77
aS'CBZ reg, func'
p78
asS'end_address'
p79
Nsg5
S'0xffffffc0007a1554L'
p80
sS'preds'
p81
(lp82
sg6
NsS'succs'
p83
(lp84
S'0xffffffc0007a1570L'
p85
aS'0xffffffc0007a1578L'
p86
asS'hash_v3'
p87
NsS'flag_v2'
p88
NsS'hash_v1'
p89
S'610fb3016726f623f449500e3e69ba88'
p90
sS'hash_v2'
p91
S'80702702819403b5212f2606f3cfaad3'
p92
sS'mnen_list'
p93
(lp94
g24
ag33
ag40
ag47
ag54
ag61
ag68
asS'neighbour_disasm_list'
p95
Nsba(ibclass
BBasicBlock
p96
(dp97
g12
Nsg13
(lp98
(ibclass
BInstr
p99
(dp100
g2
Nsg17
S'CBZ             X3, loc_FFFFFFC0007A1578'
p101
sg19
S'430000b4'
p102
sg21
Vcbz x3, #8
p103
sg5
L18446743798839645552L
sg6
Nsg23
S'CBZ'
p104
sg25
S'0xffffffc0007a1570L'
p105
sg27
Nsbasg70
(lp106
S'CBZ reg, func'
p107
asg79
Nsg5
S'0xffffffc0007a1570L'
p108
sg81
(lp109
S'0xffffffc0007a1554L'
p110
asg6
Nsg83
(lp111
S'0xffffffc0007a1574L'
p112
aS'0xffffffc0007a1578L'
p113
asg87
Nsg88
Nsg89
S'de8e361453cf9f764a4abe9d486f8fbe'
p114
sg91
S'1f44e7b7d6ea8c93b4632bf8395c86c6'
p115
sg93
(lp116
g104
asg95
Nsba(ibclass
BBasicBlock
p117
(dp118
g12
Nsg13
(lp119
(ibclass
BInstr
p120
(dp121
g2
Nsg17
S'CBNZ            X4, loc_FFFFFFC0007A15C8'
p122
sg19
S'a40200b5'
p123
sg21
Vcbnz x4, #0x54
p124
sg5
L18446743798839645556L
sg6
Nsg23
S'CBNZ'
p125
sg25
S'0xffffffc0007a1574L'
p126
sg27
Nsbasg70
(lp127
S'CBNZ reg, func'
p128
asg79
Nsg5
S'0xffffffc0007a1574L'
p129
sg81
(lp130
S'0xffffffc0007a1570L'
p131
asg6
Nsg83
(lp132
S'0xffffffc0007a1578L'
p133
aS'0xffffffc0007a15c8L'
p134
asg87
Nsg88
Nsg89
S'482b7d814ad85789cad59d80ecb8562a'
p135
sg91
S'c81d544e8093e123ef790602aa39a0d0'
p136
sg93
(lp137
g125
asg95
Nsba(ibclass
BBasicBlock
p138
(dp139
g12
Nsg13
(lp140
(ibclass
BInstr
p141
(dp142
g2
Nsg17
S'ADRP            X0, #qword_FFFFFFC000E440A0@PAGE'
p143
sg19
S'003500f0'
p144
sg21
Vadrp x0, #0x6a3000
p145
sg5
L18446743798839645560L
sg6
Nsg23
S'ADRP'
p146
sg25
S'0xffffffc0007a1578L'
p147
sg27
Nsba(ibclass
BInstr
p148
(dp149
g2
Nsg17
S'LDR             X0, [X0,#qword_FFFFFFC000E440A0@PAGEOFF]'
p150
sg19
S'005040f9'
p151
sg21
Vldr x0, [x0, #0xa0]
p152
sg5
L18446743798839645564L
sg6
Nsg23
S'LDR'
p153
sg25
S'0xffffffc0007a157cL'
p154
sg27
Nsba(ibclass
BInstr
p155
(dp156
g2
Nsg17
S'LDR             W0, [X0]'
p157
sg19
S'000040b9'
p158
sg21
Vldr w0, [x0]
p159
sg5
L18446743798839645568L
sg6
Nsg23
S'LDR'
p160
sg25
S'0xffffffc0007a1580L'
p161
sg27
Nsba(ibclass
BInstr
p162
(dp163
g2
Nsg17
S'TBZ             W0, #0, loc_FFFFFFC0007A15D8'
p164
sg19
S'a0020036'
p165
sg21
Vtbz w0, #0, #0x54
p166
sg5
L18446743798839645572L
sg6
Nsg23
S'TBZ'
p167
sg25
S'0xffffffc0007a1584L'
p168
sg27
Nsbasg70
(lp169
S'ADRP reg, #func@PAGE'
p170
aS'LDR reg, mem'
p171
aS'LDR reg, mem'
p172
aS'TBZ reg, #0, func'
p173
asg79
Nsg5
S'0xffffffc0007a1578L'
p174
sg81
(lp175
S'0xffffffc0007a1554L'
p176
aS'0xffffffc0007a1570L'
p177
aS'0xffffffc0007a1574L'
p178
asg6
Nsg83
(lp179
S'0xffffffc0007a1588L'
p180
aS'0xffffffc0007a15d8L'
p181
asg87
Nsg88
Nsg89
S'2de94c9e326481f2f467f11acce8dcc9'
p182
sg91
S'f9f7225e2bae36aff04e5d93bafe5e1d'
p183
sg93
(lp184
g146
ag153
ag160
ag167
asg95
Nsba(ibclass
BBasicBlock
p185
(dp186
g12
Nsg13
(lp187
(ibclass
BInstr
p188
(dp189
g2
Nsg17
S'ADRP            X0, #qword_FFFFFFC000E42548@PAGE'
p190
sg19
S'003500b0'
p191
sg21
Vadrp x0, #0x6a1000
p192
sg5
L18446743798839645576L
sg6
Nsg23
S'ADRP'
p193
sg25
S'0xffffffc0007a1588L'
p194
sg27
Nsba(ibclass
BInstr
p195
(dp196
g2
Nsg17
S'LDR             X0, [X0,#qword_FFFFFFC000E42548@PAGEOFF]'
p197
sg19
S'00a442f9'
p198
sg21
Vldr x0, [x0, #0x548]
p199
sg5
L18446743798839645580L
sg6
Nsg23
S'LDR'
p200
sg25
S'0xffffffc0007a158cL'
p201
sg27
Nsba(ibclass
BInstr
p202
(dp203
g2
Nsg17
S'MOV             W19, #0xFFFFFFEA'
p204
sg19
S'b3028012'
p205
sg21
Vmovn w19, #0x15
p206
sg5
L18446743798839645584L
sg6
Nsg23
S'MOV'
p207
sg25
S'0xffffffc0007a1590L'
p208
sg27
Nsba(ibclass
BInstr
p209
(dp210
g2
Nsg17
S'LDR             W0, [X0]'
p211
sg19
S'000040b9'
p212
sg21
Vldr w0, [x0]
p213
sg5
L18446743798839645588L
sg6
Nsg23
S'LDR'
p214
sg25
S'0xffffffc0007a1594L'
p215
sg27
Nsba(ibclass
BInstr
p216
(dp217
g2
Nsg17
S'CBNZ            W0, loc_FFFFFFC0007A15DC'
p218
sg19
S'20020035'
p219
sg21
Vcbnz w0, #0x44
p220
sg5
L18446743798839645592L
sg6
Nsg23
S'CBNZ'
p221
sg25
S'0xffffffc0007a1598L'
p222
sg27
Nsbasg70
(lp223
S'ADRP reg, #func@PAGE'
p224
aS'LDR reg, mem'
p225
aS'MOV reg9, #0xFFFFFFEA'
p226
aS'LDR reg, mem'
p227
aS'CBNZ reg, func'
p228
asg79
Nsg5
S'0xffffffc0007a1588L'
p229
sg81
(lp230
S'0xffffffc0007a1578L'
p231
asg6
Nsg83
(lp232
S'0xffffffc0007a159cL'
p233
aS'0xffffffc0007a15dcL'
p234
asg87
Nsg88
Nsg89
S'd80cc6d531f24a5b2d60307977d236c7'
p235
sg91
S'baaaa11d303d94886d47725c6dea0608'
p236
sg93
(lp237
g193
ag200
ag207
ag214
ag221
asg95
Nsba(ibclass
BBasicBlock
p238
(dp239
g12
Nsg13
(lp240
(ibclass
BInstr
p241
(dp242
g2
Nsg17
S'ADRP            X2, #__func__.34388@PAGE; "msm_vidc_check_scaling_supported"'
p243
sg19
S'42450090'
p244
sg21
Vadrp x2, #0x8a8000
p245
sg5
L18446743798839645596L
sg6
Nsg23
S'ADRP'
p246
sg25
S'0xffffffc0007a159cL'
p247
sg27
Nsba(ibclass
BInstr
p248
(dp249
g2
Nsg17
S'ADRP            X0, #unk_FFFFFFC0013B8D39@PAGE'
p250
sg19
S'a06000f0'
p251
sg21
Vadrp x0, #0xc17000
p252
sg5
L18446743798839645600L
sg6
Nsg23
S'ADRP'
p253
sg25
S'0xffffffc0007a15a0L'
p254
sg27
Nsba(ibclass
BInstr
p255
(dp256
g2
Nsg17
S'ADRP            X1, #(aQcomMdssDsi_17+0x1B)@PAGE; "err"'
p257
sg19
S'615c00d0'
p258
sg21
Vadrp x1, #0xb8e000
p259
sg5
L18446743798839645604L
sg6
Nsg23
S'ADRP'
p260
sg25
S'0xffffffc0007a15a4L'
p261
sg27
Nsba(ibclass
BInstr
p262
(dp263
g2
Nsg17
S'ADD             X2, X2, #__func__.34388@PAGEOFF; "msm_vidc_check_scaling_supported"'
p264
sg19
S'42802391'
p265
sg21
Vadd x2, x2, #0x8e0
p266
sg5
L18446743798839645608L
sg6
Nsg23
S'ADD'
p267
sg25
S'0xffffffc0007a15a8L'
p268
sg27
Nsba(ibclass
BInstr
p269
(dp270
g2
Nsg17
S'ADD             X1, X1, #(aQcomMdssDsi_17+0x1B)@PAGEOFF; "err"'
p271
sg19
S'212c0591'
p272
sg21
Vadd x1, x1, #0x14b
p273
sg5
L18446743798839645612L
sg6
Nsg23
S'ADD'
p274
sg25
S'0xffffffc0007a15acL'
p275
sg27
Nsba(ibclass
BInstr
p276
(dp277
g2
Nsg17
S'ADD             X2, X2, #0x3B8'
p278
sg19
S'42e00e91'
p279
sg21
Vadd x2, x2, #0x3b8
p280
sg5
L18446743798839645616L
sg6
Nsg23
S'ADD'
p281
sg25
S'0xffffffc0007a15b0L'
p282
sg27
Nsba(ibclass
BInstr
p283
(dp284
g2
Nsg17
S'MOV             X3, X6'
p285
sg19
S'e30306aa'
p286
sg21
Vmov x3, x6
p287
sg5
L18446743798839645620L
sg6
Nsg23
S'MOV'
p288
sg25
S'0xffffffc0007a15b4L'
p289
sg27
Nsba(ibclass
BInstr
p290
(dp291
g2
Nsg17
S'MOV             X4, X7'
p292
sg19
S'e40307aa'
p293
sg21
Vmov x4, x7
p294
sg5
L18446743798839645624L
sg6
Nsg23
S'MOV'
p295
sg25
S'0xffffffc0007a15b8L'
p296
sg27
Nsba(ibclass
BInstr
p297
(dp298
g2
Nsg17
S'ADD             X0, X0, #unk_FFFFFFC0013B8D39@PAGEOFF'
p299
sg19
S'00e43491'
p300
sg21
Vadd x0, x0, #0xd39
p301
sg5
L18446743798839645628L
sg6
Nsg23
S'ADD'
p302
sg25
S'0xffffffc0007a15bcL'
p303
sg27
Nsba(ibclass
BInstr
p304
(dp305
g2
Nsg17
S'BL              printk'
p306
sg19
S'ed2e1a94'
p307
sg21
Vbl #0x68bbb4
p308
sg5
L18446743798839645632L
sg6
Nsg23
S'BL'
p309
sg25
S'0xffffffc0007a15c0L'
p310
sg27
Nsba(ibclass
BInstr
p311
(dp312
g2
Nsg17
S'B               loc_FFFFFFC0007A15DC'
p313
sg19
S'06000014'
p314
sg21
Vb #0x18
p315
sg5
L18446743798839645636L
sg6
Nsg23
S'B'
p316
sg25
S'0xffffffc0007a15c4L'
p317
sg27
Nsbasg70
(lp318
S'ADRP reg, #__func__.34388@PAGE'
p319
aS'ADRP reg, #func@PAGE'
p320
aS'ADRP reg, #(aQcomMdssDsi_17+0x1B)@PAGE'
p321
aS'ADD reg, reg, #__func__.34388@PAGEOFF'
p322
aS'ADD reg, reg, #(aQcomMdssDsi_17+0x1B)@PAGEOFF'
p323
aS'ADD reg, reg, #0x3B8'
p324
aS'MOV reg, reg'
p325
aS'MOV reg, reg'
p326
aS'ADD reg, reg, #func@PAGEOFF'
p327
aS'BL printk'
p328
aS'B func'
p329
asg79
Nsg5
S'0xffffffc0007a159cL'
p330
sg81
(lp331
S'0xffffffc0007a1588L'
p332
asg6
Nsg83
(lp333
S'0xffffffc0007a15dcL'
p334
asg87
Nsg88
Nsg89
S'ee976f22153ecd27d328d685f753457b'
p335
sg91
S'920b12c52fd4469c9a5a18259181174d'
p336
sg93
(lp337
g246
ag253
ag260
ag267
ag274
ag281
ag288
ag295
ag302
ag309
ag316
asg95
Nsba(ibclass
BBasicBlock
p338
(dp339
g12
Nsg13
(lp340
(ibclass
BInstr
p341
(dp342
g2
Nsg17
S'LDR             X0, [X0,#0x9B8]'
p343
sg19
S'00dc44f9'
p344
sg21
Vldr x0, [x0, #0x9b8]
p345
sg5
L18446743798839645640L
sg6
Nsg23
S'LDR'
p346
sg25
S'0xffffffc0007a15c8L'
p347
sg27
Nsba(ibclass
BInstr
p348
(dp349
g2
Nsg17
S'BL              msm_smem_get_domain_partition'
p350
sg19
S'b8380094'
p351
sg21
Vbl #0xe2e0
p352
sg5
L18446743798839645644L
sg6
Nsg23
S'BL'
p353
sg25
S'0xffffffc0007a15ccL'
p354
sg27
Nsba(ibclass
BInstr
p355
(dp356
g2
Nsg17
S'MOV             W19, W0'
p357
sg19
S'f303002a'
p358
sg21
Vmov w19, w0
p359
sg5
L18446743798839645648L
sg6
Nsg23
S'MOV'
p360
sg25
S'0xffffffc0007a15d0L'
p361
sg27
Nsba(ibclass
BInstr
p362
(dp363
g2
Nsg17
S'B               loc_FFFFFFC0007A15DC'
p364
sg19
S'02000014'
p365
sg21
Vb #8
p366
sg5
L18446743798839645652L
sg6
Nsg23
g316
sg25
S'0xffffffc0007a15d4L'
p367
sg27
Nsbasg70
(lp368
S'LDR reg, mem'
p369
aS'BL msm_smem_get_domain_partition'
p370
aS'MOV reg9, reg'
p371
aS'B func'
p372
asg79
Nsg5
S'0xffffffc0007a15c8L'
p373
sg81
(lp374
S'0xffffffc0007a1574L'
p375
asg6
Nsg83
(lp376
S'0xffffffc0007a15dcL'
p377
asg87
Nsg88
Nsg89
S'fe112feb171ffa3b20f6ae1e994f0279'
p378
sg91
S'f7645fc084b9ec8bfb34e2289642c220'
p379
sg93
(lp380
g346
ag353
ag360
ag316
asg95
Nsba(ibclass
BBasicBlock
p381
(dp382
g12
Nsg13
(lp383
(ibclass
BInstr
p384
(dp385
g2
Nsg17
S'MOV             W19, #0xFFFFFFEA'
p386
sg19
S'b3028012'
p387
sg21
Vmovn w19, #0x15
p388
sg5
L18446743798839645656L
sg6
Nsg23
S'MOV'
p389
sg25
S'0xffffffc0007a15d8L'
p390
sg27
Nsbasg70
(lp391
S'MOV reg9, #0xFFFFFFEA'
p392
asg79
Nsg5
S'0xffffffc0007a15d8L'
p393
sg81
(lp394
S'0xffffffc0007a1578L'
p395
asg6
Nsg83
(lp396
S'0xffffffc0007a15dcL'
p397
asg87
Nsg88
Nsg89
S'17b32100aef1fc19670be7fd58bc85df'
p398
sg91
S'b3606159d658f642fff4e1852538bd21'
p399
sg93
(lp400
g389
asg95
Nsba(ibclass
BBasicBlock
p401
(dp402
g12
Nsg13
(lp403
(ibclass
BInstr
p404
(dp405
g2
Nsg17
S'MOV             W0, W19'
p406
sg19
S'e003132a'
p407
sg21
Vmov w0, w19
p408
sg5
L18446743798839645660L
sg6
Nsg23
S'MOV'
p409
sg25
S'0xffffffc0007a15dcL'
p410
sg27
Nsba(ibclass
BInstr
p411
(dp412
g2
Nsg17
S'LDR             X19, [SP,#0x10+var_s0]'
p413
sg19
S'f30b40f9'
p414
sg21
Vldr x19, [sp, #0x10]
p415
sg5
L18446743798839645664L
sg6
Nsg23
S'LDR'
p416
sg25
S'0xffffffc0007a15e0L'
p417
sg27
Nsba(ibclass
BInstr
p418
(dp419
g2
Nsg17
S'LDP             X29, X30, [SP+0x10+var_10],#0x20'
p420
sg19
S'fd7bc2a8'
p421
sg21
Vldp x29, x30, [sp], #0x20
p422
sg5
L18446743798839645668L
sg6
Nsg23
S'LDP'
p423
sg25
S'0xffffffc0007a15e4L'
p424
sg27
Nsba(ibclass
BInstr
p425
(dp426
g2
Nsg17
S'RET'
p427
sg19
S'c0035fd6'
p428
sg21
Vret 
p429
sg5
L18446743798839645672L
sg6
Nsg23
S'RET'
p430
sg25
S'0xffffffc0007a15e8L'
p431
sg27
Nsbasg70
(lp432
S'MOV reg, reg9'
p433
aS'LDR reg9, mem'
p434
aS'LDP reg9, reg0, mem,#0x20'
p435
ag427
asg79
Nsg5
S'0xffffffc0007a15dcL'
p436
sg81
(lp437
S'0xffffffc0007a1588L'
p438
aS'0xffffffc0007a159cL'
p439
aS'0xffffffc0007a15c8L'
p440
aS'0xffffffc0007a15d8L'
p441
asg6
Nsg83
(lp442
sg87
Nsg88
Nsg89
S'700b6007ea89efb2d19f65eecdfbdc66'
p443
sg91
S'2540ec61573c55ff75133ef1ef4cbd07'
p444
sg93
(lp445
g409
ag416
ag423
ag430
asg95
Nsbasb.