(ibclass
BFunc
p0
(dp1
S'hash'
p2
NsS'name'
p3
S'msm_isp_update_camif_output_count'
p4
sS'start_address'
p5
L18446743798840012400L
sS'flag'
p6
NsS'program'
p7
NsS'bbs'
p8
(lp9
(ibclass
BBasicBlock
p10
(dp11
S'function'
p12
NsS'binstrs'
p13
(lp14
(ibclass
BInstr
p15
(dp16
g2
NsS'disasm'
p17
S'ADD             X6, X0, #4,LSL#12'
p18
sS'bytes'
p19
S'06104091'
p20
sS'disasm_striped'
p21
Vadd x6, x0, #4, lsl #12
p22
sg5
L18446743798840012400L
sg6
NsS'mnem'
p23
S'ADD'
p24
sS'address'
p25
S'0xffffffc0007fae70L'
p26
sS'basicblock'
p27
Nsba(ibclass
BInstr
p28
(dp29
g2
Nsg17
S'ADD             X0, X0, #5,LSL#12'
p30
sg19
S'00144091'
p31
sg21
Vadd x0, x0, #5, lsl #12
p32
sg5
L18446743798840012404L
sg6
Nsg23
S'ADD'
p33
sg25
S'0xffffffc0007fae74L'
p34
sg27
Nsba(ibclass
BInstr
p35
(dp36
g2
Nsg17
S'ADD             X3, X0, #0x10D'
p37
sg19
S'03340491'
p38
sg21
Vadd x3, x0, #0x10d
p39
sg5
L18446743798840012408L
sg6
Nsg23
S'ADD'
p40
sg25
S'0xffffffc0007fae78L'
p41
sg27
Nsba(ibclass
BInstr
p42
(dp43
g2
Nsg17
S'MOV             X2, #0'
p44
sg19
S'020080d2'
p45
sg21
Vmovz x2, #0
p46
sg5
L18446743798840012412L
sg6
Nsg23
S'MOV'
p47
sg25
S'0xffffffc0007fae7cL'
p48
sg27
Nsba(ibclass
BInstr
p49
(dp50
g2
Nsg17
S'ADD             X6, X6, #0x168'
p51
sg19
S'c6a00591'
p52
sg21
Vadd x6, x6, #0x168
p53
sg5
L18446743798840012416L
sg6
Nsg23
S'ADD'
p54
sg25
S'0xffffffc0007fae80L'
p55
sg27
Nsba(ibclass
BInstr
p56
(dp57
g2
Nsg17
S'MOV             X7, #0x1E0'
p58
sg19
S'073c80d2'
p59
sg21
Vmovz x7, #0x1e0
p60
sg5
L18446743798840012420L
sg6
Nsg23
S'MOV'
p61
sg25
S'0xffffffc0007fae84L'
p62
sg27
Nsba(ibclass
BInstr
p63
(dp64
g2
Nsg17
S'ADD             X0, X0, #0x10E'
p65
sg19
S'00380491'
p66
sg21
Vadd x0, x0, #0x10e
p67
sg5
L18446743798840012424L
sg6
Nsg23
S'ADD'
p68
sg25
S'0xffffffc0007fae88L'
p69
sg27
NsbasS'disasm_list'
p70
(lp71
S'ADD reg, reg, #4,LSL#12'
p72
aS'ADD reg, reg, #5,LSL#12'
p73
aS'ADD reg, reg, #0x10D'
p74
aS'MOV reg, #0'
p75
aS'ADD reg, reg, #0x168'
p76
aS'MOV reg, #0x1E0'
p77
aS'ADD reg, reg, #0x10E'
p78
asS'end_address'
p79
Nsg5
S'0xffffffc0007fae70L'
p80
sS'preds'
p81
(lp82
sg6
NsS'succs'
p83
(lp84
S'0xffffffc0007fae8cL'
p85
asS'hash_v3'
p86
NsS'flag_v2'
p87
NsS'hash_v1'
p88
S'd507c1a49383072e5fc7c6f7e8e1023d'
p89
sS'hash_v2'
p90
S'b55153aa295c792430afd7dce8626cad'
p91
sS'mnen_list'
p92
(lp93
g24
ag33
ag40
ag47
ag54
ag61
ag68
asS'neighbour_disasm_list'
p94
Nsba(ibclass
BBasicBlock
p95
(dp96
g12
Nsg13
(lp97
(ibclass
BInstr
p98
(dp99
g2
Nsg17
S'LDRB            W4, [X1]'
p100
sg19
S'24004039'
p101
sg21
Vldrb w4, [x1]
p102
sg5
L18446743798840012428L
sg6
Nsg23
S'LDR'
p103
sg25
S'0xffffffc0007fae8cL'
p104
sg27
Nsba(ibclass
BInstr
p105
(dp106
g2
Nsg17
S'CMP             W4, W2'
p107
sg19
S'9f00026b'
p108
sg21
Vcmp w4, w2
p109
sg5
L18446743798840012432L
sg6
Nsg23
S'CMP'
p110
sg25
S'0xffffffc0007fae90L'
p111
sg27
Nsba(ibclass
BInstr
p112
(dp113
g2
Nsg17
S'B.LE            locret_FFFFFFC0007FAF04'
p114
sg19
S'8d030054'
p115
sg21
Vb.le #0x70
p116
sg5
L18446743798840012436L
sg6
Nsg23
S'B'
p117
sg25
S'0xffffffc0007fae94L'
p118
sg27
Nsbasg70
(lp119
S'LDRB reg, mem'
p120
aS'CMP reg, reg'
p121
aS'B.LE func'
p122
asg79
Nsg5
S'0xffffffc0007fae8cL'
p123
sg81
(lp124
S'0xffffffc0007fae70L'
p125
aS'0xffffffc0007faefcL'
p126
asg6
Nsg83
(lp127
S'0xffffffc0007fae98L'
p128
aS'0xffffffc0007faf04L'
p129
asg86
Nsg87
Nsg88
S'fa4df767a85c49648339e2dc5c6807f6'
p130
sg90
S'5beb37e4483cf899bea81c8e86661e3a'
p131
sg92
(lp132
g103
ag110
ag117
asg94
Nsba(ibclass
BBasicBlock
p133
(dp134
g12
Nsg13
(lp135
(ibclass
BInstr
p136
(dp137
g2
Nsg17
S'ADD             X4, X1, X2,LSL#2'
p138
sg19
S'2408028b'
p139
sg21
Vadd x4, x1, x2, lsl #2
p140
sg5
L18446743798840012440L
sg6
Nsg23
S'ADD'
p141
sg25
S'0xffffffc0007fae98L'
p142
sg27
Nsba(ibclass
BInstr
p143
(dp144
g2
Nsg17
S'LDRB            W4, [X4,#4]'
p145
sg19
S'84104039'
p146
sg21
Vldrb w4, [x4, #4]
p147
sg5
L18446743798840012444L
sg6
Nsg23
S'LDR'
p148
sg25
S'0xffffffc0007fae9cL'
p149
sg27
Nsba(ibclass
BInstr
p150
(dp151
g2
Nsg17
S'MADD            X4, X4, X7, X6'
p152
sg19
S'8418079b'
p153
sg21
Vmadd x4, x4, x7, x6
p154
sg5
L18446743798840012448L
sg6
Nsg23
S'MADD'
p155
sg25
S'0xffffffc0007faea0L'
p156
sg27
Nsba(ibclass
BInstr
p157
(dp158
g2
Nsg17
S'LDR             W5, [X4,#0x10]'
p159
sg19
S'851040b9'
p160
sg21
Vldr w5, [x4, #0x10]
p161
sg5
L18446743798840012452L
sg6
Nsg23
S'LDR'
p162
sg25
S'0xffffffc0007faea4L'
p163
sg27
Nsba(ibclass
BInstr
p164
(dp165
g2
Nsg17
S'CMP             W5, #4'
p166
sg19
S'bf100071'
p167
sg21
Vcmp w5, #4
p168
sg5
L18446743798840012456L
sg6
Nsg23
S'CMP'
p169
sg25
S'0xffffffc0007faea8L'
p170
sg27
Nsba(ibclass
BInstr
p171
(dp172
g2
Nsg17
S'B.HI            loc_FFFFFFC0007FAEFC'
p173
sg19
S'88020054'
p174
sg21
Vb.hi #0x50
p175
sg5
L18446743798840012460L
sg6
Nsg23
g117
sg25
S'0xffffffc0007faeacL'
p176
sg27
Nsbasg70
(lp177
S'ADD reg, reg, reg,LSL#2'
p178
aS'LDRB reg, mem'
p179
aS'MADD reg, reg, reg, reg'
p180
aS'LDR reg, mem'
p181
aS'CMP reg, #4'
p182
aS'B.HI func'
p183
asg79
Nsg5
S'0xffffffc0007fae98L'
p184
sg81
(lp185
S'0xffffffc0007fae8cL'
p186
asg6
Nsg83
(lp187
S'0xffffffc0007faeb0L'
p188
aS'0xffffffc0007faefcL'
p189
asg86
Nsg87
Nsg88
S'd8f99f039b9d65cb8d9135dee7fb305a'
p190
sg90
S'429ea898ed5f7bc3138f616ef85f4663'
p191
sg92
(lp192
g141
ag148
ag155
ag162
ag169
ag117
asg94
Nsba(ibclass
BBasicBlock
p193
(dp194
g12
Nsg13
(lp195
(ibclass
BInstr
p196
(dp197
g2
Nsg17
S'LDR             W4, [X1,#0x20]'
p198
sg19
S'242040b9'
p199
sg21
Vldr w4, [x1, #0x20]
p200
sg5
L18446743798840012464L
sg6
Nsg23
S'LDR'
p201
sg25
S'0xffffffc0007faeb0L'
p202
sg27
Nsba(ibclass
BInstr
p203
(dp204
g2
Nsg17
S'B.EQ            loc_FFFFFFC0007FAEC0'
p205
sg19
S'60000054'
p206
sg21
Vb.eq #0xc
p207
sg5
L18446743798840012468L
sg6
Nsg23
g117
sg25
S'0xffffffc0007faeb4L'
p208
sg27
Nsbasg70
(lp209
S'LDR reg, mem'
p210
aS'B.EQ func'
p211
asg79
Nsg5
S'0xffffffc0007faeb0L'
p212
sg81
(lp213
S'0xffffffc0007fae98L'
p214
asg6
Nsg83
(lp215
S'0xffffffc0007faeb8L'
p216
aS'0xffffffc0007faec0L'
p217
asg86
Nsg87
Nsg88
S'd269f92813b7f9be0535ea2960d9947c'
p218
sg90
S'473cf654e9b2fa8440e59d420a9fb56d'
p219
sg92
(lp220
g201
ag117
asg94
Nsba(ibclass
BBasicBlock
p221
(dp222
g12
Nsg13
(lp223
(ibclass
BInstr
p224
(dp225
g2
Nsg17
S'CMP             W5, #2'
p226
sg19
S'bf080071'
p227
sg21
Vcmp w5, #2
p228
sg5
L18446743798840012472L
sg6
Nsg23
S'CMP'
p229
sg25
S'0xffffffc0007faeb8L'
p230
sg27
Nsba(ibclass
BInstr
p231
(dp232
g2
Nsg17
S'B.HI            loc_FFFFFFC0007FAEE0'
p233
sg19
S'28010054'
p234
sg21
Vb.hi #0x24
p235
sg5
L18446743798840012476L
sg6
Nsg23
g117
sg25
S'0xffffffc0007faebcL'
p236
sg27
Nsbasg70
(lp237
S'CMP reg, #2'
p238
aS'B.HI func'
p239
asg79
Nsg5
S'0xffffffc0007faeb8L'
p240
sg81
(lp241
S'0xffffffc0007faeb0L'
p242
asg6
Nsg83
(lp243
S'0xffffffc0007faec0L'
p244
aS'0xffffffc0007faee0L'
p245
asg86
Nsg87
Nsg88
S'c78fd620a449e3c979d3f3ec12d4ee88'
p246
sg90
S'942272c425365d83daff152fc7b2ce0c'
p247
sg92
(lp248
g229
ag117
asg94
Nsba(ibclass
BBasicBlock
p249
(dp250
g12
Nsg13
(lp251
(ibclass
BInstr
p252
(dp253
g2
Nsg17
S'CMP             W4, #1'
p254
sg19
S'9f040071'
p255
sg21
Vcmp w4, #1
p256
sg5
L18446743798840012480L
sg6
Nsg23
S'CMP'
p257
sg25
S'0xffffffc0007faec0L'
p258
sg27
Nsba(ibclass
BInstr
p259
(dp260
g2
Nsg17
S'LDRB            W4, [X3]'
p261
sg19
S'64004039'
p262
sg21
Vldrb w4, [x3]
p263
sg5
L18446743798840012484L
sg6
Nsg23
S'LDR'
p264
sg25
S'0xffffffc0007faec4L'
p265
sg27
Nsba(ibclass
BInstr
p266
(dp267
g2
Nsg17
S'B.NE            loc_FFFFFFC0007FAED4'
p268
sg19
S'61000054'
p269
sg21
Vb.ne #0xc
p270
sg5
L18446743798840012488L
sg6
Nsg23
g117
sg25
S'0xffffffc0007faec8L'
p271
sg27
Nsbasg70
(lp272
S'CMP reg, #1'
p273
aS'LDRB reg, mem'
p274
aS'B.NE func'
p275
asg79
Nsg5
S'0xffffffc0007faec0L'
p276
sg81
(lp277
S'0xffffffc0007faeb0L'
p278
aS'0xffffffc0007faeb8L'
p279
asg6
Nsg83
(lp280
S'0xffffffc0007faeccL'
p281
aS'0xffffffc0007faed4L'
p282
asg86
Nsg87
Nsg88
S'f14ba23bebb3d568b56c4c24e1549c7e'
p283
sg90
S'eb291230c932b905b037b156bdf6fd45'
p284
sg92
(lp285
g257
ag264
ag117
asg94
Nsba(ibclass
BBasicBlock
p286
(dp287
g12
Nsg13
(lp288
(ibclass
BInstr
p289
(dp290
g2
Nsg17
S'ADD             W4, W4, #1'
p291
sg19
S'84040011'
p292
sg21
Vadd w4, w4, #1
p293
sg5
L18446743798840012492L
sg6
Nsg23
S'ADD'
p294
sg25
S'0xffffffc0007faeccL'
p295
sg27
Nsba(ibclass
BInstr
p296
(dp297
g2
Nsg17
S'B               loc_FFFFFFC0007FAED8'
p298
sg19
S'02000014'
p299
sg21
Vb #8
p300
sg5
L18446743798840012496L
sg6
Nsg23
g117
sg25
S'0xffffffc0007faed0L'
p301
sg27
Nsbasg70
(lp302
S'ADD reg, reg, #1'
p303
aS'B func'
p304
asg79
Nsg5
S'0xffffffc0007faeccL'
p305
sg81
(lp306
S'0xffffffc0007faec0L'
p307
asg6
Nsg83
(lp308
S'0xffffffc0007faed8L'
p309
asg86
Nsg87
Nsg88
S'f59ed0fb4617df9a98cc94b1d7075f92'
p310
sg90
S'cee4ed047876b9909a7833592f765a91'
p311
sg92
(lp312
g294
ag117
asg94
Nsba(ibclass
BBasicBlock
p313
(dp314
g12
Nsg13
(lp315
(ibclass
BInstr
p316
(dp317
g2
Nsg17
S'SUB             W4, W4, #1'
p318
sg19
S'84040051'
p319
sg21
Vsub w4, w4, #1
p320
sg5
L18446743798840012500L
sg6
Nsg23
S'SUB'
p321
sg25
S'0xffffffc0007faed4L'
p322
sg27
Nsbasg70
(lp323
S'SUB reg, reg, #1'
p324
asg79
Nsg5
S'0xffffffc0007faed4L'
p325
sg81
(lp326
S'0xffffffc0007faec0L'
p327
asg6
Nsg83
(lp328
S'0xffffffc0007faed8L'
p329
asg86
Nsg87
Nsg88
S'241dd841abade20fcb27b8a9f494e1eb'
p330
sg90
S'e272600276d3e58f6eccc0178c369784'
p331
sg92
(lp332
g321
asg94
Nsba(ibclass
BBasicBlock
p333
(dp334
g12
Nsg13
(lp335
(ibclass
BInstr
p336
(dp337
g2
Nsg17
S'STRB            W4, [X3]'
p338
sg19
S'64000039'
p339
sg21
Vstrb w4, [x3]
p340
sg5
L18446743798840012504L
sg6
Nsg23
S'STR'
p341
sg25
S'0xffffffc0007faed8L'
p342
sg27
Nsba(ibclass
BInstr
p343
(dp344
g2
Nsg17
S'B               loc_FFFFFFC0007FAEFC'
p345
sg19
S'08000014'
p346
sg21
Vb #0x20
p347
sg5
L18446743798840012508L
sg6
Nsg23
g117
sg25
S'0xffffffc0007faedcL'
p348
sg27
Nsbasg70
(lp349
S'STRB reg, mem'
p350
aS'B func'
p351
asg79
Nsg5
S'0xffffffc0007faed8L'
p352
sg81
(lp353
S'0xffffffc0007faeccL'
p354
aS'0xffffffc0007faed4L'
p355
asg6
Nsg83
(lp356
S'0xffffffc0007faefcL'
p357
asg86
Nsg87
Nsg88
S'bb4d1d0d0e01d20d3b7cbdf52fe2caa6'
p358
sg90
S'ed8de5ef8047facdb1c726a3e7a5f2b4'
p359
sg92
(lp360
g341
ag117
asg94
Nsba(ibclass
BBasicBlock
p361
(dp362
g12
Nsg13
(lp363
(ibclass
BInstr
p364
(dp365
g2
Nsg17
S'CMP             W4, #1'
p366
sg19
S'9f040071'
p367
sg21
Vcmp w4, #1
p368
sg5
L18446743798840012512L
sg6
Nsg23
S'CMP'
p369
sg25
S'0xffffffc0007faee0L'
p370
sg27
Nsba(ibclass
BInstr
p371
(dp372
g2
Nsg17
S'LDRB            W4, [X0]'
p373
sg19
S'04004039'
p374
sg21
Vldrb w4, [x0]
p375
sg5
L18446743798840012516L
sg6
Nsg23
S'LDR'
p376
sg25
S'0xffffffc0007faee4L'
p377
sg27
Nsba(ibclass
BInstr
p378
(dp379
g2
Nsg17
S'B.NE            loc_FFFFFFC0007FAEF4'
p380
sg19
S'61000054'
p381
sg21
Vb.ne #0xc
p382
sg5
L18446743798840012520L
sg6
Nsg23
g117
sg25
S'0xffffffc0007faee8L'
p383
sg27
Nsbasg70
(lp384
S'CMP reg, #1'
p385
aS'LDRB reg, mem'
p386
aS'B.NE func'
p387
asg79
Nsg5
S'0xffffffc0007faee0L'
p388
sg81
(lp389
S'0xffffffc0007faeb8L'
p390
asg6
Nsg83
(lp391
S'0xffffffc0007faeecL'
p392
aS'0xffffffc0007faef4L'
p393
asg86
Nsg87
Nsg88
S'f14ba23bebb3d568b56c4c24e1549c7e'
p394
sg90
S'eb291230c932b905b037b156bdf6fd45'
p395
sg92
(lp396
g369
ag376
ag117
asg94
Nsba(ibclass
BBasicBlock
p397
(dp398
g12
Nsg13
(lp399
(ibclass
BInstr
p400
(dp401
g2
Nsg17
S'ADD             W4, W4, #1'
p402
sg19
S'84040011'
p403
sg21
Vadd w4, w4, #1
p404
sg5
L18446743798840012524L
sg6
Nsg23
S'ADD'
p405
sg25
S'0xffffffc0007faeecL'
p406
sg27
Nsba(ibclass
BInstr
p407
(dp408
g2
Nsg17
S'B               loc_FFFFFFC0007FAEF8'
p409
sg19
S'02000014'
p410
sg21
Vb #8
p411
sg5
L18446743798840012528L
sg6
Nsg23
g117
sg25
S'0xffffffc0007faef0L'
p412
sg27
Nsbasg70
(lp413
S'ADD reg, reg, #1'
p414
aS'B func'
p415
asg79
Nsg5
S'0xffffffc0007faeecL'
p416
sg81
(lp417
S'0xffffffc0007faee0L'
p418
asg6
Nsg83
(lp419
S'0xffffffc0007faef8L'
p420
asg86
Nsg87
Nsg88
S'f59ed0fb4617df9a98cc94b1d7075f92'
p421
sg90
S'cee4ed047876b9909a7833592f765a91'
p422
sg92
(lp423
g405
ag117
asg94
Nsba(ibclass
BBasicBlock
p424
(dp425
g12
Nsg13
(lp426
(ibclass
BInstr
p427
(dp428
g2
Nsg17
S'SUB             W4, W4, #1'
p429
sg19
S'84040051'
p430
sg21
Vsub w4, w4, #1
p431
sg5
L18446743798840012532L
sg6
Nsg23
S'SUB'
p432
sg25
S'0xffffffc0007faef4L'
p433
sg27
Nsbasg70
(lp434
S'SUB reg, reg, #1'
p435
asg79
Nsg5
S'0xffffffc0007faef4L'
p436
sg81
(lp437
S'0xffffffc0007faee0L'
p438
asg6
Nsg83
(lp439
S'0xffffffc0007faef8L'
p440
asg86
Nsg87
Nsg88
S'241dd841abade20fcb27b8a9f494e1eb'
p441
sg90
S'e272600276d3e58f6eccc0178c369784'
p442
sg92
(lp443
g432
asg94
Nsba(ibclass
BBasicBlock
p444
(dp445
g12
Nsg13
(lp446
(ibclass
BInstr
p447
(dp448
g2
Nsg17
S'STRB            W4, [X0]'
p449
sg19
S'04000039'
p450
sg21
Vstrb w4, [x0]
p451
sg5
L18446743798840012536L
sg6
Nsg23
S'STR'
p452
sg25
S'0xffffffc0007faef8L'
p453
sg27
Nsbasg70
(lp454
S'STRB reg, mem'
p455
asg79
Nsg5
S'0xffffffc0007faef8L'
p456
sg81
(lp457
S'0xffffffc0007faeecL'
p458
aS'0xffffffc0007faef4L'
p459
asg6
Nsg83
(lp460
S'0xffffffc0007faefcL'
p461
asg86
Nsg87
Nsg88
S'3fe0dfff438296bb525e0e8642586c2d'
p462
sg90
S'2f0115d1bb5d9a375d04ee947aa49044'
p463
sg92
(lp464
g452
asg94
Nsba(ibclass
BBasicBlock
p465
(dp466
g12
Nsg13
(lp467
(ibclass
BInstr
p468
(dp469
g2
Nsg17
S'ADD             X2, X2, #1'
p470
sg19
S'42040091'
p471
sg21
Vadd x2, x2, #1
p472
sg5
L18446743798840012540L
sg6
Nsg23
S'ADD'
p473
sg25
S'0xffffffc0007faefcL'
p474
sg27
Nsba(ibclass
BInstr
p475
(dp476
g2
Nsg17
S'B               loc_FFFFFFC0007FAE8C'
p477
sg19
S'e3ffff17'
p478
sg21
Vb #0xffffffffffffff8c
p479
sg5
L18446743798840012544L
sg6
Nsg23
g117
sg25
S'0xffffffc0007faf00L'
p480
sg27
Nsbasg70
(lp481
S'ADD reg, reg, #1'
p482
aS'B func'
p483
asg79
Nsg5
S'0xffffffc0007faefcL'
p484
sg81
(lp485
S'0xffffffc0007fae98L'
p486
aS'0xffffffc0007faed8L'
p487
aS'0xffffffc0007faef8L'
p488
asg6
Nsg83
(lp489
S'0xffffffc0007fae8cL'
p490
asg86
Nsg87
Nsg88
S'f59ed0fb4617df9a98cc94b1d7075f92'
p491
sg90
S'cee4ed047876b9909a7833592f765a91'
p492
sg92
(lp493
g473
ag117
asg94
Nsba(ibclass
BBasicBlock
p494
(dp495
g12
Nsg13
(lp496
(ibclass
BInstr
p497
(dp498
g2
Nsg17
S'RET'
p499
sg19
S'c0035fd6'
p500
sg21
Vret 
p501
sg5
L18446743798840012548L
sg6
Nsg23
S'RET'
p502
sg25
S'0xffffffc0007faf04L'
p503
sg27
Nsbasg70
(lp504
g499
asg79
Nsg5
S'0xffffffc0007faf04L'
p505
sg81
(lp506
S'0xffffffc0007fae8cL'
p507
asg6
Nsg83
(lp508
sg86
Nsg87
Nsg88
S'fb902bc4807c307b9309f2b528b96f2b'
p509
sg90
S'fb902bc4807c307b9309f2b528b96f2b'
p510
sg92
(lp511
g502
asg94
Nsbasb.