(ibclass
BFunc
p0
(dp1
S'hash'
p2
NsS'name'
p3
S'msm_comm_smem_cache_operations'
p4
sS'start_address'
p5
L18446743798839641756L
sS'flag'
p6
NsS'program'
p7
NsS'bbs'
p8
(lp9
(ibclass
BBasicBlock
p10
(dp11
S'function'
p12
NsS'binstrs'
p13
(lp14
(ibclass
BInstr
p15
(dp16
g2
NsS'disasm'
p17
S'STP             X29, X30, [SP,#-0x10+var_10]!'
p18
sS'bytes'
p19
S'fd7bbea9'
p20
sS'disasm_striped'
p21
Vstp x29, x30, [sp, #-0x20]!
p22
sg5
L18446743798839641756L
sg6
NsS'mnem'
p23
S'STP'
p24
sS'address'
p25
S'0xffffffc0007a069cL'
p26
sS'basicblock'
p27
Nsba(ibclass
BInstr
p28
(dp29
g2
Nsg17
S'MOV             X29, SP'
p30
sg19
S'fd030091'
p31
sg21
Vmov x29, sp
p32
sg5
L18446743798839641760L
sg6
Nsg23
S'MOV'
p33
sg25
S'0xffffffc0007a06a0L'
p34
sg27
Nsba(ibclass
BInstr
p35
(dp36
g2
Nsg17
S'STR             X19, [SP,#0x10+var_s0]'
p37
sg19
S'f30b00f9'
p38
sg21
Vstr x19, [sp, #0x10]
p39
sg5
L18446743798839641764L
sg6
Nsg23
S'STR'
p40
sg25
S'0xffffffc0007a06a4L'
p41
sg27
Nsba(ibclass
BInstr
p42
(dp43
g2
Nsg17
S'MOV             X3, X0'
p44
sg19
S'e30300aa'
p45
sg21
Vmov x3, x0
p46
sg5
L18446743798839641768L
sg6
Nsg23
S'MOV'
p47
sg25
S'0xffffffc0007a06a8L'
p48
sg27
Nsba(ibclass
BInstr
p49
(dp50
g2
Nsg17
S'MOV             X4, X1'
p51
sg19
S'e40301aa'
p52
sg21
Vmov x4, x1
p53
sg5
L18446743798839641772L
sg6
Nsg23
S'MOV'
p54
sg25
S'0xffffffc0007a06acL'
p55
sg27
Nsba(ibclass
BInstr
p56
(dp57
g2
Nsg17
S'CBZ             X0, loc_FFFFFFC0007A06B8'
p58
sg19
S'400000b4'
p59
sg21
Vcbz x0, #8
p60
sg5
L18446743798839641776L
sg6
Nsg23
S'CBZ'
p61
sg25
S'0xffffffc0007a06b0L'
p62
sg27
NsbasS'disasm_list'
p63
(lp64
S'STP reg9, reg0, mem!'
p65
aS'MOV reg9, SP'
p66
aS'STR reg9, mem'
p67
aS'MOV reg, reg'
p68
aS'MOV reg, reg'
p69
aS'CBZ reg, func'
p70
asS'end_address'
p71
Nsg5
S'0xffffffc0007a069cL'
p72
sS'preds'
p73
(lp74
sg6
NsS'succs'
p75
(lp76
S'0xffffffc0007a06b4L'
p77
aS'0xffffffc0007a06b8L'
p78
asS'hash_v3'
p79
NsS'flag_v2'
p80
NsS'hash_v1'
p81
S'd18e45ed326c6c131a76f96fbb4641a0'
p82
sS'hash_v2'
p83
S'49fea10d0455d29bf0d099630c052fff'
p84
sS'mnen_list'
p85
(lp86
g24
ag33
ag40
ag47
ag54
ag61
asS'neighbour_disasm_list'
p87
Nsba(ibclass
BBasicBlock
p88
(dp89
g12
Nsg13
(lp90
(ibclass
BInstr
p91
(dp92
g2
Nsg17
S'CBNZ            X1, loc_FFFFFFC0007A0700'
p93
sg19
S'610200b5'
p94
sg21
Vcbnz x1, #0x4c
p95
sg5
L18446743798839641780L
sg6
Nsg23
S'CBNZ'
p96
sg25
S'0xffffffc0007a06b4L'
p97
sg27
Nsbasg63
(lp98
S'CBNZ reg, func'
p99
asg71
Nsg5
S'0xffffffc0007a06b4L'
p100
sg73
(lp101
S'0xffffffc0007a069cL'
p102
asg6
Nsg75
(lp103
S'0xffffffc0007a06b8L'
p104
aS'0xffffffc0007a0700L'
p105
asg79
Nsg80
Nsg81
S'482b7d814ad85789cad59d80ecb8562a'
p106
sg83
S'c81d544e8093e123ef790602aa39a0d0'
p107
sg85
(lp108
g96
asg87
Nsba(ibclass
BBasicBlock
p109
(dp110
g12
Nsg13
(lp111
(ibclass
BInstr
p112
(dp113
g2
Nsg17
S'ADRP            X0, #qword_FFFFFFC000E440A0@PAGE'
p114
sg19
S'20350090'
p115
sg21
Vadrp x0, #0x6a4000
p116
sg5
L18446743798839641784L
sg6
Nsg23
S'ADRP'
p117
sg25
S'0xffffffc0007a06b8L'
p118
sg27
Nsba(ibclass
BInstr
p119
(dp120
g2
Nsg17
S'LDR             X0, [X0,#qword_FFFFFFC000E440A0@PAGEOFF]'
p121
sg19
S'005040f9'
p122
sg21
Vldr x0, [x0, #0xa0]
p123
sg5
L18446743798839641788L
sg6
Nsg23
S'LDR'
p124
sg25
S'0xffffffc0007a06bcL'
p125
sg27
Nsba(ibclass
BInstr
p126
(dp127
g2
Nsg17
S'LDR             W0, [X0]'
p128
sg19
S'000040b9'
p129
sg21
Vldr w0, [x0]
p130
sg5
L18446743798839641792L
sg6
Nsg23
S'LDR'
p131
sg25
S'0xffffffc0007a06c0L'
p132
sg27
Nsba(ibclass
BInstr
p133
(dp134
g2
Nsg17
S'TBZ             W0, #0, loc_FFFFFFC0007A0710'
p135
sg19
S'60020036'
p136
sg21
Vtbz w0, #0, #0x4c
p137
sg5
L18446743798839641796L
sg6
Nsg23
S'TBZ'
p138
sg25
S'0xffffffc0007a06c4L'
p139
sg27
Nsbasg63
(lp140
S'ADRP reg, #func@PAGE'
p141
aS'LDR reg, mem'
p142
aS'LDR reg, mem'
p143
aS'TBZ reg, #0, func'
p144
asg71
Nsg5
S'0xffffffc0007a06b8L'
p145
sg73
(lp146
S'0xffffffc0007a069cL'
p147
aS'0xffffffc0007a06b4L'
p148
asg6
Nsg75
(lp149
S'0xffffffc0007a06c8L'
p150
aS'0xffffffc0007a0710L'
p151
asg79
Nsg80
Nsg81
S'2de94c9e326481f2f467f11acce8dcc9'
p152
sg83
S'f9f7225e2bae36aff04e5d93bafe5e1d'
p153
sg85
(lp154
g117
ag124
ag131
ag138
asg87
Nsba(ibclass
BBasicBlock
p155
(dp156
g12
Nsg13
(lp157
(ibclass
BInstr
p158
(dp159
g2
Nsg17
S'ADRP            X0, #qword_FFFFFFC000E42548@PAGE'
p160
sg19
S'003500d0'
p161
sg21
Vadrp x0, #0x6a2000
p162
sg5
L18446743798839641800L
sg6
Nsg23
S'ADRP'
p163
sg25
S'0xffffffc0007a06c8L'
p164
sg27
Nsba(ibclass
BInstr
p165
(dp166
g2
Nsg17
S'LDR             X0, [X0,#qword_FFFFFFC000E42548@PAGEOFF]'
p167
sg19
S'00a442f9'
p168
sg21
Vldr x0, [x0, #0x548]
p169
sg5
L18446743798839641804L
sg6
Nsg23
S'LDR'
p170
sg25
S'0xffffffc0007a06ccL'
p171
sg27
Nsba(ibclass
BInstr
p172
(dp173
g2
Nsg17
S'MOV             W19, #0xFFFFFFEA'
p174
sg19
S'b3028012'
p175
sg21
Vmovn w19, #0x15
p176
sg5
L18446743798839641808L
sg6
Nsg23
S'MOV'
p177
sg25
S'0xffffffc0007a06d0L'
p178
sg27
Nsba(ibclass
BInstr
p179
(dp180
g2
Nsg17
S'LDR             W0, [X0]'
p181
sg19
S'000040b9'
p182
sg21
Vldr w0, [x0]
p183
sg5
L18446743798839641812L
sg6
Nsg23
S'LDR'
p184
sg25
S'0xffffffc0007a06d4L'
p185
sg27
Nsba(ibclass
BInstr
p186
(dp187
g2
Nsg17
S'CBNZ            W0, loc_FFFFFFC0007A0714'
p188
sg19
S'e0010035'
p189
sg21
Vcbnz w0, #0x3c
p190
sg5
L18446743798839641816L
sg6
Nsg23
S'CBNZ'
p191
sg25
S'0xffffffc0007a06d8L'
p192
sg27
Nsbasg63
(lp193
S'ADRP reg, #func@PAGE'
p194
aS'LDR reg, mem'
p195
aS'MOV reg9, #0xFFFFFFEA'
p196
aS'LDR reg, mem'
p197
aS'CBNZ reg, func'
p198
asg71
Nsg5
S'0xffffffc0007a06c8L'
p199
sg73
(lp200
S'0xffffffc0007a06b8L'
p201
asg6
Nsg75
(lp202
S'0xffffffc0007a06dcL'
p203
aS'0xffffffc0007a0714L'
p204
asg79
Nsg80
Nsg81
S'd80cc6d531f24a5b2d60307977d236c7'
p205
sg83
S'baaaa11d303d94886d47725c6dea0608'
p206
sg85
(lp207
g163
ag170
ag177
ag184
ag191
asg87
Nsba(ibclass
BBasicBlock
p208
(dp209
g12
Nsg13
(lp210
(ibclass
BInstr
p211
(dp212
g2
Nsg17
S'ADRP            X2, #__func__.34388@PAGE; "msm_vidc_check_scaling_supported"'
p213
sg19
S'424500b0'
p214
sg21
Vadrp x2, #0x8a9000
p215
sg5
L18446743798839641820L
sg6
Nsg23
S'ADRP'
p216
sg25
S'0xffffffc0007a06dcL'
p217
sg27
Nsba(ibclass
BInstr
p218
(dp219
g2
Nsg17
S'ADRP            X0, #unk_FFFFFFC0013B8811@PAGE'
p220
sg19
S'c0600090'
p221
sg21
Vadrp x0, #0xc18000
p222
sg5
L18446743798839641824L
sg6
Nsg23
S'ADRP'
p223
sg25
S'0xffffffc0007a06e0L'
p224
sg27
Nsba(ibclass
BInstr
p225
(dp226
g2
Nsg17
S'ADRP            X1, #(aQcomMdssDsi_17+0x1B)@PAGE; "err"'
p227
sg19
S'615c00f0'
p228
sg21
Vadrp x1, #0xb8f000
p229
sg5
L18446743798839641828L
sg6
Nsg23
S'ADRP'
p230
sg25
S'0xffffffc0007a06e4L'
p231
sg27
Nsba(ibclass
BInstr
p232
(dp233
g2
Nsg17
S'ADD             X2, X2, #__func__.34388@PAGEOFF; "msm_vidc_check_scaling_supported"'
p234
sg19
S'42802391'
p235
sg21
Vadd x2, x2, #0x8e0
p236
sg5
L18446743798839641832L
sg6
Nsg23
S'ADD'
p237
sg25
S'0xffffffc0007a06e8L'
p238
sg27
Nsba(ibclass
BInstr
p239
(dp240
g2
Nsg17
S'ADD             X1, X1, #(aQcomMdssDsi_17+0x1B)@PAGEOFF; "err"'
p241
sg19
S'212c0591'
p242
sg21
Vadd x1, x1, #0x14b
p243
sg5
L18446743798839641836L
sg6
Nsg23
S'ADD'
p244
sg25
S'0xffffffc0007a06ecL'
p245
sg27
Nsba(ibclass
BInstr
p246
(dp247
g2
Nsg17
S'ADD             X2, X2, #0x2D0'
p248
sg19
S'42400b91'
p249
sg21
Vadd x2, x2, #0x2d0
p250
sg5
L18446743798839641840L
sg6
Nsg23
S'ADD'
p251
sg25
S'0xffffffc0007a06f0L'
p252
sg27
Nsba(ibclass
BInstr
p253
(dp254
g2
Nsg17
S'ADD             X0, X0, #unk_FFFFFFC0013B8811@PAGEOFF'
p255
sg19
S'00442091'
p256
sg21
Vadd x0, x0, #0x811
p257
sg5
L18446743798839641844L
sg6
Nsg23
S'ADD'
p258
sg25
S'0xffffffc0007a06f4L'
p259
sg27
Nsba(ibclass
BInstr
p260
(dp261
g2
Nsg17
S'BL              printk'
p262
sg19
S'9f321a94'
p263
sg21
Vbl #0x68ca7c
p264
sg5
L18446743798839641848L
sg6
Nsg23
S'BL'
p265
sg25
S'0xffffffc0007a06f8L'
p266
sg27
Nsba(ibclass
BInstr
p267
(dp268
g2
Nsg17
S'B               loc_FFFFFFC0007A0714'
p269
sg19
S'06000014'
p270
sg21
Vb #0x18
p271
sg5
L18446743798839641852L
sg6
Nsg23
S'B'
p272
sg25
S'0xffffffc0007a06fcL'
p273
sg27
Nsbasg63
(lp274
S'ADRP reg, #__func__.34388@PAGE'
p275
aS'ADRP reg, #func@PAGE'
p276
aS'ADRP reg, #(aQcomMdssDsi_17+0x1B)@PAGE'
p277
aS'ADD reg, reg, #__func__.34388@PAGEOFF'
p278
aS'ADD reg, reg, #(aQcomMdssDsi_17+0x1B)@PAGEOFF'
p279
aS'ADD reg, reg, #0x2D0'
p280
aS'ADD reg, reg, #func@PAGEOFF'
p281
aS'BL printk'
p282
aS'B func'
p283
asg71
Nsg5
S'0xffffffc0007a06dcL'
p284
sg73
(lp285
S'0xffffffc0007a06c8L'
p286
asg6
Nsg75
(lp287
S'0xffffffc0007a0714L'
p288
asg79
Nsg80
Nsg81
S'8d01fe9050abe03509e35279925e126f'
p289
sg83
S'54b92cd70d4f95fc4cd2f0f04c99c715'
p290
sg85
(lp291
g216
ag223
ag230
ag237
ag244
ag251
ag258
ag265
ag272
asg87
Nsba(ibclass
BBasicBlock
p292
(dp293
g12
Nsg13
(lp294
(ibclass
BInstr
p295
(dp296
g2
Nsg17
S'LDR             X0, [X0,#0x9B8]'
p297
sg19
S'00dc44f9'
p298
sg21
Vldr x0, [x0, #0x9b8]
p299
sg5
L18446743798839641856L
sg6
Nsg23
S'LDR'
p300
sg25
S'0xffffffc0007a0700L'
p301
sg27
Nsba(ibclass
BInstr
p302
(dp303
g2
Nsg17
S'BL              msm_smem_cache_operations'
p304
sg19
S'673b0094'
p305
sg21
Vbl #0xed9c
p306
sg5
L18446743798839641860L
sg6
Nsg23
S'BL'
p307
sg25
S'0xffffffc0007a0704L'
p308
sg27
Nsba(ibclass
BInstr
p309
(dp310
g2
Nsg17
S'MOV             W19, W0'
p311
sg19
S'f303002a'
p312
sg21
Vmov w19, w0
p313
sg5
L18446743798839641864L
sg6
Nsg23
S'MOV'
p314
sg25
S'0xffffffc0007a0708L'
p315
sg27
Nsba(ibclass
BInstr
p316
(dp317
g2
Nsg17
S'B               loc_FFFFFFC0007A0714'
p318
sg19
S'02000014'
p319
sg21
Vb #8
p320
sg5
L18446743798839641868L
sg6
Nsg23
g272
sg25
S'0xffffffc0007a070cL'
p321
sg27
Nsbasg63
(lp322
S'LDR reg, mem'
p323
aS'BL msm_smem_cache_operations'
p324
aS'MOV reg9, reg'
p325
aS'B func'
p326
asg71
Nsg5
S'0xffffffc0007a0700L'
p327
sg73
(lp328
S'0xffffffc0007a06b4L'
p329
asg6
Nsg75
(lp330
S'0xffffffc0007a0714L'
p331
asg79
Nsg80
Nsg81
S'fe112feb171ffa3b20f6ae1e994f0279'
p332
sg83
S'c6be3f481ca996545becd59fa935491a'
p333
sg85
(lp334
g300
ag307
ag314
ag272
asg87
Nsba(ibclass
BBasicBlock
p335
(dp336
g12
Nsg13
(lp337
(ibclass
BInstr
p338
(dp339
g2
Nsg17
S'MOV             W19, #0xFFFFFFEA'
p340
sg19
S'b3028012'
p341
sg21
Vmovn w19, #0x15
p342
sg5
L18446743798839641872L
sg6
Nsg23
S'MOV'
p343
sg25
S'0xffffffc0007a0710L'
p344
sg27
Nsbasg63
(lp345
S'MOV reg9, #0xFFFFFFEA'
p346
asg71
Nsg5
S'0xffffffc0007a0710L'
p347
sg73
(lp348
S'0xffffffc0007a06b8L'
p349
asg6
Nsg75
(lp350
S'0xffffffc0007a0714L'
p351
asg79
Nsg80
Nsg81
S'17b32100aef1fc19670be7fd58bc85df'
p352
sg83
S'b3606159d658f642fff4e1852538bd21'
p353
sg85
(lp354
g343
asg87
Nsba(ibclass
BBasicBlock
p355
(dp356
g12
Nsg13
(lp357
(ibclass
BInstr
p358
(dp359
g2
Nsg17
S'MOV             W0, W19'
p360
sg19
S'e003132a'
p361
sg21
Vmov w0, w19
p362
sg5
L18446743798839641876L
sg6
Nsg23
S'MOV'
p363
sg25
S'0xffffffc0007a0714L'
p364
sg27
Nsba(ibclass
BInstr
p365
(dp366
g2
Nsg17
S'LDR             X19, [SP,#0x10+var_s0]'
p367
sg19
S'f30b40f9'
p368
sg21
Vldr x19, [sp, #0x10]
p369
sg5
L18446743798839641880L
sg6
Nsg23
S'LDR'
p370
sg25
S'0xffffffc0007a0718L'
p371
sg27
Nsba(ibclass
BInstr
p372
(dp373
g2
Nsg17
S'LDP             X29, X30, [SP+0x10+var_10],#0x20'
p374
sg19
S'fd7bc2a8'
p375
sg21
Vldp x29, x30, [sp], #0x20
p376
sg5
L18446743798839641884L
sg6
Nsg23
S'LDP'
p377
sg25
S'0xffffffc0007a071cL'
p378
sg27
Nsba(ibclass
BInstr
p379
(dp380
g2
Nsg17
S'RET'
p381
sg19
S'c0035fd6'
p382
sg21
Vret 
p383
sg5
L18446743798839641888L
sg6
Nsg23
S'RET'
p384
sg25
S'0xffffffc0007a0720L'
p385
sg27
Nsbasg63
(lp386
S'MOV reg, reg9'
p387
aS'LDR reg9, mem'
p388
aS'LDP reg9, reg0, mem,#0x20'
p389
ag381
asg71
Nsg5
S'0xffffffc0007a0714L'
p390
sg73
(lp391
S'0xffffffc0007a06c8L'
p392
aS'0xffffffc0007a06dcL'
p393
aS'0xffffffc0007a0700L'
p394
aS'0xffffffc0007a0710L'
p395
asg6
Nsg75
(lp396
sg79
Nsg80
Nsg81
S'700b6007ea89efb2d19f65eecdfbdc66'
p397
sg83
S'2540ec61573c55ff75133ef1ef4cbd07'
p398
sg85
(lp399
g363
ag370
ag377
ag384
asg87
Nsbasb.