(ibclass
BFunc
p0
(dp1
S'hash'
p2
NsS'name'
p3
S'msm_vidc_close'
p4
sS'start_address'
p5
L18446743798839656900L
sS'flag'
p6
NsS'program'
p7
NsS'bbs'
p8
(lp9
(ibclass
BBasicBlock
p10
(dp11
S'function'
p12
NsS'binstrs'
p13
(lp14
(ibclass
BInstr
p15
(dp16
g2
NsS'disasm'
p17
S'STP             X29, X30, [SP,#-0x10+var_30]!'
p18
sS'bytes'
p19
S'fd7bbca9'
p20
sS'disasm_striped'
p21
Vstp x29, x30, [sp, #-0x40]!
p22
sg5
L18446743798839656900L
sg6
NsS'mnem'
p23
S'STP'
p24
sS'address'
p25
S'0xffffffc0007a41c4L'
p26
sS'basicblock'
p27
Nsba(ibclass
BInstr
p28
(dp29
g2
Nsg17
S'MOV             X29, SP'
p30
sg19
S'fd030091'
p31
sg21
Vmov x29, sp
p32
sg5
L18446743798839656904L
sg6
Nsg23
S'MOV'
p33
sg25
S'0xffffffc0007a41c8L'
p34
sg27
Nsba(ibclass
BInstr
p35
(dp36
g2
Nsg17
S'STP             X19, X20, [SP,#0x30+var_20]'
p37
sg19
S'f35301a9'
p38
sg21
Vstp x19, x20, [sp, #0x10]
p39
sg5
L18446743798839656908L
sg6
Nsg23
S'STP'
p40
sg25
S'0xffffffc0007a41ccL'
p41
sg27
Nsba(ibclass
BInstr
p42
(dp43
g2
Nsg17
S'STP             X21, X22, [SP,#0x30+var_10]'
p44
sg19
S'f55b02a9'
p45
sg21
Vstp x21, x22, [sp, #0x20]
p46
sg5
L18446743798839656912L
sg6
Nsg23
S'STP'
p47
sg25
S'0xffffffc0007a41d0L'
p48
sg27
Nsba(ibclass
BInstr
p49
(dp50
g2
Nsg17
S'STP             X23, X24, [SP,#0x30+var_s0]'
p51
sg19
S'f76303a9'
p52
sg21
Vstp x23, x24, [sp, #0x30]
p53
sg5
L18446743798839656916L
sg6
Nsg23
S'STP'
p54
sg25
S'0xffffffc0007a41d4L'
p55
sg27
Nsba(ibclass
BInstr
p56
(dp57
g2
Nsg17
S'MOV             X19, X0'
p58
sg19
S'f30300aa'
p59
sg21
Vmov x19, x0
p60
sg5
L18446743798839656920L
sg6
Nsg23
S'MOV'
p61
sg25
S'0xffffffc0007a41d8L'
p62
sg27
Nsba(ibclass
BInstr
p63
(dp64
g2
Nsg17
S'CBZ             X0, loc_FFFFFFC0007A4554'
p65
sg19
S'c01b00b4'
p66
sg21
Vcbz x0, #0x378
p67
sg5
L18446743798839656924L
sg6
Nsg23
S'CBZ'
p68
sg25
S'0xffffffc0007a41dcL'
p69
sg27
NsbasS'disasm_list'
p70
(lp71
S'STP reg9, reg0, mem!'
p72
aS'MOV reg9, SP'
p73
aS'STP reg9, reg0, mem'
p74
aS'STP reg1, reg2, mem'
p75
aS'STP reg3, reg4, mem'
p76
aS'MOV reg9, reg'
p77
aS'CBZ reg, func'
p78
asS'end_address'
p79
Nsg5
S'0xffffffc0007a41c4L'
p80
sS'preds'
p81
(lp82
sg6
NsS'succs'
p83
(lp84
S'0xffffffc0007a41e0L'
p85
aS'0xffffffc0007a4554L'
p86
asS'hash_v3'
p87
NsS'flag_v2'
p88
NsS'hash_v1'
p89
S'f7e430a8113f2bab1f328c724be00e70'
p90
sS'hash_v2'
p91
S'13b8a7d51dcbd0e3fcafe031851b9cac'
p92
sS'mnen_list'
p93
(lp94
g24
ag33
ag40
ag47
ag54
ag61
ag68
asS'neighbour_disasm_list'
p95
Nsba(ibclass
BBasicBlock
p96
(dp97
g12
Nsg13
(lp98
(ibclass
BInstr
p99
(dp100
g2
Nsg17
S'LDR             X1, [X0,#0x60]'
p101
sg19
S'013040f9'
p102
sg21
Vldr x1, [x0, #0x60]
p103
sg5
L18446743798839656928L
sg6
Nsg23
S'LDR'
p104
sg25
S'0xffffffc0007a41e0L'
p105
sg27
Nsba(ibclass
BInstr
p106
(dp107
g2
Nsg17
S'MOV             W0, #0xFFFFFFEA'
p108
sg19
S'a0028012'
p109
sg21
Vmovn w0, #0x15
p110
sg5
L18446743798839656932L
sg6
Nsg23
S'MOV'
p111
sg25
S'0xffffffc0007a41e4L'
p112
sg27
Nsba(ibclass
BInstr
p113
(dp114
g2
Nsg17
S'CBZ             X1, loc_FFFFFFC0007A4558'
p115
sg19
S'811b00b4'
p116
sg21
Vcbz x1, #0x370
p117
sg5
L18446743798839656936L
sg6
Nsg23
S'CBZ'
p118
sg25
S'0xffffffc0007a41e8L'
p119
sg27
Nsbasg70
(lp120
S'LDR reg, mem'
p121
aS'MOV reg, #0xFFFFFFEA'
p122
aS'CBZ reg, func'
p123
asg79
Nsg5
S'0xffffffc0007a41e0L'
p124
sg81
(lp125
S'0xffffffc0007a41c4L'
p126
asg6
Nsg83
(lp127
S'0xffffffc0007a41ecL'
p128
aS'0xffffffc0007a4558L'
p129
asg87
Nsg88
Nsg89
S'ca75ebdf03c6cd15dee0fdb326dd7235'
p130
sg91
S'7a643942dcd5c9bd31a6ec74a0aa2ad1'
p131
sg93
(lp132
g104
ag111
ag118
asg95
Nsba(ibclass
BBasicBlock
p133
(dp134
g12
Nsg13
(lp135
(ibclass
BInstr
p136
(dp137
g2
Nsg17
S'ADD             X20, X19, #0xC80'
p138
sg19
S'74023291'
p139
sg21
Vadd x20, x19, #0xc80
p140
sg5
L18446743798839656940L
sg6
Nsg23
S'ADD'
p141
sg25
S'0xffffffc0007a41ecL'
p142
sg27
Nsba(ibclass
BInstr
p143
(dp144
g2
Nsg17
S'MOV             X0, X20'
p145
sg19
S'e00314aa'
p146
sg21
Vmov x0, x20
p147
sg5
L18446743798839656944L
sg6
Nsg23
S'MOV'
p148
sg25
S'0xffffffc0007a41f0L'
p149
sg27
Nsba(ibclass
BInstr
p150
(dp151
g2
Nsg17
S'BL              v4l2_fh_del'
p152
sg19
S'168bff97'
p153
sg21
Vbl #0xfffffffffffe2c58
p154
sg5
L18446743798839656948L
sg6
Nsg23
S'BL'
p155
sg25
S'0xffffffc0007a41f4L'
p156
sg27
Nsba(ibclass
BInstr
p157
(dp158
g2
Nsg17
S'MOV             X0, X20'
p159
sg19
S'e00314aa'
p160
sg21
Vmov x0, x20
p161
sg5
L18446743798839656952L
sg6
Nsg23
S'MOV'
p162
sg25
S'0xffffffc0007a41f8L'
p163
sg27
Nsba(ibclass
BInstr
p164
(dp165
g2
Nsg17
S'BL              v4l2_fh_exit'
p166
sg19
S'2e8bff97'
p167
sg21
Vbl #0xfffffffffffe2cb8
p168
sg5
L18446743798839656956L
sg6
Nsg23
S'BL'
p169
sg25
S'0xffffffc0007a41fcL'
p170
sg27
Nsba(ibclass
BInstr
p171
(dp172
g2
Nsg17
S'ADD             X23, X19, #0x830'
p173
sg19
S'77c22091'
p174
sg21
Vadd x23, x19, #0x830
p175
sg5
L18446743798839656960L
sg6
Nsg23
S'ADD'
p176
sg25
S'0xffffffc0007a4200L'
p177
sg27
Nsba(ibclass
BInstr
p178
(dp179
g2
Nsg17
S'MOV             X0, X23'
p180
sg19
S'e00317aa'
p181
sg21
Vmov x0, x23
p182
sg5
L18446743798839656964L
sg6
Nsg23
S'MOV'
p183
sg25
S'0xffffffc0007a4204L'
p184
sg27
Nsba(ibclass
BInstr
p185
(dp186
g2
Nsg17
S'BL              mutex_lock'
p187
sg19
S'3d581a94'
p188
sg21
Vbl #0x6960f4
p189
sg5
L18446743798839656968L
sg6
Nsg23
S'BL'
p190
sg25
S'0xffffffc0007a4208L'
p191
sg27
Nsba(ibclass
BInstr
p192
(dp193
g2
Nsg17
S'LDR             X20, [X19,#0x820]'
p194
sg19
S'741244f9'
p195
sg21
Vldr x20, [x19, #0x820]
p196
sg5
L18446743798839656972L
sg6
Nsg23
S'LDR'
p197
sg25
S'0xffffffc0007a420cL'
p198
sg27
Nsba(ibclass
BInstr
p199
(dp200
g2
Nsg17
S'ADD             X24, X19, #0x820'
p201
sg19
S'78822091'
p202
sg21
Vadd x24, x19, #0x820
p203
sg5
L18446743798839656976L
sg6
Nsg23
S'ADD'
p204
sg25
S'0xffffffc0007a4210L'
p205
sg27
Nsba(ibclass
BInstr
p206
(dp207
g2
Nsg17
S'LDR             X22, [X20]'
p208
sg19
S'960240f9'
p209
sg21
Vldr x22, [x20]
p210
sg5
L18446743798839656980L
sg6
Nsg23
S'LDR'
p211
sg25
S'0xffffffc0007a4214L'
p212
sg27
Nsbasg70
(lp213
S'ADD reg0, reg9, #0xC80'
p214
aS'MOV reg, reg0'
p215
aS'BL v4l2_fh_del'
p216
aS'MOV reg, reg0'
p217
aS'BL v4l2_fh_exit'
p218
aS'ADD reg3, reg9, #0x830'
p219
aS'MOV reg, reg3'
p220
aS'BL mutex_lock'
p221
aS'LDR reg0, mem'
p222
aS'ADD reg4, reg9, #0x820'
p223
aS'LDR reg2, mem'
p224
asg79
Nsg5
S'0xffffffc0007a41ecL'
p225
sg81
(lp226
S'0xffffffc0007a41e0L'
p227
asg6
Nsg83
(lp228
S'0xffffffc0007a4218L'
p229
asg87
Nsg88
Nsg89
S'1e6230da1fe21c9c186c3e413851bb9a'
p230
sg91
S'54775983b1c9d777a4641849d034ebc8'
p231
sg93
(lp232
g141
ag148
ag155
ag162
ag169
ag176
ag183
ag190
ag197
ag204
ag211
asg95
Nsba(ibclass
BBasicBlock
p233
(dp234
g12
Nsg13
(lp235
(ibclass
BInstr
p236
(dp237
g2
Nsg17
S'CMP             X20, X24'
p238
sg19
S'9f0218eb'
p239
sg21
Vcmp x20, x24
p240
sg5
L18446743798839656984L
sg6
Nsg23
S'CMP'
p241
sg25
S'0xffffffc0007a4218L'
p242
sg27
Nsba(ibclass
BInstr
p243
(dp244
g2
Nsg17
S'B.EQ            loc_FFFFFFC0007A429C'
p245
sg19
S'00040054'
p246
sg21
Vb.eq #0x80
p247
sg5
L18446743798839656988L
sg6
Nsg23
S'B'
p248
sg25
S'0xffffffc0007a421cL'
p249
sg27
Nsbasg70
(lp250
S'CMP reg0, reg4'
p251
aS'B.EQ func'
p252
asg79
Nsg5
S'0xffffffc0007a4218L'
p253
sg81
(lp254
S'0xffffffc0007a41ecL'
p255
aS'0xffffffc0007a4290L'
p256
asg6
Nsg83
(lp257
S'0xffffffc0007a4220L'
p258
aS'0xffffffc0007a429cL'
p259
asg87
Nsg88
Nsg89
S'c78fd620a449e3c979d3f3ec12d4ee88'
p260
sg91
S'f35195b113ccd3e70220fc9e4ac6cc1e'
p261
sg93
(lp262
g241
ag248
asg95
Nsba(ibclass
BBasicBlock
p263
(dp264
g12
Nsg13
(lp265
(ibclass
BInstr
p266
(dp267
g2
Nsg17
S'LDR             W0, [X20,#0x10]'
p268
sg19
S'801240b9'
p269
sg21
Vldr w0, [x20, #0x10]
p270
sg5
L18446743798839656992L
sg6
Nsg23
S'LDR'
p271
sg25
S'0xffffffc0007a4220L'
p272
sg27
Nsba(ibclass
BInstr
p273
(dp274
g2
Nsg17
S'CMP             W0, #0xA'
p275
sg19
S'1f280071'
p276
sg21
Vcmp w0, #0xa
p277
sg5
L18446743798839656996L
sg6
Nsg23
S'CMP'
p278
sg25
S'0xffffffc0007a4224L'
p279
sg27
Nsba(ibclass
BInstr
p280
(dp281
g2
Nsg17
S'B.NE            loc_FFFFFFC0007A4290'
p282
sg19
S'41030054'
p283
sg21
Vb.ne #0x68
p284
sg5
L18446743798839657000L
sg6
Nsg23
g248
sg25
S'0xffffffc0007a4228L'
p285
sg27
Nsbasg70
(lp286
S'LDR reg, mem'
p287
aS'CMP reg, #0xA'
p288
aS'B.NE func'
p289
asg79
Nsg5
S'0xffffffc0007a4220L'
p290
sg81
(lp291
S'0xffffffc0007a4218L'
p292
asg6
Nsg83
(lp293
S'0xffffffc0007a422cL'
p294
aS'0xffffffc0007a4290L'
p295
asg87
Nsg88
Nsg89
S'fa4df767a85c49648339e2dc5c6807f6'
p296
sg91
S'e7fc2b7bd614d8e2d19d3eb5ec5760b3'
p297
sg93
(lp298
g271
ag278
ag248
asg95
Nsba(ibclass
BBasicBlock
p299
(dp300
g12
Nsg13
(lp301
(ibclass
BInstr
p302
(dp303
g2
Nsg17
S'LDR             X0, [X20,#8]'
p304
sg19
S'800640f9'
p305
sg21
Vldr x0, [x20, #8]
p306
sg5
L18446743798839657004L
sg6
Nsg23
S'LDR'
p307
sg25
S'0xffffffc0007a422cL'
p308
sg27
Nsba(ibclass
BInstr
p309
(dp310
g2
Nsg17
S'LDR             X1, [X20]'
p311
sg19
S'810240f9'
p312
sg21
Vldr x1, [x20]
p313
sg5
L18446743798839657008L
sg6
Nsg23
S'LDR'
p314
sg25
S'0xffffffc0007a4230L'
p315
sg27
Nsba(ibclass
BInstr
p316
(dp317
g2
Nsg17
S'MOV             X21, #0'
p318
sg19
S'150080d2'
p319
sg21
Vmovz x21, #0
p320
sg5
L18446743798839657012L
sg6
Nsg23
S'MOV'
p321
sg25
S'0xffffffc0007a4234L'
p322
sg27
Nsba(ibclass
BInstr
p323
(dp324
g2
Nsg17
S'STR             X0, [X1,#8]'
p325
sg19
S'200400f9'
p326
sg21
Vstr x0, [x1, #8]
p327
sg5
L18446743798839657016L
sg6
Nsg23
S'STR'
p328
sg25
S'0xffffffc0007a4238L'
p329
sg27
Nsba(ibclass
BInstr
p330
(dp331
g2
Nsg17
S'STR             X1, [X0]'
p332
sg19
S'010000f9'
p333
sg21
Vstr x1, [x0]
p334
sg5
L18446743798839657020L
sg6
Nsg23
S'STR'
p335
sg25
S'0xffffffc0007a423cL'
p336
sg27
Nsba(ibclass
BInstr
p337
(dp338
g2
Nsg17
S'MOV             X0, #0x100'
p339
sg19
S'002080d2'
p340
sg21
Vmovz x0, #0x100
p341
sg5
L18446743798839657024L
sg6
Nsg23
S'MOV'
p342
sg25
S'0xffffffc0007a4240L'
p343
sg27
Nsba(ibclass
BInstr
p344
(dp345
g2
Nsg17
S'MOVK            X0, #0xDEAD,LSL#48'
p346
sg19
S'a0d5fbf2'
p347
sg21
Vmovk x0, #0xdead, lsl #48
p348
sg5
L18446743798839657028L
sg6
Nsg23
S'MOVK'
p349
sg25
S'0xffffffc0007a4244L'
p350
sg27
Nsba(ibclass
BInstr
p351
(dp352
g2
Nsg17
S'STR             X0, [X20]'
p353
sg19
S'800200f9'
p354
sg21
Vstr x0, [x20]
p355
sg5
L18446743798839657032L
sg6
Nsg23
S'STR'
p356
sg25
S'0xffffffc0007a4248L'
p357
sg27
Nsba(ibclass
BInstr
p358
(dp359
g2
Nsg17
S'MOV             X0, #0x200'
p360
sg19
S'004080d2'
p361
sg21
Vmovz x0, #0x200
p362
sg5
L18446743798839657036L
sg6
Nsg23
S'MOV'
p363
sg25
S'0xffffffc0007a424cL'
p364
sg27
Nsba(ibclass
BInstr
p365
(dp366
g2
Nsg17
S'MOVK            X0, #0xDEAD,LSL#48'
p367
sg19
S'a0d5fbf2'
p368
sg21
Vmovk x0, #0xdead, lsl #48
p369
sg5
L18446743798839657040L
sg6
Nsg23
S'MOVK'
p370
sg25
S'0xffffffc0007a4250L'
p371
sg27
Nsba(ibclass
BInstr
p372
(dp373
g2
Nsg17
S'STR             X0, [X20,#8]'
p374
sg19
S'800600f9'
p375
sg21
Vstr x0, [x20, #8]
p376
sg5
L18446743798839657044L
sg6
Nsg23
S'STR'
p377
sg25
S'0xffffffc0007a4254L'
p378
sg27
Nsbasg70
(lp379
S'LDR reg, mem'
p380
aS'LDR reg, mem'
p381
aS'MOV reg1, #0'
p382
aS'STR reg, mem'
p383
aS'STR reg, mem'
p384
aS'MOV reg, #0x100'
p385
aS'MOVK reg, #0xDEAD,LSL#48'
p386
aS'STR reg, mem'
p387
aS'MOV reg, #0x200'
p388
aS'MOVK reg, #0xDEAD,LSL#48'
p389
aS'STR reg, mem'
p390
asg79
Nsg5
S'0xffffffc0007a422cL'
p391
sg81
(lp392
S'0xffffffc0007a4220L'
p393
asg6
Nsg83
(lp394
S'0xffffffc0007a4258L'
p395
asg87
Nsg88
Nsg89
S'04438dc22e3c072268c2d5daabc4599f'
p396
sg91
S'd19cfb5baa7d85fc722ab6fbf0a12bba'
p397
sg93
(lp398
g307
ag314
ag321
ag328
ag335
ag342
ag349
ag356
ag363
ag370
ag377
asg95
Nsba(ibclass
BBasicBlock
p399
(dp400
g12
Nsg13
(lp401
(ibclass
BInstr
p402
(dp403
g2
Nsg17
S'LDR             W0, [X20,#0x14]'
p404
sg19
S'801640b9'
p405
sg21
Vldr w0, [x20, #0x14]
p406
sg5
L18446743798839657048L
sg6
Nsg23
S'LDR'
p407
sg25
S'0xffffffc0007a4258L'
p408
sg27
Nsba(ibclass
BInstr
p409
(dp410
g2
Nsg17
S'CMP             W0, W21'
p411
sg19
S'1f00156b'
p412
sg21
Vcmp w0, w21
p413
sg5
L18446743798839657052L
sg6
Nsg23
S'CMP'
p414
sg25
S'0xffffffc0007a425cL'
p415
sg27
Nsba(ibclass
BInstr
p416
(dp417
g2
Nsg17
S'B.LE            loc_FFFFFFC0007A4288'
p418
sg19
S'4d010054'
p419
sg21
Vb.le #0x28
p420
sg5
L18446743798839657056L
sg6
Nsg23
g248
sg25
S'0xffffffc0007a4260L'
p421
sg27
Nsbasg70
(lp422
S'LDR reg, mem'
p423
aS'CMP reg, reg1'
p424
aS'B.LE func'
p425
asg79
Nsg5
S'0xffffffc0007a4258L'
p426
sg81
(lp427
S'0xffffffc0007a422cL'
p428
aS'0xffffffc0007a4280L'
p429
asg6
Nsg83
(lp430
S'0xffffffc0007a4264L'
p431
aS'0xffffffc0007a4288L'
p432
asg87
Nsg88
Nsg89
S'fa4df767a85c49648339e2dc5c6807f6'
p433
sg91
S'0a86d953d1986f53bad95b59e66698ee'
p434
sg93
(lp435
g407
ag414
ag248
asg95
Nsba(ibclass
BBasicBlock
p436
(dp437
g12
Nsg13
(lp438
(ibclass
BInstr
p439
(dp440
g2
Nsg17
S'CMP             X21, #8'
p441
sg19
S'bf2200f1'
p442
sg21
Vcmp x21, #8
p443
sg5
L18446743798839657060L
sg6
Nsg23
S'CMP'
p444
sg25
S'0xffffffc0007a4264L'
p445
sg27
Nsba(ibclass
BInstr
p446
(dp447
g2
Nsg17
S'B.EQ            loc_FFFFFFC0007A4288'
p448
sg19
S'00010054'
p449
sg21
Vb.eq #0x20
p450
sg5
L18446743798839657064L
sg6
Nsg23
g248
sg25
S'0xffffffc0007a4268L'
p451
sg27
Nsbasg70
(lp452
S'CMP reg1, #8'
p453
aS'B.EQ func'
p454
asg79
Nsg5
S'0xffffffc0007a4264L'
p455
sg81
(lp456
S'0xffffffc0007a4258L'
p457
asg6
Nsg83
(lp458
S'0xffffffc0007a426cL'
p459
aS'0xffffffc0007a4288L'
p460
asg87
Nsg88
Nsg89
S'c78fd620a449e3c979d3f3ec12d4ee88'
p461
sg91
S'07b691525f5728118b7a2b5ba7f8a426'
p462
sg93
(lp463
g444
ag248
asg95
Nsba(ibclass
BBasicBlock
p464
(dp465
g12
Nsg13
(lp466
(ibclass
BInstr
p467
(dp468
g2
Nsg17
S'ADD             X0, X20, X21,LSL#3'
p469
sg19
S'800e158b'
p470
sg21
Vadd x0, x20, x21, lsl #3
p471
sg5
L18446743798839657068L
sg6
Nsg23
S'ADD'
p472
sg25
S'0xffffffc0007a426cL'
p473
sg27
Nsba(ibclass
BInstr
p474
(dp475
g2
Nsg17
S'LDR             X1, [X0,#0xF8]'
p476
sg19
S'017c40f9'
p477
sg21
Vldr x1, [x0, #0xf8]
p478
sg5
L18446743798839657072L
sg6
Nsg23
S'LDR'
p479
sg25
S'0xffffffc0007a4270L'
p480
sg27
Nsba(ibclass
BInstr
p481
(dp482
g2
Nsg17
S'CBZ             X1, loc_FFFFFFC0007A4280'
p483
sg19
S'610000b4'
p484
sg21
Vcbz x1, #0xc
p485
sg5
L18446743798839657076L
sg6
Nsg23
S'CBZ'
p486
sg25
S'0xffffffc0007a4274L'
p487
sg27
Nsbasg70
(lp488
S'ADD reg, reg0, reg1,LSL#3'
p489
aS'LDR reg, mem'
p490
aS'CBZ reg, func'
p491
asg79
Nsg5
S'0xffffffc0007a426cL'
p492
sg81
(lp493
S'0xffffffc0007a4264L'
p494
asg6
Nsg83
(lp495
S'0xffffffc0007a4278L'
p496
aS'0xffffffc0007a4280L'
p497
asg87
Nsg88
Nsg89
S'9610504e55845a7748c80205ead6d1a4'
p498
sg91
S'c992074a2be83bcf0dd37efb188e1ea7'
p499
sg93
(lp500
g472
ag479
ag486
asg95
Nsba(ibclass
BBasicBlock
p501
(dp502
g12
Nsg13
(lp503
(ibclass
BInstr
p504
(dp505
g2
Nsg17
S'MOV             X0, X19'
p506
sg19
S'e00313aa'
p507
sg21
Vmov x0, x19
p508
sg5
L18446743798839657080L
sg6
Nsg23
S'MOV'
p509
sg25
S'0xffffffc0007a4278L'
p510
sg27
Nsba(ibclass
BInstr
p511
(dp512
g2
Nsg17
S'BL              msm_comm_smem_free'
p513
sg19
S'b4eeff97'
p514
sg21
Vbl #0xffffffffffffbad0
p515
sg5
L18446743798839657084L
sg6
Nsg23
S'BL'
p516
sg25
S'0xffffffc0007a427cL'
p517
sg27
Nsbasg70
(lp518
S'MOV reg, reg9'
p519
aS'BL msm_comm_smem_free'
p520
asg79
Nsg5
S'0xffffffc0007a4278L'
p521
sg81
(lp522
S'0xffffffc0007a426cL'
p523
asg6
Nsg83
(lp524
S'0xffffffc0007a4280L'
p525
asg87
Nsg88
Nsg89
S'd358f8b13c87ca08ba6d4b865203703e'
p526
sg91
S'44a88ca1c710880106f6a9467bda6cac'
p527
sg93
(lp528
g509
ag516
asg95
Nsba(ibclass
BBasicBlock
p529
(dp530
g12
Nsg13
(lp531
(ibclass
BInstr
p532
(dp533
g2
Nsg17
S'ADD             X21, X21, #1'
p534
sg19
S'b5060091'
p535
sg21
Vadd x21, x21, #1
p536
sg5
L18446743798839657088L
sg6
Nsg23
S'ADD'
p537
sg25
S'0xffffffc0007a4280L'
p538
sg27
Nsba(ibclass
BInstr
p539
(dp540
g2
Nsg17
S'B               loc_FFFFFFC0007A4258'
p541
sg19
S'f5ffff17'
p542
sg21
Vb #0xffffffffffffffd4
p543
sg5
L18446743798839657092L
sg6
Nsg23
g248
sg25
S'0xffffffc0007a4284L'
p544
sg27
Nsbasg70
(lp545
S'ADD reg1, reg1, #1'
p546
aS'B func'
p547
asg79
Nsg5
S'0xffffffc0007a4280L'
p548
sg81
(lp549
S'0xffffffc0007a426cL'
p550
aS'0xffffffc0007a4278L'
p551
asg6
Nsg83
(lp552
S'0xffffffc0007a4258L'
p553
asg87
Nsg88
Nsg89
S'f59ed0fb4617df9a98cc94b1d7075f92'
p554
sg91
S'7848d26c4a668ec4e797b56bc66dc105'
p555
sg93
(lp556
g537
ag248
asg95
Nsba(ibclass
BBasicBlock
p557
(dp558
g12
Nsg13
(lp559
(ibclass
BInstr
p560
(dp561
g2
Nsg17
S'MOV             X0, X20'
p562
sg19
S'e00314aa'
p563
sg21
Vmov x0, x20
p564
sg5
L18446743798839657096L
sg6
Nsg23
S'MOV'
p565
sg25
S'0xffffffc0007a4288L'
p566
sg27
Nsba(ibclass
BInstr
p567
(dp568
g2
Nsg17
S'BL              kfree'
p569
sg19
S'1933ed97'
p570
sg21
Vbl #0xffffffffffb4cc64
p571
sg5
L18446743798839657100L
sg6
Nsg23
S'BL'
p572
sg25
S'0xffffffc0007a428cL'
p573
sg27
Nsbasg70
(lp574
S'MOV reg, reg0'
p575
aS'BL kfree'
p576
asg79
Nsg5
S'0xffffffc0007a4288L'
p577
sg81
(lp578
S'0xffffffc0007a4258L'
p579
aS'0xffffffc0007a4264L'
p580
asg6
Nsg83
(lp581
S'0xffffffc0007a4290L'
p582
asg87
Nsg88
Nsg89
S'd358f8b13c87ca08ba6d4b865203703e'
p583
sg91
S'f919a044dd1370f4f335deb01ba81a86'
p584
sg93
(lp585
g565
ag572
asg95
Nsba(ibclass
BBasicBlock
p586
(dp587
g12
Nsg13
(lp588
(ibclass
BInstr
p589
(dp590
g2
Nsg17
S'MOV             X20, X22'
p591
sg19
S'f40316aa'
p592
sg21
Vmov x20, x22
p593
sg5
L18446743798839657104L
sg6
Nsg23
S'MOV'
p594
sg25
S'0xffffffc0007a4290L'
p595
sg27
Nsba(ibclass
BInstr
p596
(dp597
g2
Nsg17
S'LDR             X22, [X22]'
p598
sg19
S'd60240f9'
p599
sg21
Vldr x22, [x22]
p600
sg5
L18446743798839657108L
sg6
Nsg23
S'LDR'
p601
sg25
S'0xffffffc0007a4294L'
p602
sg27
Nsba(ibclass
BInstr
p603
(dp604
g2
Nsg17
S'B               loc_FFFFFFC0007A4218'
p605
sg19
S'e0ffff17'
p606
sg21
Vb #0xffffffffffffff80
p607
sg5
L18446743798839657112L
sg6
Nsg23
g248
sg25
S'0xffffffc0007a4298L'
p608
sg27
Nsbasg70
(lp609
S'MOV reg0, reg2'
p610
aS'LDR reg2, mem'
p611
aS'B func'
p612
asg79
Nsg5
S'0xffffffc0007a4290L'
p613
sg81
(lp614
S'0xffffffc0007a4220L'
p615
aS'0xffffffc0007a4288L'
p616
asg6
Nsg83
(lp617
S'0xffffffc0007a4218L'
p618
asg87
Nsg88
Nsg89
S'59fec51b96903419ce74db6c8543c4e0'
p619
sg91
S'41aeca68990f2d961e9b599172acad2a'
p620
sg93
(lp621
g594
ag601
ag248
asg95
Nsba(ibclass
BBasicBlock
p622
(dp623
g12
Nsg13
(lp624
(ibclass
BInstr
p625
(dp626
g2
Nsg17
S'MOV             X0, X23'
p627
sg19
S'e00317aa'
p628
sg21
Vmov x0, x23
p629
sg5
L18446743798839657116L
sg6
Nsg23
S'MOV'
p630
sg25
S'0xffffffc0007a429cL'
p631
sg27
Nsba(ibclass
BInstr
p632
(dp633
g2
Nsg17
S'BL              mutex_unlock'
p634
sg19
S'5a571a94'
p635
sg21
Vbl #0x695d68
p636
sg5
L18446743798839657120L
sg6
Nsg23
S'BL'
p637
sg25
S'0xffffffc0007a42a0L'
p638
sg27
Nsba(ibclass
BInstr
p639
(dp640
g2
Nsg17
S'LDR             X20, [X19,#0x60]'
p641
sg19
S'743240f9'
p642
sg21
Vldr x20, [x19, #0x60]
p643
sg5
L18446743798839657124L
sg6
Nsg23
S'LDR'
p644
sg25
S'0xffffffc0007a42a4L'
p645
sg27
Nsba(ibclass
BInstr
p646
(dp647
g2
Nsg17
S'ADD             X21, X20, #0x10'
p648
sg19
S'95420091'
p649
sg21
Vadd x21, x20, #0x10
p650
sg5
L18446743798839657128L
sg6
Nsg23
S'ADD'
p651
sg25
S'0xffffffc0007a42a8L'
p652
sg27
Nsba(ibclass
BInstr
p653
(dp654
g2
Nsg17
S'MOV             X0, X21'
p655
sg19
S'e00315aa'
p656
sg21
Vmov x0, x21
p657
sg5
L18446743798839657132L
sg6
Nsg23
S'MOV'
p658
sg25
S'0xffffffc0007a42acL'
p659
sg27
Nsba(ibclass
BInstr
p660
(dp661
g2
Nsg17
S'BL              mutex_lock'
p662
sg19
S'13581a94'
p663
sg21
Vbl #0x69604c
p664
sg5
L18446743798839657136L
sg6
Nsg23
S'BL'
p665
sg25
S'0xffffffc0007a42b0L'
p666
sg27
Nsba(ibclass
BInstr
p667
(dp668
g2
Nsg17
S'LDR             X1, [X20,#0x8F8]'
p669
sg19
S'817e44f9'
p670
sg21
Vldr x1, [x20, #0x8f8]
p671
sg5
L18446743798839657140L
sg6
Nsg23
S'LDR'
p672
sg25
S'0xffffffc0007a42b4L'
p673
sg27
Nsba(ibclass
BInstr
p674
(dp675
g2
Nsg17
S'ADD             X3, X20, #0x8F8'
p676
sg19
S'83e22391'
p677
sg21
Vadd x3, x20, #0x8f8
p678
sg5
L18446743798839657144L
sg6
Nsg23
S'ADD'
p679
sg25
S'0xffffffc0007a42b8L'
p680
sg27
Nsba(ibclass
BInstr
p681
(dp682
g2
Nsg17
S'LDR             X2, [X1]'
p683
sg19
S'220040f9'
p684
sg21
Vldr x2, [x1]
p685
sg5
L18446743798839657148L
sg6
Nsg23
S'LDR'
p686
sg25
S'0xffffffc0007a42bcL'
p687
sg27
Nsbasg70
(lp688
S'MOV reg, reg3'
p689
aS'BL mutex_unlock'
p690
aS'LDR reg0, mem'
p691
aS'ADD reg1, reg0, #0x10'
p692
aS'MOV reg, reg1'
p693
aS'BL mutex_lock'
p694
aS'LDR reg, mem'
p695
aS'ADD reg, reg0, #0x8F8'
p696
aS'LDR reg, mem'
p697
asg79
Nsg5
S'0xffffffc0007a429cL'
p698
sg81
(lp699
S'0xffffffc0007a4218L'
p700
asg6
Nsg83
(lp701
S'0xffffffc0007a42c0L'
p702
asg87
Nsg88
Nsg89
S'59afaaf9ba0301544b2b062b2185fce6'
p703
sg91
S'0bdeeeb67e3a94e812e26f57a2ab5ba0'
p704
sg93
(lp705
g630
ag637
ag644
ag651
ag658
ag665
ag672
ag679
ag686
asg95
Nsba(ibclass
BBasicBlock
p706
(dp707
g12
Nsg13
(lp708
(ibclass
BInstr
p709
(dp710
g2
Nsg17
S'CMP             X1, X3'
p711
sg19
S'3f0003eb'
p712
sg21
Vcmp x1, x3
p713
sg5
L18446743798839657152L
sg6
Nsg23
S'CMP'
p714
sg25
S'0xffffffc0007a42c0L'
p715
sg27
Nsba(ibclass
BInstr
p716
(dp717
g2
Nsg17
S'B.EQ            loc_FFFFFFC0007A4304'
p718
sg19
S'00020054'
p719
sg21
Vb.eq #0x40
p720
sg5
L18446743798839657156L
sg6
Nsg23
g248
sg25
S'0xffffffc0007a42c4L'
p721
sg27
Nsbasg70
(lp722
S'CMP reg, reg'
p723
aS'B.EQ func'
p724
asg79
Nsg5
S'0xffffffc0007a42c0L'
p725
sg81
(lp726
S'0xffffffc0007a429cL'
p727
aS'0xffffffc0007a42f8L'
p728
asg6
Nsg83
(lp729
S'0xffffffc0007a42c8L'
p730
aS'0xffffffc0007a4304L'
p731
asg87
Nsg88
Nsg89
S'c78fd620a449e3c979d3f3ec12d4ee88'
p732
sg91
S'cd020f6b9bc7a829fec19b8ab4fd5c17'
p733
sg93
(lp734
g714
ag248
asg95
Nsba(ibclass
BBasicBlock
p735
(dp736
g12
Nsg13
(lp737
(ibclass
BInstr
p738
(dp739
g2
Nsg17
S'CMP             X1, X19'
p740
sg19
S'3f0013eb'
p741
sg21
Vcmp x1, x19
p742
sg5
L18446743798839657160L
sg6
Nsg23
S'CMP'
p743
sg25
S'0xffffffc0007a42c8L'
p744
sg27
Nsba(ibclass
BInstr
p745
(dp746
g2
Nsg17
S'B.NE            loc_FFFFFFC0007A42F8'
p747
sg19
S'61010054'
p748
sg21
Vb.ne #0x2c
p749
sg5
L18446743798839657164L
sg6
Nsg23
g248
sg25
S'0xffffffc0007a42ccL'
p750
sg27
Nsbasg70
(lp751
S'CMP reg, reg9'
p752
aS'B.NE func'
p753
asg79
Nsg5
S'0xffffffc0007a42c8L'
p754
sg81
(lp755
S'0xffffffc0007a42c0L'
p756
asg6
Nsg83
(lp757
S'0xffffffc0007a42d0L'
p758
aS'0xffffffc0007a42f8L'
p759
asg87
Nsg88
Nsg89
S'c78fd620a449e3c979d3f3ec12d4ee88'
p760
sg91
S'cc2e4ae28478ecfa03ee245c9e3eb211'
p761
sg93
(lp762
g743
ag248
asg95
Nsba(ibclass
BBasicBlock
p763
(dp764
g12
Nsg13
(lp765
(ibclass
BInstr
p766
(dp767
g2
Nsg17
S'LDR             X0, [X19,#8]'
p768
sg19
S'600640f9'
p769
sg21
Vldr x0, [x19, #8]
p770
sg5
L18446743798839657168L
sg6
Nsg23
S'LDR'
p771
sg25
S'0xffffffc0007a42d0L'
p772
sg27
Nsba(ibclass
BInstr
p773
(dp774
g2
Nsg17
S'LDR             X1, [X19]'
p775
sg19
S'610240f9'
p776
sg21
Vldr x1, [x19]
p777
sg5
L18446743798839657172L
sg6
Nsg23
S'LDR'
p778
sg25
S'0xffffffc0007a42d4L'
p779
sg27
Nsba(ibclass
BInstr
p780
(dp781
g2
Nsg17
S'STR             X0, [X1,#8]'
p782
sg19
S'200400f9'
p783
sg21
Vstr x0, [x1, #8]
p784
sg5
L18446743798839657176L
sg6
Nsg23
S'STR'
p785
sg25
S'0xffffffc0007a42d8L'
p786
sg27
Nsba(ibclass
BInstr
p787
(dp788
g2
Nsg17
S'STR             X1, [X0]'
p789
sg19
S'010000f9'
p790
sg21
Vstr x1, [x0]
p791
sg5
L18446743798839657180L
sg6
Nsg23
S'STR'
p792
sg25
S'0xffffffc0007a42dcL'
p793
sg27
Nsba(ibclass
BInstr
p794
(dp795
g2
Nsg17
S'MOV             X0, #0x100'
p796
sg19
S'002080d2'
p797
sg21
Vmovz x0, #0x100
p798
sg5
L18446743798839657184L
sg6
Nsg23
S'MOV'
p799
sg25
S'0xffffffc0007a42e0L'
p800
sg27
Nsba(ibclass
BInstr
p801
(dp802
g2
Nsg17
S'MOVK            X0, #0xDEAD,LSL#48'
p803
sg19
S'a0d5fbf2'
p804
sg21
Vmovk x0, #0xdead, lsl #48
p805
sg5
L18446743798839657188L
sg6
Nsg23
S'MOVK'
p806
sg25
S'0xffffffc0007a42e4L'
p807
sg27
Nsba(ibclass
BInstr
p808
(dp809
g2
Nsg17
S'STR             X0, [X19]'
p810
sg19
S'600200f9'
p811
sg21
Vstr x0, [x19]
p812
sg5
L18446743798839657192L
sg6
Nsg23
S'STR'
p813
sg25
S'0xffffffc0007a42e8L'
p814
sg27
Nsba(ibclass
BInstr
p815
(dp816
g2
Nsg17
S'MOV             X0, #0x200'
p817
sg19
S'004080d2'
p818
sg21
Vmovz x0, #0x200
p819
sg5
L18446743798839657196L
sg6
Nsg23
S'MOV'
p820
sg25
S'0xffffffc0007a42ecL'
p821
sg27
Nsba(ibclass
BInstr
p822
(dp823
g2
Nsg17
S'MOVK            X0, #0xDEAD,LSL#48'
p824
sg19
S'a0d5fbf2'
p825
sg21
Vmovk x0, #0xdead, lsl #48
p826
sg5
L18446743798839657200L
sg6
Nsg23
S'MOVK'
p827
sg25
S'0xffffffc0007a42f0L'
p828
sg27
Nsba(ibclass
BInstr
p829
(dp830
g2
Nsg17
S'STR             X0, [X19,#8]'
p831
sg19
S'600600f9'
p832
sg21
Vstr x0, [x19, #8]
p833
sg5
L18446743798839657204L
sg6
Nsg23
S'STR'
p834
sg25
S'0xffffffc0007a42f4L'
p835
sg27
Nsbasg70
(lp836
S'LDR reg, mem'
p837
aS'LDR reg, mem'
p838
aS'STR reg, mem'
p839
aS'STR reg, mem'
p840
aS'MOV reg, #0x100'
p841
aS'MOVK reg, #0xDEAD,LSL#48'
p842
aS'STR reg, mem'
p843
aS'MOV reg, #0x200'
p844
aS'MOVK reg, #0xDEAD,LSL#48'
p845
aS'STR reg, mem'
p846
asg79
Nsg5
S'0xffffffc0007a42d0L'
p847
sg81
(lp848
S'0xffffffc0007a42c8L'
p849
asg6
Nsg83
(lp850
S'0xffffffc0007a42f8L'
p851
asg87
Nsg88
Nsg89
S'59470dee573bf52d4e0a9b801e0191d2'
p852
sg91
S'9e55e67ad0356d5e931367c88c423ada'
p853
sg93
(lp854
g771
ag778
ag785
ag792
ag799
ag806
ag813
ag820
ag827
ag834
asg95
Nsba(ibclass
BBasicBlock
p855
(dp856
g12
Nsg13
(lp857
(ibclass
BInstr
p858
(dp859
g2
Nsg17
S'MOV             X1, X2'
p860
sg19
S'e10302aa'
p861
sg21
Vmov x1, x2
p862
sg5
L18446743798839657208L
sg6
Nsg23
S'MOV'
p863
sg25
S'0xffffffc0007a42f8L'
p864
sg27
Nsba(ibclass
BInstr
p865
(dp866
g2
Nsg17
S'LDR             X2, [X2]'
p867
sg19
S'420040f9'
p868
sg21
Vldr x2, [x2]
p869
sg5
L18446743798839657212L
sg6
Nsg23
S'LDR'
p870
sg25
S'0xffffffc0007a42fcL'
p871
sg27
Nsba(ibclass
BInstr
p872
(dp873
g2
Nsg17
S'B               loc_FFFFFFC0007A42C0'
p874
sg19
S'f0ffff17'
p875
sg21
Vb #0xffffffffffffffc0
p876
sg5
L18446743798839657216L
sg6
Nsg23
g248
sg25
S'0xffffffc0007a4300L'
p877
sg27
Nsbasg70
(lp878
S'MOV reg, reg'
p879
aS'LDR reg, mem'
p880
aS'B func'
p881
asg79
Nsg5
S'0xffffffc0007a42f8L'
p882
sg81
(lp883
S'0xffffffc0007a42c8L'
p884
aS'0xffffffc0007a42d0L'
p885
asg6
Nsg83
(lp886
S'0xffffffc0007a42c0L'
p887
asg87
Nsg88
Nsg89
S'59fec51b96903419ce74db6c8543c4e0'
p888
sg91
S'f1fe201b19e46040afa754a194a34b8c'
p889
sg93
(lp890
g863
ag870
ag248
asg95
Nsba(ibclass
BBasicBlock
p891
(dp892
g12
Nsg13
(lp893
(ibclass
BInstr
p894
(dp895
g2
Nsg17
S'MOV             X0, X21'
p896
sg19
S'e00315aa'
p897
sg21
Vmov x0, x21
p898
sg5
L18446743798839657220L
sg6
Nsg23
S'MOV'
p899
sg25
S'0xffffffc0007a4304L'
p900
sg27
Nsba(ibclass
BInstr
p901
(dp902
g2
Nsg17
S'BL              mutex_unlock'
p903
sg19
S'40571a94'
p904
sg21
Vbl #0x695d00
p905
sg5
L18446743798839657224L
sg6
Nsg23
S'BL'
p906
sg25
S'0xffffffc0007a4308L'
p907
sg27
Nsba(ibclass
BInstr
p908
(dp909
g2
Nsg17
S'LDR             W0, [X19,#0x68]'
p910
sg19
S'606a40b9'
p911
sg21
Vldr w0, [x19, #0x68]
p912
sg5
L18446743798839657228L
sg6
Nsg23
S'LDR'
p913
sg25
S'0xffffffc0007a430cL'
p914
sg27
Nsba(ibclass
BInstr
p915
(dp916
g2
Nsg17
S'CMP             W0, #1'
p917
sg19
S'1f040071'
p918
sg21
Vcmp w0, #1
p919
sg5
L18446743798839657232L
sg6
Nsg23
S'CMP'
p920
sg25
S'0xffffffc0007a4310L'
p921
sg27
Nsba(ibclass
BInstr
p922
(dp923
g2
Nsg17
S'B.NE            loc_FFFFFFC0007A4324'
p924
sg19
S'81000054'
p925
sg21
Vb.ne #0x10
p926
sg5
L18446743798839657236L
sg6
Nsg23
g248
sg25
S'0xffffffc0007a4314L'
p927
sg27
Nsbasg70
(lp928
S'MOV reg, reg1'
p929
aS'BL mutex_unlock'
p930
aS'LDR reg, mem'
p931
aS'CMP reg, #1'
p932
aS'B.NE func'
p933
asg79
Nsg5
S'0xffffffc0007a4304L'
p934
sg81
(lp935
S'0xffffffc0007a42c0L'
p936
asg6
Nsg83
(lp937
S'0xffffffc0007a4318L'
p938
aS'0xffffffc0007a4324L'
p939
asg87
Nsg88
Nsg89
S'4b424ec4ae6fc4f34f58b51fd1c10108'
p940
sg91
S'18d30ededa4ac02f81cc76855a8b9ccf'
p941
sg93
(lp942
g899
ag906
ag913
ag920
ag248
asg95
Nsba(ibclass
BBasicBlock
p943
(dp944
g12
Nsg13
(lp945
(ibclass
BInstr
p946
(dp947
g2
Nsg17
S'MOV             X0, X19'
p948
sg19
S'e00313aa'
p949
sg21
Vmov x0, x19
p950
sg5
L18446743798839657240L
sg6
Nsg23
S'MOV'
p951
sg25
S'0xffffffc0007a4318L'
p952
sg27
Nsba(ibclass
BInstr
p953
(dp954
g2
Nsg17
S'BL              msm_vdec_ctrl_deinit'
p955
sg19
S'13110094'
p956
sg21
Vbl #0x444c
p957
sg5
L18446743798839657244L
sg6
Nsg23
S'BL'
p958
sg25
S'0xffffffc0007a431cL'
p959
sg27
Nsba(ibclass
BInstr
p960
(dp961
g2
Nsg17
S'B               loc_FFFFFFC0007A4330'
p962
sg19
S'04000014'
p963
sg21
Vb #0x10
p964
sg5
L18446743798839657248L
sg6
Nsg23
g248
sg25
S'0xffffffc0007a4320L'
p965
sg27
Nsbasg70
(lp966
S'MOV reg, reg9'
p967
aS'BL msm_vdec_ctrl_deinit'
p968
aS'B func'
p969
asg79
Nsg5
S'0xffffffc0007a4318L'
p970
sg81
(lp971
S'0xffffffc0007a4304L'
p972
asg6
Nsg83
(lp973
S'0xffffffc0007a4330L'
p974
asg87
Nsg88
Nsg89
S'f3f645dfcfe38b34211b70b425c07bfe'
p975
sg91
S'1e36616fbf6783319827dfd03e70fa68'
p976
sg93
(lp977
g951
ag958
ag248
asg95
Nsba(ibclass
BBasicBlock
p978
(dp979
g12
Nsg13
(lp980
(ibclass
BInstr
p981
(dp982
g2
Nsg17
S'CBNZ            W0, loc_FFFFFFC0007A4330'
p983
sg19
S'60000035'
p984
sg21
Vcbnz w0, #0xc
p985
sg5
L18446743798839657252L
sg6
Nsg23
S'CBNZ'
p986
sg25
S'0xffffffc0007a4324L'
p987
sg27
Nsbasg70
(lp988
S'CBNZ reg, func'
p989
asg79
Nsg5
S'0xffffffc0007a4324L'
p990
sg81
(lp991
S'0xffffffc0007a4304L'
p992
asg6
Nsg83
(lp993
S'0xffffffc0007a4328L'
p994
aS'0xffffffc0007a4330L'
p995
asg87
Nsg88
Nsg89
S'482b7d814ad85789cad59d80ecb8562a'
p996
sg91
S'c81d544e8093e123ef790602aa39a0d0'
p997
sg93
(lp998
g986
asg95
Nsba(ibclass
BBasicBlock
p999
(dp1000
g12
Nsg13
(lp1001
(ibclass
BInstr
p1002
(dp1003
g2
Nsg17
S'MOV             X0, X19'
p1004
sg19
S'e00313aa'
p1005
sg21
Vmov x0, x19
p1006
sg5
L18446743798839657256L
sg6
Nsg23
S'MOV'
p1007
sg25
S'0xffffffc0007a4328L'
p1008
sg27
Nsba(ibclass
BInstr
p1009
(dp1010
g2
Nsg17
S'BL              msm_venc_ctrl_deinit'
p1011
sg19
S'392c0094'
p1012
sg21
Vbl #0xb0e4
p1013
sg5
L18446743798839657260L
sg6
Nsg23
S'BL'
p1014
sg25
S'0xffffffc0007a432cL'
p1015
sg27
Nsbasg70
(lp1016
S'MOV reg, reg9'
p1017
aS'BL msm_venc_ctrl_deinit'
p1018
asg79
Nsg5
S'0xffffffc0007a4328L'
p1019
sg81
(lp1020
S'0xffffffc0007a4324L'
p1021
asg6
Nsg83
(lp1022
S'0xffffffc0007a4330L'
p1023
asg87
Nsg88
Nsg89
S'd358f8b13c87ca08ba6d4b865203703e'
p1024
sg91
S'47fe976e3c2a72306a3fc92139ee4156'
p1025
sg93
(lp1026
g1007
ag1014
asg95
Nsba(ibclass
BBasicBlock
p1027
(dp1028
g12
Nsg13
(lp1029
(ibclass
BInstr
p1030
(dp1031
g2
Nsg17
S'ADD             X0, X19, #0xA8'
p1032
sg19
S'60a20291'
p1033
sg21
Vadd x0, x19, #0xa8
p1034
sg5
L18446743798839657264L
sg6
Nsg23
S'ADD'
p1035
sg25
S'0xffffffc0007a4330L'
p1036
sg27
Nsba(ibclass
BInstr
p1037
(dp1038
g2
Nsg17
S'BL              vb2_queue_release'
p1039
sg19
S'43c1ff97'
p1040
sg21
Vbl #0xffffffffffff050c
p1041
sg5
L18446743798839657268L
sg6
Nsg23
S'BL'
p1042
sg25
S'0xffffffc0007a4334L'
p1043
sg27
Nsba(ibclass
BInstr
p1044
(dp1045
g2
Nsg17
S'ADD             X0, X19, #0x3D8'
p1046
sg19
S'60620f91'
p1047
sg21
Vadd x0, x19, #0x3d8
p1048
sg5
L18446743798839657272L
sg6
Nsg23
S'ADD'
p1049
sg25
S'0xffffffc0007a4338L'
p1050
sg27
Nsba(ibclass
BInstr
p1051
(dp1052
g2
Nsg17
S'BL              vb2_queue_release'
p1053
sg19
S'41c1ff97'
p1054
sg21
Vbl #0xffffffffffff0504
p1055
sg5
L18446743798839657276L
sg6
Nsg23
S'BL'
p1056
sg25
S'0xffffffc0007a433cL'
p1057
sg27
Nsba(ibclass
BInstr
p1058
(dp1059
g2
Nsg17
S'ADD             X22, X19, #0x718'
p1060
sg19
S'76621c91'
p1061
sg21
Vadd x22, x19, #0x718
p1062
sg5
L18446743798839657280L
sg6
Nsg23
S'ADD'
p1063
sg25
S'0xffffffc0007a4340L'
p1064
sg27
Nsba(ibclass
BInstr
p1065
(dp1066
g2
Nsg17
S'MOV             X0, X22'
p1067
sg19
S'e00316aa'
p1068
sg21
Vmov x0, x22
p1069
sg5
L18446743798839657284L
sg6
Nsg23
S'MOV'
p1070
sg25
S'0xffffffc0007a4344L'
p1071
sg27
Nsba(ibclass
BInstr
p1072
(dp1073
g2
Nsg17
S'BL              mutex_lock'
p1074
sg19
S'ed571a94'
p1075
sg21
Vbl #0x695fb4
p1076
sg5
L18446743798839657288L
sg6
Nsg23
S'BL'
p1077
sg25
S'0xffffffc0007a4348L'
p1078
sg27
Nsba(ibclass
BInstr
p1079
(dp1080
g2
Nsg17
S'LDR             X1, [X19,#0x708]'
p1081
sg19
S'618643f9'
p1082
sg21
Vldr x1, [x19, #0x708]
p1083
sg5
L18446743798839657292L
sg6
Nsg23
S'LDR'
p1084
sg25
S'0xffffffc0007a434cL'
p1085
sg27
Nsba(ibclass
BInstr
p1086
(dp1087
g2
Nsg17
S'ADD             X23, X19, #0x708'
p1088
sg19
S'77221c91'
p1089
sg21
Vadd x23, x19, #0x708
p1090
sg5
L18446743798839657296L
sg6
Nsg23
S'ADD'
p1091
sg25
S'0xffffffc0007a4350L'
p1092
sg27
Nsba(ibclass
BInstr
p1093
(dp1094
g2
Nsg17
S'LDR             X21, [X1]'
p1095
sg19
S'350040f9'
p1096
sg21
Vldr x21, [x1]
p1097
sg5
L18446743798839657300L
sg6
Nsg23
S'LDR'
p1098
sg25
S'0xffffffc0007a4354L'
p1099
sg27
Nsbasg70
(lp1100
S'ADD reg, reg9, #0xA8'
p1101
aS'BL vb2_queue_release'
p1102
aS'ADD reg, reg9, #0x3D8'
p1103
aS'BL vb2_queue_release'
p1104
aS'ADD reg2, reg9, #0x718'
p1105
aS'MOV reg, reg2'
p1106
aS'BL mutex_lock'
p1107
aS'LDR reg, mem'
p1108
aS'ADD reg3, reg9, #0x708'
p1109
aS'LDR reg1, mem'
p1110
asg79
Nsg5
S'0xffffffc0007a4330L'
p1111
sg81
(lp1112
S'0xffffffc0007a4318L'
p1113
aS'0xffffffc0007a4324L'
p1114
aS'0xffffffc0007a4328L'
p1115
asg6
Nsg83
(lp1116
S'0xffffffc0007a4358L'
p1117
asg87
Nsg88
Nsg89
S'8ed70ca5e824bc4f9b2abc7bdfab24ad'
p1118
sg91
S'f85653b9b5e966b095f8dfab2617930b'
p1119
sg93
(lp1120
g1035
ag1042
ag1049
ag1056
ag1063
ag1070
ag1077
ag1084
ag1091
ag1098
asg95
Nsba(ibclass
BBasicBlock
p1121
(dp1122
g12
Nsg13
(lp1123
(ibclass
BInstr
p1124
(dp1125
g2
Nsg17
S'CMP             X1, X23'
p1126
sg19
S'3f0017eb'
p1127
sg21
Vcmp x1, x23
p1128
sg5
L18446743798839657304L
sg6
Nsg23
S'CMP'
p1129
sg25
S'0xffffffc0007a4358L'
p1130
sg27
Nsba(ibclass
BInstr
p1131
(dp1132
g2
Nsg17
S'B.EQ            loc_FFFFFFC0007A439C'
p1133
sg19
S'00020054'
p1134
sg21
Vb.eq #0x40
p1135
sg5
L18446743798839657308L
sg6
Nsg23
g248
sg25
S'0xffffffc0007a435cL'
p1136
sg27
Nsbasg70
(lp1137
S'CMP reg, reg3'
p1138
aS'B.EQ func'
p1139
asg79
Nsg5
S'0xffffffc0007a4358L'
p1140
sg81
(lp1141
S'0xffffffc0007a4330L'
p1142
aS'0xffffffc0007a4360L'
p1143
asg6
Nsg83
(lp1144
S'0xffffffc0007a4360L'
p1145
aS'0xffffffc0007a439cL'
p1146
asg87
Nsg88
Nsg89
S'c78fd620a449e3c979d3f3ec12d4ee88'
p1147
sg91
S'6426fbb475e35e7a89f668a58924a495'
p1148
sg93
(lp1149
g1129
ag248
asg95
Nsba(ibclass
BBasicBlock
p1150
(dp1151
g12
Nsg13
(lp1152
(ibclass
BInstr
p1153
(dp1154
g2
Nsg17
S'LDR             X0, [X1,#8]'
p1155
sg19
S'200440f9'
p1156
sg21
Vldr x0, [x1, #8]
p1157
sg5
L18446743798839657312L
sg6
Nsg23
S'LDR'
p1158
sg25
S'0xffffffc0007a4360L'
p1159
sg27
Nsba(ibclass
BInstr
p1160
(dp1161
g2
Nsg17
S'LDR             X2, [X1]'
p1162
sg19
S'220040f9'
p1163
sg21
Vldr x2, [x1]
p1164
sg5
L18446743798839657316L
sg6
Nsg23
S'LDR'
p1165
sg25
S'0xffffffc0007a4364L'
p1166
sg27
Nsba(ibclass
BInstr
p1167
(dp1168
g2
Nsg17
S'STR             X0, [X2,#8]'
p1169
sg19
S'400400f9'
p1170
sg21
Vstr x0, [x2, #8]
p1171
sg5
L18446743798839657320L
sg6
Nsg23
S'STR'
p1172
sg25
S'0xffffffc0007a4368L'
p1173
sg27
Nsba(ibclass
BInstr
p1174
(dp1175
g2
Nsg17
S'STR             X2, [X0]'
p1176
sg19
S'020000f9'
p1177
sg21
Vstr x2, [x0]
p1178
sg5
L18446743798839657324L
sg6
Nsg23
S'STR'
p1179
sg25
S'0xffffffc0007a436cL'
p1180
sg27
Nsba(ibclass
BInstr
p1181
(dp1182
g2
Nsg17
S'MOV             X0, #0x100'
p1183
sg19
S'002080d2'
p1184
sg21
Vmovz x0, #0x100
p1185
sg5
L18446743798839657328L
sg6
Nsg23
S'MOV'
p1186
sg25
S'0xffffffc0007a4370L'
p1187
sg27
Nsba(ibclass
BInstr
p1188
(dp1189
g2
Nsg17
S'MOVK            X0, #0xDEAD,LSL#48'
p1190
sg19
S'a0d5fbf2'
p1191
sg21
Vmovk x0, #0xdead, lsl #48
p1192
sg5
L18446743798839657332L
sg6
Nsg23
S'MOVK'
p1193
sg25
S'0xffffffc0007a4374L'
p1194
sg27
Nsba(ibclass
BInstr
p1195
(dp1196
g2
Nsg17
S'STR             X0, [X1]'
p1197
sg19
S'200000f9'
p1198
sg21
Vstr x0, [x1]
p1199
sg5
L18446743798839657336L
sg6
Nsg23
S'STR'
p1200
sg25
S'0xffffffc0007a4378L'
p1201
sg27
Nsba(ibclass
BInstr
p1202
(dp1203
g2
Nsg17
S'MOV             X0, #0x200'
p1204
sg19
S'004080d2'
p1205
sg21
Vmovz x0, #0x200
p1206
sg5
L18446743798839657340L
sg6
Nsg23
S'MOV'
p1207
sg25
S'0xffffffc0007a437cL'
p1208
sg27
Nsba(ibclass
BInstr
p1209
(dp1210
g2
Nsg17
S'MOVK            X0, #0xDEAD,LSL#48'
p1211
sg19
S'a0d5fbf2'
p1212
sg21
Vmovk x0, #0xdead, lsl #48
p1213
sg5
L18446743798839657344L
sg6
Nsg23
S'MOVK'
p1214
sg25
S'0xffffffc0007a4380L'
p1215
sg27
Nsba(ibclass
BInstr
p1216
(dp1217
g2
Nsg17
S'STR             X0, [X1,#8]'
p1218
sg19
S'200400f9'
p1219
sg21
Vstr x0, [x1, #8]
p1220
sg5
L18446743798839657348L
sg6
Nsg23
S'STR'
p1221
sg25
S'0xffffffc0007a4384L'
p1222
sg27
Nsba(ibclass
BInstr
p1223
(dp1224
g2
Nsg17
S'MOV             X0, X1'
p1225
sg19
S'e00301aa'
p1226
sg21
Vmov x0, x1
p1227
sg5
L18446743798839657352L
sg6
Nsg23
S'MOV'
p1228
sg25
S'0xffffffc0007a4388L'
p1229
sg27
Nsba(ibclass
BInstr
p1230
(dp1231
g2
Nsg17
S'BL              kfree'
p1232
sg19
S'd932ed97'
p1233
sg21
Vbl #0xffffffffffb4cb64
p1234
sg5
L18446743798839657356L
sg6
Nsg23
S'BL'
p1235
sg25
S'0xffffffc0007a438cL'
p1236
sg27
Nsba(ibclass
BInstr
p1237
(dp1238
g2
Nsg17
S'MOV             X1, X21'
p1239
sg19
S'e10315aa'
p1240
sg21
Vmov x1, x21
p1241
sg5
L18446743798839657360L
sg6
Nsg23
S'MOV'
p1242
sg25
S'0xffffffc0007a4390L'
p1243
sg27
Nsba(ibclass
BInstr
p1244
(dp1245
g2
Nsg17
S'LDR             X21, [X21]'
p1246
sg19
S'b50240f9'
p1247
sg21
Vldr x21, [x21]
p1248
sg5
L18446743798839657364L
sg6
Nsg23
S'LDR'
p1249
sg25
S'0xffffffc0007a4394L'
p1250
sg27
Nsba(ibclass
BInstr
p1251
(dp1252
g2
Nsg17
S'B               loc_FFFFFFC0007A4358'
p1253
sg19
S'f0ffff17'
p1254
sg21
Vb #0xffffffffffffffc0
p1255
sg5
L18446743798839657368L
sg6
Nsg23
g248
sg25
S'0xffffffc0007a4398L'
p1256
sg27
Nsbasg70
(lp1257
S'LDR reg, mem'
p1258
aS'LDR reg, mem'
p1259
aS'STR reg, mem'
p1260
aS'STR reg, mem'
p1261
aS'MOV reg, #0x100'
p1262
aS'MOVK reg, #0xDEAD,LSL#48'
p1263
aS'STR reg, mem'
p1264
aS'MOV reg, #0x200'
p1265
aS'MOVK reg, #0xDEAD,LSL#48'
p1266
aS'STR reg, mem'
p1267
aS'MOV reg, reg'
p1268
aS'BL kfree'
p1269
aS'MOV reg, reg1'
p1270
aS'LDR reg1, mem'
p1271
aS'B func'
p1272
asg79
Nsg5
S'0xffffffc0007a4360L'
p1273
sg81
(lp1274
S'0xffffffc0007a4358L'
p1275
asg6
Nsg83
(lp1276
S'0xffffffc0007a4358L'
p1277
asg87
Nsg88
Nsg89
S'2bfe876946df23df59d006f73d53434f'
p1278
sg91
S'c173218feda8dba19a237d81ba9d0133'
p1279
sg93
(lp1280
g1158
ag1165
ag1172
ag1179
ag1186
ag1193
ag1200
ag1207
ag1214
ag1221
ag1228
ag1235
ag1242
ag1249
ag248
asg95
Nsba(ibclass
BBasicBlock
p1281
(dp1282
g12
Nsg13
(lp1283
(ibclass
BInstr
p1284
(dp1285
g2
Nsg17
S'MOV             X0, X22'
p1286
sg19
S'e00316aa'
p1287
sg21
Vmov x0, x22
p1288
sg5
L18446743798839657372L
sg6
Nsg23
S'MOV'
p1289
sg25
S'0xffffffc0007a439cL'
p1290
sg27
Nsba(ibclass
BInstr
p1291
(dp1292
g2
Nsg17
S'BL              mutex_unlock'
p1293
sg19
S'1a571a94'
p1294
sg21
Vbl #0x695c68
p1295
sg5
L18446743798839657376L
sg6
Nsg23
S'BL'
p1296
sg25
S'0xffffffc0007a43a0L'
p1297
sg27
Nsba(ibclass
BInstr
p1298
(dp1299
g2
Nsg17
S'MOV             X0, X19'
p1300
sg19
S'e00313aa'
p1301
sg21
Vmov x0, x19
p1302
sg5
L18446743798839657380L
sg6
Nsg23
S'MOV'
p1303
sg25
S'0xffffffc0007a43a4L'
p1304
sg27
Nsba(ibclass
BInstr
p1305
(dp1306
g2
Nsg17
S'MOV             W1, #0'
p1307
sg19
S'01008052'
p1308
sg21
Vmovz w1, #0
p1309
sg5
L18446743798839657384L
sg6
Nsg23
S'MOV'
p1310
sg25
S'0xffffffc0007a43a8L'
p1311
sg27
Nsba(ibclass
BInstr
p1312
(dp1313
g2
Nsg17
S'BL              msm_comm_release_scratch_buffers'
p1314
sg19
S'57efff97'
p1315
sg21
Vbl #0xffffffffffffbd5c
p1316
sg5
L18446743798839657388L
sg6
Nsg23
S'BL'
p1317
sg25
S'0xffffffc0007a43acL'
p1318
sg27
Nsba(ibclass
BInstr
p1319
(dp1320
g2
Nsg17
S'CBZ             W0, loc_FFFFFFC0007A43E8'
p1321
sg19
S'c0010034'
p1322
sg21
Vcbz w0, #0x38
p1323
sg5
L18446743798839657392L
sg6
Nsg23
S'CBZ'
p1324
sg25
S'0xffffffc0007a43b0L'
p1325
sg27
Nsbasg70
(lp1326
S'MOV reg, reg2'
p1327
aS'BL mutex_unlock'
p1328
aS'MOV reg, reg9'
p1329
aS'MOV reg, #0'
p1330
aS'BL msm_comm_release_scratch_buffers'
p1331
aS'CBZ reg, func'
p1332
asg79
Nsg5
S'0xffffffc0007a439cL'
p1333
sg81
(lp1334
S'0xffffffc0007a4358L'
p1335
asg6
Nsg83
(lp1336
S'0xffffffc0007a43b4L'
p1337
aS'0xffffffc0007a43e8L'
p1338
asg87
Nsg88
Nsg89
S'bce4e86a11effffb9963a7a68face165'
p1339
sg91
S'90c552408772071a9a27411290c5d8f6'
p1340
sg93
(lp1341
g1289
ag1296
ag1303
ag1310
ag1317
ag1324
asg95
Nsba(ibclass
BBasicBlock
p1342
(dp1343
g12
Nsg13
(lp1344
(ibclass
BInstr
p1345
(dp1346
g2
Nsg17
S'ADRP            X0, #qword_FFFFFFC000E440A0@PAGE'
p1347
sg19
S'00350090'
p1348
sg21
Vadrp x0, #0x6a0000
p1349
sg5
L18446743798839657396L
sg6
Nsg23
S'ADRP'
p1350
sg25
S'0xffffffc0007a43b4L'
p1351
sg27
Nsba(ibclass
BInstr
p1352
(dp1353
g2
Nsg17
S'LDR             X0, [X0,#qword_FFFFFFC000E440A0@PAGEOFF]'
p1354
sg19
S'005040f9'
p1355
sg21
Vldr x0, [x0, #0xa0]
p1356
sg5
L18446743798839657400L
sg6
Nsg23
S'LDR'
p1357
sg25
S'0xffffffc0007a43b8L'
p1358
sg27
Nsba(ibclass
BInstr
p1359
(dp1360
g2
Nsg17
S'LDR             W0, [X0]'
p1361
sg19
S'000040b9'
p1362
sg21
Vldr w0, [x0]
p1363
sg5
L18446743798839657404L
sg6
Nsg23
S'LDR'
p1364
sg25
S'0xffffffc0007a43bcL'
p1365
sg27
Nsba(ibclass
BInstr
p1366
(dp1367
g2
Nsg17
S'TBZ             W0, #0, loc_FFFFFFC0007A43E8'
p1368
sg19
S'40010036'
p1369
sg21
Vtbz w0, #0, #0x28
p1370
sg5
L18446743798839657408L
sg6
Nsg23
S'TBZ'
p1371
sg25
S'0xffffffc0007a43c0L'
p1372
sg27
Nsbasg70
(lp1373
S'ADRP reg, #func@PAGE'
p1374
aS'LDR reg, mem'
p1375
aS'LDR reg, mem'
p1376
aS'TBZ reg, #0, func'
p1377
asg79
Nsg5
S'0xffffffc0007a43b4L'
p1378
sg81
(lp1379
S'0xffffffc0007a439cL'
p1380
asg6
Nsg83
(lp1381
S'0xffffffc0007a43c4L'
p1382
aS'0xffffffc0007a43e8L'
p1383
asg87
Nsg88
Nsg89
S'2de94c9e326481f2f467f11acce8dcc9'
p1384
sg91
S'f9f7225e2bae36aff04e5d93bafe5e1d'
p1385
sg93
(lp1386
g1350
ag1357
ag1364
ag1371
asg95
Nsba(ibclass
BBasicBlock
p1387
(dp1388
g12
Nsg13
(lp1389
(ibclass
BInstr
p1390
(dp1391
g2
Nsg17
S'ADRP            X0, #qword_FFFFFFC000E42548@PAGE'
p1392
sg19
S'e03400d0'
p1393
sg21
Vadrp x0, #0x69e000
p1394
sg5
L18446743798839657412L
sg6
Nsg23
S'ADRP'
p1395
sg25
S'0xffffffc0007a43c4L'
p1396
sg27
Nsba(ibclass
BInstr
p1397
(dp1398
g2
Nsg17
S'LDR             X0, [X0,#qword_FFFFFFC000E42548@PAGEOFF]'
p1399
sg19
S'00a442f9'
p1400
sg21
Vldr x0, [x0, #0x548]
p1401
sg5
L18446743798839657416L
sg6
Nsg23
S'LDR'
p1402
sg25
S'0xffffffc0007a43c8L'
p1403
sg27
Nsba(ibclass
BInstr
p1404
(dp1405
g2
Nsg17
S'LDR             W0, [X0]'
p1406
sg19
S'000040b9'
p1407
sg21
Vldr w0, [x0]
p1408
sg5
L18446743798839657420L
sg6
Nsg23
S'LDR'
p1409
sg25
S'0xffffffc0007a43ccL'
p1410
sg27
Nsba(ibclass
BInstr
p1411
(dp1412
g2
Nsg17
S'CBNZ            W0, loc_FFFFFFC0007A43E8'
p1413
sg19
S'c0000035'
p1414
sg21
Vcbnz w0, #0x18
p1415
sg5
L18446743798839657424L
sg6
Nsg23
S'CBNZ'
p1416
sg25
S'0xffffffc0007a43d0L'
p1417
sg27
Nsbasg70
(lp1418
S'ADRP reg, #func@PAGE'
p1419
aS'LDR reg, mem'
p1420
aS'LDR reg, mem'
p1421
aS'CBNZ reg, func'
p1422
asg79
Nsg5
S'0xffffffc0007a43c4L'
p1423
sg81
(lp1424
S'0xffffffc0007a43b4L'
p1425
asg6
Nsg83
(lp1426
S'0xffffffc0007a43d4L'
p1427
aS'0xffffffc0007a43e8L'
p1428
asg87
Nsg88
Nsg89
S'9c97521b8b0f280d47a50ec9a5e4f86f'
p1429
sg91
S'bd26f8893557dc5fa132ff2490be0ebf'
p1430
sg93
(lp1431
g1395
ag1402
ag1409
ag1416
asg95
Nsba(ibclass
BBasicBlock
p1432
(dp1433
g12
Nsg13
(lp1434
(ibclass
BInstr
p1435
(dp1436
g2
Nsg17
S'ADRP            X0, #unk_FFFFFFC0013B8B15@PAGE'
p1437
sg19
S'a0600090'
p1438
sg21
Vadrp x0, #0xc14000
p1439
sg5
L18446743798839657428L
sg6
Nsg23
S'ADRP'
p1440
sg25
S'0xffffffc0007a43d4L'
p1441
sg27
Nsba(ibclass
BInstr
p1442
(dp1443
g2
Nsg17
S'ADRP            X1, #(aQcomMdssDsi_17+0x1B)@PAGE; "err"'
p1444
sg19
S'415c00f0'
p1445
sg21
Vadrp x1, #0xb8b000
p1446
sg5
L18446743798839657432L
sg6
Nsg23
S'ADRP'
p1447
sg25
S'0xffffffc0007a43d8L'
p1448
sg27
Nsba(ibclass
BInstr
p1449
(dp1450
g2
Nsg17
S'ADD             X0, X0, #unk_FFFFFFC0013B8B15@PAGEOFF'
p1451
sg19
S'00542c91'
p1452
sg21
Vadd x0, x0, #0xb15
p1453
sg5
L18446743798839657436L
sg6
Nsg23
S'ADD'
p1454
sg25
S'0xffffffc0007a43dcL'
p1455
sg27
Nsba(ibclass
BInstr
p1456
(dp1457
g2
Nsg17
S'ADD             X1, X1, #(aQcomMdssDsi_17+0x1B)@PAGEOFF; "err"'
p1458
sg19
S'212c0591'
p1459
sg21
Vadd x1, x1, #0x14b
p1460
sg5
L18446743798839657440L
sg6
Nsg23
S'ADD'
p1461
sg25
S'0xffffffc0007a43e0L'
p1462
sg27
Nsba(ibclass
BInstr
p1463
(dp1464
g2
Nsg17
S'BL              printk'
p1465
sg19
S'64231a94'
p1466
sg21
Vbl #0x688d90
p1467
sg5
L18446743798839657444L
sg6
Nsg23
S'BL'
p1468
sg25
S'0xffffffc0007a43e4L'
p1469
sg27
Nsbasg70
(lp1470
S'ADRP reg, #func@PAGE'
p1471
aS'ADRP reg, #(aQcomMdssDsi_17+0x1B)@PAGE'
p1472
aS'ADD reg, reg, #func@PAGEOFF'
p1473
aS'ADD reg, reg, #(aQcomMdssDsi_17+0x1B)@PAGEOFF'
p1474
aS'BL printk'
p1475
asg79
Nsg5
S'0xffffffc0007a43d4L'
p1476
sg81
(lp1477
S'0xffffffc0007a43c4L'
p1478
asg6
Nsg83
(lp1479
S'0xffffffc0007a43e8L'
p1480
asg87
Nsg88
Nsg89
S'4bb3c333f0963e9d264d92b454a1960d'
p1481
sg91
S'dfc7b5984a675b3239ed3585bd2eb73a'
p1482
sg93
(lp1483
g1440
ag1447
ag1454
ag1461
ag1468
asg95
Nsba(ibclass
BBasicBlock
p1484
(dp1485
g12
Nsg13
(lp1486
(ibclass
BInstr
p1487
(dp1488
g2
Nsg17
S'MOV             X0, X19'
p1489
sg19
S'e00313aa'
p1490
sg21
Vmov x0, x19
p1491
sg5
L18446743798839657448L
sg6
Nsg23
S'MOV'
p1492
sg25
S'0xffffffc0007a43e8L'
p1493
sg27
Nsba(ibclass
BInstr
p1494
(dp1495
g2
Nsg17
S'BL              msm_comm_release_persist_buffers'
p1496
sg19
S'0cf0ff97'
p1497
sg21
Vbl #0xffffffffffffc030
p1498
sg5
L18446743798839657452L
sg6
Nsg23
S'BL'
p1499
sg25
S'0xffffffc0007a43ecL'
p1500
sg27
Nsba(ibclass
BInstr
p1501
(dp1502
g2
Nsg17
S'CBZ             W0, loc_FFFFFFC0007A4428'
p1503
sg19
S'c0010034'
p1504
sg21
Vcbz w0, #0x38
p1505
sg5
L18446743798839657456L
sg6
Nsg23
S'CBZ'
p1506
sg25
S'0xffffffc0007a43f0L'
p1507
sg27
Nsbasg70
(lp1508
S'MOV reg, reg9'
p1509
aS'BL msm_comm_release_persist_buffers'
p1510
aS'CBZ reg, func'
p1511
asg79
Nsg5
S'0xffffffc0007a43e8L'
p1512
sg81
(lp1513
S'0xffffffc0007a439cL'
p1514
aS'0xffffffc0007a43b4L'
p1515
aS'0xffffffc0007a43c4L'
p1516
aS'0xffffffc0007a43d4L'
p1517
asg6
Nsg83
(lp1518
S'0xffffffc0007a43f4L'
p1519
aS'0xffffffc0007a4428L'
p1520
asg87
Nsg88
Nsg89
S'24c2e47bf1622bfd10d174f71444b255'
p1521
sg91
S'cd2606eda0873f788d8f05247dfc266d'
p1522
sg93
(lp1523
g1492
ag1499
ag1506
asg95
Nsba(ibclass
BBasicBlock
p1524
(dp1525
g12
Nsg13
(lp1526
(ibclass
BInstr
p1527
(dp1528
g2
Nsg17
S'ADRP            X0, #qword_FFFFFFC000E440A0@PAGE'
p1529
sg19
S'00350090'
p1530
sg21
Vadrp x0, #0x6a0000
p1531
sg5
L18446743798839657460L
sg6
Nsg23
S'ADRP'
p1532
sg25
S'0xffffffc0007a43f4L'
p1533
sg27
Nsba(ibclass
BInstr
p1534
(dp1535
g2
Nsg17
S'LDR             X0, [X0,#qword_FFFFFFC000E440A0@PAGEOFF]'
p1536
sg19
S'005040f9'
p1537
sg21
Vldr x0, [x0, #0xa0]
p1538
sg5
L18446743798839657464L
sg6
Nsg23
S'LDR'
p1539
sg25
S'0xffffffc0007a43f8L'
p1540
sg27
Nsba(ibclass
BInstr
p1541
(dp1542
g2
Nsg17
S'LDR             W0, [X0]'
p1543
sg19
S'000040b9'
p1544
sg21
Vldr w0, [x0]
p1545
sg5
L18446743798839657468L
sg6
Nsg23
S'LDR'
p1546
sg25
S'0xffffffc0007a43fcL'
p1547
sg27
Nsba(ibclass
BInstr
p1548
(dp1549
g2
Nsg17
S'TBZ             W0, #0, loc_FFFFFFC0007A4428'
p1550
sg19
S'40010036'
p1551
sg21
Vtbz w0, #0, #0x28
p1552
sg5
L18446743798839657472L
sg6
Nsg23
S'TBZ'
p1553
sg25
S'0xffffffc0007a4400L'
p1554
sg27
Nsbasg70
(lp1555
S'ADRP reg, #func@PAGE'
p1556
aS'LDR reg, mem'
p1557
aS'LDR reg, mem'
p1558
aS'TBZ reg, #0, func'
p1559
asg79
Nsg5
S'0xffffffc0007a43f4L'
p1560
sg81
(lp1561
S'0xffffffc0007a43e8L'
p1562
asg6
Nsg83
(lp1563
S'0xffffffc0007a4404L'
p1564
aS'0xffffffc0007a4428L'
p1565
asg87
Nsg88
Nsg89
S'2de94c9e326481f2f467f11acce8dcc9'
p1566
sg91
S'f9f7225e2bae36aff04e5d93bafe5e1d'
p1567
sg93
(lp1568
g1532
ag1539
ag1546
ag1553
asg95
Nsba(ibclass
BBasicBlock
p1569
(dp1570
g12
Nsg13
(lp1571
(ibclass
BInstr
p1572
(dp1573
g2
Nsg17
S'ADRP            X0, #qword_FFFFFFC000E42548@PAGE'
p1574
sg19
S'e03400d0'
p1575
sg21
Vadrp x0, #0x69e000
p1576
sg5
L18446743798839657476L
sg6
Nsg23
S'ADRP'
p1577
sg25
S'0xffffffc0007a4404L'
p1578
sg27
Nsba(ibclass
BInstr
p1579
(dp1580
g2
Nsg17
S'LDR             X0, [X0,#qword_FFFFFFC000E42548@PAGEOFF]'
p1581
sg19
S'00a442f9'
p1582
sg21
Vldr x0, [x0, #0x548]
p1583
sg5
L18446743798839657480L
sg6
Nsg23
S'LDR'
p1584
sg25
S'0xffffffc0007a4408L'
p1585
sg27
Nsba(ibclass
BInstr
p1586
(dp1587
g2
Nsg17
S'LDR             W0, [X0]'
p1588
sg19
S'000040b9'
p1589
sg21
Vldr w0, [x0]
p1590
sg5
L18446743798839657484L
sg6
Nsg23
S'LDR'
p1591
sg25
S'0xffffffc0007a440cL'
p1592
sg27
Nsba(ibclass
BInstr
p1593
(dp1594
g2
Nsg17
S'CBNZ            W0, loc_FFFFFFC0007A4428'
p1595
sg19
S'c0000035'
p1596
sg21
Vcbnz w0, #0x18
p1597
sg5
L18446743798839657488L
sg6
Nsg23
S'CBNZ'
p1598
sg25
S'0xffffffc0007a4410L'
p1599
sg27
Nsbasg70
(lp1600
S'ADRP reg, #func@PAGE'
p1601
aS'LDR reg, mem'
p1602
aS'LDR reg, mem'
p1603
aS'CBNZ reg, func'
p1604
asg79
Nsg5
S'0xffffffc0007a4404L'
p1605
sg81
(lp1606
S'0xffffffc0007a43f4L'
p1607
asg6
Nsg83
(lp1608
S'0xffffffc0007a4414L'
p1609
aS'0xffffffc0007a4428L'
p1610
asg87
Nsg88
Nsg89
S'9c97521b8b0f280d47a50ec9a5e4f86f'
p1611
sg91
S'bd26f8893557dc5fa132ff2490be0ebf'
p1612
sg93
(lp1613
g1577
ag1584
ag1591
ag1598
asg95
Nsba(ibclass
BBasicBlock
p1614
(dp1615
g12
Nsg13
(lp1616
(ibclass
BInstr
p1617
(dp1618
g2
Nsg17
S'ADRP            X0, #unk_FFFFFFC0013B9827@PAGE'
p1619
sg19
S'a06000b0'
p1620
sg21
Vadrp x0, #0xc15000
p1621
sg5
L18446743798839657492L
sg6
Nsg23
S'ADRP'
p1622
sg25
S'0xffffffc0007a4414L'
p1623
sg27
Nsba(ibclass
BInstr
p1624
(dp1625
g2
Nsg17
S'ADRP            X1, #(aQcomMdssDsi_17+0x1B)@PAGE; "err"'
p1626
sg19
S'415c00f0'
p1627
sg21
Vadrp x1, #0xb8b000
p1628
sg5
L18446743798839657496L
sg6
Nsg23
S'ADRP'
p1629
sg25
S'0xffffffc0007a4418L'
p1630
sg27
Nsba(ibclass
BInstr
p1631
(dp1632
g2
Nsg17
S'ADD             X0, X0, #unk_FFFFFFC0013B9827@PAGEOFF'
p1633
sg19
S'009c2091'
p1634
sg21
Vadd x0, x0, #0x827
p1635
sg5
L18446743798839657500L
sg6
Nsg23
S'ADD'
p1636
sg25
S'0xffffffc0007a441cL'
p1637
sg27
Nsba(ibclass
BInstr
p1638
(dp1639
g2
Nsg17
S'ADD             X1, X1, #(aQcomMdssDsi_17+0x1B)@PAGEOFF; "err"'
p1640
sg19
S'212c0591'
p1641
sg21
Vadd x1, x1, #0x14b
p1642
sg5
L18446743798839657504L
sg6
Nsg23
S'ADD'
p1643
sg25
S'0xffffffc0007a4420L'
p1644
sg27
Nsba(ibclass
BInstr
p1645
(dp1646
g2
Nsg17
S'BL              printk'
p1647
sg19
S'54231a94'
p1648
sg21
Vbl #0x688d50
p1649
sg5
L18446743798839657508L
sg6
Nsg23
S'BL'
p1650
sg25
S'0xffffffc0007a4424L'
p1651
sg27
Nsbasg70
(lp1652
S'ADRP reg, #func@PAGE'
p1653
aS'ADRP reg, #(aQcomMdssDsi_17+0x1B)@PAGE'
p1654
aS'ADD reg, reg, #func@PAGEOFF'
p1655
aS'ADD reg, reg, #(aQcomMdssDsi_17+0x1B)@PAGEOFF'
p1656
aS'BL printk'
p1657
asg79
Nsg5
S'0xffffffc0007a4414L'
p1658
sg81
(lp1659
S'0xffffffc0007a4404L'
p1660
asg6
Nsg83
(lp1661
S'0xffffffc0007a4428L'
p1662
asg87
Nsg88
Nsg89
S'4bb3c333f0963e9d264d92b454a1960d'
p1663
sg91
S'dfc7b5984a675b3239ed3585bd2eb73a'
p1664
sg93
(lp1665
g1622
ag1629
ag1636
ag1643
ag1650
asg95
Nsba(ibclass
BBasicBlock
p1666
(dp1667
g12
Nsg13
(lp1668
(ibclass
BInstr
p1669
(dp1670
g2
Nsg17
S'MOV             X0, X19'
p1671
sg19
S'e00313aa'
p1672
sg21
Vmov x0, x19
p1673
sg5
L18446743798839657512L
sg6
Nsg23
S'MOV'
p1674
sg25
S'0xffffffc0007a4428L'
p1675
sg27
Nsba(ibclass
BInstr
p1676
(dp1677
g2
Nsg17
S'BL              msm_comm_release_output_buffers'
p1678
sg19
S'97eeff97'
p1679
sg21
Vbl #0xffffffffffffba5c
p1680
sg5
L18446743798839657516L
sg6
Nsg23
S'BL'
p1681
sg25
S'0xffffffc0007a442cL'
p1682
sg27
Nsba(ibclass
BInstr
p1683
(dp1684
g2
Nsg17
S'CBZ             W0, loc_FFFFFFC0007A4468'
p1685
sg19
S'c0010034'
p1686
sg21
Vcbz w0, #0x38
p1687
sg5
L18446743798839657520L
sg6
Nsg23
S'CBZ'
p1688
sg25
S'0xffffffc0007a4430L'
p1689
sg27
Nsbasg70
(lp1690
S'MOV reg, reg9'
p1691
aS'BL msm_comm_release_output_buffers'
p1692
aS'CBZ reg, func'
p1693
asg79
Nsg5
S'0xffffffc0007a4428L'
p1694
sg81
(lp1695
S'0xffffffc0007a43e8L'
p1696
aS'0xffffffc0007a43f4L'
p1697
aS'0xffffffc0007a4404L'
p1698
aS'0xffffffc0007a4414L'
p1699
asg6
Nsg83
(lp1700
S'0xffffffc0007a4434L'
p1701
aS'0xffffffc0007a4468L'
p1702
asg87
Nsg88
Nsg89
S'24c2e47bf1622bfd10d174f71444b255'
p1703
sg91
S'6ac46d8e2e9094578ec9e81d6f612330'
p1704
sg93
(lp1705
g1674
ag1681
ag1688
asg95
Nsba(ibclass
BBasicBlock
p1706
(dp1707
g12
Nsg13
(lp1708
(ibclass
BInstr
p1709
(dp1710
g2
Nsg17
S'ADRP            X0, #qword_FFFFFFC000E440A0@PAGE'
p1711
sg19
S'00350090'
p1712
sg21
Vadrp x0, #0x6a0000
p1713
sg5
L18446743798839657524L
sg6
Nsg23
S'ADRP'
p1714
sg25
S'0xffffffc0007a4434L'
p1715
sg27
Nsba(ibclass
BInstr
p1716
(dp1717
g2
Nsg17
S'LDR             X0, [X0,#qword_FFFFFFC000E440A0@PAGEOFF]'
p1718
sg19
S'005040f9'
p1719
sg21
Vldr x0, [x0, #0xa0]
p1720
sg5
L18446743798839657528L
sg6
Nsg23
S'LDR'
p1721
sg25
S'0xffffffc0007a4438L'
p1722
sg27
Nsba(ibclass
BInstr
p1723
(dp1724
g2
Nsg17
S'LDR             W0, [X0]'
p1725
sg19
S'000040b9'
p1726
sg21
Vldr w0, [x0]
p1727
sg5
L18446743798839657532L
sg6
Nsg23
S'LDR'
p1728
sg25
S'0xffffffc0007a443cL'
p1729
sg27
Nsba(ibclass
BInstr
p1730
(dp1731
g2
Nsg17
S'TBZ             W0, #0, loc_FFFFFFC0007A4468'
p1732
sg19
S'40010036'
p1733
sg21
Vtbz w0, #0, #0x28
p1734
sg5
L18446743798839657536L
sg6
Nsg23
S'TBZ'
p1735
sg25
S'0xffffffc0007a4440L'
p1736
sg27
Nsbasg70
(lp1737
S'ADRP reg, #func@PAGE'
p1738
aS'LDR reg, mem'
p1739
aS'LDR reg, mem'
p1740
aS'TBZ reg, #0, func'
p1741
asg79
Nsg5
S'0xffffffc0007a4434L'
p1742
sg81
(lp1743
S'0xffffffc0007a4428L'
p1744
asg6
Nsg83
(lp1745
S'0xffffffc0007a4444L'
p1746
aS'0xffffffc0007a4468L'
p1747
asg87
Nsg88
Nsg89
S'2de94c9e326481f2f467f11acce8dcc9'
p1748
sg91
S'f9f7225e2bae36aff04e5d93bafe5e1d'
p1749
sg93
(lp1750
g1714
ag1721
ag1728
ag1735
asg95
Nsba(ibclass
BBasicBlock
p1751
(dp1752
g12
Nsg13
(lp1753
(ibclass
BInstr
p1754
(dp1755
g2
Nsg17
S'ADRP            X0, #qword_FFFFFFC000E42548@PAGE'
p1756
sg19
S'e03400d0'
p1757
sg21
Vadrp x0, #0x69e000
p1758
sg5
L18446743798839657540L
sg6
Nsg23
S'ADRP'
p1759
sg25
S'0xffffffc0007a4444L'
p1760
sg27
Nsba(ibclass
BInstr
p1761
(dp1762
g2
Nsg17
S'LDR             X0, [X0,#qword_FFFFFFC000E42548@PAGEOFF]'
p1763
sg19
S'00a442f9'
p1764
sg21
Vldr x0, [x0, #0x548]
p1765
sg5
L18446743798839657544L
sg6
Nsg23
S'LDR'
p1766
sg25
S'0xffffffc0007a4448L'
p1767
sg27
Nsba(ibclass
BInstr
p1768
(dp1769
g2
Nsg17
S'LDR             W0, [X0]'
p1770
sg19
S'000040b9'
p1771
sg21
Vldr w0, [x0]
p1772
sg5
L18446743798839657548L
sg6
Nsg23
S'LDR'
p1773
sg25
S'0xffffffc0007a444cL'
p1774
sg27
Nsba(ibclass
BInstr
p1775
(dp1776
g2
Nsg17
S'CBNZ            W0, loc_FFFFFFC0007A4468'
p1777
sg19
S'c0000035'
p1778
sg21
Vcbnz w0, #0x18
p1779
sg5
L18446743798839657552L
sg6
Nsg23
S'CBNZ'
p1780
sg25
S'0xffffffc0007a4450L'
p1781
sg27
Nsbasg70
(lp1782
S'ADRP reg, #func@PAGE'
p1783
aS'LDR reg, mem'
p1784
aS'LDR reg, mem'
p1785
aS'CBNZ reg, func'
p1786
asg79
Nsg5
S'0xffffffc0007a4444L'
p1787
sg81
(lp1788
S'0xffffffc0007a4434L'
p1789
asg6
Nsg83
(lp1790
S'0xffffffc0007a4454L'
p1791
aS'0xffffffc0007a4468L'
p1792
asg87
Nsg88
Nsg89
S'9c97521b8b0f280d47a50ec9a5e4f86f'
p1793
sg91
S'bd26f8893557dc5fa132ff2490be0ebf'
p1794
sg93
(lp1795
g1759
ag1766
ag1773
ag1780
asg95
Nsba(ibclass
BBasicBlock
p1796
(dp1797
g12
Nsg13
(lp1798
(ibclass
BInstr
p1799
(dp1800
g2
Nsg17
S'ADRP            X0, #unk_FFFFFFC0013B8B49@PAGE'
p1801
sg19
S'a0600090'
p1802
sg21
Vadrp x0, #0xc14000
p1803
sg5
L18446743798839657556L
sg6
Nsg23
S'ADRP'
p1804
sg25
S'0xffffffc0007a4454L'
p1805
sg27
Nsba(ibclass
BInstr
p1806
(dp1807
g2
Nsg17
S'ADRP            X1, #(aQcomMdssDsi_17+0x1B)@PAGE; "err"'
p1808
sg19
S'415c00f0'
p1809
sg21
Vadrp x1, #0xb8b000
p1810
sg5
L18446743798839657560L
sg6
Nsg23
S'ADRP'
p1811
sg25
S'0xffffffc0007a4458L'
p1812
sg27
Nsba(ibclass
BInstr
p1813
(dp1814
g2
Nsg17
S'ADD             X0, X0, #unk_FFFFFFC0013B8B49@PAGEOFF'
p1815
sg19
S'00242d91'
p1816
sg21
Vadd x0, x0, #0xb49
p1817
sg5
L18446743798839657564L
sg6
Nsg23
S'ADD'
p1818
sg25
S'0xffffffc0007a445cL'
p1819
sg27
Nsba(ibclass
BInstr
p1820
(dp1821
g2
Nsg17
S'ADD             X1, X1, #(aQcomMdssDsi_17+0x1B)@PAGEOFF; "err"'
p1822
sg19
S'212c0591'
p1823
sg21
Vadd x1, x1, #0x14b
p1824
sg5
L18446743798839657568L
sg6
Nsg23
S'ADD'
p1825
sg25
S'0xffffffc0007a4460L'
p1826
sg27
Nsba(ibclass
BInstr
p1827
(dp1828
g2
Nsg17
S'BL              printk'
p1829
sg19
S'44231a94'
p1830
sg21
Vbl #0x688d10
p1831
sg5
L18446743798839657572L
sg6
Nsg23
S'BL'
p1832
sg25
S'0xffffffc0007a4464L'
p1833
sg27
Nsbasg70
(lp1834
S'ADRP reg, #func@PAGE'
p1835
aS'ADRP reg, #(aQcomMdssDsi_17+0x1B)@PAGE'
p1836
aS'ADD reg, reg, #func@PAGEOFF'
p1837
aS'ADD reg, reg, #(aQcomMdssDsi_17+0x1B)@PAGEOFF'
p1838
aS'BL printk'
p1839
asg79
Nsg5
S'0xffffffc0007a4454L'
p1840
sg81
(lp1841
S'0xffffffc0007a4444L'
p1842
asg6
Nsg83
(lp1843
S'0xffffffc0007a4468L'
p1844
asg87
Nsg88
Nsg89
S'4bb3c333f0963e9d264d92b454a1960d'
p1845
sg91
S'dfc7b5984a675b3239ed3585bd2eb73a'
p1846
sg93
(lp1847
g1804
ag1811
ag1818
ag1825
ag1832
asg95
Nsba(ibclass
BBasicBlock
p1848
(dp1849
g12
Nsg13
(lp1850
(ibclass
BInstr
p1851
(dp1852
g2
Nsg17
S'LDR             X1, [X19,#0xCE8]'
p1853
sg19
S'617646f9'
p1854
sg21
Vldr x1, [x19, #0xce8]
p1855
sg5
L18446743798839657576L
sg6
Nsg23
S'LDR'
p1856
sg25
S'0xffffffc0007a4468L'
p1857
sg27
Nsba(ibclass
BInstr
p1858
(dp1859
g2
Nsg17
S'CBZ             X1, loc_FFFFFFC0007A4478'
p1860
sg19
S'610000b4'
p1861
sg21
Vcbz x1, #0xc
p1862
sg5
L18446743798839657580L
sg6
Nsg23
S'CBZ'
p1863
sg25
S'0xffffffc0007a446cL'
p1864
sg27
Nsbasg70
(lp1865
S'LDR reg, mem'
p1866
aS'CBZ reg, func'
p1867
asg79
Nsg5
S'0xffffffc0007a4468L'
p1868
sg81
(lp1869
S'0xffffffc0007a4428L'
p1870
aS'0xffffffc0007a4434L'
p1871
aS'0xffffffc0007a4444L'
p1872
aS'0xffffffc0007a4454L'
p1873
asg6
Nsg83
(lp1874
S'0xffffffc0007a4470L'
p1875
aS'0xffffffc0007a4478L'
p1876
asg87
Nsg88
Nsg89
S'a0c488049ab653dbdfa1dc805bb83f13'
p1877
sg91
S'33abe016da9abbebb8608f035d51762d'
p1878
sg93
(lp1879
g1856
ag1863
asg95
Nsba(ibclass
BBasicBlock
p1880
(dp1881
g12
Nsg13
(lp1882
(ibclass
BInstr
p1883
(dp1884
g2
Nsg17
S'MOV             X0, X19'
p1885
sg19
S'e00313aa'
p1886
sg21
Vmov x0, x19
p1887
sg5
L18446743798839657584L
sg6
Nsg23
S'MOV'
p1888
sg25
S'0xffffffc0007a4470L'
p1889
sg27
Nsba(ibclass
BInstr
p1890
(dp1891
g2
Nsg17
S'BL              msm_comm_smem_free'
p1892
sg19
S'36eeff97'
p1893
sg21
Vbl #0xffffffffffffb8d8
p1894
sg5
L18446743798839657588L
sg6
Nsg23
S'BL'
p1895
sg25
S'0xffffffc0007a4474L'
p1896
sg27
Nsbasg70
(lp1897
S'MOV reg, reg9'
p1898
aS'BL msm_comm_smem_free'
p1899
asg79
Nsg5
S'0xffffffc0007a4470L'
p1900
sg81
(lp1901
S'0xffffffc0007a4468L'
p1902
asg6
Nsg83
(lp1903
S'0xffffffc0007a4478L'
p1904
asg87
Nsg88
Nsg89
S'd358f8b13c87ca08ba6d4b865203703e'
p1905
sg91
S'44a88ca1c710880106f6a9467bda6cac'
p1906
sg93
(lp1907
g1888
ag1895
asg95
Nsba(ibclass
BBasicBlock
p1908
(dp1909
g12
Nsg13
(lp1910
(ibclass
BInstr
p1911
(dp1912
g2
Nsg17
S'LDR             X0, [X19,#0xD18]'
p1913
sg19
S'608e46f9'
p1914
sg21
Vldr x0, [x19, #0xd18]
p1915
sg5
L18446743798839657592L
sg6
Nsg23
S'LDR'
p1916
sg25
S'0xffffffc0007a4478L'
p1917
sg27
Nsba(ibclass
BInstr
p1918
(dp1919
g2
Nsg17
S'ADD             X21, X19, #0x7C0'
p1920
sg19
S'75021f91'
p1921
sg21
Vadd x21, x19, #0x7c0
p1922
sg5
L18446743798839657596L
sg6
Nsg23
S'ADD'
p1923
sg25
S'0xffffffc0007a447cL'
p1924
sg27
Nsba(ibclass
BInstr
p1925
(dp1926
g2
Nsg17
S'BL              debugfs_remove_recursive'
p1927
sg19
S'3474f097'
p1928
sg21
Vbl #0xffffffffffc1d0d0
p1929
sg5
L18446743798839657600L
sg6
Nsg23
S'BL'
p1930
sg25
S'0xffffffc0007a4480L'
p1931
sg27
Nsba(ibclass
BInstr
p1932
(dp1933
g2
Nsg17
S'MOV             X0, X21'
p1934
sg19
S'e00315aa'
p1935
sg21
Vmov x0, x21
p1936
sg5
L18446743798839657604L
sg6
Nsg23
S'MOV'
p1937
sg25
S'0xffffffc0007a4484L'
p1938
sg27
Nsba(ibclass
BInstr
p1939
(dp1940
g2
Nsg17
S'BL              mutex_lock'
p1941
sg19
S'9d571a94'
p1942
sg21
Vbl #0x695e74
p1943
sg5
L18446743798839657608L
sg6
Nsg23
S'BL'
p1944
sg25
S'0xffffffc0007a4488L'
p1945
sg27
Nsba(ibclass
BInstr
p1946
(dp1947
g2
Nsg17
S'LDR             X1, [X19,#0x7B0]'
p1948
sg19
S'61da43f9'
p1949
sg21
Vldr x1, [x19, #0x7b0]
p1950
sg5
L18446743798839657612L
sg6
Nsg23
S'LDR'
p1951
sg25
S'0xffffffc0007a448cL'
p1952
sg27
Nsba(ibclass
BInstr
p1953
(dp1954
g2
Nsg17
S'ADD             X0, X19, #0x7B0'
p1955
sg19
S'60c21e91'
p1956
sg21
Vadd x0, x19, #0x7b0
p1957
sg5
L18446743798839657616L
sg6
Nsg23
S'ADD'
p1958
sg25
S'0xffffffc0007a4490L'
p1959
sg27
Nsba(ibclass
BInstr
p1960
(dp1961
g2
Nsg17
S'CMP             X1, X0'
p1962
sg19
S'3f0000eb'
p1963
sg21
Vcmp x1, x0
p1964
sg5
L18446743798839657620L
sg6
Nsg23
S'CMP'
p1965
sg25
S'0xffffffc0007a4494L'
p1966
sg27
Nsba(ibclass
BInstr
p1967
(dp1968
g2
Nsg17
S'B.EQ            loc_FFFFFFC0007A44AC'
p1969
sg19
S'a0000054'
p1970
sg21
Vb.eq #0x14
p1971
sg5
L18446743798839657624L
sg6
Nsg23
g248
sg25
S'0xffffffc0007a4498L'
p1972
sg27
Nsbasg70
(lp1973
S'LDR reg, mem'
p1974
aS'ADD reg1, reg9, #0x7C0'
p1975
aS'BL debugfs_remove_recursive'
p1976
aS'MOV reg, reg1'
p1977
aS'BL mutex_lock'
p1978
aS'LDR reg, mem'
p1979
aS'ADD reg, reg9, #0x7B0'
p1980
aS'CMP reg, reg'
p1981
aS'B.EQ func'
p1982
asg79
Nsg5
S'0xffffffc0007a4478L'
p1983
sg81
(lp1984
S'0xffffffc0007a4468L'
p1985
aS'0xffffffc0007a4470L'
p1986
asg6
Nsg83
(lp1987
S'0xffffffc0007a449cL'
p1988
aS'0xffffffc0007a44acL'
p1989
asg87
Nsg88
Nsg89
S'a4171b558fb53120340fb45a824d2482'
p1990
sg91
S'7ac781110fce0139250e6008128dd9bf'
p1991
sg93
(lp1992
g1916
ag1923
ag1930
ag1937
ag1944
ag1951
ag1958
ag1965
ag248
asg95
Nsba(ibclass
BBasicBlock
p1993
(dp1994
g12
Nsg13
(lp1995
(ibclass
BInstr
p1996
(dp1997
g2
Nsg17
S'ADRP            X0, #aDriversMediaPl@PAGE; "drivers/media/platform/msm/vidc/msm_vid"...'
p1998
sg19
S'a06000b0'
p1999
sg21
Vadrp x0, #0xc15000
p2000
sg5
L18446743798839657628L
sg6
Nsg23
S'ADRP'
p2001
sg25
S'0xffffffc0007a449cL'
p2002
sg27
Nsba(ibclass
BInstr
p2003
(dp2004
g2
Nsg17
S'ADD             X0, X0, #aDriversMediaPl@PAGEOFF; "drivers/media/platform/msm/vidc/msm_vid"...'
p2005
sg19
S'006c2191'
p2006
sg21
Vadd x0, x0, #0x85b
p2007
sg5
L18446743798839657632L
sg6
Nsg23
S'ADD'
p2008
sg25
S'0xffffffc0007a44a0L'
p2009
sg27
Nsba(ibclass
BInstr
p2010
(dp2011
g2
Nsg17
S'MOV             W1, #0x57C'
p2012
sg19
S'81af8052'
p2013
sg21
Vmovz w1, #0x57c
p2014
sg5
L18446743798839657636L
sg6
Nsg23
S'MOV'
p2015
sg25
S'0xffffffc0007a44a4L'
p2016
sg27
Nsba(ibclass
BInstr
p2017
(dp2018
g2
Nsg17
S'BL              warn_slowpath_null'
p2019
sg19
S'9ae0e997'
p2020
sg21
Vbl #0xffffffffffa78268
p2021
sg5
L18446743798839657640L
sg6
Nsg23
S'BL'
p2022
sg25
S'0xffffffc0007a44a8L'
p2023
sg27
Nsbasg70
(lp2024
S'ADRP reg, #aDriversMediaPl@PAGE'
p2025
aS'ADD reg, reg, #aDriversMediaPl@PAGEOFF'
p2026
aS'MOV reg, #0x57C'
p2027
aS'BL warn_slowpath_null'
p2028
asg79
Nsg5
S'0xffffffc0007a449cL'
p2029
sg81
(lp2030
S'0xffffffc0007a4478L'
p2031
asg6
Nsg83
(lp2032
S'0xffffffc0007a44acL'
p2033
asg87
Nsg88
Nsg89
S'7281c9b7aeb600f14d7bce04ad76fa3f'
p2034
sg91
S'b24553112367d5a44401d302beefcd9d'
p2035
sg93
(lp2036
g2001
ag2008
ag2015
ag2022
asg95
Nsba(ibclass
BBasicBlock
p2037
(dp2038
g12
Nsg13
(lp2039
(ibclass
BInstr
p2040
(dp2041
g2
Nsg17
S'MOV             X0, X21'
p2042
sg19
S'e00315aa'
p2043
sg21
Vmov x0, x21
p2044
sg5
L18446743798839657644L
sg6
Nsg23
S'MOV'
p2045
sg25
S'0xffffffc0007a44acL'
p2046
sg27
Nsba(ibclass
BInstr
p2047
(dp2048
g2
Nsg17
S'BL              mutex_unlock'
p2049
sg19
S'd6561a94'
p2050
sg21
Vbl #0x695b58
p2051
sg5
L18446743798839657648L
sg6
Nsg23
S'BL'
p2052
sg25
S'0xffffffc0007a44b0L'
p2053
sg27
Nsba(ibclass
BInstr
p2054
(dp2055
g2
Nsg17
S'LDR             W0, [X19,#0x90]'
p2056
sg19
S'609240b9'
p2057
sg21
Vldr w0, [x19, #0x90]
p2058
sg5
L18446743798839657652L
sg6
Nsg23
S'LDR'
p2059
sg25
S'0xffffffc0007a44b4L'
p2060
sg27
Nsba(ibclass
BInstr
p2061
(dp2062
g2
Nsg17
S'CMP             W0, #0x11'
p2063
sg19
S'1f440071'
p2064
sg21
Vcmp w0, #0x11
p2065
sg5
L18446743798839657656L
sg6
Nsg23
S'CMP'
p2066
sg25
S'0xffffffc0007a44b8L'
p2067
sg27
Nsba(ibclass
BInstr
p2068
(dp2069
g2
Nsg17
S'B.EQ            loc_FFFFFFC0007A44DC'
p2070
sg19
S'00010054'
p2071
sg21
Vb.eq #0x20
p2072
sg5
L18446743798839657660L
sg6
Nsg23
g248
sg25
S'0xffffffc0007a44bcL'
p2073
sg27
Nsbasg70
(lp2074
S'MOV reg, reg1'
p2075
aS'BL mutex_unlock'
p2076
aS'LDR reg, mem'
p2077
aS'CMP reg, #0x11'
p2078
aS'B.EQ func'
p2079
asg79
Nsg5
S'0xffffffc0007a44acL'
p2080
sg81
(lp2081
S'0xffffffc0007a4478L'
p2082
aS'0xffffffc0007a449cL'
p2083
asg6
Nsg83
(lp2084
S'0xffffffc0007a44c0L'
p2085
aS'0xffffffc0007a44dcL'
p2086
asg87
Nsg88
Nsg89
S'4b424ec4ae6fc4f34f58b51fd1c10108'
p2087
sg91
S'67b2c7e505eb8ad033dbd4565890d115'
p2088
sg93
(lp2089
g2045
ag2052
ag2059
ag2066
ag248
asg95
Nsba(ibclass
BBasicBlock
p2090
(dp2091
g12
Nsg13
(lp2092
(ibclass
BInstr
p2093
(dp2094
g2
Nsg17
S'LDR             W0, [X20,#0x910]'
p2095
sg19
S'801249b9'
p2096
sg21
Vldr w0, [x20, #0x910]
p2097
sg5
L18446743798839657664L
sg6
Nsg23
S'LDR'
p2098
sg25
S'0xffffffc0007a44c0L'
p2099
sg27
Nsba(ibclass
BInstr
p2100
(dp2101
g2
Nsg17
S'CMP             W0, #4'
p2102
sg19
S'1f100071'
p2103
sg21
Vcmp w0, #4
p2104
sg5
L18446743798839657668L
sg6
Nsg23
S'CMP'
p2105
sg25
S'0xffffffc0007a44c4L'
p2106
sg27
Nsba(ibclass
BInstr
p2107
(dp2108
g2
Nsg17
S'B.EQ            loc_FFFFFFC0007A44DC'
p2109
sg19
S'a0000054'
p2110
sg21
Vb.eq #0x14
p2111
sg5
L18446743798839657672L
sg6
Nsg23
g248
sg25
S'0xffffffc0007a44c8L'
p2112
sg27
Nsbasg70
(lp2113
S'LDR reg, mem'
p2114
aS'CMP reg, #4'
p2115
aS'B.EQ func'
p2116
asg79
Nsg5
S'0xffffffc0007a44c0L'
p2117
sg81
(lp2118
S'0xffffffc0007a44acL'
p2119
asg6
Nsg83
(lp2120
S'0xffffffc0007a44ccL'
p2121
aS'0xffffffc0007a44dcL'
p2122
asg87
Nsg88
Nsg89
S'fa4df767a85c49648339e2dc5c6807f6'
p2123
sg91
S'4b46cedc680bc8880831616ccdffdc64'
p2124
sg93
(lp2125
g2098
ag2105
ag248
asg95
Nsba(ibclass
BBasicBlock
p2126
(dp2127
g12
Nsg13
(lp2128
(ibclass
BInstr
p2129
(dp2130
g2
Nsg17
S'MOV             X0, X19'
p2131
sg19
S'e00313aa'
p2132
sg21
Vmov x0, x19
p2133
sg5
L18446743798839657676L
sg6
Nsg23
S'MOV'
p2134
sg25
S'0xffffffc0007a44ccL'
p2135
sg27
Nsba(ibclass
BInstr
p2136
(dp2137
g2
Nsg17
S'MOV             W1, #0x10'
p2138
sg19
S'01028052'
p2139
sg21
Vmovz w1, #0x10
p2140
sg5
L18446743798839657680L
sg6
Nsg23
S'MOV'
p2141
sg25
S'0xffffffc0007a44d0L'
p2142
sg27
Nsba(ibclass
BInstr
p2143
(dp2144
g2
Nsg17
S'BL              msm_comm_try_state'
p2145
sg19
S'1ae2ff97'
p2146
sg21
Vbl #0xffffffffffff8868
p2147
sg5
L18446743798839657684L
sg6
Nsg23
S'BL'
p2148
sg25
S'0xffffffc0007a44d4L'
p2149
sg27
Nsba(ibclass
BInstr
p2150
(dp2151
g2
Nsg17
S'B               loc_FFFFFFC0007A44E4'
p2152
sg19
S'03000014'
p2153
sg21
Vb #0xc
p2154
sg5
L18446743798839657688L
sg6
Nsg23
g248
sg25
S'0xffffffc0007a44d8L'
p2155
sg27
Nsbasg70
(lp2156
S'MOV reg, reg9'
p2157
aS'MOV reg, #0x10'
p2158
aS'BL msm_comm_try_state'
p2159
aS'B func'
p2160
asg79
Nsg5
S'0xffffffc0007a44ccL'
p2161
sg81
(lp2162
S'0xffffffc0007a44c0L'
p2163
asg6
Nsg83
(lp2164
S'0xffffffc0007a44e4L'
p2165
asg87
Nsg88
Nsg89
S'c7080d4a00502726be394af0677088cd'
p2166
sg91
S'feed3f4c02d0c6e45172d37e3a3941e6'
p2167
sg93
(lp2168
g2134
ag2141
ag2148
ag248
asg95
Nsba(ibclass
BBasicBlock
p2169
(dp2170
g12
Nsg13
(lp2171
(ibclass
BInstr
p2172
(dp2173
g2
Nsg17
S'MOV             X0, X19'
p2174
sg19
S'e00313aa'
p2175
sg21
Vmov x0, x19
p2176
sg5
L18446743798839657692L
sg6
Nsg23
S'MOV'
p2177
sg25
S'0xffffffc0007a44dcL'
p2178
sg27
Nsba(ibclass
BInstr
p2179
(dp2180
g2
Nsg17
S'BL              msm_comm_force_cleanup'
p2181
sg19
S'a1e1ff97'
p2182
sg21
Vbl #0xffffffffffff8684
p2183
sg5
L18446743798839657696L
sg6
Nsg23
S'BL'
p2184
sg25
S'0xffffffc0007a44e0L'
p2185
sg27
Nsbasg70
(lp2186
S'MOV reg, reg9'
p2187
aS'BL msm_comm_force_cleanup'
p2188
asg79
Nsg5
S'0xffffffc0007a44dcL'
p2189
sg81
(lp2190
S'0xffffffc0007a44acL'
p2191
aS'0xffffffc0007a44c0L'
p2192
asg6
Nsg83
(lp2193
S'0xffffffc0007a44e4L'
p2194
asg87
Nsg88
Nsg89
S'd358f8b13c87ca08ba6d4b865203703e'
p2195
sg91
S'bbbec4e80d12ef080574c757f283bed0'
p2196
sg93
(lp2197
g2177
ag2184
asg95
Nsba(ibclass
BBasicBlock
p2198
(dp2199
g12
Nsg13
(lp2200
(ibclass
BInstr
p2201
(dp2202
g2
Nsg17
S'CBZ             W0, loc_FFFFFFC0007A451C'
p2203
sg19
S'c0010034'
p2204
sg21
Vcbz w0, #0x38
p2205
sg5
L18446743798839657700L
sg6
Nsg23
S'CBZ'
p2206
sg25
S'0xffffffc0007a44e4L'
p2207
sg27
Nsbasg70
(lp2208
S'CBZ reg, func'
p2209
asg79
Nsg5
S'0xffffffc0007a44e4L'
p2210
sg81
(lp2211
S'0xffffffc0007a44ccL'
p2212
aS'0xffffffc0007a44dcL'
p2213
asg6
Nsg83
(lp2214
S'0xffffffc0007a44e8L'
p2215
aS'0xffffffc0007a451cL'
p2216
asg87
Nsg88
Nsg89
S'de8e361453cf9f764a4abe9d486f8fbe'
p2217
sg91
S'1f44e7b7d6ea8c93b4632bf8395c86c6'
p2218
sg93
(lp2219
g2206
asg95
Nsba(ibclass
BBasicBlock
p2220
(dp2221
g12
Nsg13
(lp2222
(ibclass
BInstr
p2223
(dp2224
g2
Nsg17
S'ADRP            X0, #qword_FFFFFFC000E440A0@PAGE'
p2225
sg19
S'00350090'
p2226
sg21
Vadrp x0, #0x6a0000
p2227
sg5
L18446743798839657704L
sg6
Nsg23
S'ADRP'
p2228
sg25
S'0xffffffc0007a44e8L'
p2229
sg27
Nsba(ibclass
BInstr
p2230
(dp2231
g2
Nsg17
S'LDR             X0, [X0,#qword_FFFFFFC000E440A0@PAGEOFF]'
p2232
sg19
S'005040f9'
p2233
sg21
Vldr x0, [x0, #0xa0]
p2234
sg5
L18446743798839657708L
sg6
Nsg23
S'LDR'
p2235
sg25
S'0xffffffc0007a44ecL'
p2236
sg27
Nsba(ibclass
BInstr
p2237
(dp2238
g2
Nsg17
S'LDR             W0, [X0]'
p2239
sg19
S'000040b9'
p2240
sg21
Vldr w0, [x0]
p2241
sg5
L18446743798839657712L
sg6
Nsg23
S'LDR'
p2242
sg25
S'0xffffffc0007a44f0L'
p2243
sg27
Nsba(ibclass
BInstr
p2244
(dp2245
g2
Nsg17
S'TBZ             W0, #0, loc_FFFFFFC0007A451C'
p2246
sg19
S'40010036'
p2247
sg21
Vtbz w0, #0, #0x28
p2248
sg5
L18446743798839657716L
sg6
Nsg23
S'TBZ'
p2249
sg25
S'0xffffffc0007a44f4L'
p2250
sg27
Nsbasg70
(lp2251
S'ADRP reg, #func@PAGE'
p2252
aS'LDR reg, mem'
p2253
aS'LDR reg, mem'
p2254
aS'TBZ reg, #0, func'
p2255
asg79
Nsg5
S'0xffffffc0007a44e8L'
p2256
sg81
(lp2257
S'0xffffffc0007a44e4L'
p2258
asg6
Nsg83
(lp2259
S'0xffffffc0007a44f8L'
p2260
aS'0xffffffc0007a451cL'
p2261
asg87
Nsg88
Nsg89
S'2de94c9e326481f2f467f11acce8dcc9'
p2262
sg91
S'f9f7225e2bae36aff04e5d93bafe5e1d'
p2263
sg93
(lp2264
g2228
ag2235
ag2242
ag2249
asg95
Nsba(ibclass
BBasicBlock
p2265
(dp2266
g12
Nsg13
(lp2267
(ibclass
BInstr
p2268
(dp2269
g2
Nsg17
S'ADRP            X0, #qword_FFFFFFC000E42548@PAGE'
p2270
sg19
S'e03400d0'
p2271
sg21
Vadrp x0, #0x69e000
p2272
sg5
L18446743798839657720L
sg6
Nsg23
S'ADRP'
p2273
sg25
S'0xffffffc0007a44f8L'
p2274
sg27
Nsba(ibclass
BInstr
p2275
(dp2276
g2
Nsg17
S'LDR             X0, [X0,#qword_FFFFFFC000E42548@PAGEOFF]'
p2277
sg19
S'00a442f9'
p2278
sg21
Vldr x0, [x0, #0x548]
p2279
sg5
L18446743798839657724L
sg6
Nsg23
S'LDR'
p2280
sg25
S'0xffffffc0007a44fcL'
p2281
sg27
Nsba(ibclass
BInstr
p2282
(dp2283
g2
Nsg17
S'LDR             W0, [X0]'
p2284
sg19
S'000040b9'
p2285
sg21
Vldr w0, [x0]
p2286
sg5
L18446743798839657728L
sg6
Nsg23
S'LDR'
p2287
sg25
S'0xffffffc0007a4500L'
p2288
sg27
Nsba(ibclass
BInstr
p2289
(dp2290
g2
Nsg17
S'CBNZ            W0, loc_FFFFFFC0007A451C'
p2291
sg19
S'c0000035'
p2292
sg21
Vcbnz w0, #0x18
p2293
sg5
L18446743798839657732L
sg6
Nsg23
S'CBNZ'
p2294
sg25
S'0xffffffc0007a4504L'
p2295
sg27
Nsbasg70
(lp2296
S'ADRP reg, #func@PAGE'
p2297
aS'LDR reg, mem'
p2298
aS'LDR reg, mem'
p2299
aS'CBNZ reg, func'
p2300
asg79
Nsg5
S'0xffffffc0007a44f8L'
p2301
sg81
(lp2302
S'0xffffffc0007a44e8L'
p2303
asg6
Nsg83
(lp2304
S'0xffffffc0007a4508L'
p2305
aS'0xffffffc0007a451cL'
p2306
asg87
Nsg88
Nsg89
S'9c97521b8b0f280d47a50ec9a5e4f86f'
p2307
sg91
S'bd26f8893557dc5fa132ff2490be0ebf'
p2308
sg93
(lp2309
g2273
ag2280
ag2287
ag2294
asg95
Nsba(ibclass
BBasicBlock
p2310
(dp2311
g12
Nsg13
(lp2312
(ibclass
BInstr
p2313
(dp2314
g2
Nsg17
S'ADRP            X0, #unk_FFFFFFC0013B9886@PAGE'
p2315
sg19
S'a06000b0'
p2316
sg21
Vadrp x0, #0xc15000
p2317
sg5
L18446743798839657736L
sg6
Nsg23
S'ADRP'
p2318
sg25
S'0xffffffc0007a4508L'
p2319
sg27
Nsba(ibclass
BInstr
p2320
(dp2321
g2
Nsg17
S'ADRP            X1, #(aQcomMdssDsi_17+0x1B)@PAGE; "err"'
p2322
sg19
S'415c00f0'
p2323
sg21
Vadrp x1, #0xb8b000
p2324
sg5
L18446743798839657740L
sg6
Nsg23
S'ADRP'
p2325
sg25
S'0xffffffc0007a450cL'
p2326
sg27
Nsba(ibclass
BInstr
p2327
(dp2328
g2
Nsg17
S'ADD             X0, X0, #unk_FFFFFFC0013B9886@PAGEOFF'
p2329
sg19
S'00182291'
p2330
sg21
Vadd x0, x0, #0x886
p2331
sg5
L18446743798839657744L
sg6
Nsg23
S'ADD'
p2332
sg25
S'0xffffffc0007a4510L'
p2333
sg27
Nsba(ibclass
BInstr
p2334
(dp2335
g2
Nsg17
S'ADD             X1, X1, #(aQcomMdssDsi_17+0x1B)@PAGEOFF; "err"'
p2336
sg19
S'212c0591'
p2337
sg21
Vadd x1, x1, #0x14b
p2338
sg5
L18446743798839657748L
sg6
Nsg23
S'ADD'
p2339
sg25
S'0xffffffc0007a4514L'
p2340
sg27
Nsba(ibclass
BInstr
p2341
(dp2342
g2
Nsg17
S'BL              printk'
p2343
sg19
S'17231a94'
p2344
sg21
Vbl #0x688c5c
p2345
sg5
L18446743798839657752L
sg6
Nsg23
S'BL'
p2346
sg25
S'0xffffffc0007a4518L'
p2347
sg27
Nsbasg70
(lp2348
S'ADRP reg, #func@PAGE'
p2349
aS'ADRP reg, #(aQcomMdssDsi_17+0x1B)@PAGE'
p2350
aS'ADD reg, reg, #func@PAGEOFF'
p2351
aS'ADD reg, reg, #(aQcomMdssDsi_17+0x1B)@PAGEOFF'
p2352
aS'BL printk'
p2353
asg79
Nsg5
S'0xffffffc0007a4508L'
p2354
sg81
(lp2355
S'0xffffffc0007a44f8L'
p2356
asg6
Nsg83
(lp2357
S'0xffffffc0007a451cL'
p2358
asg87
Nsg88
Nsg89
S'4bb3c333f0963e9d264d92b454a1960d'
p2359
sg91
S'dfc7b5984a675b3239ed3585bd2eb73a'
p2360
sg93
(lp2361
g2318
ag2325
ag2332
ag2339
ag2346
asg95
Nsba(ibclass
BBasicBlock
p2362
(dp2363
g12
Nsg13
(lp2364
(ibclass
BInstr
p2365
(dp2366
g2
Nsg17
S'MOV             X0, X19'
p2367
sg19
S'e00313aa'
p2368
sg21
Vmov x0, x19
p2369
sg5
L18446743798839657756L
sg6
Nsg23
S'MOV'
p2370
sg25
S'0xffffffc0007a451cL'
p2371
sg27
Nsba(ibclass
BInstr
p2372
(dp2373
g2
Nsg17
S'BL              msm_comm_session_clean'
p2374
sg19
S'e1d5ff97'
p2375
sg21
Vbl #0xffffffffffff5784
p2376
sg5
L18446743798839657760L
sg6
Nsg23
S'BL'
p2377
sg25
S'0xffffffc0007a4520L'
p2378
sg27
Nsba(ibclass
BInstr
p2379
(dp2380
g2
Nsg17
S'LDR             X0, [X19,#0x9B8]'
p2381
sg19
S'60de44f9'
p2382
sg21
Vldr x0, [x19, #0x9b8]
p2383
sg5
L18446743798839657764L
sg6
Nsg23
S'LDR'
p2384
sg25
S'0xffffffc0007a4524L'
p2385
sg27
Nsba(ibclass
BInstr
p2386
(dp2387
g2
Nsg17
S'BL              msm_smem_delete_client'
p2388
sg19
S'b72c0094'
p2389
sg21
Vbl #0xb2dc
p2390
sg5
L18446743798839657768L
sg6
Nsg23
S'BL'
p2391
sg25
S'0xffffffc0007a4528L'
p2392
sg27
Nsba(ibclass
BInstr
p2393
(dp2394
g2
Nsg17
S'ADRP            X0, #unk_FFFFFFC0013B98C6@PAGE'
p2395
sg19
S'a06000b0'
p2396
sg21
Vadrp x0, #0xc15000
p2397
sg5
L18446743798839657772L
sg6
Nsg23
S'ADRP'
p2398
sg25
S'0xffffffc0007a452cL'
p2399
sg27
Nsba(ibclass
BInstr
p2400
(dp2401
g2
Nsg17
S'ADRP            X1, #aInfo@PAGE; "info"'
p2402
sg19
S'615e00d0'
p2403
sg21
Vadrp x1, #0xbce000
p2404
sg5
L18446743798839657776L
sg6
Nsg23
S'ADRP'
p2405
sg25
S'0xffffffc0007a4530L'
p2406
sg27
Nsba(ibclass
BInstr
p2407
(dp2408
g2
Nsg17
S'ADD             X1, X1, #aInfo@PAGEOFF; "info"'
p2409
sg19
S'21243a91'
p2410
sg21
Vadd x1, x1, #0xe89
p2411
sg5
L18446743798839657780L
sg6
Nsg23
S'ADD'
p2412
sg25
S'0xffffffc0007a4534L'
p2413
sg27
Nsba(ibclass
BInstr
p2414
(dp2415
g2
Nsg17
S'MOV             X2, X19'
p2416
sg19
S'e20313aa'
p2417
sg21
Vmov x2, x19
p2418
sg5
L18446743798839657784L
sg6
Nsg23
S'MOV'
p2419
sg25
S'0xffffffc0007a4538L'
p2420
sg27
Nsba(ibclass
BInstr
p2421
(dp2422
g2
Nsg17
S'ADD             X0, X0, #unk_FFFFFFC0013B98C6@PAGEOFF'
p2423
sg19
S'00182391'
p2424
sg21
Vadd x0, x0, #0x8c6
p2425
sg5
L18446743798839657788L
sg6
Nsg23
S'ADD'
p2426
sg25
S'0xffffffc0007a453cL'
p2427
sg27
Nsba(ibclass
BInstr
p2428
(dp2429
g2
Nsg17
S'BL              printk'
p2430
sg19
S'0d231a94'
p2431
sg21
Vbl #0x688c34
p2432
sg5
L18446743798839657792L
sg6
Nsg23
S'BL'
p2433
sg25
S'0xffffffc0007a4540L'
p2434
sg27
Nsba(ibclass
BInstr
p2435
(dp2436
g2
Nsg17
S'MOV             X0, X19'
p2437
sg19
S'e00313aa'
p2438
sg21
Vmov x0, x19
p2439
sg5
L18446743798839657796L
sg6
Nsg23
S'MOV'
p2440
sg25
S'0xffffffc0007a4544L'
p2441
sg27
Nsba(ibclass
BInstr
p2442
(dp2443
g2
Nsg17
S'BL              kfree'
p2444
sg19
S'6a32ed97'
p2445
sg21
Vbl #0xffffffffffb4c9a8
p2446
sg5
L18446743798839657800L
sg6
Nsg23
S'BL'
p2447
sg25
S'0xffffffc0007a4548L'
p2448
sg27
Nsba(ibclass
BInstr
p2449
(dp2450
g2
Nsg17
S'MOV             W0, #0'
p2451
sg19
S'00008052'
p2452
sg21
Vmovz w0, #0
p2453
sg5
L18446743798839657804L
sg6
Nsg23
S'MOV'
p2454
sg25
S'0xffffffc0007a454cL'
p2455
sg27
Nsba(ibclass
BInstr
p2456
(dp2457
g2
Nsg17
S'B               loc_FFFFFFC0007A4558'
p2458
sg19
S'02000014'
p2459
sg21
Vb #8
p2460
sg5
L18446743798839657808L
sg6
Nsg23
g248
sg25
S'0xffffffc0007a4550L'
p2461
sg27
Nsbasg70
(lp2462
S'MOV reg, reg9'
p2463
aS'BL msm_comm_session_clean'
p2464
aS'LDR reg, mem'
p2465
aS'BL msm_smem_delete_client'
p2466
aS'ADRP reg, #func@PAGE'
p2467
aS'ADRP reg, #aInfo@PAGE'
p2468
aS'ADD reg, reg, #aInfo@PAGEOFF'
p2469
aS'MOV reg, reg9'
p2470
aS'ADD reg, reg, #func@PAGEOFF'
p2471
aS'BL printk'
p2472
aS'MOV reg, reg9'
p2473
aS'BL kfree'
p2474
aS'MOV reg, #0'
p2475
aS'B func'
p2476
asg79
Nsg5
S'0xffffffc0007a451cL'
p2477
sg81
(lp2478
S'0xffffffc0007a44e4L'
p2479
aS'0xffffffc0007a44e8L'
p2480
aS'0xffffffc0007a44f8L'
p2481
aS'0xffffffc0007a4508L'
p2482
asg6
Nsg83
(lp2483
S'0xffffffc0007a4558L'
p2484
asg87
Nsg88
Nsg89
S'82ac73ff74965e6c8295f57c3d9fdd57'
p2485
sg91
S'97640e21e30e78ec2a4d40b5515b3646'
p2486
sg93
(lp2487
g2370
ag2377
ag2384
ag2391
ag2398
ag2405
ag2412
ag2419
ag2426
ag2433
ag2440
ag2447
ag2454
ag248
asg95
Nsba(ibclass
BBasicBlock
p2488
(dp2489
g12
Nsg13
(lp2490
(ibclass
BInstr
p2491
(dp2492
g2
Nsg17
S'MOV             W0, #0xFFFFFFEA'
p2493
sg19
S'a0028012'
p2494
sg21
Vmovn w0, #0x15
p2495
sg5
L18446743798839657812L
sg6
Nsg23
S'MOV'
p2496
sg25
S'0xffffffc0007a4554L'
p2497
sg27
Nsbasg70
(lp2498
S'MOV reg, #0xFFFFFFEA'
p2499
asg79
Nsg5
S'0xffffffc0007a4554L'
p2500
sg81
(lp2501
S'0xffffffc0007a41c4L'
p2502
asg6
Nsg83
(lp2503
S'0xffffffc0007a4558L'
p2504
asg87
Nsg88
Nsg89
S'17b32100aef1fc19670be7fd58bc85df'
p2505
sg91
S'a29fd938bb678f91c772895a5ab962e9'
p2506
sg93
(lp2507
g2496
asg95
Nsba(ibclass
BBasicBlock
p2508
(dp2509
g12
Nsg13
(lp2510
(ibclass
BInstr
p2511
(dp2512
g2
Nsg17
S'LDP             X19, X20, [SP,#0x30+var_20]'
p2513
sg19
S'f35341a9'
p2514
sg21
Vldp x19, x20, [sp, #0x10]
p2515
sg5
L18446743798839657816L
sg6
Nsg23
S'LDP'
p2516
sg25
S'0xffffffc0007a4558L'
p2517
sg27
Nsba(ibclass
BInstr
p2518
(dp2519
g2
Nsg17
S'LDP             X21, X22, [SP,#0x30+var_10]'
p2520
sg19
S'f55b42a9'
p2521
sg21
Vldp x21, x22, [sp, #0x20]
p2522
sg5
L18446743798839657820L
sg6
Nsg23
S'LDP'
p2523
sg25
S'0xffffffc0007a455cL'
p2524
sg27
Nsba(ibclass
BInstr
p2525
(dp2526
g2
Nsg17
S'LDP             X23, X24, [SP,#0x30+var_s0]'
p2527
sg19
S'f76343a9'
p2528
sg21
Vldp x23, x24, [sp, #0x30]
p2529
sg5
L18446743798839657824L
sg6
Nsg23
S'LDP'
p2530
sg25
S'0xffffffc0007a4560L'
p2531
sg27
Nsba(ibclass
BInstr
p2532
(dp2533
g2
Nsg17
S'LDP             X29, X30, [SP+0x30+var_30],#0x40'
p2534
sg19
S'fd7bc4a8'
p2535
sg21
Vldp x29, x30, [sp], #0x40
p2536
sg5
L18446743798839657828L
sg6
Nsg23
S'LDP'
p2537
sg25
S'0xffffffc0007a4564L'
p2538
sg27
Nsba(ibclass
BInstr
p2539
(dp2540
g2
Nsg17
S'RET'
p2541
sg19
S'c0035fd6'
p2542
sg21
Vret 
p2543
sg5
L18446743798839657832L
sg6
Nsg23
S'RET'
p2544
sg25
S'0xffffffc0007a4568L'
p2545
sg27
Nsbasg70
(lp2546
S'LDP reg9, reg0, mem'
p2547
aS'LDP reg1, reg2, mem'
p2548
aS'LDP reg3, reg4, mem'
p2549
aS'LDP reg9, reg0, mem,#0x40'
p2550
ag2541
asg79
Nsg5
S'0xffffffc0007a4558L'
p2551
sg81
(lp2552
S'0xffffffc0007a41e0L'
p2553
aS'0xffffffc0007a451cL'
p2554
aS'0xffffffc0007a4554L'
p2555
asg6
Nsg83
(lp2556
sg87
Nsg88
Nsg89
S'e2cb3e192f6851be9372152aa950c646'
p2557
sg91
S'6eaa18abfb075c00c45060960ece455b'
p2558
sg93
(lp2559
g2516
ag2523
ag2530
ag2537
ag2544
asg95
Nsbasb.