(ibclass
BFunc
p0
(dp1
S'hash'
p2
NsS'name'
p3
S'msm_ipc_router_bind_control_port'
p4
sS'start_address'
p5
L18446743798846457884L
sS'flag'
p6
NsS'program'
p7
NsS'bbs'
p8
(lp9
(ibclass
BBasicBlock
p10
(dp11
S'function'
p12
NsS'binstrs'
p13
(lp14
(ibclass
BInstr
p15
(dp16
g2
NsS'disasm'
p17
S'STP             X29, X30, [SP,#-0x10+var_20]!'
p18
sS'bytes'
p19
S'fd7bbda9'
p20
sS'disasm_striped'
p21
Vstp x29, x30, [sp, #-0x30]!
p22
sg5
L18446743798846457884L
sg6
NsS'mnem'
p23
S'STP'
p24
sS'address'
p25
S'0xffffffc000e2081cL'
p26
sS'basicblock'
p27
Nsba(ibclass
BInstr
p28
(dp29
g2
Nsg17
S'MOV             X29, SP'
p30
sg19
S'fd030091'
p31
sg21
Vmov x29, sp
p32
sg5
L18446743798846457888L
sg6
Nsg23
S'MOV'
p33
sg25
S'0xffffffc000e20820L'
p34
sg27
Nsba(ibclass
BInstr
p35
(dp36
g2
Nsg17
S'STP             X19, X20, [SP,#0x20+var_10]'
p37
sg19
S'f35301a9'
p38
sg21
Vstp x19, x20, [sp, #0x10]
p39
sg5
L18446743798846457892L
sg6
Nsg23
S'STP'
p40
sg25
S'0xffffffc000e20824L'
p41
sg27
Nsba(ibclass
BInstr
p42
(dp43
g2
Nsg17
S'STR             X21, [SP,#0x20+var_s0]'
p44
sg19
S'f51300f9'
p45
sg21
Vstr x21, [sp, #0x20]
p46
sg5
L18446743798846457896L
sg6
Nsg23
S'STR'
p47
sg25
S'0xffffffc000e20828L'
p48
sg27
Nsba(ibclass
BInstr
p49
(dp50
g2
Nsg17
S'MOV             X19, X0'
p51
sg19
S'f30300aa'
p52
sg21
Vmov x19, x0
p53
sg5
L18446743798846457900L
sg6
Nsg23
S'MOV'
p54
sg25
S'0xffffffc000e2082cL'
p55
sg27
Nsba(ibclass
BInstr
p56
(dp57
g2
Nsg17
S'CBZ             X0, loc_FFFFFFC000E208B0'
p58
sg19
S'000400b4'
p59
sg21
Vcbz x0, #0x80
p60
sg5
L18446743798846457904L
sg6
Nsg23
S'CBZ'
p61
sg25
S'0xffffffc000e20830L'
p62
sg27
NsbasS'disasm_list'
p63
(lp64
S'STP reg9, reg0, mem!'
p65
aS'MOV reg9, SP'
p66
aS'STP reg9, reg0, mem'
p67
aS'STR reg1, mem'
p68
aS'MOV reg9, reg'
p69
aS'CBZ reg, func'
p70
asS'end_address'
p71
Nsg5
S'0xffffffc000e2081cL'
p72
sS'preds'
p73
(lp74
sg6
NsS'succs'
p75
(lp76
S'0xffffffc000e20834L'
p77
aS'0xffffffc000e208b0L'
p78
asS'hash_v3'
p79
NsS'flag_v2'
p80
NsS'hash_v1'
p81
S'd53853be11e01d022939f3e57a9ea547'
p82
sS'hash_v2'
p83
S'f05d0dd92c3e0797eac8d71190f22bbd'
p84
sS'mnen_list'
p85
(lp86
g24
ag33
ag40
ag47
ag54
ag61
asS'neighbour_disasm_list'
p87
Nsba(ibclass
BBasicBlock
p88
(dp89
g12
Nsg13
(lp90
(ibclass
BInstr
p91
(dp92
g2
Nsg17
S'ADRP            X20, #local_ports_lock_lhc2@PAGE'
p93
sg19
S'945c00b0'
p94
sg21
Vadrp x20, #0xb91000
p95
sg5
L18446743798846457908L
sg6
Nsg23
S'ADRP'
p96
sg25
S'0xffffffc000e20834L'
p97
sg27
Nsba(ibclass
BInstr
p98
(dp99
g2
Nsg17
S'ADD             X20, X20, #local_ports_lock_lhc2@PAGEOFF'
p100
sg19
S'94c21f91'
p101
sg21
Vadd x20, x20, #0x7f0
p102
sg5
L18446743798846457912L
sg6
Nsg23
S'ADD'
p103
sg25
S'0xffffffc000e20838L'
p104
sg27
Nsba(ibclass
BInstr
p105
(dp106
g2
Nsg17
S'MOV             X0, X20'
p107
sg19
S'e00314aa'
p108
sg21
Vmov x0, x20
p109
sg5
L18446743798846457916L
sg6
Nsg23
S'MOV'
p110
sg25
S'0xffffffc000e2083cL'
p111
sg27
Nsba(ibclass
BInstr
p112
(dp113
g2
Nsg17
S'BL              down_write'
p114
sg19
S'84670094'
p115
sg21
Vbl #0x19e10
p116
sg5
L18446743798846457920L
sg6
Nsg23
S'BL'
p117
sg25
S'0xffffffc000e20840L'
p118
sg27
Nsba(ibclass
BInstr
p119
(dp120
g2
Nsg17
S'LDR             X1, [X19]'
p121
sg19
S'610240f9'
p122
sg21
Vldr x1, [x19]
p123
sg5
L18446743798846457924L
sg6
Nsg23
S'LDR'
p124
sg25
S'0xffffffc000e20844L'
p125
sg27
Nsba(ibclass
BInstr
p126
(dp127
g2
Nsg17
S'LDR             X0, [X19,#8]'
p128
sg19
S'600640f9'
p129
sg21
Vldr x0, [x19, #8]
p130
sg5
L18446743798846457928L
sg6
Nsg23
S'LDR'
p131
sg25
S'0xffffffc000e20848L'
p132
sg27
Nsba(ibclass
BInstr
p133
(dp134
g2
Nsg17
S'ADD             X21, X20, #0x90'
p135
sg19
S'95420291'
p136
sg21
Vadd x21, x20, #0x90
p137
sg5
L18446743798846457932L
sg6
Nsg23
S'ADD'
p138
sg25
S'0xffffffc000e2084cL'
p139
sg27
Nsba(ibclass
BInstr
p140
(dp141
g2
Nsg17
S'STR             X0, [X1,#8]'
p142
sg19
S'200400f9'
p143
sg21
Vstr x0, [x1, #8]
p144
sg5
L18446743798846457936L
sg6
Nsg23
S'STR'
p145
sg25
S'0xffffffc000e20850L'
p146
sg27
Nsba(ibclass
BInstr
p147
(dp148
g2
Nsg17
S'STR             X1, [X0]'
p149
sg19
S'010000f9'
p150
sg21
Vstr x1, [x0]
p151
sg5
L18446743798846457940L
sg6
Nsg23
S'STR'
p152
sg25
S'0xffffffc000e20854L'
p153
sg27
Nsba(ibclass
BInstr
p154
(dp155
g2
Nsg17
S'MOV             X0, #0x100'
p156
sg19
S'002080d2'
p157
sg21
Vmovz x0, #0x100
p158
sg5
L18446743798846457944L
sg6
Nsg23
S'MOV'
p159
sg25
S'0xffffffc000e20858L'
p160
sg27
Nsba(ibclass
BInstr
p161
(dp162
g2
Nsg17
S'MOVK            X0, #0xDEAD,LSL#48'
p163
sg19
S'a0d5fbf2'
p164
sg21
Vmovk x0, #0xdead, lsl #48
p165
sg5
L18446743798846457948L
sg6
Nsg23
S'MOVK'
p166
sg25
S'0xffffffc000e2085cL'
p167
sg27
Nsba(ibclass
BInstr
p168
(dp169
g2
Nsg17
S'STR             X0, [X19]'
p170
sg19
S'600200f9'
p171
sg21
Vstr x0, [x19]
p172
sg5
L18446743798846457952L
sg6
Nsg23
S'STR'
p173
sg25
S'0xffffffc000e20860L'
p174
sg27
Nsba(ibclass
BInstr
p175
(dp176
g2
Nsg17
S'MOV             X0, #0x200'
p177
sg19
S'004080d2'
p178
sg21
Vmovz x0, #0x200
p179
sg5
L18446743798846457956L
sg6
Nsg23
S'MOV'
p180
sg25
S'0xffffffc000e20864L'
p181
sg27
Nsba(ibclass
BInstr
p182
(dp183
g2
Nsg17
S'MOVK            X0, #0xDEAD,LSL#48'
p184
sg19
S'a0d5fbf2'
p185
sg21
Vmovk x0, #0xdead, lsl #48
p186
sg5
L18446743798846457960L
sg6
Nsg23
S'MOVK'
p187
sg25
S'0xffffffc000e20868L'
p188
sg27
Nsba(ibclass
BInstr
p189
(dp190
g2
Nsg17
S'STR             X0, [X19,#8]'
p191
sg19
S'600600f9'
p192
sg21
Vstr x0, [x19, #8]
p193
sg5
L18446743798846457964L
sg6
Nsg23
S'STR'
p194
sg25
S'0xffffffc000e2086cL'
p195
sg27
Nsba(ibclass
BInstr
p196
(dp197
g2
Nsg17
S'MOV             X0, X20'
p198
sg19
S'e00314aa'
p199
sg21
Vmov x0, x20
p200
sg5
L18446743798846457968L
sg6
Nsg23
S'MOV'
p201
sg25
S'0xffffffc000e20870L'
p202
sg27
Nsba(ibclass
BInstr
p203
(dp204
g2
Nsg17
S'BL              up_write'
p205
sg19
S'fb83d097'
p206
sg21
Vbl #0xffffffffff420fec
p207
sg5
L18446743798846457972L
sg6
Nsg23
S'BL'
p208
sg25
S'0xffffffc000e20874L'
p209
sg27
Nsba(ibclass
BInstr
p210
(dp211
g2
Nsg17
S'MOV             W0, #2'
p212
sg19
S'40008052'
p213
sg21
Vmovz w0, #0x2
p214
sg5
L18446743798846457976L
sg6
Nsg23
S'MOV'
p215
sg25
S'0xffffffc000e20878L'
p216
sg27
Nsba(ibclass
BInstr
p217
(dp218
g2
Nsg17
S'STR             W0, [X19,#0x24]'
p219
sg19
S'602600b9'
p220
sg21
Vstr w0, [x19, #0x24]
p221
sg5
L18446743798846457980L
sg6
Nsg23
S'STR'
p222
sg25
S'0xffffffc000e2087cL'
p223
sg27
Nsba(ibclass
BInstr
p224
(dp225
g2
Nsg17
S'MOV             X0, X21'
p226
sg19
S'e00315aa'
p227
sg21
Vmov x0, x21
p228
sg5
L18446743798846457984L
sg6
Nsg23
S'MOV'
p229
sg25
S'0xffffffc000e20880L'
p230
sg27
Nsba(ibclass
BInstr
p231
(dp232
g2
Nsg17
S'BL              down_write'
p233
sg19
S'73670094'
p234
sg21
Vbl #0x19dcc
p235
sg5
L18446743798846457988L
sg6
Nsg23
S'BL'
p236
sg25
S'0xffffffc000e20884L'
p237
sg27
Nsba(ibclass
BInstr
p238
(dp239
g2
Nsg17
S'LDR             X0, [X20,#(qword_FFFFFFC0019B18A8 - 0xFFFFFFC0019B17F0)]'
p240
sg19
S'805e40f9'
p241
sg21
Vldr x0, [x20, #0xb8]
p242
sg5
L18446743798846457992L
sg6
Nsg23
S'LDR'
p243
sg25
S'0xffffffc000e20888L'
p244
sg27
Nsba(ibclass
BInstr
p245
(dp246
g2
Nsg17
S'STR             X19, [X20,#(qword_FFFFFFC0019B18A8 - 0xFFFFFFC0019B17F0)]'
p247
sg19
S'935e00f9'
p248
sg21
Vstr x19, [x20, #0xb8]
p249
sg5
L18446743798846457996L
sg6
Nsg23
S'STR'
p250
sg25
S'0xffffffc000e2088cL'
p251
sg27
Nsba(ibclass
BInstr
p252
(dp253
g2
Nsg17
S'ADD             X20, X20, #0xB0'
p254
sg19
S'94c20291'
p255
sg21
Vadd x20, x20, #0xb0
p256
sg5
L18446743798846458000L
sg6
Nsg23
S'ADD'
p257
sg25
S'0xffffffc000e20890L'
p258
sg27
Nsba(ibclass
BInstr
p259
(dp260
g2
Nsg17
S'STR             X0, [X19,#8]'
p261
sg19
S'600600f9'
p262
sg21
Vstr x0, [x19, #8]
p263
sg5
L18446743798846458004L
sg6
Nsg23
S'STR'
p264
sg25
S'0xffffffc000e20894L'
p265
sg27
Nsba(ibclass
BInstr
p266
(dp267
g2
Nsg17
S'STR             X20, [X19]'
p268
sg19
S'740200f9'
p269
sg21
Vstr x20, [x19]
p270
sg5
L18446743798846458008L
sg6
Nsg23
S'STR'
p271
sg25
S'0xffffffc000e20898L'
p272
sg27
Nsba(ibclass
BInstr
p273
(dp274
g2
Nsg17
S'STR             X19, [X0]'
p275
sg19
S'130000f9'
p276
sg21
Vstr x19, [x0]
p277
sg5
L18446743798846458012L
sg6
Nsg23
S'STR'
p278
sg25
S'0xffffffc000e2089cL'
p279
sg27
Nsba(ibclass
BInstr
p280
(dp281
g2
Nsg17
S'MOV             X0, X21'
p282
sg19
S'e00315aa'
p283
sg21
Vmov x0, x21
p284
sg5
L18446743798846458016L
sg6
Nsg23
S'MOV'
p285
sg25
S'0xffffffc000e208a0L'
p286
sg27
Nsba(ibclass
BInstr
p287
(dp288
g2
Nsg17
S'BL              up_write'
p289
sg19
S'ef83d097'
p290
sg21
Vbl #0xffffffffff420fbc
p291
sg5
L18446743798846458020L
sg6
Nsg23
S'BL'
p292
sg25
S'0xffffffc000e208a4L'
p293
sg27
Nsba(ibclass
BInstr
p294
(dp295
g2
Nsg17
S'MOV             W0, #0'
p296
sg19
S'00008052'
p297
sg21
Vmovz w0, #0
p298
sg5
L18446743798846458024L
sg6
Nsg23
S'MOV'
p299
sg25
S'0xffffffc000e208a8L'
p300
sg27
Nsba(ibclass
BInstr
p301
(dp302
g2
Nsg17
S'B               loc_FFFFFFC000E208B4'
p303
sg19
S'02000014'
p304
sg21
Vb #8
p305
sg5
L18446743798846458028L
sg6
Nsg23
S'B'
p306
sg25
S'0xffffffc000e208acL'
p307
sg27
Nsbasg63
(lp308
S'ADRP reg0, #local_ports_lock_lhc2@PAGE'
p309
aS'ADD reg0, reg0, #local_ports_lock_lhc2@PAGEOFF'
p310
aS'MOV reg, reg0'
p311
aS'BL down_write'
p312
aS'LDR reg, mem'
p313
aS'LDR reg, mem'
p314
aS'ADD reg1, reg0, #0x90'
p315
aS'STR reg, mem'
p316
aS'STR reg, mem'
p317
aS'MOV reg, #0x100'
p318
aS'MOVK reg, #0xDEAD,LSL#48'
p319
aS'STR reg, mem'
p320
aS'MOV reg, #0x200'
p321
aS'MOVK reg, #0xDEAD,LSL#48'
p322
aS'STR reg, mem'
p323
aS'MOV reg, reg0'
p324
aS'BL up_write'
p325
aS'MOV reg, #2'
p326
aS'STR reg, mem'
p327
aS'MOV reg, reg1'
p328
aS'BL down_write'
p329
aS'LDR reg, mem'
p330
aS'STR reg9, mem'
p331
aS'ADD reg0, reg0, #0xB0'
p332
aS'STR reg, mem'
p333
aS'STR reg0, mem'
p334
aS'STR reg9, mem'
p335
aS'MOV reg, reg1'
p336
aS'BL up_write'
p337
aS'MOV reg, #0'
p338
aS'B func'
p339
asg71
Nsg5
S'0xffffffc000e20834L'
p340
sg73
(lp341
S'0xffffffc000e2081cL'
p342
asg6
Nsg75
(lp343
S'0xffffffc000e208b4L'
p344
asg79
Nsg80
Nsg81
S'0441f9f9fab8ba6fefb9c8d04419a8f7'
p345
sg83
S'8936d24c3793b83a24237b635396d449'
p346
sg85
(lp347
g96
ag103
ag110
ag117
ag124
ag131
ag138
ag145
ag152
ag159
ag166
ag173
ag180
ag187
ag194
ag201
ag208
ag215
ag222
ag229
ag236
ag243
ag250
ag257
ag264
ag271
ag278
ag285
ag292
ag299
ag306
asg87
Nsba(ibclass
BBasicBlock
p348
(dp349
g12
Nsg13
(lp350
(ibclass
BInstr
p351
(dp352
g2
Nsg17
S'MOV             W0, #0xFFFFFFEA'
p353
sg19
S'a0028012'
p354
sg21
Vmovn w0, #0x15
p355
sg5
L18446743798846458032L
sg6
Nsg23
S'MOV'
p356
sg25
S'0xffffffc000e208b0L'
p357
sg27
Nsbasg63
(lp358
S'MOV reg, #0xFFFFFFEA'
p359
asg71
Nsg5
S'0xffffffc000e208b0L'
p360
sg73
(lp361
S'0xffffffc000e2081cL'
p362
asg6
Nsg75
(lp363
S'0xffffffc000e208b4L'
p364
asg79
Nsg80
Nsg81
S'17b32100aef1fc19670be7fd58bc85df'
p365
sg83
S'a29fd938bb678f91c772895a5ab962e9'
p366
sg85
(lp367
g356
asg87
Nsba(ibclass
BBasicBlock
p368
(dp369
g12
Nsg13
(lp370
(ibclass
BInstr
p371
(dp372
g2
Nsg17
S'LDP             X19, X20, [SP,#0x20+var_10]'
p373
sg19
S'f35341a9'
p374
sg21
Vldp x19, x20, [sp, #0x10]
p375
sg5
L18446743798846458036L
sg6
Nsg23
S'LDP'
p376
sg25
S'0xffffffc000e208b4L'
p377
sg27
Nsba(ibclass
BInstr
p378
(dp379
g2
Nsg17
S'LDR             X21, [SP,#0x20+var_s0]'
p380
sg19
S'f51340f9'
p381
sg21
Vldr x21, [sp, #0x20]
p382
sg5
L18446743798846458040L
sg6
Nsg23
S'LDR'
p383
sg25
S'0xffffffc000e208b8L'
p384
sg27
Nsba(ibclass
BInstr
p385
(dp386
g2
Nsg17
S'LDP             X29, X30, [SP+0x20+var_20],#0x30'
p387
sg19
S'fd7bc3a8'
p388
sg21
Vldp x29, x30, [sp], #0x30
p389
sg5
L18446743798846458044L
sg6
Nsg23
S'LDP'
p390
sg25
S'0xffffffc000e208bcL'
p391
sg27
Nsba(ibclass
BInstr
p392
(dp393
g2
Nsg17
S'RET'
p394
sg19
S'c0035fd6'
p395
sg21
Vret 
p396
sg5
L18446743798846458048L
sg6
Nsg23
S'RET'
p397
sg25
S'0xffffffc000e208c0L'
p398
sg27
Nsbasg63
(lp399
S'LDP reg9, reg0, mem'
p400
aS'LDR reg1, mem'
p401
aS'LDP reg9, reg0, mem,#0x30'
p402
ag394
asg71
Nsg5
S'0xffffffc000e208b4L'
p403
sg73
(lp404
S'0xffffffc000e20834L'
p405
aS'0xffffffc000e208b0L'
p406
asg6
Nsg75
(lp407
sg79
Nsg80
Nsg81
S'b128167488f61fa9efc4b75f88cc16c9'
p408
sg83
S'131ac2d23764aab689185203ad502af4'
p409
sg85
(lp410
g376
ag383
ag390
ag397
asg87
Nsbasb.