(ibclass
BFunc
p0
(dp1
S'hash'
p2
NsS'name'
p3
S'msm_comm_get_load'
p4
sS'start_address'
p5
L18446743798839611016L
sS'flag'
p6
NsS'program'
p7
NsS'bbs'
p8
(lp9
(ibclass
BBasicBlock
p10
(dp11
S'function'
p12
NsS'binstrs'
p13
(lp14
(ibclass
BInstr
p15
(dp16
g2
NsS'disasm'
p17
S'STP             X29, X30, [SP,#-0x10+var_30]!'
p18
sS'bytes'
p19
S'fd7bbca9'
p20
sS'disasm_striped'
p21
Vstp x29, x30, [sp, #-0x40]!
p22
sg5
L18446743798839611016L
sg6
NsS'mnem'
p23
S'STP'
p24
sS'address'
p25
S'0xffffffc000798e88L'
p26
sS'basicblock'
p27
Nsba(ibclass
BInstr
p28
(dp29
g2
Nsg17
S'MOV             X29, SP'
p30
sg19
S'fd030091'
p31
sg21
Vmov x29, sp
p32
sg5
L18446743798839611020L
sg6
Nsg23
S'MOV'
p33
sg25
S'0xffffffc000798e8cL'
p34
sg27
Nsba(ibclass
BInstr
p35
(dp36
g2
Nsg17
S'STP             X23, X24, [SP,#0x30+var_s0]'
p37
sg19
S'f76303a9'
p38
sg21
Vstp x23, x24, [sp, #0x30]
p39
sg5
L18446743798839611024L
sg6
Nsg23
S'STP'
p40
sg25
S'0xffffffc000798e90L'
p41
sg27
Nsba(ibclass
BInstr
p42
(dp43
g2
Nsg17
S'STP             X19, X20, [SP,#0x30+var_20]'
p44
sg19
S'f35301a9'
p45
sg21
Vstp x19, x20, [sp, #0x10]
p46
sg5
L18446743798839611028L
sg6
Nsg23
S'STP'
p47
sg25
S'0xffffffc000798e94L'
p48
sg27
Nsba(ibclass
BInstr
p49
(dp50
g2
Nsg17
S'STP             X21, X22, [SP,#0x30+var_10]'
p51
sg19
S'f55b02a9'
p52
sg21
Vstp x21, x22, [sp, #0x20]
p53
sg5
L18446743798839611032L
sg6
Nsg23
S'STP'
p54
sg25
S'0xffffffc000798e98L'
p55
sg27
Nsba(ibclass
BInstr
p56
(dp57
g2
Nsg17
S'MOV             X19, X0'
p58
sg19
S'f30300aa'
p59
sg21
Vmov x19, x0
p60
sg5
L18446743798839611036L
sg6
Nsg23
S'MOV'
p61
sg25
S'0xffffffc000798e9cL'
p62
sg27
Nsba(ibclass
BInstr
p63
(dp64
g2
Nsg17
S'MOV             W23, W1'
p65
sg19
S'f703012a'
p66
sg21
Vmov w23, w1
p67
sg5
L18446743798839611040L
sg6
Nsg23
S'MOV'
p68
sg25
S'0xffffffc000798ea0L'
p69
sg27
Nsba(ibclass
BInstr
p70
(dp71
g2
Nsg17
S'MOV             W24, W2'
p72
sg19
S'f803022a'
p73
sg21
Vmov w24, w2
p74
sg5
L18446743798839611044L
sg6
Nsg23
S'MOV'
p75
sg25
S'0xffffffc000798ea4L'
p76
sg27
Nsba(ibclass
BInstr
p77
(dp78
g2
Nsg17
S'CBNZ            X0, loc_FFFFFFC000798EEC'
p79
sg19
S'200200b5'
p80
sg21
Vcbnz x0, #0x44
p81
sg5
L18446743798839611048L
sg6
Nsg23
S'CBNZ'
p82
sg25
S'0xffffffc000798ea8L'
p83
sg27
NsbasS'disasm_list'
p84
(lp85
S'STP reg9, reg0, mem!'
p86
aS'MOV reg9, SP'
p87
aS'STP reg3, reg4, mem'
p88
aS'STP reg9, reg0, mem'
p89
aS'STP reg1, reg2, mem'
p90
aS'MOV reg9, reg'
p91
aS'MOV reg3, reg'
p92
aS'MOV reg4, reg'
p93
aS'CBNZ reg, func'
p94
asS'end_address'
p95
Nsg5
S'0xffffffc000798e88L'
p96
sS'preds'
p97
(lp98
sg6
NsS'succs'
p99
(lp100
S'0xffffffc000798eacL'
p101
aS'0xffffffc000798eecL'
p102
asS'hash_v3'
p103
NsS'flag_v2'
p104
NsS'hash_v1'
p105
S'b932cd3f41550d15a7aeea6115e9ba82'
p106
sS'hash_v2'
p107
S'a7eb92b5cecbf53ed0526f67884d7182'
p108
sS'mnen_list'
p109
(lp110
g24
ag33
ag40
ag47
ag54
ag61
ag68
ag75
ag82
asS'neighbour_disasm_list'
p111
Nsba(ibclass
BBasicBlock
p112
(dp113
g12
Nsg13
(lp114
(ibclass
BInstr
p115
(dp116
g2
Nsg17
S'ADRP            X0, #qword_FFFFFFC000E440A0@PAGE'
p117
sg19
S'60350090'
p118
sg21
Vadrp x0, #0x6ac000
p119
sg5
L18446743798839611052L
sg6
Nsg23
S'ADRP'
p120
sg25
S'0xffffffc000798eacL'
p121
sg27
Nsba(ibclass
BInstr
p122
(dp123
g2
Nsg17
S'LDR             X0, [X0,#qword_FFFFFFC000E440A0@PAGEOFF]'
p124
sg19
S'005040f9'
p125
sg21
Vldr x0, [x0, #0xa0]
p126
sg5
L18446743798839611056L
sg6
Nsg23
S'LDR'
p127
sg25
S'0xffffffc000798eb0L'
p128
sg27
Nsba(ibclass
BInstr
p129
(dp130
g2
Nsg17
S'LDR             W0, [X0]'
p131
sg19
S'000040b9'
p132
sg21
Vldr w0, [x0]
p133
sg5
L18446743798839611060L
sg6
Nsg23
S'LDR'
p134
sg25
S'0xffffffc000798eb4L'
p135
sg27
Nsba(ibclass
BInstr
p136
(dp137
g2
Nsg17
S'TBZ             W0, #0, loc_FFFFFFC000798F40'
p138
sg19
S'40040036'
p139
sg21
Vtbz w0, #0, #0x88
p140
sg5
L18446743798839611064L
sg6
Nsg23
S'TBZ'
p141
sg25
S'0xffffffc000798eb8L'
p142
sg27
Nsbasg84
(lp143
S'ADRP reg, #func@PAGE'
p144
aS'LDR reg, mem'
p145
aS'LDR reg, mem'
p146
aS'TBZ reg, #0, func'
p147
asg95
Nsg5
S'0xffffffc000798eacL'
p148
sg97
(lp149
S'0xffffffc000798e88L'
p150
asg6
Nsg99
(lp151
S'0xffffffc000798ebcL'
p152
aS'0xffffffc000798f40L'
p153
asg103
Nsg104
Nsg105
S'2de94c9e326481f2f467f11acce8dcc9'
p154
sg107
S'f9f7225e2bae36aff04e5d93bafe5e1d'
p155
sg109
(lp156
g120
ag127
ag134
ag141
asg111
Nsba(ibclass
BBasicBlock
p157
(dp158
g12
Nsg13
(lp159
(ibclass
BInstr
p160
(dp161
g2
Nsg17
S'ADRP            X0, #qword_FFFFFFC000E42548@PAGE'
p162
sg19
S'403500d0'
p163
sg21
Vadrp x0, #0x6aa000
p164
sg5
L18446743798839611068L
sg6
Nsg23
S'ADRP'
p165
sg25
S'0xffffffc000798ebcL'
p166
sg27
Nsba(ibclass
BInstr
p167
(dp168
g2
Nsg17
S'LDR             X0, [X0,#qword_FFFFFFC000E42548@PAGEOFF]'
p169
sg19
S'00a442f9'
p170
sg21
Vldr x0, [x0, #0x548]
p171
sg5
L18446743798839611072L
sg6
Nsg23
S'LDR'
p172
sg25
S'0xffffffc000798ec0L'
p173
sg27
Nsba(ibclass
BInstr
p174
(dp175
g2
Nsg17
S'MOV             W20, #0xFFFFFFEA'
p176
sg19
S'b4028012'
p177
sg21
Vmovn w20, #0x15
p178
sg5
L18446743798839611076L
sg6
Nsg23
S'MOV'
p179
sg25
S'0xffffffc000798ec4L'
p180
sg27
Nsba(ibclass
BInstr
p181
(dp182
g2
Nsg17
S'LDR             W0, [X0]'
p183
sg19
S'000040b9'
p184
sg21
Vldr w0, [x0]
p185
sg5
L18446743798839611080L
sg6
Nsg23
S'LDR'
p186
sg25
S'0xffffffc000798ec8L'
p187
sg27
Nsba(ibclass
BInstr
p188
(dp189
g2
Nsg17
S'CBNZ            W0, loc_FFFFFFC000798F44'
p190
sg19
S'c0030035'
p191
sg21
Vcbnz w0, #0x78
p192
sg5
L18446743798839611084L
sg6
Nsg23
S'CBNZ'
p193
sg25
S'0xffffffc000798eccL'
p194
sg27
Nsbasg84
(lp195
S'ADRP reg, #func@PAGE'
p196
aS'LDR reg, mem'
p197
aS'MOV reg0, #0xFFFFFFEA'
p198
aS'LDR reg, mem'
p199
aS'CBNZ reg, func'
p200
asg95
Nsg5
S'0xffffffc000798ebcL'
p201
sg97
(lp202
S'0xffffffc000798eacL'
p203
asg6
Nsg99
(lp204
S'0xffffffc000798ed0L'
p205
aS'0xffffffc000798f44L'
p206
asg103
Nsg104
Nsg105
S'd80cc6d531f24a5b2d60307977d236c7'
p207
sg107
S'aeb30c42a5eaa4a016930da3733155ca'
p208
sg109
(lp209
g165
ag172
ag179
ag186
ag193
asg111
Nsba(ibclass
BBasicBlock
p210
(dp211
g12
Nsg13
(lp212
(ibclass
BInstr
p213
(dp214
g2
Nsg17
S'ADRP            X0, #unk_FFFFFFC0013B5C8B@PAGE'
p215
sg19
S'e06000b0'
p216
sg21
Vadrp x0, #0xc1d000
p217
sg5
L18446743798839611088L
sg6
Nsg23
S'ADRP'
p218
sg25
S'0xffffffc000798ed0L'
p219
sg27
Nsba(ibclass
BInstr
p220
(dp221
g2
Nsg17
S'ADRP            X1, #(aQcomMdssDsi_17+0x1B)@PAGE; "err"'
p222
sg19
S'a15c00f0'
p223
sg21
Vadrp x1, #0xb97000
p224
sg5
L18446743798839611092L
sg6
Nsg23
S'ADRP'
p225
sg25
S'0xffffffc000798ed4L'
p226
sg27
Nsba(ibclass
BInstr
p227
(dp228
g2
Nsg17
S'ADD             X1, X1, #(aQcomMdssDsi_17+0x1B)@PAGEOFF; "err"'
p229
sg19
S'212c0591'
p230
sg21
Vadd x1, x1, #0x14b
p231
sg5
L18446743798839611096L
sg6
Nsg23
S'ADD'
p232
sg25
S'0xffffffc000798ed8L'
p233
sg27
Nsba(ibclass
BInstr
p234
(dp235
g2
Nsg17
S'MOV             X2, X19'
p236
sg19
S'e20313aa'
p237
sg21
Vmov x2, x19
p238
sg5
L18446743798839611100L
sg6
Nsg23
S'MOV'
p239
sg25
S'0xffffffc000798edcL'
p240
sg27
Nsba(ibclass
BInstr
p241
(dp242
g2
Nsg17
S'ADD             X0, X0, #unk_FFFFFFC0013B5C8B@PAGEOFF'
p243
sg19
S'002c3291'
p244
sg21
Vadd x0, x0, #0xc8b
p245
sg5
L18446743798839611104L
sg6
Nsg23
S'ADD'
p246
sg25
S'0xffffffc000798ee0L'
p247
sg27
Nsba(ibclass
BInstr
p248
(dp249
g2
Nsg17
S'BL              printk'
p250
sg19
S'a4501a94'
p251
sg21
Vbl #0x694290
p252
sg5
L18446743798839611108L
sg6
Nsg23
S'BL'
p253
sg25
S'0xffffffc000798ee4L'
p254
sg27
Nsba(ibclass
BInstr
p255
(dp256
g2
Nsg17
S'B               loc_FFFFFFC000798F44'
p257
sg19
S'17000014'
p258
sg21
Vb #0x5c
p259
sg5
L18446743798839611112L
sg6
Nsg23
S'B'
p260
sg25
S'0xffffffc000798ee8L'
p261
sg27
Nsbasg84
(lp262
S'ADRP reg, #func@PAGE'
p263
aS'ADRP reg, #(aQcomMdssDsi_17+0x1B)@PAGE'
p264
aS'ADD reg, reg, #(aQcomMdssDsi_17+0x1B)@PAGEOFF'
p265
aS'MOV reg, reg9'
p266
aS'ADD reg, reg, #func@PAGEOFF'
p267
aS'BL printk'
p268
aS'B func'
p269
asg95
Nsg5
S'0xffffffc000798ed0L'
p270
sg97
(lp271
S'0xffffffc000798ebcL'
p272
asg6
Nsg99
(lp273
S'0xffffffc000798f44L'
p274
asg103
Nsg104
Nsg105
S'ff7f44466e74267aa9d96fda41da35ba'
p275
sg107
S'ce8cadf5efd001b9bcf49855903a28a2'
p276
sg109
(lp277
g218
ag225
ag232
ag239
ag246
ag253
ag260
asg111
Nsba(ibclass
BBasicBlock
p278
(dp279
g12
Nsg13
(lp280
(ibclass
BInstr
p281
(dp282
g2
Nsg17
S'ADD             X22, X0, #0x10'
p283
sg19
S'16400091'
p284
sg21
Vadd x22, x0, #0x10
p285
sg5
L18446743798839611116L
sg6
Nsg23
S'ADD'
p286
sg25
S'0xffffffc000798eecL'
p287
sg27
Nsba(ibclass
BInstr
p288
(dp289
g2
Nsg17
S'MOV             X0, X22'
p290
sg19
S'e00316aa'
p291
sg21
Vmov x0, x22
p292
sg5
L18446743798839611120L
sg6
Nsg23
S'MOV'
p293
sg25
S'0xffffffc000798ef0L'
p294
sg27
Nsba(ibclass
BInstr
p295
(dp296
g2
Nsg17
S'BL              mutex_lock'
p297
sg19
S'02851a94'
p298
sg21
Vbl #0x6a1408
p299
sg5
L18446743798839611124L
sg6
Nsg23
S'BL'
p300
sg25
S'0xffffffc000798ef4L'
p301
sg27
Nsba(ibclass
BInstr
p302
(dp303
g2
Nsg17
S'MOV             W21, #0'
p304
sg19
S'15008052'
p305
sg21
Vmovz w21, #0
p306
sg5
L18446743798839611128L
sg6
Nsg23
S'MOV'
p307
sg25
S'0xffffffc000798ef8L'
p308
sg27
Nsba(ibclass
BInstr
p309
(dp310
g2
Nsg17
S'LDR             X20, [X19,#0x8F8]'
p311
sg19
S'747e44f9'
p312
sg21
Vldr x20, [x19, #0x8f8]
p313
sg5
L18446743798839611132L
sg6
Nsg23
S'LDR'
p314
sg25
S'0xffffffc000798efcL'
p315
sg27
Nsba(ibclass
BInstr
p316
(dp317
g2
Nsg17
S'ADD             X19, X19, #0x8F8'
p318
sg19
S'73e22391'
p319
sg21
Vadd x19, x19, #0x8f8
p320
sg5
L18446743798839611136L
sg6
Nsg23
S'ADD'
p321
sg25
S'0xffffffc000798f00L'
p322
sg27
Nsbasg84
(lp323
S'ADD reg2, reg, #0x10'
p324
aS'MOV reg, reg2'
p325
aS'BL mutex_lock'
p326
aS'MOV reg1, #0'
p327
aS'LDR reg0, mem'
p328
aS'ADD reg9, reg9, #0x8F8'
p329
asg95
Nsg5
S'0xffffffc000798eecL'
p330
sg97
(lp331
S'0xffffffc000798e88L'
p332
asg6
Nsg99
(lp333
S'0xffffffc000798f04L'
p334
asg103
Nsg104
Nsg105
S'03aadd6b329944f6b140d68e9378aa15'
p335
sg107
S'b43e61b510e71e289d43d30a8fdcf91f'
p336
sg109
(lp337
g286
ag293
ag300
ag307
ag314
ag321
asg111
Nsba(ibclass
BBasicBlock
p338
(dp339
g12
Nsg13
(lp340
(ibclass
BInstr
p341
(dp342
g2
Nsg17
S'CMP             X20, X19'
p343
sg19
S'9f0213eb'
p344
sg21
Vcmp x20, x19
p345
sg5
L18446743798839611140L
sg6
Nsg23
S'CMP'
p346
sg25
S'0xffffffc000798f04L'
p347
sg27
Nsba(ibclass
BInstr
p348
(dp349
g2
Nsg17
S'B.EQ            loc_FFFFFFC000798F30'
p350
sg19
S'40010054'
p351
sg21
Vb.eq #0x28
p352
sg5
L18446743798839611144L
sg6
Nsg23
g260
sg25
S'0xffffffc000798f08L'
p353
sg27
Nsbasg84
(lp354
S'CMP reg0, reg9'
p355
aS'B.EQ func'
p356
asg95
Nsg5
S'0xffffffc000798f04L'
p357
sg97
(lp358
S'0xffffffc000798eecL'
p359
aS'0xffffffc000798f28L'
p360
asg6
Nsg99
(lp361
S'0xffffffc000798f0cL'
p362
aS'0xffffffc000798f30L'
p363
asg103
Nsg104
Nsg105
S'c78fd620a449e3c979d3f3ec12d4ee88'
p364
sg107
S'59411ffcdf4e12e6b6f57f2b1e57cca2'
p365
sg109
(lp366
g346
ag260
asg111
Nsba(ibclass
BBasicBlock
p367
(dp368
g12
Nsg13
(lp369
(ibclass
BInstr
p370
(dp371
g2
Nsg17
S'LDR             W0, [X20,#0x68]'
p372
sg19
S'806a40b9'
p373
sg21
Vldr w0, [x20, #0x68]
p374
sg5
L18446743798839611148L
sg6
Nsg23
S'LDR'
p375
sg25
S'0xffffffc000798f0cL'
p376
sg27
Nsba(ibclass
BInstr
p377
(dp378
g2
Nsg17
S'CMP             W0, W23'
p379
sg19
S'1f00176b'
p380
sg21
Vcmp w0, w23
p381
sg5
L18446743798839611152L
sg6
Nsg23
S'CMP'
p382
sg25
S'0xffffffc000798f10L'
p383
sg27
Nsba(ibclass
BInstr
p384
(dp385
g2
Nsg17
S'B.NE            loc_FFFFFFC000798F28'
p386
sg19
S'a1000054'
p387
sg21
Vb.ne #0x14
p388
sg5
L18446743798839611156L
sg6
Nsg23
g260
sg25
S'0xffffffc000798f14L'
p389
sg27
Nsbasg84
(lp390
S'LDR reg, mem'
p391
aS'CMP reg, reg3'
p392
aS'B.NE func'
p393
asg95
Nsg5
S'0xffffffc000798f0cL'
p394
sg97
(lp395
S'0xffffffc000798f04L'
p396
asg6
Nsg99
(lp397
S'0xffffffc000798f18L'
p398
aS'0xffffffc000798f28L'
p399
asg103
Nsg104
Nsg105
S'fa4df767a85c49648339e2dc5c6807f6'
p400
sg107
S'4b10552f7c44cb78b6793804f3761e17'
p401
sg109
(lp402
g375
ag382
ag260
asg111
Nsba(ibclass
BBasicBlock
p403
(dp404
g12
Nsg13
(lp405
(ibclass
BInstr
p406
(dp407
g2
Nsg17
S'MOV             X0, X20'
p408
sg19
S'e00314aa'
p409
sg21
Vmov x0, x20
p410
sg5
L18446743798839611160L
sg6
Nsg23
S'MOV'
p411
sg25
S'0xffffffc000798f18L'
p412
sg27
Nsba(ibclass
BInstr
p413
(dp414
g2
Nsg17
S'MOV             W1, W24'
p415
sg19
S'e103182a'
p416
sg21
Vmov w1, w24
p417
sg5
L18446743798839611164L
sg6
Nsg23
S'MOV'
p418
sg25
S'0xffffffc000798f1cL'
p419
sg27
Nsba(ibclass
BInstr
p420
(dp421
g2
Nsg17
S'BL              msm_comm_get_inst_load'
p422
sg19
S'aaffff97'
p423
sg21
Vbl #0xfffffffffffffea8
p424
sg5
L18446743798839611168L
sg6
Nsg23
S'BL'
p425
sg25
S'0xffffffc000798f20L'
p426
sg27
Nsba(ibclass
BInstr
p427
(dp428
g2
Nsg17
S'ADD             W21, W21, W0'
p429
sg19
S'b502000b'
p430
sg21
Vadd w21, w21, w0
p431
sg5
L18446743798839611172L
sg6
Nsg23
S'ADD'
p432
sg25
S'0xffffffc000798f24L'
p433
sg27
Nsbasg84
(lp434
S'MOV reg, reg0'
p435
aS'MOV reg, reg4'
p436
aS'BL msm_comm_get_inst_load'
p437
aS'ADD reg1, reg1, reg'
p438
asg95
Nsg5
S'0xffffffc000798f18L'
p439
sg97
(lp440
S'0xffffffc000798f0cL'
p441
asg6
Nsg99
(lp442
S'0xffffffc000798f28L'
p443
asg103
Nsg104
Nsg105
S'f64d821ed398e8db261ca5595e535119'
p444
sg107
S'72af6a5e1120ad1b42c242f53cfa05b3'
p445
sg109
(lp446
g411
ag418
ag425
ag432
asg111
Nsba(ibclass
BBasicBlock
p447
(dp448
g12
Nsg13
(lp449
(ibclass
BInstr
p450
(dp451
g2
Nsg17
S'LDR             X20, [X20]'
p452
sg19
S'940240f9'
p453
sg21
Vldr x20, [x20]
p454
sg5
L18446743798839611176L
sg6
Nsg23
S'LDR'
p455
sg25
S'0xffffffc000798f28L'
p456
sg27
Nsba(ibclass
BInstr
p457
(dp458
g2
Nsg17
S'B               loc_FFFFFFC000798F04'
p459
sg19
S'f6ffff17'
p460
sg21
Vb #0xffffffffffffffd8
p461
sg5
L18446743798839611180L
sg6
Nsg23
g260
sg25
S'0xffffffc000798f2cL'
p462
sg27
Nsbasg84
(lp463
S'LDR reg0, mem'
p464
aS'B func'
p465
asg95
Nsg5
S'0xffffffc000798f28L'
p466
sg97
(lp467
S'0xffffffc000798f0cL'
p468
aS'0xffffffc000798f18L'
p469
asg6
Nsg99
(lp470
S'0xffffffc000798f04L'
p471
asg103
Nsg104
Nsg105
S'd269f92813b7f9be0535ea2960d9947c'
p472
sg107
S'15636f33f4f20e5781e1d46da2f3de6a'
p473
sg109
(lp474
g455
ag260
asg111
Nsba(ibclass
BBasicBlock
p475
(dp476
g12
Nsg13
(lp477
(ibclass
BInstr
p478
(dp479
g2
Nsg17
S'MOV             X0, X22'
p480
sg19
S'e00316aa'
p481
sg21
Vmov x0, x22
p482
sg5
L18446743798839611184L
sg6
Nsg23
S'MOV'
p483
sg25
S'0xffffffc000798f30L'
p484
sg27
Nsba(ibclass
BInstr
p485
(dp486
g2
Nsg17
S'BL              mutex_unlock'
p487
sg19
S'35841a94'
p488
sg21
Vbl #0x6a10d4
p489
sg5
L18446743798839611188L
sg6
Nsg23
S'BL'
p490
sg25
S'0xffffffc000798f34L'
p491
sg27
Nsba(ibclass
BInstr
p492
(dp493
g2
Nsg17
S'MOV             W20, W21'
p494
sg19
S'f403152a'
p495
sg21
Vmov w20, w21
p496
sg5
L18446743798839611192L
sg6
Nsg23
S'MOV'
p497
sg25
S'0xffffffc000798f38L'
p498
sg27
Nsba(ibclass
BInstr
p499
(dp500
g2
Nsg17
S'B               loc_FFFFFFC000798F44'
p501
sg19
S'02000014'
p502
sg21
Vb #8
p503
sg5
L18446743798839611196L
sg6
Nsg23
g260
sg25
S'0xffffffc000798f3cL'
p504
sg27
Nsbasg84
(lp505
S'MOV reg, reg2'
p506
aS'BL mutex_unlock'
p507
aS'MOV reg0, reg1'
p508
aS'B func'
p509
asg95
Nsg5
S'0xffffffc000798f30L'
p510
sg97
(lp511
S'0xffffffc000798f04L'
p512
asg6
Nsg99
(lp513
S'0xffffffc000798f44L'
p514
asg103
Nsg104
Nsg105
S'cd23e0eb2129bcc2960febbe800808ae'
p515
sg107
S'656585f49403cce2d472af790da47a52'
p516
sg109
(lp517
g483
ag490
ag497
ag260
asg111
Nsba(ibclass
BBasicBlock
p518
(dp519
g12
Nsg13
(lp520
(ibclass
BInstr
p521
(dp522
g2
Nsg17
S'MOV             W20, #0xFFFFFFEA'
p523
sg19
S'b4028012'
p524
sg21
Vmovn w20, #0x15
p525
sg5
L18446743798839611200L
sg6
Nsg23
S'MOV'
p526
sg25
S'0xffffffc000798f40L'
p527
sg27
Nsbasg84
(lp528
S'MOV reg0, #0xFFFFFFEA'
p529
asg95
Nsg5
S'0xffffffc000798f40L'
p530
sg97
(lp531
S'0xffffffc000798eacL'
p532
asg6
Nsg99
(lp533
S'0xffffffc000798f44L'
p534
asg103
Nsg104
Nsg105
S'17b32100aef1fc19670be7fd58bc85df'
p535
sg107
S'df9685dff01bfe08ae98ed966d387ffe'
p536
sg109
(lp537
g526
asg111
Nsba(ibclass
BBasicBlock
p538
(dp539
g12
Nsg13
(lp540
(ibclass
BInstr
p541
(dp542
g2
Nsg17
S'MOV             W0, W20'
p543
sg19
S'e003142a'
p544
sg21
Vmov w0, w20
p545
sg5
L18446743798839611204L
sg6
Nsg23
S'MOV'
p546
sg25
S'0xffffffc000798f44L'
p547
sg27
Nsba(ibclass
BInstr
p548
(dp549
g2
Nsg17
S'LDP             X21, X22, [SP,#0x30+var_10]'
p550
sg19
S'f55b42a9'
p551
sg21
Vldp x21, x22, [sp, #0x20]
p552
sg5
L18446743798839611208L
sg6
Nsg23
S'LDP'
p553
sg25
S'0xffffffc000798f48L'
p554
sg27
Nsba(ibclass
BInstr
p555
(dp556
g2
Nsg17
S'LDP             X19, X20, [SP,#0x30+var_20]'
p557
sg19
S'f35341a9'
p558
sg21
Vldp x19, x20, [sp, #0x10]
p559
sg5
L18446743798839611212L
sg6
Nsg23
S'LDP'
p560
sg25
S'0xffffffc000798f4cL'
p561
sg27
Nsba(ibclass
BInstr
p562
(dp563
g2
Nsg17
S'LDP             X23, X24, [SP,#0x30+var_s0]'
p564
sg19
S'f76343a9'
p565
sg21
Vldp x23, x24, [sp, #0x30]
p566
sg5
L18446743798839611216L
sg6
Nsg23
S'LDP'
p567
sg25
S'0xffffffc000798f50L'
p568
sg27
Nsba(ibclass
BInstr
p569
(dp570
g2
Nsg17
S'LDP             X29, X30, [SP+0x30+var_30],#0x40'
p571
sg19
S'fd7bc4a8'
p572
sg21
Vldp x29, x30, [sp], #0x40
p573
sg5
L18446743798839611220L
sg6
Nsg23
S'LDP'
p574
sg25
S'0xffffffc000798f54L'
p575
sg27
Nsba(ibclass
BInstr
p576
(dp577
g2
Nsg17
S'RET'
p578
sg19
S'c0035fd6'
p579
sg21
Vret 
p580
sg5
L18446743798839611224L
sg6
Nsg23
S'RET'
p581
sg25
S'0xffffffc000798f58L'
p582
sg27
Nsbasg84
(lp583
S'MOV reg, reg0'
p584
aS'LDP reg1, reg2, mem'
p585
aS'LDP reg9, reg0, mem'
p586
aS'LDP reg3, reg4, mem'
p587
aS'LDP reg9, reg0, mem,#0x40'
p588
ag578
asg95
Nsg5
S'0xffffffc000798f44L'
p589
sg97
(lp590
S'0xffffffc000798ebcL'
p591
aS'0xffffffc000798ed0L'
p592
aS'0xffffffc000798f30L'
p593
aS'0xffffffc000798f40L'
p594
asg6
Nsg99
(lp595
sg103
Nsg104
Nsg105
S'f4de5cb19e967cb6f069fe53d982556d'
p596
sg107
S'5429662f3c89e84cab31397a52a23557'
p597
sg109
(lp598
g546
ag553
ag560
ag567
ag574
ag581
asg111
Nsbasb.