(ibclass
BFunc
p0
(dp1
S'hash'
p2
NsS'name'
p3
S'msm_isp_axi_check_stream_state'
p4
sS'start_address'
p5
L18446743798840019640L
sS'flag'
p6
NsS'program'
p7
NsS'bbs'
p8
(lp9
(ibclass
BBasicBlock
p10
(dp11
S'function'
p12
NsS'binstrs'
p13
(lp14
(ibclass
BInstr
p15
(dp16
g2
NsS'disasm'
p17
S'STP             X29, X30, [SP,#-0x10+var_50]!'
p18
sS'bytes'
p19
S'fd7bbaa9'
p20
sS'disasm_striped'
p21
Vstp x29, x30, [sp, #-0x60]!
p22
sg5
L18446743798840019640L
sg6
NsS'mnem'
p23
S'STP'
p24
sS'address'
p25
S'0xffffffc0007fcab8L'
p26
sS'basicblock'
p27
Nsba(ibclass
BInstr
p28
(dp29
g2
Nsg17
S'MOV             X29, SP'
p30
sg19
S'fd030091'
p31
sg21
Vmov x29, sp
p32
sg5
L18446743798840019644L
sg6
Nsg23
S'MOV'
p33
sg25
S'0xffffffc0007fcabcL'
p34
sg27
Nsba(ibclass
BInstr
p35
(dp36
g2
Nsg17
S'STP             X19, X20, [SP,#0x50+var_40]'
p37
sg19
S'f35301a9'
p38
sg21
Vstp x19, x20, [sp, #0x10]
p39
sg5
L18446743798840019648L
sg6
Nsg23
S'STP'
p40
sg25
S'0xffffffc0007fcac0L'
p41
sg27
Nsba(ibclass
BInstr
p42
(dp43
g2
Nsg17
S'STP             X25, X26, [SP,#0x50+var_10]'
p44
sg19
S'f96b04a9'
p45
sg21
Vstp x25, x26, [sp, #0x40]
p46
sg5
L18446743798840019652L
sg6
Nsg23
S'STP'
p47
sg25
S'0xffffffc0007fcac4L'
p48
sg27
Nsba(ibclass
BInstr
p49
(dp50
g2
Nsg17
S'STP             X23, X24, [SP,#0x50+var_20]'
p51
sg19
S'f76303a9'
p52
sg21
Vstp x23, x24, [sp, #0x30]
p53
sg5
L18446743798840019656L
sg6
Nsg23
S'STP'
p54
sg25
S'0xffffffc0007fcac8L'
p55
sg27
Nsba(ibclass
BInstr
p56
(dp57
g2
Nsg17
S'STR             X27, [SP,#0x50+var_s0]'
p58
sg19
S'fb2b00f9'
p59
sg21
Vstr x27, [sp, #0x50]
p60
sg5
L18446743798840019660L
sg6
Nsg23
S'STR'
p61
sg25
S'0xffffffc0007fcaccL'
p62
sg27
Nsba(ibclass
BInstr
p63
(dp64
g2
Nsg17
S'STP             X21, X22, [SP,#0x50+var_30]'
p65
sg19
S'f55b02a9'
p66
sg21
Vstp x21, x22, [sp, #0x20]
p67
sg5
L18446743798840019664L
sg6
Nsg23
S'STP'
p68
sg25
S'0xffffffc0007fcad0L'
p69
sg27
Nsba(ibclass
BInstr
p70
(dp71
g2
Nsg17
S'LDR             W2, [X1,#0x20]'
p72
sg19
S'222040b9'
p73
sg21
Vldr w2, [x1, #0x20]
p74
sg5
L18446743798840019668L
sg6
Nsg23
S'LDR'
p75
sg25
S'0xffffffc0007fcad4L'
p76
sg27
Nsba(ibclass
BInstr
p77
(dp78
g2
Nsg17
S'MOV             X19, X1'
p79
sg19
S'f30301aa'
p80
sg21
Vmov x19, x1
p81
sg5
L18446743798840019672L
sg6
Nsg23
S'MOV'
p82
sg25
S'0xffffffc0007fcad8L'
p83
sg27
Nsba(ibclass
BInstr
p84
(dp85
g2
Nsg17
S'CMP             W2, #1'
p86
sg19
S'5f040071'
p87
sg21
Vcmp w2, #1
p88
sg5
L18446743798840019676L
sg6
Nsg23
S'CMP'
p89
sg25
S'0xffffffc0007fcadcL'
p90
sg27
Nsba(ibclass
BInstr
p91
(dp92
g2
Nsg17
S'MOV             W1, #2'
p93
sg19
S'41008052'
p94
sg21
Vmovz w1, #0x2
p95
sg5
L18446743798840019680L
sg6
Nsg23
S'MOV'
p96
sg25
S'0xffffffc0007fcae0L'
p97
sg27
Nsba(ibclass
BInstr
p98
(dp99
g2
Nsg17
S'ADD             X0, X0, #4,LSL#12'
p100
sg19
S'00104091'
p101
sg21
Vadd x0, x0, #4, lsl #12
p102
sg5
L18446743798840019684L
sg6
Nsg23
S'ADD'
p103
sg25
S'0xffffffc0007fcae4L'
p104
sg27
Nsba(ibclass
BInstr
p105
(dp106
g2
Nsg17
S'CSINC           W24, W1, WZR, NE'
p107
sg19
S'38149f1a'
p108
sg21
Vcsinc w24, w1, wzr, ne
p109
sg5
L18446743798840019688L
sg6
Nsg23
S'CSINC'
p110
sg25
S'0xffffffc0007fcae8L'
p111
sg27
Nsba(ibclass
BInstr
p112
(dp113
g2
Nsg17
S'MOV             X20, #0'
p114
sg19
S'140080d2'
p115
sg21
Vmovz x20, #0
p116
sg5
L18446743798840019692L
sg6
Nsg23
S'MOV'
p117
sg25
S'0xffffffc0007fcaecL'
p118
sg27
Nsba(ibclass
BInstr
p119
(dp120
g2
Nsg17
S'ADD             X25, X0, #0x168'
p121
sg19
S'19a00591'
p122
sg21
Vadd x25, x0, #0x168
p123
sg5
L18446743798840019696L
sg6
Nsg23
S'ADD'
p124
sg25
S'0xffffffc0007fcaf0L'
p125
sg27
Nsba(ibclass
BInstr
p126
(dp127
g2
Nsg17
S'MOV             X26, #0x1E0'
p128
sg19
S'1a3c80d2'
p129
sg21
Vmovz x26, #0x1e0
p130
sg5
L18446743798840019700L
sg6
Nsg23
S'MOV'
p131
sg25
S'0xffffffc0007fcaf4L'
p132
sg27
Nsba(ibclass
BInstr
p133
(dp134
g2
Nsg17
S'MOV             W27, W1'
p135
sg19
S'fb03012a'
p136
sg21
Vmov w27, w1
p137
sg5
L18446743798840019704L
sg6
Nsg23
S'MOV'
p138
sg25
S'0xffffffc0007fcaf8L'
p139
sg27
NsbasS'disasm_list'
p140
(lp141
S'STP reg9, reg0, mem!'
p142
aS'MOV reg9, SP'
p143
aS'STP reg9, reg0, mem'
p144
aS'STP reg5, reg6, mem'
p145
aS'STP reg3, reg4, mem'
p146
aS'STR reg7, mem'
p147
aS'STP reg1, reg2, mem'
p148
aS'LDR reg, mem'
p149
aS'MOV reg9, reg'
p150
aS'CMP reg, #1'
p151
aS'MOV reg, #2'
p152
aS'ADD reg, reg, #4,LSL#12'
p153
aS'CSINC reg4, reg, WZR, NE'
p154
aS'MOV reg0, #0'
p155
aS'ADD reg5, reg, #0x168'
p156
aS'MOV reg6, #0x1E0'
p157
aS'MOV reg7, reg'
p158
asS'end_address'
p159
Nsg5
S'0xffffffc0007fcab8L'
p160
sS'preds'
p161
(lp162
sg6
NsS'succs'
p163
(lp164
S'0xffffffc0007fcafcL'
p165
asS'hash_v3'
p166
NsS'flag_v2'
p167
NsS'hash_v1'
p168
S'9e7728e22424e3ff8ce9d93854bbb6a2'
p169
sS'hash_v2'
p170
S'd70b1ae059b57078f025a5211e671d03'
p171
sS'mnen_list'
p172
(lp173
g24
ag33
ag40
ag47
ag54
ag61
ag68
ag75
ag82
ag89
ag96
ag103
ag110
ag117
ag124
ag131
ag138
asS'neighbour_disasm_list'
p174
Nsba(ibclass
BBasicBlock
p175
(dp176
g12
Nsg13
(lp177
(ibclass
BInstr
p178
(dp179
g2
Nsg17
S'LDRB            W0, [X19]'
p180
sg19
S'60024039'
p181
sg21
Vldrb w0, [x19]
p182
sg5
L18446743798840019708L
sg6
Nsg23
S'LDR'
p183
sg25
S'0xffffffc0007fcafcL'
p184
sg27
Nsba(ibclass
BInstr
p185
(dp186
g2
Nsg17
S'CMP             W0, W20'
p187
sg19
S'1f00146b'
p188
sg21
Vcmp w0, w20
p189
sg5
L18446743798840019712L
sg6
Nsg23
S'CMP'
p190
sg25
S'0xffffffc0007fcb00L'
p191
sg27
Nsba(ibclass
BInstr
p192
(dp193
g2
Nsg17
S'B.LE            loc_FFFFFFC0007FCB90'
p194
sg19
S'6d040054'
p195
sg21
Vb.le #0x8c
p196
sg5
L18446743798840019716L
sg6
Nsg23
S'B'
p197
sg25
S'0xffffffc0007fcb04L'
p198
sg27
Nsbasg140
(lp199
S'LDRB reg, mem'
p200
aS'CMP reg, reg0'
p201
aS'B.LE func'
p202
asg159
Nsg5
S'0xffffffc0007fcafcL'
p203
sg161
(lp204
S'0xffffffc0007fcab8L'
p205
aS'0xffffffc0007fcb98L'
p206
asg6
Nsg163
(lp207
S'0xffffffc0007fcb08L'
p208
aS'0xffffffc0007fcb90L'
p209
asg166
Nsg167
Nsg168
S'fa4df767a85c49648339e2dc5c6807f6'
p210
sg170
S'dcfa05ece5fd8f7f65a24ca72bfb7d8b'
p211
sg172
(lp212
g183
ag190
ag197
asg174
Nsba(ibclass
BBasicBlock
p213
(dp214
g12
Nsg13
(lp215
(ibclass
BInstr
p216
(dp217
g2
Nsg17
S'ADD             X0, X19, X20,LSL#2'
p218
sg19
S'600a148b'
p219
sg21
Vadd x0, x19, x20, lsl #2
p220
sg5
L18446743798840019720L
sg6
Nsg23
S'ADD'
p221
sg25
S'0xffffffc0007fcb08L'
p222
sg27
Nsba(ibclass
BInstr
p223
(dp224
g2
Nsg17
S'LDRB            W21, [X0,#4]'
p225
sg19
S'15104039'
p226
sg21
Vldrb w21, [x0, #4]
p227
sg5
L18446743798840019724L
sg6
Nsg23
S'LDR'
p228
sg25
S'0xffffffc0007fcb0cL'
p229
sg27
Nsba(ibclass
BInstr
p230
(dp231
g2
Nsg17
S'MADD            X21, X21, X26, X25'
p232
sg19
S'b5661a9b'
p233
sg21
Vmadd x21, x21, x26, x25
p234
sg5
L18446743798840019728L
sg6
Nsg23
S'MADD'
p235
sg25
S'0xffffffc0007fcb10L'
p236
sg27
Nsba(ibclass
BInstr
p237
(dp238
g2
Nsg17
S'ADD             X23, X21, #8'
p239
sg19
S'b7220091'
p240
sg21
Vadd x23, x21, #8
p241
sg5
L18446743798840019732L
sg6
Nsg23
S'ADD'
p242
sg25
S'0xffffffc0007fcb14L'
p243
sg27
Nsba(ibclass
BInstr
p244
(dp245
g2
Nsg17
S'ADD             X21, X21, #0x1A8'
p246
sg19
S'b5a20691'
p247
sg21
Vadd x21, x21, #0x1a8
p248
sg5
L18446743798840019736L
sg6
Nsg23
S'ADD'
p249
sg25
S'0xffffffc0007fcb18L'
p250
sg27
Nsba(ibclass
BInstr
p251
(dp252
g2
Nsg17
S'MOV             X0, X21'
p253
sg19
S'e00315aa'
p254
sg21
Vmov x0, x21
p255
sg5
L18446743798840019740L
sg6
Nsg23
S'MOV'
p256
sg25
S'0xffffffc0007fcb1cL'
p257
sg27
Nsba(ibclass
BInstr
p258
(dp259
g2
Nsg17
S'BL              _raw_spin_lock_irqsave'
p260
sg19
S'c3ff1894'
p261
sg21
Vbl #0x63ff0c
p262
sg5
L18446743798840019744L
sg6
Nsg23
S'BL'
p263
sg25
S'0xffffffc0007fcb20L'
p264
sg27
Nsba(ibclass
BInstr
p265
(dp266
g2
Nsg17
S'LDR             W2, [X23,#4]'
p267
sg19
S'e20640b9'
p268
sg21
Vldr w2, [x23, #4]
p269
sg5
L18446743798840019748L
sg6
Nsg23
S'LDR'
p270
sg25
S'0xffffffc0007fcb24L'
p271
sg27
Nsba(ibclass
BInstr
p272
(dp273
g2
Nsg17
S'MOV             X22, X0'
p274
sg19
S'f60300aa'
p275
sg21
Vmov x22, x0
p276
sg5
L18446743798840019752L
sg6
Nsg23
S'MOV'
p277
sg25
S'0xffffffc0007fcb28L'
p278
sg27
Nsba(ibclass
BInstr
p279
(dp280
g2
Nsg17
S'CMP             W2, W24'
p281
sg19
S'5f00186b'
p282
sg21
Vcmp w2, w24
p283
sg5
L18446743798840019756L
sg6
Nsg23
S'CMP'
p284
sg25
S'0xffffffc0007fcb2cL'
p285
sg27
Nsba(ibclass
BInstr
p286
(dp287
g2
Nsg17
S'B.EQ            loc_FFFFFFC0007FCB98'
p288
sg19
S'40030054'
p289
sg21
Vb.eq #0x68
p290
sg5
L18446743798840019760L
sg6
Nsg23
g197
sg25
S'0xffffffc0007fcb30L'
p291
sg27
Nsbasg140
(lp292
S'ADD reg, reg9, reg0,LSL#2'
p293
aS'LDRB reg1, mem'
p294
aS'MADD reg1, reg1, reg6, reg5'
p295
aS'ADD reg3, reg1, #8'
p296
aS'ADD reg1, reg1, #0x1A8'
p297
aS'MOV reg, reg1'
p298
aS'BL _raw_spin_lock_irqsave'
p299
aS'LDR reg, mem'
p300
aS'MOV reg2, reg'
p301
aS'CMP reg, reg4'
p302
aS'B.EQ func'
p303
asg159
Nsg5
S'0xffffffc0007fcb08L'
p304
sg161
(lp305
S'0xffffffc0007fcafcL'
p306
asg6
Nsg163
(lp307
S'0xffffffc0007fcb34L'
p308
aS'0xffffffc0007fcb98L'
p309
asg166
Nsg167
Nsg168
S'6d65c1423f3710fb6e04bced5f7d5b6a'
p310
sg170
S'54e9e853414f0e9e8616f729f2673792'
p311
sg172
(lp312
g221
ag228
ag235
ag242
ag249
ag256
ag263
ag270
ag277
ag284
ag197
asg174
Nsba(ibclass
BBasicBlock
p313
(dp314
g12
Nsg13
(lp315
(ibclass
BInstr
p316
(dp317
g2
Nsg17
S'AND             W0, W2, #0xFFFFFFFB'
p318
sg19
S'40781d12'
p319
sg21
Vand w0, w2, #0xfffffffb
p320
sg5
L18446743798840019764L
sg6
Nsg23
S'AND'
p321
sg25
S'0xffffffc0007fcb34L'
p322
sg27
Nsba(ibclass
BInstr
p323
(dp324
g2
Nsg17
S'CMP             W0, #3'
p325
sg19
S'1f0c0071'
p326
sg21
Vcmp w0, #3
p327
sg5
L18446743798840019768L
sg6
Nsg23
S'CMP'
p328
sg25
S'0xffffffc0007fcb38L'
p329
sg27
Nsba(ibclass
BInstr
p330
(dp331
g2
Nsg17
S'B.EQ            loc_FFFFFFC0007FCB4C'
p332
sg19
S'80000054'
p333
sg21
Vb.eq #0x10
p334
sg5
L18446743798840019772L
sg6
Nsg23
g197
sg25
S'0xffffffc0007fcb3cL'
p335
sg27
Nsbasg140
(lp336
S'AND reg, reg, #0xFFFFFFFB'
p337
aS'CMP reg, #3'
p338
aS'B.EQ func'
p339
asg159
Nsg5
S'0xffffffc0007fcb34L'
p340
sg161
(lp341
S'0xffffffc0007fcb08L'
p342
asg6
Nsg163
(lp343
S'0xffffffc0007fcb40L'
p344
aS'0xffffffc0007fcb4cL'
p345
asg166
Nsg167
Nsg168
S'0fb20a02e641d5175079e6ff8c85ece1'
p346
sg170
S'e0fe53a443f7a1aef3f4541b765f3e46'
p347
sg172
(lp348
g321
ag328
ag197
asg174
Nsba(ibclass
BBasicBlock
p349
(dp350
g12
Nsg13
(lp351
(ibclass
BInstr
p352
(dp353
g2
Nsg17
S'SUB             W0, W2, #0xA'
p354
sg19
S'40280051'
p355
sg21
Vsub w0, w2, #0xa
p356
sg5
L18446743798840019776L
sg6
Nsg23
S'SUB'
p357
sg25
S'0xffffffc0007fcb40L'
p358
sg27
Nsba(ibclass
BInstr
p359
(dp360
g2
Nsg17
S'CMP             W0, #2'
p361
sg19
S'1f080071'
p362
sg21
Vcmp w0, #2
p363
sg5
L18446743798840019780L
sg6
Nsg23
S'CMP'
p364
sg25
S'0xffffffc0007fcb44L'
p365
sg27
Nsba(ibclass
BInstr
p366
(dp367
g2
Nsg17
S'B.HI            loc_FFFFFFC0007FCB60'
p368
sg19
S'c8000054'
p369
sg21
Vb.hi #0x18
p370
sg5
L18446743798840019784L
sg6
Nsg23
g197
sg25
S'0xffffffc0007fcb48L'
p371
sg27
Nsbasg140
(lp372
S'SUB reg, reg, #0xA'
p373
aS'CMP reg, #2'
p374
aS'B.HI func'
p375
asg159
Nsg5
S'0xffffffc0007fcb40L'
p376
sg161
(lp377
S'0xffffffc0007fcb34L'
p378
asg6
Nsg163
(lp379
S'0xffffffc0007fcb4cL'
p380
aS'0xffffffc0007fcb60L'
p381
asg166
Nsg167
Nsg168
S'894b8d3668dd4d870658172bcc02b6af'
p382
sg170
S'7f1e8a430b2af69c3db51afc3f75ea15'
p383
sg172
(lp384
g357
ag364
ag197
asg174
Nsba(ibclass
BBasicBlock
p385
(dp386
g12
Nsg13
(lp387
(ibclass
BInstr
p388
(dp389
g2
Nsg17
S'LDR             W0, [X19,#0x20]'
p390
sg19
S'602240b9'
p391
sg21
Vldr w0, [x19, #0x20]
p392
sg5
L18446743798840019788L
sg6
Nsg23
S'LDR'
p393
sg25
S'0xffffffc0007fcb4cL'
p394
sg27
Nsba(ibclass
BInstr
p395
(dp396
g2
Nsg17
S'TST             W0, #0xFFFFFFFD'
p397
sg19
S'1f781e72'
p398
sg21
Vtst w0, #0xfffffffd
p399
sg5
L18446743798840019792L
sg6
Nsg23
S'TST'
p400
sg25
S'0xffffffc0007fcb50L'
p401
sg27
Nsba(ibclass
BInstr
p402
(dp403
g2
Nsg17
S'B.NE            loc_FFFFFFC0007FCB60'
p404
sg19
S'61000054'
p405
sg21
Vb.ne #0xc
p406
sg5
L18446743798840019796L
sg6
Nsg23
g197
sg25
S'0xffffffc0007fcb54L'
p407
sg27
Nsbasg140
(lp408
S'LDR reg, mem'
p409
aS'TST reg, #0xFFFFFFFD'
p410
aS'B.NE func'
p411
asg159
Nsg5
S'0xffffffc0007fcb4cL'
p412
sg161
(lp413
S'0xffffffc0007fcb34L'
p414
aS'0xffffffc0007fcb40L'
p415
asg6
Nsg163
(lp416
S'0xffffffc0007fcb58L'
p417
aS'0xffffffc0007fcb60L'
p418
asg166
Nsg167
Nsg168
S'dd777ef652da0507ba65ee39c3cb079f'
p419
sg170
S'5cbed07fc25e0a2f05180a3d707bd881'
p420
sg172
(lp421
g393
ag400
ag197
asg174
Nsba(ibclass
BBasicBlock
p422
(dp423
g12
Nsg13
(lp424
(ibclass
BInstr
p425
(dp426
g2
Nsg17
S'STR             W27, [X23,#4]'
p427
sg19
S'fb0600b9'
p428
sg21
Vstr w27, [x23, #4]
p429
sg5
L18446743798840019800L
sg6
Nsg23
S'STR'
p430
sg25
S'0xffffffc0007fcb58L'
p431
sg27
Nsba(ibclass
BInstr
p432
(dp433
g2
Nsg17
S'B               loc_FFFFFFC0007FCB98'
p434
sg19
S'0f000014'
p435
sg21
Vb #0x3c
p436
sg5
L18446743798840019804L
sg6
Nsg23
g197
sg25
S'0xffffffc0007fcb5cL'
p437
sg27
Nsbasg140
(lp438
S'STR reg7, mem'
p439
aS'B func'
p440
asg159
Nsg5
S'0xffffffc0007fcb58L'
p441
sg161
(lp442
S'0xffffffc0007fcb4cL'
p443
asg6
Nsg163
(lp444
S'0xffffffc0007fcb98L'
p445
asg166
Nsg167
Nsg168
S'bb4d1d0d0e01d20d3b7cbdf52fe2caa6'
p446
sg170
S'0fd1d93deeb7b407276bd2cef1163701'
p447
sg172
(lp448
g430
ag197
asg174
Nsba(ibclass
BBasicBlock
p449
(dp450
g12
Nsg13
(lp451
(ibclass
BInstr
p452
(dp453
g2
Nsg17
S'ADRP            X1, #__func__.28408_0@PAGE; "msm_isp_cfg_ping_pong_address"'
p454
sg19
S'814200f0'
p455
sg21
Vadrp x1, #0x853000
p456
sg5
L18446743798840019808L
sg6
Nsg23
S'ADRP'
p457
sg25
S'0xffffffc0007fcb60L'
p458
sg27
Nsba(ibclass
BInstr
p459
(dp460
g2
Nsg17
S'ADRP            X0, #unk_FFFFFFC0013CEF05@PAGE'
p461
sg19
S'805e00d0'
p462
sg21
Vadrp x0, #0xbd2000
p463
sg5
L18446743798840019812L
sg6
Nsg23
S'ADRP'
p464
sg25
S'0xffffffc0007fcb64L'
p465
sg27
Nsba(ibclass
BInstr
p466
(dp467
g2
Nsg17
S'ADD             X1, X1, #__func__.28408_0@PAGEOFF; "msm_isp_cfg_ping_pong_address"'
p468
sg19
S'21001591'
p469
sg21
Vadd x1, x1, #0x540
p470
sg5
L18446743798840019816L
sg6
Nsg23
S'ADD'
p471
sg25
S'0xffffffc0007fcb68L'
p472
sg27
Nsba(ibclass
BInstr
p473
(dp474
g2
Nsg17
S'ADD             X1, X1, #0x178'
p475
sg19
S'21e00591'
p476
sg21
Vadd x1, x1, #0x178
p477
sg5
L18446743798840019820L
sg6
Nsg23
S'ADD'
p478
sg25
S'0xffffffc0007fcb6cL'
p479
sg27
Nsba(ibclass
BInstr
p480
(dp481
g2
Nsg17
S'ADD             X0, X0, #unk_FFFFFFC0013CEF05@PAGEOFF'
p482
sg19
S'00143c91'
p483
sg21
Vadd x0, x0, #0xf05
p484
sg5
L18446743798840019824L
sg6
Nsg23
S'ADD'
p485
sg25
S'0xffffffc0007fcb70L'
p486
sg27
Nsba(ibclass
BInstr
p487
(dp488
g2
Nsg17
S'BL              printk'
p489
sg19
S'80c11894'
p490
sg21
Vbl #0x630600
p491
sg5
L18446743798840019828L
sg6
Nsg23
S'BL'
p492
sg25
S'0xffffffc0007fcb74L'
p493
sg27
Nsba(ibclass
BInstr
p494
(dp495
g2
Nsg17
S'MOV             X0, X21'
p496
sg19
S'e00315aa'
p497
sg21
Vmov x0, x21
p498
sg5
L18446743798840019832L
sg6
Nsg23
S'MOV'
p499
sg25
S'0xffffffc0007fcb78L'
p500
sg27
Nsba(ibclass
BInstr
p501
(dp502
g2
Nsg17
S'MOV             X1, X22'
p503
sg19
S'e10316aa'
p504
sg21
Vmov x1, x22
p505
sg5
L18446743798840019836L
sg6
Nsg23
S'MOV'
p506
sg25
S'0xffffffc0007fcb7cL'
p507
sg27
Nsba(ibclass
BInstr
p508
(dp509
g2
Nsg17
S'BL              _raw_spin_unlock_irqrestore'
p510
sg19
S'ffff1894'
p511
sg21
Vbl #0x63fffc
p512
sg5
L18446743798840019840L
sg6
Nsg23
S'BL'
p513
sg25
S'0xffffffc0007fcb80L'
p514
sg27
Nsba(ibclass
BInstr
p515
(dp516
g2
Nsg17
S'LDR             W0, [X19,#0x20]'
p517
sg19
S'602240b9'
p518
sg21
Vldr w0, [x19, #0x20]
p519
sg5
L18446743798840019844L
sg6
Nsg23
S'LDR'
p520
sg25
S'0xffffffc0007fcb84L'
p521
sg27
Nsba(ibclass
BInstr
p522
(dp523
g2
Nsg17
S'CMP             W0, #1'
p524
sg19
S'1f040071'
p525
sg21
Vcmp w0, #1
p526
sg5
L18446743798840019848L
sg6
Nsg23
S'CMP'
p527
sg25
S'0xffffffc0007fcb88L'
p528
sg27
Nsba(ibclass
BInstr
p529
(dp530
g2
Nsg17
S'B.EQ            loc_FFFFFFC0007FCBAC'
p531
sg19
S'00010054'
p532
sg21
Vb.eq #0x20
p533
sg5
L18446743798840019852L
sg6
Nsg23
g197
sg25
S'0xffffffc0007fcb8cL'
p534
sg27
Nsbasg140
(lp535
S'ADRP reg, #__func__.28408_0@PAGE'
p536
aS'ADRP reg, #func@PAGE'
p537
aS'ADD reg, reg, #__func__.28408_0@PAGEOFF'
p538
aS'ADD reg, reg, #0x178'
p539
aS'ADD reg, reg, #func@PAGEOFF'
p540
aS'BL printk'
p541
aS'MOV reg, reg1'
p542
aS'MOV reg, reg2'
p543
aS'BL _raw_spin_unlock_irqrestore'
p544
aS'LDR reg, mem'
p545
aS'CMP reg, #1'
p546
aS'B.EQ func'
p547
asg159
Nsg5
S'0xffffffc0007fcb60L'
p548
sg161
(lp549
S'0xffffffc0007fcb40L'
p550
aS'0xffffffc0007fcb4cL'
p551
asg6
Nsg163
(lp552
S'0xffffffc0007fcb90L'
p553
aS'0xffffffc0007fcbacL'
p554
asg166
Nsg167
Nsg168
S'33a6afad2526c1944d44f9d0e3700673'
p555
sg170
S'96959409a4f5f5602f2fa3baeee2e41a'
p556
sg172
(lp557
g457
ag464
ag471
ag478
ag485
ag492
ag499
ag506
ag513
ag520
ag527
ag197
asg174
Nsba(ibclass
BBasicBlock
p558
(dp559
g12
Nsg13
(lp560
(ibclass
BInstr
p561
(dp562
g2
Nsg17
S'MOV             W0, #0'
p563
sg19
S'00008052'
p564
sg21
Vmovz w0, #0
p565
sg5
L18446743798840019856L
sg6
Nsg23
S'MOV'
p566
sg25
S'0xffffffc0007fcb90L'
p567
sg27
Nsba(ibclass
BInstr
p568
(dp569
g2
Nsg17
S'B               loc_FFFFFFC0007FCBB0'
p570
sg19
S'07000014'
p571
sg21
Vb #0x1c
p572
sg5
L18446743798840019860L
sg6
Nsg23
g197
sg25
S'0xffffffc0007fcb94L'
p573
sg27
Nsbasg140
(lp574
S'MOV reg, #0'
p575
aS'B func'
p576
asg159
Nsg5
S'0xffffffc0007fcb90L'
p577
sg161
(lp578
S'0xffffffc0007fcafcL'
p579
aS'0xffffffc0007fcb60L'
p580
asg6
Nsg163
(lp581
S'0xffffffc0007fcbb0L'
p582
asg166
Nsg167
Nsg168
S'b6c4e95ccfe77a95e4cf2019dd3d5574'
p583
sg170
S'487d2131c9e9084b6289188d6ce03ca3'
p584
sg172
(lp585
g566
ag197
asg174
Nsba(ibclass
BBasicBlock
p586
(dp587
g12
Nsg13
(lp588
(ibclass
BInstr
p589
(dp590
g2
Nsg17
S'MOV             X0, X21'
p591
sg19
S'e00315aa'
p592
sg21
Vmov x0, x21
p593
sg5
L18446743798840019864L
sg6
Nsg23
S'MOV'
p594
sg25
S'0xffffffc0007fcb98L'
p595
sg27
Nsba(ibclass
BInstr
p596
(dp597
g2
Nsg17
S'MOV             X1, X22'
p598
sg19
S'e10316aa'
p599
sg21
Vmov x1, x22
p600
sg5
L18446743798840019868L
sg6
Nsg23
S'MOV'
p601
sg25
S'0xffffffc0007fcb9cL'
p602
sg27
Nsba(ibclass
BInstr
p603
(dp604
g2
Nsg17
S'BL              _raw_spin_unlock_irqrestore'
p605
sg19
S'f7ff1894'
p606
sg21
Vbl #0x63ffdc
p607
sg5
L18446743798840019872L
sg6
Nsg23
S'BL'
p608
sg25
S'0xffffffc0007fcba0L'
p609
sg27
Nsba(ibclass
BInstr
p610
(dp611
g2
Nsg17
S'ADD             X20, X20, #1'
p612
sg19
S'94060091'
p613
sg21
Vadd x20, x20, #1
p614
sg5
L18446743798840019876L
sg6
Nsg23
S'ADD'
p615
sg25
S'0xffffffc0007fcba4L'
p616
sg27
Nsba(ibclass
BInstr
p617
(dp618
g2
Nsg17
S'B               loc_FFFFFFC0007FCAFC'
p619
sg19
S'd5ffff17'
p620
sg21
Vb #0xffffffffffffff54
p621
sg5
L18446743798840019880L
sg6
Nsg23
g197
sg25
S'0xffffffc0007fcba8L'
p622
sg27
Nsbasg140
(lp623
S'MOV reg, reg1'
p624
aS'MOV reg, reg2'
p625
aS'BL _raw_spin_unlock_irqrestore'
p626
aS'ADD reg0, reg0, #1'
p627
aS'B func'
p628
asg159
Nsg5
S'0xffffffc0007fcb98L'
p629
sg161
(lp630
S'0xffffffc0007fcb08L'
p631
aS'0xffffffc0007fcb58L'
p632
asg6
Nsg163
(lp633
S'0xffffffc0007fcafcL'
p634
asg166
Nsg167
Nsg168
S'365dac27f243afc3214073abf0a736eb'
p635
sg170
S'a4773ccb7a0edd4c9ee1797d70d35fa3'
p636
sg172
(lp637
g594
ag601
ag608
ag615
ag197
asg174
Nsba(ibclass
BBasicBlock
p638
(dp639
g12
Nsg13
(lp640
(ibclass
BInstr
p641
(dp642
g2
Nsg17
S'MOV             W0, #0xFFFFFFEA'
p643
sg19
S'a0028012'
p644
sg21
Vmovn w0, #0x15
p645
sg5
L18446743798840019884L
sg6
Nsg23
S'MOV'
p646
sg25
S'0xffffffc0007fcbacL'
p647
sg27
Nsbasg140
(lp648
S'MOV reg, #0xFFFFFFEA'
p649
asg159
Nsg5
S'0xffffffc0007fcbacL'
p650
sg161
(lp651
S'0xffffffc0007fcb60L'
p652
asg6
Nsg163
(lp653
S'0xffffffc0007fcbb0L'
p654
asg166
Nsg167
Nsg168
S'17b32100aef1fc19670be7fd58bc85df'
p655
sg170
S'a29fd938bb678f91c772895a5ab962e9'
p656
sg172
(lp657
g646
asg174
Nsba(ibclass
BBasicBlock
p658
(dp659
g12
Nsg13
(lp660
(ibclass
BInstr
p661
(dp662
g2
Nsg17
S'LDP             X19, X20, [SP,#0x50+var_40]'
p663
sg19
S'f35341a9'
p664
sg21
Vldp x19, x20, [sp, #0x10]
p665
sg5
L18446743798840019888L
sg6
Nsg23
S'LDP'
p666
sg25
S'0xffffffc0007fcbb0L'
p667
sg27
Nsba(ibclass
BInstr
p668
(dp669
g2
Nsg17
S'LDP             X21, X22, [SP,#0x50+var_30]'
p670
sg19
S'f55b42a9'
p671
sg21
Vldp x21, x22, [sp, #0x20]
p672
sg5
L18446743798840019892L
sg6
Nsg23
S'LDP'
p673
sg25
S'0xffffffc0007fcbb4L'
p674
sg27
Nsba(ibclass
BInstr
p675
(dp676
g2
Nsg17
S'LDP             X23, X24, [SP,#0x50+var_20]'
p677
sg19
S'f76343a9'
p678
sg21
Vldp x23, x24, [sp, #0x30]
p679
sg5
L18446743798840019896L
sg6
Nsg23
S'LDP'
p680
sg25
S'0xffffffc0007fcbb8L'
p681
sg27
Nsba(ibclass
BInstr
p682
(dp683
g2
Nsg17
S'LDP             X25, X26, [SP,#0x50+var_10]'
p684
sg19
S'f96b44a9'
p685
sg21
Vldp x25, x26, [sp, #0x40]
p686
sg5
L18446743798840019900L
sg6
Nsg23
S'LDP'
p687
sg25
S'0xffffffc0007fcbbcL'
p688
sg27
Nsba(ibclass
BInstr
p689
(dp690
g2
Nsg17
S'LDR             X27, [SP,#0x50+var_s0]'
p691
sg19
S'fb2b40f9'
p692
sg21
Vldr x27, [sp, #0x50]
p693
sg5
L18446743798840019904L
sg6
Nsg23
S'LDR'
p694
sg25
S'0xffffffc0007fcbc0L'
p695
sg27
Nsba(ibclass
BInstr
p696
(dp697
g2
Nsg17
S'LDP             X29, X30, [SP+0x50+var_50],#0x60'
p698
sg19
S'fd7bc6a8'
p699
sg21
Vldp x29, x30, [sp], #0x60
p700
sg5
L18446743798840019908L
sg6
Nsg23
S'LDP'
p701
sg25
S'0xffffffc0007fcbc4L'
p702
sg27
Nsba(ibclass
BInstr
p703
(dp704
g2
Nsg17
S'RET'
p705
sg19
S'c0035fd6'
p706
sg21
Vret 
p707
sg5
L18446743798840019912L
sg6
Nsg23
S'RET'
p708
sg25
S'0xffffffc0007fcbc8L'
p709
sg27
Nsbasg140
(lp710
S'LDP reg9, reg0, mem'
p711
aS'LDP reg1, reg2, mem'
p712
aS'LDP reg3, reg4, mem'
p713
aS'LDP reg5, reg6, mem'
p714
aS'LDR reg7, mem'
p715
aS'LDP reg9, reg0, mem,#0x60'
p716
ag705
asg159
Nsg5
S'0xffffffc0007fcbb0L'
p717
sg161
(lp718
S'0xffffffc0007fcb90L'
p719
aS'0xffffffc0007fcbacL'
p720
asg6
Nsg163
(lp721
sg166
Nsg167
Nsg168
S'702e9b760a82bbf4b936ba5efdeab680'
p722
sg170
S'65c06f6b9fc9749d4d0be63c4fcdfa82'
p723
sg172
(lp724
g666
ag673
ag680
ag687
ag694
ag701
ag708
asg174
Nsbasb.