(ibclass
BFunc
p0
(dp1
S'hash'
p2
NsS'name'
p3
S'msm_isp_axi_update_cgc_override'
p4
sS'start_address'
p5
L18446743798840012552L
sS'flag'
p6
NsS'program'
p7
NsS'bbs'
p8
(lp9
(ibclass
BBasicBlock
p10
(dp11
S'function'
p12
NsS'binstrs'
p13
(lp14
(ibclass
BInstr
p15
(dp16
g2
NsS'disasm'
p17
S'STP             X29, X30, [SP,#-0x10+var_40]!'
p18
sS'bytes'
p19
S'fd7bbba9'
p20
sS'disasm_striped'
p21
Vstp x29, x30, [sp, #-0x50]!
p22
sg5
L18446743798840012552L
sg6
NsS'mnem'
p23
S'STP'
p24
sS'address'
p25
S'0xffffffc0007faf08L'
p26
sS'basicblock'
p27
Nsba(ibclass
BInstr
p28
(dp29
g2
Nsg17
S'MOV             X29, SP'
p30
sg19
S'fd030091'
p31
sg21
Vmov x29, sp
p32
sg5
L18446743798840012556L
sg6
Nsg23
S'MOV'
p33
sg25
S'0xffffffc0007faf0cL'
p34
sg27
Nsba(ibclass
BInstr
p35
(dp36
g2
Nsg17
S'STP             X25, X26, [SP,#0x40+var_s0]'
p37
sg19
S'f96b04a9'
p38
sg21
Vstp x25, x26, [sp, #0x40]
p39
sg5
L18446743798840012560L
sg6
Nsg23
S'STP'
p40
sg25
S'0xffffffc0007faf10L'
p41
sg27
Nsba(ibclass
BInstr
p42
(dp43
g2
Nsg17
S'ADD             X25, X0, #4,LSL#12'
p44
sg19
S'19104091'
p45
sg21
Vadd x25, x0, #4, lsl #12
p46
sg5
L18446743798840012564L
sg6
Nsg23
S'ADD'
p47
sg25
S'0xffffffc0007faf14L'
p48
sg27
Nsba(ibclass
BInstr
p49
(dp50
g2
Nsg17
S'STP             X21, X22, [SP,#0x40+var_20]'
p51
sg19
S'f55b02a9'
p52
sg21
Vstp x21, x22, [sp, #0x20]
p53
sg5
L18446743798840012568L
sg6
Nsg23
S'STP'
p54
sg25
S'0xffffffc0007faf18L'
p55
sg27
Nsba(ibclass
BInstr
p56
(dp57
g2
Nsg17
S'STP             X19, X20, [SP,#0x40+var_30]'
p58
sg19
S'f35301a9'
p59
sg21
Vstp x19, x20, [sp, #0x10]
p60
sg5
L18446743798840012572L
sg6
Nsg23
S'STP'
p61
sg25
S'0xffffffc0007faf1cL'
p62
sg27
Nsba(ibclass
BInstr
p63
(dp64
g2
Nsg17
S'STP             X23, X24, [SP,#0x40+var_10]'
p65
sg19
S'f76303a9'
p66
sg21
Vstp x23, x24, [sp, #0x30]
p67
sg5
L18446743798840012576L
sg6
Nsg23
S'STP'
p68
sg25
S'0xffffffc0007faf20L'
p69
sg27
Nsba(ibclass
BInstr
p70
(dp71
g2
Nsg17
S'MOV             X21, X0'
p72
sg19
S'f50300aa'
p73
sg21
Vmov x21, x0
p74
sg5
L18446743798840012580L
sg6
Nsg23
S'MOV'
p75
sg25
S'0xffffffc0007faf24L'
p76
sg27
Nsba(ibclass
BInstr
p77
(dp78
g2
Nsg17
S'MOV             X22, X1'
p79
sg19
S'f60301aa'
p80
sg21
Vmov x22, x1
p81
sg5
L18446743798840012584L
sg6
Nsg23
S'MOV'
p82
sg25
S'0xffffffc0007faf28L'
p83
sg27
Nsba(ibclass
BInstr
p84
(dp85
g2
Nsg17
S'UBFM            W24, W2, #0, #7'
p86
sg19
S'581c0053'
p87
sg21
Vuxtb w24, w2
p88
sg5
L18446743798840012588L
sg6
Nsg23
S'UBFM'
p89
sg25
S'0xffffffc0007faf2cL'
p90
sg27
Nsba(ibclass
BInstr
p91
(dp92
g2
Nsg17
S'MOV             X19, #0'
p93
sg19
S'130080d2'
p94
sg21
Vmovz x19, #0
p95
sg5
L18446743798840012592L
sg6
Nsg23
S'MOV'
p96
sg25
S'0xffffffc0007faf30L'
p97
sg27
Nsba(ibclass
BInstr
p98
(dp99
g2
Nsg17
S'ADD             X25, X25, #0x168'
p100
sg19
S'39a30591'
p101
sg21
Vadd x25, x25, #0x168
p102
sg5
L18446743798840012596L
sg6
Nsg23
S'ADD'
p103
sg25
S'0xffffffc0007faf34L'
p104
sg27
Nsba(ibclass
BInstr
p105
(dp106
g2
Nsg17
S'MOV             X26, #0x1E0'
p107
sg19
S'1a3c80d2'
p108
sg21
Vmovz x26, #0x1e0
p109
sg5
L18446743798840012600L
sg6
Nsg23
S'MOV'
p110
sg25
S'0xffffffc0007faf38L'
p111
sg27
NsbasS'disasm_list'
p112
(lp113
S'STP reg9, reg0, mem!'
p114
aS'MOV reg9, SP'
p115
aS'STP reg5, reg6, mem'
p116
aS'ADD reg5, reg, #4,LSL#12'
p117
aS'STP reg1, reg2, mem'
p118
aS'STP reg9, reg0, mem'
p119
aS'STP reg3, reg4, mem'
p120
aS'MOV reg1, reg'
p121
aS'MOV reg2, reg'
p122
aS'UBFM reg4, reg, #0, #7'
p123
aS'MOV reg9, #0'
p124
aS'ADD reg5, reg5, #0x168'
p125
aS'MOV reg6, #0x1E0'
p126
asS'end_address'
p127
Nsg5
S'0xffffffc0007faf08L'
p128
sS'preds'
p129
(lp130
sg6
NsS'succs'
p131
(lp132
S'0xffffffc0007faf3cL'
p133
asS'hash_v3'
p134
NsS'flag_v2'
p135
NsS'hash_v1'
p136
S'fdee0e163b7037c521cf4446428f9864'
p137
sS'hash_v2'
p138
S'4a022034089fc21d70baba18aa5ceac7'
p139
sS'mnen_list'
p140
(lp141
g24
ag33
ag40
ag47
ag54
ag61
ag68
ag75
ag82
ag89
ag96
ag103
ag110
asS'neighbour_disasm_list'
p142
Nsba(ibclass
BBasicBlock
p143
(dp144
g12
Nsg13
(lp145
(ibclass
BInstr
p146
(dp147
g2
Nsg17
S'LDRB            W0, [X22]'
p148
sg19
S'c0024039'
p149
sg21
Vldrb w0, [x22]
p150
sg5
L18446743798840012604L
sg6
Nsg23
S'LDR'
p151
sg25
S'0xffffffc0007faf3cL'
p152
sg27
Nsba(ibclass
BInstr
p153
(dp154
g2
Nsg17
S'CMP             W0, W19'
p155
sg19
S'1f00136b'
p156
sg21
Vcmp w0, w19
p157
sg5
L18446743798840012608L
sg6
Nsg23
S'CMP'
p158
sg25
S'0xffffffc0007faf40L'
p159
sg27
Nsba(ibclass
BInstr
p160
(dp161
g2
Nsg17
S'B.LE            loc_FFFFFFC0007FAF98'
p162
sg19
S'ad020054'
p163
sg21
Vb.le #0x54
p164
sg5
L18446743798840012612L
sg6
Nsg23
S'B'
p165
sg25
S'0xffffffc0007faf44L'
p166
sg27
Nsbasg112
(lp167
S'LDRB reg, mem'
p168
aS'CMP reg, reg9'
p169
aS'B.LE func'
p170
asg127
Nsg5
S'0xffffffc0007faf3cL'
p171
sg129
(lp172
S'0xffffffc0007faf08L'
p173
aS'0xffffffc0007faf90L'
p174
asg6
Nsg131
(lp175
S'0xffffffc0007faf48L'
p176
aS'0xffffffc0007faf98L'
p177
asg134
Nsg135
Nsg136
S'fa4df767a85c49648339e2dc5c6807f6'
p178
sg138
S'3216e9de80cffa5e41405df9d098ccf6'
p179
sg140
(lp180
g151
ag158
ag165
asg142
Nsba(ibclass
BBasicBlock
p181
(dp182
g12
Nsg13
(lp183
(ibclass
BInstr
p184
(dp185
g2
Nsg17
S'ADD             X0, X22, X19,LSL#2'
p186
sg19
S'c00a138b'
p187
sg21
Vadd x0, x22, x19, lsl #2
p188
sg5
L18446743798840012616L
sg6
Nsg23
S'ADD'
p189
sg25
S'0xffffffc0007faf48L'
p190
sg27
Nsba(ibclass
BInstr
p191
(dp192
g2
Nsg17
S'LDRB            W23, [X0,#4]'
p193
sg19
S'17104039'
p194
sg21
Vldrb w23, [x0, #4]
p195
sg5
L18446743798840012620L
sg6
Nsg23
S'LDR'
p196
sg25
S'0xffffffc0007faf4cL'
p197
sg27
Nsba(ibclass
BInstr
p198
(dp199
g2
Nsg17
S'MOV             X20, #0'
p200
sg19
S'140080d2'
p201
sg21
Vmovz x20, #0
p202
sg5
L18446743798840012624L
sg6
Nsg23
S'MOV'
p203
sg25
S'0xffffffc0007faf50L'
p204
sg27
Nsba(ibclass
BInstr
p205
(dp206
g2
Nsg17
S'MADD            X23, X23, X26, X25'
p207
sg19
S'f7661a9b'
p208
sg21
Vmadd x23, x23, x26, x25
p209
sg5
L18446743798840012628L
sg6
Nsg23
S'MADD'
p210
sg25
S'0xffffffc0007faf54L'
p211
sg27
Nsba(ibclass
BInstr
p212
(dp213
g2
Nsg17
S'ADD             X23, X23, #8'
p214
sg19
S'f7220091'
p215
sg21
Vadd x23, x23, #8
p216
sg5
L18446743798840012632L
sg6
Nsg23
S'ADD'
p217
sg25
S'0xffffffc0007faf58L'
p218
sg27
Nsbasg112
(lp219
S'ADD reg, reg2, reg9,LSL#2'
p220
aS'LDRB reg3, mem'
p221
aS'MOV reg0, #0'
p222
aS'MADD reg3, reg3, reg6, reg5'
p223
aS'ADD reg3, reg3, #8'
p224
asg127
Nsg5
S'0xffffffc0007faf48L'
p225
sg129
(lp226
S'0xffffffc0007faf3cL'
p227
asg6
Nsg131
(lp228
S'0xffffffc0007faf5cL'
p229
asg134
Nsg135
Nsg136
S'13d7d58121ad14f597e65c719f136152'
p230
sg138
S'fdb71cea4a6be197ada86b4e3ad4eaca'
p231
sg140
(lp232
g189
ag196
ag203
ag210
ag217
asg142
Nsba(ibclass
BBasicBlock
p233
(dp234
g12
Nsg13
(lp235
(ibclass
BInstr
p236
(dp237
g2
Nsg17
S'LDRB            W0, [X23,#0xC]'
p238
sg19
S'e0324039'
p239
sg21
Vldrb w0, [x23, #0xc]
p240
sg5
L18446743798840012636L
sg6
Nsg23
S'LDR'
p241
sg25
S'0xffffffc0007faf5cL'
p242
sg27
Nsba(ibclass
BInstr
p243
(dp244
g2
Nsg17
S'CMP             W0, W20'
p245
sg19
S'1f00146b'
p246
sg21
Vcmp w0, w20
p247
sg5
L18446743798840012640L
sg6
Nsg23
S'CMP'
p248
sg25
S'0xffffffc0007faf60L'
p249
sg27
Nsba(ibclass
BInstr
p250
(dp251
g2
Nsg17
S'B.LE            loc_FFFFFFC0007FAF90'
p252
sg19
S'6d010054'
p253
sg21
Vb.le #0x2c
p254
sg5
L18446743798840012644L
sg6
Nsg23
g165
sg25
S'0xffffffc0007faf64L'
p255
sg27
Nsbasg112
(lp256
S'LDRB reg, mem'
p257
aS'CMP reg, reg0'
p258
aS'B.LE func'
p259
asg127
Nsg5
S'0xffffffc0007faf5cL'
p260
sg129
(lp261
S'0xffffffc0007faf48L'
p262
aS'0xffffffc0007faf88L'
p263
asg6
Nsg131
(lp264
S'0xffffffc0007faf68L'
p265
aS'0xffffffc0007faf90L'
p266
asg134
Nsg135
Nsg136
S'fa4df767a85c49648339e2dc5c6807f6'
p267
sg138
S'dcfa05ece5fd8f7f65a24ca72bfb7d8b'
p268
sg140
(lp269
g241
ag248
ag165
asg142
Nsba(ibclass
BBasicBlock
p270
(dp271
g12
Nsg13
(lp272
(ibclass
BInstr
p273
(dp274
g2
Nsg17
S'LDR             X0, [X21,#0x4160]'
p275
sg19
S'a0b260f9'
p276
sg21
Vldr x0, [x21, #0x4160]
p277
sg5
L18446743798840012648L
sg6
Nsg23
S'LDR'
p278
sg25
S'0xffffffc0007faf68L'
p279
sg27
Nsba(ibclass
BInstr
p280
(dp281
g2
Nsg17
S'LDR             X3, [X0,#0xF8]'
p282
sg19
S'037c40f9'
p283
sg21
Vldr x3, [x0, #0xf8]
p284
sg5
L18446743798840012652L
sg6
Nsg23
S'LDR'
p285
sg25
S'0xffffffc0007faf6cL'
p286
sg27
Nsba(ibclass
BInstr
p287
(dp288
g2
Nsg17
S'CBZ             X3, loc_FFFFFFC0007FAF88'
p289
sg19
S'c30000b4'
p290
sg21
Vcbz x3, #0x18
p291
sg5
L18446743798840012656L
sg6
Nsg23
S'CBZ'
p292
sg25
S'0xffffffc0007faf70L'
p293
sg27
Nsbasg112
(lp294
S'LDR reg, mem'
p295
aS'LDR reg, mem'
p296
aS'CBZ reg, func'
p297
asg127
Nsg5
S'0xffffffc0007faf68L'
p298
sg129
(lp299
S'0xffffffc0007faf5cL'
p300
asg6
Nsg131
(lp301
S'0xffffffc0007faf74L'
p302
aS'0xffffffc0007faf88L'
p303
asg134
Nsg135
Nsg136
S'60187e9e58071f660cfb958182c60556'
p304
sg138
S'3e5c29d2dfd58dbf2ba2bc610a064d70'
p305
sg140
(lp306
g278
ag285
ag292
asg142
Nsba(ibclass
BBasicBlock
p307
(dp308
g12
Nsg13
(lp309
(ibclass
BInstr
p310
(dp311
g2
Nsg17
S'ADD             X1, X23, X20'
p312
sg19
S'e102148b'
p313
sg21
Vadd x1, x23, x20
p314
sg5
L18446743798840012660L
sg6
Nsg23
S'ADD'
p315
sg25
S'0xffffffc0007faf74L'
p316
sg27
Nsba(ibclass
BInstr
p317
(dp318
g2
Nsg17
S'LDRB            W1, [X1,#0xD]'
p319
sg19
S'21344039'
p320
sg21
Vldrb w1, [x1, #0xd]
p321
sg5
L18446743798840012664L
sg6
Nsg23
S'LDR'
p322
sg25
S'0xffffffc0007faf78L'
p323
sg27
Nsba(ibclass
BInstr
p324
(dp325
g2
Nsg17
S'MOV             X0, X21'
p326
sg19
S'e00315aa'
p327
sg21
Vmov x0, x21
p328
sg5
L18446743798840012668L
sg6
Nsg23
S'MOV'
p329
sg25
S'0xffffffc0007faf7cL'
p330
sg27
Nsba(ibclass
BInstr
p331
(dp332
g2
Nsg17
S'MOV             W2, W24'
p333
sg19
S'e203182a'
p334
sg21
Vmov w2, w24
p335
sg5
L18446743798840012672L
sg6
Nsg23
S'MOV'
p336
sg25
S'0xffffffc0007faf80L'
p337
sg27
Nsba(ibclass
BInstr
p338
(dp339
g2
Nsg17
S'BLR             X3'
p340
sg19
S'60003fd6'
p341
sg21
Vblr x3
p342
sg5
L18446743798840012676L
sg6
Nsg23
S'BLR'
p343
sg25
S'0xffffffc0007faf84L'
p344
sg27
Nsbasg112
(lp345
S'ADD reg, reg3, reg0'
p346
aS'LDRB reg, mem'
p347
aS'MOV reg, reg1'
p348
aS'MOV reg, reg4'
p349
aS'BLR reg'
p350
asg127
Nsg5
S'0xffffffc0007faf74L'
p351
sg129
(lp352
S'0xffffffc0007faf68L'
p353
asg6
Nsg131
(lp354
S'0xffffffc0007faf88L'
p355
asg134
Nsg135
Nsg136
S'd808711f06b0f8a4aed7d587ee4c9830'
p356
sg138
S'85b2d4ec36fbc5954c9e816e9de4b85f'
p357
sg140
(lp358
g315
ag322
ag329
ag336
ag343
asg142
Nsba(ibclass
BBasicBlock
p359
(dp360
g12
Nsg13
(lp361
(ibclass
BInstr
p362
(dp363
g2
Nsg17
S'ADD             X20, X20, #1'
p364
sg19
S'94060091'
p365
sg21
Vadd x20, x20, #1
p366
sg5
L18446743798840012680L
sg6
Nsg23
S'ADD'
p367
sg25
S'0xffffffc0007faf88L'
p368
sg27
Nsba(ibclass
BInstr
p369
(dp370
g2
Nsg17
S'B               loc_FFFFFFC0007FAF5C'
p371
sg19
S'f4ffff17'
p372
sg21
Vb #0xffffffffffffffd0
p373
sg5
L18446743798840012684L
sg6
Nsg23
g165
sg25
S'0xffffffc0007faf8cL'
p374
sg27
Nsbasg112
(lp375
S'ADD reg0, reg0, #1'
p376
aS'B func'
p377
asg127
Nsg5
S'0xffffffc0007faf88L'
p378
sg129
(lp379
S'0xffffffc0007faf68L'
p380
aS'0xffffffc0007faf74L'
p381
asg6
Nsg131
(lp382
S'0xffffffc0007faf5cL'
p383
asg134
Nsg135
Nsg136
S'f59ed0fb4617df9a98cc94b1d7075f92'
p384
sg138
S'7a6bd9dc238ea5270fac804af6a88c3f'
p385
sg140
(lp386
g367
ag165
asg142
Nsba(ibclass
BBasicBlock
p387
(dp388
g12
Nsg13
(lp389
(ibclass
BInstr
p390
(dp391
g2
Nsg17
S'ADD             X19, X19, #1'
p392
sg19
S'73060091'
p393
sg21
Vadd x19, x19, #1
p394
sg5
L18446743798840012688L
sg6
Nsg23
S'ADD'
p395
sg25
S'0xffffffc0007faf90L'
p396
sg27
Nsba(ibclass
BInstr
p397
(dp398
g2
Nsg17
S'B               loc_FFFFFFC0007FAF3C'
p399
sg19
S'eaffff17'
p400
sg21
Vb #0xffffffffffffffa8
p401
sg5
L18446743798840012692L
sg6
Nsg23
g165
sg25
S'0xffffffc0007faf94L'
p402
sg27
Nsbasg112
(lp403
S'ADD reg9, reg9, #1'
p404
aS'B func'
p405
asg127
Nsg5
S'0xffffffc0007faf90L'
p406
sg129
(lp407
S'0xffffffc0007faf5cL'
p408
asg6
Nsg131
(lp409
S'0xffffffc0007faf3cL'
p410
asg134
Nsg135
Nsg136
S'f59ed0fb4617df9a98cc94b1d7075f92'
p411
sg138
S'c511e6ead3c72d7cc51afab89b7cbc26'
p412
sg140
(lp413
g395
ag165
asg142
Nsba(ibclass
BBasicBlock
p414
(dp415
g12
Nsg13
(lp416
(ibclass
BInstr
p417
(dp418
g2
Nsg17
S'MOV             W0, #0'
p419
sg19
S'00008052'
p420
sg21
Vmovz w0, #0
p421
sg5
L18446743798840012696L
sg6
Nsg23
S'MOV'
p422
sg25
S'0xffffffc0007faf98L'
p423
sg27
Nsba(ibclass
BInstr
p424
(dp425
g2
Nsg17
S'LDP             X19, X20, [SP,#0x40+var_30]'
p426
sg19
S'f35341a9'
p427
sg21
Vldp x19, x20, [sp, #0x10]
p428
sg5
L18446743798840012700L
sg6
Nsg23
S'LDP'
p429
sg25
S'0xffffffc0007faf9cL'
p430
sg27
Nsba(ibclass
BInstr
p431
(dp432
g2
Nsg17
S'LDP             X21, X22, [SP,#0x40+var_20]'
p433
sg19
S'f55b42a9'
p434
sg21
Vldp x21, x22, [sp, #0x20]
p435
sg5
L18446743798840012704L
sg6
Nsg23
S'LDP'
p436
sg25
S'0xffffffc0007fafa0L'
p437
sg27
Nsba(ibclass
BInstr
p438
(dp439
g2
Nsg17
S'LDP             X23, X24, [SP,#0x40+var_10]'
p440
sg19
S'f76343a9'
p441
sg21
Vldp x23, x24, [sp, #0x30]
p442
sg5
L18446743798840012708L
sg6
Nsg23
S'LDP'
p443
sg25
S'0xffffffc0007fafa4L'
p444
sg27
Nsba(ibclass
BInstr
p445
(dp446
g2
Nsg17
S'LDP             X25, X26, [SP,#0x40+var_s0]'
p447
sg19
S'f96b44a9'
p448
sg21
Vldp x25, x26, [sp, #0x40]
p449
sg5
L18446743798840012712L
sg6
Nsg23
S'LDP'
p450
sg25
S'0xffffffc0007fafa8L'
p451
sg27
Nsba(ibclass
BInstr
p452
(dp453
g2
Nsg17
S'LDP             X29, X30, [SP+0x40+var_40],#0x50'
p454
sg19
S'fd7bc5a8'
p455
sg21
Vldp x29, x30, [sp], #0x50
p456
sg5
L18446743798840012716L
sg6
Nsg23
S'LDP'
p457
sg25
S'0xffffffc0007fafacL'
p458
sg27
Nsba(ibclass
BInstr
p459
(dp460
g2
Nsg17
S'RET'
p461
sg19
S'c0035fd6'
p462
sg21
Vret 
p463
sg5
L18446743798840012720L
sg6
Nsg23
S'RET'
p464
sg25
S'0xffffffc0007fafb0L'
p465
sg27
Nsbasg112
(lp466
S'MOV reg, #0'
p467
aS'LDP reg9, reg0, mem'
p468
aS'LDP reg1, reg2, mem'
p469
aS'LDP reg3, reg4, mem'
p470
aS'LDP reg5, reg6, mem'
p471
aS'LDP reg9, reg0, mem,#0x50'
p472
ag461
asg127
Nsg5
S'0xffffffc0007faf98L'
p473
sg129
(lp474
S'0xffffffc0007faf3cL'
p475
asg6
Nsg131
(lp476
sg134
Nsg135
Nsg136
S'c53847ceb2176683c7e10fd3ff364ca6'
p477
sg138
S'481ba592fb73262f3b2bd3102fd14060'
p478
sg140
(lp479
g422
ag429
ag436
ag443
ag450
ag457
ag464
asg142
Nsbasb.