(ibclass
BFunc
p0
(dp1
S'hash'
p2
NsS'name'
p3
S'msm_compr_audio_effects_config_info'
p4
sS'start_address'
p5
L18446743798844343680L
sS'flag'
p6
NsS'program'
p7
NsS'bbs'
p8
(lp9
(ibclass
BBasicBlock
p10
(dp11
S'function'
p12
NsS'binstrs'
p13
(lp14
(ibclass
BInstr
p15
(dp16
g2
NsS'disasm'
p17
S'MOV             W0, #2'
p18
sS'bytes'
p19
S'40008052'
p20
sS'disasm_striped'
p21
Vmovz w0, #0x2
p22
sg5
L18446743798844343680L
sg6
NsS'mnem'
p23
S'MOV'
p24
sS'address'
p25
S'0xffffffc000c1c580L'
p26
sS'basicblock'
p27
Nsba(ibclass
BInstr
p28
(dp29
g2
Nsg17
S'STR             W0, [X1,#0x40]'
p30
sg19
S'204000b9'
p31
sg21
Vstr w0, [x1, #0x40]
p32
sg5
L18446743798844343684L
sg6
Nsg23
S'STR'
p33
sg25
S'0xffffffc000c1c584L'
p34
sg27
Nsba(ibclass
BInstr
p35
(dp36
g2
Nsg17
S'MOV             W0, #0x80'
p37
sg19
S'00108052'
p38
sg21
Vmovz w0, #0x80
p39
sg5
L18446743798844343688L
sg6
Nsg23
S'MOV'
p40
sg25
S'0xffffffc000c1c588L'
p41
sg27
Nsba(ibclass
BInstr
p42
(dp43
g2
Nsg17
S'STR             W0, [X1,#0x48]'
p44
sg19
S'204800b9'
p45
sg21
Vstr w0, [x1, #0x48]
p46
sg5
L18446743798844343692L
sg6
Nsg23
S'STR'
p47
sg25
S'0xffffffc000c1c58cL'
p48
sg27
Nsba(ibclass
BInstr
p49
(dp50
g2
Nsg17
S'MOV             X0, #0xFFFFFFFF'
p51
sg19
S'e07f40b2'
p52
sg21
Vorr x0, xzr, #0xffffffff
p53
sg5
L18446743798844343696L
sg6
Nsg23
S'MOV'
p54
sg25
S'0xffffffc000c1c590L'
p55
sg27
Nsba(ibclass
BInstr
p56
(dp57
g2
Nsg17
S'STR             X0, [X1,#0x58]'
p58
sg19
S'202c00f9'
p59
sg21
Vstr x0, [x1, #0x58]
p60
sg5
L18446743798844343700L
sg6
Nsg23
S'STR'
p61
sg25
S'0xffffffc000c1c594L'
p62
sg27
Nsba(ibclass
BInstr
p63
(dp64
g2
Nsg17
S'STR             XZR, [X1,#0x50]'
p65
sg19
S'3f2800f9'
p66
sg21
Vstr xzr, [x1, #0x50]
p67
sg5
L18446743798844343704L
sg6
Nsg23
S'STR'
p68
sg25
S'0xffffffc000c1c598L'
p69
sg27
Nsba(ibclass
BInstr
p70
(dp71
g2
Nsg17
S'MOV             W0, #0'
p72
sg19
S'00008052'
p73
sg21
Vmovz w0, #0
p74
sg5
L18446743798844343708L
sg6
Nsg23
S'MOV'
p75
sg25
S'0xffffffc000c1c59cL'
p76
sg27
Nsba(ibclass
BInstr
p77
(dp78
g2
Nsg17
S'RET'
p79
sg19
S'c0035fd6'
p80
sg21
Vret 
p81
sg5
L18446743798844343712L
sg6
Nsg23
S'RET'
p82
sg25
S'0xffffffc000c1c5a0L'
p83
sg27
NsbasS'disasm_list'
p84
(lp85
S'MOV reg, #2'
p86
aS'STR reg, mem'
p87
aS'MOV reg, #0x80'
p88
aS'STR reg, mem'
p89
aS'MOV reg, #0xFFFFFFFF'
p90
aS'STR reg, mem'
p91
aS'STR XZR, mem'
p92
aS'MOV reg, #0'
p93
ag79
asS'end_address'
p94
Nsg5
S'0xffffffc000c1c580L'
p95
sS'preds'
p96
(lp97
sg6
NsS'succs'
p98
(lp99
sS'hash_v3'
p100
NsS'flag_v2'
p101
NsS'hash_v1'
p102
S'476e6e64e775dce8102a6df8cd600b2f'
p103
sS'hash_v2'
p104
S'3f824e899b97a4548a2cfc0e8dcbffc5'
p105
sS'mnen_list'
p106
(lp107
g24
ag33
ag40
ag47
ag54
ag61
ag68
ag75
ag82
asS'neighbour_disasm_list'
p108
Nsbasb.