(ibclass
BFunc
p0
(dp1
S'hash'
p2
NsS'name'
p3
S'panel_debug_base_offset_read'
p4
sS'start_address'
p5
L18446743798836598944L
sS'flag'
p6
NsS'program'
p7
NsS'bbs'
p8
(lp9
(ibclass
BBasicBlock
p10
(dp11
S'function'
p12
NsS'binstrs'
p13
(lp14
(ibclass
BInstr
p15
(dp16
g2
NsS'disasm'
p17
S'STP             X29, X30, [SP,#-0x10+var_A0]!'
p18
sS'bytes'
p19
S'fd7bb5a9'
p20
sS'disasm_striped'
p21
Vstp x29, x30, [sp, #-0xb0]!
p22
sg5
L18446743798836598944L
sg6
NsS'mnem'
p23
S'STP'
p24
sS'address'
p25
S'0xffffffc0004b98a0L'
p26
sS'basicblock'
p27
Nsba(ibclass
BInstr
p28
(dp29
g2
Nsg17
S'MOV             X29, SP'
p30
sg19
S'fd030091'
p31
sg21
Vmov x29, sp
p32
sg5
L18446743798836598948L
sg6
Nsg23
S'MOV'
p33
sg25
S'0xffffffc0004b98a4L'
p34
sg27
Nsba(ibclass
BInstr
p35
(dp36
g2
Nsg17
S'STP             X19, X20, [SP,#0xA0+var_90]'
p37
sg19
S'f35301a9'
p38
sg21
Vstp x19, x20, [sp, #0x10]
p39
sg5
L18446743798836598952L
sg6
Nsg23
S'STP'
p40
sg25
S'0xffffffc0004b98a8L'
p41
sg27
Nsba(ibclass
BInstr
p42
(dp43
g2
Nsg17
S'STR             X21, [SP,#0xA0+var_80]'
p44
sg19
S'f51300f9'
p45
sg21
Vstr x21, [sp, #0x20]
p46
sg5
L18446743798836598956L
sg6
Nsg23
S'STR'
p47
sg25
S'0xffffffc0004b98acL'
p48
sg27
Nsba(ibclass
BInstr
p49
(dp50
g2
Nsg17
S'LDR             X20, [X0,#0xA8]'
p51
sg19
S'145440f9'
p52
sg21
Vldr x20, [x0, #0xa8]
p53
sg5
L18446743798836598960L
sg6
Nsg23
S'LDR'
p54
sg25
S'0xffffffc0004b98b0L'
p55
sg27
Nsba(ibclass
BInstr
p56
(dp57
g2
Nsg17
S'MOV             X21, X1'
p58
sg19
S'f50301aa'
p59
sg21
Vmov x21, x1
p60
sg5
L18446743798836598964L
sg6
Nsg23
S'MOV'
p61
sg25
S'0xffffffc0004b98b4L'
p62
sg27
Nsba(ibclass
BInstr
p63
(dp64
g2
Nsg17
S'ADD             X0, X29, #0x30'
p65
sg19
S'a0c30091'
p66
sg21
Vadd x0, x29, #0x30
p67
sg5
L18446743798836598968L
sg6
Nsg23
S'ADD'
p68
sg25
S'0xffffffc0004b98b8L'
p69
sg27
Nsba(ibclass
BInstr
p70
(dp71
g2
Nsg17
S'MOV             W1, #0'
p72
sg19
S'01008052'
p73
sg21
Vmovz w1, #0
p74
sg5
L18446743798836598972L
sg6
Nsg23
S'MOV'
p75
sg25
S'0xffffffc0004b98bcL'
p76
sg27
Nsba(ibclass
BInstr
p77
(dp78
g2
Nsg17
S'MOV             X2, #0x80'
p79
sg19
S'021080d2'
p80
sg21
Vmovz x2, #0x80
p81
sg5
L18446743798836598976L
sg6
Nsg23
S'MOV'
p82
sg25
S'0xffffffc0004b98c0L'
p83
sg27
Nsba(ibclass
BInstr
p84
(dp85
g2
Nsg17
S'MOV             X19, X3'
p86
sg19
S'f30303aa'
p87
sg21
Vmov x19, x3
p88
sg5
L18446743798836598980L
sg6
Nsg23
S'MOV'
p89
sg25
S'0xffffffc0004b98c4L'
p90
sg27
Nsba(ibclass
BInstr
p91
(dp92
g2
Nsg17
S'BL              memset'
p93
sg19
S'4e97fd97'
p94
sg21
Vbl #0xfffffffffff65d38
p95
sg5
L18446743798836598984L
sg6
Nsg23
S'BL'
p96
sg25
S'0xffffffc0004b98c8L'
p97
sg27
Nsba(ibclass
BInstr
p98
(dp99
g2
Nsg17
S'CBZ             X20, loc_FFFFFFC0004B9950'
p100
sg19
S'340400b4'
p101
sg21
Vcbz x20, #0x84
p102
sg5
L18446743798836598988L
sg6
Nsg23
S'CBZ'
p103
sg25
S'0xffffffc0004b98ccL'
p104
sg27
NsbasS'disasm_list'
p105
(lp106
S'STP reg9, reg0, mem!'
p107
aS'MOV reg9, SP'
p108
aS'STP reg9, reg0, mem'
p109
aS'STR reg1, mem'
p110
aS'LDR reg0, mem'
p111
aS'MOV reg1, reg'
p112
aS'ADD reg, reg9, #0x30'
p113
aS'MOV reg, #0'
p114
aS'MOV reg, #0x80'
p115
aS'MOV reg9, reg'
p116
aS'BL memset'
p117
aS'CBZ reg0, func'
p118
asS'end_address'
p119
Nsg5
S'0xffffffc0004b98a0L'
p120
sS'preds'
p121
(lp122
sg6
NsS'succs'
p123
(lp124
S'0xffffffc0004b98d0L'
p125
aS'0xffffffc0004b9950L'
p126
asS'hash_v3'
p127
NsS'flag_v2'
p128
NsS'hash_v1'
p129
S'3d8a2370d638f72a9d03c525d2b056ab'
p130
sS'hash_v2'
p131
S'45fa144651d96080852c6fa89f8071ae'
p132
sS'mnen_list'
p133
(lp134
g24
ag33
ag40
ag47
ag54
ag61
ag68
ag75
ag82
ag89
ag96
ag103
asS'neighbour_disasm_list'
p135
Nsba(ibclass
BBasicBlock
p136
(dp137
g12
Nsg13
(lp138
(ibclass
BInstr
p139
(dp140
g2
Nsg17
S'LDR             X0, [X19]'
p141
sg19
S'600240f9'
p142
sg21
Vldr x0, [x19]
p143
sg5
L18446743798836598992L
sg6
Nsg23
S'LDR'
p144
sg25
S'0xffffffc0004b98d0L'
p145
sg27
Nsba(ibclass
BInstr
p146
(dp147
g2
Nsg17
S'CBZ             X0, loc_FFFFFFC0004B98E0'
p148
sg19
S'600000b4'
p149
sg21
Vcbz x0, #0xc
p150
sg5
L18446743798836598996L
sg6
Nsg23
S'CBZ'
p151
sg25
S'0xffffffc0004b98d4L'
p152
sg27
Nsbasg105
(lp153
S'LDR reg, mem'
p154
aS'CBZ reg, func'
p155
asg119
Nsg5
S'0xffffffc0004b98d0L'
p156
sg121
(lp157
S'0xffffffc0004b98a0L'
p158
asg6
Nsg123
(lp159
S'0xffffffc0004b98d8L'
p160
aS'0xffffffc0004b98e0L'
p161
asg127
Nsg128
Nsg129
S'a0c488049ab653dbdfa1dc805bb83f13'
p162
sg131
S'33abe016da9abbebb8608f035d51762d'
p163
sg133
(lp164
g144
ag151
asg135
Nsba(ibclass
BBasicBlock
p165
(dp166
g12
Nsg13
(lp167
(ibclass
BInstr
p168
(dp169
g2
Nsg17
S'MOV             X0, #0'
p170
sg19
S'000080d2'
p171
sg21
Vmovz x0, #0
p172
sg5
L18446743798836599000L
sg6
Nsg23
S'MOV'
p173
sg25
S'0xffffffc0004b98d8L'
p174
sg27
Nsba(ibclass
BInstr
p175
(dp176
g2
Nsg17
S'B               loc_FFFFFFC0004B995C'
p177
sg19
S'20000014'
p178
sg21
Vb #0x80
p179
sg5
L18446743798836599004L
sg6
Nsg23
S'B'
p180
sg25
S'0xffffffc0004b98dcL'
p181
sg27
Nsbasg105
(lp182
S'MOV reg, #0'
p183
aS'B func'
p184
asg119
Nsg5
S'0xffffffc0004b98d8L'
p185
sg121
(lp186
S'0xffffffc0004b98d0L'
p187
aS'0xffffffc0004b98e0L'
p188
asg6
Nsg123
(lp189
S'0xffffffc0004b995cL'
p190
asg127
Nsg128
Nsg129
S'b6c4e95ccfe77a95e4cf2019dd3d5574'
p191
sg131
S'487d2131c9e9084b6289188d6ce03ca3'
p192
sg133
(lp193
g173
ag180
asg135
Nsba(ibclass
BBasicBlock
p194
(dp195
g12
Nsg13
(lp196
(ibclass
BInstr
p197
(dp198
g2
Nsg17
S'ADRP            X2, #a0x02zxZx@PAGE; "0x%02zx %zx\\n"'
p199
sg19
S'827300b0'
p200
sg21
Vadrp x2, #0xe71000
p201
sg5
L18446743798836599008L
sg6
Nsg23
S'ADRP'
p202
sg25
S'0xffffffc0004b98e0L'
p203
sg27
Nsba(ibclass
BInstr
p204
(dp205
g2
Nsg17
S'LDR             X3, [X20,#0x80]'
p206
sg19
S'834240f9'
p207
sg21
Vldr x3, [x20, #0x80]
p208
sg5
L18446743798836599012L
sg6
Nsg23
S'LDR'
p209
sg25
S'0xffffffc0004b98e4L'
p210
sg27
Nsba(ibclass
BInstr
p211
(dp212
g2
Nsg17
S'LDR             X4, [X20,#0x88]'
p213
sg19
S'844640f9'
p214
sg21
Vldr x4, [x20, #0x88]
p215
sg5
L18446743798836599016L
sg6
Nsg23
S'LDR'
p216
sg25
S'0xffffffc0004b98e8L'
p217
sg27
Nsba(ibclass
BInstr
p218
(dp219
g2
Nsg17
S'MOV             X1, #0x80'
p220
sg19
S'011080d2'
p221
sg21
Vmovz x1, #0x80
p222
sg5
L18446743798836599020L
sg6
Nsg23
S'MOV'
p223
sg25
S'0xffffffc0004b98ecL'
p224
sg27
Nsba(ibclass
BInstr
p225
(dp226
g2
Nsg17
S'ADD             X0, X29, #0x30'
p227
sg19
S'a0c30091'
p228
sg21
Vadd x0, x29, #0x30
p229
sg5
L18446743798836599024L
sg6
Nsg23
S'ADD'
p230
sg25
S'0xffffffc0004b98f0L'
p231
sg27
Nsba(ibclass
BInstr
p232
(dp233
g2
Nsg17
S'ADD             X2, X2, #a0x02zxZx@PAGEOFF; "0x%02zx %zx\\n"'
p234
sg19
S'42342f91'
p235
sg21
Vadd x2, x2, #0xbcd
p236
sg5
L18446743798836599028L
sg6
Nsg23
S'ADD'
p237
sg25
S'0xffffffc0004b98f4L'
p238
sg27
Nsba(ibclass
BInstr
p239
(dp240
g2
Nsg17
S'BL              snprintf'
p241
sg19
S'bec2fd97'
p242
sg21
Vbl #0xfffffffffff70af8
p243
sg5
L18446743798836599032L
sg6
Nsg23
S'BL'
p244
sg25
S'0xffffffc0004b98f8L'
p245
sg27
Nsba(ibclass
BInstr
p246
(dp247
g2
Nsg17
S'TBNZ            W0, #0x1F, loc_FFFFFFC0004B98D8'
p248
sg19
S'e0feff37'
p249
sg21
Vtbnz w0, #0x1f, #0xffffffffffffffdc
p250
sg5
L18446743798836599036L
sg6
Nsg23
S'TBNZ'
p251
sg25
S'0xffffffc0004b98fcL'
p252
sg27
Nsbasg105
(lp253
S'ADRP reg, #a0x02zxZx@PAGE'
p254
aS'LDR reg, mem'
p255
aS'LDR reg, mem'
p256
aS'MOV reg, #0x80'
p257
aS'ADD reg, reg9, #0x30'
p258
aS'ADD reg, reg, #a0x02zxZx@PAGEOFF'
p259
aS'BL snprintf'
p260
aS'TBNZ reg, #0x1F, func'
p261
asg119
Nsg5
S'0xffffffc0004b98e0L'
p262
sg121
(lp263
S'0xffffffc0004b98d0L'
p264
asg6
Nsg123
(lp265
S'0xffffffc0004b98d8L'
p266
aS'0xffffffc0004b9900L'
p267
asg127
Nsg128
Nsg129
S'b9a272a2322c9070f537110442f34c96'
p268
sg131
S'4d0ee66dfb9e291a7cd727cc94126361'
p269
sg133
(lp270
g202
ag209
ag216
ag223
ag230
ag237
ag244
ag251
asg135
Nsba(ibclass
BBasicBlock
p271
(dp272
g12
Nsg13
(lp273
(ibclass
BInstr
p274
(dp275
g2
Nsg17
S'MOV             X1, SP'
p276
sg19
S'e1030091'
p277
sg21
Vmov x1, sp
p278
sg5
L18446743798836599040L
sg6
Nsg23
S'MOV'
p279
sg25
S'0xffffffc0004b9900L'
p280
sg27
Nsba(ibclass
BInstr
p281
(dp282
g2
Nsg17
S'SBFM            X2, X0, #0, #0x1F'
p283
sg19
S'027c4093'
p284
sg21
Vsxtw x2, w0
p285
sg5
L18446743798836599044L
sg6
Nsg23
S'SBFM'
p286
sg25
S'0xffffffc0004b9904L'
p287
sg27
Nsba(ibclass
BInstr
p288
(dp289
g2
Nsg17
S'AND             X0, X1, #0xFFFFFFFFFFFFC000'
p290
sg19
S'20c47292'
p291
sg21
Vand x0, x1, #0xffffffffffffc000
p292
sg5
L18446743798836599048L
sg6
Nsg23
S'AND'
p293
sg25
S'0xffffffc0004b9908L'
p294
sg27
Nsba(ibclass
BInstr
p295
(dp296
g2
Nsg17
S'LDR             X0, [X0,#8]'
p297
sg19
S'000440f9'
p298
sg21
Vldr x0, [x0, #8]
p299
sg5
L18446743798836599052L
sg6
Nsg23
S'LDR'
p300
sg25
S'0xffffffc0004b990cL'
p301
sg27
Nsba(ibclass
BInstr
p302
(dp303
g2
Nsg17
S'MOV             X3, X21'
p304
sg19
S'e30315aa'
p305
sg21
Vmov x3, x21
p306
sg5
L18446743798836599056L
sg6
Nsg23
S'MOV'
p307
sg25
S'0xffffffc0004b9910L'
p308
sg27
Nsba(ibclass
BInstr
p309
(dp310
g2
Nsg17
S'MOV             X20, X2'
p311
sg19
S'f40302aa'
p312
sg21
Vmov x20, x2
p313
sg5
L18446743798836599060L
sg6
Nsg23
S'MOV'
p314
sg25
S'0xffffffc0004b9914L'
p315
sg27
Nsba(ibclass
BInstr
p316
(dp317
g2
Nsg17
S'ADDS            X3, X3, X2'
p318
sg19
S'630002ab'
p319
sg21
Vadds x3, x3, x2
p320
sg5
L18446743798836599064L
sg6
Nsg23
S'ADD'
p321
sg25
S'0xffffffc0004b9918L'
p322
sg27
Nsba(ibclass
BInstr
p323
(dp324
g2
Nsg17
S'CCMP            X3, X0, #2, CC'
p325
sg19
S'623040fa'
p326
sg21
Vccmp x3, x0, #2, lo
p327
sg5
L18446743798836599068L
sg6
Nsg23
S'CCMP'
p328
sg25
S'0xffffffc0004b991cL'
p329
sg27
Nsba(ibclass
BInstr
p330
(dp331
g2
Nsg17
S'CSET            X1, LS'
p332
sg19
S'e1879f9a'
p333
sg21
Vcset x1, ls
p334
sg5
L18446743798836599072L
sg6
Nsg23
S'CSET'
p335
sg25
S'0xffffffc0004b9920L'
p336
sg27
Nsba(ibclass
BInstr
p337
(dp338
g2
Nsg17
S'CBZ             X1, loc_FFFFFFC0004B9938'
p339
sg19
S'a10000b4'
p340
sg21
Vcbz x1, #0x14
p341
sg5
L18446743798836599076L
sg6
Nsg23
S'CBZ'
p342
sg25
S'0xffffffc0004b9924L'
p343
sg27
Nsbasg105
(lp344
S'MOV reg, SP'
p345
aS'SBFM reg, reg, #0, #0x1F'
p346
aS'AND reg, reg, #0xFFFFFFFFFFFFC000'
p347
aS'LDR reg, mem'
p348
aS'MOV reg, reg1'
p349
aS'MOV reg0, reg'
p350
aS'ADDS reg, reg, reg'
p351
aS'CCMP reg, reg, #2, CC'
p352
aS'CSET reg, LS'
p353
aS'CBZ reg, func'
p354
asg119
Nsg5
S'0xffffffc0004b9900L'
p355
sg121
(lp356
S'0xffffffc0004b98e0L'
p357
asg6
Nsg123
(lp358
S'0xffffffc0004b9928L'
p359
aS'0xffffffc0004b9938L'
p360
asg127
Nsg128
Nsg129
S'73a899044300e1eb90c5a6ade74cde9f'
p361
sg131
S'f23a2df1e769becbaaa5b09557c62215'
p362
sg133
(lp363
g279
ag286
ag293
ag300
ag307
ag314
ag321
ag328
ag335
ag342
asg135
Nsba(ibclass
BBasicBlock
p364
(dp365
g12
Nsg13
(lp366
(ibclass
BInstr
p367
(dp368
g2
Nsg17
S'MOV             X0, X21'
p369
sg19
S'e00315aa'
p370
sg21
Vmov x0, x21
p371
sg5
L18446743798836599080L
sg6
Nsg23
S'MOV'
p372
sg25
S'0xffffffc0004b9928L'
p373
sg27
Nsba(ibclass
BInstr
p374
(dp375
g2
Nsg17
S'ADD             X1, X29, #0x30'
p376
sg19
S'a1c30091'
p377
sg21
Vadd x1, x29, #0x30
p378
sg5
L18446743798836599084L
sg6
Nsg23
S'ADD'
p379
sg25
S'0xffffffc0004b992cL'
p380
sg27
Nsba(ibclass
BInstr
p381
(dp382
g2
Nsg17
S'BL              __copy_to_user'
p383
sg19
S'a095fd97'
p384
sg21
Vbl #0xfffffffffff65680
p385
sg5
L18446743798836599088L
sg6
Nsg23
S'BL'
p386
sg25
S'0xffffffc0004b9930L'
p387
sg27
Nsba(ibclass
BInstr
p388
(dp389
g2
Nsg17
S'MOV             X2, X0'
p390
sg19
S'e20300aa'
p391
sg21
Vmov x2, x0
p392
sg5
L18446743798836599092L
sg6
Nsg23
S'MOV'
p393
sg25
S'0xffffffc0004b9934L'
p394
sg27
Nsbasg105
(lp395
S'MOV reg, reg1'
p396
aS'ADD reg, reg9, #0x30'
p397
aS'BL __copy_to_user'
p398
aS'MOV reg, reg'
p399
asg119
Nsg5
S'0xffffffc0004b9928L'
p400
sg121
(lp401
S'0xffffffc0004b9900L'
p402
asg6
Nsg123
(lp403
S'0xffffffc0004b9938L'
p404
asg127
Nsg128
Nsg129
S'2e15ede4c99aeb14d0e9aa2dc7d74315'
p405
sg131
S'd42f49b6ee0c6ba09df0258c9f5417be'
p406
sg133
(lp407
g372
ag379
ag386
ag393
asg135
Nsba(ibclass
BBasicBlock
p408
(dp409
g12
Nsg13
(lp410
(ibclass
BInstr
p411
(dp412
g2
Nsg17
S'CBNZ            X2, loc_FFFFFFC0004B9958'
p413
sg19
S'020100b5'
p414
sg21
Vcbnz x2, #0x20
p415
sg5
L18446743798836599096L
sg6
Nsg23
S'CBNZ'
p416
sg25
S'0xffffffc0004b9938L'
p417
sg27
Nsbasg105
(lp418
S'CBNZ reg, func'
p419
asg119
Nsg5
S'0xffffffc0004b9938L'
p420
sg121
(lp421
S'0xffffffc0004b9900L'
p422
aS'0xffffffc0004b9928L'
p423
asg6
Nsg123
(lp424
S'0xffffffc0004b993cL'
p425
aS'0xffffffc0004b9958L'
p426
asg127
Nsg128
Nsg129
S'482b7d814ad85789cad59d80ecb8562a'
p427
sg131
S'c81d544e8093e123ef790602aa39a0d0'
p428
sg133
(lp429
g416
asg135
Nsba(ibclass
BBasicBlock
p430
(dp431
g12
Nsg13
(lp432
(ibclass
BInstr
p433
(dp434
g2
Nsg17
S'LDR             X0, [X19]'
p435
sg19
S'600240f9'
p436
sg21
Vldr x0, [x19]
p437
sg5
L18446743798836599100L
sg6
Nsg23
S'LDR'
p438
sg25
S'0xffffffc0004b993cL'
p439
sg27
Nsba(ibclass
BInstr
p440
(dp441
g2
Nsg17
S'ADD             X0, X0, X20'
p442
sg19
S'0000148b'
p443
sg21
Vadd x0, x0, x20
p444
sg5
L18446743798836599104L
sg6
Nsg23
S'ADD'
p445
sg25
S'0xffffffc0004b9940L'
p446
sg27
Nsba(ibclass
BInstr
p447
(dp448
g2
Nsg17
S'STR             X0, [X19]'
p449
sg19
S'600200f9'
p450
sg21
Vstr x0, [x19]
p451
sg5
L18446743798836599108L
sg6
Nsg23
S'STR'
p452
sg25
S'0xffffffc0004b9944L'
p453
sg27
Nsba(ibclass
BInstr
p454
(dp455
g2
Nsg17
S'MOV             X0, X20'
p456
sg19
S'e00314aa'
p457
sg21
Vmov x0, x20
p458
sg5
L18446743798836599112L
sg6
Nsg23
S'MOV'
p459
sg25
S'0xffffffc0004b9948L'
p460
sg27
Nsba(ibclass
BInstr
p461
(dp462
g2
Nsg17
S'B               loc_FFFFFFC0004B995C'
p463
sg19
S'04000014'
p464
sg21
Vb #0x10
p465
sg5
L18446743798836599116L
sg6
Nsg23
g180
sg25
S'0xffffffc0004b994cL'
p466
sg27
Nsbasg105
(lp467
S'LDR reg, mem'
p468
aS'ADD reg, reg, reg0'
p469
aS'STR reg, mem'
p470
aS'MOV reg, reg0'
p471
aS'B func'
p472
asg119
Nsg5
S'0xffffffc0004b993cL'
p473
sg121
(lp474
S'0xffffffc0004b9938L'
p475
asg6
Nsg123
(lp476
S'0xffffffc0004b995cL'
p477
asg127
Nsg128
Nsg129
S'aadcc43cdc2a99d1a6ca4a03b08606d5'
p478
sg131
S'3d341d9960dfc148916d7076f69c2ad2'
p479
sg133
(lp480
g438
ag445
ag452
ag459
ag180
asg135
Nsba(ibclass
BBasicBlock
p481
(dp482
g12
Nsg13
(lp483
(ibclass
BInstr
p484
(dp485
g2
Nsg17
S'MOV             X0, #0xFFFFFFFFFFFFFFED'
p486
sg19
S'40028092'
p487
sg21
Vmovn x0, #0x12
p488
sg5
L18446743798836599120L
sg6
Nsg23
S'MOV'
p489
sg25
S'0xffffffc0004b9950L'
p490
sg27
Nsba(ibclass
BInstr
p491
(dp492
g2
Nsg17
S'B               loc_FFFFFFC0004B995C'
p493
sg19
S'02000014'
p494
sg21
Vb #8
p495
sg5
L18446743798836599124L
sg6
Nsg23
g180
sg25
S'0xffffffc0004b9954L'
p496
sg27
Nsbasg105
(lp497
S'MOV reg, #0xFFFFFFFFFFFFFFED'
p498
aS'B func'
p499
asg119
Nsg5
S'0xffffffc0004b9950L'
p500
sg121
(lp501
S'0xffffffc0004b98a0L'
p502
asg6
Nsg123
(lp503
S'0xffffffc0004b995cL'
p504
asg127
Nsg128
Nsg129
S'b6c4e95ccfe77a95e4cf2019dd3d5574'
p505
sg131
S'd6037bdf3642280edfe95bdc7a27c760'
p506
sg133
(lp507
g489
ag180
asg135
Nsba(ibclass
BBasicBlock
p508
(dp509
g12
Nsg13
(lp510
(ibclass
BInstr
p511
(dp512
g2
Nsg17
S'MOV             X0, #0xFFFFFFFFFFFFFFF2'
p513
sg19
S'a0018092'
p514
sg21
Vmovn x0, #0xd
p515
sg5
L18446743798836599128L
sg6
Nsg23
S'MOV'
p516
sg25
S'0xffffffc0004b9958L'
p517
sg27
Nsbasg105
(lp518
S'MOV reg, #0xFFFFFFFFFFFFFFF2'
p519
asg119
Nsg5
S'0xffffffc0004b9958L'
p520
sg121
(lp521
S'0xffffffc0004b9938L'
p522
asg6
Nsg123
(lp523
S'0xffffffc0004b995cL'
p524
asg127
Nsg128
Nsg129
S'17b32100aef1fc19670be7fd58bc85df'
p525
sg131
S'266ad5fec82b4871331d29c3125ce490'
p526
sg133
(lp527
g516
asg135
Nsba(ibclass
BBasicBlock
p528
(dp529
g12
Nsg13
(lp530
(ibclass
BInstr
p531
(dp532
g2
Nsg17
S'LDP             X19, X20, [SP,#0xA0+var_90]'
p533
sg19
S'f35341a9'
p534
sg21
Vldp x19, x20, [sp, #0x10]
p535
sg5
L18446743798836599132L
sg6
Nsg23
S'LDP'
p536
sg25
S'0xffffffc0004b995cL'
p537
sg27
Nsba(ibclass
BInstr
p538
(dp539
g2
Nsg17
S'LDR             X21, [SP,#0xA0+var_80]'
p540
sg19
S'f51340f9'
p541
sg21
Vldr x21, [sp, #0x20]
p542
sg5
L18446743798836599136L
sg6
Nsg23
S'LDR'
p543
sg25
S'0xffffffc0004b9960L'
p544
sg27
Nsba(ibclass
BInstr
p545
(dp546
g2
Nsg17
S'LDP             X29, X30, [SP+0xA0+var_A0],#0xB0'
p547
sg19
S'fd7bcba8'
p548
sg21
Vldp x29, x30, [sp], #0xb0
p549
sg5
L18446743798836599140L
sg6
Nsg23
S'LDP'
p550
sg25
S'0xffffffc0004b9964L'
p551
sg27
Nsba(ibclass
BInstr
p552
(dp553
g2
Nsg17
S'RET'
p554
sg19
S'c0035fd6'
p555
sg21
Vret 
p556
sg5
L18446743798836599144L
sg6
Nsg23
S'RET'
p557
sg25
S'0xffffffc0004b9968L'
p558
sg27
Nsbasg105
(lp559
S'LDP reg9, reg0, mem'
p560
aS'LDR reg1, mem'
p561
aS'LDP reg9, reg0, mem,#0xB0'
p562
ag554
asg119
Nsg5
S'0xffffffc0004b995cL'
p563
sg121
(lp564
S'0xffffffc0004b98d8L'
p565
aS'0xffffffc0004b993cL'
p566
aS'0xffffffc0004b9950L'
p567
aS'0xffffffc0004b9958L'
p568
asg6
Nsg123
(lp569
sg127
Nsg128
Nsg129
S'b128167488f61fa9efc4b75f88cc16c9'
p570
sg131
S'b24b0cd0e5b2763d9283684aa9c95f6c'
p571
sg133
(lp572
g536
ag543
ag550
ag557
asg135
Nsbasb.