(ibclass
BFunc
p0
(dp1
S'hash'
p2
NsS'name'
p3
S'qseecom_load_external_elf'
p4
sS'start_address'
p5
L18446743798837736532L
sS'flag'
p6
NsS'program'
p7
NsS'bbs'
p8
(lp9
(ibclass
BBasicBlock
p10
(dp11
S'function'
p12
NsS'binstrs'
p13
(lp14
(ibclass
BInstr
p15
(dp16
g2
NsS'disasm'
p17
S'STP             X29, X30, [SP,#-0x10+var_110]!'
p18
sS'bytes'
p19
S'fd7baea9'
p20
sS'disasm_striped'
p21
Vstp x29, x30, [sp, #-0x120]!
p22
sg5
L18446743798837736532L
sg6
NsS'mnem'
p23
S'STP'
p24
sS'address'
p25
S'0xffffffc0005cf454L'
p26
sS'basicblock'
p27
Nsba(ibclass
BInstr
p28
(dp29
g2
Nsg17
S'MOV             X29, SP'
p30
sg19
S'fd030091'
p31
sg21
Vmov x29, sp
p32
sg5
L18446743798837736536L
sg6
Nsg23
S'MOV'
p33
sg25
S'0xffffffc0005cf458L'
p34
sg27
Nsba(ibclass
BInstr
p35
(dp36
g2
Nsg17
S'STP             X21, X22, [SP,#0x110+var_F0]'
p37
sg19
S'f55b02a9'
p38
sg21
Vstp x21, x22, [sp, #0x20]
p39
sg5
L18446743798837736540L
sg6
Nsg23
S'STP'
p40
sg25
S'0xffffffc0005cf45cL'
p41
sg27
Nsba(ibclass
BInstr
p42
(dp43
g2
Nsg17
S'ADD             X22, X29, #0xA0'
p44
sg19
S'b6830291'
p45
sg21
Vadd x22, x29, #0xa0
p46
sg5
L18446743798837736544L
sg6
Nsg23
S'ADD'
p47
sg25
S'0xffffffc0005cf460L'
p48
sg27
Nsba(ibclass
BInstr
p49
(dp50
g2
Nsg17
S'MOV             X21, X0'
p51
sg19
S'f50300aa'
p52
sg21
Vmov x21, x0
p53
sg5
L18446743798837736548L
sg6
Nsg23
S'MOV'
p54
sg25
S'0xffffffc0005cf464L'
p55
sg27
Nsba(ibclass
BInstr
p56
(dp57
g2
Nsg17
S'MOV             X2, #0x50'
p58
sg19
S'020a80d2'
p59
sg21
Vmovz x2, #0x50
p60
sg5
L18446743798837736552L
sg6
Nsg23
S'MOV'
p61
sg25
S'0xffffffc0005cf468L'
p62
sg27
Nsba(ibclass
BInstr
p63
(dp64
g2
Nsg17
S'MOV             X0, X22'
p65
sg19
S'e00316aa'
p66
sg21
Vmov x0, x22
p67
sg5
L18446743798837736556L
sg6
Nsg23
S'MOV'
p68
sg25
S'0xffffffc0005cf46cL'
p69
sg27
Nsba(ibclass
BInstr
p70
(dp71
g2
Nsg17
S'STP             X19, X20, [SP,#0x110+var_100]'
p72
sg19
S'f35301a9'
p73
sg21
Vstp x19, x20, [sp, #0x10]
p74
sg5
L18446743798837736560L
sg6
Nsg23
S'STP'
p75
sg25
S'0xffffffc0005cf470L'
p76
sg27
Nsba(ibclass
BInstr
p77
(dp78
g2
Nsg17
S'STP             X23, X24, [SP,#0x110+var_E0]'
p79
sg19
S'f76303a9'
p80
sg21
Vstp x23, x24, [sp, #0x30]
p81
sg5
L18446743798837736564L
sg6
Nsg23
S'STP'
p82
sg25
S'0xffffffc0005cf474L'
p83
sg27
Nsba(ibclass
BInstr
p84
(dp85
g2
Nsg17
S'STP             X25, X26, [SP,#0x110+var_D0]'
p86
sg19
S'f96b04a9'
p87
sg21
Vstp x25, x26, [sp, #0x40]
p88
sg5
L18446743798837736568L
sg6
Nsg23
S'STP'
p89
sg25
S'0xffffffc0005cf478L'
p90
sg27
Nsba(ibclass
BInstr
p91
(dp92
g2
Nsg17
S'STR             XZR, [X29,#0x110+var_s0]'
p93
sg19
S'bf8b00f9'
p94
sg21
Vstr xzr, [x29, #0x110]
p95
sg5
L18446743798837736572L
sg6
Nsg23
S'STR'
p96
sg25
S'0xffffffc0005cf47cL'
p97
sg27
Nsba(ibclass
BInstr
p98
(dp99
g2
Nsg17
S'BL              __copy_from_user'
p100
sg19
S'8c3ef997'
p101
sg21
Vbl #0xffffffffffe4fa30
p102
sg5
L18446743798837736576L
sg6
Nsg23
S'BL'
p103
sg25
S'0xffffffc0005cf480L'
p104
sg27
Nsba(ibclass
BInstr
p105
(dp106
g2
Nsg17
S'CBZ             X0, loc_FFFFFFC0005CF4A8'
p107
sg19
S'200100b4'
p108
sg21
Vcbz x0, #0x24
p109
sg5
L18446743798837736580L
sg6
Nsg23
S'CBZ'
p110
sg25
S'0xffffffc0005cf484L'
p111
sg27
NsbasS'disasm_list'
p112
(lp113
S'STP reg9, reg0, mem!'
p114
aS'MOV reg9, SP'
p115
aS'STP reg1, reg2, mem'
p116
aS'ADD reg2, reg9, #0xA0'
p117
aS'MOV reg1, reg'
p118
aS'MOV reg, #0x50'
p119
aS'MOV reg, reg2'
p120
aS'STP reg9, reg0, mem'
p121
aS'STP reg3, reg4, mem'
p122
aS'STP reg5, reg6, mem'
p123
aS'STR XZR, mem'
p124
aS'BL __copy_from_user'
p125
aS'CBZ reg, func'
p126
asS'end_address'
p127
Nsg5
S'0xffffffc0005cf454L'
p128
sS'preds'
p129
(lp130
sg6
NsS'succs'
p131
(lp132
S'0xffffffc0005cf488L'
p133
aS'0xffffffc0005cf4a8L'
p134
asS'hash_v3'
p135
NsS'flag_v2'
p136
NsS'hash_v1'
p137
S'3efe650057bcfc2013e30fd304578c0b'
p138
sS'hash_v2'
p139
S'fcfd79879b11e1f67a1984e27516811a'
p140
sS'mnen_list'
p141
(lp142
g24
ag33
ag40
ag47
ag54
ag61
ag68
ag75
ag82
ag89
ag96
ag103
ag110
asS'neighbour_disasm_list'
p143
Nsba(ibclass
BBasicBlock
p144
(dp145
g12
Nsg13
(lp146
(ibclass
BInstr
p147
(dp148
g2
Nsg17
S'ADRP            X1, #__func__.24859@PAGE; "qseecom_unregister_listener"'
p149
sg19
S'015300f0'
p150
sg21
Vadrp x1, #0xa63000
p151
sg5
L18446743798837736584L
sg6
Nsg23
S'ADRP'
p152
sg25
S'0xffffffc0005cf488L'
p153
sg27
Nsba(ibclass
BInstr
p154
(dp155
g2
Nsg17
S'ADRP            X0, #unk_FFFFFFC00135DED9@PAGE'
p156
sg19
S'606c00d0'
p157
sg21
Vadrp x0, #0xd8e000
p158
sg5
L18446743798837736588L
sg6
Nsg23
S'ADRP'
p159
sg25
S'0xffffffc0005cf48cL'
p160
sg27
Nsba(ibclass
BInstr
p161
(dp162
g2
Nsg17
S'ADD             X1, X1, #__func__.24859@PAGEOFF; "qseecom_unregister_listener"'
p163
sg19
S'21000b91'
p164
sg21
Vadd x1, x1, #0x2c0
p165
sg5
L18446743798837736592L
sg6
Nsg23
S'ADD'
p166
sg25
S'0xffffffc0005cf490L'
p167
sg27
Nsba(ibclass
BInstr
p168
(dp169
g2
Nsg17
S'ADD             X0, X0, #unk_FFFFFFC00135DED9@PAGEOFF'
p170
sg19
S'00643b91'
p171
sg21
Vadd x0, x0, #0xed9
p172
sg5
L18446743798837736596L
sg6
Nsg23
S'ADD'
p173
sg25
S'0xffffffc0005cf494L'
p174
sg27
Nsba(ibclass
BInstr
p175
(dp176
g2
Nsg17
S'ADD             X1, X1, #0x450'
p177
sg19
S'21401191'
p178
sg21
Vadd x1, x1, #0x450
p179
sg5
L18446743798837736600L
sg6
Nsg23
S'ADD'
p180
sg25
S'0xffffffc0005cf498L'
p181
sg27
Nsba(ibclass
BInstr
p182
(dp183
g2
Nsg17
S'BL              printk'
p184
sg19
S'36772194'
p185
sg21
Vbl #0x85dcd8
p186
sg5
L18446743798837736604L
sg6
Nsg23
S'BL'
p187
sg25
S'0xffffffc0005cf49cL'
p188
sg27
Nsba(ibclass
BInstr
p189
(dp190
g2
Nsg17
S'MOV             W0, #0xFFFFFFF2'
p191
sg19
S'a0018012'
p192
sg21
Vmovn w0, #0xd
p193
sg5
L18446743798837736608L
sg6
Nsg23
S'MOV'
p194
sg25
S'0xffffffc0005cf4a0L'
p195
sg27
Nsba(ibclass
BInstr
p196
(dp197
g2
Nsg17
S'B               loc_FFFFFFC0005CF750'
p198
sg19
S'ab000014'
p199
sg21
Vb #0x2ac
p200
sg5
L18446743798837736612L
sg6
Nsg23
S'B'
p201
sg25
S'0xffffffc0005cf4a4L'
p202
sg27
Nsbasg112
(lp203
S'ADRP reg, #__func__.24859@PAGE'
p204
aS'ADRP reg, #func@PAGE'
p205
aS'ADD reg, reg, #__func__.24859@PAGEOFF'
p206
aS'ADD reg, reg, #func@PAGEOFF'
p207
aS'ADD reg, reg, #0x450'
p208
aS'BL printk'
p209
aS'MOV reg, #0xFFFFFFF2'
p210
aS'B func'
p211
asg127
Nsg5
S'0xffffffc0005cf488L'
p212
sg129
(lp213
S'0xffffffc0005cf454L'
p214
asg6
Nsg131
(lp215
S'0xffffffc0005cf750L'
p216
asg135
Nsg136
Nsg137
S'f6b4a164d3a83cb5addeace3d1f2fa3b'
p217
sg139
S'71db8fa87e598c102142021852e92e13'
p218
sg141
(lp219
g152
ag159
ag166
ag173
ag180
ag187
ag194
ag201
asg143
Nsba(ibclass
BBasicBlock
p220
(dp221
g12
Nsg13
(lp222
(ibclass
BInstr
p223
(dp224
g2
Nsg17
S'ADRP            X23, #qseecom@PAGE'
p225
sg19
S'd7b900b0'
p226
sg21
Vadrp x23, #0x1739000
p227
sg5
L18446743798837736616L
sg6
Nsg23
S'ADRP'
p228
sg25
S'0xffffffc0005cf4a8L'
p229
sg27
Nsba(ibclass
BInstr
p230
(dp231
g2
Nsg17
S'ADD             X24, X23, #qseecom@PAGEOFF'
p232
sg19
S'f8823e91'
p233
sg21
Vadd x24, x23, #0xfa0
p234
sg5
L18446743798837736620L
sg6
Nsg23
S'ADD'
p235
sg25
S'0xffffffc0005cf4acL'
p236
sg27
Nsba(ibclass
BInstr
p237
(dp238
g2
Nsg17
S'LDR             X0, [X24]'
p239
sg19
S'000340f9'
p240
sg21
Vldr x0, [x24]
p241
sg5
L18446743798837736624L
sg6
Nsg23
S'LDR'
p242
sg25
S'0xffffffc0005cf4b0L'
p243
sg27
Nsba(ibclass
BInstr
p244
(dp245
g2
Nsg17
S'LDR             W1, [X22,#8]'
p246
sg19
S'c10a40b9'
p247
sg21
Vldr w1, [x22, #8]
p248
sg5
L18446743798837736628L
sg6
Nsg23
S'LDR'
p249
sg25
S'0xffffffc0005cf4b4L'
p250
sg27
Nsba(ibclass
BInstr
p251
(dp252
g2
Nsg17
S'BL              ion_import_dma_buf'
p253
sg19
S'ffbc0c94'
p254
sg21
Vbl #0x32f3fc
p255
sg5
L18446743798837736632L
sg6
Nsg23
S'BL'
p256
sg25
S'0xffffffc0005cf4b8L'
p257
sg27
Nsba(ibclass
BInstr
p258
(dp259
g2
Nsg17
S'MOV             X20, X0'
p260
sg19
S'f40300aa'
p261
sg21
Vmov x20, x0
p262
sg5
L18446743798837736636L
sg6
Nsg23
S'MOV'
p263
sg25
S'0xffffffc0005cf4bcL'
p264
sg27
Nsba(ibclass
BInstr
p265
(dp266
g2
Nsg17
S'CBZ             X0, loc_FFFFFFC0005CF4CC'
p267
sg19
S'600000b4'
p268
sg21
Vcbz x0, #0xc
p269
sg5
L18446743798837736640L
sg6
Nsg23
S'CBZ'
p270
sg25
S'0xffffffc0005cf4c0L'
p271
sg27
Nsbasg112
(lp272
S'ADRP reg3, #qseecom@PAGE'
p273
aS'ADD reg4, reg3, #qseecom@PAGEOFF'
p274
aS'LDR reg, mem'
p275
aS'LDR reg, mem'
p276
aS'BL ion_import_dma_buf'
p277
aS'MOV reg0, reg'
p278
aS'CBZ reg, func'
p279
asg127
Nsg5
S'0xffffffc0005cf4a8L'
p280
sg129
(lp281
S'0xffffffc0005cf454L'
p282
asg6
Nsg131
(lp283
S'0xffffffc0005cf4c4L'
p284
aS'0xffffffc0005cf4ccL'
p285
asg135
Nsg136
Nsg137
S'd9d53053042c42e3e34de74095942a37'
p286
sg139
S'eb1ae5e6e9c50240c50b9a811beaad40'
p287
sg141
(lp288
g228
ag235
ag242
ag249
ag256
ag263
ag270
asg143
Nsba(ibclass
BBasicBlock
p289
(dp290
g12
Nsg13
(lp291
(ibclass
BInstr
p292
(dp293
g2
Nsg17
S'CMN             X0, #1,LSL#12'
p294
sg19
S'1f0440b1'
p295
sg21
Vcmn x0, #1, lsl #12
p296
sg5
L18446743798837736644L
sg6
Nsg23
S'CMN'
p297
sg25
S'0xffffffc0005cf4c4L'
p298
sg27
Nsba(ibclass
BInstr
p299
(dp300
g2
Nsg17
S'B.LS            loc_FFFFFFC0005CF4EC'
p301
sg19
S'29010054'
p302
sg21
Vb.ls #0x24
p303
sg5
L18446743798837736648L
sg6
Nsg23
g201
sg25
S'0xffffffc0005cf4c8L'
p304
sg27
Nsbasg112
(lp305
S'CMN reg, #1,LSL#12'
p306
aS'B.LS func'
p307
asg127
Nsg5
S'0xffffffc0005cf4c4L'
p308
sg129
(lp309
S'0xffffffc0005cf4a8L'
p310
asg6
Nsg131
(lp311
S'0xffffffc0005cf4ccL'
p312
aS'0xffffffc0005cf4ecL'
p313
asg135
Nsg136
Nsg137
S'0efc94ace390d98fde13a1d606963ba2'
p314
sg139
S'b6706367a8783bd3fc3796c21eb35e6a'
p315
sg141
(lp316
g297
ag201
asg143
Nsba(ibclass
BBasicBlock
p317
(dp318
g12
Nsg13
(lp319
(ibclass
BInstr
p320
(dp321
g2
Nsg17
S'ADRP            X1, #__func__.24859@PAGE; "qseecom_unregister_listener"'
p322
sg19
S'015300f0'
p323
sg21
Vadrp x1, #0xa63000
p324
sg5
L18446743798837736652L
sg6
Nsg23
S'ADRP'
p325
sg25
S'0xffffffc0005cf4ccL'
p326
sg27
Nsba(ibclass
BInstr
p327
(dp328
g2
Nsg17
S'ADRP            X0, #unk_FFFFFFC00135EDF7@PAGE'
p329
sg19
S'606c00f0'
p330
sg21
Vadrp x0, #0xd8f000
p331
sg5
L18446743798837736656L
sg6
Nsg23
S'ADRP'
p332
sg25
S'0xffffffc0005cf4d0L'
p333
sg27
Nsba(ibclass
BInstr
p334
(dp335
g2
Nsg17
S'ADD             X1, X1, #__func__.24859@PAGEOFF; "qseecom_unregister_listener"'
p336
sg19
S'21000b91'
p337
sg21
Vadd x1, x1, #0x2c0
p338
sg5
L18446743798837736660L
sg6
Nsg23
S'ADD'
p339
sg25
S'0xffffffc0005cf4d4L'
p340
sg27
Nsba(ibclass
BInstr
p341
(dp342
g2
Nsg17
S'ADD             X0, X0, #unk_FFFFFFC00135EDF7@PAGEOFF'
p343
sg19
S'00dc3791'
p344
sg21
Vadd x0, x0, #0xdf7
p345
sg5
L18446743798837736664L
sg6
Nsg23
S'ADD'
p346
sg25
S'0xffffffc0005cf4d8L'
p347
sg27
Nsba(ibclass
BInstr
p348
(dp349
g2
Nsg17
S'ADD             X1, X1, #0x450'
p350
sg19
S'21401191'
p351
sg21
Vadd x1, x1, #0x450
p352
sg5
L18446743798837736668L
sg6
Nsg23
S'ADD'
p353
sg25
S'0xffffffc0005cf4dcL'
p354
sg27
Nsba(ibclass
BInstr
p355
(dp356
g2
Nsg17
S'BL              printk'
p357
sg19
S'25772194'
p358
sg21
Vbl #0x85dc94
p359
sg5
L18446743798837736672L
sg6
Nsg23
S'BL'
p360
sg25
S'0xffffffc0005cf4e0L'
p361
sg27
Nsba(ibclass
BInstr
p362
(dp363
g2
Nsg17
S'MOV             W0, #0xFFFFFFF4'
p364
sg19
S'60018012'
p365
sg21
Vmovn w0, #0xb
p366
sg5
L18446743798837736676L
sg6
Nsg23
S'MOV'
p367
sg25
S'0xffffffc0005cf4e4L'
p368
sg27
Nsba(ibclass
BInstr
p369
(dp370
g2
Nsg17
S'B               loc_FFFFFFC0005CF750'
p371
sg19
S'9a000014'
p372
sg21
Vb #0x268
p373
sg5
L18446743798837736680L
sg6
Nsg23
g201
sg25
S'0xffffffc0005cf4e8L'
p374
sg27
Nsbasg112
(lp375
S'ADRP reg, #__func__.24859@PAGE'
p376
aS'ADRP reg, #func@PAGE'
p377
aS'ADD reg, reg, #__func__.24859@PAGEOFF'
p378
aS'ADD reg, reg, #func@PAGEOFF'
p379
aS'ADD reg, reg, #0x450'
p380
aS'BL printk'
p381
aS'MOV reg, #0xFFFFFFF4'
p382
aS'B func'
p383
asg127
Nsg5
S'0xffffffc0005cf4ccL'
p384
sg129
(lp385
S'0xffffffc0005cf4a8L'
p386
aS'0xffffffc0005cf4c4L'
p387
asg6
Nsg131
(lp388
S'0xffffffc0005cf750L'
p389
asg135
Nsg136
Nsg137
S'f6b4a164d3a83cb5addeace3d1f2fa3b'
p390
sg139
S'a38d929cc6b89d6c325991c67436d094'
p391
sg141
(lp392
g325
ag332
ag339
ag346
ag353
ag360
ag367
ag201
asg143
Nsba(ibclass
BBasicBlock
p393
(dp394
g12
Nsg13
(lp395
(ibclass
BInstr
p396
(dp397
g2
Nsg17
S'LDR             X0, [X24]'
p398
sg19
S'000340f9'
p399
sg21
Vldr x0, [x24]
p400
sg5
L18446743798837736684L
sg6
Nsg23
S'LDR'
p401
sg25
S'0xffffffc0005cf4ecL'
p402
sg27
Nsba(ibclass
BInstr
p403
(dp404
g2
Nsg17
S'MOV             X1, X20'
p405
sg19
S'e10314aa'
p406
sg21
Vmov x1, x20
p407
sg5
L18446743798837736688L
sg6
Nsg23
S'MOV'
p408
sg25
S'0xffffffc0005cf4f0L'
p409
sg27
Nsba(ibclass
BInstr
p410
(dp411
g2
Nsg17
S'ADD             X2, X29, #0x110'
p412
sg19
S'a2430491'
p413
sg21
Vadd x2, x29, #0x110
p414
sg5
L18446743798837736692L
sg6
Nsg23
S'ADD'
p415
sg25
S'0xffffffc0005cf4f4L'
p416
sg27
Nsba(ibclass
BInstr
p417
(dp418
g2
Nsg17
S'ADD             X3, X29, #0x108'
p419
sg19
S'a3230491'
p420
sg21
Vadd x3, x29, #0x108
p421
sg5
L18446743798837736696L
sg6
Nsg23
S'ADD'
p422
sg25
S'0xffffffc0005cf4f8L'
p423
sg27
Nsba(ibclass
BInstr
p424
(dp425
g2
Nsg17
S'BL              ion_phys'
p426
sg19
S'ceb90c94'
p427
sg21
Vbl #0x32e738
p428
sg5
L18446743798837736700L
sg6
Nsg23
S'BL'
p429
sg25
S'0xffffffc0005cf4fcL'
p430
sg27
Nsba(ibclass
BInstr
p431
(dp432
g2
Nsg17
S'MOV             W19, W0'
p433
sg19
S'f303002a'
p434
sg21
Vmov w19, w0
p435
sg5
L18446743798837736704L
sg6
Nsg23
S'MOV'
p436
sg25
S'0xffffffc0005cf500L'
p437
sg27
Nsba(ibclass
BInstr
p438
(dp439
g2
Nsg17
S'CBZ             W0, loc_FFFFFFC0005CF528'
p440
sg19
S'20010034'
p441
sg21
Vcbz w0, #0x24
p442
sg5
L18446743798837736708L
sg6
Nsg23
S'CBZ'
p443
sg25
S'0xffffffc0005cf504L'
p444
sg27
Nsbasg112
(lp445
S'LDR reg, mem'
p446
aS'MOV reg, reg0'
p447
aS'ADD reg, reg9, #0x110'
p448
aS'ADD reg, reg9, #0x108'
p449
aS'BL ion_phys'
p450
aS'MOV reg9, reg'
p451
aS'CBZ reg, func'
p452
asg127
Nsg5
S'0xffffffc0005cf4ecL'
p453
sg129
(lp454
S'0xffffffc0005cf4c4L'
p455
asg6
Nsg131
(lp456
S'0xffffffc0005cf508L'
p457
aS'0xffffffc0005cf528L'
p458
asg135
Nsg136
Nsg137
S'cf8eb439168c0823b156a24e23d5c398'
p459
sg139
S'54be018feba482a99ad75c2ec365e56b'
p460
sg141
(lp461
g401
ag408
ag415
ag422
ag429
ag436
ag443
asg143
Nsba(ibclass
BBasicBlock
p462
(dp463
g12
Nsg13
(lp464
(ibclass
BInstr
p465
(dp466
g2
Nsg17
S'ADRP            X1, #__func__.24859@PAGE; "qseecom_unregister_listener"'
p467
sg19
S'015300f0'
p468
sg21
Vadrp x1, #0xa63000
p469
sg5
L18446743798837736712L
sg6
Nsg23
S'ADRP'
p470
sg25
S'0xffffffc0005cf508L'
p471
sg27
Nsba(ibclass
BInstr
p472
(dp473
g2
Nsg17
S'ADRP            X0, #unk_FFFFFFC00135ECE6@PAGE'
p474
sg19
S'606c00f0'
p475
sg21
Vadrp x0, #0xd8f000
p476
sg5
L18446743798837736716L
sg6
Nsg23
S'ADRP'
p477
sg25
S'0xffffffc0005cf50cL'
p478
sg27
Nsba(ibclass
BInstr
p479
(dp480
g2
Nsg17
S'ADD             X1, X1, #__func__.24859@PAGEOFF; "qseecom_unregister_listener"'
p481
sg19
S'21000b91'
p482
sg21
Vadd x1, x1, #0x2c0
p483
sg5
L18446743798837736720L
sg6
Nsg23
S'ADD'
p484
sg25
S'0xffffffc0005cf510L'
p485
sg27
Nsba(ibclass
BInstr
p486
(dp487
g2
Nsg17
S'ADD             X1, X1, #0x450'
p488
sg19
S'21401191'
p489
sg21
Vadd x1, x1, #0x450
p490
sg5
L18446743798837736724L
sg6
Nsg23
S'ADD'
p491
sg25
S'0xffffffc0005cf514L'
p492
sg27
Nsba(ibclass
BInstr
p493
(dp494
g2
Nsg17
S'MOV             W2, W19'
p495
sg19
S'e203132a'
p496
sg21
Vmov w2, w19
p497
sg5
L18446743798837736728L
sg6
Nsg23
S'MOV'
p498
sg25
S'0xffffffc0005cf518L'
p499
sg27
Nsba(ibclass
BInstr
p500
(dp501
g2
Nsg17
S'ADD             X0, X0, #unk_FFFFFFC00135ECE6@PAGEOFF'
p502
sg19
S'00983391'
p503
sg21
Vadd x0, x0, #0xce6
p504
sg5
L18446743798837736732L
sg6
Nsg23
S'ADD'
p505
sg25
S'0xffffffc0005cf51cL'
p506
sg27
Nsba(ibclass
BInstr
p507
(dp508
g2
Nsg17
S'BL              printk'
p509
sg19
S'15772194'
p510
sg21
Vbl #0x85dc54
p511
sg5
L18446743798837736736L
sg6
Nsg23
S'BL'
p512
sg25
S'0xffffffc0005cf520L'
p513
sg27
Nsba(ibclass
BInstr
p514
(dp515
g2
Nsg17
S'B               loc_FFFFFFC0005CF74C'
p516
sg19
S'8a000014'
p517
sg21
Vb #0x228
p518
sg5
L18446743798837736740L
sg6
Nsg23
g201
sg25
S'0xffffffc0005cf524L'
p519
sg27
Nsbasg112
(lp520
S'ADRP reg, #__func__.24859@PAGE'
p521
aS'ADRP reg, #func@PAGE'
p522
aS'ADD reg, reg, #__func__.24859@PAGEOFF'
p523
aS'ADD reg, reg, #0x450'
p524
aS'MOV reg, reg9'
p525
aS'ADD reg, reg, #func@PAGEOFF'
p526
aS'BL printk'
p527
aS'B func'
p528
asg127
Nsg5
S'0xffffffc0005cf508L'
p529
sg129
(lp530
S'0xffffffc0005cf4ecL'
p531
asg6
Nsg131
(lp532
S'0xffffffc0005cf74cL'
p533
asg135
Nsg136
Nsg137
S'57fbdd9827ba8a6f7ec6550f3bc8f167'
p534
sg139
S'4ba3f037161932ca283c84268ee49945'
p535
sg141
(lp536
g470
ag477
ag484
ag491
ag498
ag505
ag512
ag201
asg143
Nsba(ibclass
BBasicBlock
p537
(dp538
g12
Nsg13
(lp539
(ibclass
BInstr
p540
(dp541
g2
Nsg17
S'MOV             W0, #8'
p542
sg19
S'00018052'
p543
sg21
Vmovz w0, #0x8
p544
sg5
L18446743798837736744L
sg6
Nsg23
S'MOV'
p545
sg25
S'0xffffffc0005cf528L'
p546
sg27
Nsba(ibclass
BInstr
p547
(dp548
g2
Nsg17
S'STR             W0, [X29,#arg_40]'
p549
sg19
S'a05300b9'
p550
sg21
Vstr w0, [x29, #0x50]
p551
sg5
L18446743798837736748L
sg6
Nsg23
S'STR'
p552
sg25
S'0xffffffc0005cf52cL'
p553
sg27
Nsba(ibclass
BInstr
p554
(dp555
g2
Nsg17
S'LDR             W0, [X22]'
p556
sg19
S'c00240b9'
p557
sg21
Vldr w0, [x22]
p558
sg5
L18446743798837736752L
sg6
Nsg23
S'LDR'
p559
sg25
S'0xffffffc0005cf530L'
p560
sg27
Nsba(ibclass
BInstr
p561
(dp562
g2
Nsg17
S'STR             W0, [X29,#arg_44]'
p563
sg19
S'a05700b9'
p564
sg21
Vstr w0, [x29, #0x54]
p565
sg5
L18446743798837736756L
sg6
Nsg23
S'STR'
p566
sg25
S'0xffffffc0005cf534L'
p567
sg27
Nsba(ibclass
BInstr
p568
(dp569
g2
Nsg17
S'LDR             W0, [X22,#4]'
p570
sg19
S'c00640b9'
p571
sg21
Vldr w0, [x22, #4]
p572
sg5
L18446743798837736760L
sg6
Nsg23
S'LDR'
p573
sg25
S'0xffffffc0005cf538L'
p574
sg27
Nsba(ibclass
BInstr
p575
(dp576
g2
Nsg17
S'ADD             X22, X29, #0x50'
p577
sg19
S'b6430191'
p578
sg21
Vadd x22, x29, #0x50
p579
sg5
L18446743798837736764L
sg6
Nsg23
S'ADD'
p580
sg25
S'0xffffffc0005cf53cL'
p581
sg27
Nsba(ibclass
BInstr
p582
(dp583
g2
Nsg17
S'STR             W0, [X29,#arg_48]'
p584
sg19
S'a05b00b9'
p585
sg21
Vstr w0, [x29, #0x58]
p586
sg5
L18446743798837736768L
sg6
Nsg23
S'STR'
p587
sg25
S'0xffffffc0005cf540L'
p588
sg27
Nsba(ibclass
BInstr
p589
(dp590
g2
Nsg17
S'LDR             X0, [X29,#arg_100]'
p591
sg19
S'a08b40f9'
p592
sg21
Vldr x0, [x29, #0x110]
p593
sg5
L18446743798837736772L
sg6
Nsg23
S'LDR'
p594
sg25
S'0xffffffc0005cf544L'
p595
sg27
Nsba(ibclass
BInstr
p596
(dp597
g2
Nsg17
S'STR             W0, [X29,#arg_4C]'
p598
sg19
S'a05f00b9'
p599
sg21
Vstr w0, [x29, #0x5c]
p600
sg5
L18446743798837736776L
sg6
Nsg23
S'STR'
p601
sg25
S'0xffffffc0005cf548L'
p602
sg27
Nsba(ibclass
BInstr
p603
(dp604
g2
Nsg17
S'MOV             X0, #1'
p605
sg19
S'200080d2'
p606
sg21
Vmovz x0, #0x1
p607
sg5
L18446743798837736780L
sg6
Nsg23
S'MOV'
p608
sg25
S'0xffffffc0005cf54cL'
p609
sg27
Nsba(ibclass
BInstr
p610
(dp611
g2
Nsg17
S'STR             X0, [X22,#0xB0]!'
p612
sg19
S'c00e0bf8'
p613
sg21
Vstr x0, [x22, #0xb0]!
p614
sg5
L18446743798837736784L
sg6
Nsg23
S'STR'
p615
sg25
S'0xffffffc0005cf550L'
p616
sg27
Nsba(ibclass
BInstr
p617
(dp618
g2
Nsg17
S'MOV             X0, SP'
p619
sg19
S'e0030091'
p620
sg21
Vmov x0, sp
p621
sg5
L18446743798837736788L
sg6
Nsg23
S'MOV'
p622
sg25
S'0xffffffc0005cf554L'
p623
sg27
Nsba(ibclass
BInstr
p624
(dp625
g2
Nsg17
S'AND             X25, X0, #0xFFFFFFFFFFFFC000'
p626
sg19
S'19c47292'
p627
sg21
Vand x25, x0, #0xffffffffffffc000
p628
sg5
L18446743798837736792L
sg6
Nsg23
S'AND'
p629
sg25
S'0xffffffc0005cf558L'
p630
sg27
Nsba(ibclass
BInstr
p631
(dp632
g2
Nsg17
S'LDR             X0, [X25,#0x10]'
p633
sg19
S'200b40f9'
p634
sg21
Vldr x0, [x25, #0x10]
p635
sg5
L18446743798837736796L
sg6
Nsg23
S'LDR'
p636
sg25
S'0xffffffc0005cf55cL'
p637
sg27
Nsba(ibclass
BInstr
p638
(dp639
g2
Nsg17
S'MOV             X1, X22'
p640
sg19
S'e10316aa'
p641
sg21
Vmov x1, x22
p642
sg5
L18446743798837736800L
sg6
Nsg23
S'MOV'
p643
sg25
S'0xffffffc0005cf560L'
p644
sg27
Nsba(ibclass
BInstr
p645
(dp646
g2
Nsg17
S'BL              set_cpus_allowed_ptr'
p647
sg19
S'fafef197'
p648
sg21
Vbl #0xffffffffffc7fbe8
p649
sg5
L18446743798837736804L
sg6
Nsg23
S'BL'
p650
sg25
S'0xffffffc0005cf564L'
p651
sg27
Nsba(ibclass
BInstr
p652
(dp653
g2
Nsg17
S'MOV             W2, W0'
p654
sg19
S'e203002a'
p655
sg21
Vmov w2, w0
p656
sg5
L18446743798837736808L
sg6
Nsg23
S'MOV'
p657
sg25
S'0xffffffc0005cf568L'
p658
sg27
Nsba(ibclass
BInstr
p659
(dp660
g2
Nsg17
S'ADRP            X0, #unk_FFFFFFC00135EE30@PAGE'
p661
sg19
S'606c00f0'
p662
sg21
Vadrp x0, #0xd8f000
p663
sg5
L18446743798837736812L
sg6
Nsg23
S'ADRP'
p664
sg25
S'0xffffffc0005cf56cL'
p665
sg27
Nsba(ibclass
BInstr
p666
(dp667
g2
Nsg17
S'ADD             X0, X0, #unk_FFFFFFC00135EE30@PAGEOFF'
p668
sg19
S'00c03891'
p669
sg21
Vadd x0, x0, #0xe30
p670
sg5
L18446743798837736816L
sg6
Nsg23
S'ADD'
p671
sg25
S'0xffffffc0005cf570L'
p672
sg27
Nsba(ibclass
BInstr
p673
(dp674
g2
Nsg17
S'CBNZ            W2, loc_FFFFFFC0005CF728'
p675
sg19
S'a20d0035'
p676
sg21
Vcbnz w2, #0x1b4
p677
sg5
L18446743798837736820L
sg6
Nsg23
S'CBNZ'
p678
sg25
S'0xffffffc0005cf574L'
p679
sg27
Nsbasg112
(lp680
S'MOV reg, #8'
p681
aS'STR reg, mem'
p682
aS'LDR reg, mem'
p683
aS'STR reg, mem'
p684
aS'LDR reg, mem'
p685
aS'ADD reg2, reg9, #0x50'
p686
aS'STR reg, mem'
p687
aS'LDR reg, mem'
p688
aS'STR reg, mem'
p689
aS'MOV reg, #1'
p690
aS'STR reg, mem!'
p691
aS'MOV reg, SP'
p692
aS'AND reg5, reg, #0xFFFFFFFFFFFFC000'
p693
aS'LDR reg, mem'
p694
aS'MOV reg, reg2'
p695
aS'BL set_cpus_allowed_ptr'
p696
aS'MOV reg, reg'
p697
aS'ADRP reg, #func@PAGE'
p698
aS'ADD reg, reg, #func@PAGEOFF'
p699
aS'CBNZ reg, func'
p700
asg127
Nsg5
S'0xffffffc0005cf528L'
p701
sg129
(lp702
S'0xffffffc0005cf4ecL'
p703
asg6
Nsg131
(lp704
S'0xffffffc0005cf578L'
p705
aS'0xffffffc0005cf728L'
p706
asg135
Nsg136
Nsg137
S'c4a6cd04c002b22929d306f8a129350f'
p707
sg139
S'3aab0f7c0d452a14daca54cdc535d04c'
p708
sg141
(lp709
g545
ag552
ag559
ag566
ag573
ag580
ag587
ag594
ag601
ag608
ag615
ag622
ag629
ag636
ag643
ag650
ag657
ag664
ag671
ag678
asg143
Nsba(ibclass
BBasicBlock
p710
(dp711
g12
Nsg13
(lp712
(ibclass
BInstr
p713
(dp714
g2
Nsg17
S'LDRB            W0, [X24,#(byte_FFFFFFC001D090F0 - 0xFFFFFFC001D08FA0)]'
p715
sg19
S'00434539'
p716
sg21
Vldrb w0, [x24, #0x150]
p717
sg5
L18446743798837736824L
sg6
Nsg23
S'LDR'
p718
sg25
S'0xffffffc0005cf578L'
p719
sg27
Nsba(ibclass
BInstr
p720
(dp721
g2
Nsg17
S'CBNZ            W0, loc_FFFFFFC0005CF594'
p722
sg19
S'c0000035'
p723
sg21
Vcbnz w0, #0x18
p724
sg5
L18446743798837736828L
sg6
Nsg23
S'CBNZ'
p725
sg25
S'0xffffffc0005cf57cL'
p726
sg27
Nsbasg112
(lp727
S'LDRB reg, mem'
p728
aS'CBNZ reg, func'
p729
asg127
Nsg5
S'0xffffffc0005cf578L'
p730
sg129
(lp731
S'0xffffffc0005cf528L'
p732
asg6
Nsg131
(lp733
S'0xffffffc0005cf580L'
p734
aS'0xffffffc0005cf594L'
p735
asg135
Nsg136
Nsg137
S'5522ad3e8b25e3a8f9013bb9571723e7'
p736
sg139
S'f9160d1e8eafc8a047a043d8e9df4220'
p737
sg141
(lp738
g718
ag725
asg143
Nsba(ibclass
BBasicBlock
p739
(dp740
g12
Nsg13
(lp741
(ibclass
BInstr
p742
(dp743
g2
Nsg17
S'MOV             X0, X21'
p744
sg19
S'e00315aa'
p745
sg21
Vmov x0, x21
p746
sg5
L18446743798837736832L
sg6
Nsg23
S'MOV'
p747
sg25
S'0xffffffc0005cf580L'
p748
sg27
Nsba(ibclass
BInstr
p749
(dp750
g2
Nsg17
S'BL              __qseecom_enable_clk_scale_up'
p751
sg19
S'24f6ff97'
p752
sg21
Vbl #0xffffffffffffd890
p753
sg5
L18446743798837736836L
sg6
Nsg23
S'BL'
p754
sg25
S'0xffffffc0005cf584L'
p755
sg27
Nsba(ibclass
BInstr
p756
(dp757
g2
Nsg17
S'MOV             W19, #0xFFFFFFFB'
p758
sg19
S'93008012'
p759
sg21
Vmovn w19, #0x4
p760
sg5
L18446743798837736840L
sg6
Nsg23
S'MOV'
p761
sg25
S'0xffffffc0005cf588L'
p762
sg27
Nsba(ibclass
BInstr
p763
(dp764
g2
Nsg17
S'CBNZ            W0, loc_FFFFFFC0005CF6D0'
p765
sg19
S'200a0035'
p766
sg21
Vcbnz w0, #0x144
p767
sg5
L18446743798837736844L
sg6
Nsg23
S'CBNZ'
p768
sg25
S'0xffffffc0005cf58cL'
p769
sg27
Nsbasg112
(lp770
S'MOV reg, reg1'
p771
aS'BL __qseecom_enable_clk_scale_up'
p772
aS'MOV reg9, #0xFFFFFFFB'
p773
aS'CBNZ reg, func'
p774
asg127
Nsg5
S'0xffffffc0005cf580L'
p775
sg129
(lp776
S'0xffffffc0005cf578L'
p777
aS'0xffffffc0005cf5c8L'
p778
asg6
Nsg131
(lp779
S'0xffffffc0005cf590L'
p780
aS'0xffffffc0005cf6d0L'
p781
asg135
Nsg136
Nsg137
S'06b47240fc14f745fdb124e734da7368'
p782
sg139
S'cbda45080254c22c0c7af8a125b2ac11'
p783
sg141
(lp784
g747
ag754
ag761
ag768
asg143
Nsba(ibclass
BBasicBlock
p785
(dp786
g12
Nsg13
(lp787
(ibclass
BInstr
p788
(dp789
g2
Nsg17
S'B               loc_FFFFFFC0005CF5CC'
p790
sg19
S'0f000014'
p791
sg21
Vb #0x3c
p792
sg5
L18446743798837736848L
sg6
Nsg23
g201
sg25
S'0xffffffc0005cf590L'
p793
sg27
Nsbasg112
(lp794
S'B func'
p795
asg127
Nsg5
S'0xffffffc0005cf590L'
p796
sg129
(lp797
S'0xffffffc0005cf580L'
p798
asg6
Nsg131
(lp799
S'0xffffffc0005cf5ccL'
p800
asg135
Nsg136
Nsg137
S'9d5ed678fe57bcca610140957afab571'
p801
sg139
S'071b057c420e304c628380fd3541c021'
p802
sg141
(lp803
g201
asg143
Nsba(ibclass
BBasicBlock
p804
(dp805
g12
Nsg13
(lp806
(ibclass
BInstr
p807
(dp808
g2
Nsg17
S'ADRP            X19, #qseecom_plat_driver@PAGE'
p809
sg19
S'539a00f0'
p810
sg21
Vadrp x19, #0x134b000
p811
sg5
L18446743798837736852L
sg6
Nsg23
S'ADRP'
p812
sg25
S'0xffffffc0005cf594L'
p813
sg27
Nsba(ibclass
BInstr
p814
(dp815
g2
Nsg17
S'ADD             X19, X19, #qseecom_plat_driver@PAGEOFF'
p816
sg19
S'73c23191'
p817
sg21
Vadd x19, x19, #0xc70
p818
sg5
L18446743798837736856L
sg6
Nsg23
S'ADD'
p819
sg25
S'0xffffffc0005cf598L'
p820
sg27
Nsba(ibclass
BInstr
p821
(dp822
g2
Nsg17
S'ADD             X19, X19, #0xF8'
p823
sg19
S'73e20391'
p824
sg21
Vadd x19, x19, #0xf8
p825
sg5
L18446743798837736860L
sg6
Nsg23
S'ADD'
p826
sg25
S'0xffffffc0005cf59cL'
p827
sg27
Nsba(ibclass
BInstr
p828
(dp829
g2
Nsg17
S'MOV             X0, X19'
p830
sg19
S'e00313aa'
p831
sg21
Vmov x0, x19
p832
sg5
L18446743798837736864L
sg6
Nsg23
S'MOV'
p833
sg25
S'0xffffffc0005cf5a0L'
p834
sg27
Nsba(ibclass
BInstr
p835
(dp836
g2
Nsg17
S'BL              mutex_lock'
p837
sg19
S'56ab2194'
p838
sg21
Vbl #0x86ad58
p839
sg5
L18446743798837736868L
sg6
Nsg23
S'BL'
p840
sg25
S'0xffffffc0005cf5a4L'
p841
sg27
Nsba(ibclass
BInstr
p842
(dp843
g2
Nsg17
S'MOV             W1, #2'
p844
sg19
S'41008052'
p845
sg21
Vmovz w1, #0x2
p846
sg5
L18446743798837736872L
sg6
Nsg23
S'MOV'
p847
sg25
S'0xffffffc0005cf5a8L'
p848
sg27
Nsba(ibclass
BInstr
p849
(dp850
g2
Nsg17
S'ADD             X0, X21, #0xA0'
p851
sg19
S'a0820291'
p852
sg21
Vadd x0, x21, #0xa0
p853
sg5
L18446743798837736876L
sg6
Nsg23
S'ADD'
p854
sg25
S'0xffffffc0005cf5acL'
p855
sg27
Nsba(ibclass
BInstr
p856
(dp857
g2
Nsg17
S'BL              __qseecom_register_bus_bandwidth_needs.isra.2'
p858
sg19
S'bbf0ff97'
p859
sg21
Vbl #0xffffffffffffc2ec
p860
sg5
L18446743798837736880L
sg6
Nsg23
S'BL'
p861
sg25
S'0xffffffc0005cf5b0L'
p862
sg27
Nsba(ibclass
BInstr
p863
(dp864
g2
Nsg17
S'MOV             W24, W0'
p865
sg19
S'f803002a'
p866
sg21
Vmov w24, w0
p867
sg5
L18446743798837736884L
sg6
Nsg23
S'MOV'
p868
sg25
S'0xffffffc0005cf5b4L'
p869
sg27
Nsba(ibclass
BInstr
p870
(dp871
g2
Nsg17
S'MOV             X0, X19'
p872
sg19
S'e00313aa'
p873
sg21
Vmov x0, x19
p874
sg5
L18446743798837736888L
sg6
Nsg23
S'MOV'
p875
sg25
S'0xffffffc0005cf5b8L'
p876
sg27
Nsba(ibclass
BInstr
p877
(dp878
g2
Nsg17
S'BL              mutex_unlock'
p879
sg19
S'93aa2194'
p880
sg21
Vbl #0x86aa4c
p881
sg5
L18446743798837736892L
sg6
Nsg23
S'BL'
p882
sg25
S'0xffffffc0005cf5bcL'
p883
sg27
Nsba(ibclass
BInstr
p884
(dp885
g2
Nsg17
S'MOV             W19, #0xFFFFFFFB'
p886
sg19
S'93008012'
p887
sg21
Vmovn w19, #0x4
p888
sg5
L18446743798837736896L
sg6
Nsg23
S'MOV'
p889
sg25
S'0xffffffc0005cf5c0L'
p890
sg27
Nsba(ibclass
BInstr
p891
(dp892
g2
Nsg17
S'CBNZ            W24, loc_FFFFFFC0005CF704'
p893
sg19
S'180a0035'
p894
sg21
Vcbnz w24, #0x140
p895
sg5
L18446743798837736900L
sg6
Nsg23
S'CBNZ'
p896
sg25
S'0xffffffc0005cf5c4L'
p897
sg27
Nsbasg112
(lp898
S'ADRP reg9, #qseecom_plat_driver@PAGE'
p899
aS'ADD reg9, reg9, #qseecom_plat_driver@PAGEOFF'
p900
aS'ADD reg9, reg9, #0xF8'
p901
aS'MOV reg, reg9'
p902
aS'BL mutex_lock'
p903
aS'MOV reg, #2'
p904
aS'ADD reg, reg1, #0xA0'
p905
aS'BL __qseecom_register_bus_bandwidth_needs.isra.2'
p906
aS'MOV reg4, reg'
p907
aS'MOV reg, reg9'
p908
aS'BL mutex_unlock'
p909
aS'MOV reg9, #0xFFFFFFFB'
p910
aS'CBNZ reg4, func'
p911
asg127
Nsg5
S'0xffffffc0005cf594L'
p912
sg129
(lp913
S'0xffffffc0005cf578L'
p914
asg6
Nsg131
(lp915
S'0xffffffc0005cf5c8L'
p916
aS'0xffffffc0005cf704L'
p917
asg135
Nsg136
Nsg137
S'8445ce79347de287ab01a4c4c05c938a'
p918
sg139
S'e60412e3f1a1a51e62f95567b50861bf'
p919
sg141
(lp920
g812
ag819
ag826
ag833
ag840
ag847
ag854
ag861
ag868
ag875
ag882
ag889
ag896
asg143
Nsba(ibclass
BBasicBlock
p921
(dp922
g12
Nsg13
(lp923
(ibclass
BInstr
p924
(dp925
g2
Nsg17
S'B               loc_FFFFFFC0005CF580'
p926
sg19
S'eeffff17'
p927
sg21
Vb #0xffffffffffffffb8
p928
sg5
L18446743798837736904L
sg6
Nsg23
g201
sg25
S'0xffffffc0005cf5c8L'
p929
sg27
Nsbasg112
(lp930
S'B func'
p931
asg127
Nsg5
S'0xffffffc0005cf5c8L'
p932
sg129
(lp933
S'0xffffffc0005cf594L'
p934
asg6
Nsg131
(lp935
S'0xffffffc0005cf580L'
p936
asg135
Nsg136
Nsg137
S'9d5ed678fe57bcca610140957afab571'
p937
sg139
S'071b057c420e304c628380fd3541c021'
p938
sg141
(lp939
g201
asg143
Nsba(ibclass
BBasicBlock
p940
(dp941
g12
Nsg13
(lp942
(ibclass
BInstr
p943
(dp944
g2
Nsg17
S'ADD             X0, X23, #qseecom@PAGEOFF'
p945
sg19
S'e0823e91'
p946
sg21
Vadd x0, x23, #0xfa0
p947
sg5
L18446743798837736908L
sg6
Nsg23
S'ADD'
p948
sg25
S'0xffffffc0005cf5ccL'
p949
sg27
Nsba(ibclass
BInstr
p950
(dp951
g2
Nsg17
S'LDR             X3, [X29,#arg_F8]'
p952
sg19
S'a38740f9'
p953
sg21
Vldr x3, [x29, #0x108]
p954
sg5
L18446743798837736912L
sg6
Nsg23
S'LDR'
p955
sg25
S'0xffffffc0005cf5d0L'
p956
sg27
Nsba(ibclass
BInstr
p957
(dp958
g2
Nsg17
S'LDR             X0, [X0]'
p959
sg19
S'000040f9'
p960
sg21
Vldr x0, [x0]
p961
sg5
L18446743798837736916L
sg6
Nsg23
S'LDR'
p962
sg25
S'0xffffffc0005cf5d4L'
p963
sg27
Nsba(ibclass
BInstr
p964
(dp965
g2
Nsg17
S'MOV             W4, #0x4D02'
p966
sg19
S'44a08952'
p967
sg21
Vmovz w4, #0x4d02
p968
sg5
L18446743798837736920L
sg6
Nsg23
S'MOV'
p969
sg25
S'0xffffffc0005cf5d8L'
p970
sg27
Nsba(ibclass
BInstr
p971
(dp972
g2
Nsg17
S'MOV             X1, X20'
p973
sg19
S'e10314aa'
p974
sg21
Vmov x1, x20
p975
sg5
L18446743798837736924L
sg6
Nsg23
S'MOV'
p976
sg25
S'0xffffffc0005cf5dcL'
p977
sg27
Nsba(ibclass
BInstr
p978
(dp979
g2
Nsg17
S'MOV             X2, #0'
p980
sg19
S'020080d2'
p981
sg21
Vmovz x2, #0
p982
sg5
L18446743798837736928L
sg6
Nsg23
S'MOV'
p983
sg25
S'0xffffffc0005cf5e0L'
p984
sg27
Nsba(ibclass
BInstr
p985
(dp986
g2
Nsg17
S'MOVK            W4, #0xC018,LSL#16'
p987
sg19
S'0403b872'
p988
sg21
Vmovk w4, #0xc018, lsl #16
p989
sg5
L18446743798837736932L
sg6
Nsg23
S'MOVK'
p990
sg25
S'0xffffffc0005cf5e4L'
p991
sg27
Nsba(ibclass
BInstr
p992
(dp993
g2
Nsg17
S'BL              msm_ion_do_cache_op'
p994
sg19
S'36d60c94'
p995
sg21
Vbl #0x3358d8
p996
sg5
L18446743798837736936L
sg6
Nsg23
S'BL'
p997
sg25
S'0xffffffc0005cf5e8L'
p998
sg27
Nsba(ibclass
BInstr
p999
(dp1000
g2
Nsg17
S'ADD             X26, X29, #0xF0'
p1001
sg19
S'bac30391'
p1002
sg21
Vadd x26, x29, #0xf0
p1003
sg5
L18446743798837736940L
sg6
Nsg23
S'ADD'
p1004
sg25
S'0xffffffc0005cf5ecL'
p1005
sg27
Nsba(ibclass
BInstr
p1006
(dp1007
g2
Nsg17
S'MOV             W0, #0xFC'
p1008
sg19
S'801f8052'
p1009
sg21
Vmovz w0, #0xfc
p1010
sg5
L18446743798837736944L
sg6
Nsg23
S'MOV'
p1011
sg25
S'0xffffffc0005cf5f0L'
p1012
sg27
Nsba(ibclass
BInstr
p1013
(dp1014
g2
Nsg17
S'MOV             W1, #1'
p1015
sg19
S'21008052'
p1016
sg21
Vmovz w1, #0x1
p1017
sg5
L18446743798837736948L
sg6
Nsg23
S'MOV'
p1018
sg25
S'0xffffffc0005cf5f4L'
p1019
sg27
Nsba(ibclass
BInstr
p1020
(dp1021
g2
Nsg17
S'ADD             X2, X29, #0x50'
p1022
sg19
S'a2430191'
p1023
sg21
Vadd x2, x29, #0x50
p1024
sg5
L18446743798837736952L
sg6
Nsg23
S'ADD'
p1025
sg25
S'0xffffffc0005cf5f8L'
p1026
sg27
Nsba(ibclass
BInstr
p1027
(dp1028
g2
Nsg17
S'MOV             X3, #0x50'
p1029
sg19
S'030a80d2'
p1030
sg21
Vmovz x3, #0x50
p1031
sg5
L18446743798837736956L
sg6
Nsg23
S'MOV'
p1032
sg25
S'0xffffffc0005cf5fcL'
p1033
sg27
Nsba(ibclass
BInstr
p1034
(dp1035
g2
Nsg17
S'MOV             X4, X26'
p1036
sg19
S'e4031aaa'
p1037
sg21
Vmov x4, x26
p1038
sg5
L18446743798837736960L
sg6
Nsg23
S'MOV'
p1039
sg25
S'0xffffffc0005cf600L'
p1040
sg27
Nsba(ibclass
BInstr
p1041
(dp1042
g2
Nsg17
S'MOV             X5, #0xC'
p1043
sg19
S'850180d2'
p1044
sg21
Vmovz x5, #0xc
p1045
sg5
L18446743798837736964L
sg6
Nsg23
S'MOV'
p1046
sg25
S'0xffffffc0005cf604L'
p1047
sg27
Nsba(ibclass
BInstr
p1048
(dp1049
g2
Nsg17
S'BL              qseecom_scm_call'
p1050
sg19
S'78ecff97'
p1051
sg21
Vbl #0xffffffffffffb1e0
p1052
sg5
L18446743798837736968L
sg6
Nsg23
S'BL'
p1053
sg25
S'0xffffffc0005cf608L'
p1054
sg27
Nsba(ibclass
BInstr
p1055
(dp1056
g2
Nsg17
S'MOV             W19, W0'
p1057
sg19
S'f303002a'
p1058
sg21
Vmov w19, w0
p1059
sg5
L18446743798837736972L
sg6
Nsg23
S'MOV'
p1060
sg25
S'0xffffffc0005cf60cL'
p1061
sg27
Nsba(ibclass
BInstr
p1062
(dp1063
g2
Nsg17
S'CBZ             W0, loc_FFFFFFC0005CF630'
p1064
sg19
S'00010034'
p1065
sg21
Vcbz w0, #0x20
p1066
sg5
L18446743798837736976L
sg6
Nsg23
S'CBZ'
p1067
sg25
S'0xffffffc0005cf610L'
p1068
sg27
Nsbasg112
(lp1069
S'ADD reg, reg3, #qseecom@PAGEOFF'
p1070
aS'LDR reg, mem'
p1071
aS'LDR reg, mem'
p1072
aS'MOV reg, #0x4D02'
p1073
aS'MOV reg, reg0'
p1074
aS'MOV reg, #0'
p1075
aS'MOVK reg, #0xC018,LSL#16'
p1076
aS'BL msm_ion_do_cache_op'
p1077
aS'ADD reg6, reg9, #0xF0'
p1078
aS'MOV reg, #0xFC'
p1079
aS'MOV reg, #1'
p1080
aS'ADD reg, reg9, #0x50'
p1081
aS'MOV reg, #0x50'
p1082
aS'MOV reg, reg6'
p1083
aS'MOV reg, #0xC'
p1084
aS'BL qseecom_scm_call'
p1085
aS'MOV reg9, reg'
p1086
aS'CBZ reg, func'
p1087
asg127
Nsg5
S'0xffffffc0005cf5ccL'
p1088
sg129
(lp1089
S'0xffffffc0005cf590L'
p1090
asg6
Nsg131
(lp1091
S'0xffffffc0005cf614L'
p1092
aS'0xffffffc0005cf630L'
p1093
asg135
Nsg136
Nsg137
S'44ac5c1f9c90b3ff210fc4560490bdb4'
p1094
sg139
S'94b65d314491166e6af11f0290ce6385'
p1095
sg141
(lp1096
g948
ag955
ag962
ag969
ag976
ag983
ag990
ag997
ag1004
ag1011
ag1018
ag1025
ag1032
ag1039
ag1046
ag1053
ag1060
ag1067
asg143
Nsba(ibclass
BBasicBlock
p1097
(dp1098
g12
Nsg13
(lp1099
(ibclass
BInstr
p1100
(dp1101
g2
Nsg17
S'ADRP            X1, #__func__.24859@PAGE; "qseecom_unregister_listener"'
p1102
sg19
S'015300f0'
p1103
sg21
Vadrp x1, #0xa63000
p1104
sg5
L18446743798837736980L
sg6
Nsg23
S'ADRP'
p1105
sg25
S'0xffffffc0005cf614L'
p1106
sg27
Nsba(ibclass
BInstr
p1107
(dp1108
g2
Nsg17
S'ADRP            X0, #unk_FFFFFFC00135EBCC@PAGE'
p1109
sg19
S'606c00f0'
p1110
sg21
Vadrp x0, #0xd8f000
p1111
sg5
L18446743798837736984L
sg6
Nsg23
S'ADRP'
p1112
sg25
S'0xffffffc0005cf618L'
p1113
sg27
Nsba(ibclass
BInstr
p1114
(dp1115
g2
Nsg17
S'ADD             X1, X1, #__func__.24859@PAGEOFF; "qseecom_unregister_listener"'
p1116
sg19
S'21000b91'
p1117
sg21
Vadd x1, x1, #0x2c0
p1118
sg5
L18446743798837736988L
sg6
Nsg23
S'ADD'
p1119
sg25
S'0xffffffc0005cf61cL'
p1120
sg27
Nsba(ibclass
BInstr
p1121
(dp1122
g2
Nsg17
S'ADD             X0, X0, #unk_FFFFFFC00135EBCC@PAGEOFF'
p1123
sg19
S'00302f91'
p1124
sg21
Vadd x0, x0, #0xbcc
p1125
sg5
L18446743798837736992L
sg6
Nsg23
S'ADD'
p1126
sg25
S'0xffffffc0005cf620L'
p1127
sg27
Nsba(ibclass
BInstr
p1128
(dp1129
g2
Nsg17
S'ADD             X1, X1, #0x450'
p1130
sg19
S'21401191'
p1131
sg21
Vadd x1, x1, #0x450
p1132
sg5
L18446743798837736996L
sg6
Nsg23
S'ADD'
p1133
sg25
S'0xffffffc0005cf624L'
p1134
sg27
Nsba(ibclass
BInstr
p1135
(dp1136
g2
Nsg17
S'MOV             W2, W19'
p1137
sg19
S'e203132a'
p1138
sg21
Vmov w2, w19
p1139
sg5
L18446743798837737000L
sg6
Nsg23
S'MOV'
p1140
sg25
S'0xffffffc0005cf628L'
p1141
sg27
Nsba(ibclass
BInstr
p1142
(dp1143
g2
Nsg17
S'B               loc_FFFFFFC0005CF6C0'
p1144
sg19
S'25000014'
p1145
sg21
Vb #0x94
p1146
sg5
L18446743798837737004L
sg6
Nsg23
g201
sg25
S'0xffffffc0005cf62cL'
p1147
sg27
Nsbasg112
(lp1148
S'ADRP reg, #__func__.24859@PAGE'
p1149
aS'ADRP reg, #func@PAGE'
p1150
aS'ADD reg, reg, #__func__.24859@PAGEOFF'
p1151
aS'ADD reg, reg, #func@PAGEOFF'
p1152
aS'ADD reg, reg, #0x450'
p1153
aS'MOV reg, reg9'
p1154
aS'B func'
p1155
asg127
Nsg5
S'0xffffffc0005cf614L'
p1156
sg129
(lp1157
S'0xffffffc0005cf5ccL'
p1158
asg6
Nsg131
(lp1159
S'0xffffffc0005cf6c0L'
p1160
asg135
Nsg136
Nsg137
S'82c7c570107c45932758f3d70effcebb'
p1161
sg139
S'0f51dc87a5109bf9ee3c124bc65132bd'
p1162
sg141
(lp1163
g1105
ag1112
ag1119
ag1126
ag1133
ag1140
ag201
asg143
Nsba(ibclass
BBasicBlock
p1164
(dp1165
g12
Nsg13
(lp1166
(ibclass
BInstr
p1167
(dp1168
g2
Nsg17
S'LDR             W2, [X29,#arg_E0]'
p1169
sg19
S'a2f340b9'
p1170
sg21
Vldr w2, [x29, #0xf0]
p1171
sg5
L18446743798837737008L
sg6
Nsg23
S'LDR'
p1172
sg25
S'0xffffffc0005cf630L'
p1173
sg27
Nsba(ibclass
BInstr
p1174
(dp1175
g2
Nsg17
S'CMP             W2, #1'
p1176
sg19
S'5f040071'
p1177
sg21
Vcmp w2, #1
p1178
sg5
L18446743798837737012L
sg6
Nsg23
S'CMP'
p1179
sg25
S'0xffffffc0005cf634L'
p1180
sg27
Nsba(ibclass
BInstr
p1181
(dp1182
g2
Nsg17
S'B.EQ            loc_FFFFFFC0005CF664'
p1183
sg19
S'60010054'
p1184
sg21
Vb.eq #0x2c
p1185
sg5
L18446743798837737016L
sg6
Nsg23
g201
sg25
S'0xffffffc0005cf638L'
p1186
sg27
Nsbasg112
(lp1187
S'LDR reg, mem'
p1188
aS'CMP reg, #1'
p1189
aS'B.EQ func'
p1190
asg127
Nsg5
S'0xffffffc0005cf630L'
p1191
sg129
(lp1192
S'0xffffffc0005cf5ccL'
p1193
asg6
Nsg131
(lp1194
S'0xffffffc0005cf63cL'
p1195
aS'0xffffffc0005cf664L'
p1196
asg135
Nsg136
Nsg137
S'fa4df767a85c49648339e2dc5c6807f6'
p1197
sg139
S'fc60d4fbf945ffce424d4afdb663104c'
p1198
sg141
(lp1199
g1172
ag1179
ag201
asg143
Nsba(ibclass
BBasicBlock
p1200
(dp1201
g12
Nsg13
(lp1202
(ibclass
BInstr
p1203
(dp1204
g2
Nsg17
S'CBZ             W2, loc_FFFFFFC0005CF6C8'
p1205
sg19
S'62040034'
p1206
sg21
Vcbz w2, #0x8c
p1207
sg5
L18446743798837737020L
sg6
Nsg23
S'CBZ'
p1208
sg25
S'0xffffffc0005cf63cL'
p1209
sg27
Nsbasg112
(lp1210
S'CBZ reg, func'
p1211
asg127
Nsg5
S'0xffffffc0005cf63cL'
p1212
sg129
(lp1213
S'0xffffffc0005cf630L'
p1214
asg6
Nsg131
(lp1215
S'0xffffffc0005cf640L'
p1216
aS'0xffffffc0005cf6c8L'
p1217
asg135
Nsg136
Nsg137
S'de8e361453cf9f764a4abe9d486f8fbe'
p1218
sg139
S'1f44e7b7d6ea8c93b4632bf8395c86c6'
p1219
sg141
(lp1220
g1208
asg143
Nsba(ibclass
BBasicBlock
p1221
(dp1222
g12
Nsg13
(lp1223
(ibclass
BInstr
p1224
(dp1225
g2
Nsg17
S'CMN             W2, #1'
p1226
sg19
S'5f040031'
p1227
sg21
Vcmn w2, #1
p1228
sg5
L18446743798837737024L
sg6
Nsg23
S'CMN'
p1229
sg25
S'0xffffffc0005cf640L'
p1230
sg27
Nsba(ibclass
BInstr
p1231
(dp1232
g2
Nsg17
S'ADRP            X1, #__func__.24859@PAGE; "qseecom_unregister_listener"'
p1233
sg19
S'015300f0'
p1234
sg21
Vadrp x1, #0xa63000
p1235
sg5
L18446743798837737028L
sg6
Nsg23
S'ADRP'
p1236
sg25
S'0xffffffc0005cf644L'
p1237
sg27
Nsba(ibclass
BInstr
p1238
(dp1239
g2
Nsg17
S'B.NE            loc_FFFFFFC0005CF6B0'
p1240
sg19
S'41030054'
p1241
sg21
Vb.ne #0x68
p1242
sg5
L18446743798837737032L
sg6
Nsg23
g201
sg25
S'0xffffffc0005cf648L'
p1243
sg27
Nsbasg112
(lp1244
S'CMN reg, #1'
p1245
aS'ADRP reg, #__func__.24859@PAGE'
p1246
aS'B.NE func'
p1247
asg127
Nsg5
S'0xffffffc0005cf640L'
p1248
sg129
(lp1249
S'0xffffffc0005cf63cL'
p1250
asg6
Nsg131
(lp1251
S'0xffffffc0005cf64cL'
p1252
aS'0xffffffc0005cf6b0L'
p1253
asg135
Nsg136
Nsg137
S'fdad4e3fc015ef2ff013861a528ce548'
p1254
sg139
S'8d3c3b2ee0a3b80de5ad2444cfcef437'
p1255
sg141
(lp1256
g1229
ag1236
ag201
asg143
Nsba(ibclass
BBasicBlock
p1257
(dp1258
g12
Nsg13
(lp1259
(ibclass
BInstr
p1260
(dp1261
g2
Nsg17
S'ADD             X1, X1, #__func__.24859@PAGEOFF; "qseecom_unregister_listener"'
p1262
sg19
S'21000b91'
p1263
sg21
Vadd x1, x1, #0x2c0
p1264
sg5
L18446743798837737036L
sg6
Nsg23
S'ADD'
p1265
sg25
S'0xffffffc0005cf64cL'
p1266
sg27
Nsba(ibclass
BInstr
p1267
(dp1268
g2
Nsg17
S'ADRP            X0, #unk_FFFFFFC00135ED54@PAGE'
p1269
sg19
S'606c00f0'
p1270
sg21
Vadrp x0, #0xd8f000
p1271
sg5
L18446743798837737040L
sg6
Nsg23
S'ADRP'
p1272
sg25
S'0xffffffc0005cf650L'
p1273
sg27
Nsba(ibclass
BInstr
p1274
(dp1275
g2
Nsg17
S'ADD             X1, X1, #0x450'
p1276
sg19
S'21401191'
p1277
sg21
Vadd x1, x1, #0x450
p1278
sg5
L18446743798837737044L
sg6
Nsg23
S'ADD'
p1279
sg25
S'0xffffffc0005cf654L'
p1280
sg27
Nsba(ibclass
BInstr
p1281
(dp1282
g2
Nsg17
S'ADD             X0, X0, #unk_FFFFFFC00135ED54@PAGEOFF'
p1283
sg19
S'00503591'
p1284
sg21
Vadd x0, x0, #0xd54
p1285
sg5
L18446743798837737048L
sg6
Nsg23
S'ADD'
p1286
sg25
S'0xffffffc0005cf658L'
p1287
sg27
Nsba(ibclass
BInstr
p1288
(dp1289
g2
Nsg17
S'BL              printk'
p1290
sg19
S'c6762194'
p1291
sg21
Vbl #0x85db18
p1292
sg5
L18446743798837737052L
sg6
Nsg23
S'BL'
p1293
sg25
S'0xffffffc0005cf65cL'
p1294
sg27
Nsba(ibclass
BInstr
p1295
(dp1296
g2
Nsg17
S'B               loc_FFFFFFC0005CF6C4'
p1297
sg19
S'19000014'
p1298
sg21
Vb #0x64
p1299
sg5
L18446743798837737056L
sg6
Nsg23
g201
sg25
S'0xffffffc0005cf660L'
p1300
sg27
Nsbasg112
(lp1301
S'ADD reg, reg, #__func__.24859@PAGEOFF'
p1302
aS'ADRP reg, #func@PAGE'
p1303
aS'ADD reg, reg, #0x450'
p1304
aS'ADD reg, reg, #func@PAGEOFF'
p1305
aS'BL printk'
p1306
aS'B func'
p1307
asg127
Nsg5
S'0xffffffc0005cf64cL'
p1308
sg129
(lp1309
S'0xffffffc0005cf640L'
p1310
asg6
Nsg131
(lp1311
S'0xffffffc0005cf6c4L'
p1312
asg135
Nsg136
Nsg137
S'fbc418f60452038480cae844c5c24371'
p1313
sg139
S'6c141649bc24b6cba7113a402189e2de'
p1314
sg141
(lp1315
g1265
ag1272
ag1279
ag1286
ag1293
ag201
asg143
Nsba(ibclass
BBasicBlock
p1316
(dp1317
g12
Nsg13
(lp1318
(ibclass
BInstr
p1319
(dp1320
g2
Nsg17
S'ADRP            X24, #__func__.24859@PAGE; "qseecom_unregister_listener"'
p1321
sg19
S'185300f0'
p1322
sg21
Vadrp x24, #0xa63000
p1323
sg5
L18446743798837737060L
sg6
Nsg23
S'ADRP'
p1324
sg25
S'0xffffffc0005cf664L'
p1325
sg27
Nsba(ibclass
BInstr
p1326
(dp1327
g2
Nsg17
S'ADD             X24, X24, #__func__.24859@PAGEOFF; "qseecom_unregister_listener"'
p1328
sg19
S'18030b91'
p1329
sg21
Vadd x24, x24, #0x2c0
p1330
sg5
L18446743798837737064L
sg6
Nsg23
S'ADD'
p1331
sg25
S'0xffffffc0005cf668L'
p1332
sg27
Nsba(ibclass
BInstr
p1333
(dp1334
g2
Nsg17
S'ADD             X24, X24, #0x450'
p1335
sg19
S'18431191'
p1336
sg21
Vadd x24, x24, #0x450
p1337
sg5
L18446743798837737068L
sg6
Nsg23
S'ADD'
p1338
sg25
S'0xffffffc0005cf66cL'
p1339
sg27
Nsba(ibclass
BInstr
p1340
(dp1341
g2
Nsg17
S'ADRP            X0, #unk_FFFFFFC00135EE65@PAGE'
p1342
sg19
S'606c00f0'
p1343
sg21
Vadrp x0, #0xd8f000
p1344
sg5
L18446743798837737072L
sg6
Nsg23
S'ADRP'
p1345
sg25
S'0xffffffc0005cf670L'
p1346
sg27
Nsba(ibclass
BInstr
p1347
(dp1348
g2
Nsg17
S'MOV             X1, X24'
p1349
sg19
S'e10318aa'
p1350
sg21
Vmov x1, x24
p1351
sg5
L18446743798837737076L
sg6
Nsg23
S'MOV'
p1352
sg25
S'0xffffffc0005cf674L'
p1353
sg27
Nsba(ibclass
BInstr
p1354
(dp1355
g2
Nsg17
S'MOV             X2, X24'
p1356
sg19
S'e20318aa'
p1357
sg21
Vmov x2, x24
p1358
sg5
L18446743798837737080L
sg6
Nsg23
S'MOV'
p1359
sg25
S'0xffffffc0005cf678L'
p1360
sg27
Nsba(ibclass
BInstr
p1361
(dp1362
g2
Nsg17
S'ADD             X0, X0, #unk_FFFFFFC00135EE65@PAGEOFF'
p1363
sg19
S'00943991'
p1364
sg21
Vadd x0, x0, #0xe65
p1365
sg5
L18446743798837737084L
sg6
Nsg23
S'ADD'
p1366
sg25
S'0xffffffc0005cf67cL'
p1367
sg27
Nsba(ibclass
BInstr
p1368
(dp1369
g2
Nsg17
S'BL              printk'
p1370
sg19
S'bd762194'
p1371
sg21
Vbl #0x85daf4
p1372
sg5
L18446743798837737088L
sg6
Nsg23
S'BL'
p1373
sg25
S'0xffffffc0005cf680L'
p1374
sg27
Nsba(ibclass
BInstr
p1375
(dp1376
g2
Nsg17
S'MOV             X0, X21'
p1377
sg19
S'e00315aa'
p1378
sg21
Vmov x0, x21
p1379
sg5
L18446743798837737092L
sg6
Nsg23
S'MOV'
p1380
sg25
S'0xffffffc0005cf684L'
p1381
sg27
Nsba(ibclass
BInstr
p1382
(dp1383
g2
Nsg17
S'MOV             X1, X26'
p1384
sg19
S'e1031aaa'
p1385
sg21
Vmov x1, x26
p1386
sg5
L18446743798837737096L
sg6
Nsg23
S'MOV'
p1387
sg25
S'0xffffffc0005cf688L'
p1388
sg27
Nsba(ibclass
BInstr
p1389
(dp1390
g2
Nsg17
S'BL              __qseecom_process_incomplete_cmd'
p1391
sg19
S'2bf6ff97'
p1392
sg21
Vbl #0xffffffffffffd8ac
p1393
sg5
L18446743798837737100L
sg6
Nsg23
S'BL'
p1394
sg25
S'0xffffffc0005cf68cL'
p1395
sg27
Nsba(ibclass
BInstr
p1396
(dp1397
g2
Nsg17
S'MOV             W19, W0'
p1398
sg19
S'f303002a'
p1399
sg21
Vmov w19, w0
p1400
sg5
L18446743798837737104L
sg6
Nsg23
S'MOV'
p1401
sg25
S'0xffffffc0005cf690L'
p1402
sg27
Nsba(ibclass
BInstr
p1403
(dp1404
g2
Nsg17
S'CBZ             W0, loc_FFFFFFC0005CF6C8'
p1405
sg19
S'a0010034'
p1406
sg21
Vcbz w0, #0x34
p1407
sg5
L18446743798837737108L
sg6
Nsg23
S'CBZ'
p1408
sg25
S'0xffffffc0005cf694L'
p1409
sg27
Nsbasg112
(lp1410
S'ADRP reg4, #__func__.24859@PAGE'
p1411
aS'ADD reg4, reg4, #__func__.24859@PAGEOFF'
p1412
aS'ADD reg4, reg4, #0x450'
p1413
aS'ADRP reg, #func@PAGE'
p1414
aS'MOV reg, reg4'
p1415
aS'MOV reg, reg4'
p1416
aS'ADD reg, reg, #func@PAGEOFF'
p1417
aS'BL printk'
p1418
aS'MOV reg, reg1'
p1419
aS'MOV reg, reg6'
p1420
aS'BL __qseecom_process_incomplete_cmd'
p1421
aS'MOV reg9, reg'
p1422
aS'CBZ reg, func'
p1423
asg127
Nsg5
S'0xffffffc0005cf664L'
p1424
sg129
(lp1425
S'0xffffffc0005cf630L'
p1426
asg6
Nsg131
(lp1427
S'0xffffffc0005cf698L'
p1428
aS'0xffffffc0005cf6c8L'
p1429
asg135
Nsg136
Nsg137
S'a10fe0a35b6dc7d9e3a1a76af4d50a80'
p1430
sg139
S'04334644445cb0036cf6e1a9c25e9894'
p1431
sg141
(lp1432
g1324
ag1331
ag1338
ag1345
ag1352
ag1359
ag1366
ag1373
ag1380
ag1387
ag1394
ag1401
ag1408
asg143
Nsba(ibclass
BBasicBlock
p1433
(dp1434
g12
Nsg13
(lp1435
(ibclass
BInstr
p1436
(dp1437
g2
Nsg17
S'ADRP            X0, #unk_FFFFFFC00135EE91@PAGE'
p1438
sg19
S'606c00f0'
p1439
sg21
Vadrp x0, #0xd8f000
p1440
sg5
L18446743798837737112L
sg6
Nsg23
S'ADRP'
p1441
sg25
S'0xffffffc0005cf698L'
p1442
sg27
Nsba(ibclass
BInstr
p1443
(dp1444
g2
Nsg17
S'MOV             X1, X24'
p1445
sg19
S'e10318aa'
p1446
sg21
Vmov x1, x24
p1447
sg5
L18446743798837737116L
sg6
Nsg23
S'MOV'
p1448
sg25
S'0xffffffc0005cf69cL'
p1449
sg27
Nsba(ibclass
BInstr
p1450
(dp1451
g2
Nsg17
S'MOV             W2, W19'
p1452
sg19
S'e203132a'
p1453
sg21
Vmov w2, w19
p1454
sg5
L18446743798837737120L
sg6
Nsg23
S'MOV'
p1455
sg25
S'0xffffffc0005cf6a0L'
p1456
sg27
Nsba(ibclass
BInstr
p1457
(dp1458
g2
Nsg17
S'ADD             X0, X0, #unk_FFFFFFC00135EE91@PAGEOFF'
p1459
sg19
S'00443a91'
p1460
sg21
Vadd x0, x0, #0xe91
p1461
sg5
L18446743798837737124L
sg6
Nsg23
S'ADD'
p1462
sg25
S'0xffffffc0005cf6a4L'
p1463
sg27
Nsba(ibclass
BInstr
p1464
(dp1465
g2
Nsg17
S'BL              printk'
p1466
sg19
S'b3762194'
p1467
sg21
Vbl #0x85dacc
p1468
sg5
L18446743798837737128L
sg6
Nsg23
S'BL'
p1469
sg25
S'0xffffffc0005cf6a8L'
p1470
sg27
Nsba(ibclass
BInstr
p1471
(dp1472
g2
Nsg17
S'B               loc_FFFFFFC0005CF6C8'
p1473
sg19
S'07000014'
p1474
sg21
Vb #0x1c
p1475
sg5
L18446743798837737132L
sg6
Nsg23
g201
sg25
S'0xffffffc0005cf6acL'
p1476
sg27
Nsbasg112
(lp1477
S'ADRP reg, #func@PAGE'
p1478
aS'MOV reg, reg4'
p1479
aS'MOV reg, reg9'
p1480
aS'ADD reg, reg, #func@PAGEOFF'
p1481
aS'BL printk'
p1482
aS'B func'
p1483
asg127
Nsg5
S'0xffffffc0005cf698L'
p1484
sg129
(lp1485
S'0xffffffc0005cf664L'
p1486
asg6
Nsg131
(lp1487
S'0xffffffc0005cf6c8L'
p1488
asg135
Nsg136
Nsg137
S'5d9a5bb414b78e7c77444354ba1d37bb'
p1489
sg139
S'612cf29699dc353b126d0b26099906db'
p1490
sg141
(lp1491
g1441
ag1448
ag1455
ag1462
ag1469
ag201
asg143
Nsba(ibclass
BBasicBlock
p1492
(dp1493
g12
Nsg13
(lp1494
(ibclass
BInstr
p1495
(dp1496
g2
Nsg17
S'ADD             X1, X1, #__func__.24859@PAGEOFF; "qseecom_unregister_listener"'
p1497
sg19
S'21000b91'
p1498
sg21
Vadd x1, x1, #0x2c0
p1499
sg5
L18446743798837737136L
sg6
Nsg23
S'ADD'
p1500
sg25
S'0xffffffc0005cf6b0L'
p1501
sg27
Nsba(ibclass
BInstr
p1502
(dp1503
g2
Nsg17
S'ADRP            X0, #unk_FFFFFFC00135EEC8@PAGE'
p1504
sg19
S'606c00f0'
p1505
sg21
Vadrp x0, #0xd8f000
p1506
sg5
L18446743798837737140L
sg6
Nsg23
S'ADRP'
p1507
sg25
S'0xffffffc0005cf6b4L'
p1508
sg27
Nsba(ibclass
BInstr
p1509
(dp1510
g2
Nsg17
S'ADD             X0, X0, #unk_FFFFFFC00135EEC8@PAGEOFF'
p1511
sg19
S'00203b91'
p1512
sg21
Vadd x0, x0, #0xec8
p1513
sg5
L18446743798837737144L
sg6
Nsg23
S'ADD'
p1514
sg25
S'0xffffffc0005cf6b8L'
p1515
sg27
Nsba(ibclass
BInstr
p1516
(dp1517
g2
Nsg17
S'ADD             X1, X1, #0x450'
p1518
sg19
S'21401191'
p1519
sg21
Vadd x1, x1, #0x450
p1520
sg5
L18446743798837737148L
sg6
Nsg23
S'ADD'
p1521
sg25
S'0xffffffc0005cf6bcL'
p1522
sg27
Nsbasg112
(lp1523
S'ADD reg, reg, #__func__.24859@PAGEOFF'
p1524
aS'ADRP reg, #func@PAGE'
p1525
aS'ADD reg, reg, #func@PAGEOFF'
p1526
aS'ADD reg, reg, #0x450'
p1527
asg127
Nsg5
S'0xffffffc0005cf6b0L'
p1528
sg129
(lp1529
S'0xffffffc0005cf640L'
p1530
asg6
Nsg131
(lp1531
S'0xffffffc0005cf6c0L'
p1532
asg135
Nsg136
Nsg137
S'8689f368f3a7c8fa54a2431073096ab5'
p1533
sg139
S'2cc3aa1b98007f8d16825afb6b429dcd'
p1534
sg141
(lp1535
g1500
ag1507
ag1514
ag1521
asg143
Nsba(ibclass
BBasicBlock
p1536
(dp1537
g12
Nsg13
(lp1538
(ibclass
BInstr
p1539
(dp1540
g2
Nsg17
S'BL              printk'
p1541
sg19
S'ad762194'
p1542
sg21
Vbl #0x85dab4
p1543
sg5
L18446743798837737152L
sg6
Nsg23
S'BL'
p1544
sg25
S'0xffffffc0005cf6c0L'
p1545
sg27
Nsbasg112
(lp1546
S'BL printk'
p1547
asg127
Nsg5
S'0xffffffc0005cf6c0L'
p1548
sg129
(lp1549
S'0xffffffc0005cf614L'
p1550
aS'0xffffffc0005cf6b0L'
p1551
asg6
Nsg131
(lp1552
S'0xffffffc0005cf6c4L'
p1553
asg135
Nsg136
Nsg137
S'a6f5350f5a2b25a96d66757f761ce65c'
p1554
sg139
S'b280457d4d50e0c692efa3e09c742a19'
p1555
sg141
(lp1556
g1544
asg143
Nsba(ibclass
BBasicBlock
p1557
(dp1558
g12
Nsg13
(lp1559
(ibclass
BInstr
p1560
(dp1561
g2
Nsg17
S'MOV             W19, #0xFFFFFFF2'
p1562
sg19
S'b3018012'
p1563
sg21
Vmovn w19, #0xd
p1564
sg5
L18446743798837737156L
sg6
Nsg23
S'MOV'
p1565
sg25
S'0xffffffc0005cf6c4L'
p1566
sg27
Nsbasg112
(lp1567
S'MOV reg9, #0xFFFFFFF2'
p1568
asg127
Nsg5
S'0xffffffc0005cf6c4L'
p1569
sg129
(lp1570
S'0xffffffc0005cf64cL'
p1571
aS'0xffffffc0005cf6c0L'
p1572
asg6
Nsg131
(lp1573
S'0xffffffc0005cf6c8L'
p1574
asg135
Nsg136
Nsg137
S'17b32100aef1fc19670be7fd58bc85df'
p1575
sg139
S'522d5992e7e6e3bcf84a0389c0a76eb1'
p1576
sg141
(lp1577
g1565
asg143
Nsba(ibclass
BBasicBlock
p1578
(dp1579
g12
Nsg13
(lp1580
(ibclass
BInstr
p1581
(dp1582
g2
Nsg17
S'MOV             X0, X21'
p1583
sg19
S'e00315aa'
p1584
sg21
Vmov x0, x21
p1585
sg5
L18446743798837737160L
sg6
Nsg23
S'MOV'
p1586
sg25
S'0xffffffc0005cf6c8L'
p1587
sg27
Nsba(ibclass
BInstr
p1588
(dp1589
g2
Nsg17
S'BL              __qseecom_disable_clk_scale_down'
p1590
sg19
S'10f6ff97'
p1591
sg21
Vbl #0xffffffffffffd840
p1592
sg5
L18446743798837737164L
sg6
Nsg23
S'BL'
p1593
sg25
S'0xffffffc0005cf6ccL'
p1594
sg27
Nsbasg112
(lp1595
S'MOV reg, reg1'
p1596
aS'BL __qseecom_disable_clk_scale_down'
p1597
asg127
Nsg5
S'0xffffffc0005cf6c8L'
p1598
sg129
(lp1599
S'0xffffffc0005cf63cL'
p1600
aS'0xffffffc0005cf664L'
p1601
aS'0xffffffc0005cf698L'
p1602
aS'0xffffffc0005cf6c4L'
p1603
asg6
Nsg131
(lp1604
S'0xffffffc0005cf6d0L'
p1605
asg135
Nsg136
Nsg137
S'd358f8b13c87ca08ba6d4b865203703e'
p1606
sg139
S'a01a991ce3161d9860c0b256b36439cf'
p1607
sg141
(lp1608
g1586
ag1593
asg143
Nsba(ibclass
BBasicBlock
p1609
(dp1610
g12
Nsg13
(lp1611
(ibclass
BInstr
p1612
(dp1613
g2
Nsg17
S'ADD             X0, X23, #qseecom@PAGEOFF'
p1614
sg19
S'e0823e91'
p1615
sg21
Vadd x0, x23, #0xfa0
p1616
sg5
L18446743798837737168L
sg6
Nsg23
S'ADD'
p1617
sg25
S'0xffffffc0005cf6d0L'
p1618
sg27
Nsba(ibclass
BInstr
p1619
(dp1620
g2
Nsg17
S'LDRB            W0, [X0,#(byte_FFFFFFC001D090F0 - 0xFFFFFFC001D08FA0)]'
p1621
sg19
S'00404539'
p1622
sg21
Vldrb w0, [x0, #0x150]
p1623
sg5
L18446743798837737172L
sg6
Nsg23
S'LDR'
p1624
sg25
S'0xffffffc0005cf6d4L'
p1625
sg27
Nsba(ibclass
BInstr
p1626
(dp1627
g2
Nsg17
S'CBZ             W0, loc_FFFFFFC0005CF704'
p1628
sg19
S'60010034'
p1629
sg21
Vcbz w0, #0x2c
p1630
sg5
L18446743798837737176L
sg6
Nsg23
S'CBZ'
p1631
sg25
S'0xffffffc0005cf6d8L'
p1632
sg27
Nsbasg112
(lp1633
S'ADD reg, reg3, #qseecom@PAGEOFF'
p1634
aS'LDRB reg, mem'
p1635
aS'CBZ reg, func'
p1636
asg127
Nsg5
S'0xffffffc0005cf6d0L'
p1637
sg129
(lp1638
S'0xffffffc0005cf580L'
p1639
aS'0xffffffc0005cf6c8L'
p1640
asg6
Nsg131
(lp1641
S'0xffffffc0005cf6dcL'
p1642
aS'0xffffffc0005cf704L'
p1643
asg135
Nsg136
Nsg137
S'9610504e55845a7748c80205ead6d1a4'
p1644
sg139
S'c11da4acb28a73f0062afcb29941d0e8'
p1645
sg141
(lp1646
g1617
ag1624
ag1631
asg143
Nsba(ibclass
BBasicBlock
p1647
(dp1648
g12
Nsg13
(lp1649
(ibclass
BInstr
p1650
(dp1651
g2
Nsg17
S'ADRP            X24, #qseecom_plat_driver@PAGE'
p1652
sg19
S'589a00f0'
p1653
sg21
Vadrp x24, #0x134b000
p1654
sg5
L18446743798837737180L
sg6
Nsg23
S'ADRP'
p1655
sg25
S'0xffffffc0005cf6dcL'
p1656
sg27
Nsba(ibclass
BInstr
p1657
(dp1658
g2
Nsg17
S'ADD             X24, X24, #qseecom_plat_driver@PAGEOFF'
p1659
sg19
S'18c33191'
p1660
sg21
Vadd x24, x24, #0xc70
p1661
sg5
L18446743798837737184L
sg6
Nsg23
S'ADD'
p1662
sg25
S'0xffffffc0005cf6e0L'
p1663
sg27
Nsba(ibclass
BInstr
p1664
(dp1665
g2
Nsg17
S'ADD             X24, X24, #0xF8'
p1666
sg19
S'18e30391'
p1667
sg21
Vadd x24, x24, #0xf8
p1668
sg5
L18446743798837737188L
sg6
Nsg23
S'ADD'
p1669
sg25
S'0xffffffc0005cf6e4L'
p1670
sg27
Nsba(ibclass
BInstr
p1671
(dp1672
g2
Nsg17
S'MOV             X0, X24'
p1673
sg19
S'e00318aa'
p1674
sg21
Vmov x0, x24
p1675
sg5
L18446743798837737192L
sg6
Nsg23
S'MOV'
p1676
sg25
S'0xffffffc0005cf6e8L'
p1677
sg27
Nsba(ibclass
BInstr
p1678
(dp1679
g2
Nsg17
S'BL              mutex_lock'
p1680
sg19
S'04ab2194'
p1681
sg21
Vbl #0x86ac10
p1682
sg5
L18446743798837737196L
sg6
Nsg23
S'BL'
p1683
sg25
S'0xffffffc0005cf6ecL'
p1684
sg27
Nsba(ibclass
BInstr
p1685
(dp1686
g2
Nsg17
S'ADD             X0, X21, #0xA0'
p1687
sg19
S'a0820291'
p1688
sg21
Vadd x0, x21, #0xa0
p1689
sg5
L18446743798837737200L
sg6
Nsg23
S'ADD'
p1690
sg25
S'0xffffffc0005cf6f0L'
p1691
sg27
Nsba(ibclass
BInstr
p1692
(dp1693
g2
Nsg17
S'BL              qseecom_unregister_bus_bandwidth_needs.isra.1'
p1694
sg19
S'61f0ff97'
p1695
sg21
Vbl #0xffffffffffffc184
p1696
sg5
L18446743798837737204L
sg6
Nsg23
S'BL'
p1697
sg25
S'0xffffffc0005cf6f4L'
p1698
sg27
Nsba(ibclass
BInstr
p1699
(dp1700
g2
Nsg17
S'MOV             W19, W0'
p1701
sg19
S'f303002a'
p1702
sg21
Vmov w19, w0
p1703
sg5
L18446743798837737208L
sg6
Nsg23
S'MOV'
p1704
sg25
S'0xffffffc0005cf6f8L'
p1705
sg27
Nsba(ibclass
BInstr
p1706
(dp1707
g2
Nsg17
S'MOV             X0, X24'
p1708
sg19
S'e00318aa'
p1709
sg21
Vmov x0, x24
p1710
sg5
L18446743798837737212L
sg6
Nsg23
S'MOV'
p1711
sg25
S'0xffffffc0005cf6fcL'
p1712
sg27
Nsba(ibclass
BInstr
p1713
(dp1714
g2
Nsg17
S'BL              mutex_unlock'
p1715
sg19
S'42aa2194'
p1716
sg21
Vbl #0x86a908
p1717
sg5
L18446743798837737216L
sg6
Nsg23
S'BL'
p1718
sg25
S'0xffffffc0005cf700L'
p1719
sg27
Nsbasg112
(lp1720
S'ADRP reg4, #qseecom_plat_driver@PAGE'
p1721
aS'ADD reg4, reg4, #qseecom_plat_driver@PAGEOFF'
p1722
aS'ADD reg4, reg4, #0xF8'
p1723
aS'MOV reg, reg4'
p1724
aS'BL mutex_lock'
p1725
aS'ADD reg, reg1, #0xA0'
p1726
aS'BL qseecom_unregister_bus_bandwidth_needs.isra.1'
p1727
aS'MOV reg9, reg'
p1728
aS'MOV reg, reg4'
p1729
aS'BL mutex_unlock'
p1730
asg127
Nsg5
S'0xffffffc0005cf6dcL'
p1731
sg129
(lp1732
S'0xffffffc0005cf6d0L'
p1733
asg6
Nsg131
(lp1734
S'0xffffffc0005cf704L'
p1735
asg135
Nsg136
Nsg137
S'c87e8415ab073d6d89f66df69619312d'
p1736
sg139
S'329317855ad77690edabf303544d9076'
p1737
sg141
(lp1738
g1655
ag1662
ag1669
ag1676
ag1683
ag1690
ag1697
ag1704
ag1711
ag1718
asg143
Nsba(ibclass
BBasicBlock
p1739
(dp1740
g12
Nsg13
(lp1741
(ibclass
BInstr
p1742
(dp1743
g2
Nsg17
S'MOV             X0, #0x3F'
p1744
sg19
S'e00780d2'
p1745
sg21
Vmovz x0, #0x3f
p1746
sg5
L18446743798837737220L
sg6
Nsg23
S'MOV'
p1747
sg25
S'0xffffffc0005cf704L'
p1748
sg27
Nsba(ibclass
BInstr
p1749
(dp1750
g2
Nsg17
S'STR             X0, [X29,#arg_F0]'
p1751
sg19
S'a08300f9'
p1752
sg21
Vstr x0, [x29, #0x100]
p1753
sg5
L18446743798837737224L
sg6
Nsg23
S'STR'
p1754
sg25
S'0xffffffc0005cf708L'
p1755
sg27
Nsba(ibclass
BInstr
p1756
(dp1757
g2
Nsg17
S'LDR             X0, [X25,#0x10]'
p1758
sg19
S'200b40f9'
p1759
sg21
Vldr x0, [x25, #0x10]
p1760
sg5
L18446743798837737228L
sg6
Nsg23
S'LDR'
p1761
sg25
S'0xffffffc0005cf70cL'
p1762
sg27
Nsba(ibclass
BInstr
p1763
(dp1764
g2
Nsg17
S'MOV             X1, X22'
p1765
sg19
S'e10316aa'
p1766
sg21
Vmov x1, x22
p1767
sg5
L18446743798837737232L
sg6
Nsg23
S'MOV'
p1768
sg25
S'0xffffffc0005cf710L'
p1769
sg27
Nsba(ibclass
BInstr
p1770
(dp1771
g2
Nsg17
S'BL              set_cpus_allowed_ptr'
p1772
sg19
S'8efef197'
p1773
sg21
Vbl #0xffffffffffc7fa38
p1774
sg5
L18446743798837737236L
sg6
Nsg23
S'BL'
p1775
sg25
S'0xffffffc0005cf714L'
p1776
sg27
Nsba(ibclass
BInstr
p1777
(dp1778
g2
Nsg17
S'MOV             W2, W0'
p1779
sg19
S'e203002a'
p1780
sg21
Vmov w2, w0
p1781
sg5
L18446743798837737240L
sg6
Nsg23
S'MOV'
p1782
sg25
S'0xffffffc0005cf718L'
p1783
sg27
Nsba(ibclass
BInstr
p1784
(dp1785
g2
Nsg17
S'CBZ             W0, loc_FFFFFFC0005CF73C'
p1786
sg19
S'00010034'
p1787
sg21
Vcbz w0, #0x20
p1788
sg5
L18446743798837737244L
sg6
Nsg23
S'CBZ'
p1789
sg25
S'0xffffffc0005cf71cL'
p1790
sg27
Nsbasg112
(lp1791
S'MOV reg, #0x3F'
p1792
aS'STR reg, mem'
p1793
aS'LDR reg, mem'
p1794
aS'MOV reg, reg2'
p1795
aS'BL set_cpus_allowed_ptr'
p1796
aS'MOV reg, reg'
p1797
aS'CBZ reg, func'
p1798
asg127
Nsg5
S'0xffffffc0005cf704L'
p1799
sg129
(lp1800
S'0xffffffc0005cf594L'
p1801
aS'0xffffffc0005cf6d0L'
p1802
aS'0xffffffc0005cf6dcL'
p1803
asg6
Nsg131
(lp1804
S'0xffffffc0005cf720L'
p1805
aS'0xffffffc0005cf73cL'
p1806
asg135
Nsg136
Nsg137
S'562856e9b60d091b19ec3dafd373856f'
p1807
sg139
S'a2dcf34a4a17987c6776d331d67a3e2a'
p1808
sg141
(lp1809
g1747
ag1754
ag1761
ag1768
ag1775
ag1782
ag1789
asg143
Nsba(ibclass
BBasicBlock
p1810
(dp1811
g12
Nsg13
(lp1812
(ibclass
BInstr
p1813
(dp1814
g2
Nsg17
S'ADRP            X0, #unk_FFFFFFC00135EF02@PAGE'
p1815
sg19
S'606c00f0'
p1816
sg21
Vadrp x0, #0xd8f000
p1817
sg5
L18446743798837737248L
sg6
Nsg23
S'ADRP'
p1818
sg25
S'0xffffffc0005cf720L'
p1819
sg27
Nsba(ibclass
BInstr
p1820
(dp1821
g2
Nsg17
S'ADD             X0, X0, #unk_FFFFFFC00135EF02@PAGEOFF'
p1822
sg19
S'00083c91'
p1823
sg21
Vadd x0, x0, #0xf02
p1824
sg5
L18446743798837737252L
sg6
Nsg23
S'ADD'
p1825
sg25
S'0xffffffc0005cf724L'
p1826
sg27
Nsbasg112
(lp1827
S'ADRP reg, #func@PAGE'
p1828
aS'ADD reg, reg, #func@PAGEOFF'
p1829
asg127
Nsg5
S'0xffffffc0005cf720L'
p1830
sg129
(lp1831
S'0xffffffc0005cf704L'
p1832
asg6
Nsg131
(lp1833
S'0xffffffc0005cf728L'
p1834
asg135
Nsg136
Nsg137
S'4c330fd47d9d30794e360f434bcba16f'
p1835
sg139
S'5d0c12c1c2f0dc35884d116bfd571de9'
p1836
sg141
(lp1837
g1818
ag1825
asg143
Nsba(ibclass
BBasicBlock
p1838
(dp1839
g12
Nsg13
(lp1840
(ibclass
BInstr
p1841
(dp1842
g2
Nsg17
S'ADRP            X1, #__func__.24859@PAGE; "qseecom_unregister_listener"'
p1843
sg19
S'015300f0'
p1844
sg21
Vadrp x1, #0xa63000
p1845
sg5
L18446743798837737256L
sg6
Nsg23
S'ADRP'
p1846
sg25
S'0xffffffc0005cf728L'
p1847
sg27
Nsba(ibclass
BInstr
p1848
(dp1849
g2
Nsg17
S'ADD             X1, X1, #__func__.24859@PAGEOFF; "qseecom_unregister_listener"'
p1850
sg19
S'21000b91'
p1851
sg21
Vadd x1, x1, #0x2c0
p1852
sg5
L18446743798837737260L
sg6
Nsg23
S'ADD'
p1853
sg25
S'0xffffffc0005cf72cL'
p1854
sg27
Nsba(ibclass
BInstr
p1855
(dp1856
g2
Nsg17
S'ADD             X1, X1, #0x450'
p1857
sg19
S'21401191'
p1858
sg21
Vadd x1, x1, #0x450
p1859
sg5
L18446743798837737264L
sg6
Nsg23
S'ADD'
p1860
sg25
S'0xffffffc0005cf730L'
p1861
sg27
Nsba(ibclass
BInstr
p1862
(dp1863
g2
Nsg17
S'BL              printk'
p1864
sg19
S'90762194'
p1865
sg21
Vbl #0x85da40
p1866
sg5
L18446743798837737268L
sg6
Nsg23
S'BL'
p1867
sg25
S'0xffffffc0005cf734L'
p1868
sg27
Nsba(ibclass
BInstr
p1869
(dp1870
g2
Nsg17
S'MOV             W19, #0xFFFFFFF2'
p1871
sg19
S'b3018012'
p1872
sg21
Vmovn w19, #0xd
p1873
sg5
L18446743798837737272L
sg6
Nsg23
S'MOV'
p1874
sg25
S'0xffffffc0005cf738L'
p1875
sg27
Nsbasg112
(lp1876
S'ADRP reg, #__func__.24859@PAGE'
p1877
aS'ADD reg, reg, #__func__.24859@PAGEOFF'
p1878
aS'ADD reg, reg, #0x450'
p1879
aS'BL printk'
p1880
aS'MOV reg9, #0xFFFFFFF2'
p1881
asg127
Nsg5
S'0xffffffc0005cf728L'
p1882
sg129
(lp1883
S'0xffffffc0005cf528L'
p1884
aS'0xffffffc0005cf720L'
p1885
asg6
Nsg131
(lp1886
S'0xffffffc0005cf73cL'
p1887
asg135
Nsg136
Nsg137
S'58035618949cc4b355a7759be5f4a5ea'
p1888
sg139
S'd7ef4d7e92f3b05bbef523332c5fa5f2'
p1889
sg141
(lp1890
g1846
ag1853
ag1860
ag1867
ag1874
asg143
Nsba(ibclass
BBasicBlock
p1891
(dp1892
g12
Nsg13
(lp1893
(ibclass
BInstr
p1894
(dp1895
g2
Nsg17
S'ADD             X23, X23, #qseecom@PAGEOFF'
p1896
sg19
S'f7823e91'
p1897
sg21
Vadd x23, x23, #0xfa0
p1898
sg5
L18446743798837737276L
sg6
Nsg23
S'ADD'
p1899
sg25
S'0xffffffc0005cf73cL'
p1900
sg27
Nsba(ibclass
BInstr
p1901
(dp1902
g2
Nsg17
S'LDR             X0, [X23]'
p1903
sg19
S'e00240f9'
p1904
sg21
Vldr x0, [x23]
p1905
sg5
L18446743798837737280L
sg6
Nsg23
S'LDR'
p1906
sg25
S'0xffffffc0005cf740L'
p1907
sg27
Nsba(ibclass
BInstr
p1908
(dp1909
g2
Nsg17
S'MOV             X1, X20'
p1910
sg19
S'e10314aa'
p1911
sg21
Vmov x1, x20
p1912
sg5
L18446743798837737284L
sg6
Nsg23
S'MOV'
p1913
sg25
S'0xffffffc0005cf744L'
p1914
sg27
Nsba(ibclass
BInstr
p1915
(dp1916
g2
Nsg17
S'BL              ion_free'
p1917
sg19
S'15b90c94'
p1918
sg21
Vbl #0x32e454
p1919
sg5
L18446743798837737288L
sg6
Nsg23
S'BL'
p1920
sg25
S'0xffffffc0005cf748L'
p1921
sg27
Nsbasg112
(lp1922
S'ADD reg3, reg3, #qseecom@PAGEOFF'
p1923
aS'LDR reg, mem'
p1924
aS'MOV reg, reg0'
p1925
aS'BL ion_free'
p1926
asg127
Nsg5
S'0xffffffc0005cf73cL'
p1927
sg129
(lp1928
S'0xffffffc0005cf704L'
p1929
aS'0xffffffc0005cf728L'
p1930
asg6
Nsg131
(lp1931
S'0xffffffc0005cf74cL'
p1932
asg135
Nsg136
Nsg137
S'9a45a98926f4f4d2d1b17fa5cd1b0327'
p1933
sg139
S'1909f59ed52d3cc33be0ed3caf0d6fac'
p1934
sg141
(lp1935
g1899
ag1906
ag1913
ag1920
asg143
Nsba(ibclass
BBasicBlock
p1936
(dp1937
g12
Nsg13
(lp1938
(ibclass
BInstr
p1939
(dp1940
g2
Nsg17
S'MOV             W0, W19'
p1941
sg19
S'e003132a'
p1942
sg21
Vmov w0, w19
p1943
sg5
L18446743798837737292L
sg6
Nsg23
S'MOV'
p1944
sg25
S'0xffffffc0005cf74cL'
p1945
sg27
Nsbasg112
(lp1946
S'MOV reg, reg9'
p1947
asg127
Nsg5
S'0xffffffc0005cf74cL'
p1948
sg129
(lp1949
S'0xffffffc0005cf508L'
p1950
aS'0xffffffc0005cf73cL'
p1951
asg6
Nsg131
(lp1952
S'0xffffffc0005cf750L'
p1953
asg135
Nsg136
Nsg137
S'17b32100aef1fc19670be7fd58bc85df'
p1954
sg139
S'a4b54317fbf3a1e024a6b7f7c73546da'
p1955
sg141
(lp1956
g1944
asg143
Nsba(ibclass
BBasicBlock
p1957
(dp1958
g12
Nsg13
(lp1959
(ibclass
BInstr
p1960
(dp1961
g2
Nsg17
S'LDP             X19, X20, [SP,#0x110+var_100]'
p1962
sg19
S'f35341a9'
p1963
sg21
Vldp x19, x20, [sp, #0x10]
p1964
sg5
L18446743798837737296L
sg6
Nsg23
S'LDP'
p1965
sg25
S'0xffffffc0005cf750L'
p1966
sg27
Nsba(ibclass
BInstr
p1967
(dp1968
g2
Nsg17
S'LDP             X21, X22, [SP,#0x110+var_F0]'
p1969
sg19
S'f55b42a9'
p1970
sg21
Vldp x21, x22, [sp, #0x20]
p1971
sg5
L18446743798837737300L
sg6
Nsg23
S'LDP'
p1972
sg25
S'0xffffffc0005cf754L'
p1973
sg27
Nsba(ibclass
BInstr
p1974
(dp1975
g2
Nsg17
S'LDP             X23, X24, [SP,#0x110+var_E0]'
p1976
sg19
S'f76343a9'
p1977
sg21
Vldp x23, x24, [sp, #0x30]
p1978
sg5
L18446743798837737304L
sg6
Nsg23
S'LDP'
p1979
sg25
S'0xffffffc0005cf758L'
p1980
sg27
Nsba(ibclass
BInstr
p1981
(dp1982
g2
Nsg17
S'LDP             X25, X26, [SP,#0x110+var_D0]'
p1983
sg19
S'f96b44a9'
p1984
sg21
Vldp x25, x26, [sp, #0x40]
p1985
sg5
L18446743798837737308L
sg6
Nsg23
S'LDP'
p1986
sg25
S'0xffffffc0005cf75cL'
p1987
sg27
Nsba(ibclass
BInstr
p1988
(dp1989
g2
Nsg17
S'LDP             X29, X30, [SP+0x110+var_110],#0x120'
p1990
sg19
S'fd7bd2a8'
p1991
sg21
Vldp x29, x30, [sp], #0x120
p1992
sg5
L18446743798837737312L
sg6
Nsg23
S'LDP'
p1993
sg25
S'0xffffffc0005cf760L'
p1994
sg27
Nsba(ibclass
BInstr
p1995
(dp1996
g2
Nsg17
S'RET'
p1997
sg19
S'c0035fd6'
p1998
sg21
Vret 
p1999
sg5
L18446743798837737316L
sg6
Nsg23
S'RET'
p2000
sg25
S'0xffffffc0005cf764L'
p2001
sg27
Nsbasg112
(lp2002
S'LDP reg9, reg0, mem'
p2003
aS'LDP reg1, reg2, mem'
p2004
aS'LDP reg3, reg4, mem'
p2005
aS'LDP reg5, reg6, mem'
p2006
aS'LDP reg9, reg0, mem,#0x120'
p2007
ag1997
asg127
Nsg5
S'0xffffffc0005cf750L'
p2008
sg129
(lp2009
S'0xffffffc0005cf488L'
p2010
aS'0xffffffc0005cf4ccL'
p2011
aS'0xffffffc0005cf74cL'
p2012
asg6
Nsg131
(lp2013
sg135
Nsg136
Nsg137
S'be6cb7dbf904825cdfc5591720269ab2'
p2014
sg139
S'9d186f2305aca8f6341badfcd0d2bccd'
p2015
sg141
(lp2016
g1965
ag1972
ag1979
ag1986
ag1993
ag2000
asg143
Nsbasb.