(ibclass
BFunc
p0
(dp1
S'hash'
p2
NsS'name'
p3
S'smp2p_int_stats'
p4
sS'start_address'
p5
L18446743798836889932L
sS'flag'
p6
NsS'program'
p7
NsS'bbs'
p8
(lp9
(ibclass
BBasicBlock
p10
(dp11
S'function'
p12
NsS'binstrs'
p13
(lp14
(ibclass
BInstr
p15
(dp16
g2
NsS'disasm'
p17
S'SUB             SP, SP, #0x40'
p18
sS'bytes'
p19
S'ff0301d1'
p20
sS'disasm_striped'
p21
Vsub sp, sp, #0x40
p22
sg5
L18446743798836889932L
sg6
NsS'mnem'
p23
S'SUB'
p24
sS'address'
p25
S'0xffffffc00050094cL'
p26
sS'basicblock'
p27
Nsba(ibclass
BInstr
p28
(dp29
g2
Nsg17
S'STP             X29, X30, [SP,#0x40+var_30]'
p30
sg19
S'fd7b01a9'
p31
sg21
Vstp x29, x30, [sp, #0x10]
p32
sg5
L18446743798836889936L
sg6
Nsg23
S'STP'
p33
sg25
S'0xffffffc000500950L'
p34
sg27
Nsba(ibclass
BInstr
p35
(dp36
g2
Nsg17
S'ADD             X29, SP, #0x40+var_30'
p37
sg19
S'fd430091'
p38
sg21
Vadd x29, sp, #0x10
p39
sg5
L18446743798836889940L
sg6
Nsg23
S'ADD'
p40
sg25
S'0xffffffc000500954L'
p41
sg27
Nsba(ibclass
BInstr
p42
(dp43
g2
Nsg17
S'STP             X19, X20, [SP,#0x40+var_20]'
p44
sg19
S'f35302a9'
p45
sg21
Vstp x19, x20, [sp, #0x20]
p46
sg5
L18446743798836889944L
sg6
Nsg23
S'STP'
p47
sg25
S'0xffffffc000500958L'
p48
sg27
Nsba(ibclass
BInstr
p49
(dp50
g2
Nsg17
S'STP             X21, X22, [SP,#0x40+var_10]'
p51
sg19
S'f55b03a9'
p52
sg21
Vstp x21, x22, [sp, #0x30]
p53
sg5
L18446743798836889948L
sg6
Nsg23
S'STP'
p54
sg25
S'0xffffffc00050095cL'
p55
sg27
Nsba(ibclass
BInstr
p56
(dp57
g2
Nsg17
S'MOV             X21, X0'
p58
sg19
S'f50300aa'
p59
sg21
Vmov x21, x0
p60
sg5
L18446743798836889952L
sg6
Nsg23
S'MOV'
p61
sg25
S'0xffffffc000500960L'
p62
sg27
Nsba(ibclass
BInstr
p63
(dp64
g2
Nsg17
S'BL              smp2p_get_interrupt_config'
p65
sg19
S'f7f9ff97'
p66
sg21
Vbl #0xffffffffffffe7dc
p67
sg5
L18446743798836889956L
sg6
Nsg23
S'BL'
p68
sg25
S'0xffffffc000500964L'
p69
sg27
Nsba(ibclass
BInstr
p70
(dp71
g2
Nsg17
S'MOV             X19, X0'
p72
sg19
S'f30300aa'
p73
sg21
Vmov x19, x0
p74
sg5
L18446743798836889960L
sg6
Nsg23
S'MOV'
p75
sg25
S'0xffffffc000500968L'
p76
sg27
Nsba(ibclass
BInstr
p77
(dp78
g2
Nsg17
S'CBZ             X0, loc_FFFFFFC0005009E8'
p79
sg19
S'e00300b4'
p80
sg21
Vcbz x0, #0x7c
p81
sg5
L18446743798836889964L
sg6
Nsg23
S'CBZ'
p82
sg25
S'0xffffffc00050096cL'
p83
sg27
NsbasS'disasm_list'
p84
(lp85
S'SUB SP, SP, #0x40'
p86
aS'STP reg9, reg0, mem'
p87
aS'ADD reg9, SP, #0x40+var_30'
p88
aS'STP reg9, reg0, mem'
p89
aS'STP reg1, reg2, mem'
p90
aS'MOV reg1, reg'
p91
aS'BL smp2p_get_interrupt_config'
p92
aS'MOV reg9, reg'
p93
aS'CBZ reg, func'
p94
asS'end_address'
p95
Nsg5
S'0xffffffc00050094cL'
p96
sS'preds'
p97
(lp98
sg6
NsS'succs'
p99
(lp100
S'0xffffffc000500970L'
p101
aS'0xffffffc0005009e8L'
p102
asS'hash_v3'
p103
NsS'flag_v2'
p104
NsS'hash_v1'
p105
S'6c438c0d7835a22785bb57779cac3352'
p106
sS'hash_v2'
p107
S'dd96a7560ca79c95173fae7c09f2e2a1'
p108
sS'mnen_list'
p109
(lp110
g24
ag33
ag40
ag47
ag54
ag61
ag68
ag75
ag82
asS'neighbour_disasm_list'
p111
Nsba(ibclass
BBasicBlock
p112
(dp113
g12
Nsg13
(lp114
(ibclass
BInstr
p115
(dp116
g2
Nsg17
S'ADRP            X1, #aProcessorIncom@PAGE; "| Processor | Incoming Id | Incoming # "...'
p117
sg19
S'c17100b0'
p118
sg21
Vadrp x1, #0xe39000
p119
sg5
L18446743798836889968L
sg6
Nsg23
S'ADRP'
p120
sg25
S'0xffffffc000500970L'
p121
sg27
Nsba(ibclass
BInstr
p122
(dp123
g2
Nsg17
S'ADD             X1, X1, #aProcessorIncom@PAGEOFF; "| Processor | Incoming Id | Incoming # "...'
p124
sg19
S'21d83191'
p125
sg21
Vadd x1, x1, #0xc76
p126
sg5
L18446743798836889972L
sg6
Nsg23
S'ADD'
p127
sg25
S'0xffffffc000500974L'
p128
sg27
Nsba(ibclass
BInstr
p129
(dp130
g2
Nsg17
S'MOV             X0, X21'
p131
sg19
S'e00315aa'
p132
sg21
Vmov x0, x21
p133
sg5
L18446743798836889976L
sg6
Nsg23
S'MOV'
p134
sg25
S'0xffffffc000500978L'
p135
sg27
Nsba(ibclass
BInstr
p136
(dp137
g2
Nsg17
S'BL              seq_puts'
p138
sg19
S'494ff897'
p139
sg21
Vbl #0xffffffffffe13d24
p140
sg5
L18446743798836889980L
sg6
Nsg23
S'BL'
p141
sg25
S'0xffffffc00050097cL'
p142
sg27
Nsba(ibclass
BInstr
p143
(dp144
g2
Nsg17
S'ADRP            X1, #aOutgoingBasePt@PAGE; " Outgoing # | Base Ptr |   Mask   |\\n"'
p145
sg19
S'c17100b0'
p146
sg21
Vadrp x1, #0xe39000
p147
sg5
L18446743798836889984L
sg6
Nsg23
S'ADRP'
p148
sg25
S'0xffffffc000500980L'
p149
sg27
Nsba(ibclass
BInstr
p150
(dp151
g2
Nsg17
S'MOV             X0, X21'
p152
sg19
S'e00315aa'
p153
sg21
Vmov x0, x21
p154
sg5
L18446743798836889988L
sg6
Nsg23
S'MOV'
p155
sg25
S'0xffffffc000500984L'
p156
sg27
Nsba(ibclass
BInstr
p157
(dp158
g2
Nsg17
S'ADD             X1, X1, #aOutgoingBasePt@PAGEOFF; " Outgoing # | Base Ptr |   Mask   |\\n"'
p159
sg19
S'217c3291'
p160
sg21
Vadd x1, x1, #0xc9f
p161
sg5
L18446743798836889992L
sg6
Nsg23
S'ADD'
p162
sg25
S'0xffffffc000500988L'
p163
sg27
Nsba(ibclass
BInstr
p164
(dp165
g2
Nsg17
S'ADRP            X22, #a5sD11u10u10uP0@PAGE; "| %5s (%d) | %11u | %10u | %10u | %p | "...'
p166
sg19
S'd67100b0'
p167
sg21
Vadrp x22, #0xe39000
p168
sg5
L18446743798836889996L
sg6
Nsg23
S'ADRP'
p169
sg25
S'0xffffffc00050098cL'
p170
sg27
Nsba(ibclass
BInstr
p171
(dp172
g2
Nsg17
S'BL              seq_puts'
p173
sg19
S'444ff897'
p174
sg21
Vbl #0xffffffffffe13d10
p175
sg5
L18446743798836890000L
sg6
Nsg23
S'BL'
p176
sg25
S'0xffffffc000500990L'
p177
sg27
Nsba(ibclass
BInstr
p178
(dp179
g2
Nsg17
S'MOV             W20, #0'
p180
sg19
S'14008052'
p181
sg21
Vmovz w20, #0
p182
sg5
L18446743798836890004L
sg6
Nsg23
S'MOV'
p183
sg25
S'0xffffffc000500994L'
p184
sg27
Nsba(ibclass
BInstr
p185
(dp186
g2
Nsg17
S'ADD             X22, X22, #a5sD11u10u10uP0@PAGEOFF; "| %5s (%d) | %11u | %10u | %10u | %p | "...'
p187
sg19
S'd6123391'
p188
sg21
Vadd x22, x22, #0xcc4
p189
sg5
L18446743798836890008L
sg6
Nsg23
S'ADD'
p190
sg25
S'0xffffffc000500998L'
p191
sg27
Nsbasg84
(lp192
S'ADRP reg, #aProcessorIncom@PAGE'
p193
aS'ADD reg, reg, #aProcessorIncom@PAGEOFF'
p194
aS'MOV reg, reg1'
p195
aS'BL seq_puts'
p196
aS'ADRP reg, #aOutgoingBasePt@PAGE'
p197
aS'MOV reg, reg1'
p198
aS'ADD reg, reg, #aOutgoingBasePt@PAGEOFF'
p199
aS'ADRP reg2, #a5sD11u10u10uP0@PAGE'
p200
aS'BL seq_puts'
p201
aS'MOV reg0, #0'
p202
aS'ADD reg2, reg2, #a5sD11u10u10uP0@PAGEOFF'
p203
asg95
Nsg5
S'0xffffffc000500970L'
p204
sg97
(lp205
S'0xffffffc00050094cL'
p206
asg6
Nsg99
(lp207
S'0xffffffc00050099cL'
p208
asg103
Nsg104
Nsg105
S'5d60aff64f9d074435b1e4ecde9c5b8d'
p209
sg107
S'7483bacf52793e6d3db0fb14f5ecabc6'
p210
sg109
(lp211
g120
ag127
ag134
ag141
ag148
ag155
ag162
ag169
ag176
ag183
ag190
asg111
Nsba(ibclass
BBasicBlock
p212
(dp213
g12
Nsg13
(lp214
(ibclass
BInstr
p215
(dp216
g2
Nsg17
S'LDRB            W0, [X19]'
p217
sg19
S'60024039'
p218
sg21
Vldrb w0, [x19]
p219
sg5
L18446743798836890012L
sg6
Nsg23
S'LDR'
p220
sg25
S'0xffffffc00050099cL'
p221
sg27
Nsba(ibclass
BInstr
p222
(dp223
g2
Nsg17
S'CBNZ            W0, loc_FFFFFFC0005009AC'
p224
sg19
S'60000035'
p225
sg21
Vcbnz w0, #0xc
p226
sg5
L18446743798836890016L
sg6
Nsg23
S'CBNZ'
p227
sg25
S'0xffffffc0005009a0L'
p228
sg27
Nsbasg84
(lp229
S'LDRB reg, mem'
p230
aS'CBNZ reg, func'
p231
asg95
Nsg5
S'0xffffffc00050099cL'
p232
sg97
(lp233
S'0xffffffc000500970L'
p234
aS'0xffffffc0005009d8L'
p235
asg6
Nsg99
(lp236
S'0xffffffc0005009a4L'
p237
aS'0xffffffc0005009acL'
p238
asg103
Nsg104
Nsg105
S'5522ad3e8b25e3a8f9013bb9571723e7'
p239
sg107
S'f9160d1e8eafc8a047a043d8e9df4220'
p240
sg109
(lp241
g220
ag227
asg111
Nsba(ibclass
BBasicBlock
p242
(dp243
g12
Nsg13
(lp244
(ibclass
BInstr
p245
(dp246
g2
Nsg17
S'CMP             W20, #7'
p247
sg19
S'9f1e0071'
p248
sg21
Vcmp w20, #7
p249
sg5
L18446743798836890020L
sg6
Nsg23
S'CMP'
p250
sg25
S'0xffffffc0005009a4L'
p251
sg27
Nsba(ibclass
BInstr
p252
(dp253
g2
Nsg17
S'B.NE            loc_FFFFFFC0005009D8'
p254
sg19
S'81010054'
p255
sg21
Vb.ne #0x30
p256
sg5
L18446743798836890024L
sg6
Nsg23
S'B'
p257
sg25
S'0xffffffc0005009a8L'
p258
sg27
Nsbasg84
(lp259
S'CMP reg0, #7'
p260
aS'B.NE func'
p261
asg95
Nsg5
S'0xffffffc0005009a4L'
p262
sg97
(lp263
S'0xffffffc00050099cL'
p264
asg6
Nsg99
(lp265
S'0xffffffc0005009acL'
p266
aS'0xffffffc0005009d8L'
p267
asg103
Nsg104
Nsg105
S'c78fd620a449e3c979d3f3ec12d4ee88'
p268
sg107
S'6bac7c19d3e3c35de1cb830491ecae4d'
p269
sg109
(lp270
g250
ag257
asg111
Nsba(ibclass
BBasicBlock
p271
(dp272
g12
Nsg13
(lp273
(ibclass
BInstr
p274
(dp275
g2
Nsg17
S'LDR             W0, [X19,#0x10]'
p276
sg19
S'601240b9'
p277
sg21
Vldr w0, [x19, #0x10]
p278
sg5
L18446743798836890028L
sg6
Nsg23
S'LDR'
p279
sg25
S'0xffffffc0005009acL'
p280
sg27
Nsba(ibclass
BInstr
p281
(dp282
g2
Nsg17
S'MOV             X1, X22'
p283
sg19
S'e10316aa'
p284
sg21
Vmov x1, x22
p285
sg5
L18446743798836890032L
sg6
Nsg23
S'MOV'
p286
sg25
S'0xffffffc0005009b0L'
p287
sg27
Nsba(ibclass
BInstr
p288
(dp289
g2
Nsg17
S'STR             W0, [SP,#0x40+var_40]'
p290
sg19
S'e00300b9'
p291
sg21
Vstr w0, [sp]
p292
sg5
L18446743798836890036L
sg6
Nsg23
S'STR'
p293
sg25
S'0xffffffc0005009b4L'
p294
sg27
Nsba(ibclass
BInstr
p295
(dp296
g2
Nsg17
S'LDR             X2, [X19,#0x18]'
p297
sg19
S'620e40f9'
p298
sg21
Vldr x2, [x19, #0x18]
p299
sg5
L18446743798836890040L
sg6
Nsg23
S'LDR'
p300
sg25
S'0xffffffc0005009b8L'
p301
sg27
Nsba(ibclass
BInstr
p302
(dp303
g2
Nsg17
S'LDR             W4, [X19,#0x14]'
p304
sg19
S'641640b9'
p305
sg21
Vldr w4, [x19, #0x14]
p306
sg5
L18446743798836890044L
sg6
Nsg23
S'LDR'
p307
sg25
S'0xffffffc0005009bcL'
p308
sg27
Nsba(ibclass
BInstr
p309
(dp310
g2
Nsg17
S'LDR             W5, [X19,#0x20]'
p311
sg19
S'652240b9'
p312
sg21
Vldr w5, [x19, #0x20]
p313
sg5
L18446743798836890048L
sg6
Nsg23
S'LDR'
p314
sg25
S'0xffffffc0005009c0L'
p315
sg27
Nsba(ibclass
BInstr
p316
(dp317
g2
Nsg17
S'LDR             W6, [X19,#0x24]'
p318
sg19
S'662640b9'
p319
sg21
Vldr w6, [x19, #0x24]
p320
sg5
L18446743798836890052L
sg6
Nsg23
S'LDR'
p321
sg25
S'0xffffffc0005009c4L'
p322
sg27
Nsba(ibclass
BInstr
p323
(dp324
g2
Nsg17
S'LDR             X7, [X19,#8]'
p325
sg19
S'670640f9'
p326
sg21
Vldr x7, [x19, #8]
p327
sg5
L18446743798836890056L
sg6
Nsg23
S'LDR'
p328
sg25
S'0xffffffc0005009c8L'
p329
sg27
Nsba(ibclass
BInstr
p330
(dp331
g2
Nsg17
S'MOV             X0, X21'
p332
sg19
S'e00315aa'
p333
sg21
Vmov x0, x21
p334
sg5
L18446743798836890060L
sg6
Nsg23
S'MOV'
p335
sg25
S'0xffffffc0005009ccL'
p336
sg27
Nsba(ibclass
BInstr
p337
(dp338
g2
Nsg17
S'MOV             W3, W20'
p339
sg19
S'e303142a'
p340
sg21
Vmov w3, w20
p341
sg5
L18446743798836890064L
sg6
Nsg23
S'MOV'
p342
sg25
S'0xffffffc0005009d0L'
p343
sg27
Nsba(ibclass
BInstr
p344
(dp345
g2
Nsg17
S'BL              seq_printf'
p346
sg19
S'8e4df897'
p347
sg21
Vbl #0xffffffffffe13638
p348
sg5
L18446743798836890068L
sg6
Nsg23
S'BL'
p349
sg25
S'0xffffffc0005009d4L'
p350
sg27
Nsbasg84
(lp351
S'LDR reg, mem'
p352
aS'MOV reg, reg2'
p353
aS'STR reg, mem'
p354
aS'LDR reg, mem'
p355
aS'LDR reg, mem'
p356
aS'LDR reg, mem'
p357
aS'LDR reg, mem'
p358
aS'LDR reg, mem'
p359
aS'MOV reg, reg1'
p360
aS'MOV reg, reg0'
p361
aS'BL seq_printf'
p362
asg95
Nsg5
S'0xffffffc0005009acL'
p363
sg97
(lp364
S'0xffffffc00050099cL'
p365
aS'0xffffffc0005009a4L'
p366
asg6
Nsg99
(lp367
S'0xffffffc0005009d8L'
p368
asg103
Nsg104
Nsg105
S'ae9b77b2cbce54d5c557f1d3f54a7632'
p369
sg107
S'a0e5d6df3796bb9186e875de9b2685db'
p370
sg109
(lp371
g279
ag286
ag293
ag300
ag307
ag314
ag321
ag328
ag335
ag342
ag349
asg111
Nsba(ibclass
BBasicBlock
p372
(dp373
g12
Nsg13
(lp374
(ibclass
BInstr
p375
(dp376
g2
Nsg17
S'ADD             W20, W20, #1'
p377
sg19
S'94060011'
p378
sg21
Vadd w20, w20, #1
p379
sg5
L18446743798836890072L
sg6
Nsg23
S'ADD'
p380
sg25
S'0xffffffc0005009d8L'
p381
sg27
Nsba(ibclass
BInstr
p382
(dp383
g2
Nsg17
S'CMP             W20, #8'
p384
sg19
S'9f220071'
p385
sg21
Vcmp w20, #8
p386
sg5
L18446743798836890076L
sg6
Nsg23
S'CMP'
p387
sg25
S'0xffffffc0005009dcL'
p388
sg27
Nsba(ibclass
BInstr
p389
(dp390
g2
Nsg17
S'ADD             X19, X19, #0x28'
p391
sg19
S'73a20091'
p392
sg21
Vadd x19, x19, #0x28
p393
sg5
L18446743798836890080L
sg6
Nsg23
S'ADD'
p394
sg25
S'0xffffffc0005009e0L'
p395
sg27
Nsba(ibclass
BInstr
p396
(dp397
g2
Nsg17
S'B.NE            loc_FFFFFFC00050099C'
p398
sg19
S'c1fdff54'
p399
sg21
Vb.ne #0xffffffffffffffb8
p400
sg5
L18446743798836890084L
sg6
Nsg23
g257
sg25
S'0xffffffc0005009e4L'
p401
sg27
Nsbasg84
(lp402
S'ADD reg0, reg0, #1'
p403
aS'CMP reg0, #8'
p404
aS'ADD reg9, reg9, #0x28'
p405
aS'B.NE func'
p406
asg95
Nsg5
S'0xffffffc0005009d8L'
p407
sg97
(lp408
S'0xffffffc0005009a4L'
p409
aS'0xffffffc0005009acL'
p410
asg6
Nsg99
(lp411
S'0xffffffc00050099cL'
p412
aS'0xffffffc0005009e8L'
p413
asg103
Nsg104
Nsg105
S'b161ae9850549d8b6ae2db45834e8f71'
p414
sg107
S'25b0367e222707bab69504956950a1a8'
p415
sg109
(lp416
g380
ag387
ag394
ag257
asg111
Nsba(ibclass
BBasicBlock
p417
(dp418
g12
Nsg13
(lp419
(ibclass
BInstr
p420
(dp421
g2
Nsg17
S'SUB             SP, X29, #0x10'
p422
sg19
S'bf4300d1'
p423
sg21
Vsub sp, x29, #0x10
p424
sg5
L18446743798836890088L
sg6
Nsg23
S'SUB'
p425
sg25
S'0xffffffc0005009e8L'
p426
sg27
Nsba(ibclass
BInstr
p427
(dp428
g2
Nsg17
S'LDP             X19, X20, [SP,#0x40+var_20]'
p429
sg19
S'f35342a9'
p430
sg21
Vldp x19, x20, [sp, #0x20]
p431
sg5
L18446743798836890092L
sg6
Nsg23
S'LDP'
p432
sg25
S'0xffffffc0005009ecL'
p433
sg27
Nsba(ibclass
BInstr
p434
(dp435
g2
Nsg17
S'LDP             X21, X22, [SP,#0x40+var_10]'
p436
sg19
S'f55b43a9'
p437
sg21
Vldp x21, x22, [sp, #0x30]
p438
sg5
L18446743798836890096L
sg6
Nsg23
S'LDP'
p439
sg25
S'0xffffffc0005009f0L'
p440
sg27
Nsba(ibclass
BInstr
p441
(dp442
g2
Nsg17
S'LDP             X29, X30, [SP,#0x40+var_30]'
p443
sg19
S'fd7b41a9'
p444
sg21
Vldp x29, x30, [sp, #0x10]
p445
sg5
L18446743798836890100L
sg6
Nsg23
S'LDP'
p446
sg25
S'0xffffffc0005009f4L'
p447
sg27
Nsba(ibclass
BInstr
p448
(dp449
g2
Nsg17
S'ADD             SP, SP, #0x40'
p450
sg19
S'ff030191'
p451
sg21
Vadd sp, sp, #0x40
p452
sg5
L18446743798836890104L
sg6
Nsg23
S'ADD'
p453
sg25
S'0xffffffc0005009f8L'
p454
sg27
Nsba(ibclass
BInstr
p455
(dp456
g2
Nsg17
S'RET'
p457
sg19
S'c0035fd6'
p458
sg21
Vret 
p459
sg5
L18446743798836890108L
sg6
Nsg23
S'RET'
p460
sg25
S'0xffffffc0005009fcL'
p461
sg27
Nsbasg84
(lp462
S'SUB SP, reg9, #0x10'
p463
aS'LDP reg9, reg0, mem'
p464
aS'LDP reg1, reg2, mem'
p465
aS'LDP reg9, reg0, mem'
p466
aS'ADD SP, SP, #0x40'
p467
ag457
asg95
Nsg5
S'0xffffffc0005009e8L'
p468
sg97
(lp469
S'0xffffffc00050094cL'
p470
aS'0xffffffc0005009d8L'
p471
asg6
Nsg99
(lp472
sg103
Nsg104
Nsg105
S'2597dacfcbc29eea9119f29707e8b5d2'
p473
sg107
S'd1c113a701098e01d4124600ea8c528a'
p474
sg109
(lp475
g425
ag432
ag439
ag446
ag453
ag460
asg111
Nsbasb.