(ibclass
BFunc
p0
(dp1
S'hash'
p2
NsS'name'
p3
S'spmi_add_device'
p4
sS'start_address'
p5
L18446743798838112576L
sS'flag'
p6
NsS'program'
p7
NsS'bbs'
p8
(lp9
(ibclass
BBasicBlock
p10
(dp11
S'function'
p12
NsS'binstrs'
p13
(lp14
(ibclass
BInstr
p15
(dp16
g2
NsS'disasm'
p17
S'STP             X29, X30, [SP,#-0x10+var_10]!'
p18
sS'bytes'
p19
S'fd7bbea9'
p20
sS'disasm_striped'
p21
Vstp x29, x30, [sp, #-0x20]!
p22
sg5
L18446743798838112576L
sg6
NsS'mnem'
p23
S'STP'
p24
sS'address'
p25
S'0xffffffc00062b140L'
p26
sS'basicblock'
p27
Nsba(ibclass
BInstr
p28
(dp29
g2
Nsg17
S'MOV             X29, SP'
p30
sg19
S'fd030091'
p31
sg21
Vmov x29, sp
p32
sg5
L18446743798838112580L
sg6
Nsg23
S'MOV'
p33
sg25
S'0xffffffc00062b144L'
p34
sg27
Nsba(ibclass
BInstr
p35
(dp36
g2
Nsg17
S'STP             X19, X20, [SP,#0x10+var_s0]'
p37
sg19
S'f35301a9'
p38
sg21
Vstp x19, x20, [sp, #0x10]
p39
sg5
L18446743798838112584L
sg6
Nsg23
S'STP'
p40
sg25
S'0xffffffc00062b148L'
p41
sg27
Nsba(ibclass
BInstr
p42
(dp43
g2
Nsg17
S'MOV             X19, X0'
p44
sg19
S'f30300aa'
p45
sg21
Vmov x19, x0
p46
sg5
L18446743798838112588L
sg6
Nsg23
S'MOV'
p47
sg25
S'0xffffffc00062b14cL'
p48
sg27
Nsba(ibclass
BInstr
p49
(dp50
g2
Nsg17
S'CBZ             X0, loc_FFFFFFC00062B21C'
p51
sg19
S'600600b4'
p52
sg21
Vcbz x0, #0xcc
p53
sg5
L18446743798838112592L
sg6
Nsg23
S'CBZ'
p54
sg25
S'0xffffffc00062b150L'
p55
sg27
NsbasS'disasm_list'
p56
(lp57
S'STP reg9, reg0, mem!'
p58
aS'MOV reg9, SP'
p59
aS'STP reg9, reg0, mem'
p60
aS'MOV reg9, reg'
p61
aS'CBZ reg, func'
p62
asS'end_address'
p63
Nsg5
S'0xffffffc00062b140L'
p64
sS'preds'
p65
(lp66
sg6
NsS'succs'
p67
(lp68
S'0xffffffc00062b154L'
p69
aS'0xffffffc00062b21cL'
p70
asS'hash_v3'
p71
NsS'flag_v2'
p72
NsS'hash_v1'
p73
S'cf5dd108378c93560275fd7c80ebe7d9'
p74
sS'hash_v2'
p75
S'79a76b1ca78527e79284b9725f91073c'
p76
sS'mnen_list'
p77
(lp78
g24
ag33
ag40
ag47
ag54
asS'neighbour_disasm_list'
p79
Nsba(ibclass
BBasicBlock
p80
(dp81
g12
Nsg13
(lp82
(ibclass
BInstr
p83
(dp84
g2
Nsg17
S'LDR             X1, [X0,#0x88]'
p85
sg19
S'014440f9'
p86
sg21
Vldr x1, [x0, #0x88]
p87
sg5
L18446743798838112596L
sg6
Nsg23
S'LDR'
p88
sg25
S'0xffffffc00062b154L'
p89
sg27
Nsba(ibclass
BInstr
p90
(dp91
g2
Nsg17
S'ADRP            X0, #qword_FFFFFFC000E435D0@PAGE'
p92
sg19
S'c0400090'
p93
sg21
Vadrp x0, #0x818000
p94
sg5
L18446743798838112600L
sg6
Nsg23
S'ADRP'
p95
sg25
S'0xffffffc00062b158L'
p96
sg27
Nsba(ibclass
BInstr
p97
(dp98
g2
Nsg17
S'LDR             X0, [X0,#qword_FFFFFFC000E435D0@PAGEOFF]'
p99
sg19
S'00e842f9'
p100
sg21
Vldr x0, [x0, #0x5d0]
p101
sg5
L18446743798838112604L
sg6
Nsg23
S'LDR'
p102
sg25
S'0xffffffc00062b15cL'
p103
sg27
Nsba(ibclass
BInstr
p104
(dp105
g2
Nsg17
S'CMP             X1, X0'
p106
sg19
S'3f0000eb'
p107
sg21
Vcmp x1, x0
p108
sg5
L18446743798838112608L
sg6
Nsg23
S'CMP'
p109
sg25
S'0xffffffc00062b160L'
p110
sg27
Nsba(ibclass
BInstr
p111
(dp112
g2
Nsg17
S'B.NE            loc_FFFFFFC00062B21C'
p113
sg19
S'c1050054'
p114
sg21
Vb.ne #0xb8
p115
sg5
L18446743798838112612L
sg6
Nsg23
S'B'
p116
sg25
S'0xffffffc00062b164L'
p117
sg27
Nsbasg56
(lp118
S'LDR reg, mem'
p119
aS'ADRP reg, #func@PAGE'
p120
aS'LDR reg, mem'
p121
aS'CMP reg, reg'
p122
aS'B.NE func'
p123
asg63
Nsg5
S'0xffffffc00062b154L'
p124
sg65
(lp125
S'0xffffffc00062b140L'
p126
asg6
Nsg67
(lp127
S'0xffffffc00062b168L'
p128
aS'0xffffffc00062b21cL'
p129
asg71
Nsg72
Nsg73
S'355a2ecd8d5f7181517e30478d45200c'
p130
sg75
S'bd9a288c2cc108903fa72279125cda4d'
p131
sg77
(lp132
g88
ag95
ag102
ag109
ag116
asg79
Nsba(ibclass
BBasicBlock
p133
(dp134
g12
Nsg13
(lp135
(ibclass
BInstr
p136
(dp137
g2
Nsg17
S'LDR             X1, [X19,#0x58]'
p138
sg19
S'612e40f9'
p139
sg21
Vldr x1, [x19, #0x58]
p140
sg5
L18446743798838112616L
sg6
Nsg23
S'LDR'
p141
sg25
S'0xffffffc00062b168L'
p142
sg27
Nsba(ibclass
BInstr
p143
(dp144
g2
Nsg17
S'ADRP            X0, #spmi_dev_type@PAGE'
p145
sg19
S'809700d0'
p146
sg21
Vadrp x0, #0x12f2000
p147
sg5
L18446743798838112620L
sg6
Nsg23
S'ADRP'
p148
sg25
S'0xffffffc00062b16cL'
p149
sg27
Nsba(ibclass
BInstr
p150
(dp151
g2
Nsg17
S'ADD             X0, X0, #spmi_dev_type@PAGEOFF'
p152
sg19
S'00802c91'
p153
sg21
Vadd x0, x0, #0xb20
p154
sg5
L18446743798838112624L
sg6
Nsg23
S'ADD'
p155
sg25
S'0xffffffc00062b170L'
p156
sg27
Nsba(ibclass
BInstr
p157
(dp158
g2
Nsg17
S'CMP             X1, X0'
p159
sg19
S'3f0000eb'
p160
sg21
Vcmp x1, x0
p161
sg5
L18446743798838112628L
sg6
Nsg23
S'CMP'
p162
sg25
S'0xffffffc00062b174L'
p163
sg27
Nsba(ibclass
BInstr
p164
(dp165
g2
Nsg17
S'B.NE            loc_FFFFFFC00062B21C'
p166
sg19
S'21050054'
p167
sg21
Vb.ne #0xa4
p168
sg5
L18446743798838112632L
sg6
Nsg23
g116
sg25
S'0xffffffc00062b178L'
p169
sg27
Nsbasg56
(lp170
S'LDR reg, mem'
p171
aS'ADRP reg, #spmi_dev_type@PAGE'
p172
aS'ADD reg, reg, #spmi_dev_type@PAGEOFF'
p173
aS'CMP reg, reg'
p174
aS'B.NE func'
p175
asg63
Nsg5
S'0xffffffc00062b168L'
p176
sg65
(lp177
S'0xffffffc00062b154L'
p178
asg6
Nsg67
(lp179
S'0xffffffc00062b17cL'
p180
aS'0xffffffc00062b21cL'
p181
asg71
Nsg72
Nsg73
S'0b6edd5c05e63c0fd677e961038bc50d'
p182
sg75
S'aa9fd9a7a6578b58523c5e8f45851686'
p183
sg77
(lp184
g141
ag148
ag155
ag162
ag116
asg79
Nsba(ibclass
BBasicBlock
p185
(dp186
g12
Nsg13
(lp187
(ibclass
BInstr
p188
(dp189
g2
Nsg17
S'LDR             X0, [X19,#0x2A0]'
p190
sg19
S'605241f9'
p191
sg21
Vldr x0, [x19, #0x2a0]
p192
sg5
L18446743798838112636L
sg6
Nsg23
S'LDR'
p193
sg25
S'0xffffffc00062b17cL'
p194
sg27
Nsba(ibclass
BInstr
p195
(dp196
g2
Nsg17
S'CBZ             X0, loc_FFFFFFC00062B21C'
p197
sg19
S'e00400b4'
p198
sg21
Vcbz x0, #0x9c
p199
sg5
L18446743798838112640L
sg6
Nsg23
S'CBZ'
p200
sg25
S'0xffffffc00062b180L'
p201
sg27
Nsbasg56
(lp202
S'LDR reg, mem'
p203
aS'CBZ reg, func'
p204
asg63
Nsg5
S'0xffffffc00062b17cL'
p205
sg65
(lp206
S'0xffffffc00062b168L'
p207
asg6
Nsg67
(lp208
S'0xffffffc00062b184L'
p209
aS'0xffffffc00062b21cL'
p210
asg71
Nsg72
Nsg73
S'a0c488049ab653dbdfa1dc805bb83f13'
p211
sg75
S'33abe016da9abbebb8608f035d51762d'
p212
sg77
(lp213
g193
ag200
asg79
Nsba(ibclass
BBasicBlock
p214
(dp215
g12
Nsg13
(lp216
(ibclass
BInstr
p217
(dp218
g2
Nsg17
S'LDR             W0, [X0,#0x298]'
p219
sg19
S'009842b9'
p220
sg21
Vldr w0, [x0, #0x298]
p221
sg5
L18446743798838112644L
sg6
Nsg23
S'LDR'
p222
sg25
S'0xffffffc00062b184L'
p223
sg27
Nsba(ibclass
BInstr
p224
(dp225
g2
Nsg17
S'BL              spmi_busnum_to_ctrl'
p226
sg19
S'fdfeff97'
p227
sg21
Vbl #0xfffffffffffffbf4
p228
sg5
L18446743798838112648L
sg6
Nsg23
S'BL'
p229
sg25
S'0xffffffc00062b188L'
p230
sg27
Nsba(ibclass
BInstr
p231
(dp232
g2
Nsg17
S'CBZ             X0, loc_FFFFFFC00062B21C'
p233
sg19
S'800400b4'
p234
sg21
Vcbz x0, #0x90
p235
sg5
L18446743798838112652L
sg6
Nsg23
S'CBZ'
p236
sg25
S'0xffffffc00062b18cL'
p237
sg27
Nsbasg56
(lp238
S'LDR reg, mem'
p239
aS'BL spmi_busnum_to_ctrl'
p240
aS'CBZ reg, func'
p241
asg63
Nsg5
S'0xffffffc00062b184L'
p242
sg65
(lp243
S'0xffffffc00062b17cL'
p244
asg6
Nsg67
(lp245
S'0xffffffc00062b190L'
p246
aS'0xffffffc00062b21cL'
p247
asg71
Nsg72
Nsg73
S'd88cb1c1d362da0a3b9e0efb4ff4bb5a'
p248
sg75
S'74a3fa724497a1bfc13b22fec600d395'
p249
sg77
(lp250
g222
ag229
ag236
asg79
Nsba(ibclass
BBasicBlock
p251
(dp252
g12
Nsg13
(lp253
(ibclass
BInstr
p254
(dp255
g2
Nsg17
S'LDR             X2, [X19,#0x298]'
p256
sg19
S'624e41f9'
p257
sg21
Vldr x2, [x19, #0x298]
p258
sg5
L18446743798838112656L
sg6
Nsg23
S'LDR'
p259
sg25
S'0xffffffc00062b190L'
p260
sg27
Nsba(ibclass
BInstr
p261
(dp262
g2
Nsg17
S'ADRP            X1, #aSP_2@PAGE; "%s-%p"'
p263
sg19
S'616a0090'
p264
sg21
Vadrp x1, #0xd4c000
p265
sg5
L18446743798838112660L
sg6
Nsg23
S'ADRP'
p266
sg25
S'0xffffffc00062b194L'
p267
sg27
Nsba(ibclass
BInstr
p268
(dp269
g2
Nsg17
S'ADD             X1, X1, #aSP_2@PAGEOFF; "%s-%p"'
p270
sg19
S'21b03891'
p271
sg21
Vadd x1, x1, #0xe2c
p272
sg5
L18446743798838112664L
sg6
Nsg23
S'ADD'
p273
sg25
S'0xffffffc00062b198L'
p274
sg27
Nsba(ibclass
BInstr
p275
(dp276
g2
Nsg17
S'MOV             X3, X19'
p277
sg19
S'e30313aa'
p278
sg21
Vmov x3, x19
p279
sg5
L18446743798838112668L
sg6
Nsg23
S'MOV'
p280
sg25
S'0xffffffc00062b19cL'
p281
sg27
Nsba(ibclass
BInstr
p282
(dp283
g2
Nsg17
S'MOV             X0, X19'
p284
sg19
S'e00313aa'
p285
sg21
Vmov x0, x19
p286
sg5
L18446743798838112672L
sg6
Nsg23
S'MOV'
p287
sg25
S'0xffffffc00062b1a0L'
p288
sg27
Nsba(ibclass
BInstr
p289
(dp290
g2
Nsg17
S'BL              dev_set_name'
p291
sg19
S'81fdfd97'
p292
sg21
Vbl #0xfffffffffff7f604
p293
sg5
L18446743798838112676L
sg6
Nsg23
S'BL'
p294
sg25
S'0xffffffc00062b1a4L'
p295
sg27
Nsba(ibclass
BInstr
p296
(dp297
g2
Nsg17
S'MOV             X0, X19'
p298
sg19
S'e00313aa'
p299
sg21
Vmov x0, x19
p300
sg5
L18446743798838112680L
sg6
Nsg23
S'MOV'
p301
sg25
S'0xffffffc00062b1a8L'
p302
sg27
Nsba(ibclass
BInstr
p303
(dp304
g2
Nsg17
S'BL              device_add'
p305
sg19
S'd0fdfd97'
p306
sg21
Vbl #0xfffffffffff7f740
p307
sg5
L18446743798838112684L
sg6
Nsg23
S'BL'
p308
sg25
S'0xffffffc00062b1acL'
p309
sg27
Nsba(ibclass
BInstr
p310
(dp311
g2
Nsg17
S'MOV             W20, W0'
p312
sg19
S'f403002a'
p313
sg21
Vmov w20, w0
p314
sg5
L18446743798838112688L
sg6
Nsg23
S'MOV'
p315
sg25
S'0xffffffc00062b1b0L'
p316
sg27
Nsba(ibclass
BInstr
p317
(dp318
g2
Nsg17
S'TBZ             W20, #0x1F, loc_FFFFFFC00062B1DC'
p319
sg19
S'5401f836'
p320
sg21
Vtbz w20, #0x1f, #0x28
p321
sg5
L18446743798838112692L
sg6
Nsg23
S'TBZ'
p322
sg25
S'0xffffffc00062b1b4L'
p323
sg27
Nsbasg56
(lp324
S'LDR reg, mem'
p325
aS'ADRP reg, #aSP_2@PAGE'
p326
aS'ADD reg, reg, #aSP_2@PAGEOFF'
p327
aS'MOV reg, reg9'
p328
aS'MOV reg, reg9'
p329
aS'BL dev_set_name'
p330
aS'MOV reg, reg9'
p331
aS'BL device_add'
p332
aS'MOV reg0, reg'
p333
aS'TBZ reg0, #0x1F, func'
p334
asg63
Nsg5
S'0xffffffc00062b190L'
p335
sg65
(lp336
S'0xffffffc00062b184L'
p337
asg6
Nsg67
(lp338
S'0xffffffc00062b1b8L'
p339
aS'0xffffffc00062b1dcL'
p340
asg71
Nsg72
Nsg73
S'9fa9c436e6ec9c6950dc8767e79cec28'
p341
sg75
S'7afaa12fa33666503fb6e200e8d4019f'
p342
sg77
(lp343
g259
ag266
ag273
ag280
ag287
ag294
ag301
ag308
ag315
ag322
asg79
Nsba(ibclass
BBasicBlock
p344
(dp345
g12
Nsg13
(lp346
(ibclass
BInstr
p347
(dp348
g2
Nsg17
S'LDR             X2, [X19,#0x50]'
p349
sg19
S'622a40f9'
p350
sg21
Vldr x2, [x19, #0x50]
p351
sg5
L18446743798838112696L
sg6
Nsg23
S'LDR'
p352
sg25
S'0xffffffc00062b1b8L'
p353
sg27
Nsba(ibclass
BInstr
p354
(dp355
g2
Nsg17
S'CBNZ            X2, loc_FFFFFFC00062B1C4'
p356
sg19
S'420000b5'
p357
sg21
Vcbnz x2, #8
p358
sg5
L18446743798838112700L
sg6
Nsg23
S'CBNZ'
p359
sg25
S'0xffffffc00062b1bcL'
p360
sg27
Nsbasg56
(lp361
S'LDR reg, mem'
p362
aS'CBNZ reg, func'
p363
asg63
Nsg5
S'0xffffffc00062b1b8L'
p364
sg65
(lp365
S'0xffffffc00062b190L'
p366
asg6
Nsg67
(lp367
S'0xffffffc00062b1c0L'
p368
aS'0xffffffc00062b1c4L'
p369
asg71
Nsg72
Nsg73
S'5522ad3e8b25e3a8f9013bb9571723e7'
p370
sg75
S'7604765c3c810c2510cc031abcc4f1e2'
p371
sg77
(lp372
g352
ag359
asg79
Nsba(ibclass
BBasicBlock
p373
(dp374
g12
Nsg13
(lp375
(ibclass
BInstr
p376
(dp377
g2
Nsg17
S'LDR             X2, [X19,#0x10]'
p378
sg19
S'620a40f9'
p379
sg21
Vldr x2, [x19, #0x10]
p380
sg5
L18446743798838112704L
sg6
Nsg23
S'LDR'
p381
sg25
S'0xffffffc00062b1c0L'
p382
sg27
Nsbasg56
(lp383
S'LDR reg, mem'
p384
asg63
Nsg5
S'0xffffffc00062b1c0L'
p385
sg65
(lp386
S'0xffffffc00062b1b8L'
p387
asg6
Nsg67
(lp388
S'0xffffffc00062b1c4L'
p389
asg71
Nsg72
Nsg73
S'6645d4de79aee6373f120d72c0030e5f'
p390
sg75
S'f8d2f8f4cdf40ad12a334448a2a08c78'
p391
sg77
(lp392
g381
asg79
Nsba(ibclass
BBasicBlock
p393
(dp394
g12
Nsg13
(lp395
(ibclass
BInstr
p396
(dp397
g2
Nsg17
S'ADRP            X1, #aCanTAddSStat_0@PAGE; "Can\'t add %s, status %d\\n"'
p398
sg19
S'616a0090'
p399
sg21
Vadrp x1, #0xd4c000
p400
sg5
L18446743798838112708L
sg6
Nsg23
S'ADRP'
p401
sg25
S'0xffffffc00062b1c4L'
p402
sg27
Nsba(ibclass
BInstr
p403
(dp404
g2
Nsg17
S'MOV             X0, X19'
p405
sg19
S'e00313aa'
p406
sg21
Vmov x0, x19
p407
sg5
L18446743798838112712L
sg6
Nsg23
S'MOV'
p408
sg25
S'0xffffffc00062b1c8L'
p409
sg27
Nsba(ibclass
BInstr
p410
(dp411
g2
Nsg17
S'ADD             X1, X1, #aCanTAddSStat_0@PAGEOFF; "Can\'t add %s, status %d\\n"'
p412
sg19
S'21c83891'
p413
sg21
Vadd x1, x1, #0xe32
p414
sg5
L18446743798838112716L
sg6
Nsg23
S'ADD'
p415
sg25
S'0xffffffc00062b1ccL'
p416
sg27
Nsba(ibclass
BInstr
p417
(dp418
g2
Nsg17
S'MOV             W3, W20'
p419
sg19
S'e303142a'
p420
sg21
Vmov w3, w20
p421
sg5
L18446743798838112720L
sg6
Nsg23
S'MOV'
p422
sg25
S'0xffffffc00062b1d0L'
p423
sg27
Nsba(ibclass
BInstr
p424
(dp425
g2
Nsg17
S'BL              dev_err'
p426
sg19
S'1603fe97'
p427
sg21
Vbl #0xfffffffffff80c58
p428
sg5
L18446743798838112724L
sg6
Nsg23
S'BL'
p429
sg25
S'0xffffffc00062b1d4L'
p430
sg27
Nsba(ibclass
BInstr
p431
(dp432
g2
Nsg17
S'B               loc_FFFFFFC00062B214'
p433
sg19
S'0f000014'
p434
sg21
Vb #0x3c
p435
sg5
L18446743798838112728L
sg6
Nsg23
g116
sg25
S'0xffffffc00062b1d8L'
p436
sg27
Nsbasg56
(lp437
S'ADRP reg, #aCanTAddSStat_0@PAGE'
p438
aS'MOV reg, reg9'
p439
aS'ADD reg, reg, #aCanTAddSStat_0@PAGEOFF'
p440
aS'MOV reg, reg0'
p441
aS'BL dev_err'
p442
aS'B func'
p443
asg63
Nsg5
S'0xffffffc00062b1c4L'
p444
sg65
(lp445
S'0xffffffc00062b1b8L'
p446
aS'0xffffffc00062b1c0L'
p447
asg6
Nsg67
(lp448
S'0xffffffc00062b214L'
p449
asg71
Nsg72
Nsg73
S'3b50cfdcce626d09955dc1c1955fba2d'
p450
sg75
S'b5576a3bc8b4ecfd0fd24368c514179d'
p451
sg77
(lp452
g401
ag408
ag415
ag422
ag429
ag116
asg79
Nsba(ibclass
BBasicBlock
p453
(dp454
g12
Nsg13
(lp455
(ibclass
BInstr
p456
(dp457
g2
Nsg17
S'ADRP            X1, #descriptor.21531@PAGE'
p458
sg19
S'019300b0'
p459
sg21
Vadrp x1, #0x1261000
p460
sg5
L18446743798838112732L
sg6
Nsg23
S'ADRP'
p461
sg25
S'0xffffffc00062b1dcL'
p462
sg27
Nsba(ibclass
BInstr
p463
(dp464
g2
Nsg17
S'ADD             X0, X1, #descriptor.21531@PAGEOFF'
p465
sg19
S'20003491'
p466
sg21
Vadd x0, x1, #0xd00
p467
sg5
L18446743798838112736L
sg6
Nsg23
S'ADD'
p468
sg25
S'0xffffffc00062b1e0L'
p469
sg27
Nsba(ibclass
BInstr
p470
(dp471
g2
Nsg17
S'LDRH            W2, [X0,#(word_FFFFFFC00188CD72 - 0xFFFFFFC00188CD00)]'
p472
sg19
S'02e44079'
p473
sg21
Vldrh w2, [x0, #0x72]
p474
sg5
L18446743798838112740L
sg6
Nsg23
S'LDR'
p475
sg25
S'0xffffffc00062b1e4L'
p476
sg27
Nsba(ibclass
BInstr
p477
(dp478
g2
Nsg17
S'MOV             W0, W20'
p479
sg19
S'e003142a'
p480
sg21
Vmov w0, w20
p481
sg5
L18446743798838112744L
sg6
Nsg23
S'MOV'
p482
sg25
S'0xffffffc00062b1e8L'
p483
sg27
Nsba(ibclass
BInstr
p484
(dp485
g2
Nsg17
S'TBZ             W2, #2, loc_FFFFFFC00062B238'
p486
sg19
S'62021036'
p487
sg21
Vtbz w2, #2, #0x4c
p488
sg5
L18446743798838112748L
sg6
Nsg23
S'TBZ'
p489
sg25
S'0xffffffc00062b1ecL'
p490
sg27
Nsbasg56
(lp491
S'ADRP reg, #descriptor.21531@PAGE'
p492
aS'ADD reg, reg, #descriptor.21531@PAGEOFF'
p493
aS'LDRH reg, mem'
p494
aS'MOV reg, reg0'
p495
aS'TBZ reg, #2, func'
p496
asg63
Nsg5
S'0xffffffc00062b1dcL'
p497
sg65
(lp498
S'0xffffffc00062b190L'
p499
asg6
Nsg67
(lp500
S'0xffffffc00062b1f0L'
p501
aS'0xffffffc00062b238L'
p502
asg71
Nsg72
Nsg73
S'2bf1aa4754a813ac999cfeab36561211'
p503
sg75
S'c313d3f6fce709447537a0b5fd800d05'
p504
sg77
(lp505
g461
ag468
ag475
ag482
ag489
asg79
Nsba(ibclass
BBasicBlock
p506
(dp507
g12
Nsg13
(lp508
(ibclass
BInstr
p509
(dp510
g2
Nsg17
S'LDR             X3, [X19,#0x50]'
p511
sg19
S'632a40f9'
p512
sg21
Vldr x3, [x19, #0x50]
p513
sg5
L18446743798838112752L
sg6
Nsg23
S'LDR'
p514
sg25
S'0xffffffc00062b1f0L'
p515
sg27
Nsba(ibclass
BInstr
p516
(dp517
g2
Nsg17
S'CBNZ            X3, loc_FFFFFFC00062B1FC'
p518
sg19
S'430000b5'
p519
sg21
Vcbnz x3, #8
p520
sg5
L18446743798838112756L
sg6
Nsg23
S'CBNZ'
p521
sg25
S'0xffffffc00062b1f4L'
p522
sg27
Nsbasg56
(lp523
S'LDR reg, mem'
p524
aS'CBNZ reg, func'
p525
asg63
Nsg5
S'0xffffffc00062b1f0L'
p526
sg65
(lp527
S'0xffffffc00062b1dcL'
p528
asg6
Nsg67
(lp529
S'0xffffffc00062b1f8L'
p530
aS'0xffffffc00062b1fcL'
p531
asg71
Nsg72
Nsg73
S'5522ad3e8b25e3a8f9013bb9571723e7'
p532
sg75
S'7604765c3c810c2510cc031abcc4f1e2'
p533
sg77
(lp534
g514
ag521
asg79
Nsba(ibclass
BBasicBlock
p535
(dp536
g12
Nsg13
(lp537
(ibclass
BInstr
p538
(dp539
g2
Nsg17
S'LDR             X3, [X19,#0x10]'
p540
sg19
S'630a40f9'
p541
sg21
Vldr x3, [x19, #0x10]
p542
sg5
L18446743798838112760L
sg6
Nsg23
S'LDR'
p543
sg25
S'0xffffffc00062b1f8L'
p544
sg27
Nsbasg56
(lp545
S'LDR reg, mem'
p546
asg63
Nsg5
S'0xffffffc00062b1f8L'
p547
sg65
(lp548
S'0xffffffc00062b1f0L'
p549
asg6
Nsg67
(lp550
S'0xffffffc00062b1fcL'
p551
asg71
Nsg72
Nsg73
S'6645d4de79aee6373f120d72c0030e5f'
p552
sg75
S'f8d2f8f4cdf40ad12a334448a2a08c78'
p553
sg77
(lp554
g543
asg79
Nsba(ibclass
BBasicBlock
p555
(dp556
g12
Nsg13
(lp557
(ibclass
BInstr
p558
(dp559
g2
Nsg17
S'ADD             X0, X1, #descriptor.21531@PAGEOFF'
p560
sg19
S'20003491'
p561
sg21
Vadd x0, x1, #0xd00
p562
sg5
L18446743798838112764L
sg6
Nsg23
S'ADD'
p563
sg25
S'0xffffffc00062b1fcL'
p564
sg27
Nsba(ibclass
BInstr
p565
(dp566
g2
Nsg17
S'ADRP            X2, #aDeviceSRegiste@PAGE; "device %s registered\\n"'
p567
sg19
S'626a0090'
p568
sg21
Vadrp x2, #0xd4c000
p569
sg5
L18446743798838112768L
sg6
Nsg23
S'ADRP'
p570
sg25
S'0xffffffc00062b200L'
p571
sg27
Nsba(ibclass
BInstr
p572
(dp573
g2
Nsg17
S'ADD             X0, X0, #0x50'
p574
sg19
S'00400191'
p575
sg21
Vadd x0, x0, #0x50
p576
sg5
L18446743798838112772L
sg6
Nsg23
S'ADD'
p577
sg25
S'0xffffffc00062b204L'
p578
sg27
Nsba(ibclass
BInstr
p579
(dp580
g2
Nsg17
S'MOV             X1, X19'
p581
sg19
S'e10313aa'
p582
sg21
Vmov x1, x19
p583
sg5
L18446743798838112776L
sg6
Nsg23
S'MOV'
p584
sg25
S'0xffffffc00062b208L'
p585
sg27
Nsba(ibclass
BInstr
p586
(dp587
g2
Nsg17
S'ADD             X2, X2, #aDeviceSRegiste@PAGEOFF; "device %s registered\\n"'
p588
sg19
S'422c3991'
p589
sg21
Vadd x2, x2, #0xe4b
p590
sg5
L18446743798838112780L
sg6
Nsg23
S'ADD'
p591
sg25
S'0xffffffc00062b20cL'
p592
sg27
Nsba(ibclass
BInstr
p593
(dp594
g2
Nsg17
S'BL              __dynamic_dev_dbg'
p595
sg19
S'064cf897'
p596
sg21
Vbl #0xffffffffffe13018
p597
sg5
L18446743798838112784L
sg6
Nsg23
S'BL'
p598
sg25
S'0xffffffc00062b210L'
p599
sg27
Nsbasg56
(lp600
S'ADD reg, reg, #descriptor.21531@PAGEOFF'
p601
aS'ADRP reg, #aDeviceSRegiste@PAGE'
p602
aS'ADD reg, reg, #0x50'
p603
aS'MOV reg, reg9'
p604
aS'ADD reg, reg, #aDeviceSRegiste@PAGEOFF'
p605
aS'BL __dynamic_dev_dbg'
p606
asg63
Nsg5
S'0xffffffc00062b1fcL'
p607
sg65
(lp608
S'0xffffffc00062b1f0L'
p609
aS'0xffffffc00062b1f8L'
p610
asg6
Nsg67
(lp611
S'0xffffffc00062b214L'
p612
asg71
Nsg72
Nsg73
S'e0bc5a59466f44fd55a4d6e0b066c667'
p613
sg75
S'96c4ecb6d60a45fee50ffe2975be78ac'
p614
sg77
(lp615
g563
ag570
ag577
ag584
ag591
ag598
asg79
Nsba(ibclass
BBasicBlock
p616
(dp617
g12
Nsg13
(lp618
(ibclass
BInstr
p619
(dp620
g2
Nsg17
S'MOV             W0, W20'
p621
sg19
S'e003142a'
p622
sg21
Vmov w0, w20
p623
sg5
L18446743798838112788L
sg6
Nsg23
S'MOV'
p624
sg25
S'0xffffffc00062b214L'
p625
sg27
Nsba(ibclass
BInstr
p626
(dp627
g2
Nsg17
S'B               loc_FFFFFFC00062B238'
p628
sg19
S'08000014'
p629
sg21
Vb #0x20
p630
sg5
L18446743798838112792L
sg6
Nsg23
g116
sg25
S'0xffffffc00062b218L'
p631
sg27
Nsbasg56
(lp632
S'MOV reg, reg0'
p633
aS'B func'
p634
asg63
Nsg5
S'0xffffffc00062b214L'
p635
sg65
(lp636
S'0xffffffc00062b1c4L'
p637
aS'0xffffffc00062b1fcL'
p638
asg6
Nsg67
(lp639
S'0xffffffc00062b238L'
p640
asg71
Nsg72
Nsg73
S'b6c4e95ccfe77a95e4cf2019dd3d5574'
p641
sg75
S'69c22969023ceac343d7e48447d37d4c'
p642
sg77
(lp643
g624
ag116
asg79
Nsba(ibclass
BBasicBlock
p644
(dp645
g12
Nsg13
(lp646
(ibclass
BInstr
p647
(dp648
g2
Nsg17
S'ADRP            X1, #__func__.21532@PAGE; "spmi_add_controller"'
p649
sg19
S'615000b0'
p650
sg21
Vadrp x1, #0xa0d000
p651
sg5
L18446743798838112796L
sg6
Nsg23
S'ADRP'
p652
sg25
S'0xffffffc00062b21cL'
p653
sg27
Nsba(ibclass
BInstr
p654
(dp655
g2
Nsg17
S'ADRP            X0, #unk_FFFFFFC001377E61@PAGE'
p656
sg19
S'606a0090'
p657
sg21
Vadrp x0, #0xd4c000
p658
sg5
L18446743798838112800L
sg6
Nsg23
S'ADRP'
p659
sg25
S'0xffffffc00062b220L'
p660
sg27
Nsba(ibclass
BInstr
p661
(dp662
g2
Nsg17
S'ADD             X1, X1, #__func__.21532@PAGEOFF; "spmi_add_controller"'
p663
sg19
S'21c03791'
p664
sg21
Vadd x1, x1, #0xdf0
p665
sg5
L18446743798838112804L
sg6
Nsg23
S'ADD'
p666
sg25
S'0xffffffc00062b224L'
p667
sg27
Nsba(ibclass
BInstr
p668
(dp669
g2
Nsg17
S'ADD             X0, X0, #unk_FFFFFFC001377E61@PAGEOFF'
p670
sg19
S'00843991'
p671
sg21
Vadd x0, x0, #0xe61
p672
sg5
L18446743798838112808L
sg6
Nsg23
S'ADD'
p673
sg25
S'0xffffffc00062b228L'
p674
sg27
Nsba(ibclass
BInstr
p675
(dp676
g2
Nsg17
S'ADD             X1, X1, #0x30'
p677
sg19
S'21c00091'
p678
sg21
Vadd x1, x1, #0x30
p679
sg5
L18446743798838112812L
sg6
Nsg23
S'ADD'
p680
sg25
S'0xffffffc00062b22cL'
p681
sg27
Nsba(ibclass
BInstr
p682
(dp683
g2
Nsg17
S'BL              printk'
p684
sg19
S'd1072094'
p685
sg21
Vbl #0x801f44
p686
sg5
L18446743798838112816L
sg6
Nsg23
S'BL'
p687
sg25
S'0xffffffc00062b230L'
p688
sg27
Nsba(ibclass
BInstr
p689
(dp690
g2
Nsg17
S'MOV             W0, #0xFFFFFFEA'
p691
sg19
S'a0028012'
p692
sg21
Vmovn w0, #0x15
p693
sg5
L18446743798838112820L
sg6
Nsg23
S'MOV'
p694
sg25
S'0xffffffc00062b234L'
p695
sg27
Nsbasg56
(lp696
S'ADRP reg, #__func__.21532@PAGE'
p697
aS'ADRP reg, #func@PAGE'
p698
aS'ADD reg, reg, #__func__.21532@PAGEOFF'
p699
aS'ADD reg, reg, #func@PAGEOFF'
p700
aS'ADD reg, reg, #0x30'
p701
aS'BL printk'
p702
aS'MOV reg, #0xFFFFFFEA'
p703
asg63
Nsg5
S'0xffffffc00062b21cL'
p704
sg65
(lp705
S'0xffffffc00062b140L'
p706
aS'0xffffffc00062b154L'
p707
aS'0xffffffc00062b168L'
p708
aS'0xffffffc00062b17cL'
p709
aS'0xffffffc00062b184L'
p710
asg6
Nsg67
(lp711
S'0xffffffc00062b238L'
p712
asg71
Nsg72
Nsg73
S'f8724966f4b7420d40a74448cb672a11'
p713
sg75
S'a40db1c8f5806a3f76d092032c179740'
p714
sg77
(lp715
g652
ag659
ag666
ag673
ag680
ag687
ag694
asg79
Nsba(ibclass
BBasicBlock
p716
(dp717
g12
Nsg13
(lp718
(ibclass
BInstr
p719
(dp720
g2
Nsg17
S'LDP             X19, X20, [SP,#0x10+var_s0]'
p721
sg19
S'f35341a9'
p722
sg21
Vldp x19, x20, [sp, #0x10]
p723
sg5
L18446743798838112824L
sg6
Nsg23
S'LDP'
p724
sg25
S'0xffffffc00062b238L'
p725
sg27
Nsba(ibclass
BInstr
p726
(dp727
g2
Nsg17
S'LDP             X29, X30, [SP+0x10+var_10],#0x20'
p728
sg19
S'fd7bc2a8'
p729
sg21
Vldp x29, x30, [sp], #0x20
p730
sg5
L18446743798838112828L
sg6
Nsg23
S'LDP'
p731
sg25
S'0xffffffc00062b23cL'
p732
sg27
Nsba(ibclass
BInstr
p733
(dp734
g2
Nsg17
S'RET'
p735
sg19
S'c0035fd6'
p736
sg21
Vret 
p737
sg5
L18446743798838112832L
sg6
Nsg23
S'RET'
p738
sg25
S'0xffffffc00062b240L'
p739
sg27
Nsbasg56
(lp740
S'LDP reg9, reg0, mem'
p741
aS'LDP reg9, reg0, mem,#0x20'
p742
ag735
asg63
Nsg5
S'0xffffffc00062b238L'
p743
sg65
(lp744
S'0xffffffc00062b1dcL'
p745
aS'0xffffffc00062b214L'
p746
aS'0xffffffc00062b21cL'
p747
asg6
Nsg67
(lp748
sg71
Nsg72
Nsg73
S'0abd6d226edb2f97e9eefc6c1654aa67'
p749
sg75
S'21c2c348812b6301b2220bfc685355ce'
p750
sg77
(lp751
g724
ag731
ag738
asg79
Nsbasb.