(ibclass
BFunc
p0
(dp1
S'hash'
p2
NsS'name'
p3
S'venus_hfi_read_register'
p4
sS'start_address'
p5
L18446743798839733704L
sS'flag'
p6
NsS'program'
p7
NsS'bbs'
p8
(lp9
(ibclass
BBasicBlock
p10
(dp11
S'function'
p12
NsS'binstrs'
p13
(lp14
(ibclass
BInstr
p15
(dp16
g2
NsS'disasm'
p17
S'STP             X29, X30, [SP,#-0x10+var_20]!'
p18
sS'bytes'
p19
S'fd7bbda9'
p20
sS'disasm_striped'
p21
Vstp x29, x30, [sp, #-0x30]!
p22
sg5
L18446743798839733704L
sg6
NsS'mnem'
p23
S'STP'
p24
sS'address'
p25
S'0xffffffc0007b6dc8L'
p26
sS'basicblock'
p27
Nsba(ibclass
BInstr
p28
(dp29
g2
Nsg17
S'MOV             X29, SP'
p30
sg19
S'fd030091'
p31
sg21
Vmov x29, sp
p32
sg5
L18446743798839733708L
sg6
Nsg23
S'MOV'
p33
sg25
S'0xffffffc0007b6dccL'
p34
sg27
Nsba(ibclass
BInstr
p35
(dp36
g2
Nsg17
S'STP             X19, X20, [SP,#0x20+var_10]'
p37
sg19
S'f35301a9'
p38
sg21
Vstp x19, x20, [sp, #0x10]
p39
sg5
L18446743798839733712L
sg6
Nsg23
S'STP'
p40
sg25
S'0xffffffc0007b6dd0L'
p41
sg27
Nsba(ibclass
BInstr
p42
(dp43
g2
Nsg17
S'MOV             X2, X0'
p44
sg19
S'e20300aa'
p45
sg21
Vmov x2, x0
p46
sg5
L18446743798839733716L
sg6
Nsg23
S'MOV'
p47
sg25
S'0xffffffc0007b6dd4L'
p48
sg27
Nsba(ibclass
BInstr
p49
(dp50
g2
Nsg17
S'MOV             W3, W1'
p51
sg19
S'e303012a'
p52
sg21
Vmov w3, w1
p53
sg5
L18446743798839733720L
sg6
Nsg23
S'MOV'
p54
sg25
S'0xffffffc0007b6dd8L'
p55
sg27
Nsba(ibclass
BInstr
p56
(dp57
g2
Nsg17
S'ADRP            X20, #qword_FFFFFFC000E440A0@PAGE'
p58
sg19
S'743400d0'
p59
sg21
Vadrp x20, #0x68e000
p60
sg5
L18446743798839733724L
sg6
Nsg23
S'ADRP'
p61
sg25
S'0xffffffc0007b6ddcL'
p62
sg27
Nsba(ibclass
BInstr
p63
(dp64
g2
Nsg17
S'CBNZ            X0, loc_FFFFFFC0007B6E1C'
p65
sg19
S'e00100b5'
p66
sg21
Vcbnz x0, #0x3c
p67
sg5
L18446743798839733728L
sg6
Nsg23
S'CBNZ'
p68
sg25
S'0xffffffc0007b6de0L'
p69
sg27
NsbasS'disasm_list'
p70
(lp71
S'STP reg9, reg0, mem!'
p72
aS'MOV reg9, SP'
p73
aS'STP reg9, reg0, mem'
p74
aS'MOV reg, reg'
p75
aS'MOV reg, reg'
p76
aS'ADRP reg0, #func@PAGE'
p77
aS'CBNZ reg, func'
p78
asS'end_address'
p79
Nsg5
S'0xffffffc0007b6dc8L'
p80
sS'preds'
p81
(lp82
sg6
NsS'succs'
p83
(lp84
S'0xffffffc0007b6de4L'
p85
aS'0xffffffc0007b6e1cL'
p86
asS'hash_v3'
p87
NsS'flag_v2'
p88
NsS'hash_v1'
p89
S'ec118fac5188a6d9a6b780719830076c'
p90
sS'hash_v2'
p91
S'1755c53077408b2c8033324c74c2d430'
p92
sS'mnen_list'
p93
(lp94
g24
ag33
ag40
ag47
ag54
ag61
ag68
asS'neighbour_disasm_list'
p95
Nsba(ibclass
BBasicBlock
p96
(dp97
g12
Nsg13
(lp98
(ibclass
BInstr
p99
(dp100
g2
Nsg17
S'LDR             X20, [X20,#qword_FFFFFFC000E440A0@PAGEOFF]'
p101
sg19
S'945240f9'
p102
sg21
Vldr x20, [x20, #0xa0]
p103
sg5
L18446743798839733732L
sg6
Nsg23
S'LDR'
p104
sg25
S'0xffffffc0007b6de4L'
p105
sg27
Nsba(ibclass
BInstr
p106
(dp107
g2
Nsg17
S'LDR             W0, [X20]'
p108
sg19
S'800240b9'
p109
sg21
Vldr w0, [x20]
p110
sg5
L18446743798839733736L
sg6
Nsg23
S'LDR'
p111
sg25
S'0xffffffc0007b6de8L'
p112
sg27
Nsba(ibclass
BInstr
p113
(dp114
g2
Nsg17
S'TBZ             W0, #0, loc_FFFFFFC0007B6EE0'
p115
sg19
S'a0070036'
p116
sg21
Vtbz w0, #0, #0xf4
p117
sg5
L18446743798839733740L
sg6
Nsg23
S'TBZ'
p118
sg25
S'0xffffffc0007b6decL'
p119
sg27
Nsbasg70
(lp120
S'LDR reg0, mem'
p121
aS'LDR reg, mem'
p122
aS'TBZ reg, #0, func'
p123
asg79
Nsg5
S'0xffffffc0007b6de4L'
p124
sg81
(lp125
S'0xffffffc0007b6dc8L'
p126
asg6
Nsg83
(lp127
S'0xffffffc0007b6df0L'
p128
aS'0xffffffc0007b6ee0L'
p129
asg87
Nsg88
Nsg89
S'ac18b97d3a767be1a0530f85211830b6'
p130
sg91
S'93c1a212b0a698bfeb344fc2b7235976'
p131
sg93
(lp132
g104
ag111
ag118
asg95
Nsba(ibclass
BBasicBlock
p133
(dp134
g12
Nsg13
(lp135
(ibclass
BInstr
p136
(dp137
g2
Nsg17
S'ADRP            X0, #qword_FFFFFFC000E42548@PAGE'
p138
sg19
S'60340090'
p139
sg21
Vadrp x0, #0x68c000
p140
sg5
L18446743798839733744L
sg6
Nsg23
S'ADRP'
p141
sg25
S'0xffffffc0007b6df0L'
p142
sg27
Nsba(ibclass
BInstr
p143
(dp144
g2
Nsg17
S'LDR             X0, [X0,#qword_FFFFFFC000E42548@PAGEOFF]'
p145
sg19
S'00a442f9'
p146
sg21
Vldr x0, [x0, #0x548]
p147
sg5
L18446743798839733748L
sg6
Nsg23
S'LDR'
p148
sg25
S'0xffffffc0007b6df4L'
p149
sg27
Nsba(ibclass
BInstr
p150
(dp151
g2
Nsg17
S'MOV             W19, #0xFFFFFFEA'
p152
sg19
S'b3028012'
p153
sg21
Vmovn w19, #0x15
p154
sg5
L18446743798839733752L
sg6
Nsg23
S'MOV'
p155
sg25
S'0xffffffc0007b6df8L'
p156
sg27
Nsba(ibclass
BInstr
p157
(dp158
g2
Nsg17
S'LDR             W0, [X0]'
p159
sg19
S'000040b9'
p160
sg21
Vldr w0, [x0]
p161
sg5
L18446743798839733756L
sg6
Nsg23
S'LDR'
p162
sg25
S'0xffffffc0007b6dfcL'
p163
sg27
Nsba(ibclass
BInstr
p164
(dp165
g2
Nsg17
S'CBNZ            W0, loc_FFFFFFC0007B6EE4'
p166
sg19
S'20070035'
p167
sg21
Vcbnz w0, #0xe4
p168
sg5
L18446743798839733760L
sg6
Nsg23
S'CBNZ'
p169
sg25
S'0xffffffc0007b6e00L'
p170
sg27
Nsbasg70
(lp171
S'ADRP reg, #func@PAGE'
p172
aS'LDR reg, mem'
p173
aS'MOV reg9, #0xFFFFFFEA'
p174
aS'LDR reg, mem'
p175
aS'CBNZ reg, func'
p176
asg79
Nsg5
S'0xffffffc0007b6df0L'
p177
sg81
(lp178
S'0xffffffc0007b6de4L'
p179
asg6
Nsg83
(lp180
S'0xffffffc0007b6e04L'
p181
aS'0xffffffc0007b6ee4L'
p182
asg87
Nsg88
Nsg89
S'd80cc6d531f24a5b2d60307977d236c7'
p183
sg91
S'baaaa11d303d94886d47725c6dea0608'
p184
sg93
(lp185
g141
ag148
ag155
ag162
ag169
asg95
Nsba(ibclass
BBasicBlock
p186
(dp187
g12
Nsg13
(lp188
(ibclass
BInstr
p189
(dp190
g2
Nsg17
S'ADRP            X0, #unk_FFFFFFC0013BC46D@PAGE'
p191
sg19
S'206000d0'
p192
sg21
Vadrp x0, #0xc06000
p193
sg5
L18446743798839733764L
sg6
Nsg23
S'ADRP'
p194
sg25
S'0xffffffc0007b6e04L'
p195
sg27
Nsba(ibclass
BInstr
p196
(dp197
g2
Nsg17
S'ADRP            X1, #(aQcomMdssDsi_17+0x1B)@PAGE; "err"'
p198
sg19
S'c15b00b0'
p199
sg21
Vadrp x1, #0xb79000
p200
sg5
L18446743798839733768L
sg6
Nsg23
S'ADRP'
p201
sg25
S'0xffffffc0007b6e08L'
p202
sg27
Nsba(ibclass
BInstr
p203
(dp204
g2
Nsg17
S'ADD             X1, X1, #(aQcomMdssDsi_17+0x1B)@PAGEOFF; "err"'
p205
sg19
S'212c0591'
p206
sg21
Vadd x1, x1, #0x14b
p207
sg5
L18446743798839733772L
sg6
Nsg23
S'ADD'
p208
sg25
S'0xffffffc0007b6e0cL'
p209
sg27
Nsba(ibclass
BInstr
p210
(dp211
g2
Nsg17
S'ADD             X0, X0, #unk_FFFFFFC0013BC46D@PAGEOFF'
p212
sg19
S'00b41191'
p213
sg21
Vadd x0, x0, #0x46d
p214
sg5
L18446743798839733776L
sg6
Nsg23
S'ADD'
p215
sg25
S'0xffffffc0007b6e10L'
p216
sg27
Nsba(ibclass
BInstr
p217
(dp218
g2
Nsg17
S'BL              printk'
p219
sg19
S'd8d81994'
p220
sg21
Vbl #0x676360
p221
sg5
L18446743798839733780L
sg6
Nsg23
S'BL'
p222
sg25
S'0xffffffc0007b6e14L'
p223
sg27
Nsba(ibclass
BInstr
p224
(dp225
g2
Nsg17
S'B               loc_FFFFFFC0007B6EE4'
p226
sg19
S'33000014'
p227
sg21
Vb #0xcc
p228
sg5
L18446743798839733784L
sg6
Nsg23
S'B'
p229
sg25
S'0xffffffc0007b6e18L'
p230
sg27
Nsbasg70
(lp231
S'ADRP reg, #func@PAGE'
p232
aS'ADRP reg, #(aQcomMdssDsi_17+0x1B)@PAGE'
p233
aS'ADD reg, reg, #(aQcomMdssDsi_17+0x1B)@PAGEOFF'
p234
aS'ADD reg, reg, #func@PAGEOFF'
p235
aS'BL printk'
p236
aS'B func'
p237
asg79
Nsg5
S'0xffffffc0007b6e04L'
p238
sg81
(lp239
S'0xffffffc0007b6df0L'
p240
asg6
Nsg83
(lp241
S'0xffffffc0007b6ee4L'
p242
asg87
Nsg88
Nsg89
S'b2a3927201f2643e37e238d870ced3c2'
p243
sg91
S'3e167cdac8f124cfbacea29ee5c30eb0'
p244
sg93
(lp245
g194
ag201
ag208
ag215
ag222
ag229
asg95
Nsba(ibclass
BBasicBlock
p246
(dp247
g12
Nsg13
(lp248
(ibclass
BInstr
p249
(dp250
g2
Nsg17
S'LDR             W0, [X0,#0x48]'
p251
sg19
S'004840b9'
p252
sg21
Vldr w0, [x0, #0x48]
p253
sg5
L18446743798839733788L
sg6
Nsg23
S'LDR'
p254
sg25
S'0xffffffc0007b6e1cL'
p255
sg27
Nsba(ibclass
BInstr
p256
(dp257
g2
Nsg17
S'CMP             W0, #1'
p258
sg19
S'1f040071'
p259
sg21
Vcmp w0, #1
p260
sg5
L18446743798839733792L
sg6
Nsg23
S'CMP'
p261
sg25
S'0xffffffc0007b6e20L'
p262
sg27
Nsba(ibclass
BInstr
p263
(dp264
g2
Nsg17
S'B.EQ            loc_FFFFFFC0007B6E60'
p265
sg19
S'e0010054'
p266
sg21
Vb.eq #0x3c
p267
sg5
L18446743798839733796L
sg6
Nsg23
g229
sg25
S'0xffffffc0007b6e24L'
p268
sg27
Nsbasg70
(lp269
S'LDR reg, mem'
p270
aS'CMP reg, #1'
p271
aS'B.EQ func'
p272
asg79
Nsg5
S'0xffffffc0007b6e1cL'
p273
sg81
(lp274
S'0xffffffc0007b6dc8L'
p275
asg6
Nsg83
(lp276
S'0xffffffc0007b6e28L'
p277
aS'0xffffffc0007b6e60L'
p278
asg87
Nsg88
Nsg89
S'fa4df767a85c49648339e2dc5c6807f6'
p279
sg91
S'fc60d4fbf945ffce424d4afdb663104c'
p280
sg93
(lp281
g254
ag261
ag229
asg95
Nsba(ibclass
BBasicBlock
p282
(dp283
g12
Nsg13
(lp284
(ibclass
BInstr
p285
(dp286
g2
Nsg17
S'LDR             X20, [X20,#qword_FFFFFFC000E440A0@PAGEOFF]'
p287
sg19
S'945240f9'
p288
sg21
Vldr x20, [x20, #0xa0]
p289
sg5
L18446743798839733800L
sg6
Nsg23
S'LDR'
p290
sg25
S'0xffffffc0007b6e28L'
p291
sg27
Nsba(ibclass
BInstr
p292
(dp293
g2
Nsg17
S'LDR             W0, [X20]'
p294
sg19
S'800240b9'
p295
sg21
Vldr w0, [x20]
p296
sg5
L18446743798839733804L
sg6
Nsg23
S'LDR'
p297
sg25
S'0xffffffc0007b6e2cL'
p298
sg27
Nsba(ibclass
BInstr
p299
(dp300
g2
Nsg17
S'TBZ             W0, #1, loc_FFFFFFC0007B6EE0'
p301
sg19
S'80050836'
p302
sg21
Vtbz w0, #1, #0xb0
p303
sg5
L18446743798839733808L
sg6
Nsg23
S'TBZ'
p304
sg25
S'0xffffffc0007b6e30L'
p305
sg27
Nsbasg70
(lp306
S'LDR reg0, mem'
p307
aS'LDR reg, mem'
p308
aS'TBZ reg, #1, func'
p309
asg79
Nsg5
S'0xffffffc0007b6e28L'
p310
sg81
(lp311
S'0xffffffc0007b6e1cL'
p312
asg6
Nsg83
(lp313
S'0xffffffc0007b6e34L'
p314
aS'0xffffffc0007b6ee0L'
p315
asg87
Nsg88
Nsg89
S'ac18b97d3a767be1a0530f85211830b6'
p316
sg91
S'4519bb25a4e2ae6cf727b0356cd6f460'
p317
sg93
(lp318
g290
ag297
ag304
asg95
Nsba(ibclass
BBasicBlock
p319
(dp320
g12
Nsg13
(lp321
(ibclass
BInstr
p322
(dp323
g2
Nsg17
S'ADRP            X0, #qword_FFFFFFC000E42548@PAGE'
p324
sg19
S'60340090'
p325
sg21
Vadrp x0, #0x68c000
p326
sg5
L18446743798839733812L
sg6
Nsg23
S'ADRP'
p327
sg25
S'0xffffffc0007b6e34L'
p328
sg27
Nsba(ibclass
BInstr
p329
(dp330
g2
Nsg17
S'LDR             X0, [X0,#qword_FFFFFFC000E42548@PAGEOFF]'
p331
sg19
S'00a442f9'
p332
sg21
Vldr x0, [x0, #0x548]
p333
sg5
L18446743798839733816L
sg6
Nsg23
S'LDR'
p334
sg25
S'0xffffffc0007b6e38L'
p335
sg27
Nsba(ibclass
BInstr
p336
(dp337
g2
Nsg17
S'MOV             W19, #0xFFFFFFEA'
p338
sg19
S'b3028012'
p339
sg21
Vmovn w19, #0x15
p340
sg5
L18446743798839733820L
sg6
Nsg23
S'MOV'
p341
sg25
S'0xffffffc0007b6e3cL'
p342
sg27
Nsba(ibclass
BInstr
p343
(dp344
g2
Nsg17
S'LDR             W0, [X0]'
p345
sg19
S'000040b9'
p346
sg21
Vldr w0, [x0]
p347
sg5
L18446743798839733824L
sg6
Nsg23
S'LDR'
p348
sg25
S'0xffffffc0007b6e40L'
p349
sg27
Nsba(ibclass
BInstr
p350
(dp351
g2
Nsg17
S'CBNZ            W0, loc_FFFFFFC0007B6EE4'
p352
sg19
S'00050035'
p353
sg21
Vcbnz w0, #0xa0
p354
sg5
L18446743798839733828L
sg6
Nsg23
S'CBNZ'
p355
sg25
S'0xffffffc0007b6e44L'
p356
sg27
Nsbasg70
(lp357
S'ADRP reg, #func@PAGE'
p358
aS'LDR reg, mem'
p359
aS'MOV reg9, #0xFFFFFFEA'
p360
aS'LDR reg, mem'
p361
aS'CBNZ reg, func'
p362
asg79
Nsg5
S'0xffffffc0007b6e34L'
p363
sg81
(lp364
S'0xffffffc0007b6e28L'
p365
asg6
Nsg83
(lp366
S'0xffffffc0007b6e48L'
p367
aS'0xffffffc0007b6ee4L'
p368
asg87
Nsg88
Nsg89
S'd80cc6d531f24a5b2d60307977d236c7'
p369
sg91
S'baaaa11d303d94886d47725c6dea0608'
p370
sg93
(lp371
g327
ag334
ag341
ag348
ag355
asg95
Nsba(ibclass
BBasicBlock
p372
(dp373
g12
Nsg13
(lp374
(ibclass
BInstr
p375
(dp376
g2
Nsg17
S'ADRP            X0, #unk_FFFFFFC0013BF1A2@PAGE'
p377
sg19
S'406000b0'
p378
sg21
Vadrp x0, #0xc09000
p379
sg5
L18446743798839733832L
sg6
Nsg23
S'ADRP'
p380
sg25
S'0xffffffc0007b6e48L'
p381
sg27
Nsba(ibclass
BInstr
p382
(dp383
g2
Nsg17
S'ADRP            X1, #aWarn@PAGE; "warn"'
p384
sg19
S'e15f00f0'
p385
sg21
Vadrp x1, #0xbff000
p386
sg5
L18446743798839733836L
sg6
Nsg23
S'ADRP'
p387
sg25
S'0xffffffc0007b6e4cL'
p388
sg27
Nsba(ibclass
BInstr
p389
(dp390
g2
Nsg17
S'ADD             X1, X1, #aWarn@PAGEOFF; "warn"'
p391
sg19
S'21d00691'
p392
sg21
Vadd x1, x1, #0x1b4
p393
sg5
L18446743798839733840L
sg6
Nsg23
S'ADD'
p394
sg25
S'0xffffffc0007b6e50L'
p395
sg27
Nsba(ibclass
BInstr
p396
(dp397
g2
Nsg17
S'ADD             X0, X0, #unk_FFFFFFC0013BF1A2@PAGEOFF'
p398
sg19
S'00880691'
p399
sg21
Vadd x0, x0, #0x1a2
p400
sg5
L18446743798839733844L
sg6
Nsg23
S'ADD'
p401
sg25
S'0xffffffc0007b6e54L'
p402
sg27
Nsba(ibclass
BInstr
p403
(dp404
g2
Nsg17
S'BL              printk'
p405
sg19
S'c7d81994'
p406
sg21
Vbl #0x67631c
p407
sg5
L18446743798839733848L
sg6
Nsg23
S'BL'
p408
sg25
S'0xffffffc0007b6e58L'
p409
sg27
Nsba(ibclass
BInstr
p410
(dp411
g2
Nsg17
S'B               loc_FFFFFFC0007B6EE4'
p412
sg19
S'22000014'
p413
sg21
Vb #0x88
p414
sg5
L18446743798839733852L
sg6
Nsg23
g229
sg25
S'0xffffffc0007b6e5cL'
p415
sg27
Nsbasg70
(lp416
S'ADRP reg, #func@PAGE'
p417
aS'ADRP reg, #aWarn@PAGE'
p418
aS'ADD reg, reg, #aWarn@PAGEOFF'
p419
aS'ADD reg, reg, #func@PAGEOFF'
p420
aS'BL printk'
p421
aS'B func'
p422
asg79
Nsg5
S'0xffffffc0007b6e48L'
p423
sg81
(lp424
S'0xffffffc0007b6e34L'
p425
asg6
Nsg83
(lp426
S'0xffffffc0007b6ee4L'
p427
asg87
Nsg88
Nsg89
S'b2a3927201f2643e37e238d870ced3c2'
p428
sg91
S'fa711b7d54428cc59c7e137999f61223'
p429
sg93
(lp430
g380
ag387
ag394
ag401
ag408
ag229
asg95
Nsba(ibclass
BBasicBlock
p431
(dp432
g12
Nsg13
(lp433
(ibclass
BInstr
p434
(dp435
g2
Nsg17
S'LDR             X1, [X2,#0x1F8]'
p436
sg19
S'41fc40f9'
p437
sg21
Vldr x1, [x2, #0x1f8]
p438
sg5
L18446743798839733856L
sg6
Nsg23
S'LDR'
p439
sg25
S'0xffffffc0007b6e60L'
p440
sg27
Nsba(ibclass
BInstr
p441
(dp442
g2
Nsg17
S'LDR             X2, [X1,#0x10]'
p443
sg19
S'220840f9'
p444
sg21
Vldr x2, [x1, #0x10]
p445
sg5
L18446743798839733860L
sg6
Nsg23
S'LDR'
p446
sg25
S'0xffffffc0007b6e64L'
p447
sg27
Nsba(ibclass
BInstr
p448
(dp449
g2
Nsg17
S'STR             X3, [X29,#arg_18]'
p450
sg19
S'a31700f9'
p451
sg21
Vstr x3, [x29, #0x28]
p452
sg5
L18446743798839733864L
sg6
Nsg23
S'STR'
p453
sg25
S'0xffffffc0007b6e68L'
p454
sg27
Nsba(ibclass
BInstr
p455
(dp456
g2
Nsg17
S'ADD             X19, X2, W3,UXTW'
p457
sg19
S'5340238b'
p458
sg21
Vadd x19, x2, w3, uxtw
p459
sg5
L18446743798839733868L
sg6
Nsg23
S'ADD'
p460
sg25
S'0xffffffc0007b6e6cL'
p461
sg27
Nsba(ibclass
BInstr
p462
(dp463
g2
Nsg17
S'MOV             X1, X19'
p464
sg19
S'e10313aa'
p465
sg21
Vmov x1, x19
p466
sg5
L18446743798839733872L
sg6
Nsg23
S'MOV'
p467
sg25
S'0xffffffc0007b6e70L'
p468
sg27
Nsba(ibclass
BInstr
p469
(dp470
g2
Nsg17
S'STR             X2, [X29,#arg_10]'
p471
sg19
S'a21300f9'
p472
sg21
Vstr x2, [x29, #0x20]
p473
sg5
L18446743798839733876L
sg6
Nsg23
S'STR'
p474
sg25
S'0xffffffc0007b6e74L'
p475
sg27
Nsba(ibclass
BInstr
p476
(dp477
g2
Nsg17
S'BL              uncached_logk'
p478
sg19
S'4bd7eb97'
p479
sg21
Vbl #0xffffffffffaf5d2c
p480
sg5
L18446743798839733880L
sg6
Nsg23
S'BL'
p481
sg25
S'0xffffffc0007b6e78L'
p482
sg27
Nsba(ibclass
BInstr
p483
(dp484
g2
Nsg17
S'B               loc_FFFFFFC0007B6E80'
p485
sg19
S'01000014'
p486
sg21
Vb #4
p487
sg5
L18446743798839733884L
sg6
Nsg23
g229
sg25
S'0xffffffc0007b6e7cL'
p488
sg27
Nsbasg70
(lp489
S'LDR reg, mem'
p490
aS'LDR reg, mem'
p491
aS'STR reg, mem'
p492
aS'ADD reg9, reg, reg,UXTW'
p493
aS'MOV reg, reg9'
p494
aS'STR reg, mem'
p495
aS'BL uncached_logk'
p496
aS'B func'
p497
asg79
Nsg5
S'0xffffffc0007b6e60L'
p498
sg81
(lp499
S'0xffffffc0007b6e1cL'
p500
asg6
Nsg83
(lp501
S'0xffffffc0007b6e80L'
p502
asg87
Nsg88
Nsg89
S'e457457db5df4a42f89dad97ffd06702'
p503
sg91
S'e0c6fa0125f27d5f8e6f73606abd2889'
p504
sg93
(lp505
g439
ag446
ag453
ag460
ag467
ag474
ag481
ag229
asg95
Nsba(ibclass
BBasicBlock
p506
(dp507
g12
Nsg13
(lp508
(ibclass
BInstr
p509
(dp510
g2
Nsg17
S'NOP'
p511
sg19
S'1f2003d5'
p512
sg21
Vnop 
p513
sg5
L18446743798839733888L
sg6
Nsg23
S'NOP'
p514
sg25
S'0xffffffc0007b6e80L'
p515
sg27
Nsba(ibclass
BInstr
p516
(dp517
g2
Nsg17
S'B               loc_FFFFFFC0007B6E88'
p518
sg19
S'01000014'
p519
sg21
Vb #4
p520
sg5
L18446743798839733892L
sg6
Nsg23
g229
sg25
S'0xffffffc0007b6e84L'
p521
sg27
Nsbasg70
(lp522
g511
aS'B func'
p523
asg79
Nsg5
S'0xffffffc0007b6e80L'
p524
sg81
(lp525
S'0xffffffc0007b6e60L'
p526
asg6
Nsg83
(lp527
S'0xffffffc0007b6e88L'
p528
asg87
Nsg88
Nsg89
S'cd7747b0f25165b140e3928a9053deac'
p529
sg91
S'361ec6e5b53b4a9d315a4d3f79274e10'
p530
sg93
(lp531
g514
ag229
asg95
Nsba(ibclass
BBasicBlock
p532
(dp533
g12
Nsg13
(lp534
(ibclass
BInstr
p535
(dp536
g2
Nsg17
S'NOP'
p537
sg19
S'1f2003d5'
p538
sg21
Vnop 
p539
sg5
L18446743798839733896L
sg6
Nsg23
S'NOP'
p540
sg25
S'0xffffffc0007b6e88L'
p541
sg27
Nsba(ibclass
BInstr
p542
(dp543
g2
Nsg17
S'LDAR            W19, [X19]'
p544
sg19
S'73fedf88'
p545
sg21
Vldar w19, [x19]
p546
sg5
L18446743798839733900L
sg6
Nsg23
S'LDAR'
p547
sg25
S'0xffffffc0007b6e8cL'
p548
sg27
Nsba(ibclass
BInstr
p549
(dp550
g2
Nsg17
S'LDR             X2, [X29,#arg_10]'
p551
sg19
S'a21340f9'
p552
sg21
Vldr x2, [x29, #0x20]
p553
sg5
L18446743798839733904L
sg6
Nsg23
S'LDR'
p554
sg25
S'0xffffffc0007b6e90L'
p555
sg27
Nsba(ibclass
BInstr
p556
(dp557
g2
Nsg17
S'LDR             X3, [X29,#arg_18]'
p558
sg19
S'a31740f9'
p559
sg21
Vldr x3, [x29, #0x28]
p560
sg5
L18446743798839733908L
sg6
Nsg23
S'LDR'
p561
sg25
S'0xffffffc0007b6e94L'
p562
sg27
Nsba(ibclass
BInstr
p563
(dp564
g2
Nsg17
S'CBZ             W0, loc_FFFFFFC0007B6EA4'
p565
sg19
S'60000034'
p566
sg21
Vcbz w0, #0xc
p567
sg5
L18446743798839733912L
sg6
Nsg23
S'CBZ'
p568
sg25
S'0xffffffc0007b6e98L'
p569
sg27
Nsbasg70
(lp570
g537
aS'LDAR reg9, mem'
p571
aS'LDR reg, mem'
p572
aS'LDR reg, mem'
p573
aS'CBZ reg, func'
p574
asg79
Nsg5
S'0xffffffc0007b6e88L'
p575
sg81
(lp576
S'0xffffffc0007b6e80L'
p577
asg6
Nsg83
(lp578
S'0xffffffc0007b6e9cL'
p579
aS'0xffffffc0007b6ea4L'
p580
asg87
Nsg88
Nsg89
S'89608d37f939edf9f3fcf12f75cb8a67'
p581
sg91
S'fcc52209fd6f3d42a81f63ad6f611ae9'
p582
sg93
(lp583
g540
ag547
ag554
ag561
ag568
asg95
Nsba(ibclass
BBasicBlock
p584
(dp585
g12
Nsg13
(lp586
(ibclass
BInstr
p587
(dp588
g2
Nsg17
S'DSB             SY'
p589
sg19
S'9f3f03d5'
p590
sg21
Vdsb sy
p591
sg5
L18446743798839733916L
sg6
Nsg23
S'DSB'
p592
sg25
S'0xffffffc0007b6e9cL'
p593
sg27
Nsba(ibclass
BInstr
p594
(dp595
g2
Nsg17
S'ISB'
p596
sg19
S'df3f03d5'
p597
sg21
Visb 
p598
sg5
L18446743798839733920L
sg6
Nsg23
S'ISB'
p599
sg25
S'0xffffffc0007b6ea0L'
p600
sg27
Nsbasg70
(lp601
S'DSB SY'
p602
ag596
asg79
Nsg5
S'0xffffffc0007b6e9cL'
p603
sg81
(lp604
S'0xffffffc0007b6e88L'
p605
asg6
Nsg83
(lp606
S'0xffffffc0007b6ea4L'
p607
asg87
Nsg88
Nsg89
S'53dc4bd1d85e328cea59865fd16599f6'
p608
sg91
S'2c7d9dbff8fc4f24f1e9854b312ef5cb'
p609
sg93
(lp610
g592
ag599
asg95
Nsba(ibclass
BBasicBlock
p611
(dp612
g12
Nsg13
(lp613
(ibclass
BInstr
p614
(dp615
g2
Nsg17
S'DSB             LD'
p616
sg19
S'9f3d03d5'
p617
sg21
Vdsb ld
p618
sg5
L18446743798839733924L
sg6
Nsg23
S'DSB'
p619
sg25
S'0xffffffc0007b6ea4L'
p620
sg27
Nsba(ibclass
BInstr
p621
(dp622
g2
Nsg17
S'LDR             X20, [X20,#qword_FFFFFFC000E440A0@PAGEOFF]'
p623
sg19
S'945240f9'
p624
sg21
Vldr x20, [x20, #0xa0]
p625
sg5
L18446743798839733928L
sg6
Nsg23
S'LDR'
p626
sg25
S'0xffffffc0007b6ea8L'
p627
sg27
Nsba(ibclass
BInstr
p628
(dp629
g2
Nsg17
S'LDR             W0, [X20]'
p630
sg19
S'800240b9'
p631
sg21
Vldr w0, [x20]
p632
sg5
L18446743798839733932L
sg6
Nsg23
S'LDR'
p633
sg25
S'0xffffffc0007b6eacL'
p634
sg27
Nsba(ibclass
BInstr
p635
(dp636
g2
Nsg17
S'TBZ             W0, #3, loc_FFFFFFC0007B6EE4'
p637
sg19
S'a0011836'
p638
sg21
Vtbz w0, #3, #0x34
p639
sg5
L18446743798839733936L
sg6
Nsg23
S'TBZ'
p640
sg25
S'0xffffffc0007b6eb0L'
p641
sg27
Nsbasg70
(lp642
S'DSB LD'
p643
aS'LDR reg0, mem'
p644
aS'LDR reg, mem'
p645
aS'TBZ reg, #3, func'
p646
asg79
Nsg5
S'0xffffffc0007b6ea4L'
p647
sg81
(lp648
S'0xffffffc0007b6e88L'
p649
aS'0xffffffc0007b6e9cL'
p650
asg6
Nsg83
(lp651
S'0xffffffc0007b6eb4L'
p652
aS'0xffffffc0007b6ee4L'
p653
asg87
Nsg88
Nsg89
S'ce2f84f343c27da69431e363e970c112'
p654
sg91
S'5784b8df9b60922e4fb47cf5bfb2f77c'
p655
sg93
(lp656
g619
ag626
ag633
ag640
asg95
Nsba(ibclass
BBasicBlock
p657
(dp658
g12
Nsg13
(lp659
(ibclass
BInstr
p660
(dp661
g2
Nsg17
S'ADRP            X0, #qword_FFFFFFC000E42548@PAGE'
p662
sg19
S'60340090'
p663
sg21
Vadrp x0, #0x68c000
p664
sg5
L18446743798839733940L
sg6
Nsg23
S'ADRP'
p665
sg25
S'0xffffffc0007b6eb4L'
p666
sg27
Nsba(ibclass
BInstr
p667
(dp668
g2
Nsg17
S'LDR             X0, [X0,#qword_FFFFFFC000E42548@PAGEOFF]'
p669
sg19
S'00a442f9'
p670
sg21
Vldr x0, [x0, #0x548]
p671
sg5
L18446743798839733944L
sg6
Nsg23
S'LDR'
p672
sg25
S'0xffffffc0007b6eb8L'
p673
sg27
Nsba(ibclass
BInstr
p674
(dp675
g2
Nsg17
S'LDR             W0, [X0]'
p676
sg19
S'000040b9'
p677
sg21
Vldr w0, [x0]
p678
sg5
L18446743798839733948L
sg6
Nsg23
S'LDR'
p679
sg25
S'0xffffffc0007b6ebcL'
p680
sg27
Nsba(ibclass
BInstr
p681
(dp682
g2
Nsg17
S'CBNZ            W0, loc_FFFFFFC0007B6EE4'
p683
sg19
S'20010035'
p684
sg21
Vcbnz w0, #0x24
p685
sg5
L18446743798839733952L
sg6
Nsg23
S'CBNZ'
p686
sg25
S'0xffffffc0007b6ec0L'
p687
sg27
Nsbasg70
(lp688
S'ADRP reg, #func@PAGE'
p689
aS'LDR reg, mem'
p690
aS'LDR reg, mem'
p691
aS'CBNZ reg, func'
p692
asg79
Nsg5
S'0xffffffc0007b6eb4L'
p693
sg81
(lp694
S'0xffffffc0007b6ea4L'
p695
asg6
Nsg83
(lp696
S'0xffffffc0007b6ec4L'
p697
aS'0xffffffc0007b6ee4L'
p698
asg87
Nsg88
Nsg89
S'9c97521b8b0f280d47a50ec9a5e4f86f'
p699
sg91
S'bd26f8893557dc5fa132ff2490be0ebf'
p700
sg93
(lp701
g665
ag672
ag679
ag686
asg95
Nsba(ibclass
BBasicBlock
p702
(dp703
g12
Nsg13
(lp704
(ibclass
BInstr
p705
(dp706
g2
Nsg17
S'ADRP            X0, #unk_FFFFFFC0013BF1DE@PAGE'
p707
sg19
S'406000b0'
p708
sg21
Vadrp x0, #0xc09000
p709
sg5
L18446743798839733956L
sg6
Nsg23
S'ADRP'
p710
sg25
S'0xffffffc0007b6ec4L'
p711
sg27
Nsba(ibclass
BInstr
p712
(dp713
g2
Nsg17
S'ADRP            X1, #(aRulesDbg+6)@PAGE; "dbg"'
p714
sg19
S'216700d0'
p715
sg21
Vadrp x1, #0xce6000
p716
sg5
L18446743798839733960L
sg6
Nsg23
S'ADRP'
p717
sg25
S'0xffffffc0007b6ec8L'
p718
sg27
Nsba(ibclass
BInstr
p719
(dp720
g2
Nsg17
S'ADD             X1, X1, #(aRulesDbg+6)@PAGEOFF; "dbg"'
p721
sg19
S'21883391'
p722
sg21
Vadd x1, x1, #0xce2
p723
sg5
L18446743798839733964L
sg6
Nsg23
S'ADD'
p724
sg25
S'0xffffffc0007b6eccL'
p725
sg27
Nsba(ibclass
BInstr
p726
(dp727
g2
Nsg17
S'MOV             W4, W19'
p728
sg19
S'e403132a'
p729
sg21
Vmov w4, w19
p730
sg5
L18446743798839733968L
sg6
Nsg23
S'MOV'
p731
sg25
S'0xffffffc0007b6ed0L'
p732
sg27
Nsba(ibclass
BInstr
p733
(dp734
g2
Nsg17
S'ADD             X0, X0, #unk_FFFFFFC0013BF1DE@PAGEOFF'
p735
sg19
S'00780791'
p736
sg21
Vadd x0, x0, #0x1de
p737
sg5
L18446743798839733972L
sg6
Nsg23
S'ADD'
p738
sg25
S'0xffffffc0007b6ed4L'
p739
sg27
Nsba(ibclass
BInstr
p740
(dp741
g2
Nsg17
S'BL              printk'
p742
sg19
S'a7d81994'
p743
sg21
Vbl #0x67629c
p744
sg5
L18446743798839733976L
sg6
Nsg23
S'BL'
p745
sg25
S'0xffffffc0007b6ed8L'
p746
sg27
Nsba(ibclass
BInstr
p747
(dp748
g2
Nsg17
S'B               loc_FFFFFFC0007B6EE4'
p749
sg19
S'02000014'
p750
sg21
Vb #8
p751
sg5
L18446743798839733980L
sg6
Nsg23
g229
sg25
S'0xffffffc0007b6edcL'
p752
sg27
Nsbasg70
(lp753
S'ADRP reg, #func@PAGE'
p754
aS'ADRP reg, #(aRulesDbg+6)@PAGE'
p755
aS'ADD reg, reg, #(aRulesDbg+6)@PAGEOFF'
p756
aS'MOV reg, reg9'
p757
aS'ADD reg, reg, #func@PAGEOFF'
p758
aS'BL printk'
p759
aS'B func'
p760
asg79
Nsg5
S'0xffffffc0007b6ec4L'
p761
sg81
(lp762
S'0xffffffc0007b6eb4L'
p763
asg6
Nsg83
(lp764
S'0xffffffc0007b6ee4L'
p765
asg87
Nsg88
Nsg89
S'ff7f44466e74267aa9d96fda41da35ba'
p766
sg91
S'baa28a9a968359a3bd88153440e315cf'
p767
sg93
(lp768
g710
ag717
ag724
ag731
ag738
ag745
ag229
asg95
Nsba(ibclass
BBasicBlock
p769
(dp770
g12
Nsg13
(lp771
(ibclass
BInstr
p772
(dp773
g2
Nsg17
S'MOV             W19, #0xFFFFFFEA'
p774
sg19
S'b3028012'
p775
sg21
Vmovn w19, #0x15
p776
sg5
L18446743798839733984L
sg6
Nsg23
S'MOV'
p777
sg25
S'0xffffffc0007b6ee0L'
p778
sg27
Nsbasg70
(lp779
S'MOV reg9, #0xFFFFFFEA'
p780
asg79
Nsg5
S'0xffffffc0007b6ee0L'
p781
sg81
(lp782
S'0xffffffc0007b6de4L'
p783
aS'0xffffffc0007b6e28L'
p784
asg6
Nsg83
(lp785
S'0xffffffc0007b6ee4L'
p786
asg87
Nsg88
Nsg89
S'17b32100aef1fc19670be7fd58bc85df'
p787
sg91
S'b3606159d658f642fff4e1852538bd21'
p788
sg93
(lp789
g777
asg95
Nsba(ibclass
BBasicBlock
p790
(dp791
g12
Nsg13
(lp792
(ibclass
BInstr
p793
(dp794
g2
Nsg17
S'MOV             W0, W19'
p795
sg19
S'e003132a'
p796
sg21
Vmov w0, w19
p797
sg5
L18446743798839733988L
sg6
Nsg23
S'MOV'
p798
sg25
S'0xffffffc0007b6ee4L'
p799
sg27
Nsba(ibclass
BInstr
p800
(dp801
g2
Nsg17
S'LDP             X19, X20, [SP,#0x20+var_10]'
p802
sg19
S'f35341a9'
p803
sg21
Vldp x19, x20, [sp, #0x10]
p804
sg5
L18446743798839733992L
sg6
Nsg23
S'LDP'
p805
sg25
S'0xffffffc0007b6ee8L'
p806
sg27
Nsba(ibclass
BInstr
p807
(dp808
g2
Nsg17
S'LDP             X29, X30, [SP+0x20+var_20],#0x30'
p809
sg19
S'fd7bc3a8'
p810
sg21
Vldp x29, x30, [sp], #0x30
p811
sg5
L18446743798839733996L
sg6
Nsg23
S'LDP'
p812
sg25
S'0xffffffc0007b6eecL'
p813
sg27
Nsba(ibclass
BInstr
p814
(dp815
g2
Nsg17
S'RET'
p816
sg19
S'c0035fd6'
p817
sg21
Vret 
p818
sg5
L18446743798839734000L
sg6
Nsg23
S'RET'
p819
sg25
S'0xffffffc0007b6ef0L'
p820
sg27
Nsbasg70
(lp821
S'MOV reg, reg9'
p822
aS'LDP reg9, reg0, mem'
p823
aS'LDP reg9, reg0, mem,#0x30'
p824
ag816
asg79
Nsg5
S'0xffffffc0007b6ee4L'
p825
sg81
(lp826
S'0xffffffc0007b6df0L'
p827
aS'0xffffffc0007b6e04L'
p828
aS'0xffffffc0007b6e34L'
p829
aS'0xffffffc0007b6e48L'
p830
aS'0xffffffc0007b6ea4L'
p831
aS'0xffffffc0007b6eb4L'
p832
aS'0xffffffc0007b6ec4L'
p833
aS'0xffffffc0007b6ee0L'
p834
asg6
Nsg83
(lp835
sg87
Nsg88
Nsg89
S'71ab966c7236e9c8ca7660e140718091'
p836
sg91
S'6b75adc48bf8e39ca578c1a2de1b97a8'
p837
sg93
(lp838
g798
ag805
ag812
ag819
asg95
Nsbasb.