(ibclass
BFunc
p0
(dp1
S'hash'
p2
NsS'name'
p3
S'venus_hfi_iommu_get_domain_partition'
p4
sS'start_address'
p5
L18446743798839749516L
sS'flag'
p6
NsS'program'
p7
NsS'bbs'
p8
(lp9
(ibclass
BBasicBlock
p10
(dp11
S'function'
p12
NsS'binstrs'
p13
(lp14
(ibclass
BInstr
p15
(dp16
g2
NsS'disasm'
p17
S'STP             X29, X30, [SP,#-0x10+var_10]!'
p18
sS'bytes'
p19
S'fd7bbea9'
p20
sS'disasm_striped'
p21
Vstp x29, x30, [sp, #-0x20]!
p22
sg5
L18446743798839749516L
sg6
NsS'mnem'
p23
S'STP'
p24
sS'address'
p25
S'0xffffffc0007bab8cL'
p26
sS'basicblock'
p27
Nsba(ibclass
BInstr
p28
(dp29
g2
Nsg17
S'MOV             X29, SP'
p30
sg19
S'fd030091'
p31
sg21
Vmov x29, sp
p32
sg5
L18446743798839749520L
sg6
Nsg23
S'MOV'
p33
sg25
S'0xffffffc0007bab90L'
p34
sg27
Nsba(ibclass
BInstr
p35
(dp36
g2
Nsg17
S'STR             X19, [SP,#0x10+var_s0]'
p37
sg19
S'f30b00f9'
p38
sg21
Vstr x19, [sp, #0x10]
p39
sg5
L18446743798839749524L
sg6
Nsg23
S'STR'
p40
sg25
S'0xffffffc0007bab94L'
p41
sg27
Nsba(ibclass
BInstr
p42
(dp43
g2
Nsg17
S'MOV             X5, X0'
p44
sg19
S'e50300aa'
p45
sg21
Vmov x5, x0
p46
sg5
L18446743798839749528L
sg6
Nsg23
S'MOV'
p47
sg25
S'0xffffffc0007bab98L'
p48
sg27
Nsba(ibclass
BInstr
p49
(dp50
g2
Nsg17
S'CBNZ            X0, loc_FFFFFFC0007BABEC'
p51
sg19
S'800200b5'
p52
sg21
Vcbnz x0, #0x50
p53
sg5
L18446743798839749532L
sg6
Nsg23
S'CBNZ'
p54
sg25
S'0xffffffc0007bab9cL'
p55
sg27
NsbasS'disasm_list'
p56
(lp57
S'STP reg9, reg0, mem!'
p58
aS'MOV reg9, SP'
p59
aS'STR reg9, mem'
p60
aS'MOV reg, reg'
p61
aS'CBNZ reg, func'
p62
asS'end_address'
p63
Nsg5
S'0xffffffc0007bab8cL'
p64
sS'preds'
p65
(lp66
sg6
NsS'succs'
p67
(lp68
S'0xffffffc0007baba0L'
p69
aS'0xffffffc0007babecL'
p70
asS'hash_v3'
p71
NsS'flag_v2'
p72
NsS'hash_v1'
p73
S'50eed03d057bf7fac4c210acc8b85c39'
p74
sS'hash_v2'
p75
S'65152969b5ae3f8ee989757fc5333782'
p76
sS'mnen_list'
p77
(lp78
g24
ag33
ag40
ag47
ag54
asS'neighbour_disasm_list'
p79
Nsba(ibclass
BBasicBlock
p80
(dp81
g12
Nsg13
(lp82
(ibclass
BInstr
p83
(dp84
g2
Nsg17
S'ADRP            X0, #qword_FFFFFFC000E440A0@PAGE'
p85
sg19
S'403400d0'
p86
sg21
Vadrp x0, #0x68a000
p87
sg5
L18446743798839749536L
sg6
Nsg23
S'ADRP'
p88
sg25
S'0xffffffc0007baba0L'
p89
sg27
Nsba(ibclass
BInstr
p90
(dp91
g2
Nsg17
S'LDR             X0, [X0,#qword_FFFFFFC000E440A0@PAGEOFF]'
p92
sg19
S'005040f9'
p93
sg21
Vldr x0, [x0, #0xa0]
p94
sg5
L18446743798839749540L
sg6
Nsg23
S'LDR'
p95
sg25
S'0xffffffc0007baba4L'
p96
sg27
Nsba(ibclass
BInstr
p97
(dp98
g2
Nsg17
S'LDR             W0, [X0]'
p99
sg19
S'000040b9'
p100
sg21
Vldr w0, [x0]
p101
sg5
L18446743798839749544L
sg6
Nsg23
S'LDR'
p102
sg25
S'0xffffffc0007baba8L'
p103
sg27
Nsba(ibclass
BInstr
p104
(dp105
g2
Nsg17
S'TBZ             W0, #0, loc_FFFFFFC0007BABFC'
p106
sg19
S'80020036'
p107
sg21
Vtbz w0, #0, #0x50
p108
sg5
L18446743798839749548L
sg6
Nsg23
S'TBZ'
p109
sg25
S'0xffffffc0007babacL'
p110
sg27
Nsbasg56
(lp111
S'ADRP reg, #func@PAGE'
p112
aS'LDR reg, mem'
p113
aS'LDR reg, mem'
p114
aS'TBZ reg, #0, func'
p115
asg63
Nsg5
S'0xffffffc0007baba0L'
p116
sg65
(lp117
S'0xffffffc0007bab8cL'
p118
asg6
Nsg67
(lp119
S'0xffffffc0007babb0L'
p120
aS'0xffffffc0007babfcL'
p121
asg71
Nsg72
Nsg73
S'2de94c9e326481f2f467f11acce8dcc9'
p122
sg75
S'f9f7225e2bae36aff04e5d93bafe5e1d'
p123
sg77
(lp124
g88
ag95
ag102
ag109
asg79
Nsba(ibclass
BBasicBlock
p125
(dp126
g12
Nsg13
(lp127
(ibclass
BInstr
p128
(dp129
g2
Nsg17
S'ADRP            X0, #qword_FFFFFFC000E42548@PAGE'
p130
sg19
S'40340090'
p131
sg21
Vadrp x0, #0x688000
p132
sg5
L18446743798839749552L
sg6
Nsg23
S'ADRP'
p133
sg25
S'0xffffffc0007babb0L'
p134
sg27
Nsba(ibclass
BInstr
p135
(dp136
g2
Nsg17
S'LDR             X0, [X0,#qword_FFFFFFC000E42548@PAGEOFF]'
p137
sg19
S'00a442f9'
p138
sg21
Vldr x0, [x0, #0x548]
p139
sg5
L18446743798839749556L
sg6
Nsg23
S'LDR'
p140
sg25
S'0xffffffc0007babb4L'
p141
sg27
Nsba(ibclass
BInstr
p142
(dp143
g2
Nsg17
S'MOV             W19, #0xFFFFFFEA'
p144
sg19
S'b3028012'
p145
sg21
Vmovn w19, #0x15
p146
sg5
L18446743798839749560L
sg6
Nsg23
S'MOV'
p147
sg25
S'0xffffffc0007babb8L'
p148
sg27
Nsba(ibclass
BInstr
p149
(dp150
g2
Nsg17
S'LDR             W0, [X0]'
p151
sg19
S'000040b9'
p152
sg21
Vldr w0, [x0]
p153
sg5
L18446743798839749564L
sg6
Nsg23
S'LDR'
p154
sg25
S'0xffffffc0007babbcL'
p155
sg27
Nsba(ibclass
BInstr
p156
(dp157
g2
Nsg17
S'CBNZ            W0, loc_FFFFFFC0007BAC00'
p158
sg19
S'00020035'
p159
sg21
Vcbnz w0, #0x40
p160
sg5
L18446743798839749568L
sg6
Nsg23
S'CBNZ'
p161
sg25
S'0xffffffc0007babc0L'
p162
sg27
Nsbasg56
(lp163
S'ADRP reg, #func@PAGE'
p164
aS'LDR reg, mem'
p165
aS'MOV reg9, #0xFFFFFFEA'
p166
aS'LDR reg, mem'
p167
aS'CBNZ reg, func'
p168
asg63
Nsg5
S'0xffffffc0007babb0L'
p169
sg65
(lp170
S'0xffffffc0007baba0L'
p171
asg6
Nsg67
(lp172
S'0xffffffc0007babc4L'
p173
aS'0xffffffc0007bac00L'
p174
asg71
Nsg72
Nsg73
S'd80cc6d531f24a5b2d60307977d236c7'
p175
sg75
S'baaaa11d303d94886d47725c6dea0608'
p176
sg77
(lp177
g133
ag140
ag147
ag154
ag161
asg79
Nsba(ibclass
BBasicBlock
p178
(dp179
g12
Nsg13
(lp180
(ibclass
BInstr
p181
(dp182
g2
Nsg17
S'ADRP            X2, #__func__.33986@PAGE; "venus_hfi_suspend"'
p183
sg19
S'82440090'
p184
sg21
Vadrp x2, #0x890000
p185
sg5
L18446743798839749572L
sg6
Nsg23
S'ADRP'
p186
sg25
S'0xffffffc0007babc4L'
p187
sg27
Nsba(ibclass
BInstr
p188
(dp189
g2
Nsg17
S'ADRP            X0, #unk_FFFFFFC0013C01F2@PAGE'
p190
sg19
S'206000d0'
p191
sg21
Vadrp x0, #0xc06000
p192
sg5
L18446743798839749576L
sg6
Nsg23
S'ADRP'
p193
sg25
S'0xffffffc0007babc8L'
p194
sg27
Nsba(ibclass
BInstr
p195
(dp196
g2
Nsg17
S'ADRP            X1, #(aQcomMdssDsi_17+0x1B)@PAGE; "err"'
p197
sg19
S'a15b00b0'
p198
sg21
Vadrp x1, #0xb75000
p199
sg5
L18446743798839749580L
sg6
Nsg23
S'ADRP'
p200
sg25
S'0xffffffc0007babccL'
p201
sg27
Nsba(ibclass
BInstr
p202
(dp203
g2
Nsg17
S'ADD             X2, X2, #__func__.33986@PAGEOFF; "venus_hfi_suspend"'
p204
sg19
S'42001991'
p205
sg21
Vadd x2, x2, #0x640
p206
sg5
L18446743798839749584L
sg6
Nsg23
S'ADD'
p207
sg25
S'0xffffffc0007babd0L'
p208
sg27
Nsba(ibclass
BInstr
p209
(dp210
g2
Nsg17
S'ADD             X1, X1, #(aQcomMdssDsi_17+0x1B)@PAGEOFF; "err"'
p211
sg19
S'212c0591'
p212
sg21
Vadd x1, x1, #0x14b
p213
sg5
L18446743798839749588L
sg6
Nsg23
S'ADD'
p214
sg25
S'0xffffffc0007babd4L'
p215
sg27
Nsba(ibclass
BInstr
p216
(dp217
g2
Nsg17
S'ADD             X2, X2, #0x240'
p218
sg19
S'42000991'
p219
sg21
Vadd x2, x2, #0x240
p220
sg5
L18446743798839749592L
sg6
Nsg23
S'ADD'
p221
sg25
S'0xffffffc0007babd8L'
p222
sg27
Nsba(ibclass
BInstr
p223
(dp224
g2
Nsg17
S'MOV             X3, X5'
p225
sg19
S'e30305aa'
p226
sg21
Vmov x3, x5
p227
sg5
L18446743798839749596L
sg6
Nsg23
S'MOV'
p228
sg25
S'0xffffffc0007babdcL'
p229
sg27
Nsba(ibclass
BInstr
p230
(dp231
g2
Nsg17
S'ADD             X0, X0, #unk_FFFFFFC0013C01F2@PAGEOFF'
p232
sg19
S'00c80791'
p233
sg21
Vadd x0, x0, #0x1f2
p234
sg5
L18446743798839749600L
sg6
Nsg23
S'ADD'
p235
sg25
S'0xffffffc0007babe0L'
p236
sg27
Nsba(ibclass
BInstr
p237
(dp238
g2
Nsg17
S'BL              printk'
p239
sg19
S'64c91994'
p240
sg21
Vbl #0x672590
p241
sg5
L18446743798839749604L
sg6
Nsg23
S'BL'
p242
sg25
S'0xffffffc0007babe4L'
p243
sg27
Nsba(ibclass
BInstr
p244
(dp245
g2
Nsg17
S'B               loc_FFFFFFC0007BAC00'
p246
sg19
S'06000014'
p247
sg21
Vb #0x18
p248
sg5
L18446743798839749608L
sg6
Nsg23
S'B'
p249
sg25
S'0xffffffc0007babe8L'
p250
sg27
Nsbasg56
(lp251
S'ADRP reg, #__func__.33986@PAGE'
p252
aS'ADRP reg, #func@PAGE'
p253
aS'ADRP reg, #(aQcomMdssDsi_17+0x1B)@PAGE'
p254
aS'ADD reg, reg, #__func__.33986@PAGEOFF'
p255
aS'ADD reg, reg, #(aQcomMdssDsi_17+0x1B)@PAGEOFF'
p256
aS'ADD reg, reg, #0x240'
p257
aS'MOV reg, reg'
p258
aS'ADD reg, reg, #func@PAGEOFF'
p259
aS'BL printk'
p260
aS'B func'
p261
asg63
Nsg5
S'0xffffffc0007babc4L'
p262
sg65
(lp263
S'0xffffffc0007babb0L'
p264
asg6
Nsg67
(lp265
S'0xffffffc0007bac00L'
p266
asg71
Nsg72
Nsg73
S'7e3e61d7f8547903d75fbbc718c41713'
p267
sg75
S'eeaab987fe756f32e3139e09e52b76e6'
p268
sg77
(lp269
g186
ag193
ag200
ag207
ag214
ag221
ag228
ag235
ag242
ag249
asg79
Nsba(ibclass
BBasicBlock
p270
(dp271
g12
Nsg13
(lp272
(ibclass
BInstr
p273
(dp274
g2
Nsg17
S'LDR             X0, [X0,#0x1F0]'
p275
sg19
S'00f840f9'
p276
sg21
Vldr x0, [x0, #0x1f0]
p277
sg5
L18446743798839749612L
sg6
Nsg23
S'LDR'
p278
sg25
S'0xffffffc0007babecL'
p279
sg27
Nsba(ibclass
BInstr
p280
(dp281
g2
Nsg17
S'MOV             W19, #0'
p282
sg19
S'13008052'
p283
sg21
Vmovz w19, #0
p284
sg5
L18446743798839749616L
sg6
Nsg23
S'MOV'
p285
sg25
S'0xffffffc0007babf0L'
p286
sg27
Nsba(ibclass
BInstr
p287
(dp288
g2
Nsg17
S'BL              msm_smem_get_domain_partition'
p289
sg19
S'2ed3ff97'
p290
sg21
Vbl #0xffffffffffff4cb8
p291
sg5
L18446743798839749620L
sg6
Nsg23
S'BL'
p292
sg25
S'0xffffffc0007babf4L'
p293
sg27
Nsba(ibclass
BInstr
p294
(dp295
g2
Nsg17
S'B               loc_FFFFFFC0007BAC00'
p296
sg19
S'02000014'
p297
sg21
Vb #8
p298
sg5
L18446743798839749624L
sg6
Nsg23
g249
sg25
S'0xffffffc0007babf8L'
p299
sg27
Nsbasg56
(lp300
S'LDR reg, mem'
p301
aS'MOV reg9, #0'
p302
aS'BL msm_smem_get_domain_partition'
p303
aS'B func'
p304
asg63
Nsg5
S'0xffffffc0007babecL'
p305
sg65
(lp306
S'0xffffffc0007bab8cL'
p307
asg6
Nsg67
(lp308
S'0xffffffc0007bac00L'
p309
asg71
Nsg72
Nsg73
S'5fedef6179ef4424f7a3c902a89e7a69'
p310
sg75
S'cab8167c1e464df69f2ece0c10c5c33b'
p311
sg77
(lp312
g278
ag285
ag292
ag249
asg79
Nsba(ibclass
BBasicBlock
p313
(dp314
g12
Nsg13
(lp315
(ibclass
BInstr
p316
(dp317
g2
Nsg17
S'MOV             W19, #0xFFFFFFEA'
p318
sg19
S'b3028012'
p319
sg21
Vmovn w19, #0x15
p320
sg5
L18446743798839749628L
sg6
Nsg23
S'MOV'
p321
sg25
S'0xffffffc0007babfcL'
p322
sg27
Nsbasg56
(lp323
S'MOV reg9, #0xFFFFFFEA'
p324
asg63
Nsg5
S'0xffffffc0007babfcL'
p325
sg65
(lp326
S'0xffffffc0007baba0L'
p327
asg6
Nsg67
(lp328
S'0xffffffc0007bac00L'
p329
asg71
Nsg72
Nsg73
S'17b32100aef1fc19670be7fd58bc85df'
p330
sg75
S'b3606159d658f642fff4e1852538bd21'
p331
sg77
(lp332
g321
asg79
Nsba(ibclass
BBasicBlock
p333
(dp334
g12
Nsg13
(lp335
(ibclass
BInstr
p336
(dp337
g2
Nsg17
S'MOV             W0, W19'
p338
sg19
S'e003132a'
p339
sg21
Vmov w0, w19
p340
sg5
L18446743798839749632L
sg6
Nsg23
S'MOV'
p341
sg25
S'0xffffffc0007bac00L'
p342
sg27
Nsba(ibclass
BInstr
p343
(dp344
g2
Nsg17
S'LDR             X19, [SP,#0x10+var_s0]'
p345
sg19
S'f30b40f9'
p346
sg21
Vldr x19, [sp, #0x10]
p347
sg5
L18446743798839749636L
sg6
Nsg23
S'LDR'
p348
sg25
S'0xffffffc0007bac04L'
p349
sg27
Nsba(ibclass
BInstr
p350
(dp351
g2
Nsg17
S'LDP             X29, X30, [SP+0x10+var_10],#0x20'
p352
sg19
S'fd7bc2a8'
p353
sg21
Vldp x29, x30, [sp], #0x20
p354
sg5
L18446743798839749640L
sg6
Nsg23
S'LDP'
p355
sg25
S'0xffffffc0007bac08L'
p356
sg27
Nsba(ibclass
BInstr
p357
(dp358
g2
Nsg17
S'RET'
p359
sg19
S'c0035fd6'
p360
sg21
Vret 
p361
sg5
L18446743798839749644L
sg6
Nsg23
S'RET'
p362
sg25
S'0xffffffc0007bac0cL'
p363
sg27
Nsbasg56
(lp364
S'MOV reg, reg9'
p365
aS'LDR reg9, mem'
p366
aS'LDP reg9, reg0, mem,#0x20'
p367
ag359
asg63
Nsg5
S'0xffffffc0007bac00L'
p368
sg65
(lp369
S'0xffffffc0007babb0L'
p370
aS'0xffffffc0007babc4L'
p371
aS'0xffffffc0007babecL'
p372
aS'0xffffffc0007babfcL'
p373
asg6
Nsg67
(lp374
sg71
Nsg72
Nsg73
S'700b6007ea89efb2d19f65eecdfbdc66'
p375
sg75
S'2540ec61573c55ff75133ef1ef4cbd07'
p376
sg77
(lp377
g341
ag348
ag355
ag362
asg79
Nsbasb.