(ibclass
BFunc
p0
(dp1
S'hash'
p2
NsS'name'
p3
S'vidc_hfi_deinitialize'
p4
sS'start_address'
p5
L18446743798839785476L
sS'flag'
p6
NsS'program'
p7
NsS'bbs'
p8
(lp9
(ibclass
BBasicBlock
p10
(dp11
S'function'
p12
NsS'binstrs'
p13
(lp14
(ibclass
BInstr
p15
(dp16
g2
NsS'disasm'
p17
S'STP             X29, X30, [SP,#-0x10+var_10]!'
p18
sS'bytes'
p19
S'fd7bbea9'
p20
sS'disasm_striped'
p21
Vstp x29, x30, [sp, #-0x20]!
p22
sg5
L18446743798839785476L
sg6
NsS'mnem'
p23
S'STP'
p24
sS'address'
p25
S'0xffffffc0007c3804L'
p26
sS'basicblock'
p27
Nsba(ibclass
BInstr
p28
(dp29
g2
Nsg17
S'MOV             X29, SP'
p30
sg19
S'fd030091'
p31
sg21
Vmov x29, sp
p32
sg5
L18446743798839785480L
sg6
Nsg23
S'MOV'
p33
sg25
S'0xffffffc0007c3808L'
p34
sg27
Nsba(ibclass
BInstr
p35
(dp36
g2
Nsg17
S'STR             X19, [SP,#0x10+var_s0]'
p37
sg19
S'f30b00f9'
p38
sg21
Vstr x19, [sp, #0x10]
p39
sg5
L18446743798839785484L
sg6
Nsg23
S'STR'
p40
sg25
S'0xffffffc0007c380cL'
p41
sg27
Nsba(ibclass
BInstr
p42
(dp43
g2
Nsg17
S'MOV             X19, X1'
p44
sg19
S'f30301aa'
p45
sg21
Vmov x19, x1
p46
sg5
L18446743798839785488L
sg6
Nsg23
S'MOV'
p47
sg25
S'0xffffffc0007c3810L'
p48
sg27
Nsba(ibclass
BInstr
p49
(dp50
g2
Nsg17
S'CBNZ            X1, loc_FFFFFFC0007C3860'
p51
sg19
S'610200b5'
p52
sg21
Vcbnz x1, #0x4c
p53
sg5
L18446743798839785492L
sg6
Nsg23
S'CBNZ'
p54
sg25
S'0xffffffc0007c3814L'
p55
sg27
NsbasS'disasm_list'
p56
(lp57
S'STP reg9, reg0, mem!'
p58
aS'MOV reg9, SP'
p59
aS'STR reg9, mem'
p60
aS'MOV reg9, reg'
p61
aS'CBNZ reg, func'
p62
asS'end_address'
p63
Nsg5
S'0xffffffc0007c3804L'
p64
sS'preds'
p65
(lp66
sg6
NsS'succs'
p67
(lp68
S'0xffffffc0007c3818L'
p69
aS'0xffffffc0007c3860L'
p70
asS'hash_v3'
p71
NsS'flag_v2'
p72
NsS'hash_v1'
p73
S'50eed03d057bf7fac4c210acc8b85c39'
p74
sS'hash_v2'
p75
S'63ba0dd3a0f7fead8a0d5de35a96f400'
p76
sS'mnen_list'
p77
(lp78
g24
ag33
ag40
ag47
ag54
asS'neighbour_disasm_list'
p79
Nsba(ibclass
BBasicBlock
p80
(dp81
g12
Nsg13
(lp82
(ibclass
BInstr
p83
(dp84
g2
Nsg17
S'ADRP            X0, #qword_FFFFFFC000E440A0@PAGE'
p85
sg19
S'003400b0'
p86
sg21
Vadrp x0, #0x681000
p87
sg5
L18446743798839785496L
sg6
Nsg23
S'ADRP'
p88
sg25
S'0xffffffc0007c3818L'
p89
sg27
Nsba(ibclass
BInstr
p90
(dp91
g2
Nsg17
S'LDR             X0, [X0,#qword_FFFFFFC000E440A0@PAGEOFF]'
p92
sg19
S'005040f9'
p93
sg21
Vldr x0, [x0, #0xa0]
p94
sg5
L18446743798839785500L
sg6
Nsg23
S'LDR'
p95
sg25
S'0xffffffc0007c381cL'
p96
sg27
Nsba(ibclass
BInstr
p97
(dp98
g2
Nsg17
S'LDR             W0, [X0]'
p99
sg19
S'000040b9'
p100
sg21
Vldr w0, [x0]
p101
sg5
L18446743798839785504L
sg6
Nsg23
S'LDR'
p102
sg25
S'0xffffffc0007c3820L'
p103
sg27
Nsba(ibclass
BInstr
p104
(dp105
g2
Nsg17
S'TBZ             W0, #0, loc_FFFFFFC0007C38C0'
p106
sg19
S'e0040036'
p107
sg21
Vtbz w0, #0, #0x9c
p108
sg5
L18446743798839785508L
sg6
Nsg23
S'TBZ'
p109
sg25
S'0xffffffc0007c3824L'
p110
sg27
Nsbasg56
(lp111
S'ADRP reg, #func@PAGE'
p112
aS'LDR reg, mem'
p113
aS'LDR reg, mem'
p114
aS'TBZ reg, #0, func'
p115
asg63
Nsg5
S'0xffffffc0007c3818L'
p116
sg65
(lp117
S'0xffffffc0007c3804L'
p118
asg6
Nsg67
(lp119
S'0xffffffc0007c3828L'
p120
aS'0xffffffc0007c38c0L'
p121
asg71
Nsg72
Nsg73
S'2de94c9e326481f2f467f11acce8dcc9'
p122
sg75
S'f9f7225e2bae36aff04e5d93bafe5e1d'
p123
sg77
(lp124
g88
ag95
ag102
ag109
asg79
Nsba(ibclass
BBasicBlock
p125
(dp126
g12
Nsg13
(lp127
(ibclass
BInstr
p128
(dp129
g2
Nsg17
S'ADRP            X0, #qword_FFFFFFC000E42548@PAGE'
p130
sg19
S'e03300f0'
p131
sg21
Vadrp x0, #0x67f000
p132
sg5
L18446743798839785512L
sg6
Nsg23
S'ADRP'
p133
sg25
S'0xffffffc0007c3828L'
p134
sg27
Nsba(ibclass
BInstr
p135
(dp136
g2
Nsg17
S'LDR             X0, [X0,#qword_FFFFFFC000E42548@PAGEOFF]'
p137
sg19
S'00a442f9'
p138
sg21
Vldr x0, [x0, #0x548]
p139
sg5
L18446743798839785516L
sg6
Nsg23
S'LDR'
p140
sg25
S'0xffffffc0007c382cL'
p141
sg27
Nsba(ibclass
BInstr
p142
(dp143
g2
Nsg17
S'LDR             W0, [X0]'
p144
sg19
S'000040b9'
p145
sg21
Vldr w0, [x0]
p146
sg5
L18446743798839785520L
sg6
Nsg23
S'LDR'
p147
sg25
S'0xffffffc0007c3830L'
p148
sg27
Nsba(ibclass
BInstr
p149
(dp150
g2
Nsg17
S'CBNZ            W0, loc_FFFFFFC0007C38C0'
p151
sg19
S'60040035'
p152
sg21
Vcbnz w0, #0x8c
p153
sg5
L18446743798839785524L
sg6
Nsg23
S'CBNZ'
p154
sg25
S'0xffffffc0007c3834L'
p155
sg27
Nsbasg56
(lp156
S'ADRP reg, #func@PAGE'
p157
aS'LDR reg, mem'
p158
aS'LDR reg, mem'
p159
aS'CBNZ reg, func'
p160
asg63
Nsg5
S'0xffffffc0007c3828L'
p161
sg65
(lp162
S'0xffffffc0007c3818L'
p163
asg6
Nsg67
(lp164
S'0xffffffc0007c3838L'
p165
aS'0xffffffc0007c38c0L'
p166
asg71
Nsg72
Nsg73
S'9c97521b8b0f280d47a50ec9a5e4f86f'
p167
sg75
S'bd26f8893557dc5fa132ff2490be0ebf'
p168
sg77
(lp169
g133
ag140
ag147
ag154
asg79
Nsba(ibclass
BBasicBlock
p170
(dp171
g12
Nsg13
(lp172
(ibclass
BInstr
p173
(dp174
g2
Nsg17
S'ADRP            X2, #__func__.30715@PAGE; "vidc_hfi_initialize"'
p175
sg19
S'224400f0'
p176
sg21
Vadrp x2, #0x887000
p177
sg5
L18446743798839785528L
sg6
Nsg23
S'ADRP'
p178
sg25
S'0xffffffc0007c3838L'
p179
sg27
Nsba(ibclass
BInstr
p180
(dp181
g2
Nsg17
S'ADRP            X0, #unk_FFFFFFC0013C2B9C@PAGE'
p182
sg19
S'e05f00f0'
p183
sg21
Vadrp x0, #0xbff000
p184
sg5
L18446743798839785532L
sg6
Nsg23
S'ADRP'
p185
sg25
S'0xffffffc0007c383cL'
p186
sg27
Nsba(ibclass
BInstr
p187
(dp188
g2
Nsg17
S'ADRP            X1, #(aQcomMdssDsi_17+0x1B)@PAGE; "err"'
p189
sg19
S'615b0090'
p190
sg21
Vadrp x1, #0xb6c000
p191
sg5
L18446743798839785536L
sg6
Nsg23
S'ADRP'
p192
sg25
S'0xffffffc0007c3840L'
p193
sg27
Nsba(ibclass
BInstr
p194
(dp195
g2
Nsg17
S'ADD             X2, X2, #__func__.30715@PAGEOFF; "vidc_hfi_initialize"'
p196
sg19
S'42e03891'
p197
sg21
Vadd x2, x2, #0xe38
p198
sg5
L18446743798839785540L
sg6
Nsg23
S'ADD'
p199
sg25
S'0xffffffc0007c3844L'
p200
sg27
Nsba(ibclass
BInstr
p201
(dp202
g2
Nsg17
S'ADD             X1, X1, #(aQcomMdssDsi_17+0x1B)@PAGEOFF; "err"'
p203
sg19
S'212c0591'
p204
sg21
Vadd x1, x1, #0x14b
p205
sg5
L18446743798839785544L
sg6
Nsg23
S'ADD'
p206
sg25
S'0xffffffc0007c3848L'
p207
sg27
Nsba(ibclass
BInstr
p208
(dp209
g2
Nsg17
S'ADD             X2, X2, #0x18'
p210
sg19
S'42600091'
p211
sg21
Vadd x2, x2, #0x18
p212
sg5
L18446743798839785548L
sg6
Nsg23
S'ADD'
p213
sg25
S'0xffffffc0007c384cL'
p214
sg27
Nsba(ibclass
BInstr
p215
(dp216
g2
Nsg17
S'MOV             X3, X19'
p217
sg19
S'e30313aa'
p218
sg21
Vmov x3, x19
p219
sg5
L18446743798839785552L
sg6
Nsg23
S'MOV'
p220
sg25
S'0xffffffc0007c3850L'
p221
sg27
Nsba(ibclass
BInstr
p222
(dp223
g2
Nsg17
S'ADD             X0, X0, #unk_FFFFFFC0013C2B9C@PAGEOFF'
p224
sg19
S'00702e91'
p225
sg21
Vadd x0, x0, #0xb9c
p226
sg5
L18446743798839785556L
sg6
Nsg23
S'ADD'
p227
sg25
S'0xffffffc0007c3854L'
p228
sg27
Nsba(ibclass
BInstr
p229
(dp230
g2
Nsg17
S'BL              printk'
p231
sg19
S'47a61994'
p232
sg21
Vbl #0x66991c
p233
sg5
L18446743798839785560L
sg6
Nsg23
S'BL'
p234
sg25
S'0xffffffc0007c3858L'
p235
sg27
Nsba(ibclass
BInstr
p236
(dp237
g2
Nsg17
S'B               loc_FFFFFFC0007C38C0'
p238
sg19
S'19000014'
p239
sg21
Vb #0x64
p240
sg5
L18446743798839785564L
sg6
Nsg23
S'B'
p241
sg25
S'0xffffffc0007c385cL'
p242
sg27
Nsbasg56
(lp243
S'ADRP reg, #__func__.30715@PAGE'
p244
aS'ADRP reg, #func@PAGE'
p245
aS'ADRP reg, #(aQcomMdssDsi_17+0x1B)@PAGE'
p246
aS'ADD reg, reg, #__func__.30715@PAGEOFF'
p247
aS'ADD reg, reg, #(aQcomMdssDsi_17+0x1B)@PAGEOFF'
p248
aS'ADD reg, reg, #0x18'
p249
aS'MOV reg, reg9'
p250
aS'ADD reg, reg, #func@PAGEOFF'
p251
aS'BL printk'
p252
aS'B func'
p253
asg63
Nsg5
S'0xffffffc0007c3838L'
p254
sg65
(lp255
S'0xffffffc0007c3828L'
p256
asg6
Nsg67
(lp257
S'0xffffffc0007c38c0L'
p258
asg71
Nsg72
Nsg73
S'7e3e61d7f8547903d75fbbc718c41713'
p259
sg75
S'90dd2d74117ac12e06a2758c1e97ad3e'
p260
sg77
(lp261
g178
ag185
ag192
ag199
ag206
ag213
ag220
ag227
ag234
ag241
asg79
Nsba(ibclass
BBasicBlock
p262
(dp263
g12
Nsg13
(lp264
(ibclass
BInstr
p265
(dp266
g2
Nsg17
S'CBZ             W0, loc_FFFFFFC0007C3878'
p267
sg19
S'c0000034'
p268
sg21
Vcbz w0, #0x18
p269
sg5
L18446743798839785568L
sg6
Nsg23
S'CBZ'
p270
sg25
S'0xffffffc0007c3860L'
p271
sg27
Nsbasg56
(lp272
S'CBZ reg, func'
p273
asg63
Nsg5
S'0xffffffc0007c3860L'
p274
sg65
(lp275
S'0xffffffc0007c3804L'
p276
asg6
Nsg67
(lp277
S'0xffffffc0007c3864L'
p278
aS'0xffffffc0007c3878L'
p279
asg71
Nsg72
Nsg73
S'de8e361453cf9f764a4abe9d486f8fbe'
p280
sg75
S'1f44e7b7d6ea8c93b4632bf8395c86c6'
p281
sg77
(lp282
g270
asg79
Nsba(ibclass
BBasicBlock
p283
(dp284
g12
Nsg13
(lp285
(ibclass
BInstr
p286
(dp287
g2
Nsg17
S'CMP             W0, #1'
p288
sg19
S'1f040071'
p289
sg21
Vcmp w0, #1
p290
sg5
L18446743798839785572L
sg6
Nsg23
S'CMP'
p291
sg25
S'0xffffffc0007c3864L'
p292
sg27
Nsba(ibclass
BInstr
p293
(dp294
g2
Nsg17
S'B.NE            loc_FFFFFFC0007C3884'
p295
sg19
S'e1000054'
p296
sg21
Vb.ne #0x1c
p297
sg5
L18446743798839785576L
sg6
Nsg23
g241
sg25
S'0xffffffc0007c3868L'
p298
sg27
Nsbasg56
(lp299
S'CMP reg, #1'
p300
aS'B.NE func'
p301
asg63
Nsg5
S'0xffffffc0007c3864L'
p302
sg65
(lp303
S'0xffffffc0007c3860L'
p304
asg6
Nsg67
(lp305
S'0xffffffc0007c386cL'
p306
aS'0xffffffc0007c3884L'
p307
asg71
Nsg72
Nsg73
S'c78fd620a449e3c979d3f3ec12d4ee88'
p308
sg75
S'8adffd91f65d9b8c9cde6fed203391a4'
p309
sg77
(lp310
g291
ag241
asg79
Nsba(ibclass
BBasicBlock
p311
(dp312
g12
Nsg13
(lp313
(ibclass
BInstr
p314
(dp315
g2
Nsg17
S'LDR             X0, [X1]'
p316
sg19
S'200040f9'
p317
sg21
Vldr x0, [x1]
p318
sg5
L18446743798839785580L
sg6
Nsg23
S'LDR'
p319
sg25
S'0xffffffc0007c386cL'
p320
sg27
Nsba(ibclass
BInstr
p321
(dp322
g2
Nsg17
S'BL              q6_hfi_delete_device'
p323
sg19
S'ca090094'
p324
sg21
Vbl #0x2728
p325
sg5
L18446743798839785584L
sg6
Nsg23
S'BL'
p326
sg25
S'0xffffffc0007c3870L'
p327
sg27
Nsba(ibclass
BInstr
p328
(dp329
g2
Nsg17
S'B               loc_FFFFFFC0007C38B8'
p330
sg19
S'11000014'
p331
sg21
Vb #0x44
p332
sg5
L18446743798839785588L
sg6
Nsg23
g241
sg25
S'0xffffffc0007c3874L'
p333
sg27
Nsbasg56
(lp334
S'LDR reg, mem'
p335
aS'BL q6_hfi_delete_device'
p336
aS'B func'
p337
asg63
Nsg5
S'0xffffffc0007c386cL'
p338
sg65
(lp339
S'0xffffffc0007c3864L'
p340
asg6
Nsg67
(lp341
S'0xffffffc0007c38b8L'
p342
asg71
Nsg72
Nsg73
S'fd7a30a07a6cedc9ea3c9d229827493f'
p343
sg75
S'1036836e0a3d060d7311049ebe5c791a'
p344
sg77
(lp345
g319
ag326
ag241
asg79
Nsba(ibclass
BBasicBlock
p346
(dp347
g12
Nsg13
(lp348
(ibclass
BInstr
p349
(dp350
g2
Nsg17
S'LDR             X0, [X1]'
p351
sg19
S'200040f9'
p352
sg21
Vldr x0, [x1]
p353
sg5
L18446743798839785592L
sg6
Nsg23
S'LDR'
p354
sg25
S'0xffffffc0007c3878L'
p355
sg27
Nsba(ibclass
BInstr
p356
(dp357
g2
Nsg17
S'BL              venus_hfi_delete_device'
p358
sg19
S'86e7ff97'
p359
sg21
Vbl #0xffffffffffff9e18
p360
sg5
L18446743798839785596L
sg6
Nsg23
S'BL'
p361
sg25
S'0xffffffc0007c387cL'
p362
sg27
Nsba(ibclass
BInstr
p363
(dp364
g2
Nsg17
S'B               loc_FFFFFFC0007C38B8'
p365
sg19
S'0e000014'
p366
sg21
Vb #0x38
p367
sg5
L18446743798839785600L
sg6
Nsg23
g241
sg25
S'0xffffffc0007c3880L'
p368
sg27
Nsbasg56
(lp369
S'LDR reg, mem'
p370
aS'BL venus_hfi_delete_device'
p371
aS'B func'
p372
asg63
Nsg5
S'0xffffffc0007c3878L'
p373
sg65
(lp374
S'0xffffffc0007c3860L'
p375
asg6
Nsg67
(lp376
S'0xffffffc0007c38b8L'
p377
asg71
Nsg72
Nsg73
S'fd7a30a07a6cedc9ea3c9d229827493f'
p378
sg75
S'67ea14c8c86c263fe70935eda7b464bb'
p379
sg77
(lp380
g354
ag361
ag241
asg79
Nsba(ibclass
BBasicBlock
p381
(dp382
g12
Nsg13
(lp383
(ibclass
BInstr
p384
(dp385
g2
Nsg17
S'ADRP            X0, #qword_FFFFFFC000E440A0@PAGE'
p386
sg19
S'003400b0'
p387
sg21
Vadrp x0, #0x681000
p388
sg5
L18446743798839785604L
sg6
Nsg23
S'ADRP'
p389
sg25
S'0xffffffc0007c3884L'
p390
sg27
Nsba(ibclass
BInstr
p391
(dp392
g2
Nsg17
S'LDR             X0, [X0,#qword_FFFFFFC000E440A0@PAGEOFF]'
p393
sg19
S'005040f9'
p394
sg21
Vldr x0, [x0, #0xa0]
p395
sg5
L18446743798839785608L
sg6
Nsg23
S'LDR'
p396
sg25
S'0xffffffc0007c3888L'
p397
sg27
Nsba(ibclass
BInstr
p398
(dp399
g2
Nsg17
S'LDR             W0, [X0]'
p400
sg19
S'000040b9'
p401
sg21
Vldr w0, [x0]
p402
sg5
L18446743798839785612L
sg6
Nsg23
S'LDR'
p403
sg25
S'0xffffffc0007c388cL'
p404
sg27
Nsba(ibclass
BInstr
p405
(dp406
g2
Nsg17
S'TBZ             W0, #0, loc_FFFFFFC0007C38B8'
p407
sg19
S'40010036'
p408
sg21
Vtbz w0, #0, #0x28
p409
sg5
L18446743798839785616L
sg6
Nsg23
S'TBZ'
p410
sg25
S'0xffffffc0007c3890L'
p411
sg27
Nsbasg56
(lp412
S'ADRP reg, #func@PAGE'
p413
aS'LDR reg, mem'
p414
aS'LDR reg, mem'
p415
aS'TBZ reg, #0, func'
p416
asg63
Nsg5
S'0xffffffc0007c3884L'
p417
sg65
(lp418
S'0xffffffc0007c3864L'
p419
asg6
Nsg67
(lp420
S'0xffffffc0007c3894L'
p421
aS'0xffffffc0007c38b8L'
p422
asg71
Nsg72
Nsg73
S'2de94c9e326481f2f467f11acce8dcc9'
p423
sg75
S'f9f7225e2bae36aff04e5d93bafe5e1d'
p424
sg77
(lp425
g389
ag396
ag403
ag410
asg79
Nsba(ibclass
BBasicBlock
p426
(dp427
g12
Nsg13
(lp428
(ibclass
BInstr
p429
(dp430
g2
Nsg17
S'ADRP            X0, #qword_FFFFFFC000E42548@PAGE'
p431
sg19
S'e03300f0'
p432
sg21
Vadrp x0, #0x67f000
p433
sg5
L18446743798839785620L
sg6
Nsg23
S'ADRP'
p434
sg25
S'0xffffffc0007c3894L'
p435
sg27
Nsba(ibclass
BInstr
p436
(dp437
g2
Nsg17
S'LDR             X0, [X0,#qword_FFFFFFC000E42548@PAGEOFF]'
p438
sg19
S'00a442f9'
p439
sg21
Vldr x0, [x0, #0x548]
p440
sg5
L18446743798839785624L
sg6
Nsg23
S'LDR'
p441
sg25
S'0xffffffc0007c3898L'
p442
sg27
Nsba(ibclass
BInstr
p443
(dp444
g2
Nsg17
S'LDR             W0, [X0]'
p445
sg19
S'000040b9'
p446
sg21
Vldr w0, [x0]
p447
sg5
L18446743798839785628L
sg6
Nsg23
S'LDR'
p448
sg25
S'0xffffffc0007c389cL'
p449
sg27
Nsba(ibclass
BInstr
p450
(dp451
g2
Nsg17
S'CBNZ            W0, loc_FFFFFFC0007C38B8'
p452
sg19
S'c0000035'
p453
sg21
Vcbnz w0, #0x18
p454
sg5
L18446743798839785632L
sg6
Nsg23
S'CBNZ'
p455
sg25
S'0xffffffc0007c38a0L'
p456
sg27
Nsbasg56
(lp457
S'ADRP reg, #func@PAGE'
p458
aS'LDR reg, mem'
p459
aS'LDR reg, mem'
p460
aS'CBNZ reg, func'
p461
asg63
Nsg5
S'0xffffffc0007c3894L'
p462
sg65
(lp463
S'0xffffffc0007c3884L'
p464
asg6
Nsg67
(lp465
S'0xffffffc0007c38a4L'
p466
aS'0xffffffc0007c38b8L'
p467
asg71
Nsg72
Nsg73
S'9c97521b8b0f280d47a50ec9a5e4f86f'
p468
sg75
S'bd26f8893557dc5fa132ff2490be0ebf'
p469
sg77
(lp470
g434
ag441
ag448
ag455
asg79
Nsba(ibclass
BBasicBlock
p471
(dp472
g12
Nsg13
(lp473
(ibclass
BInstr
p474
(dp475
g2
Nsg17
S'ADRP            X0, #unk_FFFFFFC0013C2B37@PAGE'
p476
sg19
S'e05f00f0'
p477
sg21
Vadrp x0, #0xbff000
p478
sg5
L18446743798839785636L
sg6
Nsg23
S'ADRP'
p479
sg25
S'0xffffffc0007c38a4L'
p480
sg27
Nsba(ibclass
BInstr
p481
(dp482
g2
Nsg17
S'ADRP            X1, #(aQcomMdssDsi_17+0x1B)@PAGE; "err"'
p483
sg19
S'615b0090'
p484
sg21
Vadrp x1, #0xb6c000
p485
sg5
L18446743798839785640L
sg6
Nsg23
S'ADRP'
p486
sg25
S'0xffffffc0007c38a8L'
p487
sg27
Nsba(ibclass
BInstr
p488
(dp489
g2
Nsg17
S'ADD             X0, X0, #unk_FFFFFFC0013C2B37@PAGEOFF'
p490
sg19
S'00dc2c91'
p491
sg21
Vadd x0, x0, #0xb37
p492
sg5
L18446743798839785644L
sg6
Nsg23
S'ADD'
p493
sg25
S'0xffffffc0007c38acL'
p494
sg27
Nsba(ibclass
BInstr
p495
(dp496
g2
Nsg17
S'ADD             X1, X1, #(aQcomMdssDsi_17+0x1B)@PAGEOFF; "err"'
p497
sg19
S'212c0591'
p498
sg21
Vadd x1, x1, #0x14b
p499
sg5
L18446743798839785648L
sg6
Nsg23
S'ADD'
p500
sg25
S'0xffffffc0007c38b0L'
p501
sg27
Nsba(ibclass
BInstr
p502
(dp503
g2
Nsg17
S'BL              printk'
p504
sg19
S'30a61994'
p505
sg21
Vbl #0x6698c0
p506
sg5
L18446743798839785652L
sg6
Nsg23
S'BL'
p507
sg25
S'0xffffffc0007c38b4L'
p508
sg27
Nsbasg56
(lp509
S'ADRP reg, #func@PAGE'
p510
aS'ADRP reg, #(aQcomMdssDsi_17+0x1B)@PAGE'
p511
aS'ADD reg, reg, #func@PAGEOFF'
p512
aS'ADD reg, reg, #(aQcomMdssDsi_17+0x1B)@PAGEOFF'
p513
aS'BL printk'
p514
asg63
Nsg5
S'0xffffffc0007c38a4L'
p515
sg65
(lp516
S'0xffffffc0007c3894L'
p517
asg6
Nsg67
(lp518
S'0xffffffc0007c38b8L'
p519
asg71
Nsg72
Nsg73
S'4bb3c333f0963e9d264d92b454a1960d'
p520
sg75
S'dfc7b5984a675b3239ed3585bd2eb73a'
p521
sg77
(lp522
g479
ag486
ag493
ag500
ag507
asg79
Nsba(ibclass
BBasicBlock
p523
(dp524
g12
Nsg13
(lp525
(ibclass
BInstr
p526
(dp527
g2
Nsg17
S'MOV             X0, X19'
p528
sg19
S'e00313aa'
p529
sg21
Vmov x0, x19
p530
sg5
L18446743798839785656L
sg6
Nsg23
S'MOV'
p531
sg25
S'0xffffffc0007c38b8L'
p532
sg27
Nsba(ibclass
BInstr
p533
(dp534
g2
Nsg17
S'BL              kfree'
p535
sg19
S'8db5ec97'
p536
sg21
Vbl #0xffffffffffb2d634
p537
sg5
L18446743798839785660L
sg6
Nsg23
S'BL'
p538
sg25
S'0xffffffc0007c38bcL'
p539
sg27
Nsbasg56
(lp540
S'MOV reg, reg9'
p541
aS'BL kfree'
p542
asg63
Nsg5
S'0xffffffc0007c38b8L'
p543
sg65
(lp544
S'0xffffffc0007c386cL'
p545
aS'0xffffffc0007c3878L'
p546
aS'0xffffffc0007c3884L'
p547
aS'0xffffffc0007c3894L'
p548
aS'0xffffffc0007c38a4L'
p549
asg6
Nsg67
(lp550
S'0xffffffc0007c38c0L'
p551
asg71
Nsg72
Nsg73
S'd358f8b13c87ca08ba6d4b865203703e'
p552
sg75
S'4a65f041542dc84e7f0c750b4347940d'
p553
sg77
(lp554
g531
ag538
asg79
Nsba(ibclass
BBasicBlock
p555
(dp556
g12
Nsg13
(lp557
(ibclass
BInstr
p558
(dp559
g2
Nsg17
S'LDR             X19, [SP,#0x10+var_s0]'
p560
sg19
S'f30b40f9'
p561
sg21
Vldr x19, [sp, #0x10]
p562
sg5
L18446743798839785664L
sg6
Nsg23
S'LDR'
p563
sg25
S'0xffffffc0007c38c0L'
p564
sg27
Nsba(ibclass
BInstr
p565
(dp566
g2
Nsg17
S'LDP             X29, X30, [SP+0x10+var_10],#0x20'
p567
sg19
S'fd7bc2a8'
p568
sg21
Vldp x29, x30, [sp], #0x20
p569
sg5
L18446743798839785668L
sg6
Nsg23
S'LDP'
p570
sg25
S'0xffffffc0007c38c4L'
p571
sg27
Nsba(ibclass
BInstr
p572
(dp573
g2
Nsg17
S'RET'
p574
sg19
S'c0035fd6'
p575
sg21
Vret 
p576
sg5
L18446743798839785672L
sg6
Nsg23
S'RET'
p577
sg25
S'0xffffffc0007c38c8L'
p578
sg27
Nsbasg56
(lp579
S'LDR reg9, mem'
p580
aS'LDP reg9, reg0, mem,#0x20'
p581
ag574
asg63
Nsg5
S'0xffffffc0007c38c0L'
p582
sg65
(lp583
S'0xffffffc0007c3818L'
p584
aS'0xffffffc0007c3828L'
p585
aS'0xffffffc0007c3838L'
p586
aS'0xffffffc0007c38b8L'
p587
asg6
Nsg67
(lp588
sg71
Nsg72
Nsg73
S'b19baa01c2af40452bf43ec402780718'
p589
sg75
S'71d92ae7a31262bdca4074e5de761511'
p590
sg77
(lp591
g563
ag570
ag577
asg79
Nsbasb.