(ibclass
BFunc
p0
(dp1
S'hash'
p2
NsS'name'
p3
S'audio_effects_open'
p4
sS'start_address'
p5
L18446743798837837276L
sS'flag'
p6
NsS'program'
p7
NsS'bbs'
p8
(lp9
(ibclass
BBasicBlock
p10
(dp11
S'function'
p12
NsS'binstrs'
p13
(lp14
(ibclass
BInstr
p15
(dp16
g2
NsS'disasm'
p17
S'STP             X29, X30, [SP,#-0x10+var_20]!'
p18
sS'bytes'
p19
S'fd7bbda9'
p20
sS'disasm_striped'
p21
Vstp x29, x30, [sp, #-0x30]!
p22
sg5
L18446743798837837276L
sg6
NsS'mnem'
p23
S'STP'
p24
sS'address'
p25
S'0xffffffc0005e7ddcL'
p26
sS'basicblock'
p27
Nsba(ibclass
BInstr
p28
(dp29
g2
Nsg17
S'MOV             X29, SP'
p30
sg19
S'fd030091'
p31
sg21
Vmov x29, sp
p32
sg5
L18446743798837837280L
sg6
Nsg23
S'MOV'
p33
sg25
S'0xffffffc0005e7de0L'
p34
sg27
Nsba(ibclass
BInstr
p35
(dp36
g2
Nsg17
S'ADRP            X0, #qword_FFFFFFC000E495F0@PAGE'
p37
sg19
S'004300d0'
p38
sg21
Vadrp x0, #0x862000
p39
sg5
L18446743798837837284L
sg6
Nsg23
S'ADRP'
p40
sg25
S'0xffffffc0005e7de4L'
p41
sg27
Nsba(ibclass
BInstr
p42
(dp43
g2
Nsg17
S'LDR             X0, [X0,#qword_FFFFFFC000E495F0@PAGEOFF]'
p44
sg19
S'00f842f9'
p45
sg21
Vldr x0, [x0, #0x5f0]
p46
sg5
L18446743798837837288L
sg6
Nsg23
S'LDR'
p47
sg25
S'0xffffffc0005e7de8L'
p48
sg27
Nsba(ibclass
BInstr
p49
(dp50
g2
Nsg17
S'STP             X19, X20, [SP,#0x20+var_10]'
p51
sg19
S'f35301a9'
p52
sg21
Vstp x19, x20, [sp, #0x10]
p53
sg5
L18446743798837837292L
sg6
Nsg23
S'STP'
p54
sg25
S'0xffffffc0005e7decL'
p55
sg27
Nsba(ibclass
BInstr
p56
(dp57
g2
Nsg17
S'STR             X21, [SP,#0x20+var_s0]'
p58
sg19
S'f51300f9'
p59
sg21
Vstr x21, [sp, #0x20]
p60
sg5
L18446743798837837296L
sg6
Nsg23
S'STR'
p61
sg25
S'0xffffffc0005e7df0L'
p62
sg27
Nsba(ibclass
BInstr
p63
(dp64
g2
Nsg17
S'LDR             X0, [X0,#0x50]'
p65
sg19
S'002840f9'
p66
sg21
Vldr x0, [x0, #0x50]
p67
sg5
L18446743798837837300L
sg6
Nsg23
S'LDR'
p68
sg25
S'0xffffffc0005e7df4L'
p69
sg27
Nsba(ibclass
BInstr
p70
(dp71
g2
Nsg17
S'MOV             X21, X1'
p72
sg19
S'f50301aa'
p73
sg21
Vmov x21, x1
p74
sg5
L18446743798837837304L
sg6
Nsg23
S'MOV'
p75
sg25
S'0xffffffc0005e7df8L'
p76
sg27
Nsba(ibclass
BInstr
p77
(dp78
g2
Nsg17
S'MOV             X2, #0x2F0'
p79
sg19
S'025e80d2'
p80
sg21
Vmovz x2, #0x2f0
p81
sg5
L18446743798837837308L
sg6
Nsg23
S'MOV'
p82
sg25
S'0xffffffc0005e7dfcL'
p83
sg27
Nsba(ibclass
BInstr
p84
(dp85
g2
Nsg17
S'MOV             W1, #0x80D0'
p86
sg19
S'011a9052'
p87
sg21
Vmovz w1, #0x80d0
p88
sg5
L18446743798837837312L
sg6
Nsg23
S'MOV'
p89
sg25
S'0xffffffc0005e7e00L'
p90
sg27
Nsba(ibclass
BInstr
p91
(dp92
g2
Nsg17
S'BL              kmem_cache_alloc_trace'
p93
sg19
S'7c2af497'
p94
sg21
Vbl #0xffffffffffd0a9f0
p95
sg5
L18446743798837837316L
sg6
Nsg23
S'BL'
p96
sg25
S'0xffffffc0005e7e04L'
p97
sg27
Nsba(ibclass
BInstr
p98
(dp99
g2
Nsg17
S'MOV             X19, X0'
p100
sg19
S'f30300aa'
p101
sg21
Vmov x19, x0
p102
sg5
L18446743798837837320L
sg6
Nsg23
S'MOV'
p103
sg25
S'0xffffffc0005e7e08L'
p104
sg27
Nsba(ibclass
BInstr
p105
(dp106
g2
Nsg17
S'CBNZ            X0, loc_FFFFFFC0005E7E2C'
p107
sg19
S'000100b5'
p108
sg21
Vcbnz x0, #0x20
p109
sg5
L18446743798837837324L
sg6
Nsg23
S'CBNZ'
p110
sg25
S'0xffffffc0005e7e0cL'
p111
sg27
NsbasS'disasm_list'
p112
(lp113
S'STP reg9, reg0, mem!'
p114
aS'MOV reg9, SP'
p115
aS'ADRP reg, #func@PAGE'
p116
aS'LDR reg, mem'
p117
aS'STP reg9, reg0, mem'
p118
aS'STR reg1, mem'
p119
aS'LDR reg, mem'
p120
aS'MOV reg1, reg'
p121
aS'MOV reg, #0x2F0'
p122
aS'MOV reg, #0x80D0'
p123
aS'BL kmem_cache_alloc_trace'
p124
aS'MOV reg9, reg'
p125
aS'CBNZ reg, func'
p126
asS'end_address'
p127
Nsg5
S'0xffffffc0005e7ddcL'
p128
sS'preds'
p129
(lp130
sg6
NsS'succs'
p131
(lp132
S'0xffffffc0005e7e10L'
p133
aS'0xffffffc0005e7e2cL'
p134
asS'hash_v3'
p135
NsS'flag_v2'
p136
NsS'hash_v1'
p137
S'82224017aee0a186022c336512b1d18d'
p138
sS'hash_v2'
p139
S'9a03d46bc7f186f7e5ebf72e308cd753'
p140
sS'mnen_list'
p141
(lp142
g24
ag33
ag40
ag47
ag54
ag61
ag68
ag75
ag82
ag89
ag96
ag103
ag110
asS'neighbour_disasm_list'
p143
Nsba(ibclass
BBasicBlock
p144
(dp145
g12
Nsg13
(lp146
(ibclass
BInstr
p147
(dp148
g2
Nsg17
S'ADRP            X1, #__func__.29208@PAGE; "audio_effects_release"'
p149
sg19
S'61520090'
p150
sg21
Vadrp x1, #0xa4c000
p151
sg5
L18446743798837837328L
sg6
Nsg23
S'ADRP'
p152
sg25
S'0xffffffc0005e7e10L'
p153
sg27
Nsba(ibclass
BInstr
p154
(dp155
g2
Nsg17
S'ADRP            X0, #unk_FFFFFFC001365149@PAGE'
p156
sg19
S'e06b00d0'
p157
sg21
Vadrp x0, #0xd7e000
p158
sg5
L18446743798837837332L
sg6
Nsg23
S'ADRP'
p159
sg25
S'0xffffffc0005e7e14L'
p160
sg27
Nsba(ibclass
BInstr
p161
(dp162
g2
Nsg17
S'ADD             X1, X1, #__func__.29208@PAGEOFF; "audio_effects_release"'
p163
sg19
S'21401191'
p164
sg21
Vadd x1, x1, #0x450
p165
sg5
L18446743798837837336L
sg6
Nsg23
S'ADD'
p166
sg25
S'0xffffffc0005e7e18L'
p167
sg27
Nsba(ibclass
BInstr
p168
(dp169
g2
Nsg17
S'ADD             X1, X1, #0x50'
p170
sg19
S'21400191'
p171
sg21
Vadd x1, x1, #0x50
p172
sg5
L18446743798837837340L
sg6
Nsg23
S'ADD'
p173
sg25
S'0xffffffc0005e7e1cL'
p174
sg27
Nsba(ibclass
BInstr
p175
(dp176
g2
Nsg17
S'ADD             X0, X0, #unk_FFFFFFC001365149@PAGEOFF'
p177
sg19
S'00240591'
p178
sg21
Vadd x0, x0, #0x149
p179
sg5
L18446743798837837344L
sg6
Nsg23
S'ADD'
p180
sg25
S'0xffffffc0005e7e20L'
p181
sg27
Nsba(ibclass
BInstr
p182
(dp183
g2
Nsg17
S'BL              printk'
p184
sg19
S'cf2e2194'
p185
sg21
Vbl #0x84bb3c
p186
sg5
L18446743798837837348L
sg6
Nsg23
S'BL'
p187
sg25
S'0xffffffc0005e7e24L'
p188
sg27
Nsba(ibclass
BInstr
p189
(dp190
g2
Nsg17
S'B               loc_FFFFFFC0005E7E64'
p191
sg19
S'0f000014'
p192
sg21
Vb #0x3c
p193
sg5
L18446743798837837352L
sg6
Nsg23
S'B'
p194
sg25
S'0xffffffc0005e7e28L'
p195
sg27
Nsbasg112
(lp196
S'ADRP reg, #__func__.29208@PAGE'
p197
aS'ADRP reg, #func@PAGE'
p198
aS'ADD reg, reg, #__func__.29208@PAGEOFF'
p199
aS'ADD reg, reg, #0x50'
p200
aS'ADD reg, reg, #func@PAGEOFF'
p201
aS'BL printk'
p202
aS'B func'
p203
asg127
Nsg5
S'0xffffffc0005e7e10L'
p204
sg129
(lp205
S'0xffffffc0005e7ddcL'
p206
asg6
Nsg131
(lp207
S'0xffffffc0005e7e64L'
p208
asg135
Nsg136
Nsg137
S'2c9793ad0fe6f054cbe18acf8837e8db'
p209
sg139
S'a8adc0354ea32e2325961c3dea1f07d5'
p210
sg141
(lp211
g152
ag159
ag166
ag173
ag180
ag187
ag194
asg143
Nsba(ibclass
BBasicBlock
p212
(dp213
g12
Nsg13
(lp214
(ibclass
BInstr
p215
(dp216
g2
Nsg17
S'ADRP            X0, #audio_effects_event_handler@PAGE'
p217
sg19
S'00000090'
p218
sg21
Vadrp x0, #0
p219
sg5
L18446743798837837356L
sg6
Nsg23
S'ADRP'
p220
sg25
S'0xffffffc0005e7e2cL'
p221
sg27
Nsba(ibclass
BInstr
p222
(dp223
g2
Nsg17
S'ADD             X0, X0, #audio_effects_event_handler@PAGEOFF'
p224
sg19
S'00603191'
p225
sg21
Vadd x0, x0, #0xc58
p226
sg5
L18446743798837837360L
sg6
Nsg23
S'ADD'
p227
sg25
S'0xffffffc0005e7e30L'
p228
sg27
Nsba(ibclass
BInstr
p229
(dp230
g2
Nsg17
S'MOV             X1, X19'
p231
sg19
S'e10313aa'
p232
sg21
Vmov x1, x19
p233
sg5
L18446743798837837364L
sg6
Nsg23
S'MOV'
p234
sg25
S'0xffffffc0005e7e34L'
p235
sg27
Nsba(ibclass
BInstr
p236
(dp237
g2
Nsg17
S'BL              q6asm_audio_client_alloc'
p238
sg19
S'b2c11994'
p239
sg21
Vbl #0x6706c8
p240
sg5
L18446743798837837368L
sg6
Nsg23
S'BL'
p241
sg25
S'0xffffffc0005e7e38L'
p242
sg27
Nsba(ibclass
BInstr
p243
(dp244
g2
Nsg17
S'STR             X0, [X19,#0x30]'
p245
sg19
S'601a00f9'
p246
sg21
Vstr x0, [x19, #0x30]
p247
sg5
L18446743798837837372L
sg6
Nsg23
S'STR'
p248
sg25
S'0xffffffc0005e7e3cL'
p249
sg27
Nsba(ibclass
BInstr
p250
(dp251
g2
Nsg17
S'CBNZ            X0, loc_FFFFFFC0005E7E6C'
p252
sg19
S'600100b5'
p253
sg21
Vcbnz x0, #0x2c
p254
sg5
L18446743798837837376L
sg6
Nsg23
S'CBNZ'
p255
sg25
S'0xffffffc0005e7e40L'
p256
sg27
Nsbasg112
(lp257
S'ADRP reg, #audio_effects_event_handler@PAGE'
p258
aS'ADD reg, reg, #audio_effects_event_handler@PAGEOFF'
p259
aS'MOV reg, reg9'
p260
aS'BL q6asm_audio_client_alloc'
p261
aS'STR reg, mem'
p262
aS'CBNZ reg, func'
p263
asg127
Nsg5
S'0xffffffc0005e7e2cL'
p264
sg129
(lp265
S'0xffffffc0005e7ddcL'
p266
asg6
Nsg131
(lp267
S'0xffffffc0005e7e44L'
p268
aS'0xffffffc0005e7e6cL'
p269
asg135
Nsg136
Nsg137
S'54d12bae1f3599ce83e4f5273b552b51'
p270
sg139
S'f1afecc185afb2e123944401867b4f4c'
p271
sg141
(lp272
g220
ag227
ag234
ag241
ag248
ag255
asg143
Nsba(ibclass
BBasicBlock
p273
(dp274
g12
Nsg13
(lp275
(ibclass
BInstr
p276
(dp277
g2
Nsg17
S'ADRP            X1, #__func__.29208@PAGE; "audio_effects_release"'
p278
sg19
S'61520090'
p279
sg21
Vadrp x1, #0xa4c000
p280
sg5
L18446743798837837380L
sg6
Nsg23
S'ADRP'
p281
sg25
S'0xffffffc0005e7e44L'
p282
sg27
Nsba(ibclass
BInstr
p283
(dp284
g2
Nsg17
S'ADRP            X0, #unk_FFFFFFC001361B2B@PAGE'
p285
sg19
S'c06b00d0'
p286
sg21
Vadrp x0, #0xd7a000
p287
sg5
L18446743798837837384L
sg6
Nsg23
S'ADRP'
p288
sg25
S'0xffffffc0005e7e48L'
p289
sg27
Nsba(ibclass
BInstr
p290
(dp291
g2
Nsg17
S'ADD             X1, X1, #__func__.29208@PAGEOFF; "audio_effects_release"'
p292
sg19
S'21401191'
p293
sg21
Vadd x1, x1, #0x450
p294
sg5
L18446743798837837388L
sg6
Nsg23
S'ADD'
p295
sg25
S'0xffffffc0005e7e4cL'
p296
sg27
Nsba(ibclass
BInstr
p297
(dp298
g2
Nsg17
S'ADD             X0, X0, #unk_FFFFFFC001361B2B@PAGEOFF'
p299
sg19
S'00ac2c91'
p300
sg21
Vadd x0, x0, #0xb2b
p301
sg5
L18446743798837837392L
sg6
Nsg23
S'ADD'
p302
sg25
S'0xffffffc0005e7e50L'
p303
sg27
Nsba(ibclass
BInstr
p304
(dp305
g2
Nsg17
S'ADD             X1, X1, #0x50'
p306
sg19
S'21400191'
p307
sg21
Vadd x1, x1, #0x50
p308
sg5
L18446743798837837396L
sg6
Nsg23
S'ADD'
p309
sg25
S'0xffffffc0005e7e54L'
p310
sg27
Nsba(ibclass
BInstr
p311
(dp312
g2
Nsg17
S'BL              printk'
p313
sg19
S'c22e2194'
p314
sg21
Vbl #0x84bb08
p315
sg5
L18446743798837837400L
sg6
Nsg23
S'BL'
p316
sg25
S'0xffffffc0005e7e58L'
p317
sg27
Nsba(ibclass
BInstr
p318
(dp319
g2
Nsg17
S'MOV             X0, X19'
p320
sg19
S'e00313aa'
p321
sg21
Vmov x0, x19
p322
sg5
L18446743798837837404L
sg6
Nsg23
S'MOV'
p323
sg25
S'0xffffffc0005e7e5cL'
p324
sg27
Nsba(ibclass
BInstr
p325
(dp326
g2
Nsg17
S'BL              kfree'
p327
sg19
S'982cf497'
p328
sg21
Vbl #0xffffffffffd0b260
p329
sg5
L18446743798837837408L
sg6
Nsg23
S'BL'
p330
sg25
S'0xffffffc0005e7e60L'
p331
sg27
Nsbasg112
(lp332
S'ADRP reg, #__func__.29208@PAGE'
p333
aS'ADRP reg, #func@PAGE'
p334
aS'ADD reg, reg, #__func__.29208@PAGEOFF'
p335
aS'ADD reg, reg, #func@PAGEOFF'
p336
aS'ADD reg, reg, #0x50'
p337
aS'BL printk'
p338
aS'MOV reg, reg9'
p339
aS'BL kfree'
p340
asg127
Nsg5
S'0xffffffc0005e7e44L'
p341
sg129
(lp342
S'0xffffffc0005e7e2cL'
p343
asg6
Nsg131
(lp344
S'0xffffffc0005e7e64L'
p345
asg135
Nsg136
Nsg137
S'f1dacd9ffd0e101e874bc5f1f48e886b'
p346
sg139
S'3dcf9719fb68cffa6d95da521a58229f'
p347
sg141
(lp348
g281
ag288
ag295
ag302
ag309
ag316
ag323
ag330
asg143
Nsba(ibclass
BBasicBlock
p349
(dp350
g12
Nsg13
(lp351
(ibclass
BInstr
p352
(dp353
g2
Nsg17
S'MOV             W19, #0xFFFFFFF4'
p354
sg19
S'73018012'
p355
sg21
Vmovn w19, #0xb
p356
sg5
L18446743798837837412L
sg6
Nsg23
S'MOV'
p357
sg25
S'0xffffffc0005e7e64L'
p358
sg27
Nsba(ibclass
BInstr
p359
(dp360
g2
Nsg17
S'B               loc_FFFFFFC0005E7EF0'
p361
sg19
S'22000014'
p362
sg21
Vb #0x88
p363
sg5
L18446743798837837416L
sg6
Nsg23
g194
sg25
S'0xffffffc0005e7e68L'
p364
sg27
Nsbasg112
(lp365
S'MOV reg9, #0xFFFFFFF4'
p366
aS'B func'
p367
asg127
Nsg5
S'0xffffffc0005e7e64L'
p368
sg129
(lp369
S'0xffffffc0005e7e10L'
p370
aS'0xffffffc0005e7e44L'
p371
asg6
Nsg131
(lp372
S'0xffffffc0005e7ef0L'
p373
asg135
Nsg136
Nsg137
S'b6c4e95ccfe77a95e4cf2019dd3d5574'
p374
sg139
S'c48ec3e7676214a28249b2d360b42569'
p375
sg141
(lp376
g357
ag194
asg143
Nsba(ibclass
BBasicBlock
p377
(dp378
g12
Nsg13
(lp379
(ibclass
BInstr
p380
(dp381
g2
Nsg17
S'ADRP            X20, #s_opened_devs@PAGE'
p382
sg19
S'14b900f0'
p383
sg21
Vadrp x20, #0x1723000
p384
sg5
L18446743798837837420L
sg6
Nsg23
S'ADRP'
p385
sg25
S'0xffffffc0005e7e6cL'
p386
sg27
Nsba(ibclass
BInstr
p387
(dp388
g2
Nsg17
S'ADD             X20, X20, #s_opened_devs@PAGEOFF'
p389
sg19
S'94e20791'
p390
sg21
Vadd x20, x20, #0x1f8
p391
sg5
L18446743798837837424L
sg6
Nsg23
S'ADD'
p392
sg25
S'0xffffffc0005e7e70L'
p393
sg27
Nsba(ibclass
BInstr
p394
(dp395
g2
Nsg17
S'ADRP            X1, #aEffectsRead_wa@PAGE; "&effects->read_wait"'
p396
sg19
S'e16b00d0'
p397
sg21
Vadrp x1, #0xd7e000
p398
sg5
L18446743798837837428L
sg6
Nsg23
S'ADRP'
p399
sg25
S'0xffffffc0005e7e74L'
p400
sg27
Nsba(ibclass
BInstr
p401
(dp402
g2
Nsg17
S'MOV             X0, X19'
p403
sg19
S'e00313aa'
p404
sg21
Vmov x0, x19
p405
sg5
L18446743798837837432L
sg6
Nsg23
S'MOV'
p406
sg25
S'0xffffffc0005e7e78L'
p407
sg27
Nsba(ibclass
BInstr
p408
(dp409
g2
Nsg17
S'ADD             X1, X1, #aEffectsRead_wa@PAGEOFF; "&effects->read_wait"'
p410
sg19
S'21100691'
p411
sg21
Vadd x1, x1, #0x184
p412
sg5
L18446743798837837436L
sg6
Nsg23
S'ADD'
p413
sg25
S'0xffffffc0005e7e7cL'
p414
sg27
Nsba(ibclass
BInstr
p415
(dp416
g2
Nsg17
S'MOV             X2, X20'
p417
sg19
S'e20314aa'
p418
sg21
Vmov x2, x20
p419
sg5
L18446743798837837440L
sg6
Nsg23
S'MOV'
p420
sg25
S'0xffffffc0005e7e80L'
p421
sg27
Nsba(ibclass
BInstr
p422
(dp423
g2
Nsg17
S'BL              __init_waitqueue_head'
p424
sg19
S'5460f197'
p425
sg21
Vbl #0xffffffffffc58150
p426
sg5
L18446743798837837444L
sg6
Nsg23
S'BL'
p427
sg25
S'0xffffffc0005e7e84L'
p428
sg27
Nsba(ibclass
BInstr
p429
(dp430
g2
Nsg17
S'ADRP            X1, #aEffectsWrite_w@PAGE; "&effects->write_wait"'
p431
sg19
S'e16b00d0'
p432
sg21
Vadrp x1, #0xd7e000
p433
sg5
L18446743798837837448L
sg6
Nsg23
S'ADRP'
p434
sg25
S'0xffffffc0005e7e88L'
p435
sg27
Nsba(ibclass
BInstr
p436
(dp437
g2
Nsg17
S'ADD             X0, X19, #0x18'
p438
sg19
S'60620091'
p439
sg21
Vadd x0, x19, #0x18
p440
sg5
L18446743798837837452L
sg6
Nsg23
S'ADD'
p441
sg25
S'0xffffffc0005e7e8cL'
p442
sg27
Nsba(ibclass
BInstr
p443
(dp444
g2
Nsg17
S'ADD             X1, X1, #aEffectsWrite_w@PAGEOFF; "&effects->write_wait"'
p445
sg19
S'21600691'
p446
sg21
Vadd x1, x1, #0x198
p447
sg5
L18446743798837837456L
sg6
Nsg23
S'ADD'
p448
sg25
S'0xffffffc0005e7e90L'
p449
sg27
Nsba(ibclass
BInstr
p450
(dp451
g2
Nsg17
S'MOV             X2, X20'
p452
sg19
S'e20314aa'
p453
sg21
Vmov x2, x20
p454
sg5
L18446743798837837460L
sg6
Nsg23
S'MOV'
p455
sg25
S'0xffffffc0005e7e94L'
p456
sg27
Nsba(ibclass
BInstr
p457
(dp458
g2
Nsg17
S'BL              __init_waitqueue_head'
p459
sg19
S'4f60f197'
p460
sg21
Vbl #0xffffffffffc5813c
p461
sg5
L18446743798837837464L
sg6
Nsg23
S'BL'
p462
sg25
S'0xffffffc0005e7e98L'
p463
sg27
Nsba(ibclass
BInstr
p464
(dp465
g2
Nsg17
S'ADRP            X1, #aEffectsLock@PAGE; "&effects->lock"'
p466
sg19
S'e16b00d0'
p467
sg21
Vadrp x1, #0xd7e000
p468
sg5
L18446743798837837468L
sg6
Nsg23
S'ADRP'
p469
sg25
S'0xffffffc0005e7e9cL'
p470
sg27
Nsba(ibclass
BInstr
p471
(dp472
g2
Nsg17
S'ADD             X0, X19, #0x88'
p473
sg19
S'60220291'
p474
sg21
Vadd x0, x19, #0x88
p475
sg5
L18446743798837837472L
sg6
Nsg23
S'ADD'
p476
sg25
S'0xffffffc0005e7ea0L'
p477
sg27
Nsba(ibclass
BInstr
p478
(dp479
g2
Nsg17
S'ADD             X1, X1, #aEffectsLock@PAGEOFF; "&effects->lock"'
p480
sg19
S'21b40691'
p481
sg21
Vadd x1, x1, #0x1ad
p482
sg5
L18446743798837837476L
sg6
Nsg23
S'ADD'
p483
sg25
S'0xffffffc0005e7ea4L'
p484
sg27
Nsba(ibclass
BInstr
p485
(dp486
g2
Nsg17
S'MOV             X2, X20'
p487
sg19
S'e20314aa'
p488
sg21
Vmov x2, x20
p489
sg5
L18446743798837837480L
sg6
Nsg23
S'MOV'
p490
sg25
S'0xffffffc0005e7ea8L'
p491
sg27
Nsba(ibclass
BInstr
p492
(dp493
g2
Nsg17
S'BL              __mutex_init'
p494
sg19
S'b568f197'
p495
sg21
Vbl #0xffffffffffc5a2d4
p496
sg5
L18446743798837837484L
sg6
Nsg23
S'BL'
p497
sg25
S'0xffffffc0005e7eacL'
p498
sg27
Nsba(ibclass
BInstr
p499
(dp500
g2
Nsg17
S'ADRP            X0, #descriptor.29219@PAGE'
p501
sg19
S'009500f0'
p502
sg21
Vadrp x0, #0x12a3000
p503
sg5
L18446743798837837488L
sg6
Nsg23
S'ADRP'
p504
sg25
S'0xffffffc0005e7eb0L'
p505
sg27
Nsba(ibclass
BInstr
p506
(dp507
g2
Nsg17
S'ADD             X0, X0, #descriptor.29219@PAGEOFF'
p508
sg19
S'00c03091'
p509
sg21
Vadd x0, x0, #0xc30
p510
sg5
L18446743798837837492L
sg6
Nsg23
S'ADD'
p511
sg25
S'0xffffffc0005e7eb4L'
p512
sg27
Nsba(ibclass
BInstr
p513
(dp514
g2
Nsg17
S'ADD             X0, X0, #0xC8'
p515
sg19
S'00200391'
p516
sg21
Vadd x0, x0, #0xc8
p517
sg5
L18446743798837837496L
sg6
Nsg23
S'ADD'
p518
sg25
S'0xffffffc0005e7eb8L'
p519
sg27
Nsba(ibclass
BInstr
p520
(dp521
g2
Nsg17
S'STR             WZR, [X19,#0xB8]'
p522
sg19
S'7fba00b9'
p523
sg21
Vstr wzr, [x19, #0xb8]
p524
sg5
L18446743798837837500L
sg6
Nsg23
S'STR'
p525
sg25
S'0xffffffc0005e7ebcL'
p526
sg27
Nsba(ibclass
BInstr
p527
(dp528
g2
Nsg17
S'STR             WZR, [X19,#0xBC]'
p529
sg19
S'7fbe00b9'
p530
sg21
Vstr wzr, [x19, #0xbc]
p531
sg5
L18446743798837837504L
sg6
Nsg23
S'STR'
p532
sg25
S'0xffffffc0005e7ec0L'
p533
sg27
Nsba(ibclass
BInstr
p534
(dp535
g2
Nsg17
S'STR             WZR, [X19,#0xC0]'
p536
sg19
S'7fc200b9'
p537
sg21
Vstr wzr, [x19, #0xc0]
p538
sg5
L18446743798837837508L
sg6
Nsg23
S'STR'
p539
sg25
S'0xffffffc0005e7ec4L'
p540
sg27
Nsba(ibclass
BInstr
p541
(dp542
g2
Nsg17
S'LDRH            W1, [X0,#(word_FFFFFFC00188AD1A - 0xFFFFFFC00188ACF8)]'
p543
sg19
S'01444079'
p544
sg21
Vldrh w1, [x0, #0x22]
p545
sg5
L18446743798837837512L
sg6
Nsg23
S'LDR'
p546
sg25
S'0xffffffc0005e7ec8L'
p547
sg27
Nsba(ibclass
BInstr
p548
(dp549
g2
Nsg17
S'STR             X19, [X21,#0xA8]'
p550
sg19
S'b35600f9'
p551
sg21
Vstr x19, [x21, #0xa8]
p552
sg5
L18446743798837837516L
sg6
Nsg23
S'STR'
p553
sg25
S'0xffffffc0005e7eccL'
p554
sg27
Nsba(ibclass
BInstr
p555
(dp556
g2
Nsg17
S'MOV             W19, #0'
p557
sg19
S'13008052'
p558
sg21
Vmovz w19, #0
p559
sg5
L18446743798837837520L
sg6
Nsg23
S'MOV'
p560
sg25
S'0xffffffc0005e7ed0L'
p561
sg27
Nsba(ibclass
BInstr
p562
(dp563
g2
Nsg17
S'TBZ             W1, #2, loc_FFFFFFC0005E7EF0'
p564
sg19
S'e1001036'
p565
sg21
Vtbz w1, #2, #0x1c
p566
sg5
L18446743798837837524L
sg6
Nsg23
S'TBZ'
p567
sg25
S'0xffffffc0005e7ed4L'
p568
sg27
Nsbasg112
(lp569
S'ADRP reg0, #s_opened_devs@PAGE'
p570
aS'ADD reg0, reg0, #s_opened_devs@PAGEOFF'
p571
aS'ADRP reg, #aEffectsRead_wa@PAGE'
p572
aS'MOV reg, reg9'
p573
aS'ADD reg, reg, #aEffectsRead_wa@PAGEOFF'
p574
aS'MOV reg, reg0'
p575
aS'BL __init_waitqueue_head'
p576
aS'ADRP reg, #aEffectsWrite_w@PAGE'
p577
aS'ADD reg, reg9, #0x18'
p578
aS'ADD reg, reg, #aEffectsWrite_w@PAGEOFF'
p579
aS'MOV reg, reg0'
p580
aS'BL __init_waitqueue_head'
p581
aS'ADRP reg, #aEffectsLock@PAGE'
p582
aS'ADD reg, reg9, #0x88'
p583
aS'ADD reg, reg, #aEffectsLock@PAGEOFF'
p584
aS'MOV reg, reg0'
p585
aS'BL __mutex_init'
p586
aS'ADRP reg, #descriptor.29219@PAGE'
p587
aS'ADD reg, reg, #descriptor.29219@PAGEOFF'
p588
aS'ADD reg, reg, #0xC8'
p589
aS'STR WZR, mem'
p590
aS'STR WZR, mem'
p591
aS'STR WZR, mem'
p592
aS'LDRH reg, mem'
p593
aS'STR reg9, mem'
p594
aS'MOV reg9, #0'
p595
aS'TBZ reg, #2, func'
p596
asg127
Nsg5
S'0xffffffc0005e7e6cL'
p597
sg129
(lp598
S'0xffffffc0005e7e2cL'
p599
asg6
Nsg131
(lp600
S'0xffffffc0005e7ed8L'
p601
aS'0xffffffc0005e7ef0L'
p602
asg135
Nsg136
Nsg137
S'ac46a790eb42119de919cf29b6823bf6'
p603
sg139
S'8ce4987bcf2f30680cf70d94f8515b0e'
p604
sg141
(lp605
g385
ag392
ag399
ag406
ag413
ag420
ag427
ag434
ag441
ag448
ag455
ag462
ag469
ag476
ag483
ag490
ag497
ag504
ag511
ag518
ag525
ag532
ag539
ag546
ag553
ag560
ag567
asg143
Nsba(ibclass
BBasicBlock
p606
(dp607
g12
Nsg13
(lp608
(ibclass
BInstr
p609
(dp610
g2
Nsg17
S'ADRP            X2, #__func__.29208@PAGE; "audio_effects_release"'
p611
sg19
S'62520090'
p612
sg21
Vadrp x2, #0xa4c000
p613
sg5
L18446743798837837528L
sg6
Nsg23
S'ADRP'
p614
sg25
S'0xffffffc0005e7ed8L'
p615
sg27
Nsba(ibclass
BInstr
p616
(dp617
g2
Nsg17
S'ADRP            X1, #aSOpenSessionSu@PAGE; "%s: open session success\\n"'
p618
sg19
S'e16b00d0'
p619
sg21
Vadrp x1, #0xd7e000
p620
sg5
L18446743798837837532L
sg6
Nsg23
S'ADRP'
p621
sg25
S'0xffffffc0005e7edcL'
p622
sg27
Nsba(ibclass
BInstr
p623
(dp624
g2
Nsg17
S'ADD             X2, X2, #__func__.29208@PAGEOFF; "audio_effects_release"'
p625
sg19
S'42401191'
p626
sg21
Vadd x2, x2, #0x450
p627
sg5
L18446743798837837536L
sg6
Nsg23
S'ADD'
p628
sg25
S'0xffffffc0005e7ee0L'
p629
sg27
Nsba(ibclass
BInstr
p630
(dp631
g2
Nsg17
S'ADD             X1, X1, #aSOpenSessionSu@PAGEOFF; "%s: open session success\\n"'
p632
sg19
S'21f00691'
p633
sg21
Vadd x1, x1, #0x1bc
p634
sg5
L18446743798837837540L
sg6
Nsg23
S'ADD'
p635
sg25
S'0xffffffc0005e7ee4L'
p636
sg27
Nsba(ibclass
BInstr
p637
(dp638
g2
Nsg17
S'ADD             X2, X2, #0x50'
p639
sg19
S'42400191'
p640
sg21
Vadd x2, x2, #0x50
p641
sg5
L18446743798837837544L
sg6
Nsg23
S'ADD'
p642
sg25
S'0xffffffc0005e7ee8L'
p643
sg27
Nsba(ibclass
BInstr
p644
(dp645
g2
Nsg17
S'BL              __dynamic_pr_debug'
p646
sg19
S'2f68f997'
p647
sg21
Vbl #0xffffffffffe5a0bc
p648
sg5
L18446743798837837548L
sg6
Nsg23
S'BL'
p649
sg25
S'0xffffffc0005e7eecL'
p650
sg27
Nsbasg112
(lp651
S'ADRP reg, #__func__.29208@PAGE'
p652
aS'ADRP reg, #aSOpenSessionSu@PAGE'
p653
aS'ADD reg, reg, #__func__.29208@PAGEOFF'
p654
aS'ADD reg, reg, #aSOpenSessionSu@PAGEOFF'
p655
aS'ADD reg, reg, #0x50'
p656
aS'BL __dynamic_pr_debug'
p657
asg127
Nsg5
S'0xffffffc0005e7ed8L'
p658
sg129
(lp659
S'0xffffffc0005e7e6cL'
p660
asg6
Nsg131
(lp661
S'0xffffffc0005e7ef0L'
p662
asg135
Nsg136
Nsg137
S'e4dcad9e7cd2c60a0b76a9fee40dbab3'
p663
sg139
S'22ea24165e5e294ed6a40ea71070d43d'
p664
sg141
(lp665
g614
ag621
ag628
ag635
ag642
ag649
asg143
Nsba(ibclass
BBasicBlock
p666
(dp667
g12
Nsg13
(lp668
(ibclass
BInstr
p669
(dp670
g2
Nsg17
S'MOV             W0, W19'
p671
sg19
S'e003132a'
p672
sg21
Vmov w0, w19
p673
sg5
L18446743798837837552L
sg6
Nsg23
S'MOV'
p674
sg25
S'0xffffffc0005e7ef0L'
p675
sg27
Nsba(ibclass
BInstr
p676
(dp677
g2
Nsg17
S'LDR             X21, [SP,#0x20+var_s0]'
p678
sg19
S'f51340f9'
p679
sg21
Vldr x21, [sp, #0x20]
p680
sg5
L18446743798837837556L
sg6
Nsg23
S'LDR'
p681
sg25
S'0xffffffc0005e7ef4L'
p682
sg27
Nsba(ibclass
BInstr
p683
(dp684
g2
Nsg17
S'LDP             X19, X20, [SP,#0x20+var_10]'
p685
sg19
S'f35341a9'
p686
sg21
Vldp x19, x20, [sp, #0x10]
p687
sg5
L18446743798837837560L
sg6
Nsg23
S'LDP'
p688
sg25
S'0xffffffc0005e7ef8L'
p689
sg27
Nsba(ibclass
BInstr
p690
(dp691
g2
Nsg17
S'LDP             X29, X30, [SP+0x20+var_20],#0x30'
p692
sg19
S'fd7bc3a8'
p693
sg21
Vldp x29, x30, [sp], #0x30
p694
sg5
L18446743798837837564L
sg6
Nsg23
S'LDP'
p695
sg25
S'0xffffffc0005e7efcL'
p696
sg27
Nsba(ibclass
BInstr
p697
(dp698
g2
Nsg17
S'RET'
p699
sg19
S'c0035fd6'
p700
sg21
Vret 
p701
sg5
L18446743798837837568L
sg6
Nsg23
S'RET'
p702
sg25
S'0xffffffc0005e7f00L'
p703
sg27
Nsbasg112
(lp704
S'MOV reg, reg9'
p705
aS'LDR reg1, mem'
p706
aS'LDP reg9, reg0, mem'
p707
aS'LDP reg9, reg0, mem,#0x30'
p708
ag699
asg127
Nsg5
S'0xffffffc0005e7ef0L'
p709
sg129
(lp710
S'0xffffffc0005e7e64L'
p711
aS'0xffffffc0005e7e6cL'
p712
aS'0xffffffc0005e7ed8L'
p713
asg6
Nsg131
(lp714
sg135
Nsg136
Nsg137
S'38f802c64085aee4a911b5f172baeddc'
p715
sg139
S'5e0b4ae4710ce90a00e86ddc351a9ffa'
p716
sg141
(lp717
g674
ag681
ag688
ag695
ag702
asg143
Nsbasb.