(ibclass
BFunc
p0
(dp1
S'hash'
p2
NsS'name'
p3
S'create_pkt_cmd_sys_image_version'
p4
sS'start_address'
p5
L18446743798839803624L
sS'flag'
p6
NsS'program'
p7
NsS'bbs'
p8
(lp9
(ibclass
BBasicBlock
p10
(dp11
S'function'
p12
NsS'binstrs'
p13
(lp14
(ibclass
BInstr
p15
(dp16
g2
NsS'disasm'
p17
S'STP             X29, X30, [SP,#-0x10+var_10]!'
p18
sS'bytes'
p19
S'fd7bbea9'
p20
sS'disasm_striped'
p21
Vstp x29, x30, [sp, #-0x20]!
p22
sg5
L18446743798839803624L
sg6
NsS'mnem'
p23
S'STP'
p24
sS'address'
p25
S'0xffffffc0007c7ee8L'
p26
sS'basicblock'
p27
Nsba(ibclass
BInstr
p28
(dp29
g2
Nsg17
S'MOV             X29, SP'
p30
sg19
S'fd030091'
p31
sg21
Vmov x29, sp
p32
sg5
L18446743798839803628L
sg6
Nsg23
S'MOV'
p33
sg25
S'0xffffffc0007c7eecL'
p34
sg27
Nsba(ibclass
BInstr
p35
(dp36
g2
Nsg17
S'STR             X19, [SP,#0x10+var_s0]'
p37
sg19
S'f30b00f9'
p38
sg21
Vstr x19, [sp, #0x10]
p39
sg5
L18446743798839803632L
sg6
Nsg23
S'STR'
p40
sg25
S'0xffffffc0007c7ef0L'
p41
sg27
Nsba(ibclass
BInstr
p42
(dp43
g2
Nsg17
S'MOV             X3, X0'
p44
sg19
S'e30300aa'
p45
sg21
Vmov x3, x0
p46
sg5
L18446743798839803636L
sg6
Nsg23
S'MOV'
p47
sg25
S'0xffffffc0007c7ef4L'
p48
sg27
Nsba(ibclass
BInstr
p49
(dp50
g2
Nsg17
S'CBNZ            X0, loc_FFFFFFC0007C7F44'
p51
sg19
S'600200b5'
p52
sg21
Vcbnz x0, #0x4c
p53
sg5
L18446743798839803640L
sg6
Nsg23
S'CBNZ'
p54
sg25
S'0xffffffc0007c7ef8L'
p55
sg27
NsbasS'disasm_list'
p56
(lp57
S'STP reg9, reg0, mem!'
p58
aS'MOV reg9, SP'
p59
aS'STR reg9, mem'
p60
aS'MOV reg, reg'
p61
aS'CBNZ reg, func'
p62
asS'end_address'
p63
Nsg5
S'0xffffffc0007c7ee8L'
p64
sS'preds'
p65
(lp66
sg6
NsS'succs'
p67
(lp68
S'0xffffffc0007c7efcL'
p69
aS'0xffffffc0007c7f44L'
p70
asS'hash_v3'
p71
NsS'flag_v2'
p72
NsS'hash_v1'
p73
S'50eed03d057bf7fac4c210acc8b85c39'
p74
sS'hash_v2'
p75
S'65152969b5ae3f8ee989757fc5333782'
p76
sS'mnen_list'
p77
(lp78
g24
ag33
ag40
ag47
ag54
asS'neighbour_disasm_list'
p79
Nsba(ibclass
BBasicBlock
p80
(dp81
g12
Nsg13
(lp82
(ibclass
BInstr
p83
(dp84
g2
Nsg17
S'ADRP            X0, #qword_FFFFFFC000E4A8A0@PAGE'
p85
sg19
S'003400f0'
p86
sg21
Vadrp x0, #0x683000
p87
sg5
L18446743798839803644L
sg6
Nsg23
S'ADRP'
p88
sg25
S'0xffffffc0007c7efcL'
p89
sg27
Nsba(ibclass
BInstr
p90
(dp91
g2
Nsg17
S'LDR             X0, [X0,#qword_FFFFFFC000E4A8A0@PAGEOFF]'
p92
sg19
S'005044f9'
p93
sg21
Vldr x0, [x0, #0x8a0]
p94
sg5
L18446743798839803648L
sg6
Nsg23
S'LDR'
p95
sg25
S'0xffffffc0007c7f00L'
p96
sg27
Nsba(ibclass
BInstr
p97
(dp98
g2
Nsg17
S'LDR             W0, [X0]'
p99
sg19
S'000040b9'
p100
sg21
Vldr w0, [x0]
p101
sg5
L18446743798839803652L
sg6
Nsg23
S'LDR'
p102
sg25
S'0xffffffc0007c7f04L'
p103
sg27
Nsba(ibclass
BInstr
p104
(dp105
g2
Nsg17
S'TBZ             W0, #0, loc_FFFFFFC0007C7F70'
p106
sg19
S'40030036'
p107
sg21
Vtbz w0, #0, #0x68
p108
sg5
L18446743798839803656L
sg6
Nsg23
S'TBZ'
p109
sg25
S'0xffffffc0007c7f08L'
p110
sg27
Nsbasg56
(lp111
S'ADRP reg, #func@PAGE'
p112
aS'LDR reg, mem'
p113
aS'LDR reg, mem'
p114
aS'TBZ reg, #0, func'
p115
asg63
Nsg5
S'0xffffffc0007c7efcL'
p116
sg65
(lp117
S'0xffffffc0007c7ee8L'
p118
asg6
Nsg67
(lp119
S'0xffffffc0007c7f0cL'
p120
aS'0xffffffc0007c7f70L'
p121
asg71
Nsg72
Nsg73
S'2de94c9e326481f2f467f11acce8dcc9'
p122
sg75
S'f9f7225e2bae36aff04e5d93bafe5e1d'
p123
sg77
(lp124
g88
ag95
ag102
ag109
asg79
Nsba(ibclass
BBasicBlock
p125
(dp126
g12
Nsg13
(lp127
(ibclass
BInstr
p128
(dp129
g2
Nsg17
S'ADRP            X0, #qword_FFFFFFC000E48D48@PAGE'
p130
sg19
S'003400b0'
p131
sg21
Vadrp x0, #0x681000
p132
sg5
L18446743798839803660L
sg6
Nsg23
S'ADRP'
p133
sg25
S'0xffffffc0007c7f0cL'
p134
sg27
Nsba(ibclass
BInstr
p135
(dp136
g2
Nsg17
S'LDR             X0, [X0,#qword_FFFFFFC000E48D48@PAGEOFF]'
p137
sg19
S'00a446f9'
p138
sg21
Vldr x0, [x0, #0xd48]
p139
sg5
L18446743798839803664L
sg6
Nsg23
S'LDR'
p140
sg25
S'0xffffffc0007c7f10L'
p141
sg27
Nsba(ibclass
BInstr
p142
(dp143
g2
Nsg17
S'MOV             W19, #0xFFFFFFEA'
p144
sg19
S'b3028012'
p145
sg21
Vmovn w19, #0x15
p146
sg5
L18446743798839803668L
sg6
Nsg23
S'MOV'
p147
sg25
S'0xffffffc0007c7f14L'
p148
sg27
Nsba(ibclass
BInstr
p149
(dp150
g2
Nsg17
S'LDR             W0, [X0]'
p151
sg19
S'000040b9'
p152
sg21
Vldr w0, [x0]
p153
sg5
L18446743798839803672L
sg6
Nsg23
S'LDR'
p154
sg25
S'0xffffffc0007c7f18L'
p155
sg27
Nsba(ibclass
BInstr
p156
(dp157
g2
Nsg17
S'CBNZ            W0, loc_FFFFFFC0007C7F74'
p158
sg19
S'c0020035'
p159
sg21
Vcbnz w0, #0x58
p160
sg5
L18446743798839803676L
sg6
Nsg23
S'CBNZ'
p161
sg25
S'0xffffffc0007c7f1cL'
p162
sg27
Nsbasg56
(lp163
S'ADRP reg, #func@PAGE'
p164
aS'LDR reg, mem'
p165
aS'MOV reg9, #0xFFFFFFEA'
p166
aS'LDR reg, mem'
p167
aS'CBNZ reg, func'
p168
asg63
Nsg5
S'0xffffffc0007c7f0cL'
p169
sg65
(lp170
S'0xffffffc0007c7efcL'
p171
asg6
Nsg67
(lp172
S'0xffffffc0007c7f20L'
p173
aS'0xffffffc0007c7f74L'
p174
asg71
Nsg72
Nsg73
S'd80cc6d531f24a5b2d60307977d236c7'
p175
sg75
S'baaaa11d303d94886d47725c6dea0608'
p176
sg77
(lp177
g133
ag140
ag147
ag154
ag161
asg79
Nsba(ibclass
BBasicBlock
p178
(dp179
g12
Nsg13
(lp180
(ibclass
BInstr
p181
(dp182
g2
Nsg17
S'ADRP            X2, #__func__.30313@PAGE; "create_pkt_cmd_sys_coverage_config"'
p183
sg19
S'024400f0'
p184
sg21
Vadrp x2, #0x883000
p185
sg5
L18446743798839803680L
sg6
Nsg23
S'ADRP'
p186
sg25
S'0xffffffc0007c7f20L'
p187
sg27
Nsba(ibclass
BInstr
p188
(dp189
g2
Nsg17
S'ADRP            X0, #unk_FFFFFFC0013C33BC@PAGE'
p190
sg19
S'e05f0090'
p191
sg21
Vadrp x0, #0xbfc000
p192
sg5
L18446743798839803684L
sg6
Nsg23
S'ADRP'
p193
sg25
S'0xffffffc0007c7f24L'
p194
sg27
Nsba(ibclass
BInstr
p195
(dp196
g2
Nsg17
S'ADRP            X1, #(aQcomMdssDsi_17+0x1B)@PAGE; "err"'
p197
sg19
S'415b0090'
p198
sg21
Vadrp x1, #0xb68000
p199
sg5
L18446743798839803688L
sg6
Nsg23
S'ADRP'
p200
sg25
S'0xffffffc0007c7f28L'
p201
sg27
Nsba(ibclass
BInstr
p202
(dp203
g2
Nsg17
S'ADD             X2, X2, #__func__.30313@PAGEOFF; "create_pkt_cmd_sys_coverage_config"'
p204
sg19
S'42a03391'
p205
sg21
Vadd x2, x2, #0xce8
p206
sg5
L18446743798839803692L
sg6
Nsg23
S'ADD'
p207
sg25
S'0xffffffc0007c7f2cL'
p208
sg27
Nsba(ibclass
BInstr
p209
(dp210
g2
Nsg17
S'ADD             X1, X1, #(aQcomMdssDsi_17+0x1B)@PAGEOFF; "err"'
p211
sg19
S'21801291'
p212
sg21
Vadd x1, x1, #0x4a0
p213
sg5
L18446743798839803696L
sg6
Nsg23
S'ADD'
p214
sg25
S'0xffffffc0007c7f30L'
p215
sg27
Nsba(ibclass
BInstr
p216
(dp217
g2
Nsg17
S'ADD             X2, X2, #0xF0'
p218
sg19
S'42c00391'
p219
sg21
Vadd x2, x2, #0xf0
p220
sg5
L18446743798839803700L
sg6
Nsg23
S'ADD'
p221
sg25
S'0xffffffc0007c7f34L'
p222
sg27
Nsba(ibclass
BInstr
p223
(dp224
g2
Nsg17
S'ADD             X0, X0, #unk_FFFFFFC0013C33BC@PAGEOFF'
p225
sg19
S'00f00e91'
p226
sg21
Vadd x0, x0, #0x3bc
p227
sg5
L18446743798839803704L
sg6
Nsg23
S'ADD'
p228
sg25
S'0xffffffc0007c7f38L'
p229
sg27
Nsba(ibclass
BInstr
p230
(dp231
g2
Nsg17
S'BL              printk'
p232
sg19
S'89ae1994'
p233
sg21
Vbl #0x66ba24
p234
sg5
L18446743798839803708L
sg6
Nsg23
S'BL'
p235
sg25
S'0xffffffc0007c7f3cL'
p236
sg27
Nsba(ibclass
BInstr
p237
(dp238
g2
Nsg17
S'B               loc_FFFFFFC0007C7F74'
p239
sg19
S'0d000014'
p240
sg21
Vb #0x34
p241
sg5
L18446743798839803712L
sg6
Nsg23
S'B'
p242
sg25
S'0xffffffc0007c7f40L'
p243
sg27
Nsbasg56
(lp244
S'ADRP reg, #__func__.30313@PAGE'
p245
aS'ADRP reg, #func@PAGE'
p246
aS'ADRP reg, #(aQcomMdssDsi_17+0x1B)@PAGE'
p247
aS'ADD reg, reg, #__func__.30313@PAGEOFF'
p248
aS'ADD reg, reg, #(aQcomMdssDsi_17+0x1B)@PAGEOFF'
p249
aS'ADD reg, reg, #0xF0'
p250
aS'ADD reg, reg, #func@PAGEOFF'
p251
aS'BL printk'
p252
aS'B func'
p253
asg63
Nsg5
S'0xffffffc0007c7f20L'
p254
sg65
(lp255
S'0xffffffc0007c7f0cL'
p256
asg6
Nsg67
(lp257
S'0xffffffc0007c7f74L'
p258
asg71
Nsg72
Nsg73
S'8d01fe9050abe03509e35279925e126f'
p259
sg75
S'f0ae39b695e4ea785c7741fbcc4890d5'
p260
sg77
(lp261
g186
ag193
ag200
ag207
ag214
ag221
ag228
ag235
ag242
asg79
Nsba(ibclass
BBasicBlock
p262
(dp263
g12
Nsg13
(lp264
(ibclass
BInstr
p265
(dp266
g2
Nsg17
S'MOV             W0, #0x10'
p267
sg19
S'00028052'
p268
sg21
Vmovz w0, #0x10
p269
sg5
L18446743798839803716L
sg6
Nsg23
S'MOV'
p270
sg25
S'0xffffffc0007c7f44L'
p271
sg27
Nsba(ibclass
BInstr
p272
(dp273
g2
Nsg17
S'STR             W0, [X3]'
p274
sg19
S'600000b9'
p275
sg21
Vstr w0, [x3]
p276
sg5
L18446743798839803720L
sg6
Nsg23
S'STR'
p277
sg25
S'0xffffffc0007c7f48L'
p278
sg27
Nsba(ibclass
BInstr
p279
(dp280
g2
Nsg17
S'MOV             W0, #6'
p281
sg19
S'c0008052'
p282
sg21
Vmovz w0, #0x6
p283
sg5
L18446743798839803724L
sg6
Nsg23
S'MOV'
p284
sg25
S'0xffffffc0007c7f4cL'
p285
sg27
Nsba(ibclass
BInstr
p286
(dp287
g2
Nsg17
S'MOVK            W0, #1,LSL#16'
p288
sg19
S'2000a072'
p289
sg21
Vmovk w0, #0x1, lsl #16
p290
sg5
L18446743798839803728L
sg6
Nsg23
S'MOVK'
p291
sg25
S'0xffffffc0007c7f50L'
p292
sg27
Nsba(ibclass
BInstr
p293
(dp294
g2
Nsg17
S'STR             W0, [X3,#4]'
p295
sg19
S'600400b9'
p296
sg21
Vstr w0, [x3, #4]
p297
sg5
L18446743798839803732L
sg6
Nsg23
S'STR'
p298
sg25
S'0xffffffc0007c7f54L'
p299
sg27
Nsba(ibclass
BInstr
p300
(dp301
g2
Nsg17
S'MOV             W0, #1'
p302
sg19
S'20008052'
p303
sg21
Vmovz w0, #0x1
p304
sg5
L18446743798839803736L
sg6
Nsg23
S'MOV'
p305
sg25
S'0xffffffc0007c7f58L'
p306
sg27
Nsba(ibclass
BInstr
p307
(dp308
g2
Nsg17
S'STR             W0, [X3,#8]'
p309
sg19
S'600800b9'
p310
sg21
Vstr w0, [x3, #8]
p311
sg5
L18446743798839803740L
sg6
Nsg23
S'STR'
p312
sg25
S'0xffffffc0007c7f5cL'
p313
sg27
Nsba(ibclass
BInstr
p314
(dp315
g2
Nsg17
S'MOV             W0, #6'
p316
sg19
S'c0008052'
p317
sg21
Vmovz w0, #0x6
p318
sg5
L18446743798839803744L
sg6
Nsg23
S'MOV'
p319
sg25
S'0xffffffc0007c7f60L'
p320
sg27
Nsba(ibclass
BInstr
p321
(dp322
g2
Nsg17
S'STR             W0, [X3,#0xC]'
p323
sg19
S'600c00b9'
p324
sg21
Vstr w0, [x3, #0xc]
p325
sg5
L18446743798839803748L
sg6
Nsg23
S'STR'
p326
sg25
S'0xffffffc0007c7f64L'
p327
sg27
Nsba(ibclass
BInstr
p328
(dp329
g2
Nsg17
S'MOV             W19, #0'
p330
sg19
S'13008052'
p331
sg21
Vmovz w19, #0
p332
sg5
L18446743798839803752L
sg6
Nsg23
S'MOV'
p333
sg25
S'0xffffffc0007c7f68L'
p334
sg27
Nsba(ibclass
BInstr
p335
(dp336
g2
Nsg17
S'B               loc_FFFFFFC0007C7F74'
p337
sg19
S'02000014'
p338
sg21
Vb #8
p339
sg5
L18446743798839803756L
sg6
Nsg23
g242
sg25
S'0xffffffc0007c7f6cL'
p340
sg27
Nsbasg56
(lp341
S'MOV reg, #0x10'
p342
aS'STR reg, mem'
p343
aS'MOV reg, #6'
p344
aS'MOVK reg, #1,LSL#16'
p345
aS'STR reg, mem'
p346
aS'MOV reg, #1'
p347
aS'STR reg, mem'
p348
aS'MOV reg, #6'
p349
aS'STR reg, mem'
p350
aS'MOV reg9, #0'
p351
aS'B func'
p352
asg63
Nsg5
S'0xffffffc0007c7f44L'
p353
sg65
(lp354
S'0xffffffc0007c7ee8L'
p355
asg6
Nsg67
(lp356
S'0xffffffc0007c7f74L'
p357
asg71
Nsg72
Nsg73
S'ce4d823626e255e61d80e2c4ef27a516'
p358
sg75
S'5fe8f095473edf0ff26a27e3a28682bc'
p359
sg77
(lp360
g270
ag277
ag284
ag291
ag298
ag305
ag312
ag319
ag326
ag333
ag242
asg79
Nsba(ibclass
BBasicBlock
p361
(dp362
g12
Nsg13
(lp363
(ibclass
BInstr
p364
(dp365
g2
Nsg17
S'MOV             W19, #0xFFFFFFEA'
p366
sg19
S'b3028012'
p367
sg21
Vmovn w19, #0x15
p368
sg5
L18446743798839803760L
sg6
Nsg23
S'MOV'
p369
sg25
S'0xffffffc0007c7f70L'
p370
sg27
Nsbasg56
(lp371
S'MOV reg9, #0xFFFFFFEA'
p372
asg63
Nsg5
S'0xffffffc0007c7f70L'
p373
sg65
(lp374
S'0xffffffc0007c7efcL'
p375
asg6
Nsg67
(lp376
S'0xffffffc0007c7f74L'
p377
asg71
Nsg72
Nsg73
S'17b32100aef1fc19670be7fd58bc85df'
p378
sg75
S'b3606159d658f642fff4e1852538bd21'
p379
sg77
(lp380
g369
asg79
Nsba(ibclass
BBasicBlock
p381
(dp382
g12
Nsg13
(lp383
(ibclass
BInstr
p384
(dp385
g2
Nsg17
S'MOV             W0, W19'
p386
sg19
S'e003132a'
p387
sg21
Vmov w0, w19
p388
sg5
L18446743798839803764L
sg6
Nsg23
S'MOV'
p389
sg25
S'0xffffffc0007c7f74L'
p390
sg27
Nsba(ibclass
BInstr
p391
(dp392
g2
Nsg17
S'LDR             X19, [SP,#0x10+var_s0]'
p393
sg19
S'f30b40f9'
p394
sg21
Vldr x19, [sp, #0x10]
p395
sg5
L18446743798839803768L
sg6
Nsg23
S'LDR'
p396
sg25
S'0xffffffc0007c7f78L'
p397
sg27
Nsba(ibclass
BInstr
p398
(dp399
g2
Nsg17
S'LDP             X29, X30, [SP+0x10+var_10],#0x20'
p400
sg19
S'fd7bc2a8'
p401
sg21
Vldp x29, x30, [sp], #0x20
p402
sg5
L18446743798839803772L
sg6
Nsg23
S'LDP'
p403
sg25
S'0xffffffc0007c7f7cL'
p404
sg27
Nsba(ibclass
BInstr
p405
(dp406
g2
Nsg17
S'RET'
p407
sg19
S'c0035fd6'
p408
sg21
Vret 
p409
sg5
L18446743798839803776L
sg6
Nsg23
S'RET'
p410
sg25
S'0xffffffc0007c7f80L'
p411
sg27
Nsbasg56
(lp412
S'MOV reg, reg9'
p413
aS'LDR reg9, mem'
p414
aS'LDP reg9, reg0, mem,#0x20'
p415
ag407
asg63
Nsg5
S'0xffffffc0007c7f74L'
p416
sg65
(lp417
S'0xffffffc0007c7f0cL'
p418
aS'0xffffffc0007c7f20L'
p419
aS'0xffffffc0007c7f44L'
p420
aS'0xffffffc0007c7f70L'
p421
asg6
Nsg67
(lp422
sg71
Nsg72
Nsg73
S'700b6007ea89efb2d19f65eecdfbdc66'
p423
sg75
S'2540ec61573c55ff75133ef1ef4cbd07'
p424
sg77
(lp425
g389
ag396
ag403
ag410
asg79
Nsbasb.