(ibclass
BFunc
p0
(dp1
S'hash'
p2
NsS'name'
p3
S'dwc3_store_ep_num'
p4
sS'start_address'
p5
L18446743798838660388L
sS'flag'
p6
NsS'program'
p7
NsS'bbs'
p8
(lp9
(ibclass
BBasicBlock
p10
(dp11
S'function'
p12
NsS'binstrs'
p13
(lp14
(ibclass
BInstr
p15
(dp16
g2
NsS'disasm'
p17
S'STP             X29, X30, [SP,#-0x10+var_40]!'
p18
sS'bytes'
p19
S'fd7bbba9'
p20
sS'disasm_striped'
p21
Vstp x29, x30, [sp, #-0x50]!
p22
sg5
L18446743798838660388L
sg6
NsS'mnem'
p23
S'STP'
p24
sS'address'
p25
S'0xffffffc0006b0d24L'
p26
sS'basicblock'
p27
Nsba(ibclass
BInstr
p28
(dp29
g2
Nsg17
S'MOV             X29, SP'
p30
sg19
S'fd030091'
p31
sg21
Vmov x29, sp
p32
sg5
L18446743798838660392L
sg6
Nsg23
S'MOV'
p33
sg25
S'0xffffffc0006b0d28L'
p34
sg27
Nsba(ibclass
BInstr
p35
(dp36
g2
Nsg17
S'STP             X19, X20, [SP,#0x40+var_30]'
p37
sg19
S'f35301a9'
p38
sg21
Vstp x19, x20, [sp, #0x10]
p39
sg5
L18446743798838660396L
sg6
Nsg23
S'STP'
p40
sg25
S'0xffffffc0006b0d2cL'
p41
sg27
Nsba(ibclass
BInstr
p42
(dp43
g2
Nsg17
S'STR             X21, [SP,#0x40+var_20]'
p44
sg19
S'f51300f9'
p45
sg21
Vstr x21, [sp, #0x20]
p46
sg5
L18446743798838660400L
sg6
Nsg23
S'STR'
p47
sg25
S'0xffffffc0006b0d30L'
p48
sg27
Nsba(ibclass
BInstr
p49
(dp50
g2
Nsg17
S'CMP             X2, #0xA'
p51
sg19
S'5f2800f1'
p52
sg21
Vcmp x2, #0xa
p53
sg5
L18446743798838660404L
sg6
Nsg23
S'CMP'
p54
sg25
S'0xffffffc0006b0d34L'
p55
sg27
Nsba(ibclass
BInstr
p56
(dp57
g2
Nsg17
S'LDR             X0, [X0,#0xA8]'
p58
sg19
S'005440f9'
p59
sg21
Vldr x0, [x0, #0xa8]
p60
sg5
L18446743798838660408L
sg6
Nsg23
S'LDR'
p61
sg25
S'0xffffffc0006b0d38L'
p62
sg27
Nsba(ibclass
BInstr
p63
(dp64
g2
Nsg17
S'MOV             X19, #0xA'
p65
sg19
S'530180d2'
p66
sg21
Vmovz x19, #0xa
p67
sg5
L18446743798838660412L
sg6
Nsg23
S'MOV'
p68
sg25
S'0xffffffc0006b0d3cL'
p69
sg27
Nsba(ibclass
BInstr
p70
(dp71
g2
Nsg17
S'CSEL            X19, X2, X19, LS'
p72
sg19
S'5390939a'
p73
sg21
Vcsel x19, x2, x19, ls
p74
sg5
L18446743798838660416L
sg6
Nsg23
S'CSEL'
p75
sg25
S'0xffffffc0006b0d40L'
p76
sg27
Nsba(ibclass
BInstr
p77
(dp78
g2
Nsg17
S'MOV             X20, X2'
p79
sg19
S'f40302aa'
p80
sg21
Vmov x20, x2
p81
sg5
L18446743798838660420L
sg6
Nsg23
S'MOV'
p82
sg25
S'0xffffffc0006b0d44L'
p83
sg27
Nsba(ibclass
BInstr
p84
(dp85
g2
Nsg17
S'MOV             X2, SP'
p86
sg19
S'e2030091'
p87
sg21
Vmov x2, sp
p88
sg5
L18446743798838660424L
sg6
Nsg23
S'MOV'
p89
sg25
S'0xffffffc0006b0d48L'
p90
sg27
Nsba(ibclass
BInstr
p91
(dp92
g2
Nsg17
S'LDR             X21, [X0,#0x78]'
p93
sg19
S'153c40f9'
p94
sg21
Vldr x21, [x0, #0x78]
p95
sg5
L18446743798838660428L
sg6
Nsg23
S'LDR'
p96
sg25
S'0xffffffc0006b0d4cL'
p97
sg27
Nsba(ibclass
BInstr
p98
(dp99
g2
Nsg17
S'STR             XZR, [X29,#0x40+var_10]'
p100
sg19
S'bf1b00f9'
p101
sg21
Vstr xzr, [x29, #0x30]
p102
sg5
L18446743798838660432L
sg6
Nsg23
S'STR'
p103
sg25
S'0xffffffc0006b0d50L'
p104
sg27
Nsba(ibclass
BInstr
p105
(dp106
g2
Nsg17
S'AND             X0, X2, #0xFFFFFFFFFFFFC000'
p107
sg19
S'40c47292'
p108
sg21
Vand x0, x2, #0xffffffffffffc000
p109
sg5
L18446743798838660436L
sg6
Nsg23
S'AND'
p110
sg25
S'0xffffffc0006b0d54L'
p111
sg27
Nsba(ibclass
BInstr
p112
(dp113
g2
Nsg17
S'STRH            WZR, [X29,#0x40+var_8]'
p114
sg19
S'bf730079'
p115
sg21
Vstrh wzr, [x29, #0x38]
p116
sg5
L18446743798838660440L
sg6
Nsg23
S'STR'
p117
sg25
S'0xffffffc0006b0d58L'
p118
sg27
Nsba(ibclass
BInstr
p119
(dp120
g2
Nsg17
S'LDR             X3, [X0,#8]'
p121
sg19
S'030440f9'
p122
sg21
Vldr x3, [x0, #8]
p123
sg5
L18446743798838660444L
sg6
Nsg23
S'LDR'
p124
sg25
S'0xffffffc0006b0d5cL'
p125
sg27
Nsba(ibclass
BInstr
p126
(dp127
g2
Nsg17
S'MOV             X0, X1'
p128
sg19
S'e00301aa'
p129
sg21
Vmov x0, x1
p130
sg5
L18446743798838660448L
sg6
Nsg23
S'MOV'
p131
sg25
S'0xffffffc0006b0d60L'
p132
sg27
Nsba(ibclass
BInstr
p133
(dp134
g2
Nsg17
S'ADDS            X0, X0, X19'
p135
sg19
S'000013ab'
p136
sg21
Vadds x0, x0, x19
p137
sg5
L18446743798838660452L
sg6
Nsg23
S'ADD'
p138
sg25
S'0xffffffc0006b0d64L'
p139
sg27
Nsba(ibclass
BInstr
p140
(dp141
g2
Nsg17
S'CCMP            X0, X3, #2, CC'
p142
sg19
S'023043fa'
p143
sg21
Vccmp x0, x3, #2, lo
p144
sg5
L18446743798838660456L
sg6
Nsg23
S'CCMP'
p145
sg25
S'0xffffffc0006b0d68L'
p146
sg27
Nsba(ibclass
BInstr
p147
(dp148
g2
Nsg17
S'CSET            X2, LS'
p149
sg19
S'e2879f9a'
p150
sg21
Vcset x2, ls
p151
sg5
L18446743798838660460L
sg6
Nsg23
S'CSET'
p152
sg25
S'0xffffffc0006b0d6cL'
p153
sg27
Nsba(ibclass
BInstr
p154
(dp155
g2
Nsg17
S'ADD             X0, X29, #0x30'
p156
sg19
S'a0c30091'
p157
sg21
Vadd x0, x29, #0x30
p158
sg5
L18446743798838660464L
sg6
Nsg23
S'ADD'
p159
sg25
S'0xffffffc0006b0d70L'
p160
sg27
Nsba(ibclass
BInstr
p161
(dp162
g2
Nsg17
S'CBZ             X2, loc_FFFFFFC0006B0D88'
p163
sg19
S'a20000b4'
p164
sg21
Vcbz x2, #0x14
p165
sg5
L18446743798838660468L
sg6
Nsg23
S'CBZ'
p166
sg25
S'0xffffffc0006b0d74L'
p167
sg27
NsbasS'disasm_list'
p168
(lp169
S'STP reg9, reg0, mem!'
p170
aS'MOV reg9, SP'
p171
aS'STP reg9, reg0, mem'
p172
aS'STR reg1, mem'
p173
aS'CMP reg, #0xA'
p174
aS'LDR reg, mem'
p175
aS'MOV reg9, #0xA'
p176
aS'CSEL reg9, reg, reg9, LS'
p177
aS'MOV reg0, reg'
p178
aS'MOV reg, SP'
p179
aS'LDR reg1, mem'
p180
aS'STR XZR, mem'
p181
aS'AND reg, reg, #0xFFFFFFFFFFFFC000'
p182
aS'STRH WZR, mem'
p183
aS'LDR reg, mem'
p184
aS'MOV reg, reg'
p185
aS'ADDS reg, reg, reg9'
p186
aS'CCMP reg, reg, #2, CC'
p187
aS'CSET reg, LS'
p188
aS'ADD reg, reg9, #0x30'
p189
aS'CBZ reg, func'
p190
asS'end_address'
p191
Nsg5
S'0xffffffc0006b0d24L'
p192
sS'preds'
p193
(lp194
sg6
NsS'succs'
p195
(lp196
S'0xffffffc0006b0d78L'
p197
aS'0xffffffc0006b0d88L'
p198
asS'hash_v3'
p199
NsS'flag_v2'
p200
NsS'hash_v1'
p201
S'17f7548aba52ac1231f69c6cc6651c36'
p202
sS'hash_v2'
p203
S'1eacf8c5d1949e74cc3b8f6f0f30cb0e'
p204
sS'mnen_list'
p205
(lp206
g24
ag33
ag40
ag47
ag54
ag61
ag68
ag75
ag82
ag89
ag96
ag103
ag110
ag117
ag124
ag131
ag138
ag145
ag152
ag159
ag166
asS'neighbour_disasm_list'
p207
Nsba(ibclass
BBasicBlock
p208
(dp209
g12
Nsg13
(lp210
(ibclass
BInstr
p211
(dp212
g2
Nsg17
S'MOV             X2, X19'
p213
sg19
S'e20313aa'
p214
sg21
Vmov x2, x19
p215
sg5
L18446743798838660472L
sg6
Nsg23
S'MOV'
p216
sg25
S'0xffffffc0006b0d78L'
p217
sg27
Nsba(ibclass
BInstr
p218
(dp219
g2
Nsg17
S'BL              __copy_from_user'
p220
sg19
S'cdc7f597'
p221
sg21
Vbl #0xffffffffffd71f34
p222
sg5
L18446743798838660476L
sg6
Nsg23
S'BL'
p223
sg25
S'0xffffffc0006b0d7cL'
p224
sg27
Nsba(ibclass
BInstr
p225
(dp226
g2
Nsg17
S'MOV             X19, X0'
p227
sg19
S'f30300aa'
p228
sg21
Vmov x19, x0
p229
sg5
L18446743798838660480L
sg6
Nsg23
S'MOV'
p230
sg25
S'0xffffffc0006b0d80L'
p231
sg27
Nsba(ibclass
BInstr
p232
(dp233
g2
Nsg17
S'B               loc_FFFFFFC0006B0D94'
p234
sg19
S'04000014'
p235
sg21
Vb #0x10
p236
sg5
L18446743798838660484L
sg6
Nsg23
S'B'
p237
sg25
S'0xffffffc0006b0d84L'
p238
sg27
Nsbasg168
(lp239
S'MOV reg, reg9'
p240
aS'BL __copy_from_user'
p241
aS'MOV reg9, reg'
p242
aS'B func'
p243
asg191
Nsg5
S'0xffffffc0006b0d78L'
p244
sg193
(lp245
S'0xffffffc0006b0d24L'
p246
asg6
Nsg195
(lp247
S'0xffffffc0006b0d94L'
p248
asg199
Nsg200
Nsg201
S'cd23e0eb2129bcc2960febbe800808ae'
p249
sg203
S'b32d3a0b358030d2ddb1cff6605c1e41'
p250
sg205
(lp251
g216
ag223
ag230
ag237
asg207
Nsba(ibclass
BBasicBlock
p252
(dp253
g12
Nsg13
(lp254
(ibclass
BInstr
p255
(dp256
g2
Nsg17
S'MOV             W1, W2'
p257
sg19
S'e103022a'
p258
sg21
Vmov w1, w2
p259
sg5
L18446743798838660488L
sg6
Nsg23
S'MOV'
p260
sg25
S'0xffffffc0006b0d88L'
p261
sg27
Nsba(ibclass
BInstr
p262
(dp263
g2
Nsg17
S'MOV             X2, X19'
p264
sg19
S'e20313aa'
p265
sg21
Vmov x2, x19
p266
sg5
L18446743798838660492L
sg6
Nsg23
S'MOV'
p267
sg25
S'0xffffffc0006b0d8cL'
p268
sg27
Nsba(ibclass
BInstr
p269
(dp270
g2
Nsg17
S'BL              memset'
p271
sg19
S'9cc9f597'
p272
sg21
Vbl #0xffffffffffd72670
p273
sg5
L18446743798838660496L
sg6
Nsg23
S'BL'
p274
sg25
S'0xffffffc0006b0d90L'
p275
sg27
Nsbasg168
(lp276
S'MOV reg, reg'
p277
aS'MOV reg, reg9'
p278
aS'BL memset'
p279
asg191
Nsg5
S'0xffffffc0006b0d88L'
p280
sg193
(lp281
S'0xffffffc0006b0d24L'
p282
asg6
Nsg195
(lp283
S'0xffffffc0006b0d94L'
p284
asg199
Nsg200
Nsg201
S'd0b32617f7e4cfc169d92597b8aefd43'
p285
sg203
S'c302d8625016f3ab8192a754c2ee9161'
p286
sg205
(lp287
g260
ag267
ag274
asg207
Nsba(ibclass
BBasicBlock
p288
(dp289
g12
Nsg13
(lp290
(ibclass
BInstr
p291
(dp292
g2
Nsg17
S'CBNZ            X19, loc_FFFFFFC0006B0E14'
p293
sg19
S'130400b5'
p294
sg21
Vcbnz x19, #0x80
p295
sg5
L18446743798838660500L
sg6
Nsg23
S'CBNZ'
p296
sg25
S'0xffffffc0006b0d94L'
p297
sg27
Nsbasg168
(lp298
S'CBNZ reg9, func'
p299
asg191
Nsg5
S'0xffffffc0006b0d94L'
p300
sg193
(lp301
S'0xffffffc0006b0d78L'
p302
aS'0xffffffc0006b0d88L'
p303
asg6
Nsg195
(lp304
S'0xffffffc0006b0d98L'
p305
aS'0xffffffc0006b0e14L'
p306
asg199
Nsg200
Nsg201
S'482b7d814ad85789cad59d80ecb8562a'
p307
sg203
S'dff4e8ccf28b27112458638fe68a8d09'
p308
sg205
(lp309
g296
asg207
Nsba(ibclass
BBasicBlock
p310
(dp311
g12
Nsg13
(lp312
(ibclass
BInstr
p313
(dp314
g2
Nsg17
S'ADRP            X1, #(aUUUUUUUU+0x13)@PAGE; "%u %u"'
p315
sg19
S'416b0090'
p316
sg21
Vadrp x1, #0xd68000
p317
sg5
L18446743798838660504L
sg6
Nsg23
S'ADRP'
p318
sg25
S'0xffffffc0006b0d98L'
p319
sg27
Nsba(ibclass
BInstr
p320
(dp321
g2
Nsg17
S'ADD             X0, X29, #0x30'
p322
sg19
S'a0c30091'
p323
sg21
Vadd x0, x29, #0x30
p324
sg5
L18446743798838660508L
sg6
Nsg23
S'ADD'
p325
sg25
S'0xffffffc0006b0d9cL'
p326
sg27
Nsba(ibclass
BInstr
p327
(dp328
g2
Nsg17
S'ADD             X1, X1, #(aUUUUUUUU+0x13)@PAGEOFF; "%u %u"'
p329
sg19
S'21902791'
p330
sg21
Vadd x1, x1, #0x9e4
p331
sg5
L18446743798838660512L
sg6
Nsg23
S'ADD'
p332
sg25
S'0xffffffc0006b0da0L'
p333
sg27
Nsba(ibclass
BInstr
p334
(dp335
g2
Nsg17
S'ADD             X2, X29, #0x40'
p336
sg19
S'a2030191'
p337
sg21
Vadd x2, x29, #0x40
p338
sg5
L18446743798838660516L
sg6
Nsg23
S'ADD'
p339
sg25
S'0xffffffc0006b0da4L'
p340
sg27
Nsba(ibclass
BInstr
p341
(dp342
g2
Nsg17
S'ADD             X3, X29, #0x3C'
p343
sg19
S'a3f30091'
p344
sg21
Vadd x3, x29, #0x3c
p345
sg5
L18446743798838660520L
sg6
Nsg23
S'ADD'
p346
sg25
S'0xffffffc0006b0da8L'
p347
sg27
Nsba(ibclass
BInstr
p348
(dp349
g2
Nsg17
S'BL              sscanf'
p350
sg19
S'c3f8f597'
p351
sg21
Vbl #0xffffffffffd7e30c
p352
sg5
L18446743798838660524L
sg6
Nsg23
S'BL'
p353
sg25
S'0xffffffc0006b0dacL'
p354
sg27
Nsba(ibclass
BInstr
p355
(dp356
g2
Nsg17
S'CMP             W0, #2'
p357
sg19
S'1f080071'
p358
sg21
Vcmp w0, #2
p359
sg5
L18446743798838660528L
sg6
Nsg23
S'CMP'
p360
sg25
S'0xffffffc0006b0db0L'
p361
sg27
Nsba(ibclass
BInstr
p362
(dp363
g2
Nsg17
S'B.NE            loc_FFFFFFC0006B0E1C'
p364
sg19
S'41030054'
p365
sg21
Vb.ne #0x68
p366
sg5
L18446743798838660532L
sg6
Nsg23
g237
sg25
S'0xffffffc0006b0db4L'
p367
sg27
Nsbasg168
(lp368
S'ADRP reg, #(aUUUUUUUU+0x13)@PAGE'
p369
aS'ADD reg, reg9, #0x30'
p370
aS'ADD reg, reg, #(aUUUUUUUU+0x13)@PAGEOFF'
p371
aS'ADD reg, reg9, #0x40'
p372
aS'ADD reg, reg9, #0x3C'
p373
aS'BL sscanf'
p374
aS'CMP reg, #2'
p375
aS'B.NE func'
p376
asg191
Nsg5
S'0xffffffc0006b0d98L'
p377
sg193
(lp378
S'0xffffffc0006b0d94L'
p379
asg6
Nsg195
(lp380
S'0xffffffc0006b0db8L'
p381
aS'0xffffffc0006b0e1cL'
p382
asg199
Nsg200
Nsg201
S'38690ed412e49565b0371e1f356bac7a'
p383
sg203
S'8927b0f06cafca672cc2786af0a0422a'
p384
sg205
(lp385
g318
ag325
ag332
ag339
ag346
ag353
ag360
ag237
asg207
Nsba(ibclass
BBasicBlock
p386
(dp387
g12
Nsg13
(lp388
(ibclass
BInstr
p389
(dp390
g2
Nsg17
S'LDR             W0, [X29,#arg_2C]'
p391
sg19
S'a03f40b9'
p392
sg21
Vldr w0, [x29, #0x3c]
p393
sg5
L18446743798838660536L
sg6
Nsg23
S'LDR'
p394
sg25
S'0xffffffc0006b0db8L'
p395
sg27
Nsba(ibclass
BInstr
p396
(dp397
g2
Nsg17
S'CMP             W0, #1'
p398
sg19
S'1f040071'
p399
sg21
Vcmp w0, #1
p400
sg5
L18446743798838660540L
sg6
Nsg23
S'CMP'
p401
sg25
S'0xffffffc0006b0dbcL'
p402
sg27
Nsba(ibclass
BInstr
p403
(dp404
g2
Nsg17
S'B.HI            loc_FFFFFFC0006B0E1C'
p405
sg19
S'e8020054'
p406
sg21
Vb.hi #0x5c
p407
sg5
L18446743798838660544L
sg6
Nsg23
g237
sg25
S'0xffffffc0006b0dc0L'
p408
sg27
Nsbasg168
(lp409
S'LDR reg, mem'
p410
aS'CMP reg, #1'
p411
aS'B.HI func'
p412
asg191
Nsg5
S'0xffffffc0006b0db8L'
p413
sg193
(lp414
S'0xffffffc0006b0d98L'
p415
asg6
Nsg195
(lp416
S'0xffffffc0006b0dc4L'
p417
aS'0xffffffc0006b0e1cL'
p418
asg199
Nsg200
Nsg201
S'fa4df767a85c49648339e2dc5c6807f6'
p419
sg203
S'88ba03c637b5fba071b3d6806f575d98'
p420
sg205
(lp421
g394
ag401
ag237
asg207
Nsba(ibclass
BBasicBlock
p422
(dp423
g12
Nsg13
(lp424
(ibclass
BInstr
p425
(dp426
g2
Nsg17
S'LDR             W19, [X29,#arg_30]'
p427
sg19
S'b34340b9'
p428
sg21
Vldr w19, [x29, #0x40]
p429
sg5
L18446743798838660548L
sg6
Nsg23
S'LDR'
p430
sg25
S'0xffffffc0006b0dc4L'
p431
sg27
Nsba(ibclass
BInstr
p432
(dp433
g2
Nsg17
S'LDRB            W1, [X21,#0x5E2]'
p434
sg19
S'a18a5739'
p435
sg21
Vldrb w1, [x21, #0x5e2]
p436
sg5
L18446743798838660552L
sg6
Nsg23
S'LDR'
p437
sg25
S'0xffffffc0006b0dc8L'
p438
sg27
Nsba(ibclass
BInstr
p439
(dp440
g2
Nsg17
S'ADD             W19, W0, W19,LSL#1'
p441
sg19
S'1304130b'
p442
sg21
Vadd w19, w0, w19, lsl #1
p443
sg5
L18446743798838660556L
sg6
Nsg23
S'ADD'
p444
sg25
S'0xffffffc0006b0dccL'
p445
sg27
Nsba(ibclass
BInstr
p446
(dp447
g2
Nsg17
S'LDRB            W0, [X21,#0x5E1]'
p448
sg19
S'a0865739'
p449
sg21
Vldrb w0, [x21, #0x5e1]
p450
sg5
L18446743798838660560L
sg6
Nsg23
S'LDR'
p451
sg25
S'0xffffffc0006b0dd0L'
p452
sg27
Nsba(ibclass
BInstr
p453
(dp454
g2
Nsg17
S'ADD             W0, W1, W0'
p455
sg19
S'2000000b'
p456
sg21
Vadd w0, w1, w0
p457
sg5
L18446743798838660564L
sg6
Nsg23
S'ADD'
p458
sg25
S'0xffffffc0006b0dd4L'
p459
sg27
Nsba(ibclass
BInstr
p460
(dp461
g2
Nsg17
S'CMP             W19, W0'
p462
sg19
S'7f02006b'
p463
sg21
Vcmp w19, w0
p464
sg5
L18446743798838660568L
sg6
Nsg23
S'CMP'
p465
sg25
S'0xffffffc0006b0dd8L'
p466
sg27
Nsba(ibclass
BInstr
p467
(dp468
g2
Nsg17
S'B.CS            loc_FFFFFFC0006B0E1C'
p469
sg19
S'02020054'
p470
sg21
Vb.hs #0x40
p471
sg5
L18446743798838660572L
sg6
Nsg23
g237
sg25
S'0xffffffc0006b0ddcL'
p472
sg27
Nsbasg168
(lp473
S'LDR reg9, mem'
p474
aS'LDRB reg, mem'
p475
aS'ADD reg9, reg, reg9,LSL#1'
p476
aS'LDRB reg, mem'
p477
aS'ADD reg, reg, reg'
p478
aS'CMP reg9, reg'
p479
aS'B.CS func'
p480
asg191
Nsg5
S'0xffffffc0006b0dc4L'
p481
sg193
(lp482
S'0xffffffc0006b0db8L'
p483
asg6
Nsg195
(lp484
S'0xffffffc0006b0de0L'
p485
aS'0xffffffc0006b0e1cL'
p486
asg199
Nsg200
Nsg201
S'a12d063613e9b29caceacf08cbb27f5d'
p487
sg203
S'06ae10b634a3c2d8a5cb327f3539d664'
p488
sg205
(lp489
g430
ag437
ag444
ag451
ag458
ag465
ag237
asg207
Nsba(ibclass
BBasicBlock
p490
(dp491
g12
Nsg13
(lp492
(ibclass
BInstr
p493
(dp494
g2
Nsg17
S'CMP             W19, #0x1F'
p495
sg19
S'7f7e0071'
p496
sg21
Vcmp w19, #0x1f
p497
sg5
L18446743798838660576L
sg6
Nsg23
S'CMP'
p498
sg25
S'0xffffffc0006b0de0L'
p499
sg27
Nsba(ibclass
BInstr
p500
(dp501
g2
Nsg17
S'B.HI            loc_FFFFFFC0006B0E1C'
p502
sg19
S'c8010054'
p503
sg21
Vb.hi #0x38
p504
sg5
L18446743798838660580L
sg6
Nsg23
g237
sg25
S'0xffffffc0006b0de4L'
p505
sg27
Nsbasg168
(lp506
S'CMP reg9, #0x1F'
p507
aS'B.HI func'
p508
asg191
Nsg5
S'0xffffffc0006b0de0L'
p509
sg193
(lp510
S'0xffffffc0006b0dc4L'
p511
asg6
Nsg195
(lp512
S'0xffffffc0006b0de8L'
p513
aS'0xffffffc0006b0e1cL'
p514
asg199
Nsg200
Nsg201
S'c78fd620a449e3c979d3f3ec12d4ee88'
p515
sg203
S'f370e47e26944a72883066a6bd5accbe'
p516
sg205
(lp517
g498
ag237
asg207
Nsba(ibclass
BBasicBlock
p518
(dp519
g12
Nsg13
(lp520
(ibclass
BInstr
p521
(dp522
g2
Nsg17
S'ADD             X21, X21, #0xD8'
p523
sg19
S'b5620391'
p524
sg21
Vadd x21, x21, #0xd8
p525
sg5
L18446743798838660584L
sg6
Nsg23
S'ADD'
p526
sg25
S'0xffffffc0006b0de8L'
p527
sg27
Nsba(ibclass
BInstr
p528
(dp529
g2
Nsg17
S'MOV             X0, X21'
p530
sg19
S'e00315aa'
p531
sg21
Vmov x0, x21
p532
sg5
L18446743798838660588L
sg6
Nsg23
S'MOV'
p533
sg25
S'0xffffffc0006b0decL'
p534
sg27
Nsba(ibclass
BInstr
p535
(dp536
g2
Nsg17
S'BL              _raw_spin_lock_irqsave'
p537
sg19
S'09491e94'
p538
sg21
Vbl #0x792424
p539
sg5
L18446743798838660592L
sg6
Nsg23
S'BL'
p540
sg25
S'0xffffffc0006b0df0L'
p541
sg27
Nsba(ibclass
BInstr
p542
(dp543
g2
Nsg17
S'MOV             X1, X0'
p544
sg19
S'e10300aa'
p545
sg21
Vmov x1, x0
p546
sg5
L18446743798838660596L
sg6
Nsg23
S'MOV'
p547
sg25
S'0xffffffc0006b0df4L'
p548
sg27
Nsba(ibclass
BInstr
p549
(dp550
g2
Nsg17
S'ADRP            X0, #ep_num@PAGE'
p551
sg19
S'e0b200f0'
p552
sg21
Vadrp x0, #0x165f000
p553
sg5
L18446743798838660600L
sg6
Nsg23
S'ADRP'
p554
sg25
S'0xffffffc0006b0df8L'
p555
sg27
Nsba(ibclass
BInstr
p556
(dp557
g2
Nsg17
S'ADD             X0, X0, #ep_num@PAGEOFF'
p558
sg19
S'00800891'
p559
sg21
Vadd x0, x0, #0x220
p560
sg5
L18446743798838660604L
sg6
Nsg23
S'ADD'
p561
sg25
S'0xffffffc0006b0dfcL'
p562
sg27
Nsba(ibclass
BInstr
p563
(dp564
g2
Nsg17
S'STR             W19, [X0]'
p565
sg19
S'130000b9'
p566
sg21
Vstr w19, [x0]
p567
sg5
L18446743798838660608L
sg6
Nsg23
S'STR'
p568
sg25
S'0xffffffc0006b0e00L'
p569
sg27
Nsba(ibclass
BInstr
p570
(dp571
g2
Nsg17
S'MOV             X0, X21'
p572
sg19
S'e00315aa'
p573
sg21
Vmov x0, x21
p574
sg5
L18446743798838660612L
sg6
Nsg23
S'MOV'
p575
sg25
S'0xffffffc0006b0e04L'
p576
sg27
Nsba(ibclass
BInstr
p577
(dp578
g2
Nsg17
S'BL              _raw_spin_unlock_irqrestore'
p579
sg19
S'57491e94'
p580
sg21
Vbl #0x79255c
p581
sg5
L18446743798838660616L
sg6
Nsg23
S'BL'
p582
sg25
S'0xffffffc0006b0e08L'
p583
sg27
Nsba(ibclass
BInstr
p584
(dp585
g2
Nsg17
S'MOV             X0, X20'
p586
sg19
S'e00314aa'
p587
sg21
Vmov x0, x20
p588
sg5
L18446743798838660620L
sg6
Nsg23
S'MOV'
p589
sg25
S'0xffffffc0006b0e0cL'
p590
sg27
Nsba(ibclass
BInstr
p591
(dp592
g2
Nsg17
S'B               loc_FFFFFFC0006B0E20'
p593
sg19
S'04000014'
p594
sg21
Vb #0x10
p595
sg5
L18446743798838660624L
sg6
Nsg23
g237
sg25
S'0xffffffc0006b0e10L'
p596
sg27
Nsbasg168
(lp597
S'ADD reg1, reg1, #0xD8'
p598
aS'MOV reg, reg1'
p599
aS'BL _raw_spin_lock_irqsave'
p600
aS'MOV reg, reg'
p601
aS'ADRP reg, #ep_num@PAGE'
p602
aS'ADD reg, reg, #ep_num@PAGEOFF'
p603
aS'STR reg9, mem'
p604
aS'MOV reg, reg1'
p605
aS'BL _raw_spin_unlock_irqrestore'
p606
aS'MOV reg, reg0'
p607
aS'B func'
p608
asg191
Nsg5
S'0xffffffc0006b0de8L'
p609
sg193
(lp610
S'0xffffffc0006b0de0L'
p611
asg6
Nsg195
(lp612
S'0xffffffc0006b0e20L'
p613
asg199
Nsg200
Nsg201
S'4cea0b487c5a7a6c165aa50d58109f5f'
p614
sg203
S'baefd339ca46e10077281f07d042ea36'
p615
sg205
(lp616
g526
ag533
ag540
ag547
ag554
ag561
ag568
ag575
ag582
ag589
ag237
asg207
Nsba(ibclass
BBasicBlock
p617
(dp618
g12
Nsg13
(lp619
(ibclass
BInstr
p620
(dp621
g2
Nsg17
S'MOV             X0, #0xFFFFFFFFFFFFFFF2'
p622
sg19
S'a0018092'
p623
sg21
Vmovn x0, #0xd
p624
sg5
L18446743798838660628L
sg6
Nsg23
S'MOV'
p625
sg25
S'0xffffffc0006b0e14L'
p626
sg27
Nsba(ibclass
BInstr
p627
(dp628
g2
Nsg17
S'B               loc_FFFFFFC0006B0E20'
p629
sg19
S'02000014'
p630
sg21
Vb #8
p631
sg5
L18446743798838660632L
sg6
Nsg23
g237
sg25
S'0xffffffc0006b0e18L'
p632
sg27
Nsbasg168
(lp633
S'MOV reg, #0xFFFFFFFFFFFFFFF2'
p634
aS'B func'
p635
asg191
Nsg5
S'0xffffffc0006b0e14L'
p636
sg193
(lp637
S'0xffffffc0006b0d94L'
p638
asg6
Nsg195
(lp639
S'0xffffffc0006b0e20L'
p640
asg199
Nsg200
Nsg201
S'b6c4e95ccfe77a95e4cf2019dd3d5574'
p641
sg203
S'de5cd3634b99fc7484a5299a0e06a6dc'
p642
sg205
(lp643
g625
ag237
asg207
Nsba(ibclass
BBasicBlock
p644
(dp645
g12
Nsg13
(lp646
(ibclass
BInstr
p647
(dp648
g2
Nsg17
S'MOV             X0, #0xFFFFFFFFFFFFFFEA'
p649
sg19
S'a0028092'
p650
sg21
Vmovn x0, #0x15
p651
sg5
L18446743798838660636L
sg6
Nsg23
S'MOV'
p652
sg25
S'0xffffffc0006b0e1cL'
p653
sg27
Nsbasg168
(lp654
S'MOV reg, #0xFFFFFFFFFFFFFFEA'
p655
asg191
Nsg5
S'0xffffffc0006b0e1cL'
p656
sg193
(lp657
S'0xffffffc0006b0d98L'
p658
aS'0xffffffc0006b0db8L'
p659
aS'0xffffffc0006b0dc4L'
p660
aS'0xffffffc0006b0de0L'
p661
asg6
Nsg195
(lp662
S'0xffffffc0006b0e20L'
p663
asg199
Nsg200
Nsg201
S'17b32100aef1fc19670be7fd58bc85df'
p664
sg203
S'e246af720660f75a784ce8a959acd15d'
p665
sg205
(lp666
g652
asg207
Nsba(ibclass
BBasicBlock
p667
(dp668
g12
Nsg13
(lp669
(ibclass
BInstr
p670
(dp671
g2
Nsg17
S'LDP             X19, X20, [SP,#0x40+var_30]'
p672
sg19
S'f35341a9'
p673
sg21
Vldp x19, x20, [sp, #0x10]
p674
sg5
L18446743798838660640L
sg6
Nsg23
S'LDP'
p675
sg25
S'0xffffffc0006b0e20L'
p676
sg27
Nsba(ibclass
BInstr
p677
(dp678
g2
Nsg17
S'LDR             X21, [SP,#0x40+var_20]'
p679
sg19
S'f51340f9'
p680
sg21
Vldr x21, [sp, #0x20]
p681
sg5
L18446743798838660644L
sg6
Nsg23
S'LDR'
p682
sg25
S'0xffffffc0006b0e24L'
p683
sg27
Nsba(ibclass
BInstr
p684
(dp685
g2
Nsg17
S'LDP             X29, X30, [SP+0x40+var_40],#0x50'
p686
sg19
S'fd7bc5a8'
p687
sg21
Vldp x29, x30, [sp], #0x50
p688
sg5
L18446743798838660648L
sg6
Nsg23
S'LDP'
p689
sg25
S'0xffffffc0006b0e28L'
p690
sg27
Nsba(ibclass
BInstr
p691
(dp692
g2
Nsg17
S'RET'
p693
sg19
S'c0035fd6'
p694
sg21
Vret 
p695
sg5
L18446743798838660652L
sg6
Nsg23
S'RET'
p696
sg25
S'0xffffffc0006b0e2cL'
p697
sg27
Nsbasg168
(lp698
S'LDP reg9, reg0, mem'
p699
aS'LDR reg1, mem'
p700
aS'LDP reg9, reg0, mem,#0x50'
p701
ag693
asg191
Nsg5
S'0xffffffc0006b0e20L'
p702
sg193
(lp703
S'0xffffffc0006b0de8L'
p704
aS'0xffffffc0006b0e14L'
p705
aS'0xffffffc0006b0e1cL'
p706
asg6
Nsg195
(lp707
sg199
Nsg200
Nsg201
S'b128167488f61fa9efc4b75f88cc16c9'
p708
sg203
S'b675e017644bfd8ea56f2564bd8cb24d'
p709
sg205
(lp710
g675
ag682
ag689
ag696
asg207
Nsbasb.