(ibclass
BFunc
p0
(dp1
S'hash'
p2
NsS'name'
p3
S'ext4_punch_hole'
p4
sS'start_address'
p5
L18446743798835199380L
sS'flag'
p6
NsS'program'
p7
NsS'bbs'
p8
(lp9
(ibclass
BBasicBlock
p10
(dp11
S'function'
p12
NsS'binstrs'
p13
(lp14
(ibclass
BInstr
p15
(dp16
g2
NsS'disasm'
p17
S'MOV             W0, #0xFFFFFFA1'
p18
sS'bytes'
p19
S'c00b8012'
p20
sS'disasm_striped'
p21
Vmovn w0, #0x5e
p22
sg5
L18446743798835199380L
sg6
NsS'mnem'
p23
S'MOV'
p24
sS'address'
p25
S'0xffffffc000363d94L'
p26
sS'basicblock'
p27
Nsba(ibclass
BInstr
p28
(dp29
g2
Nsg17
S'RET'
p30
sg19
S'c0035fd6'
p31
sg21
Vret 
p32
sg5
L18446743798835199384L
sg6
Nsg23
S'RET'
p33
sg25
S'0xffffffc000363d98L'
p34
sg27
NsbasS'disasm_list'
p35
(lp36
S'MOV reg, #0xFFFFFFA1'
p37
ag30
asS'end_address'
p38
Nsg5
S'0xffffffc000363d94L'
p39
sS'preds'
p40
(lp41
sg6
NsS'succs'
p42
(lp43
sS'hash_v3'
p44
NsS'flag_v2'
p45
NsS'hash_v1'
p46
S'8bee68d483ea47603222ef3b441ba584'
p47
sS'hash_v2'
p48
S'6926c0c41b2fc4fdc07e3f150e0fa636'
p49
sS'mnen_list'
p50
(lp51
g24
ag33
asS'neighbour_disasm_list'
p52
Nsbasb.