(ibclass
BFunc
p0
(dp1
S'hash'
p2
NsS'name'
p3
S'hfi_process_session_abort_done'
p4
sS'start_address'
p5
L18446743798839784812L
sS'flag'
p6
NsS'program'
p7
NsS'bbs'
p8
(lp9
(ibclass
BBasicBlock
p10
(dp11
S'function'
p12
NsS'binstrs'
p13
(lp14
(ibclass
BInstr
p15
(dp16
g2
NsS'disasm'
p17
S'STP             X29, X30, [SP,#-0x10+var_50]!'
p18
sS'bytes'
p19
S'fd7bbaa9'
p20
sS'disasm_striped'
p21
Vstp x29, x30, [sp, #-0x60]!
p22
sg5
L18446743798839784812L
sg6
NsS'mnem'
p23
S'STP'
p24
sS'address'
p25
S'0xffffffc0007c356cL'
p26
sS'basicblock'
p27
Nsba(ibclass
BInstr
p28
(dp29
g2
Nsg17
S'MOV             X29, SP'
p30
sg19
S'fd030091'
p31
sg21
Vmov x29, sp
p32
sg5
L18446743798839784816L
sg6
Nsg23
S'MOV'
p33
sg25
S'0xffffffc0007c3570L'
p34
sg27
Nsba(ibclass
BInstr
p35
(dp36
g2
Nsg17
S'ADRP            X4, #qword_FFFFFFC000E4A8A0@PAGE'
p37
sg19
S'243400f0'
p38
sg21
Vadrp x4, #0x687000
p39
sg5
L18446743798839784820L
sg6
Nsg23
S'ADRP'
p40
sg25
S'0xffffffc0007c3574L'
p41
sg27
Nsba(ibclass
BInstr
p42
(dp43
g2
Nsg17
S'STP             X19, X20, [SP,#0x50+var_40]'
p44
sg19
S'f35301a9'
p45
sg21
Vstp x19, x20, [sp, #0x10]
p46
sg5
L18446743798839784824L
sg6
Nsg23
S'STP'
p47
sg25
S'0xffffffc0007c3578L'
p48
sg27
Nsba(ibclass
BInstr
p49
(dp50
g2
Nsg17
S'MOV             X19, X0'
p51
sg19
S'f30300aa'
p52
sg21
Vmov x19, x0
p53
sg5
L18446743798839784828L
sg6
Nsg23
S'MOV'
p54
sg25
S'0xffffffc0007c357cL'
p55
sg27
Nsba(ibclass
BInstr
p56
(dp57
g2
Nsg17
S'LDR             X0, [X4,#qword_FFFFFFC000E4A8A0@PAGEOFF]'
p58
sg19
S'805044f9'
p59
sg21
Vldr x0, [x4, #0x8a0]
p60
sg5
L18446743798839784832L
sg6
Nsg23
S'LDR'
p61
sg25
S'0xffffffc0007c3580L'
p62
sg27
Nsba(ibclass
BInstr
p63
(dp64
g2
Nsg17
S'STP             X21, X22, [SP,#0x50+var_30]'
p65
sg19
S'f55b02a9'
p66
sg21
Vstp x21, x22, [sp, #0x20]
p67
sg5
L18446743798839784836L
sg6
Nsg23
S'STP'
p68
sg25
S'0xffffffc0007c3584L'
p69
sg27
Nsba(ibclass
BInstr
p70
(dp71
g2
Nsg17
S'LDR             W0, [X0]'
p72
sg19
S'000040b9'
p73
sg21
Vldr w0, [x0]
p74
sg5
L18446743798839784840L
sg6
Nsg23
S'LDR'
p75
sg25
S'0xffffffc0007c3588L'
p76
sg27
Nsba(ibclass
BInstr
p77
(dp78
g2
Nsg17
S'STP             XZR, XZR, [X29,#0x50+var_20]'
p79
sg19
S'bf7f03a9'
p80
sg21
Vstp xzr, xzr, [x29, #0x30]
p81
sg5
L18446743798839784844L
sg6
Nsg23
S'STP'
p82
sg25
S'0xffffffc0007c358cL'
p83
sg27
Nsba(ibclass
BInstr
p84
(dp85
g2
Nsg17
S'STP             XZR, XZR, [X29,#0x50+var_10]'
p86
sg19
S'bf7f04a9'
p87
sg21
Vstp xzr, xzr, [x29, #0x40]
p88
sg5
L18446743798839784848L
sg6
Nsg23
S'STP'
p89
sg25
S'0xffffffc0007c3590L'
p90
sg27
Nsba(ibclass
BInstr
p91
(dp92
g2
Nsg17
S'MOV             W21, W1'
p93
sg19
S'f503012a'
p94
sg21
Vmov w21, w1
p95
sg5
L18446743798839784852L
sg6
Nsg23
S'MOV'
p96
sg25
S'0xffffffc0007c3594L'
p97
sg27
Nsba(ibclass
BInstr
p98
(dp99
g2
Nsg17
S'MOV             X20, X2'
p100
sg19
S'f40302aa'
p101
sg21
Vmov x20, x2
p102
sg5
L18446743798839784856L
sg6
Nsg23
S'MOV'
p103
sg25
S'0xffffffc0007c3598L'
p104
sg27
Nsba(ibclass
BInstr
p105
(dp106
g2
Nsg17
S'MOV             X22, X4'
p107
sg19
S'f60304aa'
p108
sg21
Vmov x22, x4
p109
sg5
L18446743798839784860L
sg6
Nsg23
S'MOV'
p110
sg25
S'0xffffffc0007c359cL'
p111
sg27
Nsba(ibclass
BInstr
p112
(dp113
g2
Nsg17
S'TBZ             W0, #3, loc_FFFFFFC0007C35D0'
p114
sg19
S'80011836'
p115
sg21
Vtbz w0, #3, #0x30
p116
sg5
L18446743798839784864L
sg6
Nsg23
S'TBZ'
p117
sg25
S'0xffffffc0007c35a0L'
p118
sg27
NsbasS'disasm_list'
p119
(lp120
S'STP reg9, reg0, mem!'
p121
aS'MOV reg9, SP'
p122
aS'ADRP reg, #func@PAGE'
p123
aS'STP reg9, reg0, mem'
p124
aS'MOV reg9, reg'
p125
aS'LDR reg, mem'
p126
aS'STP reg1, reg2, mem'
p127
aS'LDR reg, mem'
p128
aS'STP XZR, XZR, mem'
p129
aS'STP XZR, XZR, mem'
p130
aS'MOV reg1, reg'
p131
aS'MOV reg0, reg'
p132
aS'MOV reg2, reg'
p133
aS'TBZ reg, #3, func'
p134
asS'end_address'
p135
Nsg5
S'0xffffffc0007c356cL'
p136
sS'preds'
p137
(lp138
sg6
NsS'succs'
p139
(lp140
S'0xffffffc0007c35a4L'
p141
aS'0xffffffc0007c35d0L'
p142
asS'hash_v3'
p143
NsS'flag_v2'
p144
NsS'hash_v1'
p145
S'6e53134e1d040ca5bee2f23d8428bd68'
p146
sS'hash_v2'
p147
S'1d24a70e5bf57670732100afb93222f2'
p148
sS'mnen_list'
p149
(lp150
g24
ag33
ag40
ag47
ag54
ag61
ag68
ag75
ag82
ag89
ag96
ag103
ag110
ag117
asS'neighbour_disasm_list'
p151
Nsba(ibclass
BBasicBlock
p152
(dp153
g12
Nsg13
(lp154
(ibclass
BInstr
p155
(dp156
g2
Nsg17
S'ADRP            X0, #qword_FFFFFFC000E48D48@PAGE'
p157
sg19
S'203400b0'
p158
sg21
Vadrp x0, #0x685000
p159
sg5
L18446743798839784868L
sg6
Nsg23
S'ADRP'
p160
sg25
S'0xffffffc0007c35a4L'
p161
sg27
Nsba(ibclass
BInstr
p162
(dp163
g2
Nsg17
S'LDR             X0, [X0,#qword_FFFFFFC000E48D48@PAGEOFF]'
p164
sg19
S'00a446f9'
p165
sg21
Vldr x0, [x0, #0xd48]
p166
sg5
L18446743798839784872L
sg6
Nsg23
S'LDR'
p167
sg25
S'0xffffffc0007c35a8L'
p168
sg27
Nsba(ibclass
BInstr
p169
(dp170
g2
Nsg17
S'LDR             W0, [X0]'
p171
sg19
S'000040b9'
p172
sg21
Vldr w0, [x0]
p173
sg5
L18446743798839784876L
sg6
Nsg23
S'LDR'
p174
sg25
S'0xffffffc0007c35acL'
p175
sg27
Nsba(ibclass
BInstr
p176
(dp177
g2
Nsg17
S'CBNZ            W0, loc_FFFFFFC0007C35D0'
p178
sg19
S'00010035'
p179
sg21
Vcbnz w0, #0x20
p180
sg5
L18446743798839784880L
sg6
Nsg23
S'CBNZ'
p181
sg25
S'0xffffffc0007c35b0L'
p182
sg27
Nsbasg119
(lp183
S'ADRP reg, #func@PAGE'
p184
aS'LDR reg, mem'
p185
aS'LDR reg, mem'
p186
aS'CBNZ reg, func'
p187
asg135
Nsg5
S'0xffffffc0007c35a4L'
p188
sg137
(lp189
S'0xffffffc0007c356cL'
p190
asg6
Nsg139
(lp191
S'0xffffffc0007c35b4L'
p192
aS'0xffffffc0007c35d0L'
p193
asg143
Nsg144
Nsg145
S'9c97521b8b0f280d47a50ec9a5e4f86f'
p194
sg147
S'bd26f8893557dc5fa132ff2490be0ebf'
p195
sg149
(lp196
g160
ag167
ag174
ag181
asg151
Nsba(ibclass
BBasicBlock
p197
(dp198
g12
Nsg13
(lp199
(ibclass
BInstr
p200
(dp201
g2
Nsg17
S'ADRP            X0, #unk_FFFFFFC0013C1EE6@PAGE'
p202
sg19
S'e05f00d0'
p203
sg21
Vadrp x0, #0xbfe000
p204
sg5
L18446743798839784884L
sg6
Nsg23
S'ADRP'
p205
sg25
S'0xffffffc0007c35b4L'
p206
sg27
Nsba(ibclass
BInstr
p207
(dp208
g2
Nsg17
S'ADRP            X1, #(aRulesDbg+6)@PAGE; "dbg"'
p209
sg19
S'c16600d0'
p210
sg21
Vadrp x1, #0xcda000
p211
sg5
L18446743798839784888L
sg6
Nsg23
S'ADRP'
p212
sg25
S'0xffffffc0007c35b8L'
p213
sg27
Nsba(ibclass
BInstr
p214
(dp215
g2
Nsg17
S'ADD             X0, X0, #unk_FFFFFFC0013C1EE6@PAGEOFF'
p216
sg19
S'00983b91'
p217
sg21
Vadd x0, x0, #0xee6
p218
sg5
L18446743798839784892L
sg6
Nsg23
S'ADD'
p219
sg25
S'0xffffffc0007c35bcL'
p220
sg27
Nsba(ibclass
BInstr
p221
(dp222
g2
Nsg17
S'ADD             X1, X1, #(aRulesDbg+6)@PAGEOFF; "dbg"'
p223
sg19
S'21e01d91'
p224
sg21
Vadd x1, x1, #0x778
p225
sg5
L18446743798839784896L
sg6
Nsg23
S'ADD'
p226
sg25
S'0xffffffc0007c35c0L'
p227
sg27
Nsba(ibclass
BInstr
p228
(dp229
g2
Nsg17
S'STR             X3, [X29,#0x50+var_s0]'
p230
sg19
S'a32b00f9'
p231
sg21
Vstr x3, [x29, #0x50]
p232
sg5
L18446743798839784900L
sg6
Nsg23
S'STR'
p233
sg25
S'0xffffffc0007c35c4L'
p234
sg27
Nsba(ibclass
BInstr
p235
(dp236
g2
Nsg17
S'BL              printk'
p237
sg19
S'e6c01994'
p238
sg21
Vbl #0x670398
p239
sg5
L18446743798839784904L
sg6
Nsg23
S'BL'
p240
sg25
S'0xffffffc0007c35c8L'
p241
sg27
Nsba(ibclass
BInstr
p242
(dp243
g2
Nsg17
S'LDR             X3, [X29,#0x50+var_s0]'
p244
sg19
S'a32b40f9'
p245
sg21
Vldr x3, [x29, #0x50]
p246
sg5
L18446743798839784908L
sg6
Nsg23
S'LDR'
p247
sg25
S'0xffffffc0007c35ccL'
p248
sg27
Nsbasg119
(lp249
S'ADRP reg, #func@PAGE'
p250
aS'ADRP reg, #(aRulesDbg+6)@PAGE'
p251
aS'ADD reg, reg, #func@PAGEOFF'
p252
aS'ADD reg, reg, #(aRulesDbg+6)@PAGEOFF'
p253
aS'STR reg, mem'
p254
aS'BL printk'
p255
aS'LDR reg, mem'
p256
asg135
Nsg5
S'0xffffffc0007c35b4L'
p257
sg137
(lp258
S'0xffffffc0007c35a4L'
p259
asg6
Nsg139
(lp260
S'0xffffffc0007c35d0L'
p261
asg143
Nsg144
Nsg145
S'4fef620e9f7eba3f608ec57728523200'
p262
sg147
S'89b1d0d9a1ad023f7414ba56d500ab13'
p263
sg149
(lp264
g205
ag212
ag219
ag226
ag233
ag240
ag247
asg151
Nsba(ibclass
BBasicBlock
p265
(dp266
g12
Nsg13
(lp267
(ibclass
BInstr
p268
(dp269
g2
Nsg17
S'CBZ             X3, loc_FFFFFFC0007C35E0'
p270
sg19
S'830000b4'
p271
sg21
Vcbz x3, #0x10
p272
sg5
L18446743798839784912L
sg6
Nsg23
S'CBZ'
p273
sg25
S'0xffffffc0007c35d0L'
p274
sg27
Nsbasg119
(lp275
S'CBZ reg, func'
p276
asg135
Nsg5
S'0xffffffc0007c35d0L'
p277
sg137
(lp278
S'0xffffffc0007c356cL'
p279
aS'0xffffffc0007c35a4L'
p280
aS'0xffffffc0007c35b4L'
p281
asg6
Nsg139
(lp282
S'0xffffffc0007c35d4L'
p283
aS'0xffffffc0007c35e0L'
p284
asg143
Nsg144
Nsg145
S'de8e361453cf9f764a4abe9d486f8fbe'
p285
sg147
S'1f44e7b7d6ea8c93b4632bf8395c86c6'
p286
sg149
(lp287
g273
asg151
Nsba(ibclass
BBasicBlock
p288
(dp289
g12
Nsg13
(lp290
(ibclass
BInstr
p291
(dp292
g2
Nsg17
S'LDR             W0, [X3]'
p293
sg19
S'600040b9'
p294
sg21
Vldr w0, [x3]
p295
sg5
L18446743798839784916L
sg6
Nsg23
S'LDR'
p296
sg25
S'0xffffffc0007c35d4L'
p297
sg27
Nsba(ibclass
BInstr
p298
(dp299
g2
Nsg17
S'CMP             W0, #0x10'
p300
sg19
S'1f400071'
p301
sg21
Vcmp w0, #0x10
p302
sg5
L18446743798839784920L
sg6
Nsg23
S'CMP'
p303
sg25
S'0xffffffc0007c35d8L'
p304
sg27
Nsba(ibclass
BInstr
p305
(dp306
g2
Nsg17
S'B.EQ            loc_FFFFFFC0007C3624'
p307
sg19
S'40020054'
p308
sg21
Vb.eq #0x48
p309
sg5
L18446743798839784924L
sg6
Nsg23
S'B'
p310
sg25
S'0xffffffc0007c35dcL'
p311
sg27
Nsbasg119
(lp312
S'LDR reg, mem'
p313
aS'CMP reg, #0x10'
p314
aS'B.EQ func'
p315
asg135
Nsg5
S'0xffffffc0007c35d4L'
p316
sg137
(lp317
S'0xffffffc0007c35d0L'
p318
asg6
Nsg139
(lp319
S'0xffffffc0007c35e0L'
p320
aS'0xffffffc0007c3624L'
p321
asg143
Nsg144
Nsg145
S'fa4df767a85c49648339e2dc5c6807f6'
p322
sg147
S'709ad4fabade5546c8c153c1fed471e2'
p323
sg149
(lp324
g296
ag303
ag310
asg151
Nsba(ibclass
BBasicBlock
p325
(dp326
g12
Nsg13
(lp327
(ibclass
BInstr
p328
(dp329
g2
Nsg17
S'LDR             X22, [X22,#(qword_FFFFFFC000E4A8A0 - 0xFFFFFFC000E4A000)]'
p330
sg19
S'd65244f9'
p331
sg21
Vldr x22, [x22, #0x8a0]
p332
sg5
L18446743798839784928L
sg6
Nsg23
S'LDR'
p333
sg25
S'0xffffffc0007c35e0L'
p334
sg27
Nsba(ibclass
BInstr
p335
(dp336
g2
Nsg17
S'LDR             W0, [X22]'
p337
sg19
S'c00240b9'
p338
sg21
Vldr w0, [x22]
p339
sg5
L18446743798839784932L
sg6
Nsg23
S'LDR'
p340
sg25
S'0xffffffc0007c35e4L'
p341
sg27
Nsba(ibclass
BInstr
p342
(dp343
g2
Nsg17
S'TBZ             W0, #0, loc_FFFFFFC0007C3650'
p344
sg19
S'40030036'
p345
sg21
Vtbz w0, #0, #0x68
p346
sg5
L18446743798839784936L
sg6
Nsg23
S'TBZ'
p347
sg25
S'0xffffffc0007c35e8L'
p348
sg27
Nsbasg119
(lp349
S'LDR reg2, mem'
p350
aS'LDR reg, mem'
p351
aS'TBZ reg, #0, func'
p352
asg135
Nsg5
S'0xffffffc0007c35e0L'
p353
sg137
(lp354
S'0xffffffc0007c35d0L'
p355
aS'0xffffffc0007c35d4L'
p356
asg6
Nsg139
(lp357
S'0xffffffc0007c35ecL'
p358
aS'0xffffffc0007c3650L'
p359
asg143
Nsg144
Nsg145
S'ac18b97d3a767be1a0530f85211830b6'
p360
sg147
S'661777bb57fd04b48c40457f1d7e4dee'
p361
sg149
(lp362
g333
ag340
ag347
asg151
Nsba(ibclass
BBasicBlock
p363
(dp364
g12
Nsg13
(lp365
(ibclass
BInstr
p366
(dp367
g2
Nsg17
S'ADRP            X0, #qword_FFFFFFC000E48D48@PAGE'
p368
sg19
S'203400b0'
p369
sg21
Vadrp x0, #0x685000
p370
sg5
L18446743798839784940L
sg6
Nsg23
S'ADRP'
p371
sg25
S'0xffffffc0007c35ecL'
p372
sg27
Nsba(ibclass
BInstr
p373
(dp374
g2
Nsg17
S'LDR             X0, [X0,#qword_FFFFFFC000E48D48@PAGEOFF]'
p375
sg19
S'00a446f9'
p376
sg21
Vldr x0, [x0, #0xd48]
p377
sg5
L18446743798839784944L
sg6
Nsg23
S'LDR'
p378
sg25
S'0xffffffc0007c35f0L'
p379
sg27
Nsba(ibclass
BInstr
p380
(dp381
g2
Nsg17
S'LDR             W0, [X0]'
p382
sg19
S'000040b9'
p383
sg21
Vldr w0, [x0]
p384
sg5
L18446743798839784948L
sg6
Nsg23
S'LDR'
p385
sg25
S'0xffffffc0007c35f4L'
p386
sg27
Nsba(ibclass
BInstr
p387
(dp388
g2
Nsg17
S'CBNZ            W0, loc_FFFFFFC0007C3650'
p389
sg19
S'c0020035'
p390
sg21
Vcbnz w0, #0x58
p391
sg5
L18446743798839784952L
sg6
Nsg23
S'CBNZ'
p392
sg25
S'0xffffffc0007c35f8L'
p393
sg27
Nsbasg119
(lp394
S'ADRP reg, #func@PAGE'
p395
aS'LDR reg, mem'
p396
aS'LDR reg, mem'
p397
aS'CBNZ reg, func'
p398
asg135
Nsg5
S'0xffffffc0007c35ecL'
p399
sg137
(lp400
S'0xffffffc0007c35e0L'
p401
asg6
Nsg139
(lp402
S'0xffffffc0007c35fcL'
p403
aS'0xffffffc0007c3650L'
p404
asg143
Nsg144
Nsg145
S'9c97521b8b0f280d47a50ec9a5e4f86f'
p405
sg147
S'bd26f8893557dc5fa132ff2490be0ebf'
p406
sg149
(lp407
g371
ag378
ag385
ag392
asg151
Nsba(ibclass
BBasicBlock
p408
(dp409
g12
Nsg13
(lp410
(ibclass
BInstr
p411
(dp412
g2
Nsg17
S'CBZ             X3, loc_FFFFFFC0007C3604'
p413
sg19
S'430000b4'
p414
sg21
Vcbz x3, #8
p415
sg5
L18446743798839784956L
sg6
Nsg23
S'CBZ'
p416
sg25
S'0xffffffc0007c35fcL'
p417
sg27
Nsbasg119
(lp418
S'CBZ reg, func'
p419
asg135
Nsg5
S'0xffffffc0007c35fcL'
p420
sg137
(lp421
S'0xffffffc0007c35ecL'
p422
asg6
Nsg139
(lp423
S'0xffffffc0007c3600L'
p424
aS'0xffffffc0007c3604L'
p425
asg143
Nsg144
Nsg145
S'de8e361453cf9f764a4abe9d486f8fbe'
p426
sg147
S'1f44e7b7d6ea8c93b4632bf8395c86c6'
p427
sg149
(lp428
g416
asg151
Nsba(ibclass
BBasicBlock
p429
(dp430
g12
Nsg13
(lp431
(ibclass
BInstr
p432
(dp433
g2
Nsg17
S'LDR             W3, [X3]'
p434
sg19
S'630040b9'
p435
sg21
Vldr w3, [x3]
p436
sg5
L18446743798839784960L
sg6
Nsg23
S'LDR'
p437
sg25
S'0xffffffc0007c3600L'
p438
sg27
Nsbasg119
(lp439
S'LDR reg, mem'
p440
asg135
Nsg5
S'0xffffffc0007c3600L'
p441
sg137
(lp442
S'0xffffffc0007c35fcL'
p443
asg6
Nsg139
(lp444
S'0xffffffc0007c3604L'
p445
asg143
Nsg144
Nsg145
S'6645d4de79aee6373f120d72c0030e5f'
p446
sg147
S'f8d2f8f4cdf40ad12a334448a2a08c78'
p447
sg149
(lp448
g437
asg151
Nsba(ibclass
BBasicBlock
p449
(dp450
g12
Nsg13
(lp451
(ibclass
BInstr
p452
(dp453
g2
Nsg17
S'ADRP            X0, #unk_FFFFFFC0013C1F1A@PAGE'
p454
sg19
S'e05f00d0'
p455
sg21
Vadrp x0, #0xbfe000
p456
sg5
L18446743798839784964L
sg6
Nsg23
S'ADRP'
p457
sg25
S'0xffffffc0007c3604L'
p458
sg27
Nsba(ibclass
BInstr
p459
(dp460
g2
Nsg17
S'ADRP            X1, #(aQcomMdssDsi_17+0x1B)@PAGE; "err"'
p461
sg19
S'615b0090'
p462
sg21
Vadrp x1, #0xb6c000
p463
sg5
L18446743798839784968L
sg6
Nsg23
S'ADRP'
p464
sg25
S'0xffffffc0007c3608L'
p465
sg27
Nsba(ibclass
BInstr
p466
(dp467
g2
Nsg17
S'ADRP            X2, #__func__.31869@PAGE; "hfi_process_session_abort_done"'
p468
sg19
S'224400f0'
p469
sg21
Vadrp x2, #0x887000
p470
sg5
L18446743798839784972L
sg6
Nsg23
S'ADRP'
p471
sg25
S'0xffffffc0007c360cL'
p472
sg27
Nsba(ibclass
BInstr
p473
(dp474
g2
Nsg17
S'ADD             X1, X1, #(aQcomMdssDsi_17+0x1B)@PAGEOFF; "err"'
p475
sg19
S'21801291'
p476
sg21
Vadd x1, x1, #0x4a0
p477
sg5
L18446743798839784976L
sg6
Nsg23
S'ADD'
p478
sg25
S'0xffffffc0007c3610L'
p479
sg27
Nsba(ibclass
BInstr
p480
(dp481
g2
Nsg17
S'ADD             X2, X2, #__func__.31869@PAGEOFF; "hfi_process_session_abort_done"'
p482
sg19
S'42802891'
p483
sg21
Vadd x2, x2, #0xa20
p484
sg5
L18446743798839784980L
sg6
Nsg23
S'ADD'
p485
sg25
S'0xffffffc0007c3614L'
p486
sg27
Nsba(ibclass
BInstr
p487
(dp488
g2
Nsg17
S'ADD             X0, X0, #unk_FFFFFFC0013C1F1A@PAGEOFF'
p489
sg19
S'00683c91'
p490
sg21
Vadd x0, x0, #0xf1a
p491
sg5
L18446743798839784984L
sg6
Nsg23
S'ADD'
p492
sg25
S'0xffffffc0007c3618L'
p493
sg27
Nsba(ibclass
BInstr
p494
(dp495
g2
Nsg17
S'BL              printk'
p496
sg19
S'd1c01994'
p497
sg21
Vbl #0x670344
p498
sg5
L18446743798839784988L
sg6
Nsg23
S'BL'
p499
sg25
S'0xffffffc0007c361cL'
p500
sg27
Nsba(ibclass
BInstr
p501
(dp502
g2
Nsg17
S'B               loc_FFFFFFC0007C3650'
p503
sg19
S'0c000014'
p504
sg21
Vb #0x30
p505
sg5
L18446743798839784992L
sg6
Nsg23
g310
sg25
S'0xffffffc0007c3620L'
p506
sg27
Nsbasg119
(lp507
S'ADRP reg, #func@PAGE'
p508
aS'ADRP reg, #(aQcomMdssDsi_17+0x1B)@PAGE'
p509
aS'ADRP reg, #__func__.31869@PAGE'
p510
aS'ADD reg, reg, #(aQcomMdssDsi_17+0x1B)@PAGEOFF'
p511
aS'ADD reg, reg, #__func__.31869@PAGEOFF'
p512
aS'ADD reg, reg, #func@PAGEOFF'
p513
aS'BL printk'
p514
aS'B func'
p515
asg135
Nsg5
S'0xffffffc0007c3604L'
p516
sg137
(lp517
S'0xffffffc0007c35fcL'
p518
aS'0xffffffc0007c3600L'
p519
asg6
Nsg139
(lp520
S'0xffffffc0007c3650L'
p521
asg143
Nsg144
Nsg145
S'253a2a0a4c1381f7eab8bb637830d18c'
p522
sg147
S'6de5ee6fd647db5868b08c63e54d4601'
p523
sg149
(lp524
g457
ag464
ag471
ag478
ag485
ag492
ag499
ag310
asg151
Nsba(ibclass
BBasicBlock
p525
(dp526
g12
Nsg13
(lp527
(ibclass
BInstr
p528
(dp529
g2
Nsg17
S'LDR             X0, [X20,#0x10]'
p530
sg19
S'800a40f9'
p531
sg21
Vldr x0, [x20, #0x10]
p532
sg5
L18446743798839784996L
sg6
Nsg23
S'LDR'
p533
sg25
S'0xffffffc0007c3624L'
p534
sg27
Nsba(ibclass
BInstr
p535
(dp536
g2
Nsg17
S'STR             W21, [X29,#arg_20]'
p537
sg19
S'b53300b9'
p538
sg21
Vstr w21, [x29, #0x30]
p539
sg5
L18446743798839785000L
sg6
Nsg23
S'STR'
p540
sg25
S'0xffffffc0007c3628L'
p541
sg27
Nsba(ibclass
BInstr
p542
(dp543
g2
Nsg17
S'STR             X0, [X29,#arg_28]'
p544
sg19
S'a01f00f9'
p545
sg21
Vstr x0, [x29, #0x38]
p546
sg5
L18446743798839785004L
sg6
Nsg23
S'STR'
p547
sg25
S'0xffffffc0007c362cL'
p548
sg27
Nsba(ibclass
BInstr
p549
(dp550
g2
Nsg17
S'LDR             W0, [X3,#0xC]'
p551
sg19
S'600c40b9'
p552
sg21
Vldr w0, [x3, #0xc]
p553
sg5
L18446743798839785008L
sg6
Nsg23
S'LDR'
p554
sg25
S'0xffffffc0007c3630L'
p555
sg27
Nsba(ibclass
BInstr
p556
(dp557
g2
Nsg17
S'BL              hfi_map_err_status'
p558
sg19
S'71ffff97'
p559
sg21
Vbl #0xfffffffffffffdc4
p560
sg5
L18446743798839785012L
sg6
Nsg23
S'BL'
p561
sg25
S'0xffffffc0007c3634L'
p562
sg27
Nsba(ibclass
BInstr
p563
(dp564
g2
Nsg17
S'STR             W0, [X29,#arg_30]'
p565
sg19
S'a04300b9'
p566
sg21
Vstr w0, [x29, #0x40]
p567
sg5
L18446743798839785016L
sg6
Nsg23
S'STR'
p568
sg25
S'0xffffffc0007c3638L'
p569
sg27
Nsba(ibclass
BInstr
p570
(dp571
g2
Nsg17
S'ADD             X1, X29, #0x30'
p572
sg19
S'a1c30091'
p573
sg21
Vadd x1, x29, #0x30
p574
sg5
L18446743798839785020L
sg6
Nsg23
S'ADD'
p575
sg25
S'0xffffffc0007c363cL'
p576
sg27
Nsba(ibclass
BInstr
p577
(dp578
g2
Nsg17
S'MOV             W0, #0xD'
p579
sg19
S'a0018052'
p580
sg21
Vmovz w0, #0xd
p581
sg5
L18446743798839785024L
sg6
Nsg23
S'MOV'
p582
sg25
S'0xffffffc0007c3640L'
p583
sg27
Nsba(ibclass
BInstr
p584
(dp585
g2
Nsg17
S'STR             XZR, [X29,#arg_38]'
p586
sg19
S'bf2700f9'
p587
sg21
Vstr xzr, [x29, #0x48]
p588
sg5
L18446743798839785028L
sg6
Nsg23
S'STR'
p589
sg25
S'0xffffffc0007c3644L'
p590
sg27
Nsba(ibclass
BInstr
p591
(dp592
g2
Nsg17
S'STR             WZR, [X29,#arg_34]'
p593
sg19
S'bf4700b9'
p594
sg21
Vstr wzr, [x29, #0x44]
p595
sg5
L18446743798839785032L
sg6
Nsg23
S'STR'
p596
sg25
S'0xffffffc0007c3648L'
p597
sg27
Nsba(ibclass
BInstr
p598
(dp599
g2
Nsg17
S'BLR             X19'
p600
sg19
S'60023fd6'
p601
sg21
Vblr x19
p602
sg5
L18446743798839785036L
sg6
Nsg23
S'BLR'
p603
sg25
S'0xffffffc0007c364cL'
p604
sg27
Nsbasg119
(lp605
S'LDR reg, mem'
p606
aS'STR reg1, mem'
p607
aS'STR reg, mem'
p608
aS'LDR reg, mem'
p609
aS'BL hfi_map_err_status'
p610
aS'STR reg, mem'
p611
aS'ADD reg, reg9, #0x30'
p612
aS'MOV reg, #0xD'
p613
aS'STR XZR, mem'
p614
aS'STR WZR, mem'
p615
aS'BLR reg9'
p616
asg135
Nsg5
S'0xffffffc0007c3624L'
p617
sg137
(lp618
S'0xffffffc0007c35d4L'
p619
asg6
Nsg139
(lp620
S'0xffffffc0007c3650L'
p621
asg143
Nsg144
Nsg145
S'65224f592c85712ef347a4f2a43caa0a'
p622
sg147
S'6880bba0cf31b16e88407ba051cf4463'
p623
sg149
(lp624
g533
ag540
ag547
ag554
ag561
ag568
ag575
ag582
ag589
ag596
ag603
asg151
Nsba(ibclass
BBasicBlock
p625
(dp626
g12
Nsg13
(lp627
(ibclass
BInstr
p628
(dp629
g2
Nsg17
S'LDP             X19, X20, [SP,#0x50+var_40]'
p630
sg19
S'f35341a9'
p631
sg21
Vldp x19, x20, [sp, #0x10]
p632
sg5
L18446743798839785040L
sg6
Nsg23
S'LDP'
p633
sg25
S'0xffffffc0007c3650L'
p634
sg27
Nsba(ibclass
BInstr
p635
(dp636
g2
Nsg17
S'LDP             X21, X22, [SP,#0x50+var_30]'
p637
sg19
S'f55b42a9'
p638
sg21
Vldp x21, x22, [sp, #0x20]
p639
sg5
L18446743798839785044L
sg6
Nsg23
S'LDP'
p640
sg25
S'0xffffffc0007c3654L'
p641
sg27
Nsba(ibclass
BInstr
p642
(dp643
g2
Nsg17
S'LDP             X29, X30, [SP+0x50+var_50],#0x60'
p644
sg19
S'fd7bc6a8'
p645
sg21
Vldp x29, x30, [sp], #0x60
p646
sg5
L18446743798839785048L
sg6
Nsg23
S'LDP'
p647
sg25
S'0xffffffc0007c3658L'
p648
sg27
Nsba(ibclass
BInstr
p649
(dp650
g2
Nsg17
S'RET'
p651
sg19
S'c0035fd6'
p652
sg21
Vret 
p653
sg5
L18446743798839785052L
sg6
Nsg23
S'RET'
p654
sg25
S'0xffffffc0007c365cL'
p655
sg27
Nsbasg119
(lp656
S'LDP reg9, reg0, mem'
p657
aS'LDP reg1, reg2, mem'
p658
aS'LDP reg9, reg0, mem,#0x60'
p659
ag651
asg135
Nsg5
S'0xffffffc0007c3650L'
p660
sg137
(lp661
S'0xffffffc0007c35e0L'
p662
aS'0xffffffc0007c35ecL'
p663
aS'0xffffffc0007c3604L'
p664
aS'0xffffffc0007c3624L'
p665
asg6
Nsg139
(lp666
sg143
Nsg144
Nsg145
S'e506acdec8f0d1b80ba12a70d6d398f7'
p667
sg147
S'47a4ce7dd1d7cf82ef19de57a0763938'
p668
sg149
(lp669
g633
ag640
ag647
ag654
asg151
Nsbasb.