(ibclass
BFunc
p0
(dp1
S'hash'
p2
NsS'name'
p3
S'hfi_process_session_load_res_done'
p4
sS'start_address'
p5
L18446743798839786788L
sS'flag'
p6
NsS'program'
p7
NsS'bbs'
p8
(lp9
(ibclass
BBasicBlock
p10
(dp11
S'function'
p12
NsS'binstrs'
p13
(lp14
(ibclass
BInstr
p15
(dp16
g2
NsS'disasm'
p17
S'STP             X29, X30, [SP,#-0x10+var_50]!'
p18
sS'bytes'
p19
S'fd7bbaa9'
p20
sS'disasm_striped'
p21
Vstp x29, x30, [sp, #-0x60]!
p22
sg5
L18446743798839786788L
sg6
NsS'mnem'
p23
S'STP'
p24
sS'address'
p25
S'0xffffffc0007c3d24L'
p26
sS'basicblock'
p27
Nsba(ibclass
BInstr
p28
(dp29
g2
Nsg17
S'MOV             X29, SP'
p30
sg19
S'fd030091'
p31
sg21
Vmov x29, sp
p32
sg5
L18446743798839786792L
sg6
Nsg23
S'MOV'
p33
sg25
S'0xffffffc0007c3d28L'
p34
sg27
Nsba(ibclass
BInstr
p35
(dp36
g2
Nsg17
S'ADRP            X4, #qword_FFFFFFC000E4A8A0@PAGE'
p37
sg19
S'243400f0'
p38
sg21
Vadrp x4, #0x687000
p39
sg5
L18446743798839786796L
sg6
Nsg23
S'ADRP'
p40
sg25
S'0xffffffc0007c3d2cL'
p41
sg27
Nsba(ibclass
BInstr
p42
(dp43
g2
Nsg17
S'STP             X19, X20, [SP,#0x50+var_40]'
p44
sg19
S'f35301a9'
p45
sg21
Vstp x19, x20, [sp, #0x10]
p46
sg5
L18446743798839786800L
sg6
Nsg23
S'STP'
p47
sg25
S'0xffffffc0007c3d30L'
p48
sg27
Nsba(ibclass
BInstr
p49
(dp50
g2
Nsg17
S'MOV             X19, X0'
p51
sg19
S'f30300aa'
p52
sg21
Vmov x19, x0
p53
sg5
L18446743798839786804L
sg6
Nsg23
S'MOV'
p54
sg25
S'0xffffffc0007c3d34L'
p55
sg27
Nsba(ibclass
BInstr
p56
(dp57
g2
Nsg17
S'LDR             X0, [X4,#qword_FFFFFFC000E4A8A0@PAGEOFF]'
p58
sg19
S'805044f9'
p59
sg21
Vldr x0, [x4, #0x8a0]
p60
sg5
L18446743798839786808L
sg6
Nsg23
S'LDR'
p61
sg25
S'0xffffffc0007c3d38L'
p62
sg27
Nsba(ibclass
BInstr
p63
(dp64
g2
Nsg17
S'STP             X21, X22, [SP,#0x50+var_30]'
p65
sg19
S'f55b02a9'
p66
sg21
Vstp x21, x22, [sp, #0x20]
p67
sg5
L18446743798839786812L
sg6
Nsg23
S'STP'
p68
sg25
S'0xffffffc0007c3d3cL'
p69
sg27
Nsba(ibclass
BInstr
p70
(dp71
g2
Nsg17
S'LDR             W0, [X0]'
p72
sg19
S'000040b9'
p73
sg21
Vldr w0, [x0]
p74
sg5
L18446743798839786816L
sg6
Nsg23
S'LDR'
p75
sg25
S'0xffffffc0007c3d40L'
p76
sg27
Nsba(ibclass
BInstr
p77
(dp78
g2
Nsg17
S'STP             XZR, XZR, [X29,#0x50+var_20]'
p79
sg19
S'bf7f03a9'
p80
sg21
Vstp xzr, xzr, [x29, #0x30]
p81
sg5
L18446743798839786820L
sg6
Nsg23
S'STP'
p82
sg25
S'0xffffffc0007c3d44L'
p83
sg27
Nsba(ibclass
BInstr
p84
(dp85
g2
Nsg17
S'STP             XZR, XZR, [X29,#0x50+var_10]'
p86
sg19
S'bf7f04a9'
p87
sg21
Vstp xzr, xzr, [x29, #0x40]
p88
sg5
L18446743798839786824L
sg6
Nsg23
S'STP'
p89
sg25
S'0xffffffc0007c3d48L'
p90
sg27
Nsba(ibclass
BInstr
p91
(dp92
g2
Nsg17
S'MOV             W21, W1'
p93
sg19
S'f503012a'
p94
sg21
Vmov w21, w1
p95
sg5
L18446743798839786828L
sg6
Nsg23
S'MOV'
p96
sg25
S'0xffffffc0007c3d4cL'
p97
sg27
Nsba(ibclass
BInstr
p98
(dp99
g2
Nsg17
S'MOV             X20, X2'
p100
sg19
S'f40302aa'
p101
sg21
Vmov x20, x2
p102
sg5
L18446743798839786832L
sg6
Nsg23
S'MOV'
p103
sg25
S'0xffffffc0007c3d50L'
p104
sg27
Nsba(ibclass
BInstr
p105
(dp106
g2
Nsg17
S'MOV             X22, X4'
p107
sg19
S'f60304aa'
p108
sg21
Vmov x22, x4
p109
sg5
L18446743798839786836L
sg6
Nsg23
S'MOV'
p110
sg25
S'0xffffffc0007c3d54L'
p111
sg27
Nsba(ibclass
BInstr
p112
(dp113
g2
Nsg17
S'TBZ             W0, #3, loc_FFFFFFC0007C3D88'
p114
sg19
S'80011836'
p115
sg21
Vtbz w0, #3, #0x30
p116
sg5
L18446743798839786840L
sg6
Nsg23
S'TBZ'
p117
sg25
S'0xffffffc0007c3d58L'
p118
sg27
NsbasS'disasm_list'
p119
(lp120
S'STP reg9, reg0, mem!'
p121
aS'MOV reg9, SP'
p122
aS'ADRP reg, #func@PAGE'
p123
aS'STP reg9, reg0, mem'
p124
aS'MOV reg9, reg'
p125
aS'LDR reg, mem'
p126
aS'STP reg1, reg2, mem'
p127
aS'LDR reg, mem'
p128
aS'STP XZR, XZR, mem'
p129
aS'STP XZR, XZR, mem'
p130
aS'MOV reg1, reg'
p131
aS'MOV reg0, reg'
p132
aS'MOV reg2, reg'
p133
aS'TBZ reg, #3, func'
p134
asS'end_address'
p135
Nsg5
S'0xffffffc0007c3d24L'
p136
sS'preds'
p137
(lp138
sg6
NsS'succs'
p139
(lp140
S'0xffffffc0007c3d5cL'
p141
aS'0xffffffc0007c3d88L'
p142
asS'hash_v3'
p143
NsS'flag_v2'
p144
NsS'hash_v1'
p145
S'6e53134e1d040ca5bee2f23d8428bd68'
p146
sS'hash_v2'
p147
S'1d24a70e5bf57670732100afb93222f2'
p148
sS'mnen_list'
p149
(lp150
g24
ag33
ag40
ag47
ag54
ag61
ag68
ag75
ag82
ag89
ag96
ag103
ag110
ag117
asS'neighbour_disasm_list'
p151
Nsba(ibclass
BBasicBlock
p152
(dp153
g12
Nsg13
(lp154
(ibclass
BInstr
p155
(dp156
g2
Nsg17
S'ADRP            X0, #qword_FFFFFFC000E48D48@PAGE'
p157
sg19
S'203400b0'
p158
sg21
Vadrp x0, #0x685000
p159
sg5
L18446743798839786844L
sg6
Nsg23
S'ADRP'
p160
sg25
S'0xffffffc0007c3d5cL'
p161
sg27
Nsba(ibclass
BInstr
p162
(dp163
g2
Nsg17
S'LDR             X0, [X0,#qword_FFFFFFC000E48D48@PAGEOFF]'
p164
sg19
S'00a446f9'
p165
sg21
Vldr x0, [x0, #0xd48]
p166
sg5
L18446743798839786848L
sg6
Nsg23
S'LDR'
p167
sg25
S'0xffffffc0007c3d60L'
p168
sg27
Nsba(ibclass
BInstr
p169
(dp170
g2
Nsg17
S'LDR             W0, [X0]'
p171
sg19
S'000040b9'
p172
sg21
Vldr w0, [x0]
p173
sg5
L18446743798839786852L
sg6
Nsg23
S'LDR'
p174
sg25
S'0xffffffc0007c3d64L'
p175
sg27
Nsba(ibclass
BInstr
p176
(dp177
g2
Nsg17
S'CBNZ            W0, loc_FFFFFFC0007C3D88'
p178
sg19
S'00010035'
p179
sg21
Vcbnz w0, #0x20
p180
sg5
L18446743798839786856L
sg6
Nsg23
S'CBNZ'
p181
sg25
S'0xffffffc0007c3d68L'
p182
sg27
Nsbasg119
(lp183
S'ADRP reg, #func@PAGE'
p184
aS'LDR reg, mem'
p185
aS'LDR reg, mem'
p186
aS'CBNZ reg, func'
p187
asg135
Nsg5
S'0xffffffc0007c3d5cL'
p188
sg137
(lp189
S'0xffffffc0007c3d24L'
p190
asg6
Nsg139
(lp191
S'0xffffffc0007c3d6cL'
p192
aS'0xffffffc0007c3d88L'
p193
asg143
Nsg144
Nsg145
S'9c97521b8b0f280d47a50ec9a5e4f86f'
p194
sg147
S'bd26f8893557dc5fa132ff2490be0ebf'
p195
sg149
(lp196
g160
ag167
ag174
ag181
asg151
Nsba(ibclass
BBasicBlock
p197
(dp198
g12
Nsg13
(lp199
(ibclass
BInstr
p200
(dp201
g2
Nsg17
S'ADRP            X0, #unk_FFFFFFC0013C21DE@PAGE'
p202
sg19
S'e05f00f0'
p203
sg21
Vadrp x0, #0xbff000
p204
sg5
L18446743798839786860L
sg6
Nsg23
S'ADRP'
p205
sg25
S'0xffffffc0007c3d6cL'
p206
sg27
Nsba(ibclass
BInstr
p207
(dp208
g2
Nsg17
S'ADRP            X1, #(aRulesDbg+6)@PAGE; "dbg"'
p209
sg19
S'c16600d0'
p210
sg21
Vadrp x1, #0xcda000
p211
sg5
L18446743798839786864L
sg6
Nsg23
S'ADRP'
p212
sg25
S'0xffffffc0007c3d70L'
p213
sg27
Nsba(ibclass
BInstr
p214
(dp215
g2
Nsg17
S'ADD             X0, X0, #unk_FFFFFFC0013C21DE@PAGEOFF'
p216
sg19
S'00780791'
p217
sg21
Vadd x0, x0, #0x1de
p218
sg5
L18446743798839786868L
sg6
Nsg23
S'ADD'
p219
sg25
S'0xffffffc0007c3d74L'
p220
sg27
Nsba(ibclass
BInstr
p221
(dp222
g2
Nsg17
S'ADD             X1, X1, #(aRulesDbg+6)@PAGEOFF; "dbg"'
p223
sg19
S'21e01d91'
p224
sg21
Vadd x1, x1, #0x778
p225
sg5
L18446743798839786872L
sg6
Nsg23
S'ADD'
p226
sg25
S'0xffffffc0007c3d78L'
p227
sg27
Nsba(ibclass
BInstr
p228
(dp229
g2
Nsg17
S'STR             X3, [X29,#0x50+var_s0]'
p230
sg19
S'a32b00f9'
p231
sg21
Vstr x3, [x29, #0x50]
p232
sg5
L18446743798839786876L
sg6
Nsg23
S'STR'
p233
sg25
S'0xffffffc0007c3d7cL'
p234
sg27
Nsba(ibclass
BInstr
p235
(dp236
g2
Nsg17
S'BL              printk'
p237
sg19
S'f8be1994'
p238
sg21
Vbl #0x66fbe0
p239
sg5
L18446743798839786880L
sg6
Nsg23
S'BL'
p240
sg25
S'0xffffffc0007c3d80L'
p241
sg27
Nsba(ibclass
BInstr
p242
(dp243
g2
Nsg17
S'LDR             X3, [X29,#0x50+var_s0]'
p244
sg19
S'a32b40f9'
p245
sg21
Vldr x3, [x29, #0x50]
p246
sg5
L18446743798839786884L
sg6
Nsg23
S'LDR'
p247
sg25
S'0xffffffc0007c3d84L'
p248
sg27
Nsbasg119
(lp249
S'ADRP reg, #func@PAGE'
p250
aS'ADRP reg, #(aRulesDbg+6)@PAGE'
p251
aS'ADD reg, reg, #func@PAGEOFF'
p252
aS'ADD reg, reg, #(aRulesDbg+6)@PAGEOFF'
p253
aS'STR reg, mem'
p254
aS'BL printk'
p255
aS'LDR reg, mem'
p256
asg135
Nsg5
S'0xffffffc0007c3d6cL'
p257
sg137
(lp258
S'0xffffffc0007c3d5cL'
p259
asg6
Nsg139
(lp260
S'0xffffffc0007c3d88L'
p261
asg143
Nsg144
Nsg145
S'4fef620e9f7eba3f608ec57728523200'
p262
sg147
S'89b1d0d9a1ad023f7414ba56d500ab13'
p263
sg149
(lp264
g205
ag212
ag219
ag226
ag233
ag240
ag247
asg151
Nsba(ibclass
BBasicBlock
p265
(dp266
g12
Nsg13
(lp267
(ibclass
BInstr
p268
(dp269
g2
Nsg17
S'LDR             W2, [X3]'
p270
sg19
S'620040b9'
p271
sg21
Vldr w2, [x3]
p272
sg5
L18446743798839786888L
sg6
Nsg23
S'LDR'
p273
sg25
S'0xffffffc0007c3d88L'
p274
sg27
Nsba(ibclass
BInstr
p275
(dp276
g2
Nsg17
S'CMP             W2, #0x10'
p277
sg19
S'5f400071'
p278
sg21
Vcmp w2, #0x10
p279
sg5
L18446743798839786892L
sg6
Nsg23
S'CMP'
p280
sg25
S'0xffffffc0007c3d8cL'
p281
sg27
Nsba(ibclass
BInstr
p282
(dp283
g2
Nsg17
S'B.EQ            loc_FFFFFFC0007C3DC8'
p284
sg19
S'c0010054'
p285
sg21
Vb.eq #0x38
p286
sg5
L18446743798839786896L
sg6
Nsg23
S'B'
p287
sg25
S'0xffffffc0007c3d90L'
p288
sg27
Nsbasg119
(lp289
S'LDR reg, mem'
p290
aS'CMP reg, #0x10'
p291
aS'B.EQ func'
p292
asg135
Nsg5
S'0xffffffc0007c3d88L'
p293
sg137
(lp294
S'0xffffffc0007c3d24L'
p295
aS'0xffffffc0007c3d5cL'
p296
aS'0xffffffc0007c3d6cL'
p297
asg6
Nsg139
(lp298
S'0xffffffc0007c3d94L'
p299
aS'0xffffffc0007c3dc8L'
p300
asg143
Nsg144
Nsg145
S'fa4df767a85c49648339e2dc5c6807f6'
p301
sg147
S'709ad4fabade5546c8c153c1fed471e2'
p302
sg149
(lp303
g273
ag280
ag287
asg151
Nsba(ibclass
BBasicBlock
p304
(dp305
g12
Nsg13
(lp306
(ibclass
BInstr
p307
(dp308
g2
Nsg17
S'LDR             X22, [X22,#(qword_FFFFFFC000E4A8A0 - 0xFFFFFFC000E4A000)]'
p309
sg19
S'd65244f9'
p310
sg21
Vldr x22, [x22, #0x8a0]
p311
sg5
L18446743798839786900L
sg6
Nsg23
S'LDR'
p312
sg25
S'0xffffffc0007c3d94L'
p313
sg27
Nsba(ibclass
BInstr
p314
(dp315
g2
Nsg17
S'LDR             W0, [X22]'
p316
sg19
S'c00240b9'
p317
sg21
Vldr w0, [x22]
p318
sg5
L18446743798839786904L
sg6
Nsg23
S'LDR'
p319
sg25
S'0xffffffc0007c3d98L'
p320
sg27
Nsba(ibclass
BInstr
p321
(dp322
g2
Nsg17
S'TBZ             W0, #0, loc_FFFFFFC0007C3DF4'
p323
sg19
S'c0020036'
p324
sg21
Vtbz w0, #0, #0x58
p325
sg5
L18446743798839786908L
sg6
Nsg23
S'TBZ'
p326
sg25
S'0xffffffc0007c3d9cL'
p327
sg27
Nsbasg119
(lp328
S'LDR reg2, mem'
p329
aS'LDR reg, mem'
p330
aS'TBZ reg, #0, func'
p331
asg135
Nsg5
S'0xffffffc0007c3d94L'
p332
sg137
(lp333
S'0xffffffc0007c3d88L'
p334
asg6
Nsg139
(lp335
S'0xffffffc0007c3da0L'
p336
aS'0xffffffc0007c3df4L'
p337
asg143
Nsg144
Nsg145
S'ac18b97d3a767be1a0530f85211830b6'
p338
sg147
S'661777bb57fd04b48c40457f1d7e4dee'
p339
sg149
(lp340
g312
ag319
ag326
asg151
Nsba(ibclass
BBasicBlock
p341
(dp342
g12
Nsg13
(lp343
(ibclass
BInstr
p344
(dp345
g2
Nsg17
S'ADRP            X0, #qword_FFFFFFC000E48D48@PAGE'
p346
sg19
S'203400b0'
p347
sg21
Vadrp x0, #0x685000
p348
sg5
L18446743798839786912L
sg6
Nsg23
S'ADRP'
p349
sg25
S'0xffffffc0007c3da0L'
p350
sg27
Nsba(ibclass
BInstr
p351
(dp352
g2
Nsg17
S'LDR             X0, [X0,#qword_FFFFFFC000E48D48@PAGEOFF]'
p353
sg19
S'00a446f9'
p354
sg21
Vldr x0, [x0, #0xd48]
p355
sg5
L18446743798839786916L
sg6
Nsg23
S'LDR'
p356
sg25
S'0xffffffc0007c3da4L'
p357
sg27
Nsba(ibclass
BInstr
p358
(dp359
g2
Nsg17
S'LDR             W0, [X0]'
p360
sg19
S'000040b9'
p361
sg21
Vldr w0, [x0]
p362
sg5
L18446743798839786920L
sg6
Nsg23
S'LDR'
p363
sg25
S'0xffffffc0007c3da8L'
p364
sg27
Nsba(ibclass
BInstr
p365
(dp366
g2
Nsg17
S'CBNZ            W0, loc_FFFFFFC0007C3DF4'
p367
sg19
S'40020035'
p368
sg21
Vcbnz w0, #0x48
p369
sg5
L18446743798839786924L
sg6
Nsg23
S'CBNZ'
p370
sg25
S'0xffffffc0007c3dacL'
p371
sg27
Nsbasg119
(lp372
S'ADRP reg, #func@PAGE'
p373
aS'LDR reg, mem'
p374
aS'LDR reg, mem'
p375
aS'CBNZ reg, func'
p376
asg135
Nsg5
S'0xffffffc0007c3da0L'
p377
sg137
(lp378
S'0xffffffc0007c3d94L'
p379
asg6
Nsg139
(lp380
S'0xffffffc0007c3db0L'
p381
aS'0xffffffc0007c3df4L'
p382
asg143
Nsg144
Nsg145
S'9c97521b8b0f280d47a50ec9a5e4f86f'
p383
sg147
S'bd26f8893557dc5fa132ff2490be0ebf'
p384
sg149
(lp385
g349
ag356
ag363
ag370
asg151
Nsba(ibclass
BBasicBlock
p386
(dp387
g12
Nsg13
(lp388
(ibclass
BInstr
p389
(dp390
g2
Nsg17
S'ADRP            X0, #unk_FFFFFFC0013C221B@PAGE'
p391
sg19
S'e05f00f0'
p392
sg21
Vadrp x0, #0xbff000
p393
sg5
L18446743798839786928L
sg6
Nsg23
S'ADRP'
p394
sg25
S'0xffffffc0007c3db0L'
p395
sg27
Nsba(ibclass
BInstr
p396
(dp397
g2
Nsg17
S'ADRP            X1, #(aQcomMdssDsi_17+0x1B)@PAGE; "err"'
p398
sg19
S'615b0090'
p399
sg21
Vadrp x1, #0xb6c000
p400
sg5
L18446743798839786932L
sg6
Nsg23
S'ADRP'
p401
sg25
S'0xffffffc0007c3db4L'
p402
sg27
Nsba(ibclass
BInstr
p403
(dp404
g2
Nsg17
S'ADD             X1, X1, #(aQcomMdssDsi_17+0x1B)@PAGEOFF; "err"'
p405
sg19
S'21801291'
p406
sg21
Vadd x1, x1, #0x4a0
p407
sg5
L18446743798839786936L
sg6
Nsg23
S'ADD'
p408
sg25
S'0xffffffc0007c3db8L'
p409
sg27
Nsba(ibclass
BInstr
p410
(dp411
g2
Nsg17
S'ADD             X0, X0, #unk_FFFFFFC0013C221B@PAGEOFF'
p412
sg19
S'006c0891'
p413
sg21
Vadd x0, x0, #0x21b
p414
sg5
L18446743798839786940L
sg6
Nsg23
S'ADD'
p415
sg25
S'0xffffffc0007c3dbcL'
p416
sg27
Nsba(ibclass
BInstr
p417
(dp418
g2
Nsg17
S'BL              printk'
p419
sg19
S'e8be1994'
p420
sg21
Vbl #0x66fba0
p421
sg5
L18446743798839786944L
sg6
Nsg23
S'BL'
p422
sg25
S'0xffffffc0007c3dc0L'
p423
sg27
Nsba(ibclass
BInstr
p424
(dp425
g2
Nsg17
S'B               loc_FFFFFFC0007C3DF4'
p426
sg19
S'0c000014'
p427
sg21
Vb #0x30
p428
sg5
L18446743798839786948L
sg6
Nsg23
g287
sg25
S'0xffffffc0007c3dc4L'
p429
sg27
Nsbasg119
(lp430
S'ADRP reg, #func@PAGE'
p431
aS'ADRP reg, #(aQcomMdssDsi_17+0x1B)@PAGE'
p432
aS'ADD reg, reg, #(aQcomMdssDsi_17+0x1B)@PAGEOFF'
p433
aS'ADD reg, reg, #func@PAGEOFF'
p434
aS'BL printk'
p435
aS'B func'
p436
asg135
Nsg5
S'0xffffffc0007c3db0L'
p437
sg137
(lp438
S'0xffffffc0007c3da0L'
p439
asg6
Nsg139
(lp440
S'0xffffffc0007c3df4L'
p441
asg143
Nsg144
Nsg145
S'b2a3927201f2643e37e238d870ced3c2'
p442
sg147
S'3e167cdac8f124cfbacea29ee5c30eb0'
p443
sg149
(lp444
g394
ag401
ag408
ag415
ag422
ag287
asg151
Nsba(ibclass
BBasicBlock
p445
(dp446
g12
Nsg13
(lp447
(ibclass
BInstr
p448
(dp449
g2
Nsg17
S'LDR             X0, [X20,#0x10]'
p450
sg19
S'800a40f9'
p451
sg21
Vldr x0, [x20, #0x10]
p452
sg5
L18446743798839786952L
sg6
Nsg23
S'LDR'
p453
sg25
S'0xffffffc0007c3dc8L'
p454
sg27
Nsba(ibclass
BInstr
p455
(dp456
g2
Nsg17
S'STR             W21, [X29,#arg_20]'
p457
sg19
S'b53300b9'
p458
sg21
Vstr w21, [x29, #0x30]
p459
sg5
L18446743798839786956L
sg6
Nsg23
S'STR'
p460
sg25
S'0xffffffc0007c3dccL'
p461
sg27
Nsba(ibclass
BInstr
p462
(dp463
g2
Nsg17
S'STR             X0, [X29,#arg_28]'
p464
sg19
S'a01f00f9'
p465
sg21
Vstr x0, [x29, #0x38]
p466
sg5
L18446743798839786960L
sg6
Nsg23
S'STR'
p467
sg25
S'0xffffffc0007c3dd0L'
p468
sg27
Nsba(ibclass
BInstr
p469
(dp470
g2
Nsg17
S'LDR             W0, [X3,#0xC]'
p471
sg19
S'600c40b9'
p472
sg21
Vldr w0, [x3, #0xc]
p473
sg5
L18446743798839786964L
sg6
Nsg23
S'LDR'
p474
sg25
S'0xffffffc0007c3dd4L'
p475
sg27
Nsba(ibclass
BInstr
p476
(dp477
g2
Nsg17
S'BL              hfi_map_err_status'
p478
sg19
S'88fdff97'
p479
sg21
Vbl #0xfffffffffffff620
p480
sg5
L18446743798839786968L
sg6
Nsg23
S'BL'
p481
sg25
S'0xffffffc0007c3dd8L'
p482
sg27
Nsba(ibclass
BInstr
p483
(dp484
g2
Nsg17
S'STR             W0, [X29,#arg_30]'
p485
sg19
S'a04300b9'
p486
sg21
Vstr w0, [x29, #0x40]
p487
sg5
L18446743798839786972L
sg6
Nsg23
S'STR'
p488
sg25
S'0xffffffc0007c3ddcL'
p489
sg27
Nsba(ibclass
BInstr
p490
(dp491
g2
Nsg17
S'ADD             X1, X29, #0x30'
p492
sg19
S'a1c30091'
p493
sg21
Vadd x1, x29, #0x30
p494
sg5
L18446743798839786976L
sg6
Nsg23
S'ADD'
p495
sg25
S'0xffffffc0007c3de0L'
p496
sg27
Nsba(ibclass
BInstr
p497
(dp498
g2
Nsg17
S'MOV             W0, #0xA'
p499
sg19
S'40018052'
p500
sg21
Vmovz w0, #0xa
p501
sg5
L18446743798839786980L
sg6
Nsg23
S'MOV'
p502
sg25
S'0xffffffc0007c3de4L'
p503
sg27
Nsba(ibclass
BInstr
p504
(dp505
g2
Nsg17
S'STR             XZR, [X29,#arg_38]'
p506
sg19
S'bf2700f9'
p507
sg21
Vstr xzr, [x29, #0x48]
p508
sg5
L18446743798839786984L
sg6
Nsg23
S'STR'
p509
sg25
S'0xffffffc0007c3de8L'
p510
sg27
Nsba(ibclass
BInstr
p511
(dp512
g2
Nsg17
S'STR             WZR, [X29,#arg_34]'
p513
sg19
S'bf4700b9'
p514
sg21
Vstr wzr, [x29, #0x44]
p515
sg5
L18446743798839786988L
sg6
Nsg23
S'STR'
p516
sg25
S'0xffffffc0007c3decL'
p517
sg27
Nsba(ibclass
BInstr
p518
(dp519
g2
Nsg17
S'BLR             X19'
p520
sg19
S'60023fd6'
p521
sg21
Vblr x19
p522
sg5
L18446743798839786992L
sg6
Nsg23
S'BLR'
p523
sg25
S'0xffffffc0007c3df0L'
p524
sg27
Nsbasg119
(lp525
S'LDR reg, mem'
p526
aS'STR reg1, mem'
p527
aS'STR reg, mem'
p528
aS'LDR reg, mem'
p529
aS'BL hfi_map_err_status'
p530
aS'STR reg, mem'
p531
aS'ADD reg, reg9, #0x30'
p532
aS'MOV reg, #0xA'
p533
aS'STR XZR, mem'
p534
aS'STR WZR, mem'
p535
aS'BLR reg9'
p536
asg135
Nsg5
S'0xffffffc0007c3dc8L'
p537
sg137
(lp538
S'0xffffffc0007c3d88L'
p539
asg6
Nsg139
(lp540
S'0xffffffc0007c3df4L'
p541
asg143
Nsg144
Nsg145
S'65224f592c85712ef347a4f2a43caa0a'
p542
sg147
S'67d432fd7cac3fca60023676a73491e3'
p543
sg149
(lp544
g453
ag460
ag467
ag474
ag481
ag488
ag495
ag502
ag509
ag516
ag523
asg151
Nsba(ibclass
BBasicBlock
p545
(dp546
g12
Nsg13
(lp547
(ibclass
BInstr
p548
(dp549
g2
Nsg17
S'LDP             X19, X20, [SP,#0x50+var_40]'
p550
sg19
S'f35341a9'
p551
sg21
Vldp x19, x20, [sp, #0x10]
p552
sg5
L18446743798839786996L
sg6
Nsg23
S'LDP'
p553
sg25
S'0xffffffc0007c3df4L'
p554
sg27
Nsba(ibclass
BInstr
p555
(dp556
g2
Nsg17
S'LDP             X21, X22, [SP,#0x50+var_30]'
p557
sg19
S'f55b42a9'
p558
sg21
Vldp x21, x22, [sp, #0x20]
p559
sg5
L18446743798839787000L
sg6
Nsg23
S'LDP'
p560
sg25
S'0xffffffc0007c3df8L'
p561
sg27
Nsba(ibclass
BInstr
p562
(dp563
g2
Nsg17
S'LDP             X29, X30, [SP+0x50+var_50],#0x60'
p564
sg19
S'fd7bc6a8'
p565
sg21
Vldp x29, x30, [sp], #0x60
p566
sg5
L18446743798839787004L
sg6
Nsg23
S'LDP'
p567
sg25
S'0xffffffc0007c3dfcL'
p568
sg27
Nsba(ibclass
BInstr
p569
(dp570
g2
Nsg17
S'RET'
p571
sg19
S'c0035fd6'
p572
sg21
Vret 
p573
sg5
L18446743798839787008L
sg6
Nsg23
S'RET'
p574
sg25
S'0xffffffc0007c3e00L'
p575
sg27
Nsbasg119
(lp576
S'LDP reg9, reg0, mem'
p577
aS'LDP reg1, reg2, mem'
p578
aS'LDP reg9, reg0, mem,#0x60'
p579
ag571
asg135
Nsg5
S'0xffffffc0007c3df4L'
p580
sg137
(lp581
S'0xffffffc0007c3d94L'
p582
aS'0xffffffc0007c3da0L'
p583
aS'0xffffffc0007c3db0L'
p584
aS'0xffffffc0007c3dc8L'
p585
asg6
Nsg139
(lp586
sg143
Nsg144
Nsg145
S'e506acdec8f0d1b80ba12a70d6d398f7'
p587
sg147
S'47a4ce7dd1d7cf82ef19de57a0763938'
p588
sg149
(lp589
g553
ag560
ag567
ag574
asg151
Nsbasb.