(ibclass
BFunc
p0
(dp1
S'hash'
p2
NsS'name'
p3
S'ioresources_init'
p4
sS'start_address'
p5
L18446743798854740732L
sS'flag'
p6
NsS'program'
p7
NsS'bbs'
p8
(lp9
(ibclass
BBasicBlock
p10
(dp11
S'function'
p12
NsS'binstrs'
p13
(lp14
(ibclass
BInstr
p15
(dp16
g2
NsS'disasm'
p17
S"STP             X29, X30, [SP,#-0x10+var_10]!; Alternative name is '$x'"
p18
sS'bytes'
p19
S'fd7bbea9'
p20
sS'disasm_striped'
p21
Vstp x29, x30, [sp, #-0x20]!
p22
sg5
L18446743798854740732L
sg6
NsS'mnem'
p23
S'STP'
p24
sS'address'
p25
S'0xffffffc001606afcL'
p26
sS'basicblock'
p27
Nsba(ibclass
BInstr
p28
(dp29
g2
Nsg17
S'MOV             X29, SP'
p30
sg19
S'fd030091'
p31
sg21
Vmov x29, sp
p32
sg5
L18446743798854740736L
sg6
Nsg23
S'MOV'
p33
sg25
S'0xffffffc001606b00L'
p34
sg27
Nsba(ibclass
BInstr
p35
(dp36
g2
Nsg17
S'STR             X19, [SP,#0x10+var_s0]'
p37
sg19
S'f30b00f9'
p38
sg21
Vstr x19, [sp, #0x10]
p39
sg5
L18446743798854740740L
sg6
Nsg23
S'STR'
p40
sg25
S'0xffffffc001606b04L'
p41
sg27
Nsba(ibclass
BInstr
p42
(dp43
g2
Nsg17
S'ADRP            X19, #proc_ioports_operations@PAGE'
p44
sg19
S'b32300d0'
p45
sg21
Vadrp x19, #0x476000
p46
sg5
L18446743798854740744L
sg6
Nsg23
S'ADRP'
p47
sg25
S'0xffffffc001606b08L'
p48
sg27
Nsba(ibclass
BInstr
p49
(dp50
g2
Nsg17
S'ADD             X19, X19, #proc_ioports_operations@PAGEOFF'
p51
sg19
S'73823091'
p52
sg21
Vadd x19, x19, #0xc20
p53
sg5
L18446743798854740748L
sg6
Nsg23
S'ADD'
p54
sg25
S'0xffffffc001606b0cL'
p55
sg27
Nsba(ibclass
BInstr
p56
(dp57
g2
Nsg17
S'MOV             X2, #0'
p58
sg19
S'020080d2'
p59
sg21
Vmovz x2, #0
p60
sg5
L18446743798854740752L
sg6
Nsg23
S'MOV'
p61
sg25
S'0xffffffc001606b10L'
p62
sg27
Nsba(ibclass
BInstr
p63
(dp64
g2
Nsg17
S'ADRP            X0, #aIoports@PAGE; "ioports"'
p65
sg19
S'20e7ffb0'
p66
sg21
Vadrp x0, #0xffffffffffce5000
p67
sg5
L18446743798854740756L
sg6
Nsg23
S'ADRP'
p68
sg25
S'0xffffffc001606b14L'
p69
sg27
Nsba(ibclass
BInstr
p70
(dp71
g2
Nsg17
S'MOV             X3, X19'
p72
sg19
S'e30313aa'
p73
sg21
Vmov x3, x19
p74
sg5
L18446743798854740760L
sg6
Nsg23
S'MOV'
p75
sg25
S'0xffffffc001606b18L'
p76
sg27
Nsba(ibclass
BInstr
p77
(dp78
g2
Nsg17
S'MOV             X4, X2'
p79
sg19
S'e40302aa'
p80
sg21
Vmov x4, x2
p81
sg5
L18446743798854740764L
sg6
Nsg23
S'MOV'
p82
sg25
S'0xffffffc001606b1cL'
p83
sg27
Nsba(ibclass
BInstr
p84
(dp85
g2
Nsg17
S'MOV             W1, #0'
p86
sg19
S'01008052'
p87
sg21
Vmovz w1, #0
p88
sg5
L18446743798854740768L
sg6
Nsg23
S'MOV'
p89
sg25
S'0xffffffc001606b20L'
p90
sg27
Nsba(ibclass
BInstr
p91
(dp92
g2
Nsg17
S'ADD             X0, X0, #aIoports@PAGEOFF; "ioports"'
p93
sg19
S'00a83291'
p94
sg21
Vadd x0, x0, #0xcaa
p95
sg5
L18446743798854740772L
sg6
Nsg23
S'ADD'
p96
sg25
S'0xffffffc001606b24L'
p97
sg27
Nsba(ibclass
BInstr
p98
(dp99
g2
Nsg17
S'BL              proc_create_data'
p100
sg19
S'5c18b597'
p101
sg21
Vbl #0xfffffffffed46170
p102
sg5
L18446743798854740776L
sg6
Nsg23
S'BL'
p103
sg25
S'0xffffffc001606b28L'
p104
sg27
Nsba(ibclass
BInstr
p105
(dp106
g2
Nsg17
S'MOV             X2, #0'
p107
sg19
S'020080d2'
p108
sg21
Vmovz x2, #0
p109
sg5
L18446743798854740780L
sg6
Nsg23
S'MOV'
p110
sg25
S'0xffffffc001606b2cL'
p111
sg27
Nsba(ibclass
BInstr
p112
(dp113
g2
Nsg17
S'ADRP            X0, #aIomem@PAGE; "iomem"'
p114
sg19
S'20e7ffb0'
p115
sg21
Vadrp x0, #0xffffffffffce5000
p116
sg5
L18446743798854740784L
sg6
Nsg23
S'ADRP'
p117
sg25
S'0xffffffc001606b30L'
p118
sg27
Nsba(ibclass
BInstr
p119
(dp120
g2
Nsg17
S'ADD             X3, X19, #0xE0'
p121
sg19
S'63820391'
p122
sg21
Vadd x3, x19, #0xe0
p123
sg5
L18446743798854740788L
sg6
Nsg23
S'ADD'
p124
sg25
S'0xffffffc001606b34L'
p125
sg27
Nsba(ibclass
BInstr
p126
(dp127
g2
Nsg17
S'MOV             W1, #0x100'
p128
sg19
S'01208052'
p129
sg21
Vmovz w1, #0x100
p130
sg5
L18446743798854740792L
sg6
Nsg23
S'MOV'
p131
sg25
S'0xffffffc001606b38L'
p132
sg27
Nsba(ibclass
BInstr
p133
(dp134
g2
Nsg17
S'MOV             X4, X2'
p135
sg19
S'e40302aa'
p136
sg21
Vmov x4, x2
p137
sg5
L18446743798854740796L
sg6
Nsg23
S'MOV'
p138
sg25
S'0xffffffc001606b3cL'
p139
sg27
Nsba(ibclass
BInstr
p140
(dp141
g2
Nsg17
S'ADD             X0, X0, #aIomem@PAGEOFF; "iomem"'
p142
sg19
S'00c83291'
p143
sg21
Vadd x0, x0, #0xcb2
p144
sg5
L18446743798854740800L
sg6
Nsg23
S'ADD'
p145
sg25
S'0xffffffc001606b40L'
p146
sg27
Nsba(ibclass
BInstr
p147
(dp148
g2
Nsg17
S'BL              proc_create_data'
p149
sg19
S'5518b597'
p150
sg21
Vbl #0xfffffffffed46154
p151
sg5
L18446743798854740804L
sg6
Nsg23
S'BL'
p152
sg25
S'0xffffffc001606b44L'
p153
sg27
Nsba(ibclass
BInstr
p154
(dp155
g2
Nsg17
S'MOV             W0, #0'
p156
sg19
S'00008052'
p157
sg21
Vmovz w0, #0
p158
sg5
L18446743798854740808L
sg6
Nsg23
S'MOV'
p159
sg25
S'0xffffffc001606b48L'
p160
sg27
Nsba(ibclass
BInstr
p161
(dp162
g2
Nsg17
S'LDR             X19, [SP,#0x10+var_s0]'
p163
sg19
S'f30b40f9'
p164
sg21
Vldr x19, [sp, #0x10]
p165
sg5
L18446743798854740812L
sg6
Nsg23
S'LDR'
p166
sg25
S'0xffffffc001606b4cL'
p167
sg27
Nsba(ibclass
BInstr
p168
(dp169
g2
Nsg17
S'LDP             X29, X30, [SP+0x10+var_10],#0x20'
p170
sg19
S'fd7bc2a8'
p171
sg21
Vldp x29, x30, [sp], #0x20
p172
sg5
L18446743798854740816L
sg6
Nsg23
S'LDP'
p173
sg25
S'0xffffffc001606b50L'
p174
sg27
Nsba(ibclass
BInstr
p175
(dp176
g2
Nsg17
S'RET'
p177
sg19
S'c0035fd6'
p178
sg21
Vret 
p179
sg5
L18446743798854740820L
sg6
Nsg23
S'RET'
p180
sg25
S'0xffffffc001606b54L'
p181
sg27
NsbasS'disasm_list'
p182
(lp183
S'STP reg9, reg0, mem!'
p184
aS'MOV reg9, SP'
p185
aS'STR reg9, mem'
p186
aS'ADRP reg9, #proc_ioports_operations@PAGE'
p187
aS'ADD reg9, reg9, #proc_ioports_operations@PAGEOFF'
p188
aS'MOV reg, #0'
p189
aS'ADRP reg, #aIoports@PAGE'
p190
aS'MOV reg, reg9'
p191
aS'MOV reg, reg'
p192
aS'MOV reg, #0'
p193
aS'ADD reg, reg, #aIoports@PAGEOFF'
p194
aS'BL proc_create_data'
p195
aS'MOV reg, #0'
p196
aS'ADRP reg, #aIomem@PAGE'
p197
aS'ADD reg, reg9, #0xE0'
p198
aS'MOV reg, #0x100'
p199
aS'MOV reg, reg'
p200
aS'ADD reg, reg, #aIomem@PAGEOFF'
p201
aS'BL proc_create_data'
p202
aS'MOV reg, #0'
p203
aS'LDR reg9, mem'
p204
aS'LDP reg9, reg0, mem,#0x20'
p205
ag177
asS'end_address'
p206
Nsg5
S'0xffffffc001606afcL'
p207
sS'preds'
p208
(lp209
sg6
NsS'succs'
p210
(lp211
sS'hash_v3'
p212
NsS'flag_v2'
p213
NsS'hash_v1'
p214
S'c484666dcf69df8f2b15f17106a9e7e4'
p215
sS'hash_v2'
p216
S'954d9548347a0b03807417e1e24c7c9a'
p217
sS'mnen_list'
p218
(lp219
g24
ag33
ag40
ag47
ag54
ag61
ag68
ag75
ag82
ag89
ag96
ag103
ag110
ag117
ag124
ag131
ag138
ag145
ag152
ag159
ag166
ag173
ag180
asS'neighbour_disasm_list'
p220
Nsbasb.