(ibclass
BFunc
p0
(dp1
S'hash'
p2
NsS'name'
p3
S'mdss_debug_perf_mode_read'
p4
sS'start_address'
p5
L18446743798836615340L
sS'flag'
p6
NsS'program'
p7
NsS'bbs'
p8
(lp9
(ibclass
BBasicBlock
p10
(dp11
S'function'
p12
NsS'binstrs'
p13
(lp14
(ibclass
BInstr
p15
(dp16
g2
NsS'disasm'
p17
S'STP             X29, X30, [SP,#-0x10+var_50]!'
p18
sS'bytes'
p19
S'fd7bbaa9'
p20
sS'disasm_striped'
p21
Vstp x29, x30, [sp, #-0x60]!
p22
sg5
L18446743798836615340L
sg6
NsS'mnem'
p23
S'STP'
p24
sS'address'
p25
S'0xffffffc0004bd8acL'
p26
sS'basicblock'
p27
Nsba(ibclass
BInstr
p28
(dp29
g2
Nsg17
S'MOV             X29, SP'
p30
sg19
S'fd030091'
p31
sg21
Vmov x29, sp
p32
sg5
L18446743798836615344L
sg6
Nsg23
S'MOV'
p33
sg25
S'0xffffffc0004bd8b0L'
p34
sg27
Nsba(ibclass
BInstr
p35
(dp36
g2
Nsg17
S'STP             X19, X20, [SP,#0x50+var_40]'
p37
sg19
S'f35301a9'
p38
sg21
Vstp x19, x20, [sp, #0x10]
p39
sg5
L18446743798836615348L
sg6
Nsg23
S'STP'
p40
sg25
S'0xffffffc0004bd8b4L'
p41
sg27
Nsba(ibclass
BInstr
p42
(dp43
g2
Nsg17
S'STR             X21, [SP,#0x50+var_30]'
p44
sg19
S'f51300f9'
p45
sg21
Vstr x21, [sp, #0x20]
p46
sg5
L18446743798836615352L
sg6
Nsg23
S'STR'
p47
sg25
S'0xffffffc0004bd8b8L'
p48
sg27
Nsba(ibclass
BInstr
p49
(dp50
g2
Nsg17
S'LDR             X4, [X0,#0xA8]'
p51
sg19
S'045440f9'
p52
sg21
Vldr x4, [x0, #0xa8]
p53
sg5
L18446743798836615356L
sg6
Nsg23
S'LDR'
p54
sg25
S'0xffffffc0004bd8bcL'
p55
sg27
Nsba(ibclass
BInstr
p56
(dp57
g2
Nsg17
S'STP             XZR, XZR, [X29,#0x50+var_20]'
p58
sg19
S'bf7f03a9'
p59
sg21
Vstp xzr, xzr, [x29, #0x30]
p60
sg5
L18446743798836615360L
sg6
Nsg23
S'STP'
p61
sg25
S'0xffffffc0004bd8c0L'
p62
sg27
Nsba(ibclass
BInstr
p63
(dp64
g2
Nsg17
S'STP             XZR, XZR, [X29,#0x50+var_10]'
p65
sg19
S'bf7f04a9'
p66
sg21
Vstp xzr, xzr, [x29, #0x40]
p67
sg5
L18446743798836615364L
sg6
Nsg23
S'STP'
p68
sg25
S'0xffffffc0004bd8c4L'
p69
sg27
Nsba(ibclass
BInstr
p70
(dp71
g2
Nsg17
S'STR             XZR, [X29,#0x50+var_s0]'
p72
sg19
S'bf2b00f9'
p73
sg21
Vstr xzr, [x29, #0x50]
p74
sg5
L18446743798836615368L
sg6
Nsg23
S'STR'
p75
sg25
S'0xffffffc0004bd8c8L'
p76
sg27
Nsba(ibclass
BInstr
p77
(dp78
g2
Nsg17
S'MOV             X20, X1'
p79
sg19
S'f40301aa'
p80
sg21
Vmov x20, x1
p81
sg5
L18446743798836615372L
sg6
Nsg23
S'MOV'
p82
sg25
S'0xffffffc0004bd8ccL'
p83
sg27
Nsba(ibclass
BInstr
p84
(dp85
g2
Nsg17
S'MOV             X21, X2'
p86
sg19
S'f50302aa'
p87
sg21
Vmov x21, x2
p88
sg5
L18446743798836615376L
sg6
Nsg23
S'MOV'
p89
sg25
S'0xffffffc0004bd8d0L'
p90
sg27
Nsba(ibclass
BInstr
p91
(dp92
g2
Nsg17
S'MOV             X19, X3'
p93
sg19
S'f30303aa'
p94
sg21
Vmov x19, x3
p95
sg5
L18446743798836615380L
sg6
Nsg23
S'MOV'
p96
sg25
S'0xffffffc0004bd8d4L'
p97
sg27
Nsba(ibclass
BInstr
p98
(dp99
g2
Nsg17
S'CBZ             X4, loc_FFFFFFC0004BD970'
p100
sg19
S'c40400b4'
p101
sg21
Vcbz x4, #0x98
p102
sg5
L18446743798836615384L
sg6
Nsg23
S'CBZ'
p103
sg25
S'0xffffffc0004bd8d8L'
p104
sg27
NsbasS'disasm_list'
p105
(lp106
S'STP reg9, reg0, mem!'
p107
aS'MOV reg9, SP'
p108
aS'STP reg9, reg0, mem'
p109
aS'STR reg1, mem'
p110
aS'LDR reg, mem'
p111
aS'STP XZR, XZR, mem'
p112
aS'STP XZR, XZR, mem'
p113
aS'STR XZR, mem'
p114
aS'MOV reg0, reg'
p115
aS'MOV reg1, reg'
p116
aS'MOV reg9, reg'
p117
aS'CBZ reg, func'
p118
asS'end_address'
p119
Nsg5
S'0xffffffc0004bd8acL'
p120
sS'preds'
p121
(lp122
sg6
NsS'succs'
p123
(lp124
S'0xffffffc0004bd8dcL'
p125
aS'0xffffffc0004bd970L'
p126
asS'hash_v3'
p127
NsS'flag_v2'
p128
NsS'hash_v1'
p129
S'efc549fdf516b5537f9210667b3c696b'
p130
sS'hash_v2'
p131
S'bb6b56c31cf3f7c63f41ad27b2115959'
p132
sS'mnen_list'
p133
(lp134
g24
ag33
ag40
ag47
ag54
ag61
ag68
ag75
ag82
ag89
ag96
ag103
asS'neighbour_disasm_list'
p135
Nsba(ibclass
BBasicBlock
p136
(dp137
g12
Nsg13
(lp138
(ibclass
BInstr
p139
(dp140
g2
Nsg17
S'LDR             X0, [X3]'
p141
sg19
S'600040f9'
p142
sg21
Vldr x0, [x3]
p143
sg5
L18446743798836615388L
sg6
Nsg23
S'LDR'
p144
sg25
S'0xffffffc0004bd8dcL'
p145
sg27
Nsba(ibclass
BInstr
p146
(dp147
g2
Nsg17
S'CBZ             X0, loc_FFFFFFC0004BD8EC'
p148
sg19
S'600000b4'
p149
sg21
Vcbz x0, #0xc
p150
sg5
L18446743798836615392L
sg6
Nsg23
S'CBZ'
p151
sg25
S'0xffffffc0004bd8e0L'
p152
sg27
Nsbasg105
(lp153
S'LDR reg, mem'
p154
aS'CBZ reg, func'
p155
asg119
Nsg5
S'0xffffffc0004bd8dcL'
p156
sg121
(lp157
S'0xffffffc0004bd8acL'
p158
asg6
Nsg123
(lp159
S'0xffffffc0004bd8e4L'
p160
aS'0xffffffc0004bd8ecL'
p161
asg127
Nsg128
Nsg129
S'a0c488049ab653dbdfa1dc805bb83f13'
p162
sg131
S'33abe016da9abbebb8608f035d51762d'
p163
sg133
(lp164
g144
ag151
asg135
Nsba(ibclass
BBasicBlock
p165
(dp166
g12
Nsg13
(lp167
(ibclass
BInstr
p168
(dp169
g2
Nsg17
S'MOV             X0, #0'
p170
sg19
S'000080d2'
p171
sg21
Vmovz x0, #0
p172
sg5
L18446743798836615396L
sg6
Nsg23
S'MOV'
p173
sg25
S'0xffffffc0004bd8e4L'
p174
sg27
Nsba(ibclass
BInstr
p175
(dp176
g2
Nsg17
S'B               loc_FFFFFFC0004BD974'
p177
sg19
S'23000014'
p178
sg21
Vb #0x8c
p179
sg5
L18446743798836615400L
sg6
Nsg23
S'B'
p180
sg25
S'0xffffffc0004bd8e8L'
p181
sg27
Nsbasg105
(lp182
S'MOV reg, #0'
p183
aS'B func'
p184
asg119
Nsg5
S'0xffffffc0004bd8e4L'
p185
sg121
(lp186
S'0xffffffc0004bd8dcL'
p187
aS'0xffffffc0004bd8ecL'
p188
asg6
Nsg123
(lp189
S'0xffffffc0004bd974L'
p190
asg127
Nsg128
Nsg129
S'b6c4e95ccfe77a95e4cf2019dd3d5574'
p191
sg131
S'487d2131c9e9084b6289188d6ce03ca3'
p192
sg133
(lp193
g173
ag180
asg135
Nsba(ibclass
BBasicBlock
p194
(dp195
g12
Nsg13
(lp196
(ibclass
BInstr
p197
(dp198
g2
Nsg17
S'LDR             X3, [X4]'
p199
sg19
S'830040f9'
p200
sg21
Vldr x3, [x4]
p201
sg5
L18446743798836615404L
sg6
Nsg23
S'LDR'
p202
sg25
S'0xffffffc0004bd8ecL'
p203
sg27
Nsba(ibclass
BInstr
p204
(dp205
g2
Nsg17
S'ADRP            X2, #aMin_mdp_clkLuM@PAGE; "min_mdp_clk %lu min_bus_vote %llu\\n"'
p206
sg19
S'627300b0'
p207
sg21
Vadrp x2, #0xe6d000
p208
sg5
L18446743798836615408L
sg6
Nsg23
S'ADRP'
p209
sg25
S'0xffffffc0004bd8f0L'
p210
sg27
Nsba(ibclass
BInstr
p211
(dp212
g2
Nsg17
S'LDR             X4, [X4,#8]'
p213
sg19
S'840440f9'
p214
sg21
Vldr x4, [x4, #8]
p215
sg5
L18446743798836615412L
sg6
Nsg23
S'LDR'
p216
sg25
S'0xffffffc0004bd8f4L'
p217
sg27
Nsba(ibclass
BInstr
p218
(dp219
g2
Nsg17
S'ADD             X0, X29, #0x30'
p220
sg19
S'a0c30091'
p221
sg21
Vadd x0, x29, #0x30
p222
sg5
L18446743798836615416L
sg6
Nsg23
S'ADD'
p223
sg25
S'0xffffffc0004bd8f8L'
p224
sg27
Nsba(ibclass
BInstr
p225
(dp226
g2
Nsg17
S'MOV             X1, #0x28'
p227
sg19
S'010580d2'
p228
sg21
Vmovz x1, #0x28
p229
sg5
L18446743798836615420L
sg6
Nsg23
S'MOV'
p230
sg25
S'0xffffffc0004bd8fcL'
p231
sg27
Nsba(ibclass
BInstr
p232
(dp233
g2
Nsg17
S'ADD             X2, X2, #aMin_mdp_clkLuM@PAGEOFF; "min_mdp_clk %lu min_bus_vote %llu\\n"'
p234
sg19
S'42003c91'
p235
sg21
Vadd x2, x2, #0xf00
p236
sg5
L18446743798836615424L
sg6
Nsg23
S'ADD'
p237
sg25
S'0xffffffc0004bd900L'
p238
sg27
Nsba(ibclass
BInstr
p239
(dp240
g2
Nsg17
S'BL              snprintf'
p241
sg19
S'3bc2fd97'
p242
sg21
Vbl #0xfffffffffff708ec
p243
sg5
L18446743798836615428L
sg6
Nsg23
S'BL'
p244
sg25
S'0xffffffc0004bd904L'
p245
sg27
Nsba(ibclass
BInstr
p246
(dp247
g2
Nsg17
S'CMP             W0, #0x27'
p248
sg19
S'1f9c0071'
p249
sg21
Vcmp w0, #0x27
p250
sg5
L18446743798836615432L
sg6
Nsg23
S'CMP'
p251
sg25
S'0xffffffc0004bd908L'
p252
sg27
Nsba(ibclass
BInstr
p253
(dp254
g2
Nsg17
S'B.HI            loc_FFFFFFC0004BD8E4'
p255
sg19
S'c8feff54'
p256
sg21
Vb.hi #0xffffffffffffffd8
p257
sg5
L18446743798836615436L
sg6
Nsg23
g180
sg25
S'0xffffffc0004bd90cL'
p258
sg27
Nsbasg105
(lp259
S'LDR reg, mem'
p260
aS'ADRP reg, #aMin_mdp_clkLuM@PAGE'
p261
aS'LDR reg, mem'
p262
aS'ADD reg, reg9, #0x30'
p263
aS'MOV reg, #0x28'
p264
aS'ADD reg, reg, #aMin_mdp_clkLuM@PAGEOFF'
p265
aS'BL snprintf'
p266
aS'CMP reg, #0x27'
p267
aS'B.HI func'
p268
asg119
Nsg5
S'0xffffffc0004bd8ecL'
p269
sg121
(lp270
S'0xffffffc0004bd8dcL'
p271
asg6
Nsg123
(lp272
S'0xffffffc0004bd8e4L'
p273
aS'0xffffffc0004bd910L'
p274
asg127
Nsg128
Nsg129
S'dea7fd112abc55ca7a9724bbfd15687d'
p275
sg131
S'11e09cd784190e68e5de5daa3065288d'
p276
sg133
(lp277
g202
ag209
ag216
ag223
ag230
ag237
ag244
ag251
ag180
asg135
Nsba(ibclass
BBasicBlock
p278
(dp279
g12
Nsg13
(lp280
(ibclass
BInstr
p281
(dp282
g2
Nsg17
S'CMP             X21, #0x27'
p283
sg19
S'bf9e00f1'
p284
sg21
Vcmp x21, #0x27
p285
sg5
L18446743798836615440L
sg6
Nsg23
S'CMP'
p286
sg25
S'0xffffffc0004bd910L'
p287
sg27
Nsba(ibclass
BInstr
p288
(dp289
g2
Nsg17
S'B.HI            loc_FFFFFFC0004BD920'
p290
sg19
S'68000054'
p291
sg21
Vb.hi #0xc
p292
sg5
L18446743798836615444L
sg6
Nsg23
g180
sg25
S'0xffffffc0004bd914L'
p293
sg27
Nsbasg105
(lp294
S'CMP reg1, #0x27'
p295
aS'B.HI func'
p296
asg119
Nsg5
S'0xffffffc0004bd910L'
p297
sg121
(lp298
S'0xffffffc0004bd8ecL'
p299
asg6
Nsg123
(lp300
S'0xffffffc0004bd918L'
p301
aS'0xffffffc0004bd920L'
p302
asg127
Nsg128
Nsg129
S'c78fd620a449e3c979d3f3ec12d4ee88'
p303
sg131
S'fbcecc4d06489dbde65b1891e5d762e7'
p304
sg133
(lp305
g286
ag180
asg135
Nsba(ibclass
BBasicBlock
p306
(dp307
g12
Nsg13
(lp308
(ibclass
BInstr
p309
(dp310
g2
Nsg17
S'MOV             X0, #0xFFFFFFFFFFFFFFF2'
p311
sg19
S'a0018092'
p312
sg21
Vmovn x0, #0xd
p313
sg5
L18446743798836615448L
sg6
Nsg23
S'MOV'
p314
sg25
S'0xffffffc0004bd918L'
p315
sg27
Nsba(ibclass
BInstr
p316
(dp317
g2
Nsg17
S'B               loc_FFFFFFC0004BD974'
p318
sg19
S'16000014'
p319
sg21
Vb #0x58
p320
sg5
L18446743798836615452L
sg6
Nsg23
g180
sg25
S'0xffffffc0004bd91cL'
p321
sg27
Nsbasg105
(lp322
S'MOV reg, #0xFFFFFFFFFFFFFFF2'
p323
aS'B func'
p324
asg119
Nsg5
S'0xffffffc0004bd918L'
p325
sg121
(lp326
S'0xffffffc0004bd910L'
p327
aS'0xffffffc0004bd958L'
p328
asg6
Nsg123
(lp329
S'0xffffffc0004bd974L'
p330
asg127
Nsg128
Nsg129
S'b6c4e95ccfe77a95e4cf2019dd3d5574'
p331
sg131
S'de5cd3634b99fc7484a5299a0e06a6dc'
p332
sg133
(lp333
g314
ag180
asg135
Nsba(ibclass
BBasicBlock
p334
(dp335
g12
Nsg13
(lp336
(ibclass
BInstr
p337
(dp338
g2
Nsg17
S'MOV             X1, SP'
p339
sg19
S'e1030091'
p340
sg21
Vmov x1, sp
p341
sg5
L18446743798836615456L
sg6
Nsg23
S'MOV'
p342
sg25
S'0xffffffc0004bd920L'
p343
sg27
Nsba(ibclass
BInstr
p344
(dp345
g2
Nsg17
S'SBFM            X2, X0, #0, #0x1F'
p346
sg19
S'027c4093'
p347
sg21
Vsxtw x2, w0
p348
sg5
L18446743798836615460L
sg6
Nsg23
S'SBFM'
p349
sg25
S'0xffffffc0004bd924L'
p350
sg27
Nsba(ibclass
BInstr
p351
(dp352
g2
Nsg17
S'AND             X0, X1, #0xFFFFFFFFFFFFC000'
p353
sg19
S'20c47292'
p354
sg21
Vand x0, x1, #0xffffffffffffc000
p355
sg5
L18446743798836615464L
sg6
Nsg23
S'AND'
p356
sg25
S'0xffffffc0004bd928L'
p357
sg27
Nsba(ibclass
BInstr
p358
(dp359
g2
Nsg17
S'LDR             X0, [X0,#8]'
p360
sg19
S'000440f9'
p361
sg21
Vldr x0, [x0, #8]
p362
sg5
L18446743798836615468L
sg6
Nsg23
S'LDR'
p363
sg25
S'0xffffffc0004bd92cL'
p364
sg27
Nsba(ibclass
BInstr
p365
(dp366
g2
Nsg17
S'MOV             X3, X20'
p367
sg19
S'e30314aa'
p368
sg21
Vmov x3, x20
p369
sg5
L18446743798836615472L
sg6
Nsg23
S'MOV'
p370
sg25
S'0xffffffc0004bd930L'
p371
sg27
Nsba(ibclass
BInstr
p372
(dp373
g2
Nsg17
S'MOV             X21, X2'
p374
sg19
S'f50302aa'
p375
sg21
Vmov x21, x2
p376
sg5
L18446743798836615476L
sg6
Nsg23
S'MOV'
p377
sg25
S'0xffffffc0004bd934L'
p378
sg27
Nsba(ibclass
BInstr
p379
(dp380
g2
Nsg17
S'ADDS            X3, X3, X2'
p381
sg19
S'630002ab'
p382
sg21
Vadds x3, x3, x2
p383
sg5
L18446743798836615480L
sg6
Nsg23
S'ADD'
p384
sg25
S'0xffffffc0004bd938L'
p385
sg27
Nsba(ibclass
BInstr
p386
(dp387
g2
Nsg17
S'CCMP            X3, X0, #2, CC'
p388
sg19
S'623040fa'
p389
sg21
Vccmp x3, x0, #2, lo
p390
sg5
L18446743798836615484L
sg6
Nsg23
S'CCMP'
p391
sg25
S'0xffffffc0004bd93cL'
p392
sg27
Nsba(ibclass
BInstr
p393
(dp394
g2
Nsg17
S'CSET            X1, LS'
p395
sg19
S'e1879f9a'
p396
sg21
Vcset x1, ls
p397
sg5
L18446743798836615488L
sg6
Nsg23
S'CSET'
p398
sg25
S'0xffffffc0004bd940L'
p399
sg27
Nsba(ibclass
BInstr
p400
(dp401
g2
Nsg17
S'CBZ             X1, loc_FFFFFFC0004BD958'
p402
sg19
S'a10000b4'
p403
sg21
Vcbz x1, #0x14
p404
sg5
L18446743798836615492L
sg6
Nsg23
S'CBZ'
p405
sg25
S'0xffffffc0004bd944L'
p406
sg27
Nsbasg105
(lp407
S'MOV reg, SP'
p408
aS'SBFM reg, reg, #0, #0x1F'
p409
aS'AND reg, reg, #0xFFFFFFFFFFFFC000'
p410
aS'LDR reg, mem'
p411
aS'MOV reg, reg0'
p412
aS'MOV reg1, reg'
p413
aS'ADDS reg, reg, reg'
p414
aS'CCMP reg, reg, #2, CC'
p415
aS'CSET reg, LS'
p416
aS'CBZ reg, func'
p417
asg119
Nsg5
S'0xffffffc0004bd920L'
p418
sg121
(lp419
S'0xffffffc0004bd910L'
p420
asg6
Nsg123
(lp421
S'0xffffffc0004bd948L'
p422
aS'0xffffffc0004bd958L'
p423
asg127
Nsg128
Nsg129
S'73a899044300e1eb90c5a6ade74cde9f'
p424
sg131
S'11dcb84752918a09c242cb88d0151134'
p425
sg133
(lp426
g342
ag349
ag356
ag363
ag370
ag377
ag384
ag391
ag398
ag405
asg135
Nsba(ibclass
BBasicBlock
p427
(dp428
g12
Nsg13
(lp429
(ibclass
BInstr
p430
(dp431
g2
Nsg17
S'MOV             X0, X20'
p432
sg19
S'e00314aa'
p433
sg21
Vmov x0, x20
p434
sg5
L18446743798836615496L
sg6
Nsg23
S'MOV'
p435
sg25
S'0xffffffc0004bd948L'
p436
sg27
Nsba(ibclass
BInstr
p437
(dp438
g2
Nsg17
S'ADD             X1, X29, #0x30'
p439
sg19
S'a1c30091'
p440
sg21
Vadd x1, x29, #0x30
p441
sg5
L18446743798836615500L
sg6
Nsg23
S'ADD'
p442
sg25
S'0xffffffc0004bd94cL'
p443
sg27
Nsba(ibclass
BInstr
p444
(dp445
g2
Nsg17
S'BL              __copy_to_user'
p446
sg19
S'1895fd97'
p447
sg21
Vbl #0xfffffffffff65460
p448
sg5
L18446743798836615504L
sg6
Nsg23
S'BL'
p449
sg25
S'0xffffffc0004bd950L'
p450
sg27
Nsba(ibclass
BInstr
p451
(dp452
g2
Nsg17
S'MOV             X2, X0'
p453
sg19
S'e20300aa'
p454
sg21
Vmov x2, x0
p455
sg5
L18446743798836615508L
sg6
Nsg23
S'MOV'
p456
sg25
S'0xffffffc0004bd954L'
p457
sg27
Nsbasg105
(lp458
S'MOV reg, reg0'
p459
aS'ADD reg, reg9, #0x30'
p460
aS'BL __copy_to_user'
p461
aS'MOV reg, reg'
p462
asg119
Nsg5
S'0xffffffc0004bd948L'
p463
sg121
(lp464
S'0xffffffc0004bd920L'
p465
asg6
Nsg123
(lp466
S'0xffffffc0004bd958L'
p467
asg127
Nsg128
Nsg129
S'2e15ede4c99aeb14d0e9aa2dc7d74315'
p468
sg131
S'01c4bb5832a51f9b3cb8f6065604dd9e'
p469
sg133
(lp470
g435
ag442
ag449
ag456
asg135
Nsba(ibclass
BBasicBlock
p471
(dp472
g12
Nsg13
(lp473
(ibclass
BInstr
p474
(dp475
g2
Nsg17
S'CBNZ            X2, loc_FFFFFFC0004BD918'
p476
sg19
S'02feffb5'
p477
sg21
Vcbnz x2, #0xffffffffffffffc0
p478
sg5
L18446743798836615512L
sg6
Nsg23
S'CBNZ'
p479
sg25
S'0xffffffc0004bd958L'
p480
sg27
Nsbasg105
(lp481
S'CBNZ reg, func'
p482
asg119
Nsg5
S'0xffffffc0004bd958L'
p483
sg121
(lp484
S'0xffffffc0004bd920L'
p485
aS'0xffffffc0004bd948L'
p486
asg6
Nsg123
(lp487
S'0xffffffc0004bd918L'
p488
aS'0xffffffc0004bd95cL'
p489
asg127
Nsg128
Nsg129
S'482b7d814ad85789cad59d80ecb8562a'
p490
sg131
S'c81d544e8093e123ef790602aa39a0d0'
p491
sg133
(lp492
g479
asg135
Nsba(ibclass
BBasicBlock
p493
(dp494
g12
Nsg13
(lp495
(ibclass
BInstr
p496
(dp497
g2
Nsg17
S'LDR             X0, [X19]'
p498
sg19
S'600240f9'
p499
sg21
Vldr x0, [x19]
p500
sg5
L18446743798836615516L
sg6
Nsg23
S'LDR'
p501
sg25
S'0xffffffc0004bd95cL'
p502
sg27
Nsba(ibclass
BInstr
p503
(dp504
g2
Nsg17
S'ADD             X0, X0, X21'
p505
sg19
S'0000158b'
p506
sg21
Vadd x0, x0, x21
p507
sg5
L18446743798836615520L
sg6
Nsg23
S'ADD'
p508
sg25
S'0xffffffc0004bd960L'
p509
sg27
Nsba(ibclass
BInstr
p510
(dp511
g2
Nsg17
S'STR             X0, [X19]'
p512
sg19
S'600200f9'
p513
sg21
Vstr x0, [x19]
p514
sg5
L18446743798836615524L
sg6
Nsg23
S'STR'
p515
sg25
S'0xffffffc0004bd964L'
p516
sg27
Nsba(ibclass
BInstr
p517
(dp518
g2
Nsg17
S'MOV             X0, X21'
p519
sg19
S'e00315aa'
p520
sg21
Vmov x0, x21
p521
sg5
L18446743798836615528L
sg6
Nsg23
S'MOV'
p522
sg25
S'0xffffffc0004bd968L'
p523
sg27
Nsba(ibclass
BInstr
p524
(dp525
g2
Nsg17
S'B               loc_FFFFFFC0004BD974'
p526
sg19
S'02000014'
p527
sg21
Vb #8
p528
sg5
L18446743798836615532L
sg6
Nsg23
g180
sg25
S'0xffffffc0004bd96cL'
p529
sg27
Nsbasg105
(lp530
S'LDR reg, mem'
p531
aS'ADD reg, reg, reg1'
p532
aS'STR reg, mem'
p533
aS'MOV reg, reg1'
p534
aS'B func'
p535
asg119
Nsg5
S'0xffffffc0004bd95cL'
p536
sg121
(lp537
S'0xffffffc0004bd958L'
p538
asg6
Nsg123
(lp539
S'0xffffffc0004bd974L'
p540
asg127
Nsg128
Nsg129
S'aadcc43cdc2a99d1a6ca4a03b08606d5'
p541
sg131
S'48ea67d3cf5b0706131ae0317110db59'
p542
sg133
(lp543
g501
ag508
ag515
ag522
ag180
asg135
Nsba(ibclass
BBasicBlock
p544
(dp545
g12
Nsg13
(lp546
(ibclass
BInstr
p547
(dp548
g2
Nsg17
S'MOV             X0, #0xFFFFFFFFFFFFFFED'
p549
sg19
S'40028092'
p550
sg21
Vmovn x0, #0x12
p551
sg5
L18446743798836615536L
sg6
Nsg23
S'MOV'
p552
sg25
S'0xffffffc0004bd970L'
p553
sg27
Nsbasg105
(lp554
S'MOV reg, #0xFFFFFFFFFFFFFFED'
p555
asg119
Nsg5
S'0xffffffc0004bd970L'
p556
sg121
(lp557
S'0xffffffc0004bd8acL'
p558
asg6
Nsg123
(lp559
S'0xffffffc0004bd974L'
p560
asg127
Nsg128
Nsg129
S'17b32100aef1fc19670be7fd58bc85df'
p561
sg131
S'2787654e588149d0a5179343795e5ed7'
p562
sg133
(lp563
g552
asg135
Nsba(ibclass
BBasicBlock
p564
(dp565
g12
Nsg13
(lp566
(ibclass
BInstr
p567
(dp568
g2
Nsg17
S'LDP             X19, X20, [SP,#0x50+var_40]'
p569
sg19
S'f35341a9'
p570
sg21
Vldp x19, x20, [sp, #0x10]
p571
sg5
L18446743798836615540L
sg6
Nsg23
S'LDP'
p572
sg25
S'0xffffffc0004bd974L'
p573
sg27
Nsba(ibclass
BInstr
p574
(dp575
g2
Nsg17
S'LDR             X21, [SP,#0x50+var_30]'
p576
sg19
S'f51340f9'
p577
sg21
Vldr x21, [sp, #0x20]
p578
sg5
L18446743798836615544L
sg6
Nsg23
S'LDR'
p579
sg25
S'0xffffffc0004bd978L'
p580
sg27
Nsba(ibclass
BInstr
p581
(dp582
g2
Nsg17
S'LDP             X29, X30, [SP+0x50+var_50],#0x60'
p583
sg19
S'fd7bc6a8'
p584
sg21
Vldp x29, x30, [sp], #0x60
p585
sg5
L18446743798836615548L
sg6
Nsg23
S'LDP'
p586
sg25
S'0xffffffc0004bd97cL'
p587
sg27
Nsba(ibclass
BInstr
p588
(dp589
g2
Nsg17
S'RET'
p590
sg19
S'c0035fd6'
p591
sg21
Vret 
p592
sg5
L18446743798836615552L
sg6
Nsg23
S'RET'
p593
sg25
S'0xffffffc0004bd980L'
p594
sg27
Nsbasg105
(lp595
S'LDP reg9, reg0, mem'
p596
aS'LDR reg1, mem'
p597
aS'LDP reg9, reg0, mem,#0x60'
p598
ag590
asg119
Nsg5
S'0xffffffc0004bd974L'
p599
sg121
(lp600
S'0xffffffc0004bd8e4L'
p601
aS'0xffffffc0004bd918L'
p602
aS'0xffffffc0004bd95cL'
p603
aS'0xffffffc0004bd970L'
p604
asg6
Nsg123
(lp605
sg127
Nsg128
Nsg129
S'b128167488f61fa9efc4b75f88cc16c9'
p606
sg131
S'660fb6fbb60d2c087d584ff0828ebd9c'
p607
sg133
(lp608
g572
ag579
ag586
ag593
asg135
Nsbasb.