(ibclass
BFunc
p0
(dp1
S'hash'
p2
NsS'name'
p3
S'mdss_fb_force_panel_dead'
p4
sS'start_address'
p5
L18446743798836719496L
sS'flag'
p6
NsS'program'
p7
NsS'bbs'
p8
(lp9
(ibclass
BBasicBlock
p10
(dp11
S'function'
p12
NsS'binstrs'
p13
(lp14
(ibclass
BInstr
p15
(dp16
g2
NsS'disasm'
p17
S'STP             X29, X30, [SP,#-0x10+var_20]!'
p18
sS'bytes'
p19
S'fd7bbda9'
p20
sS'disasm_striped'
p21
Vstp x29, x30, [sp, #-0x30]!
p22
sg5
L18446743798836719496L
sg6
NsS'mnem'
p23
S'STP'
p24
sS'address'
p25
S'0xffffffc0004d6f88L'
p26
sS'basicblock'
p27
Nsba(ibclass
BInstr
p28
(dp29
g2
Nsg17
S'MOV             X29, SP'
p30
sg19
S'fd030091'
p31
sg21
Vmov x29, sp
p32
sg5
L18446743798836719500L
sg6
Nsg23
S'MOV'
p33
sg25
S'0xffffffc0004d6f8cL'
p34
sg27
Nsba(ibclass
BInstr
p35
(dp36
g2
Nsg17
S'STR             X19, [SP,#0x20+var_10]'
p37
sg19
S'f30b00f9'
p38
sg21
Vstr x19, [sp, #0x10]
p39
sg5
L18446743798836719504L
sg6
Nsg23
S'STR'
p40
sg25
S'0xffffffc0004d6f90L'
p41
sg27
Nsba(ibclass
BInstr
p42
(dp43
g2
Nsg17
S'STR             X2, [X29,#0x20+var_s0]'
p44
sg19
S'a21300f9'
p45
sg21
Vstr x2, [x29, #0x20]
p46
sg5
L18446743798836719508L
sg6
Nsg23
S'STR'
p47
sg25
S'0xffffffc0004d6f94L'
p48
sg27
Nsba(ibclass
BInstr
p49
(dp50
g2
Nsg17
S'MOV             X19, X3'
p51
sg19
S'f30303aa'
p52
sg21
Vmov x19, x3
p53
sg5
L18446743798836719512L
sg6
Nsg23
S'MOV'
p54
sg25
S'0xffffffc0004d6f98L'
p55
sg27
Nsba(ibclass
BInstr
p56
(dp57
g2
Nsg17
S'BL              dev_get_drvdata'
p58
sg19
S'ce6b0394'
p59
sg21
Vbl #0xdaf38
p60
sg5
L18446743798836719516L
sg6
Nsg23
S'BL'
p61
sg25
S'0xffffffc0004d6f9cL'
p62
sg27
Nsba(ibclass
BInstr
p63
(dp64
g2
Nsg17
S'LDR             X0, [X0,#0x300]'
p65
sg19
S'008041f9'
p66
sg21
Vldr x0, [x0, #0x300]
p67
sg5
L18446743798836719520L
sg6
Nsg23
S'LDR'
p68
sg25
S'0xffffffc0004d6fa0L'
p69
sg27
Nsba(ibclass
BInstr
p70
(dp71
g2
Nsg17
S'LDR             X2, [X29,#0x20+var_s0]'
p72
sg19
S'a21340f9'
p73
sg21
Vldr x2, [x29, #0x20]
p74
sg5
L18446743798836719524L
sg6
Nsg23
S'LDR'
p75
sg25
S'0xffffffc0004d6fa4L'
p76
sg27
Nsba(ibclass
BInstr
p77
(dp78
g2
Nsg17
S'LDR             X0, [X0,#0x550]'
p79
sg19
S'00a842f9'
p80
sg21
Vldr x0, [x0, #0x550]
p81
sg5
L18446743798836719528L
sg6
Nsg23
S'LDR'
p82
sg25
S'0xffffffc0004d6fa8L'
p83
sg27
Nsba(ibclass
BInstr
p84
(dp85
g2
Nsg17
S'LDR             X4, [X0,#0xA8]'
p86
sg19
S'045440f9'
p87
sg21
Vldr x4, [x0, #0xa8]
p88
sg5
L18446743798836719532L
sg6
Nsg23
S'LDR'
p89
sg25
S'0xffffffc0004d6facL'
p90
sg27
Nsba(ibclass
BInstr
p91
(dp92
g2
Nsg17
S'ADRP            X0, #unk_FFFFFFC0013314E0@PAGE'
p93
sg19
S'c07200f0'
p94
sg21
Vadrp x0, #0xe5b000
p95
sg5
L18446743798836719536L
sg6
Nsg23
S'ADRP'
p96
sg25
S'0xffffffc0004d6fb0L'
p97
sg27
Nsba(ibclass
BInstr
p98
(dp99
g2
Nsg17
S'ADD             X0, X0, #unk_FFFFFFC0013314E0@PAGEOFF'
p100
sg19
S'00801391'
p101
sg21
Vadd x0, x0, #0x4e0
p102
sg5
L18446743798836719540L
sg6
Nsg23
S'ADD'
p103
sg25
S'0xffffffc0004d6fb4L'
p104
sg27
Nsba(ibclass
BInstr
p105
(dp106
g2
Nsg17
S'CBZ             X4, loc_FFFFFFC0004D6FD8'
p107
sg19
S'040100b4'
p108
sg21
Vcbz x4, #0x20
p109
sg5
L18446743798836719544L
sg6
Nsg23
S'CBZ'
p110
sg25
S'0xffffffc0004d6fb8L'
p111
sg27
NsbasS'disasm_list'
p112
(lp113
S'STP reg9, reg0, mem!'
p114
aS'MOV reg9, SP'
p115
aS'STR reg9, mem'
p116
aS'STR reg, mem'
p117
aS'MOV reg9, reg'
p118
aS'BL dev_get_drvdata'
p119
aS'LDR reg, mem'
p120
aS'LDR reg, mem'
p121
aS'LDR reg, mem'
p122
aS'LDR reg, mem'
p123
aS'ADRP reg, #func@PAGE'
p124
aS'ADD reg, reg, #func@PAGEOFF'
p125
aS'CBZ reg, func'
p126
asS'end_address'
p127
Nsg5
S'0xffffffc0004d6f88L'
p128
sS'preds'
p129
(lp130
sg6
NsS'succs'
p131
(lp132
S'0xffffffc0004d6fbcL'
p133
aS'0xffffffc0004d6fd8L'
p134
asS'hash_v3'
p135
NsS'flag_v2'
p136
NsS'hash_v1'
p137
S'052861535deda14a8bc9b89a80cc4bbd'
p138
sS'hash_v2'
p139
S'4933e1b73d0a7f3a1350a469f3972fd9'
p140
sS'mnen_list'
p141
(lp142
g24
ag33
ag40
ag47
ag54
ag61
ag68
ag75
ag82
ag89
ag96
ag103
ag110
asS'neighbour_disasm_list'
p143
Nsba(ibclass
BBasicBlock
p144
(dp145
g12
Nsg13
(lp146
(ibclass
BInstr
p147
(dp148
g2
Nsg17
S'MOV             X0, X2'
p149
sg19
S'e00302aa'
p150
sg21
Vmov x0, x2
p151
sg5
L18446743798836719548L
sg6
Nsg23
S'MOV'
p152
sg25
S'0xffffffc0004d6fbcL'
p153
sg27
Nsba(ibclass
BInstr
p154
(dp155
g2
Nsg17
S'MOV             W1, #0'
p156
sg19
S'01008052'
p157
sg21
Vmovz w1, #0
p158
sg5
L18446743798836719552L
sg6
Nsg23
S'MOV'
p159
sg25
S'0xffffffc0004d6fc0L'
p160
sg27
Nsba(ibclass
BInstr
p161
(dp162
g2
Nsg17
S'ADD             X2, X4, #0xEC'
p163
sg19
S'82b00391'
p164
sg21
Vadd x2, x4, #0xec
p165
sg5
L18446743798836719556L
sg6
Nsg23
S'ADD'
p166
sg25
S'0xffffffc0004d6fc4L'
p167
sg27
Nsba(ibclass
BInstr
p168
(dp169
g2
Nsg17
S'BL              kstrtouint'
p170
sg19
S'9e74fd97'
p171
sg21
Vbl #0xfffffffffff5d278
p172
sg5
L18446743798836719560L
sg6
Nsg23
S'BL'
p173
sg25
S'0xffffffc0004d6fc8L'
p174
sg27
Nsba(ibclass
BInstr
p175
(dp176
g2
Nsg17
S'CBZ             W0, loc_FFFFFFC0004D6FE8'
p177
sg19
S'e0000034'
p178
sg21
Vcbz w0, #0x1c
p179
sg5
L18446743798836719564L
sg6
Nsg23
S'CBZ'
p180
sg25
S'0xffffffc0004d6fccL'
p181
sg27
Nsbasg112
(lp182
S'MOV reg, reg'
p183
aS'MOV reg, #0'
p184
aS'ADD reg, reg, #0xEC'
p185
aS'BL kstrtouint'
p186
aS'CBZ reg, func'
p187
asg127
Nsg5
S'0xffffffc0004d6fbcL'
p188
sg129
(lp189
S'0xffffffc0004d6f88L'
p190
asg6
Nsg131
(lp191
S'0xffffffc0004d6fd0L'
p192
aS'0xffffffc0004d6fe8L'
p193
asg135
Nsg136
Nsg137
S'5523303611e25f1d89962f0192e66bf8'
p194
sg139
S'a434c8e5cf8bc1654b08c0a96fc37dbf'
p195
sg141
(lp196
g152
ag159
ag166
ag173
ag180
asg143
Nsba(ibclass
BBasicBlock
p197
(dp198
g12
Nsg13
(lp199
(ibclass
BInstr
p200
(dp201
g2
Nsg17
S'ADRP            X0, #unk_FFFFFFC0013314FB@PAGE'
p202
sg19
S'c07200f0'
p203
sg21
Vadrp x0, #0xe5b000
p204
sg5
L18446743798836719568L
sg6
Nsg23
S'ADRP'
p205
sg25
S'0xffffffc0004d6fd0L'
p206
sg27
Nsba(ibclass
BInstr
p207
(dp208
g2
Nsg17
S'ADD             X0, X0, #unk_FFFFFFC0013314FB@PAGEOFF'
p209
sg19
S'00ec1391'
p210
sg21
Vadd x0, x0, #0x4fb
p211
sg5
L18446743798836719572L
sg6
Nsg23
S'ADD'
p212
sg25
S'0xffffffc0004d6fd4L'
p213
sg27
Nsbasg112
(lp214
S'ADRP reg, #func@PAGE'
p215
aS'ADD reg, reg, #func@PAGEOFF'
p216
asg127
Nsg5
S'0xffffffc0004d6fd0L'
p217
sg129
(lp218
S'0xffffffc0004d6fbcL'
p219
asg6
Nsg131
(lp220
S'0xffffffc0004d6fd8L'
p221
asg135
Nsg136
Nsg137
S'4c330fd47d9d30794e360f434bcba16f'
p222
sg139
S'5d0c12c1c2f0dc35884d116bfd571de9'
p223
sg141
(lp224
g205
ag212
asg143
Nsba(ibclass
BBasicBlock
p225
(dp226
g12
Nsg13
(lp227
(ibclass
BInstr
p228
(dp229
g2
Nsg17
S'ADRP            X1, #__func__.34372@PAGE; "mdss_fb_stop_disp_thread"'
p230
sg19
S'615a00b0'
p231
sg21
Vadrp x1, #0xb4d000
p232
sg5
L18446743798836719576L
sg6
Nsg23
S'ADRP'
p233
sg25
S'0xffffffc0004d6fd8L'
p234
sg27
Nsba(ibclass
BInstr
p235
(dp236
g2
Nsg17
S'ADD             X1, X1, #__func__.34372@PAGEOFF; "mdss_fb_stop_disp_thread"'
p237
sg19
S'21003491'
p238
sg21
Vadd x1, x1, #0xd00
p239
sg5
L18446743798836719580L
sg6
Nsg23
S'ADD'
p240
sg25
S'0xffffffc0004d6fdcL'
p241
sg27
Nsba(ibclass
BInstr
p242
(dp243
g2
Nsg17
S'ADD             X1, X1, #0x98'
p244
sg19
S'21600291'
p245
sg21
Vadd x1, x1, #0x98
p246
sg5
L18446743798836719584L
sg6
Nsg23
S'ADD'
p247
sg25
S'0xffffffc0004d6fe0L'
p248
sg27
Nsba(ibclass
BInstr
p249
(dp250
g2
Nsg17
S'BL              printk'
p251
sg19
S'5f722594'
p252
sg21
Vbl #0x95c97c
p253
sg5
L18446743798836719588L
sg6
Nsg23
S'BL'
p254
sg25
S'0xffffffc0004d6fe4L'
p255
sg27
Nsbasg112
(lp256
S'ADRP reg, #__func__.34372@PAGE'
p257
aS'ADD reg, reg, #__func__.34372@PAGEOFF'
p258
aS'ADD reg, reg, #0x98'
p259
aS'BL printk'
p260
asg127
Nsg5
S'0xffffffc0004d6fd8L'
p261
sg129
(lp262
S'0xffffffc0004d6f88L'
p263
aS'0xffffffc0004d6fd0L'
p264
asg6
Nsg131
(lp265
S'0xffffffc0004d6fe8L'
p266
asg135
Nsg136
Nsg137
S'c8a90cccbd9f57e80b680be252a83539'
p267
sg139
S'3af94e1c7d5ce339ef732338863aeb1e'
p268
sg141
(lp269
g233
ag240
ag247
ag254
asg143
Nsba(ibclass
BBasicBlock
p270
(dp271
g12
Nsg13
(lp272
(ibclass
BInstr
p273
(dp274
g2
Nsg17
S'MOV             X0, X19'
p275
sg19
S'e00313aa'
p276
sg21
Vmov x0, x19
p277
sg5
L18446743798836719592L
sg6
Nsg23
S'MOV'
p278
sg25
S'0xffffffc0004d6fe8L'
p279
sg27
Nsba(ibclass
BInstr
p280
(dp281
g2
Nsg17
S'LDR             X19, [SP,#0x20+var_10]'
p282
sg19
S'f30b40f9'
p283
sg21
Vldr x19, [sp, #0x10]
p284
sg5
L18446743798836719596L
sg6
Nsg23
S'LDR'
p285
sg25
S'0xffffffc0004d6fecL'
p286
sg27
Nsba(ibclass
BInstr
p287
(dp288
g2
Nsg17
S'LDP             X29, X30, [SP+0x20+var_20],#0x30'
p289
sg19
S'fd7bc3a8'
p290
sg21
Vldp x29, x30, [sp], #0x30
p291
sg5
L18446743798836719600L
sg6
Nsg23
S'LDP'
p292
sg25
S'0xffffffc0004d6ff0L'
p293
sg27
Nsba(ibclass
BInstr
p294
(dp295
g2
Nsg17
S'RET'
p296
sg19
S'c0035fd6'
p297
sg21
Vret 
p298
sg5
L18446743798836719604L
sg6
Nsg23
S'RET'
p299
sg25
S'0xffffffc0004d6ff4L'
p300
sg27
Nsbasg112
(lp301
S'MOV reg, reg9'
p302
aS'LDR reg9, mem'
p303
aS'LDP reg9, reg0, mem,#0x30'
p304
ag296
asg127
Nsg5
S'0xffffffc0004d6fe8L'
p305
sg129
(lp306
S'0xffffffc0004d6fbcL'
p307
aS'0xffffffc0004d6fd8L'
p308
asg6
Nsg131
(lp309
sg135
Nsg136
Nsg137
S'700b6007ea89efb2d19f65eecdfbdc66'
p310
sg139
S'71235216961c6238f85f36259fb59106'
p311
sg141
(lp312
g278
ag285
ag292
ag299
asg143
Nsbasb.