(ibclass
BFunc
p0
(dp1
S'hash'
p2
NsS'name'
p3
S'mdss_mdp_dither_config'
p4
sS'start_address'
p5
L18446743798836507756L
sS'flag'
p6
NsS'program'
p7
NsS'bbs'
p8
(lp9
(ibclass
BBasicBlock
p10
(dp11
S'function'
p12
NsS'binstrs'
p13
(lp14
(ibclass
BInstr
p15
(dp16
g2
NsS'disasm'
p17
S'STP             X29, X30, [SP,#-0x10+var_20]!'
p18
sS'bytes'
p19
S'fd7bbda9'
p20
sS'disasm_striped'
p21
Vstp x29, x30, [sp, #-0x30]!
p22
sg5
L18446743798836507756L
sg6
NsS'mnem'
p23
S'STP'
p24
sS'address'
p25
S'0xffffffc0004a346cL'
p26
sS'basicblock'
p27
Nsba(ibclass
BInstr
p28
(dp29
g2
Nsg17
S'MOV             X29, SP'
p30
sg19
S'fd030091'
p31
sg21
Vmov x29, sp
p32
sg5
L18446743798836507760L
sg6
Nsg23
S'MOV'
p33
sg25
S'0xffffffc0004a3470L'
p34
sg27
Nsba(ibclass
BInstr
p35
(dp36
g2
Nsg17
S'STP             X19, X20, [SP,#0x20+var_10]'
p37
sg19
S'f35301a9'
p38
sg21
Vstp x19, x20, [sp, #0x10]
p39
sg5
L18446743798836507764L
sg6
Nsg23
S'STP'
p40
sg25
S'0xffffffc0004a3474L'
p41
sg27
Nsba(ibclass
BInstr
p42
(dp43
g2
Nsg17
S'STR             X21, [SP,#0x20+var_s0]'
p44
sg19
S'f51300f9'
p45
sg21
Vstr x21, [sp, #0x20]
p46
sg5
L18446743798836507768L
sg6
Nsg23
S'STR'
p47
sg25
S'0xffffffc0004a3478L'
p48
sg27
Nsba(ibclass
BInstr
p49
(dp50
g2
Nsg17
S'MOV             X19, X0'
p51
sg19
S'f30300aa'
p52
sg21
Vmov x19, x0
p53
sg5
L18446743798836507772L
sg6
Nsg23
S'MOV'
p54
sg25
S'0xffffffc0004a347cL'
p55
sg27
Nsba(ibclass
BInstr
p56
(dp57
g2
Nsg17
S'LDR             W0, [X0]'
p58
sg19
S'000040b9'
p59
sg21
Vldr w0, [x0]
p60
sg5
L18446743798836507776L
sg6
Nsg23
S'LDR'
p61
sg25
S'0xffffffc0004a3480L'
p62
sg27
Nsba(ibclass
BInstr
p63
(dp64
g2
Nsg17
S'SUB             W0, W0, #0x10'
p65
sg19
S'00400051'
p66
sg21
Vsub w0, w0, #0x10
p67
sg5
L18446743798836507780L
sg6
Nsg23
S'SUB'
p68
sg25
S'0xffffffc0004a3484L'
p69
sg27
Nsba(ibclass
BInstr
p70
(dp71
g2
Nsg17
S'CMP             W0, #2'
p72
sg19
S'1f080071'
p73
sg21
Vcmp w0, #2
p74
sg5
L18446743798836507784L
sg6
Nsg23
S'CMP'
p75
sg25
S'0xffffffc0004a3488L'
p76
sg27
Nsba(ibclass
BInstr
p77
(dp78
g2
Nsg17
S'B.HI            loc_FFFFFFC0004A352C'
p79
sg19
S'08050054'
p80
sg21
Vb.hi #0xa0
p81
sg5
L18446743798836507788L
sg6
Nsg23
S'B'
p82
sg25
S'0xffffffc0004a348cL'
p83
sg27
NsbasS'disasm_list'
p84
(lp85
S'STP reg9, reg0, mem!'
p86
aS'MOV reg9, SP'
p87
aS'STP reg9, reg0, mem'
p88
aS'STR reg1, mem'
p89
aS'MOV reg9, reg'
p90
aS'LDR reg, mem'
p91
aS'SUB reg, reg, #0x10'
p92
aS'CMP reg, #2'
p93
aS'B.HI func'
p94
asS'end_address'
p95
Nsg5
S'0xffffffc0004a346cL'
p96
sS'preds'
p97
(lp98
sg6
NsS'succs'
p99
(lp100
S'0xffffffc0004a3490L'
p101
aS'0xffffffc0004a352cL'
p102
asS'hash_v3'
p103
NsS'flag_v2'
p104
NsS'hash_v1'
p105
S'68e2c3a823dadf2d1d8264e64b820c8f'
p106
sS'hash_v2'
p107
S'717e605bff69f59dd5930c456a620cc7'
p108
sS'mnen_list'
p109
(lp110
g24
ag33
ag40
ag47
ag54
ag61
ag68
ag75
ag82
asS'neighbour_disasm_list'
p111
Nsba(ibclass
BBasicBlock
p112
(dp113
g12
Nsg13
(lp114
(ibclass
BInstr
p115
(dp116
g2
Nsg17
S'LDR             W0, [X19,#4]'
p117
sg19
S'600640b9'
p118
sg21
Vldr w0, [x19, #4]
p119
sg5
L18446743798836507792L
sg6
Nsg23
S'LDR'
p120
sg25
S'0xffffffc0004a3490L'
p121
sg27
Nsba(ibclass
BInstr
p122
(dp123
g2
Nsg17
S'AND             W20, W0, #2'
p124
sg19
S'14001f12'
p125
sg21
Vand w20, w0, #2
p126
sg5
L18446743798836507796L
sg6
Nsg23
S'AND'
p127
sg25
S'0xffffffc0004a3494L'
p128
sg27
Nsba(ibclass
BInstr
p129
(dp130
g2
Nsg17
S'CBNZ            W20, loc_FFFFFFC0004A3534'
p131
sg19
S'f4040035'
p132
sg21
Vcbnz w20, #0x9c
p133
sg5
L18446743798836507800L
sg6
Nsg23
S'CBNZ'
p134
sg25
S'0xffffffc0004a3498L'
p135
sg27
Nsbasg84
(lp136
S'LDR reg, mem'
p137
aS'AND reg0, reg, #2'
p138
aS'CBNZ reg0, func'
p139
asg95
Nsg5
S'0xffffffc0004a3490L'
p140
sg97
(lp141
S'0xffffffc0004a346cL'
p142
asg6
Nsg99
(lp143
S'0xffffffc0004a349cL'
p144
aS'0xffffffc0004a3534L'
p145
asg103
Nsg104
Nsg105
S'8d025ad0ba85dab5e6c2e86d8c57b374'
p146
sg107
S'5bcff333a82b16a9027c3ae5fb0792bc'
p147
sg109
(lp148
g120
ag127
ag134
asg111
Nsba(ibclass
BBasicBlock
p149
(dp150
g12
Nsg13
(lp151
(ibclass
BInstr
p152
(dp153
g2
Nsg17
S'AND             W0, W0, #0x30000000'
p154
sg19
S'00040412'
p155
sg21
Vand w0, w0, #0x30000000
p156
sg5
L18446743798836507804L
sg6
Nsg23
S'AND'
p157
sg25
S'0xffffffc0004a349cL'
p158
sg27
Nsba(ibclass
BInstr
p159
(dp160
g2
Nsg17
S'MOV             W1, #0x30000000'
p161
sg19
S'0100a652'
p162
sg21
Vmovz w1, #0x3000, lsl #16
p163
sg5
L18446743798836507808L
sg6
Nsg23
S'MOV'
p164
sg25
S'0xffffffc0004a34a0L'
p165
sg27
Nsba(ibclass
BInstr
p166
(dp167
g2
Nsg17
S'CMP             W0, W1'
p168
sg19
S'1f00016b'
p169
sg21
Vcmp w0, w1
p170
sg5
L18446743798836507812L
sg6
Nsg23
S'CMP'
p171
sg25
S'0xffffffc0004a34a4L'
p172
sg27
Nsba(ibclass
BInstr
p173
(dp174
g2
Nsg17
S'B.NE            loc_FFFFFFC0004A34C8'
p175
sg19
S'01010054'
p176
sg21
Vb.ne #0x20
p177
sg5
L18446743798836507816L
sg6
Nsg23
g82
sg25
S'0xffffffc0004a34a8L'
p178
sg27
Nsbasg84
(lp179
S'AND reg, reg, #address000'
p180
aS'MOV reg, #address000'
p181
aS'CMP reg, reg'
p182
aS'B.NE func'
p183
asg95
Nsg5
S'0xffffffc0004a349cL'
p184
sg97
(lp185
S'0xffffffc0004a3490L'
p186
asg6
Nsg99
(lp187
S'0xffffffc0004a34acL'
p188
aS'0xffffffc0004a34c8L'
p189
asg103
Nsg104
Nsg105
S'fca8fdabb259eecfc1fd574c092365a1'
p190
sg107
S'e0addd8103e04531a892043a43225bd0'
p191
sg109
(lp192
g157
ag164
ag171
ag82
asg111
Nsba(ibclass
BBasicBlock
p193
(dp194
g12
Nsg13
(lp195
(ibclass
BInstr
p196
(dp197
g2
Nsg17
S'ADRP            X1, #__func__.28108@PAGE; "pp_ad_cfg_write"'
p198
sg19
S'e15b00b0'
p199
sg21
Vadrp x1, #0xb7d000
p200
sg5
L18446743798836507820L
sg6
Nsg23
S'ADRP'
p201
sg25
S'0xffffffc0004a34acL'
p202
sg27
Nsba(ibclass
BInstr
p203
(dp204
g2
Nsg17
S'ADRP            X0, #unk_FFFFFFC001325174@PAGE'
p205
sg19
S'007400d0'
p206
sg21
Vadrp x0, #0xe82000
p207
sg5
L18446743798836507824L
sg6
Nsg23
S'ADRP'
p208
sg25
S'0xffffffc0004a34b0L'
p209
sg27
Nsba(ibclass
BInstr
p210
(dp211
g2
Nsg17
S'ADD             X1, X1, #__func__.28108@PAGEOFF; "pp_ad_cfg_write"'
p212
sg19
S'21e02291'
p213
sg21
Vadd x1, x1, #0x8b8
p214
sg5
L18446743798836507828L
sg6
Nsg23
S'ADD'
p215
sg25
S'0xffffffc0004a34b4L'
p216
sg27
Nsba(ibclass
BInstr
p217
(dp218
g2
Nsg17
S'ADD             X1, X1, #0x268'
p219
sg19
S'21a00991'
p220
sg21
Vadd x1, x1, #0x268
p221
sg5
L18446743798836507832L
sg6
Nsg23
S'ADD'
p222
sg25
S'0xffffffc0004a34b8L'
p223
sg27
Nsba(ibclass
BInstr
p224
(dp225
g2
Nsg17
S'ADD             X0, X0, #unk_FFFFFFC001325174@PAGEOFF'
p226
sg19
S'00d00591'
p227
sg21
Vadd x0, x0, #0x174
p228
sg5
L18446743798836507836L
sg6
Nsg23
S'ADD'
p229
sg25
S'0xffffffc0004a34bcL'
p230
sg27
Nsba(ibclass
BInstr
p231
(dp232
g2
Nsg17
S'BL              printk'
p233
sg19
S'28412694'
p234
sg21
Vbl #0x9904a0
p235
sg5
L18446743798836507840L
sg6
Nsg23
S'BL'
p236
sg25
S'0xffffffc0004a34c0L'
p237
sg27
Nsba(ibclass
BInstr
p238
(dp239
g2
Nsg17
S'B               loc_FFFFFFC0004A352C'
p240
sg19
S'1a000014'
p241
sg21
Vb #0x68
p242
sg5
L18446743798836507844L
sg6
Nsg23
g82
sg25
S'0xffffffc0004a34c4L'
p243
sg27
Nsbasg84
(lp244
S'ADRP reg, #__func__.28108@PAGE'
p245
aS'ADRP reg, #func@PAGE'
p246
aS'ADD reg, reg, #__func__.28108@PAGEOFF'
p247
aS'ADD reg, reg, #0x268'
p248
aS'ADD reg, reg, #func@PAGEOFF'
p249
aS'BL printk'
p250
aS'B func'
p251
asg95
Nsg5
S'0xffffffc0004a34acL'
p252
sg97
(lp253
S'0xffffffc0004a349cL'
p254
asg6
Nsg99
(lp255
S'0xffffffc0004a352cL'
p256
asg103
Nsg104
Nsg105
S'2c9793ad0fe6f054cbe18acf8837e8db'
p257
sg107
S'a6bd8af34b6a79b286e74c497f902034'
p258
sg109
(lp259
g201
ag208
ag215
ag222
ag229
ag236
ag82
asg111
Nsba(ibclass
BBasicBlock
p260
(dp261
g12
Nsg13
(lp262
(ibclass
BInstr
p263
(dp264
g2
Nsg17
S'ADRP            X21, #mdss_pp_mutex@PAGE'
p265
sg19
S'55a30090'
p266
sg21
Vadrp x21, #0x1468000
p267
sg5
L18446743798836507848L
sg6
Nsg23
S'ADRP'
p268
sg25
S'0xffffffc0004a34c8L'
p269
sg27
Nsba(ibclass
BInstr
p270
(dp271
g2
Nsg17
S'ADD             X21, X21, #mdss_pp_mutex@PAGEOFF'
p272
sg19
S'b5c21c91'
p273
sg21
Vadd x21, x21, #0x730
p274
sg5
L18446743798836507852L
sg6
Nsg23
S'ADD'
p275
sg25
S'0xffffffc0004a34ccL'
p276
sg27
Nsba(ibclass
BInstr
p277
(dp278
g2
Nsg17
S'MOV             X0, X21'
p279
sg19
S'e00315aa'
p280
sg21
Vmov x0, x21
p281
sg5
L18446743798836507856L
sg6
Nsg23
S'MOV'
p282
sg25
S'0xffffffc0004a34d0L'
p283
sg27
Nsba(ibclass
BInstr
p284
(dp285
g2
Nsg17
S'BL              mutex_lock'
p286
sg19
S'84752694'
p287
sg21
Vbl #0x99d610
p288
sg5
L18446743798836507860L
sg6
Nsg23
S'BL'
p289
sg25
S'0xffffffc0004a34d4L'
p290
sg27
Nsba(ibclass
BInstr
p291
(dp292
g2
Nsg17
S'ADRP            X1, #mdss_pp_res@PAGE'
p293
sg19
S'41be0090'
p294
sg21
Vadrp x1, #0x17c8000
p295
sg5
L18446743798836507864L
sg6
Nsg23
S'ADRP'
p296
sg25
S'0xffffffc0004a34d8L'
p297
sg27
Nsba(ibclass
BInstr
p298
(dp299
g2
Nsg17
S'LDR             W0, [X19]'
p300
sg19
S'600240b9'
p301
sg21
Vldr w0, [x19]
p302
sg5
L18446743798836507868L
sg6
Nsg23
S'LDR'
p303
sg25
S'0xffffffc0004a34dcL'
p304
sg27
Nsba(ibclass
BInstr
p305
(dp306
g2
Nsg17
S'ADD             X1, X1, #mdss_pp_res@PAGEOFF'
p307
sg19
S'21c00091'
p308
sg21
Vadd x1, x1, #0x30
p309
sg5
L18446743798836507872L
sg6
Nsg23
S'ADD'
p310
sg25
S'0xffffffc0004a34e0L'
p311
sg27
Nsba(ibclass
BInstr
p312
(dp313
g2
Nsg17
S'LDR             X1, [X1]'
p314
sg19
S'210040f9'
p315
sg21
Vldr x1, [x1]
p316
sg5
L18446743798836507876L
sg6
Nsg23
S'LDR'
p317
sg25
S'0xffffffc0004a34e4L'
p318
sg27
Nsba(ibclass
BInstr
p319
(dp320
g2
Nsg17
S'SUB             W0, W0, #0x10'
p321
sg19
S'00400051'
p322
sg21
Vsub w0, w0, #0x10
p323
sg5
L18446743798836507880L
sg6
Nsg23
S'SUB'
p324
sg25
S'0xffffffc0004a34e8L'
p325
sg27
Nsba(ibclass
BInstr
p326
(dp327
g2
Nsg17
S'MOV             X4, #0x14'
p328
sg19
S'840280d2'
p329
sg21
Vmovz x4, #0x14
p330
sg5
L18446743798836507884L
sg6
Nsg23
S'MOV'
p331
sg25
S'0xffffffc0004a34ecL'
p332
sg27
Nsba(ibclass
BInstr
p333
(dp334
g2
Nsg17
S'MADD            X4, X0, X4, X1'
p335
sg19
S'0404049b'
p336
sg21
Vmadd x4, x0, x4, x1
p337
sg5
L18446743798836507888L
sg6
Nsg23
S'MADD'
p338
sg25
S'0xffffffc0004a34f0L'
p339
sg27
Nsba(ibclass
BInstr
p340
(dp341
g2
Nsg17
S'LDP             X2, X3, [X19]'
p342
sg19
S'620e40a9'
p343
sg21
Vldp x2, x3, [x19]
p344
sg5
L18446743798836507892L
sg6
Nsg23
S'LDP'
p345
sg25
S'0xffffffc0004a34f4L'
p346
sg27
Nsba(ibclass
BInstr
p347
(dp348
g2
Nsg17
S'ADD             X4, X4, #5,LSL#12'
p349
sg19
S'84144091'
p350
sg21
Vadd x4, x4, #5, lsl #12
p351
sg5
L18446743798836507896L
sg6
Nsg23
S'ADD'
p352
sg25
S'0xffffffc0004a34f8L'
p353
sg27
Nsba(ibclass
BInstr
p354
(dp355
g2
Nsg17
S'ADD             X4, X4, #0x878'
p356
sg19
S'84e02191'
p357
sg21
Vadd x4, x4, #0x878
p358
sg5
L18446743798836507900L
sg6
Nsg23
S'ADD'
p359
sg25
S'0xffffffc0004a34fcL'
p360
sg27
Nsba(ibclass
BInstr
p361
(dp362
g2
Nsg17
S'STP             X2, X3, [X4]'
p363
sg19
S'820c00a9'
p364
sg21
Vstp x2, x3, [x4]
p365
sg5
L18446743798836507904L
sg6
Nsg23
S'STP'
p366
sg25
S'0xffffffc0004a3500L'
p367
sg27
Nsba(ibclass
BInstr
p368
(dp369
g2
Nsg17
S'LDR             W2, [X19,#0x10]'
p370
sg19
S'621240b9'
p371
sg21
Vldr w2, [x19, #0x10]
p372
sg5
L18446743798836507908L
sg6
Nsg23
S'LDR'
p373
sg25
S'0xffffffc0004a3504L'
p374
sg27
Nsba(ibclass
BInstr
p375
(dp376
g2
Nsg17
S'UBFM            X0, X0, #0x3E, #0x3D'
p377
sg19
S'00f47ed3'
p378
sg21
Vlsl x0, x0, #2
p379
sg5
L18446743798836507912L
sg6
Nsg23
S'UBFM'
p380
sg25
S'0xffffffc0004a3508L'
p381
sg27
Nsba(ibclass
BInstr
p382
(dp383
g2
Nsg17
S'STR             W2, [X4,#0x10]'
p384
sg19
S'821000b9'
p385
sg21
Vstr w2, [x4, #0x10]
p386
sg5
L18446743798836507916L
sg6
Nsg23
S'STR'
p387
sg25
S'0xffffffc0004a350cL'
p388
sg27
Nsba(ibclass
BInstr
p389
(dp390
g2
Nsg17
S'LDR             W2, [X1,X0]'
p391
sg19
S'226860b8'
p392
sg21
Vldr w2, [x1, x0]
p393
sg5
L18446743798836507920L
sg6
Nsg23
S'LDR'
p394
sg25
S'0xffffffc0004a3510L'
p395
sg27
Nsba(ibclass
BInstr
p396
(dp397
g2
Nsg17
S'ORR             W2, W2, #0x20'
p398
sg19
S'42001b32'
p399
sg21
Vorr w2, w2, #0x20
p400
sg5
L18446743798836507924L
sg6
Nsg23
S'ORR'
p401
sg25
S'0xffffffc0004a3514L'
p402
sg27
Nsba(ibclass
BInstr
p403
(dp404
g2
Nsg17
S'STR             W2, [X1,X0]'
p405
sg19
S'226820b8'
p406
sg21
Vstr w2, [x1, x0]
p407
sg5
L18446743798836507928L
sg6
Nsg23
S'STR'
p408
sg25
S'0xffffffc0004a3518L'
p409
sg27
Nsba(ibclass
BInstr
p410
(dp411
g2
Nsg17
S'MOV             X0, X21'
p412
sg19
S'e00315aa'
p413
sg21
Vmov x0, x21
p414
sg5
L18446743798836507932L
sg6
Nsg23
S'MOV'
p415
sg25
S'0xffffffc0004a351cL'
p416
sg27
Nsba(ibclass
BInstr
p417
(dp418
g2
Nsg17
S'BL              mutex_unlock'
p419
sg19
S'b4742694'
p420
sg21
Vbl #0x99d2d0
p421
sg5
L18446743798836507936L
sg6
Nsg23
S'BL'
p422
sg25
S'0xffffffc0004a3520L'
p423
sg27
Nsba(ibclass
BInstr
p424
(dp425
g2
Nsg17
S'MOV             W0, W20'
p426
sg19
S'e003142a'
p427
sg21
Vmov w0, w20
p428
sg5
L18446743798836507940L
sg6
Nsg23
S'MOV'
p429
sg25
S'0xffffffc0004a3524L'
p430
sg27
Nsba(ibclass
BInstr
p431
(dp432
g2
Nsg17
S'B               loc_FFFFFFC0004A3538'
p433
sg19
S'04000014'
p434
sg21
Vb #0x10
p435
sg5
L18446743798836507944L
sg6
Nsg23
g82
sg25
S'0xffffffc0004a3528L'
p436
sg27
Nsbasg84
(lp437
S'ADRP reg1, #mdss_pp_mutex@PAGE'
p438
aS'ADD reg1, reg1, #mdss_pp_mutex@PAGEOFF'
p439
aS'MOV reg, reg1'
p440
aS'BL mutex_lock'
p441
aS'ADRP reg, #mdss_pp_res@PAGE'
p442
aS'LDR reg, mem'
p443
aS'ADD reg, reg, #mdss_pp_res@PAGEOFF'
p444
aS'LDR reg, mem'
p445
aS'SUB reg, reg, #0x10'
p446
aS'MOV reg, #0x14'
p447
aS'MADD reg, reg, reg, reg'
p448
aS'LDP reg, reg, mem'
p449
aS'ADD reg, reg, #5,LSL#12'
p450
aS'ADD reg, reg, #0x878'
p451
aS'STP reg, reg, mem'
p452
aS'LDR reg, mem'
p453
aS'UBFM reg, reg, #0x3E, #0x3D'
p454
aS'STR reg, mem'
p455
aS'LDR reg, mem'
p456
aS'ORR reg, reg, #0x20'
p457
aS'STR reg, mem'
p458
aS'MOV reg, reg1'
p459
aS'BL mutex_unlock'
p460
aS'MOV reg, reg0'
p461
aS'B func'
p462
asg95
Nsg5
S'0xffffffc0004a34c8L'
p463
sg97
(lp464
S'0xffffffc0004a349cL'
p465
asg6
Nsg99
(lp466
S'0xffffffc0004a3538L'
p467
asg103
Nsg104
Nsg105
S'469ae9b039126b370f78bec1f07c6df7'
p468
sg107
S'223b7c969afc5b564cc7fa0470261cda'
p469
sg109
(lp470
g268
ag275
ag282
ag289
ag296
ag303
ag310
ag317
ag324
ag331
ag338
ag345
ag352
ag359
ag366
ag373
ag380
ag387
ag394
ag401
ag408
ag415
ag422
ag429
ag82
asg111
Nsba(ibclass
BBasicBlock
p471
(dp472
g12
Nsg13
(lp473
(ibclass
BInstr
p474
(dp475
g2
Nsg17
S'MOV             W0, #0xFFFFFFEA'
p476
sg19
S'a0028012'
p477
sg21
Vmovn w0, #0x15
p478
sg5
L18446743798836507948L
sg6
Nsg23
S'MOV'
p479
sg25
S'0xffffffc0004a352cL'
p480
sg27
Nsba(ibclass
BInstr
p481
(dp482
g2
Nsg17
S'B               loc_FFFFFFC0004A3538'
p483
sg19
S'02000014'
p484
sg21
Vb #8
p485
sg5
L18446743798836507952L
sg6
Nsg23
g82
sg25
S'0xffffffc0004a3530L'
p486
sg27
Nsbasg84
(lp487
S'MOV reg, #0xFFFFFFEA'
p488
aS'B func'
p489
asg95
Nsg5
S'0xffffffc0004a352cL'
p490
sg97
(lp491
S'0xffffffc0004a346cL'
p492
aS'0xffffffc0004a34acL'
p493
asg6
Nsg99
(lp494
S'0xffffffc0004a3538L'
p495
asg103
Nsg104
Nsg105
S'b6c4e95ccfe77a95e4cf2019dd3d5574'
p496
sg107
S'a17f88dd95e9c87c91b756bdda64e5a5'
p497
sg109
(lp498
g479
ag82
asg111
Nsba(ibclass
BBasicBlock
p499
(dp500
g12
Nsg13
(lp501
(ibclass
BInstr
p502
(dp503
g2
Nsg17
S'MOV             W0, #0xFFFFFDF4'
p504
sg19
S'60418012'
p505
sg21
Vmovn w0, #0x20b
p506
sg5
L18446743798836507956L
sg6
Nsg23
S'MOV'
p507
sg25
S'0xffffffc0004a3534L'
p508
sg27
Nsbasg84
(lp509
S'MOV reg, #0xFFFFFDF4'
p510
asg95
Nsg5
S'0xffffffc0004a3534L'
p511
sg97
(lp512
S'0xffffffc0004a3490L'
p513
asg6
Nsg99
(lp514
S'0xffffffc0004a3538L'
p515
asg103
Nsg104
Nsg105
S'17b32100aef1fc19670be7fd58bc85df'
p516
sg107
S'fa19738b2f3d30fb1d0b56782625c533'
p517
sg109
(lp518
g507
asg111
Nsba(ibclass
BBasicBlock
p519
(dp520
g12
Nsg13
(lp521
(ibclass
BInstr
p522
(dp523
g2
Nsg17
S'LDP             X19, X20, [SP,#0x20+var_10]'
p524
sg19
S'f35341a9'
p525
sg21
Vldp x19, x20, [sp, #0x10]
p526
sg5
L18446743798836507960L
sg6
Nsg23
S'LDP'
p527
sg25
S'0xffffffc0004a3538L'
p528
sg27
Nsba(ibclass
BInstr
p529
(dp530
g2
Nsg17
S'LDR             X21, [SP,#0x20+var_s0]'
p531
sg19
S'f51340f9'
p532
sg21
Vldr x21, [sp, #0x20]
p533
sg5
L18446743798836507964L
sg6
Nsg23
S'LDR'
p534
sg25
S'0xffffffc0004a353cL'
p535
sg27
Nsba(ibclass
BInstr
p536
(dp537
g2
Nsg17
S'LDP             X29, X30, [SP+0x20+var_20],#0x30'
p538
sg19
S'fd7bc3a8'
p539
sg21
Vldp x29, x30, [sp], #0x30
p540
sg5
L18446743798836507968L
sg6
Nsg23
S'LDP'
p541
sg25
S'0xffffffc0004a3540L'
p542
sg27
Nsba(ibclass
BInstr
p543
(dp544
g2
Nsg17
S'RET'
p545
sg19
S'c0035fd6'
p546
sg21
Vret 
p547
sg5
L18446743798836507972L
sg6
Nsg23
S'RET'
p548
sg25
S'0xffffffc0004a3544L'
p549
sg27
Nsbasg84
(lp550
S'LDP reg9, reg0, mem'
p551
aS'LDR reg1, mem'
p552
aS'LDP reg9, reg0, mem,#0x30'
p553
ag545
asg95
Nsg5
S'0xffffffc0004a3538L'
p554
sg97
(lp555
S'0xffffffc0004a34c8L'
p556
aS'0xffffffc0004a352cL'
p557
aS'0xffffffc0004a3534L'
p558
asg6
Nsg99
(lp559
sg103
Nsg104
Nsg105
S'b128167488f61fa9efc4b75f88cc16c9'
p560
sg107
S'131ac2d23764aab689185203ad502af4'
p561
sg109
(lp562
g527
ag534
ag541
ag548
asg111
Nsbasb.