(ibclass
BFunc
p0
(dp1
S'hash'
p2
NsS'name'
p3
S'mdss_debug_factor_read'
p4
sS'start_address'
p5
L18446743798836615556L
sS'flag'
p6
NsS'program'
p7
NsS'bbs'
p8
(lp9
(ibclass
BBasicBlock
p10
(dp11
S'function'
p12
NsS'binstrs'
p13
(lp14
(ibclass
BInstr
p15
(dp16
g2
NsS'disasm'
p17
S'STP             X29, X30, [SP,#-0x10+var_40]!'
p18
sS'bytes'
p19
S'fd7bbba9'
p20
sS'disasm_striped'
p21
Vstp x29, x30, [sp, #-0x50]!
p22
sg5
L18446743798836615556L
sg6
NsS'mnem'
p23
S'STP'
p24
sS'address'
p25
S'0xffffffc0004bd984L'
p26
sS'basicblock'
p27
Nsba(ibclass
BInstr
p28
(dp29
g2
Nsg17
S'MOV             X29, SP'
p30
sg19
S'fd030091'
p31
sg21
Vmov x29, sp
p32
sg5
L18446743798836615560L
sg6
Nsg23
S'MOV'
p33
sg25
S'0xffffffc0004bd988L'
p34
sg27
Nsba(ibclass
BInstr
p35
(dp36
g2
Nsg17
S'STP             X19, X20, [SP,#0x40+var_30]'
p37
sg19
S'f35301a9'
p38
sg21
Vstp x19, x20, [sp, #0x10]
p39
sg5
L18446743798836615564L
sg6
Nsg23
S'STP'
p40
sg25
S'0xffffffc0004bd98cL'
p41
sg27
Nsba(ibclass
BInstr
p42
(dp43
g2
Nsg17
S'STR             X21, [SP,#0x40+var_20]'
p44
sg19
S'f51300f9'
p45
sg21
Vstr x21, [sp, #0x20]
p46
sg5
L18446743798836615568L
sg6
Nsg23
S'STR'
p47
sg25
S'0xffffffc0004bd990L'
p48
sg27
Nsba(ibclass
BInstr
p49
(dp50
g2
Nsg17
S'LDR             X4, [X0,#0xA8]'
p51
sg19
S'045440f9'
p52
sg21
Vldr x4, [x0, #0xa8]
p53
sg5
L18446743798836615572L
sg6
Nsg23
S'LDR'
p54
sg25
S'0xffffffc0004bd994L'
p55
sg27
Nsba(ibclass
BInstr
p56
(dp57
g2
Nsg17
S'STP             XZR, XZR, [X29,#0x40+var_10]'
p58
sg19
S'bf7f03a9'
p59
sg21
Vstp xzr, xzr, [x29, #0x30]
p60
sg5
L18446743798836615576L
sg6
Nsg23
S'STP'
p61
sg25
S'0xffffffc0004bd998L'
p62
sg27
Nsba(ibclass
BInstr
p63
(dp64
g2
Nsg17
S'STP             XZR, XZR, [X29,#0x40+var_s0]'
p65
sg19
S'bf7f04a9'
p66
sg21
Vstp xzr, xzr, [x29, #0x40]
p67
sg5
L18446743798836615580L
sg6
Nsg23
S'STP'
p68
sg25
S'0xffffffc0004bd99cL'
p69
sg27
Nsba(ibclass
BInstr
p70
(dp71
g2
Nsg17
S'MOV             X20, X1'
p72
sg19
S'f40301aa'
p73
sg21
Vmov x20, x1
p74
sg5
L18446743798836615584L
sg6
Nsg23
S'MOV'
p75
sg25
S'0xffffffc0004bd9a0L'
p76
sg27
Nsba(ibclass
BInstr
p77
(dp78
g2
Nsg17
S'MOV             X21, X2'
p79
sg19
S'f50302aa'
p80
sg21
Vmov x21, x2
p81
sg5
L18446743798836615588L
sg6
Nsg23
S'MOV'
p82
sg25
S'0xffffffc0004bd9a4L'
p83
sg27
Nsba(ibclass
BInstr
p84
(dp85
g2
Nsg17
S'MOV             X19, X3'
p86
sg19
S'f30303aa'
p87
sg21
Vmov x19, x3
p88
sg5
L18446743798836615592L
sg6
Nsg23
S'MOV'
p89
sg25
S'0xffffffc0004bd9a8L'
p90
sg27
Nsba(ibclass
BInstr
p91
(dp92
g2
Nsg17
S'CBZ             X4, loc_FFFFFFC0004BDA44'
p93
sg19
S'c40400b4'
p94
sg21
Vcbz x4, #0x98
p95
sg5
L18446743798836615596L
sg6
Nsg23
S'CBZ'
p96
sg25
S'0xffffffc0004bd9acL'
p97
sg27
NsbasS'disasm_list'
p98
(lp99
S'STP reg9, reg0, mem!'
p100
aS'MOV reg9, SP'
p101
aS'STP reg9, reg0, mem'
p102
aS'STR reg1, mem'
p103
aS'LDR reg, mem'
p104
aS'STP XZR, XZR, mem'
p105
aS'STP XZR, XZR, mem'
p106
aS'MOV reg0, reg'
p107
aS'MOV reg1, reg'
p108
aS'MOV reg9, reg'
p109
aS'CBZ reg, func'
p110
asS'end_address'
p111
Nsg5
S'0xffffffc0004bd984L'
p112
sS'preds'
p113
(lp114
sg6
NsS'succs'
p115
(lp116
S'0xffffffc0004bd9b0L'
p117
aS'0xffffffc0004bda44L'
p118
asS'hash_v3'
p119
NsS'flag_v2'
p120
NsS'hash_v1'
p121
S'55d75a0a577626a01b6ad56c8ff10193'
p122
sS'hash_v2'
p123
S'9ada79f54c883aedf2d4f1d29174f835'
p124
sS'mnen_list'
p125
(lp126
g24
ag33
ag40
ag47
ag54
ag61
ag68
ag75
ag82
ag89
ag96
asS'neighbour_disasm_list'
p127
Nsba(ibclass
BBasicBlock
p128
(dp129
g12
Nsg13
(lp130
(ibclass
BInstr
p131
(dp132
g2
Nsg17
S'LDR             X0, [X3]'
p133
sg19
S'600040f9'
p134
sg21
Vldr x0, [x3]
p135
sg5
L18446743798836615600L
sg6
Nsg23
S'LDR'
p136
sg25
S'0xffffffc0004bd9b0L'
p137
sg27
Nsba(ibclass
BInstr
p138
(dp139
g2
Nsg17
S'CBZ             X0, loc_FFFFFFC0004BD9C0'
p140
sg19
S'600000b4'
p141
sg21
Vcbz x0, #0xc
p142
sg5
L18446743798836615604L
sg6
Nsg23
S'CBZ'
p143
sg25
S'0xffffffc0004bd9b4L'
p144
sg27
Nsbasg98
(lp145
S'LDR reg, mem'
p146
aS'CBZ reg, func'
p147
asg111
Nsg5
S'0xffffffc0004bd9b0L'
p148
sg113
(lp149
S'0xffffffc0004bd984L'
p150
asg6
Nsg115
(lp151
S'0xffffffc0004bd9b8L'
p152
aS'0xffffffc0004bd9c0L'
p153
asg119
Nsg120
Nsg121
S'a0c488049ab653dbdfa1dc805bb83f13'
p154
sg123
S'33abe016da9abbebb8608f035d51762d'
p155
sg125
(lp156
g136
ag143
asg127
Nsba(ibclass
BBasicBlock
p157
(dp158
g12
Nsg13
(lp159
(ibclass
BInstr
p160
(dp161
g2
Nsg17
S'MOV             X0, #0'
p162
sg19
S'000080d2'
p163
sg21
Vmovz x0, #0
p164
sg5
L18446743798836615608L
sg6
Nsg23
S'MOV'
p165
sg25
S'0xffffffc0004bd9b8L'
p166
sg27
Nsba(ibclass
BInstr
p167
(dp168
g2
Nsg17
S'B               loc_FFFFFFC0004BDA48'
p169
sg19
S'23000014'
p170
sg21
Vb #0x8c
p171
sg5
L18446743798836615612L
sg6
Nsg23
S'B'
p172
sg25
S'0xffffffc0004bd9bcL'
p173
sg27
Nsbasg98
(lp174
S'MOV reg, #0'
p175
aS'B func'
p176
asg111
Nsg5
S'0xffffffc0004bd9b8L'
p177
sg113
(lp178
S'0xffffffc0004bd9b0L'
p179
aS'0xffffffc0004bd9c0L'
p180
asg6
Nsg115
(lp181
S'0xffffffc0004bda48L'
p182
asg119
Nsg120
Nsg121
S'b6c4e95ccfe77a95e4cf2019dd3d5574'
p183
sg123
S'487d2131c9e9084b6289188d6ce03ca3'
p184
sg125
(lp185
g165
ag172
asg127
Nsba(ibclass
BBasicBlock
p186
(dp187
g12
Nsg13
(lp188
(ibclass
BInstr
p189
(dp190
g2
Nsg17
S'LDR             W3, [X4]'
p191
sg19
S'830040b9'
p192
sg21
Vldr w3, [x4]
p193
sg5
L18446743798836615616L
sg6
Nsg23
S'LDR'
p194
sg25
S'0xffffffc0004bd9c0L'
p195
sg27
Nsba(ibclass
BInstr
p196
(dp197
g2
Nsg17
S'ADRP            X2, #aDD_3@PAGE; "%d/%d\\n"'
p198
sg19
S'e27600b0'
p199
sg21
Vadrp x2, #0xedd000
p200
sg5
L18446743798836615620L
sg6
Nsg23
S'ADRP'
p201
sg25
S'0xffffffc0004bd9c4L'
p202
sg27
Nsba(ibclass
BInstr
p203
(dp204
g2
Nsg17
S'LDR             W4, [X4,#4]'
p205
sg19
S'840440b9'
p206
sg21
Vldr w4, [x4, #4]
p207
sg5
L18446743798836615624L
sg6
Nsg23
S'LDR'
p208
sg25
S'0xffffffc0004bd9c8L'
p209
sg27
Nsba(ibclass
BInstr
p210
(dp211
g2
Nsg17
S'ADD             X0, X29, #0x30'
p212
sg19
S'a0c30091'
p213
sg21
Vadd x0, x29, #0x30
p214
sg5
L18446743798836615628L
sg6
Nsg23
S'ADD'
p215
sg25
S'0xffffffc0004bd9ccL'
p216
sg27
Nsba(ibclass
BInstr
p217
(dp218
g2
Nsg17
S'MOV             X1, #0x20'
p219
sg19
S'010480d2'
p220
sg21
Vmovz x1, #0x20
p221
sg5
L18446743798836615632L
sg6
Nsg23
S'MOV'
p222
sg25
S'0xffffffc0004bd9d0L'
p223
sg27
Nsba(ibclass
BInstr
p224
(dp225
g2
Nsg17
S'ADD             X2, X2, #aDD_3@PAGEOFF; "%d/%d\\n"'
p226
sg19
S'42d41e91'
p227
sg21
Vadd x2, x2, #0x7b5
p228
sg5
L18446743798836615636L
sg6
Nsg23
S'ADD'
p229
sg25
S'0xffffffc0004bd9d4L'
p230
sg27
Nsba(ibclass
BInstr
p231
(dp232
g2
Nsg17
S'BL              snprintf'
p233
sg19
S'06c2fd97'
p234
sg21
Vbl #0xfffffffffff70818
p235
sg5
L18446743798836615640L
sg6
Nsg23
S'BL'
p236
sg25
S'0xffffffc0004bd9d8L'
p237
sg27
Nsba(ibclass
BInstr
p238
(dp239
g2
Nsg17
S'CMP             W0, #0x1F'
p240
sg19
S'1f7c0071'
p241
sg21
Vcmp w0, #0x1f
p242
sg5
L18446743798836615644L
sg6
Nsg23
S'CMP'
p243
sg25
S'0xffffffc0004bd9dcL'
p244
sg27
Nsba(ibclass
BInstr
p245
(dp246
g2
Nsg17
S'B.HI            loc_FFFFFFC0004BD9B8'
p247
sg19
S'c8feff54'
p248
sg21
Vb.hi #0xffffffffffffffd8
p249
sg5
L18446743798836615648L
sg6
Nsg23
g172
sg25
S'0xffffffc0004bd9e0L'
p250
sg27
Nsbasg98
(lp251
S'LDR reg, mem'
p252
aS'ADRP reg, #aDD_3@PAGE'
p253
aS'LDR reg, mem'
p254
aS'ADD reg, reg9, #0x30'
p255
aS'MOV reg, #0x20'
p256
aS'ADD reg, reg, #aDD_3@PAGEOFF'
p257
aS'BL snprintf'
p258
aS'CMP reg, #0x1F'
p259
aS'B.HI func'
p260
asg111
Nsg5
S'0xffffffc0004bd9c0L'
p261
sg113
(lp262
S'0xffffffc0004bd9b0L'
p263
asg6
Nsg115
(lp264
S'0xffffffc0004bd9b8L'
p265
aS'0xffffffc0004bd9e4L'
p266
asg119
Nsg120
Nsg121
S'dea7fd112abc55ca7a9724bbfd15687d'
p267
sg123
S'61018438b5432521047b7382eea686fe'
p268
sg125
(lp269
g194
ag201
ag208
ag215
ag222
ag229
ag236
ag243
ag172
asg127
Nsba(ibclass
BBasicBlock
p270
(dp271
g12
Nsg13
(lp272
(ibclass
BInstr
p273
(dp274
g2
Nsg17
S'CMP             X21, #0x1F'
p275
sg19
S'bf7e00f1'
p276
sg21
Vcmp x21, #0x1f
p277
sg5
L18446743798836615652L
sg6
Nsg23
S'CMP'
p278
sg25
S'0xffffffc0004bd9e4L'
p279
sg27
Nsba(ibclass
BInstr
p280
(dp281
g2
Nsg17
S'B.HI            loc_FFFFFFC0004BD9F4'
p282
sg19
S'68000054'
p283
sg21
Vb.hi #0xc
p284
sg5
L18446743798836615656L
sg6
Nsg23
g172
sg25
S'0xffffffc0004bd9e8L'
p285
sg27
Nsbasg98
(lp286
S'CMP reg1, #0x1F'
p287
aS'B.HI func'
p288
asg111
Nsg5
S'0xffffffc0004bd9e4L'
p289
sg113
(lp290
S'0xffffffc0004bd9c0L'
p291
asg6
Nsg115
(lp292
S'0xffffffc0004bd9ecL'
p293
aS'0xffffffc0004bd9f4L'
p294
asg119
Nsg120
Nsg121
S'c78fd620a449e3c979d3f3ec12d4ee88'
p295
sg123
S'58929681e9da43f71bd91127e9626512'
p296
sg125
(lp297
g278
ag172
asg127
Nsba(ibclass
BBasicBlock
p298
(dp299
g12
Nsg13
(lp300
(ibclass
BInstr
p301
(dp302
g2
Nsg17
S'MOV             X0, #0xFFFFFFFFFFFFFFF2'
p303
sg19
S'a0018092'
p304
sg21
Vmovn x0, #0xd
p305
sg5
L18446743798836615660L
sg6
Nsg23
S'MOV'
p306
sg25
S'0xffffffc0004bd9ecL'
p307
sg27
Nsba(ibclass
BInstr
p308
(dp309
g2
Nsg17
S'B               loc_FFFFFFC0004BDA48'
p310
sg19
S'16000014'
p311
sg21
Vb #0x58
p312
sg5
L18446743798836615664L
sg6
Nsg23
g172
sg25
S'0xffffffc0004bd9f0L'
p313
sg27
Nsbasg98
(lp314
S'MOV reg, #0xFFFFFFFFFFFFFFF2'
p315
aS'B func'
p316
asg111
Nsg5
S'0xffffffc0004bd9ecL'
p317
sg113
(lp318
S'0xffffffc0004bd9e4L'
p319
aS'0xffffffc0004bda2cL'
p320
asg6
Nsg115
(lp321
S'0xffffffc0004bda48L'
p322
asg119
Nsg120
Nsg121
S'b6c4e95ccfe77a95e4cf2019dd3d5574'
p323
sg123
S'de5cd3634b99fc7484a5299a0e06a6dc'
p324
sg125
(lp325
g306
ag172
asg127
Nsba(ibclass
BBasicBlock
p326
(dp327
g12
Nsg13
(lp328
(ibclass
BInstr
p329
(dp330
g2
Nsg17
S'MOV             X1, SP'
p331
sg19
S'e1030091'
p332
sg21
Vmov x1, sp
p333
sg5
L18446743798836615668L
sg6
Nsg23
S'MOV'
p334
sg25
S'0xffffffc0004bd9f4L'
p335
sg27
Nsba(ibclass
BInstr
p336
(dp337
g2
Nsg17
S'SBFM            X2, X0, #0, #0x1F'
p338
sg19
S'027c4093'
p339
sg21
Vsxtw x2, w0
p340
sg5
L18446743798836615672L
sg6
Nsg23
S'SBFM'
p341
sg25
S'0xffffffc0004bd9f8L'
p342
sg27
Nsba(ibclass
BInstr
p343
(dp344
g2
Nsg17
S'AND             X0, X1, #0xFFFFFFFFFFFFC000'
p345
sg19
S'20c47292'
p346
sg21
Vand x0, x1, #0xffffffffffffc000
p347
sg5
L18446743798836615676L
sg6
Nsg23
S'AND'
p348
sg25
S'0xffffffc0004bd9fcL'
p349
sg27
Nsba(ibclass
BInstr
p350
(dp351
g2
Nsg17
S'LDR             X0, [X0,#8]'
p352
sg19
S'000440f9'
p353
sg21
Vldr x0, [x0, #8]
p354
sg5
L18446743798836615680L
sg6
Nsg23
S'LDR'
p355
sg25
S'0xffffffc0004bda00L'
p356
sg27
Nsba(ibclass
BInstr
p357
(dp358
g2
Nsg17
S'MOV             X3, X20'
p359
sg19
S'e30314aa'
p360
sg21
Vmov x3, x20
p361
sg5
L18446743798836615684L
sg6
Nsg23
S'MOV'
p362
sg25
S'0xffffffc0004bda04L'
p363
sg27
Nsba(ibclass
BInstr
p364
(dp365
g2
Nsg17
S'MOV             X21, X2'
p366
sg19
S'f50302aa'
p367
sg21
Vmov x21, x2
p368
sg5
L18446743798836615688L
sg6
Nsg23
S'MOV'
p369
sg25
S'0xffffffc0004bda08L'
p370
sg27
Nsba(ibclass
BInstr
p371
(dp372
g2
Nsg17
S'ADDS            X3, X3, X2'
p373
sg19
S'630002ab'
p374
sg21
Vadds x3, x3, x2
p375
sg5
L18446743798836615692L
sg6
Nsg23
S'ADD'
p376
sg25
S'0xffffffc0004bda0cL'
p377
sg27
Nsba(ibclass
BInstr
p378
(dp379
g2
Nsg17
S'CCMP            X3, X0, #2, CC'
p380
sg19
S'623040fa'
p381
sg21
Vccmp x3, x0, #2, lo
p382
sg5
L18446743798836615696L
sg6
Nsg23
S'CCMP'
p383
sg25
S'0xffffffc0004bda10L'
p384
sg27
Nsba(ibclass
BInstr
p385
(dp386
g2
Nsg17
S'CSET            X1, LS'
p387
sg19
S'e1879f9a'
p388
sg21
Vcset x1, ls
p389
sg5
L18446743798836615700L
sg6
Nsg23
S'CSET'
p390
sg25
S'0xffffffc0004bda14L'
p391
sg27
Nsba(ibclass
BInstr
p392
(dp393
g2
Nsg17
S'CBZ             X1, loc_FFFFFFC0004BDA2C'
p394
sg19
S'a10000b4'
p395
sg21
Vcbz x1, #0x14
p396
sg5
L18446743798836615704L
sg6
Nsg23
S'CBZ'
p397
sg25
S'0xffffffc0004bda18L'
p398
sg27
Nsbasg98
(lp399
S'MOV reg, SP'
p400
aS'SBFM reg, reg, #0, #0x1F'
p401
aS'AND reg, reg, #0xFFFFFFFFFFFFC000'
p402
aS'LDR reg, mem'
p403
aS'MOV reg, reg0'
p404
aS'MOV reg1, reg'
p405
aS'ADDS reg, reg, reg'
p406
aS'CCMP reg, reg, #2, CC'
p407
aS'CSET reg, LS'
p408
aS'CBZ reg, func'
p409
asg111
Nsg5
S'0xffffffc0004bd9f4L'
p410
sg113
(lp411
S'0xffffffc0004bd9e4L'
p412
asg6
Nsg115
(lp413
S'0xffffffc0004bda1cL'
p414
aS'0xffffffc0004bda2cL'
p415
asg119
Nsg120
Nsg121
S'73a899044300e1eb90c5a6ade74cde9f'
p416
sg123
S'11dcb84752918a09c242cb88d0151134'
p417
sg125
(lp418
g334
ag341
ag348
ag355
ag362
ag369
ag376
ag383
ag390
ag397
asg127
Nsba(ibclass
BBasicBlock
p419
(dp420
g12
Nsg13
(lp421
(ibclass
BInstr
p422
(dp423
g2
Nsg17
S'MOV             X0, X20'
p424
sg19
S'e00314aa'
p425
sg21
Vmov x0, x20
p426
sg5
L18446743798836615708L
sg6
Nsg23
S'MOV'
p427
sg25
S'0xffffffc0004bda1cL'
p428
sg27
Nsba(ibclass
BInstr
p429
(dp430
g2
Nsg17
S'ADD             X1, X29, #0x30'
p431
sg19
S'a1c30091'
p432
sg21
Vadd x1, x29, #0x30
p433
sg5
L18446743798836615712L
sg6
Nsg23
S'ADD'
p434
sg25
S'0xffffffc0004bda20L'
p435
sg27
Nsba(ibclass
BInstr
p436
(dp437
g2
Nsg17
S'BL              __copy_to_user'
p438
sg19
S'e394fd97'
p439
sg21
Vbl #0xfffffffffff6538c
p440
sg5
L18446743798836615716L
sg6
Nsg23
S'BL'
p441
sg25
S'0xffffffc0004bda24L'
p442
sg27
Nsba(ibclass
BInstr
p443
(dp444
g2
Nsg17
S'MOV             X2, X0'
p445
sg19
S'e20300aa'
p446
sg21
Vmov x2, x0
p447
sg5
L18446743798836615720L
sg6
Nsg23
S'MOV'
p448
sg25
S'0xffffffc0004bda28L'
p449
sg27
Nsbasg98
(lp450
S'MOV reg, reg0'
p451
aS'ADD reg, reg9, #0x30'
p452
aS'BL __copy_to_user'
p453
aS'MOV reg, reg'
p454
asg111
Nsg5
S'0xffffffc0004bda1cL'
p455
sg113
(lp456
S'0xffffffc0004bd9f4L'
p457
asg6
Nsg115
(lp458
S'0xffffffc0004bda2cL'
p459
asg119
Nsg120
Nsg121
S'2e15ede4c99aeb14d0e9aa2dc7d74315'
p460
sg123
S'01c4bb5832a51f9b3cb8f6065604dd9e'
p461
sg125
(lp462
g427
ag434
ag441
ag448
asg127
Nsba(ibclass
BBasicBlock
p463
(dp464
g12
Nsg13
(lp465
(ibclass
BInstr
p466
(dp467
g2
Nsg17
S'CBNZ            X2, loc_FFFFFFC0004BD9EC'
p468
sg19
S'02feffb5'
p469
sg21
Vcbnz x2, #0xffffffffffffffc0
p470
sg5
L18446743798836615724L
sg6
Nsg23
S'CBNZ'
p471
sg25
S'0xffffffc0004bda2cL'
p472
sg27
Nsbasg98
(lp473
S'CBNZ reg, func'
p474
asg111
Nsg5
S'0xffffffc0004bda2cL'
p475
sg113
(lp476
S'0xffffffc0004bd9f4L'
p477
aS'0xffffffc0004bda1cL'
p478
asg6
Nsg115
(lp479
S'0xffffffc0004bd9ecL'
p480
aS'0xffffffc0004bda30L'
p481
asg119
Nsg120
Nsg121
S'482b7d814ad85789cad59d80ecb8562a'
p482
sg123
S'c81d544e8093e123ef790602aa39a0d0'
p483
sg125
(lp484
g471
asg127
Nsba(ibclass
BBasicBlock
p485
(dp486
g12
Nsg13
(lp487
(ibclass
BInstr
p488
(dp489
g2
Nsg17
S'LDR             X0, [X19]'
p490
sg19
S'600240f9'
p491
sg21
Vldr x0, [x19]
p492
sg5
L18446743798836615728L
sg6
Nsg23
S'LDR'
p493
sg25
S'0xffffffc0004bda30L'
p494
sg27
Nsba(ibclass
BInstr
p495
(dp496
g2
Nsg17
S'ADD             X0, X0, X21'
p497
sg19
S'0000158b'
p498
sg21
Vadd x0, x0, x21
p499
sg5
L18446743798836615732L
sg6
Nsg23
S'ADD'
p500
sg25
S'0xffffffc0004bda34L'
p501
sg27
Nsba(ibclass
BInstr
p502
(dp503
g2
Nsg17
S'STR             X0, [X19]'
p504
sg19
S'600200f9'
p505
sg21
Vstr x0, [x19]
p506
sg5
L18446743798836615736L
sg6
Nsg23
S'STR'
p507
sg25
S'0xffffffc0004bda38L'
p508
sg27
Nsba(ibclass
BInstr
p509
(dp510
g2
Nsg17
S'MOV             X0, X21'
p511
sg19
S'e00315aa'
p512
sg21
Vmov x0, x21
p513
sg5
L18446743798836615740L
sg6
Nsg23
S'MOV'
p514
sg25
S'0xffffffc0004bda3cL'
p515
sg27
Nsba(ibclass
BInstr
p516
(dp517
g2
Nsg17
S'B               loc_FFFFFFC0004BDA48'
p518
sg19
S'02000014'
p519
sg21
Vb #8
p520
sg5
L18446743798836615744L
sg6
Nsg23
g172
sg25
S'0xffffffc0004bda40L'
p521
sg27
Nsbasg98
(lp522
S'LDR reg, mem'
p523
aS'ADD reg, reg, reg1'
p524
aS'STR reg, mem'
p525
aS'MOV reg, reg1'
p526
aS'B func'
p527
asg111
Nsg5
S'0xffffffc0004bda30L'
p528
sg113
(lp529
S'0xffffffc0004bda2cL'
p530
asg6
Nsg115
(lp531
S'0xffffffc0004bda48L'
p532
asg119
Nsg120
Nsg121
S'aadcc43cdc2a99d1a6ca4a03b08606d5'
p533
sg123
S'48ea67d3cf5b0706131ae0317110db59'
p534
sg125
(lp535
g493
ag500
ag507
ag514
ag172
asg127
Nsba(ibclass
BBasicBlock
p536
(dp537
g12
Nsg13
(lp538
(ibclass
BInstr
p539
(dp540
g2
Nsg17
S'MOV             X0, #0xFFFFFFFFFFFFFFED'
p541
sg19
S'40028092'
p542
sg21
Vmovn x0, #0x12
p543
sg5
L18446743798836615748L
sg6
Nsg23
S'MOV'
p544
sg25
S'0xffffffc0004bda44L'
p545
sg27
Nsbasg98
(lp546
S'MOV reg, #0xFFFFFFFFFFFFFFED'
p547
asg111
Nsg5
S'0xffffffc0004bda44L'
p548
sg113
(lp549
S'0xffffffc0004bd984L'
p550
asg6
Nsg115
(lp551
S'0xffffffc0004bda48L'
p552
asg119
Nsg120
Nsg121
S'17b32100aef1fc19670be7fd58bc85df'
p553
sg123
S'2787654e588149d0a5179343795e5ed7'
p554
sg125
(lp555
g544
asg127
Nsba(ibclass
BBasicBlock
p556
(dp557
g12
Nsg13
(lp558
(ibclass
BInstr
p559
(dp560
g2
Nsg17
S'LDP             X19, X20, [SP,#0x40+var_30]'
p561
sg19
S'f35341a9'
p562
sg21
Vldp x19, x20, [sp, #0x10]
p563
sg5
L18446743798836615752L
sg6
Nsg23
S'LDP'
p564
sg25
S'0xffffffc0004bda48L'
p565
sg27
Nsba(ibclass
BInstr
p566
(dp567
g2
Nsg17
S'LDR             X21, [SP,#0x40+var_20]'
p568
sg19
S'f51340f9'
p569
sg21
Vldr x21, [sp, #0x20]
p570
sg5
L18446743798836615756L
sg6
Nsg23
S'LDR'
p571
sg25
S'0xffffffc0004bda4cL'
p572
sg27
Nsba(ibclass
BInstr
p573
(dp574
g2
Nsg17
S'LDP             X29, X30, [SP+0x40+var_40],#0x50'
p575
sg19
S'fd7bc5a8'
p576
sg21
Vldp x29, x30, [sp], #0x50
p577
sg5
L18446743798836615760L
sg6
Nsg23
S'LDP'
p578
sg25
S'0xffffffc0004bda50L'
p579
sg27
Nsba(ibclass
BInstr
p580
(dp581
g2
Nsg17
S'RET'
p582
sg19
S'c0035fd6'
p583
sg21
Vret 
p584
sg5
L18446743798836615764L
sg6
Nsg23
S'RET'
p585
sg25
S'0xffffffc0004bda54L'
p586
sg27
Nsbasg98
(lp587
S'LDP reg9, reg0, mem'
p588
aS'LDR reg1, mem'
p589
aS'LDP reg9, reg0, mem,#0x50'
p590
ag582
asg111
Nsg5
S'0xffffffc0004bda48L'
p591
sg113
(lp592
S'0xffffffc0004bd9b8L'
p593
aS'0xffffffc0004bd9ecL'
p594
aS'0xffffffc0004bda30L'
p595
aS'0xffffffc0004bda44L'
p596
asg6
Nsg115
(lp597
sg119
Nsg120
Nsg121
S'b128167488f61fa9efc4b75f88cc16c9'
p598
sg123
S'b675e017644bfd8ea56f2564bd8cb24d'
p599
sg125
(lp600
g564
ag571
ag578
ag585
asg127
Nsbasb.