(ibclass
BFunc
p0
(dp1
S'hash'
p2
NsS'name'
p3
S'msm_vdec_inst_init'
p4
sS'start_address'
p5
L18446743798839692280L
sS'flag'
p6
NsS'program'
p7
NsS'bbs'
p8
(lp9
(ibclass
BBasicBlock
p10
(dp11
S'function'
p12
NsS'binstrs'
p13
(lp14
(ibclass
BInstr
p15
(dp16
g2
NsS'disasm'
p17
S'STP             X29, X30, [SP,#-0x10+var_10]!'
p18
sS'bytes'
p19
S'fd7bbea9'
p20
sS'disasm_striped'
p21
Vstp x29, x30, [sp, #-0x20]!
p22
sg5
L18446743798839692280L
sg6
NsS'mnem'
p23
S'STP'
p24
sS'address'
p25
S'0xffffffc0007acbf8L'
p26
sS'basicblock'
p27
Nsba(ibclass
BInstr
p28
(dp29
g2
Nsg17
S'MOV             X29, SP'
p30
sg19
S'fd030091'
p31
sg21
Vmov x29, sp
p32
sg5
L18446743798839692284L
sg6
Nsg23
S'MOV'
p33
sg25
S'0xffffffc0007acbfcL'
p34
sg27
Nsba(ibclass
BInstr
p35
(dp36
g2
Nsg17
S'STR             X19, [SP,#0x10+var_s0]'
p37
sg19
S'f30b00f9'
p38
sg21
Vstr x19, [sp, #0x10]
p39
sg5
L18446743798839692288L
sg6
Nsg23
S'STR'
p40
sg25
S'0xffffffc0007acc00L'
p41
sg27
Nsba(ibclass
BInstr
p42
(dp43
g2
Nsg17
S'MOV             X2, X0'
p44
sg19
S'e20300aa'
p45
sg21
Vmov x2, x0
p46
sg5
L18446743798839692292L
sg6
Nsg23
S'MOV'
p47
sg25
S'0xffffffc0007acc04L'
p48
sg27
Nsba(ibclass
BInstr
p49
(dp50
g2
Nsg17
S'CBNZ            X0, loc_FFFFFFC0007ACC48'
p51
sg19
S'000200b5'
p52
sg21
Vcbnz x0, #0x40
p53
sg5
L18446743798839692296L
sg6
Nsg23
S'CBNZ'
p54
sg25
S'0xffffffc0007acc08L'
p55
sg27
NsbasS'disasm_list'
p56
(lp57
S'STP reg9, reg0, mem!'
p58
aS'MOV reg9, SP'
p59
aS'STR reg9, mem'
p60
aS'MOV reg, reg'
p61
aS'CBNZ reg, func'
p62
asS'end_address'
p63
Nsg5
S'0xffffffc0007acbf8L'
p64
sS'preds'
p65
(lp66
sg6
NsS'succs'
p67
(lp68
S'0xffffffc0007acc0cL'
p69
aS'0xffffffc0007acc48L'
p70
asS'hash_v3'
p71
NsS'flag_v2'
p72
NsS'hash_v1'
p73
S'50eed03d057bf7fac4c210acc8b85c39'
p74
sS'hash_v2'
p75
S'65152969b5ae3f8ee989757fc5333782'
p76
sS'mnen_list'
p77
(lp78
g24
ag33
ag40
ag47
ag54
asS'neighbour_disasm_list'
p79
Nsba(ibclass
BBasicBlock
p80
(dp81
g12
Nsg13
(lp82
(ibclass
BInstr
p83
(dp84
g2
Nsg17
S'ADRP            X0, #qword_FFFFFFC000E4A8A0@PAGE'
p85
sg19
S'e03400d0'
p86
sg21
Vadrp x0, #0x69e000
p87
sg5
L18446743798839692300L
sg6
Nsg23
S'ADRP'
p88
sg25
S'0xffffffc0007acc0cL'
p89
sg27
Nsba(ibclass
BInstr
p90
(dp91
g2
Nsg17
S'LDR             X0, [X0,#qword_FFFFFFC000E4A8A0@PAGEOFF]'
p92
sg19
S'005044f9'
p93
sg21
Vldr x0, [x0, #0x8a0]
p94
sg5
L18446743798839692304L
sg6
Nsg23
S'LDR'
p95
sg25
S'0xffffffc0007acc10L'
p96
sg27
Nsba(ibclass
BInstr
p97
(dp98
g2
Nsg17
S'LDR             W0, [X0]'
p99
sg19
S'000040b9'
p100
sg21
Vldr w0, [x0]
p101
sg5
L18446743798839692308L
sg6
Nsg23
S'LDR'
p102
sg25
S'0xffffffc0007acc14L'
p103
sg27
Nsba(ibclass
BInstr
p104
(dp105
g2
Nsg17
S'TBZ             W0, #0, loc_FFFFFFC0007ACCB4'
p106
sg19
S'e0040036'
p107
sg21
Vtbz w0, #0, #0x9c
p108
sg5
L18446743798839692312L
sg6
Nsg23
S'TBZ'
p109
sg25
S'0xffffffc0007acc18L'
p110
sg27
Nsbasg56
(lp111
S'ADRP reg, #func@PAGE'
p112
aS'LDR reg, mem'
p113
aS'LDR reg, mem'
p114
aS'TBZ reg, #0, func'
p115
asg63
Nsg5
S'0xffffffc0007acc0cL'
p116
sg65
(lp117
S'0xffffffc0007acbf8L'
p118
asg6
Nsg67
(lp119
S'0xffffffc0007acc1cL'
p120
aS'0xffffffc0007accb4L'
p121
asg71
Nsg72
Nsg73
S'2de94c9e326481f2f467f11acce8dcc9'
p122
sg75
S'f9f7225e2bae36aff04e5d93bafe5e1d'
p123
sg77
(lp124
g88
ag95
ag102
ag109
asg79
Nsba(ibclass
BBasicBlock
p125
(dp126
g12
Nsg13
(lp127
(ibclass
BInstr
p128
(dp129
g2
Nsg17
S'ADRP            X0, #qword_FFFFFFC000E48D48@PAGE'
p130
sg19
S'e0340090'
p131
sg21
Vadrp x0, #0x69c000
p132
sg5
L18446743798839692316L
sg6
Nsg23
S'ADRP'
p133
sg25
S'0xffffffc0007acc1cL'
p134
sg27
Nsba(ibclass
BInstr
p135
(dp136
g2
Nsg17
S'LDR             X0, [X0,#qword_FFFFFFC000E48D48@PAGEOFF]'
p137
sg19
S'00a446f9'
p138
sg21
Vldr x0, [x0, #0xd48]
p139
sg5
L18446743798839692320L
sg6
Nsg23
S'LDR'
p140
sg25
S'0xffffffc0007acc20L'
p141
sg27
Nsba(ibclass
BInstr
p142
(dp143
g2
Nsg17
S'MOV             W19, #0xFFFFFFEA'
p144
sg19
S'b3028012'
p145
sg21
Vmovn w19, #0x15
p146
sg5
L18446743798839692324L
sg6
Nsg23
S'MOV'
p147
sg25
S'0xffffffc0007acc24L'
p148
sg27
Nsba(ibclass
BInstr
p149
(dp150
g2
Nsg17
S'LDR             W0, [X0]'
p151
sg19
S'000040b9'
p152
sg21
Vldr w0, [x0]
p153
sg5
L18446743798839692328L
sg6
Nsg23
S'LDR'
p154
sg25
S'0xffffffc0007acc28L'
p155
sg27
Nsba(ibclass
BInstr
p156
(dp157
g2
Nsg17
S'CBNZ            W0, loc_FFFFFFC0007ACCB8'
p158
sg19
S'60040035'
p159
sg21
Vcbnz w0, #0x8c
p160
sg5
L18446743798839692332L
sg6
Nsg23
S'CBNZ'
p161
sg25
S'0xffffffc0007acc2cL'
p162
sg27
Nsbasg56
(lp163
S'ADRP reg, #func@PAGE'
p164
aS'LDR reg, mem'
p165
aS'MOV reg9, #0xFFFFFFEA'
p166
aS'LDR reg, mem'
p167
aS'CBNZ reg, func'
p168
asg63
Nsg5
S'0xffffffc0007acc1cL'
p169
sg65
(lp170
S'0xffffffc0007acc0cL'
p171
asg6
Nsg67
(lp172
S'0xffffffc0007acc30L'
p173
aS'0xffffffc0007accb8L'
p174
asg71
Nsg72
Nsg73
S'd80cc6d531f24a5b2d60307977d236c7'
p175
sg75
S'baaaa11d303d94886d47725c6dea0608'
p176
sg77
(lp177
g133
ag140
ag147
ag154
ag161
asg79
Nsba(ibclass
BBasicBlock
p178
(dp179
g12
Nsg13
(lp180
(ibclass
BInstr
p181
(dp182
g2
Nsg17
S'ADRP            X0, #unk_FFFFFFC0013BB5BE@PAGE'
p183
sg19
S'606000f0'
p184
sg21
Vadrp x0, #0xc0f000
p185
sg5
L18446743798839692336L
sg6
Nsg23
S'ADRP'
p186
sg25
S'0xffffffc0007acc30L'
p187
sg27
Nsba(ibclass
BInstr
p188
(dp189
g2
Nsg17
S'ADRP            X1, #(aQcomMdssDsi_17+0x1B)@PAGE; "err"'
p190
sg19
S'015c00f0'
p191
sg21
Vadrp x1, #0xb83000
p192
sg5
L18446743798839692340L
sg6
Nsg23
S'ADRP'
p193
sg25
S'0xffffffc0007acc34L'
p194
sg27
Nsba(ibclass
BInstr
p195
(dp196
g2
Nsg17
S'ADD             X1, X1, #(aQcomMdssDsi_17+0x1B)@PAGEOFF; "err"'
p197
sg19
S'21801291'
p198
sg21
Vadd x1, x1, #0x4a0
p199
sg5
L18446743798839692344L
sg6
Nsg23
S'ADD'
p200
sg25
S'0xffffffc0007acc38L'
p201
sg27
Nsba(ibclass
BInstr
p202
(dp203
g2
Nsg17
S'ADD             X0, X0, #unk_FFFFFFC0013BB5BE@PAGEOFF'
p204
sg19
S'00f81691'
p205
sg21
Vadd x0, x0, #0x5be
p206
sg5
L18446743798839692348L
sg6
Nsg23
S'ADD'
p207
sg25
S'0xffffffc0007acc3cL'
p208
sg27
Nsba(ibclass
BInstr
p209
(dp210
g2
Nsg17
S'BL              printk'
p211
sg19
S'481b1a94'
p212
sg21
Vbl #0x686d20
p213
sg5
L18446743798839692352L
sg6
Nsg23
S'BL'
p214
sg25
S'0xffffffc0007acc40L'
p215
sg27
Nsba(ibclass
BInstr
p216
(dp217
g2
Nsg17
S'B               loc_FFFFFFC0007ACCB8'
p218
sg19
S'1d000014'
p219
sg21
Vb #0x74
p220
sg5
L18446743798839692356L
sg6
Nsg23
S'B'
p221
sg25
S'0xffffffc0007acc44L'
p222
sg27
Nsbasg56
(lp223
S'ADRP reg, #func@PAGE'
p224
aS'ADRP reg, #(aQcomMdssDsi_17+0x1B)@PAGE'
p225
aS'ADD reg, reg, #(aQcomMdssDsi_17+0x1B)@PAGEOFF'
p226
aS'ADD reg, reg, #func@PAGEOFF'
p227
aS'BL printk'
p228
aS'B func'
p229
asg63
Nsg5
S'0xffffffc0007acc30L'
p230
sg65
(lp231
S'0xffffffc0007acc1cL'
p232
asg6
Nsg67
(lp233
S'0xffffffc0007accb8L'
p234
asg71
Nsg72
Nsg73
S'b2a3927201f2643e37e238d870ced3c2'
p235
sg75
S'3e167cdac8f124cfbacea29ee5c30eb0'
p236
sg77
(lp237
g186
ag193
ag200
ag207
ag214
ag221
asg79
Nsba(ibclass
BBasicBlock
p238
(dp239
g12
Nsg13
(lp240
(ibclass
BInstr
p241
(dp242
g2
Nsg17
S'ADRP            X0, #qword_FFFFFFC000E4DF30@PAGE'
p243
sg19
S'003500b0'
p244
sg21
Vadrp x0, #0x6a1000
p245
sg5
L18446743798839692360L
sg6
Nsg23
S'ADRP'
p246
sg25
S'0xffffffc0007acc48L'
p247
sg27
Nsba(ibclass
BInstr
p248
(dp249
g2
Nsg17
S'LDR             X0, [X0,#qword_FFFFFFC000E4DF30@PAGEOFF]'
p250
sg19
S'009847f9'
p251
sg21
Vldr x0, [x0, #0xf30]
p252
sg5
L18446743798839692364L
sg6
Nsg23
S'LDR'
p253
sg25
S'0xffffffc0007acc4cL'
p254
sg27
Nsba(ibclass
BInstr
p255
(dp256
g2
Nsg17
S'MOV             W3, #0x20'
p257
sg19
S'03048052'
p258
sg21
Vmovz w3, #0x20
p259
sg5
L18446743798839692368L
sg6
Nsg23
S'MOV'
p260
sg25
S'0xffffffc0007acc50L'
p261
sg27
Nsba(ibclass
BInstr
p262
(dp263
g2
Nsg17
S'ADD             X1, X0, #0x78'
p264
sg19
S'01e00191'
p265
sg21
Vadd x1, x0, #0x78
p266
sg5
L18446743798839692372L
sg6
Nsg23
S'ADD'
p267
sg25
S'0xffffffc0007acc54L'
p268
sg27
Nsba(ibclass
BInstr
p269
(dp270
g2
Nsg17
S'STR             X0, [X2,#0xA0]'
p271
sg19
S'405000f9'
p272
sg21
Vstr x0, [x2, #0xa0]
p273
sg5
L18446743798839692376L
sg6
Nsg23
S'STR'
p274
sg25
S'0xffffffc0007acc58L'
p275
sg27
Nsba(ibclass
BInstr
p276
(dp277
g2
Nsg17
S'MOV             W0, #0x780'
p278
sg19
S'00f08052'
p279
sg21
Vmovz w0, #0x780
p280
sg5
L18446743798839692380L
sg6
Nsg23
S'MOV'
p281
sg25
S'0xffffffc0007acc5cL'
p282
sg27
Nsba(ibclass
BInstr
p283
(dp284
g2
Nsg17
S'STR             W0, [X2,#0x7C]'
p285
sg19
S'407c00b9'
p286
sg21
Vstr w0, [x2, #0x7c]
p287
sg5
L18446743798839692384L
sg6
Nsg23
S'STR'
p288
sg25
S'0xffffffc0007acc60L'
p289
sg27
Nsba(ibclass
BInstr
p290
(dp291
g2
Nsg17
S'STR             W0, [X2,#0x78]'
p292
sg19
S'407800b9'
p293
sg21
Vstr w0, [x2, #0x78]
p294
sg5
L18446743798839692388L
sg6
Nsg23
S'STR'
p295
sg25
S'0xffffffc0007acc64L'
p296
sg27
Nsba(ibclass
BInstr
p297
(dp298
g2
Nsg17
S'STR             W0, [X2,#0xFB0]'
p299
sg19
S'40b00fb9'
p300
sg21
Vstr w0, [x2, #0xfb0]
p301
sg5
L18446743798839692392L
sg6
Nsg23
S'STR'
p302
sg25
S'0xffffffc0007acc68L'
p303
sg27
Nsba(ibclass
BInstr
p304
(dp305
g2
Nsg17
S'MOV             W0, #1'
p306
sg19
S'20008052'
p307
sg21
Vmovz w0, #0x1
p308
sg5
L18446743798839692396L
sg6
Nsg23
S'MOV'
p309
sg25
S'0xffffffc0007acc6cL'
p310
sg27
Nsba(ibclass
BInstr
p311
(dp312
g2
Nsg17
S'STR             X1, [X2,#0x98]'
p313
sg19
S'414c00f9'
p314
sg21
Vstr x1, [x2, #0x98]
p315
sg5
L18446743798839692400L
sg6
Nsg23
S'STR'
p316
sg25
S'0xffffffc0007acc70L'
p317
sg27
Nsba(ibclass
BInstr
p318
(dp319
g2
Nsg17
S'STR             W0, [X2,#0x1040]'
p320
sg19
S'404010b9'
p321
sg21
Vstr w0, [x2, #0x1040]
p322
sg5
L18446743798839692404L
sg6
Nsg23
S'STR'
p323
sg25
S'0xffffffc0007acc74L'
p324
sg27
Nsba(ibclass
BInstr
p325
(dp326
g2
Nsg17
S'MOV             W1, #0x440'
p327
sg19
S'01888052'
p328
sg21
Vmovz w1, #0x440
p329
sg5
L18446743798839692408L
sg6
Nsg23
S'MOV'
p330
sg25
S'0xffffffc0007acc78L'
p331
sg27
Nsba(ibclass
BInstr
p332
(dp333
g2
Nsg17
S'STR             W0, [X2,#0x1044]'
p334
sg19
S'404410b9'
p335
sg21
Vstr w0, [x2, #0x1044]
p336
sg5
L18446743798839692412L
sg6
Nsg23
S'STR'
p337
sg25
S'0xffffffc0007acc7cL'
p338
sg27
Nsba(ibclass
BInstr
p339
(dp340
g2
Nsg17
S'STR             W0, [X2,#0x104C]'
p341
sg19
S'404c10b9'
p342
sg21
Vstr w0, [x2, #0x104c]
p343
sg5
L18446743798839692416L
sg6
Nsg23
S'STR'
p344
sg25
S'0xffffffc0007acc80L'
p345
sg27
Nsba(ibclass
BInstr
p346
(dp347
g2
Nsg17
S'STR             W0, [X2,#0x1050]'
p348
sg19
S'405010b9'
p349
sg21
Vstr w0, [x2, #0x1050]
p350
sg5
L18446743798839692420L
sg6
Nsg23
S'STR'
p351
sg25
S'0xffffffc0007acc84L'
p352
sg27
Nsba(ibclass
BInstr
p353
(dp354
g2
Nsg17
S'MOV             W0, #0x1E'
p355
sg19
S'c0038052'
p356
sg21
Vmovz w0, #0x1e
p357
sg5
L18446743798839692424L
sg6
Nsg23
S'MOV'
p358
sg25
S'0xffffffc0007acc88L'
p359
sg27
Nsba(ibclass
BInstr
p360
(dp361
g2
Nsg17
S'STR             W1, [X2,#0x84]'
p362
sg19
S'418400b9'
p363
sg21
Vstr w1, [x2, #0x84]
p364
sg5
L18446743798839692428L
sg6
Nsg23
S'STR'
p365
sg25
S'0xffffffc0007acc8cL'
p366
sg27
Nsba(ibclass
BInstr
p367
(dp368
g2
Nsg17
S'STR             W1, [X2,#0x80]'
p369
sg19
S'418000b9'
p370
sg21
Vstr w1, [x2, #0x80]
p371
sg5
L18446743798839692432L
sg6
Nsg23
S'STR'
p372
sg25
S'0xffffffc0007acc90L'
p373
sg27
Nsba(ibclass
BInstr
p374
(dp375
g2
Nsg17
S'STR             W3, [X2,#0xFBC]'
p376
sg19
S'43bc0fb9'
p377
sg21
Vstr w3, [x2, #0xfbc]
p378
sg5
L18446743798839692436L
sg6
Nsg23
S'STR'
p379
sg25
S'0xffffffc0007acc94L'
p380
sg27
Nsba(ibclass
BInstr
p381
(dp382
g2
Nsg17
S'STR             W1, [X2,#0xFC0]'
p383
sg19
S'41c00fb9'
p384
sg21
Vstr w1, [x2, #0xfc0]
p385
sg5
L18446743798839692440L
sg6
Nsg23
S'STR'
p386
sg25
S'0xffffffc0007acc98L'
p387
sg27
Nsba(ibclass
BInstr
p388
(dp389
g2
Nsg17
S'STR             W3, [X2,#0xFAC]'
p390
sg19
S'43ac0fb9'
p391
sg21
Vstr w3, [x2, #0xfac]
p392
sg5
L18446743798839692444L
sg6
Nsg23
S'STR'
p393
sg25
S'0xffffffc0007acc9cL'
p394
sg27
Nsba(ibclass
BInstr
p395
(dp396
g2
Nsg17
S'STR             WZR, [X2,#0x1030]'
p397
sg19
S'5f3010b9'
p398
sg21
Vstr wzr, [x2, #0x1030]
p399
sg5
L18446743798839692448L
sg6
Nsg23
S'STR'
p400
sg25
S'0xffffffc0007acca0L'
p401
sg27
Nsba(ibclass
BInstr
p402
(dp403
g2
Nsg17
S'STR             WZR, [X2,#0x1034]'
p404
sg19
S'5f3410b9'
p405
sg21
Vstr wzr, [x2, #0x1034]
p406
sg5
L18446743798839692452L
sg6
Nsg23
S'STR'
p407
sg25
S'0xffffffc0007acca4L'
p408
sg27
Nsba(ibclass
BInstr
p409
(dp410
g2
Nsg17
S'STR             W0, [X2,#0x88]'
p411
sg19
S'408800b9'
p412
sg21
Vstr w0, [x2, #0x88]
p413
sg5
L18446743798839692456L
sg6
Nsg23
S'STR'
p414
sg25
S'0xffffffc0007acca8L'
p415
sg27
Nsba(ibclass
BInstr
p416
(dp417
g2
Nsg17
S'MOV             W19, #0'
p418
sg19
S'13008052'
p419
sg21
Vmovz w19, #0
p420
sg5
L18446743798839692460L
sg6
Nsg23
S'MOV'
p421
sg25
S'0xffffffc0007accacL'
p422
sg27
Nsba(ibclass
BInstr
p423
(dp424
g2
Nsg17
S'B               loc_FFFFFFC0007ACCB8'
p425
sg19
S'02000014'
p426
sg21
Vb #8
p427
sg5
L18446743798839692464L
sg6
Nsg23
g221
sg25
S'0xffffffc0007accb0L'
p428
sg27
Nsbasg56
(lp429
S'ADRP reg, #func@PAGE'
p430
aS'LDR reg, mem'
p431
aS'MOV reg, #0x20'
p432
aS'ADD reg, reg, #0x78'
p433
aS'STR reg, mem'
p434
aS'MOV reg, #0x780'
p435
aS'STR reg, mem'
p436
aS'STR reg, mem'
p437
aS'STR reg, mem'
p438
aS'MOV reg, #1'
p439
aS'STR reg, mem'
p440
aS'STR reg, mem'
p441
aS'MOV reg, #0x440'
p442
aS'STR reg, mem'
p443
aS'STR reg, mem'
p444
aS'STR reg, mem'
p445
aS'MOV reg, #0x1E'
p446
aS'STR reg, mem'
p447
aS'STR reg, mem'
p448
aS'STR reg, mem'
p449
aS'STR reg, mem'
p450
aS'STR reg, mem'
p451
aS'STR WZR, mem'
p452
aS'STR WZR, mem'
p453
aS'STR reg, mem'
p454
aS'MOV reg9, #0'
p455
aS'B func'
p456
asg63
Nsg5
S'0xffffffc0007acc48L'
p457
sg65
(lp458
S'0xffffffc0007acbf8L'
p459
asg6
Nsg67
(lp460
S'0xffffffc0007accb8L'
p461
asg71
Nsg72
Nsg73
S'95b42e004bb797832412f142ab30a57a'
p462
sg75
S'56d2d29fb02854c9b2bf778b8dd71901'
p463
sg77
(lp464
g246
ag253
ag260
ag267
ag274
ag281
ag288
ag295
ag302
ag309
ag316
ag323
ag330
ag337
ag344
ag351
ag358
ag365
ag372
ag379
ag386
ag393
ag400
ag407
ag414
ag421
ag221
asg79
Nsba(ibclass
BBasicBlock
p465
(dp466
g12
Nsg13
(lp467
(ibclass
BInstr
p468
(dp469
g2
Nsg17
S'MOV             W19, #0xFFFFFFEA'
p470
sg19
S'b3028012'
p471
sg21
Vmovn w19, #0x15
p472
sg5
L18446743798839692468L
sg6
Nsg23
S'MOV'
p473
sg25
S'0xffffffc0007accb4L'
p474
sg27
Nsbasg56
(lp475
S'MOV reg9, #0xFFFFFFEA'
p476
asg63
Nsg5
S'0xffffffc0007accb4L'
p477
sg65
(lp478
S'0xffffffc0007acc0cL'
p479
asg6
Nsg67
(lp480
S'0xffffffc0007accb8L'
p481
asg71
Nsg72
Nsg73
S'17b32100aef1fc19670be7fd58bc85df'
p482
sg75
S'b3606159d658f642fff4e1852538bd21'
p483
sg77
(lp484
g473
asg79
Nsba(ibclass
BBasicBlock
p485
(dp486
g12
Nsg13
(lp487
(ibclass
BInstr
p488
(dp489
g2
Nsg17
S'MOV             W0, W19'
p490
sg19
S'e003132a'
p491
sg21
Vmov w0, w19
p492
sg5
L18446743798839692472L
sg6
Nsg23
S'MOV'
p493
sg25
S'0xffffffc0007accb8L'
p494
sg27
Nsba(ibclass
BInstr
p495
(dp496
g2
Nsg17
S'LDR             X19, [SP,#0x10+var_s0]'
p497
sg19
S'f30b40f9'
p498
sg21
Vldr x19, [sp, #0x10]
p499
sg5
L18446743798839692476L
sg6
Nsg23
S'LDR'
p500
sg25
S'0xffffffc0007accbcL'
p501
sg27
Nsba(ibclass
BInstr
p502
(dp503
g2
Nsg17
S'LDP             X29, X30, [SP+0x10+var_10],#0x20'
p504
sg19
S'fd7bc2a8'
p505
sg21
Vldp x29, x30, [sp], #0x20
p506
sg5
L18446743798839692480L
sg6
Nsg23
S'LDP'
p507
sg25
S'0xffffffc0007accc0L'
p508
sg27
Nsba(ibclass
BInstr
p509
(dp510
g2
Nsg17
S'RET'
p511
sg19
S'c0035fd6'
p512
sg21
Vret 
p513
sg5
L18446743798839692484L
sg6
Nsg23
S'RET'
p514
sg25
S'0xffffffc0007accc4L'
p515
sg27
Nsbasg56
(lp516
S'MOV reg, reg9'
p517
aS'LDR reg9, mem'
p518
aS'LDP reg9, reg0, mem,#0x20'
p519
ag511
asg63
Nsg5
S'0xffffffc0007accb8L'
p520
sg65
(lp521
S'0xffffffc0007acc1cL'
p522
aS'0xffffffc0007acc30L'
p523
aS'0xffffffc0007acc48L'
p524
aS'0xffffffc0007accb4L'
p525
asg6
Nsg67
(lp526
sg71
Nsg72
Nsg73
S'700b6007ea89efb2d19f65eecdfbdc66'
p527
sg75
S'2540ec61573c55ff75133ef1ef4cbd07'
p528
sg77
(lp529
g493
ag500
ag507
ag514
asg79
Nsbasb.