(ibclass
BFunc
p0
(dp1
S'hash'
p2
NsS'name'
p3
S'msm_isp_request_stats_stream'
p4
sS'start_address'
p5
L18446743798840055324L
sS'flag'
p6
NsS'program'
p7
NsS'bbs'
p8
(lp9
(ibclass
BBasicBlock
p10
(dp11
S'function'
p12
NsS'binstrs'
p13
(lp14
(ibclass
BInstr
p15
(dp16
g2
NsS'disasm'
p17
S'STP             X29, X30, [SP,#-0x10+var_20]!'
p18
sS'bytes'
p19
S'fd7bbda9'
p20
sS'disasm_striped'
p21
Vstp x29, x30, [sp, #-0x30]!
p22
sg5
L18446743798840055324L
sg6
NsS'mnem'
p23
S'STP'
p24
sS'address'
p25
S'0xffffffc00080561cL'
p26
sS'basicblock'
p27
Nsba(ibclass
BInstr
p28
(dp29
g2
Nsg17
S'MOV             X29, SP'
p30
sg19
S'fd030091'
p31
sg21
Vmov x29, sp
p32
sg5
L18446743798840055328L
sg6
Nsg23
S'MOV'
p33
sg25
S'0xffffffc000805620L'
p34
sg27
Nsba(ibclass
BInstr
p35
(dp36
g2
Nsg17
S'STP             X21, X22, [SP,#0x20+var_s0]'
p37
sg19
S'f55b02a9'
p38
sg21
Vstp x21, x22, [sp, #0x20]
p39
sg5
L18446743798840055332L
sg6
Nsg23
S'STP'
p40
sg25
S'0xffffffc000805624L'
p41
sg27
Nsba(ibclass
BInstr
p42
(dp43
g2
Nsg17
S'STP             X19, X20, [SP,#0x20+var_10]'
p44
sg19
S'f35301a9'
p45
sg21
Vstp x19, x20, [sp, #0x10]
p46
sg5
L18446743798840055336L
sg6
Nsg23
S'STP'
p47
sg25
S'0xffffffc000805628L'
p48
sg27
Nsba(ibclass
BInstr
p49
(dp50
g2
Nsg17
S'MOV             X22, X1'
p51
sg19
S'f60301aa'
p52
sg21
Vmov x22, x1
p53
sg5
L18446743798840055340L
sg6
Nsg23
S'MOV'
p54
sg25
S'0xffffffc00080562cL'
p55
sg27
Nsba(ibclass
BInstr
p56
(dp57
g2
Nsg17
S'MOV             X20, X0'
p58
sg19
S'f40300aa'
p59
sg21
Vmov x20, x0
p60
sg5
L18446743798840055344L
sg6
Nsg23
S'MOV'
p61
sg25
S'0xffffffc000805630L'
p62
sg27
Nsba(ibclass
BInstr
p63
(dp64
g2
Nsg17
S'BL              msm_isp_stats_create_stream'
p65
sg19
S'9dffff97'
p66
sg21
Vbl #0xfffffffffffffe74
p67
sg5
L18446743798840055348L
sg6
Nsg23
S'BL'
p68
sg25
S'0xffffffc000805634L'
p69
sg27
Nsba(ibclass
BInstr
p70
(dp71
g2
Nsg17
S'MOV             W21, W0'
p72
sg19
S'f503002a'
p73
sg21
Vmov w21, w0
p74
sg5
L18446743798840055352L
sg6
Nsg23
S'MOV'
p75
sg25
S'0xffffffc000805638L'
p76
sg27
Nsba(ibclass
BInstr
p77
(dp78
g2
Nsg17
S'TBZ             W21, #0x1F, loc_FFFFFFC00080565C'
p79
sg19
S'1501f836'
p80
sg21
Vtbz w21, #0x1f, #0x20
p81
sg5
L18446743798840055356L
sg6
Nsg23
S'TBZ'
p82
sg25
S'0xffffffc00080563cL'
p83
sg27
NsbasS'disasm_list'
p84
(lp85
S'STP reg9, reg0, mem!'
p86
aS'MOV reg9, SP'
p87
aS'STP reg1, reg2, mem'
p88
aS'STP reg9, reg0, mem'
p89
aS'MOV reg2, reg'
p90
aS'MOV reg0, reg'
p91
aS'BL msm_isp_stats_create_stream'
p92
aS'MOV reg1, reg'
p93
aS'TBZ reg1, #0x1F, func'
p94
asS'end_address'
p95
Nsg5
S'0xffffffc00080561cL'
p96
sS'preds'
p97
(lp98
sg6
NsS'succs'
p99
(lp100
S'0xffffffc000805640L'
p101
aS'0xffffffc00080565cL'
p102
asS'hash_v3'
p103
NsS'flag_v2'
p104
NsS'hash_v1'
p105
S'04703a14b05b92acc40d0f12f43b51dd'
p106
sS'hash_v2'
p107
S'73b144cdbb579cd98364cb96c4e29546'
p108
sS'mnen_list'
p109
(lp110
g24
ag33
ag40
ag47
ag54
ag61
ag68
ag75
ag82
asS'neighbour_disasm_list'
p111
Nsba(ibclass
BBasicBlock
p112
(dp113
g12
Nsg13
(lp114
(ibclass
BInstr
p115
(dp116
g2
Nsg17
S'ADRP            X1, #__func__.27940_0@PAGE; "msm_isp_stats_cfg_ping_pong_address"'
p117
sg19
S'414200d0'
p118
sg21
Vadrp x1, #0x84a000
p119
sg5
L18446743798840055360L
sg6
Nsg23
S'ADRP'
p120
sg25
S'0xffffffc000805640L'
p121
sg27
Nsba(ibclass
BInstr
p122
(dp123
g2
Nsg17
S'ADRP            X0, #unk_FFFFFFC0013CFBB5@PAGE'
p124
sg19
S'405e00d0'
p125
sg21
Vadrp x0, #0xbca000
p126
sg5
L18446743798840055364L
sg6
Nsg23
S'ADRP'
p127
sg25
S'0xffffffc000805644L'
p128
sg27
Nsba(ibclass
BInstr
p129
(dp130
g2
Nsg17
S'ADD             X1, X1, #__func__.27940_0@PAGEOFF; "msm_isp_stats_cfg_ping_pong_address"'
p131
sg19
S'21402591'
p132
sg21
Vadd x1, x1, #0x950
p133
sg5
L18446743798840055368L
sg6
Nsg23
S'ADD'
p134
sg25
S'0xffffffc000805648L'
p135
sg27
Nsba(ibclass
BInstr
p136
(dp137
g2
Nsg17
S'ADD             X1, X1, #0x110'
p138
sg19
S'21400491'
p139
sg21
Vadd x1, x1, #0x110
p140
sg5
L18446743798840055372L
sg6
Nsg23
S'ADD'
p141
sg25
S'0xffffffc00080564cL'
p142
sg27
Nsba(ibclass
BInstr
p143
(dp144
g2
Nsg17
S'ADD             X0, X0, #unk_FFFFFFC0013CFBB5@PAGEOFF'
p145
sg19
S'00d42e91'
p146
sg21
Vadd x0, x0, #0xbb5
p147
sg5
L18446743798840055376L
sg6
Nsg23
S'ADD'
p148
sg25
S'0xffffffc000805650L'
p149
sg27
Nsba(ibclass
BInstr
p150
(dp151
g2
Nsg17
S'BL              printk'
p152
sg19
S'c3b81894'
p153
sg21
Vbl #0x62e30c
p154
sg5
L18446743798840055380L
sg6
Nsg23
S'BL'
p155
sg25
S'0xffffffc000805654L'
p156
sg27
Nsba(ibclass
BInstr
p157
(dp158
g2
Nsg17
S'B               loc_FFFFFFC00080570C'
p159
sg19
S'2d000014'
p160
sg21
Vb #0xb4
p161
sg5
L18446743798840055384L
sg6
Nsg23
S'B'
p162
sg25
S'0xffffffc000805658L'
p163
sg27
Nsbasg84
(lp164
S'ADRP reg, #__func__.27940_0@PAGE'
p165
aS'ADRP reg, #func@PAGE'
p166
aS'ADD reg, reg, #__func__.27940_0@PAGEOFF'
p167
aS'ADD reg, reg, #0x110'
p168
aS'ADD reg, reg, #func@PAGEOFF'
p169
aS'BL printk'
p170
aS'B func'
p171
asg95
Nsg5
S'0xffffffc000805640L'
p172
sg97
(lp173
S'0xffffffc00080561cL'
p174
asg6
Nsg99
(lp175
S'0xffffffc00080570cL'
p176
asg103
Nsg104
Nsg105
S'2c9793ad0fe6f054cbe18acf8837e8db'
p177
sg107
S'048f78415804c9ff0c91eaf818ed9e4a'
p178
sg109
(lp179
g120
ag127
ag134
ag141
ag148
ag155
ag162
asg111
Nsba(ibclass
BBasicBlock
p180
(dp181
g12
Nsg13
(lp182
(ibclass
BInstr
p183
(dp184
g2
Nsg17
S'LDR             X0, [X20,#0x4160]'
p185
sg19
S'80b260f9'
p186
sg21
Vldr x0, [x20, #0x4160]
p187
sg5
L18446743798840055388L
sg6
Nsg23
S'LDR'
p188
sg25
S'0xffffffc00080565cL'
p189
sg27
Nsba(ibclass
BInstr
p190
(dp191
g2
Nsg17
S'LDRB            W2, [X22,#0x20]'
p192
sg19
S'c2824039'
p193
sg21
Vldrb w2, [x22, #0x20]
p194
sg5
L18446743798840055392L
sg6
Nsg23
S'LDR'
p195
sg25
S'0xffffffc000805660L'
p196
sg27
Nsba(ibclass
BInstr
p197
(dp198
g2
Nsg17
S'LDR             X0, [X0,#0x228]'
p199
sg19
S'001441f9'
p200
sg21
Vldr x0, [x0, #0x228]
p201
sg5
L18446743798840055396L
sg6
Nsg23
S'LDR'
p202
sg25
S'0xffffffc000805664L'
p203
sg27
Nsba(ibclass
BInstr
p204
(dp205
g2
Nsg17
S'LDRB            W0, [X0,#0x10]'
p206
sg19
S'00404039'
p207
sg21
Vldrb w0, [x0, #0x10]
p208
sg5
L18446743798840055400L
sg6
Nsg23
S'LDR'
p209
sg25
S'0xffffffc000805668L'
p210
sg27
Nsba(ibclass
BInstr
p211
(dp212
g2
Nsg17
S'CMP             W2, W0'
p213
sg19
S'5f00006b'
p214
sg21
Vcmp w2, w0
p215
sg5
L18446743798840055404L
sg6
Nsg23
S'CMP'
p216
sg25
S'0xffffffc00080566cL'
p217
sg27
Nsba(ibclass
BInstr
p218
(dp219
g2
Nsg17
S'B.CC            loc_FFFFFFC000805694'
p220
sg19
S'23010054'
p221
sg21
Vb.lo #0x24
p222
sg5
L18446743798840055408L
sg6
Nsg23
g162
sg25
S'0xffffffc000805670L'
p223
sg27
Nsbasg84
(lp224
S'LDR reg, mem'
p225
aS'LDRB reg, mem'
p226
aS'LDR reg, mem'
p227
aS'LDRB reg, mem'
p228
aS'CMP reg, reg'
p229
aS'B.CC func'
p230
asg95
Nsg5
S'0xffffffc00080565cL'
p231
sg97
(lp232
S'0xffffffc00080561cL'
p233
asg6
Nsg99
(lp234
S'0xffffffc000805674L'
p235
aS'0xffffffc000805694L'
p236
asg103
Nsg104
Nsg105
S'871ebc1cd0560a3c81f94d1735e4e8d2'
p237
sg107
S'5e4d8036f013b0d05e4f6dd834716132'
p238
sg109
(lp239
g188
ag195
ag202
ag209
ag216
ag162
asg111
Nsba(ibclass
BBasicBlock
p240
(dp241
g12
Nsg13
(lp242
(ibclass
BInstr
p243
(dp244
g2
Nsg17
S'ADRP            X1, #__func__.27940_0@PAGE; "msm_isp_stats_cfg_ping_pong_address"'
p245
sg19
S'414200d0'
p246
sg21
Vadrp x1, #0x84a000
p247
sg5
L18446743798840055412L
sg6
Nsg23
S'ADRP'
p248
sg25
S'0xffffffc000805674L'
p249
sg27
Nsba(ibclass
BInstr
p250
(dp251
g2
Nsg17
S'ADRP            X0, #unk_FFFFFFC0013D02B5@PAGE'
p252
sg19
S'405e00f0'
p253
sg21
Vadrp x0, #0xbcb000
p254
sg5
L18446743798840055416L
sg6
Nsg23
S'ADRP'
p255
sg25
S'0xffffffc000805678L'
p256
sg27
Nsba(ibclass
BInstr
p257
(dp258
g2
Nsg17
S'ADD             X1, X1, #__func__.27940_0@PAGEOFF; "msm_isp_stats_cfg_ping_pong_address"'
p259
sg19
S'21402591'
p260
sg21
Vadd x1, x1, #0x950
p261
sg5
L18446743798840055420L
sg6
Nsg23
S'ADD'
p262
sg25
S'0xffffffc00080567cL'
p263
sg27
Nsba(ibclass
BInstr
p264
(dp265
g2
Nsg17
S'ADD             X0, X0, #unk_FFFFFFC0013D02B5@PAGEOFF'
p266
sg19
S'00d40a91'
p267
sg21
Vadd x0, x0, #0x2b5
p268
sg5
L18446743798840055424L
sg6
Nsg23
S'ADD'
p269
sg25
S'0xffffffc000805680L'
p270
sg27
Nsba(ibclass
BInstr
p271
(dp272
g2
Nsg17
S'ADD             X1, X1, #0x110'
p273
sg19
S'21400491'
p274
sg21
Vadd x1, x1, #0x110
p275
sg5
L18446743798840055428L
sg6
Nsg23
S'ADD'
p276
sg25
S'0xffffffc000805684L'
p277
sg27
Nsba(ibclass
BInstr
p278
(dp279
g2
Nsg17
S'BL              printk'
p280
sg19
S'b6b81894'
p281
sg21
Vbl #0x62e2d8
p282
sg5
L18446743798840055432L
sg6
Nsg23
S'BL'
p283
sg25
S'0xffffffc000805688L'
p284
sg27
Nsba(ibclass
BInstr
p285
(dp286
g2
Nsg17
S'MOV             W21, #0xFFFFFFEA'
p287
sg19
S'b5028012'
p288
sg21
Vmovn w21, #0x15
p289
sg5
L18446743798840055436L
sg6
Nsg23
S'MOV'
p290
sg25
S'0xffffffc00080568cL'
p291
sg27
Nsba(ibclass
BInstr
p292
(dp293
g2
Nsg17
S'B               loc_FFFFFFC00080570C'
p294
sg19
S'1f000014'
p295
sg21
Vb #0x7c
p296
sg5
L18446743798840055440L
sg6
Nsg23
g162
sg25
S'0xffffffc000805690L'
p297
sg27
Nsbasg84
(lp298
S'ADRP reg, #__func__.27940_0@PAGE'
p299
aS'ADRP reg, #func@PAGE'
p300
aS'ADD reg, reg, #__func__.27940_0@PAGEOFF'
p301
aS'ADD reg, reg, #func@PAGEOFF'
p302
aS'ADD reg, reg, #0x110'
p303
aS'BL printk'
p304
aS'MOV reg1, #0xFFFFFFEA'
p305
aS'B func'
p306
asg95
Nsg5
S'0xffffffc000805674L'
p307
sg97
(lp308
S'0xffffffc00080565cL'
p309
asg6
Nsg99
(lp310
S'0xffffffc00080570cL'
p311
asg103
Nsg104
Nsg105
S'f6b4a164d3a83cb5addeace3d1f2fa3b'
p312
sg107
S'1461a0135c7d267d79089db26cd44d66'
p313
sg109
(lp314
g248
ag255
ag262
ag269
ag276
ag283
ag290
ag162
asg111
Nsba(ibclass
BBasicBlock
p315
(dp316
g12
Nsg13
(lp317
(ibclass
BInstr
p318
(dp319
g2
Nsg17
S'ADD             X0, X20, #5,LSL#12'
p320
sg19
S'80164091'
p321
sg21
Vadd x0, x20, #5, lsl #12
p322
sg5
L18446743798840055444L
sg6
Nsg23
S'ADD'
p323
sg25
S'0xffffffc000805694L'
p324
sg27
Nsba(ibclass
BInstr
p325
(dp326
g2
Nsg17
S'MOV             X1, #0x58'
p327
sg19
S'010b80d2'
p328
sg21
Vmovz x1, #0x58
p329
sg5
L18446743798840055448L
sg6
Nsg23
S'MOV'
p330
sg25
S'0xffffffc000805698L'
p331
sg27
Nsba(ibclass
BInstr
p332
(dp333
g2
Nsg17
S'ADD             X0, X0, #0x208'
p334
sg19
S'00200891'
p335
sg21
Vadd x0, x0, #0x208
p336
sg5
L18446743798840055452L
sg6
Nsg23
S'ADD'
p337
sg25
S'0xffffffc00080569cL'
p338
sg27
Nsba(ibclass
BInstr
p339
(dp340
g2
Nsg17
S'MOV             W19, W2'
p341
sg19
S'f303022a'
p342
sg21
Vmov w19, w2
p343
sg5
L18446743798840055456L
sg6
Nsg23
S'MOV'
p344
sg25
S'0xffffffc0008056a0L'
p345
sg27
Nsba(ibclass
BInstr
p346
(dp347
g2
Nsg17
S'MADD            X19, X19, X1, X0'
p348
sg19
S'7302019b'
p349
sg21
Vmadd x19, x19, x1, x0
p350
sg5
L18446743798840055460L
sg6
Nsg23
S'MADD'
p351
sg25
S'0xffffffc0008056a4L'
p352
sg27
Nsba(ibclass
BInstr
p353
(dp354
g2
Nsg17
S'LDR             W0, [X22,#0x10]'
p355
sg19
S'c01240b9'
p356
sg21
Vldr w0, [x22, #0x10]
p357
sg5
L18446743798840055464L
sg6
Nsg23
S'LDR'
p358
sg25
S'0xffffffc0008056a8L'
p359
sg27
Nsba(ibclass
BInstr
p360
(dp361
g2
Nsg17
S'BL              msm_isp_get_framedrop_period'
p362
sg19
S'4edcff97'
p363
sg21
Vbl #0xffffffffffff7138
p364
sg5
L18446743798840055468L
sg6
Nsg23
S'BL'
p365
sg25
S'0xffffffc0008056acL'
p366
sg27
Nsba(ibclass
BInstr
p367
(dp368
g2
Nsg17
S'LDR             W1, [X22,#0x10]'
p369
sg19
S'c11240b9'
p370
sg21
Vldr w1, [x22, #0x10]
p371
sg5
L18446743798840055472L
sg6
Nsg23
S'LDR'
p372
sg25
S'0xffffffc0008056b0L'
p373
sg27
Nsba(ibclass
BInstr
p374
(dp375
g2
Nsg17
S'CMP             W1, #0xA'
p376
sg19
S'3f280071'
p377
sg21
Vcmp w1, #0xa
p378
sg5
L18446743798840055476L
sg6
Nsg23
S'CMP'
p379
sg25
S'0xffffffc0008056b4L'
p380
sg27
Nsba(ibclass
BInstr
p381
(dp382
g2
Nsg17
S'B.NE            loc_FFFFFFC0008056C4'
p383
sg19
S'61000054'
p384
sg21
Vb.ne #0xc
p385
sg5
L18446743798840055480L
sg6
Nsg23
g162
sg25
S'0xffffffc0008056b8L'
p386
sg27
Nsbasg84
(lp387
S'ADD reg, reg0, #5,LSL#12'
p388
aS'MOV reg, #0x58'
p389
aS'ADD reg, reg, #0x208'
p390
aS'MOV reg9, reg'
p391
aS'MADD reg9, reg9, reg, reg'
p392
aS'LDR reg, mem'
p393
aS'BL msm_isp_get_framedrop_period'
p394
aS'LDR reg, mem'
p395
aS'CMP reg, #0xA'
p396
aS'B.NE func'
p397
asg95
Nsg5
S'0xffffffc000805694L'
p398
sg97
(lp399
S'0xffffffc00080565cL'
p400
asg6
Nsg99
(lp401
S'0xffffffc0008056bcL'
p402
aS'0xffffffc0008056c4L'
p403
asg103
Nsg104
Nsg105
S'a2920a9b6a78f2d2685847d57500cf37'
p404
sg107
S'b98831b88ad720a8eb5326cc3fcab5c1'
p405
sg109
(lp406
g323
ag330
ag337
ag344
ag351
ag358
ag365
ag372
ag379
ag162
asg111
Nsba(ibclass
BBasicBlock
p407
(dp408
g12
Nsg13
(lp409
(ibclass
BInstr
p410
(dp411
g2
Nsg17
S'STR             WZR, [X19,#0x18]'
p412
sg19
S'7f1a00b9'
p413
sg21
Vstr wzr, [x19, #0x18]
p414
sg5
L18446743798840055484L
sg6
Nsg23
S'STR'
p415
sg25
S'0xffffffc0008056bcL'
p416
sg27
Nsba(ibclass
BInstr
p417
(dp418
g2
Nsg17
S'B               loc_FFFFFFC0008056CC'
p419
sg19
S'03000014'
p420
sg21
Vb #0xc
p421
sg5
L18446743798840055488L
sg6
Nsg23
g162
sg25
S'0xffffffc0008056c0L'
p422
sg27
Nsbasg84
(lp423
S'STR WZR, mem'
p424
aS'B func'
p425
asg95
Nsg5
S'0xffffffc0008056bcL'
p426
sg97
(lp427
S'0xffffffc000805694L'
p428
asg6
Nsg99
(lp429
S'0xffffffc0008056ccL'
p430
asg103
Nsg104
Nsg105
S'bb4d1d0d0e01d20d3b7cbdf52fe2caa6'
p431
sg107
S'50a3779d3c6333ad8958c7efcd72baf0'
p432
sg109
(lp433
g415
ag162
asg111
Nsba(ibclass
BBasicBlock
p434
(dp435
g12
Nsg13
(lp436
(ibclass
BInstr
p437
(dp438
g2
Nsg17
S'MOV             W1, #1'
p439
sg19
S'21008052'
p440
sg21
Vmovz w1, #0x1
p441
sg5
L18446743798840055492L
sg6
Nsg23
S'MOV'
p442
sg25
S'0xffffffc0008056c4L'
p443
sg27
Nsba(ibclass
BInstr
p444
(dp445
g2
Nsg17
S'STR             W1, [X19,#0x18]'
p446
sg19
S'611a00b9'
p447
sg21
Vstr w1, [x19, #0x18]
p448
sg5
L18446743798840055496L
sg6
Nsg23
S'STR'
p449
sg25
S'0xffffffc0008056c8L'
p450
sg27
Nsbasg84
(lp451
S'MOV reg, #1'
p452
aS'STR reg, mem'
p453
asg95
Nsg5
S'0xffffffc0008056c4L'
p454
sg97
(lp455
S'0xffffffc000805694L'
p456
asg6
Nsg99
(lp457
S'0xffffffc0008056ccL'
p458
asg103
Nsg104
Nsg105
S'3eed647220a7a2b9a25f701446ac2ce1'
p459
sg107
S'6b89b2efd2f8141bdb26ef2f183dfeba'
p460
sg109
(lp461
g442
ag449
asg111
Nsba(ibclass
BBasicBlock
p462
(dp463
g12
Nsg13
(lp464
(ibclass
BInstr
p465
(dp466
g2
Nsg17
S'SUB             W0, W0, #1'
p467
sg19
S'00040051'
p468
sg21
Vsub w0, w0, #1
p469
sg5
L18446743798840055500L
sg6
Nsg23
S'SUB'
p470
sg25
S'0xffffffc0008056ccL'
p471
sg27
Nsba(ibclass
BInstr
p472
(dp473
g2
Nsg17
S'STR             W0, [X19,#0x1C]'
p474
sg19
S'601e00b9'
p475
sg21
Vstr w0, [x19, #0x1c]
p476
sg5
L18446743798840055504L
sg6
Nsg23
S'STR'
p477
sg25
S'0xffffffc0008056d0L'
p478
sg27
Nsba(ibclass
BInstr
p479
(dp480
g2
Nsg17
S'LDR             W0, [X19,#0xC]'
p481
sg19
S'600e40b9'
p482
sg21
Vldr w0, [x19, #0xc]
p483
sg5
L18446743798840055508L
sg6
Nsg23
S'LDR'
p484
sg25
S'0xffffffc0008056d4L'
p485
sg27
Nsba(ibclass
BInstr
p486
(dp487
g2
Nsg17
S'CBNZ            W0, loc_FFFFFFC0008056F0'
p488
sg19
S'c0000035'
p489
sg21
Vcbnz w0, #0x18
p490
sg5
L18446743798840055512L
sg6
Nsg23
S'CBNZ'
p491
sg25
S'0xffffffc0008056d8L'
p492
sg27
Nsbasg84
(lp493
S'SUB reg, reg, #1'
p494
aS'STR reg, mem'
p495
aS'LDR reg, mem'
p496
aS'CBNZ reg, func'
p497
asg95
Nsg5
S'0xffffffc0008056ccL'
p498
sg97
(lp499
S'0xffffffc0008056bcL'
p500
aS'0xffffffc0008056c4L'
p501
asg6
Nsg99
(lp502
S'0xffffffc0008056dcL'
p503
aS'0xffffffc0008056f0L'
p504
asg103
Nsg104
Nsg105
S'25425ad3dc0a8f69501cc578774bda20'
p505
sg107
S'245581c25fb93424198001d1e42b2c74'
p506
sg109
(lp507
g470
ag477
ag484
ag491
asg111
Nsba(ibclass
BBasicBlock
p508
(dp509
g12
Nsg13
(lp510
(ibclass
BInstr
p511
(dp512
g2
Nsg17
S'LDR             X0, [X20,#0x4160]'
p513
sg19
S'80b260f9'
p514
sg21
Vldr x0, [x20, #0x4160]
p515
sg5
L18446743798840055516L
sg6
Nsg23
S'LDR'
p516
sg25
S'0xffffffc0008056dcL'
p517
sg27
Nsba(ibclass
BInstr
p518
(dp519
g2
Nsg17
S'MOV             X1, X19'
p520
sg19
S'e10313aa'
p521
sg21
Vmov x1, x19
p522
sg5
L18446743798840055520L
sg6
Nsg23
S'MOV'
p523
sg25
S'0xffffffc0008056e0L'
p524
sg27
Nsba(ibclass
BInstr
p525
(dp526
g2
Nsg17
S'LDR             X2, [X0,#0x1C0]'
p527
sg19
S'02e040f9'
p528
sg21
Vldr x2, [x0, #0x1c0]
p529
sg5
L18446743798840055524L
sg6
Nsg23
S'LDR'
p530
sg25
S'0xffffffc0008056e4L'
p531
sg27
Nsba(ibclass
BInstr
p532
(dp533
g2
Nsg17
S'MOV             X0, X20'
p534
sg19
S'e00314aa'
p535
sg21
Vmov x0, x20
p536
sg5
L18446743798840055528L
sg6
Nsg23
S'MOV'
p537
sg25
S'0xffffffc0008056e8L'
p538
sg27
Nsba(ibclass
BInstr
p539
(dp540
g2
Nsg17
S'BLR             X2'
p541
sg19
S'40003fd6'
p542
sg21
Vblr x2
p543
sg5
L18446743798840055532L
sg6
Nsg23
S'BLR'
p544
sg25
S'0xffffffc0008056ecL'
p545
sg27
Nsbasg84
(lp546
S'LDR reg, mem'
p547
aS'MOV reg, reg9'
p548
aS'LDR reg, mem'
p549
aS'MOV reg, reg0'
p550
aS'BLR reg'
p551
asg95
Nsg5
S'0xffffffc0008056dcL'
p552
sg97
(lp553
S'0xffffffc0008056ccL'
p554
asg6
Nsg99
(lp555
S'0xffffffc0008056f0L'
p556
asg103
Nsg104
Nsg105
S'06b02e1eda656563a84c2f8c39fa0bf4'
p557
sg107
S'14f568b7c13ce90378d4b58aac2300d2'
p558
sg109
(lp559
g516
ag523
ag530
ag537
ag544
asg111
Nsba(ibclass
BBasicBlock
p560
(dp561
g12
Nsg13
(lp562
(ibclass
BInstr
p563
(dp564
g2
Nsg17
S'LDR             W0, [X19,#0x24]'
p565
sg19
S'602640b9'
p566
sg21
Vldr w0, [x19, #0x24]
p567
sg5
L18446743798840055536L
sg6
Nsg23
S'LDR'
p568
sg25
S'0xffffffc0008056f0L'
p569
sg27
Nsba(ibclass
BInstr
p570
(dp571
g2
Nsg17
S'CBNZ            W0, loc_FFFFFFC00080570C'
p572
sg19
S'c0000035'
p573
sg21
Vcbnz w0, #0x18
p574
sg5
L18446743798840055540L
sg6
Nsg23
S'CBNZ'
p575
sg25
S'0xffffffc0008056f4L'
p576
sg27
Nsbasg84
(lp577
S'LDR reg, mem'
p578
aS'CBNZ reg, func'
p579
asg95
Nsg5
S'0xffffffc0008056f0L'
p580
sg97
(lp581
S'0xffffffc0008056ccL'
p582
aS'0xffffffc0008056dcL'
p583
asg6
Nsg99
(lp584
S'0xffffffc0008056f8L'
p585
aS'0xffffffc00080570cL'
p586
asg103
Nsg104
Nsg105
S'5522ad3e8b25e3a8f9013bb9571723e7'
p587
sg107
S'7604765c3c810c2510cc031abcc4f1e2'
p588
sg109
(lp589
g568
ag575
asg111
Nsba(ibclass
BBasicBlock
p590
(dp591
g12
Nsg13
(lp592
(ibclass
BInstr
p593
(dp594
g2
Nsg17
S'LDR             X0, [X20,#0x4160]'
p595
sg19
S'80b260f9'
p596
sg21
Vldr x0, [x20, #0x4160]
p597
sg5
L18446743798840055544L
sg6
Nsg23
S'LDR'
p598
sg25
S'0xffffffc0008056f8L'
p599
sg27
Nsba(ibclass
BInstr
p600
(dp601
g2
Nsg17
S'MOV             X1, X19'
p602
sg19
S'e10313aa'
p603
sg21
Vmov x1, x19
p604
sg5
L18446743798840055548L
sg6
Nsg23
S'MOV'
p605
sg25
S'0xffffffc0008056fcL'
p606
sg27
Nsba(ibclass
BInstr
p607
(dp608
g2
Nsg17
S'LDR             X2, [X0,#0x1D0]'
p609
sg19
S'02e840f9'
p610
sg21
Vldr x2, [x0, #0x1d0]
p611
sg5
L18446743798840055552L
sg6
Nsg23
S'LDR'
p612
sg25
S'0xffffffc000805700L'
p613
sg27
Nsba(ibclass
BInstr
p614
(dp615
g2
Nsg17
S'MOV             X0, X20'
p616
sg19
S'e00314aa'
p617
sg21
Vmov x0, x20
p618
sg5
L18446743798840055556L
sg6
Nsg23
S'MOV'
p619
sg25
S'0xffffffc000805704L'
p620
sg27
Nsba(ibclass
BInstr
p621
(dp622
g2
Nsg17
S'BLR             X2'
p623
sg19
S'40003fd6'
p624
sg21
Vblr x2
p625
sg5
L18446743798840055560L
sg6
Nsg23
S'BLR'
p626
sg25
S'0xffffffc000805708L'
p627
sg27
Nsbasg84
(lp628
S'LDR reg, mem'
p629
aS'MOV reg, reg9'
p630
aS'LDR reg, mem'
p631
aS'MOV reg, reg0'
p632
aS'BLR reg'
p633
asg95
Nsg5
S'0xffffffc0008056f8L'
p634
sg97
(lp635
S'0xffffffc0008056f0L'
p636
asg6
Nsg99
(lp637
S'0xffffffc00080570cL'
p638
asg103
Nsg104
Nsg105
S'06b02e1eda656563a84c2f8c39fa0bf4'
p639
sg107
S'14f568b7c13ce90378d4b58aac2300d2'
p640
sg109
(lp641
g598
ag605
ag612
ag619
ag626
asg111
Nsba(ibclass
BBasicBlock
p642
(dp643
g12
Nsg13
(lp644
(ibclass
BInstr
p645
(dp646
g2
Nsg17
S'MOV             W0, W21'
p647
sg19
S'e003152a'
p648
sg21
Vmov w0, w21
p649
sg5
L18446743798840055564L
sg6
Nsg23
S'MOV'
p650
sg25
S'0xffffffc00080570cL'
p651
sg27
Nsba(ibclass
BInstr
p652
(dp653
g2
Nsg17
S'LDP             X19, X20, [SP,#0x20+var_10]'
p654
sg19
S'f35341a9'
p655
sg21
Vldp x19, x20, [sp, #0x10]
p656
sg5
L18446743798840055568L
sg6
Nsg23
S'LDP'
p657
sg25
S'0xffffffc000805710L'
p658
sg27
Nsba(ibclass
BInstr
p659
(dp660
g2
Nsg17
S'LDP             X21, X22, [SP,#0x20+var_s0]'
p661
sg19
S'f55b42a9'
p662
sg21
Vldp x21, x22, [sp, #0x20]
p663
sg5
L18446743798840055572L
sg6
Nsg23
S'LDP'
p664
sg25
S'0xffffffc000805714L'
p665
sg27
Nsba(ibclass
BInstr
p666
(dp667
g2
Nsg17
S'LDP             X29, X30, [SP+0x20+var_20],#0x30'
p668
sg19
S'fd7bc3a8'
p669
sg21
Vldp x29, x30, [sp], #0x30
p670
sg5
L18446743798840055576L
sg6
Nsg23
S'LDP'
p671
sg25
S'0xffffffc000805718L'
p672
sg27
Nsba(ibclass
BInstr
p673
(dp674
g2
Nsg17
S'RET'
p675
sg19
S'c0035fd6'
p676
sg21
Vret 
p677
sg5
L18446743798840055580L
sg6
Nsg23
S'RET'
p678
sg25
S'0xffffffc00080571cL'
p679
sg27
Nsbasg84
(lp680
S'MOV reg, reg1'
p681
aS'LDP reg9, reg0, mem'
p682
aS'LDP reg1, reg2, mem'
p683
aS'LDP reg9, reg0, mem,#0x30'
p684
ag675
asg95
Nsg5
S'0xffffffc00080570cL'
p685
sg97
(lp686
S'0xffffffc000805640L'
p687
aS'0xffffffc000805674L'
p688
aS'0xffffffc0008056f0L'
p689
aS'0xffffffc0008056f8L'
p690
asg6
Nsg99
(lp691
sg103
Nsg104
Nsg105
S'db0416338a9284f5d25dbdb684cf2c5b'
p692
sg107
S'f75f8d14a993e93776c15cda1b0a0e52'
p693
sg109
(lp694
g650
ag657
ag664
ag671
ag678
asg111
Nsbasb.