(ibclass
BFunc
p0
(dp1
S'hash'
p2
NsS'name'
p3
S'msm_lsm_open'
p4
sS'start_address'
p5
L18446743798844431460L
sS'flag'
p6
NsS'program'
p7
NsS'bbs'
p8
(lp9
(ibclass
BBasicBlock
p10
(dp11
S'function'
p12
NsS'binstrs'
p13
(lp14
(ibclass
BInstr
p15
(dp16
g2
NsS'disasm'
p17
S'STP             X29, X30, [SP,#-0x10+var_30]!'
p18
sS'bytes'
p19
S'fd7bbca9'
p20
sS'disasm_striped'
p21
Vstp x29, x30, [sp, #-0x40]!
p22
sg5
L18446743798844431460L
sg6
NsS'mnem'
p23
S'STP'
p24
sS'address'
p25
S'0xffffffc000c31c64L'
p26
sS'basicblock'
p27
Nsba(ibclass
BInstr
p28
(dp29
g2
Nsg17
S'MOV             X29, SP'
p30
sg19
S'fd030091'
p31
sg21
Vmov x29, sp
p32
sg5
L18446743798844431464L
sg6
Nsg23
S'MOV'
p33
sg25
S'0xffffffc000c31c68L'
p34
sg27
Nsba(ibclass
BInstr
p35
(dp36
g2
Nsg17
S'STP             X21, X22, [SP,#0x30+var_10]'
p37
sg19
S'f55b02a9'
p38
sg21
Vstp x21, x22, [sp, #0x20]
p39
sg5
L18446743798844431468L
sg6
Nsg23
S'STP'
p40
sg25
S'0xffffffc000c31c6cL'
p41
sg27
Nsba(ibclass
BInstr
p42
(dp43
g2
Nsg17
S'STP             X19, X20, [SP,#0x30+var_20]'
p44
sg19
S'f35301a9'
p45
sg21
Vstp x19, x20, [sp, #0x10]
p46
sg5
L18446743798844431472L
sg6
Nsg23
S'STP'
p47
sg25
S'0xffffffc000c31c70L'
p48
sg27
Nsba(ibclass
BInstr
p49
(dp50
g2
Nsg17
S'STR             X23, [SP,#0x30+var_s0]'
p51
sg19
S'f71b00f9'
p52
sg21
Vstr x23, [sp, #0x30]
p53
sg5
L18446743798844431476L
sg6
Nsg23
S'STR'
p54
sg25
S'0xffffffc000c31c74L'
p55
sg27
Nsba(ibclass
BInstr
p56
(dp57
g2
Nsg17
S'MOV             X22, X0'
p58
sg19
S'f60300aa'
p59
sg21
Vmov x22, x0
p60
sg5
L18446743798844431480L
sg6
Nsg23
S'MOV'
p61
sg25
S'0xffffffc000c31c78L'
p62
sg27
Nsba(ibclass
BInstr
p63
(dp64
g2
Nsg17
S'LDR             X20, [X0,#0x180]'
p65
sg19
S'14c040f9'
p66
sg21
Vldr x20, [x0, #0x180]
p67
sg5
L18446743798844431484L
sg6
Nsg23
S'LDR'
p68
sg25
S'0xffffffc000c31c7cL'
p69
sg27
Nsba(ibclass
BInstr
p70
(dp71
g2
Nsg17
S'ADRP            X0, #descriptor.29838@PAGE'
p72
sg19
S'006500f0'
p73
sg21
Vadrp x0, #0xca3000
p74
sg5
L18446743798844431488L
sg6
Nsg23
S'ADRP'
p75
sg25
S'0xffffffc000c31c80L'
p76
sg27
Nsba(ibclass
BInstr
p77
(dp78
g2
Nsg17
S'ADD             X0, X0, #descriptor.29838@PAGEOFF'
p79
sg19
S'00400a91'
p80
sg21
Vadd x0, x0, #0x290
p81
sg5
L18446743798844431492L
sg6
Nsg23
S'ADD'
p82
sg25
S'0xffffffc000c31c84L'
p83
sg27
Nsba(ibclass
BInstr
p84
(dp85
g2
Nsg17
S'ADD             X0, X0, #0x460'
p86
sg19
S'00801191'
p87
sg21
Vadd x0, x0, #0x460
p88
sg5
L18446743798844431496L
sg6
Nsg23
S'ADD'
p89
sg25
S'0xffffffc000c31c88L'
p90
sg27
Nsba(ibclass
BInstr
p91
(dp92
g2
Nsg17
S'LDRH            W1, [X0,#(word_FFFFFFC0018D4712 - 0xFFFFFFC0018D46F0)]'
p93
sg19
S'01444079'
p94
sg21
Vldrh w1, [x0, #0x22]
p95
sg5
L18446743798844431500L
sg6
Nsg23
S'LDR'
p96
sg25
S'0xffffffc000c31c8cL'
p97
sg27
Nsba(ibclass
BInstr
p98
(dp99
g2
Nsg17
S'ADRP            X21, #__func__.29837@PAGE; "msm_lsm_pcm_pointer"'
p100
sg19
S'55230090'
p101
sg21
Vadrp x21, #0x468000
p102
sg5
L18446743798844431504L
sg6
Nsg23
S'ADRP'
p103
sg25
S'0xffffffc000c31c90L'
p104
sg27
Nsba(ibclass
BInstr
p105
(dp106
g2
Nsg17
S'TBZ             W1, #2, loc_FFFFFFC000C31CAC'
p107
sg19
S'c1001036'
p108
sg21
Vtbz w1, #2, #0x18
p109
sg5
L18446743798844431508L
sg6
Nsg23
S'TBZ'
p110
sg25
S'0xffffffc000c31c94L'
p111
sg27
NsbasS'disasm_list'
p112
(lp113
S'STP reg9, reg0, mem!'
p114
aS'MOV reg9, SP'
p115
aS'STP reg1, reg2, mem'
p116
aS'STP reg9, reg0, mem'
p117
aS'STR reg3, mem'
p118
aS'MOV reg2, reg'
p119
aS'LDR reg0, mem'
p120
aS'ADRP reg, #descriptor.29838@PAGE'
p121
aS'ADD reg, reg, #descriptor.29838@PAGEOFF'
p122
aS'ADD reg, reg, #0x460'
p123
aS'LDRH reg, mem'
p124
aS'ADRP reg1, #__func__.29837@PAGE'
p125
aS'TBZ reg, #2, func'
p126
asS'end_address'
p127
Nsg5
S'0xffffffc000c31c64L'
p128
sS'preds'
p129
(lp130
sg6
NsS'succs'
p131
(lp132
S'0xffffffc000c31c98L'
p133
aS'0xffffffc000c31cacL'
p134
asS'hash_v3'
p135
NsS'flag_v2'
p136
NsS'hash_v1'
p137
S'101c9357710f28c81437646d2fbc5339'
p138
sS'hash_v2'
p139
S'd88a1aad7dbdc45f45bce4c01f5b9580'
p140
sS'mnen_list'
p141
(lp142
g24
ag33
ag40
ag47
ag54
ag61
ag68
ag75
ag82
ag89
ag96
ag103
ag110
asS'neighbour_disasm_list'
p143
Nsba(ibclass
BBasicBlock
p144
(dp145
g12
Nsg13
(lp146
(ibclass
BInstr
p147
(dp148
g2
Nsg17
S'ADD             X2, X21, #__func__.29837@PAGEOFF; "msm_lsm_pcm_pointer"'
p149
sg19
S'a2e20591'
p150
sg21
Vadd x2, x21, #0x178
p151
sg5
L18446743798844431512L
sg6
Nsg23
S'ADD'
p152
sg25
S'0xffffffc000c31c98L'
p153
sg27
Nsba(ibclass
BInstr
p154
(dp155
g2
Nsg17
S'ADRP            X1, #(aS_20+1)@PAGE; "%s\\n"'
p156
sg19
S'013e00d0'
p157
sg21
Vadrp x1, #0x7c2000
p158
sg5
L18446743798844431516L
sg6
Nsg23
S'ADRP'
p159
sg25
S'0xffffffc000c31c9cL'
p160
sg27
Nsba(ibclass
BInstr
p161
(dp162
g2
Nsg17
S'ADD             X1, X1, #(aS_20+1)@PAGEOFF; "%s\\n"'
p163
sg19
S'21841891'
p164
sg21
Vadd x1, x1, #0x621
p165
sg5
L18446743798844431520L
sg6
Nsg23
S'ADD'
p166
sg25
S'0xffffffc000c31ca0L'
p167
sg27
Nsba(ibclass
BInstr
p168
(dp169
g2
Nsg17
S'ADD             X2, X2, #0xC8'
p170
sg19
S'42200391'
p171
sg21
Vadd x2, x2, #0xc8
p172
sg5
L18446743798844431524L
sg6
Nsg23
S'ADD'
p173
sg25
S'0xffffffc000c31ca4L'
p174
sg27
Nsba(ibclass
BInstr
p175
(dp176
g2
Nsg17
S'BL              __dynamic_pr_debug'
p177
sg19
S'c040e097'
p178
sg21
Vbl #0xffffffffff810300
p179
sg5
L18446743798844431528L
sg6
Nsg23
S'BL'
p180
sg25
S'0xffffffc000c31ca8L'
p181
sg27
Nsbasg112
(lp182
S'ADD reg, reg1, #__func__.29837@PAGEOFF'
p183
aS'ADRP reg, #(aS_20+1)@PAGE'
p184
aS'ADD reg, reg, #(aS_20+1)@PAGEOFF'
p185
aS'ADD reg, reg, #0xC8'
p186
aS'BL __dynamic_pr_debug'
p187
asg127
Nsg5
S'0xffffffc000c31c98L'
p188
sg129
(lp189
S'0xffffffc000c31c64L'
p190
asg6
Nsg131
(lp191
S'0xffffffc000c31cacL'
p192
asg135
Nsg136
Nsg137
S'8d1bf16f7cb354fdeda7928c39aa90f0'
p193
sg139
S'e3ac89157b6e7a4ab6c253d816512105'
p194
sg141
(lp195
g152
ag159
ag166
ag173
ag180
asg143
Nsba(ibclass
BBasicBlock
p196
(dp197
g12
Nsg13
(lp198
(ibclass
BInstr
p199
(dp200
g2
Nsg17
S'ADRP            X0, #qword_FFFFFFC000E495F0@PAGE'
p201
sg19
S'c0100090'
p202
sg21
Vadrp x0, #0x218000
p203
sg5
L18446743798844431532L
sg6
Nsg23
S'ADRP'
p204
sg25
S'0xffffffc000c31cacL'
p205
sg27
Nsba(ibclass
BInstr
p206
(dp207
g2
Nsg17
S'LDR             X0, [X0,#qword_FFFFFFC000E495F0@PAGEOFF]'
p208
sg19
S'00f842f9'
p209
sg21
Vldr x0, [x0, #0x5f0]
p210
sg5
L18446743798844431536L
sg6
Nsg23
S'LDR'
p211
sg25
S'0xffffffc000c31cb0L'
p212
sg27
Nsba(ibclass
BInstr
p213
(dp214
g2
Nsg17
S'MOV             W1, #0x80D0'
p215
sg19
S'011a9052'
p216
sg21
Vmovz w1, #0x80d0
p217
sg5
L18446743798844431540L
sg6
Nsg23
S'MOV'
p218
sg25
S'0xffffffc000c31cb4L'
p219
sg27
Nsba(ibclass
BInstr
p220
(dp221
g2
Nsg17
S'LDR             X0, [X0,#0x38]'
p222
sg19
S'001c40f9'
p223
sg21
Vldr x0, [x0, #0x38]
p224
sg5
L18446743798844431544L
sg6
Nsg23
S'LDR'
p225
sg25
S'0xffffffc000c31cb8L'
p226
sg27
Nsba(ibclass
BInstr
p227
(dp228
g2
Nsg17
S'MOV             X2, #0x70'
p229
sg19
S'020e80d2'
p230
sg21
Vmovz x2, #0x70
p231
sg5
L18446743798844431548L
sg6
Nsg23
S'MOV'
p232
sg25
S'0xffffffc000c31cbcL'
p233
sg27
Nsba(ibclass
BInstr
p234
(dp235
g2
Nsg17
S'BL              kmem_cache_alloc_trace'
p236
sg19
S'cd02db97'
p237
sg21
Vbl #0xffffffffff6c0b34
p238
sg5
L18446743798844431552L
sg6
Nsg23
S'BL'
p239
sg25
S'0xffffffc000c31cc0L'
p240
sg27
Nsba(ibclass
BInstr
p241
(dp242
g2
Nsg17
S'MOV             X19, X0'
p243
sg19
S'f30300aa'
p244
sg21
Vmov x19, x0
p245
sg5
L18446743798844431556L
sg6
Nsg23
S'MOV'
p246
sg25
S'0xffffffc000c31cc4L'
p247
sg27
Nsba(ibclass
BInstr
p248
(dp249
g2
Nsg17
S'CBNZ            X0, loc_FFFFFFC000C31CE4'
p250
sg19
S'e00000b5'
p251
sg21
Vcbnz x0, #0x1c
p252
sg5
L18446743798844431560L
sg6
Nsg23
S'CBNZ'
p253
sg25
S'0xffffffc000c31cc8L'
p254
sg27
Nsbasg112
(lp255
S'ADRP reg, #func@PAGE'
p256
aS'LDR reg, mem'
p257
aS'MOV reg, #0x80D0'
p258
aS'LDR reg, mem'
p259
aS'MOV reg, #0x70'
p260
aS'BL kmem_cache_alloc_trace'
p261
aS'MOV reg9, reg'
p262
aS'CBNZ reg, func'
p263
asg127
Nsg5
S'0xffffffc000c31cacL'
p264
sg129
(lp265
S'0xffffffc000c31c64L'
p266
aS'0xffffffc000c31c98L'
p267
asg6
Nsg131
(lp268
S'0xffffffc000c31cccL'
p269
aS'0xffffffc000c31ce4L'
p270
asg135
Nsg136
Nsg137
S'5b2cb9ebe24c3adfcc6105f0ee5af2e3'
p271
sg139
S'9f712db5dc82a52ffb690d17eab9b537'
p272
sg141
(lp273
g204
ag211
ag218
ag225
ag232
ag239
ag246
ag253
asg143
Nsba(ibclass
BBasicBlock
p274
(dp275
g12
Nsg13
(lp276
(ibclass
BInstr
p277
(dp278
g2
Nsg17
S'ADD             X1, X21, #__func__.29837@PAGEOFF; "msm_lsm_pcm_pointer"'
p279
sg19
S'a1e20591'
p280
sg21
Vadd x1, x21, #0x178
p281
sg5
L18446743798844431564L
sg6
Nsg23
S'ADD'
p282
sg25
S'0xffffffc000c31cccL'
p283
sg27
Nsba(ibclass
BInstr
p284
(dp285
g2
Nsg17
S'ADRP            X0, #unk_FFFFFFC0014D900E@PAGE'
p286
sg19
S'40450090'
p287
sg21
Vadrp x0, #0x8a8000
p288
sg5
L18446743798844431568L
sg6
Nsg23
S'ADRP'
p289
sg25
S'0xffffffc000c31cd0L'
p290
sg27
Nsba(ibclass
BInstr
p291
(dp292
g2
Nsg17
S'ADD             X1, X1, #0xC8'
p293
sg19
S'21200391'
p294
sg21
Vadd x1, x1, #0xc8
p295
sg5
L18446743798844431572L
sg6
Nsg23
S'ADD'
p296
sg25
S'0xffffffc000c31cd4L'
p297
sg27
Nsba(ibclass
BInstr
p298
(dp299
g2
Nsg17
S'ADD             X0, X0, #unk_FFFFFFC0014D900E@PAGEOFF'
p300
sg19
S'00380091'
p301
sg21
Vadd x0, x0, #0xe
p302
sg5
L18446743798844431576L
sg6
Nsg23
S'ADD'
p303
sg25
S'0xffffffc000c31cd8L'
p304
sg27
Nsba(ibclass
BInstr
p305
(dp306
g2
Nsg17
S'BL              printk'
p307
sg19
S'21070894'
p308
sg21
Vbl #0x201c84
p309
sg5
L18446743798844431580L
sg6
Nsg23
S'BL'
p310
sg25
S'0xffffffc000c31cdcL'
p311
sg27
Nsba(ibclass
BInstr
p312
(dp313
g2
Nsg17
S'B               loc_FFFFFFC000C31E60'
p314
sg19
S'60000014'
p315
sg21
Vb #0x180
p316
sg5
L18446743798844431584L
sg6
Nsg23
S'B'
p317
sg25
S'0xffffffc000c31ce0L'
p318
sg27
Nsbasg112
(lp319
S'ADD reg, reg1, #__func__.29837@PAGEOFF'
p320
aS'ADRP reg, #func@PAGE'
p321
aS'ADD reg, reg, #0xC8'
p322
aS'ADD reg, reg, #func@PAGEOFF'
p323
aS'BL printk'
p324
aS'B func'
p325
asg127
Nsg5
S'0xffffffc000c31cccL'
p326
sg129
(lp327
S'0xffffffc000c31cacL'
p328
asg6
Nsg131
(lp329
S'0xffffffc000c31e60L'
p330
asg135
Nsg136
Nsg137
S'fbc418f60452038480cae844c5c24371'
p331
sg139
S'13956a8ef31574967042fd4ea94a5779'
p332
sg141
(lp333
g282
ag289
ag296
ag303
ag310
ag317
asg143
Nsba(ibclass
BBasicBlock
p334
(dp335
g12
Nsg13
(lp336
(ibclass
BInstr
p337
(dp338
g2
Nsg17
S'ADRP            X23, #hpcm_drv@PAGE'
p339
sg19
S'378f00d0'
p340
sg21
Vadrp x23, #0x11e6000
p341
sg5
L18446743798844431588L
sg6
Nsg23
S'ADRP'
p342
sg25
S'0xffffffc000c31ce4L'
p343
sg27
Nsba(ibclass
BInstr
p344
(dp345
g2
Nsg17
S'ADD             X23, X23, #hpcm_drv@PAGEOFF'
p346
sg19
S'f7620c91'
p347
sg21
Vadd x23, x23, #0x318
p348
sg5
L18446743798844431592L
sg6
Nsg23
S'ADD'
p349
sg25
S'0xffffffc000c31ce8L'
p350
sg27
Nsba(ibclass
BInstr
p351
(dp352
g2
Nsg17
S'ADRP            X1, #aPrtdEvent_wait@PAGE; "&prtd->event_wait"'
p353
sg19
S'41450090'
p354
sg21
Vadrp x1, #0x8a8000
p355
sg5
L18446743798844431596L
sg6
Nsg23
S'ADRP'
p356
sg25
S'0xffffffc000c31cecL'
p357
sg27
Nsba(ibclass
BInstr
p358
(dp359
g2
Nsg17
S'STRH            WZR, [X0,#0x18]'
p360
sg19
S'1f300079'
p361
sg21
Vstrh wzr, [x0, #0x18]
p362
sg5
L18446743798844431600L
sg6
Nsg23
S'STR'
p363
sg25
S'0xffffffc000c31cf0L'
p364
sg27
Nsba(ibclass
BInstr
p365
(dp366
g2
Nsg17
S'STRH            WZR, [X0,#0x1A]'
p367
sg19
S'1f340079'
p368
sg21
Vstrh wzr, [x0, #0x1a]
p369
sg5
L18446743798844431604L
sg6
Nsg23
S'STR'
p370
sg25
S'0xffffffc000c31cf4L'
p371
sg27
Nsba(ibclass
BInstr
p372
(dp373
g2
Nsg17
S'ADD             X1, X1, #aPrtdEvent_wait@PAGEOFF; "&prtd->event_wait"'
p374
sg19
S'21f00091'
p375
sg21
Vadd x1, x1, #0x3c
p376
sg5
L18446743798844431608L
sg6
Nsg23
S'ADD'
p377
sg25
S'0xffffffc000c31cf8L'
p378
sg27
Nsba(ibclass
BInstr
p379
(dp380
g2
Nsg17
S'ADD             X0, X0, #0x20'
p381
sg19
S'00800091'
p382
sg21
Vadd x0, x0, #0x20
p383
sg5
L18446743798844431612L
sg6
Nsg23
S'ADD'
p384
sg25
S'0xffffffc000c31cfcL'
p385
sg27
Nsba(ibclass
BInstr
p386
(dp387
g2
Nsg17
S'MOV             X2, X23'
p388
sg19
S'e20317aa'
p389
sg21
Vmov x2, x23
p390
sg5
L18446743798844431616L
sg6
Nsg23
S'MOV'
p391
sg25
S'0xffffffc000c31d00L'
p392
sg27
Nsba(ibclass
BInstr
p393
(dp394
g2
Nsg17
S'BL              __init_waitqueue_head'
p395
sg19
S'b438d897'
p396
sg21
Vbl #0xffffffffff60e2d0
p397
sg5
L18446743798844431620L
sg6
Nsg23
S'BL'
p398
sg25
S'0xffffffc000c31d04L'
p399
sg27
Nsba(ibclass
BInstr
p400
(dp401
g2
Nsg17
S'ADRP            X1, #aPrtdPeriod_wai@PAGE; "&prtd->period_wait"'
p402
sg19
S'41450090'
p403
sg21
Vadrp x1, #0x8a8000
p404
sg5
L18446743798844431624L
sg6
Nsg23
S'ADRP'
p405
sg25
S'0xffffffc000c31d08L'
p406
sg27
Nsba(ibclass
BInstr
p407
(dp408
g2
Nsg17
S'ADD             X0, X19, #0x50'
p409
sg19
S'60420191'
p410
sg21
Vadd x0, x19, #0x50
p411
sg5
L18446743798844431628L
sg6
Nsg23
S'ADD'
p412
sg25
S'0xffffffc000c31d0cL'
p413
sg27
Nsba(ibclass
BInstr
p414
(dp415
g2
Nsg17
S'ADD             X1, X1, #aPrtdPeriod_wai@PAGEOFF; "&prtd->period_wait"'
p416
sg19
S'21380191'
p417
sg21
Vadd x1, x1, #0x4e
p418
sg5
L18446743798844431632L
sg6
Nsg23
S'ADD'
p419
sg25
S'0xffffffc000c31d10L'
p420
sg27
Nsba(ibclass
BInstr
p421
(dp422
g2
Nsg17
S'MOV             X2, X23'
p423
sg19
S'e20317aa'
p424
sg21
Vmov x2, x23
p425
sg5
L18446743798844431636L
sg6
Nsg23
S'MOV'
p426
sg25
S'0xffffffc000c31d14L'
p427
sg27
Nsba(ibclass
BInstr
p428
(dp429
g2
Nsg17
S'BL              __init_waitqueue_head'
p430
sg19
S'af38d897'
p431
sg21
Vbl #0xffffffffff60e2bc
p432
sg5
L18446743798844431640L
sg6
Nsg23
S'BL'
p433
sg25
S'0xffffffc000c31d18L'
p434
sg27
Nsba(ibclass
BInstr
p435
(dp436
g2
Nsg17
S'STR             X22, [X19]'
p437
sg19
S'760200f9'
p438
sg21
Vstr x22, [x19]
p439
sg5
L18446743798844431644L
sg6
Nsg23
S'STR'
p440
sg25
S'0xffffffc000c31d1cL'
p441
sg27
Nsba(ibclass
BInstr
p442
(dp443
g2
Nsg17
S'ADD             X22, X21, #__func__.29837@PAGEOFF; "msm_lsm_pcm_pointer"'
p444
sg19
S'b6e20591'
p445
sg21
Vadd x22, x21, #0x178
p446
sg5
L18446743798844431648L
sg6
Nsg23
S'ADD'
p447
sg25
S'0xffffffc000c31d20L'
p448
sg27
Nsba(ibclass
BInstr
p449
(dp450
g2
Nsg17
S'ADD             X1, X22, #0xD8'
p451
sg19
S'c1620391'
p452
sg21
Vadd x1, x22, #0xd8
p453
sg5
L18446743798844431652L
sg6
Nsg23
S'ADD'
p454
sg25
S'0xffffffc000c31d24L'
p455
sg27
Nsba(ibclass
BInstr
p456
(dp457
g2
Nsg17
S'MOV             X2, #0x50'
p458
sg19
S'020a80d2'
p459
sg21
Vmovz x2, #0x50
p460
sg5
L18446743798844431656L
sg6
Nsg23
S'MOV'
p461
sg25
S'0xffffffc000c31d28L'
p462
sg27
Nsba(ibclass
BInstr
p463
(dp464
g2
Nsg17
S'STR             X19, [X20,#0x158]'
p465
sg19
S'93ae00f9'
p466
sg21
Vstr x19, [x20, #0x158]
p467
sg5
L18446743798844431660L
sg6
Nsg23
S'STR'
p468
sg25
S'0xffffffc000c31d2cL'
p469
sg27
Nsba(ibclass
BInstr
p470
(dp471
g2
Nsg17
S'ADD             X0, X20, #0x168'
p472
sg19
S'80a20591'
p473
sg21
Vadd x0, x20, #0x168
p474
sg5
L18446743798844431664L
sg6
Nsg23
S'ADD'
p475
sg25
S'0xffffffc000c31d30L'
p476
sg27
Nsba(ibclass
BInstr
p477
(dp478
g2
Nsg17
S'BL              memcpy'
p479
sg19
S'f3c4df97'
p480
sg21
Vbl #0xffffffffff7f13cc
p481
sg5
L18446743798844431668L
sg6
Nsg23
S'BL'
p482
sg25
S'0xffffffc000c31d34L'
p483
sg27
Nsba(ibclass
BInstr
p484
(dp485
g2
Nsg17
S'ADRP            X3, #msm_lsm_driver@PAGE'
p486
sg19
S'436b0090'
p487
sg21
Vadrp x3, #0xd68000
p488
sg5
L18446743798844431672L
sg6
Nsg23
S'ADRP'
p489
sg25
S'0xffffffc000c31d38L'
p490
sg27
Nsba(ibclass
BInstr
p491
(dp492
g2
Nsg17
S'ADD             X3, X3, #msm_lsm_driver@PAGEOFF'
p493
sg19
S'63600291'
p494
sg21
Vadd x3, x3, #0x98
p495
sg5
L18446743798844431676L
sg6
Nsg23
S'ADD'
p496
sg25
S'0xffffffc000c31d3cL'
p497
sg27
Nsba(ibclass
BInstr
p498
(dp499
g2
Nsg17
S'MOV             W2, #0xB'
p500
sg19
S'62018052'
p501
sg21
Vmovz w2, #0xb
p502
sg5
L18446743798844431680L
sg6
Nsg23
S'MOV'
p503
sg25
S'0xffffffc000c31d40L'
p504
sg27
Nsba(ibclass
BInstr
p505
(dp506
g2
Nsg17
S'MOV             X0, X20'
p507
sg19
S'e00314aa'
p508
sg21
Vmov x0, x20
p509
sg5
L18446743798844431684L
sg6
Nsg23
S'MOV'
p510
sg25
S'0xffffffc000c31d44L'
p511
sg27
Nsba(ibclass
BInstr
p512
(dp513
g2
Nsg17
S'MOV             W1, #0'
p514
sg19
S'01008052'
p515
sg21
Vmovz w1, #0
p516
sg5
L18446743798844431688L
sg6
Nsg23
S'MOV'
p517
sg25
S'0xffffffc000c31d48L'
p518
sg27
Nsba(ibclass
BInstr
p519
(dp520
g2
Nsg17
S'ADD             X3, X3, #0x148'
p521
sg19
S'63200591'
p522
sg21
Vadd x3, x3, #0x148
p523
sg5
L18446743798844431692L
sg6
Nsg23
S'ADD'
p524
sg25
S'0xffffffc000c31d4cL'
p525
sg27
Nsba(ibclass
BInstr
p526
(dp527
g2
Nsg17
S'BL              snd_pcm_hw_constraint_list'
p528
sg19
S'8f41fe97'
p529
sg21
Vbl #0xfffffffffff9063c
p530
sg5
L18446743798844431696L
sg6
Nsg23
S'BL'
p531
sg25
S'0xffffffc000c31d50L'
p532
sg27
Nsba(ibclass
BInstr
p533
(dp534
g2
Nsg17
S'MOV             W2, W0'
p535
sg19
S'e203002a'
p536
sg21
Vmov w2, w0
p537
sg5
L18446743798844431700L
sg6
Nsg23
S'MOV'
p538
sg25
S'0xffffffc000c31d54L'
p539
sg27
Nsba(ibclass
BInstr
p540
(dp541
g2
Nsg17
S'TBZ             W2, #0x1F, loc_FFFFFFC000C31D6C'
p542
sg19
S'a200f836'
p543
sg21
Vtbz w2, #0x1f, #0x14
p544
sg5
L18446743798844431704L
sg6
Nsg23
S'TBZ'
p545
sg25
S'0xffffffc000c31d58L'
p546
sg27
Nsbasg112
(lp547
S'ADRP reg3, #hpcm_drv@PAGE'
p548
aS'ADD reg3, reg3, #hpcm_drv@PAGEOFF'
p549
aS'ADRP reg, #aPrtdEvent_wait@PAGE'
p550
aS'STRH WZR, mem'
p551
aS'STRH WZR, mem'
p552
aS'ADD reg, reg, #aPrtdEvent_wait@PAGEOFF'
p553
aS'ADD reg, reg, #0x20'
p554
aS'MOV reg, reg3'
p555
aS'BL __init_waitqueue_head'
p556
aS'ADRP reg, #aPrtdPeriod_wai@PAGE'
p557
aS'ADD reg, reg9, #0x50'
p558
aS'ADD reg, reg, #aPrtdPeriod_wai@PAGEOFF'
p559
aS'MOV reg, reg3'
p560
aS'BL __init_waitqueue_head'
p561
aS'STR reg2, mem'
p562
aS'ADD reg2, reg1, #__func__.29837@PAGEOFF'
p563
aS'ADD reg, reg2, #0xD8'
p564
aS'MOV reg, #0x50'
p565
aS'STR reg9, mem'
p566
aS'ADD reg, reg0, #0x168'
p567
aS'BL memcpy'
p568
aS'ADRP reg, #msm_lsm_driver@PAGE'
p569
aS'ADD reg, reg, #msm_lsm_driver@PAGEOFF'
p570
aS'MOV reg, #0xB'
p571
aS'MOV reg, reg0'
p572
aS'MOV reg, #0'
p573
aS'ADD reg, reg, #0x148'
p574
aS'BL snd_pcm_hw_constraint_list'
p575
aS'MOV reg, reg'
p576
aS'TBZ reg, #0x1F, func'
p577
asg127
Nsg5
S'0xffffffc000c31ce4L'
p578
sg129
(lp579
S'0xffffffc000c31cacL'
p580
asg6
Nsg131
(lp581
S'0xffffffc000c31d5cL'
p582
aS'0xffffffc000c31d6cL'
p583
asg135
Nsg136
Nsg137
S'a4066c700ee50f63e3285f21ba289360'
p584
sg139
S'0a33eee185d58b1cd84253f976c4c4c2'
p585
sg141
(lp586
g342
ag349
ag356
ag363
ag370
ag377
ag384
ag391
ag398
ag405
ag412
ag419
ag426
ag433
ag440
ag447
ag454
ag461
ag468
ag475
ag482
ag489
ag496
ag503
ag510
ag517
ag524
ag531
ag538
ag545
asg143
Nsba(ibclass
BBasicBlock
p587
(dp588
g12
Nsg13
(lp589
(ibclass
BInstr
p590
(dp591
g2
Nsg17
S'ADRP            X0, #unk_FFFFFFC0014D9061@PAGE'
p592
sg19
S'40450090'
p593
sg21
Vadrp x0, #0x8a8000
p594
sg5
L18446743798844431708L
sg6
Nsg23
S'ADRP'
p595
sg25
S'0xffffffc000c31d5cL'
p596
sg27
Nsba(ibclass
BInstr
p597
(dp598
g2
Nsg17
S'ADD             X0, X0, #unk_FFFFFFC0014D9061@PAGEOFF'
p599
sg19
S'00840191'
p600
sg21
Vadd x0, x0, #0x61
p601
sg5
L18446743798844431712L
sg6
Nsg23
S'ADD'
p602
sg25
S'0xffffffc000c31d60L'
p603
sg27
Nsba(ibclass
BInstr
p604
(dp605
g2
Nsg17
S'ADD             X1, X22, #0xC8'
p606
sg19
S'c1220391'
p607
sg21
Vadd x1, x22, #0xc8
p608
sg5
L18446743798844431716L
sg6
Nsg23
S'ADD'
p609
sg25
S'0xffffffc000c31d64L'
p610
sg27
Nsba(ibclass
BInstr
p611
(dp612
g2
Nsg17
S'BL              printk'
p613
sg19
S'fe060894'
p614
sg21
Vbl #0x201bf8
p615
sg5
L18446743798844431720L
sg6
Nsg23
S'BL'
p616
sg25
S'0xffffffc000c31d68L'
p617
sg27
Nsbasg112
(lp618
S'ADRP reg, #func@PAGE'
p619
aS'ADD reg, reg, #func@PAGEOFF'
p620
aS'ADD reg, reg2, #0xC8'
p621
aS'BL printk'
p622
asg127
Nsg5
S'0xffffffc000c31d5cL'
p623
sg129
(lp624
S'0xffffffc000c31ce4L'
p625
asg6
Nsg131
(lp626
S'0xffffffc000c31d6cL'
p627
asg135
Nsg136
Nsg137
S'c8a90cccbd9f57e80b680be252a83539'
p628
sg139
S'74cd49a905d1e5104912a35c41559c71'
p629
sg141
(lp630
g595
ag602
ag609
ag616
asg143
Nsba(ibclass
BBasicBlock
p631
(dp632
g12
Nsg13
(lp633
(ibclass
BInstr
p634
(dp635
g2
Nsg17
S'MOV             X0, X20'
p636
sg19
S'e00314aa'
p637
sg21
Vmov x0, x20
p638
sg5
L18446743798844431724L
sg6
Nsg23
S'MOV'
p639
sg25
S'0xffffffc000c31d6cL'
p640
sg27
Nsba(ibclass
BInstr
p641
(dp642
g2
Nsg17
S'MOV             W1, #0xF'
p643
sg19
S'e1018052'
p644
sg21
Vmovz w1, #0xf
p645
sg5
L18446743798844431728L
sg6
Nsg23
S'MOV'
p646
sg25
S'0xffffffc000c31d70L'
p647
sg27
Nsba(ibclass
BInstr
p648
(dp649
g2
Nsg17
S'BL              snd_pcm_hw_constraint_integer'
p650
sg19
S'5e41fe97'
p651
sg21
Vbl #0xfffffffffff90578
p652
sg5
L18446743798844431732L
sg6
Nsg23
S'BL'
p653
sg25
S'0xffffffc000c31d74L'
p654
sg27
Nsba(ibclass
BInstr
p655
(dp656
g2
Nsg17
S'MOV             W2, W0'
p657
sg19
S'e203002a'
p658
sg21
Vmov w2, w0
p659
sg5
L18446743798844431736L
sg6
Nsg23
S'MOV'
p660
sg25
S'0xffffffc000c31d78L'
p661
sg27
Nsba(ibclass
BInstr
p662
(dp663
g2
Nsg17
S'TBZ             W2, #0x1F, loc_FFFFFFC000C31D94'
p664
sg19
S'c200f836'
p665
sg21
Vtbz w2, #0x1f, #0x18
p666
sg5
L18446743798844431740L
sg6
Nsg23
S'TBZ'
p667
sg25
S'0xffffffc000c31d7cL'
p668
sg27
Nsbasg112
(lp669
S'MOV reg, reg0'
p670
aS'MOV reg, #0xF'
p671
aS'BL snd_pcm_hw_constraint_integer'
p672
aS'MOV reg, reg'
p673
aS'TBZ reg, #0x1F, func'
p674
asg127
Nsg5
S'0xffffffc000c31d6cL'
p675
sg129
(lp676
S'0xffffffc000c31ce4L'
p677
aS'0xffffffc000c31d5cL'
p678
asg6
Nsg131
(lp679
S'0xffffffc000c31d80L'
p680
aS'0xffffffc000c31d94L'
p681
asg135
Nsg136
Nsg137
S'c6d9379c60719cacbfa8355aed4fdd8f'
p682
sg139
S'070f46e327d4d97528ae3a94d43c734c'
p683
sg141
(lp684
g639
ag646
ag653
ag660
ag667
asg143
Nsba(ibclass
BBasicBlock
p685
(dp686
g12
Nsg13
(lp687
(ibclass
BInstr
p688
(dp689
g2
Nsg17
S'ADD             X1, X21, #__func__.29837@PAGEOFF; "msm_lsm_pcm_pointer"'
p690
sg19
S'a1e20591'
p691
sg21
Vadd x1, x21, #0x178
p692
sg5
L18446743798844431744L
sg6
Nsg23
S'ADD'
p693
sg25
S'0xffffffc000c31d80L'
p694
sg27
Nsba(ibclass
BInstr
p695
(dp696
g2
Nsg17
S'ADRP            X0, #unk_FFFFFFC0014D9091@PAGE'
p697
sg19
S'40450090'
p698
sg21
Vadrp x0, #0x8a8000
p699
sg5
L18446743798844431748L
sg6
Nsg23
S'ADRP'
p700
sg25
S'0xffffffc000c31d84L'
p701
sg27
Nsba(ibclass
BInstr
p702
(dp703
g2
Nsg17
S'ADD             X0, X0, #unk_FFFFFFC0014D9091@PAGEOFF'
p704
sg19
S'00440291'
p705
sg21
Vadd x0, x0, #0x91
p706
sg5
L18446743798844431752L
sg6
Nsg23
S'ADD'
p707
sg25
S'0xffffffc000c31d88L'
p708
sg27
Nsba(ibclass
BInstr
p709
(dp710
g2
Nsg17
S'ADD             X1, X1, #0xC8'
p711
sg19
S'21200391'
p712
sg21
Vadd x1, x1, #0xc8
p713
sg5
L18446743798844431756L
sg6
Nsg23
S'ADD'
p714
sg25
S'0xffffffc000c31d8cL'
p715
sg27
Nsba(ibclass
BInstr
p716
(dp717
g2
Nsg17
S'BL              printk'
p718
sg19
S'f4060894'
p719
sg21
Vbl #0x201bd0
p720
sg5
L18446743798844431760L
sg6
Nsg23
S'BL'
p721
sg25
S'0xffffffc000c31d90L'
p722
sg27
Nsbasg112
(lp723
S'ADD reg, reg1, #__func__.29837@PAGEOFF'
p724
aS'ADRP reg, #func@PAGE'
p725
aS'ADD reg, reg, #func@PAGEOFF'
p726
aS'ADD reg, reg, #0xC8'
p727
aS'BL printk'
p728
asg127
Nsg5
S'0xffffffc000c31d80L'
p729
sg129
(lp730
S'0xffffffc000c31d6cL'
p731
asg6
Nsg131
(lp732
S'0xffffffc000c31d94L'
p733
asg135
Nsg136
Nsg137
S'8d1bf16f7cb354fdeda7928c39aa90f0'
p734
sg139
S'fae718e390c8e641df55cb2c985d1db2'
p735
sg141
(lp736
g693
ag700
ag707
ag714
ag721
asg143
Nsba(ibclass
BBasicBlock
p737
(dp738
g12
Nsg13
(lp739
(ibclass
BInstr
p740
(dp741
g2
Nsg17
S'MOV             W2, #0x280'
p742
sg19
S'02508052'
p743
sg21
Vmovz w2, #0x280
p744
sg5
L18446743798844431764L
sg6
Nsg23
S'MOV'
p745
sg25
S'0xffffffc000c31d94L'
p746
sg27
Nsba(ibclass
BInstr
p747
(dp748
g2
Nsg17
S'MOV             X0, X20'
p749
sg19
S'e00314aa'
p750
sg21
Vmov x0, x20
p751
sg5
L18446743798844431768L
sg6
Nsg23
S'MOV'
p752
sg25
S'0xffffffc000c31d98L'
p753
sg27
Nsba(ibclass
BInstr
p754
(dp755
g2
Nsg17
S'MOV             W1, #0x12'
p756
sg19
S'41028052'
p757
sg21
Vmovz w1, #0x12
p758
sg5
L18446743798844431772L
sg6
Nsg23
S'MOV'
p759
sg25
S'0xffffffc000c31d9cL'
p760
sg27
Nsba(ibclass
BInstr
p761
(dp762
g2
Nsg17
S'MOV             W3, #0x8000'
p763
sg19
S'03009052'
p764
sg21
Vmovz w3, #0x8000
p765
sg5
L18446743798844431776L
sg6
Nsg23
S'MOV'
p766
sg25
S'0xffffffc000c31da0L'
p767
sg27
Nsba(ibclass
BInstr
p768
(dp769
g2
Nsg17
S'BL              snd_pcm_hw_constraint_minmax'
p770
sg19
S'6a41fe97'
p771
sg21
Vbl #0xfffffffffff905a8
p772
sg5
L18446743798844431780L
sg6
Nsg23
S'BL'
p773
sg25
S'0xffffffc000c31da4L'
p774
sg27
Nsba(ibclass
BInstr
p775
(dp776
g2
Nsg17
S'MOV             W2, W0'
p777
sg19
S'e203002a'
p778
sg21
Vmov w2, w0
p779
sg5
L18446743798844431784L
sg6
Nsg23
S'MOV'
p780
sg25
S'0xffffffc000c31da8L'
p781
sg27
Nsba(ibclass
BInstr
p782
(dp783
g2
Nsg17
S'TBZ             W2, #0x1F, loc_FFFFFFC000C31DC4'
p784
sg19
S'c200f836'
p785
sg21
Vtbz w2, #0x1f, #0x18
p786
sg5
L18446743798844431788L
sg6
Nsg23
S'TBZ'
p787
sg25
S'0xffffffc000c31dacL'
p788
sg27
Nsbasg112
(lp789
S'MOV reg, #0x280'
p790
aS'MOV reg, reg0'
p791
aS'MOV reg, #0x12'
p792
aS'MOV reg, #0x8000'
p793
aS'BL snd_pcm_hw_constraint_minmax'
p794
aS'MOV reg, reg'
p795
aS'TBZ reg, #0x1F, func'
p796
asg127
Nsg5
S'0xffffffc000c31d94L'
p797
sg129
(lp798
S'0xffffffc000c31d6cL'
p799
aS'0xffffffc000c31d80L'
p800
asg6
Nsg131
(lp801
S'0xffffffc000c31db0L'
p802
aS'0xffffffc000c31dc4L'
p803
asg135
Nsg136
Nsg137
S'0270b84c5b8a6ccbac5afe765acd6858'
p804
sg139
S'216ac5ab11be478387f8d0a9c303b655'
p805
sg141
(lp806
g745
ag752
ag759
ag766
ag773
ag780
ag787
asg143
Nsba(ibclass
BBasicBlock
p807
(dp808
g12
Nsg13
(lp809
(ibclass
BInstr
p810
(dp811
g2
Nsg17
S'ADD             X1, X21, #__func__.29837@PAGEOFF; "msm_lsm_pcm_pointer"'
p812
sg19
S'a1e20591'
p813
sg21
Vadd x1, x21, #0x178
p814
sg5
L18446743798844431792L
sg6
Nsg23
S'ADD'
p815
sg25
S'0xffffffc000c31db0L'
p816
sg27
Nsba(ibclass
BInstr
p817
(dp818
g2
Nsg17
S'ADRP            X0, #unk_FFFFFFC0014D90C4@PAGE'
p819
sg19
S'40450090'
p820
sg21
Vadrp x0, #0x8a8000
p821
sg5
L18446743798844431796L
sg6
Nsg23
S'ADRP'
p822
sg25
S'0xffffffc000c31db4L'
p823
sg27
Nsba(ibclass
BInstr
p824
(dp825
g2
Nsg17
S'ADD             X0, X0, #unk_FFFFFFC0014D90C4@PAGEOFF'
p826
sg19
S'00100391'
p827
sg21
Vadd x0, x0, #0xc4
p828
sg5
L18446743798844431800L
sg6
Nsg23
S'ADD'
p829
sg25
S'0xffffffc000c31db8L'
p830
sg27
Nsba(ibclass
BInstr
p831
(dp832
g2
Nsg17
S'ADD             X1, X1, #0xC8'
p833
sg19
S'21200391'
p834
sg21
Vadd x1, x1, #0xc8
p835
sg5
L18446743798844431804L
sg6
Nsg23
S'ADD'
p836
sg25
S'0xffffffc000c31dbcL'
p837
sg27
Nsba(ibclass
BInstr
p838
(dp839
g2
Nsg17
S'BL              printk'
p840
sg19
S'e8060894'
p841
sg21
Vbl #0x201ba0
p842
sg5
L18446743798844431808L
sg6
Nsg23
S'BL'
p843
sg25
S'0xffffffc000c31dc0L'
p844
sg27
Nsbasg112
(lp845
S'ADD reg, reg1, #__func__.29837@PAGEOFF'
p846
aS'ADRP reg, #func@PAGE'
p847
aS'ADD reg, reg, #func@PAGEOFF'
p848
aS'ADD reg, reg, #0xC8'
p849
aS'BL printk'
p850
asg127
Nsg5
S'0xffffffc000c31db0L'
p851
sg129
(lp852
S'0xffffffc000c31d94L'
p853
asg6
Nsg131
(lp854
S'0xffffffc000c31dc4L'
p855
asg135
Nsg136
Nsg137
S'8d1bf16f7cb354fdeda7928c39aa90f0'
p856
sg139
S'fae718e390c8e641df55cb2c985d1db2'
p857
sg141
(lp858
g815
ag822
ag829
ag836
ag843
asg143
Nsba(ibclass
BBasicBlock
p859
(dp860
g12
Nsg13
(lp861
(ibclass
BInstr
p862
(dp863
g2
Nsg17
S'MOV             W2, #0xE'
p864
sg19
S'c2018052'
p865
sg21
Vmovz w2, #0xe
p866
sg5
L18446743798844431812L
sg6
Nsg23
S'MOV'
p867
sg25
S'0xffffffc000c31dc4L'
p868
sg27
Nsba(ibclass
BInstr
p869
(dp870
g2
Nsg17
S'MOV             X0, X20'
p871
sg19
S'e00314aa'
p872
sg21
Vmov x0, x20
p873
sg5
L18446743798844431816L
sg6
Nsg23
S'MOV'
p874
sg25
S'0xffffffc000c31dc8L'
p875
sg27
Nsba(ibclass
BInstr
p876
(dp877
g2
Nsg17
S'MOV             W1, #0'
p878
sg19
S'01008052'
p879
sg21
Vmovz w1, #0
p880
sg5
L18446743798844431820L
sg6
Nsg23
S'MOV'
p881
sg25
S'0xffffffc000c31dccL'
p882
sg27
Nsba(ibclass
BInstr
p883
(dp884
g2
Nsg17
S'MOV             X3, #0x20'
p885
sg19
S'030480d2'
p886
sg21
Vmovz x3, #0x20
p887
sg5
L18446743798844431824L
sg6
Nsg23
S'MOV'
p888
sg25
S'0xffffffc000c31dd0L'
p889
sg27
Nsba(ibclass
BInstr
p890
(dp891
g2
Nsg17
S'BL              snd_pcm_hw_constraint_step'
p892
sg19
S'9741fe97'
p893
sg21
Vbl #0xfffffffffff9065c
p894
sg5
L18446743798844431828L
sg6
Nsg23
S'BL'
p895
sg25
S'0xffffffc000c31dd4L'
p896
sg27
Nsba(ibclass
BInstr
p897
(dp898
g2
Nsg17
S'MOV             W2, W0'
p899
sg19
S'e203002a'
p900
sg21
Vmov w2, w0
p901
sg5
L18446743798844431832L
sg6
Nsg23
S'MOV'
p902
sg25
S'0xffffffc000c31dd8L'
p903
sg27
Nsba(ibclass
BInstr
p904
(dp905
g2
Nsg17
S'TBZ             W2, #0x1F, loc_FFFFFFC000C31DF4'
p906
sg19
S'c200f836'
p907
sg21
Vtbz w2, #0x1f, #0x18
p908
sg5
L18446743798844431836L
sg6
Nsg23
S'TBZ'
p909
sg25
S'0xffffffc000c31ddcL'
p910
sg27
Nsbasg112
(lp911
S'MOV reg, #0xE'
p912
aS'MOV reg, reg0'
p913
aS'MOV reg, #0'
p914
aS'MOV reg, #0x20'
p915
aS'BL snd_pcm_hw_constraint_step'
p916
aS'MOV reg, reg'
p917
aS'TBZ reg, #0x1F, func'
p918
asg127
Nsg5
S'0xffffffc000c31dc4L'
p919
sg129
(lp920
S'0xffffffc000c31d94L'
p921
aS'0xffffffc000c31db0L'
p922
asg6
Nsg131
(lp923
S'0xffffffc000c31de0L'
p924
aS'0xffffffc000c31df4L'
p925
asg135
Nsg136
Nsg137
S'0270b84c5b8a6ccbac5afe765acd6858'
p926
sg139
S'889478b87da22016870ebc9e5b909c80'
p927
sg141
(lp928
g867
ag874
ag881
ag888
ag895
ag902
ag909
asg143
Nsba(ibclass
BBasicBlock
p929
(dp930
g12
Nsg13
(lp931
(ibclass
BInstr
p932
(dp933
g2
Nsg17
S'ADD             X1, X21, #__func__.29837@PAGEOFF; "msm_lsm_pcm_pointer"'
p934
sg19
S'a1e20591'
p935
sg21
Vadd x1, x21, #0x178
p936
sg5
L18446743798844431840L
sg6
Nsg23
S'ADD'
p937
sg25
S'0xffffffc000c31de0L'
p938
sg27
Nsba(ibclass
BInstr
p939
(dp940
g2
Nsg17
S'ADRP            X0, #unk_FFFFFFC0014D90F8@PAGE'
p941
sg19
S'40450090'
p942
sg21
Vadrp x0, #0x8a8000
p943
sg5
L18446743798844431844L
sg6
Nsg23
S'ADRP'
p944
sg25
S'0xffffffc000c31de4L'
p945
sg27
Nsba(ibclass
BInstr
p946
(dp947
g2
Nsg17
S'ADD             X0, X0, #unk_FFFFFFC0014D90F8@PAGEOFF'
p948
sg19
S'00e00391'
p949
sg21
Vadd x0, x0, #0xf8
p950
sg5
L18446743798844431848L
sg6
Nsg23
S'ADD'
p951
sg25
S'0xffffffc000c31de8L'
p952
sg27
Nsba(ibclass
BInstr
p953
(dp954
g2
Nsg17
S'ADD             X1, X1, #0xC8'
p955
sg19
S'21200391'
p956
sg21
Vadd x1, x1, #0xc8
p957
sg5
L18446743798844431852L
sg6
Nsg23
S'ADD'
p958
sg25
S'0xffffffc000c31decL'
p959
sg27
Nsba(ibclass
BInstr
p960
(dp961
g2
Nsg17
S'BL              printk'
p962
sg19
S'dc060894'
p963
sg21
Vbl #0x201b70
p964
sg5
L18446743798844431856L
sg6
Nsg23
S'BL'
p965
sg25
S'0xffffffc000c31df0L'
p966
sg27
Nsbasg112
(lp967
S'ADD reg, reg1, #__func__.29837@PAGEOFF'
p968
aS'ADRP reg, #func@PAGE'
p969
aS'ADD reg, reg, #func@PAGEOFF'
p970
aS'ADD reg, reg, #0xC8'
p971
aS'BL printk'
p972
asg127
Nsg5
S'0xffffffc000c31de0L'
p973
sg129
(lp974
S'0xffffffc000c31dc4L'
p975
asg6
Nsg131
(lp976
S'0xffffffc000c31df4L'
p977
asg135
Nsg136
Nsg137
S'8d1bf16f7cb354fdeda7928c39aa90f0'
p978
sg139
S'fae718e390c8e641df55cb2c985d1db2'
p979
sg141
(lp980
g937
ag944
ag951
ag958
ag965
asg143
Nsba(ibclass
BBasicBlock
p981
(dp982
g12
Nsg13
(lp983
(ibclass
BInstr
p984
(dp985
g2
Nsg17
S'MOV             W2, #0x12'
p986
sg19
S'42028052'
p987
sg21
Vmovz w2, #0x12
p988
sg5
L18446743798844431860L
sg6
Nsg23
S'MOV'
p989
sg25
S'0xffffffc000c31df4L'
p990
sg27
Nsba(ibclass
BInstr
p991
(dp992
g2
Nsg17
S'MOV             X0, X20'
p993
sg19
S'e00314aa'
p994
sg21
Vmov x0, x20
p995
sg5
L18446743798844431864L
sg6
Nsg23
S'MOV'
p996
sg25
S'0xffffffc000c31df8L'
p997
sg27
Nsba(ibclass
BInstr
p998
(dp999
g2
Nsg17
S'MOV             W1, #0'
p1000
sg19
S'01008052'
p1001
sg21
Vmovz w1, #0
p1002
sg5
L18446743798844431868L
sg6
Nsg23
S'MOV'
p1003
sg25
S'0xffffffc000c31dfcL'
p1004
sg27
Nsba(ibclass
BInstr
p1005
(dp1006
g2
Nsg17
S'MOV             X3, #0x20'
p1007
sg19
S'030480d2'
p1008
sg21
Vmovz x3, #0x20
p1009
sg5
L18446743798844431872L
sg6
Nsg23
S'MOV'
p1010
sg25
S'0xffffffc000c31e00L'
p1011
sg27
Nsba(ibclass
BInstr
p1012
(dp1013
g2
Nsg17
S'BL              snd_pcm_hw_constraint_step'
p1014
sg19
S'8b41fe97'
p1015
sg21
Vbl #0xfffffffffff9062c
p1016
sg5
L18446743798844431876L
sg6
Nsg23
S'BL'
p1017
sg25
S'0xffffffc000c31e04L'
p1018
sg27
Nsba(ibclass
BInstr
p1019
(dp1020
g2
Nsg17
S'MOV             W2, W0'
p1021
sg19
S'e203002a'
p1022
sg21
Vmov w2, w0
p1023
sg5
L18446743798844431880L
sg6
Nsg23
S'MOV'
p1024
sg25
S'0xffffffc000c31e08L'
p1025
sg27
Nsba(ibclass
BInstr
p1026
(dp1027
g2
Nsg17
S'TBZ             W2, #0x1F, loc_FFFFFFC000C31E24'
p1028
sg19
S'c200f836'
p1029
sg21
Vtbz w2, #0x1f, #0x18
p1030
sg5
L18446743798844431884L
sg6
Nsg23
S'TBZ'
p1031
sg25
S'0xffffffc000c31e0cL'
p1032
sg27
Nsbasg112
(lp1033
S'MOV reg, #0x12'
p1034
aS'MOV reg, reg0'
p1035
aS'MOV reg, #0'
p1036
aS'MOV reg, #0x20'
p1037
aS'BL snd_pcm_hw_constraint_step'
p1038
aS'MOV reg, reg'
p1039
aS'TBZ reg, #0x1F, func'
p1040
asg127
Nsg5
S'0xffffffc000c31df4L'
p1041
sg129
(lp1042
S'0xffffffc000c31dc4L'
p1043
aS'0xffffffc000c31de0L'
p1044
asg6
Nsg131
(lp1045
S'0xffffffc000c31e10L'
p1046
aS'0xffffffc000c31e24L'
p1047
asg135
Nsg136
Nsg137
S'0270b84c5b8a6ccbac5afe765acd6858'
p1048
sg139
S'd7784886aefacada0a58fe3c59e2baba'
p1049
sg141
(lp1050
g989
ag996
ag1003
ag1010
ag1017
ag1024
ag1031
asg143
Nsba(ibclass
BBasicBlock
p1051
(dp1052
g12
Nsg13
(lp1053
(ibclass
BInstr
p1054
(dp1055
g2
Nsg17
S'ADD             X1, X21, #__func__.29837@PAGEOFF; "msm_lsm_pcm_pointer"'
p1056
sg19
S'a1e20591'
p1057
sg21
Vadd x1, x21, #0x178
p1058
sg5
L18446743798844431888L
sg6
Nsg23
S'ADD'
p1059
sg25
S'0xffffffc000c31e10L'
p1060
sg27
Nsba(ibclass
BInstr
p1061
(dp1062
g2
Nsg17
S'ADRP            X0, #unk_FFFFFFC0014D9129@PAGE'
p1063
sg19
S'40450090'
p1064
sg21
Vadrp x0, #0x8a8000
p1065
sg5
L18446743798844431892L
sg6
Nsg23
S'ADRP'
p1066
sg25
S'0xffffffc000c31e14L'
p1067
sg27
Nsba(ibclass
BInstr
p1068
(dp1069
g2
Nsg17
S'ADD             X0, X0, #unk_FFFFFFC0014D9129@PAGEOFF'
p1070
sg19
S'00a40491'
p1071
sg21
Vadd x0, x0, #0x129
p1072
sg5
L18446743798844431896L
sg6
Nsg23
S'ADD'
p1073
sg25
S'0xffffffc000c31e18L'
p1074
sg27
Nsba(ibclass
BInstr
p1075
(dp1076
g2
Nsg17
S'ADD             X1, X1, #0xC8'
p1077
sg19
S'21200391'
p1078
sg21
Vadd x1, x1, #0xc8
p1079
sg5
L18446743798844431900L
sg6
Nsg23
S'ADD'
p1080
sg25
S'0xffffffc000c31e1cL'
p1081
sg27
Nsba(ibclass
BInstr
p1082
(dp1083
g2
Nsg17
S'BL              printk'
p1084
sg19
S'd0060894'
p1085
sg21
Vbl #0x201b40
p1086
sg5
L18446743798844431904L
sg6
Nsg23
S'BL'
p1087
sg25
S'0xffffffc000c31e20L'
p1088
sg27
Nsbasg112
(lp1089
S'ADD reg, reg1, #__func__.29837@PAGEOFF'
p1090
aS'ADRP reg, #func@PAGE'
p1091
aS'ADD reg, reg, #func@PAGEOFF'
p1092
aS'ADD reg, reg, #0xC8'
p1093
aS'BL printk'
p1094
asg127
Nsg5
S'0xffffffc000c31e10L'
p1095
sg129
(lp1096
S'0xffffffc000c31df4L'
p1097
asg6
Nsg131
(lp1098
S'0xffffffc000c31e24L'
p1099
asg135
Nsg136
Nsg137
S'8d1bf16f7cb354fdeda7928c39aa90f0'
p1100
sg139
S'fae718e390c8e641df55cb2c985d1db2'
p1101
sg141
(lp1102
g1059
ag1066
ag1073
ag1080
ag1087
asg143
Nsba(ibclass
BBasicBlock
p1103
(dp1104
g12
Nsg13
(lp1105
(ibclass
BInstr
p1106
(dp1107
g2
Nsg17
S'ADRP            X0, #lsm_event_handler@PAGE'
p1108
sg19
S'00000090'
p1109
sg21
Vadrp x0, #0
p1110
sg5
L18446743798844431908L
sg6
Nsg23
S'ADRP'
p1111
sg25
S'0xffffffc000c31e24L'
p1112
sg27
Nsba(ibclass
BInstr
p1113
(dp1114
g2
Nsg17
S'ADD             X0, X0, #lsm_event_handler@PAGEOFF'
p1115
sg19
S'00103a91'
p1116
sg21
Vadd x0, x0, #0xe84
p1117
sg5
L18446743798844431912L
sg6
Nsg23
S'ADD'
p1118
sg25
S'0xffffffc000c31e28L'
p1119
sg27
Nsba(ibclass
BInstr
p1120
(dp1121
g2
Nsg17
S'MOV             X1, X19'
p1122
sg19
S'e10313aa'
p1123
sg21
Vmov x1, x19
p1124
sg5
L18446743798844431916L
sg6
Nsg23
S'MOV'
p1125
sg25
S'0xffffffc000c31e2cL'
p1126
sg27
Nsba(ibclass
BInstr
p1127
(dp1128
g2
Nsg17
S'BL              q6lsm_client_alloc'
p1129
sg19
S'a2fb0094'
p1130
sg21
Vbl #0x3ee88
p1131
sg5
L18446743798844431920L
sg6
Nsg23
S'BL'
p1132
sg25
S'0xffffffc000c31e30L'
p1133
sg27
Nsba(ibclass
BInstr
p1134
(dp1135
g2
Nsg17
S'STR             X0, [X19,#8]'
p1136
sg19
S'600600f9'
p1137
sg21
Vstr x0, [x19, #8]
p1138
sg5
L18446743798844431924L
sg6
Nsg23
S'STR'
p1139
sg25
S'0xffffffc000c31e34L'
p1140
sg27
Nsba(ibclass
BInstr
p1141
(dp1142
g2
Nsg17
S'MOV             X22, X0'
p1143
sg19
S'f60300aa'
p1144
sg21
Vmov x22, x0
p1145
sg5
L18446743798844431928L
sg6
Nsg23
S'MOV'
p1146
sg25
S'0xffffffc000c31e38L'
p1147
sg27
Nsba(ibclass
BInstr
p1148
(dp1149
g2
Nsg17
S'CBNZ            X0, loc_FFFFFFC000C31E68'
p1150
sg19
S'600100b5'
p1151
sg21
Vcbnz x0, #0x2c
p1152
sg5
L18446743798844431932L
sg6
Nsg23
S'CBNZ'
p1153
sg25
S'0xffffffc000c31e3cL'
p1154
sg27
Nsbasg112
(lp1155
S'ADRP reg, #lsm_event_handler@PAGE'
p1156
aS'ADD reg, reg, #lsm_event_handler@PAGEOFF'
p1157
aS'MOV reg, reg9'
p1158
aS'BL q6lsm_client_alloc'
p1159
aS'STR reg, mem'
p1160
aS'MOV reg2, reg'
p1161
aS'CBNZ reg, func'
p1162
asg127
Nsg5
S'0xffffffc000c31e24L'
p1163
sg129
(lp1164
S'0xffffffc000c31df4L'
p1165
aS'0xffffffc000c31e10L'
p1166
asg6
Nsg131
(lp1167
S'0xffffffc000c31e40L'
p1168
aS'0xffffffc000c31e68L'
p1169
asg135
Nsg136
Nsg137
S'8c3bc37749b49710c93d71143b3fec3e'
p1170
sg139
S'af6cb1d031e6b41babddda8fc99bfe77'
p1171
sg141
(lp1172
g1111
ag1118
ag1125
ag1132
ag1139
ag1146
ag1153
asg143
Nsba(ibclass
BBasicBlock
p1173
(dp1174
g12
Nsg13
(lp1175
(ibclass
BInstr
p1176
(dp1177
g2
Nsg17
S'ADD             X1, X21, #__func__.29837@PAGEOFF; "msm_lsm_pcm_pointer"'
p1178
sg19
S'a1e20591'
p1179
sg21
Vadd x1, x21, #0x178
p1180
sg5
L18446743798844431936L
sg6
Nsg23
S'ADD'
p1181
sg25
S'0xffffffc000c31e40L'
p1182
sg27
Nsba(ibclass
BInstr
p1183
(dp1184
g2
Nsg17
S'ADRP            X0, #unk_FFFFFFC00146C4C1@PAGE'
p1185
sg19
S'c04100f0'
p1186
sg21
Vadrp x0, #0x83b000
p1187
sg5
L18446743798844431940L
sg6
Nsg23
S'ADRP'
p1188
sg25
S'0xffffffc000c31e44L'
p1189
sg27
Nsba(ibclass
BInstr
p1190
(dp1191
g2
Nsg17
S'ADD             X1, X1, #0xC8'
p1192
sg19
S'21200391'
p1193
sg21
Vadd x1, x1, #0xc8
p1194
sg5
L18446743798844431944L
sg6
Nsg23
S'ADD'
p1195
sg25
S'0xffffffc000c31e48L'
p1196
sg27
Nsba(ibclass
BInstr
p1197
(dp1198
g2
Nsg17
S'ADD             X0, X0, #unk_FFFFFFC00146C4C1@PAGEOFF'
p1199
sg19
S'00041391'
p1200
sg21
Vadd x0, x0, #0x4c1
p1201
sg5
L18446743798844431948L
sg6
Nsg23
S'ADD'
p1202
sg25
S'0xffffffc000c31e4cL'
p1203
sg27
Nsba(ibclass
BInstr
p1204
(dp1205
g2
Nsg17
S'BL              printk'
p1206
sg19
S'c4060894'
p1207
sg21
Vbl #0x201b10
p1208
sg5
L18446743798844431952L
sg6
Nsg23
S'BL'
p1209
sg25
S'0xffffffc000c31e50L'
p1210
sg27
Nsba(ibclass
BInstr
p1211
(dp1212
g2
Nsg17
S'MOV             X0, X19'
p1213
sg19
S'e00313aa'
p1214
sg21
Vmov x0, x19
p1215
sg5
L18446743798844431956L
sg6
Nsg23
S'MOV'
p1216
sg25
S'0xffffffc000c31e54L'
p1217
sg27
Nsba(ibclass
BInstr
p1218
(dp1219
g2
Nsg17
S'BL              kfree'
p1220
sg19
S'9a04db97'
p1221
sg21
Vbl #0xffffffffff6c1268
p1222
sg5
L18446743798844431960L
sg6
Nsg23
S'BL'
p1223
sg25
S'0xffffffc000c31e58L'
p1224
sg27
Nsba(ibclass
BInstr
p1225
(dp1226
g2
Nsg17
S'STR             X22, [X20,#0x158]'
p1227
sg19
S'96ae00f9'
p1228
sg21
Vstr x22, [x20, #0x158]
p1229
sg5
L18446743798844431964L
sg6
Nsg23
S'STR'
p1230
sg25
S'0xffffffc000c31e5cL'
p1231
sg27
Nsbasg112
(lp1232
S'ADD reg, reg1, #__func__.29837@PAGEOFF'
p1233
aS'ADRP reg, #func@PAGE'
p1234
aS'ADD reg, reg, #0xC8'
p1235
aS'ADD reg, reg, #func@PAGEOFF'
p1236
aS'BL printk'
p1237
aS'MOV reg, reg9'
p1238
aS'BL kfree'
p1239
aS'STR reg2, mem'
p1240
asg127
Nsg5
S'0xffffffc000c31e40L'
p1241
sg129
(lp1242
S'0xffffffc000c31e24L'
p1243
asg6
Nsg131
(lp1244
S'0xffffffc000c31e60L'
p1245
asg135
Nsg136
Nsg137
S'74b8450319eb1fe41b3cd60cc733e263'
p1246
sg139
S'34005cfd6f883cd3d2847857681a8923'
p1247
sg141
(lp1248
g1181
ag1188
ag1195
ag1202
ag1209
ag1216
ag1223
ag1230
asg143
Nsba(ibclass
BBasicBlock
p1249
(dp1250
g12
Nsg13
(lp1251
(ibclass
BInstr
p1252
(dp1253
g2
Nsg17
S'MOV             W0, #0xFFFFFFF4'
p1254
sg19
S'60018012'
p1255
sg21
Vmovn w0, #0xb
p1256
sg5
L18446743798844431968L
sg6
Nsg23
S'MOV'
p1257
sg25
S'0xffffffc000c31e60L'
p1258
sg27
Nsba(ibclass
BInstr
p1259
(dp1260
g2
Nsg17
S'B               loc_FFFFFFC000C31E70'
p1261
sg19
S'03000014'
p1262
sg21
Vb #0xc
p1263
sg5
L18446743798844431972L
sg6
Nsg23
g317
sg25
S'0xffffffc000c31e64L'
p1264
sg27
Nsbasg112
(lp1265
S'MOV reg, #0xFFFFFFF4'
p1266
aS'B func'
p1267
asg127
Nsg5
S'0xffffffc000c31e60L'
p1268
sg129
(lp1269
S'0xffffffc000c31cccL'
p1270
aS'0xffffffc000c31e40L'
p1271
asg6
Nsg131
(lp1272
S'0xffffffc000c31e70L'
p1273
asg135
Nsg136
Nsg137
S'b6c4e95ccfe77a95e4cf2019dd3d5574'
p1274
sg139
S'fbd172be40f78c2f94cc4ac7a335816f'
p1275
sg141
(lp1276
g1257
ag317
asg143
Nsba(ibclass
BBasicBlock
p1277
(dp1278
g12
Nsg13
(lp1279
(ibclass
BInstr
p1280
(dp1281
g2
Nsg17
S'STRB            WZR, [X0,#0xC0]'
p1282
sg19
S'1f000339'
p1283
sg21
Vstrb wzr, [x0, #0xc0]
p1284
sg5
L18446743798844431976L
sg6
Nsg23
S'STR'
p1285
sg25
S'0xffffffc000c31e68L'
p1286
sg27
Nsba(ibclass
BInstr
p1287
(dp1288
g2
Nsg17
S'MOV             W0, #0'
p1289
sg19
S'00008052'
p1290
sg21
Vmovz w0, #0
p1291
sg5
L18446743798844431980L
sg6
Nsg23
S'MOV'
p1292
sg25
S'0xffffffc000c31e6cL'
p1293
sg27
Nsbasg112
(lp1294
S'STRB WZR, mem'
p1295
aS'MOV reg, #0'
p1296
asg127
Nsg5
S'0xffffffc000c31e68L'
p1297
sg129
(lp1298
S'0xffffffc000c31e24L'
p1299
asg6
Nsg131
(lp1300
S'0xffffffc000c31e70L'
p1301
asg135
Nsg136
Nsg137
S'9fcaec9ccab04a74fdf869d8a00976ef'
p1302
sg139
S'78ee2b50fd6260bf2c28f7ccd3e63093'
p1303
sg141
(lp1304
g1285
ag1292
asg143
Nsba(ibclass
BBasicBlock
p1305
(dp1306
g12
Nsg13
(lp1307
(ibclass
BInstr
p1308
(dp1309
g2
Nsg17
S'LDP             X19, X20, [SP,#0x30+var_20]'
p1310
sg19
S'f35341a9'
p1311
sg21
Vldp x19, x20, [sp, #0x10]
p1312
sg5
L18446743798844431984L
sg6
Nsg23
S'LDP'
p1313
sg25
S'0xffffffc000c31e70L'
p1314
sg27
Nsba(ibclass
BInstr
p1315
(dp1316
g2
Nsg17
S'LDP             X21, X22, [SP,#0x30+var_10]'
p1317
sg19
S'f55b42a9'
p1318
sg21
Vldp x21, x22, [sp, #0x20]
p1319
sg5
L18446743798844431988L
sg6
Nsg23
S'LDP'
p1320
sg25
S'0xffffffc000c31e74L'
p1321
sg27
Nsba(ibclass
BInstr
p1322
(dp1323
g2
Nsg17
S'LDR             X23, [SP,#0x30+var_s0]'
p1324
sg19
S'f71b40f9'
p1325
sg21
Vldr x23, [sp, #0x30]
p1326
sg5
L18446743798844431992L
sg6
Nsg23
S'LDR'
p1327
sg25
S'0xffffffc000c31e78L'
p1328
sg27
Nsba(ibclass
BInstr
p1329
(dp1330
g2
Nsg17
S'LDP             X29, X30, [SP+0x30+var_30],#0x40'
p1331
sg19
S'fd7bc4a8'
p1332
sg21
Vldp x29, x30, [sp], #0x40
p1333
sg5
L18446743798844431996L
sg6
Nsg23
S'LDP'
p1334
sg25
S'0xffffffc000c31e7cL'
p1335
sg27
Nsba(ibclass
BInstr
p1336
(dp1337
g2
Nsg17
S'RET'
p1338
sg19
S'c0035fd6'
p1339
sg21
Vret 
p1340
sg5
L18446743798844432000L
sg6
Nsg23
S'RET'
p1341
sg25
S'0xffffffc000c31e80L'
p1342
sg27
Nsbasg112
(lp1343
S'LDP reg9, reg0, mem'
p1344
aS'LDP reg1, reg2, mem'
p1345
aS'LDR reg3, mem'
p1346
aS'LDP reg9, reg0, mem,#0x40'
p1347
ag1338
asg127
Nsg5
S'0xffffffc000c31e70L'
p1348
sg129
(lp1349
S'0xffffffc000c31e60L'
p1350
aS'0xffffffc000c31e68L'
p1351
asg6
Nsg131
(lp1352
sg135
Nsg136
Nsg137
S'1e0216626bc1d2c4a3818c295262fb77'
p1353
sg139
S'c1139f102b25855b72cb51e28947cb2e'
p1354
sg141
(lp1355
g1313
ag1320
ag1327
ag1334
ag1341
asg143
Nsbasb.