(ibclass
BFunc
p0
(dp1
S'hash'
p2
NsS'name'
p3
S'msm_comm_get_pixel_fmt_fourcc'
p4
sS'start_address'
p5
L18446743798839631732L
sS'flag'
p6
NsS'program'
p7
NsS'bbs'
p8
(lp9
(ibclass
BBasicBlock
p10
(dp11
S'function'
p12
NsS'binstrs'
p13
(lp14
(ibclass
BInstr
p15
(dp16
g2
NsS'disasm'
p17
S'STP             X29, X30, [SP,#-0x10+var_10]!'
p18
sS'bytes'
p19
S'fd7bbea9'
p20
sS'disasm_striped'
p21
Vstp x29, x30, [sp, #-0x20]!
p22
sg5
L18446743798839631732L
sg6
NsS'mnem'
p23
S'STP'
p24
sS'address'
p25
S'0xffffffc00079df74L'
p26
sS'basicblock'
p27
Nsba(ibclass
BInstr
p28
(dp29
g2
Nsg17
S'MOV             X29, SP'
p30
sg19
S'fd030091'
p31
sg21
Vmov x29, sp
p32
sg5
L18446743798839631736L
sg6
Nsg23
S'MOV'
p33
sg25
S'0xffffffc00079df78L'
p34
sg27
Nsba(ibclass
BInstr
p35
(dp36
g2
Nsg17
S'STR             X19, [SP,#0x10+var_s0]'
p37
sg19
S'f30b00f9'
p38
sg21
Vstr x19, [sp, #0x10]
p39
sg5
L18446743798839631740L
sg6
Nsg23
S'STR'
p40
sg25
S'0xffffffc00079df7cL'
p41
sg27
Nsba(ibclass
BInstr
p42
(dp43
g2
Nsg17
S'CBZ             X0, loc_FFFFFFC00079DF90'
p44
sg19
S'800000b4'
p45
sg21
Vcbz x0, #0x10
p46
sg5
L18446743798839631744L
sg6
Nsg23
S'CBZ'
p47
sg25
S'0xffffffc00079df80L'
p48
sg27
NsbasS'disasm_list'
p49
(lp50
S'STP reg9, reg0, mem!'
p51
aS'MOV reg9, SP'
p52
aS'STR reg9, mem'
p53
aS'CBZ reg, func'
p54
asS'end_address'
p55
Nsg5
S'0xffffffc00079df74L'
p56
sS'preds'
p57
(lp58
sg6
NsS'succs'
p59
(lp60
S'0xffffffc00079df84L'
p61
aS'0xffffffc00079df90L'
p62
asS'hash_v3'
p63
NsS'flag_v2'
p64
NsS'hash_v1'
p65
S'a0ec039e831edb83b3c233805b01e119'
p66
sS'hash_v2'
p67
S'ec3ed769de3f6a3b902405679c6db4de'
p68
sS'mnen_list'
p69
(lp70
g24
ag33
ag40
ag47
asS'neighbour_disasm_list'
p71
Nsba(ibclass
BBasicBlock
p72
(dp73
g12
Nsg13
(lp74
(ibclass
BInstr
p75
(dp76
g2
Nsg17
S'MOV             X3, #0'
p77
sg19
S'030080d2'
p78
sg21
Vmovz x3, #0
p79
sg5
L18446743798839631748L
sg6
Nsg23
S'MOV'
p80
sg25
S'0xffffffc00079df84L'
p81
sg27
Nsba(ibclass
BInstr
p82
(dp83
g2
Nsg17
S'MOV             X5, #0x78'
p84
sg19
S'050f80d2'
p85
sg21
Vmovz x5, #0x78
p86
sg5
L18446743798839631752L
sg6
Nsg23
S'MOV'
p87
sg25
S'0xffffffc00079df88L'
p88
sg27
Nsba(ibclass
BInstr
p89
(dp90
g2
Nsg17
S'B               loc_FFFFFFC00079DFE4'
p91
sg19
S'16000014'
p92
sg21
Vb #0x58
p93
sg5
L18446743798839631756L
sg6
Nsg23
S'B'
p94
sg25
S'0xffffffc00079df8cL'
p95
sg27
Nsbasg49
(lp96
S'MOV reg, #0'
p97
aS'MOV reg, #0x78'
p98
aS'B func'
p99
asg55
Nsg5
S'0xffffffc00079df84L'
p100
sg57
(lp101
S'0xffffffc00079df74L'
p102
asg6
Nsg59
(lp103
S'0xffffffc00079dfe4L'
p104
asg63
Nsg64
Nsg65
S'7391dd723071525ee502f0c2742c56af'
p105
sg67
S'76dd56cfe7e855abfe2762e624241e9b'
p106
sg69
(lp107
g80
ag87
ag94
asg71
Nsba(ibclass
BBasicBlock
p108
(dp109
g12
Nsg13
(lp110
(ibclass
BInstr
p111
(dp112
g2
Nsg17
S'ADRP            X1, #qword_FFFFFFC000E4A8A0@PAGE'
p113
sg19
S'613500b0'
p114
sg21
Vadrp x1, #0x6ad000
p115
sg5
L18446743798839631760L
sg6
Nsg23
S'ADRP'
p116
sg25
S'0xffffffc00079df90L'
p117
sg27
Nsba(ibclass
BInstr
p118
(dp119
g2
Nsg17
S'LDR             X1, [X1,#qword_FFFFFFC000E4A8A0@PAGEOFF]'
p120
sg19
S'215044f9'
p121
sg21
Vldr x1, [x1, #0x8a0]
p122
sg5
L18446743798839631764L
sg6
Nsg23
S'LDR'
p123
sg25
S'0xffffffc00079df94L'
p124
sg27
Nsba(ibclass
BInstr
p125
(dp126
g2
Nsg17
S'LDR             W1, [X1]'
p127
sg19
S'210040b9'
p128
sg21
Vldr w1, [x1]
p129
sg5
L18446743798839631768L
sg6
Nsg23
S'LDR'
p130
sg25
S'0xffffffc00079df98L'
p131
sg27
Nsba(ibclass
BInstr
p132
(dp133
g2
Nsg17
S'TBZ             W1, #0, loc_FFFFFFC00079E040'
p134
sg19
S'21050036'
p135
sg21
Vtbz w1, #0, #0xa4
p136
sg5
L18446743798839631772L
sg6
Nsg23
S'TBZ'
p137
sg25
S'0xffffffc00079df9cL'
p138
sg27
Nsbasg49
(lp139
S'ADRP reg, #func@PAGE'
p140
aS'LDR reg, mem'
p141
aS'LDR reg, mem'
p142
aS'TBZ reg, #0, func'
p143
asg55
Nsg5
S'0xffffffc00079df90L'
p144
sg57
(lp145
S'0xffffffc00079df74L'
p146
asg6
Nsg59
(lp147
S'0xffffffc00079dfa0L'
p148
aS'0xffffffc00079e040L'
p149
asg63
Nsg64
Nsg65
S'2de94c9e326481f2f467f11acce8dcc9'
p150
sg67
S'f9f7225e2bae36aff04e5d93bafe5e1d'
p151
sg69
(lp152
g116
ag123
ag130
ag137
asg71
Nsba(ibclass
BBasicBlock
p153
(dp154
g12
Nsg13
(lp155
(ibclass
BInstr
p156
(dp157
g2
Nsg17
S'ADRP            X1, #qword_FFFFFFC000E48D48@PAGE'
p158
sg19
S'413500f0'
p159
sg21
Vadrp x1, #0x6ab000
p160
sg5
L18446743798839631776L
sg6
Nsg23
S'ADRP'
p161
sg25
S'0xffffffc00079dfa0L'
p162
sg27
Nsba(ibclass
BInstr
p163
(dp164
g2
Nsg17
S'LDR             X1, [X1,#qword_FFFFFFC000E48D48@PAGEOFF]'
p165
sg19
S'21a446f9'
p166
sg21
Vldr x1, [x1, #0xd48]
p167
sg5
L18446743798839631780L
sg6
Nsg23
S'LDR'
p168
sg25
S'0xffffffc00079dfa4L'
p169
sg27
Nsba(ibclass
BInstr
p170
(dp171
g2
Nsg17
S'MOV             X19, X0'
p172
sg19
S'f30300aa'
p173
sg21
Vmov x19, x0
p174
sg5
L18446743798839631784L
sg6
Nsg23
S'MOV'
p175
sg25
S'0xffffffc00079dfa8L'
p176
sg27
Nsba(ibclass
BInstr
p177
(dp178
g2
Nsg17
S'LDR             W1, [X1]'
p179
sg19
S'210040b9'
p180
sg21
Vldr w1, [x1]
p181
sg5
L18446743798839631788L
sg6
Nsg23
S'LDR'
p182
sg25
S'0xffffffc00079dfacL'
p183
sg27
Nsba(ibclass
BInstr
p184
(dp185
g2
Nsg17
S'CBNZ            W1, loc_FFFFFFC00079E04C'
p186
sg19
S'e1040035'
p187
sg21
Vcbnz w1, #0x9c
p188
sg5
L18446743798839631792L
sg6
Nsg23
S'CBNZ'
p189
sg25
S'0xffffffc00079dfb0L'
p190
sg27
Nsbasg49
(lp191
S'ADRP reg, #func@PAGE'
p192
aS'LDR reg, mem'
p193
aS'MOV reg9, reg'
p194
aS'LDR reg, mem'
p195
aS'CBNZ reg, func'
p196
asg55
Nsg5
S'0xffffffc00079dfa0L'
p197
sg57
(lp198
S'0xffffffc00079df90L'
p199
asg6
Nsg59
(lp200
S'0xffffffc00079dfb4L'
p201
aS'0xffffffc00079e04cL'
p202
asg63
Nsg64
Nsg65
S'd80cc6d531f24a5b2d60307977d236c7'
p203
sg67
S'd4ce1f39a7dcca0cbc6138eda5878f62'
p204
sg69
(lp205
g161
ag168
ag175
ag182
ag189
asg71
Nsba(ibclass
BBasicBlock
p206
(dp207
g12
Nsg13
(lp208
(ibclass
BInstr
p209
(dp210
g2
Nsg17
S'ADRP            X0, #unk_FFFFFFC0013B66C4@PAGE'
p211
sg19
S'c06000b0'
p212
sg21
Vadrp x0, #0xc19000
p213
sg5
L18446743798839631796L
sg6
Nsg23
S'ADRP'
p214
sg25
S'0xffffffc00079dfb4L'
p215
sg27
Nsba(ibclass
BInstr
p216
(dp217
g2
Nsg17
S'ADRP            X1, #(aQcomMdssDsi_17+0x1B)@PAGE; "err"'
p218
sg19
S'815c00d0'
p219
sg21
Vadrp x1, #0xb92000
p220
sg5
L18446743798839631800L
sg6
Nsg23
S'ADRP'
p221
sg25
S'0xffffffc00079dfb8L'
p222
sg27
Nsba(ibclass
BInstr
p223
(dp224
g2
Nsg17
S'ADD             X1, X1, #(aQcomMdssDsi_17+0x1B)@PAGEOFF; "err"'
p225
sg19
S'21801291'
p226
sg21
Vadd x1, x1, #0x4a0
p227
sg5
L18446743798839631804L
sg6
Nsg23
S'ADD'
p228
sg25
S'0xffffffc00079dfbcL'
p229
sg27
Nsba(ibclass
BInstr
p230
(dp231
g2
Nsg17
S'MOV             X2, X19'
p232
sg19
S'e20313aa'
p233
sg21
Vmov x2, x19
p234
sg5
L18446743798839631808L
sg6
Nsg23
S'MOV'
p235
sg25
S'0xffffffc00079dfc0L'
p236
sg27
Nsba(ibclass
BInstr
p237
(dp238
g2
Nsg17
S'ADD             X0, X0, #unk_FFFFFFC0013B66C4@PAGEOFF'
p239
sg19
S'00101b91'
p240
sg21
Vadd x0, x0, #0x6c4
p241
sg5
L18446743798839631812L
sg6
Nsg23
S'ADD'
p242
sg25
S'0xffffffc00079dfc4L'
p243
sg27
Nsba(ibclass
BInstr
p244
(dp245
g2
Nsg17
S'BL              printk'
p246
sg19
S'66561a94'
p247
sg21
Vbl #0x695998
p248
sg5
L18446743798839631816L
sg6
Nsg23
S'BL'
p249
sg25
S'0xffffffc00079dfc8L'
p250
sg27
Nsba(ibclass
BInstr
p251
(dp252
g2
Nsg17
S'B               loc_FFFFFFC00079E04C'
p253
sg19
S'20000014'
p254
sg21
Vb #0x80
p255
sg5
L18446743798839631820L
sg6
Nsg23
g94
sg25
S'0xffffffc00079dfccL'
p256
sg27
Nsbasg49
(lp257
S'ADRP reg, #func@PAGE'
p258
aS'ADRP reg, #(aQcomMdssDsi_17+0x1B)@PAGE'
p259
aS'ADD reg, reg, #(aQcomMdssDsi_17+0x1B)@PAGEOFF'
p260
aS'MOV reg, reg9'
p261
aS'ADD reg, reg, #func@PAGEOFF'
p262
aS'BL printk'
p263
aS'B func'
p264
asg55
Nsg5
S'0xffffffc00079dfb4L'
p265
sg57
(lp266
S'0xffffffc00079dfa0L'
p267
asg6
Nsg59
(lp268
S'0xffffffc00079e04cL'
p269
asg63
Nsg64
Nsg65
S'ff7f44466e74267aa9d96fda41da35ba'
p270
sg67
S'ce8cadf5efd001b9bcf49855903a28a2'
p271
sg69
(lp272
g214
ag221
ag228
ag235
ag242
ag249
ag94
asg71
Nsba(ibclass
BBasicBlock
p273
(dp274
g12
Nsg13
(lp275
(ibclass
BInstr
p276
(dp277
g2
Nsg17
S'MADD            X6, X3, X5, X0'
p278
sg19
S'6600059b'
p279
sg21
Vmadd x6, x3, x5, x0
p280
sg5
L18446743798839631824L
sg6
Nsg23
S'MADD'
p281
sg25
S'0xffffffc00079dfd0L'
p282
sg27
Nsba(ibclass
BInstr
p283
(dp284
g2
Nsg17
S'LDR             W6, [X6,#0x60]'
p285
sg19
S'c66040b9'
p286
sg21
Vldr w6, [x6, #0x60]
p287
sg5
L18446743798839631828L
sg6
Nsg23
S'LDR'
p288
sg25
S'0xffffffc00079dfd4L'
p289
sg27
Nsba(ibclass
BInstr
p290
(dp291
g2
Nsg17
S'ADD             X3, X3, #1'
p292
sg19
S'63040091'
p293
sg21
Vadd x3, x3, #1
p294
sg5
L18446743798839631832L
sg6
Nsg23
S'ADD'
p295
sg25
S'0xffffffc00079dfd8L'
p296
sg27
Nsba(ibclass
BInstr
p297
(dp298
g2
Nsg17
S'CMP             W6, W2'
p299
sg19
S'df00026b'
p300
sg21
Vcmp w6, w2
p301
sg5
L18446743798839631836L
sg6
Nsg23
S'CMP'
p302
sg25
S'0xffffffc00079dfdcL'
p303
sg27
Nsba(ibclass
BInstr
p304
(dp305
g2
Nsg17
S'B.EQ            loc_FFFFFFC00079DFF0'
p306
sg19
S'80000054'
p307
sg21
Vb.eq #0x10
p308
sg5
L18446743798839631840L
sg6
Nsg23
g94
sg25
S'0xffffffc00079dfe0L'
p309
sg27
Nsbasg49
(lp310
S'MADD reg, reg, reg, reg'
p311
aS'LDR reg, mem'
p312
aS'ADD reg, reg, #1'
p313
aS'CMP reg, reg'
p314
aS'B.EQ func'
p315
asg55
Nsg5
S'0xffffffc00079dfd0L'
p316
sg57
(lp317
S'0xffffffc00079dfe4L'
p318
asg6
Nsg59
(lp319
S'0xffffffc00079dfe4L'
p320
aS'0xffffffc00079dff0L'
p321
asg63
Nsg64
Nsg65
S'5cc18ab01bf4c6f05a5db6b31f8f35a3'
p322
sg67
S'3bc4a21f321bbd10422a96abd43b1a0a'
p323
sg69
(lp324
g281
ag288
ag295
ag302
ag94
asg71
Nsba(ibclass
BBasicBlock
p325
(dp326
g12
Nsg13
(lp327
(ibclass
BInstr
p328
(dp329
g2
Nsg17
S'CMP             W3, W1'
p330
sg19
S'7f00016b'
p331
sg21
Vcmp w3, w1
p332
sg5
L18446743798839631844L
sg6
Nsg23
S'CMP'
p333
sg25
S'0xffffffc00079dfe4L'
p334
sg27
Nsba(ibclass
BInstr
p335
(dp336
g2
Nsg17
S'MOV             W4, W3'
p337
sg19
S'e403032a'
p338
sg21
Vmov w4, w3
p339
sg5
L18446743798839631848L
sg6
Nsg23
S'MOV'
p340
sg25
S'0xffffffc00079dfe8L'
p341
sg27
Nsba(ibclass
BInstr
p342
(dp343
g2
Nsg17
S'B.LT            loc_FFFFFFC00079DFD0'
p344
sg19
S'2bffff54'
p345
sg21
Vb.lt #0xffffffffffffffe4
p346
sg5
L18446743798839631852L
sg6
Nsg23
g94
sg25
S'0xffffffc00079dfecL'
p347
sg27
Nsbasg49
(lp348
S'CMP reg, reg'
p349
aS'MOV reg, reg'
p350
aS'B.LT func'
p351
asg55
Nsg5
S'0xffffffc00079dfe4L'
p352
sg57
(lp353
S'0xffffffc00079df84L'
p354
aS'0xffffffc00079dfd0L'
p355
asg6
Nsg59
(lp356
S'0xffffffc00079dfd0L'
p357
aS'0xffffffc00079dff0L'
p358
asg63
Nsg64
Nsg65
S'e8df9ba4cde3984b4ab59d5bb6791e02'
p359
sg67
S'580579e3a228dad7eb6af049e67ea2a7'
p360
sg69
(lp361
g333
ag340
ag94
asg71
Nsba(ibclass
BBasicBlock
p362
(dp363
g12
Nsg13
(lp364
(ibclass
BInstr
p365
(dp366
g2
Nsg17
S'CMP             W4, W1'
p367
sg19
S'9f00016b'
p368
sg21
Vcmp w4, w1
p369
sg5
L18446743798839631856L
sg6
Nsg23
S'CMP'
p370
sg25
S'0xffffffc00079dff0L'
p371
sg27
Nsba(ibclass
BInstr
p372
(dp373
g2
Nsg17
S'B.NE            loc_FFFFFFC00079E034'
p374
sg19
S'01020054'
p375
sg21
Vb.ne #0x40
p376
sg5
L18446743798839631860L
sg6
Nsg23
g94
sg25
S'0xffffffc00079dff4L'
p377
sg27
Nsbasg49
(lp378
S'CMP reg, reg'
p379
aS'B.NE func'
p380
asg55
Nsg5
S'0xffffffc00079dff0L'
p381
sg57
(lp382
S'0xffffffc00079dfd0L'
p383
aS'0xffffffc00079dfe4L'
p384
asg6
Nsg59
(lp385
S'0xffffffc00079dff8L'
p386
aS'0xffffffc00079e034L'
p387
asg63
Nsg64
Nsg65
S'c78fd620a449e3c979d3f3ec12d4ee88'
p388
sg67
S'540ee9ce1e0ac85e4f670464eda924b3'
p389
sg69
(lp390
g370
ag94
asg71
Nsba(ibclass
BBasicBlock
p391
(dp392
g12
Nsg13
(lp393
(ibclass
BInstr
p394
(dp395
g2
Nsg17
S'ADRP            X0, #qword_FFFFFFC000E4A8A0@PAGE'
p396
sg19
S'603500b0'
p397
sg21
Vadrp x0, #0x6ad000
p398
sg5
L18446743798839631864L
sg6
Nsg23
S'ADRP'
p399
sg25
S'0xffffffc00079dff8L'
p400
sg27
Nsba(ibclass
BInstr
p401
(dp402
g2
Nsg17
S'LDR             X0, [X0,#qword_FFFFFFC000E4A8A0@PAGEOFF]'
p403
sg19
S'005044f9'
p404
sg21
Vldr x0, [x0, #0x8a0]
p405
sg5
L18446743798839631868L
sg6
Nsg23
S'LDR'
p406
sg25
S'0xffffffc00079dffcL'
p407
sg27
Nsba(ibclass
BInstr
p408
(dp409
g2
Nsg17
S'B               e843419_0048_000003b5_356c60'
p410
sg19
S'd1361014'
p411
sg21
Vb #0x40db44
p412
sg5
L18446743798839631872L
sg6
Nsg23
g94
sg25
S'0xffffffc00079e000L'
p413
sg27
Nsbasg49
(lp414
S'ADRP reg, #func@PAGE'
p415
aS'LDR reg, mem'
p416
aS'B e843419_0048_000003b5_356c60'
p417
asg55
Nsg5
S'0xffffffc00079dff8L'
p418
sg57
(lp419
S'0xffffffc00079dff0L'
p420
asg6
Nsg59
(lp421
S'0xffffffc000babb44L'
p422
asg63
Nsg64
Nsg65
S'd96d8e061d8bf57246e8747c88156f08'
p423
sg67
S'13551046b500a19045a7a27f12b7f369'
p424
sg69
(lp425
g399
ag406
ag94
asg71
Nsba(ibclass
BBasicBlock
p426
(dp427
g12
Nsg13
(lp428
(ibclass
BInstr
p429
(dp430
g2
Nsg17
S'TBZ             W0, #2, loc_FFFFFFC00079E048'
p431
sg19
S'20021036'
p432
sg21
Vtbz w0, #2, #0x44
p433
sg5
L18446743798839631876L
sg6
Nsg23
S'TBZ'
p434
sg25
S'0xffffffc00079e004L'
p435
sg27
Nsbasg49
(lp436
S'TBZ reg, #2, func'
p437
asg55
Nsg5
S'0xffffffc00079e004L'
p438
sg57
(lp439
sg6
Nsg59
(lp440
S'0xffffffc00079e008L'
p441
aS'0xffffffc00079e048L'
p442
asg63
Nsg64
Nsg65
S'b05993cf85beb302c9604086eec65e11'
p443
sg67
S'8693d4182dfbbff06514f0c4ff816102'
p444
sg69
(lp445
g434
asg71
Nsba(ibclass
BBasicBlock
p446
(dp447
g12
Nsg13
(lp448
(ibclass
BInstr
p449
(dp450
g2
Nsg17
S'ADRP            X0, #qword_FFFFFFC000E48D48@PAGE'
p451
sg19
S'403500d0'
p452
sg21
Vadrp x0, #0x6aa000
p453
sg5
L18446743798839631880L
sg6
Nsg23
S'ADRP'
p454
sg25
S'0xffffffc00079e008L'
p455
sg27
Nsba(ibclass
BInstr
p456
(dp457
g2
Nsg17
S'LDR             X0, [X0,#qword_FFFFFFC000E48D48@PAGEOFF]'
p458
sg19
S'00a446f9'
p459
sg21
Vldr x0, [x0, #0xd48]
p460
sg5
L18446743798839631884L
sg6
Nsg23
S'LDR'
p461
sg25
S'0xffffffc00079e00cL'
p462
sg27
Nsba(ibclass
BInstr
p463
(dp464
g2
Nsg17
S'MOV             X19, #0'
p465
sg19
S'130080d2'
p466
sg21
Vmovz x19, #0
p467
sg5
L18446743798839631888L
sg6
Nsg23
S'MOV'
p468
sg25
S'0xffffffc00079e010L'
p469
sg27
Nsba(ibclass
BInstr
p470
(dp471
g2
Nsg17
S'LDR             W0, [X0]'
p472
sg19
S'000040b9'
p473
sg21
Vldr w0, [x0]
p474
sg5
L18446743798839631892L
sg6
Nsg23
S'LDR'
p475
sg25
S'0xffffffc00079e014L'
p476
sg27
Nsba(ibclass
BInstr
p477
(dp478
g2
Nsg17
S'CBNZ            W0, loc_FFFFFFC00079E04C'
p479
sg19
S'a0010035'
p480
sg21
Vcbnz w0, #0x34
p481
sg5
L18446743798839631896L
sg6
Nsg23
S'CBNZ'
p482
sg25
S'0xffffffc00079e018L'
p483
sg27
Nsbasg49
(lp484
S'ADRP reg, #func@PAGE'
p485
aS'LDR reg, mem'
p486
aS'MOV reg9, #0'
p487
aS'LDR reg, mem'
p488
aS'CBNZ reg, func'
p489
asg55
Nsg5
S'0xffffffc00079e008L'
p490
sg57
(lp491
S'0xffffffc00079e004L'
p492
asg6
Nsg59
(lp493
S'0xffffffc00079e01cL'
p494
aS'0xffffffc00079e04cL'
p495
asg63
Nsg64
Nsg65
S'd80cc6d531f24a5b2d60307977d236c7'
p496
sg67
S'ea76a59f29ab8e93dd3b835600e7dc93'
p497
sg69
(lp498
g454
ag461
ag468
ag475
ag482
asg71
Nsba(ibclass
BBasicBlock
p499
(dp500
g12
Nsg13
(lp501
(ibclass
BInstr
p502
(dp503
g2
Nsg17
S'ADRP            X0, #unk_FFFFFFC0013B66A1@PAGE'
p504
sg19
S'c0600090'
p505
sg21
Vadrp x0, #0xc18000
p506
sg5
L18446743798839631900L
sg6
Nsg23
S'ADRP'
p507
sg25
S'0xffffffc00079e01cL'
p508
sg27
Nsba(ibclass
BInstr
p509
(dp510
g2
Nsg17
S'ADRP            X1, #aInfo@PAGE; "info"'
p511
sg19
S'a15e00b0'
p512
sg21
Vadrp x1, #0xbd5000
p513
sg5
L18446743798839631904L
sg6
Nsg23
S'ADRP'
p514
sg25
S'0xffffffc00079e020L'
p515
sg27
Nsba(ibclass
BInstr
p516
(dp517
g2
Nsg17
S'ADD             X1, X1, #aInfo@PAGEOFF; "info"'
p518
sg19
S'21581b91'
p519
sg21
Vadd x1, x1, #0x6d6
p520
sg5
L18446743798839631908L
sg6
Nsg23
S'ADD'
p521
sg25
S'0xffffffc00079e024L'
p522
sg27
Nsba(ibclass
BInstr
p523
(dp524
g2
Nsg17
S'ADD             X0, X0, #unk_FFFFFFC0013B66A1@PAGEOFF'
p525
sg19
S'00841a91'
p526
sg21
Vadd x0, x0, #0x6a1
p527
sg5
L18446743798839631912L
sg6
Nsg23
S'ADD'
p528
sg25
S'0xffffffc00079e028L'
p529
sg27
Nsba(ibclass
BInstr
p530
(dp531
g2
Nsg17
S'BL              printk'
p532
sg19
S'4d561a94'
p533
sg21
Vbl #0x695934
p534
sg5
L18446743798839631916L
sg6
Nsg23
S'BL'
p535
sg25
S'0xffffffc00079e02cL'
p536
sg27
Nsba(ibclass
BInstr
p537
(dp538
g2
Nsg17
S'B               loc_FFFFFFC00079E04C'
p539
sg19
S'07000014'
p540
sg21
Vb #0x1c
p541
sg5
L18446743798839631920L
sg6
Nsg23
g94
sg25
S'0xffffffc00079e030L'
p542
sg27
Nsbasg49
(lp543
S'ADRP reg, #func@PAGE'
p544
aS'ADRP reg, #aInfo@PAGE'
p545
aS'ADD reg, reg, #aInfo@PAGEOFF'
p546
aS'ADD reg, reg, #func@PAGEOFF'
p547
aS'BL printk'
p548
aS'B func'
p549
asg55
Nsg5
S'0xffffffc00079e01cL'
p550
sg57
(lp551
S'0xffffffc00079e008L'
p552
asg6
Nsg59
(lp553
S'0xffffffc00079e04cL'
p554
asg63
Nsg64
Nsg65
S'b2a3927201f2643e37e238d870ced3c2'
p555
sg67
S'a889cc12cd570e572d0c0f1e966f615f'
p556
sg69
(lp557
g507
ag514
ag521
ag528
ag535
ag94
asg71
Nsba(ibclass
BBasicBlock
p558
(dp559
g12
Nsg13
(lp560
(ibclass
BInstr
p561
(dp562
g2
Nsg17
S'MOV             W19, #0x78'
p563
sg19
S'130f8052'
p564
sg21
Vmovz w19, #0x78
p565
sg5
L18446743798839631924L
sg6
Nsg23
S'MOV'
p566
sg25
S'0xffffffc00079e034L'
p567
sg27
Nsba(ibclass
BInstr
p568
(dp569
g2
Nsg17
S'SMADDL          X19, W4, W19, X0'
p570
sg19
S'9300339b'
p571
sg21
Vsmaddl x19, w4, w19, x0
p572
sg5
L18446743798839631928L
sg6
Nsg23
S'SMADDL'
p573
sg25
S'0xffffffc00079e038L'
p574
sg27
Nsba(ibclass
BInstr
p575
(dp576
g2
Nsg17
S'B               loc_FFFFFFC00079E04C'
p577
sg19
S'04000014'
p578
sg21
Vb #0x10
p579
sg5
L18446743798839631932L
sg6
Nsg23
g94
sg25
S'0xffffffc00079e03cL'
p580
sg27
Nsbasg49
(lp581
S'MOV reg9, #0x78'
p582
aS'SMADDL reg9, reg, reg9, reg'
p583
aS'B func'
p584
asg55
Nsg5
S'0xffffffc00079e034L'
p585
sg57
(lp586
S'0xffffffc00079dff0L'
p587
asg6
Nsg59
(lp588
S'0xffffffc00079e04cL'
p589
asg63
Nsg64
Nsg65
S'e0810f87982ff2b501b90664a54ca702'
p590
sg67
S'b7fa608ebdb2d74f3f37dec689c8e0d0'
p591
sg69
(lp592
g566
ag573
ag94
asg71
Nsba(ibclass
BBasicBlock
p593
(dp594
g12
Nsg13
(lp595
(ibclass
BInstr
p596
(dp597
g2
Nsg17
S'MOV             X19, X0'
p598
sg19
S'f30300aa'
p599
sg21
Vmov x19, x0
p600
sg5
L18446743798839631936L
sg6
Nsg23
S'MOV'
p601
sg25
S'0xffffffc00079e040L'
p602
sg27
Nsba(ibclass
BInstr
p603
(dp604
g2
Nsg17
S'B               loc_FFFFFFC00079E04C'
p605
sg19
S'02000014'
p606
sg21
Vb #8
p607
sg5
L18446743798839631940L
sg6
Nsg23
g94
sg25
S'0xffffffc00079e044L'
p608
sg27
Nsbasg49
(lp609
S'MOV reg9, reg'
p610
aS'B func'
p611
asg55
Nsg5
S'0xffffffc00079e040L'
p612
sg57
(lp613
S'0xffffffc00079df90L'
p614
asg6
Nsg59
(lp615
S'0xffffffc00079e04cL'
p616
asg63
Nsg64
Nsg65
S'b6c4e95ccfe77a95e4cf2019dd3d5574'
p617
sg67
S'1b743682713ad886e49754f9dd80e2a9'
p618
sg69
(lp619
g601
ag94
asg71
Nsba(ibclass
BBasicBlock
p620
(dp621
g12
Nsg13
(lp622
(ibclass
BInstr
p623
(dp624
g2
Nsg17
S'MOV             X19, #0'
p625
sg19
S'130080d2'
p626
sg21
Vmovz x19, #0
p627
sg5
L18446743798839631944L
sg6
Nsg23
S'MOV'
p628
sg25
S'0xffffffc00079e048L'
p629
sg27
Nsbasg49
(lp630
S'MOV reg9, #0'
p631
asg55
Nsg5
S'0xffffffc00079e048L'
p632
sg57
(lp633
S'0xffffffc00079e004L'
p634
asg6
Nsg59
(lp635
S'0xffffffc00079e04cL'
p636
asg63
Nsg64
Nsg65
S'17b32100aef1fc19670be7fd58bc85df'
p637
sg67
S'72f573c87f6f3c56e29191a101e77110'
p638
sg69
(lp639
g628
asg71
Nsba(ibclass
BBasicBlock
p640
(dp641
g12
Nsg13
(lp642
(ibclass
BInstr
p643
(dp644
g2
Nsg17
S'MOV             X0, X19'
p645
sg19
S'e00313aa'
p646
sg21
Vmov x0, x19
p647
sg5
L18446743798839631948L
sg6
Nsg23
S'MOV'
p648
sg25
S'0xffffffc00079e04cL'
p649
sg27
Nsba(ibclass
BInstr
p650
(dp651
g2
Nsg17
S'LDR             X19, [SP,#0x10+var_s0]'
p652
sg19
S'f30b40f9'
p653
sg21
Vldr x19, [sp, #0x10]
p654
sg5
L18446743798839631952L
sg6
Nsg23
S'LDR'
p655
sg25
S'0xffffffc00079e050L'
p656
sg27
Nsba(ibclass
BInstr
p657
(dp658
g2
Nsg17
S'LDP             X29, X30, [SP+0x10+var_10],#0x20'
p659
sg19
S'fd7bc2a8'
p660
sg21
Vldp x29, x30, [sp], #0x20
p661
sg5
L18446743798839631956L
sg6
Nsg23
S'LDP'
p662
sg25
S'0xffffffc00079e054L'
p663
sg27
Nsba(ibclass
BInstr
p664
(dp665
g2
Nsg17
S'RET'
p666
sg19
S'c0035fd6'
p667
sg21
Vret 
p668
sg5
L18446743798839631960L
sg6
Nsg23
S'RET'
p669
sg25
S'0xffffffc00079e058L'
p670
sg27
Nsbasg49
(lp671
S'MOV reg, reg9'
p672
aS'LDR reg9, mem'
p673
aS'LDP reg9, reg0, mem,#0x20'
p674
ag666
asg55
Nsg5
S'0xffffffc00079e04cL'
p675
sg57
(lp676
S'0xffffffc00079dfa0L'
p677
aS'0xffffffc00079dfb4L'
p678
aS'0xffffffc00079e008L'
p679
aS'0xffffffc00079e01cL'
p680
aS'0xffffffc00079e034L'
p681
aS'0xffffffc00079e040L'
p682
aS'0xffffffc00079e048L'
p683
asg6
Nsg59
(lp684
sg63
Nsg64
Nsg65
S'700b6007ea89efb2d19f65eecdfbdc66'
p685
sg67
S'2540ec61573c55ff75133ef1ef4cbd07'
p686
sg69
(lp687
g648
ag655
ag662
ag669
asg71
Nsba(ibclass
BBasicBlock
p688
(dp689
g12
Nsg13
(lp690
(ibclass
BInstr
p691
(dp692
g2
Nsg17
S"LDR             W0, [X0]; Alternative name is '$x'"
p693
sg19
Nsg21
S''
p694
sg5
L18446743798843882308L
sg6
Nsg23
S'LDR'
p695
sg25
S'0xffffffc000babb44L'
p696
sg27
Nsbasg49
(lp697
S'LDR reg, mem'
p698
asg55
Nsg5
S'0xffffffc000babb44L'
p699
sg57
(lp700
S'0xffffffc00079dff8L'
p701
asg6
Nsg59
(lp702
sg63
Nsg64
Nsg65
S'6645d4de79aee6373f120d72c0030e5f'
p703
sg67
S'f8d2f8f4cdf40ad12a334448a2a08c78'
p704
sg69
(lp705
g695
asg71
Nsbasb.