(ibclass
BFunc
p0
(dp1
S'hash'
p2
NsS'name'
p3
S'msm_isp_do_tasklet'
p4
sS'start_address'
p5
L18446743798840029028L
sS'flag'
p6
NsS'program'
p7
NsS'bbs'
p8
(lp9
(ibclass
BBasicBlock
p10
(dp11
S'function'
p12
NsS'binstrs'
p13
(lp14
(ibclass
BInstr
p15
(dp16
g2
NsS'disasm'
p17
S'STP             X29, X30, [SP,#-0x10+var_70]!'
p18
sS'bytes'
p19
S'fd7bb8a9'
p20
sS'disasm_striped'
p21
Vstp x29, x30, [sp, #-0x80]!
p22
sg5
L18446743798840029028L
sg6
NsS'mnem'
p23
S'STP'
p24
sS'address'
p25
S'0xffffffc0007fef64L'
p26
sS'basicblock'
p27
Nsba(ibclass
BInstr
p28
(dp29
g2
Nsg17
S'MOV             X29, SP'
p30
sg19
S'fd030091'
p31
sg21
Vmov x29, sp
p32
sg5
L18446743798840029032L
sg6
Nsg23
S'MOV'
p33
sg25
S'0xffffffc0007fef68L'
p34
sg27
Nsba(ibclass
BInstr
p35
(dp36
g2
Nsg17
S'STP             X19, X20, [SP,#0x70+var_60]'
p37
sg19
S'f35301a9'
p38
sg21
Vstp x19, x20, [sp, #0x10]
p39
sg5
L18446743798840029036L
sg6
Nsg23
S'STP'
p40
sg25
S'0xffffffc0007fef6cL'
p41
sg27
Nsba(ibclass
BInstr
p42
(dp43
g2
Nsg17
S'STP             X21, X22, [SP,#0x70+var_50]'
p44
sg19
S'f55b02a9'
p45
sg21
Vstp x21, x22, [sp, #0x20]
p46
sg5
L18446743798840029040L
sg6
Nsg23
S'STP'
p47
sg25
S'0xffffffc0007fef70L'
p48
sg27
Nsba(ibclass
BInstr
p49
(dp50
g2
Nsg17
S'STP             X23, X24, [SP,#0x70+var_40]'
p51
sg19
S'f76303a9'
p52
sg21
Vstp x23, x24, [sp, #0x30]
p53
sg5
L18446743798840029044L
sg6
Nsg23
S'STP'
p54
sg25
S'0xffffffc0007fef74L'
p55
sg27
Nsba(ibclass
BInstr
p56
(dp57
g2
Nsg17
S'STP             X25, X26, [SP,#0x70+var_30]'
p58
sg19
S'f96b04a9'
p59
sg21
Vstp x25, x26, [sp, #0x40]
p60
sg5
L18446743798840029048L
sg6
Nsg23
S'STP'
p61
sg25
S'0xffffffc0007fef78L'
p62
sg27
Nsba(ibclass
BInstr
p63
(dp64
g2
Nsg17
S'ADRP            X22, #descriptor.31662_0@PAGE'
p65
sg19
S'768500f0'
p66
sg21
Vadrp x22, #0x10af000
p67
sg5
L18446743798840029052L
sg6
Nsg23
S'ADRP'
p68
sg25
S'0xffffffc0007fef7cL'
p69
sg27
Nsba(ibclass
BInstr
p70
(dp71
g2
Nsg17
S'ADRP            X23, #__func__.31060@PAGE; "msm_isp_get_clk_info"'
p72
sg19
S'974200b0'
p73
sg21
Vadrp x23, #0x851000
p74
sg5
L18446743798840029056L
sg6
Nsg23
S'ADRP'
p75
sg25
S'0xffffffc0007fef80L'
p76
sg27
Nsba(ibclass
BInstr
p77
(dp78
g2
Nsg17
S'ADD             X22, X22, #descriptor.31662_0@PAGEOFF'
p79
sg19
S'd6620491'
p80
sg21
Vadd x22, x22, #0x118
p81
sg5
L18446743798840029060L
sg6
Nsg23
S'ADD'
p82
sg25
S'0xffffffc0007fef84L'
p83
sg27
Nsba(ibclass
BInstr
p84
(dp85
g2
Nsg17
S'ADD             X23, X23, #__func__.31060@PAGEOFF; "msm_isp_get_clk_info"'
p86
sg19
S'f7420991'
p87
sg21
Vadd x23, x23, #0x250
p88
sg5
L18446743798840029064L
sg6
Nsg23
S'ADD'
p89
sg25
S'0xffffffc0007fef88L'
p90
sg27
Nsba(ibclass
BInstr
p91
(dp92
g2
Nsg17
S'LDR             X24, [X0,#0x4160]'
p93
sg19
S'18b060f9'
p94
sg21
Vldr x24, [x0, #0x4160]
p95
sg5
L18446743798840029068L
sg6
Nsg23
S'LDR'
p96
sg25
S'0xffffffc0007fef8cL'
p97
sg27
Nsba(ibclass
BInstr
p98
(dp99
g2
Nsg17
S'MOV             X19, X0'
p100
sg19
S'f30300aa'
p101
sg21
Vmov x19, x0
p102
sg5
L18446743798840029072L
sg6
Nsg23
S'MOV'
p103
sg25
S'0xffffffc0007fef90L'
p104
sg27
Nsba(ibclass
BInstr
p105
(dp106
g2
Nsg17
S'ADD             X22, X22, #0x168'
p107
sg19
S'd6a20591'
p108
sg21
Vadd x22, x22, #0x168
p109
sg5
L18446743798840029076L
sg6
Nsg23
S'ADD'
p110
sg25
S'0xffffffc0007fef94L'
p111
sg27
Nsba(ibclass
BInstr
p112
(dp113
g2
Nsg17
S'ADD             X23, X23, #0x260'
p114
sg19
S'f7820991'
p115
sg21
Vadd x23, x23, #0x260
p116
sg5
L18446743798840029080L
sg6
Nsg23
S'ADD'
p117
sg25
S'0xffffffc0007fef98L'
p118
sg27
NsbasS'disasm_list'
p119
(lp120
S'STP reg9, reg0, mem!'
p121
aS'MOV reg9, SP'
p122
aS'STP reg9, reg0, mem'
p123
aS'STP reg1, reg2, mem'
p124
aS'STP reg3, reg4, mem'
p125
aS'STP reg5, reg6, mem'
p126
aS'ADRP reg2, #descriptor.31662_0@PAGE'
p127
aS'ADRP reg3, #__func__.31060@PAGE'
p128
aS'ADD reg2, reg2, #descriptor.31662_0@PAGEOFF'
p129
aS'ADD reg3, reg3, #__func__.31060@PAGEOFF'
p130
aS'LDR reg4, mem'
p131
aS'MOV reg9, reg'
p132
aS'ADD reg2, reg2, #0x168'
p133
aS'ADD reg3, reg3, #0x260'
p134
asS'end_address'
p135
Nsg5
S'0xffffffc0007fef64L'
p136
sS'preds'
p137
(lp138
sg6
NsS'succs'
p139
(lp140
S'0xffffffc0007fef9cL'
p141
asS'hash_v3'
p142
NsS'flag_v2'
p143
NsS'hash_v1'
p144
S'7d11424930b8043e8c3fb7c8fde1a293'
p145
sS'hash_v2'
p146
S'a660bd4945d768b2e1f75487c7ff659c'
p147
sS'mnen_list'
p148
(lp149
g24
ag33
ag40
ag47
ag54
ag61
ag68
ag75
ag82
ag89
ag96
ag103
ag110
ag117
asS'neighbour_disasm_list'
p150
Nsba(ibclass
BBasicBlock
p151
(dp152
g12
Nsg13
(lp153
(ibclass
BInstr
p154
(dp155
g2
Nsg17
S'LDR             W0, [X19,#0x288]'
p156
sg19
S'608a42b9'
p157
sg21
Vldr w0, [x19, #0x288]
p158
sg5
L18446743798840029084L
sg6
Nsg23
S'LDR'
p159
sg25
S'0xffffffc0007fef9cL'
p160
sg27
Nsba(ibclass
BInstr
p161
(dp162
g2
Nsg17
S'CBZ             W0, loc_FFFFFFC0007FF14C'
p163
sg19
S'600d0034'
p164
sg21
Vcbz w0, #0x1ac
p165
sg5
L18446743798840029088L
sg6
Nsg23
S'CBZ'
p166
sg25
S'0xffffffc0007fefa0L'
p167
sg27
Nsbasg119
(lp168
S'LDR reg, mem'
p169
aS'CBZ reg, func'
p170
asg135
Nsg5
S'0xffffffc0007fef9cL'
p171
sg137
(lp172
S'0xffffffc0007fef64L'
p173
aS'0xffffffc0007ff044L'
p174
aS'0xffffffc0007ff0b4L'
p175
aS'0xffffffc0007ff0c8L'
p176
asg6
Nsg139
(lp177
S'0xffffffc0007fefa4L'
p178
aS'0xffffffc0007ff14cL'
p179
asg142
Nsg143
Nsg144
S'a0c488049ab653dbdfa1dc805bb83f13'
p180
sg146
S'33abe016da9abbebb8608f035d51762d'
p181
sg148
(lp182
g159
ag166
asg150
Nsba(ibclass
BBasicBlock
p183
(dp184
g12
Nsg13
(lp185
(ibclass
BInstr
p186
(dp187
g2
Nsg17
S'ADD             X25, X19, #0x290'
p188
sg19
S'79420a91'
p189
sg21
Vadd x25, x19, #0x290
p190
sg5
L18446743798840029092L
sg6
Nsg23
S'ADD'
p191
sg25
S'0xffffffc0007fefa4L'
p192
sg27
Nsba(ibclass
BInstr
p193
(dp194
g2
Nsg17
S'MOV             X0, X25'
p195
sg19
S'e00319aa'
p196
sg21
Vmov x0, x25
p197
sg5
L18446743798840029096L
sg6
Nsg23
S'MOV'
p198
sg25
S'0xffffffc0007fefa8L'
p199
sg27
Nsba(ibclass
BInstr
p200
(dp201
g2
Nsg17
S'BL              _raw_spin_lock_irqsave'
p202
sg19
S'9a101994'
p203
sg21
Vbl #0x644268
p204
sg5
L18446743798840029100L
sg6
Nsg23
S'BL'
p205
sg25
S'0xffffffc0007fefacL'
p206
sg27
Nsba(ibclass
BInstr
p207
(dp208
g2
Nsg17
S'LDR             X4, [X19,#0x2A0]'
p209
sg19
S'645241f9'
p210
sg21
Vldr x4, [x19, #0x2a0]
p211
sg5
L18446743798840029104L
sg6
Nsg23
S'LDR'
p212
sg25
S'0xffffffc0007fefb0L'
p213
sg27
Nsba(ibclass
BInstr
p214
(dp215
g2
Nsg17
S'MOV             X1, X0'
p216
sg19
S'e10300aa'
p217
sg21
Vmov x1, x0
p218
sg5
L18446743798840029108L
sg6
Nsg23
S'MOV'
p219
sg25
S'0xffffffc0007fefb4L'
p220
sg27
Nsba(ibclass
BInstr
p221
(dp222
g2
Nsg17
S'CBNZ            X4, loc_FFFFFFC0007FEFCC'
p223
sg19
S'a40000b5'
p224
sg21
Vcbnz x4, #0x14
p225
sg5
L18446743798840029112L
sg6
Nsg23
S'CBNZ'
p226
sg25
S'0xffffffc0007fefb8L'
p227
sg27
Nsbasg119
(lp228
S'ADD reg5, reg9, #0x290'
p229
aS'MOV reg, reg5'
p230
aS'BL _raw_spin_lock_irqsave'
p231
aS'LDR reg, mem'
p232
aS'MOV reg, reg'
p233
aS'CBNZ reg, func'
p234
asg135
Nsg5
S'0xffffffc0007fefa4L'
p235
sg137
(lp236
S'0xffffffc0007fef9cL'
p237
asg6
Nsg139
(lp238
S'0xffffffc0007fefbcL'
p239
aS'0xffffffc0007fefccL'
p240
asg142
Nsg143
Nsg144
S'7b90f4ef426d07c445d57987b563b05c'
p241
sg146
S'346cf5619b86c88f1b837ab780ddb8e4'
p242
sg148
(lp243
g191
ag198
ag205
ag212
ag219
ag226
asg150
Nsba(ibclass
BBasicBlock
p244
(dp245
g12
Nsg13
(lp246
(ibclass
BInstr
p247
(dp248
g2
Nsg17
S'STR             W4, [X19,#0x288]'
p249
sg19
S'648a02b9'
p250
sg21
Vstr w4, [x19, #0x288]
p251
sg5
L18446743798840029116L
sg6
Nsg23
S'STR'
p252
sg25
S'0xffffffc0007fefbcL'
p253
sg27
Nsba(ibclass
BInstr
p254
(dp255
g2
Nsg17
S'MOV             X0, X25'
p256
sg19
S'e00319aa'
p257
sg21
Vmov x0, x25
p258
sg5
L18446743798840029120L
sg6
Nsg23
S'MOV'
p259
sg25
S'0xffffffc0007fefc0L'
p260
sg27
Nsba(ibclass
BInstr
p261
(dp262
g2
Nsg17
S'BL              _raw_spin_unlock_irqrestore'
p263
sg19
S'e8101994'
p264
sg21
Vbl #0x6443a0
p265
sg5
L18446743798840029124L
sg6
Nsg23
S'BL'
p266
sg25
S'0xffffffc0007fefc4L'
p267
sg27
Nsba(ibclass
BInstr
p268
(dp269
g2
Nsg17
S'B               loc_FFFFFFC0007FF14C'
p270
sg19
S'61000014'
p271
sg21
Vb #0x184
p272
sg5
L18446743798840029128L
sg6
Nsg23
S'B'
p273
sg25
S'0xffffffc0007fefc8L'
p274
sg27
Nsbasg119
(lp275
S'STR reg, mem'
p276
aS'MOV reg, reg5'
p277
aS'BL _raw_spin_unlock_irqrestore'
p278
aS'B func'
p279
asg135
Nsg5
S'0xffffffc0007fefbcL'
p280
sg137
(lp281
S'0xffffffc0007fefa4L'
p282
asg6
Nsg139
(lp283
S'0xffffffc0007ff14cL'
p284
asg142
Nsg143
Nsg144
S'ad20781f02280591c86eac532d8acb12'
p285
sg146
S'f6bba161fc7a89295ad5783e319db9b8'
p286
sg148
(lp287
g252
ag259
ag266
ag273
asg150
Nsba(ibclass
BBasicBlock
p288
(dp289
g12
Nsg13
(lp290
(ibclass
BInstr
p291
(dp292
g2
Nsg17
S'ADD             X3, X19, #0x288'
p293
sg19
S'63220a91'
p294
sg21
Vadd x3, x19, #0x288
p295
sg5
L18446743798840029132L
sg6
Nsg23
S'ADD'
p296
sg25
S'0xffffffc0007fefccL'
p297
sg27
Nsbasg119
(lp298
S'ADD reg, reg9, #0x288'
p299
asg135
Nsg5
S'0xffffffc0007fefccL'
p300
sg137
(lp301
S'0xffffffc0007fefa4L'
p302
asg6
Nsg139
(lp303
S'0xffffffc0007fefd0L'
p304
asg142
Nsg143
Nsg144
S'9eeb52badb613229884838847294b90d'
p305
sg146
S'67c3e9a3f3f287fc5a00f5bc5c10438c'
p306
sg148
(lp307
g296
asg150
Nsba(ibclass
BBasicBlock
p308
(dp309
g12
Nsg13
(lp310
(ibclass
BInstr
p311
(dp312
g2
Nsg17
S'LDXR            W0, [X3]'
p313
sg19
S'607c5f88'
p314
sg21
Vldxr w0, [x3]
p315
sg5
L18446743798840029136L
sg6
Nsg23
S'LDXR'
p316
sg25
S'0xffffffc0007fefd0L'
p317
sg27
Nsba(ibclass
BInstr
p318
(dp319
g2
Nsg17
S'SUB             W0, W0, #1'
p320
sg19
S'00040051'
p321
sg21
Vsub w0, w0, #1
p322
sg5
L18446743798840029140L
sg6
Nsg23
S'SUB'
p323
sg25
S'0xffffffc0007fefd4L'
p324
sg27
Nsba(ibclass
BInstr
p325
(dp326
g2
Nsg17
S'STXR            W2, W0, [X3]'
p327
sg19
S'607c0288'
p328
sg21
Vstxr w2, w0, [x3]
p329
sg5
L18446743798840029144L
sg6
Nsg23
S'STXR'
p330
sg25
S'0xffffffc0007fefd8L'
p331
sg27
Nsba(ibclass
BInstr
p332
(dp333
g2
Nsg17
S'CBNZ            W2, loc_FFFFFFC0007FEFD0'
p334
sg19
S'a2ffff35'
p335
sg21
Vcbnz w2, #0xfffffffffffffff4
p336
sg5
L18446743798840029148L
sg6
Nsg23
S'CBNZ'
p337
sg25
S'0xffffffc0007fefdcL'
p338
sg27
Nsbasg119
(lp339
S'LDXR reg, mem'
p340
aS'SUB reg, reg, #1'
p341
aS'STXR reg, reg, mem'
p342
aS'CBNZ reg, func'
p343
asg135
Nsg5
S'0xffffffc0007fefd0L'
p344
sg137
(lp345
S'0xffffffc0007fefccL'
p346
aS'0xffffffc0007fefd0L'
p347
asg6
Nsg139
(lp348
S'0xffffffc0007fefe0L'
p349
aS'0xffffffc0007fefd0L'
p350
asg142
Nsg143
Nsg144
S'da8358b5a6ab7c959683459ee3a430af'
p351
sg146
S'40e73f00ccda37e3a8f60cd24d36d8fc'
p352
sg148
(lp353
g316
ag323
ag330
ag337
asg150
Nsba(ibclass
BBasicBlock
p354
(dp355
g12
Nsg13
(lp356
(ibclass
BInstr
p357
(dp358
g2
Nsg17
S'LDR             X0, [X4,#8]'
p359
sg19
S'800440f9'
p360
sg21
Vldr x0, [x4, #8]
p361
sg5
L18446743798840029152L
sg6
Nsg23
S'LDR'
p362
sg25
S'0xffffffc0007fefe0L'
p363
sg27
Nsba(ibclass
BInstr
p364
(dp365
g2
Nsg17
S'LDR             X2, [X4]'
p366
sg19
S'820040f9'
p367
sg21
Vldr x2, [x4]
p368
sg5
L18446743798840029156L
sg6
Nsg23
S'LDR'
p369
sg25
S'0xffffffc0007fefe4L'
p370
sg27
Nsba(ibclass
BInstr
p371
(dp372
g2
Nsg17
S'ADD             X5, X4, #0x18'
p373
sg19
S'85600091'
p374
sg21
Vadd x5, x4, #0x18
p375
sg5
L18446743798840029160L
sg6
Nsg23
S'ADD'
p376
sg25
S'0xffffffc0007fefe8L'
p377
sg27
Nsba(ibclass
BInstr
p378
(dp379
g2
Nsg17
S'STR             X0, [X2,#8]'
p380
sg19
S'400400f9'
p381
sg21
Vstr x0, [x2, #8]
p382
sg5
L18446743798840029164L
sg6
Nsg23
S'STR'
p383
sg25
S'0xffffffc0007fefecL'
p384
sg27
Nsba(ibclass
BInstr
p385
(dp386
g2
Nsg17
S'STR             X2, [X0]'
p387
sg19
S'020000f9'
p388
sg21
Vstr x2, [x0]
p389
sg5
L18446743798840029168L
sg6
Nsg23
S'STR'
p390
sg25
S'0xffffffc0007feff0L'
p391
sg27
Nsba(ibclass
BInstr
p392
(dp393
g2
Nsg17
S'MOV             X0, #0x100'
p394
sg19
S'002080d2'
p395
sg21
Vmovz x0, #0x100
p396
sg5
L18446743798840029172L
sg6
Nsg23
S'MOV'
p397
sg25
S'0xffffffc0007feff4L'
p398
sg27
Nsba(ibclass
BInstr
p399
(dp400
g2
Nsg17
S'MOVK            X0, #0xDEAD,LSL#48'
p401
sg19
S'a0d5fbf2'
p402
sg21
Vmovk x0, #0xdead, lsl #48
p403
sg5
L18446743798840029176L
sg6
Nsg23
S'MOVK'
p404
sg25
S'0xffffffc0007feff8L'
p405
sg27
Nsba(ibclass
BInstr
p406
(dp407
g2
Nsg17
S'STR             X0, [X4]'
p408
sg19
S'800000f9'
p409
sg21
Vstr x0, [x4]
p410
sg5
L18446743798840029180L
sg6
Nsg23
S'STR'
p411
sg25
S'0xffffffc0007feffcL'
p412
sg27
Nsba(ibclass
BInstr
p413
(dp414
g2
Nsg17
S'MOV             X0, #0x200'
p415
sg19
S'004080d2'
p416
sg21
Vmovz x0, #0x200
p417
sg5
L18446743798840029184L
sg6
Nsg23
S'MOV'
p418
sg25
S'0xffffffc0007ff000L'
p419
sg27
Nsba(ibclass
BInstr
p420
(dp421
g2
Nsg17
S'MOVK            X0, #0xDEAD,LSL#48'
p422
sg19
S'a0d5fbf2'
p423
sg21
Vmovk x0, #0xdead, lsl #48
p424
sg5
L18446743798840029188L
sg6
Nsg23
S'MOVK'
p425
sg25
S'0xffffffc0007ff004L'
p426
sg27
Nsba(ibclass
BInstr
p427
(dp428
g2
Nsg17
S'STR             X0, [X4,#8]'
p429
sg19
S'800400f9'
p430
sg21
Vstr x0, [x4, #8]
p431
sg5
L18446743798840029192L
sg6
Nsg23
S'STR'
p432
sg25
S'0xffffffc0007ff008L'
p433
sg27
Nsba(ibclass
BInstr
p434
(dp435
g2
Nsg17
S'STRB            WZR, [X4,#0x48]'
p436
sg19
S'9f200139'
p437
sg21
Vstrb wzr, [x4, #0x48]
p438
sg5
L18446743798840029196L
sg6
Nsg23
S'STR'
p439
sg25
S'0xffffffc0007ff00cL'
p440
sg27
Nsba(ibclass
BInstr
p441
(dp442
g2
Nsg17
S'LDP             X2, X3, [X5]'
p443
sg19
S'a20c40a9'
p444
sg21
Vldp x2, x3, [x5]
p445
sg5
L18446743798840029200L
sg6
Nsg23
S'LDP'
p446
sg25
S'0xffffffc0007ff010L'
p447
sg27
Nsba(ibclass
BInstr
p448
(dp449
g2
Nsg17
S'LDR             W21, [X4,#0x10]'
p450
sg19
S'951040b9'
p451
sg21
Vldr w21, [x4, #0x10]
p452
sg5
L18446743798840029204L
sg6
Nsg23
S'LDR'
p453
sg25
S'0xffffffc0007ff014L'
p454
sg27
Nsba(ibclass
BInstr
p455
(dp456
g2
Nsg17
S'LDR             W20, [X4,#0x14]'
p457
sg19
S'941440b9'
p458
sg21
Vldr w20, [x4, #0x14]
p459
sg5
L18446743798840029208L
sg6
Nsg23
S'LDR'
p460
sg25
S'0xffffffc0007ff018L'
p461
sg27
Nsba(ibclass
BInstr
p462
(dp463
g2
Nsg17
S'STP             X2, X3, [X29,#arg_40]'
p464
sg19
S'a20f05a9'
p465
sg21
Vstp x2, x3, [x29, #0x50]
p466
sg5
L18446743798840029212L
sg6
Nsg23
S'STP'
p467
sg25
S'0xffffffc0007ff01cL'
p468
sg27
Nsba(ibclass
BInstr
p469
(dp470
g2
Nsg17
S'LDP             X6, X7, [X5,#0x10]'
p471
sg19
S'a61c41a9'
p472
sg21
Vldp x6, x7, [x5, #0x10]
p473
sg5
L18446743798840029216L
sg6
Nsg23
S'LDP'
p474
sg25
S'0xffffffc0007ff020L'
p475
sg27
Nsba(ibclass
BInstr
p476
(dp477
g2
Nsg17
S'MOV             X0, X25'
p478
sg19
S'e00319aa'
p479
sg21
Vmov x0, x25
p480
sg5
L18446743798840029220L
sg6
Nsg23
S'MOV'
p481
sg25
S'0xffffffc0007ff024L'
p482
sg27
Nsba(ibclass
BInstr
p483
(dp484
g2
Nsg17
S'STP             X6, X7, [X29,#arg_50]'
p485
sg19
S'a61f06a9'
p486
sg21
Vstp x6, x7, [x29, #0x60]
p487
sg5
L18446743798840029224L
sg6
Nsg23
S'STP'
p488
sg25
S'0xffffffc0007ff028L'
p489
sg27
Nsba(ibclass
BInstr
p490
(dp491
g2
Nsg17
S'LDP             X6, X7, [X5,#0x20]'
p492
sg19
S'a61c42a9'
p493
sg21
Vldp x6, x7, [x5, #0x20]
p494
sg5
L18446743798840029228L
sg6
Nsg23
S'LDP'
p495
sg25
S'0xffffffc0007ff02cL'
p496
sg27
Nsba(ibclass
BInstr
p497
(dp498
g2
Nsg17
S'STP             X6, X7, [X29,#arg_60]'
p499
sg19
S'a61f07a9'
p500
sg21
Vstp x6, x7, [x29, #0x70]
p501
sg5
L18446743798840029232L
sg6
Nsg23
S'STP'
p502
sg25
S'0xffffffc0007ff030L'
p503
sg27
Nsba(ibclass
BInstr
p504
(dp505
g2
Nsg17
S'LDRB            W26, [X4,#0x49]'
p506
sg19
S'9a244139'
p507
sg21
Vldrb w26, [x4, #0x49]
p508
sg5
L18446743798840029236L
sg6
Nsg23
S'LDR'
p509
sg25
S'0xffffffc0007ff034L'
p510
sg27
Nsba(ibclass
BInstr
p511
(dp512
g2
Nsg17
S'STRB            WZR, [X4,#0x49]'
p513
sg19
S'9f240139'
p514
sg21
Vstrb wzr, [x4, #0x49]
p515
sg5
L18446743798840029240L
sg6
Nsg23
S'STR'
p516
sg25
S'0xffffffc0007ff038L'
p517
sg27
Nsba(ibclass
BInstr
p518
(dp519
g2
Nsg17
S'BL              _raw_spin_unlock_irqrestore'
p520
sg19
S'ca101994'
p521
sg21
Vbl #0x644328
p522
sg5
L18446743798840029244L
sg6
Nsg23
S'BL'
p523
sg25
S'0xffffffc0007ff03cL'
p524
sg27
Nsba(ibclass
BInstr
p525
(dp526
g2
Nsg17
S'CBZ             W26, loc_FFFFFFC0007FF050'
p527
sg19
S'9a000034'
p528
sg21
Vcbz w26, #0x10
p529
sg5
L18446743798840029248L
sg6
Nsg23
S'CBZ'
p530
sg25
S'0xffffffc0007ff040L'
p531
sg27
Nsbasg119
(lp532
S'LDR reg, mem'
p533
aS'LDR reg, mem'
p534
aS'ADD reg, reg, #0x18'
p535
aS'STR reg, mem'
p536
aS'STR reg, mem'
p537
aS'MOV reg, #0x100'
p538
aS'MOVK reg, #0xDEAD,LSL#48'
p539
aS'STR reg, mem'
p540
aS'MOV reg, #0x200'
p541
aS'MOVK reg, #0xDEAD,LSL#48'
p542
aS'STR reg, mem'
p543
aS'STRB WZR, mem'
p544
aS'LDP reg, reg, mem'
p545
aS'LDR reg1, mem'
p546
aS'LDR reg0, mem'
p547
aS'STP reg, reg, mem'
p548
aS'LDP reg, reg, mem'
p549
aS'MOV reg, reg5'
p550
aS'STP reg, reg, mem'
p551
aS'LDP reg, reg, mem'
p552
aS'STP reg, reg, mem'
p553
aS'LDRB reg6, mem'
p554
aS'STRB WZR, mem'
p555
aS'BL _raw_spin_unlock_irqrestore'
p556
aS'CBZ reg6, func'
p557
asg135
Nsg5
S'0xffffffc0007fefe0L'
p558
sg137
(lp559
S'0xffffffc0007fefd0L'
p560
asg6
Nsg139
(lp561
S'0xffffffc0007ff044L'
p562
aS'0xffffffc0007ff050L'
p563
asg142
Nsg143
Nsg144
S'928690beab1870fe188eb432f8172f94'
p564
sg146
S'50db469795441cfa372fe918fd3597f7'
p565
sg148
(lp566
g362
ag369
ag376
ag383
ag390
ag397
ag404
ag411
ag418
ag425
ag432
ag439
ag446
ag453
ag460
ag467
ag474
ag481
ag488
ag495
ag502
ag509
ag516
ag523
ag530
asg150
Nsba(ibclass
BBasicBlock
p567
(dp568
g12
Nsg13
(lp569
(ibclass
BInstr
p570
(dp571
g2
Nsg17
S'MOV             X0, X19'
p572
sg19
S'e00313aa'
p573
sg21
Vmov x0, x19
p574
sg5
L18446743798840029252L
sg6
Nsg23
S'MOV'
p575
sg25
S'0xffffffc0007ff044L'
p576
sg27
Nsba(ibclass
BInstr
p577
(dp578
g2
Nsg17
S'BL              msm_isp_process_iommu_page_fault'
p579
sg19
S'c6feff97'
p580
sg21
Vbl #0xfffffffffffffb18
p581
sg5
L18446743798840029256L
sg6
Nsg23
S'BL'
p582
sg25
S'0xffffffc0007ff048L'
p583
sg27
Nsba(ibclass
BInstr
p584
(dp585
g2
Nsg17
S'B               loc_FFFFFFC0007FEF9C'
p586
sg19
S'd4ffff17'
p587
sg21
Vb #0xffffffffffffff50
p588
sg5
L18446743798840029260L
sg6
Nsg23
g273
sg25
S'0xffffffc0007ff04cL'
p589
sg27
Nsbasg119
(lp590
S'MOV reg, reg9'
p591
aS'BL msm_isp_process_iommu_page_fault'
p592
aS'B func'
p593
asg135
Nsg5
S'0xffffffc0007ff044L'
p594
sg137
(lp595
S'0xffffffc0007fefe0L'
p596
asg6
Nsg139
(lp597
S'0xffffffc0007fef9cL'
p598
asg142
Nsg143
Nsg144
S'f3f645dfcfe38b34211b70b425c07bfe'
p599
sg146
S'8edf86c6c4b70e471d96f0dc74ded700'
p600
sg148
(lp601
g575
ag582
ag273
asg150
Nsba(ibclass
BBasicBlock
p602
(dp603
g12
Nsg13
(lp604
(ibclass
BInstr
p605
(dp606
g2
Nsg17
S'LDRH            W0, [X22,#(word_FFFFFFC0018AD2A2 - 0xFFFFFFC0018AD280)]'
p607
sg19
S'c0464079'
p608
sg21
Vldrh w0, [x22, #0x22]
p609
sg5
L18446743798840029264L
sg6
Nsg23
S'LDR'
p610
sg25
S'0xffffffc0007ff050L'
p611
sg27
Nsba(ibclass
BInstr
p612
(dp613
g2
Nsg17
S'TBZ             W0, #2, loc_FFFFFFC0007FF07C'
p614
sg19
S'40011036'
p615
sg21
Vtbz w0, #2, #0x28
p616
sg5
L18446743798840029268L
sg6
Nsg23
S'TBZ'
p617
sg25
S'0xffffffc0007ff054L'
p618
sg27
Nsbasg119
(lp619
S'LDRH reg, mem'
p620
aS'TBZ reg, #2, func'
p621
asg135
Nsg5
S'0xffffffc0007ff050L'
p622
sg137
(lp623
S'0xffffffc0007fefe0L'
p624
asg6
Nsg139
(lp625
S'0xffffffc0007ff058L'
p626
aS'0xffffffc0007ff07cL'
p627
asg142
Nsg143
Nsg144
S'1cf4e33a651c04ed202c51992a2f5549'
p628
sg146
S'ebdc09270d34e8b74b27ab6c8c85fb09'
p629
sg148
(lp630
g610
ag617
asg150
Nsba(ibclass
BBasicBlock
p631
(dp632
g12
Nsg13
(lp633
(ibclass
BInstr
p634
(dp635
g2
Nsg17
S'LDR             X3, [X19]'
p636
sg19
S'630240f9'
p637
sg21
Vldr x3, [x19]
p638
sg5
L18446743798840029272L
sg6
Nsg23
S'LDR'
p639
sg25
S'0xffffffc0007ff058L'
p640
sg27
Nsba(ibclass
BInstr
p641
(dp642
g2
Nsg17
S'ADRP            X1, #aSVfe_idDStatus@PAGE; "%s: vfe_id %d status0: 0x%x status1: 0x"...'
p643
sg19
S'815e0090'
p644
sg21
Vadrp x1, #0xbd0000
p645
sg5
L18446743798840029276L
sg6
Nsg23
S'ADRP'
p646
sg25
S'0xffffffc0007ff05cL'
p647
sg27
Nsba(ibclass
BInstr
p648
(dp649
g2
Nsg17
S'LDR             W3, [X3,#8]'
p650
sg19
S'630840b9'
p651
sg21
Vldr w3, [x3, #8]
p652
sg5
L18446743798840029280L
sg6
Nsg23
S'LDR'
p653
sg25
S'0xffffffc0007ff060L'
p654
sg27
Nsba(ibclass
BInstr
p655
(dp656
g2
Nsg17
S'MOV             X0, X22'
p657
sg19
S'e00316aa'
p658
sg21
Vmov x0, x22
p659
sg5
L18446743798840029284L
sg6
Nsg23
S'MOV'
p660
sg25
S'0xffffffc0007ff064L'
p661
sg27
Nsba(ibclass
BInstr
p662
(dp663
g2
Nsg17
S'ADD             X1, X1, #aSVfe_idDStatus@PAGEOFF; "%s: vfe_id %d status0: 0x%x status1: 0x"...'
p664
sg19
S'21dc0c91'
p665
sg21
Vadd x1, x1, #0x337
p666
sg5
L18446743798840029288L
sg6
Nsg23
S'ADD'
p667
sg25
S'0xffffffc0007ff068L'
p668
sg27
Nsba(ibclass
BInstr
p669
(dp670
g2
Nsg17
S'MOV             X2, X23'
p671
sg19
S'e20317aa'
p672
sg21
Vmov x2, x23
p673
sg5
L18446743798840029292L
sg6
Nsg23
S'MOV'
p674
sg25
S'0xffffffc0007ff06cL'
p675
sg27
Nsba(ibclass
BInstr
p676
(dp677
g2
Nsg17
S'MOV             W4, W21'
p678
sg19
S'e403152a'
p679
sg21
Vmov w4, w21
p680
sg5
L18446743798840029296L
sg6
Nsg23
S'MOV'
p681
sg25
S'0xffffffc0007ff070L'
p682
sg27
Nsba(ibclass
BInstr
p683
(dp684
g2
Nsg17
S'MOV             W5, W20'
p685
sg19
S'e503142a'
p686
sg21
Vmov w5, w20
p687
sg5
L18446743798840029300L
sg6
Nsg23
S'MOV'
p688
sg25
S'0xffffffc0007ff074L'
p689
sg27
Nsba(ibclass
BInstr
p690
(dp691
g2
Nsg17
S'BL              __dynamic_pr_debug'
p692
sg19
S'cc0bf197'
p693
sg21
Vbl #0xffffffffffc42f30
p694
sg5
L18446743798840029304L
sg6
Nsg23
S'BL'
p695
sg25
S'0xffffffc0007ff078L'
p696
sg27
Nsbasg119
(lp697
S'LDR reg, mem'
p698
aS'ADRP reg, #aSVfe_idDStatus@PAGE'
p699
aS'LDR reg, mem'
p700
aS'MOV reg, reg2'
p701
aS'ADD reg, reg, #aSVfe_idDStatus@PAGEOFF'
p702
aS'MOV reg, reg3'
p703
aS'MOV reg, reg1'
p704
aS'MOV reg, reg0'
p705
aS'BL __dynamic_pr_debug'
p706
asg135
Nsg5
S'0xffffffc0007ff058L'
p707
sg137
(lp708
S'0xffffffc0007ff050L'
p709
asg6
Nsg139
(lp710
S'0xffffffc0007ff07cL'
p711
asg142
Nsg143
Nsg144
S'a4a70c5a7bd892d43693c3e504787d19'
p712
sg146
S'95ac5b996d85240fb8390afa6a0d992b'
p713
sg148
(lp714
g639
ag646
ag653
ag660
ag667
ag674
ag681
ag688
ag695
asg150
Nsba(ibclass
BBasicBlock
p715
(dp716
g12
Nsg13
(lp717
(ibclass
BInstr
p718
(dp719
g2
Nsg17
S'ADD             X25, X24, #0x10'
p720
sg19
S'19430091'
p721
sg21
Vadd x25, x24, #0x10
p722
sg5
L18446743798840029308L
sg6
Nsg23
S'ADD'
p723
sg25
S'0xffffffc0007ff07cL'
p724
sg27
Nsba(ibclass
BInstr
p725
(dp726
g2
Nsg17
S'LDR             X3, [X25,#0x18]'
p727
sg19
S'230f40f9'
p728
sg21
Vldr x3, [x25, #0x18]
p729
sg5
L18446743798840029312L
sg6
Nsg23
S'LDR'
p730
sg25
S'0xffffffc0007ff080L'
p731
sg27
Nsba(ibclass
BInstr
p732
(dp733
g2
Nsg17
S'MOV             X0, X19'
p734
sg19
S'e00313aa'
p735
sg21
Vmov x0, x19
p736
sg5
L18446743798840029316L
sg6
Nsg23
S'MOV'
p737
sg25
S'0xffffffc0007ff084L'
p738
sg27
Nsba(ibclass
BInstr
p739
(dp740
g2
Nsg17
S'MOV             W1, W21'
p741
sg19
S'e103152a'
p742
sg21
Vmov w1, w21
p743
sg5
L18446743798840029320L
sg6
Nsg23
S'MOV'
p744
sg25
S'0xffffffc0007ff088L'
p745
sg27
Nsba(ibclass
BInstr
p746
(dp747
g2
Nsg17
S'MOV             W2, W20'
p748
sg19
S'e203142a'
p749
sg21
Vmov w2, w20
p750
sg5
L18446743798840029324L
sg6
Nsg23
S'MOV'
p751
sg25
S'0xffffffc0007ff08cL'
p752
sg27
Nsba(ibclass
BInstr
p753
(dp754
g2
Nsg17
S'BLR             X3'
p755
sg19
S'60003fd6'
p756
sg21
Vblr x3
p757
sg5
L18446743798840029328L
sg6
Nsg23
S'BLR'
p758
sg25
S'0xffffffc0007ff090L'
p759
sg27
Nsba(ibclass
BInstr
p760
(dp761
g2
Nsg17
S'LDR             X3, [X25,#0x20]'
p762
sg19
S'231340f9'
p763
sg21
Vldr x3, [x25, #0x20]
p764
sg5
L18446743798840029332L
sg6
Nsg23
S'LDR'
p765
sg25
S'0xffffffc0007ff094L'
p766
sg27
Nsba(ibclass
BInstr
p767
(dp768
g2
Nsg17
S'MOV             X0, X19'
p769
sg19
S'e00313aa'
p770
sg21
Vmov x0, x19
p771
sg5
L18446743798840029336L
sg6
Nsg23
S'MOV'
p772
sg25
S'0xffffffc0007ff098L'
p773
sg27
Nsba(ibclass
BInstr
p774
(dp775
g2
Nsg17
S'MOV             W1, W21'
p776
sg19
S'e103152a'
p777
sg21
Vmov w1, w21
p778
sg5
L18446743798840029340L
sg6
Nsg23
S'MOV'
p779
sg25
S'0xffffffc0007ff09cL'
p780
sg27
Nsba(ibclass
BInstr
p781
(dp782
g2
Nsg17
S'MOV             W2, W20'
p783
sg19
S'e203142a'
p784
sg21
Vmov w2, w20
p785
sg5
L18446743798840029344L
sg6
Nsg23
S'MOV'
p786
sg25
S'0xffffffc0007ff0a0L'
p787
sg27
Nsba(ibclass
BInstr
p788
(dp789
g2
Nsg17
S'BLR             X3'
p790
sg19
S'60003fd6'
p791
sg21
Vblr x3
p792
sg5
L18446743798840029348L
sg6
Nsg23
S'BLR'
p793
sg25
S'0xffffffc0007ff0a4L'
p794
sg27
Nsba(ibclass
BInstr
p795
(dp796
g2
Nsg17
S'ADD             X0, X19, #5,LSL#12'
p797
sg19
S'60164091'
p798
sg21
Vadd x0, x19, #5, lsl #12
p799
sg5
L18446743798840029352L
sg6
Nsg23
S'ADD'
p800
sg25
S'0xffffffc0007ff0a8L'
p801
sg27
Nsba(ibclass
BInstr
p802
(dp803
g2
Nsg17
S'LDR             W0, [X0,#0x748]'
p804
sg19
S'004847b9'
p805
sg21
Vldr w0, [x0, #0x748]
p806
sg5
L18446743798840029356L
sg6
Nsg23
S'LDR'
p807
sg25
S'0xffffffc0007ff0acL'
p808
sg27
Nsba(ibclass
BInstr
p809
(dp810
g2
Nsg17
S'CBZ             W0, loc_FFFFFFC0007FF0C8'
p811
sg19
S'c0000034'
p812
sg21
Vcbz w0, #0x18
p813
sg5
L18446743798840029360L
sg6
Nsg23
S'CBZ'
p814
sg25
S'0xffffffc0007ff0b0L'
p815
sg27
Nsbasg119
(lp816
S'ADD reg5, reg4, #0x10'
p817
aS'LDR reg, mem'
p818
aS'MOV reg, reg9'
p819
aS'MOV reg, reg1'
p820
aS'MOV reg, reg0'
p821
aS'BLR reg'
p822
aS'LDR reg, mem'
p823
aS'MOV reg, reg9'
p824
aS'MOV reg, reg1'
p825
aS'MOV reg, reg0'
p826
aS'BLR reg'
p827
aS'ADD reg, reg9, #5,LSL#12'
p828
aS'LDR reg, mem'
p829
aS'CBZ reg, func'
p830
asg135
Nsg5
S'0xffffffc0007ff07cL'
p831
sg137
(lp832
S'0xffffffc0007ff050L'
p833
aS'0xffffffc0007ff058L'
p834
asg6
Nsg139
(lp835
S'0xffffffc0007ff0b4L'
p836
aS'0xffffffc0007ff0c8L'
p837
asg142
Nsg143
Nsg144
S'3f4c53f88d3d9cd10ada888706c03cb0'
p838
sg146
S'8d9e4778fab5af3a121be1592729d9a2'
p839
sg148
(lp840
g723
ag730
ag737
ag744
ag751
ag758
ag765
ag772
ag779
ag786
ag793
ag800
ag807
ag814
asg150
Nsba(ibclass
BBasicBlock
p841
(dp842
g12
Nsg13
(lp843
(ibclass
BInstr
p844
(dp845
g2
Nsg17
S'ADRP            X0, #unk_FFFFFFC0013CF362@PAGE'
p846
sg19
S'805e0090'
p847
sg21
Vadrp x0, #0xbd0000
p848
sg5
L18446743798840029364L
sg6
Nsg23
S'ADRP'
p849
sg25
S'0xffffffc0007ff0b4L'
p850
sg27
Nsba(ibclass
BInstr
p851
(dp852
g2
Nsg17
S'MOV             X1, X23'
p853
sg19
S'e10317aa'
p854
sg21
Vmov x1, x23
p855
sg5
L18446743798840029368L
sg6
Nsg23
S'MOV'
p856
sg25
S'0xffffffc0007ff0b8L'
p857
sg27
Nsba(ibclass
BInstr
p858
(dp859
g2
Nsg17
S'ADD             X0, X0, #unk_FFFFFFC0013CF362@PAGEOFF'
p860
sg19
S'00880d91'
p861
sg21
Vadd x0, x0, #0x362
p862
sg5
L18446743798840029372L
sg6
Nsg23
S'ADD'
p863
sg25
S'0xffffffc0007ff0bcL'
p864
sg27
Nsba(ibclass
BInstr
p865
(dp866
g2
Nsg17
S'BL              printk'
p867
sg19
S'28d21894'
p868
sg21
Vbl #0x6348a0
p869
sg5
L18446743798840029376L
sg6
Nsg23
S'BL'
p870
sg25
S'0xffffffc0007ff0c0L'
p871
sg27
Nsba(ibclass
BInstr
p872
(dp873
g2
Nsg17
S'B               loc_FFFFFFC0007FEF9C'
p874
sg19
S'b6ffff17'
p875
sg21
Vb #0xfffffffffffffed8
p876
sg5
L18446743798840029380L
sg6
Nsg23
g273
sg25
S'0xffffffc0007ff0c4L'
p877
sg27
Nsbasg119
(lp878
S'ADRP reg, #func@PAGE'
p879
aS'MOV reg, reg3'
p880
aS'ADD reg, reg, #func@PAGEOFF'
p881
aS'BL printk'
p882
aS'B func'
p883
asg135
Nsg5
S'0xffffffc0007ff0b4L'
p884
sg137
(lp885
S'0xffffffc0007ff07cL'
p886
asg6
Nsg139
(lp887
S'0xffffffc0007fef9cL'
p888
asg142
Nsg143
Nsg144
S'b89f5491ea4704972c334259f3d01238'
p889
sg146
S'4acc87b69b76714adb5d2419c7e482a4'
p890
sg148
(lp891
g849
ag856
ag863
ag870
ag273
asg150
Nsba(ibclass
BBasicBlock
p892
(dp893
g12
Nsg13
(lp894
(ibclass
BInstr
p895
(dp896
g2
Nsg17
S'MOV             X0, X19'
p897
sg19
S'e00313aa'
p898
sg21
Vmov x0, x19
p899
sg5
L18446743798840029384L
sg6
Nsg23
S'MOV'
p900
sg25
S'0xffffffc0007ff0c8L'
p901
sg27
Nsba(ibclass
BInstr
p902
(dp903
g2
Nsg17
S'BL              msm_isp_process_error_info'
p904
sg19
S'd6feff97'
p905
sg21
Vbl #0xfffffffffffffb58
p906
sg5
L18446743798840029388L
sg6
Nsg23
S'BL'
p907
sg25
S'0xffffffc0007ff0ccL'
p908
sg27
Nsba(ibclass
BInstr
p909
(dp910
g2
Nsg17
S'LDR             X4, [X25,#0x28]'
p911
sg19
S'241740f9'
p912
sg21
Vldr x4, [x25, #0x28]
p913
sg5
L18446743798840029392L
sg6
Nsg23
S'LDR'
p914
sg25
S'0xffffffc0007ff0d0L'
p915
sg27
Nsba(ibclass
BInstr
p916
(dp917
g2
Nsg17
S'MOV             X0, X19'
p918
sg19
S'e00313aa'
p919
sg21
Vmov x0, x19
p920
sg5
L18446743798840029396L
sg6
Nsg23
S'MOV'
p921
sg25
S'0xffffffc0007ff0d4L'
p922
sg27
Nsba(ibclass
BInstr
p923
(dp924
g2
Nsg17
S'MOV             W1, W21'
p925
sg19
S'e103152a'
p926
sg21
Vmov w1, w21
p927
sg5
L18446743798840029400L
sg6
Nsg23
S'MOV'
p928
sg25
S'0xffffffc0007ff0d8L'
p929
sg27
Nsba(ibclass
BInstr
p930
(dp931
g2
Nsg17
S'MOV             W2, W20'
p932
sg19
S'e203142a'
p933
sg21
Vmov w2, w20
p934
sg5
L18446743798840029404L
sg6
Nsg23
S'MOV'
p935
sg25
S'0xffffffc0007ff0dcL'
p936
sg27
Nsba(ibclass
BInstr
p937
(dp938
g2
Nsg17
S'ADD             X3, X29, #0x50'
p939
sg19
S'a3430191'
p940
sg21
Vadd x3, x29, #0x50
p941
sg5
L18446743798840029408L
sg6
Nsg23
S'ADD'
p942
sg25
S'0xffffffc0007ff0e0L'
p943
sg27
Nsba(ibclass
BInstr
p944
(dp945
g2
Nsg17
S'BLR             X4'
p946
sg19
S'80003fd6'
p947
sg21
Vblr x4
p948
sg5
L18446743798840029412L
sg6
Nsg23
S'BLR'
p949
sg25
S'0xffffffc0007ff0e4L'
p950
sg27
Nsba(ibclass
BInstr
p951
(dp952
g2
Nsg17
S'LDR             X4, [X25,#0x38]'
p953
sg19
S'241f40f9'
p954
sg21
Vldr x4, [x25, #0x38]
p955
sg5
L18446743798840029416L
sg6
Nsg23
S'LDR'
p956
sg25
S'0xffffffc0007ff0e8L'
p957
sg27
Nsba(ibclass
BInstr
p958
(dp959
g2
Nsg17
S'MOV             X0, X19'
p960
sg19
S'e00313aa'
p961
sg21
Vmov x0, x19
p962
sg5
L18446743798840029420L
sg6
Nsg23
S'MOV'
p963
sg25
S'0xffffffc0007ff0ecL'
p964
sg27
Nsba(ibclass
BInstr
p965
(dp966
g2
Nsg17
S'MOV             W1, W21'
p967
sg19
S'e103152a'
p968
sg21
Vmov w1, w21
p969
sg5
L18446743798840029424L
sg6
Nsg23
S'MOV'
p970
sg25
S'0xffffffc0007ff0f0L'
p971
sg27
Nsba(ibclass
BInstr
p972
(dp973
g2
Nsg17
S'MOV             W2, W20'
p974
sg19
S'e203142a'
p975
sg21
Vmov w2, w20
p976
sg5
L18446743798840029428L
sg6
Nsg23
S'MOV'
p977
sg25
S'0xffffffc0007ff0f4L'
p978
sg27
Nsba(ibclass
BInstr
p979
(dp980
g2
Nsg17
S'ADD             X3, X29, #0x50'
p981
sg19
S'a3430191'
p982
sg21
Vadd x3, x29, #0x50
p983
sg5
L18446743798840029432L
sg6
Nsg23
S'ADD'
p984
sg25
S'0xffffffc0007ff0f8L'
p985
sg27
Nsba(ibclass
BInstr
p986
(dp987
g2
Nsg17
S'BLR             X4'
p988
sg19
S'80003fd6'
p989
sg21
Vblr x4
p990
sg5
L18446743798840029436L
sg6
Nsg23
S'BLR'
p991
sg25
S'0xffffffc0007ff0fcL'
p992
sg27
Nsba(ibclass
BInstr
p993
(dp994
g2
Nsg17
S'LDR             X4, [X25,#0x30]'
p995
sg19
S'241b40f9'
p996
sg21
Vldr x4, [x25, #0x30]
p997
sg5
L18446743798840029440L
sg6
Nsg23
S'LDR'
p998
sg25
S'0xffffffc0007ff100L'
p999
sg27
Nsba(ibclass
BInstr
p1000
(dp1001
g2
Nsg17
S'MOV             X0, X19'
p1002
sg19
S'e00313aa'
p1003
sg21
Vmov x0, x19
p1004
sg5
L18446743798840029444L
sg6
Nsg23
S'MOV'
p1005
sg25
S'0xffffffc0007ff104L'
p1006
sg27
Nsba(ibclass
BInstr
p1007
(dp1008
g2
Nsg17
S'MOV             W1, W21'
p1009
sg19
S'e103152a'
p1010
sg21
Vmov w1, w21
p1011
sg5
L18446743798840029448L
sg6
Nsg23
S'MOV'
p1012
sg25
S'0xffffffc0007ff108L'
p1013
sg27
Nsba(ibclass
BInstr
p1014
(dp1015
g2
Nsg17
S'MOV             W2, W20'
p1016
sg19
S'e203142a'
p1017
sg21
Vmov w2, w20
p1018
sg5
L18446743798840029452L
sg6
Nsg23
S'MOV'
p1019
sg25
S'0xffffffc0007ff10cL'
p1020
sg27
Nsba(ibclass
BInstr
p1021
(dp1022
g2
Nsg17
S'ADD             X3, X29, #0x50'
p1023
sg19
S'a3430191'
p1024
sg21
Vadd x3, x29, #0x50
p1025
sg5
L18446743798840029456L
sg6
Nsg23
S'ADD'
p1026
sg25
S'0xffffffc0007ff110L'
p1027
sg27
Nsba(ibclass
BInstr
p1028
(dp1029
g2
Nsg17
S'BLR             X4'
p1030
sg19
S'80003fd6'
p1031
sg21
Vblr x4
p1032
sg5
L18446743798840029460L
sg6
Nsg23
S'BLR'
p1033
sg25
S'0xffffffc0007ff114L'
p1034
sg27
Nsba(ibclass
BInstr
p1035
(dp1036
g2
Nsg17
S'LDR             X4, [X25,#8]'
p1037
sg19
S'240740f9'
p1038
sg21
Vldr x4, [x25, #8]
p1039
sg5
L18446743798840029464L
sg6
Nsg23
S'LDR'
p1040
sg25
S'0xffffffc0007ff118L'
p1041
sg27
Nsba(ibclass
BInstr
p1042
(dp1043
g2
Nsg17
S'MOV             X0, X19'
p1044
sg19
S'e00313aa'
p1045
sg21
Vmov x0, x19
p1046
sg5
L18446743798840029468L
sg6
Nsg23
S'MOV'
p1047
sg25
S'0xffffffc0007ff11cL'
p1048
sg27
Nsba(ibclass
BInstr
p1049
(dp1050
g2
Nsg17
S'MOV             W1, W21'
p1051
sg19
S'e103152a'
p1052
sg21
Vmov w1, w21
p1053
sg5
L18446743798840029472L
sg6
Nsg23
S'MOV'
p1054
sg25
S'0xffffffc0007ff120L'
p1055
sg27
Nsba(ibclass
BInstr
p1056
(dp1057
g2
Nsg17
S'MOV             W2, W20'
p1058
sg19
S'e203142a'
p1059
sg21
Vmov w2, w20
p1060
sg5
L18446743798840029476L
sg6
Nsg23
S'MOV'
p1061
sg25
S'0xffffffc0007ff124L'
p1062
sg27
Nsba(ibclass
BInstr
p1063
(dp1064
g2
Nsg17
S'ADD             X3, X29, #0x50'
p1065
sg19
S'a3430191'
p1066
sg21
Vadd x3, x29, #0x50
p1067
sg5
L18446743798840029480L
sg6
Nsg23
S'ADD'
p1068
sg25
S'0xffffffc0007ff128L'
p1069
sg27
Nsba(ibclass
BInstr
p1070
(dp1071
g2
Nsg17
S'BLR             X4'
p1072
sg19
S'80003fd6'
p1073
sg21
Vblr x4
p1074
sg5
L18446743798840029484L
sg6
Nsg23
S'BLR'
p1075
sg25
S'0xffffffc0007ff12cL'
p1076
sg27
Nsba(ibclass
BInstr
p1077
(dp1078
g2
Nsg17
S'LDR             X4, [X25,#0x10]'
p1079
sg19
S'240b40f9'
p1080
sg21
Vldr x4, [x25, #0x10]
p1081
sg5
L18446743798840029488L
sg6
Nsg23
S'LDR'
p1082
sg25
S'0xffffffc0007ff130L'
p1083
sg27
Nsba(ibclass
BInstr
p1084
(dp1085
g2
Nsg17
S'MOV             X0, X19'
p1086
sg19
S'e00313aa'
p1087
sg21
Vmov x0, x19
p1088
sg5
L18446743798840029492L
sg6
Nsg23
S'MOV'
p1089
sg25
S'0xffffffc0007ff134L'
p1090
sg27
Nsba(ibclass
BInstr
p1091
(dp1092
g2
Nsg17
S'MOV             W1, W21'
p1093
sg19
S'e103152a'
p1094
sg21
Vmov w1, w21
p1095
sg5
L18446743798840029496L
sg6
Nsg23
S'MOV'
p1096
sg25
S'0xffffffc0007ff138L'
p1097
sg27
Nsba(ibclass
BInstr
p1098
(dp1099
g2
Nsg17
S'MOV             W2, W20'
p1100
sg19
S'e203142a'
p1101
sg21
Vmov w2, w20
p1102
sg5
L18446743798840029500L
sg6
Nsg23
S'MOV'
p1103
sg25
S'0xffffffc0007ff13cL'
p1104
sg27
Nsba(ibclass
BInstr
p1105
(dp1106
g2
Nsg17
S'ADD             X3, X29, #0x50'
p1107
sg19
S'a3430191'
p1108
sg21
Vadd x3, x29, #0x50
p1109
sg5
L18446743798840029504L
sg6
Nsg23
S'ADD'
p1110
sg25
S'0xffffffc0007ff140L'
p1111
sg27
Nsba(ibclass
BInstr
p1112
(dp1113
g2
Nsg17
S'BLR             X4'
p1114
sg19
S'80003fd6'
p1115
sg21
Vblr x4
p1116
sg5
L18446743798840029508L
sg6
Nsg23
S'BLR'
p1117
sg25
S'0xffffffc0007ff144L'
p1118
sg27
Nsba(ibclass
BInstr
p1119
(dp1120
g2
Nsg17
S'B               loc_FFFFFFC0007FEF9C'
p1121
sg19
S'95ffff17'
p1122
sg21
Vb #0xfffffffffffffe54
p1123
sg5
L18446743798840029512L
sg6
Nsg23
g273
sg25
S'0xffffffc0007ff148L'
p1124
sg27
Nsbasg119
(lp1125
S'MOV reg, reg9'
p1126
aS'BL msm_isp_process_error_info'
p1127
aS'LDR reg, mem'
p1128
aS'MOV reg, reg9'
p1129
aS'MOV reg, reg1'
p1130
aS'MOV reg, reg0'
p1131
aS'ADD reg, reg9, #0x50'
p1132
aS'BLR reg'
p1133
aS'LDR reg, mem'
p1134
aS'MOV reg, reg9'
p1135
aS'MOV reg, reg1'
p1136
aS'MOV reg, reg0'
p1137
aS'ADD reg, reg9, #0x50'
p1138
aS'BLR reg'
p1139
aS'LDR reg, mem'
p1140
aS'MOV reg, reg9'
p1141
aS'MOV reg, reg1'
p1142
aS'MOV reg, reg0'
p1143
aS'ADD reg, reg9, #0x50'
p1144
aS'BLR reg'
p1145
aS'LDR reg, mem'
p1146
aS'MOV reg, reg9'
p1147
aS'MOV reg, reg1'
p1148
aS'MOV reg, reg0'
p1149
aS'ADD reg, reg9, #0x50'
p1150
aS'BLR reg'
p1151
aS'LDR reg, mem'
p1152
aS'MOV reg, reg9'
p1153
aS'MOV reg, reg1'
p1154
aS'MOV reg, reg0'
p1155
aS'ADD reg, reg9, #0x50'
p1156
aS'BLR reg'
p1157
aS'B func'
p1158
asg135
Nsg5
S'0xffffffc0007ff0c8L'
p1159
sg137
(lp1160
S'0xffffffc0007ff07cL'
p1161
asg6
Nsg139
(lp1162
S'0xffffffc0007fef9cL'
p1163
asg142
Nsg143
Nsg144
S'17ca4e4458e66ef7f5d6537205cd7a22'
p1164
sg146
S'a772a01a2f95762b5c0b4b3e495802d9'
p1165
sg148
(lp1166
g900
ag907
ag914
ag921
ag928
ag935
ag942
ag949
ag956
ag963
ag970
ag977
ag984
ag991
ag998
ag1005
ag1012
ag1019
ag1026
ag1033
ag1040
ag1047
ag1054
ag1061
ag1068
ag1075
ag1082
ag1089
ag1096
ag1103
ag1110
ag1117
ag273
asg150
Nsba(ibclass
BBasicBlock
p1167
(dp1168
g12
Nsg13
(lp1169
(ibclass
BInstr
p1170
(dp1171
g2
Nsg17
S'LDP             X19, X20, [SP,#0x70+var_60]'
p1172
sg19
S'f35341a9'
p1173
sg21
Vldp x19, x20, [sp, #0x10]
p1174
sg5
L18446743798840029516L
sg6
Nsg23
S'LDP'
p1175
sg25
S'0xffffffc0007ff14cL'
p1176
sg27
Nsba(ibclass
BInstr
p1177
(dp1178
g2
Nsg17
S'LDP             X21, X22, [SP,#0x70+var_50]'
p1179
sg19
S'f55b42a9'
p1180
sg21
Vldp x21, x22, [sp, #0x20]
p1181
sg5
L18446743798840029520L
sg6
Nsg23
S'LDP'
p1182
sg25
S'0xffffffc0007ff150L'
p1183
sg27
Nsba(ibclass
BInstr
p1184
(dp1185
g2
Nsg17
S'LDP             X23, X24, [SP,#0x70+var_40]'
p1186
sg19
S'f76343a9'
p1187
sg21
Vldp x23, x24, [sp, #0x30]
p1188
sg5
L18446743798840029524L
sg6
Nsg23
S'LDP'
p1189
sg25
S'0xffffffc0007ff154L'
p1190
sg27
Nsba(ibclass
BInstr
p1191
(dp1192
g2
Nsg17
S'LDP             X25, X26, [SP,#0x70+var_30]'
p1193
sg19
S'f96b44a9'
p1194
sg21
Vldp x25, x26, [sp, #0x40]
p1195
sg5
L18446743798840029528L
sg6
Nsg23
S'LDP'
p1196
sg25
S'0xffffffc0007ff158L'
p1197
sg27
Nsba(ibclass
BInstr
p1198
(dp1199
g2
Nsg17
S'LDP             X29, X30, [SP+0x70+var_70],#0x80'
p1200
sg19
S'fd7bc8a8'
p1201
sg21
Vldp x29, x30, [sp], #0x80
p1202
sg5
L18446743798840029532L
sg6
Nsg23
S'LDP'
p1203
sg25
S'0xffffffc0007ff15cL'
p1204
sg27
Nsba(ibclass
BInstr
p1205
(dp1206
g2
Nsg17
S'RET'
p1207
sg19
S'c0035fd6'
p1208
sg21
Vret 
p1209
sg5
L18446743798840029536L
sg6
Nsg23
S'RET'
p1210
sg25
S'0xffffffc0007ff160L'
p1211
sg27
Nsbasg119
(lp1212
S'LDP reg9, reg0, mem'
p1213
aS'LDP reg1, reg2, mem'
p1214
aS'LDP reg3, reg4, mem'
p1215
aS'LDP reg5, reg6, mem'
p1216
aS'LDP reg9, reg0, mem,#0x80'
p1217
ag1207
asg135
Nsg5
S'0xffffffc0007ff14cL'
p1218
sg137
(lp1219
S'0xffffffc0007fef9cL'
p1220
aS'0xffffffc0007fefbcL'
p1221
asg6
Nsg139
(lp1222
sg142
Nsg143
Nsg144
S'be6cb7dbf904825cdfc5591720269ab2'
p1223
sg146
S'bb563c048b494753b2fa5a71eae81323'
p1224
sg148
(lp1225
g1175
ag1182
ag1189
ag1196
ag1203
ag1210
asg150
Nsbasb.