(ibclass
BFunc
p0
(dp1
S'hash'
p2
NsS'name'
p3
S'msm_ipc_router_bind_control_port'
p4
sS'start_address'
p5
L18446743798846484488L
sS'flag'
p6
NsS'program'
p7
NsS'bbs'
p8
(lp9
(ibclass
BBasicBlock
p10
(dp11
S'function'
p12
NsS'binstrs'
p13
(lp14
(ibclass
BInstr
p15
(dp16
g2
NsS'disasm'
p17
S'STP             X29, X30, [SP,#-0x10+var_20]!'
p18
sS'bytes'
p19
S'fd7bbda9'
p20
sS'disasm_striped'
p21
Vstp x29, x30, [sp, #-0x30]!
p22
sg5
L18446743798846484488L
sg6
NsS'mnem'
p23
S'STP'
p24
sS'address'
p25
S'0xffffffc000e27008L'
p26
sS'basicblock'
p27
Nsba(ibclass
BInstr
p28
(dp29
g2
Nsg17
S'MOV             X29, SP'
p30
sg19
S'fd030091'
p31
sg21
Vmov x29, sp
p32
sg5
L18446743798846484492L
sg6
Nsg23
S'MOV'
p33
sg25
S'0xffffffc000e2700cL'
p34
sg27
Nsba(ibclass
BInstr
p35
(dp36
g2
Nsg17
S'STP             X19, X20, [SP,#0x20+var_10]'
p37
sg19
S'f35301a9'
p38
sg21
Vstp x19, x20, [sp, #0x10]
p39
sg5
L18446743798846484496L
sg6
Nsg23
S'STP'
p40
sg25
S'0xffffffc000e27010L'
p41
sg27
Nsba(ibclass
BInstr
p42
(dp43
g2
Nsg17
S'STP             X21, X22, [SP,#0x20+var_s0]'
p44
sg19
S'f55b02a9'
p45
sg21
Vstp x21, x22, [sp, #0x20]
p46
sg5
L18446743798846484500L
sg6
Nsg23
S'STP'
p47
sg25
S'0xffffffc000e27014L'
p48
sg27
Nsba(ibclass
BInstr
p49
(dp50
g2
Nsg17
S'MOV             X19, X0'
p51
sg19
S'f30300aa'
p52
sg21
Vmov x19, x0
p53
sg5
L18446743798846484504L
sg6
Nsg23
S'MOV'
p54
sg25
S'0xffffffc000e27018L'
p55
sg27
Nsba(ibclass
BInstr
p56
(dp57
g2
Nsg17
S'CBZ             X0, loc_FFFFFFC000E270A4'
p58
sg19
S'400400b4'
p59
sg21
Vcbz x0, #0x88
p60
sg5
L18446743798846484508L
sg6
Nsg23
S'CBZ'
p61
sg25
S'0xffffffc000e2701cL'
p62
sg27
NsbasS'disasm_list'
p63
(lp64
S'STP reg9, reg0, mem!'
p65
aS'MOV reg9, SP'
p66
aS'STP reg9, reg0, mem'
p67
aS'STP reg1, reg2, mem'
p68
aS'MOV reg9, reg'
p69
aS'CBZ reg, func'
p70
asS'end_address'
p71
Nsg5
S'0xffffffc000e27008L'
p72
sS'preds'
p73
(lp74
sg6
NsS'succs'
p75
(lp76
S'0xffffffc000e27020L'
p77
aS'0xffffffc000e270a4L'
p78
asS'hash_v3'
p79
NsS'flag_v2'
p80
NsS'hash_v1'
p81
S'7b420140d46f4c9f2027e5d91f075bb5'
p82
sS'hash_v2'
p83
S'a689a4796d97c3230e97241cb091e0e6'
p84
sS'mnen_list'
p85
(lp86
g24
ag33
ag40
ag47
ag54
ag61
asS'neighbour_disasm_list'
p87
Nsba(ibclass
BBasicBlock
p88
(dp89
g12
Nsg13
(lp90
(ibclass
BInstr
p91
(dp92
g2
Nsg17
S'LDR             W21, [X0,#0x24]'
p93
sg19
S'152440b9'
p94
sg21
Vldr w21, [x0, #0x24]
p95
sg5
L18446743798846484512L
sg6
Nsg23
S'LDR'
p96
sg25
S'0xffffffc000e27020L'
p97
sg27
Nsba(ibclass
BInstr
p98
(dp99
g2
Nsg17
S'CBNZ            W21, loc_FFFFFFC000E270A4'
p100
sg19
S'15040035'
p101
sg21
Vcbnz w21, #0x80
p102
sg5
L18446743798846484516L
sg6
Nsg23
S'CBNZ'
p103
sg25
S'0xffffffc000e27024L'
p104
sg27
Nsbasg63
(lp105
S'LDR reg1, mem'
p106
aS'CBNZ reg1, func'
p107
asg71
Nsg5
S'0xffffffc000e27020L'
p108
sg73
(lp109
S'0xffffffc000e27008L'
p110
asg6
Nsg75
(lp111
S'0xffffffc000e27028L'
p112
aS'0xffffffc000e270a4L'
p113
asg79
Nsg80
Nsg81
S'5522ad3e8b25e3a8f9013bb9571723e7'
p114
sg83
S'08e326848748cb2f4eecaed6f51eb737'
p115
sg85
(lp116
g96
ag103
asg87
Nsba(ibclass
BBasicBlock
p117
(dp118
g12
Nsg13
(lp119
(ibclass
BInstr
p120
(dp121
g2
Nsg17
S'ADRP            X20, #local_ports_lock_lhc2@PAGE'
p122
sg19
S'545c00d0'
p123
sg21
Vadrp x20, #0xb8a000
p124
sg5
L18446743798846484520L
sg6
Nsg23
S'ADRP'
p125
sg25
S'0xffffffc000e27028L'
p126
sg27
Nsba(ibclass
BInstr
p127
(dp128
g2
Nsg17
S'ADD             X20, X20, #local_ports_lock_lhc2@PAGEOFF'
p129
sg19
S'94c21e91'
p130
sg21
Vadd x20, x20, #0x7b0
p131
sg5
L18446743798846484524L
sg6
Nsg23
S'ADD'
p132
sg25
S'0xffffffc000e2702cL'
p133
sg27
Nsba(ibclass
BInstr
p134
(dp135
g2
Nsg17
S'MOV             X0, X20'
p136
sg19
S'e00314aa'
p137
sg21
Vmov x0, x20
p138
sg5
L18446743798846484528L
sg6
Nsg23
S'MOV'
p139
sg25
S'0xffffffc000e27030L'
p140
sg27
Nsba(ibclass
BInstr
p141
(dp142
g2
Nsg17
S'BL              down_write'
p143
sg19
S'81670094'
p144
sg21
Vbl #0x19e04
p145
sg5
L18446743798846484532L
sg6
Nsg23
S'BL'
p146
sg25
S'0xffffffc000e27034L'
p147
sg27
Nsba(ibclass
BInstr
p148
(dp149
g2
Nsg17
S'LDR             X1, [X19]'
p150
sg19
S'610240f9'
p151
sg21
Vldr x1, [x19]
p152
sg5
L18446743798846484536L
sg6
Nsg23
S'LDR'
p153
sg25
S'0xffffffc000e27038L'
p154
sg27
Nsba(ibclass
BInstr
p155
(dp156
g2
Nsg17
S'LDR             X0, [X19,#8]'
p157
sg19
S'600640f9'
p158
sg21
Vldr x0, [x19, #8]
p159
sg5
L18446743798846484540L
sg6
Nsg23
S'LDR'
p160
sg25
S'0xffffffc000e2703cL'
p161
sg27
Nsba(ibclass
BInstr
p162
(dp163
g2
Nsg17
S'ADD             X22, X20, #0x90'
p164
sg19
S'96420291'
p165
sg21
Vadd x22, x20, #0x90
p166
sg5
L18446743798846484544L
sg6
Nsg23
S'ADD'
p167
sg25
S'0xffffffc000e27040L'
p168
sg27
Nsba(ibclass
BInstr
p169
(dp170
g2
Nsg17
S'STR             X0, [X1,#8]'
p171
sg19
S'200400f9'
p172
sg21
Vstr x0, [x1, #8]
p173
sg5
L18446743798846484548L
sg6
Nsg23
S'STR'
p174
sg25
S'0xffffffc000e27044L'
p175
sg27
Nsba(ibclass
BInstr
p176
(dp177
g2
Nsg17
S'STR             X1, [X0]'
p178
sg19
S'010000f9'
p179
sg21
Vstr x1, [x0]
p180
sg5
L18446743798846484552L
sg6
Nsg23
S'STR'
p181
sg25
S'0xffffffc000e27048L'
p182
sg27
Nsba(ibclass
BInstr
p183
(dp184
g2
Nsg17
S'MOV             X0, #0x100'
p185
sg19
S'002080d2'
p186
sg21
Vmovz x0, #0x100
p187
sg5
L18446743798846484556L
sg6
Nsg23
S'MOV'
p188
sg25
S'0xffffffc000e2704cL'
p189
sg27
Nsba(ibclass
BInstr
p190
(dp191
g2
Nsg17
S'MOVK            X0, #0xDEAD,LSL#48'
p192
sg19
S'a0d5fbf2'
p193
sg21
Vmovk x0, #0xdead, lsl #48
p194
sg5
L18446743798846484560L
sg6
Nsg23
S'MOVK'
p195
sg25
S'0xffffffc000e27050L'
p196
sg27
Nsba(ibclass
BInstr
p197
(dp198
g2
Nsg17
S'STR             X0, [X19]'
p199
sg19
S'600200f9'
p200
sg21
Vstr x0, [x19]
p201
sg5
L18446743798846484564L
sg6
Nsg23
S'STR'
p202
sg25
S'0xffffffc000e27054L'
p203
sg27
Nsba(ibclass
BInstr
p204
(dp205
g2
Nsg17
S'MOV             X0, #0x200'
p206
sg19
S'004080d2'
p207
sg21
Vmovz x0, #0x200
p208
sg5
L18446743798846484568L
sg6
Nsg23
S'MOV'
p209
sg25
S'0xffffffc000e27058L'
p210
sg27
Nsba(ibclass
BInstr
p211
(dp212
g2
Nsg17
S'MOVK            X0, #0xDEAD,LSL#48'
p213
sg19
S'a0d5fbf2'
p214
sg21
Vmovk x0, #0xdead, lsl #48
p215
sg5
L18446743798846484572L
sg6
Nsg23
S'MOVK'
p216
sg25
S'0xffffffc000e2705cL'
p217
sg27
Nsba(ibclass
BInstr
p218
(dp219
g2
Nsg17
S'STR             X0, [X19,#8]'
p220
sg19
S'600600f9'
p221
sg21
Vstr x0, [x19, #8]
p222
sg5
L18446743798846484576L
sg6
Nsg23
S'STR'
p223
sg25
S'0xffffffc000e27060L'
p224
sg27
Nsba(ibclass
BInstr
p225
(dp226
g2
Nsg17
S'MOV             X0, X20'
p227
sg19
S'e00314aa'
p228
sg21
Vmov x0, x20
p229
sg5
L18446743798846484580L
sg6
Nsg23
S'MOV'
p230
sg25
S'0xffffffc000e27064L'
p231
sg27
Nsba(ibclass
BInstr
p232
(dp233
g2
Nsg17
S'BL              up_write'
p234
sg19
S'0672d097'
p235
sg21
Vbl #0xffffffffff41c818
p236
sg5
L18446743798846484584L
sg6
Nsg23
S'BL'
p237
sg25
S'0xffffffc000e27068L'
p238
sg27
Nsba(ibclass
BInstr
p239
(dp240
g2
Nsg17
S'MOV             W0, #2'
p241
sg19
S'40008052'
p242
sg21
Vmovz w0, #0x2
p243
sg5
L18446743798846484588L
sg6
Nsg23
S'MOV'
p244
sg25
S'0xffffffc000e2706cL'
p245
sg27
Nsba(ibclass
BInstr
p246
(dp247
g2
Nsg17
S'STR             W0, [X19,#0x24]'
p248
sg19
S'602600b9'
p249
sg21
Vstr w0, [x19, #0x24]
p250
sg5
L18446743798846484592L
sg6
Nsg23
S'STR'
p251
sg25
S'0xffffffc000e27070L'
p252
sg27
Nsba(ibclass
BInstr
p253
(dp254
g2
Nsg17
S'MOV             X0, X22'
p255
sg19
S'e00316aa'
p256
sg21
Vmov x0, x22
p257
sg5
L18446743798846484596L
sg6
Nsg23
S'MOV'
p258
sg25
S'0xffffffc000e27074L'
p259
sg27
Nsba(ibclass
BInstr
p260
(dp261
g2
Nsg17
S'BL              down_write'
p262
sg19
S'70670094'
p263
sg21
Vbl #0x19dc0
p264
sg5
L18446743798846484600L
sg6
Nsg23
S'BL'
p265
sg25
S'0xffffffc000e27078L'
p266
sg27
Nsba(ibclass
BInstr
p267
(dp268
g2
Nsg17
S'LDR             X0, [X20,#(qword_FFFFFFC0019B1868 - 0xFFFFFFC0019B17B0)]'
p269
sg19
S'805e40f9'
p270
sg21
Vldr x0, [x20, #0xb8]
p271
sg5
L18446743798846484604L
sg6
Nsg23
S'LDR'
p272
sg25
S'0xffffffc000e2707cL'
p273
sg27
Nsba(ibclass
BInstr
p274
(dp275
g2
Nsg17
S'STR             X19, [X20,#(qword_FFFFFFC0019B1868 - 0xFFFFFFC0019B17B0)]'
p276
sg19
S'935e00f9'
p277
sg21
Vstr x19, [x20, #0xb8]
p278
sg5
L18446743798846484608L
sg6
Nsg23
S'STR'
p279
sg25
S'0xffffffc000e27080L'
p280
sg27
Nsba(ibclass
BInstr
p281
(dp282
g2
Nsg17
S'ADD             X20, X20, #0xB0'
p283
sg19
S'94c20291'
p284
sg21
Vadd x20, x20, #0xb0
p285
sg5
L18446743798846484612L
sg6
Nsg23
S'ADD'
p286
sg25
S'0xffffffc000e27084L'
p287
sg27
Nsba(ibclass
BInstr
p288
(dp289
g2
Nsg17
S'STR             X0, [X19,#8]'
p290
sg19
S'600600f9'
p291
sg21
Vstr x0, [x19, #8]
p292
sg5
L18446743798846484616L
sg6
Nsg23
S'STR'
p293
sg25
S'0xffffffc000e27088L'
p294
sg27
Nsba(ibclass
BInstr
p295
(dp296
g2
Nsg17
S'STR             X20, [X19]'
p297
sg19
S'740200f9'
p298
sg21
Vstr x20, [x19]
p299
sg5
L18446743798846484620L
sg6
Nsg23
S'STR'
p300
sg25
S'0xffffffc000e2708cL'
p301
sg27
Nsba(ibclass
BInstr
p302
(dp303
g2
Nsg17
S'STR             X19, [X0]'
p304
sg19
S'130000f9'
p305
sg21
Vstr x19, [x0]
p306
sg5
L18446743798846484624L
sg6
Nsg23
S'STR'
p307
sg25
S'0xffffffc000e27090L'
p308
sg27
Nsba(ibclass
BInstr
p309
(dp310
g2
Nsg17
S'MOV             X0, X22'
p311
sg19
S'e00316aa'
p312
sg21
Vmov x0, x22
p313
sg5
L18446743798846484628L
sg6
Nsg23
S'MOV'
p314
sg25
S'0xffffffc000e27094L'
p315
sg27
Nsba(ibclass
BInstr
p316
(dp317
g2
Nsg17
S'BL              up_write'
p318
sg19
S'fa71d097'
p319
sg21
Vbl #0xffffffffff41c7e8
p320
sg5
L18446743798846484632L
sg6
Nsg23
S'BL'
p321
sg25
S'0xffffffc000e27098L'
p322
sg27
Nsba(ibclass
BInstr
p323
(dp324
g2
Nsg17
S'MOV             W0, W21'
p325
sg19
S'e003152a'
p326
sg21
Vmov w0, w21
p327
sg5
L18446743798846484636L
sg6
Nsg23
S'MOV'
p328
sg25
S'0xffffffc000e2709cL'
p329
sg27
Nsba(ibclass
BInstr
p330
(dp331
g2
Nsg17
S'B               loc_FFFFFFC000E270A8'
p332
sg19
S'02000014'
p333
sg21
Vb #8
p334
sg5
L18446743798846484640L
sg6
Nsg23
S'B'
p335
sg25
S'0xffffffc000e270a0L'
p336
sg27
Nsbasg63
(lp337
S'ADRP reg0, #local_ports_lock_lhc2@PAGE'
p338
aS'ADD reg0, reg0, #local_ports_lock_lhc2@PAGEOFF'
p339
aS'MOV reg, reg0'
p340
aS'BL down_write'
p341
aS'LDR reg, mem'
p342
aS'LDR reg, mem'
p343
aS'ADD reg2, reg0, #0x90'
p344
aS'STR reg, mem'
p345
aS'STR reg, mem'
p346
aS'MOV reg, #0x100'
p347
aS'MOVK reg, #0xDEAD,LSL#48'
p348
aS'STR reg, mem'
p349
aS'MOV reg, #0x200'
p350
aS'MOVK reg, #0xDEAD,LSL#48'
p351
aS'STR reg, mem'
p352
aS'MOV reg, reg0'
p353
aS'BL up_write'
p354
aS'MOV reg, #2'
p355
aS'STR reg, mem'
p356
aS'MOV reg, reg2'
p357
aS'BL down_write'
p358
aS'LDR reg, mem'
p359
aS'STR reg9, mem'
p360
aS'ADD reg0, reg0, #0xB0'
p361
aS'STR reg, mem'
p362
aS'STR reg0, mem'
p363
aS'STR reg9, mem'
p364
aS'MOV reg, reg2'
p365
aS'BL up_write'
p366
aS'MOV reg, reg1'
p367
aS'B func'
p368
asg71
Nsg5
S'0xffffffc000e27028L'
p369
sg73
(lp370
S'0xffffffc000e27020L'
p371
asg6
Nsg75
(lp372
S'0xffffffc000e270a8L'
p373
asg79
Nsg80
Nsg81
S'0441f9f9fab8ba6fefb9c8d04419a8f7'
p374
sg83
S'39cb82b8ff765d3f8a1f38089f017dc9'
p375
sg85
(lp376
g125
ag132
ag139
ag146
ag153
ag160
ag167
ag174
ag181
ag188
ag195
ag202
ag209
ag216
ag223
ag230
ag237
ag244
ag251
ag258
ag265
ag272
ag279
ag286
ag293
ag300
ag307
ag314
ag321
ag328
ag335
asg87
Nsba(ibclass
BBasicBlock
p377
(dp378
g12
Nsg13
(lp379
(ibclass
BInstr
p380
(dp381
g2
Nsg17
S'MOV             W0, #0xFFFFFFEA'
p382
sg19
S'a0028012'
p383
sg21
Vmovn w0, #0x15
p384
sg5
L18446743798846484644L
sg6
Nsg23
S'MOV'
p385
sg25
S'0xffffffc000e270a4L'
p386
sg27
Nsbasg63
(lp387
S'MOV reg, #0xFFFFFFEA'
p388
asg71
Nsg5
S'0xffffffc000e270a4L'
p389
sg73
(lp390
S'0xffffffc000e27008L'
p391
aS'0xffffffc000e27020L'
p392
asg6
Nsg75
(lp393
S'0xffffffc000e270a8L'
p394
asg79
Nsg80
Nsg81
S'17b32100aef1fc19670be7fd58bc85df'
p395
sg83
S'a29fd938bb678f91c772895a5ab962e9'
p396
sg85
(lp397
g385
asg87
Nsba(ibclass
BBasicBlock
p398
(dp399
g12
Nsg13
(lp400
(ibclass
BInstr
p401
(dp402
g2
Nsg17
S'LDP             X19, X20, [SP,#0x20+var_10]'
p403
sg19
S'f35341a9'
p404
sg21
Vldp x19, x20, [sp, #0x10]
p405
sg5
L18446743798846484648L
sg6
Nsg23
S'LDP'
p406
sg25
S'0xffffffc000e270a8L'
p407
sg27
Nsba(ibclass
BInstr
p408
(dp409
g2
Nsg17
S'LDP             X21, X22, [SP,#0x20+var_s0]'
p410
sg19
S'f55b42a9'
p411
sg21
Vldp x21, x22, [sp, #0x20]
p412
sg5
L18446743798846484652L
sg6
Nsg23
S'LDP'
p413
sg25
S'0xffffffc000e270acL'
p414
sg27
Nsba(ibclass
BInstr
p415
(dp416
g2
Nsg17
S'LDP             X29, X30, [SP+0x20+var_20],#0x30'
p417
sg19
S'fd7bc3a8'
p418
sg21
Vldp x29, x30, [sp], #0x30
p419
sg5
L18446743798846484656L
sg6
Nsg23
S'LDP'
p420
sg25
S'0xffffffc000e270b0L'
p421
sg27
Nsba(ibclass
BInstr
p422
(dp423
g2
Nsg17
S'RET'
p424
sg19
S'c0035fd6'
p425
sg21
Vret 
p426
sg5
L18446743798846484660L
sg6
Nsg23
S'RET'
p427
sg25
S'0xffffffc000e270b4L'
p428
sg27
Nsbasg63
(lp429
S'LDP reg9, reg0, mem'
p430
aS'LDP reg1, reg2, mem'
p431
aS'LDP reg9, reg0, mem,#0x30'
p432
ag424
asg71
Nsg5
S'0xffffffc000e270a8L'
p433
sg73
(lp434
S'0xffffffc000e27028L'
p435
aS'0xffffffc000e270a4L'
p436
asg6
Nsg75
(lp437
sg79
Nsg80
Nsg81
S'e506acdec8f0d1b80ba12a70d6d398f7'
p438
sg83
S'3ac81bdcde4eb0fd97ff7d602d4ab967'
p439
sg85
(lp440
g406
ag413
ag420
ag427
asg87
Nsbasb.