(ibclass
BFunc
p0
(dp1
S'hash'
p2
NsS'name'
p3
S'msm_venc_inst_init'
p4
sS'start_address'
p5
L18446743798839712540L
sS'flag'
p6
NsS'program'
p7
NsS'bbs'
p8
(lp9
(ibclass
BBasicBlock
p10
(dp11
S'function'
p12
NsS'binstrs'
p13
(lp14
(ibclass
BInstr
p15
(dp16
g2
NsS'disasm'
p17
S'STP             X29, X30, [SP,#-0x10+var_10]!'
p18
sS'bytes'
p19
S'fd7bbea9'
p20
sS'disasm_striped'
p21
Vstp x29, x30, [sp, #-0x20]!
p22
sg5
L18446743798839712540L
sg6
NsS'mnem'
p23
S'STP'
p24
sS'address'
p25
S'0xffffffc0007b1b1cL'
p26
sS'basicblock'
p27
Nsba(ibclass
BInstr
p28
(dp29
g2
Nsg17
S'MOV             X29, SP'
p30
sg19
S'fd030091'
p31
sg21
Vmov x29, sp
p32
sg5
L18446743798839712544L
sg6
Nsg23
S'MOV'
p33
sg25
S'0xffffffc0007b1b20L'
p34
sg27
Nsba(ibclass
BInstr
p35
(dp36
g2
Nsg17
S'STR             X19, [SP,#0x10+var_s0]'
p37
sg19
S'f30b00f9'
p38
sg21
Vstr x19, [sp, #0x10]
p39
sg5
L18446743798839712548L
sg6
Nsg23
S'STR'
p40
sg25
S'0xffffffc0007b1b24L'
p41
sg27
Nsba(ibclass
BInstr
p42
(dp43
g2
Nsg17
S'MOV             X2, X0'
p44
sg19
S'e20300aa'
p45
sg21
Vmov x2, x0
p46
sg5
L18446743798839712552L
sg6
Nsg23
S'MOV'
p47
sg25
S'0xffffffc0007b1b28L'
p48
sg27
Nsba(ibclass
BInstr
p49
(dp50
g2
Nsg17
S'CBNZ            X0, loc_FFFFFFC0007B1B6C'
p51
sg19
S'000200b5'
p52
sg21
Vcbnz x0, #0x40
p53
sg5
L18446743798839712556L
sg6
Nsg23
S'CBNZ'
p54
sg25
S'0xffffffc0007b1b2cL'
p55
sg27
NsbasS'disasm_list'
p56
(lp57
S'STP reg9, reg0, mem!'
p58
aS'MOV reg9, SP'
p59
aS'STR reg9, mem'
p60
aS'MOV reg, reg'
p61
aS'CBNZ reg, func'
p62
asS'end_address'
p63
Nsg5
S'0xffffffc0007b1b1cL'
p64
sS'preds'
p65
(lp66
sg6
NsS'succs'
p67
(lp68
S'0xffffffc0007b1b30L'
p69
aS'0xffffffc0007b1b6cL'
p70
asS'hash_v3'
p71
NsS'flag_v2'
p72
NsS'hash_v1'
p73
S'50eed03d057bf7fac4c210acc8b85c39'
p74
sS'hash_v2'
p75
S'65152969b5ae3f8ee989757fc5333782'
p76
sS'mnen_list'
p77
(lp78
g24
ag33
ag40
ag47
ag54
asS'neighbour_disasm_list'
p79
Nsba(ibclass
BBasicBlock
p80
(dp81
g12
Nsg13
(lp82
(ibclass
BInstr
p83
(dp84
g2
Nsg17
S'ADRP            X0, #qword_FFFFFFC000E4A8A0@PAGE'
p85
sg19
S'c03400b0'
p86
sg21
Vadrp x0, #0x699000
p87
sg5
L18446743798839712560L
sg6
Nsg23
S'ADRP'
p88
sg25
S'0xffffffc0007b1b30L'
p89
sg27
Nsba(ibclass
BInstr
p90
(dp91
g2
Nsg17
S'LDR             X0, [X0,#qword_FFFFFFC000E4A8A0@PAGEOFF]'
p92
sg19
S'005044f9'
p93
sg21
Vldr x0, [x0, #0x8a0]
p94
sg5
L18446743798839712564L
sg6
Nsg23
S'LDR'
p95
sg25
S'0xffffffc0007b1b34L'
p96
sg27
Nsba(ibclass
BInstr
p97
(dp98
g2
Nsg17
S'LDR             W0, [X0]'
p99
sg19
S'000040b9'
p100
sg21
Vldr w0, [x0]
p101
sg5
L18446743798839712568L
sg6
Nsg23
S'LDR'
p102
sg25
S'0xffffffc0007b1b38L'
p103
sg27
Nsba(ibclass
BInstr
p104
(dp105
g2
Nsg17
S'TBZ             W0, #0, loc_FFFFFFC0007B1BB8'
p106
sg19
S'e0030036'
p107
sg21
Vtbz w0, #0, #0x7c
p108
sg5
L18446743798839712572L
sg6
Nsg23
S'TBZ'
p109
sg25
S'0xffffffc0007b1b3cL'
p110
sg27
Nsbasg56
(lp111
S'ADRP reg, #func@PAGE'
p112
aS'LDR reg, mem'
p113
aS'LDR reg, mem'
p114
aS'TBZ reg, #0, func'
p115
asg63
Nsg5
S'0xffffffc0007b1b30L'
p116
sg65
(lp117
S'0xffffffc0007b1b1cL'
p118
asg6
Nsg67
(lp119
S'0xffffffc0007b1b40L'
p120
aS'0xffffffc0007b1bb8L'
p121
asg71
Nsg72
Nsg73
S'2de94c9e326481f2f467f11acce8dcc9'
p122
sg75
S'f9f7225e2bae36aff04e5d93bafe5e1d'
p123
sg77
(lp124
g88
ag95
ag102
ag109
asg79
Nsba(ibclass
BBasicBlock
p125
(dp126
g12
Nsg13
(lp127
(ibclass
BInstr
p128
(dp129
g2
Nsg17
S'ADRP            X0, #qword_FFFFFFC000E48D48@PAGE'
p130
sg19
S'a03400f0'
p131
sg21
Vadrp x0, #0x697000
p132
sg5
L18446743798839712576L
sg6
Nsg23
S'ADRP'
p133
sg25
S'0xffffffc0007b1b40L'
p134
sg27
Nsba(ibclass
BInstr
p135
(dp136
g2
Nsg17
S'LDR             X0, [X0,#qword_FFFFFFC000E48D48@PAGEOFF]'
p137
sg19
S'00a446f9'
p138
sg21
Vldr x0, [x0, #0xd48]
p139
sg5
L18446743798839712580L
sg6
Nsg23
S'LDR'
p140
sg25
S'0xffffffc0007b1b44L'
p141
sg27
Nsba(ibclass
BInstr
p142
(dp143
g2
Nsg17
S'MOV             W19, #0xFFFFFFEA'
p144
sg19
S'b3028012'
p145
sg21
Vmovn w19, #0x15
p146
sg5
L18446743798839712584L
sg6
Nsg23
S'MOV'
p147
sg25
S'0xffffffc0007b1b48L'
p148
sg27
Nsba(ibclass
BInstr
p149
(dp150
g2
Nsg17
S'LDR             W0, [X0]'
p151
sg19
S'000040b9'
p152
sg21
Vldr w0, [x0]
p153
sg5
L18446743798839712588L
sg6
Nsg23
S'LDR'
p154
sg25
S'0xffffffc0007b1b4cL'
p155
sg27
Nsba(ibclass
BInstr
p156
(dp157
g2
Nsg17
S'CBNZ            W0, loc_FFFFFFC0007B1BBC'
p158
sg19
S'60030035'
p159
sg21
Vcbnz w0, #0x6c
p160
sg5
L18446743798839712592L
sg6
Nsg23
S'CBNZ'
p161
sg25
S'0xffffffc0007b1b50L'
p162
sg27
Nsbasg56
(lp163
S'ADRP reg, #func@PAGE'
p164
aS'LDR reg, mem'
p165
aS'MOV reg9, #0xFFFFFFEA'
p166
aS'LDR reg, mem'
p167
aS'CBNZ reg, func'
p168
asg63
Nsg5
S'0xffffffc0007b1b40L'
p169
sg65
(lp170
S'0xffffffc0007b1b30L'
p171
asg6
Nsg67
(lp172
S'0xffffffc0007b1b54L'
p173
aS'0xffffffc0007b1bbcL'
p174
asg71
Nsg72
Nsg73
S'd80cc6d531f24a5b2d60307977d236c7'
p175
sg75
S'baaaa11d303d94886d47725c6dea0608'
p176
sg77
(lp177
g133
ag140
ag147
ag154
ag161
asg79
Nsba(ibclass
BBasicBlock
p178
(dp179
g12
Nsg13
(lp180
(ibclass
BInstr
p181
(dp182
g2
Nsg17
S'ADRP            X0, #unk_FFFFFFC0013BB5BE@PAGE'
p183
sg19
S'406000d0'
p184
sg21
Vadrp x0, #0xc0a000
p185
sg5
L18446743798839712596L
sg6
Nsg23
S'ADRP'
p186
sg25
S'0xffffffc0007b1b54L'
p187
sg27
Nsba(ibclass
BInstr
p188
(dp189
g2
Nsg17
S'ADRP            X1, #(aQcomMdssDsi_17+0x1B)@PAGE; "err"'
p190
sg19
S'e15b00d0'
p191
sg21
Vadrp x1, #0xb7e000
p192
sg5
L18446743798839712600L
sg6
Nsg23
S'ADRP'
p193
sg25
S'0xffffffc0007b1b58L'
p194
sg27
Nsba(ibclass
BInstr
p195
(dp196
g2
Nsg17
S'ADD             X1, X1, #(aQcomMdssDsi_17+0x1B)@PAGEOFF; "err"'
p197
sg19
S'21801291'
p198
sg21
Vadd x1, x1, #0x4a0
p199
sg5
L18446743798839712604L
sg6
Nsg23
S'ADD'
p200
sg25
S'0xffffffc0007b1b5cL'
p201
sg27
Nsba(ibclass
BInstr
p202
(dp203
g2
Nsg17
S'ADD             X0, X0, #unk_FFFFFFC0013BB5BE@PAGEOFF'
p204
sg19
S'00f81691'
p205
sg21
Vadd x0, x0, #0x5be
p206
sg5
L18446743798839712608L
sg6
Nsg23
S'ADD'
p207
sg25
S'0xffffffc0007b1b60L'
p208
sg27
Nsba(ibclass
BInstr
p209
(dp210
g2
Nsg17
S'BL              printk'
p211
sg19
S'7f071a94'
p212
sg21
Vbl #0x681dfc
p213
sg5
L18446743798839712612L
sg6
Nsg23
S'BL'
p214
sg25
S'0xffffffc0007b1b64L'
p215
sg27
Nsba(ibclass
BInstr
p216
(dp217
g2
Nsg17
S'B               loc_FFFFFFC0007B1BBC'
p218
sg19
S'15000014'
p219
sg21
Vb #0x54
p220
sg5
L18446743798839712616L
sg6
Nsg23
S'B'
p221
sg25
S'0xffffffc0007b1b68L'
p222
sg27
Nsbasg56
(lp223
S'ADRP reg, #func@PAGE'
p224
aS'ADRP reg, #(aQcomMdssDsi_17+0x1B)@PAGE'
p225
aS'ADD reg, reg, #(aQcomMdssDsi_17+0x1B)@PAGEOFF'
p226
aS'ADD reg, reg, #func@PAGEOFF'
p227
aS'BL printk'
p228
aS'B func'
p229
asg63
Nsg5
S'0xffffffc0007b1b54L'
p230
sg65
(lp231
S'0xffffffc0007b1b40L'
p232
asg6
Nsg67
(lp233
S'0xffffffc0007b1bbcL'
p234
asg71
Nsg72
Nsg73
S'b2a3927201f2643e37e238d870ced3c2'
p235
sg75
S'3e167cdac8f124cfbacea29ee5c30eb0'
p236
sg77
(lp237
g186
ag193
ag200
ag207
ag214
ag221
asg79
Nsba(ibclass
BBasicBlock
p238
(dp239
g12
Nsg13
(lp240
(ibclass
BInstr
p241
(dp242
g2
Nsg17
S'ADRP            X0, #venc_formats@PAGE; "YCbCr Semiplanar 4:2:0"'
p243
sg19
S'008c00b0'
p244
sg21
Vadrp x0, #0x1181000
p245
sg5
L18446743798839712620L
sg6
Nsg23
S'ADRP'
p246
sg25
S'0xffffffc0007b1b6cL'
p247
sg27
Nsba(ibclass
BInstr
p248
(dp249
g2
Nsg17
S'ADD             X0, X0, #venc_formats@PAGEOFF; "YCbCr Semiplanar 4:2:0"'
p250
sg19
S'00402b91'
p251
sg21
Vadd x0, x0, #0xad0
p252
sg5
L18446743798839712624L
sg6
Nsg23
S'ADD'
p253
sg25
S'0xffffffc0007b1b70L'
p254
sg27
Nsba(ibclass
BInstr
p255
(dp256
g2
Nsg17
S'ADD             X1, X0, #0x78'
p257
sg19
S'01e00191'
p258
sg21
Vadd x1, x0, #0x78
p259
sg5
L18446743798839712628L
sg6
Nsg23
S'ADD'
p260
sg25
S'0xffffffc0007b1b74L'
p261
sg27
Nsba(ibclass
BInstr
p262
(dp263
g2
Nsg17
S'STR             X0, [X2,#0x98]'
p264
sg19
S'404c00f9'
p265
sg21
Vstr x0, [x2, #0x98]
p266
sg5
L18446743798839712632L
sg6
Nsg23
S'STR'
p267
sg25
S'0xffffffc0007b1b78L'
p268
sg27
Nsba(ibclass
BInstr
p269
(dp270
g2
Nsg17
S'MOV             W0, #0x780'
p271
sg19
S'00f08052'
p272
sg21
Vmovz w0, #0x780
p273
sg5
L18446743798839712636L
sg6
Nsg23
S'MOV'
p274
sg25
S'0xffffffc0007b1b7cL'
p275
sg27
Nsba(ibclass
BInstr
p276
(dp277
g2
Nsg17
S'STR             W0, [X2,#0x7C]'
p278
sg19
S'407c00b9'
p279
sg21
Vstr w0, [x2, #0x7c]
p280
sg5
L18446743798839712640L
sg6
Nsg23
S'STR'
p281
sg25
S'0xffffffc0007b1b80L'
p282
sg27
Nsba(ibclass
BInstr
p283
(dp284
g2
Nsg17
S'STR             W0, [X2,#0x78]'
p285
sg19
S'407800b9'
p286
sg21
Vstr w0, [x2, #0x78]
p287
sg5
L18446743798839712644L
sg6
Nsg23
S'STR'
p288
sg25
S'0xffffffc0007b1b84L'
p289
sg27
Nsba(ibclass
BInstr
p290
(dp291
g2
Nsg17
S'MOV             W0, #0xF'
p292
sg19
S'e0018052'
p293
sg21
Vmovz w0, #0xf
p294
sg5
L18446743798839712648L
sg6
Nsg23
S'MOV'
p295
sg25
S'0xffffffc0007b1b88L'
p296
sg27
Nsba(ibclass
BInstr
p297
(dp298
g2
Nsg17
S'STR             X1, [X2,#0xA0]'
p299
sg19
S'415000f9'
p300
sg21
Vstr x1, [x2, #0xa0]
p301
sg5
L18446743798839712652L
sg6
Nsg23
S'STR'
p302
sg25
S'0xffffffc0007b1b8cL'
p303
sg27
Nsba(ibclass
BInstr
p304
(dp305
g2
Nsg17
S'STR             W0, [X2,#0x88]'
p306
sg19
S'408800b9'
p307
sg21
Vstr w0, [x2, #0x88]
p308
sg5
L18446743798839712656L
sg6
Nsg23
S'STR'
p309
sg25
S'0xffffffc0007b1b90L'
p310
sg27
Nsba(ibclass
BInstr
p311
(dp312
g2
Nsg17
S'MOV             W1, #0x440'
p313
sg19
S'01888052'
p314
sg21
Vmovz w1, #0x440
p315
sg5
L18446743798839712660L
sg6
Nsg23
S'MOV'
p316
sg25
S'0xffffffc0007b1b94L'
p317
sg27
Nsba(ibclass
BInstr
p318
(dp319
g2
Nsg17
S'MOV             W0, #1'
p320
sg19
S'20008052'
p321
sg21
Vmovz w0, #0x1
p322
sg5
L18446743798839712664L
sg6
Nsg23
S'MOV'
p323
sg25
S'0xffffffc0007b1b98L'
p324
sg27
Nsba(ibclass
BInstr
p325
(dp326
g2
Nsg17
S'STR             W1, [X2,#0x84]'
p327
sg19
S'418400b9'
p328
sg21
Vstr w1, [x2, #0x84]
p329
sg5
L18446743798839712668L
sg6
Nsg23
S'STR'
p330
sg25
S'0xffffffc0007b1b9cL'
p331
sg27
Nsba(ibclass
BInstr
p332
(dp333
g2
Nsg17
S'STR             W1, [X2,#0x80]'
p334
sg19
S'418000b9'
p335
sg21
Vstr w1, [x2, #0x80]
p336
sg5
L18446743798839712672L
sg6
Nsg23
S'STR'
p337
sg25
S'0xffffffc0007b1ba0L'
p338
sg27
Nsba(ibclass
BInstr
p339
(dp340
g2
Nsg17
S'STR             WZR, [X2,#0xFD8]'
p341
sg19
S'5fd80fb9'
p342
sg21
Vstr wzr, [x2, #0xfd8]
p343
sg5
L18446743798839712676L
sg6
Nsg23
S'STR'
p344
sg25
S'0xffffffc0007b1ba4L'
p345
sg27
Nsba(ibclass
BInstr
p346
(dp347
g2
Nsg17
S'STR             W0, [X2,#0x104C]'
p348
sg19
S'404c10b9'
p349
sg21
Vstr w0, [x2, #0x104c]
p350
sg5
L18446743798839712680L
sg6
Nsg23
S'STR'
p351
sg25
S'0xffffffc0007b1ba8L'
p352
sg27
Nsba(ibclass
BInstr
p353
(dp354
g2
Nsg17
S'STR             W0, [X2,#0x1050]'
p355
sg19
S'405010b9'
p356
sg21
Vstr w0, [x2, #0x1050]
p357
sg5
L18446743798839712684L
sg6
Nsg23
S'STR'
p358
sg25
S'0xffffffc0007b1bacL'
p359
sg27
Nsba(ibclass
BInstr
p360
(dp361
g2
Nsg17
S'MOV             W19, #0'
p362
sg19
S'13008052'
p363
sg21
Vmovz w19, #0
p364
sg5
L18446743798839712688L
sg6
Nsg23
S'MOV'
p365
sg25
S'0xffffffc0007b1bb0L'
p366
sg27
Nsba(ibclass
BInstr
p367
(dp368
g2
Nsg17
S'B               loc_FFFFFFC0007B1BBC'
p369
sg19
S'02000014'
p370
sg21
Vb #8
p371
sg5
L18446743798839712692L
sg6
Nsg23
g221
sg25
S'0xffffffc0007b1bb4L'
p372
sg27
Nsbasg56
(lp373
S'ADRP reg, #venc_formats@PAGE'
p374
aS'ADD reg, reg, #venc_formats@PAGEOFF'
p375
aS'ADD reg, reg, #0x78'
p376
aS'STR reg, mem'
p377
aS'MOV reg, #0x780'
p378
aS'STR reg, mem'
p379
aS'STR reg, mem'
p380
aS'MOV reg, #0xF'
p381
aS'STR reg, mem'
p382
aS'STR reg, mem'
p383
aS'MOV reg, #0x440'
p384
aS'MOV reg, #1'
p385
aS'STR reg, mem'
p386
aS'STR reg, mem'
p387
aS'STR WZR, mem'
p388
aS'STR reg, mem'
p389
aS'STR reg, mem'
p390
aS'MOV reg9, #0'
p391
aS'B func'
p392
asg63
Nsg5
S'0xffffffc0007b1b6cL'
p393
sg65
(lp394
S'0xffffffc0007b1b1cL'
p395
asg6
Nsg67
(lp396
S'0xffffffc0007b1bbcL'
p397
asg71
Nsg72
Nsg73
S'8117529326056445a6801a53ff14bf59'
p398
sg75
S'a4f172926c976f648c9b6ae5337e75fe'
p399
sg77
(lp400
g246
ag253
ag260
ag267
ag274
ag281
ag288
ag295
ag302
ag309
ag316
ag323
ag330
ag337
ag344
ag351
ag358
ag365
ag221
asg79
Nsba(ibclass
BBasicBlock
p401
(dp402
g12
Nsg13
(lp403
(ibclass
BInstr
p404
(dp405
g2
Nsg17
S'MOV             W19, #0xFFFFFFEA'
p406
sg19
S'b3028012'
p407
sg21
Vmovn w19, #0x15
p408
sg5
L18446743798839712696L
sg6
Nsg23
S'MOV'
p409
sg25
S'0xffffffc0007b1bb8L'
p410
sg27
Nsbasg56
(lp411
S'MOV reg9, #0xFFFFFFEA'
p412
asg63
Nsg5
S'0xffffffc0007b1bb8L'
p413
sg65
(lp414
S'0xffffffc0007b1b30L'
p415
asg6
Nsg67
(lp416
S'0xffffffc0007b1bbcL'
p417
asg71
Nsg72
Nsg73
S'17b32100aef1fc19670be7fd58bc85df'
p418
sg75
S'b3606159d658f642fff4e1852538bd21'
p419
sg77
(lp420
g409
asg79
Nsba(ibclass
BBasicBlock
p421
(dp422
g12
Nsg13
(lp423
(ibclass
BInstr
p424
(dp425
g2
Nsg17
S'MOV             W0, W19'
p426
sg19
S'e003132a'
p427
sg21
Vmov w0, w19
p428
sg5
L18446743798839712700L
sg6
Nsg23
S'MOV'
p429
sg25
S'0xffffffc0007b1bbcL'
p430
sg27
Nsba(ibclass
BInstr
p431
(dp432
g2
Nsg17
S'LDR             X19, [SP,#0x10+var_s0]'
p433
sg19
S'f30b40f9'
p434
sg21
Vldr x19, [sp, #0x10]
p435
sg5
L18446743798839712704L
sg6
Nsg23
S'LDR'
p436
sg25
S'0xffffffc0007b1bc0L'
p437
sg27
Nsba(ibclass
BInstr
p438
(dp439
g2
Nsg17
S'LDP             X29, X30, [SP+0x10+var_10],#0x20'
p440
sg19
S'fd7bc2a8'
p441
sg21
Vldp x29, x30, [sp], #0x20
p442
sg5
L18446743798839712708L
sg6
Nsg23
S'LDP'
p443
sg25
S'0xffffffc0007b1bc4L'
p444
sg27
Nsba(ibclass
BInstr
p445
(dp446
g2
Nsg17
S'RET'
p447
sg19
S'c0035fd6'
p448
sg21
Vret 
p449
sg5
L18446743798839712712L
sg6
Nsg23
S'RET'
p450
sg25
S'0xffffffc0007b1bc8L'
p451
sg27
Nsbasg56
(lp452
S'MOV reg, reg9'
p453
aS'LDR reg9, mem'
p454
aS'LDP reg9, reg0, mem,#0x20'
p455
ag447
asg63
Nsg5
S'0xffffffc0007b1bbcL'
p456
sg65
(lp457
S'0xffffffc0007b1b40L'
p458
aS'0xffffffc0007b1b54L'
p459
aS'0xffffffc0007b1b6cL'
p460
aS'0xffffffc0007b1bb8L'
p461
asg6
Nsg67
(lp462
sg71
Nsg72
Nsg73
S'700b6007ea89efb2d19f65eecdfbdc66'
p463
sg75
S'2540ec61573c55ff75133ef1ef4cbd07'
p464
sg77
(lp465
g429
ag436
ag443
ag450
asg79
Nsbasb.