(ibclass
BFunc
p0
(dp1
S'hash'
p2
NsS'name'
p3
S'msm_dcvs_init'
p4
sS'start_address'
p5
L18446743798839820384L
sS'flag'
p6
NsS'program'
p7
NsS'bbs'
p8
(lp9
(ibclass
BBasicBlock
p10
(dp11
S'function'
p12
NsS'binstrs'
p13
(lp14
(ibclass
BInstr
p15
(dp16
g2
NsS'disasm'
p17
S'STP             X29, X30, [SP,#-0x10+var_10]!'
p18
sS'bytes'
p19
S'fd7bbea9'
p20
sS'disasm_striped'
p21
Vstp x29, x30, [sp, #-0x20]!
p22
sg5
L18446743798839820384L
sg6
NsS'mnem'
p23
S'STP'
p24
sS'address'
p25
S'0xffffffc0007cc060L'
p26
sS'basicblock'
p27
Nsba(ibclass
BInstr
p28
(dp29
g2
Nsg17
S'MOV             X29, SP'
p30
sg19
S'fd030091'
p31
sg21
Vmov x29, sp
p32
sg5
L18446743798839820388L
sg6
Nsg23
S'MOV'
p33
sg25
S'0xffffffc0007cc064L'
p34
sg27
Nsba(ibclass
BInstr
p35
(dp36
g2
Nsg17
S'STP             X19, X20, [SP,#0x10+var_s0]'
p37
sg19
S'f35301a9'
p38
sg21
Vstp x19, x20, [sp, #0x10]
p39
sg5
L18446743798839820392L
sg6
Nsg23
S'STP'
p40
sg25
S'0xffffffc0007cc068L'
p41
sg27
Nsba(ibclass
BInstr
p42
(dp43
g2
Nsg17
S'MOV             X19, X0'
p44
sg19
S'f30300aa'
p45
sg21
Vmov x19, x0
p46
sg5
L18446743798839820396L
sg6
Nsg23
S'MOV'
p47
sg25
S'0xffffffc0007cc06cL'
p48
sg27
Nsba(ibclass
BInstr
p49
(dp50
g2
Nsg17
S'ADRP            X0, #qword_FFFFFFC000E4A8A0@PAGE'
p51
sg19
S'e03300d0'
p52
sg21
Vadrp x0, #0x67e000
p53
sg5
L18446743798839820400L
sg6
Nsg23
S'ADRP'
p54
sg25
S'0xffffffc0007cc070L'
p55
sg27
Nsba(ibclass
BInstr
p56
(dp57
g2
Nsg17
S'LDR             X1, [X0,#qword_FFFFFFC000E4A8A0@PAGEOFF]'
p58
sg19
S'015044f9'
p59
sg21
Vldr x1, [x0, #0x8a0]
p60
sg5
L18446743798839820404L
sg6
Nsg23
S'LDR'
p61
sg25
S'0xffffffc0007cc074L'
p62
sg27
Nsba(ibclass
BInstr
p63
(dp64
g2
Nsg17
S'MOV             X20, X0'
p65
sg19
S'f40300aa'
p66
sg21
Vmov x20, x0
p67
sg5
L18446743798839820408L
sg6
Nsg23
S'MOV'
p68
sg25
S'0xffffffc0007cc078L'
p69
sg27
Nsba(ibclass
BInstr
p70
(dp71
g2
Nsg17
S'LDR             W1, [X1]'
p72
sg19
S'210040b9'
p73
sg21
Vldr w1, [x1]
p74
sg5
L18446743798839820412L
sg6
Nsg23
S'LDR'
p75
sg25
S'0xffffffc0007cc07cL'
p76
sg27
Nsba(ibclass
BInstr
p77
(dp78
g2
Nsg17
S'TBZ             W1, #3, loc_FFFFFFC0007CC0A8'
p79
sg19
S'41011836'
p80
sg21
Vtbz w1, #3, #0x28
p81
sg5
L18446743798839820416L
sg6
Nsg23
S'TBZ'
p82
sg25
S'0xffffffc0007cc080L'
p83
sg27
NsbasS'disasm_list'
p84
(lp85
S'STP reg9, reg0, mem!'
p86
aS'MOV reg9, SP'
p87
aS'STP reg9, reg0, mem'
p88
aS'MOV reg9, reg'
p89
aS'ADRP reg, #func@PAGE'
p90
aS'LDR reg, mem'
p91
aS'MOV reg0, reg'
p92
aS'LDR reg, mem'
p93
aS'TBZ reg, #3, func'
p94
asS'end_address'
p95
Nsg5
S'0xffffffc0007cc060L'
p96
sS'preds'
p97
(lp98
sg6
NsS'succs'
p99
(lp100
S'0xffffffc0007cc084L'
p101
aS'0xffffffc0007cc0a8L'
p102
asS'hash_v3'
p103
NsS'flag_v2'
p104
NsS'hash_v1'
p105
S'c134db2b6b036f4c8ce47ab57f551e99'
p106
sS'hash_v2'
p107
S'5f3b8a9861cbee413ac5dc4968eab8ad'
p108
sS'mnen_list'
p109
(lp110
g24
ag33
ag40
ag47
ag54
ag61
ag68
ag75
ag82
asS'neighbour_disasm_list'
p111
Nsba(ibclass
BBasicBlock
p112
(dp113
g12
Nsg13
(lp114
(ibclass
BInstr
p115
(dp116
g2
Nsg17
S'ADRP            X0, #qword_FFFFFFC000E48D48@PAGE'
p117
sg19
S'e0330090'
p118
sg21
Vadrp x0, #0x67c000
p119
sg5
L18446743798839820420L
sg6
Nsg23
S'ADRP'
p120
sg25
S'0xffffffc0007cc084L'
p121
sg27
Nsba(ibclass
BInstr
p122
(dp123
g2
Nsg17
S'LDR             X0, [X0,#qword_FFFFFFC000E48D48@PAGEOFF]'
p124
sg19
S'00a446f9'
p125
sg21
Vldr x0, [x0, #0xd48]
p126
sg5
L18446743798839820424L
sg6
Nsg23
S'LDR'
p127
sg25
S'0xffffffc0007cc088L'
p128
sg27
Nsba(ibclass
BInstr
p129
(dp130
g2
Nsg17
S'LDR             W0, [X0]'
p131
sg19
S'000040b9'
p132
sg21
Vldr w0, [x0]
p133
sg5
L18446743798839820428L
sg6
Nsg23
S'LDR'
p134
sg25
S'0xffffffc0007cc08cL'
p135
sg27
Nsba(ibclass
BInstr
p136
(dp137
g2
Nsg17
S'CBNZ            W0, loc_FFFFFFC0007CC0A8'
p138
sg19
S'c0000035'
p139
sg21
Vcbnz w0, #0x18
p140
sg5
L18446743798839820432L
sg6
Nsg23
S'CBNZ'
p141
sg25
S'0xffffffc0007cc090L'
p142
sg27
Nsbasg84
(lp143
S'ADRP reg, #func@PAGE'
p144
aS'LDR reg, mem'
p145
aS'LDR reg, mem'
p146
aS'CBNZ reg, func'
p147
asg95
Nsg5
S'0xffffffc0007cc084L'
p148
sg97
(lp149
S'0xffffffc0007cc060L'
p150
asg6
Nsg99
(lp151
S'0xffffffc0007cc094L'
p152
aS'0xffffffc0007cc0a8L'
p153
asg103
Nsg104
Nsg105
S'9c97521b8b0f280d47a50ec9a5e4f86f'
p154
sg107
S'bd26f8893557dc5fa132ff2490be0ebf'
p155
sg109
(lp156
g120
ag127
ag134
ag141
asg111
Nsba(ibclass
BBasicBlock
p157
(dp158
g12
Nsg13
(lp159
(ibclass
BInstr
p160
(dp161
g2
Nsg17
S'ADRP            X0, #unk_FFFFFFC0013C3EB7@PAGE'
p162
sg19
S'a05f00f0'
p163
sg21
Vadrp x0, #0xbf7000
p164
sg5
L18446743798839820436L
sg6
Nsg23
S'ADRP'
p165
sg25
S'0xffffffc0007cc094L'
p166
sg27
Nsba(ibclass
BInstr
p167
(dp168
g2
Nsg17
S'ADRP            X1, #(aRulesDbg+6)@PAGE; "dbg"'
p169
sg19
S'816600b0'
p170
sg21
Vadrp x1, #0xcd1000
p171
sg5
L18446743798839820440L
sg6
Nsg23
S'ADRP'
p172
sg25
S'0xffffffc0007cc098L'
p173
sg27
Nsba(ibclass
BInstr
p174
(dp175
g2
Nsg17
S'ADD             X0, X0, #unk_FFFFFFC0013C3EB7@PAGEOFF'
p176
sg19
S'00dc3a91'
p177
sg21
Vadd x0, x0, #0xeb7
p178
sg5
L18446743798839820444L
sg6
Nsg23
S'ADD'
p179
sg25
S'0xffffffc0007cc09cL'
p180
sg27
Nsba(ibclass
BInstr
p181
(dp182
g2
Nsg17
S'ADD             X1, X1, #(aRulesDbg+6)@PAGEOFF; "dbg"'
p183
sg19
S'21e01d91'
p184
sg21
Vadd x1, x1, #0x778
p185
sg5
L18446743798839820448L
sg6
Nsg23
S'ADD'
p186
sg25
S'0xffffffc0007cc0a0L'
p187
sg27
Nsba(ibclass
BInstr
p188
(dp189
g2
Nsg17
S'BL              printk'
p190
sg19
S'2f9e1994'
p191
sg21
Vbl #0x6678bc
p192
sg5
L18446743798839820452L
sg6
Nsg23
S'BL'
p193
sg25
S'0xffffffc0007cc0a4L'
p194
sg27
Nsbasg84
(lp195
S'ADRP reg, #func@PAGE'
p196
aS'ADRP reg, #(aRulesDbg+6)@PAGE'
p197
aS'ADD reg, reg, #func@PAGEOFF'
p198
aS'ADD reg, reg, #(aRulesDbg+6)@PAGEOFF'
p199
aS'BL printk'
p200
asg95
Nsg5
S'0xffffffc0007cc094L'
p201
sg97
(lp202
S'0xffffffc0007cc084L'
p203
asg6
Nsg99
(lp204
S'0xffffffc0007cc0a8L'
p205
asg103
Nsg104
Nsg105
S'4bb3c333f0963e9d264d92b454a1960d'
p206
sg107
S'36534e33ccd44d7ab83b7abd909d3dd4'
p207
sg109
(lp208
g165
ag172
ag179
ag186
ag193
asg111
Nsba(ibclass
BBasicBlock
p209
(dp210
g12
Nsg13
(lp211
(ibclass
BInstr
p212
(dp213
g2
Nsg17
S'CBNZ            X19, loc_FFFFFFC0007CC0F0'
p214
sg19
S'530200b5'
p215
sg21
Vcbnz x19, #0x48
p216
sg5
L18446743798839820456L
sg6
Nsg23
S'CBNZ'
p217
sg25
S'0xffffffc0007cc0a8L'
p218
sg27
Nsbasg84
(lp219
S'CBNZ reg9, func'
p220
asg95
Nsg5
S'0xffffffc0007cc0a8L'
p221
sg97
(lp222
S'0xffffffc0007cc060L'
p223
aS'0xffffffc0007cc084L'
p224
aS'0xffffffc0007cc094L'
p225
asg6
Nsg99
(lp226
S'0xffffffc0007cc0acL'
p227
aS'0xffffffc0007cc0f0L'
p228
asg103
Nsg104
Nsg105
S'482b7d814ad85789cad59d80ecb8562a'
p229
sg107
S'dff4e8ccf28b27112458638fe68a8d09'
p230
sg109
(lp231
g217
asg111
Nsba(ibclass
BBasicBlock
p232
(dp233
g12
Nsg13
(lp234
(ibclass
BInstr
p235
(dp236
g2
Nsg17
S'LDR             X20, [X20,#(qword_FFFFFFC000E4A8A0 - 0xFFFFFFC000E4A000)]'
p237
sg19
S'945244f9'
p238
sg21
Vldr x20, [x20, #0x8a0]
p239
sg5
L18446743798839820460L
sg6
Nsg23
S'LDR'
p240
sg25
S'0xffffffc0007cc0acL'
p241
sg27
Nsba(ibclass
BInstr
p242
(dp243
g2
Nsg17
S'LDR             W0, [X20]'
p244
sg19
S'800240b9'
p245
sg21
Vldr w0, [x20]
p246
sg5
L18446743798839820464L
sg6
Nsg23
S'LDR'
p247
sg25
S'0xffffffc0007cc0b0L'
p248
sg27
Nsba(ibclass
BInstr
p249
(dp250
g2
Nsg17
S'TBZ             W0, #0, loc_FFFFFFC0007CC110'
p251
sg19
S'e0020036'
p252
sg21
Vtbz w0, #0, #0x5c
p253
sg5
L18446743798839820468L
sg6
Nsg23
S'TBZ'
p254
sg25
S'0xffffffc0007cc0b4L'
p255
sg27
Nsbasg84
(lp256
S'LDR reg0, mem'
p257
aS'LDR reg, mem'
p258
aS'TBZ reg, #0, func'
p259
asg95
Nsg5
S'0xffffffc0007cc0acL'
p260
sg97
(lp261
S'0xffffffc0007cc0a8L'
p262
asg6
Nsg99
(lp263
S'0xffffffc0007cc0b8L'
p264
aS'0xffffffc0007cc110L'
p265
asg103
Nsg104
Nsg105
S'ac18b97d3a767be1a0530f85211830b6'
p266
sg107
S'93c1a212b0a698bfeb344fc2b7235976'
p267
sg109
(lp268
g240
ag247
ag254
asg111
Nsba(ibclass
BBasicBlock
p269
(dp270
g12
Nsg13
(lp271
(ibclass
BInstr
p272
(dp273
g2
Nsg17
S'ADRP            X0, #qword_FFFFFFC000E48D48@PAGE'
p274
sg19
S'e0330090'
p275
sg21
Vadrp x0, #0x67c000
p276
sg5
L18446743798839820472L
sg6
Nsg23
S'ADRP'
p277
sg25
S'0xffffffc0007cc0b8L'
p278
sg27
Nsba(ibclass
BInstr
p279
(dp280
g2
Nsg17
S'LDR             X0, [X0,#qword_FFFFFFC000E48D48@PAGEOFF]'
p281
sg19
S'00a446f9'
p282
sg21
Vldr x0, [x0, #0xd48]
p283
sg5
L18446743798839820476L
sg6
Nsg23
S'LDR'
p284
sg25
S'0xffffffc0007cc0bcL'
p285
sg27
Nsba(ibclass
BInstr
p286
(dp287
g2
Nsg17
S'LDR             W0, [X0]'
p288
sg19
S'000040b9'
p289
sg21
Vldr w0, [x0]
p290
sg5
L18446743798839820480L
sg6
Nsg23
S'LDR'
p291
sg25
S'0xffffffc0007cc0c0L'
p292
sg27
Nsba(ibclass
BInstr
p293
(dp294
g2
Nsg17
S'CBNZ            W0, loc_FFFFFFC0007CC110'
p295
sg19
S'60020035'
p296
sg21
Vcbnz w0, #0x4c
p297
sg5
L18446743798839820484L
sg6
Nsg23
S'CBNZ'
p298
sg25
S'0xffffffc0007cc0c4L'
p299
sg27
Nsbasg84
(lp300
S'ADRP reg, #func@PAGE'
p301
aS'LDR reg, mem'
p302
aS'LDR reg, mem'
p303
aS'CBNZ reg, func'
p304
asg95
Nsg5
S'0xffffffc0007cc0b8L'
p305
sg97
(lp306
S'0xffffffc0007cc0acL'
p307
asg6
Nsg99
(lp308
S'0xffffffc0007cc0c8L'
p309
aS'0xffffffc0007cc110L'
p310
asg103
Nsg104
Nsg105
S'9c97521b8b0f280d47a50ec9a5e4f86f'
p311
sg107
S'bd26f8893557dc5fa132ff2490be0ebf'
p312
sg109
(lp313
g277
ag284
ag291
ag298
asg111
Nsba(ibclass
BBasicBlock
p314
(dp315
g12
Nsg13
(lp316
(ibclass
BInstr
p317
(dp318
g2
Nsg17
S'ADRP            X2, #__func__.29656_0@PAGE; "msm_dcvs_init_load"'
p319
sg19
S'e24300d0'
p320
sg21
Vadrp x2, #0x87e000
p321
sg5
L18446743798839820488L
sg6
Nsg23
S'ADRP'
p322
sg25
S'0xffffffc0007cc0c8L'
p323
sg27
Nsba(ibclass
BInstr
p324
(dp325
g2
Nsg17
S'ADRP            X0, #unk_FFFFFFC0013B6580@PAGE'
p326
sg19
S'405f00d0'
p327
sg21
Vadrp x0, #0xbea000
p328
sg5
L18446743798839820492L
sg6
Nsg23
S'ADRP'
p329
sg25
S'0xffffffc0007cc0ccL'
p330
sg27
Nsba(ibclass
BInstr
p331
(dp332
g2
Nsg17
S'ADRP            X1, #(aQcomMdssDsi_17+0x1B)@PAGE; "err"'
p333
sg19
S'015b00f0'
p334
sg21
Vadrp x1, #0xb63000
p335
sg5
L18446743798839820496L
sg6
Nsg23
S'ADRP'
p336
sg25
S'0xffffffc0007cc0d0L'
p337
sg27
Nsba(ibclass
BInstr
p338
(dp339
g2
Nsg17
S'ADD             X2, X2, #__func__.29656_0@PAGEOFF; "msm_dcvs_init_load"'
p340
sg19
S'42c03f91'
p341
sg21
Vadd x2, x2, #0xff0
p342
sg5
L18446743798839820500L
sg6
Nsg23
S'ADD'
p343
sg25
S'0xffffffc0007cc0d4L'
p344
sg27
Nsba(ibclass
BInstr
p345
(dp346
g2
Nsg17
S'ADD             X1, X1, #(aQcomMdssDsi_17+0x1B)@PAGEOFF; "err"'
p347
sg19
S'21801291'
p348
sg21
Vadd x1, x1, #0x4a0
p349
sg5
L18446743798839820504L
sg6
Nsg23
S'ADD'
p350
sg25
S'0xffffffc0007cc0d8L'
p351
sg27
Nsba(ibclass
BInstr
p352
(dp353
g2
Nsg17
S'ADD             X2, X2, #0x18'
p354
sg19
S'42600091'
p355
sg21
Vadd x2, x2, #0x18
p356
sg5
L18446743798839820508L
sg6
Nsg23
S'ADD'
p357
sg25
S'0xffffffc0007cc0dcL'
p358
sg27
Nsba(ibclass
BInstr
p359
(dp360
g2
Nsg17
S'MOV             X3, X19'
p361
sg19
S'e30313aa'
p362
sg21
Vmov x3, x19
p363
sg5
L18446743798839820512L
sg6
Nsg23
S'MOV'
p364
sg25
S'0xffffffc0007cc0e0L'
p365
sg27
Nsba(ibclass
BInstr
p366
(dp367
g2
Nsg17
S'ADD             X0, X0, #unk_FFFFFFC0013B6580@PAGEOFF'
p368
sg19
S'00001691'
p369
sg21
Vadd x0, x0, #0x580
p370
sg5
L18446743798839820516L
sg6
Nsg23
S'ADD'
p371
sg25
S'0xffffffc0007cc0e4L'
p372
sg27
Nsba(ibclass
BInstr
p373
(dp374
g2
Nsg17
S'BL              printk'
p375
sg19
S'1e9e1994'
p376
sg21
Vbl #0x667878
p377
sg5
L18446743798839820520L
sg6
Nsg23
S'BL'
p378
sg25
S'0xffffffc0007cc0e8L'
p379
sg27
Nsba(ibclass
BInstr
p380
(dp381
g2
Nsg17
S'B               loc_FFFFFFC0007CC110'
p382
sg19
S'09000014'
p383
sg21
Vb #0x24
p384
sg5
L18446743798839820524L
sg6
Nsg23
S'B'
p385
sg25
S'0xffffffc0007cc0ecL'
p386
sg27
Nsbasg84
(lp387
S'ADRP reg, #__func__.29656_0@PAGE'
p388
aS'ADRP reg, #func@PAGE'
p389
aS'ADRP reg, #(aQcomMdssDsi_17+0x1B)@PAGE'
p390
aS'ADD reg, reg, #__func__.29656_0@PAGEOFF'
p391
aS'ADD reg, reg, #(aQcomMdssDsi_17+0x1B)@PAGEOFF'
p392
aS'ADD reg, reg, #0x18'
p393
aS'MOV reg, reg9'
p394
aS'ADD reg, reg, #func@PAGEOFF'
p395
aS'BL printk'
p396
aS'B func'
p397
asg95
Nsg5
S'0xffffffc0007cc0c8L'
p398
sg97
(lp399
S'0xffffffc0007cc0b8L'
p400
asg6
Nsg99
(lp401
S'0xffffffc0007cc110L'
p402
asg103
Nsg104
Nsg105
S'7e3e61d7f8547903d75fbbc718c41713'
p403
sg107
S'89e206c9d5435732788f7481d2500598'
p404
sg109
(lp405
g322
ag329
ag336
ag343
ag350
ag357
ag364
ag371
ag378
ag385
asg111
Nsba(ibclass
BBasicBlock
p406
(dp407
g12
Nsg13
(lp408
(ibclass
BInstr
p409
(dp410
g2
Nsg17
S'ADD             X0, X19, #0xEEC'
p411
sg19
S'60b23b91'
p412
sg21
Vadd x0, x19, #0xeec
p413
sg5
L18446743798839820528L
sg6
Nsg23
S'ADD'
p414
sg25
S'0xffffffc0007cc0f0L'
p415
sg27
Nsba(ibclass
BInstr
p416
(dp417
g2
Nsg17
S'MOV             W1, #0'
p418
sg19
S'01008052'
p419
sg21
Vmovz w1, #0
p420
sg5
L18446743798839820532L
sg6
Nsg23
S'MOV'
p421
sg25
S'0xffffffc0007cc0f4L'
p422
sg27
Nsba(ibclass
BInstr
p423
(dp424
g2
Nsg17
S'MOV             X2, #0xB8'
p425
sg19
S'021780d2'
p426
sg21
Vmovz x2, #0xb8
p427
sg5
L18446743798839820536L
sg6
Nsg23
S'MOV'
p428
sg25
S'0xffffffc0007cc0f8L'
p429
sg27
Nsba(ibclass
BInstr
p430
(dp431
g2
Nsg17
S'BL              memset'
p432
sg19
S'c15cf197'
p433
sg21
Vbl #0xffffffffffc57304
p434
sg5
L18446743798839820540L
sg6
Nsg23
S'BL'
p435
sg25
S'0xffffffc0007cc0fcL'
p436
sg27
Nsba(ibclass
BInstr
p437
(dp438
g2
Nsg17
S'MOV             W0, #8'
p439
sg19
S'00018052'
p440
sg21
Vmovz w0, #0x8
p441
sg5
L18446743798839820544L
sg6
Nsg23
S'MOV'
p442
sg25
S'0xffffffc0007cc100L'
p443
sg27
Nsba(ibclass
BInstr
p444
(dp445
g2
Nsg17
S'STR             W0, [X19,#0xF7C]'
p446
sg19
S'607e0fb9'
p447
sg21
Vstr w0, [x19, #0xf7c]
p448
sg5
L18446743798839820548L
sg6
Nsg23
S'STR'
p449
sg25
S'0xffffffc0007cc104L'
p450
sg27
Nsba(ibclass
BInstr
p451
(dp452
g2
Nsg17
S'MOV             W0, #4'
p453
sg19
S'80008052'
p454
sg21
Vmovz w0, #0x4
p455
sg5
L18446743798839820552L
sg6
Nsg23
S'MOV'
p456
sg25
S'0xffffffc0007cc108L'
p457
sg27
Nsba(ibclass
BInstr
p458
(dp459
g2
Nsg17
S'STR             W0, [X19,#0xF80]'
p460
sg19
S'60820fb9'
p461
sg21
Vstr w0, [x19, #0xf80]
p462
sg5
L18446743798839820556L
sg6
Nsg23
S'STR'
p463
sg25
S'0xffffffc0007cc10cL'
p464
sg27
Nsbasg84
(lp465
S'ADD reg, reg9, #0xEEC'
p466
aS'MOV reg, #0'
p467
aS'MOV reg, #0xB8'
p468
aS'BL memset'
p469
aS'MOV reg, #8'
p470
aS'STR reg, mem'
p471
aS'MOV reg, #4'
p472
aS'STR reg, mem'
p473
asg95
Nsg5
S'0xffffffc0007cc0f0L'
p474
sg97
(lp475
S'0xffffffc0007cc0a8L'
p476
asg6
Nsg99
(lp477
S'0xffffffc0007cc110L'
p478
asg103
Nsg104
Nsg105
S'781805f92e9f23c44677a89b47473ca7'
p479
sg107
S'22a6fb9ef933fcb323b923ea8639286c'
p480
sg109
(lp481
g414
ag421
ag428
ag435
ag442
ag449
ag456
ag463
asg111
Nsba(ibclass
BBasicBlock
p482
(dp483
g12
Nsg13
(lp484
(ibclass
BInstr
p485
(dp486
g2
Nsg17
S'LDP             X19, X20, [SP,#0x10+var_s0]'
p487
sg19
S'f35341a9'
p488
sg21
Vldp x19, x20, [sp, #0x10]
p489
sg5
L18446743798839820560L
sg6
Nsg23
S'LDP'
p490
sg25
S'0xffffffc0007cc110L'
p491
sg27
Nsba(ibclass
BInstr
p492
(dp493
g2
Nsg17
S'LDP             X29, X30, [SP+0x10+var_10],#0x20'
p494
sg19
S'fd7bc2a8'
p495
sg21
Vldp x29, x30, [sp], #0x20
p496
sg5
L18446743798839820564L
sg6
Nsg23
S'LDP'
p497
sg25
S'0xffffffc0007cc114L'
p498
sg27
Nsba(ibclass
BInstr
p499
(dp500
g2
Nsg17
S'RET'
p501
sg19
S'c0035fd6'
p502
sg21
Vret 
p503
sg5
L18446743798839820568L
sg6
Nsg23
S'RET'
p504
sg25
S'0xffffffc0007cc118L'
p505
sg27
Nsbasg84
(lp506
S'LDP reg9, reg0, mem'
p507
aS'LDP reg9, reg0, mem,#0x20'
p508
ag501
asg95
Nsg5
S'0xffffffc0007cc110L'
p509
sg97
(lp510
S'0xffffffc0007cc0acL'
p511
aS'0xffffffc0007cc0b8L'
p512
aS'0xffffffc0007cc0c8L'
p513
aS'0xffffffc0007cc0f0L'
p514
asg6
Nsg99
(lp515
sg103
Nsg104
Nsg105
S'0abd6d226edb2f97e9eefc6c1654aa67'
p516
sg107
S'21c2c348812b6301b2220bfc685355ce'
p517
sg109
(lp518
g490
ag497
ag504
asg111
Nsbasb.