(ibclass
BFunc
p0
(dp1
S'hash'
p2
NsS'name'
p3
S'panel_debug_base_offset_read'
p4
sS'start_address'
p5
L18446743798836614908L
sS'flag'
p6
NsS'program'
p7
NsS'bbs'
p8
(lp9
(ibclass
BBasicBlock
p10
(dp11
S'function'
p12
NsS'binstrs'
p13
(lp14
(ibclass
BInstr
p15
(dp16
g2
NsS'disasm'
p17
S'STP             X29, X30, [SP,#-0x10+var_A0]!'
p18
sS'bytes'
p19
S'fd7bb5a9'
p20
sS'disasm_striped'
p21
Vstp x29, x30, [sp, #-0xb0]!
p22
sg5
L18446743798836614908L
sg6
NsS'mnem'
p23
S'STP'
p24
sS'address'
p25
S'0xffffffc0004bd6fcL'
p26
sS'basicblock'
p27
Nsba(ibclass
BInstr
p28
(dp29
g2
Nsg17
S'MOV             X29, SP'
p30
sg19
S'fd030091'
p31
sg21
Vmov x29, sp
p32
sg5
L18446743798836614912L
sg6
Nsg23
S'MOV'
p33
sg25
S'0xffffffc0004bd700L'
p34
sg27
Nsba(ibclass
BInstr
p35
(dp36
g2
Nsg17
S'STP             X21, X22, [SP,#0xA0+var_80]'
p37
sg19
S'f55b02a9'
p38
sg21
Vstp x21, x22, [sp, #0x20]
p39
sg5
L18446743798836614916L
sg6
Nsg23
S'STP'
p40
sg25
S'0xffffffc0004bd704L'
p41
sg27
Nsba(ibclass
BInstr
p42
(dp43
g2
Nsg17
S'STP             X19, X20, [SP,#0xA0+var_90]'
p44
sg19
S'f35301a9'
p45
sg21
Vstp x19, x20, [sp, #0x10]
p46
sg5
L18446743798836614920L
sg6
Nsg23
S'STP'
p47
sg25
S'0xffffffc0004bd708L'
p48
sg27
Nsba(ibclass
BInstr
p49
(dp50
g2
Nsg17
S'LDR             X20, [X0,#0xA8]'
p51
sg19
S'145440f9'
p52
sg21
Vldr x20, [x0, #0xa8]
p53
sg5
L18446743798836614924L
sg6
Nsg23
S'LDR'
p54
sg25
S'0xffffffc0004bd70cL'
p55
sg27
Nsba(ibclass
BInstr
p56
(dp57
g2
Nsg17
S'MOV             X21, X1'
p58
sg19
S'f50301aa'
p59
sg21
Vmov x21, x1
p60
sg5
L18446743798836614928L
sg6
Nsg23
S'MOV'
p61
sg25
S'0xffffffc0004bd710L'
p62
sg27
Nsba(ibclass
BInstr
p63
(dp64
g2
Nsg17
S'MOV             X22, X2'
p65
sg19
S'f60302aa'
p66
sg21
Vmov x22, x2
p67
sg5
L18446743798836614932L
sg6
Nsg23
S'MOV'
p68
sg25
S'0xffffffc0004bd714L'
p69
sg27
Nsba(ibclass
BInstr
p70
(dp71
g2
Nsg17
S'ADD             X0, X29, #0x30'
p72
sg19
S'a0c30091'
p73
sg21
Vadd x0, x29, #0x30
p74
sg5
L18446743798836614936L
sg6
Nsg23
S'ADD'
p75
sg25
S'0xffffffc0004bd718L'
p76
sg27
Nsba(ibclass
BInstr
p77
(dp78
g2
Nsg17
S'MOV             W1, #0'
p79
sg19
S'01008052'
p80
sg21
Vmovz w1, #0
p81
sg5
L18446743798836614940L
sg6
Nsg23
S'MOV'
p82
sg25
S'0xffffffc0004bd71cL'
p83
sg27
Nsba(ibclass
BInstr
p84
(dp85
g2
Nsg17
S'MOV             X2, #0x80'
p86
sg19
S'021080d2'
p87
sg21
Vmovz x2, #0x80
p88
sg5
L18446743798836614944L
sg6
Nsg23
S'MOV'
p89
sg25
S'0xffffffc0004bd720L'
p90
sg27
Nsba(ibclass
BInstr
p91
(dp92
g2
Nsg17
S'MOV             X19, X3'
p93
sg19
S'f30303aa'
p94
sg21
Vmov x19, x3
p95
sg5
L18446743798836614948L
sg6
Nsg23
S'MOV'
p96
sg25
S'0xffffffc0004bd724L'
p97
sg27
Nsba(ibclass
BInstr
p98
(dp99
g2
Nsg17
S'BL              memset'
p100
sg19
S'3697fd97'
p101
sg21
Vbl #0xfffffffffff65cd8
p102
sg5
L18446743798836614952L
sg6
Nsg23
S'BL'
p103
sg25
S'0xffffffc0004bd728L'
p104
sg27
Nsba(ibclass
BInstr
p105
(dp106
g2
Nsg17
S'CBZ             X20, loc_FFFFFFC0004BD7C4'
p107
sg19
S'd40400b4'
p108
sg21
Vcbz x20, #0x98
p109
sg5
L18446743798836614956L
sg6
Nsg23
S'CBZ'
p110
sg25
S'0xffffffc0004bd72cL'
p111
sg27
NsbasS'disasm_list'
p112
(lp113
S'STP reg9, reg0, mem!'
p114
aS'MOV reg9, SP'
p115
aS'STP reg1, reg2, mem'
p116
aS'STP reg9, reg0, mem'
p117
aS'LDR reg0, mem'
p118
aS'MOV reg1, reg'
p119
aS'MOV reg2, reg'
p120
aS'ADD reg, reg9, #0x30'
p121
aS'MOV reg, #0'
p122
aS'MOV reg, #0x80'
p123
aS'MOV reg9, reg'
p124
aS'BL memset'
p125
aS'CBZ reg0, func'
p126
asS'end_address'
p127
Nsg5
S'0xffffffc0004bd6fcL'
p128
sS'preds'
p129
(lp130
sg6
NsS'succs'
p131
(lp132
S'0xffffffc0004bd730L'
p133
aS'0xffffffc0004bd7c4L'
p134
asS'hash_v3'
p135
NsS'flag_v2'
p136
NsS'hash_v1'
p137
S'9c38100b91ac241cff337d2344d8a2c0'
p138
sS'hash_v2'
p139
S'e66a459f740cca73a8bb391e27eae696'
p140
sS'mnen_list'
p141
(lp142
g24
ag33
ag40
ag47
ag54
ag61
ag68
ag75
ag82
ag89
ag96
ag103
ag110
asS'neighbour_disasm_list'
p143
Nsba(ibclass
BBasicBlock
p144
(dp145
g12
Nsg13
(lp146
(ibclass
BInstr
p147
(dp148
g2
Nsg17
S'LDR             X0, [X19]'
p149
sg19
S'600240f9'
p150
sg21
Vldr x0, [x19]
p151
sg5
L18446743798836614960L
sg6
Nsg23
S'LDR'
p152
sg25
S'0xffffffc0004bd730L'
p153
sg27
Nsba(ibclass
BInstr
p154
(dp155
g2
Nsg17
S'CBZ             X0, loc_FFFFFFC0004BD740'
p156
sg19
S'600000b4'
p157
sg21
Vcbz x0, #0xc
p158
sg5
L18446743798836614964L
sg6
Nsg23
S'CBZ'
p159
sg25
S'0xffffffc0004bd734L'
p160
sg27
Nsbasg112
(lp161
S'LDR reg, mem'
p162
aS'CBZ reg, func'
p163
asg127
Nsg5
S'0xffffffc0004bd730L'
p164
sg129
(lp165
S'0xffffffc0004bd6fcL'
p166
asg6
Nsg131
(lp167
S'0xffffffc0004bd738L'
p168
aS'0xffffffc0004bd740L'
p169
asg135
Nsg136
Nsg137
S'a0c488049ab653dbdfa1dc805bb83f13'
p170
sg139
S'33abe016da9abbebb8608f035d51762d'
p171
sg141
(lp172
g152
ag159
asg143
Nsba(ibclass
BBasicBlock
p173
(dp174
g12
Nsg13
(lp175
(ibclass
BInstr
p176
(dp177
g2
Nsg17
S'MOV             X0, #0'
p178
sg19
S'000080d2'
p179
sg21
Vmovz x0, #0
p180
sg5
L18446743798836614968L
sg6
Nsg23
S'MOV'
p181
sg25
S'0xffffffc0004bd738L'
p182
sg27
Nsba(ibclass
BInstr
p183
(dp184
g2
Nsg17
S'B               loc_FFFFFFC0004BD7C8'
p185
sg19
S'23000014'
p186
sg21
Vb #0x8c
p187
sg5
L18446743798836614972L
sg6
Nsg23
S'B'
p188
sg25
S'0xffffffc0004bd73cL'
p189
sg27
Nsbasg112
(lp190
S'MOV reg, #0'
p191
aS'B func'
p192
asg127
Nsg5
S'0xffffffc0004bd738L'
p193
sg129
(lp194
S'0xffffffc0004bd730L'
p195
aS'0xffffffc0004bd740L'
p196
asg6
Nsg131
(lp197
S'0xffffffc0004bd7c8L'
p198
asg135
Nsg136
Nsg137
S'b6c4e95ccfe77a95e4cf2019dd3d5574'
p199
sg139
S'487d2131c9e9084b6289188d6ce03ca3'
p200
sg141
(lp201
g181
ag188
asg143
Nsba(ibclass
BBasicBlock
p202
(dp203
g12
Nsg13
(lp204
(ibclass
BInstr
p205
(dp206
g2
Nsg17
S'ADRP            X2, #a0x02zxZx@PAGE; "0x%02zx %zx\\n"'
p207
sg19
S'627300b0'
p208
sg21
Vadrp x2, #0xe6d000
p209
sg5
L18446743798836614976L
sg6
Nsg23
S'ADRP'
p210
sg25
S'0xffffffc0004bd740L'
p211
sg27
Nsba(ibclass
BInstr
p212
(dp213
g2
Nsg17
S'LDR             X3, [X20,#0x80]'
p214
sg19
S'834240f9'
p215
sg21
Vldr x3, [x20, #0x80]
p216
sg5
L18446743798836614980L
sg6
Nsg23
S'LDR'
p217
sg25
S'0xffffffc0004bd744L'
p218
sg27
Nsba(ibclass
BInstr
p219
(dp220
g2
Nsg17
S'LDR             X4, [X20,#0x88]'
p221
sg19
S'844640f9'
p222
sg21
Vldr x4, [x20, #0x88]
p223
sg5
L18446743798836614984L
sg6
Nsg23
S'LDR'
p224
sg25
S'0xffffffc0004bd748L'
p225
sg27
Nsba(ibclass
BInstr
p226
(dp227
g2
Nsg17
S'ADD             X0, X29, #0x30'
p228
sg19
S'a0c30091'
p229
sg21
Vadd x0, x29, #0x30
p230
sg5
L18446743798836614988L
sg6
Nsg23
S'ADD'
p231
sg25
S'0xffffffc0004bd74cL'
p232
sg27
Nsba(ibclass
BInstr
p233
(dp234
g2
Nsg17
S'MOV             X1, #0x80'
p235
sg19
S'011080d2'
p236
sg21
Vmovz x1, #0x80
p237
sg5
L18446743798836614992L
sg6
Nsg23
S'MOV'
p238
sg25
S'0xffffffc0004bd750L'
p239
sg27
Nsba(ibclass
BInstr
p240
(dp241
g2
Nsg17
S'ADD             X2, X2, #a0x02zxZx@PAGEOFF; "0x%02zx %zx\\n"'
p242
sg19
S'42983b91'
p243
sg21
Vadd x2, x2, #0xee6
p244
sg5
L18446743798836614996L
sg6
Nsg23
S'ADD'
p245
sg25
S'0xffffffc0004bd754L'
p246
sg27
Nsba(ibclass
BInstr
p247
(dp248
g2
Nsg17
S'BL              snprintf'
p249
sg19
S'a6c2fd97'
p250
sg21
Vbl #0xfffffffffff70a98
p251
sg5
L18446743798836615000L
sg6
Nsg23
S'BL'
p252
sg25
S'0xffffffc0004bd758L'
p253
sg27
Nsba(ibclass
BInstr
p254
(dp255
g2
Nsg17
S'CMP             W0, #0x7F'
p256
sg19
S'1ffc0171'
p257
sg21
Vcmp w0, #0x7f
p258
sg5
L18446743798836615004L
sg6
Nsg23
S'CMP'
p259
sg25
S'0xffffffc0004bd75cL'
p260
sg27
Nsba(ibclass
BInstr
p261
(dp262
g2
Nsg17
S'B.HI            loc_FFFFFFC0004BD738'
p263
sg19
S'c8feff54'
p264
sg21
Vb.hi #0xffffffffffffffd8
p265
sg5
L18446743798836615008L
sg6
Nsg23
g188
sg25
S'0xffffffc0004bd760L'
p266
sg27
Nsbasg112
(lp267
S'ADRP reg, #a0x02zxZx@PAGE'
p268
aS'LDR reg, mem'
p269
aS'LDR reg, mem'
p270
aS'ADD reg, reg9, #0x30'
p271
aS'MOV reg, #0x80'
p272
aS'ADD reg, reg, #a0x02zxZx@PAGEOFF'
p273
aS'BL snprintf'
p274
aS'CMP reg, #0x7F'
p275
aS'B.HI func'
p276
asg127
Nsg5
S'0xffffffc0004bd740L'
p277
sg129
(lp278
S'0xffffffc0004bd730L'
p279
asg6
Nsg131
(lp280
S'0xffffffc0004bd738L'
p281
aS'0xffffffc0004bd764L'
p282
asg135
Nsg136
Nsg137
S'bd504b71c53061c7c1e5674533bb7939'
p283
sg139
S'1d8faec366f065d5b215bdf9d1c0ea0b'
p284
sg141
(lp285
g210
ag217
ag224
ag231
ag238
ag245
ag252
ag259
ag188
asg143
Nsba(ibclass
BBasicBlock
p286
(dp287
g12
Nsg13
(lp288
(ibclass
BInstr
p289
(dp290
g2
Nsg17
S'CMP             X22, #0x7F'
p291
sg19
S'dffe01f1'
p292
sg21
Vcmp x22, #0x7f
p293
sg5
L18446743798836615012L
sg6
Nsg23
S'CMP'
p294
sg25
S'0xffffffc0004bd764L'
p295
sg27
Nsba(ibclass
BInstr
p296
(dp297
g2
Nsg17
S'B.HI            loc_FFFFFFC0004BD774'
p298
sg19
S'68000054'
p299
sg21
Vb.hi #0xc
p300
sg5
L18446743798836615016L
sg6
Nsg23
g188
sg25
S'0xffffffc0004bd768L'
p301
sg27
Nsbasg112
(lp302
S'CMP reg2, #0x7F'
p303
aS'B.HI func'
p304
asg127
Nsg5
S'0xffffffc0004bd764L'
p305
sg129
(lp306
S'0xffffffc0004bd740L'
p307
asg6
Nsg131
(lp308
S'0xffffffc0004bd76cL'
p309
aS'0xffffffc0004bd774L'
p310
asg135
Nsg136
Nsg137
S'c78fd620a449e3c979d3f3ec12d4ee88'
p311
sg139
S'e34693a916ac93b52f5cdf6fa512da7b'
p312
sg141
(lp313
g294
ag188
asg143
Nsba(ibclass
BBasicBlock
p314
(dp315
g12
Nsg13
(lp316
(ibclass
BInstr
p317
(dp318
g2
Nsg17
S'MOV             X0, #0xFFFFFFFFFFFFFFF2'
p319
sg19
S'a0018092'
p320
sg21
Vmovn x0, #0xd
p321
sg5
L18446743798836615020L
sg6
Nsg23
S'MOV'
p322
sg25
S'0xffffffc0004bd76cL'
p323
sg27
Nsba(ibclass
BInstr
p324
(dp325
g2
Nsg17
S'B               loc_FFFFFFC0004BD7C8'
p326
sg19
S'16000014'
p327
sg21
Vb #0x58
p328
sg5
L18446743798836615024L
sg6
Nsg23
g188
sg25
S'0xffffffc0004bd770L'
p329
sg27
Nsbasg112
(lp330
S'MOV reg, #0xFFFFFFFFFFFFFFF2'
p331
aS'B func'
p332
asg127
Nsg5
S'0xffffffc0004bd76cL'
p333
sg129
(lp334
S'0xffffffc0004bd764L'
p335
aS'0xffffffc0004bd7acL'
p336
asg6
Nsg131
(lp337
S'0xffffffc0004bd7c8L'
p338
asg135
Nsg136
Nsg137
S'b6c4e95ccfe77a95e4cf2019dd3d5574'
p339
sg139
S'de5cd3634b99fc7484a5299a0e06a6dc'
p340
sg141
(lp341
g322
ag188
asg143
Nsba(ibclass
BBasicBlock
p342
(dp343
g12
Nsg13
(lp344
(ibclass
BInstr
p345
(dp346
g2
Nsg17
S'MOV             X1, SP'
p347
sg19
S'e1030091'
p348
sg21
Vmov x1, sp
p349
sg5
L18446743798836615028L
sg6
Nsg23
S'MOV'
p350
sg25
S'0xffffffc0004bd774L'
p351
sg27
Nsba(ibclass
BInstr
p352
(dp353
g2
Nsg17
S'SBFM            X2, X0, #0, #0x1F'
p354
sg19
S'027c4093'
p355
sg21
Vsxtw x2, w0
p356
sg5
L18446743798836615032L
sg6
Nsg23
S'SBFM'
p357
sg25
S'0xffffffc0004bd778L'
p358
sg27
Nsba(ibclass
BInstr
p359
(dp360
g2
Nsg17
S'AND             X0, X1, #0xFFFFFFFFFFFFC000'
p361
sg19
S'20c47292'
p362
sg21
Vand x0, x1, #0xffffffffffffc000
p363
sg5
L18446743798836615036L
sg6
Nsg23
S'AND'
p364
sg25
S'0xffffffc0004bd77cL'
p365
sg27
Nsba(ibclass
BInstr
p366
(dp367
g2
Nsg17
S'LDR             X0, [X0,#8]'
p368
sg19
S'000440f9'
p369
sg21
Vldr x0, [x0, #8]
p370
sg5
L18446743798836615040L
sg6
Nsg23
S'LDR'
p371
sg25
S'0xffffffc0004bd780L'
p372
sg27
Nsba(ibclass
BInstr
p373
(dp374
g2
Nsg17
S'MOV             X3, X21'
p375
sg19
S'e30315aa'
p376
sg21
Vmov x3, x21
p377
sg5
L18446743798836615044L
sg6
Nsg23
S'MOV'
p378
sg25
S'0xffffffc0004bd784L'
p379
sg27
Nsba(ibclass
BInstr
p380
(dp381
g2
Nsg17
S'MOV             X20, X2'
p382
sg19
S'f40302aa'
p383
sg21
Vmov x20, x2
p384
sg5
L18446743798836615048L
sg6
Nsg23
S'MOV'
p385
sg25
S'0xffffffc0004bd788L'
p386
sg27
Nsba(ibclass
BInstr
p387
(dp388
g2
Nsg17
S'ADDS            X3, X3, X2'
p389
sg19
S'630002ab'
p390
sg21
Vadds x3, x3, x2
p391
sg5
L18446743798836615052L
sg6
Nsg23
S'ADD'
p392
sg25
S'0xffffffc0004bd78cL'
p393
sg27
Nsba(ibclass
BInstr
p394
(dp395
g2
Nsg17
S'CCMP            X3, X0, #2, CC'
p396
sg19
S'623040fa'
p397
sg21
Vccmp x3, x0, #2, lo
p398
sg5
L18446743798836615056L
sg6
Nsg23
S'CCMP'
p399
sg25
S'0xffffffc0004bd790L'
p400
sg27
Nsba(ibclass
BInstr
p401
(dp402
g2
Nsg17
S'CSET            X1, LS'
p403
sg19
S'e1879f9a'
p404
sg21
Vcset x1, ls
p405
sg5
L18446743798836615060L
sg6
Nsg23
S'CSET'
p406
sg25
S'0xffffffc0004bd794L'
p407
sg27
Nsba(ibclass
BInstr
p408
(dp409
g2
Nsg17
S'CBZ             X1, loc_FFFFFFC0004BD7AC'
p410
sg19
S'a10000b4'
p411
sg21
Vcbz x1, #0x14
p412
sg5
L18446743798836615064L
sg6
Nsg23
S'CBZ'
p413
sg25
S'0xffffffc0004bd798L'
p414
sg27
Nsbasg112
(lp415
S'MOV reg, SP'
p416
aS'SBFM reg, reg, #0, #0x1F'
p417
aS'AND reg, reg, #0xFFFFFFFFFFFFC000'
p418
aS'LDR reg, mem'
p419
aS'MOV reg, reg1'
p420
aS'MOV reg0, reg'
p421
aS'ADDS reg, reg, reg'
p422
aS'CCMP reg, reg, #2, CC'
p423
aS'CSET reg, LS'
p424
aS'CBZ reg, func'
p425
asg127
Nsg5
S'0xffffffc0004bd774L'
p426
sg129
(lp427
S'0xffffffc0004bd764L'
p428
asg6
Nsg131
(lp429
S'0xffffffc0004bd79cL'
p430
aS'0xffffffc0004bd7acL'
p431
asg135
Nsg136
Nsg137
S'73a899044300e1eb90c5a6ade74cde9f'
p432
sg139
S'f23a2df1e769becbaaa5b09557c62215'
p433
sg141
(lp434
g350
ag357
ag364
ag371
ag378
ag385
ag392
ag399
ag406
ag413
asg143
Nsba(ibclass
BBasicBlock
p435
(dp436
g12
Nsg13
(lp437
(ibclass
BInstr
p438
(dp439
g2
Nsg17
S'MOV             X0, X21'
p440
sg19
S'e00315aa'
p441
sg21
Vmov x0, x21
p442
sg5
L18446743798836615068L
sg6
Nsg23
S'MOV'
p443
sg25
S'0xffffffc0004bd79cL'
p444
sg27
Nsba(ibclass
BInstr
p445
(dp446
g2
Nsg17
S'ADD             X1, X29, #0x30'
p447
sg19
S'a1c30091'
p448
sg21
Vadd x1, x29, #0x30
p449
sg5
L18446743798836615072L
sg6
Nsg23
S'ADD'
p450
sg25
S'0xffffffc0004bd7a0L'
p451
sg27
Nsba(ibclass
BInstr
p452
(dp453
g2
Nsg17
S'BL              __copy_to_user'
p454
sg19
S'8395fd97'
p455
sg21
Vbl #0xfffffffffff6560c
p456
sg5
L18446743798836615076L
sg6
Nsg23
S'BL'
p457
sg25
S'0xffffffc0004bd7a4L'
p458
sg27
Nsba(ibclass
BInstr
p459
(dp460
g2
Nsg17
S'MOV             X2, X0'
p461
sg19
S'e20300aa'
p462
sg21
Vmov x2, x0
p463
sg5
L18446743798836615080L
sg6
Nsg23
S'MOV'
p464
sg25
S'0xffffffc0004bd7a8L'
p465
sg27
Nsbasg112
(lp466
S'MOV reg, reg1'
p467
aS'ADD reg, reg9, #0x30'
p468
aS'BL __copy_to_user'
p469
aS'MOV reg, reg'
p470
asg127
Nsg5
S'0xffffffc0004bd79cL'
p471
sg129
(lp472
S'0xffffffc0004bd774L'
p473
asg6
Nsg131
(lp474
S'0xffffffc0004bd7acL'
p475
asg135
Nsg136
Nsg137
S'2e15ede4c99aeb14d0e9aa2dc7d74315'
p476
sg139
S'd42f49b6ee0c6ba09df0258c9f5417be'
p477
sg141
(lp478
g443
ag450
ag457
ag464
asg143
Nsba(ibclass
BBasicBlock
p479
(dp480
g12
Nsg13
(lp481
(ibclass
BInstr
p482
(dp483
g2
Nsg17
S'CBNZ            X2, loc_FFFFFFC0004BD76C'
p484
sg19
S'02feffb5'
p485
sg21
Vcbnz x2, #0xffffffffffffffc0
p486
sg5
L18446743798836615084L
sg6
Nsg23
S'CBNZ'
p487
sg25
S'0xffffffc0004bd7acL'
p488
sg27
Nsbasg112
(lp489
S'CBNZ reg, func'
p490
asg127
Nsg5
S'0xffffffc0004bd7acL'
p491
sg129
(lp492
S'0xffffffc0004bd774L'
p493
aS'0xffffffc0004bd79cL'
p494
asg6
Nsg131
(lp495
S'0xffffffc0004bd76cL'
p496
aS'0xffffffc0004bd7b0L'
p497
asg135
Nsg136
Nsg137
S'482b7d814ad85789cad59d80ecb8562a'
p498
sg139
S'c81d544e8093e123ef790602aa39a0d0'
p499
sg141
(lp500
g487
asg143
Nsba(ibclass
BBasicBlock
p501
(dp502
g12
Nsg13
(lp503
(ibclass
BInstr
p504
(dp505
g2
Nsg17
S'LDR             X0, [X19]'
p506
sg19
S'600240f9'
p507
sg21
Vldr x0, [x19]
p508
sg5
L18446743798836615088L
sg6
Nsg23
S'LDR'
p509
sg25
S'0xffffffc0004bd7b0L'
p510
sg27
Nsba(ibclass
BInstr
p511
(dp512
g2
Nsg17
S'ADD             X0, X0, X20'
p513
sg19
S'0000148b'
p514
sg21
Vadd x0, x0, x20
p515
sg5
L18446743798836615092L
sg6
Nsg23
S'ADD'
p516
sg25
S'0xffffffc0004bd7b4L'
p517
sg27
Nsba(ibclass
BInstr
p518
(dp519
g2
Nsg17
S'STR             X0, [X19]'
p520
sg19
S'600200f9'
p521
sg21
Vstr x0, [x19]
p522
sg5
L18446743798836615096L
sg6
Nsg23
S'STR'
p523
sg25
S'0xffffffc0004bd7b8L'
p524
sg27
Nsba(ibclass
BInstr
p525
(dp526
g2
Nsg17
S'MOV             X0, X20'
p527
sg19
S'e00314aa'
p528
sg21
Vmov x0, x20
p529
sg5
L18446743798836615100L
sg6
Nsg23
S'MOV'
p530
sg25
S'0xffffffc0004bd7bcL'
p531
sg27
Nsba(ibclass
BInstr
p532
(dp533
g2
Nsg17
S'B               loc_FFFFFFC0004BD7C8'
p534
sg19
S'02000014'
p535
sg21
Vb #8
p536
sg5
L18446743798836615104L
sg6
Nsg23
g188
sg25
S'0xffffffc0004bd7c0L'
p537
sg27
Nsbasg112
(lp538
S'LDR reg, mem'
p539
aS'ADD reg, reg, reg0'
p540
aS'STR reg, mem'
p541
aS'MOV reg, reg0'
p542
aS'B func'
p543
asg127
Nsg5
S'0xffffffc0004bd7b0L'
p544
sg129
(lp545
S'0xffffffc0004bd7acL'
p546
asg6
Nsg131
(lp547
S'0xffffffc0004bd7c8L'
p548
asg135
Nsg136
Nsg137
S'aadcc43cdc2a99d1a6ca4a03b08606d5'
p549
sg139
S'3d341d9960dfc148916d7076f69c2ad2'
p550
sg141
(lp551
g509
ag516
ag523
ag530
ag188
asg143
Nsba(ibclass
BBasicBlock
p552
(dp553
g12
Nsg13
(lp554
(ibclass
BInstr
p555
(dp556
g2
Nsg17
S'MOV             X0, #0xFFFFFFFFFFFFFFED'
p557
sg19
S'40028092'
p558
sg21
Vmovn x0, #0x12
p559
sg5
L18446743798836615108L
sg6
Nsg23
S'MOV'
p560
sg25
S'0xffffffc0004bd7c4L'
p561
sg27
Nsbasg112
(lp562
S'MOV reg, #0xFFFFFFFFFFFFFFED'
p563
asg127
Nsg5
S'0xffffffc0004bd7c4L'
p564
sg129
(lp565
S'0xffffffc0004bd6fcL'
p566
asg6
Nsg131
(lp567
S'0xffffffc0004bd7c8L'
p568
asg135
Nsg136
Nsg137
S'17b32100aef1fc19670be7fd58bc85df'
p569
sg139
S'2787654e588149d0a5179343795e5ed7'
p570
sg141
(lp571
g560
asg143
Nsba(ibclass
BBasicBlock
p572
(dp573
g12
Nsg13
(lp574
(ibclass
BInstr
p575
(dp576
g2
Nsg17
S'LDP             X19, X20, [SP,#0xA0+var_90]'
p577
sg19
S'f35341a9'
p578
sg21
Vldp x19, x20, [sp, #0x10]
p579
sg5
L18446743798836615112L
sg6
Nsg23
S'LDP'
p580
sg25
S'0xffffffc0004bd7c8L'
p581
sg27
Nsba(ibclass
BInstr
p582
(dp583
g2
Nsg17
S'LDP             X21, X22, [SP,#0xA0+var_80]'
p584
sg19
S'f55b42a9'
p585
sg21
Vldp x21, x22, [sp, #0x20]
p586
sg5
L18446743798836615116L
sg6
Nsg23
S'LDP'
p587
sg25
S'0xffffffc0004bd7ccL'
p588
sg27
Nsba(ibclass
BInstr
p589
(dp590
g2
Nsg17
S'LDP             X29, X30, [SP+0xA0+var_A0],#0xB0'
p591
sg19
S'fd7bcba8'
p592
sg21
Vldp x29, x30, [sp], #0xb0
p593
sg5
L18446743798836615120L
sg6
Nsg23
S'LDP'
p594
sg25
S'0xffffffc0004bd7d0L'
p595
sg27
Nsba(ibclass
BInstr
p596
(dp597
g2
Nsg17
S'RET'
p598
sg19
S'c0035fd6'
p599
sg21
Vret 
p600
sg5
L18446743798836615124L
sg6
Nsg23
S'RET'
p601
sg25
S'0xffffffc0004bd7d4L'
p602
sg27
Nsbasg112
(lp603
S'LDP reg9, reg0, mem'
p604
aS'LDP reg1, reg2, mem'
p605
aS'LDP reg9, reg0, mem,#0xB0'
p606
ag598
asg127
Nsg5
S'0xffffffc0004bd7c8L'
p607
sg129
(lp608
S'0xffffffc0004bd738L'
p609
aS'0xffffffc0004bd76cL'
p610
aS'0xffffffc0004bd7b0L'
p611
aS'0xffffffc0004bd7c4L'
p612
asg6
Nsg131
(lp613
sg135
Nsg136
Nsg137
S'e506acdec8f0d1b80ba12a70d6d398f7'
p614
sg139
S'32a175166963893fd20bdb641a6921a8'
p615
sg141
(lp616
g580
ag587
ag594
ag601
asg143
Nsbasb.