(ibclass
BFunc
p0
(dp1
S'hash'
p2
NsS'name'
p3
S'q6_hfi_session_clean'
p4
sS'start_address'
p5
L18446743798839812732L
sS'flag'
p6
NsS'program'
p7
NsS'bbs'
p8
(lp9
(ibclass
BBasicBlock
p10
(dp11
S'function'
p12
NsS'binstrs'
p13
(lp14
(ibclass
BInstr
p15
(dp16
g2
NsS'disasm'
p17
S'STP             X29, X30, [SP,#-0x10+var_10]!'
p18
sS'bytes'
p19
S'fd7bbea9'
p20
sS'disasm_striped'
p21
Vstp x29, x30, [sp, #-0x20]!
p22
sg5
L18446743798839812732L
sg6
NsS'mnem'
p23
S'STP'
p24
sS'address'
p25
S'0xffffffc0007ca27cL'
p26
sS'basicblock'
p27
Nsba(ibclass
BInstr
p28
(dp29
g2
Nsg17
S'MOV             X29, SP'
p30
sg19
S'fd030091'
p31
sg21
Vmov x29, sp
p32
sg5
L18446743798839812736L
sg6
Nsg23
S'MOV'
p33
sg25
S'0xffffffc0007ca280L'
p34
sg27
Nsba(ibclass
BInstr
p35
(dp36
g2
Nsg17
S'STR             X19, [SP,#0x10+var_s0]'
p37
sg19
S'f30b00f9'
p38
sg21
Vstr x19, [sp, #0x10]
p39
sg5
L18446743798839812740L
sg6
Nsg23
S'STR'
p40
sg25
S'0xffffffc0007ca284L'
p41
sg27
Nsba(ibclass
BInstr
p42
(dp43
g2
Nsg17
S'MOV             X19, X0'
p44
sg19
S'f30300aa'
p45
sg21
Vmov x19, x0
p46
sg5
L18446743798839812744L
sg6
Nsg23
S'MOV'
p47
sg25
S'0xffffffc0007ca288L'
p48
sg27
Nsba(ibclass
BInstr
p49
(dp50
g2
Nsg17
S'ADRP            X0, #qword_FFFFFFC000E4A8A0@PAGE'
p51
sg19
S'00340090'
p52
sg21
Vadrp x0, #0x680000
p53
sg5
L18446743798839812748L
sg6
Nsg23
S'ADRP'
p54
sg25
S'0xffffffc0007ca28cL'
p55
sg27
Nsba(ibclass
BInstr
p56
(dp57
g2
Nsg17
S'LDR             X0, [X0,#qword_FFFFFFC000E4A8A0@PAGEOFF]'
p58
sg19
S'005044f9'
p59
sg21
Vldr x0, [x0, #0x8a0]
p60
sg5
L18446743798839812752L
sg6
Nsg23
S'LDR'
p61
sg25
S'0xffffffc0007ca290L'
p62
sg27
Nsba(ibclass
BInstr
p63
(dp64
g2
Nsg17
S'LDR             W0, [X0]'
p65
sg19
S'000040b9'
p66
sg21
Vldr w0, [x0]
p67
sg5
L18446743798839812756L
sg6
Nsg23
S'LDR'
p68
sg25
S'0xffffffc0007ca294L'
p69
sg27
Nsba(ibclass
BInstr
p70
(dp71
g2
Nsg17
S'CBNZ            X19, loc_FFFFFFC0007CA2D8'
p72
sg19
S'130200b5'
p73
sg21
Vcbnz x19, #0x40
p74
sg5
L18446743798839812760L
sg6
Nsg23
S'CBNZ'
p75
sg25
S'0xffffffc0007ca298L'
p76
sg27
NsbasS'disasm_list'
p77
(lp78
S'STP reg9, reg0, mem!'
p79
aS'MOV reg9, SP'
p80
aS'STR reg9, mem'
p81
aS'MOV reg9, reg'
p82
aS'ADRP reg, #func@PAGE'
p83
aS'LDR reg, mem'
p84
aS'LDR reg, mem'
p85
aS'CBNZ reg9, func'
p86
asS'end_address'
p87
Nsg5
S'0xffffffc0007ca27cL'
p88
sS'preds'
p89
(lp90
sg6
NsS'succs'
p91
(lp92
S'0xffffffc0007ca29cL'
p93
aS'0xffffffc0007ca2d8L'
p94
asS'hash_v3'
p95
NsS'flag_v2'
p96
NsS'hash_v1'
p97
S'f4b4b9345cbbcf58d75461fa885cfd9c'
p98
sS'hash_v2'
p99
S'45563e6723ec5730ab7e4be4a20edfd0'
p100
sS'mnen_list'
p101
(lp102
g24
ag33
ag40
ag47
ag54
ag61
ag68
ag75
asS'neighbour_disasm_list'
p103
Nsba(ibclass
BBasicBlock
p104
(dp105
g12
Nsg13
(lp106
(ibclass
BInstr
p107
(dp108
g2
Nsg17
S'TBZ             W0, #0, loc_FFFFFFC0007CA354'
p109
sg19
S'c0050036'
p110
sg21
Vtbz w0, #0, #0xb8
p111
sg5
L18446743798839812764L
sg6
Nsg23
S'TBZ'
p112
sg25
S'0xffffffc0007ca29cL'
p113
sg27
Nsbasg77
(lp114
S'TBZ reg, #0, func'
p115
asg87
Nsg5
S'0xffffffc0007ca29cL'
p116
sg89
(lp117
S'0xffffffc0007ca27cL'
p118
asg6
Nsg91
(lp119
S'0xffffffc0007ca2a0L'
p120
aS'0xffffffc0007ca354L'
p121
asg95
Nsg96
Nsg97
S'b05993cf85beb302c9604086eec65e11'
p122
sg99
S'0cd141f5066b214e11acf4c4fc857c0d'
p123
sg101
(lp124
g112
asg103
Nsba(ibclass
BBasicBlock
p125
(dp126
g12
Nsg13
(lp127
(ibclass
BInstr
p128
(dp129
g2
Nsg17
S'ADRP            X0, #qword_FFFFFFC000E48D48@PAGE'
p130
sg19
S'e03300d0'
p131
sg21
Vadrp x0, #0x67e000
p132
sg5
L18446743798839812768L
sg6
Nsg23
S'ADRP'
p133
sg25
S'0xffffffc0007ca2a0L'
p134
sg27
Nsba(ibclass
BInstr
p135
(dp136
g2
Nsg17
S'LDR             X0, [X0,#qword_FFFFFFC000E48D48@PAGEOFF]'
p137
sg19
S'00a446f9'
p138
sg21
Vldr x0, [x0, #0xd48]
p139
sg5
L18446743798839812772L
sg6
Nsg23
S'LDR'
p140
sg25
S'0xffffffc0007ca2a4L'
p141
sg27
Nsba(ibclass
BInstr
p142
(dp143
g2
Nsg17
S'MOV             W19, #0xFFFFFFEA'
p144
sg19
S'b3028012'
p145
sg21
Vmovn w19, #0x15
p146
sg5
L18446743798839812776L
sg6
Nsg23
S'MOV'
p147
sg25
S'0xffffffc0007ca2a8L'
p148
sg27
Nsba(ibclass
BInstr
p149
(dp150
g2
Nsg17
S'LDR             W0, [X0]'
p151
sg19
S'000040b9'
p152
sg21
Vldr w0, [x0]
p153
sg5
L18446743798839812780L
sg6
Nsg23
S'LDR'
p154
sg25
S'0xffffffc0007ca2acL'
p155
sg27
Nsba(ibclass
BInstr
p156
(dp157
g2
Nsg17
S'CBNZ            W0, loc_FFFFFFC0007CA358'
p158
sg19
S'40050035'
p159
sg21
Vcbnz w0, #0xa8
p160
sg5
L18446743798839812784L
sg6
Nsg23
S'CBNZ'
p161
sg25
S'0xffffffc0007ca2b0L'
p162
sg27
Nsbasg77
(lp163
S'ADRP reg, #func@PAGE'
p164
aS'LDR reg, mem'
p165
aS'MOV reg9, #0xFFFFFFEA'
p166
aS'LDR reg, mem'
p167
aS'CBNZ reg, func'
p168
asg87
Nsg5
S'0xffffffc0007ca2a0L'
p169
sg89
(lp170
S'0xffffffc0007ca29cL'
p171
asg6
Nsg91
(lp172
S'0xffffffc0007ca2b4L'
p173
aS'0xffffffc0007ca358L'
p174
asg95
Nsg96
Nsg97
S'd80cc6d531f24a5b2d60307977d236c7'
p175
sg99
S'baaaa11d303d94886d47725c6dea0608'
p176
sg101
(lp177
g133
ag140
ag147
ag154
ag161
asg103
Nsba(ibclass
BBasicBlock
p178
(dp179
g12
Nsg13
(lp180
(ibclass
BInstr
p181
(dp182
g2
Nsg17
S'ADRP            X2, #__func__.31763@PAGE; "q6_hfi_apr_callback"'
p183
sg19
S'02440090'
p184
sg21
Vadrp x2, #0x880000
p185
sg5
L18446743798839812788L
sg6
Nsg23
S'ADRP'
p186
sg25
S'0xffffffc0007ca2b4L'
p187
sg27
Nsba(ibclass
BInstr
p188
(dp189
g2
Nsg17
S'ADRP            X0, #unk_FFFFFFC0013BFA55@PAGE'
p190
sg19
S'a05f00b0'
p191
sg21
Vadrp x0, #0xbf5000
p192
sg5
L18446743798839812792L
sg6
Nsg23
S'ADRP'
p193
sg25
S'0xffffffc0007ca2b8L'
p194
sg27
Nsba(ibclass
BInstr
p195
(dp196
g2
Nsg17
S'ADRP            X1, #(aQcomMdssDsi_17+0x1B)@PAGE; "err"'
p197
sg19
S'215b00b0'
p198
sg21
Vadrp x1, #0xb65000
p199
sg5
L18446743798839812796L
sg6
Nsg23
S'ADRP'
p200
sg25
S'0xffffffc0007ca2bcL'
p201
sg27
Nsba(ibclass
BInstr
p202
(dp203
g2
Nsg17
S'ADD             X2, X2, #__func__.31763@PAGEOFF; "q6_hfi_apr_callback"'
p204
sg19
S'42c03891'
p205
sg21
Vadd x2, x2, #0xe30
p206
sg5
L18446743798839812800L
sg6
Nsg23
S'ADD'
p207
sg25
S'0xffffffc0007ca2c0L'
p208
sg27
Nsba(ibclass
BInstr
p209
(dp210
g2
Nsg17
S'ADD             X1, X1, #(aQcomMdssDsi_17+0x1B)@PAGEOFF; "err"'
p211
sg19
S'21801291'
p212
sg21
Vadd x1, x1, #0x4a0
p213
sg5
L18446743798839812804L
sg6
Nsg23
S'ADD'
p214
sg25
S'0xffffffc0007ca2c4L'
p215
sg27
Nsba(ibclass
BInstr
p216
(dp217
g2
Nsg17
S'ADD             X2, X2, #0x160'
p218
sg19
S'42800591'
p219
sg21
Vadd x2, x2, #0x160
p220
sg5
L18446743798839812808L
sg6
Nsg23
S'ADD'
p221
sg25
S'0xffffffc0007ca2c8L'
p222
sg27
Nsba(ibclass
BInstr
p223
(dp224
g2
Nsg17
S'ADD             X0, X0, #unk_FFFFFFC0013BFA55@PAGEOFF'
p225
sg19
S'00542991'
p226
sg21
Vadd x0, x0, #0xa55
p227
sg5
L18446743798839812812L
sg6
Nsg23
S'ADD'
p228
sg25
S'0xffffffc0007ca2ccL'
p229
sg27
Nsba(ibclass
BInstr
p230
(dp231
g2
Nsg17
S'BL              printk'
p232
sg19
S'a4a51994'
p233
sg21
Vbl #0x669690
p234
sg5
L18446743798839812816L
sg6
Nsg23
S'BL'
p235
sg25
S'0xffffffc0007ca2d0L'
p236
sg27
Nsba(ibclass
BInstr
p237
(dp238
g2
Nsg17
S'B               loc_FFFFFFC0007CA358'
p239
sg19
S'21000014'
p240
sg21
Vb #0x84
p241
sg5
L18446743798839812820L
sg6
Nsg23
S'B'
p242
sg25
S'0xffffffc0007ca2d4L'
p243
sg27
Nsbasg77
(lp244
S'ADRP reg, #__func__.31763@PAGE'
p245
aS'ADRP reg, #func@PAGE'
p246
aS'ADRP reg, #(aQcomMdssDsi_17+0x1B)@PAGE'
p247
aS'ADD reg, reg, #__func__.31763@PAGEOFF'
p248
aS'ADD reg, reg, #(aQcomMdssDsi_17+0x1B)@PAGEOFF'
p249
aS'ADD reg, reg, #0x160'
p250
aS'ADD reg, reg, #func@PAGEOFF'
p251
aS'BL printk'
p252
aS'B func'
p253
asg87
Nsg5
S'0xffffffc0007ca2b4L'
p254
sg89
(lp255
S'0xffffffc0007ca2a0L'
p256
asg6
Nsg91
(lp257
S'0xffffffc0007ca358L'
p258
asg95
Nsg96
Nsg97
S'8d01fe9050abe03509e35279925e126f'
p259
sg99
S'2ffbe46f27a64c603adf3cd6b0e93778'
p260
sg101
(lp261
g186
ag193
ag200
ag207
ag214
ag221
ag228
ag235
ag242
asg103
Nsba(ibclass
BBasicBlock
p262
(dp263
g12
Nsg13
(lp264
(ibclass
BInstr
p265
(dp266
g2
Nsg17
S'TBZ             W0, #3, loc_FFFFFFC0007CA304'
p267
sg19
S'60011836'
p268
sg21
Vtbz w0, #3, #0x2c
p269
sg5
L18446743798839812824L
sg6
Nsg23
S'TBZ'
p270
sg25
S'0xffffffc0007ca2d8L'
p271
sg27
Nsbasg77
(lp272
S'TBZ reg, #3, func'
p273
asg87
Nsg5
S'0xffffffc0007ca2d8L'
p274
sg89
(lp275
S'0xffffffc0007ca27cL'
p276
asg6
Nsg91
(lp277
S'0xffffffc0007ca2dcL'
p278
aS'0xffffffc0007ca304L'
p279
asg95
Nsg96
Nsg97
S'b05993cf85beb302c9604086eec65e11'
p280
sg99
S'7411ce3a55876e9501953a6aa4dfd665'
p281
sg101
(lp282
g270
asg103
Nsba(ibclass
BBasicBlock
p283
(dp284
g12
Nsg13
(lp285
(ibclass
BInstr
p286
(dp287
g2
Nsg17
S'ADRP            X0, #qword_FFFFFFC000E48D48@PAGE'
p288
sg19
S'e03300d0'
p289
sg21
Vadrp x0, #0x67e000
p290
sg5
L18446743798839812828L
sg6
Nsg23
S'ADRP'
p291
sg25
S'0xffffffc0007ca2dcL'
p292
sg27
Nsba(ibclass
BInstr
p293
(dp294
g2
Nsg17
S'LDR             X0, [X0,#qword_FFFFFFC000E48D48@PAGEOFF]'
p295
sg19
S'00a446f9'
p296
sg21
Vldr x0, [x0, #0xd48]
p297
sg5
L18446743798839812832L
sg6
Nsg23
S'LDR'
p298
sg25
S'0xffffffc0007ca2e0L'
p299
sg27
Nsba(ibclass
BInstr
p300
(dp301
g2
Nsg17
S'LDR             W0, [X0]'
p302
sg19
S'000040b9'
p303
sg21
Vldr w0, [x0]
p304
sg5
L18446743798839812836L
sg6
Nsg23
S'LDR'
p305
sg25
S'0xffffffc0007ca2e4L'
p306
sg27
Nsba(ibclass
BInstr
p307
(dp308
g2
Nsg17
S'CBNZ            W0, loc_FFFFFFC0007CA304'
p309
sg19
S'e0000035'
p310
sg21
Vcbnz w0, #0x1c
p311
sg5
L18446743798839812840L
sg6
Nsg23
S'CBNZ'
p312
sg25
S'0xffffffc0007ca2e8L'
p313
sg27
Nsbasg77
(lp314
S'ADRP reg, #func@PAGE'
p315
aS'LDR reg, mem'
p316
aS'LDR reg, mem'
p317
aS'CBNZ reg, func'
p318
asg87
Nsg5
S'0xffffffc0007ca2dcL'
p319
sg89
(lp320
S'0xffffffc0007ca2d8L'
p321
asg6
Nsg91
(lp322
S'0xffffffc0007ca2ecL'
p323
aS'0xffffffc0007ca304L'
p324
asg95
Nsg96
Nsg97
S'9c97521b8b0f280d47a50ec9a5e4f86f'
p325
sg99
S'bd26f8893557dc5fa132ff2490be0ebf'
p326
sg101
(lp327
g291
ag298
ag305
ag312
asg103
Nsba(ibclass
BBasicBlock
p328
(dp329
g12
Nsg13
(lp330
(ibclass
BInstr
p331
(dp332
g2
Nsg17
S'ADRP            X0, #unk_FFFFFFC0013BFA79@PAGE'
p333
sg19
S'a05f00b0'
p334
sg21
Vadrp x0, #0xbf5000
p335
sg5
L18446743798839812844L
sg6
Nsg23
S'ADRP'
p336
sg25
S'0xffffffc0007ca2ecL'
p337
sg27
Nsba(ibclass
BInstr
p338
(dp339
g2
Nsg17
S'ADRP            X1, #(aRulesDbg+6)@PAGE; "dbg"'
p340
sg19
S'816600f0'
p341
sg21
Vadrp x1, #0xcd3000
p342
sg5
L18446743798839812848L
sg6
Nsg23
S'ADRP'
p343
sg25
S'0xffffffc0007ca2f0L'
p344
sg27
Nsba(ibclass
BInstr
p345
(dp346
g2
Nsg17
S'LDR             X2, [X19,#0x10]'
p347
sg19
S'620a40f9'
p348
sg21
Vldr x2, [x19, #0x10]
p349
sg5
L18446743798839812852L
sg6
Nsg23
S'LDR'
p350
sg25
S'0xffffffc0007ca2f4L'
p351
sg27
Nsba(ibclass
BInstr
p352
(dp353
g2
Nsg17
S'ADD             X0, X0, #unk_FFFFFFC0013BFA79@PAGEOFF'
p354
sg19
S'00e42991'
p355
sg21
Vadd x0, x0, #0xa79
p356
sg5
L18446743798839812856L
sg6
Nsg23
S'ADD'
p357
sg25
S'0xffffffc0007ca2f8L'
p358
sg27
Nsba(ibclass
BInstr
p359
(dp360
g2
Nsg17
S'ADD             X1, X1, #(aRulesDbg+6)@PAGEOFF; "dbg"'
p361
sg19
S'21e01d91'
p362
sg21
Vadd x1, x1, #0x778
p363
sg5
L18446743798839812860L
sg6
Nsg23
S'ADD'
p364
sg25
S'0xffffffc0007ca2fcL'
p365
sg27
Nsba(ibclass
BInstr
p366
(dp367
g2
Nsg17
S'BL              printk'
p368
sg19
S'98a51994'
p369
sg21
Vbl #0x669660
p370
sg5
L18446743798839812864L
sg6
Nsg23
S'BL'
p371
sg25
S'0xffffffc0007ca300L'
p372
sg27
Nsbasg77
(lp373
S'ADRP reg, #func@PAGE'
p374
aS'ADRP reg, #(aRulesDbg+6)@PAGE'
p375
aS'LDR reg, mem'
p376
aS'ADD reg, reg, #func@PAGEOFF'
p377
aS'ADD reg, reg, #(aRulesDbg+6)@PAGEOFF'
p378
aS'BL printk'
p379
asg87
Nsg5
S'0xffffffc0007ca2ecL'
p380
sg89
(lp381
S'0xffffffc0007ca2dcL'
p382
asg6
Nsg91
(lp383
S'0xffffffc0007ca304L'
p384
asg95
Nsg96
Nsg97
S'dbe4d26929a8fbd070115a0c31abf522'
p385
sg99
S'a829401951874ed82db9fc11ebf133dd'
p386
sg101
(lp387
g336
ag343
ag350
ag357
ag364
ag371
asg103
Nsba(ibclass
BBasicBlock
p388
(dp389
g12
Nsg13
(lp390
(ibclass
BInstr
p391
(dp392
g2
Nsg17
S'LDR             X0, [X19,#0x20]'
p393
sg19
S'601240f9'
p394
sg21
Vldr x0, [x19, #0x20]
p395
sg5
L18446743798839812868L
sg6
Nsg23
S'LDR'
p396
sg25
S'0xffffffc0007ca304L'
p397
sg27
Nsba(ibclass
BInstr
p398
(dp399
g2
Nsg17
S'ADD             X0, X0, #0x88'
p400
sg19
S'00200291'
p401
sg21
Vadd x0, x0, #0x88
p402
sg5
L18446743798839812872L
sg6
Nsg23
S'ADD'
p403
sg25
S'0xffffffc0007ca308L'
p404
sg27
Nsba(ibclass
BInstr
p405
(dp406
g2
Nsg17
S'BL              mutex_lock'
p407
sg19
S'f6d91994'
p408
sg21
Vbl #0x6767d8
p409
sg5
L18446743798839812876L
sg6
Nsg23
S'BL'
p410
sg25
S'0xffffffc0007ca30cL'
p411
sg27
Nsba(ibclass
BInstr
p412
(dp413
g2
Nsg17
S'LDR             X0, [X19,#8]'
p414
sg19
S'600640f9'
p415
sg21
Vldr x0, [x19, #8]
p416
sg5
L18446743798839812880L
sg6
Nsg23
S'LDR'
p417
sg25
S'0xffffffc0007ca310L'
p418
sg27
Nsba(ibclass
BInstr
p419
(dp420
g2
Nsg17
S'LDR             X1, [X19]'
p421
sg19
S'610240f9'
p422
sg21
Vldr x1, [x19]
p423
sg5
L18446743798839812884L
sg6
Nsg23
S'LDR'
p424
sg25
S'0xffffffc0007ca314L'
p425
sg27
Nsba(ibclass
BInstr
p426
(dp427
g2
Nsg17
S'STR             X0, [X1,#8]'
p428
sg19
S'200400f9'
p429
sg21
Vstr x0, [x1, #8]
p430
sg5
L18446743798839812888L
sg6
Nsg23
S'STR'
p431
sg25
S'0xffffffc0007ca318L'
p432
sg27
Nsba(ibclass
BInstr
p433
(dp434
g2
Nsg17
S'STR             X1, [X0]'
p435
sg19
S'010000f9'
p436
sg21
Vstr x1, [x0]
p437
sg5
L18446743798839812892L
sg6
Nsg23
S'STR'
p438
sg25
S'0xffffffc0007ca31cL'
p439
sg27
Nsba(ibclass
BInstr
p440
(dp441
g2
Nsg17
S'MOV             X0, #0x100'
p442
sg19
S'002080d2'
p443
sg21
Vmovz x0, #0x100
p444
sg5
L18446743798839812896L
sg6
Nsg23
S'MOV'
p445
sg25
S'0xffffffc0007ca320L'
p446
sg27
Nsba(ibclass
BInstr
p447
(dp448
g2
Nsg17
S'MOVK            X0, #0xDEAD,LSL#48'
p449
sg19
S'a0d5fbf2'
p450
sg21
Vmovk x0, #0xdead, lsl #48
p451
sg5
L18446743798839812900L
sg6
Nsg23
S'MOVK'
p452
sg25
S'0xffffffc0007ca324L'
p453
sg27
Nsba(ibclass
BInstr
p454
(dp455
g2
Nsg17
S'STR             X0, [X19]'
p456
sg19
S'600200f9'
p457
sg21
Vstr x0, [x19]
p458
sg5
L18446743798839812904L
sg6
Nsg23
S'STR'
p459
sg25
S'0xffffffc0007ca328L'
p460
sg27
Nsba(ibclass
BInstr
p461
(dp462
g2
Nsg17
S'MOV             X0, #0x200'
p463
sg19
S'004080d2'
p464
sg21
Vmovz x0, #0x200
p465
sg5
L18446743798839812908L
sg6
Nsg23
S'MOV'
p466
sg25
S'0xffffffc0007ca32cL'
p467
sg27
Nsba(ibclass
BInstr
p468
(dp469
g2
Nsg17
S'MOVK            X0, #0xDEAD,LSL#48'
p470
sg19
S'a0d5fbf2'
p471
sg21
Vmovk x0, #0xdead, lsl #48
p472
sg5
L18446743798839812912L
sg6
Nsg23
S'MOVK'
p473
sg25
S'0xffffffc0007ca330L'
p474
sg27
Nsba(ibclass
BInstr
p475
(dp476
g2
Nsg17
S'STR             X0, [X19,#8]'
p477
sg19
S'600600f9'
p478
sg21
Vstr x0, [x19, #8]
p479
sg5
L18446743798839812916L
sg6
Nsg23
S'STR'
p480
sg25
S'0xffffffc0007ca334L'
p481
sg27
Nsba(ibclass
BInstr
p482
(dp483
g2
Nsg17
S'LDR             X0, [X19,#0x20]'
p484
sg19
S'601240f9'
p485
sg21
Vldr x0, [x19, #0x20]
p486
sg5
L18446743798839812920L
sg6
Nsg23
S'LDR'
p487
sg25
S'0xffffffc0007ca338L'
p488
sg27
Nsba(ibclass
BInstr
p489
(dp490
g2
Nsg17
S'ADD             X0, X0, #0x88'
p491
sg19
S'00200291'
p492
sg21
Vadd x0, x0, #0x88
p493
sg5
L18446743798839812924L
sg6
Nsg23
S'ADD'
p494
sg25
S'0xffffffc0007ca33cL'
p495
sg27
Nsba(ibclass
BInstr
p496
(dp497
g2
Nsg17
S'BL              mutex_unlock'
p498
sg19
S'2cd91994'
p499
sg21
Vbl #0x6764b0
p500
sg5
L18446743798839812928L
sg6
Nsg23
S'BL'
p501
sg25
S'0xffffffc0007ca340L'
p502
sg27
Nsba(ibclass
BInstr
p503
(dp504
g2
Nsg17
S'MOV             X0, X19'
p505
sg19
S'e00313aa'
p506
sg21
Vmov x0, x19
p507
sg5
L18446743798839812932L
sg6
Nsg23
S'MOV'
p508
sg25
S'0xffffffc0007ca344L'
p509
sg27
Nsba(ibclass
BInstr
p510
(dp511
g2
Nsg17
S'BL              kfree'
p512
sg19
S'5ea3ec97'
p513
sg21
Vbl #0xffffffffffb28d78
p514
sg5
L18446743798839812936L
sg6
Nsg23
S'BL'
p515
sg25
S'0xffffffc0007ca348L'
p516
sg27
Nsba(ibclass
BInstr
p517
(dp518
g2
Nsg17
S'MOV             W19, #0'
p519
sg19
S'13008052'
p520
sg21
Vmovz w19, #0
p521
sg5
L18446743798839812940L
sg6
Nsg23
S'MOV'
p522
sg25
S'0xffffffc0007ca34cL'
p523
sg27
Nsba(ibclass
BInstr
p524
(dp525
g2
Nsg17
S'B               loc_FFFFFFC0007CA358'
p526
sg19
S'02000014'
p527
sg21
Vb #8
p528
sg5
L18446743798839812944L
sg6
Nsg23
g242
sg25
S'0xffffffc0007ca350L'
p529
sg27
Nsbasg77
(lp530
S'LDR reg, mem'
p531
aS'ADD reg, reg, #0x88'
p532
aS'BL mutex_lock'
p533
aS'LDR reg, mem'
p534
aS'LDR reg, mem'
p535
aS'STR reg, mem'
p536
aS'STR reg, mem'
p537
aS'MOV reg, #0x100'
p538
aS'MOVK reg, #0xDEAD,LSL#48'
p539
aS'STR reg, mem'
p540
aS'MOV reg, #0x200'
p541
aS'MOVK reg, #0xDEAD,LSL#48'
p542
aS'STR reg, mem'
p543
aS'LDR reg, mem'
p544
aS'ADD reg, reg, #0x88'
p545
aS'BL mutex_unlock'
p546
aS'MOV reg, reg9'
p547
aS'BL kfree'
p548
aS'MOV reg9, #0'
p549
aS'B func'
p550
asg87
Nsg5
S'0xffffffc0007ca304L'
p551
sg89
(lp552
S'0xffffffc0007ca2d8L'
p553
aS'0xffffffc0007ca2dcL'
p554
aS'0xffffffc0007ca2ecL'
p555
asg6
Nsg91
(lp556
S'0xffffffc0007ca358L'
p557
asg95
Nsg96
Nsg97
S'1063aac44869238523632f55e6a8f4ed'
p558
sg99
S'e6b0f5db74983df11da22b647ddbb72d'
p559
sg101
(lp560
g396
ag403
ag410
ag417
ag424
ag431
ag438
ag445
ag452
ag459
ag466
ag473
ag480
ag487
ag494
ag501
ag508
ag515
ag522
ag242
asg103
Nsba(ibclass
BBasicBlock
p561
(dp562
g12
Nsg13
(lp563
(ibclass
BInstr
p564
(dp565
g2
Nsg17
S'MOV             W19, #0xFFFFFFEA'
p566
sg19
S'b3028012'
p567
sg21
Vmovn w19, #0x15
p568
sg5
L18446743798839812948L
sg6
Nsg23
S'MOV'
p569
sg25
S'0xffffffc0007ca354L'
p570
sg27
Nsbasg77
(lp571
S'MOV reg9, #0xFFFFFFEA'
p572
asg87
Nsg5
S'0xffffffc0007ca354L'
p573
sg89
(lp574
S'0xffffffc0007ca29cL'
p575
asg6
Nsg91
(lp576
S'0xffffffc0007ca358L'
p577
asg95
Nsg96
Nsg97
S'17b32100aef1fc19670be7fd58bc85df'
p578
sg99
S'b3606159d658f642fff4e1852538bd21'
p579
sg101
(lp580
g569
asg103
Nsba(ibclass
BBasicBlock
p581
(dp582
g12
Nsg13
(lp583
(ibclass
BInstr
p584
(dp585
g2
Nsg17
S'MOV             W0, W19'
p586
sg19
S'e003132a'
p587
sg21
Vmov w0, w19
p588
sg5
L18446743798839812952L
sg6
Nsg23
S'MOV'
p589
sg25
S'0xffffffc0007ca358L'
p590
sg27
Nsba(ibclass
BInstr
p591
(dp592
g2
Nsg17
S'LDR             X19, [SP,#0x10+var_s0]'
p593
sg19
S'f30b40f9'
p594
sg21
Vldr x19, [sp, #0x10]
p595
sg5
L18446743798839812956L
sg6
Nsg23
S'LDR'
p596
sg25
S'0xffffffc0007ca35cL'
p597
sg27
Nsba(ibclass
BInstr
p598
(dp599
g2
Nsg17
S'LDP             X29, X30, [SP+0x10+var_10],#0x20'
p600
sg19
S'fd7bc2a8'
p601
sg21
Vldp x29, x30, [sp], #0x20
p602
sg5
L18446743798839812960L
sg6
Nsg23
S'LDP'
p603
sg25
S'0xffffffc0007ca360L'
p604
sg27
Nsba(ibclass
BInstr
p605
(dp606
g2
Nsg17
S'RET'
p607
sg19
S'c0035fd6'
p608
sg21
Vret 
p609
sg5
L18446743798839812964L
sg6
Nsg23
S'RET'
p610
sg25
S'0xffffffc0007ca364L'
p611
sg27
Nsbasg77
(lp612
S'MOV reg, reg9'
p613
aS'LDR reg9, mem'
p614
aS'LDP reg9, reg0, mem,#0x20'
p615
ag607
asg87
Nsg5
S'0xffffffc0007ca358L'
p616
sg89
(lp617
S'0xffffffc0007ca2a0L'
p618
aS'0xffffffc0007ca2b4L'
p619
aS'0xffffffc0007ca304L'
p620
aS'0xffffffc0007ca354L'
p621
asg6
Nsg91
(lp622
sg95
Nsg96
Nsg97
S'700b6007ea89efb2d19f65eecdfbdc66'
p623
sg99
S'2540ec61573c55ff75133ef1ef4cbd07'
p624
sg101
(lp625
g589
ag596
ag603
ag610
asg103
Nsbasb.