(ibclass
BFunc
p0
(dp1
S'hash'
p2
NsS'name'
p3
S'qseecom_release'
p4
sS'start_address'
p5
L18446743798837748852L
sS'flag'
p6
NsS'program'
p7
NsS'bbs'
p8
(lp9
(ibclass
BBasicBlock
p10
(dp11
S'function'
p12
NsS'binstrs'
p13
(lp14
(ibclass
BInstr
p15
(dp16
g2
NsS'disasm'
p17
S'STP             X29, X30, [SP,#-0x10+var_20]!'
p18
sS'bytes'
p19
S'fd7bbda9'
p20
sS'disasm_striped'
p21
Vstp x29, x30, [sp, #-0x30]!
p22
sg5
L18446743798837748852L
sg6
NsS'mnem'
p23
S'STP'
p24
sS'address'
p25
S'0xffffffc0005d2474L'
p26
sS'basicblock'
p27
Nsba(ibclass
BInstr
p28
(dp29
g2
Nsg17
S'MOV             X29, SP'
p30
sg19
S'fd030091'
p31
sg21
Vmov x29, sp
p32
sg5
L18446743798837748856L
sg6
Nsg23
S'MOV'
p33
sg25
S'0xffffffc0005d2478L'
p34
sg27
Nsba(ibclass
BInstr
p35
(dp36
g2
Nsg17
S'STP             X19, X20, [SP,#0x20+var_10]'
p37
sg19
S'f35301a9'
p38
sg21
Vstp x19, x20, [sp, #0x10]
p39
sg5
L18446743798837748860L
sg6
Nsg23
S'STP'
p40
sg25
S'0xffffffc0005d247cL'
p41
sg27
Nsba(ibclass
BInstr
p42
(dp43
g2
Nsg17
S'STP             X21, X22, [SP,#0x20+var_s0]'
p44
sg19
S'f55b02a9'
p45
sg21
Vstp x21, x22, [sp, #0x20]
p46
sg5
L18446743798837748864L
sg6
Nsg23
S'STP'
p47
sg25
S'0xffffffc0005d2480L'
p48
sg27
Nsba(ibclass
BInstr
p49
(dp50
g2
Nsg17
S'LDR             X19, [X1,#0xA8]'
p51
sg19
S'335440f9'
p52
sg21
Vldr x19, [x1, #0xa8]
p53
sg5
L18446743798837748868L
sg6
Nsg23
S'LDR'
p54
sg25
S'0xffffffc0005d2484L'
p55
sg27
Nsba(ibclass
BInstr
p56
(dp57
g2
Nsg17
S'MOV             W20, #0'
p58
sg19
S'14008052'
p59
sg21
Vmovz w20, #0
p60
sg5
L18446743798837748872L
sg6
Nsg23
S'MOV'
p61
sg25
S'0xffffffc0005d2488L'
p62
sg27
Nsba(ibclass
BInstr
p63
(dp64
g2
Nsg17
S'LDRB            W0, [X19,#0x78]'
p65
sg19
S'60e24139'
p66
sg21
Vldrb w0, [x19, #0x78]
p67
sg5
L18446743798837748876L
sg6
Nsg23
S'LDR'
p68
sg25
S'0xffffffc0005d248cL'
p69
sg27
Nsba(ibclass
BInstr
p70
(dp71
g2
Nsg17
S'CBNZ            W0, loc_FFFFFFC0005D255C'
p72
sg19
S'60060035'
p73
sg21
Vcbnz w0, #0xcc
p74
sg5
L18446743798837748880L
sg6
Nsg23
S'CBNZ'
p75
sg25
S'0xffffffc0005d2490L'
p76
sg27
NsbasS'disasm_list'
p77
(lp78
S'STP reg9, reg0, mem!'
p79
aS'MOV reg9, SP'
p80
aS'STP reg9, reg0, mem'
p81
aS'STP reg1, reg2, mem'
p82
aS'LDR reg9, mem'
p83
aS'MOV reg0, #0'
p84
aS'LDRB reg, mem'
p85
aS'CBNZ reg, func'
p86
asS'end_address'
p87
Nsg5
S'0xffffffc0005d2474L'
p88
sS'preds'
p89
(lp90
sg6
NsS'succs'
p91
(lp92
S'0xffffffc0005d2494L'
p93
aS'0xffffffc0005d255cL'
p94
asS'hash_v3'
p95
NsS'flag_v2'
p96
NsS'hash_v1'
p97
S'8cd57d4031c339d3585b3650e23aa6f5'
p98
sS'hash_v2'
p99
S'57de8046373b2e08c9f82f46b446b08d'
p100
sS'mnen_list'
p101
(lp102
g24
ag33
ag40
ag47
ag54
ag61
ag68
ag75
asS'neighbour_disasm_list'
p103
Nsba(ibclass
BBasicBlock
p104
(dp105
g12
Nsg13
(lp106
(ibclass
BInstr
p107
(dp108
g2
Nsg17
S'ADRP            X0, #descriptor.25186@PAGE'
p109
sg19
S'a09500d0'
p110
sg21
Vadrp x0, #0x12b6000
p111
sg5
L18446743798837748884L
sg6
Nsg23
S'ADRP'
p112
sg25
S'0xffffffc0005d2494L'
p113
sg27
Nsba(ibclass
BInstr
p114
(dp115
g2
Nsg17
S'ADD             X0, X0, #descriptor.25186@PAGEOFF'
p116
sg19
S'00401891'
p117
sg21
Vadd x0, x0, #0x610
p118
sg5
L18446743798837748888L
sg6
Nsg23
S'ADD'
p119
sg25
S'0xffffffc0005d2498L'
p120
sg27
Nsba(ibclass
BInstr
p121
(dp122
g2
Nsg17
S'ADD             X0, X0, #0x3E8'
p123
sg19
S'00a00f91'
p124
sg21
Vadd x0, x0, #0x3e8
p125
sg5
L18446743798837748892L
sg6
Nsg23
S'ADD'
p126
sg25
S'0xffffffc0005d249cL'
p127
sg27
Nsba(ibclass
BInstr
p128
(dp129
g2
Nsg17
S'LDRH            W1, [X0,#(word_FFFFFFC001888A1A - 0xFFFFFFC0018889F8)]'
p130
sg19
S'01444079'
p131
sg21
Vldrh w1, [x0, #0x22]
p132
sg5
L18446743798837748896L
sg6
Nsg23
S'LDR'
p133
sg25
S'0xffffffc0005d24a0L'
p134
sg27
Nsba(ibclass
BInstr
p135
(dp136
g2
Nsg17
S'TBZ             W1, #2, loc_FFFFFFC0005D24CC'
p137
sg19
S'41011036'
p138
sg21
Vtbz w1, #2, #0x28
p139
sg5
L18446743798837748900L
sg6
Nsg23
S'TBZ'
p140
sg25
S'0xffffffc0005d24a4L'
p141
sg27
Nsbasg77
(lp142
S'ADRP reg, #descriptor.25186@PAGE'
p143
aS'ADD reg, reg, #descriptor.25186@PAGEOFF'
p144
aS'ADD reg, reg, #0x3E8'
p145
aS'LDRH reg, mem'
p146
aS'TBZ reg, #2, func'
p147
asg87
Nsg5
S'0xffffffc0005d2494L'
p148
sg89
(lp149
S'0xffffffc0005d2474L'
p150
asg6
Nsg91
(lp151
S'0xffffffc0005d24a8L'
p152
aS'0xffffffc0005d24ccL'
p153
asg95
Nsg96
Nsg97
S'6587a2c05df004845eaae6fa4bb61607'
p154
sg99
S'e15ed2bcf1fb83222f9550183d0e41a7'
p155
sg101
(lp156
g112
ag119
ag126
ag133
ag140
asg103
Nsba(ibclass
BBasicBlock
p157
(dp158
g12
Nsg13
(lp159
(ibclass
BInstr
p160
(dp161
g2
Nsg17
S'ADRP            X2, #__func__.24876@PAGE; "qseecom_unregister_listener"'
p162
sg19
S'02530090'
p163
sg21
Vadrp x2, #0xa60000
p164
sg5
L18446743798837748904L
sg6
Nsg23
S'ADRP'
p165
sg25
S'0xffffffc0005d24a8L'
p166
sg27
Nsba(ibclass
BInstr
p167
(dp168
g2
Nsg17
S'ADRP            X1, #aQseecomSDataRe@PAGE; "QSEECOM: %s: data: released=false, type"...'
p169
sg19
S'616c0090'
p170
sg21
Vadrp x1, #0xd8c000
p171
sg5
L18446743798837748908L
sg6
Nsg23
S'ADRP'
p172
sg25
S'0xffffffc0005d24acL'
p173
sg27
Nsba(ibclass
BInstr
p174
(dp175
g2
Nsg17
S'ADD             X2, X2, #__func__.24876@PAGEOFF; "qseecom_unregister_listener"'
p176
sg19
S'42200a91'
p177
sg21
Vadd x2, x2, #0x288
p178
sg5
L18446743798837748912L
sg6
Nsg23
S'ADD'
p179
sg25
S'0xffffffc0005d24b0L'
p180
sg27
Nsba(ibclass
BInstr
p181
(dp182
g2
Nsg17
S'LDR             W3, [X19]'
p183
sg19
S'630240b9'
p184
sg21
Vldr w3, [x19]
p185
sg5
L18446743798837748916L
sg6
Nsg23
S'LDR'
p186
sg25
S'0xffffffc0005d24b4L'
p187
sg27
Nsba(ibclass
BInstr
p188
(dp189
g2
Nsg17
S'LDR             W4, [X19,#0xA0]'
p190
sg19
S'64a240b9'
p191
sg21
Vldr w4, [x19, #0xa0]
p192
sg5
L18446743798837748920L
sg6
Nsg23
S'LDR'
p193
sg25
S'0xffffffc0005d24b8L'
p194
sg27
Nsba(ibclass
BInstr
p195
(dp196
g2
Nsg17
S'ADD             X1, X1, #aQseecomSDataRe@PAGEOFF; "QSEECOM: %s: data: released=false, type"...'
p197
sg19
S'21243691'
p198
sg21
Vadd x1, x1, #0xd89
p199
sg5
L18446743798837748924L
sg6
Nsg23
S'ADD'
p200
sg25
S'0xffffffc0005d24bcL'
p201
sg27
Nsba(ibclass
BInstr
p202
(dp203
g2
Nsg17
S'ADD             X2, X2, #0x3B0'
p204
sg19
S'42c00e91'
p205
sg21
Vadd x2, x2, #0x3b0
p206
sg5
L18446743798837748928L
sg6
Nsg23
S'ADD'
p207
sg25
S'0xffffffc0005d24c0L'
p208
sg27
Nsba(ibclass
BInstr
p209
(dp210
g2
Nsg17
S'MOV             X5, X19'
p211
sg19
S'e50313aa'
p212
sg21
Vmov x5, x19
p213
sg5
L18446743798837748932L
sg6
Nsg23
S'MOV'
p214
sg25
S'0xffffffc0005d24c4L'
p215
sg27
Nsba(ibclass
BInstr
p216
(dp217
g2
Nsg17
S'BL              __dynamic_pr_debug'
p218
sg19
S'b8bef997'
p219
sg21
Vbl #0xffffffffffe6fae0
p220
sg5
L18446743798837748936L
sg6
Nsg23
S'BL'
p221
sg25
S'0xffffffc0005d24c8L'
p222
sg27
Nsbasg77
(lp223
S'ADRP reg, #__func__.24876@PAGE'
p224
aS'ADRP reg, #aQseecomSDataRe@PAGE'
p225
aS'ADD reg, reg, #__func__.24876@PAGEOFF'
p226
aS'LDR reg, mem'
p227
aS'LDR reg, mem'
p228
aS'ADD reg, reg, #aQseecomSDataRe@PAGEOFF'
p229
aS'ADD reg, reg, #0x3B0'
p230
aS'MOV reg, reg9'
p231
aS'BL __dynamic_pr_debug'
p232
asg87
Nsg5
S'0xffffffc0005d24a8L'
p233
sg89
(lp234
S'0xffffffc0005d2494L'
p235
asg6
Nsg91
(lp236
S'0xffffffc0005d24ccL'
p237
asg95
Nsg96
Nsg97
S'3817242beec849a93e68a78ff80f4a84'
p238
sg99
S'7e686d59051986cb90e6e49882beec75'
p239
sg101
(lp240
g165
ag172
ag179
ag186
ag193
ag200
ag207
ag214
ag221
asg103
Nsba(ibclass
BBasicBlock
p241
(dp242
g12
Nsg13
(lp243
(ibclass
BInstr
p244
(dp245
g2
Nsg17
S'LDR             W2, [X19]'
p246
sg19
S'620240b9'
p247
sg21
Vldr w2, [x19]
p248
sg5
L18446743798837748940L
sg6
Nsg23
S'LDR'
p249
sg25
S'0xffffffc0005d24ccL'
p250
sg27
Nsba(ibclass
BInstr
p251
(dp252
g2
Nsg17
S'SUB             W0, W2, #1'
p253
sg19
S'40040051'
p254
sg21
Vsub w0, w2, #1
p255
sg5
L18446743798837748944L
sg6
Nsg23
S'SUB'
p256
sg25
S'0xffffffc0005d24d0L'
p257
sg27
Nsba(ibclass
BInstr
p258
(dp259
g2
Nsg17
S'CMP             W0, #4'
p260
sg19
S'1f100071'
p261
sg21
Vcmp w0, #4
p262
sg5
L18446743798837748948L
sg6
Nsg23
S'CMP'
p263
sg25
S'0xffffffc0005d24d4L'
p264
sg27
Nsba(ibclass
BInstr
p265
(dp266
g2
Nsg17
S'B.HI            loc_FFFFFFC0005D2540'
p267
sg19
S'48030054'
p268
sg21
Vb.hi #0x68
p269
sg5
L18446743798837748952L
sg6
Nsg23
S'B'
p270
sg25
S'0xffffffc0005d24d8L'
p271
sg27
Nsbasg77
(lp272
S'LDR reg, mem'
p273
aS'SUB reg, reg, #1'
p274
aS'CMP reg, #4'
p275
aS'B.HI func'
p276
asg87
Nsg5
S'0xffffffc0005d24ccL'
p277
sg89
(lp278
S'0xffffffc0005d2494L'
p279
aS'0xffffffc0005d24a8L'
p280
asg6
Nsg91
(lp281
S'0xffffffc0005d24dcL'
p282
aS'0xffffffc0005d2540L'
p283
asg95
Nsg96
Nsg97
S'dd5dbfa9105770945b09dacfec96972a'
p284
sg99
S'ab42502b1b1e30f0301c0b6e38983c99'
p285
sg101
(lp286
g249
ag256
ag263
ag270
asg103
Nsba(ibclass
BBasicBlock
p287
(dp288
g12
Nsg13
(lp289
(ibclass
BInstr
p290
(dp291
g2
Nsg17
S'ADRP            X1, #unk_FFFFFFC00103219C@PAGE'
p292
sg19
S'01530090'
p293
sg21
Vadrp x1, #0xa60000
p294
sg5
L18446743798837748956L
sg6
Nsg23
S'ADRP'
p295
sg25
S'0xffffffc0005d24dcL'
p296
sg27
Nsba(ibclass
BInstr
p297
(dp298
g2
Nsg17
S'ADD             X1, X1, #unk_FFFFFFC00103219C@PAGEOFF'
p299
sg19
S'21700691'
p300
sg21
Vadd x1, x1, #0x19c
p301
sg5
L18446743798837748960L
sg6
Nsg23
S'ADD'
p302
sg25
S'0xffffffc0005d24e0L'
p303
sg27
Nsba(ibclass
BInstr
p304
(dp305
g2
Nsg17
S'LDRB            W3, [X1,W0,UXTW]'
p306
sg19
S'23486038'
p307
sg21
Vldrb w3, [x1, w0, uxtw]
p308
sg5
L18446743798837748964L
sg6
Nsg23
S'LDR'
p309
sg25
S'0xffffffc0005d24e4L'
p310
sg27
Nsba(ibclass
BInstr
p311
(dp312
g2
Nsg17
S'ADR             X2, loc_FFFFFFC0005D24F4'
p313
sg19
S'62000010'
p314
sg21
Vadr x2, #0xc
p315
sg5
L18446743798837748968L
sg6
Nsg23
S'ADR'
p316
sg25
S'0xffffffc0005d24e8L'
p317
sg27
Nsba(ibclass
BInstr
p318
(dp319
g2
Nsg17
S'ADD             X3, X2, W3,SXTB#2'
p320
sg19
S'4388238b'
p321
sg21
Vadd x3, x2, w3, sxtb #2
p322
sg5
L18446743798837748972L
sg6
Nsg23
S'ADD'
p323
sg25
S'0xffffffc0005d24ecL'
p324
sg27
Nsba(ibclass
BInstr
p325
(dp326
g2
Nsg17
S'BR              X3'
p327
sg19
S'60001fd6'
p328
sg21
Vbr x3
p329
sg5
L18446743798837748976L
sg6
Nsg23
S'BR'
p330
sg25
S'0xffffffc0005d24f0L'
p331
sg27
Nsbasg77
(lp332
S'ADRP reg, #func@PAGE'
p333
aS'ADD reg, reg, #func@PAGEOFF'
p334
aS'LDRB reg, mem'
p335
aS'ADR reg, func'
p336
aS'ADD reg, reg, reg,SXTB#2'
p337
aS'BR reg'
p338
asg87
Nsg5
S'0xffffffc0005d24dcL'
p339
sg89
(lp340
S'0xffffffc0005d24ccL'
p341
asg6
Nsg91
(lp342
sg95
Nsg96
Nsg97
S'7e5dd87762d371fae15fd66fce3c217c'
p343
sg99
S'78362c2c26727cef4c5b2893849bca88'
p344
sg101
(lp345
g295
ag302
ag309
ag316
ag323
ag330
asg103
Nsba(ibclass
BBasicBlock
p346
(dp347
g12
Nsg13
(lp348
(ibclass
BInstr
p349
(dp350
g2
Nsg17
S'MOV             X0, X19'
p351
sg19
S'e00313aa'
p352
sg21
Vmov x0, x19
p353
sg5
L18446743798837748980L
sg6
Nsg23
S'MOV'
p354
sg25
S'0xffffffc0005d24f4L'
p355
sg27
Nsba(ibclass
BInstr
p356
(dp357
g2
Nsg17
S'BL              qseecom_unregister_listener'
p358
sg19
S'9af0ff97'
p359
sg21
Vbl #0xffffffffffffc268
p360
sg5
L18446743798837748984L
sg6
Nsg23
S'BL'
p361
sg25
S'0xffffffc0005d24f8L'
p362
sg27
Nsba(ibclass
BInstr
p363
(dp364
g2
Nsg17
S'B               loc_FFFFFFC0005D250C'
p365
sg19
S'04000014'
p366
sg21
Vb #0x10
p367
sg5
L18446743798837748988L
sg6
Nsg23
g270
sg25
S'0xffffffc0005d24fcL'
p368
sg27
Nsbasg77
(lp369
S'MOV reg, reg9'
p370
aS'BL qseecom_unregister_listener'
p371
aS'B func'
p372
asg87
Nsg5
S'0xffffffc0005d24f4L'
p373
sg89
(lp374
sg6
Nsg91
(lp375
S'0xffffffc0005d250cL'
p376
asg95
Nsg96
Nsg97
S'f3f645dfcfe38b34211b70b425c07bfe'
p377
sg99
S'7ae01f40ed6bfde349fb05570d26e952'
p378
sg101
(lp379
g354
ag361
ag270
asg103
Nsba(ibclass
BBasicBlock
p380
(dp381
g12
Nsg13
(lp382
(ibclass
BInstr
p383
(dp384
g2
Nsg17
S'MOV             X0, X19'
p385
sg19
S'e00313aa'
p386
sg21
Vmov x0, x19
p387
sg5
L18446743798837748992L
sg6
Nsg23
S'MOV'
p388
sg25
S'0xffffffc0005d2500L'
p389
sg27
Nsba(ibclass
BInstr
p390
(dp391
g2
Nsg17
S'MOV             W1, #1'
p392
sg19
S'21008052'
p393
sg21
Vmovz w1, #0x1
p394
sg5
L18446743798837748996L
sg6
Nsg23
S'MOV'
p395
sg25
S'0xffffffc0005d2504L'
p396
sg27
Nsba(ibclass
BInstr
p397
(dp398
g2
Nsg17
S'BL              qseecom_unload_app'
p399
sg19
S'effeff97'
p400
sg21
Vbl #0xfffffffffffffbbc
p401
sg5
L18446743798837749000L
sg6
Nsg23
S'BL'
p402
sg25
S'0xffffffc0005d2508L'
p403
sg27
Nsbasg77
(lp404
S'MOV reg, reg9'
p405
aS'MOV reg, #1'
p406
aS'BL qseecom_unload_app'
p407
asg87
Nsg5
S'0xffffffc0005d2500L'
p408
sg89
(lp409
sg6
Nsg91
(lp410
S'0xffffffc0005d250cL'
p411
asg95
Nsg96
Nsg97
S'd0b32617f7e4cfc169d92597b8aefd43'
p412
sg99
S'2a4525c951c0b47f5fe9bd9d46bc4fec'
p413
sg101
(lp414
g388
ag395
ag402
asg103
Nsba(ibclass
BBasicBlock
p415
(dp416
g12
Nsg13
(lp417
(ibclass
BInstr
p418
(dp419
g2
Nsg17
S'MOV             W20, W0'
p420
sg19
S'f403002a'
p421
sg21
Vmov w20, w0
p422
sg5
L18446743798837749004L
sg6
Nsg23
S'MOV'
p423
sg25
S'0xffffffc0005d250cL'
p424
sg27
Nsba(ibclass
BInstr
p425
(dp426
g2
Nsg17
S'B               loc_FFFFFFC0005D255C'
p427
sg19
S'13000014'
p428
sg21
Vb #0x4c
p429
sg5
L18446743798837749008L
sg6
Nsg23
g270
sg25
S'0xffffffc0005d2510L'
p430
sg27
Nsbasg77
(lp431
S'MOV reg0, reg'
p432
aS'B func'
p433
asg87
Nsg5
S'0xffffffc0005d250cL'
p434
sg89
(lp435
S'0xffffffc0005d24f4L'
p436
aS'0xffffffc0005d2500L'
p437
asg6
Nsg91
(lp438
S'0xffffffc0005d255cL'
p439
asg95
Nsg96
Nsg97
S'b6c4e95ccfe77a95e4cf2019dd3d5574'
p440
sg99
S'616624b7384dcfe6d97dc2ee50dbf851'
p441
sg101
(lp442
g423
ag270
asg103
Nsba(ibclass
BBasicBlock
p443
(dp444
g12
Nsg13
(lp445
(ibclass
BInstr
p446
(dp447
g2
Nsg17
S'ADD             X0, X19, #0x30'
p448
sg19
S'60c20091'
p449
sg21
Vadd x0, x19, #0x30
p450
sg5
L18446743798837749012L
sg6
Nsg23
S'ADD'
p451
sg25
S'0xffffffc0005d2514L'
p452
sg27
Nsba(ibclass
BInstr
p453
(dp454
g2
Nsg17
S'BL              qseecom_unmap_ion_allocated_memory.isra.12'
p455
sg19
S'00f6ff97'
p456
sg21
Vbl #0xffffffffffffd800
p457
sg5
L18446743798837749016L
sg6
Nsg23
S'BL'
p458
sg25
S'0xffffffc0005d2518L'
p459
sg27
Nsba(ibclass
BInstr
p460
(dp461
g2
Nsg17
S'MOV             W20, W0'
p462
sg19
S'f403002a'
p463
sg21
Vmov w20, w0
p464
sg5
L18446743798837749020L
sg6
Nsg23
S'MOV'
p465
sg25
S'0xffffffc0005d251cL'
p466
sg27
Nsba(ibclass
BInstr
p467
(dp468
g2
Nsg17
S'CBZ             W0, loc_FFFFFFC0005D255C'
p469
sg19
S'e0010034'
p470
sg21
Vcbz w0, #0x3c
p471
sg5
L18446743798837749024L
sg6
Nsg23
S'CBZ'
p472
sg25
S'0xffffffc0005d2520L'
p473
sg27
Nsbasg77
(lp474
S'ADD reg, reg9, #0x30'
p475
aS'BL qseecom_unmap_ion_allocated_memory.isra.12'
p476
aS'MOV reg0, reg'
p477
aS'CBZ reg, func'
p478
asg87
Nsg5
S'0xffffffc0005d2514L'
p479
sg89
(lp480
sg6
Nsg91
(lp481
S'0xffffffc0005d2524L'
p482
aS'0xffffffc0005d255cL'
p483
asg95
Nsg96
Nsg97
S'f2e6b64edc29d74e9ca62d1b37de9c21'
p484
sg99
S'6cb5a262a96ba8d5abdfa7c88d6e3f26'
p485
sg101
(lp486
g451
ag458
ag465
ag472
asg103
Nsba(ibclass
BBasicBlock
p487
(dp488
g12
Nsg13
(lp489
(ibclass
BInstr
p490
(dp491
g2
Nsg17
S'ADRP            X1, #__func__.24876@PAGE; "qseecom_unregister_listener"'
p492
sg19
S'01530090'
p493
sg21
Vadrp x1, #0xa60000
p494
sg5
L18446743798837749028L
sg6
Nsg23
S'ADRP'
p495
sg25
S'0xffffffc0005d2524L'
p496
sg27
Nsba(ibclass
BInstr
p497
(dp498
g2
Nsg17
S'ADRP            X0, #unk_FFFFFFC00135EDCA@PAGE'
p499
sg19
S'606c0090'
p500
sg21
Vadrp x0, #0xd8c000
p501
sg5
L18446743798837749032L
sg6
Nsg23
S'ADRP'
p502
sg25
S'0xffffffc0005d2528L'
p503
sg27
Nsba(ibclass
BInstr
p504
(dp505
g2
Nsg17
S'ADD             X1, X1, #__func__.24876@PAGEOFF; "qseecom_unregister_listener"'
p506
sg19
S'21200a91'
p507
sg21
Vadd x1, x1, #0x288
p508
sg5
L18446743798837749036L
sg6
Nsg23
S'ADD'
p509
sg25
S'0xffffffc0005d252cL'
p510
sg27
Nsba(ibclass
BInstr
p511
(dp512
g2
Nsg17
S'ADD             X1, X1, #0x3B0'
p513
sg19
S'21c00e91'
p514
sg21
Vadd x1, x1, #0x3b0
p515
sg5
L18446743798837749040L
sg6
Nsg23
S'ADD'
p516
sg25
S'0xffffffc0005d2530L'
p517
sg27
Nsba(ibclass
BInstr
p518
(dp519
g2
Nsg17
S'ADD             X0, X0, #unk_FFFFFFC00135EDCA@PAGEOFF'
p520
sg19
S'00283791'
p521
sg21
Vadd x0, x0, #0xdca
p522
sg5
L18446743798837749044L
sg6
Nsg23
S'ADD'
p523
sg25
S'0xffffffc0005d2534L'
p524
sg27
Nsba(ibclass
BInstr
p525
(dp526
g2
Nsg17
S'BL              printk'
p527
sg19
S'0a852194'
p528
sg21
Vbl #0x861428
p529
sg5
L18446743798837749048L
sg6
Nsg23
S'BL'
p530
sg25
S'0xffffffc0005d2538L'
p531
sg27
Nsba(ibclass
BInstr
p532
(dp533
g2
Nsg17
S'B               loc_FFFFFFC0005D255C'
p534
sg19
S'08000014'
p535
sg21
Vb #0x20
p536
sg5
L18446743798837749052L
sg6
Nsg23
g270
sg25
S'0xffffffc0005d253cL'
p537
sg27
Nsbasg77
(lp538
S'ADRP reg, #__func__.24876@PAGE'
p539
aS'ADRP reg, #func@PAGE'
p540
aS'ADD reg, reg, #__func__.24876@PAGEOFF'
p541
aS'ADD reg, reg, #0x3B0'
p542
aS'ADD reg, reg, #func@PAGEOFF'
p543
aS'BL printk'
p544
aS'B func'
p545
asg87
Nsg5
S'0xffffffc0005d2524L'
p546
sg89
(lp547
S'0xffffffc0005d2514L'
p548
asg6
Nsg91
(lp549
S'0xffffffc0005d255cL'
p550
asg95
Nsg96
Nsg97
S'2c9793ad0fe6f054cbe18acf8837e8db'
p551
sg99
S'65c0ca9c96402eac04b084e756be9327'
p552
sg101
(lp553
g495
ag502
ag509
ag516
ag523
ag530
ag270
asg103
Nsba(ibclass
BBasicBlock
p554
(dp555
g12
Nsg13
(lp556
(ibclass
BInstr
p557
(dp558
g2
Nsg17
S'ADRP            X1, #__func__.24876@PAGE; "qseecom_unregister_listener"'
p559
sg19
S'01530090'
p560
sg21
Vadrp x1, #0xa60000
p561
sg5
L18446743798837749056L
sg6
Nsg23
S'ADRP'
p562
sg25
S'0xffffffc0005d2540L'
p563
sg27
Nsba(ibclass
BInstr
p564
(dp565
g2
Nsg17
S'ADRP            X0, #unk_FFFFFFC00135EDEB@PAGE'
p566
sg19
S'606c0090'
p567
sg21
Vadrp x0, #0xd8c000
p568
sg5
L18446743798837749060L
sg6
Nsg23
S'ADRP'
p569
sg25
S'0xffffffc0005d2544L'
p570
sg27
Nsba(ibclass
BInstr
p571
(dp572
g2
Nsg17
S'ADD             X1, X1, #__func__.24876@PAGEOFF; "qseecom_unregister_listener"'
p573
sg19
S'21200a91'
p574
sg21
Vadd x1, x1, #0x288
p575
sg5
L18446743798837749064L
sg6
Nsg23
S'ADD'
p576
sg25
S'0xffffffc0005d2548L'
p577
sg27
Nsba(ibclass
BInstr
p578
(dp579
g2
Nsg17
S'ADD             X0, X0, #unk_FFFFFFC00135EDEB@PAGEOFF'
p580
sg19
S'00ac3791'
p581
sg21
Vadd x0, x0, #0xdeb
p582
sg5
L18446743798837749068L
sg6
Nsg23
S'ADD'
p583
sg25
S'0xffffffc0005d254cL'
p584
sg27
Nsba(ibclass
BInstr
p585
(dp586
g2
Nsg17
S'ADD             X1, X1, #0x3B0'
p587
sg19
S'21c00e91'
p588
sg21
Vadd x1, x1, #0x3b0
p589
sg5
L18446743798837749072L
sg6
Nsg23
S'ADD'
p590
sg25
S'0xffffffc0005d2550L'
p591
sg27
Nsba(ibclass
BInstr
p592
(dp593
g2
Nsg17
S'BL              printk'
p594
sg19
S'03852194'
p595
sg21
Vbl #0x86140c
p596
sg5
L18446743798837749076L
sg6
Nsg23
S'BL'
p597
sg25
S'0xffffffc0005d2554L'
p598
sg27
Nsba(ibclass
BInstr
p599
(dp600
g2
Nsg17
S'MOV             W20, #0'
p601
sg19
S'14008052'
p602
sg21
Vmovz w20, #0
p603
sg5
L18446743798837749080L
sg6
Nsg23
S'MOV'
p604
sg25
S'0xffffffc0005d2558L'
p605
sg27
Nsbasg77
(lp606
S'ADRP reg, #__func__.24876@PAGE'
p607
aS'ADRP reg, #func@PAGE'
p608
aS'ADD reg, reg, #__func__.24876@PAGEOFF'
p609
aS'ADD reg, reg, #func@PAGEOFF'
p610
aS'ADD reg, reg, #0x3B0'
p611
aS'BL printk'
p612
aS'MOV reg0, #0'
p613
asg87
Nsg5
S'0xffffffc0005d2540L'
p614
sg89
(lp615
S'0xffffffc0005d24ccL'
p616
asg6
Nsg91
(lp617
S'0xffffffc0005d255cL'
p618
asg95
Nsg96
Nsg97
S'f8724966f4b7420d40a74448cb672a11'
p619
sg99
S'5c66b2cd4e1a62f77735e47dc3b29d91'
p620
sg101
(lp621
g562
ag569
ag576
ag583
ag590
ag597
ag604
asg103
Nsba(ibclass
BBasicBlock
p622
(dp623
g12
Nsg13
(lp624
(ibclass
BInstr
p625
(dp626
g2
Nsg17
S'ADRP            X21, #qseecom@PAGE'
p627
sg19
S'b5b900d0'
p628
sg21
Vadrp x21, #0x1736000
p629
sg5
L18446743798837749084L
sg6
Nsg23
S'ADRP'
p630
sg25
S'0xffffffc0005d255cL'
p631
sg27
Nsba(ibclass
BInstr
p632
(dp633
g2
Nsg17
S'ADD             X21, X21, #qseecom@PAGEOFF'
p634
sg19
S'b5823e91'
p635
sg21
Vadd x21, x21, #0xfa0
p636
sg5
L18446743798837749088L
sg6
Nsg23
S'ADD'
p637
sg25
S'0xffffffc0005d2560L'
p638
sg27
Nsba(ibclass
BInstr
p639
(dp640
g2
Nsg17
S'LDRB            W0, [X21,#(byte_FFFFFFC001D090F0 - 0xFFFFFFC001D08FA0)]'
p641
sg19
S'a0424539'
p642
sg21
Vldrb w0, [x21, #0x150]
p643
sg5
L18446743798837749092L
sg6
Nsg23
S'LDR'
p644
sg25
S'0xffffffc0005d2564L'
p645
sg27
Nsba(ibclass
BInstr
p646
(dp647
g2
Nsg17
S'CBZ             W0, loc_FFFFFFC0005D25C8'
p648
sg19
S'00030034'
p649
sg21
Vcbz w0, #0x60
p650
sg5
L18446743798837749096L
sg6
Nsg23
S'CBZ'
p651
sg25
S'0xffffffc0005d2568L'
p652
sg27
Nsbasg77
(lp653
S'ADRP reg1, #qseecom@PAGE'
p654
aS'ADD reg1, reg1, #qseecom@PAGEOFF'
p655
aS'LDRB reg, mem'
p656
aS'CBZ reg, func'
p657
asg87
Nsg5
S'0xffffffc0005d255cL'
p658
sg89
(lp659
S'0xffffffc0005d2474L'
p660
aS'0xffffffc0005d250cL'
p661
aS'0xffffffc0005d2514L'
p662
aS'0xffffffc0005d2524L'
p663
aS'0xffffffc0005d2540L'
p664
asg6
Nsg91
(lp665
S'0xffffffc0005d256cL'
p666
aS'0xffffffc0005d25c8L'
p667
asg95
Nsg96
Nsg97
S'4da7a262049260645f21497093d3f484'
p668
sg99
S'6796c75bafbe48deb9e0613f09362d01'
p669
sg101
(lp670
g630
ag637
ag644
ag651
asg103
Nsba(ibclass
BBasicBlock
p671
(dp672
g12
Nsg13
(lp673
(ibclass
BInstr
p674
(dp675
g2
Nsg17
S'ADRP            X22, #qseecom_plat_driver@PAGE'
p676
sg19
S'569a0090'
p677
sg21
Vadrp x22, #0x1348000
p678
sg5
L18446743798837749100L
sg6
Nsg23
S'ADRP'
p679
sg25
S'0xffffffc0005d256cL'
p680
sg27
Nsba(ibclass
BInstr
p681
(dp682
g2
Nsg17
S'ADD             X0, X22, #qseecom_plat_driver@PAGEOFF'
p683
sg19
S'c0c23091'
p684
sg21
Vadd x0, x22, #0xc30
p685
sg5
L18446743798837749104L
sg6
Nsg23
S'ADD'
p686
sg25
S'0xffffffc0005d2570L'
p687
sg27
Nsba(ibclass
BInstr
p688
(dp689
g2
Nsg17
S'ADD             X0, X0, #0xF8'
p690
sg19
S'00e00391'
p691
sg21
Vadd x0, x0, #0xf8
p692
sg5
L18446743798837749108L
sg6
Nsg23
S'ADD'
p693
sg25
S'0xffffffc0005d2574L'
p694
sg27
Nsba(ibclass
BInstr
p695
(dp696
g2
Nsg17
S'BL              mutex_lock'
p697
sg19
S'5bb92194'
p698
sg21
Vbl #0x86e56c
p699
sg5
L18446743798837749112L
sg6
Nsg23
S'BL'
p700
sg25
S'0xffffffc0005d2578L'
p701
sg27
Nsba(ibclass
BInstr
p702
(dp703
g2
Nsg17
S'LDR             W0, [X19,#0xA0]'
p704
sg19
S'60a240b9'
p705
sg21
Vldr w0, [x19, #0xa0]
p706
sg5
L18446743798837749116L
sg6
Nsg23
S'LDR'
p707
sg25
S'0xffffffc0005d257cL'
p708
sg27
Nsba(ibclass
BInstr
p709
(dp710
g2
Nsg17
S'CBZ             W0, loc_FFFFFFC0005D25B8'
p711
sg19
S'c0010034'
p712
sg21
Vcbz w0, #0x38
p713
sg5
L18446743798837749120L
sg6
Nsg23
S'CBZ'
p714
sg25
S'0xffffffc0005d2580L'
p715
sg27
Nsbasg77
(lp716
S'ADRP reg2, #qseecom_plat_driver@PAGE'
p717
aS'ADD reg, reg2, #qseecom_plat_driver@PAGEOFF'
p718
aS'ADD reg, reg, #0xF8'
p719
aS'BL mutex_lock'
p720
aS'LDR reg, mem'
p721
aS'CBZ reg, func'
p722
asg87
Nsg5
S'0xffffffc0005d256cL'
p723
sg89
(lp724
S'0xffffffc0005d255cL'
p725
asg6
Nsg91
(lp726
S'0xffffffc0005d2584L'
p727
aS'0xffffffc0005d25b8L'
p728
asg95
Nsg96
Nsg97
S'f78a7bdd575f1d5af2314d91f68eebc9'
p729
sg99
S'a19db0802478112baf67d58e186ea513'
p730
sg101
(lp731
g679
ag686
ag693
ag700
ag707
ag714
asg103
Nsba(ibclass
BBasicBlock
p732
(dp733
g12
Nsg13
(lp734
(ibclass
BInstr
p735
(dp736
g2
Nsg17
S'ADD             X0, X19, #0xA0'
p737
sg19
S'60820291'
p738
sg21
Vadd x0, x19, #0xa0
p739
sg5
L18446743798837749124L
sg6
Nsg23
S'ADD'
p740
sg25
S'0xffffffc0005d2584L'
p741
sg27
Nsba(ibclass
BInstr
p742
(dp743
g2
Nsg17
S'BL              qseecom_unregister_bus_bandwidth_needs.isra.1'
p744
sg19
S'80f4ff97'
p745
sg21
Vbl #0xffffffffffffd200
p746
sg5
L18446743798837749128L
sg6
Nsg23
S'BL'
p747
sg25
S'0xffffffc0005d2588L'
p748
sg27
Nsba(ibclass
BInstr
p749
(dp750
g2
Nsg17
S'LDR             W0, [X21,#(dword_FFFFFFC001D090F4 - 0xFFFFFFC001D08FA0)]'
p751
sg19
S'a05641b9'
p752
sg21
Vldr w0, [x21, #0x154]
p753
sg5
L18446743798837749132L
sg6
Nsg23
S'LDR'
p754
sg25
S'0xffffffc0005d258cL'
p755
sg27
Nsba(ibclass
BInstr
p756
(dp757
g2
Nsg17
S'CBNZ            W0, loc_FFFFFFC0005D25B8'
p758
sg19
S'40010035'
p759
sg21
Vcbnz w0, #0x28
p760
sg5
L18446743798837749136L
sg6
Nsg23
S'CBNZ'
p761
sg25
S'0xffffffc0005d2590L'
p762
sg27
Nsbasg77
(lp763
S'ADD reg, reg9, #0xA0'
p764
aS'BL qseecom_unregister_bus_bandwidth_needs.isra.1'
p765
aS'LDR reg, mem'
p766
aS'CBNZ reg, func'
p767
asg87
Nsg5
S'0xffffffc0005d2584L'
p768
sg89
(lp769
S'0xffffffc0005d256cL'
p770
asg6
Nsg91
(lp771
S'0xffffffc0005d2594L'
p772
aS'0xffffffc0005d25b8L'
p773
asg95
Nsg96
Nsg97
S'd34139da342b6337b7d35675b499f919'
p774
sg99
S'2a62fafc865fad642974ec6c45fb5e6c'
p775
sg101
(lp776
g740
ag747
ag754
ag761
asg103
Nsba(ibclass
BBasicBlock
p777
(dp778
g12
Nsg13
(lp779
(ibclass
BInstr
p780
(dp781
g2
Nsg17
S'BL              __qseecom_set_msm_bus_request'
p782
sg19
S'f5f5ff97'
p783
sg21
Vbl #0xffffffffffffd7d4
p784
sg5
L18446743798837749140L
sg6
Nsg23
S'BL'
p785
sg25
S'0xffffffc0005d2594L'
p786
sg27
Nsba(ibclass
BInstr
p787
(dp788
g2
Nsg17
S'MOV             W20, W0'
p789
sg19
S'f403002a'
p790
sg21
Vmov w20, w0
p791
sg5
L18446743798837749144L
sg6
Nsg23
S'MOV'
p792
sg25
S'0xffffffc0005d2598L'
p793
sg27
Nsba(ibclass
BInstr
p794
(dp795
g2
Nsg17
S'CBZ             W0, loc_FFFFFFC0005D25B8'
p796
sg19
S'e0000034'
p797
sg21
Vcbz w0, #0x1c
p798
sg5
L18446743798837749148L
sg6
Nsg23
S'CBZ'
p799
sg25
S'0xffffffc0005d259cL'
p800
sg27
Nsbasg77
(lp801
S'BL __qseecom_set_msm_bus_request'
p802
aS'MOV reg0, reg'
p803
aS'CBZ reg, func'
p804
asg87
Nsg5
S'0xffffffc0005d2594L'
p805
sg89
(lp806
S'0xffffffc0005d2584L'
p807
asg6
Nsg91
(lp808
S'0xffffffc0005d25a0L'
p809
aS'0xffffffc0005d25b8L'
p810
asg95
Nsg96
Nsg97
S'409ccbcca6b6149a6250353af84a549a'
p811
sg99
S'e228310e19b26818ae852e5e54755bde'
p812
sg101
(lp813
g785
ag792
ag799
asg103
Nsba(ibclass
BBasicBlock
p814
(dp815
g12
Nsg13
(lp816
(ibclass
BInstr
p817
(dp818
g2
Nsg17
S'ADRP            X1, #__func__.24876@PAGE; "qseecom_unregister_listener"'
p819
sg19
S'01530090'
p820
sg21
Vadrp x1, #0xa60000
p821
sg5
L18446743798837749152L
sg6
Nsg23
S'ADRP'
p822
sg25
S'0xffffffc0005d25a0L'
p823
sg27
Nsba(ibclass
BInstr
p824
(dp825
g2
Nsg17
S'ADRP            X0, #unk_FFFFFFC00135E0FD@PAGE'
p826
sg19
S'606c0090'
p827
sg21
Vadrp x0, #0xd8c000
p828
sg5
L18446743798837749156L
sg6
Nsg23
S'ADRP'
p829
sg25
S'0xffffffc0005d25a4L'
p830
sg27
Nsba(ibclass
BInstr
p831
(dp832
g2
Nsg17
S'ADD             X1, X1, #__func__.24876@PAGEOFF; "qseecom_unregister_listener"'
p833
sg19
S'21200a91'
p834
sg21
Vadd x1, x1, #0x288
p835
sg5
L18446743798837749160L
sg6
Nsg23
S'ADD'
p836
sg25
S'0xffffffc0005d25a8L'
p837
sg27
Nsba(ibclass
BInstr
p838
(dp839
g2
Nsg17
S'ADD             X0, X0, #unk_FFFFFFC00135E0FD@PAGEOFF'
p840
sg19
S'00f40391'
p841
sg21
Vadd x0, x0, #0xfd
p842
sg5
L18446743798837749164L
sg6
Nsg23
S'ADD'
p843
sg25
S'0xffffffc0005d25acL'
p844
sg27
Nsba(ibclass
BInstr
p845
(dp846
g2
Nsg17
S'ADD             X1, X1, #0x3B0'
p847
sg19
S'21c00e91'
p848
sg21
Vadd x1, x1, #0x3b0
p849
sg5
L18446743798837749168L
sg6
Nsg23
S'ADD'
p850
sg25
S'0xffffffc0005d25b0L'
p851
sg27
Nsba(ibclass
BInstr
p852
(dp853
g2
Nsg17
S'BL              printk'
p854
sg19
S'eb842194'
p855
sg21
Vbl #0x8613ac
p856
sg5
L18446743798837749172L
sg6
Nsg23
S'BL'
p857
sg25
S'0xffffffc0005d25b4L'
p858
sg27
Nsbasg77
(lp859
S'ADRP reg, #__func__.24876@PAGE'
p860
aS'ADRP reg, #func@PAGE'
p861
aS'ADD reg, reg, #__func__.24876@PAGEOFF'
p862
aS'ADD reg, reg, #func@PAGEOFF'
p863
aS'ADD reg, reg, #0x3B0'
p864
aS'BL printk'
p865
asg87
Nsg5
S'0xffffffc0005d25a0L'
p866
sg89
(lp867
S'0xffffffc0005d2594L'
p868
asg6
Nsg91
(lp869
S'0xffffffc0005d25b8L'
p870
asg95
Nsg96
Nsg97
S'e4dcad9e7cd2c60a0b76a9fee40dbab3'
p871
sg99
S'050006d45316968f13f2c49443fe3bb5'
p872
sg101
(lp873
g822
ag829
ag836
ag843
ag850
ag857
asg103
Nsba(ibclass
BBasicBlock
p874
(dp875
g12
Nsg13
(lp876
(ibclass
BInstr
p877
(dp878
g2
Nsg17
S'ADD             X0, X22, #qseecom_plat_driver@PAGEOFF'
p879
sg19
S'c0c23091'
p880
sg21
Vadd x0, x22, #0xc30
p881
sg5
L18446743798837749176L
sg6
Nsg23
S'ADD'
p882
sg25
S'0xffffffc0005d25b8L'
p883
sg27
Nsba(ibclass
BInstr
p884
(dp885
g2
Nsg17
S'ADD             X0, X0, #0xF8'
p886
sg19
S'00e00391'
p887
sg21
Vadd x0, x0, #0xf8
p888
sg5
L18446743798837749180L
sg6
Nsg23
S'ADD'
p889
sg25
S'0xffffffc0005d25bcL'
p890
sg27
Nsba(ibclass
BInstr
p891
(dp892
g2
Nsg17
S'BL              mutex_unlock'
p893
sg19
S'8cb82194'
p894
sg21
Vbl #0x86e230
p895
sg5
L18446743798837749184L
sg6
Nsg23
S'BL'
p896
sg25
S'0xffffffc0005d25c0L'
p897
sg27
Nsba(ibclass
BInstr
p898
(dp899
g2
Nsg17
S'B               loc_FFFFFFC0005D25F0'
p900
sg19
S'0b000014'
p901
sg21
Vb #0x2c
p902
sg5
L18446743798837749188L
sg6
Nsg23
g270
sg25
S'0xffffffc0005d25c4L'
p903
sg27
Nsbasg77
(lp904
S'ADD reg, reg2, #qseecom_plat_driver@PAGEOFF'
p905
aS'ADD reg, reg, #0xF8'
p906
aS'BL mutex_unlock'
p907
aS'B func'
p908
asg87
Nsg5
S'0xffffffc0005d25b8L'
p909
sg89
(lp910
S'0xffffffc0005d256cL'
p911
aS'0xffffffc0005d2584L'
p912
aS'0xffffffc0005d2594L'
p913
aS'0xffffffc0005d25a0L'
p914
asg6
Nsg91
(lp915
S'0xffffffc0005d25f0L'
p916
asg95
Nsg96
Nsg97
S'a66295c73cc4fad3aa14c238a48b7fef'
p917
sg99
S'4c64f4b0372e5e08926b1bb5fe3f4ced'
p918
sg101
(lp919
g882
ag889
ag896
ag270
asg103
Nsba(ibclass
BBasicBlock
p920
(dp921
g12
Nsg13
(lp922
(ibclass
BInstr
p923
(dp924
g2
Nsg17
S'LDRB            W0, [X19,#0x9D]'
p925
sg19
S'60764239'
p926
sg21
Vldrb w0, [x19, #0x9d]
p927
sg5
L18446743798837749192L
sg6
Nsg23
S'LDR'
p928
sg25
S'0xffffffc0005d25c8L'
p929
sg27
Nsba(ibclass
BInstr
p930
(dp931
g2
Nsg17
S'CBZ             W0, loc_FFFFFFC0005D25DC'
p932
sg19
S'80000034'
p933
sg21
Vcbz w0, #0x10
p934
sg5
L18446743798837749196L
sg6
Nsg23
S'CBZ'
p935
sg25
S'0xffffffc0005d25ccL'
p936
sg27
Nsbasg77
(lp937
S'LDRB reg, mem'
p938
aS'CBZ reg, func'
p939
asg87
Nsg5
S'0xffffffc0005d25c8L'
p940
sg89
(lp941
S'0xffffffc0005d255cL'
p942
asg6
Nsg91
(lp943
S'0xffffffc0005d25d0L'
p944
aS'0xffffffc0005d25dcL'
p945
asg95
Nsg96
Nsg97
S'a0c488049ab653dbdfa1dc805bb83f13'
p946
sg99
S'b1e37b9f660dcea597f0caebd1994bf4'
p947
sg101
(lp948
g928
ag935
asg103
Nsba(ibclass
BBasicBlock
p949
(dp950
g12
Nsg13
(lp951
(ibclass
BInstr
p952
(dp953
g2
Nsg17
S'MOV             X0, X19'
p954
sg19
S'e00313aa'
p955
sg21
Vmov x0, x19
p956
sg5
L18446743798837749200L
sg6
Nsg23
S'MOV'
p957
sg25
S'0xffffffc0005d25d0L'
p958
sg27
Nsba(ibclass
BInstr
p959
(dp960
g2
Nsg17
S'MOV             W1, #1'
p961
sg19
S'21008052'
p962
sg21
Vmovz w1, #0x1
p963
sg5
L18446743798837749204L
sg6
Nsg23
S'MOV'
p964
sg25
S'0xffffffc0005d25d4L'
p965
sg27
Nsba(ibclass
BInstr
p966
(dp967
g2
Nsg17
S'BL              qsee_disable_clock_vote'
p968
sg19
S'cbf6ff97'
p969
sg21
Vbl #0xffffffffffffdb2c
p970
sg5
L18446743798837749208L
sg6
Nsg23
S'BL'
p971
sg25
S'0xffffffc0005d25d8L'
p972
sg27
Nsbasg77
(lp973
S'MOV reg, reg9'
p974
aS'MOV reg, #1'
p975
aS'BL qsee_disable_clock_vote'
p976
asg87
Nsg5
S'0xffffffc0005d25d0L'
p977
sg89
(lp978
S'0xffffffc0005d25c8L'
p979
asg6
Nsg91
(lp980
S'0xffffffc0005d25dcL'
p981
asg95
Nsg96
Nsg97
S'd0b32617f7e4cfc169d92597b8aefd43'
p982
sg99
S'd118ff7e4da1d4efc8fcb4d0116ebf85'
p983
sg101
(lp984
g957
ag964
ag971
asg103
Nsba(ibclass
BBasicBlock
p985
(dp986
g12
Nsg13
(lp987
(ibclass
BInstr
p988
(dp989
g2
Nsg17
S'LDRB            W0, [X19,#0x9C]'
p990
sg19
S'60724239'
p991
sg21
Vldrb w0, [x19, #0x9c]
p992
sg5
L18446743798837749212L
sg6
Nsg23
S'LDR'
p993
sg25
S'0xffffffc0005d25dcL'
p994
sg27
Nsba(ibclass
BInstr
p995
(dp996
g2
Nsg17
S'CBZ             W0, loc_FFFFFFC0005D25F0'
p997
sg19
S'80000034'
p998
sg21
Vcbz w0, #0x10
p999
sg5
L18446743798837749216L
sg6
Nsg23
S'CBZ'
p1000
sg25
S'0xffffffc0005d25e0L'
p1001
sg27
Nsbasg77
(lp1002
S'LDRB reg, mem'
p1003
aS'CBZ reg, func'
p1004
asg87
Nsg5
S'0xffffffc0005d25dcL'
p1005
sg89
(lp1006
S'0xffffffc0005d25c8L'
p1007
aS'0xffffffc0005d25d0L'
p1008
asg6
Nsg91
(lp1009
S'0xffffffc0005d25e4L'
p1010
aS'0xffffffc0005d25f0L'
p1011
asg95
Nsg96
Nsg97
S'a0c488049ab653dbdfa1dc805bb83f13'
p1012
sg99
S'b1e37b9f660dcea597f0caebd1994bf4'
p1013
sg101
(lp1014
g993
ag1000
asg103
Nsba(ibclass
BBasicBlock
p1015
(dp1016
g12
Nsg13
(lp1017
(ibclass
BInstr
p1018
(dp1019
g2
Nsg17
S'MOV             X0, X19'
p1020
sg19
S'e00313aa'
p1021
sg21
Vmov x0, x19
p1022
sg5
L18446743798837749220L
sg6
Nsg23
S'MOV'
p1023
sg25
S'0xffffffc0005d25e4L'
p1024
sg27
Nsba(ibclass
BInstr
p1025
(dp1026
g2
Nsg17
S'MOV             W1, #0'
p1027
sg19
S'01008052'
p1028
sg21
Vmovz w1, #0
p1029
sg5
L18446743798837749224L
sg6
Nsg23
S'MOV'
p1030
sg25
S'0xffffffc0005d25e8L'
p1031
sg27
Nsba(ibclass
BInstr
p1032
(dp1033
g2
Nsg17
S'BL              qsee_disable_clock_vote'
p1034
sg19
S'c6f6ff97'
p1035
sg21
Vbl #0xffffffffffffdb18
p1036
sg5
L18446743798837749228L
sg6
Nsg23
S'BL'
p1037
sg25
S'0xffffffc0005d25ecL'
p1038
sg27
Nsbasg77
(lp1039
S'MOV reg, reg9'
p1040
aS'MOV reg, #0'
p1041
aS'BL qsee_disable_clock_vote'
p1042
asg87
Nsg5
S'0xffffffc0005d25e4L'
p1043
sg89
(lp1044
S'0xffffffc0005d25dcL'
p1045
asg6
Nsg91
(lp1046
S'0xffffffc0005d25f0L'
p1047
asg95
Nsg96
Nsg97
S'd0b32617f7e4cfc169d92597b8aefd43'
p1048
sg99
S'3fbdb0bd02212ef54a73b4764e4a770e'
p1049
sg101
(lp1050
g1023
ag1030
ag1037
asg103
Nsba(ibclass
BBasicBlock
p1051
(dp1052
g12
Nsg13
(lp1053
(ibclass
BInstr
p1054
(dp1055
g2
Nsg17
S'MOV             X0, X19'
p1056
sg19
S'e00313aa'
p1057
sg21
Vmov x0, x19
p1058
sg5
L18446743798837749232L
sg6
Nsg23
S'MOV'
p1059
sg25
S'0xffffffc0005d25f0L'
p1060
sg27
Nsba(ibclass
BInstr
p1061
(dp1062
g2
Nsg17
S'BL              kfree'
p1063
sg19
S'b382f497'
p1064
sg21
Vbl #0xffffffffffd20acc
p1065
sg5
L18446743798837749236L
sg6
Nsg23
S'BL'
p1066
sg25
S'0xffffffc0005d25f4L'
p1067
sg27
Nsba(ibclass
BInstr
p1068
(dp1069
g2
Nsg17
S'MOV             W0, W20'
p1070
sg19
S'e003142a'
p1071
sg21
Vmov w0, w20
p1072
sg5
L18446743798837749240L
sg6
Nsg23
S'MOV'
p1073
sg25
S'0xffffffc0005d25f8L'
p1074
sg27
Nsba(ibclass
BInstr
p1075
(dp1076
g2
Nsg17
S'LDP             X21, X22, [SP,#0x20+var_s0]'
p1077
sg19
S'f55b42a9'
p1078
sg21
Vldp x21, x22, [sp, #0x20]
p1079
sg5
L18446743798837749244L
sg6
Nsg23
S'LDP'
p1080
sg25
S'0xffffffc0005d25fcL'
p1081
sg27
Nsba(ibclass
BInstr
p1082
(dp1083
g2
Nsg17
S'LDP             X19, X20, [SP,#0x20+var_10]'
p1084
sg19
S'f35341a9'
p1085
sg21
Vldp x19, x20, [sp, #0x10]
p1086
sg5
L18446743798837749248L
sg6
Nsg23
S'LDP'
p1087
sg25
S'0xffffffc0005d2600L'
p1088
sg27
Nsba(ibclass
BInstr
p1089
(dp1090
g2
Nsg17
S'LDP             X29, X30, [SP+0x20+var_20],#0x30'
p1091
sg19
S'fd7bc3a8'
p1092
sg21
Vldp x29, x30, [sp], #0x30
p1093
sg5
L18446743798837749252L
sg6
Nsg23
S'LDP'
p1094
sg25
S'0xffffffc0005d2604L'
p1095
sg27
Nsba(ibclass
BInstr
p1096
(dp1097
g2
Nsg17
S'RET'
p1098
sg19
S'c0035fd6'
p1099
sg21
Vret 
p1100
sg5
L18446743798837749256L
sg6
Nsg23
S'RET'
p1101
sg25
S'0xffffffc0005d2608L'
p1102
sg27
Nsbasg77
(lp1103
S'MOV reg, reg9'
p1104
aS'BL kfree'
p1105
aS'MOV reg, reg0'
p1106
aS'LDP reg1, reg2, mem'
p1107
aS'LDP reg9, reg0, mem'
p1108
aS'LDP reg9, reg0, mem,#0x30'
p1109
ag1098
asg87
Nsg5
S'0xffffffc0005d25f0L'
p1110
sg89
(lp1111
S'0xffffffc0005d25b8L'
p1112
aS'0xffffffc0005d25dcL'
p1113
aS'0xffffffc0005d25e4L'
p1114
asg6
Nsg91
(lp1115
sg95
Nsg96
Nsg97
S'0454a5c082b5194d1d73668772b351a8'
p1116
sg99
S'1f64a41265c12b385af816d963a7ccee'
p1117
sg101
(lp1118
g1059
ag1066
ag1073
ag1080
ag1087
ag1094
ag1101
asg103
Nsbasb.