(ibclass
BFunc
p0
(dp1
S'hash'
p2
NsS'name'
p3
S'setattr_copy'
p4
sS'start_address'
p5
L18446743798834859944L
sS'flag'
p6
NsS'program'
p7
NsS'bbs'
p8
(lp9
(ibclass
BBasicBlock
p10
(dp11
S'function'
p12
NsS'binstrs'
p13
(lp14
(ibclass
BInstr
p15
(dp16
g2
NsS'disasm'
p17
S'STP             X29, X30, [SP,#-0x10+var_20]!'
p18
sS'bytes'
p19
S'fd7bbda9'
p20
sS'disasm_striped'
p21
Vstp x29, x30, [sp, #-0x30]!
p22
sg5
L18446743798834859944L
sg6
NsS'mnem'
p23
S'STP'
p24
sS'address'
p25
S'0xffffffc000310fa8L'
p26
sS'basicblock'
p27
Nsba(ibclass
BInstr
p28
(dp29
g2
Nsg17
S'MOV             X29, SP'
p30
sg19
S'fd030091'
p31
sg21
Vmov x29, sp
p32
sg5
L18446743798834859948L
sg6
Nsg23
S'MOV'
p33
sg25
S'0xffffffc000310facL'
p34
sg27
Nsba(ibclass
BInstr
p35
(dp36
g2
Nsg17
S'STP             X19, X20, [SP,#0x20+var_10]'
p37
sg19
S'f35301a9'
p38
sg21
Vstp x19, x20, [sp, #0x10]
p39
sg5
L18446743798834859952L
sg6
Nsg23
S'STP'
p40
sg25
S'0xffffffc000310fb0L'
p41
sg27
Nsba(ibclass
BInstr
p42
(dp43
g2
Nsg17
S'STP             X21, X22, [SP,#0x20+var_s0]'
p44
sg19
S'f55b02a9'
p45
sg21
Vstp x21, x22, [sp, #0x20]
p46
sg5
L18446743798834859956L
sg6
Nsg23
S'STP'
p47
sg25
S'0xffffffc000310fb4L'
p48
sg27
Nsba(ibclass
BInstr
p49
(dp50
g2
Nsg17
S'LDR             W21, [X1]'
p51
sg19
S'350040b9'
p52
sg21
Vldr w21, [x1]
p53
sg5
L18446743798834859960L
sg6
Nsg23
S'LDR'
p54
sg25
S'0xffffffc000310fb8L'
p55
sg27
Nsba(ibclass
BInstr
p56
(dp57
g2
Nsg17
S'MOV             X19, X0'
p58
sg19
S'f30300aa'
p59
sg21
Vmov x19, x0
p60
sg5
L18446743798834859964L
sg6
Nsg23
S'MOV'
p61
sg25
S'0xffffffc000310fbcL'
p62
sg27
Nsba(ibclass
BInstr
p63
(dp64
g2
Nsg17
S'MOV             X20, X1'
p65
sg19
S'f40301aa'
p66
sg21
Vmov x20, x1
p67
sg5
L18446743798834859968L
sg6
Nsg23
S'MOV'
p68
sg25
S'0xffffffc000310fc0L'
p69
sg27
Nsba(ibclass
BInstr
p70
(dp71
g2
Nsg17
S'TBZ             W21, #1, loc_FFFFFFC000310FD0'
p72
sg19
S'75000836'
p73
sg21
Vtbz w21, #1, #0xc
p74
sg5
L18446743798834859972L
sg6
Nsg23
S'TBZ'
p75
sg25
S'0xffffffc000310fc4L'
p76
sg27
NsbasS'disasm_list'
p77
(lp78
S'STP reg9, reg0, mem!'
p79
aS'MOV reg9, SP'
p80
aS'STP reg9, reg0, mem'
p81
aS'STP reg1, reg2, mem'
p82
aS'LDR reg1, mem'
p83
aS'MOV reg9, reg'
p84
aS'MOV reg0, reg'
p85
aS'TBZ reg1, #1, func'
p86
asS'end_address'
p87
Nsg5
S'0xffffffc000310fa8L'
p88
sS'preds'
p89
(lp90
sg6
NsS'succs'
p91
(lp92
S'0xffffffc000310fc8L'
p93
aS'0xffffffc000310fd0L'
p94
asS'hash_v3'
p95
NsS'flag_v2'
p96
NsS'hash_v1'
p97
S'a929f9428ee744610b851fb3a70de674'
p98
sS'hash_v2'
p99
S'2d9ca06d1dad228734273a790addd271'
p100
sS'mnen_list'
p101
(lp102
g24
ag33
ag40
ag47
ag54
ag61
ag68
ag75
asS'neighbour_disasm_list'
p103
Nsba(ibclass
BBasicBlock
p104
(dp105
g12
Nsg13
(lp106
(ibclass
BInstr
p107
(dp108
g2
Nsg17
S'LDR             W0, [X1,#8]'
p109
sg19
S'200840b9'
p110
sg21
Vldr w0, [x1, #8]
p111
sg5
L18446743798834859976L
sg6
Nsg23
S'LDR'
p112
sg25
S'0xffffffc000310fc8L'
p113
sg27
Nsba(ibclass
BInstr
p114
(dp115
g2
Nsg17
S'STR             W0, [X19,#4]'
p116
sg19
S'600600b9'
p117
sg21
Vstr w0, [x19, #4]
p118
sg5
L18446743798834859980L
sg6
Nsg23
S'STR'
p119
sg25
S'0xffffffc000310fccL'
p120
sg27
Nsbasg77
(lp121
S'LDR reg, mem'
p122
aS'STR reg, mem'
p123
asg87
Nsg5
S'0xffffffc000310fc8L'
p124
sg89
(lp125
S'0xffffffc000310fa8L'
p126
asg6
Nsg91
(lp127
S'0xffffffc000310fd0L'
p128
asg95
Nsg96
Nsg97
S'f2c00f06cb6622818f2abed867fd0979'
p129
sg99
S'5d1215ddb27ea48d720bf9012ac521db'
p130
sg101
(lp131
g112
ag119
asg103
Nsba(ibclass
BBasicBlock
p132
(dp133
g12
Nsg13
(lp134
(ibclass
BInstr
p135
(dp136
g2
Nsg17
S'TBZ             W21, #2, loc_FFFFFFC000310FDC'
p137
sg19
S'75001036'
p138
sg21
Vtbz w21, #2, #0xc
p139
sg5
L18446743798834859984L
sg6
Nsg23
S'TBZ'
p140
sg25
S'0xffffffc000310fd0L'
p141
sg27
Nsbasg77
(lp142
S'TBZ reg1, #2, func'
p143
asg87
Nsg5
S'0xffffffc000310fd0L'
p144
sg89
(lp145
S'0xffffffc000310fa8L'
p146
aS'0xffffffc000310fc8L'
p147
asg6
Nsg91
(lp148
S'0xffffffc000310fd4L'
p149
aS'0xffffffc000310fdcL'
p150
asg95
Nsg96
Nsg97
S'b05993cf85beb302c9604086eec65e11'
p151
sg99
S'021734e99a8bb4c3d94d23a01adaf48a'
p152
sg101
(lp153
g140
asg103
Nsba(ibclass
BBasicBlock
p154
(dp155
g12
Nsg13
(lp156
(ibclass
BInstr
p157
(dp158
g2
Nsg17
S'LDR             W0, [X20,#0xC]'
p159
sg19
S'800e40b9'
p160
sg21
Vldr w0, [x20, #0xc]
p161
sg5
L18446743798834859988L
sg6
Nsg23
S'LDR'
p162
sg25
S'0xffffffc000310fd4L'
p163
sg27
Nsba(ibclass
BInstr
p164
(dp165
g2
Nsg17
S'STR             W0, [X19,#8]'
p166
sg19
S'600a00b9'
p167
sg21
Vstr w0, [x19, #8]
p168
sg5
L18446743798834859992L
sg6
Nsg23
S'STR'
p169
sg25
S'0xffffffc000310fd8L'
p170
sg27
Nsbasg77
(lp171
S'LDR reg, mem'
p172
aS'STR reg, mem'
p173
asg87
Nsg5
S'0xffffffc000310fd4L'
p174
sg89
(lp175
S'0xffffffc000310fd0L'
p176
asg6
Nsg91
(lp177
S'0xffffffc000310fdcL'
p178
asg95
Nsg96
Nsg97
S'f2c00f06cb6622818f2abed867fd0979'
p179
sg99
S'5d1215ddb27ea48d720bf9012ac521db'
p180
sg101
(lp181
g162
ag169
asg103
Nsba(ibclass
BBasicBlock
p182
(dp183
g12
Nsg13
(lp184
(ibclass
BInstr
p185
(dp186
g2
Nsg17
S'TBZ             W21, #4, loc_FFFFFFC000310FFC'
p187
sg19
S'15012036'
p188
sg21
Vtbz w21, #4, #0x20
p189
sg5
L18446743798834859996L
sg6
Nsg23
S'TBZ'
p190
sg25
S'0xffffffc000310fdcL'
p191
sg27
Nsbasg77
(lp192
S'TBZ reg1, #4, func'
p193
asg87
Nsg5
S'0xffffffc000310fdcL'
p194
sg89
(lp195
S'0xffffffc000310fd0L'
p196
aS'0xffffffc000310fd4L'
p197
asg6
Nsg91
(lp198
S'0xffffffc000310fe0L'
p199
aS'0xffffffc000310ffcL'
p200
asg95
Nsg96
Nsg97
S'b05993cf85beb302c9604086eec65e11'
p201
sg99
S'2b56f9f0f4b56d531ca7ba6646e9c9e7'
p202
sg101
(lp203
g190
asg103
Nsba(ibclass
BBasicBlock
p204
(dp205
g12
Nsg13
(lp206
(ibclass
BInstr
p207
(dp208
g2
Nsg17
S'LDR             X2, [X19,#0x28]'
p209
sg19
S'621640f9'
p210
sg21
Vldr x2, [x19, #0x28]
p211
sg5
L18446743798834860000L
sg6
Nsg23
S'LDR'
p212
sg25
S'0xffffffc000310fe0L'
p213
sg27
Nsba(ibclass
BInstr
p214
(dp215
g2
Nsg17
S'ADD             X0, X20, #0x18'
p216
sg19
S'80620091'
p217
sg21
Vadd x0, x20, #0x18
p218
sg5
L18446743798834860004L
sg6
Nsg23
S'ADD'
p219
sg25
S'0xffffffc000310fe4L'
p220
sg27
Nsba(ibclass
BInstr
p221
(dp222
g2
Nsg17
S'LDP             X0, X1, [X0]'
p223
sg19
S'000440a9'
p224
sg21
Vldp x0, x1, [x0]
p225
sg5
L18446743798834860008L
sg6
Nsg23
S'LDP'
p226
sg25
S'0xffffffc000310fe8L'
p227
sg27
Nsba(ibclass
BInstr
p228
(dp229
g2
Nsg17
S'LDR             W2, [X2,#0x360]'
p230
sg19
S'426043b9'
p231
sg21
Vldr w2, [x2, #0x360]
p232
sg5
L18446743798834860012L
sg6
Nsg23
S'LDR'
p233
sg25
S'0xffffffc000310fecL'
p234
sg27
Nsba(ibclass
BInstr
p235
(dp236
g2
Nsg17
S'ADD             X22, X19, #0x58'
p237
sg19
S'76620191'
p238
sg21
Vadd x22, x19, #0x58
p239
sg5
L18446743798834860016L
sg6
Nsg23
S'ADD'
p240
sg25
S'0xffffffc000310ff0L'
p241
sg27
Nsba(ibclass
BInstr
p242
(dp243
g2
Nsg17
S'BL              timespec_trunc'
p244
sg19
S'4750fc97'
p245
sg21
Vbl #0xfffffffffff1411c
p246
sg5
L18446743798834860020L
sg6
Nsg23
S'BL'
p247
sg25
S'0xffffffc000310ff4L'
p248
sg27
Nsba(ibclass
BInstr
p249
(dp250
g2
Nsg17
S'STP             X0, X1, [X22]'
p251
sg19
S'c00600a9'
p252
sg21
Vstp x0, x1, [x22]
p253
sg5
L18446743798834860024L
sg6
Nsg23
S'STP'
p254
sg25
S'0xffffffc000310ff8L'
p255
sg27
Nsbasg77
(lp256
S'LDR reg, mem'
p257
aS'ADD reg, reg0, #0x18'
p258
aS'LDP reg, reg, mem'
p259
aS'LDR reg, mem'
p260
aS'ADD reg2, reg9, #0x58'
p261
aS'BL timespec_trunc'
p262
aS'STP reg, reg, mem'
p263
asg87
Nsg5
S'0xffffffc000310fe0L'
p264
sg89
(lp265
S'0xffffffc000310fdcL'
p266
asg6
Nsg91
(lp267
S'0xffffffc000310ffcL'
p268
asg95
Nsg96
Nsg97
S'287a212d7a943e1940f21a41b63489ee'
p269
sg99
S'8ca6ae16bb793e1bc152adcc097c572f'
p270
sg101
(lp271
g212
ag219
ag226
ag233
ag240
ag247
ag254
asg103
Nsba(ibclass
BBasicBlock
p272
(dp273
g12
Nsg13
(lp274
(ibclass
BInstr
p275
(dp276
g2
Nsg17
S'TBZ             W21, #5, loc_FFFFFFC00031101C'
p277
sg19
S'15012836'
p278
sg21
Vtbz w21, #5, #0x20
p279
sg5
L18446743798834860028L
sg6
Nsg23
S'TBZ'
p280
sg25
S'0xffffffc000310ffcL'
p281
sg27
Nsbasg77
(lp282
S'TBZ reg1, #5, func'
p283
asg87
Nsg5
S'0xffffffc000310ffcL'
p284
sg89
(lp285
S'0xffffffc000310fdcL'
p286
aS'0xffffffc000310fe0L'
p287
asg6
Nsg91
(lp288
S'0xffffffc000311000L'
p289
aS'0xffffffc00031101cL'
p290
asg95
Nsg96
Nsg97
S'b05993cf85beb302c9604086eec65e11'
p291
sg99
S'dfc67c04dff8142b5f7126da9101f967'
p292
sg101
(lp293
g280
asg103
Nsba(ibclass
BBasicBlock
p294
(dp295
g12
Nsg13
(lp296
(ibclass
BInstr
p297
(dp298
g2
Nsg17
S'LDR             X2, [X19,#0x28]'
p299
sg19
S'621640f9'
p300
sg21
Vldr x2, [x19, #0x28]
p301
sg5
L18446743798834860032L
sg6
Nsg23
S'LDR'
p302
sg25
S'0xffffffc000311000L'
p303
sg27
Nsba(ibclass
BInstr
p304
(dp305
g2
Nsg17
S'ADD             X0, X20, #0x28'
p306
sg19
S'80a20091'
p307
sg21
Vadd x0, x20, #0x28
p308
sg5
L18446743798834860036L
sg6
Nsg23
S'ADD'
p309
sg25
S'0xffffffc000311004L'
p310
sg27
Nsba(ibclass
BInstr
p311
(dp312
g2
Nsg17
S'LDP             X0, X1, [X0]'
p313
sg19
S'000440a9'
p314
sg21
Vldp x0, x1, [x0]
p315
sg5
L18446743798834860040L
sg6
Nsg23
S'LDP'
p316
sg25
S'0xffffffc000311008L'
p317
sg27
Nsba(ibclass
BInstr
p318
(dp319
g2
Nsg17
S'LDR             W2, [X2,#0x360]'
p320
sg19
S'426043b9'
p321
sg21
Vldr w2, [x2, #0x360]
p322
sg5
L18446743798834860044L
sg6
Nsg23
S'LDR'
p323
sg25
S'0xffffffc00031100cL'
p324
sg27
Nsba(ibclass
BInstr
p325
(dp326
g2
Nsg17
S'ADD             X22, X19, #0x68'
p327
sg19
S'76a20191'
p328
sg21
Vadd x22, x19, #0x68
p329
sg5
L18446743798834860048L
sg6
Nsg23
S'ADD'
p330
sg25
S'0xffffffc000311010L'
p331
sg27
Nsba(ibclass
BInstr
p332
(dp333
g2
Nsg17
S'BL              timespec_trunc'
p334
sg19
S'3f50fc97'
p335
sg21
Vbl #0xfffffffffff140fc
p336
sg5
L18446743798834860052L
sg6
Nsg23
S'BL'
p337
sg25
S'0xffffffc000311014L'
p338
sg27
Nsba(ibclass
BInstr
p339
(dp340
g2
Nsg17
S'STP             X0, X1, [X22]'
p341
sg19
S'c00600a9'
p342
sg21
Vstp x0, x1, [x22]
p343
sg5
L18446743798834860056L
sg6
Nsg23
S'STP'
p344
sg25
S'0xffffffc000311018L'
p345
sg27
Nsbasg77
(lp346
S'LDR reg, mem'
p347
aS'ADD reg, reg0, #0x28'
p348
aS'LDP reg, reg, mem'
p349
aS'LDR reg, mem'
p350
aS'ADD reg2, reg9, #0x68'
p351
aS'BL timespec_trunc'
p352
aS'STP reg, reg, mem'
p353
asg87
Nsg5
S'0xffffffc000311000L'
p354
sg89
(lp355
S'0xffffffc000310ffcL'
p356
asg6
Nsg91
(lp357
S'0xffffffc00031101cL'
p358
asg95
Nsg96
Nsg97
S'287a212d7a943e1940f21a41b63489ee'
p359
sg99
S'a7067ee17fadadf74ead59eba717cf3f'
p360
sg101
(lp361
g302
ag309
ag316
ag323
ag330
ag337
ag344
asg103
Nsba(ibclass
BBasicBlock
p362
(dp363
g12
Nsg13
(lp364
(ibclass
BInstr
p365
(dp366
g2
Nsg17
S'TBZ             W21, #6, loc_FFFFFFC00031103C'
p367
sg19
S'15013036'
p368
sg21
Vtbz w21, #6, #0x20
p369
sg5
L18446743798834860060L
sg6
Nsg23
S'TBZ'
p370
sg25
S'0xffffffc00031101cL'
p371
sg27
Nsbasg77
(lp372
S'TBZ reg1, #6, func'
p373
asg87
Nsg5
S'0xffffffc00031101cL'
p374
sg89
(lp375
S'0xffffffc000310ffcL'
p376
aS'0xffffffc000311000L'
p377
asg6
Nsg91
(lp378
S'0xffffffc000311020L'
p379
aS'0xffffffc00031103cL'
p380
asg95
Nsg96
Nsg97
S'b05993cf85beb302c9604086eec65e11'
p381
sg99
S'a141d9c9f032f7d2587b2509a45f16bc'
p382
sg101
(lp383
g370
asg103
Nsba(ibclass
BBasicBlock
p384
(dp385
g12
Nsg13
(lp386
(ibclass
BInstr
p387
(dp388
g2
Nsg17
S'LDR             X2, [X19,#0x28]'
p389
sg19
S'621640f9'
p390
sg21
Vldr x2, [x19, #0x28]
p391
sg5
L18446743798834860064L
sg6
Nsg23
S'LDR'
p392
sg25
S'0xffffffc000311020L'
p393
sg27
Nsba(ibclass
BInstr
p394
(dp395
g2
Nsg17
S'ADD             X0, X20, #0x38'
p396
sg19
S'80e20091'
p397
sg21
Vadd x0, x20, #0x38
p398
sg5
L18446743798834860068L
sg6
Nsg23
S'ADD'
p399
sg25
S'0xffffffc000311024L'
p400
sg27
Nsba(ibclass
BInstr
p401
(dp402
g2
Nsg17
S'LDP             X0, X1, [X0]'
p403
sg19
S'000440a9'
p404
sg21
Vldp x0, x1, [x0]
p405
sg5
L18446743798834860072L
sg6
Nsg23
S'LDP'
p406
sg25
S'0xffffffc000311028L'
p407
sg27
Nsba(ibclass
BInstr
p408
(dp409
g2
Nsg17
S'LDR             W2, [X2,#0x360]'
p410
sg19
S'426043b9'
p411
sg21
Vldr w2, [x2, #0x360]
p412
sg5
L18446743798834860076L
sg6
Nsg23
S'LDR'
p413
sg25
S'0xffffffc00031102cL'
p414
sg27
Nsba(ibclass
BInstr
p415
(dp416
g2
Nsg17
S'ADD             X22, X19, #0x78'
p417
sg19
S'76e20191'
p418
sg21
Vadd x22, x19, #0x78
p419
sg5
L18446743798834860080L
sg6
Nsg23
S'ADD'
p420
sg25
S'0xffffffc000311030L'
p421
sg27
Nsba(ibclass
BInstr
p422
(dp423
g2
Nsg17
S'BL              timespec_trunc'
p424
sg19
S'3750fc97'
p425
sg21
Vbl #0xfffffffffff140dc
p426
sg5
L18446743798834860084L
sg6
Nsg23
S'BL'
p427
sg25
S'0xffffffc000311034L'
p428
sg27
Nsba(ibclass
BInstr
p429
(dp430
g2
Nsg17
S'STP             X0, X1, [X22]'
p431
sg19
S'c00600a9'
p432
sg21
Vstp x0, x1, [x22]
p433
sg5
L18446743798834860088L
sg6
Nsg23
S'STP'
p434
sg25
S'0xffffffc000311038L'
p435
sg27
Nsbasg77
(lp436
S'LDR reg, mem'
p437
aS'ADD reg, reg0, #0x38'
p438
aS'LDP reg, reg, mem'
p439
aS'LDR reg, mem'
p440
aS'ADD reg2, reg9, #0x78'
p441
aS'BL timespec_trunc'
p442
aS'STP reg, reg, mem'
p443
asg87
Nsg5
S'0xffffffc000311020L'
p444
sg89
(lp445
S'0xffffffc00031101cL'
p446
asg6
Nsg91
(lp447
S'0xffffffc00031103cL'
p448
asg95
Nsg96
Nsg97
S'287a212d7a943e1940f21a41b63489ee'
p449
sg99
S'29ce23c2c0ab10f5b2e2ecb428f2ec69'
p450
sg101
(lp451
g392
ag399
ag406
ag413
ag420
ag427
ag434
asg103
Nsba(ibclass
BBasicBlock
p452
(dp453
g12
Nsg13
(lp454
(ibclass
BInstr
p455
(dp456
g2
Nsg17
S'TBZ             W21, #0, loc_FFFFFFC000311070'
p457
sg19
S'b5010036'
p458
sg21
Vtbz w21, #0, #0x34
p459
sg5
L18446743798834860092L
sg6
Nsg23
S'TBZ'
p460
sg25
S'0xffffffc00031103cL'
p461
sg27
Nsbasg77
(lp462
S'TBZ reg1, #0, func'
p463
asg87
Nsg5
S'0xffffffc00031103cL'
p464
sg89
(lp465
S'0xffffffc00031101cL'
p466
aS'0xffffffc000311020L'
p467
asg6
Nsg91
(lp468
S'0xffffffc000311040L'
p469
aS'0xffffffc000311070L'
p470
asg95
Nsg96
Nsg97
S'b05993cf85beb302c9604086eec65e11'
p471
sg99
S'19200af94481c363e47fd78b8b23254c'
p472
sg101
(lp473
g460
asg103
Nsba(ibclass
BBasicBlock
p474
(dp475
g12
Nsg13
(lp476
(ibclass
BInstr
p477
(dp478
g2
Nsg17
S'LDR             W0, [X19,#8]'
p479
sg19
S'600a40b9'
p480
sg21
Vldr w0, [x19, #8]
p481
sg5
L18446743798834860096L
sg6
Nsg23
S'LDR'
p482
sg25
S'0xffffffc000311040L'
p483
sg27
Nsba(ibclass
BInstr
p484
(dp485
g2
Nsg17
S'LDRH            W20, [X20,#4]'
p486
sg19
S'940a4079'
p487
sg21
Vldrh w20, [x20, #4]
p488
sg5
L18446743798834860100L
sg6
Nsg23
S'LDR'
p489
sg25
S'0xffffffc000311044L'
p490
sg27
Nsba(ibclass
BInstr
p491
(dp492
g2
Nsg17
S'BL              in_group_p'
p493
sg19
S'ced5fc97'
p494
sg21
Vbl #0xfffffffffff35738
p495
sg5
L18446743798834860104L
sg6
Nsg23
S'BL'
p496
sg25
S'0xffffffc000311048L'
p497
sg27
Nsba(ibclass
BInstr
p498
(dp499
g2
Nsg17
S'CBNZ            W0, loc_FFFFFFC00031106C'
p500
sg19
S'00010035'
p501
sg21
Vcbnz w0, #0x20
p502
sg5
L18446743798834860108L
sg6
Nsg23
S'CBNZ'
p503
sg25
S'0xffffffc00031104cL'
p504
sg27
Nsbasg77
(lp505
S'LDR reg, mem'
p506
aS'LDRH reg0, mem'
p507
aS'BL in_group_p'
p508
aS'CBNZ reg, func'
p509
asg87
Nsg5
S'0xffffffc000311040L'
p510
sg89
(lp511
S'0xffffffc00031103cL'
p512
asg6
Nsg91
(lp513
S'0xffffffc000311050L'
p514
aS'0xffffffc00031106cL'
p515
asg95
Nsg96
Nsg97
S'a1ad25acefd736a937a1f5cfff705552'
p516
sg99
S'0e7f92edc13d6dba3adbb95ee7a9c12f'
p517
sg101
(lp518
g482
ag489
ag496
ag503
asg103
Nsba(ibclass
BBasicBlock
p519
(dp520
g12
Nsg13
(lp521
(ibclass
BInstr
p522
(dp523
g2
Nsg17
S'MOV             X0, X19'
p524
sg19
S'e00313aa'
p525
sg21
Vmov x0, x19
p526
sg5
L18446743798834860112L
sg6
Nsg23
S'MOV'
p527
sg25
S'0xffffffc000311050L'
p528
sg27
Nsba(ibclass
BInstr
p529
(dp530
g2
Nsg17
S'MOV             W1, #4'
p531
sg19
S'81008052'
p532
sg21
Vmovz w1, #0x4
p533
sg5
L18446743798834860116L
sg6
Nsg23
S'MOV'
p534
sg25
S'0xffffffc000311054L'
p535
sg27
Nsba(ibclass
BInstr
p536
(dp537
g2
Nsg17
S'BL              capable_wrt_inode_uidgid'
p538
sg19
S'fb62fc97'
p539
sg21
Vbl #0xfffffffffff18bec
p540
sg5
L18446743798834860120L
sg6
Nsg23
S'BL'
p541
sg25
S'0xffffffc000311058L'
p542
sg27
Nsba(ibclass
BInstr
p543
(dp544
g2
Nsg17
S'UBFM            W0, W0, #0, #7'
p545
sg19
S'001c0053'
p546
sg21
Vuxtb w0, w0
p547
sg5
L18446743798834860124L
sg6
Nsg23
S'UBFM'
p548
sg25
S'0xffffffc00031105cL'
p549
sg27
Nsba(ibclass
BInstr
p550
(dp551
g2
Nsg17
S'CBNZ            W0, loc_FFFFFFC00031106C'
p552
sg19
S'60000035'
p553
sg21
Vcbnz w0, #0xc
p554
sg5
L18446743798834860128L
sg6
Nsg23
S'CBNZ'
p555
sg25
S'0xffffffc000311060L'
p556
sg27
Nsbasg77
(lp557
S'MOV reg, reg9'
p558
aS'MOV reg, #4'
p559
aS'BL capable_wrt_inode_uidgid'
p560
aS'UBFM reg, reg, #0, #7'
p561
aS'CBNZ reg, func'
p562
asg87
Nsg5
S'0xffffffc000311050L'
p563
sg89
(lp564
S'0xffffffc000311040L'
p565
asg6
Nsg91
(lp566
S'0xffffffc000311064L'
p567
aS'0xffffffc00031106cL'
p568
asg95
Nsg96
Nsg97
S'6a696c0c32c6ab16f6e5e5488be84de6'
p569
sg99
S'b36b1e924777b590180baef051894f7c'
p570
sg101
(lp571
g527
ag534
ag541
ag548
ag555
asg103
Nsba(ibclass
BBasicBlock
p572
(dp573
g12
Nsg13
(lp574
(ibclass
BInstr
p575
(dp576
g2
Nsg17
S'AND             W20, W20, #0xFFFFFBFF'
p577
sg19
S'947a1512'
p578
sg21
Vand w20, w20, #0xfffffbff
p579
sg5
L18446743798834860132L
sg6
Nsg23
S'AND'
p580
sg25
S'0xffffffc000311064L'
p581
sg27
Nsba(ibclass
BInstr
p582
(dp583
g2
Nsg17
S'UBFM            W20, W20, #0, #0xF'
p584
sg19
S'943e0053'
p585
sg21
Vuxth w20, w20
p586
sg5
L18446743798834860136L
sg6
Nsg23
S'UBFM'
p587
sg25
S'0xffffffc000311068L'
p588
sg27
Nsbasg77
(lp589
S'AND reg0, reg0, #0xFFFFFBFF'
p590
aS'UBFM reg0, reg0, #0, #0xF'
p591
asg87
Nsg5
S'0xffffffc000311064L'
p592
sg89
(lp593
S'0xffffffc000311050L'
p594
asg6
Nsg91
(lp595
S'0xffffffc00031106cL'
p596
asg95
Nsg96
Nsg97
S'3c2d1599c77fe9fd5df1c0ac90cb42e9'
p597
sg99
S'8432247a9c958dc6bbe4365d6a0882e8'
p598
sg101
(lp599
g580
ag587
asg103
Nsba(ibclass
BBasicBlock
p600
(dp601
g12
Nsg13
(lp602
(ibclass
BInstr
p603
(dp604
g2
Nsg17
S'STRH            W20, [X19]'
p605
sg19
S'74020079'
p606
sg21
Vstrh w20, [x19]
p607
sg5
L18446743798834860140L
sg6
Nsg23
S'STR'
p608
sg25
S'0xffffffc00031106cL'
p609
sg27
Nsbasg77
(lp610
S'STRH reg0, mem'
p611
asg87
Nsg5
S'0xffffffc00031106cL'
p612
sg89
(lp613
S'0xffffffc000311040L'
p614
aS'0xffffffc000311050L'
p615
aS'0xffffffc000311064L'
p616
asg6
Nsg91
(lp617
S'0xffffffc000311070L'
p618
asg95
Nsg96
Nsg97
S'3fe0dfff438296bb525e0e8642586c2d'
p619
sg99
S'22efe33596cfe09b31a4d0ac0a3c7433'
p620
sg101
(lp621
g608
asg103
Nsba(ibclass
BBasicBlock
p622
(dp623
g12
Nsg13
(lp624
(ibclass
BInstr
p625
(dp626
g2
Nsg17
S'LDP             X19, X20, [SP,#0x20+var_10]'
p627
sg19
S'f35341a9'
p628
sg21
Vldp x19, x20, [sp, #0x10]
p629
sg5
L18446743798834860144L
sg6
Nsg23
S'LDP'
p630
sg25
S'0xffffffc000311070L'
p631
sg27
Nsba(ibclass
BInstr
p632
(dp633
g2
Nsg17
S'LDP             X21, X22, [SP,#0x20+var_s0]'
p634
sg19
S'f55b42a9'
p635
sg21
Vldp x21, x22, [sp, #0x20]
p636
sg5
L18446743798834860148L
sg6
Nsg23
S'LDP'
p637
sg25
S'0xffffffc000311074L'
p638
sg27
Nsba(ibclass
BInstr
p639
(dp640
g2
Nsg17
S'LDP             X29, X30, [SP+0x20+var_20],#0x30'
p641
sg19
S'fd7bc3a8'
p642
sg21
Vldp x29, x30, [sp], #0x30
p643
sg5
L18446743798834860152L
sg6
Nsg23
S'LDP'
p644
sg25
S'0xffffffc000311078L'
p645
sg27
Nsba(ibclass
BInstr
p646
(dp647
g2
Nsg17
S'RET'
p648
sg19
S'c0035fd6'
p649
sg21
Vret 
p650
sg5
L18446743798834860156L
sg6
Nsg23
S'RET'
p651
sg25
S'0xffffffc00031107cL'
p652
sg27
Nsbasg77
(lp653
S'LDP reg9, reg0, mem'
p654
aS'LDP reg1, reg2, mem'
p655
aS'LDP reg9, reg0, mem,#0x30'
p656
ag648
asg87
Nsg5
S'0xffffffc000311070L'
p657
sg89
(lp658
S'0xffffffc00031103cL'
p659
aS'0xffffffc00031106cL'
p660
asg6
Nsg91
(lp661
sg95
Nsg96
Nsg97
S'e506acdec8f0d1b80ba12a70d6d398f7'
p662
sg99
S'3ac81bdcde4eb0fd97ff7d602d4ab967'
p663
sg101
(lp664
g630
ag637
ag644
ag651
asg103
Nsbasb.