(ibclass
BFunc
p0
(dp1
S'hash'
p2
NsS'name'
p3
S'venus_hfi_power_enable'
p4
sS'start_address'
p5
L18446743798839755420L
sS'flag'
p6
NsS'program'
p7
NsS'bbs'
p8
(lp9
(ibclass
BBasicBlock
p10
(dp11
S'function'
p12
NsS'binstrs'
p13
(lp14
(ibclass
BInstr
p15
(dp16
g2
NsS'disasm'
p17
S'STP             X29, X30, [SP,#-0x10+var_10]!'
p18
sS'bytes'
p19
S'fd7bbea9'
p20
sS'disasm_striped'
p21
Vstp x29, x30, [sp, #-0x20]!
p22
sg5
L18446743798839755420L
sg6
NsS'mnem'
p23
S'STP'
p24
sS'address'
p25
S'0xffffffc0007bc29cL'
p26
sS'basicblock'
p27
Nsba(ibclass
BInstr
p28
(dp29
g2
Nsg17
S'MOV             X29, SP'
p30
sg19
S'fd030091'
p31
sg21
Vmov x29, sp
p32
sg5
L18446743798839755424L
sg6
Nsg23
S'MOV'
p33
sg25
S'0xffffffc0007bc2a0L'
p34
sg27
Nsba(ibclass
BInstr
p35
(dp36
g2
Nsg17
S'STR             X19, [SP,#0x10+var_s0]'
p37
sg19
S'f30b00f9'
p38
sg21
Vstr x19, [sp, #0x10]
p39
sg5
L18446743798839755428L
sg6
Nsg23
S'STR'
p40
sg25
S'0xffffffc0007bc2a4L'
p41
sg27
Nsba(ibclass
BInstr
p42
(dp43
g2
Nsg17
S'MOV             X2, X0'
p44
sg19
S'e20300aa'
p45
sg21
Vmov x2, x0
p46
sg5
L18446743798839755432L
sg6
Nsg23
S'MOV'
p47
sg25
S'0xffffffc0007bc2a8L'
p48
sg27
Nsba(ibclass
BInstr
p49
(dp50
g2
Nsg17
S'CBNZ            X0, loc_FFFFFFC0007BC2EC'
p51
sg19
S'000200b5'
p52
sg21
Vcbnz x0, #0x40
p53
sg5
L18446743798839755436L
sg6
Nsg23
S'CBNZ'
p54
sg25
S'0xffffffc0007bc2acL'
p55
sg27
NsbasS'disasm_list'
p56
(lp57
S'STP reg9, reg0, mem!'
p58
aS'MOV reg9, SP'
p59
aS'STR reg9, mem'
p60
aS'MOV reg, reg'
p61
aS'CBNZ reg, func'
p62
asS'end_address'
p63
Nsg5
S'0xffffffc0007bc29cL'
p64
sS'preds'
p65
(lp66
sg6
NsS'succs'
p67
(lp68
S'0xffffffc0007bc2b0L'
p69
aS'0xffffffc0007bc2ecL'
p70
asS'hash_v3'
p71
NsS'flag_v2'
p72
NsS'hash_v1'
p73
S'50eed03d057bf7fac4c210acc8b85c39'
p74
sS'hash_v2'
p75
S'65152969b5ae3f8ee989757fc5333782'
p76
sS'mnen_list'
p77
(lp78
g24
ag33
ag40
ag47
ag54
asS'neighbour_disasm_list'
p79
Nsba(ibclass
BBasicBlock
p80
(dp81
g12
Nsg13
(lp82
(ibclass
BInstr
p83
(dp84
g2
Nsg17
S'ADRP            X0, #qword_FFFFFFC000E4A8A0@PAGE'
p85
sg19
S'603400d0'
p86
sg21
Vadrp x0, #0x68e000
p87
sg5
L18446743798839755440L
sg6
Nsg23
S'ADRP'
p88
sg25
S'0xffffffc0007bc2b0L'
p89
sg27
Nsba(ibclass
BInstr
p90
(dp91
g2
Nsg17
S'LDR             X0, [X0,#qword_FFFFFFC000E4A8A0@PAGEOFF]'
p92
sg19
S'005044f9'
p93
sg21
Vldr x0, [x0, #0x8a0]
p94
sg5
L18446743798839755444L
sg6
Nsg23
S'LDR'
p95
sg25
S'0xffffffc0007bc2b4L'
p96
sg27
Nsba(ibclass
BInstr
p97
(dp98
g2
Nsg17
S'LDR             W0, [X0]'
p99
sg19
S'000040b9'
p100
sg21
Vldr w0, [x0]
p101
sg5
L18446743798839755448L
sg6
Nsg23
S'LDR'
p102
sg25
S'0xffffffc0007bc2b8L'
p103
sg27
Nsba(ibclass
BInstr
p104
(dp105
g2
Nsg17
S'TBZ             W0, #0, loc_FFFFFFC0007BC2F8'
p106
sg19
S'e0010036'
p107
sg21
Vtbz w0, #0, #0x3c
p108
sg5
L18446743798839755452L
sg6
Nsg23
S'TBZ'
p109
sg25
S'0xffffffc0007bc2bcL'
p110
sg27
Nsbasg56
(lp111
S'ADRP reg, #func@PAGE'
p112
aS'LDR reg, mem'
p113
aS'LDR reg, mem'
p114
aS'TBZ reg, #0, func'
p115
asg63
Nsg5
S'0xffffffc0007bc2b0L'
p116
sg65
(lp117
S'0xffffffc0007bc29cL'
p118
asg6
Nsg67
(lp119
S'0xffffffc0007bc2c0L'
p120
aS'0xffffffc0007bc2f8L'
p121
asg71
Nsg72
Nsg73
S'2de94c9e326481f2f467f11acce8dcc9'
p122
sg75
S'f9f7225e2bae36aff04e5d93bafe5e1d'
p123
sg77
(lp124
g88
ag95
ag102
ag109
asg79
Nsba(ibclass
BBasicBlock
p125
(dp126
g12
Nsg13
(lp127
(ibclass
BInstr
p128
(dp129
g2
Nsg17
S'ADRP            X0, #qword_FFFFFFC000E48D48@PAGE'
p130
sg19
S'60340090'
p131
sg21
Vadrp x0, #0x68c000
p132
sg5
L18446743798839755456L
sg6
Nsg23
S'ADRP'
p133
sg25
S'0xffffffc0007bc2c0L'
p134
sg27
Nsba(ibclass
BInstr
p135
(dp136
g2
Nsg17
S'LDR             X0, [X0,#qword_FFFFFFC000E48D48@PAGEOFF]'
p137
sg19
S'00a446f9'
p138
sg21
Vldr x0, [x0, #0xd48]
p139
sg5
L18446743798839755460L
sg6
Nsg23
S'LDR'
p140
sg25
S'0xffffffc0007bc2c4L'
p141
sg27
Nsba(ibclass
BInstr
p142
(dp143
g2
Nsg17
S'MOV             W19, #0xFFFFFFEA'
p144
sg19
S'b3028012'
p145
sg21
Vmovn w19, #0x15
p146
sg5
L18446743798839755464L
sg6
Nsg23
S'MOV'
p147
sg25
S'0xffffffc0007bc2c8L'
p148
sg27
Nsba(ibclass
BInstr
p149
(dp150
g2
Nsg17
S'LDR             W0, [X0]'
p151
sg19
S'000040b9'
p152
sg21
Vldr w0, [x0]
p153
sg5
L18446743798839755468L
sg6
Nsg23
S'LDR'
p154
sg25
S'0xffffffc0007bc2ccL'
p155
sg27
Nsba(ibclass
BInstr
p156
(dp157
g2
Nsg17
S'CBNZ            W0, loc_FFFFFFC0007BC2FC'
p158
sg19
S'60010035'
p159
sg21
Vcbnz w0, #0x2c
p160
sg5
L18446743798839755472L
sg6
Nsg23
S'CBNZ'
p161
sg25
S'0xffffffc0007bc2d0L'
p162
sg27
Nsbasg56
(lp163
S'ADRP reg, #func@PAGE'
p164
aS'LDR reg, mem'
p165
aS'MOV reg9, #0xFFFFFFEA'
p166
aS'LDR reg, mem'
p167
aS'CBNZ reg, func'
p168
asg63
Nsg5
S'0xffffffc0007bc2c0L'
p169
sg65
(lp170
S'0xffffffc0007bc2b0L'
p171
asg6
Nsg67
(lp172
S'0xffffffc0007bc2d4L'
p173
aS'0xffffffc0007bc2fcL'
p174
asg71
Nsg72
Nsg73
S'd80cc6d531f24a5b2d60307977d236c7'
p175
sg75
S'baaaa11d303d94886d47725c6dea0608'
p176
sg77
(lp177
g133
ag140
ag147
ag154
ag161
asg79
Nsba(ibclass
BBasicBlock
p178
(dp179
g12
Nsg13
(lp180
(ibclass
BInstr
p181
(dp182
g2
Nsg17
S'ADRP            X0, #unk_FFFFFFC0013BCD52@PAGE'
p183
sg19
S'00600090'
p184
sg21
Vadrp x0, #0xc00000
p185
sg5
L18446743798839755476L
sg6
Nsg23
S'ADRP'
p186
sg25
S'0xffffffc0007bc2d4L'
p187
sg27
Nsba(ibclass
BInstr
p188
(dp189
g2
Nsg17
S'ADRP            X1, #(aQcomMdssDsi_17+0x1B)@PAGE; "err"'
p190
sg19
S'815b00f0'
p191
sg21
Vadrp x1, #0xb73000
p192
sg5
L18446743798839755480L
sg6
Nsg23
S'ADRP'
p193
sg25
S'0xffffffc0007bc2d8L'
p194
sg27
Nsba(ibclass
BInstr
p195
(dp196
g2
Nsg17
S'ADD             X1, X1, #(aQcomMdssDsi_17+0x1B)@PAGEOFF; "err"'
p197
sg19
S'21801291'
p198
sg21
Vadd x1, x1, #0x4a0
p199
sg5
L18446743798839755484L
sg6
Nsg23
S'ADD'
p200
sg25
S'0xffffffc0007bc2dcL'
p201
sg27
Nsba(ibclass
BInstr
p202
(dp203
g2
Nsg17
S'ADD             X0, X0, #unk_FFFFFFC0013BCD52@PAGEOFF'
p204
sg19
S'00483591'
p205
sg21
Vadd x0, x0, #0xd52
p206
sg5
L18446743798839755488L
sg6
Nsg23
S'ADD'
p207
sg25
S'0xffffffc0007bc2e0L'
p208
sg27
Nsba(ibclass
BInstr
p209
(dp210
g2
Nsg17
S'BL              printk'
p211
sg19
S'9fdd1994'
p212
sg21
Vbl #0x67767c
p213
sg5
L18446743798839755492L
sg6
Nsg23
S'BL'
p214
sg25
S'0xffffffc0007bc2e4L'
p215
sg27
Nsba(ibclass
BInstr
p216
(dp217
g2
Nsg17
S'B               loc_FFFFFFC0007BC2FC'
p218
sg19
S'05000014'
p219
sg21
Vb #0x14
p220
sg5
L18446743798839755496L
sg6
Nsg23
S'B'
p221
sg25
S'0xffffffc0007bc2e8L'
p222
sg27
Nsbasg56
(lp223
S'ADRP reg, #func@PAGE'
p224
aS'ADRP reg, #(aQcomMdssDsi_17+0x1B)@PAGE'
p225
aS'ADD reg, reg, #(aQcomMdssDsi_17+0x1B)@PAGEOFF'
p226
aS'ADD reg, reg, #func@PAGEOFF'
p227
aS'BL printk'
p228
aS'B func'
p229
asg63
Nsg5
S'0xffffffc0007bc2d4L'
p230
sg65
(lp231
S'0xffffffc0007bc2c0L'
p232
asg6
Nsg67
(lp233
S'0xffffffc0007bc2fcL'
p234
asg71
Nsg72
Nsg73
S'b2a3927201f2643e37e238d870ced3c2'
p235
sg75
S'3e167cdac8f124cfbacea29ee5c30eb0'
p236
sg77
(lp237
g186
ag193
ag200
ag207
ag214
ag221
asg79
Nsba(ibclass
BBasicBlock
p238
(dp239
g12
Nsg13
(lp240
(ibclass
BInstr
p241
(dp242
g2
Nsg17
S'BL              venus_hfi_power_enable.part.4'
p243
sg19
S'a3fdff97'
p244
sg21
Vbl #0xfffffffffffff68c
p245
sg5
L18446743798839755500L
sg6
Nsg23
S'BL'
p246
sg25
S'0xffffffc0007bc2ecL'
p247
sg27
Nsba(ibclass
BInstr
p248
(dp249
g2
Nsg17
S'MOV             W19, W0'
p250
sg19
S'f303002a'
p251
sg21
Vmov w19, w0
p252
sg5
L18446743798839755504L
sg6
Nsg23
S'MOV'
p253
sg25
S'0xffffffc0007bc2f0L'
p254
sg27
Nsba(ibclass
BInstr
p255
(dp256
g2
Nsg17
S'B               loc_FFFFFFC0007BC2FC'
p257
sg19
S'02000014'
p258
sg21
Vb #8
p259
sg5
L18446743798839755508L
sg6
Nsg23
g221
sg25
S'0xffffffc0007bc2f4L'
p260
sg27
Nsbasg56
(lp261
S'BL venus_hfi_power_enable.part.4'
p262
aS'MOV reg9, reg'
p263
aS'B func'
p264
asg63
Nsg5
S'0xffffffc0007bc2ecL'
p265
sg65
(lp266
S'0xffffffc0007bc29cL'
p267
asg6
Nsg67
(lp268
S'0xffffffc0007bc2fcL'
p269
asg71
Nsg72
Nsg73
S'784a337fe2b2b07f8b8369fbd0da5f75'
p270
sg75
S'665e1f42d83210b6113c405541729f14'
p271
sg77
(lp272
g246
ag253
ag221
asg79
Nsba(ibclass
BBasicBlock
p273
(dp274
g12
Nsg13
(lp275
(ibclass
BInstr
p276
(dp277
g2
Nsg17
S'MOV             W19, #0xFFFFFFEA'
p278
sg19
S'b3028012'
p279
sg21
Vmovn w19, #0x15
p280
sg5
L18446743798839755512L
sg6
Nsg23
S'MOV'
p281
sg25
S'0xffffffc0007bc2f8L'
p282
sg27
Nsbasg56
(lp283
S'MOV reg9, #0xFFFFFFEA'
p284
asg63
Nsg5
S'0xffffffc0007bc2f8L'
p285
sg65
(lp286
S'0xffffffc0007bc2b0L'
p287
asg6
Nsg67
(lp288
S'0xffffffc0007bc2fcL'
p289
asg71
Nsg72
Nsg73
S'17b32100aef1fc19670be7fd58bc85df'
p290
sg75
S'b3606159d658f642fff4e1852538bd21'
p291
sg77
(lp292
g281
asg79
Nsba(ibclass
BBasicBlock
p293
(dp294
g12
Nsg13
(lp295
(ibclass
BInstr
p296
(dp297
g2
Nsg17
S'MOV             W0, W19'
p298
sg19
S'e003132a'
p299
sg21
Vmov w0, w19
p300
sg5
L18446743798839755516L
sg6
Nsg23
S'MOV'
p301
sg25
S'0xffffffc0007bc2fcL'
p302
sg27
Nsba(ibclass
BInstr
p303
(dp304
g2
Nsg17
S'LDR             X19, [SP,#0x10+var_s0]'
p305
sg19
S'f30b40f9'
p306
sg21
Vldr x19, [sp, #0x10]
p307
sg5
L18446743798839755520L
sg6
Nsg23
S'LDR'
p308
sg25
S'0xffffffc0007bc300L'
p309
sg27
Nsba(ibclass
BInstr
p310
(dp311
g2
Nsg17
S'LDP             X29, X30, [SP+0x10+var_10],#0x20'
p312
sg19
S'fd7bc2a8'
p313
sg21
Vldp x29, x30, [sp], #0x20
p314
sg5
L18446743798839755524L
sg6
Nsg23
S'LDP'
p315
sg25
S'0xffffffc0007bc304L'
p316
sg27
Nsba(ibclass
BInstr
p317
(dp318
g2
Nsg17
S'RET'
p319
sg19
S'c0035fd6'
p320
sg21
Vret 
p321
sg5
L18446743798839755528L
sg6
Nsg23
S'RET'
p322
sg25
S'0xffffffc0007bc308L'
p323
sg27
Nsbasg56
(lp324
S'MOV reg, reg9'
p325
aS'LDR reg9, mem'
p326
aS'LDP reg9, reg0, mem,#0x20'
p327
ag319
asg63
Nsg5
S'0xffffffc0007bc2fcL'
p328
sg65
(lp329
S'0xffffffc0007bc2c0L'
p330
aS'0xffffffc0007bc2d4L'
p331
aS'0xffffffc0007bc2ecL'
p332
aS'0xffffffc0007bc2f8L'
p333
asg6
Nsg67
(lp334
sg71
Nsg72
Nsg73
S'700b6007ea89efb2d19f65eecdfbdc66'
p335
sg75
S'2540ec61573c55ff75133ef1ef4cbd07'
p336
sg77
(lp337
g301
ag308
ag315
ag322
asg79
Nsbasb.