(ibclass
BFunc
p0
(dp1
S'hash'
p2
NsS'name'
p3
S'venus_hfi_scale_clocks'
p4
sS'start_address'
p5
L18446743798839743568L
sS'flag'
p6
NsS'program'
p7
NsS'bbs'
p8
(lp9
(ibclass
BBasicBlock
p10
(dp11
S'function'
p12
NsS'binstrs'
p13
(lp14
(ibclass
BInstr
p15
(dp16
g2
NsS'disasm'
p17
S'STP             X29, X30, [SP,#-0x10+var_60]!'
p18
sS'bytes'
p19
S'fd7bb9a9'
p20
sS'disasm_striped'
p21
Vstp x29, x30, [sp, #-0x70]!
p22
sg5
L18446743798839743568L
sg6
NsS'mnem'
p23
S'STP'
p24
sS'address'
p25
S'0xffffffc0007b9450L'
p26
sS'basicblock'
p27
Nsba(ibclass
BInstr
p28
(dp29
g2
Nsg17
S'MOV             X29, SP'
p30
sg19
S'fd030091'
p31
sg21
Vmov x29, sp
p32
sg5
L18446743798839743572L
sg6
Nsg23
S'MOV'
p33
sg25
S'0xffffffc0007b9454L'
p34
sg27
Nsba(ibclass
BInstr
p35
(dp36
g2
Nsg17
S'STP             X19, X20, [SP,#0x60+var_50]'
p37
sg19
S'f35301a9'
p38
sg21
Vstp x19, x20, [sp, #0x10]
p39
sg5
L18446743798839743576L
sg6
Nsg23
S'STP'
p40
sg25
S'0xffffffc0007b9458L'
p41
sg27
Nsba(ibclass
BInstr
p42
(dp43
g2
Nsg17
S'STP             X23, X24, [SP,#0x60+var_30]'
p44
sg19
S'f76303a9'
p45
sg21
Vstp x23, x24, [sp, #0x30]
p46
sg5
L18446743798839743580L
sg6
Nsg23
S'STP'
p47
sg25
S'0xffffffc0007b945cL'
p48
sg27
Nsba(ibclass
BInstr
p49
(dp50
g2
Nsg17
S'STP             X25, X26, [SP,#0x60+var_20]'
p51
sg19
S'f96b04a9'
p52
sg21
Vstp x25, x26, [sp, #0x40]
p53
sg5
L18446743798839743584L
sg6
Nsg23
S'STP'
p54
sg25
S'0xffffffc0007b9460L'
p55
sg27
Nsba(ibclass
BInstr
p56
(dp57
g2
Nsg17
S'STP             X21, X22, [SP,#0x60+var_40]'
p58
sg19
S'f55b02a9'
p59
sg21
Vstp x21, x22, [sp, #0x20]
p60
sg5
L18446743798839743588L
sg6
Nsg23
S'STP'
p61
sg25
S'0xffffffc0007b9464L'
p62
sg27
Nsba(ibclass
BInstr
p63
(dp64
g2
Nsg17
S'STP             X27, X28, [SP,#0x60+var_10]'
p65
sg19
S'fb7305a9'
p66
sg21
Vstp x27, x28, [sp, #0x50]
p67
sg5
L18446743798839743592L
sg6
Nsg23
S'STP'
p68
sg25
S'0xffffffc0007b9468L'
p69
sg27
Nsba(ibclass
BInstr
p70
(dp71
g2
Nsg17
S'MOV             X20, X0'
p72
sg19
S'f40300aa'
p73
sg21
Vmov x20, x0
p74
sg5
L18446743798839743596L
sg6
Nsg23
S'MOV'
p75
sg25
S'0xffffffc0007b946cL'
p76
sg27
Nsba(ibclass
BInstr
p77
(dp78
g2
Nsg17
S'MOV             W24, W1'
p79
sg19
S'f803012a'
p80
sg21
Vmov w24, w1
p81
sg5
L18446743798839743600L
sg6
Nsg23
S'MOV'
p82
sg25
S'0xffffffc0007b9470L'
p83
sg27
Nsba(ibclass
BInstr
p84
(dp85
g2
Nsg17
S'MOV             W25, W2'
p86
sg19
S'f903022a'
p87
sg21
Vmov w25, w2
p88
sg5
L18446743798839743604L
sg6
Nsg23
S'MOV'
p89
sg25
S'0xffffffc0007b9474L'
p90
sg27
Nsba(ibclass
BInstr
p91
(dp92
g2
Nsg17
S'CBNZ            X0, loc_FFFFFFC0007B94BC'
p93
sg19
S'200200b5'
p94
sg21
Vcbnz x0, #0x44
p95
sg5
L18446743798839743608L
sg6
Nsg23
S'CBNZ'
p96
sg25
S'0xffffffc0007b9478L'
p97
sg27
NsbasS'disasm_list'
p98
(lp99
S'STP reg9, reg0, mem!'
p100
aS'MOV reg9, SP'
p101
aS'STP reg9, reg0, mem'
p102
aS'STP reg3, reg4, mem'
p103
aS'STP reg5, reg6, mem'
p104
aS'STP reg1, reg2, mem'
p105
aS'STP reg7, reg8, mem'
p106
aS'MOV reg0, reg'
p107
aS'MOV reg4, reg'
p108
aS'MOV reg5, reg'
p109
aS'CBNZ reg, func'
p110
asS'end_address'
p111
Nsg5
S'0xffffffc0007b9450L'
p112
sS'preds'
p113
(lp114
sg6
NsS'succs'
p115
(lp116
S'0xffffffc0007b947cL'
p117
aS'0xffffffc0007b94bcL'
p118
asS'hash_v3'
p119
NsS'flag_v2'
p120
NsS'hash_v1'
p121
S'37042e196e0c0d3d3029b446d5b1651b'
p122
sS'hash_v2'
p123
S'c9b6b3e7a0fd26254f7cd74153c3c923'
p124
sS'mnen_list'
p125
(lp126
g24
ag33
ag40
ag47
ag54
ag61
ag68
ag75
ag82
ag89
ag96
asS'neighbour_disasm_list'
p127
Nsba(ibclass
BBasicBlock
p128
(dp129
g12
Nsg13
(lp130
(ibclass
BInstr
p131
(dp132
g2
Nsg17
S'ADRP            X0, #qword_FFFFFFC000E4A8A0@PAGE'
p133
sg19
S'803400b0'
p134
sg21
Vadrp x0, #0x691000
p135
sg5
L18446743798839743612L
sg6
Nsg23
S'ADRP'
p136
sg25
S'0xffffffc0007b947cL'
p137
sg27
Nsba(ibclass
BInstr
p138
(dp139
g2
Nsg17
S'LDR             X0, [X0,#qword_FFFFFFC000E4A8A0@PAGEOFF]'
p140
sg19
S'005044f9'
p141
sg21
Vldr x0, [x0, #0x8a0]
p142
sg5
L18446743798839743616L
sg6
Nsg23
S'LDR'
p143
sg25
S'0xffffffc0007b9480L'
p144
sg27
Nsba(ibclass
BInstr
p145
(dp146
g2
Nsg17
S'LDR             W0, [X0]'
p147
sg19
S'000040b9'
p148
sg21
Vldr w0, [x0]
p149
sg5
L18446743798839743620L
sg6
Nsg23
S'LDR'
p150
sg25
S'0xffffffc0007b9484L'
p151
sg27
Nsba(ibclass
BInstr
p152
(dp153
g2
Nsg17
S'TBZ             W0, #0, loc_FFFFFFC0007B9600'
p154
sg19
S'c00b0036'
p155
sg21
Vtbz w0, #0, #0x178
p156
sg5
L18446743798839743624L
sg6
Nsg23
S'TBZ'
p157
sg25
S'0xffffffc0007b9488L'
p158
sg27
Nsbasg98
(lp159
S'ADRP reg, #func@PAGE'
p160
aS'LDR reg, mem'
p161
aS'LDR reg, mem'
p162
aS'TBZ reg, #0, func'
p163
asg111
Nsg5
S'0xffffffc0007b947cL'
p164
sg113
(lp165
S'0xffffffc0007b9450L'
p166
asg6
Nsg115
(lp167
S'0xffffffc0007b948cL'
p168
aS'0xffffffc0007b9600L'
p169
asg119
Nsg120
Nsg121
S'2de94c9e326481f2f467f11acce8dcc9'
p170
sg123
S'f9f7225e2bae36aff04e5d93bafe5e1d'
p171
sg125
(lp172
g136
ag143
ag150
ag157
asg127
Nsba(ibclass
BBasicBlock
p173
(dp174
g12
Nsg13
(lp175
(ibclass
BInstr
p176
(dp177
g2
Nsg17
S'ADRP            X0, #qword_FFFFFFC000E48D48@PAGE'
p178
sg19
S'603400f0'
p179
sg21
Vadrp x0, #0x68f000
p180
sg5
L18446743798839743628L
sg6
Nsg23
S'ADRP'
p181
sg25
S'0xffffffc0007b948cL'
p182
sg27
Nsba(ibclass
BInstr
p183
(dp184
g2
Nsg17
S'LDR             X0, [X0,#qword_FFFFFFC000E48D48@PAGEOFF]'
p185
sg19
S'00a446f9'
p186
sg21
Vldr x0, [x0, #0xd48]
p187
sg5
L18446743798839743632L
sg6
Nsg23
S'LDR'
p188
sg25
S'0xffffffc0007b9490L'
p189
sg27
Nsba(ibclass
BInstr
p190
(dp191
g2
Nsg17
S'MOV             W21, #0xFFFFFFEA'
p192
sg19
S'b5028012'
p193
sg21
Vmovn w21, #0x15
p194
sg5
L18446743798839743636L
sg6
Nsg23
S'MOV'
p195
sg25
S'0xffffffc0007b9494L'
p196
sg27
Nsba(ibclass
BInstr
p197
(dp198
g2
Nsg17
S'LDR             W0, [X0]'
p199
sg19
S'000040b9'
p200
sg21
Vldr w0, [x0]
p201
sg5
L18446743798839743640L
sg6
Nsg23
S'LDR'
p202
sg25
S'0xffffffc0007b9498L'
p203
sg27
Nsba(ibclass
BInstr
p204
(dp205
g2
Nsg17
S'CBNZ            W0, loc_FFFFFFC0007B9604'
p206
sg19
S'400b0035'
p207
sg21
Vcbnz w0, #0x168
p208
sg5
L18446743798839743644L
sg6
Nsg23
S'CBNZ'
p209
sg25
S'0xffffffc0007b949cL'
p210
sg27
Nsbasg98
(lp211
S'ADRP reg, #func@PAGE'
p212
aS'LDR reg, mem'
p213
aS'MOV reg1, #0xFFFFFFEA'
p214
aS'LDR reg, mem'
p215
aS'CBNZ reg, func'
p216
asg111
Nsg5
S'0xffffffc0007b948cL'
p217
sg113
(lp218
S'0xffffffc0007b947cL'
p219
asg6
Nsg115
(lp220
S'0xffffffc0007b94a0L'
p221
aS'0xffffffc0007b9604L'
p222
asg119
Nsg120
Nsg121
S'd80cc6d531f24a5b2d60307977d236c7'
p223
sg123
S'fd9dd1c0751cd65f386518ad58baa95d'
p224
sg125
(lp225
g181
ag188
ag195
ag202
ag209
asg127
Nsba(ibclass
BBasicBlock
p226
(dp227
g12
Nsg13
(lp228
(ibclass
BInstr
p229
(dp230
g2
Nsg17
S'ADRP            X0, #unk_FFFFFFC0013B651A@PAGE'
p231
sg19
S'e05f00b0'
p232
sg21
Vadrp x0, #0xbfd000
p233
sg5
L18446743798839743648L
sg6
Nsg23
S'ADRP'
p234
sg25
S'0xffffffc0007b94a0L'
p235
sg27
Nsba(ibclass
BInstr
p236
(dp237
g2
Nsg17
S'ADRP            X1, #(aQcomMdssDsi_17+0x1B)@PAGE; "err"'
p238
sg19
S'a15b00d0'
p239
sg21
Vadrp x1, #0xb76000
p240
sg5
L18446743798839743652L
sg6
Nsg23
S'ADRP'
p241
sg25
S'0xffffffc0007b94a4L'
p242
sg27
Nsba(ibclass
BInstr
p243
(dp244
g2
Nsg17
S'ADD             X1, X1, #(aQcomMdssDsi_17+0x1B)@PAGEOFF; "err"'
p245
sg19
S'21801291'
p246
sg21
Vadd x1, x1, #0x4a0
p247
sg5
L18446743798839743656L
sg6
Nsg23
S'ADD'
p248
sg25
S'0xffffffc0007b94a8L'
p249
sg27
Nsba(ibclass
BInstr
p250
(dp251
g2
Nsg17
S'MOV             X2, X20'
p252
sg19
S'e20314aa'
p253
sg21
Vmov x2, x20
p254
sg5
L18446743798839743660L
sg6
Nsg23
S'MOV'
p255
sg25
S'0xffffffc0007b94acL'
p256
sg27
Nsba(ibclass
BInstr
p257
(dp258
g2
Nsg17
S'ADD             X0, X0, #unk_FFFFFFC0013B651A@PAGEOFF'
p259
sg19
S'00681491'
p260
sg21
Vadd x0, x0, #0x51a
p261
sg5
L18446743798839743664L
sg6
Nsg23
S'ADD'
p262
sg25
S'0xffffffc0007b94b0L'
p263
sg27
Nsba(ibclass
BInstr
p264
(dp265
g2
Nsg17
S'BL              printk'
p266
sg19
S'2be91994'
p267
sg21
Vbl #0x67a4ac
p268
sg5
L18446743798839743668L
sg6
Nsg23
S'BL'
p269
sg25
S'0xffffffc0007b94b4L'
p270
sg27
Nsba(ibclass
BInstr
p271
(dp272
g2
Nsg17
S'B               loc_FFFFFFC0007B9604'
p273
sg19
S'53000014'
p274
sg21
Vb #0x14c
p275
sg5
L18446743798839743672L
sg6
Nsg23
S'B'
p276
sg25
S'0xffffffc0007b94b8L'
p277
sg27
Nsbasg98
(lp278
S'ADRP reg, #func@PAGE'
p279
aS'ADRP reg, #(aQcomMdssDsi_17+0x1B)@PAGE'
p280
aS'ADD reg, reg, #(aQcomMdssDsi_17+0x1B)@PAGEOFF'
p281
aS'MOV reg, reg0'
p282
aS'ADD reg, reg, #func@PAGEOFF'
p283
aS'BL printk'
p284
aS'B func'
p285
asg111
Nsg5
S'0xffffffc0007b94a0L'
p286
sg113
(lp287
S'0xffffffc0007b948cL'
p288
asg6
Nsg115
(lp289
S'0xffffffc0007b9604L'
p290
asg119
Nsg120
Nsg121
S'ff7f44466e74267aa9d96fda41da35ba'
p291
sg123
S'f8f7a04f18efeaf03a61c7ca3fcf4ead'
p292
sg125
(lp293
g234
ag241
ag248
ag255
ag262
ag269
ag276
asg127
Nsba(ibclass
BBasicBlock
p294
(dp295
g12
Nsg13
(lp296
(ibclass
BInstr
p297
(dp298
g2
Nsg17
S'STR             W1, [X20,#0x28]'
p299
sg19
S'812a00b9'
p300
sg21
Vstr w1, [x20, #0x28]
p301
sg5
L18446743798839743676L
sg6
Nsg23
S'STR'
p302
sg25
S'0xffffffc0007b94bcL'
p303
sg27
Nsba(ibclass
BInstr
p304
(dp305
g2
Nsg17
S'STR             W2, [X20,#0x2C]'
p306
sg19
S'822e00b9'
p307
sg21
Vstr w2, [x20, #0x2c]
p308
sg5
L18446743798839743680L
sg6
Nsg23
S'STR'
p309
sg25
S'0xffffffc0007b94c0L'
p310
sg27
Nsba(ibclass
BInstr
p311
(dp312
g2
Nsg17
S'LDR             X0, [X0,#0x248]'
p313
sg19
S'002441f9'
p314
sg21
Vldr x0, [x0, #0x248]
p315
sg5
L18446743798839743684L
sg6
Nsg23
S'LDR'
p316
sg25
S'0xffffffc0007b94c4L'
p317
sg27
Nsba(ibclass
BInstr
p318
(dp319
g2
Nsg17
S'ADRP            X27, #unk_FFFFFFC0013BEEDA@PAGE'
p320
sg19
S'3b6000b0'
p321
sg21
Vadrp x27, #0xc05000
p322
sg5
L18446743798839743688L
sg6
Nsg23
S'ADRP'
p323
sg25
S'0xffffffc0007b94c8L'
p324
sg27
Nsba(ibclass
BInstr
p325
(dp326
g2
Nsg17
S'ADRP            X28, #aProf@PAGE; "prof"'
p327
sg19
S'fc5f00f0'
p328
sg21
Vadrp x28, #0xbff000
p329
sg5
L18446743798839743692L
sg6
Nsg23
S'ADRP'
p330
sg25
S'0xffffffc0007b94ccL'
p331
sg27
Nsba(ibclass
BInstr
p332
(dp333
g2
Nsg17
S'LDR             X19, [X0,#0x88]'
p334
sg19
S'134440f9'
p335
sg21
Vldr x19, [x0, #0x88]
p336
sg5
L18446743798839743696L
sg6
Nsg23
S'LDR'
p337
sg25
S'0xffffffc0007b94d0L'
p338
sg27
Nsba(ibclass
BInstr
p339
(dp340
g2
Nsg17
S'ADRP            X26, #0xFFFFFFC000E4A000'
p341
sg19
S'9a3400b0'
p342
sg21
Vadrp x26, #0x691000
p343
sg5
L18446743798839743700L
sg6
Nsg23
S'ADRP'
p344
sg25
S'0xffffffc0007b94d4L'
p345
sg27
Nsba(ibclass
BInstr
p346
(dp347
g2
Nsg17
S'ADD             X27, X27, #unk_FFFFFFC0013BEEDA@PAGEOFF'
p348
sg19
S'7b6b3b91'
p349
sg21
Vadd x27, x27, #0xeda
p350
sg5
L18446743798839743704L
sg6
Nsg23
S'ADD'
p351
sg25
S'0xffffffc0007b94d8L'
p352
sg27
Nsba(ibclass
BInstr
p353
(dp354
g2
Nsg17
S'ADD             X28, X28, #aProf@PAGEOFF; "prof"'
p355
sg19
S'9c3b0491'
p356
sg21
Vadd x28, x28, #0x10e
p357
sg5
L18446743798839743708L
sg6
Nsg23
S'ADD'
p358
sg25
S'0xffffffc0007b94dcL'
p359
sg27
Nsbasg98
(lp360
S'STR reg, mem'
p361
aS'STR reg, mem'
p362
aS'LDR reg, mem'
p363
aS'ADRP reg7, #func@PAGE'
p364
aS'ADRP reg8, #aProf@PAGE'
p365
aS'LDR reg9, mem'
p366
aS'ADRP reg6, #0xFFFFFFC000E4A000'
p367
aS'ADD reg7, reg7, #func@PAGEOFF'
p368
aS'ADD reg8, reg8, #aProf@PAGEOFF'
p369
asg111
Nsg5
S'0xffffffc0007b94bcL'
p370
sg113
(lp371
S'0xffffffc0007b9450L'
p372
asg6
Nsg115
(lp373
S'0xffffffc0007b94e0L'
p374
asg119
Nsg120
Nsg121
S'f5d106cc0a4b3641bcb2919521ec2dd9'
p375
sg123
S'c5159c69ce1b3cfd59d6bec8a27d7095'
p376
sg125
(lp377
g302
ag309
ag316
ag323
ag330
ag337
ag344
ag351
ag358
asg127
Nsba(ibclass
BBasicBlock
p378
(dp379
g12
Nsg13
(lp380
(ibclass
BInstr
p381
(dp382
g2
Nsg17
S'LDR             X0, [X20,#0x248]'
p383
sg19
S'802641f9'
p384
sg21
Vldr x0, [x20, #0x248]
p385
sg5
L18446743798839743712L
sg6
Nsg23
S'LDR'
p386
sg25
S'0xffffffc0007b94e0L'
p387
sg27
Nsba(ibclass
BInstr
p388
(dp389
g2
Nsg17
S'LDR             W1, [X0,#0x90]'
p390
sg19
S'019040b9'
p391
sg21
Vldr w1, [x0, #0x90]
p392
sg5
L18446743798839743716L
sg6
Nsg23
S'LDR'
p393
sg25
S'0xffffffc0007b94e4L'
p394
sg27
Nsba(ibclass
BInstr
p395
(dp396
g2
Nsg17
S'LDR             X0, [X0,#0x88]'
p397
sg19
S'004440f9'
p398
sg21
Vldr x0, [x0, #0x88]
p399
sg5
L18446743798839743720L
sg6
Nsg23
S'LDR'
p400
sg25
S'0xffffffc0007b94e8L'
p401
sg27
Nsba(ibclass
BInstr
p402
(dp403
g2
Nsg17
S'ADD             X0, X0, X1,LSL#5'
p404
sg19
S'0014018b'
p405
sg21
Vadd x0, x0, x1, lsl #5
p406
sg5
L18446743798839743724L
sg6
Nsg23
S'ADD'
p407
sg25
S'0xffffffc0007b94ecL'
p408
sg27
Nsba(ibclass
BInstr
p409
(dp410
g2
Nsg17
S'CMP             X19, X0'
p411
sg19
S'7f0200eb'
p412
sg21
Vcmp x19, x0
p413
sg5
L18446743798839743728L
sg6
Nsg23
S'CMP'
p414
sg25
S'0xffffffc0007b94f0L'
p415
sg27
Nsba(ibclass
BInstr
p416
(dp417
g2
Nsg17
S'B.CS            loc_FFFFFFC0007B95F8'
p418
sg19
S'22080054'
p419
sg21
Vb.hs #0x104
p420
sg5
L18446743798839743732L
sg6
Nsg23
g276
sg25
S'0xffffffc0007b94f4L'
p421
sg27
Nsbasg98
(lp422
S'LDR reg, mem'
p423
aS'LDR reg, mem'
p424
aS'LDR reg, mem'
p425
aS'ADD reg, reg, reg,LSL#5'
p426
aS'CMP reg9, reg'
p427
aS'B.CS func'
p428
asg111
Nsg5
S'0xffffffc0007b94e0L'
p429
sg113
(lp430
S'0xffffffc0007b94bcL'
p431
aS'0xffffffc0007b95f0L'
p432
asg6
Nsg115
(lp433
S'0xffffffc0007b94f8L'
p434
aS'0xffffffc0007b95f8L'
p435
asg119
Nsg120
Nsg121
S'680bbbfb58623e66c37f168833c14155'
p436
sg123
S'708ef535cbb51c83301c5fc958714297'
p437
sg125
(lp438
g386
ag393
ag400
ag407
ag414
ag276
asg127
Nsba(ibclass
BBasicBlock
p439
(dp440
g12
Nsg13
(lp441
(ibclass
BInstr
p442
(dp443
g2
Nsg17
S'LDR             W23, [X19,#0x18]'
p444
sg19
S'771a40b9'
p445
sg21
Vldr w23, [x19, #0x18]
p446
sg5
L18446743798839743736L
sg6
Nsg23
S'LDR'
p447
sg25
S'0xffffffc0007b94f8L'
p448
sg27
Nsba(ibclass
BInstr
p449
(dp450
g2
Nsg17
S'CBZ             W23, loc_FFFFFFC0007B95F0'
p451
sg19
S'b7070034'
p452
sg21
Vcbz w23, #0xf4
p453
sg5
L18446743798839743740L
sg6
Nsg23
S'CBZ'
p454
sg25
S'0xffffffc0007b94fcL'
p455
sg27
Nsbasg98
(lp456
S'LDR reg3, mem'
p457
aS'CBZ reg3, func'
p458
asg111
Nsg5
S'0xffffffc0007b94f8L'
p459
sg113
(lp460
S'0xffffffc0007b94e0L'
p461
asg6
Nsg115
(lp462
S'0xffffffc0007b9500L'
p463
aS'0xffffffc0007b95f0L'
p464
asg119
Nsg120
Nsg121
S'a0c488049ab653dbdfa1dc805bb83f13'
p465
sg123
S'6dfc9bde0e4759f9bbff50e0decf28a9'
p466
sg125
(lp467
g447
ag454
asg127
Nsba(ibclass
BBasicBlock
p468
(dp469
g12
Nsg13
(lp470
(ibclass
BInstr
p471
(dp472
g2
Nsg17
S'LDR             X21, [X19,#0x10]'
p473
sg19
S'750a40f9'
p474
sg21
Vldr x21, [x19, #0x10]
p475
sg5
L18446743798839743744L
sg6
Nsg23
S'LDR'
p476
sg25
S'0xffffffc0007b9500L'
p477
sg27
Nsba(ibclass
BInstr
p478
(dp479
g2
Nsg17
S'CMP             W23, #1'
p480
sg19
S'ff060071'
p481
sg21
Vcmp w23, #1
p482
sg5
L18446743798839743748L
sg6
Nsg23
S'CMP'
p483
sg25
S'0xffffffc0007b9504L'
p484
sg27
Nsba(ibclass
BInstr
p485
(dp486
g2
Nsg17
S'LDR             W22, [X21,#4]'
p487
sg19
S'b60640b9'
p488
sg21
Vldr w22, [x21, #4]
p489
sg5
L18446743798839743752L
sg6
Nsg23
S'LDR'
p490
sg25
S'0xffffffc0007b9508L'
p491
sg27
Nsba(ibclass
BInstr
p492
(dp493
g2
Nsg17
S'B.LE            loc_FFFFFFC0007B9514'
p494
sg19
S'4d000054'
p495
sg21
Vb.le #8
p496
sg5
L18446743798839743756L
sg6
Nsg23
g276
sg25
S'0xffffffc0007b950cL'
p497
sg27
Nsbasg98
(lp498
S'LDR reg1, mem'
p499
aS'CMP reg3, #1'
p500
aS'LDR reg2, mem'
p501
aS'B.LE func'
p502
asg111
Nsg5
S'0xffffffc0007b9500L'
p503
sg113
(lp504
S'0xffffffc0007b94f8L'
p505
asg6
Nsg115
(lp506
S'0xffffffc0007b9510L'
p507
aS'0xffffffc0007b9514L'
p508
asg119
Nsg120
Nsg121
S'4e0264078831c1987b4b9c84f5720857'
p509
sg123
S'b69470389772e759fe51a57caf7d989c'
p510
sg125
(lp511
g476
ag483
ag490
ag276
asg127
Nsba(ibclass
BBasicBlock
p512
(dp513
g12
Nsg13
(lp514
(ibclass
BInstr
p515
(dp516
g2
Nsg17
S'CBZ             W24, loc_FFFFFFC0007B9520'
p517
sg19
S'98000034'
p518
sg21
Vcbz w24, #0x10
p519
sg5
L18446743798839743760L
sg6
Nsg23
S'CBZ'
p520
sg25
S'0xffffffc0007b9510L'
p521
sg27
Nsbasg98
(lp522
S'CBZ reg4, func'
p523
asg111
Nsg5
S'0xffffffc0007b9510L'
p524
sg113
(lp525
S'0xffffffc0007b9500L'
p526
asg6
Nsg115
(lp527
S'0xffffffc0007b9514L'
p528
aS'0xffffffc0007b9520L'
p529
asg119
Nsg120
Nsg121
S'de8e361453cf9f764a4abe9d486f8fbe'
p530
sg123
S'82d026d7867fb41c143ea243ebdac617'
p531
sg125
(lp532
g520
asg127
Nsba(ibclass
BBasicBlock
p533
(dp534
g12
Nsg13
(lp535
(ibclass
BInstr
p536
(dp537
g2
Nsg17
S'MOV             W22, W22'
p538
sg19
S'f603162a'
p539
sg21
Vmov w22, w22
p540
sg5
L18446743798839743764L
sg6
Nsg23
S'MOV'
p541
sg25
S'0xffffffc0007b9514L'
p542
sg27
Nsba(ibclass
BInstr
p543
(dp544
g2
Nsg17
S'MOV             W2, #0'
p545
sg19
S'02008052'
p546
sg21
Vmovz w2, #0
p547
sg5
L18446743798839743768L
sg6
Nsg23
S'MOV'
p548
sg25
S'0xffffffc0007b9518L'
p549
sg27
Nsba(ibclass
BInstr
p550
(dp551
g2
Nsg17
S'B               loc_FFFFFFC0007B9564'
p552
sg19
S'12000014'
p553
sg21
Vb #0x48
p554
sg5
L18446743798839743772L
sg6
Nsg23
g276
sg25
S'0xffffffc0007b951cL'
p555
sg27
Nsbasg98
(lp556
S'MOV reg2, reg2'
p557
aS'MOV reg, #0'
p558
aS'B func'
p559
asg111
Nsg5
S'0xffffffc0007b9514L'
p560
sg113
(lp561
S'0xffffffc0007b9500L'
p562
aS'0xffffffc0007b9510L'
p563
asg6
Nsg115
(lp564
S'0xffffffc0007b9564L'
p565
asg119
Nsg120
Nsg121
S'7391dd723071525ee502f0c2742c56af'
p566
sg123
S'717d293ad887954bee6fee401dd9feaf'
p567
sg125
(lp568
g541
ag548
ag276
asg127
Nsba(ibclass
BBasicBlock
p569
(dp570
g12
Nsg13
(lp571
(ibclass
BInstr
p572
(dp573
g2
Nsg17
S'MOV             W0, #0xC'
p574
sg19
S'80018052'
p575
sg21
Vmovz w0, #0xc
p576
sg5
L18446743798839743776L
sg6
Nsg23
S'MOV'
p577
sg25
S'0xffffffc0007b9520L'
p578
sg27
Nsba(ibclass
BInstr
p579
(dp580
g2
Nsg17
S'SMADDL          X21, W23, W0, X21'
p581
sg19
S'f556209b'
p582
sg21
Vsmaddl x21, w23, w0, x21
p583
sg5
L18446743798839743780L
sg6
Nsg23
S'SMADDL'
p584
sg25
S'0xffffffc0007b9524L'
p585
sg27
Nsba(ibclass
BInstr
p586
(dp587
g2
Nsg17
S'LDUR            W22, [X21,#-8]'
p588
sg19
S'b6825fb8'
p589
sg21
Vldur w22, [x21, #-8]
p590
sg5
L18446743798839743784L
sg6
Nsg23
S'LDUR'
p591
sg25
S'0xffffffc0007b9528L'
p592
sg27
Nsba(ibclass
BInstr
p593
(dp594
g2
Nsg17
S'B               loc_FFFFFFC0007B9598'
p595
sg19
S'1b000014'
p596
sg21
Vb #0x6c
p597
sg5
L18446743798839743788L
sg6
Nsg23
g276
sg25
S'0xffffffc0007b952cL'
p598
sg27
Nsbasg98
(lp599
S'MOV reg, #0xC'
p600
aS'SMADDL reg1, reg3, reg, reg1'
p601
aS'LDUR reg2, mem'
p602
aS'B func'
p603
asg111
Nsg5
S'0xffffffc0007b9520L'
p604
sg113
(lp605
S'0xffffffc0007b9510L'
p606
asg6
Nsg115
(lp607
S'0xffffffc0007b9598L'
p608
asg119
Nsg120
Nsg121
S'dbf8710673f701375b3b8e4ceb717c1a'
p609
sg123
S'465b63c4fe1f64af4115b8f0005c4f27'
p610
sg125
(lp611
g577
ag584
ag591
ag276
asg127
Nsba(ibclass
BBasicBlock
p612
(dp613
g12
Nsg13
(lp614
(ibclass
BInstr
p615
(dp616
g2
Nsg17
S'LDR             W0, [X21]'
p617
sg19
S'a00240b9'
p618
sg21
Vldr w0, [x21]
p619
sg5
L18446743798839743792L
sg6
Nsg23
S'LDR'
p620
sg25
S'0xffffffc0007b9530L'
p621
sg27
Nsba(ibclass
BInstr
p622
(dp623
g2
Nsg17
S'CMP             W24, W0'
p624
sg19
S'1f03006b'
p625
sg21
Vcmp w24, w0
p626
sg5
L18446743798839743796L
sg6
Nsg23
S'CMP'
p627
sg25
S'0xffffffc0007b9534L'
p628
sg27
Nsba(ibclass
BInstr
p629
(dp630
g2
Nsg17
S'B.HI            loc_FFFFFFC0007B956C'
p631
sg19
S'a8010054'
p632
sg21
Vb.hi #0x34
p633
sg5
L18446743798839743800L
sg6
Nsg23
g276
sg25
S'0xffffffc0007b9538L'
p634
sg27
Nsbasg98
(lp635
S'LDR reg, mem'
p636
aS'CMP reg4, reg'
p637
aS'B.HI func'
p638
asg111
Nsg5
S'0xffffffc0007b9530L'
p639
sg113
(lp640
S'0xffffffc0007b9564L'
p641
asg6
Nsg115
(lp642
S'0xffffffc0007b953cL'
p643
aS'0xffffffc0007b956cL'
p644
asg119
Nsg120
Nsg121
S'fa4df767a85c49648339e2dc5c6807f6'
p645
sg123
S'7bce51dd4dc39ae9c0878fe7a71c57d3'
p646
sg125
(lp647
g620
ag627
ag276
asg127
Nsba(ibclass
BBasicBlock
p648
(dp649
g12
Nsg13
(lp650
(ibclass
BInstr
p651
(dp652
g2
Nsg17
S'LDR             W0, [X21,#8]'
p653
sg19
S'a00a40b9'
p654
sg21
Vldr w0, [x21, #8]
p655
sg5
L18446743798839743804L
sg6
Nsg23
S'LDR'
p656
sg25
S'0xffffffc0007b953cL'
p657
sg27
Nsba(ibclass
BInstr
p658
(dp659
g2
Nsg17
S'MOV             W1, W25'
p660
sg19
S'e103192a'
p661
sg21
Vmov w1, w25
p662
sg5
L18446743798839743808L
sg6
Nsg23
S'MOV'
p663
sg25
S'0xffffffc0007b9540L'
p664
sg27
Nsba(ibclass
BInstr
p665
(dp666
g2
Nsg17
S'STR             X2, [X29,#arg_50]'
p667
sg19
S'a23300f9'
p668
sg21
Vstr x2, [x29, #0x60]
p669
sg5
L18446743798839743812L
sg6
Nsg23
S'STR'
p670
sg25
S'0xffffffc0007b9544L'
p671
sg27
Nsba(ibclass
BInstr
p672
(dp673
g2
Nsg17
S'BL              venus_hfi_is_session_supported'
p674
sg19
S'c6feff97'
p675
sg21
Vbl #0xfffffffffffffb18
p676
sg5
L18446743798839743816L
sg6
Nsg23
S'BL'
p677
sg25
S'0xffffffc0007b9548L'
p678
sg27
Nsba(ibclass
BInstr
p679
(dp680
g2
Nsg17
S'UBFM            W0, W0, #0, #7'
p681
sg19
S'001c0053'
p682
sg21
Vuxtb w0, w0
p683
sg5
L18446743798839743820L
sg6
Nsg23
S'UBFM'
p684
sg25
S'0xffffffc0007b954cL'
p685
sg27
Nsba(ibclass
BInstr
p686
(dp687
g2
Nsg17
S'LDR             X2, [X29,#arg_50]'
p688
sg19
S'a23340f9'
p689
sg21
Vldr x2, [x29, #0x60]
p690
sg5
L18446743798839743824L
sg6
Nsg23
S'LDR'
p691
sg25
S'0xffffffc0007b9550L'
p692
sg27
Nsba(ibclass
BInstr
p693
(dp694
g2
Nsg17
S'CBZ             W0, loc_FFFFFFC0007B955C'
p695
sg19
S'40000034'
p696
sg21
Vcbz w0, #8
p697
sg5
L18446743798839743828L
sg6
Nsg23
S'CBZ'
p698
sg25
S'0xffffffc0007b9554L'
p699
sg27
Nsbasg98
(lp700
S'LDR reg, mem'
p701
aS'MOV reg, reg5'
p702
aS'STR reg, mem'
p703
aS'BL venus_hfi_is_session_supported'
p704
aS'UBFM reg, reg, #0, #7'
p705
aS'LDR reg, mem'
p706
aS'CBZ reg, func'
p707
asg111
Nsg5
S'0xffffffc0007b953cL'
p708
sg113
(lp709
S'0xffffffc0007b9530L'
p710
asg6
Nsg115
(lp711
S'0xffffffc0007b9558L'
p712
aS'0xffffffc0007b955cL'
p713
asg119
Nsg120
Nsg121
S'790fbd24ac04ba612e8316701925f884'
p714
sg123
S'12d380b11b3b6dafa2596f3a5cb99201'
p715
sg125
(lp716
g656
ag663
ag670
ag677
ag684
ag691
ag698
asg127
Nsba(ibclass
BBasicBlock
p717
(dp718
g12
Nsg13
(lp719
(ibclass
BInstr
p720
(dp721
g2
Nsg17
S'LDR             W22, [X21,#4]'
p722
sg19
S'b60640b9'
p723
sg21
Vldr w22, [x21, #4]
p724
sg5
L18446743798839743832L
sg6
Nsg23
S'LDR'
p725
sg25
S'0xffffffc0007b9558L'
p726
sg27
Nsbasg98
(lp727
S'LDR reg2, mem'
p728
asg111
Nsg5
S'0xffffffc0007b9558L'
p729
sg113
(lp730
S'0xffffffc0007b953cL'
p731
asg6
Nsg115
(lp732
S'0xffffffc0007b955cL'
p733
asg119
Nsg120
Nsg121
S'6645d4de79aee6373f120d72c0030e5f'
p734
sg123
S'fdfe4edfc04800eef21e1cdc10092d83'
p735
sg125
(lp736
g725
asg127
Nsba(ibclass
BBasicBlock
p737
(dp738
g12
Nsg13
(lp739
(ibclass
BInstr
p740
(dp741
g2
Nsg17
S'ADD             W2, W2, #1'
p742
sg19
S'42040011'
p743
sg21
Vadd w2, w2, #1
p744
sg5
L18446743798839743836L
sg6
Nsg23
S'ADD'
p745
sg25
S'0xffffffc0007b955cL'
p746
sg27
Nsba(ibclass
BInstr
p747
(dp748
g2
Nsg17
S'ADD             X21, X21, #0xC'
p749
sg19
S'b5320091'
p750
sg21
Vadd x21, x21, #0xc
p751
sg5
L18446743798839743840L
sg6
Nsg23
S'ADD'
p752
sg25
S'0xffffffc0007b9560L'
p753
sg27
Nsbasg98
(lp754
S'ADD reg, reg, #1'
p755
aS'ADD reg1, reg1, #0xC'
p756
asg111
Nsg5
S'0xffffffc0007b955cL'
p757
sg113
(lp758
S'0xffffffc0007b953cL'
p759
aS'0xffffffc0007b9558L'
p760
asg6
Nsg115
(lp761
S'0xffffffc0007b9564L'
p762
asg119
Nsg120
Nsg121
S'3e9d720ba74a334edad2354049856247'
p763
sg123
S'5948e5f6ac5a75859807afc17a39ee84'
p764
sg125
(lp765
g745
ag752
asg127
Nsba(ibclass
BBasicBlock
p766
(dp767
g12
Nsg13
(lp768
(ibclass
BInstr
p769
(dp770
g2
Nsg17
S'CMP             W2, W23'
p771
sg19
S'5f00176b'
p772
sg21
Vcmp w2, w23
p773
sg5
L18446743798839743844L
sg6
Nsg23
S'CMP'
p774
sg25
S'0xffffffc0007b9564L'
p775
sg27
Nsba(ibclass
BInstr
p776
(dp777
g2
Nsg17
S'B.LT            loc_FFFFFFC0007B9530'
p778
sg19
S'4bfeff54'
p779
sg21
Vb.lt #0xffffffffffffffc8
p780
sg5
L18446743798839743848L
sg6
Nsg23
g276
sg25
S'0xffffffc0007b9568L'
p781
sg27
Nsbasg98
(lp782
S'CMP reg, reg3'
p783
aS'B.LT func'
p784
asg111
Nsg5
S'0xffffffc0007b9564L'
p785
sg113
(lp786
S'0xffffffc0007b9514L'
p787
aS'0xffffffc0007b955cL'
p788
asg6
Nsg115
(lp789
S'0xffffffc0007b9530L'
p790
aS'0xffffffc0007b956cL'
p791
asg119
Nsg120
Nsg121
S'c78fd620a449e3c979d3f3ec12d4ee88'
p792
sg123
S'846827863ad2ba184adf109d814aa0d4'
p793
sg125
(lp794
g774
ag276
asg127
Nsba(ibclass
BBasicBlock
p795
(dp796
g12
Nsg13
(lp797
(ibclass
BInstr
p798
(dp799
g2
Nsg17
S'LDR             X0, [X26,#0x8A0]'
p800
sg19
S'405344f9'
p801
sg21
Vldr x0, [x26, #0x8a0]
p802
sg5
L18446743798839743852L
sg6
Nsg23
S'LDR'
p803
sg25
S'0xffffffc0007b956cL'
p804
sg27
Nsba(ibclass
BInstr
p805
(dp806
g2
Nsg17
S'LDR             W0, [X0]'
p807
sg19
S'000040b9'
p808
sg21
Vldr w0, [x0]
p809
sg5
L18446743798839743856L
sg6
Nsg23
S'LDR'
p810
sg25
S'0xffffffc0007b9570L'
p811
sg27
Nsba(ibclass
BInstr
p812
(dp813
g2
Nsg17
S'TBZ             W0, #4, loc_FFFFFFC0007B9598'
p814
sg19
S'20012036'
p815
sg21
Vtbz w0, #4, #0x24
p816
sg5
L18446743798839743860L
sg6
Nsg23
S'TBZ'
p817
sg25
S'0xffffffc0007b9574L'
p818
sg27
Nsbasg98
(lp819
S'LDR reg, mem'
p820
aS'LDR reg, mem'
p821
aS'TBZ reg, #4, func'
p822
asg111
Nsg5
S'0xffffffc0007b956cL'
p823
sg113
(lp824
S'0xffffffc0007b9530L'
p825
aS'0xffffffc0007b9564L'
p826
asg6
Nsg115
(lp827
S'0xffffffc0007b9578L'
p828
aS'0xffffffc0007b9598L'
p829
asg119
Nsg120
Nsg121
S'ac18b97d3a767be1a0530f85211830b6'
p830
sg123
S'6084bcc997365abd46b3542c6186716c'
p831
sg125
(lp832
g803
ag810
ag817
asg127
Nsba(ibclass
BBasicBlock
p833
(dp834
g12
Nsg13
(lp835
(ibclass
BInstr
p836
(dp837
g2
Nsg17
S'ADRP            X0, #qword_FFFFFFC000E48D48@PAGE'
p838
sg19
S'603400f0'
p839
sg21
Vadrp x0, #0x68f000
p840
sg5
L18446743798839743864L
sg6
Nsg23
S'ADRP'
p841
sg25
S'0xffffffc0007b9578L'
p842
sg27
Nsba(ibclass
BInstr
p843
(dp844
g2
Nsg17
S'LDR             X0, [X0,#qword_FFFFFFC000E48D48@PAGEOFF]'
p845
sg19
S'00a446f9'
p846
sg21
Vldr x0, [x0, #0xd48]
p847
sg5
L18446743798839743868L
sg6
Nsg23
S'LDR'
p848
sg25
S'0xffffffc0007b957cL'
p849
sg27
Nsba(ibclass
BInstr
p850
(dp851
g2
Nsg17
S'LDR             W0, [X0]'
p852
sg19
S'000040b9'
p853
sg21
Vldr w0, [x0]
p854
sg5
L18446743798839743872L
sg6
Nsg23
S'LDR'
p855
sg25
S'0xffffffc0007b9580L'
p856
sg27
Nsba(ibclass
BInstr
p857
(dp858
g2
Nsg17
S'CBNZ            W0, loc_FFFFFFC0007B9598'
p859
sg19
S'a0000035'
p860
sg21
Vcbnz w0, #0x14
p861
sg5
L18446743798839743876L
sg6
Nsg23
S'CBNZ'
p862
sg25
S'0xffffffc0007b9584L'
p863
sg27
Nsbasg98
(lp864
S'ADRP reg, #func@PAGE'
p865
aS'LDR reg, mem'
p866
aS'LDR reg, mem'
p867
aS'CBNZ reg, func'
p868
asg111
Nsg5
S'0xffffffc0007b9578L'
p869
sg113
(lp870
S'0xffffffc0007b956cL'
p871
asg6
Nsg115
(lp872
S'0xffffffc0007b9588L'
p873
aS'0xffffffc0007b9598L'
p874
asg119
Nsg120
Nsg121
S'9c97521b8b0f280d47a50ec9a5e4f86f'
p875
sg123
S'bd26f8893557dc5fa132ff2490be0ebf'
p876
sg125
(lp877
g841
ag848
ag855
ag862
asg127
Nsba(ibclass
BBasicBlock
p878
(dp879
g12
Nsg13
(lp880
(ibclass
BInstr
p881
(dp882
g2
Nsg17
S'MOV             X0, X27'
p883
sg19
S'e0031baa'
p884
sg21
Vmov x0, x27
p885
sg5
L18446743798839743880L
sg6
Nsg23
S'MOV'
p886
sg25
S'0xffffffc0007b9588L'
p887
sg27
Nsba(ibclass
BInstr
p888
(dp889
g2
Nsg17
S'MOV             X1, X28'
p890
sg19
S'e1031caa'
p891
sg21
Vmov x1, x28
p892
sg5
L18446743798839743884L
sg6
Nsg23
S'MOV'
p893
sg25
S'0xffffffc0007b958cL'
p894
sg27
Nsba(ibclass
BInstr
p895
(dp896
g2
Nsg17
S'MOV             X2, X22'
p897
sg19
S'e20316aa'
p898
sg21
Vmov x2, x22
p899
sg5
L18446743798839743888L
sg6
Nsg23
S'MOV'
p900
sg25
S'0xffffffc0007b9590L'
p901
sg27
Nsba(ibclass
BInstr
p902
(dp903
g2
Nsg17
S'BL              printk'
p904
sg19
S'f3e81994'
p905
sg21
Vbl #0x67a3cc
p906
sg5
L18446743798839743892L
sg6
Nsg23
S'BL'
p907
sg25
S'0xffffffc0007b9594L'
p908
sg27
Nsbasg98
(lp909
S'MOV reg, reg7'
p910
aS'MOV reg, reg8'
p911
aS'MOV reg, reg2'
p912
aS'BL printk'
p913
asg111
Nsg5
S'0xffffffc0007b9588L'
p914
sg113
(lp915
S'0xffffffc0007b9578L'
p916
asg6
Nsg115
(lp917
S'0xffffffc0007b9598L'
p918
asg119
Nsg120
Nsg121
S'441b8e198e5abdd2c95327eca4a4bbe4'
p919
sg123
S'550498fb387766ab43c365031be5dfc7'
p920
sg125
(lp921
g886
ag893
ag900
ag907
asg127
Nsba(ibclass
BBasicBlock
p922
(dp923
g12
Nsg13
(lp924
(ibclass
BInstr
p925
(dp926
g2
Nsg17
S'LDR             X0, [X19,#8]'
p927
sg19
S'600640f9'
p928
sg21
Vldr x0, [x19, #8]
p929
sg5
L18446743798839743896L
sg6
Nsg23
S'LDR'
p930
sg25
S'0xffffffc0007b9598L'
p931
sg27
Nsba(ibclass
BInstr
p932
(dp933
g2
Nsg17
S'MOV             X1, X22'
p934
sg19
S'e10316aa'
p935
sg21
Vmov x1, x22
p936
sg5
L18446743798839743900L
sg6
Nsg23
S'MOV'
p937
sg25
S'0xffffffc0007b959cL'
p938
sg27
Nsba(ibclass
BInstr
p939
(dp940
g2
Nsg17
S'BL              clk_set_rate'
p941
sg19
S'f90b0f94'
p942
sg21
Vbl #0x3c2fe4
p943
sg5
L18446743798839743904L
sg6
Nsg23
S'BL'
p944
sg25
S'0xffffffc0007b95a0L'
p945
sg27
Nsba(ibclass
BInstr
p946
(dp947
g2
Nsg17
S'CBZ             W0, loc_FFFFFFC0007B95F0'
p948
sg19
S'60020034'
p949
sg21
Vcbz w0, #0x4c
p950
sg5
L18446743798839743908L
sg6
Nsg23
S'CBZ'
p951
sg25
S'0xffffffc0007b95a4L'
p952
sg27
Nsbasg98
(lp953
S'LDR reg, mem'
p954
aS'MOV reg, reg2'
p955
aS'BL clk_set_rate'
p956
aS'CBZ reg, func'
p957
asg111
Nsg5
S'0xffffffc0007b9598L'
p958
sg113
(lp959
S'0xffffffc0007b9520L'
p960
aS'0xffffffc0007b956cL'
p961
aS'0xffffffc0007b9578L'
p962
aS'0xffffffc0007b9588L'
p963
asg6
Nsg115
(lp964
S'0xffffffc0007b95a8L'
p965
aS'0xffffffc0007b95f0L'
p966
asg119
Nsg120
Nsg121
S'0b2f63c78b732d93395f4b40b113a9cd'
p967
sg123
S'a5d9494277fd6158d1ee90f8ebe6a2b2'
p968
sg125
(lp969
g930
ag937
ag944
ag951
asg127
Nsba(ibclass
BBasicBlock
p970
(dp971
g12
Nsg13
(lp972
(ibclass
BInstr
p973
(dp974
g2
Nsg17
S'ADRP            X1, #qword_FFFFFFC000E4A8A0@PAGE'
p975
sg19
S'813400b0'
p976
sg21
Vadrp x1, #0x691000
p977
sg5
L18446743798839743912L
sg6
Nsg23
S'ADRP'
p978
sg25
S'0xffffffc0007b95a8L'
p979
sg27
Nsba(ibclass
BInstr
p980
(dp981
g2
Nsg17
S'LDR             X1, [X1,#qword_FFFFFFC000E4A8A0@PAGEOFF]'
p982
sg19
S'215044f9'
p983
sg21
Vldr x1, [x1, #0x8a0]
p984
sg5
L18446743798839743916L
sg6
Nsg23
S'LDR'
p985
sg25
S'0xffffffc0007b95acL'
p986
sg27
Nsba(ibclass
BInstr
p987
(dp988
g2
Nsg17
S'MOV             W21, W0'
p989
sg19
S'f503002a'
p990
sg21
Vmov w21, w0
p991
sg5
L18446743798839743920L
sg6
Nsg23
S'MOV'
p992
sg25
S'0xffffffc0007b95b0L'
p993
sg27
Nsba(ibclass
BInstr
p994
(dp995
g2
Nsg17
S'LDR             W1, [X1]'
p996
sg19
S'210040b9'
p997
sg21
Vldr w1, [x1]
p998
sg5
L18446743798839743924L
sg6
Nsg23
S'LDR'
p999
sg25
S'0xffffffc0007b95b4L'
p1000
sg27
Nsba(ibclass
BInstr
p1001
(dp1002
g2
Nsg17
S'TBZ             W1, #0, loc_FFFFFFC0007B9604'
p1003
sg19
S'61020036'
p1004
sg21
Vtbz w1, #0, #0x4c
p1005
sg5
L18446743798839743928L
sg6
Nsg23
S'TBZ'
p1006
sg25
S'0xffffffc0007b95b8L'
p1007
sg27
Nsbasg98
(lp1008
S'ADRP reg, #func@PAGE'
p1009
aS'LDR reg, mem'
p1010
aS'MOV reg1, reg'
p1011
aS'LDR reg, mem'
p1012
aS'TBZ reg, #0, func'
p1013
asg111
Nsg5
S'0xffffffc0007b95a8L'
p1014
sg113
(lp1015
S'0xffffffc0007b9598L'
p1016
asg6
Nsg115
(lp1017
S'0xffffffc0007b95bcL'
p1018
aS'0xffffffc0007b9604L'
p1019
asg119
Nsg120
Nsg121
S'fb7c64e200fb6e0b1c15ec663b8ca287'
p1020
sg123
S'c73765b88e1812e73e2faf100657a9c6'
p1021
sg125
(lp1022
g978
ag985
ag992
ag999
ag1006
asg127
Nsba(ibclass
BBasicBlock
p1023
(dp1024
g12
Nsg13
(lp1025
(ibclass
BInstr
p1026
(dp1027
g2
Nsg17
S'ADRP            X0, #qword_FFFFFFC000E48D48@PAGE'
p1028
sg19
S'603400f0'
p1029
sg21
Vadrp x0, #0x68f000
p1030
sg5
L18446743798839743932L
sg6
Nsg23
S'ADRP'
p1031
sg25
S'0xffffffc0007b95bcL'
p1032
sg27
Nsba(ibclass
BInstr
p1033
(dp1034
g2
Nsg17
S'LDR             X0, [X0,#qword_FFFFFFC000E48D48@PAGEOFF]'
p1035
sg19
S'00a446f9'
p1036
sg21
Vldr x0, [x0, #0xd48]
p1037
sg5
L18446743798839743936L
sg6
Nsg23
S'LDR'
p1038
sg25
S'0xffffffc0007b95c0L'
p1039
sg27
Nsba(ibclass
BInstr
p1040
(dp1041
g2
Nsg17
S'LDR             W0, [X0]'
p1042
sg19
S'000040b9'
p1043
sg21
Vldr w0, [x0]
p1044
sg5
L18446743798839743940L
sg6
Nsg23
S'LDR'
p1045
sg25
S'0xffffffc0007b95c4L'
p1046
sg27
Nsba(ibclass
BInstr
p1047
(dp1048
g2
Nsg17
S'CBNZ            W0, loc_FFFFFFC0007B9604'
p1049
sg19
S'e0010035'
p1050
sg21
Vcbnz w0, #0x3c
p1051
sg5
L18446743798839743944L
sg6
Nsg23
S'CBNZ'
p1052
sg25
S'0xffffffc0007b95c8L'
p1053
sg27
Nsbasg98
(lp1054
S'ADRP reg, #func@PAGE'
p1055
aS'LDR reg, mem'
p1056
aS'LDR reg, mem'
p1057
aS'CBNZ reg, func'
p1058
asg111
Nsg5
S'0xffffffc0007b95bcL'
p1059
sg113
(lp1060
S'0xffffffc0007b95a8L'
p1061
asg6
Nsg115
(lp1062
S'0xffffffc0007b95ccL'
p1063
aS'0xffffffc0007b9604L'
p1064
asg119
Nsg120
Nsg121
S'9c97521b8b0f280d47a50ec9a5e4f86f'
p1065
sg123
S'bd26f8893557dc5fa132ff2490be0ebf'
p1066
sg125
(lp1067
g1031
ag1038
ag1045
ag1052
asg127
Nsba(ibclass
BBasicBlock
p1068
(dp1069
g12
Nsg13
(lp1070
(ibclass
BInstr
p1071
(dp1072
g2
Nsg17
S'ADRP            X0, #unk_FFFFFFC0013BEF06@PAGE'
p1073
sg19
S'206000b0'
p1074
sg21
Vadrp x0, #0xc05000
p1075
sg5
L18446743798839743948L
sg6
Nsg23
S'ADRP'
p1076
sg25
S'0xffffffc0007b95ccL'
p1077
sg27
Nsba(ibclass
BInstr
p1078
(dp1079
g2
Nsg17
S'ADRP            X1, #(aQcomMdssDsi_17+0x1B)@PAGE; "err"'
p1080
sg19
S'a15b00d0'
p1081
sg21
Vadrp x1, #0xb76000
p1082
sg5
L18446743798839743952L
sg6
Nsg23
S'ADRP'
p1083
sg25
S'0xffffffc0007b95d0L'
p1084
sg27
Nsba(ibclass
BInstr
p1085
(dp1086
g2
Nsg17
S'LDR             X3, [X19]'
p1087
sg19
S'630240f9'
p1088
sg21
Vldr x3, [x19]
p1089
sg5
L18446743798839743956L
sg6
Nsg23
S'LDR'
p1090
sg25
S'0xffffffc0007b95d4L'
p1091
sg27
Nsba(ibclass
BInstr
p1092
(dp1093
g2
Nsg17
S'ADD             X1, X1, #(aQcomMdssDsi_17+0x1B)@PAGEOFF; "err"'
p1094
sg19
S'21801291'
p1095
sg21
Vadd x1, x1, #0x4a0
p1096
sg5
L18446743798839743960L
sg6
Nsg23
S'ADD'
p1097
sg25
S'0xffffffc0007b95d8L'
p1098
sg27
Nsba(ibclass
BInstr
p1099
(dp1100
g2
Nsg17
S'MOV             X2, X22'
p1101
sg19
S'e20316aa'
p1102
sg21
Vmov x2, x22
p1103
sg5
L18446743798839743964L
sg6
Nsg23
S'MOV'
p1104
sg25
S'0xffffffc0007b95dcL'
p1105
sg27
Nsba(ibclass
BInstr
p1106
(dp1107
g2
Nsg17
S'MOV             W4, W21'
p1108
sg19
S'e403152a'
p1109
sg21
Vmov w4, w21
p1110
sg5
L18446743798839743968L
sg6
Nsg23
S'MOV'
p1111
sg25
S'0xffffffc0007b95e0L'
p1112
sg27
Nsba(ibclass
BInstr
p1113
(dp1114
g2
Nsg17
S'ADD             X0, X0, #unk_FFFFFFC0013BEF06@PAGEOFF'
p1115
sg19
S'00183c91'
p1116
sg21
Vadd x0, x0, #0xf06
p1117
sg5
L18446743798839743972L
sg6
Nsg23
S'ADD'
p1118
sg25
S'0xffffffc0007b95e4L'
p1119
sg27
Nsba(ibclass
BInstr
p1120
(dp1121
g2
Nsg17
S'BL              printk'
p1122
sg19
S'dee81994'
p1123
sg21
Vbl #0x67a378
p1124
sg5
L18446743798839743976L
sg6
Nsg23
S'BL'
p1125
sg25
S'0xffffffc0007b95e8L'
p1126
sg27
Nsba(ibclass
BInstr
p1127
(dp1128
g2
Nsg17
S'B               loc_FFFFFFC0007B9604'
p1129
sg19
S'06000014'
p1130
sg21
Vb #0x18
p1131
sg5
L18446743798839743980L
sg6
Nsg23
g276
sg25
S'0xffffffc0007b95ecL'
p1132
sg27
Nsbasg98
(lp1133
S'ADRP reg, #func@PAGE'
p1134
aS'ADRP reg, #(aQcomMdssDsi_17+0x1B)@PAGE'
p1135
aS'LDR reg, mem'
p1136
aS'ADD reg, reg, #(aQcomMdssDsi_17+0x1B)@PAGEOFF'
p1137
aS'MOV reg, reg2'
p1138
aS'MOV reg, reg1'
p1139
aS'ADD reg, reg, #func@PAGEOFF'
p1140
aS'BL printk'
p1141
aS'B func'
p1142
asg111
Nsg5
S'0xffffffc0007b95ccL'
p1143
sg113
(lp1144
S'0xffffffc0007b95bcL'
p1145
asg6
Nsg115
(lp1146
S'0xffffffc0007b9604L'
p1147
asg119
Nsg120
Nsg121
S'7ed53bbff73d48471b2ce9d8edcc4409'
p1148
sg123
S'932cdc689f3c2f211f47f57ea0a7bbd4'
p1149
sg125
(lp1150
g1076
ag1083
ag1090
ag1097
ag1104
ag1111
ag1118
ag1125
ag276
asg127
Nsba(ibclass
BBasicBlock
p1151
(dp1152
g12
Nsg13
(lp1153
(ibclass
BInstr
p1154
(dp1155
g2
Nsg17
S'ADD             X19, X19, #0x20'
p1156
sg19
S'73820091'
p1157
sg21
Vadd x19, x19, #0x20
p1158
sg5
L18446743798839743984L
sg6
Nsg23
S'ADD'
p1159
sg25
S'0xffffffc0007b95f0L'
p1160
sg27
Nsba(ibclass
BInstr
p1161
(dp1162
g2
Nsg17
S'B               loc_FFFFFFC0007B94E0'
p1163
sg19
S'bbffff17'
p1164
sg21
Vb #0xfffffffffffffeec
p1165
sg5
L18446743798839743988L
sg6
Nsg23
g276
sg25
S'0xffffffc0007b95f4L'
p1166
sg27
Nsbasg98
(lp1167
S'ADD reg9, reg9, #0x20'
p1168
aS'B func'
p1169
asg111
Nsg5
S'0xffffffc0007b95f0L'
p1170
sg113
(lp1171
S'0xffffffc0007b94f8L'
p1172
aS'0xffffffc0007b9598L'
p1173
asg6
Nsg115
(lp1174
S'0xffffffc0007b94e0L'
p1175
asg119
Nsg120
Nsg121
S'f59ed0fb4617df9a98cc94b1d7075f92'
p1176
sg123
S'80bdeacd53dc7f37eedc8df5e70da5f2'
p1177
sg125
(lp1178
g1159
ag276
asg127
Nsba(ibclass
BBasicBlock
p1179
(dp1180
g12
Nsg13
(lp1181
(ibclass
BInstr
p1182
(dp1183
g2
Nsg17
S'MOV             W21, #0'
p1184
sg19
S'15008052'
p1185
sg21
Vmovz w21, #0
p1186
sg5
L18446743798839743992L
sg6
Nsg23
S'MOV'
p1187
sg25
S'0xffffffc0007b95f8L'
p1188
sg27
Nsba(ibclass
BInstr
p1189
(dp1190
g2
Nsg17
S'B               loc_FFFFFFC0007B9604'
p1191
sg19
S'02000014'
p1192
sg21
Vb #8
p1193
sg5
L18446743798839743996L
sg6
Nsg23
g276
sg25
S'0xffffffc0007b95fcL'
p1194
sg27
Nsbasg98
(lp1195
S'MOV reg1, #0'
p1196
aS'B func'
p1197
asg111
Nsg5
S'0xffffffc0007b95f8L'
p1198
sg113
(lp1199
S'0xffffffc0007b94e0L'
p1200
asg6
Nsg115
(lp1201
S'0xffffffc0007b9604L'
p1202
asg119
Nsg120
Nsg121
S'b6c4e95ccfe77a95e4cf2019dd3d5574'
p1203
sg123
S'3304e4c8cd3d4ff34d66cf788138fe09'
p1204
sg125
(lp1205
g1187
ag276
asg127
Nsba(ibclass
BBasicBlock
p1206
(dp1207
g12
Nsg13
(lp1208
(ibclass
BInstr
p1209
(dp1210
g2
Nsg17
S'MOV             W21, #0xFFFFFFEA'
p1211
sg19
S'b5028012'
p1212
sg21
Vmovn w21, #0x15
p1213
sg5
L18446743798839744000L
sg6
Nsg23
S'MOV'
p1214
sg25
S'0xffffffc0007b9600L'
p1215
sg27
Nsbasg98
(lp1216
S'MOV reg1, #0xFFFFFFEA'
p1217
asg111
Nsg5
S'0xffffffc0007b9600L'
p1218
sg113
(lp1219
S'0xffffffc0007b947cL'
p1220
asg6
Nsg115
(lp1221
S'0xffffffc0007b9604L'
p1222
asg119
Nsg120
Nsg121
S'17b32100aef1fc19670be7fd58bc85df'
p1223
sg123
S'04fa9eb7c983897fd86b3dcbc689beab'
p1224
sg125
(lp1225
g1214
asg127
Nsba(ibclass
BBasicBlock
p1226
(dp1227
g12
Nsg13
(lp1228
(ibclass
BInstr
p1229
(dp1230
g2
Nsg17
S'MOV             W0, W21'
p1231
sg19
S'e003152a'
p1232
sg21
Vmov w0, w21
p1233
sg5
L18446743798839744004L
sg6
Nsg23
S'MOV'
p1234
sg25
S'0xffffffc0007b9604L'
p1235
sg27
Nsba(ibclass
BInstr
p1236
(dp1237
g2
Nsg17
S'LDP             X19, X20, [SP,#0x60+var_50]'
p1238
sg19
S'f35341a9'
p1239
sg21
Vldp x19, x20, [sp, #0x10]
p1240
sg5
L18446743798839744008L
sg6
Nsg23
S'LDP'
p1241
sg25
S'0xffffffc0007b9608L'
p1242
sg27
Nsba(ibclass
BInstr
p1243
(dp1244
g2
Nsg17
S'LDP             X21, X22, [SP,#0x60+var_40]'
p1245
sg19
S'f55b42a9'
p1246
sg21
Vldp x21, x22, [sp, #0x20]
p1247
sg5
L18446743798839744012L
sg6
Nsg23
S'LDP'
p1248
sg25
S'0xffffffc0007b960cL'
p1249
sg27
Nsba(ibclass
BInstr
p1250
(dp1251
g2
Nsg17
S'LDP             X23, X24, [SP,#0x60+var_30]'
p1252
sg19
S'f76343a9'
p1253
sg21
Vldp x23, x24, [sp, #0x30]
p1254
sg5
L18446743798839744016L
sg6
Nsg23
S'LDP'
p1255
sg25
S'0xffffffc0007b9610L'
p1256
sg27
Nsba(ibclass
BInstr
p1257
(dp1258
g2
Nsg17
S'LDP             X25, X26, [SP,#0x60+var_20]'
p1259
sg19
S'f96b44a9'
p1260
sg21
Vldp x25, x26, [sp, #0x40]
p1261
sg5
L18446743798839744020L
sg6
Nsg23
S'LDP'
p1262
sg25
S'0xffffffc0007b9614L'
p1263
sg27
Nsba(ibclass
BInstr
p1264
(dp1265
g2
Nsg17
S'LDP             X27, X28, [SP,#0x60+var_10]'
p1266
sg19
S'fb7345a9'
p1267
sg21
Vldp x27, x28, [sp, #0x50]
p1268
sg5
L18446743798839744024L
sg6
Nsg23
S'LDP'
p1269
sg25
S'0xffffffc0007b9618L'
p1270
sg27
Nsba(ibclass
BInstr
p1271
(dp1272
g2
Nsg17
S'LDP             X29, X30, [SP+0x60+var_60],#0x70'
p1273
sg19
S'fd7bc7a8'
p1274
sg21
Vldp x29, x30, [sp], #0x70
p1275
sg5
L18446743798839744028L
sg6
Nsg23
S'LDP'
p1276
sg25
S'0xffffffc0007b961cL'
p1277
sg27
Nsba(ibclass
BInstr
p1278
(dp1279
g2
Nsg17
S'RET'
p1280
sg19
S'c0035fd6'
p1281
sg21
Vret 
p1282
sg5
L18446743798839744032L
sg6
Nsg23
S'RET'
p1283
sg25
S'0xffffffc0007b9620L'
p1284
sg27
Nsbasg98
(lp1285
S'MOV reg, reg1'
p1286
aS'LDP reg9, reg0, mem'
p1287
aS'LDP reg1, reg2, mem'
p1288
aS'LDP reg3, reg4, mem'
p1289
aS'LDP reg5, reg6, mem'
p1290
aS'LDP reg7, reg8, mem'
p1291
aS'LDP reg9, reg0, mem,#0x70'
p1292
ag1280
asg111
Nsg5
S'0xffffffc0007b9604L'
p1293
sg113
(lp1294
S'0xffffffc0007b948cL'
p1295
aS'0xffffffc0007b94a0L'
p1296
aS'0xffffffc0007b95a8L'
p1297
aS'0xffffffc0007b95bcL'
p1298
aS'0xffffffc0007b95ccL'
p1299
aS'0xffffffc0007b95f8L'
p1300
aS'0xffffffc0007b9600L'
p1301
asg6
Nsg115
(lp1302
sg119
Nsg120
Nsg121
S'fb51b4f49e207839e4541c8a63536464'
p1303
sg123
S'9bafb8ed1d8e292771424410d346d366'
p1304
sg125
(lp1305
g1234
ag1241
ag1248
ag1255
ag1262
ag1269
ag1276
ag1283
asg127
Nsbasb.