(ibclass
BFunc
p0
(dp1
S'hash'
p2
NsS'name'
p3
S'venus_hfi_get_core_clock_rate'
p4
sS'start_address'
p5
L18446743798839779112L
sS'flag'
p6
NsS'program'
p7
NsS'bbs'
p8
(lp9
(ibclass
BBasicBlock
p10
(dp11
S'function'
p12
NsS'binstrs'
p13
(lp14
(ibclass
BInstr
p15
(dp16
g2
NsS'disasm'
p17
S'STP             X29, X30, [SP,#-0x10+var_20]!'
p18
sS'bytes'
p19
S'fd7bbda9'
p20
sS'disasm_striped'
p21
Vstp x29, x30, [sp, #-0x30]!
p22
sg5
L18446743798839779112L
sg6
NsS'mnem'
p23
S'STP'
p24
sS'address'
p25
S'0xffffffc0007c1f28L'
p26
sS'basicblock'
p27
Nsba(ibclass
BInstr
p28
(dp29
g2
Nsg17
S'MOV             X29, SP'
p30
sg19
S'fd030091'
p31
sg21
Vmov x29, sp
p32
sg5
L18446743798839779116L
sg6
Nsg23
S'MOV'
p33
sg25
S'0xffffffc0007c1f2cL'
p34
sg27
Nsba(ibclass
BInstr
p35
(dp36
g2
Nsg17
S'STP             X19, X20, [SP,#0x20+var_10]'
p37
sg19
S'f35301a9'
p38
sg21
Vstp x19, x20, [sp, #0x10]
p39
sg5
L18446743798839779120L
sg6
Nsg23
S'STP'
p40
sg25
S'0xffffffc0007c1f30L'
p41
sg27
Nsba(ibclass
BInstr
p42
(dp43
g2
Nsg17
S'STR             X21, [SP,#0x20+var_s0]'
p44
sg19
S'f51300f9'
p45
sg21
Vstr x21, [sp, #0x20]
p46
sg5
L18446743798839779124L
sg6
Nsg23
S'STR'
p47
sg25
S'0xffffffc0007c1f34L'
p48
sg27
Nsba(ibclass
BInstr
p49
(dp50
g2
Nsg17
S'MOV             X3, X0'
p51
sg19
S'e30300aa'
p52
sg21
Vmov x3, x0
p53
sg5
L18446743798839779128L
sg6
Nsg23
S'MOV'
p54
sg25
S'0xffffffc0007c1f38L'
p55
sg27
Nsba(ibclass
BInstr
p56
(dp57
g2
Nsg17
S'CBNZ            X0, loc_FFFFFFC0007C1F88'
p58
sg19
S'600200b5'
p59
sg21
Vcbnz x0, #0x4c
p60
sg5
L18446743798839779132L
sg6
Nsg23
S'CBNZ'
p61
sg25
S'0xffffffc0007c1f3cL'
p62
sg27
NsbasS'disasm_list'
p63
(lp64
S'STP reg9, reg0, mem!'
p65
aS'MOV reg9, SP'
p66
aS'STP reg9, reg0, mem'
p67
aS'STR reg1, mem'
p68
aS'MOV reg, reg'
p69
aS'CBNZ reg, func'
p70
asS'end_address'
p71
Nsg5
S'0xffffffc0007c1f28L'
p72
sS'preds'
p73
(lp74
sg6
NsS'succs'
p75
(lp76
S'0xffffffc0007c1f40L'
p77
aS'0xffffffc0007c1f88L'
p78
asS'hash_v3'
p79
NsS'flag_v2'
p80
NsS'hash_v1'
p81
S'6437cd5c41ca6dce8022e9f9466799f8'
p82
sS'hash_v2'
p83
S'e51fb4140803d803e8452899b43fb42e'
p84
sS'mnen_list'
p85
(lp86
g24
ag33
ag40
ag47
ag54
ag61
asS'neighbour_disasm_list'
p87
Nsba(ibclass
BBasicBlock
p88
(dp89
g12
Nsg13
(lp90
(ibclass
BInstr
p91
(dp92
g2
Nsg17
S'ADRP            X0, #qword_FFFFFFC000E4A8A0@PAGE'
p93
sg19
S'403400b0'
p94
sg21
Vadrp x0, #0x689000
p95
sg5
L18446743798839779136L
sg6
Nsg23
S'ADRP'
p96
sg25
S'0xffffffc0007c1f40L'
p97
sg27
Nsba(ibclass
BInstr
p98
(dp99
g2
Nsg17
S'LDR             X0, [X0,#qword_FFFFFFC000E4A8A0@PAGEOFF]'
p100
sg19
S'005044f9'
p101
sg21
Vldr x0, [x0, #0x8a0]
p102
sg5
L18446743798839779140L
sg6
Nsg23
S'LDR'
p103
sg25
S'0xffffffc0007c1f44L'
p104
sg27
Nsba(ibclass
BInstr
p105
(dp106
g2
Nsg17
S'MOV             X20, #0xFFFFFFFFFFFFFFEA'
p107
sg19
S'b4028092'
p108
sg21
Vmovn x20, #0x15
p109
sg5
L18446743798839779144L
sg6
Nsg23
S'MOV'
p110
sg25
S'0xffffffc0007c1f48L'
p111
sg27
Nsba(ibclass
BInstr
p112
(dp113
g2
Nsg17
S'LDR             W0, [X0]'
p114
sg19
S'000040b9'
p115
sg21
Vldr w0, [x0]
p116
sg5
L18446743798839779148L
sg6
Nsg23
S'LDR'
p117
sg25
S'0xffffffc0007c1f4cL'
p118
sg27
Nsba(ibclass
BInstr
p119
(dp120
g2
Nsg17
S'TBZ             W0, #0, loc_FFFFFFC0007C2028'
p121
sg19
S'c0060036'
p122
sg21
Vtbz w0, #0, #0xd8
p123
sg5
L18446743798839779152L
sg6
Nsg23
S'TBZ'
p124
sg25
S'0xffffffc0007c1f50L'
p125
sg27
Nsbasg63
(lp126
S'ADRP reg, #func@PAGE'
p127
aS'LDR reg, mem'
p128
aS'MOV reg0, #0xFFFFFFFFFFFFFFEA'
p129
aS'LDR reg, mem'
p130
aS'TBZ reg, #0, func'
p131
asg71
Nsg5
S'0xffffffc0007c1f40L'
p132
sg73
(lp133
S'0xffffffc0007c1f28L'
p134
asg6
Nsg75
(lp135
S'0xffffffc0007c1f54L'
p136
aS'0xffffffc0007c2028L'
p137
asg79
Nsg80
Nsg81
S'fb7c64e200fb6e0b1c15ec663b8ca287'
p138
sg83
S'2edc1217aa30bcd8d408204645e0982b'
p139
sg85
(lp140
g96
ag103
ag110
ag117
ag124
asg87
Nsba(ibclass
BBasicBlock
p141
(dp142
g12
Nsg13
(lp143
(ibclass
BInstr
p144
(dp145
g2
Nsg17
S'ADRP            X0, #qword_FFFFFFC000E48D48@PAGE'
p146
sg19
S'203400f0'
p147
sg21
Vadrp x0, #0x687000
p148
sg5
L18446743798839779156L
sg6
Nsg23
S'ADRP'
p149
sg25
S'0xffffffc0007c1f54L'
p150
sg27
Nsba(ibclass
BInstr
p151
(dp152
g2
Nsg17
S'LDR             X0, [X0,#qword_FFFFFFC000E48D48@PAGEOFF]'
p153
sg19
S'00a446f9'
p154
sg21
Vldr x0, [x0, #0xd48]
p155
sg5
L18446743798839779160L
sg6
Nsg23
S'LDR'
p156
sg25
S'0xffffffc0007c1f58L'
p157
sg27
Nsba(ibclass
BInstr
p158
(dp159
g2
Nsg17
S'LDR             W0, [X0]'
p160
sg19
S'000040b9'
p161
sg21
Vldr w0, [x0]
p162
sg5
L18446743798839779164L
sg6
Nsg23
S'LDR'
p163
sg25
S'0xffffffc0007c1f5cL'
p164
sg27
Nsba(ibclass
BInstr
p165
(dp166
g2
Nsg17
S'CBNZ            W0, loc_FFFFFFC0007C2028'
p167
sg19
S'40060035'
p168
sg21
Vcbnz w0, #0xc8
p169
sg5
L18446743798839779168L
sg6
Nsg23
S'CBNZ'
p170
sg25
S'0xffffffc0007c1f60L'
p171
sg27
Nsbasg63
(lp172
S'ADRP reg, #func@PAGE'
p173
aS'LDR reg, mem'
p174
aS'LDR reg, mem'
p175
aS'CBNZ reg, func'
p176
asg71
Nsg5
S'0xffffffc0007c1f54L'
p177
sg73
(lp178
S'0xffffffc0007c1f40L'
p179
asg6
Nsg75
(lp180
S'0xffffffc0007c1f64L'
p181
aS'0xffffffc0007c2028L'
p182
asg79
Nsg80
Nsg81
S'9c97521b8b0f280d47a50ec9a5e4f86f'
p183
sg83
S'bd26f8893557dc5fa132ff2490be0ebf'
p184
sg85
(lp185
g149
ag156
ag163
ag170
asg87
Nsba(ibclass
BBasicBlock
p186
(dp187
g12
Nsg13
(lp188
(ibclass
BInstr
p189
(dp190
g2
Nsg17
S'ADRP            X2, #__func__.33986@PAGE; "venus_hfi_suspend"'
p191
sg19
S'424400b0'
p192
sg21
Vadrp x2, #0x889000
p193
sg5
L18446743798839779172L
sg6
Nsg23
S'ADRP'
p194
sg25
S'0xffffffc0007c1f64L'
p195
sg27
Nsba(ibclass
BInstr
p196
(dp197
g2
Nsg17
S'ADRP            X0, #unk_FFFFFFC0013B6580@PAGE'
p198
sg19
S'a05f00b0'
p199
sg21
Vadrp x0, #0xbf5000
p200
sg5
L18446743798839779176L
sg6
Nsg23
S'ADRP'
p201
sg25
S'0xffffffc0007c1f68L'
p202
sg27
Nsba(ibclass
BInstr
p203
(dp204
g2
Nsg17
S'ADRP            X1, #(aQcomMdssDsi_17+0x1B)@PAGE; "err"'
p205
sg19
S'615b00d0'
p206
sg21
Vadrp x1, #0xb6e000
p207
sg5
L18446743798839779180L
sg6
Nsg23
S'ADRP'
p208
sg25
S'0xffffffc0007c1f6cL'
p209
sg27
Nsba(ibclass
BInstr
p210
(dp211
g2
Nsg17
S'ADD             X2, X2, #__func__.33986@PAGEOFF; "venus_hfi_suspend"'
p212
sg19
S'42201891'
p213
sg21
Vadd x2, x2, #0x608
p214
sg5
L18446743798839779184L
sg6
Nsg23
S'ADD'
p215
sg25
S'0xffffffc0007c1f70L'
p216
sg27
Nsba(ibclass
BInstr
p217
(dp218
g2
Nsg17
S'ADD             X1, X1, #(aQcomMdssDsi_17+0x1B)@PAGEOFF; "err"'
p219
sg19
S'21801291'
p220
sg21
Vadd x1, x1, #0x4a0
p221
sg5
L18446743798839779188L
sg6
Nsg23
S'ADD'
p222
sg25
S'0xffffffc0007c1f74L'
p223
sg27
Nsba(ibclass
BInstr
p224
(dp225
g2
Nsg17
S'ADD             X2, X2, #0x3A0'
p226
sg19
S'42800e91'
p227
sg21
Vadd x2, x2, #0x3a0
p228
sg5
L18446743798839779192L
sg6
Nsg23
S'ADD'
p229
sg25
S'0xffffffc0007c1f78L'
p230
sg27
Nsba(ibclass
BInstr
p231
(dp232
g2
Nsg17
S'ADD             X0, X0, #unk_FFFFFFC0013B6580@PAGEOFF'
p233
sg19
S'00001691'
p234
sg21
Vadd x0, x0, #0x580
p235
sg5
L18446743798839779196L
sg6
Nsg23
S'ADD'
p236
sg25
S'0xffffffc0007c1f7cL'
p237
sg27
Nsba(ibclass
BInstr
p238
(dp239
g2
Nsg17
S'BL              printk'
p240
sg19
S'78c61994'
p241
sg21
Vbl #0x6719e0
p242
sg5
L18446743798839779200L
sg6
Nsg23
S'BL'
p243
sg25
S'0xffffffc0007c1f80L'
p244
sg27
Nsba(ibclass
BInstr
p245
(dp246
g2
Nsg17
S'B               loc_FFFFFFC0007C2028'
p247
sg19
S'29000014'
p248
sg21
Vb #0xa4
p249
sg5
L18446743798839779204L
sg6
Nsg23
S'B'
p250
sg25
S'0xffffffc0007c1f84L'
p251
sg27
Nsbasg63
(lp252
S'ADRP reg, #__func__.33986@PAGE'
p253
aS'ADRP reg, #func@PAGE'
p254
aS'ADRP reg, #(aQcomMdssDsi_17+0x1B)@PAGE'
p255
aS'ADD reg, reg, #__func__.33986@PAGEOFF'
p256
aS'ADD reg, reg, #(aQcomMdssDsi_17+0x1B)@PAGEOFF'
p257
aS'ADD reg, reg, #0x3A0'
p258
aS'ADD reg, reg, #func@PAGEOFF'
p259
aS'BL printk'
p260
aS'B func'
p261
asg71
Nsg5
S'0xffffffc0007c1f64L'
p262
sg73
(lp263
S'0xffffffc0007c1f54L'
p264
asg6
Nsg75
(lp265
S'0xffffffc0007c2028L'
p266
asg79
Nsg80
Nsg81
S'8d01fe9050abe03509e35279925e126f'
p267
sg83
S'373cd7635d0027d754e2ddd99e23658a'
p268
sg85
(lp269
g194
ag201
ag208
ag215
ag222
ag229
ag236
ag243
ag250
asg87
Nsba(ibclass
BBasicBlock
p270
(dp271
g12
Nsg13
(lp272
(ibclass
BInstr
p273
(dp274
g2
Nsg17
S'LDR             X0, [X0,#0x248]'
p275
sg19
S'002441f9'
p276
sg21
Vldr x0, [x0, #0x248]
p277
sg5
L18446743798839779208L
sg6
Nsg23
S'LDR'
p278
sg25
S'0xffffffc0007c1f88L'
p279
sg27
Nsba(ibclass
BInstr
p280
(dp281
g2
Nsg17
S'ADRP            X21, #aCore_clk@PAGE; "core_clk"'
p282
sg19
S'd56700b0'
p283
sg21
Vadrp x21, #0xcf9000
p284
sg5
L18446743798839779212L
sg6
Nsg23
S'ADRP'
p285
sg25
S'0xffffffc0007c1f8cL'
p286
sg27
Nsba(ibclass
BInstr
p287
(dp288
g2
Nsg17
S'LDR             X19, [X0,#0x88]'
p289
sg19
S'134440f9'
p290
sg21
Vldr x19, [x0, #0x88]
p291
sg5
L18446743798839779216L
sg6
Nsg23
S'LDR'
p292
sg25
S'0xffffffc0007c1f90L'
p293
sg27
Nsba(ibclass
BInstr
p294
(dp295
g2
Nsg17
S'LDR             W20, [X0,#0x90]'
p296
sg19
S'149040b9'
p297
sg21
Vldr w20, [x0, #0x90]
p298
sg5
L18446743798839779220L
sg6
Nsg23
S'LDR'
p299
sg25
S'0xffffffc0007c1f94L'
p300
sg27
Nsba(ibclass
BInstr
p301
(dp302
g2
Nsg17
S'ADD             X21, X21, #aCore_clk@PAGEOFF; "core_clk"'
p303
sg19
S'b5661791'
p304
sg21
Vadd x21, x21, #0x5d9
p305
sg5
L18446743798839779224L
sg6
Nsg23
S'ADD'
p306
sg25
S'0xffffffc0007c1f98L'
p307
sg27
Nsba(ibclass
BInstr
p308
(dp309
g2
Nsg17
S'ADD             X20, X19, X20,LSL#5'
p310
sg19
S'7416148b'
p311
sg21
Vadd x20, x19, x20, lsl #5
p312
sg5
L18446743798839779228L
sg6
Nsg23
S'ADD'
p313
sg25
S'0xffffffc0007c1f9cL'
p314
sg27
Nsbasg63
(lp315
S'LDR reg, mem'
p316
aS'ADRP reg1, #aCore_clk@PAGE'
p317
aS'LDR reg9, mem'
p318
aS'LDR reg0, mem'
p319
aS'ADD reg1, reg1, #aCore_clk@PAGEOFF'
p320
aS'ADD reg0, reg9, reg0,LSL#5'
p321
asg71
Nsg5
S'0xffffffc0007c1f88L'
p322
sg73
(lp323
S'0xffffffc0007c1f28L'
p324
asg6
Nsg75
(lp325
S'0xffffffc0007c1fa0L'
p326
asg79
Nsg80
Nsg81
S'8bd500c7b169ca79e94d617c2c306a28'
p327
sg83
S'18e9a11b029f34ae303a7b6b0e258f22'
p328
sg85
(lp329
g278
ag285
ag292
ag299
ag306
ag313
asg87
Nsba(ibclass
BBasicBlock
p330
(dp331
g12
Nsg13
(lp332
(ibclass
BInstr
p333
(dp334
g2
Nsg17
S'CMP             X19, X20'
p335
sg19
S'7f0214eb'
p336
sg21
Vcmp x19, x20
p337
sg5
L18446743798839779232L
sg6
Nsg23
S'CMP'
p338
sg25
S'0xffffffc0007c1fa0L'
p339
sg27
Nsba(ibclass
BInstr
p340
(dp341
g2
Nsg17
S'B.CS            loc_FFFFFFC0007C1FC0'
p342
sg19
S'e2000054'
p343
sg21
Vb.hs #0x1c
p344
sg5
L18446743798839779236L
sg6
Nsg23
g250
sg25
S'0xffffffc0007c1fa4L'
p345
sg27
Nsbasg63
(lp346
S'CMP reg9, reg0'
p347
aS'B.CS func'
p348
asg71
Nsg5
S'0xffffffc0007c1fa0L'
p349
sg73
(lp350
S'0xffffffc0007c1f88L'
p351
aS'0xffffffc0007c1fb8L'
p352
asg6
Nsg75
(lp353
S'0xffffffc0007c1fa8L'
p354
aS'0xffffffc0007c1fc0L'
p355
asg79
Nsg80
Nsg81
S'c78fd620a449e3c979d3f3ec12d4ee88'
p356
sg83
S'10bc695eefe5244fd4a8b57d0b7bce61'
p357
sg85
(lp358
g338
ag250
asg87
Nsba(ibclass
BBasicBlock
p359
(dp360
g12
Nsg13
(lp361
(ibclass
BInstr
p362
(dp363
g2
Nsg17
S'LDR             X0, [X19]'
p364
sg19
S'600240f9'
p365
sg21
Vldr x0, [x19]
p366
sg5
L18446743798839779240L
sg6
Nsg23
S'LDR'
p367
sg25
S'0xffffffc0007c1fa8L'
p368
sg27
Nsba(ibclass
BInstr
p369
(dp370
g2
Nsg17
S'MOV             X1, X21'
p371
sg19
S'e10315aa'
p372
sg21
Vmov x1, x21
p373
sg5
L18446743798839779244L
sg6
Nsg23
S'MOV'
p374
sg25
S'0xffffffc0007c1facL'
p375
sg27
Nsba(ibclass
BInstr
p376
(dp377
g2
Nsg17
S'BL              strcmp'
p378
sg19
S'9085f197'
p379
sg21
Vbl #0xffffffffffc61640
p380
sg5
L18446743798839779248L
sg6
Nsg23
S'BL'
p381
sg25
S'0xffffffc0007c1fb0L'
p382
sg27
Nsba(ibclass
BInstr
p383
(dp384
g2
Nsg17
S'CBZ             W0, loc_FFFFFFC0007C200C'
p385
sg19
S'c0020034'
p386
sg21
Vcbz w0, #0x58
p387
sg5
L18446743798839779252L
sg6
Nsg23
S'CBZ'
p388
sg25
S'0xffffffc0007c1fb4L'
p389
sg27
Nsbasg63
(lp390
S'LDR reg, mem'
p391
aS'MOV reg, reg1'
p392
aS'BL strcmp'
p393
aS'CBZ reg, func'
p394
asg71
Nsg5
S'0xffffffc0007c1fa8L'
p395
sg73
(lp396
S'0xffffffc0007c1fa0L'
p397
asg6
Nsg75
(lp398
S'0xffffffc0007c1fb8L'
p399
aS'0xffffffc0007c200cL'
p400
asg79
Nsg80
Nsg81
S'0b2f63c78b732d93395f4b40b113a9cd'
p401
sg83
S'cc78dfd981a37dc41e4422126d1a5797'
p402
sg85
(lp403
g367
ag374
ag381
ag388
asg87
Nsba(ibclass
BBasicBlock
p404
(dp405
g12
Nsg13
(lp406
(ibclass
BInstr
p407
(dp408
g2
Nsg17
S'ADD             X19, X19, #0x20'
p409
sg19
S'73820091'
p410
sg21
Vadd x19, x19, #0x20
p411
sg5
L18446743798839779256L
sg6
Nsg23
S'ADD'
p412
sg25
S'0xffffffc0007c1fb8L'
p413
sg27
Nsba(ibclass
BInstr
p414
(dp415
g2
Nsg17
S'B               loc_FFFFFFC0007C1FA0'
p416
sg19
S'f9ffff17'
p417
sg21
Vb #0xffffffffffffffe4
p418
sg5
L18446743798839779260L
sg6
Nsg23
g250
sg25
S'0xffffffc0007c1fbcL'
p419
sg27
Nsbasg63
(lp420
S'ADD reg9, reg9, #0x20'
p421
aS'B func'
p422
asg71
Nsg5
S'0xffffffc0007c1fb8L'
p423
sg73
(lp424
S'0xffffffc0007c1fa8L'
p425
asg6
Nsg75
(lp426
S'0xffffffc0007c1fa0L'
p427
asg79
Nsg80
Nsg81
S'f59ed0fb4617df9a98cc94b1d7075f92'
p428
sg83
S'80bdeacd53dc7f37eedc8df5e70da5f2'
p429
sg85
(lp430
g412
ag250
asg87
Nsba(ibclass
BBasicBlock
p431
(dp432
g12
Nsg13
(lp433
(ibclass
BInstr
p434
(dp435
g2
Nsg17
S'ADRP            X0, #qword_FFFFFFC000E4A8A0@PAGE'
p436
sg19
S'403400b0'
p437
sg21
Vadrp x0, #0x689000
p438
sg5
L18446743798839779264L
sg6
Nsg23
S'ADRP'
p439
sg25
S'0xffffffc0007c1fc0L'
p440
sg27
Nsba(ibclass
BInstr
p441
(dp442
g2
Nsg17
S'LDR             X0, [X0,#qword_FFFFFFC000E4A8A0@PAGEOFF]'
p443
sg19
S'005044f9'
p444
sg21
Vldr x0, [x0, #0x8a0]
p445
sg5
L18446743798839779268L
sg6
Nsg23
S'LDR'
p446
sg25
S'0xffffffc0007c1fc4L'
p447
sg27
Nsba(ibclass
BInstr
p448
(dp449
g2
Nsg17
S'LDR             W0, [X0]'
p450
sg19
S'000040b9'
p451
sg21
Vldr w0, [x0]
p452
sg5
L18446743798839779272L
sg6
Nsg23
S'LDR'
p453
sg25
S'0xffffffc0007c1fc8L'
p454
sg27
Nsba(ibclass
BInstr
p455
(dp456
g2
Nsg17
S'TBZ             W0, #1, loc_FFFFFFC0007C2024'
p457
sg19
S'c0020836'
p458
sg21
Vtbz w0, #1, #0x58
p459
sg5
L18446743798839779276L
sg6
Nsg23
S'TBZ'
p460
sg25
S'0xffffffc0007c1fccL'
p461
sg27
Nsbasg63
(lp462
S'ADRP reg, #func@PAGE'
p463
aS'LDR reg, mem'
p464
aS'LDR reg, mem'
p465
aS'TBZ reg, #1, func'
p466
asg71
Nsg5
S'0xffffffc0007c1fc0L'
p467
sg73
(lp468
S'0xffffffc0007c1fa0L'
p469
asg6
Nsg75
(lp470
S'0xffffffc0007c1fd0L'
p471
aS'0xffffffc0007c2024L'
p472
asg79
Nsg80
Nsg81
S'2de94c9e326481f2f467f11acce8dcc9'
p473
sg83
S'5a2df7748023b4b74960a558be39a089'
p474
sg85
(lp475
g439
ag446
ag453
ag460
asg87
Nsba(ibclass
BBasicBlock
p476
(dp477
g12
Nsg13
(lp478
(ibclass
BInstr
p479
(dp480
g2
Nsg17
S'ADRP            X0, #qword_FFFFFFC000E48D48@PAGE'
p481
sg19
S'203400f0'
p482
sg21
Vadrp x0, #0x687000
p483
sg5
L18446743798839779280L
sg6
Nsg23
S'ADRP'
p484
sg25
S'0xffffffc0007c1fd0L'
p485
sg27
Nsba(ibclass
BInstr
p486
(dp487
g2
Nsg17
S'LDR             X0, [X0,#qword_FFFFFFC000E48D48@PAGEOFF]'
p488
sg19
S'00a446f9'
p489
sg21
Vldr x0, [x0, #0xd48]
p490
sg5
L18446743798839779284L
sg6
Nsg23
S'LDR'
p491
sg25
S'0xffffffc0007c1fd4L'
p492
sg27
Nsba(ibclass
BInstr
p493
(dp494
g2
Nsg17
S'LDR             W0, [X0]'
p495
sg19
S'000040b9'
p496
sg21
Vldr w0, [x0]
p497
sg5
L18446743798839779288L
sg6
Nsg23
S'LDR'
p498
sg25
S'0xffffffc0007c1fd8L'
p499
sg27
Nsba(ibclass
BInstr
p500
(dp501
g2
Nsg17
S'CBNZ            W0, loc_FFFFFFC0007C2024'
p502
sg19
S'40020035'
p503
sg21
Vcbnz w0, #0x48
p504
sg5
L18446743798839779292L
sg6
Nsg23
S'CBNZ'
p505
sg25
S'0xffffffc0007c1fdcL'
p506
sg27
Nsbasg63
(lp507
S'ADRP reg, #func@PAGE'
p508
aS'LDR reg, mem'
p509
aS'LDR reg, mem'
p510
aS'CBNZ reg, func'
p511
asg71
Nsg5
S'0xffffffc0007c1fd0L'
p512
sg73
(lp513
S'0xffffffc0007c1fc0L'
p514
asg6
Nsg75
(lp515
S'0xffffffc0007c1fe0L'
p516
aS'0xffffffc0007c2024L'
p517
asg79
Nsg80
Nsg81
S'9c97521b8b0f280d47a50ec9a5e4f86f'
p518
sg83
S'bd26f8893557dc5fa132ff2490be0ebf'
p519
sg85
(lp520
g484
ag491
ag498
ag505
asg87
Nsba(ibclass
BBasicBlock
p521
(dp522
g12
Nsg13
(lp523
(ibclass
BInstr
p524
(dp525
g2
Nsg17
S'ADRP            X2, #__func__.33986@PAGE; "venus_hfi_suspend"'
p526
sg19
S'424400b0'
p527
sg21
Vadrp x2, #0x889000
p528
sg5
L18446743798839779296L
sg6
Nsg23
S'ADRP'
p529
sg25
S'0xffffffc0007c1fe0L'
p530
sg27
Nsba(ibclass
BInstr
p531
(dp532
g2
Nsg17
S'ADRP            X0, #unk_FFFFFFC0013C17B5@PAGE'
p533
sg19
S'00600090'
p534
sg21
Vadrp x0, #0xc00000
p535
sg5
L18446743798839779300L
sg6
Nsg23
S'ADRP'
p536
sg25
S'0xffffffc0007c1fe4L'
p537
sg27
Nsba(ibclass
BInstr
p538
(dp539
g2
Nsg17
S'ADRP            X1, #aWarn@PAGE; "warn"'
p540
sg19
S'a15f0090'
p541
sg21
Vadrp x1, #0xbf4000
p542
sg5
L18446743798839779304L
sg6
Nsg23
S'ADRP'
p543
sg25
S'0xffffffc0007c1fe8L'
p544
sg27
Nsba(ibclass
BInstr
p545
(dp546
g2
Nsg17
S'ADD             X2, X2, #__func__.33986@PAGEOFF; "venus_hfi_suspend"'
p547
sg19
S'42201891'
p548
sg21
Vadd x2, x2, #0x608
p549
sg5
L18446743798839779308L
sg6
Nsg23
S'ADD'
p550
sg25
S'0xffffffc0007c1fecL'
p551
sg27
Nsba(ibclass
BInstr
p552
(dp553
g2
Nsg17
S'ADRP            X3, #aCore_clk@PAGE; "core_clk"'
p554
sg19
S'c36700b0'
p555
sg21
Vadrp x3, #0xcf9000
p556
sg5
L18446743798839779312L
sg6
Nsg23
S'ADRP'
p557
sg25
S'0xffffffc0007c1ff0L'
p558
sg27
Nsba(ibclass
BInstr
p559
(dp560
g2
Nsg17
S'ADD             X1, X1, #aWarn@PAGEOFF; "warn"'
p561
sg19
S'21f42891'
p562
sg21
Vadd x1, x1, #0xa3d
p563
sg5
L18446743798839779316L
sg6
Nsg23
S'ADD'
p564
sg25
S'0xffffffc0007c1ff4L'
p565
sg27
Nsba(ibclass
BInstr
p566
(dp567
g2
Nsg17
S'ADD             X2, X2, #0x3C0'
p568
sg19
S'42000f91'
p569
sg21
Vadd x2, x2, #0x3c0
p570
sg5
L18446743798839779320L
sg6
Nsg23
S'ADD'
p571
sg25
S'0xffffffc0007c1ff8L'
p572
sg27
Nsba(ibclass
BInstr
p573
(dp574
g2
Nsg17
S'ADD             X3, X3, #aCore_clk@PAGEOFF; "core_clk"'
p575
sg19
S'63641791'
p576
sg21
Vadd x3, x3, #0x5d9
p577
sg5
L18446743798839779324L
sg6
Nsg23
S'ADD'
p578
sg25
S'0xffffffc0007c1ffcL'
p579
sg27
Nsba(ibclass
BInstr
p580
(dp581
g2
Nsg17
S'ADD             X0, X0, #unk_FFFFFFC0013C17B5@PAGEOFF'
p582
sg19
S'00d41e91'
p583
sg21
Vadd x0, x0, #0x7b5
p584
sg5
L18446743798839779328L
sg6
Nsg23
S'ADD'
p585
sg25
S'0xffffffc0007c2000L'
p586
sg27
Nsba(ibclass
BInstr
p587
(dp588
g2
Nsg17
S'BL              printk'
p589
sg19
S'57c61994'
p590
sg21
Vbl #0x67195c
p591
sg5
L18446743798839779332L
sg6
Nsg23
S'BL'
p592
sg25
S'0xffffffc0007c2004L'
p593
sg27
Nsba(ibclass
BInstr
p594
(dp595
g2
Nsg17
S'B               loc_FFFFFFC0007C2024'
p596
sg19
S'07000014'
p597
sg21
Vb #0x1c
p598
sg5
L18446743798839779336L
sg6
Nsg23
g250
sg25
S'0xffffffc0007c2008L'
p599
sg27
Nsbasg63
(lp600
S'ADRP reg, #__func__.33986@PAGE'
p601
aS'ADRP reg, #func@PAGE'
p602
aS'ADRP reg, #aWarn@PAGE'
p603
aS'ADD reg, reg, #__func__.33986@PAGEOFF'
p604
aS'ADRP reg, #aCore_clk@PAGE'
p605
aS'ADD reg, reg, #aWarn@PAGEOFF'
p606
aS'ADD reg, reg, #0x3C0'
p607
aS'ADD reg, reg, #aCore_clk@PAGEOFF'
p608
aS'ADD reg, reg, #func@PAGEOFF'
p609
aS'BL printk'
p610
aS'B func'
p611
asg71
Nsg5
S'0xffffffc0007c1fe0L'
p612
sg73
(lp613
S'0xffffffc0007c1fd0L'
p614
asg6
Nsg75
(lp615
S'0xffffffc0007c2024L'
p616
asg79
Nsg80
Nsg81
S'bcd217146a99f656bd5cbd7cfbc6c186'
p617
sg83
S'1f8b6948f2a3b287cf6f5c9d59b87b87'
p618
sg85
(lp619
g529
ag536
ag543
ag550
ag557
ag564
ag571
ag578
ag585
ag592
ag250
asg87
Nsba(ibclass
BBasicBlock
p620
(dp621
g12
Nsg13
(lp622
(ibclass
BInstr
p623
(dp624
g2
Nsg17
S'MOV             X20, #0'
p625
sg19
S'140080d2'
p626
sg21
Vmovz x20, #0
p627
sg5
L18446743798839779340L
sg6
Nsg23
S'MOV'
p628
sg25
S'0xffffffc0007c200cL'
p629
sg27
Nsba(ibclass
BInstr
p630
(dp631
g2
Nsg17
S'CBZ             X19, loc_FFFFFFC0007C2028'
p632
sg19
S'd30000b4'
p633
sg21
Vcbz x19, #0x18
p634
sg5
L18446743798839779344L
sg6
Nsg23
S'CBZ'
p635
sg25
S'0xffffffc0007c2010L'
p636
sg27
Nsbasg63
(lp637
S'MOV reg0, #0'
p638
aS'CBZ reg9, func'
p639
asg71
Nsg5
S'0xffffffc0007c200cL'
p640
sg73
(lp641
S'0xffffffc0007c1fa8L'
p642
asg6
Nsg75
(lp643
S'0xffffffc0007c2014L'
p644
aS'0xffffffc0007c2028L'
p645
asg79
Nsg80
Nsg81
S'292d95b140fd5efeafc4bf3946c047fa'
p646
sg83
S'626a408ca3f238243c1e18e1927ba076'
p647
sg85
(lp648
g628
ag635
asg87
Nsba(ibclass
BBasicBlock
p649
(dp650
g12
Nsg13
(lp651
(ibclass
BInstr
p652
(dp653
g2
Nsg17
S'LDR             X0, [X19,#8]'
p654
sg19
S'600640f9'
p655
sg21
Vldr x0, [x19, #8]
p656
sg5
L18446743798839779348L
sg6
Nsg23
S'LDR'
p657
sg25
S'0xffffffc0007c2014L'
p658
sg27
Nsba(ibclass
BInstr
p659
(dp660
g2
Nsg17
S'BL              clk_get_rate'
p661
sg19
S'4ae90e94'
p662
sg21
Vbl #0x3ba528
p663
sg5
L18446743798839779352L
sg6
Nsg23
S'BL'
p664
sg25
S'0xffffffc0007c2018L'
p665
sg27
Nsba(ibclass
BInstr
p666
(dp667
g2
Nsg17
S'MOV             X20, X0'
p668
sg19
S'f40300aa'
p669
sg21
Vmov x20, x0
p670
sg5
L18446743798839779356L
sg6
Nsg23
S'MOV'
p671
sg25
S'0xffffffc0007c201cL'
p672
sg27
Nsba(ibclass
BInstr
p673
(dp674
g2
Nsg17
S'B               loc_FFFFFFC0007C2028'
p675
sg19
S'02000014'
p676
sg21
Vb #8
p677
sg5
L18446743798839779360L
sg6
Nsg23
g250
sg25
S'0xffffffc0007c2020L'
p678
sg27
Nsbasg63
(lp679
S'LDR reg, mem'
p680
aS'BL clk_get_rate'
p681
aS'MOV reg0, reg'
p682
aS'B func'
p683
asg71
Nsg5
S'0xffffffc0007c2014L'
p684
sg73
(lp685
S'0xffffffc0007c200cL'
p686
asg6
Nsg75
(lp687
S'0xffffffc0007c2028L'
p688
asg79
Nsg80
Nsg81
S'fe112feb171ffa3b20f6ae1e994f0279'
p689
sg83
S'970ffd095a9236ba45936c44fffad68a'
p690
sg85
(lp691
g657
ag664
ag671
ag250
asg87
Nsba(ibclass
BBasicBlock
p692
(dp693
g12
Nsg13
(lp694
(ibclass
BInstr
p695
(dp696
g2
Nsg17
S'MOV             X20, #0'
p697
sg19
S'140080d2'
p698
sg21
Vmovz x20, #0
p699
sg5
L18446743798839779364L
sg6
Nsg23
S'MOV'
p700
sg25
S'0xffffffc0007c2024L'
p701
sg27
Nsbasg63
(lp702
S'MOV reg0, #0'
p703
asg71
Nsg5
S'0xffffffc0007c2024L'
p704
sg73
(lp705
S'0xffffffc0007c1fc0L'
p706
aS'0xffffffc0007c1fd0L'
p707
aS'0xffffffc0007c1fe0L'
p708
asg6
Nsg75
(lp709
S'0xffffffc0007c2028L'
p710
asg79
Nsg80
Nsg81
S'17b32100aef1fc19670be7fd58bc85df'
p711
sg83
S'a74256f0eab351aaede34520ce37fef2'
p712
sg85
(lp713
g700
asg87
Nsba(ibclass
BBasicBlock
p714
(dp715
g12
Nsg13
(lp716
(ibclass
BInstr
p717
(dp718
g2
Nsg17
S'MOV             X0, X20'
p719
sg19
S'e00314aa'
p720
sg21
Vmov x0, x20
p721
sg5
L18446743798839779368L
sg6
Nsg23
S'MOV'
p722
sg25
S'0xffffffc0007c2028L'
p723
sg27
Nsba(ibclass
BInstr
p724
(dp725
g2
Nsg17
S'LDR             X21, [SP,#0x20+var_s0]'
p726
sg19
S'f51340f9'
p727
sg21
Vldr x21, [sp, #0x20]
p728
sg5
L18446743798839779372L
sg6
Nsg23
S'LDR'
p729
sg25
S'0xffffffc0007c202cL'
p730
sg27
Nsba(ibclass
BInstr
p731
(dp732
g2
Nsg17
S'LDP             X19, X20, [SP,#0x20+var_10]'
p733
sg19
S'f35341a9'
p734
sg21
Vldp x19, x20, [sp, #0x10]
p735
sg5
L18446743798839779376L
sg6
Nsg23
S'LDP'
p736
sg25
S'0xffffffc0007c2030L'
p737
sg27
Nsba(ibclass
BInstr
p738
(dp739
g2
Nsg17
S'LDP             X29, X30, [SP+0x20+var_20],#0x30'
p740
sg19
S'fd7bc3a8'
p741
sg21
Vldp x29, x30, [sp], #0x30
p742
sg5
L18446743798839779380L
sg6
Nsg23
S'LDP'
p743
sg25
S'0xffffffc0007c2034L'
p744
sg27
Nsba(ibclass
BInstr
p745
(dp746
g2
Nsg17
S'RET'
p747
sg19
S'c0035fd6'
p748
sg21
Vret 
p749
sg5
L18446743798839779384L
sg6
Nsg23
S'RET'
p750
sg25
S'0xffffffc0007c2038L'
p751
sg27
Nsbasg63
(lp752
S'MOV reg, reg0'
p753
aS'LDR reg1, mem'
p754
aS'LDP reg9, reg0, mem'
p755
aS'LDP reg9, reg0, mem,#0x30'
p756
ag747
asg71
Nsg5
S'0xffffffc0007c2028L'
p757
sg73
(lp758
S'0xffffffc0007c1f40L'
p759
aS'0xffffffc0007c1f54L'
p760
aS'0xffffffc0007c1f64L'
p761
aS'0xffffffc0007c200cL'
p762
aS'0xffffffc0007c2014L'
p763
aS'0xffffffc0007c2024L'
p764
asg6
Nsg75
(lp765
sg79
Nsg80
Nsg81
S'38f802c64085aee4a911b5f172baeddc'
p766
sg83
S'5f85efe8f7291f2a6cc5ab8814270d12'
p767
sg85
(lp768
g722
ag729
ag736
ag743
ag750
asg87
Nsbasb.