(ibclass
BFunc
p0
(dp1
S'hash'
p2
NsS'name'
p3
S'venus_hfi_session_clean'
p4
sS'start_address'
p5
L18446743798839752296L
sS'flag'
p6
NsS'program'
p7
NsS'bbs'
p8
(lp9
(ibclass
BBasicBlock
p10
(dp11
S'function'
p12
NsS'binstrs'
p13
(lp14
(ibclass
BInstr
p15
(dp16
g2
NsS'disasm'
p17
S'STP             X29, X30, [SP,#-0x10+var_20]!'
p18
sS'bytes'
p19
S'fd7bbda9'
p20
sS'disasm_striped'
p21
Vstp x29, x30, [sp, #-0x30]!
p22
sg5
L18446743798839752296L
sg6
NsS'mnem'
p23
S'STP'
p24
sS'address'
p25
S'0xffffffc0007bb668L'
p26
sS'basicblock'
p27
Nsba(ibclass
BInstr
p28
(dp29
g2
Nsg17
S'MOV             X29, SP'
p30
sg19
S'fd030091'
p31
sg21
Vmov x29, sp
p32
sg5
L18446743798839752300L
sg6
Nsg23
S'MOV'
p33
sg25
S'0xffffffc0007bb66cL'
p34
sg27
Nsba(ibclass
BInstr
p35
(dp36
g2
Nsg17
S'STP             X19, X20, [SP,#0x20+var_10]'
p37
sg19
S'f35301a9'
p38
sg21
Vstp x19, x20, [sp, #0x10]
p39
sg5
L18446743798839752304L
sg6
Nsg23
S'STP'
p40
sg25
S'0xffffffc0007bb670L'
p41
sg27
Nsba(ibclass
BInstr
p42
(dp43
g2
Nsg17
S'STR             X21, [SP,#0x20+var_s0]'
p44
sg19
S'f51300f9'
p45
sg21
Vstr x21, [sp, #0x20]
p46
sg5
L18446743798839752308L
sg6
Nsg23
S'STR'
p47
sg25
S'0xffffffc0007bb674L'
p48
sg27
Nsba(ibclass
BInstr
p49
(dp50
g2
Nsg17
S'MOV             X19, X0'
p51
sg19
S'f30300aa'
p52
sg21
Vmov x19, x0
p53
sg5
L18446743798839752312L
sg6
Nsg23
S'MOV'
p54
sg25
S'0xffffffc0007bb678L'
p55
sg27
Nsba(ibclass
BInstr
p56
(dp57
g2
Nsg17
S'ADRP            X21, #qword_FFFFFFC000E4A8A0@PAGE'
p58
sg19
S'753400f0'
p59
sg21
Vadrp x21, #0x68f000
p60
sg5
L18446743798839752316L
sg6
Nsg23
S'ADRP'
p61
sg25
S'0xffffffc0007bb67cL'
p62
sg27
Nsba(ibclass
BInstr
p63
(dp64
g2
Nsg17
S'CBNZ            X0, loc_FFFFFFC0007BB6C8'
p65
sg19
S'400200b5'
p66
sg21
Vcbnz x0, #0x48
p67
sg5
L18446743798839752320L
sg6
Nsg23
S'CBNZ'
p68
sg25
S'0xffffffc0007bb680L'
p69
sg27
NsbasS'disasm_list'
p70
(lp71
S'STP reg9, reg0, mem!'
p72
aS'MOV reg9, SP'
p73
aS'STP reg9, reg0, mem'
p74
aS'STR reg1, mem'
p75
aS'MOV reg9, reg'
p76
aS'ADRP reg1, #func@PAGE'
p77
aS'CBNZ reg, func'
p78
asS'end_address'
p79
Nsg5
S'0xffffffc0007bb668L'
p80
sS'preds'
p81
(lp82
sg6
NsS'succs'
p83
(lp84
S'0xffffffc0007bb684L'
p85
aS'0xffffffc0007bb6c8L'
p86
asS'hash_v3'
p87
NsS'flag_v2'
p88
NsS'hash_v1'
p89
S'99b59481dd3934e103a1074365719263'
p90
sS'hash_v2'
p91
S'd51068c286110dd4ffbaa21d9b86835a'
p92
sS'mnen_list'
p93
(lp94
g24
ag33
ag40
ag47
ag54
ag61
ag68
asS'neighbour_disasm_list'
p95
Nsba(ibclass
BBasicBlock
p96
(dp97
g12
Nsg13
(lp98
(ibclass
BInstr
p99
(dp100
g2
Nsg17
S'LDR             X21, [X21,#qword_FFFFFFC000E4A8A0@PAGEOFF]'
p101
sg19
S'b55244f9'
p102
sg21
Vldr x21, [x21, #0x8a0]
p103
sg5
L18446743798839752324L
sg6
Nsg23
S'LDR'
p104
sg25
S'0xffffffc0007bb684L'
p105
sg27
Nsba(ibclass
BInstr
p106
(dp107
g2
Nsg17
S'LDR             W0, [X21]'
p108
sg19
S'a00240b9'
p109
sg21
Vldr w0, [x21]
p110
sg5
L18446743798839752328L
sg6
Nsg23
S'LDR'
p111
sg25
S'0xffffffc0007bb688L'
p112
sg27
Nsba(ibclass
BInstr
p113
(dp114
g2
Nsg17
S'TBZ             W0, #0, loc_FFFFFFC0007BB758'
p115
sg19
S'60060036'
p116
sg21
Vtbz w0, #0, #0xcc
p117
sg5
L18446743798839752332L
sg6
Nsg23
S'TBZ'
p118
sg25
S'0xffffffc0007bb68cL'
p119
sg27
Nsbasg70
(lp120
S'LDR reg1, mem'
p121
aS'LDR reg, mem'
p122
aS'TBZ reg, #0, func'
p123
asg79
Nsg5
S'0xffffffc0007bb684L'
p124
sg81
(lp125
S'0xffffffc0007bb668L'
p126
asg6
Nsg83
(lp127
S'0xffffffc0007bb690L'
p128
aS'0xffffffc0007bb758L'
p129
asg87
Nsg88
Nsg89
S'ac18b97d3a767be1a0530f85211830b6'
p130
sg91
S'2478b64da29ecfe38454d786a6f38612'
p131
sg93
(lp132
g104
ag111
ag118
asg95
Nsba(ibclass
BBasicBlock
p133
(dp134
g12
Nsg13
(lp135
(ibclass
BInstr
p136
(dp137
g2
Nsg17
S'ADRP            X0, #qword_FFFFFFC000E48D48@PAGE'
p138
sg19
S'603400b0'
p139
sg21
Vadrp x0, #0x68d000
p140
sg5
L18446743798839752336L
sg6
Nsg23
S'ADRP'
p141
sg25
S'0xffffffc0007bb690L'
p142
sg27
Nsba(ibclass
BInstr
p143
(dp144
g2
Nsg17
S'LDR             X0, [X0,#qword_FFFFFFC000E48D48@PAGEOFF]'
p145
sg19
S'00a446f9'
p146
sg21
Vldr x0, [x0, #0xd48]
p147
sg5
L18446743798839752340L
sg6
Nsg23
S'LDR'
p148
sg25
S'0xffffffc0007bb694L'
p149
sg27
Nsba(ibclass
BInstr
p150
(dp151
g2
Nsg17
S'MOV             W19, #0xFFFFFFEA'
p152
sg19
S'b3028012'
p153
sg21
Vmovn w19, #0x15
p154
sg5
L18446743798839752344L
sg6
Nsg23
S'MOV'
p155
sg25
S'0xffffffc0007bb698L'
p156
sg27
Nsba(ibclass
BInstr
p157
(dp158
g2
Nsg17
S'LDR             W0, [X0]'
p159
sg19
S'000040b9'
p160
sg21
Vldr w0, [x0]
p161
sg5
L18446743798839752348L
sg6
Nsg23
S'LDR'
p162
sg25
S'0xffffffc0007bb69cL'
p163
sg27
Nsba(ibclass
BInstr
p164
(dp165
g2
Nsg17
S'CBNZ            W0, loc_FFFFFFC0007BB75C'
p166
sg19
S'e0050035'
p167
sg21
Vcbnz w0, #0xbc
p168
sg5
L18446743798839752352L
sg6
Nsg23
S'CBNZ'
p169
sg25
S'0xffffffc0007bb6a0L'
p170
sg27
Nsbasg70
(lp171
S'ADRP reg, #func@PAGE'
p172
aS'LDR reg, mem'
p173
aS'MOV reg9, #0xFFFFFFEA'
p174
aS'LDR reg, mem'
p175
aS'CBNZ reg, func'
p176
asg79
Nsg5
S'0xffffffc0007bb690L'
p177
sg81
(lp178
S'0xffffffc0007bb684L'
p179
asg6
Nsg83
(lp180
S'0xffffffc0007bb6a4L'
p181
aS'0xffffffc0007bb75cL'
p182
asg87
Nsg88
Nsg89
S'd80cc6d531f24a5b2d60307977d236c7'
p183
sg91
S'baaaa11d303d94886d47725c6dea0608'
p184
sg93
(lp185
g141
ag148
ag155
ag162
ag169
asg95
Nsba(ibclass
BBasicBlock
p186
(dp187
g12
Nsg13
(lp188
(ibclass
BInstr
p189
(dp190
g2
Nsg17
S'ADRP            X2, #__func__.33986@PAGE; "venus_hfi_suspend"'
p191
sg19
S'624400f0'
p192
sg21
Vadrp x2, #0x88f000
p193
sg5
L18446743798839752356L
sg6
Nsg23
S'ADRP'
p194
sg25
S'0xffffffc0007bb6a4L'
p195
sg27
Nsba(ibclass
BInstr
p196
(dp197
g2
Nsg17
S'ADRP            X0, #unk_FFFFFFC0013BFA55@PAGE'
p198
sg19
S'20600090'
p199
sg21
Vadrp x0, #0xc04000
p200
sg5
L18446743798839752360L
sg6
Nsg23
S'ADRP'
p201
sg25
S'0xffffffc0007bb6a8L'
p202
sg27
Nsba(ibclass
BInstr
p203
(dp204
g2
Nsg17
S'ADRP            X1, #(aQcomMdssDsi_17+0x1B)@PAGE; "err"'
p205
sg19
S'a15b0090'
p206
sg21
Vadrp x1, #0xb74000
p207
sg5
L18446743798839752364L
sg6
Nsg23
S'ADRP'
p208
sg25
S'0xffffffc0007bb6acL'
p209
sg27
Nsba(ibclass
BInstr
p210
(dp211
g2
Nsg17
S'ADD             X2, X2, #__func__.33986@PAGEOFF; "venus_hfi_suspend"'
p212
sg19
S'42201891'
p213
sg21
Vadd x2, x2, #0x608
p214
sg5
L18446743798839752368L
sg6
Nsg23
S'ADD'
p215
sg25
S'0xffffffc0007bb6b0L'
p216
sg27
Nsba(ibclass
BInstr
p217
(dp218
g2
Nsg17
S'ADD             X1, X1, #(aQcomMdssDsi_17+0x1B)@PAGEOFF; "err"'
p219
sg19
S'21801291'
p220
sg21
Vadd x1, x1, #0x4a0
p221
sg5
L18446743798839752372L
sg6
Nsg23
S'ADD'
p222
sg25
S'0xffffffc0007bb6b4L'
p223
sg27
Nsba(ibclass
BInstr
p224
(dp225
g2
Nsg17
S'ADD             X2, X2, #0x100'
p226
sg19
S'42000491'
p227
sg21
Vadd x2, x2, #0x100
p228
sg5
L18446743798839752376L
sg6
Nsg23
S'ADD'
p229
sg25
S'0xffffffc0007bb6b8L'
p230
sg27
Nsba(ibclass
BInstr
p231
(dp232
g2
Nsg17
S'ADD             X0, X0, #unk_FFFFFFC0013BFA55@PAGEOFF'
p233
sg19
S'00542991'
p234
sg21
Vadd x0, x0, #0xa55
p235
sg5
L18446743798839752380L
sg6
Nsg23
S'ADD'
p236
sg25
S'0xffffffc0007bb6bcL'
p237
sg27
Nsba(ibclass
BInstr
p238
(dp239
g2
Nsg17
S'BL              printk'
p240
sg19
S'a8e01994'
p241
sg21
Vbl #0x6782a0
p242
sg5
L18446743798839752384L
sg6
Nsg23
S'BL'
p243
sg25
S'0xffffffc0007bb6c0L'
p244
sg27
Nsba(ibclass
BInstr
p245
(dp246
g2
Nsg17
S'B               loc_FFFFFFC0007BB75C'
p247
sg19
S'26000014'
p248
sg21
Vb #0x98
p249
sg5
L18446743798839752388L
sg6
Nsg23
S'B'
p250
sg25
S'0xffffffc0007bb6c4L'
p251
sg27
Nsbasg70
(lp252
S'ADRP reg, #__func__.33986@PAGE'
p253
aS'ADRP reg, #func@PAGE'
p254
aS'ADRP reg, #(aQcomMdssDsi_17+0x1B)@PAGE'
p255
aS'ADD reg, reg, #__func__.33986@PAGEOFF'
p256
aS'ADD reg, reg, #(aQcomMdssDsi_17+0x1B)@PAGEOFF'
p257
aS'ADD reg, reg, #0x100'
p258
aS'ADD reg, reg, #func@PAGEOFF'
p259
aS'BL printk'
p260
aS'B func'
p261
asg79
Nsg5
S'0xffffffc0007bb6a4L'
p262
sg81
(lp263
S'0xffffffc0007bb690L'
p264
asg6
Nsg83
(lp265
S'0xffffffc0007bb75cL'
p266
asg87
Nsg88
Nsg89
S'8d01fe9050abe03509e35279925e126f'
p267
sg91
S'c469bd164f3ef9239c3aad6df0f52a13'
p268
sg93
(lp269
g194
ag201
ag208
ag215
ag222
ag229
ag236
ag243
ag250
asg95
Nsba(ibclass
BBasicBlock
p270
(dp271
g12
Nsg13
(lp272
(ibclass
BInstr
p273
(dp274
g2
Nsg17
S'LDR             X20, [X0,#0x20]'
p275
sg19
S'141040f9'
p276
sg21
Vldr x20, [x0, #0x20]
p277
sg5
L18446743798839752392L
sg6
Nsg23
S'LDR'
p278
sg25
S'0xffffffc0007bb6c8L'
p279
sg27
Nsba(ibclass
BInstr
p280
(dp281
g2
Nsg17
S'MOV             X1, #0'
p282
sg19
S'010080d2'
p283
sg21
Vmovz x1, #0
p284
sg5
L18446743798839752396L
sg6
Nsg23
S'MOV'
p285
sg25
S'0xffffffc0007bb6ccL'
p286
sg27
Nsba(ibclass
BInstr
p287
(dp288
g2
Nsg17
S'MOV             X0, X20'
p289
sg19
S'e00314aa'
p290
sg21
Vmov x0, x20
p291
sg5
L18446743798839752400L
sg6
Nsg23
S'MOV'
p292
sg25
S'0xffffffc0007bb6d0L'
p293
sg27
Nsba(ibclass
BInstr
p294
(dp295
g2
Nsg17
S'BL              venus_hfi_flush_debug_queue'
p296
sg19
S'77ffff97'
p297
sg21
Vbl #0xfffffffffffffddc
p298
sg5
L18446743798839752404L
sg6
Nsg23
S'BL'
p299
sg25
S'0xffffffc0007bb6d4L'
p300
sg27
Nsba(ibclass
BInstr
p301
(dp302
g2
Nsg17
S'LDR             X21, [X21,#qword_FFFFFFC000E4A8A0@PAGEOFF]'
p303
sg19
S'b55244f9'
p304
sg21
Vldr x21, [x21, #0x8a0]
p305
sg5
L18446743798839752408L
sg6
Nsg23
S'LDR'
p306
sg25
S'0xffffffc0007bb6d8L'
p307
sg27
Nsba(ibclass
BInstr
p308
(dp309
g2
Nsg17
S'LDR             W0, [X21]'
p310
sg19
S'a00240b9'
p311
sg21
Vldr w0, [x21]
p312
sg5
L18446743798839752412L
sg6
Nsg23
S'LDR'
p313
sg25
S'0xffffffc0007bb6dcL'
p314
sg27
Nsba(ibclass
BInstr
p315
(dp316
g2
Nsg17
S'TBZ             W0, #3, loc_FFFFFFC0007BB70C'
p317
sg19
S'60011836'
p318
sg21
Vtbz w0, #3, #0x2c
p319
sg5
L18446743798839752416L
sg6
Nsg23
S'TBZ'
p320
sg25
S'0xffffffc0007bb6e0L'
p321
sg27
Nsbasg70
(lp322
S'LDR reg0, mem'
p323
aS'MOV reg, #0'
p324
aS'MOV reg, reg0'
p325
aS'BL venus_hfi_flush_debug_queue'
p326
aS'LDR reg1, mem'
p327
aS'LDR reg, mem'
p328
aS'TBZ reg, #3, func'
p329
asg79
Nsg5
S'0xffffffc0007bb6c8L'
p330
sg81
(lp331
S'0xffffffc0007bb668L'
p332
asg6
Nsg83
(lp333
S'0xffffffc0007bb6e4L'
p334
aS'0xffffffc0007bb70cL'
p335
asg87
Nsg88
Nsg89
S'e7aa0f02af85862770e69ad1891eea6f'
p336
sg91
S'346d7a637b41fb8301ce0cbb2f44acd1'
p337
sg93
(lp338
g278
ag285
ag292
ag299
ag306
ag313
ag320
asg95
Nsba(ibclass
BBasicBlock
p339
(dp340
g12
Nsg13
(lp341
(ibclass
BInstr
p342
(dp343
g2
Nsg17
S'ADRP            X0, #qword_FFFFFFC000E48D48@PAGE'
p344
sg19
S'603400b0'
p345
sg21
Vadrp x0, #0x68d000
p346
sg5
L18446743798839752420L
sg6
Nsg23
S'ADRP'
p347
sg25
S'0xffffffc0007bb6e4L'
p348
sg27
Nsba(ibclass
BInstr
p349
(dp350
g2
Nsg17
S'LDR             X0, [X0,#qword_FFFFFFC000E48D48@PAGEOFF]'
p351
sg19
S'00a446f9'
p352
sg21
Vldr x0, [x0, #0xd48]
p353
sg5
L18446743798839752424L
sg6
Nsg23
S'LDR'
p354
sg25
S'0xffffffc0007bb6e8L'
p355
sg27
Nsba(ibclass
BInstr
p356
(dp357
g2
Nsg17
S'LDR             W0, [X0]'
p358
sg19
S'000040b9'
p359
sg21
Vldr w0, [x0]
p360
sg5
L18446743798839752428L
sg6
Nsg23
S'LDR'
p361
sg25
S'0xffffffc0007bb6ecL'
p362
sg27
Nsba(ibclass
BInstr
p363
(dp364
g2
Nsg17
S'CBNZ            W0, loc_FFFFFFC0007BB70C'
p365
sg19
S'e0000035'
p366
sg21
Vcbnz w0, #0x1c
p367
sg5
L18446743798839752432L
sg6
Nsg23
S'CBNZ'
p368
sg25
S'0xffffffc0007bb6f0L'
p369
sg27
Nsbasg70
(lp370
S'ADRP reg, #func@PAGE'
p371
aS'LDR reg, mem'
p372
aS'LDR reg, mem'
p373
aS'CBNZ reg, func'
p374
asg79
Nsg5
S'0xffffffc0007bb6e4L'
p375
sg81
(lp376
S'0xffffffc0007bb6c8L'
p377
asg6
Nsg83
(lp378
S'0xffffffc0007bb6f4L'
p379
aS'0xffffffc0007bb70cL'
p380
asg87
Nsg88
Nsg89
S'9c97521b8b0f280d47a50ec9a5e4f86f'
p381
sg91
S'bd26f8893557dc5fa132ff2490be0ebf'
p382
sg93
(lp383
g347
ag354
ag361
ag368
asg95
Nsba(ibclass
BBasicBlock
p384
(dp385
g12
Nsg13
(lp386
(ibclass
BInstr
p387
(dp388
g2
Nsg17
S'ADRP            X0, #unk_FFFFFFC0013BFA79@PAGE'
p389
sg19
S'20600090'
p390
sg21
Vadrp x0, #0xc04000
p391
sg5
L18446743798839752436L
sg6
Nsg23
S'ADRP'
p392
sg25
S'0xffffffc0007bb6f4L'
p393
sg27
Nsba(ibclass
BInstr
p394
(dp395
g2
Nsg17
S'ADRP            X1, #(aRulesDbg+6)@PAGE; "dbg"'
p396
sg19
S'016700d0'
p397
sg21
Vadrp x1, #0xce2000
p398
sg5
L18446743798839752440L
sg6
Nsg23
S'ADRP'
p399
sg25
S'0xffffffc0007bb6f8L'
p400
sg27
Nsba(ibclass
BInstr
p401
(dp402
g2
Nsg17
S'ADD             X0, X0, #unk_FFFFFFC0013BFA79@PAGEOFF'
p403
sg19
S'00e42991'
p404
sg21
Vadd x0, x0, #0xa79
p405
sg5
L18446743798839752444L
sg6
Nsg23
S'ADD'
p406
sg25
S'0xffffffc0007bb6fcL'
p407
sg27
Nsba(ibclass
BInstr
p408
(dp409
g2
Nsg17
S'ADD             X1, X1, #(aRulesDbg+6)@PAGEOFF; "dbg"'
p410
sg19
S'21e01d91'
p411
sg21
Vadd x1, x1, #0x778
p412
sg5
L18446743798839752448L
sg6
Nsg23
S'ADD'
p413
sg25
S'0xffffffc0007bb700L'
p414
sg27
Nsba(ibclass
BInstr
p415
(dp416
g2
Nsg17
S'MOV             X2, X19'
p417
sg19
S'e20313aa'
p418
sg21
Vmov x2, x19
p419
sg5
L18446743798839752452L
sg6
Nsg23
S'MOV'
p420
sg25
S'0xffffffc0007bb704L'
p421
sg27
Nsba(ibclass
BInstr
p422
(dp423
g2
Nsg17
S'BL              printk'
p424
sg19
S'96e01994'
p425
sg21
Vbl #0x678258
p426
sg5
L18446743798839752456L
sg6
Nsg23
S'BL'
p427
sg25
S'0xffffffc0007bb708L'
p428
sg27
Nsbasg70
(lp429
S'ADRP reg, #func@PAGE'
p430
aS'ADRP reg, #(aRulesDbg+6)@PAGE'
p431
aS'ADD reg, reg, #func@PAGEOFF'
p432
aS'ADD reg, reg, #(aRulesDbg+6)@PAGEOFF'
p433
aS'MOV reg, reg9'
p434
aS'BL printk'
p435
asg79
Nsg5
S'0xffffffc0007bb6f4L'
p436
sg81
(lp437
S'0xffffffc0007bb6e4L'
p438
asg6
Nsg83
(lp439
S'0xffffffc0007bb70cL'
p440
asg87
Nsg88
Nsg89
S'eb549194eba9a07b906701fad5f00138'
p441
sg91
S'820e5cfcfefc5d73da2fbeeff0ed5d50'
p442
sg93
(lp443
g392
ag399
ag406
ag413
ag420
ag427
asg95
Nsba(ibclass
BBasicBlock
p444
(dp445
g12
Nsg13
(lp446
(ibclass
BInstr
p447
(dp448
g2
Nsg17
S'ADD             X20, X20, #0xC8'
p449
sg19
S'94220391'
p450
sg21
Vadd x20, x20, #0xc8
p451
sg5
L18446743798839752460L
sg6
Nsg23
S'ADD'
p452
sg25
S'0xffffffc0007bb70cL'
p453
sg27
Nsba(ibclass
BInstr
p454
(dp455
g2
Nsg17
S'MOV             X0, X20'
p456
sg19
S'e00314aa'
p457
sg21
Vmov x0, x20
p458
sg5
L18446743798839752464L
sg6
Nsg23
S'MOV'
p459
sg25
S'0xffffffc0007bb710L'
p460
sg27
Nsba(ibclass
BInstr
p461
(dp462
g2
Nsg17
S'BL              mutex_lock'
p463
sg19
S'f4141a94'
p464
sg21
Vbl #0x6853d0
p465
sg5
L18446743798839752468L
sg6
Nsg23
S'BL'
p466
sg25
S'0xffffffc0007bb714L'
p467
sg27
Nsba(ibclass
BInstr
p468
(dp469
g2
Nsg17
S'LDR             X0, [X19,#8]'
p470
sg19
S'600640f9'
p471
sg21
Vldr x0, [x19, #8]
p472
sg5
L18446743798839752472L
sg6
Nsg23
S'LDR'
p473
sg25
S'0xffffffc0007bb718L'
p474
sg27
Nsba(ibclass
BInstr
p475
(dp476
g2
Nsg17
S'LDR             X1, [X19]'
p477
sg19
S'610240f9'
p478
sg21
Vldr x1, [x19]
p479
sg5
L18446743798839752476L
sg6
Nsg23
S'LDR'
p480
sg25
S'0xffffffc0007bb71cL'
p481
sg27
Nsba(ibclass
BInstr
p482
(dp483
g2
Nsg17
S'STR             X0, [X1,#8]'
p484
sg19
S'200400f9'
p485
sg21
Vstr x0, [x1, #8]
p486
sg5
L18446743798839752480L
sg6
Nsg23
S'STR'
p487
sg25
S'0xffffffc0007bb720L'
p488
sg27
Nsba(ibclass
BInstr
p489
(dp490
g2
Nsg17
S'STR             X1, [X0]'
p491
sg19
S'010000f9'
p492
sg21
Vstr x1, [x0]
p493
sg5
L18446743798839752484L
sg6
Nsg23
S'STR'
p494
sg25
S'0xffffffc0007bb724L'
p495
sg27
Nsba(ibclass
BInstr
p496
(dp497
g2
Nsg17
S'MOV             X0, #0x100'
p498
sg19
S'002080d2'
p499
sg21
Vmovz x0, #0x100
p500
sg5
L18446743798839752488L
sg6
Nsg23
S'MOV'
p501
sg25
S'0xffffffc0007bb728L'
p502
sg27
Nsba(ibclass
BInstr
p503
(dp504
g2
Nsg17
S'MOVK            X0, #0xDEAD,LSL#48'
p505
sg19
S'a0d5fbf2'
p506
sg21
Vmovk x0, #0xdead, lsl #48
p507
sg5
L18446743798839752492L
sg6
Nsg23
S'MOVK'
p508
sg25
S'0xffffffc0007bb72cL'
p509
sg27
Nsba(ibclass
BInstr
p510
(dp511
g2
Nsg17
S'STR             X0, [X19]'
p512
sg19
S'600200f9'
p513
sg21
Vstr x0, [x19]
p514
sg5
L18446743798839752496L
sg6
Nsg23
S'STR'
p515
sg25
S'0xffffffc0007bb730L'
p516
sg27
Nsba(ibclass
BInstr
p517
(dp518
g2
Nsg17
S'MOV             X0, #0x200'
p519
sg19
S'004080d2'
p520
sg21
Vmovz x0, #0x200
p521
sg5
L18446743798839752500L
sg6
Nsg23
S'MOV'
p522
sg25
S'0xffffffc0007bb734L'
p523
sg27
Nsba(ibclass
BInstr
p524
(dp525
g2
Nsg17
S'MOVK            X0, #0xDEAD,LSL#48'
p526
sg19
S'a0d5fbf2'
p527
sg21
Vmovk x0, #0xdead, lsl #48
p528
sg5
L18446743798839752504L
sg6
Nsg23
S'MOVK'
p529
sg25
S'0xffffffc0007bb738L'
p530
sg27
Nsba(ibclass
BInstr
p531
(dp532
g2
Nsg17
S'STR             X0, [X19,#8]'
p533
sg19
S'600600f9'
p534
sg21
Vstr x0, [x19, #8]
p535
sg5
L18446743798839752508L
sg6
Nsg23
S'STR'
p536
sg25
S'0xffffffc0007bb73cL'
p537
sg27
Nsba(ibclass
BInstr
p538
(dp539
g2
Nsg17
S'MOV             X0, X19'
p540
sg19
S'e00313aa'
p541
sg21
Vmov x0, x19
p542
sg5
L18446743798839752512L
sg6
Nsg23
S'MOV'
p543
sg25
S'0xffffffc0007bb740L'
p544
sg27
Nsba(ibclass
BInstr
p545
(dp546
g2
Nsg17
S'BL              kfree'
p547
sg19
S'5fdeec97'
p548
sg21
Vbl #0xffffffffffb3797c
p549
sg5
L18446743798839752516L
sg6
Nsg23
S'BL'
p550
sg25
S'0xffffffc0007bb744L'
p551
sg27
Nsba(ibclass
BInstr
p552
(dp553
g2
Nsg17
S'MOV             X0, X20'
p554
sg19
S'e00314aa'
p555
sg21
Vmov x0, x20
p556
sg5
L18446743798839752520L
sg6
Nsg23
S'MOV'
p557
sg25
S'0xffffffc0007bb748L'
p558
sg27
Nsba(ibclass
BInstr
p559
(dp560
g2
Nsg17
S'BL              mutex_unlock'
p561
sg19
S'29141a94'
p562
sg21
Vbl #0x6850a4
p563
sg5
L18446743798839752524L
sg6
Nsg23
S'BL'
p564
sg25
S'0xffffffc0007bb74cL'
p565
sg27
Nsba(ibclass
BInstr
p566
(dp567
g2
Nsg17
S'MOV             W19, #0'
p568
sg19
S'13008052'
p569
sg21
Vmovz w19, #0
p570
sg5
L18446743798839752528L
sg6
Nsg23
S'MOV'
p571
sg25
S'0xffffffc0007bb750L'
p572
sg27
Nsba(ibclass
BInstr
p573
(dp574
g2
Nsg17
S'B               loc_FFFFFFC0007BB75C'
p575
sg19
S'02000014'
p576
sg21
Vb #8
p577
sg5
L18446743798839752532L
sg6
Nsg23
g250
sg25
S'0xffffffc0007bb754L'
p578
sg27
Nsbasg70
(lp579
S'ADD reg0, reg0, #0xC8'
p580
aS'MOV reg, reg0'
p581
aS'BL mutex_lock'
p582
aS'LDR reg, mem'
p583
aS'LDR reg, mem'
p584
aS'STR reg, mem'
p585
aS'STR reg, mem'
p586
aS'MOV reg, #0x100'
p587
aS'MOVK reg, #0xDEAD,LSL#48'
p588
aS'STR reg, mem'
p589
aS'MOV reg, #0x200'
p590
aS'MOVK reg, #0xDEAD,LSL#48'
p591
aS'STR reg, mem'
p592
aS'MOV reg, reg9'
p593
aS'BL kfree'
p594
aS'MOV reg, reg0'
p595
aS'BL mutex_unlock'
p596
aS'MOV reg9, #0'
p597
aS'B func'
p598
asg79
Nsg5
S'0xffffffc0007bb70cL'
p599
sg81
(lp600
S'0xffffffc0007bb6c8L'
p601
aS'0xffffffc0007bb6e4L'
p602
aS'0xffffffc0007bb6f4L'
p603
asg6
Nsg83
(lp604
S'0xffffffc0007bb75cL'
p605
asg87
Nsg88
Nsg89
S'8fa9d092283d580ffec586ce81681de4'
p606
sg91
S'0da7cea1a11c293058429d25752d8202'
p607
sg93
(lp608
g452
ag459
ag466
ag473
ag480
ag487
ag494
ag501
ag508
ag515
ag522
ag529
ag536
ag543
ag550
ag557
ag564
ag571
ag250
asg95
Nsba(ibclass
BBasicBlock
p609
(dp610
g12
Nsg13
(lp611
(ibclass
BInstr
p612
(dp613
g2
Nsg17
S'MOV             W19, #0xFFFFFFEA'
p614
sg19
S'b3028012'
p615
sg21
Vmovn w19, #0x15
p616
sg5
L18446743798839752536L
sg6
Nsg23
S'MOV'
p617
sg25
S'0xffffffc0007bb758L'
p618
sg27
Nsbasg70
(lp619
S'MOV reg9, #0xFFFFFFEA'
p620
asg79
Nsg5
S'0xffffffc0007bb758L'
p621
sg81
(lp622
S'0xffffffc0007bb684L'
p623
asg6
Nsg83
(lp624
S'0xffffffc0007bb75cL'
p625
asg87
Nsg88
Nsg89
S'17b32100aef1fc19670be7fd58bc85df'
p626
sg91
S'b3606159d658f642fff4e1852538bd21'
p627
sg93
(lp628
g617
asg95
Nsba(ibclass
BBasicBlock
p629
(dp630
g12
Nsg13
(lp631
(ibclass
BInstr
p632
(dp633
g2
Nsg17
S'MOV             W0, W19'
p634
sg19
S'e003132a'
p635
sg21
Vmov w0, w19
p636
sg5
L18446743798839752540L
sg6
Nsg23
S'MOV'
p637
sg25
S'0xffffffc0007bb75cL'
p638
sg27
Nsba(ibclass
BInstr
p639
(dp640
g2
Nsg17
S'LDR             X21, [SP,#0x20+var_s0]'
p641
sg19
S'f51340f9'
p642
sg21
Vldr x21, [sp, #0x20]
p643
sg5
L18446743798839752544L
sg6
Nsg23
S'LDR'
p644
sg25
S'0xffffffc0007bb760L'
p645
sg27
Nsba(ibclass
BInstr
p646
(dp647
g2
Nsg17
S'LDP             X19, X20, [SP,#0x20+var_10]'
p648
sg19
S'f35341a9'
p649
sg21
Vldp x19, x20, [sp, #0x10]
p650
sg5
L18446743798839752548L
sg6
Nsg23
S'LDP'
p651
sg25
S'0xffffffc0007bb764L'
p652
sg27
Nsba(ibclass
BInstr
p653
(dp654
g2
Nsg17
S'LDP             X29, X30, [SP+0x20+var_20],#0x30'
p655
sg19
S'fd7bc3a8'
p656
sg21
Vldp x29, x30, [sp], #0x30
p657
sg5
L18446743798839752552L
sg6
Nsg23
S'LDP'
p658
sg25
S'0xffffffc0007bb768L'
p659
sg27
Nsba(ibclass
BInstr
p660
(dp661
g2
Nsg17
S'RET'
p662
sg19
S'c0035fd6'
p663
sg21
Vret 
p664
sg5
L18446743798839752556L
sg6
Nsg23
S'RET'
p665
sg25
S'0xffffffc0007bb76cL'
p666
sg27
Nsbasg70
(lp667
S'MOV reg, reg9'
p668
aS'LDR reg1, mem'
p669
aS'LDP reg9, reg0, mem'
p670
aS'LDP reg9, reg0, mem,#0x30'
p671
ag662
asg79
Nsg5
S'0xffffffc0007bb75cL'
p672
sg81
(lp673
S'0xffffffc0007bb690L'
p674
aS'0xffffffc0007bb6a4L'
p675
aS'0xffffffc0007bb70cL'
p676
aS'0xffffffc0007bb758L'
p677
asg6
Nsg83
(lp678
sg87
Nsg88
Nsg89
S'38f802c64085aee4a911b5f172baeddc'
p679
sg91
S'5e0b4ae4710ce90a00e86ddc351a9ffa'
p680
sg93
(lp681
g637
ag644
ag651
ag658
ag665
asg95
Nsbasb.