(ibclass
BFunc
p0
(dp1
S'hash'
p2
NsS'name'
p3
S'wait_for_state'
p4
sS'start_address'
p5
L18446743798839645720L
sS'flag'
p6
NsS'program'
p7
NsS'bbs'
p8
(lp9
(ibclass
BBasicBlock
p10
(dp11
S'function'
p12
NsS'binstrs'
p13
(lp14
(ibclass
BInstr
p15
(dp16
g2
NsS'disasm'
p17
S'STP             X29, X30, [SP,#-0x10+var_30]!'
p18
sS'bytes'
p19
S'fd7bbca9'
p20
sS'disasm_striped'
p21
Vstp x29, x30, [sp, #-0x40]!
p22
sg5
L18446743798839645720L
sg6
NsS'mnem'
p23
S'STP'
p24
sS'address'
p25
S'0xffffffc0007a1618L'
p26
sS'basicblock'
p27
Nsba(ibclass
BInstr
p28
(dp29
g2
Nsg17
S'MOV             X29, SP'
p30
sg19
S'fd030091'
p31
sg21
Vmov x29, sp
p32
sg5
L18446743798839645724L
sg6
Nsg23
S'MOV'
p33
sg25
S'0xffffffc0007a161cL'
p34
sg27
Nsba(ibclass
BInstr
p35
(dp36
g2
Nsg17
S'STP             X19, X20, [SP,#0x30+var_20]'
p37
sg19
S'f35301a9'
p38
sg21
Vstp x19, x20, [sp, #0x10]
p39
sg5
L18446743798839645728L
sg6
Nsg23
S'STP'
p40
sg25
S'0xffffffc0007a1620L'
p41
sg27
Nsba(ibclass
BInstr
p42
(dp43
g2
Nsg17
S'MOV             X20, X0'
p44
sg19
S'f40300aa'
p45
sg21
Vmov x20, x0
p46
sg5
L18446743798839645732L
sg6
Nsg23
S'MOV'
p47
sg25
S'0xffffffc0007a1624L'
p48
sg27
Nsba(ibclass
BInstr
p49
(dp50
g2
Nsg17
S'ADRP            X0, #qword_FFFFFFC000E4A8A0@PAGE'
p51
sg19
S'403500b0'
p52
sg21
Vadrp x0, #0x6a9000
p53
sg5
L18446743798839645736L
sg6
Nsg23
S'ADRP'
p54
sg25
S'0xffffffc0007a1628L'
p55
sg27
Nsba(ibclass
BInstr
p56
(dp57
g2
Nsg17
S'LDR             X0, [X0,#qword_FFFFFFC000E4A8A0@PAGEOFF]'
p58
sg19
S'005044f9'
p59
sg21
Vldr x0, [x0, #0x8a0]
p60
sg5
L18446743798839645740L
sg6
Nsg23
S'LDR'
p61
sg25
S'0xffffffc0007a162cL'
p62
sg27
Nsba(ibclass
BInstr
p63
(dp64
g2
Nsg17
S'STR             X21, [SP,#0x30+var_10]'
p65
sg19
S'f51300f9'
p66
sg21
Vstr x21, [sp, #0x20]
p67
sg5
L18446743798839645744L
sg6
Nsg23
S'STR'
p68
sg25
S'0xffffffc0007a1630L'
p69
sg27
Nsba(ibclass
BInstr
p70
(dp71
g2
Nsg17
S'CMP             W1, W2'
p72
sg19
S'3f00026b'
p73
sg21
Vcmp w1, w2
p74
sg5
L18446743798839645748L
sg6
Nsg23
S'CMP'
p75
sg25
S'0xffffffc0007a1634L'
p76
sg27
Nsba(ibclass
BInstr
p77
(dp78
g2
Nsg17
S'MOV             W21, W2'
p79
sg19
S'f503022a'
p80
sg21
Vmov w21, w2
p81
sg5
L18446743798839645752L
sg6
Nsg23
S'MOV'
p82
sg25
S'0xffffffc0007a1638L'
p83
sg27
Nsba(ibclass
BInstr
p84
(dp85
g2
Nsg17
S'LDR             W0, [X0]'
p86
sg19
S'000040b9'
p87
sg21
Vldr w0, [x0]
p88
sg5
L18446743798839645756L
sg6
Nsg23
S'LDR'
p89
sg25
S'0xffffffc0007a163cL'
p90
sg27
Nsba(ibclass
BInstr
p91
(dp92
g2
Nsg17
S'B.CC            loc_FFFFFFC0007A167C'
p93
sg19
S'e3010054'
p94
sg21
Vb.lo #0x3c
p95
sg5
L18446743798839645760L
sg6
Nsg23
S'B'
p96
sg25
S'0xffffffc0007a1640L'
p97
sg27
NsbasS'disasm_list'
p98
(lp99
S'STP reg9, reg0, mem!'
p100
aS'MOV reg9, SP'
p101
aS'STP reg9, reg0, mem'
p102
aS'MOV reg0, reg'
p103
aS'ADRP reg, #func@PAGE'
p104
aS'LDR reg, mem'
p105
aS'STR reg1, mem'
p106
aS'CMP reg, reg'
p107
aS'MOV reg1, reg'
p108
aS'LDR reg, mem'
p109
aS'B.CC func'
p110
asS'end_address'
p111
Nsg5
S'0xffffffc0007a1618L'
p112
sS'preds'
p113
(lp114
sg6
NsS'succs'
p115
(lp116
S'0xffffffc0007a1644L'
p117
aS'0xffffffc0007a167cL'
p118
asS'hash_v3'
p119
NsS'flag_v2'
p120
NsS'hash_v1'
p121
S'784b76cbc36775f8bd7f6b76a19f1927'
p122
sS'hash_v2'
p123
S'c9edb27c416aac05476184383292e171'
p124
sS'mnen_list'
p125
(lp126
g24
ag33
ag40
ag47
ag54
ag61
ag68
ag75
ag82
ag89
ag96
asS'neighbour_disasm_list'
p127
Nsba(ibclass
BBasicBlock
p128
(dp129
g12
Nsg13
(lp130
(ibclass
BInstr
p131
(dp132
g2
Nsg17
S'MOV             W19, #0'
p133
sg19
S'13008052'
p134
sg21
Vmovz w19, #0
p135
sg5
L18446743798839645764L
sg6
Nsg23
S'MOV'
p136
sg25
S'0xffffffc0007a1644L'
p137
sg27
Nsba(ibclass
BInstr
p138
(dp139
g2
Nsg17
S'TBZ             W0, #2, loc_FFFFFFC0007A16D0'
p140
sg19
S'40041036'
p141
sg21
Vtbz w0, #2, #0x88
p142
sg5
L18446743798839645768L
sg6
Nsg23
S'TBZ'
p143
sg25
S'0xffffffc0007a1648L'
p144
sg27
Nsbasg98
(lp145
S'MOV reg9, #0'
p146
aS'TBZ reg, #2, func'
p147
asg111
Nsg5
S'0xffffffc0007a1644L'
p148
sg113
(lp149
S'0xffffffc0007a1618L'
p150
asg6
Nsg115
(lp151
S'0xffffffc0007a164cL'
p152
aS'0xffffffc0007a16d0L'
p153
asg119
Nsg120
Nsg121
S'd3be35d09a860437280ccc1e4c8f1a6f'
p154
sg123
S'99669bda3f511c639634616d3f9ece7e'
p155
sg125
(lp156
g136
ag143
asg127
Nsba(ibclass
BBasicBlock
p157
(dp158
g12
Nsg13
(lp159
(ibclass
BInstr
p160
(dp161
g2
Nsg17
S'ADRP            X0, #qword_FFFFFFC000E48D48@PAGE'
p162
sg19
S'203500f0'
p163
sg21
Vadrp x0, #0x6a7000
p164
sg5
L18446743798839645772L
sg6
Nsg23
S'ADRP'
p165
sg25
S'0xffffffc0007a164cL'
p166
sg27
Nsba(ibclass
BInstr
p167
(dp168
g2
Nsg17
S'LDR             X0, [X0,#qword_FFFFFFC000E48D48@PAGEOFF]'
p169
sg19
S'00a446f9'
p170
sg21
Vldr x0, [x0, #0xd48]
p171
sg5
L18446743798839645776L
sg6
Nsg23
S'LDR'
p172
sg25
S'0xffffffc0007a1650L'
p173
sg27
Nsba(ibclass
BInstr
p174
(dp175
g2
Nsg17
S'LDR             W0, [X0]'
p176
sg19
S'000040b9'
p177
sg21
Vldr w0, [x0]
p178
sg5
L18446743798839645780L
sg6
Nsg23
S'LDR'
p179
sg25
S'0xffffffc0007a1654L'
p180
sg27
Nsba(ibclass
BInstr
p181
(dp182
g2
Nsg17
S'CBNZ            W0, loc_FFFFFFC0007A16D0'
p183
sg19
S'c0030035'
p184
sg21
Vcbnz w0, #0x78
p185
sg5
L18446743798839645784L
sg6
Nsg23
S'CBNZ'
p186
sg25
S'0xffffffc0007a1658L'
p187
sg27
Nsbasg98
(lp188
S'ADRP reg, #func@PAGE'
p189
aS'LDR reg, mem'
p190
aS'LDR reg, mem'
p191
aS'CBNZ reg, func'
p192
asg111
Nsg5
S'0xffffffc0007a164cL'
p193
sg113
(lp194
S'0xffffffc0007a1644L'
p195
asg6
Nsg115
(lp196
S'0xffffffc0007a165cL'
p197
aS'0xffffffc0007a16d0L'
p198
asg119
Nsg120
Nsg121
S'9c97521b8b0f280d47a50ec9a5e4f86f'
p199
sg123
S'bd26f8893557dc5fa132ff2490be0ebf'
p200
sg125
(lp201
g165
ag172
ag179
ag186
asg127
Nsba(ibclass
BBasicBlock
p202
(dp203
g12
Nsg13
(lp204
(ibclass
BInstr
p205
(dp206
g2
Nsg17
S'ADRP            X0, #unk_FFFFFFC0013B7A83@PAGE'
p207
sg19
S'a06000d0'
p208
sg21
Vadrp x0, #0xc16000
p209
sg5
L18446743798839645788L
sg6
Nsg23
S'ADRP'
p210
sg25
S'0xffffffc0007a165cL'
p211
sg27
Nsba(ibclass
BInstr
p212
(dp213
g2
Nsg17
S'ADRP            X1, #aInfo@PAGE; "info"'
p214
sg19
S'815e00d0'
p215
sg21
Vadrp x1, #0xbd2000
p216
sg5
L18446743798839645792L
sg6
Nsg23
S'ADRP'
p217
sg25
S'0xffffffc0007a1660L'
p218
sg27
Nsba(ibclass
BInstr
p219
(dp220
g2
Nsg17
S'LDR             W3, [X20,#0x90]'
p221
sg19
S'839240b9'
p222
sg21
Vldr w3, [x20, #0x90]
p223
sg5
L18446743798839645796L
sg6
Nsg23
S'LDR'
p224
sg25
S'0xffffffc0007a1664L'
p225
sg27
Nsba(ibclass
BInstr
p226
(dp227
g2
Nsg17
S'ADD             X1, X1, #aInfo@PAGEOFF; "info"'
p228
sg19
S'21581b91'
p229
sg21
Vadd x1, x1, #0x6d6
p230
sg5
L18446743798839645800L
sg6
Nsg23
S'ADD'
p231
sg25
S'0xffffffc0007a1668L'
p232
sg27
Nsba(ibclass
BInstr
p233
(dp234
g2
Nsg17
S'MOV             X2, X20'
p235
sg19
S'e20314aa'
p236
sg21
Vmov x2, x20
p237
sg5
L18446743798839645804L
sg6
Nsg23
S'MOV'
p238
sg25
S'0xffffffc0007a166cL'
p239
sg27
Nsba(ibclass
BInstr
p240
(dp241
g2
Nsg17
S'ADD             X0, X0, #unk_FFFFFFC0013B7A83@PAGEOFF'
p242
sg19
S'000c2a91'
p243
sg21
Vadd x0, x0, #0xa83
p244
sg5
L18446743798839645808L
sg6
Nsg23
S'ADD'
p245
sg25
S'0xffffffc0007a1670L'
p246
sg27
Nsba(ibclass
BInstr
p247
(dp248
g2
Nsg17
S'BL              printk'
p249
sg19
S'bb481a94'
p250
sg21
Vbl #0x6922ec
p251
sg5
L18446743798839645812L
sg6
Nsg23
S'BL'
p252
sg25
S'0xffffffc0007a1674L'
p253
sg27
Nsba(ibclass
BInstr
p254
(dp255
g2
Nsg17
S'B               loc_FFFFFFC0007A16D0'
p256
sg19
S'16000014'
p257
sg21
Vb #0x58
p258
sg5
L18446743798839645816L
sg6
Nsg23
g96
sg25
S'0xffffffc0007a1678L'
p259
sg27
Nsbasg98
(lp260
S'ADRP reg, #func@PAGE'
p261
aS'ADRP reg, #aInfo@PAGE'
p262
aS'LDR reg, mem'
p263
aS'ADD reg, reg, #aInfo@PAGEOFF'
p264
aS'MOV reg, reg0'
p265
aS'ADD reg, reg, #func@PAGEOFF'
p266
aS'BL printk'
p267
aS'B func'
p268
asg111
Nsg5
S'0xffffffc0007a165cL'
p269
sg113
(lp270
S'0xffffffc0007a164cL'
p271
asg6
Nsg115
(lp272
S'0xffffffc0007a16d0L'
p273
asg119
Nsg120
Nsg121
S'6ad1e79948b49d1532d9a6eb2c571d6a'
p274
sg123
S'd8a6eef6644b1b32459e13b8a844f38e'
p275
sg125
(lp276
g210
ag217
ag224
ag231
ag238
ag245
ag252
ag96
asg127
Nsba(ibclass
BBasicBlock
p277
(dp278
g12
Nsg13
(lp279
(ibclass
BInstr
p280
(dp281
g2
Nsg17
S'TBZ             W0, #3, loc_FFFFFFC0007A16B0'
p282
sg19
S'a0011836'
p283
sg21
Vtbz w0, #3, #0x34
p284
sg5
L18446743798839645820L
sg6
Nsg23
S'TBZ'
p285
sg25
S'0xffffffc0007a167cL'
p286
sg27
Nsbasg98
(lp287
S'TBZ reg, #3, func'
p288
asg111
Nsg5
S'0xffffffc0007a167cL'
p289
sg113
(lp290
S'0xffffffc0007a1618L'
p291
asg6
Nsg115
(lp292
S'0xffffffc0007a1680L'
p293
aS'0xffffffc0007a16b0L'
p294
asg119
Nsg120
Nsg121
S'b05993cf85beb302c9604086eec65e11'
p295
sg123
S'7411ce3a55876e9501953a6aa4dfd665'
p296
sg125
(lp297
g285
asg127
Nsba(ibclass
BBasicBlock
p298
(dp299
g12
Nsg13
(lp300
(ibclass
BInstr
p301
(dp302
g2
Nsg17
S'ADRP            X0, #qword_FFFFFFC000E48D48@PAGE'
p303
sg19
S'203500f0'
p304
sg21
Vadrp x0, #0x6a7000
p305
sg5
L18446743798839645824L
sg6
Nsg23
S'ADRP'
p306
sg25
S'0xffffffc0007a1680L'
p307
sg27
Nsba(ibclass
BInstr
p308
(dp309
g2
Nsg17
S'LDR             X0, [X0,#qword_FFFFFFC000E48D48@PAGEOFF]'
p310
sg19
S'00a446f9'
p311
sg21
Vldr x0, [x0, #0xd48]
p312
sg5
L18446743798839645828L
sg6
Nsg23
S'LDR'
p313
sg25
S'0xffffffc0007a1684L'
p314
sg27
Nsba(ibclass
BInstr
p315
(dp316
g2
Nsg17
S'LDR             W0, [X0]'
p317
sg19
S'000040b9'
p318
sg21
Vldr w0, [x0]
p319
sg5
L18446743798839645832L
sg6
Nsg23
S'LDR'
p320
sg25
S'0xffffffc0007a1688L'
p321
sg27
Nsba(ibclass
BInstr
p322
(dp323
g2
Nsg17
S'CBNZ            W0, loc_FFFFFFC0007A16B0'
p324
sg19
S'20010035'
p325
sg21
Vcbnz w0, #0x24
p326
sg5
L18446743798839645836L
sg6
Nsg23
S'CBNZ'
p327
sg25
S'0xffffffc0007a168cL'
p328
sg27
Nsbasg98
(lp329
S'ADRP reg, #func@PAGE'
p330
aS'LDR reg, mem'
p331
aS'LDR reg, mem'
p332
aS'CBNZ reg, func'
p333
asg111
Nsg5
S'0xffffffc0007a1680L'
p334
sg113
(lp335
S'0xffffffc0007a167cL'
p336
asg6
Nsg115
(lp337
S'0xffffffc0007a1690L'
p338
aS'0xffffffc0007a16b0L'
p339
asg119
Nsg120
Nsg121
S'9c97521b8b0f280d47a50ec9a5e4f86f'
p340
sg123
S'bd26f8893557dc5fa132ff2490be0ebf'
p341
sg125
(lp342
g306
ag313
ag320
ag327
asg127
Nsba(ibclass
BBasicBlock
p343
(dp344
g12
Nsg13
(lp345
(ibclass
BInstr
p346
(dp347
g2
Nsg17
S'ADRP            X0, #unk_FFFFFFC0013B7AB7@PAGE'
p348
sg19
S'a06000d0'
p349
sg21
Vadrp x0, #0xc16000
p350
sg5
L18446743798839645840L
sg6
Nsg23
S'ADRP'
p351
sg25
S'0xffffffc0007a1690L'
p352
sg27
Nsba(ibclass
BInstr
p353
(dp354
g2
Nsg17
S'ADRP            X1, #(aRulesDbg+6)@PAGE; "dbg"'
p355
sg19
S'e1670090'
p356
sg21
Vadrp x1, #0xcfc000
p357
sg5
L18446743798839645844L
sg6
Nsg23
S'ADRP'
p358
sg25
S'0xffffffc0007a1694L'
p359
sg27
Nsba(ibclass
BInstr
p360
(dp361
g2
Nsg17
S'MOV             W2, W3'
p362
sg19
S'e203032a'
p363
sg21
Vmov w2, w3
p364
sg5
L18446743798839645848L
sg6
Nsg23
S'MOV'
p365
sg25
S'0xffffffc0007a1698L'
p366
sg27
Nsba(ibclass
BInstr
p367
(dp368
g2
Nsg17
S'ADD             X0, X0, #unk_FFFFFFC0013B7AB7@PAGEOFF'
p369
sg19
S'00dc2a91'
p370
sg21
Vadd x0, x0, #0xab7
p371
sg5
L18446743798839645852L
sg6
Nsg23
S'ADD'
p372
sg25
S'0xffffffc0007a169cL'
p373
sg27
Nsba(ibclass
BInstr
p374
(dp375
g2
Nsg17
S'ADD             X1, X1, #(aRulesDbg+6)@PAGEOFF; "dbg"'
p376
sg19
S'21e01d91'
p377
sg21
Vadd x1, x1, #0x778
p378
sg5
L18446743798839645856L
sg6
Nsg23
S'ADD'
p379
sg25
S'0xffffffc0007a16a0L'
p380
sg27
Nsba(ibclass
BInstr
p381
(dp382
g2
Nsg17
S'STR             X3, [X29,#arg_20]'
p383
sg19
S'a31b00f9'
p384
sg21
Vstr x3, [x29, #0x30]
p385
sg5
L18446743798839645860L
sg6
Nsg23
S'STR'
p386
sg25
S'0xffffffc0007a16a4L'
p387
sg27
Nsba(ibclass
BInstr
p388
(dp389
g2
Nsg17
S'BL              printk'
p390
sg19
S'ae481a94'
p391
sg21
Vbl #0x6922b8
p392
sg5
L18446743798839645864L
sg6
Nsg23
S'BL'
p393
sg25
S'0xffffffc0007a16a8L'
p394
sg27
Nsba(ibclass
BInstr
p395
(dp396
g2
Nsg17
S'LDR             X3, [X29,#arg_20]'
p397
sg19
S'a31b40f9'
p398
sg21
Vldr x3, [x29, #0x30]
p399
sg5
L18446743798839645868L
sg6
Nsg23
S'LDR'
p400
sg25
S'0xffffffc0007a16acL'
p401
sg27
Nsbasg98
(lp402
S'ADRP reg, #func@PAGE'
p403
aS'ADRP reg, #(aRulesDbg+6)@PAGE'
p404
aS'MOV reg, reg'
p405
aS'ADD reg, reg, #func@PAGEOFF'
p406
aS'ADD reg, reg, #(aRulesDbg+6)@PAGEOFF'
p407
aS'STR reg, mem'
p408
aS'BL printk'
p409
aS'LDR reg, mem'
p410
asg111
Nsg5
S'0xffffffc0007a1690L'
p411
sg113
(lp412
S'0xffffffc0007a1680L'
p413
asg6
Nsg115
(lp414
S'0xffffffc0007a16b0L'
p415
asg119
Nsg120
Nsg121
S'7fa6885a0f733ecdd450b44c870bb2a4'
p416
sg123
S'f618b4b07707cc3481a9f19e887276e9'
p417
sg125
(lp418
g351
ag358
ag365
ag372
ag379
ag386
ag393
ag400
asg127
Nsba(ibclass
BBasicBlock
p419
(dp420
g12
Nsg13
(lp421
(ibclass
BInstr
p422
(dp423
g2
Nsg17
S'MOV             X0, X20'
p424
sg19
S'e00314aa'
p425
sg21
Vmov x0, x20
p426
sg5
L18446743798839645872L
sg6
Nsg23
S'MOV'
p427
sg25
S'0xffffffc0007a16b0L'
p428
sg27
Nsba(ibclass
BInstr
p429
(dp430
g2
Nsg17
S'MOV             W1, W3'
p431
sg19
S'e103032a'
p432
sg21
Vmov w1, w3
p433
sg5
L18446743798839645876L
sg6
Nsg23
S'MOV'
p434
sg25
S'0xffffffc0007a16b4L'
p435
sg27
Nsba(ibclass
BInstr
p436
(dp437
g2
Nsg17
S'BL              wait_for_sess_signal_receipt'
p438
sg19
S'9fffff97'
p439
sg21
Vbl #0xfffffffffffffe7c
p440
sg5
L18446743798839645880L
sg6
Nsg23
S'BL'
p441
sg25
S'0xffffffc0007a16b8L'
p442
sg27
Nsba(ibclass
BInstr
p443
(dp444
g2
Nsg17
S'MOV             W19, W0'
p445
sg19
S'f303002a'
p446
sg21
Vmov w19, w0
p447
sg5
L18446743798839645884L
sg6
Nsg23
S'MOV'
p448
sg25
S'0xffffffc0007a16bcL'
p449
sg27
Nsba(ibclass
BInstr
p450
(dp451
g2
Nsg17
S'CBNZ            W0, loc_FFFFFFC0007A16D0'
p452
sg19
S'80000035'
p453
sg21
Vcbnz w0, #0x10
p454
sg5
L18446743798839645888L
sg6
Nsg23
S'CBNZ'
p455
sg25
S'0xffffffc0007a16c0L'
p456
sg27
Nsbasg98
(lp457
S'MOV reg, reg0'
p458
aS'MOV reg, reg'
p459
aS'BL wait_for_sess_signal_receipt'
p460
aS'MOV reg9, reg'
p461
aS'CBNZ reg, func'
p462
asg111
Nsg5
S'0xffffffc0007a16b0L'
p463
sg113
(lp464
S'0xffffffc0007a167cL'
p465
aS'0xffffffc0007a1680L'
p466
aS'0xffffffc0007a1690L'
p467
asg6
Nsg115
(lp468
S'0xffffffc0007a16c4L'
p469
aS'0xffffffc0007a16d0L'
p470
asg119
Nsg120
Nsg121
S'aacad532e96b11f547e22036322014f8'
p471
sg123
S'8cced24d96abd73e943043cb02a963f6'
p472
sg125
(lp473
g427
ag434
ag441
ag448
ag455
asg127
Nsba(ibclass
BBasicBlock
p474
(dp475
g12
Nsg13
(lp476
(ibclass
BInstr
p477
(dp478
g2
Nsg17
S'MOV             X0, X20'
p479
sg19
S'e00314aa'
p480
sg21
Vmov x0, x20
p481
sg5
L18446743798839645892L
sg6
Nsg23
S'MOV'
p482
sg25
S'0xffffffc0007a16c4L'
p483
sg27
Nsba(ibclass
BInstr
p484
(dp485
g2
Nsg17
S'MOV             W1, W21'
p486
sg19
S'e103152a'
p487
sg21
Vmov w1, w21
p488
sg5
L18446743798839645896L
sg6
Nsg23
S'MOV'
p489
sg25
S'0xffffffc0007a16c8L'
p490
sg27
Nsba(ibclass
BInstr
p491
(dp492
g2
Nsg17
S'BL              change_inst_state'
p493
sg19
S'31efff97'
p494
sg21
Vbl #0xffffffffffffbcc4
p495
sg5
L18446743798839645900L
sg6
Nsg23
S'BL'
p496
sg25
S'0xffffffc0007a16ccL'
p497
sg27
Nsbasg98
(lp498
S'MOV reg, reg0'
p499
aS'MOV reg, reg1'
p500
aS'BL change_inst_state'
p501
asg111
Nsg5
S'0xffffffc0007a16c4L'
p502
sg113
(lp503
S'0xffffffc0007a16b0L'
p504
asg6
Nsg115
(lp505
S'0xffffffc0007a16d0L'
p506
asg119
Nsg120
Nsg121
S'd0b32617f7e4cfc169d92597b8aefd43'
p507
sg123
S'ae1f2c2a7048b7af51832961e31cf25b'
p508
sg125
(lp509
g482
ag489
ag496
asg127
Nsba(ibclass
BBasicBlock
p510
(dp511
g12
Nsg13
(lp512
(ibclass
BInstr
p513
(dp514
g2
Nsg17
S'MOV             W0, W19'
p515
sg19
S'e003132a'
p516
sg21
Vmov w0, w19
p517
sg5
L18446743798839645904L
sg6
Nsg23
S'MOV'
p518
sg25
S'0xffffffc0007a16d0L'
p519
sg27
Nsba(ibclass
BInstr
p520
(dp521
g2
Nsg17
S'LDR             X21, [SP,#0x30+var_10]'
p522
sg19
S'f51340f9'
p523
sg21
Vldr x21, [sp, #0x20]
p524
sg5
L18446743798839645908L
sg6
Nsg23
S'LDR'
p525
sg25
S'0xffffffc0007a16d4L'
p526
sg27
Nsba(ibclass
BInstr
p527
(dp528
g2
Nsg17
S'LDP             X19, X20, [SP,#0x30+var_20]'
p529
sg19
S'f35341a9'
p530
sg21
Vldp x19, x20, [sp, #0x10]
p531
sg5
L18446743798839645912L
sg6
Nsg23
S'LDP'
p532
sg25
S'0xffffffc0007a16d8L'
p533
sg27
Nsba(ibclass
BInstr
p534
(dp535
g2
Nsg17
S'LDP             X29, X30, [SP+0x30+var_30],#0x40'
p536
sg19
S'fd7bc4a8'
p537
sg21
Vldp x29, x30, [sp], #0x40
p538
sg5
L18446743798839645916L
sg6
Nsg23
S'LDP'
p539
sg25
S'0xffffffc0007a16dcL'
p540
sg27
Nsba(ibclass
BInstr
p541
(dp542
g2
Nsg17
S'RET'
p543
sg19
S'c0035fd6'
p544
sg21
Vret 
p545
sg5
L18446743798839645920L
sg6
Nsg23
S'RET'
p546
sg25
S'0xffffffc0007a16e0L'
p547
sg27
Nsbasg98
(lp548
S'MOV reg, reg9'
p549
aS'LDR reg1, mem'
p550
aS'LDP reg9, reg0, mem'
p551
aS'LDP reg9, reg0, mem,#0x40'
p552
ag543
asg111
Nsg5
S'0xffffffc0007a16d0L'
p553
sg113
(lp554
S'0xffffffc0007a1644L'
p555
aS'0xffffffc0007a164cL'
p556
aS'0xffffffc0007a165cL'
p557
aS'0xffffffc0007a16b0L'
p558
aS'0xffffffc0007a16c4L'
p559
asg6
Nsg115
(lp560
sg119
Nsg120
Nsg121
S'38f802c64085aee4a911b5f172baeddc'
p561
sg123
S'e226cb1a0b017c55f378c2ce83ca058c'
p562
sg125
(lp563
g518
ag525
ag532
ag539
ag546
asg127
Nsbasb.