(ibclass
BFunc
p0
(dp1
S'hash'
p2
NsS'name'
p3
S'arm64_swiotlb_alloc_coherent'
p4
sS'start_address'
p5
L18446743798833813792L
sS'flag'
p6
NsS'program'
p7
NsS'bbs'
p8
(lp9
(ibclass
BBasicBlock
p10
(dp11
S'function'
p12
NsS'binstrs'
p13
(lp14
(ibclass
BInstr
p15
(dp16
g2
NsS'disasm'
p17
S'STP             X29, X30, [SP,#-0x10+var_50]!'
p18
sS'bytes'
p19
S'fd7bbaa9'
p20
sS'disasm_striped'
p21
Vstp x29, x30, [sp, #-0x60]!
p22
sg5
L18446743798833813792L
sg6
NsS'mnem'
p23
S'STP'
p24
sS'address'
p25
S'0xffffffc000211920L'
p26
sS'basicblock'
p27
Nsba(ibclass
BInstr
p28
(dp29
g2
Nsg17
S'MOV             X29, SP'
p30
sg19
S'fd030091'
p31
sg21
Vmov x29, sp
p32
sg5
L18446743798833813796L
sg6
Nsg23
S'MOV'
p33
sg25
S'0xffffffc000211924L'
p34
sg27
Nsba(ibclass
BInstr
p35
(dp36
g2
Nsg17
S'STP             X21, X22, [SP,#0x50+var_30]'
p37
sg19
S'f55b02a9'
p38
sg21
Vstp x21, x22, [sp, #0x20]
p39
sg5
L18446743798833813800L
sg6
Nsg23
S'STP'
p40
sg25
S'0xffffffc000211928L'
p41
sg27
Nsba(ibclass
BInstr
p42
(dp43
g2
Nsg17
S'STP             X19, X20, [SP,#0x50+var_40]'
p44
sg19
S'f35301a9'
p45
sg21
Vstp x19, x20, [sp, #0x10]
p46
sg5
L18446743798833813804L
sg6
Nsg23
S'STP'
p47
sg25
S'0xffffffc00021192cL'
p48
sg27
Nsba(ibclass
BInstr
p49
(dp50
g2
Nsg17
S'STR             X23, [SP,#0x50+var_20]'
p51
sg19
S'f71b00f9'
p52
sg21
Vstr x23, [sp, #0x30]
p53
sg5
L18446743798833813808L
sg6
Nsg23
S'STR'
p54
sg25
S'0xffffffc000211930L'
p55
sg27
Nsba(ibclass
BInstr
p56
(dp57
g2
Nsg17
S'MOV             X22, X2'
p58
sg19
S'f60302aa'
p59
sg21
Vmov x22, x2
p60
sg5
L18446743798833813812L
sg6
Nsg23
S'MOV'
p61
sg25
S'0xffffffc000211934L'
p62
sg27
Nsba(ibclass
BInstr
p63
(dp64
g2
Nsg17
S'CBNZ            X0, loc_FFFFFFC000211974'
p65
sg19
S'e00100b5'
p66
sg21
Vcbnz x0, #0x3c
p67
sg5
L18446743798833813816L
sg6
Nsg23
S'CBNZ'
p68
sg25
S'0xffffffc000211938L'
p69
sg27
NsbasS'disasm_list'
p70
(lp71
S'STP reg9, reg0, mem!'
p72
aS'MOV reg9, SP'
p73
aS'STP reg1, reg2, mem'
p74
aS'STP reg9, reg0, mem'
p75
aS'STR reg3, mem'
p76
aS'MOV reg2, reg'
p77
aS'CBNZ reg, func'
p78
asS'end_address'
p79
Nsg5
S'0xffffffc000211920L'
p80
sS'preds'
p81
(lp82
sg6
NsS'succs'
p83
(lp84
S'0xffffffc00021193cL'
p85
aS'0xffffffc000211974L'
p86
asS'hash_v3'
p87
NsS'flag_v2'
p88
NsS'hash_v1'
p89
S'8f0c66fb230a96dfdb6245b5c28ed90f'
p90
sS'hash_v2'
p91
S'3c5208de5edd5205d0b99deade4f4296'
p92
sS'mnen_list'
p93
(lp94
g24
ag33
ag40
ag47
ag54
ag61
ag68
asS'neighbour_disasm_list'
p95
Nsba(ibclass
BBasicBlock
p96
(dp97
g12
Nsg13
(lp98
(ibclass
BInstr
p99
(dp100
g2
Nsg17
S'ADRP            X20, #__warned.17507@PAGE'
p101
sg19
S'f4b200f0'
p102
sg21
Vadrp x20, #0x165f000
p103
sg5
L18446743798833813820L
sg6
Nsg23
S'ADRP'
p104
sg25
S'0xffffffc00021193cL'
p105
sg27
Nsba(ibclass
BInstr
p106
(dp107
g2
Nsg17
S'ADD             X20, X20, #__warned.17507@PAGEOFF'
p108
sg19
S'94122e91'
p109
sg21
Vadd x20, x20, #0xb84
p110
sg5
L18446743798833813824L
sg6
Nsg23
S'ADD'
p111
sg25
S'0xffffffc000211940L'
p112
sg27
Nsba(ibclass
BInstr
p113
(dp114
g2
Nsg17
S'LDRB            W1, [X20,#(__warned.17490 - 0xFFFFFFC001870B84)]'
p115
sg19
S'81064039'
p116
sg21
Vldrb w1, [x20, #1]
p117
sg5
L18446743798833813828L
sg6
Nsg23
S'LDR'
p118
sg25
S'0xffffffc000211944L'
p119
sg27
Nsba(ibclass
BInstr
p120
(dp121
g2
Nsg17
S'MOV             X19, X0'
p122
sg19
S'f30300aa'
p123
sg21
Vmov x19, x0
p124
sg5
L18446743798833813832L
sg6
Nsg23
S'MOV'
p125
sg25
S'0xffffffc000211948L'
p126
sg27
Nsba(ibclass
BInstr
p127
(dp128
g2
Nsg17
S'CBNZ            W1, loc_FFFFFFC000211A5C'
p129
sg19
S'81080035'
p130
sg21
Vcbnz w1, #0x110
p131
sg5
L18446743798833813836L
sg6
Nsg23
S'CBNZ'
p132
sg25
S'0xffffffc00021194cL'
p133
sg27
Nsbasg70
(lp134
S'ADRP reg0, #__warned.17507@PAGE'
p135
aS'ADD reg0, reg0, #__warned.17507@PAGEOFF'
p136
aS'LDRB reg, mem'
p137
aS'MOV reg9, reg'
p138
aS'CBNZ reg, func'
p139
asg79
Nsg5
S'0xffffffc00021193cL'
p140
sg81
(lp141
S'0xffffffc000211920L'
p142
asg6
Nsg83
(lp143
S'0xffffffc000211950L'
p144
aS'0xffffffc000211a5cL'
p145
asg87
Nsg88
Nsg89
S'fdde1f9b4afa38646de8a647a0a9f0ba'
p146
sg91
S'2216d2cc0fba6f82dec54a6437372a2e'
p147
sg93
(lp148
g104
ag111
ag118
ag125
ag132
asg95
Nsba(ibclass
BBasicBlock
p149
(dp150
g12
Nsg13
(lp151
(ibclass
BInstr
p152
(dp153
g2
Nsg17
S'ADRP            X0, #aArchArm64MmDma@PAGE; "arch/arm64/mm/dma-mapping.c"'
p154
sg19
S'c0860090'
p155
sg21
Vadrp x0, #0x10d8000
p156
sg5
L18446743798833813840L
sg6
Nsg23
S'ADRP'
p157
sg25
S'0xffffffc000211950L'
p158
sg27
Nsba(ibclass
BInstr
p159
(dp160
g2
Nsg17
S'ADRP            X2, #aUseAnActualDev@PAGE; "Use an actual device structure for DMA "...'
p161
sg19
S'c28600b0'
p162
sg21
Vadrp x2, #0x10d9000
p163
sg5
L18446743798833813844L
sg6
Nsg23
S'ADRP'
p164
sg25
S'0xffffffc000211954L'
p165
sg27
Nsba(ibclass
BInstr
p166
(dp167
g2
Nsg17
S'ADD             X0, X0, #aArchArm64MmDma@PAGEOFF; "arch/arm64/mm/dma-mapping.c"'
p168
sg19
S'00403a91'
p169
sg21
Vadd x0, x0, #0xe90
p170
sg5
L18446743798833813848L
sg6
Nsg23
S'ADD'
p171
sg25
S'0xffffffc000211958L'
p172
sg27
Nsba(ibclass
BInstr
p173
(dp174
g2
Nsg17
S'MOV             W1, #0xB6'
p175
sg19
S'c1168052'
p176
sg21
Vmovz w1, #0xb6
p177
sg5
L18446743798833813852L
sg6
Nsg23
S'MOV'
p178
sg25
S'0xffffffc00021195cL'
p179
sg27
Nsba(ibclass
BInstr
p180
(dp181
g2
Nsg17
S'ADD             X2, X2, #aUseAnActualDev@PAGEOFF; "Use an actual device structure for DMA "...'
p182
sg19
S'42e00091'
p183
sg21
Vadd x2, x2, #0x38
p184
sg5
L18446743798833813856L
sg6
Nsg23
S'ADD'
p185
sg25
S'0xffffffc000211960L'
p186
sg27
Nsba(ibclass
BInstr
p187
(dp188
g2
Nsg17
S'BL              warn_slowpath_fmt'
p189
sg19
S'ee2a0094'
p190
sg21
Vbl #0xabb8
p191
sg5
L18446743798833813860L
sg6
Nsg23
S'BL'
p192
sg25
S'0xffffffc000211964L'
p193
sg27
Nsba(ibclass
BInstr
p194
(dp195
g2
Nsg17
S'MOV             W0, #1'
p196
sg19
S'20008052'
p197
sg21
Vmovz w0, #0x1
p198
sg5
L18446743798833813864L
sg6
Nsg23
S'MOV'
p199
sg25
S'0xffffffc000211968L'
p200
sg27
Nsba(ibclass
BInstr
p201
(dp202
g2
Nsg17
S'STRB            W0, [X20,#(__warned.17490 - 0xFFFFFFC001870B84)]'
p203
sg19
S'80060039'
p204
sg21
Vstrb w0, [x20, #1]
p205
sg5
L18446743798833813868L
sg6
Nsg23
S'STR'
p206
sg25
S'0xffffffc00021196cL'
p207
sg27
Nsba(ibclass
BInstr
p208
(dp209
g2
Nsg17
S'B               loc_FFFFFFC000211A5C'
p210
sg19
S'3b000014'
p211
sg21
Vb #0xec
p212
sg5
L18446743798833813872L
sg6
Nsg23
S'B'
p213
sg25
S'0xffffffc000211970L'
p214
sg27
Nsbasg70
(lp215
S'ADRP reg, #aArchArm64MmDma@PAGE'
p216
aS'ADRP reg, #aUseAnActualDev@PAGE'
p217
aS'ADD reg, reg, #aArchArm64MmDma@PAGEOFF'
p218
aS'MOV reg, #0xB6'
p219
aS'ADD reg, reg, #aUseAnActualDev@PAGEOFF'
p220
aS'BL warn_slowpath_fmt'
p221
aS'MOV reg, #1'
p222
aS'STRB reg, mem'
p223
aS'B func'
p224
asg79
Nsg5
S'0xffffffc000211950L'
p225
sg81
(lp226
S'0xffffffc00021193cL'
p227
asg6
Nsg83
(lp228
S'0xffffffc000211a5cL'
p229
asg87
Nsg88
Nsg89
S'f4cab00348da8fe7e9d52b6367e561ff'
p230
sg91
S'f152a79a312511fdba501242132b6b5a'
p231
sg93
(lp232
g157
ag164
ag171
ag178
ag185
ag192
ag199
ag206
ag213
asg95
Nsba(ibclass
BBasicBlock
p233
(dp234
g12
Nsg13
(lp235
(ibclass
BInstr
p236
(dp237
g2
Nsg17
S'TBNZ            W3, #4, loc_FFFFFFC0002119AC'
p238
sg19
S'c3012037'
p239
sg21
Vtbnz w3, #4, #0x38
p240
sg5
L18446743798833813876L
sg6
Nsg23
S'TBNZ'
p241
sg25
S'0xffffffc000211974L'
p242
sg27
Nsbasg70
(lp243
S'TBNZ reg, #4, func'
p244
asg79
Nsg5
S'0xffffffc000211974L'
p245
sg81
(lp246
S'0xffffffc000211920L'
p247
asg6
Nsg83
(lp248
S'0xffffffc000211978L'
p249
aS'0xffffffc0002119acL'
p250
asg87
Nsg88
Nsg89
S'1e87583633efc2ba1131acfd744a2ae7'
p251
sg91
S'55024863867a886f4560ff436037379e'
p252
sg93
(lp253
g241
asg95
Nsba(ibclass
BBasicBlock
p254
(dp255
g12
Nsg13
(lp256
(ibclass
BInstr
p257
(dp258
g2
Nsg17
S'MOV             X0, X1'
p259
sg19
S'e00301aa'
p260
sg21
Vmov x0, x1
p261
sg5
L18446743798833813880L
sg6
Nsg23
S'MOV'
p262
sg25
S'0xffffffc000211978L'
p263
sg27
Nsba(ibclass
BInstr
p264
(dp265
g2
Nsg17
S'ADD             X1, X29, #0x40'
p266
sg19
S'a1030191'
p267
sg21
Vadd x1, x29, #0x40
p268
sg5
L18446743798833813884L
sg6
Nsg23
S'ADD'
p269
sg25
S'0xffffffc00021197cL'
p270
sg27
Nsba(ibclass
BInstr
p271
(dp272
g2
Nsg17
S'STR             XZR, [X29,#arg_30]'
p273
sg19
S'bf2300f9'
p274
sg21
Vstr xzr, [x29, #0x40]
p275
sg5
L18446743798833813888L
sg6
Nsg23
S'STR'
p276
sg25
S'0xffffffc000211980L'
p277
sg27
Nsba(ibclass
BInstr
p278
(dp279
g2
Nsg17
S'BL              __alloc_from_pool'
p280
sg19
S'32fcff97'
p281
sg21
Vbl #0xfffffffffffff0c8
p282
sg5
L18446743798833813892L
sg6
Nsg23
S'BL'
p283
sg25
S'0xffffffc000211984L'
p284
sg27
Nsba(ibclass
BInstr
p285
(dp286
g2
Nsg17
S'CBZ             X0, loc_FFFFFFC0002119A4'
p287
sg19
S'e00000b4'
p288
sg21
Vcbz x0, #0x1c
p289
sg5
L18446743798833813896L
sg6
Nsg23
S'CBZ'
p290
sg25
S'0xffffffc000211988L'
p291
sg27
Nsbasg70
(lp292
S'MOV reg, reg'
p293
aS'ADD reg, reg9, #0x40'
p294
aS'STR XZR, mem'
p295
aS'BL __alfuncrom_pool'
p296
aS'CBZ reg, func'
p297
asg79
Nsg5
S'0xffffffc000211978L'
p298
sg81
(lp299
S'0xffffffc000211974L'
p300
asg6
Nsg83
(lp301
S'0xffffffc00021198cL'
p302
aS'0xffffffc0002119a4L'
p303
asg87
Nsg88
Nsg89
S'd5ee41daa33cc174b8bea716da1f678a'
p304
sg91
S'debc8972e06bb5a9ca248f40f622d212'
p305
sg93
(lp306
g262
ag269
ag276
ag283
ag290
asg95
Nsba(ibclass
BBasicBlock
p307
(dp308
g12
Nsg13
(lp309
(ibclass
BInstr
p310
(dp311
g2
Nsg17
S'LDR             X2, [X29,#arg_30]'
p312
sg19
S'a22340f9'
p313
sg21
Vldr x2, [x29, #0x40]
p314
sg5
L18446743798833813900L
sg6
Nsg23
S'LDR'
p315
sg25
S'0xffffffc00021198cL'
p316
sg27
Nsba(ibclass
BInstr
p317
(dp318
g2
Nsg17
S'MOV             X1, #0x4400000000'
p319
sg19
S'8108c0d2'
p320
sg21
Vmovz x1, #0x44, lsl #32
p321
sg5
L18446743798833813904L
sg6
Nsg23
S'MOV'
p322
sg25
S'0xffffffc000211990L'
p323
sg27
Nsba(ibclass
BInstr
p324
(dp325
g2
Nsg17
S'ADD             X1, X2, X1'
p326
sg19
S'4100018b'
p327
sg21
Vadd x1, x2, x1
p328
sg5
L18446743798833813908L
sg6
Nsg23
S'ADD'
p329
sg25
S'0xffffffc000211994L'
p330
sg27
Nsba(ibclass
BInstr
p331
(dp332
g2
Nsg17
S'SBFM            X1, X1, #6, #0x3F'
p333
sg19
S'21fc4693'
p334
sg21
Vasr x1, x1, #6
p335
sg5
L18446743798833813912L
sg6
Nsg23
S'SBFM'
p336
sg25
S'0xffffffc000211998L'
p337
sg27
Nsba(ibclass
BInstr
p338
(dp339
g2
Nsg17
S'UBFM            X1, X1, #0x34, #0x33'
p340
sg19
S'21cc74d3'
p341
sg21
Vlsl x1, x1, #0xc
p342
sg5
L18446743798833813916L
sg6
Nsg23
S'UBFM'
p343
sg25
S'0xffffffc00021199cL'
p344
sg27
Nsba(ibclass
BInstr
p345
(dp346
g2
Nsg17
S'STR             X1, [X22]'
p347
sg19
S'c10200f9'
p348
sg21
Vstr x1, [x22]
p349
sg5
L18446743798833813920L
sg6
Nsg23
S'STR'
p350
sg25
S'0xffffffc0002119a0L'
p351
sg27
Nsbasg70
(lp352
S'LDR reg, mem'
p353
aS'MOV reg, #address00000'
p354
aS'ADD reg, reg, reg'
p355
aS'SBFM reg, reg, #6, #0x3F'
p356
aS'UBFM reg, reg, #0x34, #0x33'
p357
aS'STR reg, mem'
p358
asg79
Nsg5
S'0xffffffc00021198cL'
p359
sg81
(lp360
S'0xffffffc000211978L'
p361
asg6
Nsg83
(lp362
S'0xffffffc0002119a4L'
p363
asg87
Nsg88
Nsg89
S'fe57d06fd17935ab33d792795f60f95c'
p364
sg91
S'd98f776c2be2ec4479e81198b56ece9a'
p365
sg93
(lp366
g315
ag322
ag329
ag336
ag343
ag350
asg95
Nsba(ibclass
BBasicBlock
p367
(dp368
g12
Nsg13
(lp369
(ibclass
BInstr
p370
(dp371
g2
Nsg17
S'MOV             X19, X0'
p372
sg19
S'f30300aa'
p373
sg21
Vmov x19, x0
p374
sg5
L18446743798833813924L
sg6
Nsg23
S'MOV'
p375
sg25
S'0xffffffc0002119a4L'
p376
sg27
Nsba(ibclass
BInstr
p377
(dp378
g2
Nsg17
S'B               loc_FFFFFFC000211A5C'
p379
sg19
S'2d000014'
p380
sg21
Vb #0xb4
p381
sg5
L18446743798833813928L
sg6
Nsg23
g213
sg25
S'0xffffffc0002119a8L'
p382
sg27
Nsbasg70
(lp383
S'MOV reg9, reg'
p384
aS'B func'
p385
asg79
Nsg5
S'0xffffffc0002119a4L'
p386
sg81
(lp387
S'0xffffffc000211978L'
p388
aS'0xffffffc00021198cL'
p389
asg6
Nsg83
(lp390
S'0xffffffc000211a5cL'
p391
asg87
Nsg88
Nsg89
S'b6c4e95ccfe77a95e4cf2019dd3d5574'
p392
sg91
S'1b743682713ad886e49754f9dd80e2a9'
p393
sg93
(lp394
g375
ag213
asg95
Nsba(ibclass
BBasicBlock
p395
(dp396
g12
Nsg13
(lp397
(ibclass
BInstr
p398
(dp399
g2
Nsg17
S'ADD             X21, X1, #0xFFF'
p400
sg19
S'35fc3f91'
p401
sg21
Vadd x21, x1, #0xfff
p402
sg5
L18446743798833813932L
sg6
Nsg23
S'ADD'
p403
sg25
S'0xffffffc0002119acL'
p404
sg27
Nsba(ibclass
BInstr
p405
(dp406
g2
Nsg17
S'AND             X21, X21, #0xFFFFFFFFFFFFF000'
p407
sg19
S'b5ce7492'
p408
sg21
Vand x21, x21, #0xfffffffffffff000
p409
sg5
L18446743798833813936L
sg6
Nsg23
S'AND'
p410
sg25
S'0xffffffc0002119b0L'
p411
sg27
Nsba(ibclass
BInstr
p412
(dp413
g2
Nsg17
S'SUB             X1, X21, #1'
p414
sg19
S'a10600d1'
p415
sg21
Vsub x1, x21, #1
p416
sg5
L18446743798833813940L
sg6
Nsg23
S'SUB'
p417
sg25
S'0xffffffc0002119b4L'
p418
sg27
Nsba(ibclass
BInstr
p419
(dp420
g2
Nsg17
S'UBFM            X1, X1, #0xC, #0x3F'
p421
sg19
S'21fc4cd3'
p422
sg21
Vlsr x1, x1, #0xc
p423
sg5
L18446743798833813944L
sg6
Nsg23
S'UBFM'
p424
sg25
S'0xffffffc0002119b8L'
p425
sg27
Nsba(ibclass
BInstr
p426
(dp427
g2
Nsg17
S'MOV             W2, #0'
p428
sg19
S'02008052'
p429
sg21
Vmovz w2, #0
p430
sg5
L18446743798833813948L
sg6
Nsg23
S'MOV'
p431
sg25
S'0xffffffc0002119bcL'
p432
sg27
Nsba(ibclass
BInstr
p433
(dp434
g2
Nsg17
S'CBZ             X1, loc_FFFFFFC0002119D4'
p435
sg19
S'a10000b4'
p436
sg21
Vcbz x1, #0x14
p437
sg5
L18446743798833813952L
sg6
Nsg23
S'CBZ'
p438
sg25
S'0xffffffc0002119c0L'
p439
sg27
Nsbasg70
(lp440
S'ADD reg1, reg, #0xFFF'
p441
aS'AND reg1, reg1, #0xFFFFFFFFFFFFF000'
p442
aS'SUB reg, reg1, #1'
p443
aS'UBFM reg, reg, #0xC, #0x3F'
p444
aS'MOV reg, #0'
p445
aS'CBZ reg, func'
p446
asg79
Nsg5
S'0xffffffc0002119acL'
p447
sg81
(lp448
S'0xffffffc000211974L'
p449
asg6
Nsg83
(lp450
S'0xffffffc0002119c4L'
p451
aS'0xffffffc0002119d4L'
p452
asg87
Nsg88
Nsg89
S'e0271825700bcbdfabd0ca52d4100e72'
p453
sg91
S'0ce7fb0a3a05d032f03e4b6249fd6d04'
p454
sg93
(lp455
g403
ag410
ag417
ag424
ag431
ag438
asg95
Nsba(ibclass
BBasicBlock
p456
(dp457
g12
Nsg13
(lp458
(ibclass
BInstr
p459
(dp460
g2
Nsg17
S'CLZ             X1, X1'
p461
sg19
S'2110c0da'
p462
sg21
Vclz x1, x1
p463
sg5
L18446743798833813956L
sg6
Nsg23
S'CLZ'
p464
sg25
S'0xffffffc0002119c4L'
p465
sg27
Nsba(ibclass
BInstr
p466
(dp467
g2
Nsg17
S'MOV             X2, #0x3F'
p468
sg19
S'e20780d2'
p469
sg21
Vmovz x2, #0x3f
p470
sg5
L18446743798833813960L
sg6
Nsg23
S'MOV'
p471
sg25
S'0xffffffc0002119c8L'
p472
sg27
Nsba(ibclass
BInstr
p473
(dp474
g2
Nsg17
S'SUB             X2, X2, X1'
p475
sg19
S'420001cb'
p476
sg21
Vsub x2, x2, x1
p477
sg5
L18446743798833813964L
sg6
Nsg23
S'SUB'
p478
sg25
S'0xffffffc0002119ccL'
p479
sg27
Nsba(ibclass
BInstr
p480
(dp481
g2
Nsg17
S'ADD             W2, W2, #1'
p482
sg19
S'42040011'
p483
sg21
Vadd w2, w2, #1
p484
sg5
L18446743798833813968L
sg6
Nsg23
S'ADD'
p485
sg25
S'0xffffffc0002119d0L'
p486
sg27
Nsbasg70
(lp487
S'CLZ reg, reg'
p488
aS'MOV reg, #0x3F'
p489
aS'SUB reg, reg, reg'
p490
aS'ADD reg, reg, #1'
p491
asg79
Nsg5
S'0xffffffc0002119c4L'
p492
sg81
(lp493
S'0xffffffc0002119acL'
p494
asg6
Nsg83
(lp495
S'0xffffffc0002119d4L'
p496
asg87
Nsg88
Nsg89
S'ae723e597241e59887353aaf9d7ab9a1'
p497
sg91
S'7991e00cf1ad3c935fae975d2d9c6920'
p498
sg93
(lp499
g464
ag471
ag478
ag485
asg95
Nsba(ibclass
BBasicBlock
p500
(dp501
g12
Nsg13
(lp502
(ibclass
BInstr
p503
(dp504
g2
Nsg17
S'UBFM            X1, X21, #0xC, #0x3F'
p505
sg19
S'a1fe4cd3'
p506
sg21
Vlsr x1, x21, #0xc
p507
sg5
L18446743798833813972L
sg6
Nsg23
S'UBFM'
p508
sg25
S'0xffffffc0002119d4L'
p509
sg27
Nsba(ibclass
BInstr
p510
(dp511
g2
Nsg17
S'STR             X4, [X29,#arg_40]'
p512
sg19
S'a42b00f9'
p513
sg21
Vstr x4, [x29, #0x50]
p514
sg5
L18446743798833813976L
sg6
Nsg23
S'STR'
p515
sg25
S'0xffffffc0002119d8L'
p516
sg27
Nsba(ibclass
BInstr
p517
(dp518
g2
Nsg17
S'BL              dma_alloc_from_contiguous'
p519
sg19
S'2d860e94'
p520
sg21
Vbl #0x3a18b4
p521
sg5
L18446743798833813980L
sg6
Nsg23
S'BL'
p522
sg25
S'0xffffffc0002119dcL'
p523
sg27
Nsba(ibclass
BInstr
p524
(dp525
g2
Nsg17
S'MOV             X20, X0'
p526
sg19
S'f40300aa'
p527
sg21
Vmov x20, x0
p528
sg5
L18446743798833813984L
sg6
Nsg23
S'MOV'
p529
sg25
S'0xffffffc0002119e0L'
p530
sg27
Nsba(ibclass
BInstr
p531
(dp532
g2
Nsg17
S'LDR             X4, [X29,#arg_40]'
p533
sg19
S'a42b40f9'
p534
sg21
Vldr x4, [x29, #0x50]
p535
sg5
L18446743798833813988L
sg6
Nsg23
S'LDR'
p536
sg25
S'0xffffffc0002119e4L'
p537
sg27
Nsba(ibclass
BInstr
p538
(dp539
g2
Nsg17
S'CBZ             X0, loc_FFFFFFC000211A58'
p540
sg19
S'800300b4'
p541
sg21
Vcbz x0, #0x70
p542
sg5
L18446743798833813992L
sg6
Nsg23
S'CBZ'
p543
sg25
S'0xffffffc0002119e8L'
p544
sg27
Nsbasg70
(lp545
S'UBFM reg, reg1, #0xC, #0x3F'
p546
aS'STR reg, mem'
p547
aS'BL dma_alfuncrom_contiguous'
p548
aS'MOV reg0, reg'
p549
aS'LDR reg, mem'
p550
aS'CBZ reg, func'
p551
asg79
Nsg5
S'0xffffffc0002119d4L'
p552
sg81
(lp553
S'0xffffffc0002119acL'
p554
aS'0xffffffc0002119c4L'
p555
asg6
Nsg83
(lp556
S'0xffffffc0002119ecL'
p557
aS'0xffffffc000211a58L'
p558
asg87
Nsg88
Nsg89
S'c5014a1c0b7a72b61a3cfcf0f70db182'
p559
sg91
S'4ff4c4c7ade252ba8a604d48b03c4dfb'
p560
sg93
(lp561
g508
ag515
ag522
ag529
ag536
ag543
asg95
Nsba(ibclass
BBasicBlock
p562
(dp563
g12
Nsg13
(lp564
(ibclass
BInstr
p565
(dp566
g2
Nsg17
S'MOV             X23, #0xFFBC00000000'
p567
sg19
S'97f7dfd2'
p568
sg21
Vmovz x23, #0xffbc, lsl #32
p569
sg5
L18446743798833813996L
sg6
Nsg23
S'MOV'
p570
sg25
S'0xffffffc0002119ecL'
p571
sg27
Nsba(ibclass
BInstr
p572
(dp573
g2
Nsg17
S'MOVK            X23, #0xFFFF,LSL#48'
p574
sg19
S'f7fffff2'
p575
sg21
Vmovk x23, #0xffff, lsl #48
p576
sg5
L18446743798833814000L
sg6
Nsg23
S'MOVK'
p577
sg25
S'0xffffffc0002119f0L'
p578
sg27
Nsba(ibclass
BInstr
p579
(dp580
g2
Nsg17
S'ADD             X23, X23, X0,LSL#6'
p581
sg19
S'f71a008b'
p582
sg21
Vadd x23, x23, x0, lsl #6
p583
sg5
L18446743798833814004L
sg6
Nsg23
S'ADD'
p584
sg25
S'0xffffffc0002119f4L'
p585
sg27
Nsba(ibclass
BInstr
p586
(dp587
g2
Nsg17
S'ADRP            X0, #qword_FFFFFFC000E442F8@PAGE'
p588
sg19
S'806100f0'
p589
sg21
Vadrp x0, #0xc33000
p590
sg5
L18446743798833814008L
sg6
Nsg23
S'ADRP'
p591
sg25
S'0xffffffc0002119f8L'
p592
sg27
Nsba(ibclass
BInstr
p593
(dp594
g2
Nsg17
S'LDR             X0, [X0,#qword_FFFFFFC000E442F8@PAGEOFF]'
p595
sg19
S'007c41f9'
p596
sg21
Vldr x0, [x0, #0x2f8]
p597
sg5
L18446743798833814012L
sg6
Nsg23
S'LDR'
p598
sg25
S'0xffffffc0002119fcL'
p599
sg27
Nsba(ibclass
BInstr
p600
(dp601
g2
Nsg17
S'MOV             X19, #0xFFFFFFC000000000'
p602
sg19
S'f3675ab2'
p603
sg21
Vorr x19, xzr, #0xffffffc000000000
p604
sg5
L18446743798833814016L
sg6
Nsg23
S'MOV'
p605
sg25
S'0xffffffc000211a00L'
p606
sg27
Nsba(ibclass
BInstr
p607
(dp608
g2
Nsg17
S'LDR             X0, [X0]'
p609
sg19
S'000040f9'
p610
sg21
Vldr x0, [x0]
p611
sg5
L18446743798833814020L
sg6
Nsg23
S'LDR'
p612
sg25
S'0xffffffc000211a04L'
p613
sg27
Nsba(ibclass
BInstr
p614
(dp615
g2
Nsg17
S'SUB             X0, X19, X0'
p616
sg19
S'600200cb'
p617
sg21
Vsub x0, x19, x0
p618
sg5
L18446743798833814024L
sg6
Nsg23
S'SUB'
p619
sg25
S'0xffffffc000211a08L'
p620
sg27
Nsba(ibclass
BInstr
p621
(dp622
g2
Nsg17
S'MOV             X19, #0x4400000000'
p623
sg19
S'9308c0d2'
p624
sg21
Vmovz x19, #0x44, lsl #32
p625
sg5
L18446743798833814028L
sg6
Nsg23
S'MOV'
p626
sg25
S'0xffffffc000211a0cL'
p627
sg27
Nsba(ibclass
BInstr
p628
(dp629
g2
Nsg17
S'ADD             X19, X23, X19'
p630
sg19
S'f302138b'
p631
sg21
Vadd x19, x23, x19
p632
sg5
L18446743798833814032L
sg6
Nsg23
S'ADD'
p633
sg25
S'0xffffffc000211a10L'
p634
sg27
Nsba(ibclass
BInstr
p635
(dp636
g2
Nsg17
S'ADD             X19, X0, X19,LSL#6'
p637
sg19
S'1318138b'
p638
sg21
Vadd x19, x0, x19, lsl #6
p639
sg5
L18446743798833814036L
sg6
Nsg23
S'ADD'
p640
sg25
S'0xffffffc000211a14L'
p641
sg27
Nsba(ibclass
BInstr
p642
(dp643
g2
Nsg17
S'CBZ             X4, loc_FFFFFFC000211A4C'
p644
sg19
S'a40100b4'
p645
sg21
Vcbz x4, #0x34
p646
sg5
L18446743798833814040L
sg6
Nsg23
S'CBZ'
p647
sg25
S'0xffffffc000211a18L'
p648
sg27
Nsbasg70
(lp649
S'MOV reg3, #0xFFBC00000000'
p650
aS'MOVK reg3, #0xFFFF,LSL#48'
p651
aS'ADD reg3, reg3, reg,LSL#6'
p652
aS'ADRP reg, #func@PAGE'
p653
aS'LDR reg, mem'
p654
aS'MOV reg9, #0xFFFFFFC000000000'
p655
aS'LDR reg, mem'
p656
aS'SUB reg, reg9, reg'
p657
aS'MOV reg9, #address00000'
p658
aS'ADD reg9, reg3, reg9'
p659
aS'ADD reg9, reg, reg9,LSL#6'
p660
aS'CBZ reg, func'
p661
asg79
Nsg5
S'0xffffffc0002119ecL'
p662
sg81
(lp663
S'0xffffffc0002119d4L'
p664
asg6
Nsg83
(lp665
S'0xffffffc000211a1cL'
p666
aS'0xffffffc000211a4cL'
p667
asg87
Nsg88
Nsg89
S'5afd81bb551e108786514e36049ff453'
p668
sg91
S'4a445e8f920d3c36381432d5c4ce9f05'
p669
sg93
(lp670
g570
ag577
ag584
ag591
ag598
ag605
ag612
ag619
ag626
ag633
ag640
ag647
asg95
Nsba(ibclass
BBasicBlock
p671
(dp672
g12
Nsg13
(lp673
(ibclass
BInstr
p674
(dp675
g2
Nsg17
S'LDR             X0, [X4]'
p676
sg19
S'800040f9'
p677
sg21
Vldr x0, [x4]
p678
sg5
L18446743798833814044L
sg6
Nsg23
S'LDR'
p679
sg25
S'0xffffffc000211a1cL'
p680
sg27
Nsba(ibclass
BInstr
p681
(dp682
g2
Nsg17
S'TBNZ            W0, #4, loc_FFFFFFC000211A2C'
p683
sg19
S'60002037'
p684
sg21
Vtbnz w0, #4, #0xc
p685
sg5
L18446743798833814048L
sg6
Nsg23
S'TBNZ'
p686
sg25
S'0xffffffc000211a20L'
p687
sg27
Nsbasg70
(lp688
S'LDR reg, mem'
p689
aS'TBNZ reg, #4, func'
p690
asg79
Nsg5
S'0xffffffc000211a1cL'
p691
sg81
(lp692
S'0xffffffc0002119ecL'
p693
asg6
Nsg83
(lp694
S'0xffffffc000211a24L'
p695
aS'0xffffffc000211a2cL'
p696
asg87
Nsg88
Nsg89
S'e940763c5833d7cc7e43691c473e7702'
p697
sg91
S'a0d036b487b0070b2c095cd8002cb06b'
p698
sg93
(lp699
g679
ag686
asg95
Nsba(ibclass
BBasicBlock
p700
(dp701
g12
Nsg13
(lp702
(ibclass
BInstr
p703
(dp704
g2
Nsg17
S'LDR             X0, [X4]'
p705
sg19
S'800040f9'
p706
sg21
Vldr x0, [x4]
p707
sg5
L18446743798833814052L
sg6
Nsg23
S'LDR'
p708
sg25
S'0xffffffc000211a24L'
p709
sg27
Nsba(ibclass
BInstr
p710
(dp711
g2
Nsg17
S'TBZ             W0, #7, loc_FFFFFFC000211A4C'
p712
sg19
S'20013836'
p713
sg21
Vtbz w0, #7, #0x24
p714
sg5
L18446743798833814056L
sg6
Nsg23
S'TBZ'
p715
sg25
S'0xffffffc000211a28L'
p716
sg27
Nsbasg70
(lp717
S'LDR reg, mem'
p718
aS'TBZ reg, #7, func'
p719
asg79
Nsg5
S'0xffffffc000211a24L'
p720
sg81
(lp721
S'0xffffffc000211a1cL'
p722
asg6
Nsg83
(lp723
S'0xffffffc000211a2cL'
p724
aS'0xffffffc000211a4cL'
p725
asg87
Nsg88
Nsg89
S'1cf4e33a651c04ed202c51992a2f5549'
p726
sg91
S'ab96f8b483761fed9868990e6e030aa0'
p727
sg93
(lp728
g708
ag715
asg95
Nsba(ibclass
BBasicBlock
p729
(dp730
g12
Nsg13
(lp731
(ibclass
BInstr
p732
(dp733
g2
Nsg17
S'MOV             X0, X19'
p734
sg19
S'e00313aa'
p735
sg21
Vmov x0, x19
p736
sg5
L18446743798833814060L
sg6
Nsg23
S'MOV'
p737
sg25
S'0xffffffc000211a2cL'
p738
sg27
Nsba(ibclass
BInstr
p739
(dp740
g2
Nsg17
S'ADD             X1, X19, X21'
p741
sg19
S'6102158b'
p742
sg21
Vadd x1, x19, x21
p743
sg5
L18446743798833814064L
sg6
Nsg23
S'ADD'
p744
sg25
S'0xffffffc000211a30L'
p745
sg27
Nsba(ibclass
BInstr
p746
(dp747
g2
Nsg17
S'BL              __dma_flush_range'
p748
sg19
S'e7060094'
p749
sg21
Vbl #0x1b9c
p750
sg5
L18446743798833814068L
sg6
Nsg23
S'BL'
p751
sg25
S'0xffffffc000211a34L'
p752
sg27
Nsba(ibclass
BInstr
p753
(dp754
g2
Nsg17
S'MOV             X0, X23'
p755
sg19
S'e00317aa'
p756
sg21
Vmov x0, x23
p757
sg5
L18446743798833814072L
sg6
Nsg23
S'MOV'
p758
sg25
S'0xffffffc000211a38L'
p759
sg27
Nsba(ibclass
BInstr
p760
(dp761
g2
Nsg17
S'MOV             X1, X21'
p762
sg19
S'e10315aa'
p763
sg21
Vmov x1, x21
p764
sg5
L18446743798833814076L
sg6
Nsg23
S'MOV'
p765
sg25
S'0xffffffc000211a3cL'
p766
sg27
Nsba(ibclass
BInstr
p767
(dp768
g2
Nsg17
S'MOV             X2, #0'
p769
sg19
S'020080d2'
p770
sg21
Vmovz x2, #0
p771
sg5
L18446743798833814080L
sg6
Nsg23
S'MOV'
p772
sg25
S'0xffffffc000211a40L'
p773
sg27
Nsba(ibclass
BInstr
p774
(dp775
g2
Nsg17
S'MOV             W3, #1'
p776
sg19
S'23008052'
p777
sg21
Vmovz w3, #0x1
p778
sg5
L18446743798833814084L
sg6
Nsg23
S'MOV'
p779
sg25
S'0xffffffc000211a44L'
p780
sg27
Nsba(ibclass
BInstr
p781
(dp782
g2
Nsg17
S'BL              __dma_remap'
p783
sg19
S'24ffff97'
p784
sg21
Vbl #0xfffffffffffffc90
p785
sg5
L18446743798833814088L
sg6
Nsg23
S'BL'
p786
sg25
S'0xffffffc000211a48L'
p787
sg27
Nsbasg70
(lp788
S'MOV reg, reg9'
p789
aS'ADD reg, reg9, reg1'
p790
aS'BL __dma_flush_range'
p791
aS'MOV reg, reg3'
p792
aS'MOV reg, reg1'
p793
aS'MOV reg, #0'
p794
aS'MOV reg, #1'
p795
aS'BL __dma_remap'
p796
asg79
Nsg5
S'0xffffffc000211a2cL'
p797
sg81
(lp798
S'0xffffffc000211a1cL'
p799
aS'0xffffffc000211a24L'
p800
asg6
Nsg83
(lp801
S'0xffffffc000211a4cL'
p802
asg87
Nsg88
Nsg89
S'6348bb9429339a130079e3306c861743'
p803
sg91
S'a287cb1936f2c7825e55e3feb1c8937e'
p804
sg93
(lp805
g737
ag744
ag751
ag758
ag765
ag772
ag779
ag786
asg95
Nsba(ibclass
BBasicBlock
p806
(dp807
g12
Nsg13
(lp808
(ibclass
BInstr
p809
(dp810
g2
Nsg17
S'UBFM            X20, X20, #0x34, #0x33'
p811
sg19
S'94ce74d3'
p812
sg21
Vlsl x20, x20, #0xc
p813
sg5
L18446743798833814092L
sg6
Nsg23
S'UBFM'
p814
sg25
S'0xffffffc000211a4cL'
p815
sg27
Nsba(ibclass
BInstr
p816
(dp817
g2
Nsg17
S'STR             X20, [X22]'
p818
sg19
S'd40200f9'
p819
sg21
Vstr x20, [x22]
p820
sg5
L18446743798833814096L
sg6
Nsg23
S'STR'
p821
sg25
S'0xffffffc000211a50L'
p822
sg27
Nsba(ibclass
BInstr
p823
(dp824
g2
Nsg17
S'B               loc_FFFFFFC000211A5C'
p825
sg19
S'02000014'
p826
sg21
Vb #8
p827
sg5
L18446743798833814100L
sg6
Nsg23
g213
sg25
S'0xffffffc000211a54L'
p828
sg27
Nsbasg70
(lp829
S'UBFM reg0, reg0, #0x34, #0x33'
p830
aS'STR reg0, mem'
p831
aS'B func'
p832
asg79
Nsg5
S'0xffffffc000211a4cL'
p833
sg81
(lp834
S'0xffffffc0002119ecL'
p835
aS'0xffffffc000211a24L'
p836
aS'0xffffffc000211a2cL'
p837
asg6
Nsg83
(lp838
S'0xffffffc000211a5cL'
p839
asg87
Nsg88
Nsg89
S'334c8748abd7235fc5d9cd6d635c1d48'
p840
sg91
S'd02e60a50c317864523a71e9fe7ccfd7'
p841
sg93
(lp842
g814
ag821
ag213
asg95
Nsba(ibclass
BBasicBlock
p843
(dp844
g12
Nsg13
(lp845
(ibclass
BInstr
p846
(dp847
g2
Nsg17
S'MOV             X19, X0'
p848
sg19
S'f30300aa'
p849
sg21
Vmov x19, x0
p850
sg5
L18446743798833814104L
sg6
Nsg23
S'MOV'
p851
sg25
S'0xffffffc000211a58L'
p852
sg27
Nsbasg70
(lp853
S'MOV reg9, reg'
p854
asg79
Nsg5
S'0xffffffc000211a58L'
p855
sg81
(lp856
S'0xffffffc0002119d4L'
p857
asg6
Nsg83
(lp858
S'0xffffffc000211a5cL'
p859
asg87
Nsg88
Nsg89
S'17b32100aef1fc19670be7fd58bc85df'
p860
sg91
S'4bfe38ee0651c8419e6b1b09b83641e3'
p861
sg93
(lp862
g851
asg95
Nsba(ibclass
BBasicBlock
p863
(dp864
g12
Nsg13
(lp865
(ibclass
BInstr
p866
(dp867
g2
Nsg17
S'MOV             X0, X19'
p868
sg19
S'e00313aa'
p869
sg21
Vmov x0, x19
p870
sg5
L18446743798833814108L
sg6
Nsg23
S'MOV'
p871
sg25
S'0xffffffc000211a5cL'
p872
sg27
Nsba(ibclass
BInstr
p873
(dp874
g2
Nsg17
S'LDP             X21, X22, [SP,#0x50+var_30]'
p875
sg19
S'f55b42a9'
p876
sg21
Vldp x21, x22, [sp, #0x20]
p877
sg5
L18446743798833814112L
sg6
Nsg23
S'LDP'
p878
sg25
S'0xffffffc000211a60L'
p879
sg27
Nsba(ibclass
BInstr
p880
(dp881
g2
Nsg17
S'LDP             X19, X20, [SP,#0x50+var_40]'
p882
sg19
S'f35341a9'
p883
sg21
Vldp x19, x20, [sp, #0x10]
p884
sg5
L18446743798833814116L
sg6
Nsg23
S'LDP'
p885
sg25
S'0xffffffc000211a64L'
p886
sg27
Nsba(ibclass
BInstr
p887
(dp888
g2
Nsg17
S'LDR             X23, [SP,#0x50+var_20]'
p889
sg19
S'f71b40f9'
p890
sg21
Vldr x23, [sp, #0x30]
p891
sg5
L18446743798833814120L
sg6
Nsg23
S'LDR'
p892
sg25
S'0xffffffc000211a68L'
p893
sg27
Nsba(ibclass
BInstr
p894
(dp895
g2
Nsg17
S'LDP             X29, X30, [SP+0x50+var_50],#0x60'
p896
sg19
S'fd7bc6a8'
p897
sg21
Vldp x29, x30, [sp], #0x60
p898
sg5
L18446743798833814124L
sg6
Nsg23
S'LDP'
p899
sg25
S'0xffffffc000211a6cL'
p900
sg27
Nsba(ibclass
BInstr
p901
(dp902
g2
Nsg17
S'RET'
p903
sg19
S'c0035fd6'
p904
sg21
Vret 
p905
sg5
L18446743798833814128L
sg6
Nsg23
S'RET'
p906
sg25
S'0xffffffc000211a70L'
p907
sg27
Nsbasg70
(lp908
S'MOV reg, reg9'
p909
aS'LDP reg1, reg2, mem'
p910
aS'LDP reg9, reg0, mem'
p911
aS'LDR reg3, mem'
p912
aS'LDP reg9, reg0, mem,#0x60'
p913
ag903
asg79
Nsg5
S'0xffffffc000211a5cL'
p914
sg81
(lp915
S'0xffffffc00021193cL'
p916
aS'0xffffffc000211950L'
p917
aS'0xffffffc0002119a4L'
p918
aS'0xffffffc000211a4cL'
p919
aS'0xffffffc000211a58L'
p920
asg6
Nsg83
(lp921
sg87
Nsg88
Nsg89
S'cfc037613e13b271d86b454fb9148531'
p922
sg91
S'3e946fbf0c8449bfea9917f9b8c75a8e'
p923
sg93
(lp924
g871
ag878
ag885
ag892
ag899
ag906
asg95
Nsbasb.