(ibclass
BFunc
p0
(dp1
S'hash'
p2
NsS'name'
p3
S'capable'
p4
sS'start_address'
p5
L18446743798833904612L
sS'flag'
p6
NsS'program'
p7
NsS'bbs'
p8
(lp9
(ibclass
BBasicBlock
p10
(dp11
S'function'
p12
NsS'binstrs'
p13
(lp14
(ibclass
BInstr
p15
(dp16
g2
NsS'disasm'
p17
S'STP             X29, X30, [SP,#-0x10+var_s0]!'
p18
sS'bytes'
p19
S'fd7bbfa9'
p20
sS'disasm_striped'
p21
Vstp x29, x30, [sp, #-0x10]!
p22
sg5
L18446743798833904612L
sg6
NsS'mnem'
p23
S'STP'
p24
sS'address'
p25
S'0xffffffc000227be4L'
p26
sS'basicblock'
p27
Nsba(ibclass
BInstr
p28
(dp29
g2
Nsg17
S'MOV             X29, SP'
p30
sg19
S'fd030091'
p31
sg21
Vmov x29, sp
p32
sg5
L18446743798833904616L
sg6
Nsg23
S'MOV'
p33
sg25
S'0xffffffc000227be8L'
p34
sg27
Nsba(ibclass
BInstr
p35
(dp36
g2
Nsg17
S'MOV             W1, W0'
p37
sg19
S'e103002a'
p38
sg21
Vmov w1, w0
p39
sg5
L18446743798833904620L
sg6
Nsg23
S'MOV'
p40
sg25
S'0xffffffc000227becL'
p41
sg27
Nsba(ibclass
BInstr
p42
(dp43
g2
Nsg17
S'ADRP            X0, #qword_FFFFFFC000E450F0@PAGE'
p44
sg19
S'e06000d0'
p45
sg21
Vadrp x0, #0xc1e000
p46
sg5
L18446743798833904624L
sg6
Nsg23
S'ADRP'
p47
sg25
S'0xffffffc000227bf0L'
p48
sg27
Nsba(ibclass
BInstr
p49
(dp50
g2
Nsg17
S'LDR             X0, [X0,#qword_FFFFFFC000E450F0@PAGEOFF]'
p51
sg19
S'007840f9'
p52
sg21
Vldr x0, [x0, #0xf0]
p53
sg5
L18446743798833904628L
sg6
Nsg23
S'LDR'
p54
sg25
S'0xffffffc000227bf4L'
p55
sg27
Nsba(ibclass
BInstr
p56
(dp57
g2
Nsg17
S'BL              ns_capable'
p58
sg19
S'c7ffff97'
p59
sg21
Vbl #0xffffffffffffff1c
p60
sg5
L18446743798833904632L
sg6
Nsg23
S'BL'
p61
sg25
S'0xffffffc000227bf8L'
p62
sg27
Nsba(ibclass
BInstr
p63
(dp64
g2
Nsg17
S'LDP             X29, X30, [SP+var_s0],#0x10'
p65
sg19
S'fd7bc1a8'
p66
sg21
Vldp x29, x30, [sp], #0x10
p67
sg5
L18446743798833904636L
sg6
Nsg23
S'LDP'
p68
sg25
S'0xffffffc000227bfcL'
p69
sg27
Nsba(ibclass
BInstr
p70
(dp71
g2
Nsg17
S'RET'
p72
sg19
S'c0035fd6'
p73
sg21
Vret 
p74
sg5
L18446743798833904640L
sg6
Nsg23
S'RET'
p75
sg25
S'0xffffffc000227c00L'
p76
sg27
NsbasS'disasm_list'
p77
(lp78
S'STP reg9, reg0, mem!'
p79
aS'MOV reg9, SP'
p80
aS'MOV reg, reg'
p81
aS'ADRP reg, #func@PAGE'
p82
aS'LDR reg, mem'
p83
aS'BL ns_capable'
p84
aS'LDP reg9, reg0, mem,#0x10'
p85
ag72
asS'end_address'
p86
Nsg5
S'0xffffffc000227be4L'
p87
sS'preds'
p88
(lp89
sg6
NsS'succs'
p90
(lp91
sS'hash_v3'
p92
NsS'flag_v2'
p93
NsS'hash_v1'
p94
S'fe1edd8521546ee7db52d3ce7e68eeca'
p95
sS'hash_v2'
p96
S'6e97b11e6f6a86932e8f7ea261df0554'
p97
sS'mnen_list'
p98
(lp99
g24
ag33
ag40
ag47
ag54
ag61
ag68
ag75
asS'neighbour_disasm_list'
p100
Nsbasb.