(ibclass
BFunc
p0
(dp1
S'hash'
p2
NsS'name'
p3
S'debug_write_phy_data'
p4
sS'start_address'
p5
L18446743798838737328L
sS'flag'
p6
NsS'program'
p7
NsS'bbs'
p8
(lp9
(ibclass
BBasicBlock
p10
(dp11
S'function'
p12
NsS'binstrs'
p13
(lp14
(ibclass
BInstr
p15
(dp16
g2
NsS'disasm'
p17
S'STP             X29, X30, [SP,#-0x10+var_30]!'
p18
sS'bytes'
p19
S'fd7bbca9'
p20
sS'disasm_striped'
p21
Vstp x29, x30, [sp, #-0x40]!
p22
sg5
L18446743798838737328L
sg6
NsS'mnem'
p23
S'STP'
p24
sS'address'
p25
S'0xffffffc0006c39b0L'
p26
sS'basicblock'
p27
Nsba(ibclass
BInstr
p28
(dp29
g2
Nsg17
S'MOV             X29, SP'
p30
sg19
S'fd030091'
p31
sg21
Vmov x29, sp
p32
sg5
L18446743798838737332L
sg6
Nsg23
S'MOV'
p33
sg25
S'0xffffffc0006c39b4L'
p34
sg27
Nsba(ibclass
BInstr
p35
(dp36
g2
Nsg17
S'STP             X19, X20, [SP,#0x30+var_20]'
p37
sg19
S'f35301a9'
p38
sg21
Vstp x19, x20, [sp, #0x10]
p39
sg5
L18446743798838737336L
sg6
Nsg23
S'STP'
p40
sg25
S'0xffffffc0006c39b8L'
p41
sg27
Nsba(ibclass
BInstr
p42
(dp43
g2
Nsg17
S'CMP             X2, #9'
p44
sg19
S'5f2400f1'
p45
sg21
Vcmp x2, #9
p46
sg5
L18446743798838737340L
sg6
Nsg23
S'CMP'
p47
sg25
S'0xffffffc0006c39bcL'
p48
sg27
Nsba(ibclass
BInstr
p49
(dp50
g2
Nsg17
S'MOV             X19, #9'
p51
sg19
S'330180d2'
p52
sg21
Vmovz x19, #0x9
p53
sg5
L18446743798838737344L
sg6
Nsg23
S'MOV'
p54
sg25
S'0xffffffc0006c39c0L'
p55
sg27
Nsba(ibclass
BInstr
p56
(dp57
g2
Nsg17
S'STR             X21, [SP,#0x30+var_10]'
p58
sg19
S'f51300f9'
p59
sg21
Vstr x21, [sp, #0x20]
p60
sg5
L18446743798838737348L
sg6
Nsg23
S'STR'
p61
sg25
S'0xffffffc0006c39c4L'
p62
sg27
Nsba(ibclass
BInstr
p63
(dp64
g2
Nsg17
S'CSEL            X19, X2, X19, LS'
p65
sg19
S'5390939a'
p66
sg21
Vcsel x19, x2, x19, ls
p67
sg5
L18446743798838737352L
sg6
Nsg23
S'CSEL'
p68
sg25
S'0xffffffc0006c39c8L'
p69
sg27
Nsba(ibclass
BInstr
p70
(dp71
g2
Nsg17
S'MOV             X21, X2'
p72
sg19
S'f50302aa'
p73
sg21
Vmov x21, x2
p74
sg5
L18446743798838737356L
sg6
Nsg23
S'MOV'
p75
sg25
S'0xffffffc0006c39ccL'
p76
sg27
Nsba(ibclass
BInstr
p77
(dp78
g2
Nsg17
S'MOV             X2, SP'
p79
sg19
S'e2030091'
p80
sg21
Vmov x2, sp
p81
sg5
L18446743798838737360L
sg6
Nsg23
S'MOV'
p82
sg25
S'0xffffffc0006c39d0L'
p83
sg27
Nsba(ibclass
BInstr
p84
(dp85
g2
Nsg17
S'LDR             X20, [X0,#0xA8]'
p86
sg19
S'145440f9'
p87
sg21
Vldr x20, [x0, #0xa8]
p88
sg5
L18446743798838737364L
sg6
Nsg23
S'LDR'
p89
sg25
S'0xffffffc0006c39d4L'
p90
sg27
Nsba(ibclass
BInstr
p91
(dp92
g2
Nsg17
S'STR             XZR, [X29,#0x30+var_s0]'
p93
sg19
S'bf1b00f9'
p94
sg21
Vstr xzr, [x29, #0x30]
p95
sg5
L18446743798838737368L
sg6
Nsg23
S'STR'
p96
sg25
S'0xffffffc0006c39d8L'
p97
sg27
Nsba(ibclass
BInstr
p98
(dp99
g2
Nsg17
S'AND             X0, X2, #0xFFFFFFFFFFFFC000'
p100
sg19
S'40c47292'
p101
sg21
Vand x0, x2, #0xffffffffffffc000
p102
sg5
L18446743798838737372L
sg6
Nsg23
S'AND'
p103
sg25
S'0xffffffc0006c39dcL'
p104
sg27
Nsba(ibclass
BInstr
p105
(dp106
g2
Nsg17
S'STRH            WZR, [X29,#0x30+var_s8]'
p107
sg19
S'bf730079'
p108
sg21
Vstrh wzr, [x29, #0x38]
p109
sg5
L18446743798838737376L
sg6
Nsg23
S'STR'
p110
sg25
S'0xffffffc0006c39e0L'
p111
sg27
Nsba(ibclass
BInstr
p112
(dp113
g2
Nsg17
S'STR             WZR, [X29,#0x30+var_sC]'
p114
sg19
S'bf3f00b9'
p115
sg21
Vstr wzr, [x29, #0x3c]
p116
sg5
L18446743798838737380L
sg6
Nsg23
S'STR'
p117
sg25
S'0xffffffc0006c39e4L'
p118
sg27
Nsba(ibclass
BInstr
p119
(dp120
g2
Nsg17
S'LDR             X3, [X0,#8]'
p121
sg19
S'030440f9'
p122
sg21
Vldr x3, [x0, #8]
p123
sg5
L18446743798838737384L
sg6
Nsg23
S'LDR'
p124
sg25
S'0xffffffc0006c39e8L'
p125
sg27
Nsba(ibclass
BInstr
p126
(dp127
g2
Nsg17
S'MOV             X0, X1'
p128
sg19
S'e00301aa'
p129
sg21
Vmov x0, x1
p130
sg5
L18446743798838737388L
sg6
Nsg23
S'MOV'
p131
sg25
S'0xffffffc0006c39ecL'
p132
sg27
Nsba(ibclass
BInstr
p133
(dp134
g2
Nsg17
S'ADDS            X0, X0, X19'
p135
sg19
S'000013ab'
p136
sg21
Vadds x0, x0, x19
p137
sg5
L18446743798838737392L
sg6
Nsg23
S'ADD'
p138
sg25
S'0xffffffc0006c39f0L'
p139
sg27
Nsba(ibclass
BInstr
p140
(dp141
g2
Nsg17
S'CCMP            X0, X3, #2, CC'
p142
sg19
S'023043fa'
p143
sg21
Vccmp x0, x3, #2, lo
p144
sg5
L18446743798838737396L
sg6
Nsg23
S'CCMP'
p145
sg25
S'0xffffffc0006c39f4L'
p146
sg27
Nsba(ibclass
BInstr
p147
(dp148
g2
Nsg17
S'CSET            X2, LS'
p149
sg19
S'e2879f9a'
p150
sg21
Vcset x2, ls
p151
sg5
L18446743798838737400L
sg6
Nsg23
S'CSET'
p152
sg25
S'0xffffffc0006c39f8L'
p153
sg27
Nsba(ibclass
BInstr
p154
(dp155
g2
Nsg17
S'ADD             X0, X29, #0x30'
p156
sg19
S'a0c30091'
p157
sg21
Vadd x0, x29, #0x30
p158
sg5
L18446743798838737404L
sg6
Nsg23
S'ADD'
p159
sg25
S'0xffffffc0006c39fcL'
p160
sg27
Nsba(ibclass
BInstr
p161
(dp162
g2
Nsg17
S'CBZ             X2, loc_FFFFFFC0006C3A14'
p163
sg19
S'a20000b4'
p164
sg21
Vcbz x2, #0x14
p165
sg5
L18446743798838737408L
sg6
Nsg23
S'CBZ'
p166
sg25
S'0xffffffc0006c3a00L'
p167
sg27
NsbasS'disasm_list'
p168
(lp169
S'STP reg9, reg0, mem!'
p170
aS'MOV reg9, SP'
p171
aS'STP reg9, reg0, mem'
p172
aS'CMP reg, #9'
p173
aS'MOV reg9, #9'
p174
aS'STR reg1, mem'
p175
aS'CSEL reg9, reg, reg9, LS'
p176
aS'MOV reg1, reg'
p177
aS'MOV reg, SP'
p178
aS'LDR reg0, mem'
p179
aS'STR XZR, mem'
p180
aS'AND reg, reg, #0xFFFFFFFFFFFFC000'
p181
aS'STRH WZR, mem'
p182
aS'STR WZR, mem'
p183
aS'LDR reg, mem'
p184
aS'MOV reg, reg'
p185
aS'ADDS reg, reg, reg9'
p186
aS'CCMP reg, reg, #2, CC'
p187
aS'CSET reg, LS'
p188
aS'ADD reg, reg9, #0x30'
p189
aS'CBZ reg, func'
p190
asS'end_address'
p191
Nsg5
S'0xffffffc0006c39b0L'
p192
sS'preds'
p193
(lp194
sg6
NsS'succs'
p195
(lp196
S'0xffffffc0006c3a04L'
p197
aS'0xffffffc0006c3a14L'
p198
asS'hash_v3'
p199
NsS'flag_v2'
p200
NsS'hash_v1'
p201
S'1e61ebcf80278fcce91572b7ed47d9a8'
p202
sS'hash_v2'
p203
S'8bd58fffe01f53c40e23427026180057'
p204
sS'mnen_list'
p205
(lp206
g24
ag33
ag40
ag47
ag54
ag61
ag68
ag75
ag82
ag89
ag96
ag103
ag110
ag117
ag124
ag131
ag138
ag145
ag152
ag159
ag166
asS'neighbour_disasm_list'
p207
Nsba(ibclass
BBasicBlock
p208
(dp209
g12
Nsg13
(lp210
(ibclass
BInstr
p211
(dp212
g2
Nsg17
S'MOV             X2, X19'
p213
sg19
S'e20313aa'
p214
sg21
Vmov x2, x19
p215
sg5
L18446743798838737412L
sg6
Nsg23
S'MOV'
p216
sg25
S'0xffffffc0006c3a04L'
p217
sg27
Nsba(ibclass
BInstr
p218
(dp219
g2
Nsg17
S'BL              __copy_from_user'
p220
sg19
S'3271f597'
p221
sg21
Vbl #0xffffffffffd5c4c8
p222
sg5
L18446743798838737416L
sg6
Nsg23
S'BL'
p223
sg25
S'0xffffffc0006c3a08L'
p224
sg27
Nsba(ibclass
BInstr
p225
(dp226
g2
Nsg17
S'MOV             X19, X0'
p227
sg19
S'f30300aa'
p228
sg21
Vmov x19, x0
p229
sg5
L18446743798838737420L
sg6
Nsg23
S'MOV'
p230
sg25
S'0xffffffc0006c3a0cL'
p231
sg27
Nsba(ibclass
BInstr
p232
(dp233
g2
Nsg17
S'B               loc_FFFFFFC0006C3A20'
p234
sg19
S'04000014'
p235
sg21
Vb #0x10
p236
sg5
L18446743798838737424L
sg6
Nsg23
S'B'
p237
sg25
S'0xffffffc0006c3a10L'
p238
sg27
Nsbasg168
(lp239
S'MOV reg, reg9'
p240
aS'BL __copy_from_user'
p241
aS'MOV reg9, reg'
p242
aS'B func'
p243
asg191
Nsg5
S'0xffffffc0006c3a04L'
p244
sg193
(lp245
S'0xffffffc0006c39b0L'
p246
asg6
Nsg195
(lp247
S'0xffffffc0006c3a20L'
p248
asg199
Nsg200
Nsg201
S'cd23e0eb2129bcc2960febbe800808ae'
p249
sg203
S'b32d3a0b358030d2ddb1cff6605c1e41'
p250
sg205
(lp251
g216
ag223
ag230
ag237
asg207
Nsba(ibclass
BBasicBlock
p252
(dp253
g12
Nsg13
(lp254
(ibclass
BInstr
p255
(dp256
g2
Nsg17
S'MOV             W1, W2'
p257
sg19
S'e103022a'
p258
sg21
Vmov w1, w2
p259
sg5
L18446743798838737428L
sg6
Nsg23
S'MOV'
p260
sg25
S'0xffffffc0006c3a14L'
p261
sg27
Nsba(ibclass
BInstr
p262
(dp263
g2
Nsg17
S'MOV             X2, X19'
p264
sg19
S'e20313aa'
p265
sg21
Vmov x2, x19
p266
sg5
L18446743798838737432L
sg6
Nsg23
S'MOV'
p267
sg25
S'0xffffffc0006c3a18L'
p268
sg27
Nsba(ibclass
BInstr
p269
(dp270
g2
Nsg17
S'BL              memset'
p271
sg19
S'f972f597'
p272
sg21
Vbl #0xffffffffffd5cbe4
p273
sg5
L18446743798838737436L
sg6
Nsg23
S'BL'
p274
sg25
S'0xffffffc0006c3a1cL'
p275
sg27
Nsbasg168
(lp276
S'MOV reg, reg'
p277
aS'MOV reg, reg9'
p278
aS'BL memset'
p279
asg191
Nsg5
S'0xffffffc0006c3a14L'
p280
sg193
(lp281
S'0xffffffc0006c39b0L'
p282
asg6
Nsg195
(lp283
S'0xffffffc0006c3a20L'
p284
asg199
Nsg200
Nsg201
S'd0b32617f7e4cfc169d92597b8aefd43'
p285
sg203
S'c302d8625016f3ab8192a754c2ee9161'
p286
sg205
(lp287
g260
ag267
ag274
asg207
Nsba(ibclass
BBasicBlock
p288
(dp289
g12
Nsg13
(lp290
(ibclass
BInstr
p291
(dp292
g2
Nsg17
S'CBNZ            X19, loc_FFFFFFC0006C3A9C'
p293
sg19
S'f30300b5'
p294
sg21
Vcbnz x19, #0x7c
p295
sg5
L18446743798838737440L
sg6
Nsg23
S'CBNZ'
p296
sg25
S'0xffffffc0006c3a20L'
p297
sg27
Nsbasg168
(lp298
S'CBNZ reg9, func'
p299
asg191
Nsg5
S'0xffffffc0006c3a20L'
p300
sg193
(lp301
S'0xffffffc0006c3a04L'
p302
aS'0xffffffc0006c3a14L'
p303
asg6
Nsg195
(lp304
S'0xffffffc0006c3a24L'
p305
aS'0xffffffc0006c3a9cL'
p306
asg199
Nsg200
Nsg201
S'482b7d814ad85789cad59d80ecb8562a'
p307
sg203
S'dff4e8ccf28b27112458638fe68a8d09'
p308
sg205
(lp309
g296
asg207
Nsba(ibclass
BBasicBlock
p310
(dp311
g12
Nsg13
(lp312
(ibclass
BInstr
p313
(dp314
g2
Nsg17
S'ADRP            X1, #(a02x02x04x04xX+0x12)@PAGE; "%x"'
p315
sg19
S'816200f0'
p316
sg21
Vadrp x1, #0xc53000
p317
sg5
L18446743798838737444L
sg6
Nsg23
S'ADRP'
p318
sg25
S'0xffffffc0006c3a24L'
p319
sg27
Nsba(ibclass
BInstr
p320
(dp321
g2
Nsg17
S'ADD             X0, X29, #0x30'
p322
sg19
S'a0c30091'
p323
sg21
Vadd x0, x29, #0x30
p324
sg5
L18446743798838737448L
sg6
Nsg23
S'ADD'
p325
sg25
S'0xffffffc0006c3a28L'
p326
sg27
Nsba(ibclass
BInstr
p327
(dp328
g2
Nsg17
S'ADD             X1, X1, #(a02x02x04x04xX+0x12)@PAGEOFF; "%x"'
p329
sg19
S'21702c91'
p330
sg21
Vadd x1, x1, #0xb1c
p331
sg5
L18446743798838737452L
sg6
Nsg23
S'ADD'
p332
sg25
S'0xffffffc0006c3a2cL'
p333
sg27
Nsba(ibclass
BInstr
p334
(dp335
g2
Nsg17
S'ADD             X2, X29, #0x3C'
p336
sg19
S'a2f30091'
p337
sg21
Vadd x2, x29, #0x3c
p338
sg5
L18446743798838737456L
sg6
Nsg23
S'ADD'
p339
sg25
S'0xffffffc0006c3a30L'
p340
sg27
Nsba(ibclass
BInstr
p341
(dp342
g2
Nsg17
S'BL              sscanf'
p343
sg19
S'21a2f597'
p344
sg21
Vbl #0xffffffffffd68884
p345
sg5
L18446743798838737460L
sg6
Nsg23
S'BL'
p346
sg25
S'0xffffffc0006c3a34L'
p347
sg27
Nsba(ibclass
BInstr
p348
(dp349
g2
Nsg17
S'CMP             W0, #1'
p350
sg19
S'1f040071'
p351
sg21
Vcmp w0, #1
p352
sg5
L18446743798838737464L
sg6
Nsg23
S'CMP'
p353
sg25
S'0xffffffc0006c3a38L'
p354
sg27
Nsba(ibclass
BInstr
p355
(dp356
g2
Nsg17
S'B.NE            loc_FFFFFFC0006C3AA4'
p357
sg19
S'41030054'
p358
sg21
Vb.ne #0x68
p359
sg5
L18446743798838737468L
sg6
Nsg23
g237
sg25
S'0xffffffc0006c3a3cL'
p360
sg27
Nsbasg168
(lp361
S'ADRP reg, #(a02x02x04x04xX+0x12)@PAGE'
p362
aS'ADD reg, reg9, #0x30'
p363
aS'ADD reg, reg, #(a02x02x04x04xX+0x12)@PAGEOFF'
p364
aS'ADD reg, reg9, #0x3C'
p365
aS'BL sscanf'
p366
aS'CMP reg, #1'
p367
aS'B.NE func'
p368
asg191
Nsg5
S'0xffffffc0006c3a24L'
p369
sg193
(lp370
S'0xffffffc0006c3a20L'
p371
asg6
Nsg195
(lp372
S'0xffffffc0006c3a40L'
p373
aS'0xffffffc0006c3aa4L'
p374
asg199
Nsg200
Nsg201
S'be755508fdb57635731c4e75834663ba'
p375
sg203
S'514decd7c2931ac906a80325089cdf1f'
p376
sg205
(lp377
g318
ag325
ag332
ag339
ag346
ag353
ag237
asg207
Nsba(ibclass
BBasicBlock
p378
(dp379
g12
Nsg13
(lp380
(ibclass
BInstr
p381
(dp382
g2
Nsg17
S'LDR             X0, [X20,#0x2D8]'
p383
sg19
S'806e41f9'
p384
sg21
Vldr x0, [x20, #0x2d8]
p385
sg5
L18446743798838737472L
sg6
Nsg23
S'LDR'
p386
sg25
S'0xffffffc0006c3a40L'
p387
sg27
Nsba(ibclass
BInstr
p388
(dp389
g2
Nsg17
S'MOV             W1, #5'
p390
sg19
S'a1008052'
p391
sg21
Vmovz w1, #0x5
p392
sg5
L18446743798838737476L
sg6
Nsg23
S'MOV'
p393
sg25
S'0xffffffc0006c3a44L'
p394
sg27
Nsba(ibclass
BInstr
p395
(dp396
g2
Nsg17
S'BL              __pm_runtime_resume'
p397
sg19
S'fbd8fb97'
p398
sg21
Vbl #0xffffffffffef63ec
p399
sg5
L18446743798838737480L
sg6
Nsg23
S'BL'
p400
sg25
S'0xffffffc0006c3a48L'
p401
sg27
Nsba(ibclass
BInstr
p402
(dp403
g2
Nsg17
S'ADRP            X2, #addr@PAGE'
p404
sg19
S'62b30090'
p405
sg21
Vadrp x2, #0x166c000
p406
sg5
L18446743798838737484L
sg6
Nsg23
S'ADRP'
p407
sg25
S'0xffffffc0006c3a4cL'
p408
sg27
Nsba(ibclass
BInstr
p409
(dp410
g2
Nsg17
S'ADD             X2, X2, #addr@PAGEOFF'
p411
sg19
S'42401691'
p412
sg21
Vadd x2, x2, #0x590
p413
sg5
L18446743798838737488L
sg6
Nsg23
S'ADD'
p414
sg25
S'0xffffffc0006c3a50L'
p415
sg27
Nsba(ibclass
BInstr
p416
(dp417
g2
Nsg17
S'LDR             W1, [X29,#arg_2C]'
p418
sg19
S'a13f40b9'
p419
sg21
Vldr w1, [x29, #0x3c]
p420
sg5
L18446743798838737492L
sg6
Nsg23
S'LDR'
p421
sg25
S'0xffffffc0006c3a54L'
p422
sg27
Nsba(ibclass
BInstr
p423
(dp424
g2
Nsg17
S'LDR             W2, [X2]'
p425
sg19
S'420040b9'
p426
sg21
Vldr w2, [x2]
p427
sg5
L18446743798838737496L
sg6
Nsg23
S'LDR'
p428
sg25
S'0xffffffc0006c3a58L'
p429
sg27
Nsba(ibclass
BInstr
p430
(dp431
g2
Nsg17
S'MOV             X0, X20'
p432
sg19
S'e00314aa'
p433
sg21
Vmov x0, x20
p434
sg5
L18446743798838737500L
sg6
Nsg23
S'MOV'
p435
sg25
S'0xffffffc0006c3a5cL'
p436
sg27
Nsba(ibclass
BInstr
p437
(dp438
g2
Nsg17
S'BL              msm_ulpi_write'
p439
sg19
S'f7feff97'
p440
sg21
Vbl #0xfffffffffffffbdc
p441
sg5
L18446743798838737504L
sg6
Nsg23
S'BL'
p442
sg25
S'0xffffffc0006c3a60L'
p443
sg27
Nsba(ibclass
BInstr
p444
(dp445
g2
Nsg17
S'TBZ             W0, #0x1F, loc_FFFFFFC0006C3A88'
p446
sg19
S'2001f836'
p447
sg21
Vtbz w0, #0x1f, #0x24
p448
sg5
L18446743798838737508L
sg6
Nsg23
S'TBZ'
p449
sg25
S'0xffffffc0006c3a64L'
p450
sg27
Nsbasg168
(lp451
S'LDR reg, mem'
p452
aS'MOV reg, #5'
p453
aS'BL __pm_runtime_resume'
p454
aS'ADRP reg, #addr@PAGE'
p455
aS'ADD reg, reg, #addr@PAGEOFF'
p456
aS'LDR reg, mem'
p457
aS'LDR reg, mem'
p458
aS'MOV reg, reg0'
p459
aS'BL msm_ulpi_write'
p460
aS'TBZ reg, #0x1F, func'
p461
asg191
Nsg5
S'0xffffffc0006c3a40L'
p462
sg193
(lp463
S'0xffffffc0006c3a24L'
p464
asg6
Nsg195
(lp465
S'0xffffffc0006c3a68L'
p466
aS'0xffffffc0006c3a88L'
p467
asg199
Nsg200
Nsg201
S'b8d5e7b4c98dfd3035f2141f7672a21e'
p468
sg203
S'ef50e1252a7db5a00b2ef3f5e45d2381'
p469
sg205
(lp470
g386
ag393
ag400
ag407
ag414
ag421
ag428
ag435
ag442
ag449
asg207
Nsba(ibclass
BBasicBlock
p471
(dp472
g12
Nsg13
(lp473
(ibclass
BInstr
p474
(dp475
g2
Nsg17
S'LDR             X0, [X20,#0x2D8]'
p476
sg19
S'806e41f9'
p477
sg21
Vldr x0, [x20, #0x2d8]
p478
sg5
L18446743798838737512L
sg6
Nsg23
S'LDR'
p479
sg25
S'0xffffffc0006c3a68L'
p480
sg27
Nsba(ibclass
BInstr
p481
(dp482
g2
Nsg17
S'ADRP            X1, #aSUlpiWriteTime@PAGE; "%s(): ulpi write timeout\\n"'
p483
sg19
S'616600d0'
p484
sg21
Vadrp x1, #0xcce000
p485
sg5
L18446743798838737516L
sg6
Nsg23
S'ADRP'
p486
sg25
S'0xffffffc0006c3a6cL'
p487
sg27
Nsba(ibclass
BInstr
p488
(dp489
g2
Nsg17
S'ADRP            X2, #__func__.27808@PAGE; "debug_write_phy_data"'
p490
sg19
S'e24b0090'
p491
sg21
Vadrp x2, #0x97c000
p492
sg5
L18446743798838737520L
sg6
Nsg23
S'ADRP'
p493
sg25
S'0xffffffc0006c3a70L'
p494
sg27
Nsba(ibclass
BInstr
p495
(dp496
g2
Nsg17
S'ADD             X1, X1, #aSUlpiWriteTime@PAGEOFF; "%s(): ulpi write timeout\\n"'
p497
sg19
S'21e43e91'
p498
sg21
Vadd x1, x1, #0xfb9
p499
sg5
L18446743798838737524L
sg6
Nsg23
S'ADD'
p500
sg25
S'0xffffffc0006c3a74L'
p501
sg27
Nsba(ibclass
BInstr
p502
(dp503
g2
Nsg17
S'ADD             X2, X2, #__func__.27808@PAGEOFF; "debug_write_phy_data"'
p504
sg19
S'42602a91'
p505
sg21
Vadd x2, x2, #0xa98
p506
sg5
L18446743798838737528L
sg6
Nsg23
S'ADD'
p507
sg25
S'0xffffffc0006c3a78L'
p508
sg27
Nsba(ibclass
BInstr
p509
(dp510
g2
Nsg17
S'BL              dev_err'
p511
sg19
S'0ba5fb97'
p512
sg21
Vbl #0xffffffffffee942c
p513
sg5
L18446743798838737532L
sg6
Nsg23
S'BL'
p514
sg25
S'0xffffffc0006c3a7cL'
p515
sg27
Nsba(ibclass
BInstr
p516
(dp517
g2
Nsg17
S'MOV             X0, #0xFFFFFFFFFFFFFF92'
p518
sg19
S'a00d8092'
p519
sg21
Vmovn x0, #0x6d
p520
sg5
L18446743798838737536L
sg6
Nsg23
S'MOV'
p521
sg25
S'0xffffffc0006c3a80L'
p522
sg27
Nsba(ibclass
BInstr
p523
(dp524
g2
Nsg17
S'B               loc_FFFFFFC0006C3AA8'
p525
sg19
S'09000014'
p526
sg21
Vb #0x24
p527
sg5
L18446743798838737540L
sg6
Nsg23
g237
sg25
S'0xffffffc0006c3a84L'
p528
sg27
Nsbasg168
(lp529
S'LDR reg, mem'
p530
aS'ADRP reg, #aSUlpiWriteTime@PAGE'
p531
aS'ADRP reg, #__func__.27808@PAGE'
p532
aS'ADD reg, reg, #aSUlpiWriteTime@PAGEOFF'
p533
aS'ADD reg, reg, #__func__.27808@PAGEOFF'
p534
aS'BL dev_err'
p535
aS'MOV reg, #0xFFFFFFFFFFFFFF92'
p536
aS'B func'
p537
asg191
Nsg5
S'0xffffffc0006c3a68L'
p538
sg193
(lp539
S'0xffffffc0006c3a40L'
p540
asg6
Nsg195
(lp541
S'0xffffffc0006c3aa8L'
p542
asg199
Nsg200
Nsg201
S'6478fb650b09376d4a48cdc1679da897'
p543
sg203
S'5ac2928f523b4c10fc81e2461bb7379a'
p544
sg205
(lp545
g479
ag486
ag493
ag500
ag507
ag514
ag521
ag237
asg207
Nsba(ibclass
BBasicBlock
p546
(dp547
g12
Nsg13
(lp548
(ibclass
BInstr
p549
(dp550
g2
Nsg17
S'LDR             X0, [X20,#0x2D8]'
p551
sg19
S'806e41f9'
p552
sg21
Vldr x0, [x20, #0x2d8]
p553
sg5
L18446743798838737544L
sg6
Nsg23
S'LDR'
p554
sg25
S'0xffffffc0006c3a88L'
p555
sg27
Nsba(ibclass
BInstr
p556
(dp557
g2
Nsg17
S'MOV             W1, #5'
p558
sg19
S'a1008052'
p559
sg21
Vmovz w1, #0x5
p560
sg5
L18446743798838737548L
sg6
Nsg23
S'MOV'
p561
sg25
S'0xffffffc0006c3a8cL'
p562
sg27
Nsba(ibclass
BInstr
p563
(dp564
g2
Nsg17
S'BL              __pm_runtime_idle'
p565
sg19
S'2dd5fb97'
p566
sg21
Vbl #0xffffffffffef54b4
p567
sg5
L18446743798838737552L
sg6
Nsg23
S'BL'
p568
sg25
S'0xffffffc0006c3a90L'
p569
sg27
Nsba(ibclass
BInstr
p570
(dp571
g2
Nsg17
S'MOV             X0, X21'
p572
sg19
S'e00315aa'
p573
sg21
Vmov x0, x21
p574
sg5
L18446743798838737556L
sg6
Nsg23
S'MOV'
p575
sg25
S'0xffffffc0006c3a94L'
p576
sg27
Nsba(ibclass
BInstr
p577
(dp578
g2
Nsg17
S'B               loc_FFFFFFC0006C3AA8'
p579
sg19
S'04000014'
p580
sg21
Vb #0x10
p581
sg5
L18446743798838737560L
sg6
Nsg23
g237
sg25
S'0xffffffc0006c3a98L'
p582
sg27
Nsbasg168
(lp583
S'LDR reg, mem'
p584
aS'MOV reg, #5'
p585
aS'BL __pm_runtime_idle'
p586
aS'MOV reg, reg1'
p587
aS'B func'
p588
asg191
Nsg5
S'0xffffffc0006c3a88L'
p589
sg193
(lp590
S'0xffffffc0006c3a40L'
p591
asg6
Nsg195
(lp592
S'0xffffffc0006c3aa8L'
p593
asg199
Nsg200
Nsg201
S'854276213b314f68b53240772e833521'
p594
sg203
S'7b2a5f6ed9cb8fbf1127368ad8c6a568'
p595
sg205
(lp596
g554
ag561
ag568
ag575
ag237
asg207
Nsba(ibclass
BBasicBlock
p597
(dp598
g12
Nsg13
(lp599
(ibclass
BInstr
p600
(dp601
g2
Nsg17
S'MOV             X0, #0xFFFFFFFFFFFFFFF2'
p602
sg19
S'a0018092'
p603
sg21
Vmovn x0, #0xd
p604
sg5
L18446743798838737564L
sg6
Nsg23
S'MOV'
p605
sg25
S'0xffffffc0006c3a9cL'
p606
sg27
Nsba(ibclass
BInstr
p607
(dp608
g2
Nsg17
S'B               loc_FFFFFFC0006C3AA8'
p609
sg19
S'02000014'
p610
sg21
Vb #8
p611
sg5
L18446743798838737568L
sg6
Nsg23
g237
sg25
S'0xffffffc0006c3aa0L'
p612
sg27
Nsbasg168
(lp613
S'MOV reg, #0xFFFFFFFFFFFFFFF2'
p614
aS'B func'
p615
asg191
Nsg5
S'0xffffffc0006c3a9cL'
p616
sg193
(lp617
S'0xffffffc0006c3a20L'
p618
asg6
Nsg195
(lp619
S'0xffffffc0006c3aa8L'
p620
asg199
Nsg200
Nsg201
S'b6c4e95ccfe77a95e4cf2019dd3d5574'
p621
sg203
S'de5cd3634b99fc7484a5299a0e06a6dc'
p622
sg205
(lp623
g605
ag237
asg207
Nsba(ibclass
BBasicBlock
p624
(dp625
g12
Nsg13
(lp626
(ibclass
BInstr
p627
(dp628
g2
Nsg17
S'MOV             X0, #0xFFFFFFFFFFFFFFEA'
p629
sg19
S'a0028092'
p630
sg21
Vmovn x0, #0x15
p631
sg5
L18446743798838737572L
sg6
Nsg23
S'MOV'
p632
sg25
S'0xffffffc0006c3aa4L'
p633
sg27
Nsbasg168
(lp634
S'MOV reg, #0xFFFFFFFFFFFFFFEA'
p635
asg191
Nsg5
S'0xffffffc0006c3aa4L'
p636
sg193
(lp637
S'0xffffffc0006c3a24L'
p638
asg6
Nsg195
(lp639
S'0xffffffc0006c3aa8L'
p640
asg199
Nsg200
Nsg201
S'17b32100aef1fc19670be7fd58bc85df'
p641
sg203
S'e246af720660f75a784ce8a959acd15d'
p642
sg205
(lp643
g632
asg207
Nsba(ibclass
BBasicBlock
p644
(dp645
g12
Nsg13
(lp646
(ibclass
BInstr
p647
(dp648
g2
Nsg17
S'LDP             X19, X20, [SP,#0x30+var_20]'
p649
sg19
S'f35341a9'
p650
sg21
Vldp x19, x20, [sp, #0x10]
p651
sg5
L18446743798838737576L
sg6
Nsg23
S'LDP'
p652
sg25
S'0xffffffc0006c3aa8L'
p653
sg27
Nsba(ibclass
BInstr
p654
(dp655
g2
Nsg17
S'LDR             X21, [SP,#0x30+var_10]'
p656
sg19
S'f51340f9'
p657
sg21
Vldr x21, [sp, #0x20]
p658
sg5
L18446743798838737580L
sg6
Nsg23
S'LDR'
p659
sg25
S'0xffffffc0006c3aacL'
p660
sg27
Nsba(ibclass
BInstr
p661
(dp662
g2
Nsg17
S'LDP             X29, X30, [SP+0x30+var_30],#0x40'
p663
sg19
S'fd7bc4a8'
p664
sg21
Vldp x29, x30, [sp], #0x40
p665
sg5
L18446743798838737584L
sg6
Nsg23
S'LDP'
p666
sg25
S'0xffffffc0006c3ab0L'
p667
sg27
Nsba(ibclass
BInstr
p668
(dp669
g2
Nsg17
S'RET'
p670
sg19
S'c0035fd6'
p671
sg21
Vret 
p672
sg5
L18446743798838737588L
sg6
Nsg23
S'RET'
p673
sg25
S'0xffffffc0006c3ab4L'
p674
sg27
Nsbasg168
(lp675
S'LDP reg9, reg0, mem'
p676
aS'LDR reg1, mem'
p677
aS'LDP reg9, reg0, mem,#0x40'
p678
ag670
asg191
Nsg5
S'0xffffffc0006c3aa8L'
p679
sg193
(lp680
S'0xffffffc0006c3a68L'
p681
aS'0xffffffc0006c3a88L'
p682
aS'0xffffffc0006c3a9cL'
p683
aS'0xffffffc0006c3aa4L'
p684
asg6
Nsg195
(lp685
sg199
Nsg200
Nsg201
S'b128167488f61fa9efc4b75f88cc16c9'
p686
sg203
S'7f6a0911baff82d816961441d8301e3b'
p687
sg205
(lp688
g652
ag659
ag666
ag673
asg207
Nsbasb.