(ibclass
BFunc
p0
(dp1
S'hash'
p2
NsS'name'
p3
S'disk_seqf_stop'
p4
sS'start_address'
p5
L18446743798835906948L
sS'flag'
p6
NsS'program'
p7
NsS'bbs'
p8
(lp9
(ibclass
BBasicBlock
p10
(dp11
S'function'
p12
NsS'binstrs'
p13
(lp14
(ibclass
BInstr
p15
(dp16
g2
NsS'disasm'
p17
S'STP             X29, X30, [SP,#-0x10+var_10]!'
p18
sS'bytes'
p19
S'fd7bbea9'
p20
sS'disasm_striped'
p21
Vstp x29, x30, [sp, #-0x20]!
p22
sg5
L18446743798835906948L
sg6
NsS'mnem'
p23
S'STP'
p24
sS'address'
p25
S'0xffffffc000410984L'
p26
sS'basicblock'
p27
Nsba(ibclass
BInstr
p28
(dp29
g2
Nsg17
S'MOV             X29, SP'
p30
sg19
S'fd030091'
p31
sg21
Vmov x29, sp
p32
sg5
L18446743798835906952L
sg6
Nsg23
S'MOV'
p33
sg25
S'0xffffffc000410988L'
p34
sg27
Nsba(ibclass
BInstr
p35
(dp36
g2
Nsg17
S'STR             X19, [SP,#0x10+var_s0]'
p37
sg19
S'f30b00f9'
p38
sg21
Vstr x19, [sp, #0x10]
p39
sg5
L18446743798835906956L
sg6
Nsg23
S'STR'
p40
sg25
S'0xffffffc00041098cL'
p41
sg27
Nsba(ibclass
BInstr
p42
(dp43
g2
Nsg17
S'LDR             X19, [X0,#0x78]'
p44
sg19
S'133c40f9'
p45
sg21
Vldr x19, [x0, #0x78]
p46
sg5
L18446743798835906960L
sg6
Nsg23
S'LDR'
p47
sg25
S'0xffffffc000410990L'
p48
sg27
Nsba(ibclass
BInstr
p49
(dp50
g2
Nsg17
S'CBZ             X19, loc_FFFFFFC0004109A8'
p51
sg19
S'b30000b4'
p52
sg21
Vcbz x19, #0x14
p53
sg5
L18446743798835906964L
sg6
Nsg23
S'CBZ'
p54
sg25
S'0xffffffc000410994L'
p55
sg27
NsbasS'disasm_list'
p56
(lp57
S'STP reg9, reg0, mem!'
p58
aS'MOV reg9, SP'
p59
aS'STR reg9, mem'
p60
aS'LDR reg9, mem'
p61
aS'CBZ reg9, func'
p62
asS'end_address'
p63
Nsg5
S'0xffffffc000410984L'
p64
sS'preds'
p65
(lp66
sg6
NsS'succs'
p67
(lp68
S'0xffffffc000410998L'
p69
aS'0xffffffc0004109a8L'
p70
asS'hash_v3'
p71
NsS'flag_v2'
p72
NsS'hash_v1'
p73
S'4c8e3addcc654f60779fdc1527a543f7'
p74
sS'hash_v2'
p75
S'5a19eb3be4dc963d5b0f765c3a529b0f'
p76
sS'mnen_list'
p77
(lp78
g24
ag33
ag40
ag47
ag54
asS'neighbour_disasm_list'
p79
Nsba(ibclass
BBasicBlock
p80
(dp81
g12
Nsg13
(lp82
(ibclass
BInstr
p83
(dp84
g2
Nsg17
S'MOV             X0, X19'
p85
sg19
S'e00313aa'
p86
sg21
Vmov x0, x19
p87
sg5
L18446743798835906968L
sg6
Nsg23
S'MOV'
p88
sg25
S'0xffffffc000410998L'
p89
sg27
Nsba(ibclass
BInstr
p90
(dp91
g2
Nsg17
S'BL              class_dev_iter_exit'
p92
sg19
S'3a7e0694'
p93
sg21
Vbl #0x19f8e8
p94
sg5
L18446743798835906972L
sg6
Nsg23
S'BL'
p95
sg25
S'0xffffffc00041099cL'
p96
sg27
Nsba(ibclass
BInstr
p97
(dp98
g2
Nsg17
S'MOV             X0, X19'
p99
sg19
S'e00313aa'
p100
sg21
Vmov x0, x19
p101
sg5
L18446743798835906976L
sg6
Nsg23
S'MOV'
p102
sg25
S'0xffffffc0004109a0L'
p103
sg27
Nsba(ibclass
BInstr
p104
(dp105
g2
Nsg17
S'BL              kfree'
p106
sg19
S'5381fb97'
p107
sg21
Vbl #0xffffffffffee054c
p108
sg5
L18446743798835906980L
sg6
Nsg23
S'BL'
p109
sg25
S'0xffffffc0004109a4L'
p110
sg27
Nsbasg56
(lp111
S'MOV reg, reg9'
p112
aS'BL class_dev_iter_exit'
p113
aS'MOV reg, reg9'
p114
aS'BL kfree'
p115
asg63
Nsg5
S'0xffffffc000410998L'
p116
sg65
(lp117
S'0xffffffc000410984L'
p118
asg6
Nsg67
(lp119
S'0xffffffc0004109a8L'
p120
asg71
Nsg72
Nsg73
S'e410c53a38863ab40fce08231445bca1'
p121
sg75
S'6577adadff97762b4f4f0919f51430d3'
p122
sg77
(lp123
g88
ag95
ag102
ag109
asg79
Nsba(ibclass
BBasicBlock
p124
(dp125
g12
Nsg13
(lp126
(ibclass
BInstr
p127
(dp128
g2
Nsg17
S'LDR             X19, [SP,#0x10+var_s0]'
p129
sg19
S'f30b40f9'
p130
sg21
Vldr x19, [sp, #0x10]
p131
sg5
L18446743798835906984L
sg6
Nsg23
S'LDR'
p132
sg25
S'0xffffffc0004109a8L'
p133
sg27
Nsba(ibclass
BInstr
p134
(dp135
g2
Nsg17
S'LDP             X29, X30, [SP+0x10+var_10],#0x20'
p136
sg19
S'fd7bc2a8'
p137
sg21
Vldp x29, x30, [sp], #0x20
p138
sg5
L18446743798835906988L
sg6
Nsg23
S'LDP'
p139
sg25
S'0xffffffc0004109acL'
p140
sg27
Nsba(ibclass
BInstr
p141
(dp142
g2
Nsg17
S'RET'
p143
sg19
S'c0035fd6'
p144
sg21
Vret 
p145
sg5
L18446743798835906992L
sg6
Nsg23
S'RET'
p146
sg25
S'0xffffffc0004109b0L'
p147
sg27
Nsbasg56
(lp148
S'LDR reg9, mem'
p149
aS'LDP reg9, reg0, mem,#0x20'
p150
ag143
asg63
Nsg5
S'0xffffffc0004109a8L'
p151
sg65
(lp152
S'0xffffffc000410984L'
p153
aS'0xffffffc000410998L'
p154
asg6
Nsg67
(lp155
sg71
Nsg72
Nsg73
S'b19baa01c2af40452bf43ec402780718'
p156
sg75
S'71d92ae7a31262bdca4074e5de761511'
p157
sg77
(lp158
g132
ag139
ag146
asg79
Nsbasb.