(ibclass
BFunc
p0
(dp1
S'hash'
p2
NsS'name'
p3
S'dwc3_store_ep_num'
p4
sS'start_address'
p5
L18446743798838647024L
sS'flag'
p6
NsS'program'
p7
NsS'bbs'
p8
(lp9
(ibclass
BBasicBlock
p10
(dp11
S'function'
p12
NsS'binstrs'
p13
(lp14
(ibclass
BInstr
p15
(dp16
g2
NsS'disasm'
p17
S'STP             X29, X30, [SP,#-0x10+var_40]!'
p18
sS'bytes'
p19
S'fd7bbba9'
p20
sS'disasm_striped'
p21
Vstp x29, x30, [sp, #-0x50]!
p22
sg5
L18446743798838647024L
sg6
NsS'mnem'
p23
S'STP'
p24
sS'address'
p25
S'0xffffffc0006ad8f0L'
p26
sS'basicblock'
p27
Nsba(ibclass
BInstr
p28
(dp29
g2
Nsg17
S'MOV             X29, SP'
p30
sg19
S'fd030091'
p31
sg21
Vmov x29, sp
p32
sg5
L18446743798838647028L
sg6
Nsg23
S'MOV'
p33
sg25
S'0xffffffc0006ad8f4L'
p34
sg27
Nsba(ibclass
BInstr
p35
(dp36
g2
Nsg17
S'STP             X19, X20, [SP,#0x40+var_30]'
p37
sg19
S'f35301a9'
p38
sg21
Vstp x19, x20, [sp, #0x10]
p39
sg5
L18446743798838647032L
sg6
Nsg23
S'STP'
p40
sg25
S'0xffffffc0006ad8f8L'
p41
sg27
Nsba(ibclass
BInstr
p42
(dp43
g2
Nsg17
S'STR             X21, [SP,#0x40+var_20]'
p44
sg19
S'f51300f9'
p45
sg21
Vstr x21, [sp, #0x20]
p46
sg5
L18446743798838647036L
sg6
Nsg23
S'STR'
p47
sg25
S'0xffffffc0006ad8fcL'
p48
sg27
Nsba(ibclass
BInstr
p49
(dp50
g2
Nsg17
S'CMP             X2, #0xA'
p51
sg19
S'5f2800f1'
p52
sg21
Vcmp x2, #0xa
p53
sg5
L18446743798838647040L
sg6
Nsg23
S'CMP'
p54
sg25
S'0xffffffc0006ad900L'
p55
sg27
Nsba(ibclass
BInstr
p56
(dp57
g2
Nsg17
S'LDR             X0, [X0,#0xA8]'
p58
sg19
S'005440f9'
p59
sg21
Vldr x0, [x0, #0xa8]
p60
sg5
L18446743798838647044L
sg6
Nsg23
S'LDR'
p61
sg25
S'0xffffffc0006ad904L'
p62
sg27
Nsba(ibclass
BInstr
p63
(dp64
g2
Nsg17
S'MOV             X19, #0xA'
p65
sg19
S'530180d2'
p66
sg21
Vmovz x19, #0xa
p67
sg5
L18446743798838647048L
sg6
Nsg23
S'MOV'
p68
sg25
S'0xffffffc0006ad908L'
p69
sg27
Nsba(ibclass
BInstr
p70
(dp71
g2
Nsg17
S'CSEL            X19, X2, X19, LS'
p72
sg19
S'5390939a'
p73
sg21
Vcsel x19, x2, x19, ls
p74
sg5
L18446743798838647052L
sg6
Nsg23
S'CSEL'
p75
sg25
S'0xffffffc0006ad90cL'
p76
sg27
Nsba(ibclass
BInstr
p77
(dp78
g2
Nsg17
S'MOV             X20, X2'
p79
sg19
S'f40302aa'
p80
sg21
Vmov x20, x2
p81
sg5
L18446743798838647056L
sg6
Nsg23
S'MOV'
p82
sg25
S'0xffffffc0006ad910L'
p83
sg27
Nsba(ibclass
BInstr
p84
(dp85
g2
Nsg17
S'MOV             X2, SP'
p86
sg19
S'e2030091'
p87
sg21
Vmov x2, sp
p88
sg5
L18446743798838647060L
sg6
Nsg23
S'MOV'
p89
sg25
S'0xffffffc0006ad914L'
p90
sg27
Nsba(ibclass
BInstr
p91
(dp92
g2
Nsg17
S'LDR             X21, [X0,#0x78]'
p93
sg19
S'153c40f9'
p94
sg21
Vldr x21, [x0, #0x78]
p95
sg5
L18446743798838647064L
sg6
Nsg23
S'LDR'
p96
sg25
S'0xffffffc0006ad918L'
p97
sg27
Nsba(ibclass
BInstr
p98
(dp99
g2
Nsg17
S'STR             XZR, [X29,#0x40+var_10]'
p100
sg19
S'bf1b00f9'
p101
sg21
Vstr xzr, [x29, #0x30]
p102
sg5
L18446743798838647068L
sg6
Nsg23
S'STR'
p103
sg25
S'0xffffffc0006ad91cL'
p104
sg27
Nsba(ibclass
BInstr
p105
(dp106
g2
Nsg17
S'AND             X0, X2, #0xFFFFFFFFFFFFC000'
p107
sg19
S'40c47292'
p108
sg21
Vand x0, x2, #0xffffffffffffc000
p109
sg5
L18446743798838647072L
sg6
Nsg23
S'AND'
p110
sg25
S'0xffffffc0006ad920L'
p111
sg27
Nsba(ibclass
BInstr
p112
(dp113
g2
Nsg17
S'STRH            WZR, [X29,#0x40+var_8]'
p114
sg19
S'bf730079'
p115
sg21
Vstrh wzr, [x29, #0x38]
p116
sg5
L18446743798838647076L
sg6
Nsg23
S'STR'
p117
sg25
S'0xffffffc0006ad924L'
p118
sg27
Nsba(ibclass
BInstr
p119
(dp120
g2
Nsg17
S'LDR             X0, [X0,#8]'
p121
sg19
S'000440f9'
p122
sg21
Vldr x0, [x0, #8]
p123
sg5
L18446743798838647080L
sg6
Nsg23
S'LDR'
p124
sg25
S'0xffffffc0006ad928L'
p125
sg27
Nsba(ibclass
BInstr
p126
(dp127
g2
Nsg17
S'MOV             X2, X1'
p128
sg19
S'e20301aa'
p129
sg21
Vmov x2, x1
p130
sg5
L18446743798838647084L
sg6
Nsg23
S'MOV'
p131
sg25
S'0xffffffc0006ad92cL'
p132
sg27
Nsba(ibclass
BInstr
p133
(dp134
g2
Nsg17
S'ADDS            X2, X2, X19'
p135
sg19
S'420013ab'
p136
sg21
Vadds x2, x2, x19
p137
sg5
L18446743798838647088L
sg6
Nsg23
S'ADD'
p138
sg25
S'0xffffffc0006ad930L'
p139
sg27
Nsba(ibclass
BInstr
p140
(dp141
g2
Nsg17
S'CCMP            X2, X0, #2, CC'
p142
sg19
S'423040fa'
p143
sg21
Vccmp x2, x0, #2, lo
p144
sg5
L18446743798838647092L
sg6
Nsg23
S'CCMP'
p145
sg25
S'0xffffffc0006ad934L'
p146
sg27
Nsba(ibclass
BInstr
p147
(dp148
g2
Nsg17
S'CSET            X3, LS'
p149
sg19
S'e3879f9a'
p150
sg21
Vcset x3, ls
p151
sg5
L18446743798838647096L
sg6
Nsg23
S'CSET'
p152
sg25
S'0xffffffc0006ad938L'
p153
sg27
Nsba(ibclass
BInstr
p154
(dp155
g2
Nsg17
S'ADD             X0, X29, #0x30'
p156
sg19
S'a0c30091'
p157
sg21
Vadd x0, x29, #0x30
p158
sg5
L18446743798838647100L
sg6
Nsg23
S'ADD'
p159
sg25
S'0xffffffc0006ad93cL'
p160
sg27
Nsba(ibclass
BInstr
p161
(dp162
g2
Nsg17
S'CBZ             X3, loc_FFFFFFC0006AD954'
p163
sg19
S'a30000b4'
p164
sg21
Vcbz x3, #0x14
p165
sg5
L18446743798838647104L
sg6
Nsg23
S'CBZ'
p166
sg25
S'0xffffffc0006ad940L'
p167
sg27
NsbasS'disasm_list'
p168
(lp169
S'STP reg9, reg0, mem!'
p170
aS'MOV reg9, SP'
p171
aS'STP reg9, reg0, mem'
p172
aS'STR reg1, mem'
p173
aS'CMP reg, #0xA'
p174
aS'LDR reg, mem'
p175
aS'MOV reg9, #0xA'
p176
aS'CSEL reg9, reg, reg9, LS'
p177
aS'MOV reg0, reg'
p178
aS'MOV reg, SP'
p179
aS'LDR reg1, mem'
p180
aS'STR XZR, mem'
p181
aS'AND reg, reg, #0xFFFFFFFFFFFFC000'
p182
aS'STRH WZR, mem'
p183
aS'LDR reg, mem'
p184
aS'MOV reg, reg'
p185
aS'ADDS reg, reg, reg9'
p186
aS'CCMP reg, reg, #2, CC'
p187
aS'CSET reg, LS'
p188
aS'ADD reg, reg9, #0x30'
p189
aS'CBZ reg, func'
p190
asS'end_address'
p191
Nsg5
S'0xffffffc0006ad8f0L'
p192
sS'preds'
p193
(lp194
sg6
NsS'succs'
p195
(lp196
S'0xffffffc0006ad944L'
p197
aS'0xffffffc0006ad954L'
p198
asS'hash_v3'
p199
NsS'flag_v2'
p200
NsS'hash_v1'
p201
S'17f7548aba52ac1231f69c6cc6651c36'
p202
sS'hash_v2'
p203
S'1eacf8c5d1949e74cc3b8f6f0f30cb0e'
p204
sS'mnen_list'
p205
(lp206
g24
ag33
ag40
ag47
ag54
ag61
ag68
ag75
ag82
ag89
ag96
ag103
ag110
ag117
ag124
ag131
ag138
ag145
ag152
ag159
ag166
asS'neighbour_disasm_list'
p207
Nsba(ibclass
BBasicBlock
p208
(dp209
g12
Nsg13
(lp210
(ibclass
BInstr
p211
(dp212
g2
Nsg17
S'MOV             X2, X19'
p213
sg19
S'e20313aa'
p214
sg21
Vmov x2, x19
p215
sg5
L18446743798838647108L
sg6
Nsg23
S'MOV'
p216
sg25
S'0xffffffc0006ad944L'
p217
sg27
Nsba(ibclass
BInstr
p218
(dp219
g2
Nsg17
S'BL              __copy_from_user'
p220
sg19
S'62c9f597'
p221
sg21
Vbl #0xffffffffffd72588
p222
sg5
L18446743798838647112L
sg6
Nsg23
S'BL'
p223
sg25
S'0xffffffc0006ad948L'
p224
sg27
Nsba(ibclass
BInstr
p225
(dp226
g2
Nsg17
S'MOV             X19, X0'
p227
sg19
S'f30300aa'
p228
sg21
Vmov x19, x0
p229
sg5
L18446743798838647116L
sg6
Nsg23
S'MOV'
p230
sg25
S'0xffffffc0006ad94cL'
p231
sg27
Nsba(ibclass
BInstr
p232
(dp233
g2
Nsg17
S'B               loc_FFFFFFC0006AD960'
p234
sg19
S'04000014'
p235
sg21
Vb #0x10
p236
sg5
L18446743798838647120L
sg6
Nsg23
S'B'
p237
sg25
S'0xffffffc0006ad950L'
p238
sg27
Nsbasg168
(lp239
S'MOV reg, reg9'
p240
aS'BL __copy_from_user'
p241
aS'MOV reg9, reg'
p242
aS'B func'
p243
asg191
Nsg5
S'0xffffffc0006ad944L'
p244
sg193
(lp245
S'0xffffffc0006ad8f0L'
p246
asg6
Nsg195
(lp247
S'0xffffffc0006ad960L'
p248
asg199
Nsg200
Nsg201
S'cd23e0eb2129bcc2960febbe800808ae'
p249
sg203
S'b32d3a0b358030d2ddb1cff6605c1e41'
p250
sg205
(lp251
g216
ag223
ag230
ag237
asg207
Nsba(ibclass
BBasicBlock
p252
(dp253
g12
Nsg13
(lp254
(ibclass
BInstr
p255
(dp256
g2
Nsg17
S'MOV             W1, W3'
p257
sg19
S'e103032a'
p258
sg21
Vmov w1, w3
p259
sg5
L18446743798838647124L
sg6
Nsg23
S'MOV'
p260
sg25
S'0xffffffc0006ad954L'
p261
sg27
Nsba(ibclass
BInstr
p262
(dp263
g2
Nsg17
S'MOV             X2, X19'
p264
sg19
S'e20313aa'
p265
sg21
Vmov x2, x19
p266
sg5
L18446743798838647128L
sg6
Nsg23
S'MOV'
p267
sg25
S'0xffffffc0006ad958L'
p268
sg27
Nsba(ibclass
BInstr
p269
(dp270
g2
Nsg17
S'BL              memset'
p271
sg19
S'29cbf597'
p272
sg21
Vbl #0xffffffffffd72ca4
p273
sg5
L18446743798838647132L
sg6
Nsg23
S'BL'
p274
sg25
S'0xffffffc0006ad95cL'
p275
sg27
Nsbasg168
(lp276
S'MOV reg, reg'
p277
aS'MOV reg, reg9'
p278
aS'BL memset'
p279
asg191
Nsg5
S'0xffffffc0006ad954L'
p280
sg193
(lp281
S'0xffffffc0006ad8f0L'
p282
asg6
Nsg195
(lp283
S'0xffffffc0006ad960L'
p284
asg199
Nsg200
Nsg201
S'd0b32617f7e4cfc169d92597b8aefd43'
p285
sg203
S'c302d8625016f3ab8192a754c2ee9161'
p286
sg205
(lp287
g260
ag267
ag274
asg207
Nsba(ibclass
BBasicBlock
p288
(dp289
g12
Nsg13
(lp290
(ibclass
BInstr
p291
(dp292
g2
Nsg17
S'CBNZ            X19, loc_FFFFFFC0006AD9BC'
p293
sg19
S'f30200b5'
p294
sg21
Vcbnz x19, #0x5c
p295
sg5
L18446743798838647136L
sg6
Nsg23
S'CBNZ'
p296
sg25
S'0xffffffc0006ad960L'
p297
sg27
Nsbasg168
(lp298
S'CBNZ reg9, func'
p299
asg191
Nsg5
S'0xffffffc0006ad960L'
p300
sg193
(lp301
S'0xffffffc0006ad944L'
p302
aS'0xffffffc0006ad954L'
p303
asg6
Nsg195
(lp304
S'0xffffffc0006ad964L'
p305
aS'0xffffffc0006ad9bcL'
p306
asg199
Nsg200
Nsg201
S'482b7d814ad85789cad59d80ecb8562a'
p307
sg203
S'dff4e8ccf28b27112458638fe68a8d09'
p308
sg205
(lp309
g296
asg207
Nsba(ibclass
BBasicBlock
p310
(dp311
g12
Nsg13
(lp312
(ibclass
BInstr
p313
(dp314
g2
Nsg17
S'ADRP            X1, #(aUUUUUUUU+0x13)@PAGE; "%u %u"'
p315
sg19
S'416b00f0'
p316
sg21
Vadrp x1, #0xd6b000
p317
sg5
L18446743798838647140L
sg6
Nsg23
S'ADRP'
p318
sg25
S'0xffffffc0006ad964L'
p319
sg27
Nsba(ibclass
BInstr
p320
(dp321
g2
Nsg17
S'ADD             X0, X29, #0x30'
p322
sg19
S'a0c30091'
p323
sg21
Vadd x0, x29, #0x30
p324
sg5
L18446743798838647144L
sg6
Nsg23
S'ADD'
p325
sg25
S'0xffffffc0006ad968L'
p326
sg27
Nsba(ibclass
BInstr
p327
(dp328
g2
Nsg17
S'ADD             X1, X1, #(aUUUUUUUU+0x13)@PAGEOFF; "%u %u"'
p329
sg19
S'21900c91'
p330
sg21
Vadd x1, x1, #0x324
p331
sg5
L18446743798838647148L
sg6
Nsg23
S'ADD'
p332
sg25
S'0xffffffc0006ad96cL'
p333
sg27
Nsba(ibclass
BInstr
p334
(dp335
g2
Nsg17
S'ADD             X2, X29, #0x40'
p336
sg19
S'a2030191'
p337
sg21
Vadd x2, x29, #0x40
p338
sg5
L18446743798838647152L
sg6
Nsg23
S'ADD'
p339
sg25
S'0xffffffc0006ad970L'
p340
sg27
Nsba(ibclass
BInstr
p341
(dp342
g2
Nsg17
S'ADD             X3, X29, #0x3C'
p343
sg19
S'a3f30091'
p344
sg21
Vadd x3, x29, #0x3c
p345
sg5
L18446743798838647156L
sg6
Nsg23
S'ADD'
p346
sg25
S'0xffffffc0006ad974L'
p347
sg27
Nsba(ibclass
BInstr
p348
(dp349
g2
Nsg17
S'BL              sscanf'
p350
sg19
S'50faf597'
p351
sg21
Vbl #0xffffffffffd7e940
p352
sg5
L18446743798838647160L
sg6
Nsg23
S'BL'
p353
sg25
S'0xffffffc0006ad978L'
p354
sg27
Nsba(ibclass
BInstr
p355
(dp356
g2
Nsg17
S'CMP             W0, #2'
p357
sg19
S'1f080071'
p358
sg21
Vcmp w0, #2
p359
sg5
L18446743798838647164L
sg6
Nsg23
S'CMP'
p360
sg25
S'0xffffffc0006ad97cL'
p361
sg27
Nsba(ibclass
BInstr
p362
(dp363
g2
Nsg17
S'B.NE            loc_FFFFFFC0006AD9C4'
p364
sg19
S'21020054'
p365
sg21
Vb.ne #0x44
p366
sg5
L18446743798838647168L
sg6
Nsg23
g237
sg25
S'0xffffffc0006ad980L'
p367
sg27
Nsbasg168
(lp368
S'ADRP reg, #(aUUUUUUUU+0x13)@PAGE'
p369
aS'ADD reg, reg9, #0x30'
p370
aS'ADD reg, reg, #(aUUUUUUUU+0x13)@PAGEOFF'
p371
aS'ADD reg, reg9, #0x40'
p372
aS'ADD reg, reg9, #0x3C'
p373
aS'BL sscanf'
p374
aS'CMP reg, #2'
p375
aS'B.NE func'
p376
asg191
Nsg5
S'0xffffffc0006ad964L'
p377
sg193
(lp378
S'0xffffffc0006ad960L'
p379
asg6
Nsg195
(lp380
S'0xffffffc0006ad984L'
p381
aS'0xffffffc0006ad9c4L'
p382
asg199
Nsg200
Nsg201
S'38690ed412e49565b0371e1f356bac7a'
p383
sg203
S'8927b0f06cafca672cc2786af0a0422a'
p384
sg205
(lp385
g318
ag325
ag332
ag339
ag346
ag353
ag360
ag237
asg207
Nsba(ibclass
BBasicBlock
p386
(dp387
g12
Nsg13
(lp388
(ibclass
BInstr
p389
(dp390
g2
Nsg17
S'ADD             X19, X21, #0xD8'
p391
sg19
S'b3620391'
p392
sg21
Vadd x19, x21, #0xd8
p393
sg5
L18446743798838647172L
sg6
Nsg23
S'ADD'
p394
sg25
S'0xffffffc0006ad984L'
p395
sg27
Nsba(ibclass
BInstr
p396
(dp397
g2
Nsg17
S'MOV             X0, X19'
p398
sg19
S'e00313aa'
p399
sg21
Vmov x0, x19
p400
sg5
L18446743798838647176L
sg6
Nsg23
S'MOV'
p401
sg25
S'0xffffffc0006ad988L'
p402
sg27
Nsba(ibclass
BInstr
p403
(dp404
g2
Nsg17
S'BL              _raw_spin_lock_irqsave'
p405
sg19
S'64421e94'
p406
sg21
Vbl #0x790990
p407
sg5
L18446743798838647180L
sg6
Nsg23
S'BL'
p408
sg25
S'0xffffffc0006ad98cL'
p409
sg27
Nsba(ibclass
BInstr
p410
(dp411
g2
Nsg17
S'MOV             X1, X0'
p412
sg19
S'e10300aa'
p413
sg21
Vmov x1, x0
p414
sg5
L18446743798838647184L
sg6
Nsg23
S'MOV'
p415
sg25
S'0xffffffc0006ad990L'
p416
sg27
Nsba(ibclass
BInstr
p417
(dp418
g2
Nsg17
S'LDR             W2, [X29,#arg_30]'
p419
sg19
S'a24340b9'
p420
sg21
Vldr w2, [x29, #0x40]
p421
sg5
L18446743798838647188L
sg6
Nsg23
S'LDR'
p422
sg25
S'0xffffffc0006ad994L'
p423
sg27
Nsba(ibclass
BInstr
p424
(dp425
g2
Nsg17
S'LDR             W0, [X29,#arg_2C]'
p426
sg19
S'a03f40b9'
p427
sg21
Vldr w0, [x29, #0x3c]
p428
sg5
L18446743798838647192L
sg6
Nsg23
S'LDR'
p429
sg25
S'0xffffffc0006ad998L'
p430
sg27
Nsba(ibclass
BInstr
p431
(dp432
g2
Nsg17
S'ADD             W2, W0, W2,LSL#1'
p433
sg19
S'0204020b'
p434
sg21
Vadd w2, w0, w2, lsl #1
p435
sg5
L18446743798838647196L
sg6
Nsg23
S'ADD'
p436
sg25
S'0xffffffc0006ad99cL'
p437
sg27
Nsba(ibclass
BInstr
p438
(dp439
g2
Nsg17
S'ADRP            X0, #ep_num@PAGE'
p440
sg19
S'00b300d0'
p441
sg21
Vadrp x0, #0x1662000
p442
sg5
L18446743798838647200L
sg6
Nsg23
S'ADRP'
p443
sg25
S'0xffffffc0006ad9a0L'
p444
sg27
Nsba(ibclass
BInstr
p445
(dp446
g2
Nsg17
S'ADD             X0, X0, #ep_num@PAGEOFF'
p447
sg19
S'00c00791'
p448
sg21
Vadd x0, x0, #0x1f0
p449
sg5
L18446743798838647204L
sg6
Nsg23
S'ADD'
p450
sg25
S'0xffffffc0006ad9a4L'
p451
sg27
Nsba(ibclass
BInstr
p452
(dp453
g2
Nsg17
S'STR             W2, [X0]'
p454
sg19
S'020000b9'
p455
sg21
Vstr w2, [x0]
p456
sg5
L18446743798838647208L
sg6
Nsg23
S'STR'
p457
sg25
S'0xffffffc0006ad9a8L'
p458
sg27
Nsba(ibclass
BInstr
p459
(dp460
g2
Nsg17
S'MOV             X0, X19'
p461
sg19
S'e00313aa'
p462
sg21
Vmov x0, x19
p463
sg5
L18446743798838647212L
sg6
Nsg23
S'MOV'
p464
sg25
S'0xffffffc0006ad9acL'
p465
sg27
Nsba(ibclass
BInstr
p466
(dp467
g2
Nsg17
S'BL              _raw_spin_unlock_irqrestore'
p468
sg19
S'af421e94'
p469
sg21
Vbl #0x790abc
p470
sg5
L18446743798838647216L
sg6
Nsg23
S'BL'
p471
sg25
S'0xffffffc0006ad9b0L'
p472
sg27
Nsba(ibclass
BInstr
p473
(dp474
g2
Nsg17
S'MOV             X0, X20'
p475
sg19
S'e00314aa'
p476
sg21
Vmov x0, x20
p477
sg5
L18446743798838647220L
sg6
Nsg23
S'MOV'
p478
sg25
S'0xffffffc0006ad9b4L'
p479
sg27
Nsba(ibclass
BInstr
p480
(dp481
g2
Nsg17
S'B               loc_FFFFFFC0006AD9C8'
p482
sg19
S'04000014'
p483
sg21
Vb #0x10
p484
sg5
L18446743798838647224L
sg6
Nsg23
g237
sg25
S'0xffffffc0006ad9b8L'
p485
sg27
Nsbasg168
(lp486
S'ADD reg9, reg1, #0xD8'
p487
aS'MOV reg, reg9'
p488
aS'BL _raw_spin_lock_irqsave'
p489
aS'MOV reg, reg'
p490
aS'LDR reg, mem'
p491
aS'LDR reg, mem'
p492
aS'ADD reg, reg, reg,LSL#1'
p493
aS'ADRP reg, #ep_num@PAGE'
p494
aS'ADD reg, reg, #ep_num@PAGEOFF'
p495
aS'STR reg, mem'
p496
aS'MOV reg, reg9'
p497
aS'BL _raw_spin_unlock_irqrestore'
p498
aS'MOV reg, reg0'
p499
aS'B func'
p500
asg191
Nsg5
S'0xffffffc0006ad984L'
p501
sg193
(lp502
S'0xffffffc0006ad964L'
p503
asg6
Nsg195
(lp504
S'0xffffffc0006ad9c8L'
p505
asg199
Nsg200
Nsg201
S'8b2bdd8dd5bddf56c223999ba9a6b5a9'
p506
sg203
S'8dbb96152dfd8f2e2f07d9d514f98e52'
p507
sg205
(lp508
g394
ag401
ag408
ag415
ag422
ag429
ag436
ag443
ag450
ag457
ag464
ag471
ag478
ag237
asg207
Nsba(ibclass
BBasicBlock
p509
(dp510
g12
Nsg13
(lp511
(ibclass
BInstr
p512
(dp513
g2
Nsg17
S'MOV             X0, #0xFFFFFFFFFFFFFFF2'
p514
sg19
S'a0018092'
p515
sg21
Vmovn x0, #0xd
p516
sg5
L18446743798838647228L
sg6
Nsg23
S'MOV'
p517
sg25
S'0xffffffc0006ad9bcL'
p518
sg27
Nsba(ibclass
BInstr
p519
(dp520
g2
Nsg17
S'B               loc_FFFFFFC0006AD9C8'
p521
sg19
S'02000014'
p522
sg21
Vb #8
p523
sg5
L18446743798838647232L
sg6
Nsg23
g237
sg25
S'0xffffffc0006ad9c0L'
p524
sg27
Nsbasg168
(lp525
S'MOV reg, #0xFFFFFFFFFFFFFFF2'
p526
aS'B func'
p527
asg191
Nsg5
S'0xffffffc0006ad9bcL'
p528
sg193
(lp529
S'0xffffffc0006ad960L'
p530
asg6
Nsg195
(lp531
S'0xffffffc0006ad9c8L'
p532
asg199
Nsg200
Nsg201
S'b6c4e95ccfe77a95e4cf2019dd3d5574'
p533
sg203
S'de5cd3634b99fc7484a5299a0e06a6dc'
p534
sg205
(lp535
g517
ag237
asg207
Nsba(ibclass
BBasicBlock
p536
(dp537
g12
Nsg13
(lp538
(ibclass
BInstr
p539
(dp540
g2
Nsg17
S'MOV             X0, #0xFFFFFFFFFFFFFFEA'
p541
sg19
S'a0028092'
p542
sg21
Vmovn x0, #0x15
p543
sg5
L18446743798838647236L
sg6
Nsg23
S'MOV'
p544
sg25
S'0xffffffc0006ad9c4L'
p545
sg27
Nsbasg168
(lp546
S'MOV reg, #0xFFFFFFFFFFFFFFEA'
p547
asg191
Nsg5
S'0xffffffc0006ad9c4L'
p548
sg193
(lp549
S'0xffffffc0006ad964L'
p550
asg6
Nsg195
(lp551
S'0xffffffc0006ad9c8L'
p552
asg199
Nsg200
Nsg201
S'17b32100aef1fc19670be7fd58bc85df'
p553
sg203
S'e246af720660f75a784ce8a959acd15d'
p554
sg205
(lp555
g544
asg207
Nsba(ibclass
BBasicBlock
p556
(dp557
g12
Nsg13
(lp558
(ibclass
BInstr
p559
(dp560
g2
Nsg17
S'LDP             X19, X20, [SP,#0x40+var_30]'
p561
sg19
S'f35341a9'
p562
sg21
Vldp x19, x20, [sp, #0x10]
p563
sg5
L18446743798838647240L
sg6
Nsg23
S'LDP'
p564
sg25
S'0xffffffc0006ad9c8L'
p565
sg27
Nsba(ibclass
BInstr
p566
(dp567
g2
Nsg17
S'LDR             X21, [SP,#0x40+var_20]'
p568
sg19
S'f51340f9'
p569
sg21
Vldr x21, [sp, #0x20]
p570
sg5
L18446743798838647244L
sg6
Nsg23
S'LDR'
p571
sg25
S'0xffffffc0006ad9ccL'
p572
sg27
Nsba(ibclass
BInstr
p573
(dp574
g2
Nsg17
S'LDP             X29, X30, [SP+0x40+var_40],#0x50'
p575
sg19
S'fd7bc5a8'
p576
sg21
Vldp x29, x30, [sp], #0x50
p577
sg5
L18446743798838647248L
sg6
Nsg23
S'LDP'
p578
sg25
S'0xffffffc0006ad9d0L'
p579
sg27
Nsba(ibclass
BInstr
p580
(dp581
g2
Nsg17
S'RET'
p582
sg19
S'c0035fd6'
p583
sg21
Vret 
p584
sg5
L18446743798838647252L
sg6
Nsg23
S'RET'
p585
sg25
S'0xffffffc0006ad9d4L'
p586
sg27
Nsbasg168
(lp587
S'LDP reg9, reg0, mem'
p588
aS'LDR reg1, mem'
p589
aS'LDP reg9, reg0, mem,#0x50'
p590
ag582
asg191
Nsg5
S'0xffffffc0006ad9c8L'
p591
sg193
(lp592
S'0xffffffc0006ad984L'
p593
aS'0xffffffc0006ad9bcL'
p594
aS'0xffffffc0006ad9c4L'
p595
asg6
Nsg195
(lp596
sg199
Nsg200
Nsg201
S'b128167488f61fa9efc4b75f88cc16c9'
p597
sg203
S'b675e017644bfd8ea56f2564bd8cb24d'
p598
sg205
(lp599
g564
ag571
ag578
ag585
asg207
Nsbasb.