(ibclass
BFunc
p0
(dp1
S'hash'
p2
NsS'name'
p3
S'firmware_name_store'
p4
sS'start_address'
p5
L18446743798836997280L
sS'flag'
p6
NsS'program'
p7
NsS'bbs'
p8
(lp9
(ibclass
BBasicBlock
p10
(dp11
S'function'
p12
NsS'binstrs'
p13
(lp14
(ibclass
BInstr
p15
(dp16
g2
NsS'disasm'
p17
S'STP             X29, X30, [SP,#-0x10+var_20]!'
p18
sS'bytes'
p19
S'fd7bbda9'
p20
sS'disasm_striped'
p21
Vstp x29, x30, [sp, #-0x30]!
p22
sg5
L18446743798836997280L
sg6
NsS'mnem'
p23
S'STP'
p24
sS'address'
p25
S'0xffffffc00051aca0L'
p26
sS'basicblock'
p27
Nsba(ibclass
BInstr
p28
(dp29
g2
Nsg17
S'MOV             X29, SP'
p30
sg19
S'fd030091'
p31
sg21
Vmov x29, sp
p32
sg5
L18446743798836997284L
sg6
Nsg23
S'MOV'
p33
sg25
S'0xffffffc00051aca4L'
p34
sg27
Nsba(ibclass
BInstr
p35
(dp36
g2
Nsg17
S'STP             X19, X20, [SP,#0x20+var_10]'
p37
sg19
S'f35301a9'
p38
sg21
Vstp x19, x20, [sp, #0x10]
p39
sg5
L18446743798836997288L
sg6
Nsg23
S'STP'
p40
sg25
S'0xffffffc00051aca8L'
p41
sg27
Nsba(ibclass
BInstr
p42
(dp43
g2
Nsg17
S'STP             X21, X22, [SP,#0x20+var_s0]'
p44
sg19
S'f55b02a9'
p45
sg21
Vstp x21, x22, [sp, #0x20]
p46
sg5
L18446743798836997292L
sg6
Nsg23
S'STP'
p47
sg25
S'0xffffffc00051acacL'
p48
sg27
Nsba(ibclass
BInstr
p49
(dp50
g2
Nsg17
S'SUB             X21, X0, #0x1A8'
p51
sg19
S'15a006d1'
p52
sg21
Vsub x21, x0, #0x1a8
p53
sg5
L18446743798836997296L
sg6
Nsg23
S'SUB'
p54
sg25
S'0xffffffc00051acb0L'
p55
sg27
Nsba(ibclass
BInstr
p56
(dp57
g2
Nsg17
S'LDR             X0, [X0,#0x2B0]'
p58
sg19
S'005841f9'
p59
sg21
Vldr x0, [x0, #0x2b0]
p60
sg5
L18446743798836997300L
sg6
Nsg23
S'LDR'
p61
sg25
S'0xffffffc00051acb4L'
p62
sg27
Nsba(ibclass
BInstr
p63
(dp64
g2
Nsg17
S'ADD             X22, X21, #0x168'
p65
sg19
S'b6a20591'
p66
sg21
Vadd x22, x21, #0x168
p67
sg5
L18446743798836997304L
sg6
Nsg23
S'ADD'
p68
sg25
S'0xffffffc00051acb8L'
p69
sg27
Nsba(ibclass
BInstr
p70
(dp71
g2
Nsg17
S'CMP             X0, XZR'
p72
sg19
S'1f001feb'
p73
sg21
Vcmp x0, xzr
p74
sg5
L18446743798836997308L
sg6
Nsg23
S'CMP'
p75
sg25
S'0xffffffc00051acbcL'
p76
sg27
Nsba(ibclass
BInstr
p77
(dp78
g2
Nsg17
S'ADD             X1, X0, #0x10'
p79
sg19
S'01400091'
p80
sg21
Vadd x1, x0, #0x10
p81
sg5
L18446743798836997312L
sg6
Nsg23
S'ADD'
p82
sg25
S'0xffffffc00051acc0L'
p83
sg27
Nsba(ibclass
BInstr
p84
(dp85
g2
Nsg17
S'CSEL            X22, X22, X1, EQ'
p86
sg19
S'd602819a'
p87
sg21
Vcsel x22, x22, x1, eq
p88
sg5
L18446743798836997316L
sg6
Nsg23
S'CSEL'
p89
sg25
S'0xffffffc00051acc4L'
p90
sg27
Nsba(ibclass
BInstr
p91
(dp92
g2
Nsg17
S'MOV             X20, X2'
p93
sg19
S'f40302aa'
p94
sg21
Vmov x20, x2
p95
sg5
L18446743798836997320L
sg6
Nsg23
S'MOV'
p96
sg25
S'0xffffffc00051acc8L'
p97
sg27
Nsba(ibclass
BInstr
p98
(dp99
g2
Nsg17
S'MOV             X0, X2'
p100
sg19
S'e00302aa'
p101
sg21
Vmov x0, x2
p102
sg5
L18446743798836997324L
sg6
Nsg23
S'MOV'
p103
sg25
S'0xffffffc00051acccL'
p104
sg27
Nsba(ibclass
BInstr
p105
(dp106
g2
Nsg17
S'MOV             W1, #0xA'
p107
sg19
S'41018052'
p108
sg21
Vmovz w1, #0xa
p109
sg5
L18446743798836997328L
sg6
Nsg23
S'MOV'
p110
sg25
S'0xffffffc00051acd0L'
p111
sg27
Nsba(ibclass
BInstr
p112
(dp113
g2
Nsg17
S'MOV             X2, X3'
p114
sg19
S'e20303aa'
p115
sg21
Vmov x2, x3
p116
sg5
L18446743798836997332L
sg6
Nsg23
S'MOV'
p117
sg25
S'0xffffffc00051acd4L'
p118
sg27
Nsba(ibclass
BInstr
p119
(dp120
g2
Nsg17
S'MOV             X19, X3'
p121
sg19
S'f30303aa'
p122
sg21
Vmov x19, x3
p123
sg5
L18446743798836997336L
sg6
Nsg23
S'MOV'
p124
sg25
S'0xffffffc00051acd8L'
p125
sg27
Nsba(ibclass
BInstr
p126
(dp127
g2
Nsg17
S'BL              memchr'
p128
sg19
S'0915fc97'
p129
sg21
Vbl #0xfffffffffff05424
p130
sg5
L18446743798836997340L
sg6
Nsg23
S'BL'
p131
sg25
S'0xffffffc00051acdcL'
p132
sg27
Nsba(ibclass
BInstr
p133
(dp134
g2
Nsg17
S'SUB             X1, X0, X20'
p135
sg19
S'010014cb'
p136
sg21
Vsub x1, x0, x20
p137
sg5
L18446743798836997344L
sg6
Nsg23
S'SUB'
p138
sg25
S'0xffffffc00051ace0L'
p139
sg27
Nsba(ibclass
BInstr
p140
(dp141
g2
Nsg17
S'CMP             X0, XZR'
p142
sg19
S'1f001feb'
p143
sg21
Vcmp x0, xzr
p144
sg5
L18446743798836997348L
sg6
Nsg23
S'CMP'
p145
sg25
S'0xffffffc00051ace4L'
p146
sg27
Nsba(ibclass
BInstr
p147
(dp148
g2
Nsg17
S'CSEL            X19, X1, X19, NE'
p149
sg19
S'3310939a'
p150
sg21
Vcsel x19, x1, x19, ne
p151
sg5
L18446743798836997352L
sg6
Nsg23
S'CSEL'
p152
sg25
S'0xffffffc00051ace8L'
p153
sg27
Nsba(ibclass
BInstr
p154
(dp155
g2
Nsg17
S'MOV             X0, #0xFFFFFFFFFFFFFFFF'
p156
sg19
S'00008092'
p157
sg21
Vmovn x0, #0
p158
sg5
L18446743798836997356L
sg6
Nsg23
S'MOV'
p159
sg25
S'0xffffffc00051acecL'
p160
sg27
Nsba(ibclass
BInstr
p161
(dp162
g2
Nsg17
S'CBZ             X19, loc_FFFFFFC00051AD38'
p163
sg19
S'530200b4'
p164
sg21
Vcbz x19, #0x48
p165
sg5
L18446743798836997360L
sg6
Nsg23
S'CBZ'
p166
sg25
S'0xffffffc00051acf0L'
p167
sg27
NsbasS'disasm_list'
p168
(lp169
S'STP reg9, reg0, mem!'
p170
aS'MOV reg9, SP'
p171
aS'STP reg9, reg0, mem'
p172
aS'STP reg1, reg2, mem'
p173
aS'SUB reg1, reg, #0x1A8'
p174
aS'LDR reg, mem'
p175
aS'ADD reg2, reg1, #0x168'
p176
aS'CMP reg, XZR'
p177
aS'ADD reg, reg, #0x10'
p178
aS'CSEL reg2, reg2, reg, EQ'
p179
aS'MOV reg0, reg'
p180
aS'MOV reg, reg'
p181
aS'MOV reg, #0xA'
p182
aS'MOV reg, reg'
p183
aS'MOV reg9, reg'
p184
aS'BL memchr'
p185
aS'SUB reg, reg, reg0'
p186
aS'CMP reg, XZR'
p187
aS'CSEL reg9, reg, reg9, NE'
p188
aS'MOV reg, #0xFFFFFFFFFFFFFFFF'
p189
aS'CBZ reg9, func'
p190
asS'end_address'
p191
Nsg5
S'0xffffffc00051aca0L'
p192
sS'preds'
p193
(lp194
sg6
NsS'succs'
p195
(lp196
S'0xffffffc00051acf4L'
p197
aS'0xffffffc00051ad38L'
p198
asS'hash_v3'
p199
NsS'flag_v2'
p200
NsS'hash_v1'
p201
S'3b8bdd9c507deb1728f4e06ddc650dd0'
p202
sS'hash_v2'
p203
S'e4de3ff4c3cf9f71693de537781283d0'
p204
sS'mnen_list'
p205
(lp206
g24
ag33
ag40
ag47
ag54
ag61
ag68
ag75
ag82
ag89
ag96
ag103
ag110
ag117
ag124
ag131
ag138
ag145
ag152
ag159
ag166
asS'neighbour_disasm_list'
p207
Nsba(ibclass
BBasicBlock
p208
(dp209
g12
Nsg13
(lp210
(ibclass
BInstr
p211
(dp212
g2
Nsg17
S'ADRP            X0, #unk_FFFFFFC0013407CF@PAGE'
p213
sg19
S'207100d0'
p214
sg21
Vadrp x0, #0xe26000
p215
sg5
L18446743798836997364L
sg6
Nsg23
S'ADRP'
p216
sg25
S'0xffffffc00051acf4L'
p217
sg27
Nsba(ibclass
BInstr
p218
(dp219
g2
Nsg17
S'ADRP            X1, #__func__.24349@PAGE; "firmware_name_store"'
p220
sg19
S'615800b0'
p221
sg21
Vadrp x1, #0xb0d000
p222
sg5
L18446743798836997368L
sg6
Nsg23
S'ADRP'
p223
sg25
S'0xffffffc00051acf8L'
p224
sg27
Nsba(ibclass
BInstr
p225
(dp226
g2
Nsg17
S'ADD             X1, X1, #__func__.24349@PAGEOFF; "firmware_name_store"'
p227
sg19
S'21202491'
p228
sg21
Vadd x1, x1, #0x908
p229
sg5
L18446743798836997372L
sg6
Nsg23
S'ADD'
p230
sg25
S'0xffffffc00051acfcL'
p231
sg27
Nsba(ibclass
BInstr
p232
(dp233
g2
Nsg17
S'MOV             X2, X20'
p234
sg19
S'e20314aa'
p235
sg21
Vmov x2, x20
p236
sg5
L18446743798836997376L
sg6
Nsg23
S'MOV'
p237
sg25
S'0xffffffc00051ad00L'
p238
sg27
Nsba(ibclass
BInstr
p239
(dp240
g2
Nsg17
S'ADD             X0, X0, #unk_FFFFFFC0013407CF@PAGEOFF'
p241
sg19
S'003c1f91'
p242
sg21
Vadd x0, x0, #0x7cf
p243
sg5
L18446743798836997380L
sg6
Nsg23
S'ADD'
p244
sg25
S'0xffffffc00051ad04L'
p245
sg27
Nsba(ibclass
BInstr
p246
(dp247
g2
Nsg17
S'BL              printk'
p248
sg19
S'584f2494'
p249
sg21
Vbl #0x913d60
p250
sg5
L18446743798836997384L
sg6
Nsg23
S'BL'
p251
sg25
S'0xffffffc00051ad08L'
p252
sg27
Nsba(ibclass
BInstr
p253
(dp254
g2
Nsg17
S'ADD             X22, X22, #0x10'
p255
sg19
S'd6420091'
p256
sg21
Vadd x22, x22, #0x10
p257
sg5
L18446743798836997388L
sg6
Nsg23
S'ADD'
p258
sg25
S'0xffffffc00051ad0cL'
p259
sg27
Nsba(ibclass
BInstr
p260
(dp261
g2
Nsg17
S'MOV             X0, X22'
p262
sg19
S'e00316aa'
p263
sg21
Vmov x0, x22
p264
sg5
L18446743798836997392L
sg6
Nsg23
S'MOV'
p265
sg25
S'0xffffffc00051ad10L'
p266
sg27
Nsba(ibclass
BInstr
p267
(dp268
g2
Nsg17
S'BL              mutex_lock'
p269
sg19
S'b6832494'
p270
sg21
Vbl #0x920ed8
p271
sg5
L18446743798836997396L
sg6
Nsg23
S'BL'
p272
sg25
S'0xffffffc00051ad14L'
p273
sg27
Nsba(ibclass
BInstr
p274
(dp275
g2
Nsg17
S'LDR             X0, [X21]'
p276
sg19
S'a00240f9'
p277
sg21
Vldr x0, [x21]
p278
sg5
L18446743798836997400L
sg6
Nsg23
S'LDR'
p279
sg25
S'0xffffffc00051ad18L'
p280
sg27
Nsba(ibclass
BInstr
p281
(dp282
g2
Nsg17
S'MOV             X1, X20'
p283
sg19
S'e10314aa'
p284
sg21
Vmov x1, x20
p285
sg5
L18446743798836997404L
sg6
Nsg23
S'MOV'
p286
sg25
S'0xffffffc00051ad1cL'
p287
sg27
Nsba(ibclass
BInstr
p288
(dp289
g2
Nsg17
S'ADD             X2, X19, #1'
p290
sg19
S'62060091'
p291
sg21
Vadd x2, x19, #1
p292
sg5
L18446743798836997408L
sg6
Nsg23
S'ADD'
p293
sg25
S'0xffffffc00051ad20L'
p294
sg27
Nsba(ibclass
BInstr
p295
(dp296
g2
Nsg17
S'ADD             X0, X0, #8'
p297
sg19
S'00200091'
p298
sg21
Vadd x0, x0, #8
p299
sg5
L18446743798836997412L
sg6
Nsg23
S'ADD'
p300
sg25
S'0xffffffc00051ad24L'
p301
sg27
Nsba(ibclass
BInstr
p302
(dp303
g2
Nsg17
S'BL              strlcpy'
p304
sg19
S'4238fc97'
p305
sg21
Vbl #0xfffffffffff0e108
p306
sg5
L18446743798836997416L
sg6
Nsg23
S'BL'
p307
sg25
S'0xffffffc00051ad28L'
p308
sg27
Nsba(ibclass
BInstr
p309
(dp310
g2
Nsg17
S'MOV             X0, X22'
p311
sg19
S'e00316aa'
p312
sg21
Vmov x0, x22
p313
sg5
L18446743798836997420L
sg6
Nsg23
S'MOV'
p314
sg25
S'0xffffffc00051ad2cL'
p315
sg27
Nsba(ibclass
BInstr
p316
(dp317
g2
Nsg17
S'BL              mutex_unlock'
p318
sg19
S'f2822494'
p319
sg21
Vbl #0x920bc8
p320
sg5
L18446743798836997424L
sg6
Nsg23
S'BL'
p321
sg25
S'0xffffffc00051ad30L'
p322
sg27
Nsba(ibclass
BInstr
p323
(dp324
g2
Nsg17
S'MOV             X0, X19'
p325
sg19
S'e00313aa'
p326
sg21
Vmov x0, x19
p327
sg5
L18446743798836997428L
sg6
Nsg23
S'MOV'
p328
sg25
S'0xffffffc00051ad34L'
p329
sg27
Nsbasg168
(lp330
S'ADRP reg, #func@PAGE'
p331
aS'ADRP reg, #__func__.24349@PAGE'
p332
aS'ADD reg, reg, #__func__.24349@PAGEOFF'
p333
aS'MOV reg, reg0'
p334
aS'ADD reg, reg, #func@PAGEOFF'
p335
aS'BL printk'
p336
aS'ADD reg2, reg2, #0x10'
p337
aS'MOV reg, reg2'
p338
aS'BL mutex_lock'
p339
aS'LDR reg, mem'
p340
aS'MOV reg, reg0'
p341
aS'ADD reg, reg9, #1'
p342
aS'ADD reg, reg, #8'
p343
aS'BL strlcpy'
p344
aS'MOV reg, reg2'
p345
aS'BL mutex_unlock'
p346
aS'MOV reg, reg9'
p347
asg191
Nsg5
S'0xffffffc00051acf4L'
p348
sg193
(lp349
S'0xffffffc00051aca0L'
p350
asg6
Nsg195
(lp351
S'0xffffffc00051ad38L'
p352
asg199
Nsg200
Nsg201
S'3729ed436ca91bfe17125431583ff409'
p353
sg203
S'ced56157956177a1cd53d5adcc8df0f7'
p354
sg205
(lp355
g216
ag223
ag230
ag237
ag244
ag251
ag258
ag265
ag272
ag279
ag286
ag293
ag300
ag307
ag314
ag321
ag328
asg207
Nsba(ibclass
BBasicBlock
p356
(dp357
g12
Nsg13
(lp358
(ibclass
BInstr
p359
(dp360
g2
Nsg17
S'LDP             X19, X20, [SP,#0x20+var_10]'
p361
sg19
S'f35341a9'
p362
sg21
Vldp x19, x20, [sp, #0x10]
p363
sg5
L18446743798836997432L
sg6
Nsg23
S'LDP'
p364
sg25
S'0xffffffc00051ad38L'
p365
sg27
Nsba(ibclass
BInstr
p366
(dp367
g2
Nsg17
S'LDP             X21, X22, [SP,#0x20+var_s0]'
p368
sg19
S'f55b42a9'
p369
sg21
Vldp x21, x22, [sp, #0x20]
p370
sg5
L18446743798836997436L
sg6
Nsg23
S'LDP'
p371
sg25
S'0xffffffc00051ad3cL'
p372
sg27
Nsba(ibclass
BInstr
p373
(dp374
g2
Nsg17
S'LDP             X29, X30, [SP+0x20+var_20],#0x30'
p375
sg19
S'fd7bc3a8'
p376
sg21
Vldp x29, x30, [sp], #0x30
p377
sg5
L18446743798836997440L
sg6
Nsg23
S'LDP'
p378
sg25
S'0xffffffc00051ad40L'
p379
sg27
Nsba(ibclass
BInstr
p380
(dp381
g2
Nsg17
S'RET'
p382
sg19
S'c0035fd6'
p383
sg21
Vret 
p384
sg5
L18446743798836997444L
sg6
Nsg23
S'RET'
p385
sg25
S'0xffffffc00051ad44L'
p386
sg27
Nsbasg168
(lp387
S'LDP reg9, reg0, mem'
p388
aS'LDP reg1, reg2, mem'
p389
aS'LDP reg9, reg0, mem,#0x30'
p390
ag382
asg191
Nsg5
S'0xffffffc00051ad38L'
p391
sg193
(lp392
S'0xffffffc00051aca0L'
p393
aS'0xffffffc00051acf4L'
p394
asg6
Nsg195
(lp395
sg199
Nsg200
Nsg201
S'e506acdec8f0d1b80ba12a70d6d398f7'
p396
sg203
S'3ac81bdcde4eb0fd97ff7d602d4ab967'
p397
sg205
(lp398
g364
ag371
ag378
ag385
asg207
Nsbasb.