(ibclass
BFunc
p0
(dp1
S'hash'
p2
NsS'name'
p3
S'hfi_process_session_flush_done'
p4
sS'start_address'
p5
L18446743798839772628L
sS'flag'
p6
NsS'program'
p7
NsS'bbs'
p8
(lp9
(ibclass
BBasicBlock
p10
(dp11
S'function'
p12
NsS'binstrs'
p13
(lp14
(ibclass
BInstr
p15
(dp16
g2
NsS'disasm'
p17
S'STP             X29, X30, [SP,#-0x10+var_50]!'
p18
sS'bytes'
p19
S'fd7bbaa9'
p20
sS'disasm_striped'
p21
Vstp x29, x30, [sp, #-0x60]!
p22
sg5
L18446743798839772628L
sg6
NsS'mnem'
p23
S'STP'
p24
sS'address'
p25
S'0xffffffc0007c05d4L'
p26
sS'basicblock'
p27
Nsba(ibclass
BInstr
p28
(dp29
g2
Nsg17
S'MOV             X29, SP'
p30
sg19
S'fd030091'
p31
sg21
Vmov x29, sp
p32
sg5
L18446743798839772632L
sg6
Nsg23
S'MOV'
p33
sg25
S'0xffffffc0007c05d8L'
p34
sg27
Nsba(ibclass
BInstr
p35
(dp36
g2
Nsg17
S'STP             X19, X20, [SP,#0x50+var_40]'
p37
sg19
S'f35301a9'
p38
sg21
Vstp x19, x20, [sp, #0x10]
p39
sg5
L18446743798839772636L
sg6
Nsg23
S'STP'
p40
sg25
S'0xffffffc0007c05dcL'
p41
sg27
Nsba(ibclass
BInstr
p42
(dp43
g2
Nsg17
S'MOV             X19, X3'
p44
sg19
S'f30303aa'
p45
sg21
Vmov x19, x3
p46
sg5
L18446743798839772640L
sg6
Nsg23
S'MOV'
p47
sg25
S'0xffffffc0007c05e0L'
p48
sg27
Nsba(ibclass
BInstr
p49
(dp50
g2
Nsg17
S'ADRP            X3, #qword_FFFFFFC000E458A0@PAGE'
p51
sg19
S'233400b0'
p52
sg21
Vadrp x3, #0x685000
p53
sg5
L18446743798839772644L
sg6
Nsg23
S'ADRP'
p54
sg25
S'0xffffffc0007c05e4L'
p55
sg27
Nsba(ibclass
BInstr
p56
(dp57
g2
Nsg17
S'MOV             X20, X0'
p58
sg19
S'f40300aa'
p59
sg21
Vmov x20, x0
p60
sg5
L18446743798839772648L
sg6
Nsg23
S'MOV'
p61
sg25
S'0xffffffc0007c05e8L'
p62
sg27
Nsba(ibclass
BInstr
p63
(dp64
g2
Nsg17
S'LDR             X0, [X3,#qword_FFFFFFC000E458A0@PAGEOFF]'
p65
sg19
S'605044f9'
p66
sg21
Vldr x0, [x3, #0x8a0]
p67
sg5
L18446743798839772652L
sg6
Nsg23
S'LDR'
p68
sg25
S'0xffffffc0007c05ecL'
p69
sg27
Nsba(ibclass
BInstr
p70
(dp71
g2
Nsg17
S'STP             X21, X22, [SP,#0x50+var_30]'
p72
sg19
S'f55b02a9'
p73
sg21
Vstp x21, x22, [sp, #0x20]
p74
sg5
L18446743798839772656L
sg6
Nsg23
S'STP'
p75
sg25
S'0xffffffc0007c05f0L'
p76
sg27
Nsba(ibclass
BInstr
p77
(dp78
g2
Nsg17
S'STR             X23, [SP,#0x50+var_20]'
p79
sg19
S'f71b00f9'
p80
sg21
Vstr x23, [sp, #0x30]
p81
sg5
L18446743798839772660L
sg6
Nsg23
S'STR'
p82
sg25
S'0xffffffc0007c05f4L'
p83
sg27
Nsba(ibclass
BInstr
p84
(dp85
g2
Nsg17
S'LDR             W0, [X0]'
p86
sg19
S'000040b9'
p87
sg21
Vldr w0, [x0]
p88
sg5
L18446743798839772664L
sg6
Nsg23
S'LDR'
p89
sg25
S'0xffffffc0007c05f8L'
p90
sg27
Nsba(ibclass
BInstr
p91
(dp92
g2
Nsg17
S'STP             XZR, XZR, [X29,#0x50+var_10]'
p93
sg19
S'bf7f04a9'
p94
sg21
Vstp xzr, xzr, [x29, #0x40]
p95
sg5
L18446743798839772668L
sg6
Nsg23
S'STP'
p96
sg25
S'0xffffffc0007c05fcL'
p97
sg27
Nsba(ibclass
BInstr
p98
(dp99
g2
Nsg17
S'STP             XZR, XZR, [X29,#0x50+var_s0]'
p100
sg19
S'bf7f05a9'
p101
sg21
Vstp xzr, xzr, [x29, #0x50]
p102
sg5
L18446743798839772672L
sg6
Nsg23
S'STP'
p103
sg25
S'0xffffffc0007c0600L'
p104
sg27
Nsba(ibclass
BInstr
p105
(dp106
g2
Nsg17
S'MOV             W22, W1'
p107
sg19
S'f603012a'
p108
sg21
Vmov w22, w1
p109
sg5
L18446743798839772676L
sg6
Nsg23
S'MOV'
p110
sg25
S'0xffffffc0007c0604L'
p111
sg27
Nsba(ibclass
BInstr
p112
(dp113
g2
Nsg17
S'MOV             X21, X2'
p114
sg19
S'f50302aa'
p115
sg21
Vmov x21, x2
p116
sg5
L18446743798839772680L
sg6
Nsg23
S'MOV'
p117
sg25
S'0xffffffc0007c0608L'
p118
sg27
Nsba(ibclass
BInstr
p119
(dp120
g2
Nsg17
S'MOV             X23, X3'
p121
sg19
S'f70303aa'
p122
sg21
Vmov x23, x3
p123
sg5
L18446743798839772684L
sg6
Nsg23
S'MOV'
p124
sg25
S'0xffffffc0007c060cL'
p125
sg27
Nsba(ibclass
BInstr
p126
(dp127
g2
Nsg17
S'TBZ             W0, #3, loc_FFFFFFC0007C0638'
p128
sg19
S'40011836'
p129
sg21
Vtbz w0, #3, #0x28
p130
sg5
L18446743798839772688L
sg6
Nsg23
S'TBZ'
p131
sg25
S'0xffffffc0007c0610L'
p132
sg27
NsbasS'disasm_list'
p133
(lp134
S'STP reg9, reg0, mem!'
p135
aS'MOV reg9, SP'
p136
aS'STP reg9, reg0, mem'
p137
aS'MOV reg9, reg'
p138
aS'ADRP reg, #func@PAGE'
p139
aS'MOV reg0, reg'
p140
aS'LDR reg, mem'
p141
aS'STP reg1, reg2, mem'
p142
aS'STR reg3, mem'
p143
aS'LDR reg, mem'
p144
aS'STP XZR, XZR, mem'
p145
aS'STP XZR, XZR, mem'
p146
aS'MOV reg2, reg'
p147
aS'MOV reg1, reg'
p148
aS'MOV reg3, reg'
p149
aS'TBZ reg, #3, func'
p150
asS'end_address'
p151
Nsg5
S'0xffffffc0007c05d4L'
p152
sS'preds'
p153
(lp154
sg6
NsS'succs'
p155
(lp156
S'0xffffffc0007c0614L'
p157
aS'0xffffffc0007c0638L'
p158
asS'hash_v3'
p159
NsS'flag_v2'
p160
NsS'hash_v1'
p161
S'8352dfa628353fc26fac8ba589a6394c'
p162
sS'hash_v2'
p163
S'671830805a979a95741553510ecc5810'
p164
sS'mnen_list'
p165
(lp166
g24
ag33
ag40
ag47
ag54
ag61
ag68
ag75
ag82
ag89
ag96
ag103
ag110
ag117
ag124
ag131
asS'neighbour_disasm_list'
p167
Nsba(ibclass
BBasicBlock
p168
(dp169
g12
Nsg13
(lp170
(ibclass
BInstr
p171
(dp172
g2
Nsg17
S'ADRP            X0, #qword_FFFFFFC000E43D48@PAGE'
p173
sg19
S'003400f0'
p174
sg21
Vadrp x0, #0x683000
p175
sg5
L18446743798839772692L
sg6
Nsg23
S'ADRP'
p176
sg25
S'0xffffffc0007c0614L'
p177
sg27
Nsba(ibclass
BInstr
p178
(dp179
g2
Nsg17
S'LDR             X0, [X0,#qword_FFFFFFC000E43D48@PAGEOFF]'
p180
sg19
S'00a446f9'
p181
sg21
Vldr x0, [x0, #0xd48]
p182
sg5
L18446743798839772696L
sg6
Nsg23
S'LDR'
p183
sg25
S'0xffffffc0007c0618L'
p184
sg27
Nsba(ibclass
BInstr
p185
(dp186
g2
Nsg17
S'LDR             W0, [X0]'
p187
sg19
S'000040b9'
p188
sg21
Vldr w0, [x0]
p189
sg5
L18446743798839772700L
sg6
Nsg23
S'LDR'
p190
sg25
S'0xffffffc0007c061cL'
p191
sg27
Nsba(ibclass
BInstr
p192
(dp193
g2
Nsg17
S'CBNZ            W0, loc_FFFFFFC0007C0638'
p194
sg19
S'c0000035'
p195
sg21
Vcbnz w0, #0x18
p196
sg5
L18446743798839772704L
sg6
Nsg23
S'CBNZ'
p197
sg25
S'0xffffffc0007c0620L'
p198
sg27
Nsbasg133
(lp199
S'ADRP reg, #func@PAGE'
p200
aS'LDR reg, mem'
p201
aS'LDR reg, mem'
p202
aS'CBNZ reg, func'
p203
asg151
Nsg5
S'0xffffffc0007c0614L'
p204
sg153
(lp205
S'0xffffffc0007c05d4L'
p206
asg6
Nsg155
(lp207
S'0xffffffc0007c0624L'
p208
aS'0xffffffc0007c0638L'
p209
asg159
Nsg160
Nsg161
S'9c97521b8b0f280d47a50ec9a5e4f86f'
p210
sg163
S'bd26f8893557dc5fa132ff2490be0ebf'
p211
sg165
(lp212
g176
ag183
ag190
ag197
asg167
Nsba(ibclass
BBasicBlock
p213
(dp214
g12
Nsg13
(lp215
(ibclass
BInstr
p216
(dp217
g2
Nsg17
S'ADRP            X0, #unk_FFFFFFC0013C1BBC@PAGE'
p218
sg19
S'006000b0'
p219
sg21
Vadrp x0, #0xc01000
p220
sg5
L18446743798839772708L
sg6
Nsg23
S'ADRP'
p221
sg25
S'0xffffffc0007c0624L'
p222
sg27
Nsba(ibclass
BInstr
p223
(dp224
g2
Nsg17
S'ADRP            X1, #(aRulesDbg+6)@PAGE; "dbg"'
p225
sg19
S'e16600b0'
p226
sg21
Vadrp x1, #0xcdd000
p227
sg5
L18446743798839772712L
sg6
Nsg23
S'ADRP'
p228
sg25
S'0xffffffc0007c0628L'
p229
sg27
Nsba(ibclass
BInstr
p230
(dp231
g2
Nsg17
S'ADD             X0, X0, #unk_FFFFFFC0013C1BBC@PAGEOFF'
p232
sg19
S'00f02e91'
p233
sg21
Vadd x0, x0, #0xbbc
p234
sg5
L18446743798839772716L
sg6
Nsg23
S'ADD'
p235
sg25
S'0xffffffc0007c062cL'
p236
sg27
Nsba(ibclass
BInstr
p237
(dp238
g2
Nsg17
S'ADD             X1, X1, #(aRulesDbg+6)@PAGEOFF; "dbg"'
p239
sg19
S'21e00291'
p240
sg21
Vadd x1, x1, #0xb8
p241
sg5
L18446743798839772720L
sg6
Nsg23
S'ADD'
p242
sg25
S'0xffffffc0007c0630L'
p243
sg27
Nsba(ibclass
BInstr
p244
(dp245
g2
Nsg17
S'BL              printk'
p246
sg19
S'0db91994'
p247
sg21
Vbl #0x66e434
p248
sg5
L18446743798839772724L
sg6
Nsg23
S'BL'
p249
sg25
S'0xffffffc0007c0634L'
p250
sg27
Nsbasg133
(lp251
S'ADRP reg, #func@PAGE'
p252
aS'ADRP reg, #(aRulesDbg+6)@PAGE'
p253
aS'ADD reg, reg, #func@PAGEOFF'
p254
aS'ADD reg, reg, #(aRulesDbg+6)@PAGEOFF'
p255
aS'BL printk'
p256
asg151
Nsg5
S'0xffffffc0007c0624L'
p257
sg153
(lp258
S'0xffffffc0007c0614L'
p259
asg6
Nsg155
(lp260
S'0xffffffc0007c0638L'
p261
asg159
Nsg160
Nsg161
S'4bb3c333f0963e9d264d92b454a1960d'
p262
sg163
S'36534e33ccd44d7ab83b7abd909d3dd4'
p263
sg165
(lp264
g221
ag228
ag235
ag242
ag249
asg167
Nsba(ibclass
BBasicBlock
p265
(dp266
g12
Nsg13
(lp267
(ibclass
BInstr
p268
(dp269
g2
Nsg17
S'LDR             W2, [X19]'
p270
sg19
S'620240b9'
p271
sg21
Vldr w2, [x19]
p272
sg5
L18446743798839772728L
sg6
Nsg23
S'LDR'
p273
sg25
S'0xffffffc0007c0638L'
p274
sg27
Nsba(ibclass
BInstr
p275
(dp276
g2
Nsg17
S'CMP             W2, #0x14'
p277
sg19
S'5f500071'
p278
sg21
Vcmp w2, #0x14
p279
sg5
L18446743798839772732L
sg6
Nsg23
S'CMP'
p280
sg25
S'0xffffffc0007c063cL'
p281
sg27
Nsba(ibclass
BInstr
p282
(dp283
g2
Nsg17
S'B.EQ            loc_FFFFFFC0007C0678'
p284
sg19
S'c0010054'
p285
sg21
Vb.eq #0x38
p286
sg5
L18446743798839772736L
sg6
Nsg23
S'B'
p287
sg25
S'0xffffffc0007c0640L'
p288
sg27
Nsbasg133
(lp289
S'LDR reg, mem'
p290
aS'CMP reg, #0x14'
p291
aS'B.EQ func'
p292
asg151
Nsg5
S'0xffffffc0007c0638L'
p293
sg153
(lp294
S'0xffffffc0007c05d4L'
p295
aS'0xffffffc0007c0614L'
p296
aS'0xffffffc0007c0624L'
p297
asg6
Nsg155
(lp298
S'0xffffffc0007c0644L'
p299
aS'0xffffffc0007c0678L'
p300
asg159
Nsg160
Nsg161
S'fa4df767a85c49648339e2dc5c6807f6'
p301
sg163
S'fb3d237e3733d927f0ab5cd357ec6cf2'
p302
sg165
(lp303
g273
ag280
ag287
asg167
Nsba(ibclass
BBasicBlock
p304
(dp305
g12
Nsg13
(lp306
(ibclass
BInstr
p307
(dp308
g2
Nsg17
S'LDR             X23, [X23,#(qword_FFFFFFC000E458A0 - 0xFFFFFFC000E45000)]'
p309
sg19
S'f75244f9'
p310
sg21
Vldr x23, [x23, #0x8a0]
p311
sg5
L18446743798839772740L
sg6
Nsg23
S'LDR'
p312
sg25
S'0xffffffc0007c0644L'
p313
sg27
Nsba(ibclass
BInstr
p314
(dp315
g2
Nsg17
S'LDR             W0, [X23]'
p316
sg19
S'e00240b9'
p317
sg21
Vldr w0, [x23]
p318
sg5
L18446743798839772744L
sg6
Nsg23
S'LDR'
p319
sg25
S'0xffffffc0007c0648L'
p320
sg27
Nsba(ibclass
BInstr
p321
(dp322
g2
Nsg17
S'TBZ             W0, #0, loc_FFFFFFC0007C06AC'
p323
sg19
S'00030036'
p324
sg21
Vtbz w0, #0, #0x60
p325
sg5
L18446743798839772748L
sg6
Nsg23
S'TBZ'
p326
sg25
S'0xffffffc0007c064cL'
p327
sg27
Nsbasg133
(lp328
S'LDR reg3, mem'
p329
aS'LDR reg, mem'
p330
aS'TBZ reg, #0, func'
p331
asg151
Nsg5
S'0xffffffc0007c0644L'
p332
sg153
(lp333
S'0xffffffc0007c0638L'
p334
asg6
Nsg155
(lp335
S'0xffffffc0007c0650L'
p336
aS'0xffffffc0007c06acL'
p337
asg159
Nsg160
Nsg161
S'ac18b97d3a767be1a0530f85211830b6'
p338
sg163
S'75ec063a2363b22cbc91a8a6046ccf02'
p339
sg165
(lp340
g312
ag319
ag326
asg167
Nsba(ibclass
BBasicBlock
p341
(dp342
g12
Nsg13
(lp343
(ibclass
BInstr
p344
(dp345
g2
Nsg17
S'ADRP            X0, #qword_FFFFFFC000E43D48@PAGE'
p346
sg19
S'003400f0'
p347
sg21
Vadrp x0, #0x683000
p348
sg5
L18446743798839772752L
sg6
Nsg23
S'ADRP'
p349
sg25
S'0xffffffc0007c0650L'
p350
sg27
Nsba(ibclass
BInstr
p351
(dp352
g2
Nsg17
S'LDR             X0, [X0,#qword_FFFFFFC000E43D48@PAGEOFF]'
p353
sg19
S'00a446f9'
p354
sg21
Vldr x0, [x0, #0xd48]
p355
sg5
L18446743798839772756L
sg6
Nsg23
S'LDR'
p356
sg25
S'0xffffffc0007c0654L'
p357
sg27
Nsba(ibclass
BInstr
p358
(dp359
g2
Nsg17
S'LDR             W0, [X0]'
p360
sg19
S'000040b9'
p361
sg21
Vldr w0, [x0]
p362
sg5
L18446743798839772760L
sg6
Nsg23
S'LDR'
p363
sg25
S'0xffffffc0007c0658L'
p364
sg27
Nsba(ibclass
BInstr
p365
(dp366
g2
Nsg17
S'CBNZ            W0, loc_FFFFFFC0007C06AC'
p367
sg19
S'80020035'
p368
sg21
Vcbnz w0, #0x50
p369
sg5
L18446743798839772764L
sg6
Nsg23
S'CBNZ'
p370
sg25
S'0xffffffc0007c065cL'
p371
sg27
Nsbasg133
(lp372
S'ADRP reg, #func@PAGE'
p373
aS'LDR reg, mem'
p374
aS'LDR reg, mem'
p375
aS'CBNZ reg, func'
p376
asg151
Nsg5
S'0xffffffc0007c0650L'
p377
sg153
(lp378
S'0xffffffc0007c0644L'
p379
asg6
Nsg155
(lp380
S'0xffffffc0007c0660L'
p381
aS'0xffffffc0007c06acL'
p382
asg159
Nsg160
Nsg161
S'9c97521b8b0f280d47a50ec9a5e4f86f'
p383
sg163
S'bd26f8893557dc5fa132ff2490be0ebf'
p384
sg165
(lp385
g349
ag356
ag363
ag370
asg167
Nsba(ibclass
BBasicBlock
p386
(dp387
g12
Nsg13
(lp388
(ibclass
BInstr
p389
(dp390
g2
Nsg17
S'ADRP            X0, #unk_FFFFFFC0013C1BEF@PAGE'
p391
sg19
S'006000b0'
p392
sg21
Vadrp x0, #0xc01000
p393
sg5
L18446743798839772768L
sg6
Nsg23
S'ADRP'
p394
sg25
S'0xffffffc0007c0660L'
p395
sg27
Nsba(ibclass
BInstr
p396
(dp397
g2
Nsg17
S'ADRP            X1, #(aQcomMdssDsi_17+0x1B)@PAGE; "err"'
p398
sg19
S'615b00f0'
p399
sg21
Vadrp x1, #0xb6f000
p400
sg5
L18446743798839772772L
sg6
Nsg23
S'ADRP'
p401
sg25
S'0xffffffc0007c0664L'
p402
sg27
Nsba(ibclass
BInstr
p403
(dp404
g2
Nsg17
S'ADD             X1, X1, #(aQcomMdssDsi_17+0x1B)@PAGEOFF; "err"'
p405
sg19
S'21800091'
p406
sg21
Vadd x1, x1, #0x20
p407
sg5
L18446743798839772776L
sg6
Nsg23
S'ADD'
p408
sg25
S'0xffffffc0007c0668L'
p409
sg27
Nsba(ibclass
BInstr
p410
(dp411
g2
Nsg17
S'ADD             X0, X0, #unk_FFFFFFC0013C1BEF@PAGEOFF'
p412
sg19
S'00bc2f91'
p413
sg21
Vadd x0, x0, #0xbef
p414
sg5
L18446743798839772780L
sg6
Nsg23
S'ADD'
p415
sg25
S'0xffffffc0007c066cL'
p416
sg27
Nsba(ibclass
BInstr
p417
(dp418
g2
Nsg17
S'BL              printk'
p419
sg19
S'feb81994'
p420
sg21
Vbl #0x66e3f8
p421
sg5
L18446743798839772784L
sg6
Nsg23
S'BL'
p422
sg25
S'0xffffffc0007c0670L'
p423
sg27
Nsba(ibclass
BInstr
p424
(dp425
g2
Nsg17
S'B               loc_FFFFFFC0007C06AC'
p426
sg19
S'0e000014'
p427
sg21
Vb #0x38
p428
sg5
L18446743798839772788L
sg6
Nsg23
g287
sg25
S'0xffffffc0007c0674L'
p429
sg27
Nsbasg133
(lp430
S'ADRP reg, #func@PAGE'
p431
aS'ADRP reg, #(aQcomMdssDsi_17+0x1B)@PAGE'
p432
aS'ADD reg, reg, #(aQcomMdssDsi_17+0x1B)@PAGEOFF'
p433
aS'ADD reg, reg, #func@PAGEOFF'
p434
aS'BL printk'
p435
aS'B func'
p436
asg151
Nsg5
S'0xffffffc0007c0660L'
p437
sg153
(lp438
S'0xffffffc0007c0650L'
p439
asg6
Nsg155
(lp440
S'0xffffffc0007c06acL'
p441
asg159
Nsg160
Nsg161
S'b2a3927201f2643e37e238d870ced3c2'
p442
sg163
S'3e167cdac8f124cfbacea29ee5c30eb0'
p443
sg165
(lp444
g394
ag401
ag408
ag415
ag422
ag287
asg167
Nsba(ibclass
BBasicBlock
p445
(dp446
g12
Nsg13
(lp447
(ibclass
BInstr
p448
(dp449
g2
Nsg17
S'LDR             X0, [X21,#0x10]'
p450
sg19
S'a00a40f9'
p451
sg21
Vldr x0, [x21, #0x10]
p452
sg5
L18446743798839772792L
sg6
Nsg23
S'LDR'
p453
sg25
S'0xffffffc0007c0678L'
p454
sg27
Nsba(ibclass
BInstr
p455
(dp456
g2
Nsg17
S'STR             W22, [X29,#arg_30]'
p457
sg19
S'b64300b9'
p458
sg21
Vstr w22, [x29, #0x40]
p459
sg5
L18446743798839772796L
sg6
Nsg23
S'STR'
p460
sg25
S'0xffffffc0007c067cL'
p461
sg27
Nsba(ibclass
BInstr
p462
(dp463
g2
Nsg17
S'STR             X0, [X29,#arg_38]'
p464
sg19
S'a02700f9'
p465
sg21
Vstr x0, [x29, #0x48]
p466
sg5
L18446743798839772800L
sg6
Nsg23
S'STR'
p467
sg25
S'0xffffffc0007c0680L'
p468
sg27
Nsba(ibclass
BInstr
p469
(dp470
g2
Nsg17
S'LDR             W0, [X19,#0xC]'
p471
sg19
S'600e40b9'
p472
sg21
Vldr w0, [x19, #0xc]
p473
sg5
L18446743798839772804L
sg6
Nsg23
S'LDR'
p474
sg25
S'0xffffffc0007c0684L'
p475
sg27
Nsba(ibclass
BInstr
p476
(dp477
g2
Nsg17
S'BL              hfi_map_err_status'
p478
sg19
S'3bfeff97'
p479
sg21
Vbl #0xfffffffffffff8ec
p480
sg5
L18446743798839772808L
sg6
Nsg23
S'BL'
p481
sg25
S'0xffffffc0007c0688L'
p482
sg27
Nsba(ibclass
BInstr
p483
(dp484
g2
Nsg17
S'STR             W0, [X29,#arg_40]'
p485
sg19
S'a05300b9'
p486
sg21
Vstr w0, [x29, #0x50]
p487
sg5
L18446743798839772812L
sg6
Nsg23
S'STR'
p488
sg25
S'0xffffffc0007c068cL'
p489
sg27
Nsba(ibclass
BInstr
p490
(dp491
g2
Nsg17
S'LDR             W0, [X19,#0x10]'
p492
sg19
S'601240b9'
p493
sg21
Vldr w0, [x19, #0x10]
p494
sg5
L18446743798839772816L
sg6
Nsg23
S'LDR'
p495
sg25
S'0xffffffc0007c0690L'
p496
sg27
Nsba(ibclass
BInstr
p497
(dp498
g2
Nsg17
S'ADD             X1, X29, #0x40'
p499
sg19
S'a1030191'
p500
sg21
Vadd x1, x29, #0x40
p501
sg5
L18446743798839772820L
sg6
Nsg23
S'ADD'
p502
sg25
S'0xffffffc0007c0694L'
p503
sg27
Nsba(ibclass
BInstr
p504
(dp505
g2
Nsg17
S'STR             X0, [X29,#arg_48]'
p506
sg19
S'a02f00f9'
p507
sg21
Vstr x0, [x29, #0x58]
p508
sg5
L18446743798839772824L
sg6
Nsg23
S'STR'
p509
sg25
S'0xffffffc0007c0698L'
p510
sg27
Nsba(ibclass
BInstr
p511
(dp512
g2
Nsg17
S'MOV             W0, #4'
p513
sg19
S'80008052'
p514
sg21
Vmovz w0, #0x4
p515
sg5
L18446743798839772828L
sg6
Nsg23
S'MOV'
p516
sg25
S'0xffffffc0007c069cL'
p517
sg27
Nsba(ibclass
BInstr
p518
(dp519
g2
Nsg17
S'STR             W0, [X29,#arg_44]'
p520
sg19
S'a05700b9'
p521
sg21
Vstr w0, [x29, #0x54]
p522
sg5
L18446743798839772832L
sg6
Nsg23
S'STR'
p523
sg25
S'0xffffffc0007c06a0L'
p524
sg27
Nsba(ibclass
BInstr
p525
(dp526
g2
Nsg17
S'MOV             W0, #0x12'
p527
sg19
S'40028052'
p528
sg21
Vmovz w0, #0x12
p529
sg5
L18446743798839772836L
sg6
Nsg23
S'MOV'
p530
sg25
S'0xffffffc0007c06a4L'
p531
sg27
Nsba(ibclass
BInstr
p532
(dp533
g2
Nsg17
S'BLR             X20'
p534
sg19
S'80023fd6'
p535
sg21
Vblr x20
p536
sg5
L18446743798839772840L
sg6
Nsg23
S'BLR'
p537
sg25
S'0xffffffc0007c06a8L'
p538
sg27
Nsbasg133
(lp539
S'LDR reg, mem'
p540
aS'STR reg2, mem'
p541
aS'STR reg, mem'
p542
aS'LDR reg, mem'
p543
aS'BL hfi_map_err_status'
p544
aS'STR reg, mem'
p545
aS'LDR reg, mem'
p546
aS'ADD reg, reg9, #0x40'
p547
aS'STR reg, mem'
p548
aS'MOV reg, #4'
p549
aS'STR reg, mem'
p550
aS'MOV reg, #0x12'
p551
aS'BLR reg0'
p552
asg151
Nsg5
S'0xffffffc0007c0678L'
p553
sg153
(lp554
S'0xffffffc0007c0638L'
p555
asg6
Nsg155
(lp556
S'0xffffffc0007c06acL'
p557
asg159
Nsg160
Nsg161
S'ef10a391dfa9610887dacf18a59cbd9b'
p558
sg163
S'b9cee46aecdaf13ffa27cbfc28427737'
p559
sg165
(lp560
g453
ag460
ag467
ag474
ag481
ag488
ag495
ag502
ag509
ag516
ag523
ag530
ag537
asg167
Nsba(ibclass
BBasicBlock
p561
(dp562
g12
Nsg13
(lp563
(ibclass
BInstr
p564
(dp565
g2
Nsg17
S'LDP             X19, X20, [SP,#0x50+var_40]'
p566
sg19
S'f35341a9'
p567
sg21
Vldp x19, x20, [sp, #0x10]
p568
sg5
L18446743798839772844L
sg6
Nsg23
S'LDP'
p569
sg25
S'0xffffffc0007c06acL'
p570
sg27
Nsba(ibclass
BInstr
p571
(dp572
g2
Nsg17
S'LDP             X21, X22, [SP,#0x50+var_30]'
p573
sg19
S'f55b42a9'
p574
sg21
Vldp x21, x22, [sp, #0x20]
p575
sg5
L18446743798839772848L
sg6
Nsg23
S'LDP'
p576
sg25
S'0xffffffc0007c06b0L'
p577
sg27
Nsba(ibclass
BInstr
p578
(dp579
g2
Nsg17
S'LDR             X23, [SP,#0x50+var_20]'
p580
sg19
S'f71b40f9'
p581
sg21
Vldr x23, [sp, #0x30]
p582
sg5
L18446743798839772852L
sg6
Nsg23
S'LDR'
p583
sg25
S'0xffffffc0007c06b4L'
p584
sg27
Nsba(ibclass
BInstr
p585
(dp586
g2
Nsg17
S'LDP             X29, X30, [SP+0x50+var_50],#0x60'
p587
sg19
S'fd7bc6a8'
p588
sg21
Vldp x29, x30, [sp], #0x60
p589
sg5
L18446743798839772856L
sg6
Nsg23
S'LDP'
p590
sg25
S'0xffffffc0007c06b8L'
p591
sg27
Nsba(ibclass
BInstr
p592
(dp593
g2
Nsg17
S'RET'
p594
sg19
S'c0035fd6'
p595
sg21
Vret 
p596
sg5
L18446743798839772860L
sg6
Nsg23
S'RET'
p597
sg25
S'0xffffffc0007c06bcL'
p598
sg27
Nsbasg133
(lp599
S'LDP reg9, reg0, mem'
p600
aS'LDP reg1, reg2, mem'
p601
aS'LDR reg3, mem'
p602
aS'LDP reg9, reg0, mem,#0x60'
p603
ag594
asg151
Nsg5
S'0xffffffc0007c06acL'
p604
sg153
(lp605
S'0xffffffc0007c0644L'
p606
aS'0xffffffc0007c0650L'
p607
aS'0xffffffc0007c0660L'
p608
aS'0xffffffc0007c0678L'
p609
asg6
Nsg155
(lp610
sg159
Nsg160
Nsg161
S'1e0216626bc1d2c4a3818c295262fb77'
p611
sg163
S'9119f4ae0c00751ccc733a9ab7d08060'
p612
sg165
(lp613
g569
ag576
ag583
ag590
ag597
asg167
Nsbasb.