(ibclass
BFunc
p0
(dp1
S'hash'
p2
NsS'name'
p3
S'hfi_process_session_stop_done'
p4
sS'start_address'
p5
L18446743798839772864L
sS'flag'
p6
NsS'program'
p7
NsS'bbs'
p8
(lp9
(ibclass
BBasicBlock
p10
(dp11
S'function'
p12
NsS'binstrs'
p13
(lp14
(ibclass
BInstr
p15
(dp16
g2
NsS'disasm'
p17
S'STP             X29, X30, [SP,#-0x10+var_50]!'
p18
sS'bytes'
p19
S'fd7bbaa9'
p20
sS'disasm_striped'
p21
Vstp x29, x30, [sp, #-0x60]!
p22
sg5
L18446743798839772864L
sg6
NsS'mnem'
p23
S'STP'
p24
sS'address'
p25
S'0xffffffc0007c06c0L'
p26
sS'basicblock'
p27
Nsba(ibclass
BInstr
p28
(dp29
g2
Nsg17
S'MOV             X29, SP'
p30
sg19
S'fd030091'
p31
sg21
Vmov x29, sp
p32
sg5
L18446743798839772868L
sg6
Nsg23
S'MOV'
p33
sg25
S'0xffffffc0007c06c4L'
p34
sg27
Nsba(ibclass
BInstr
p35
(dp36
g2
Nsg17
S'ADRP            X4, #qword_FFFFFFC000E458A0@PAGE'
p37
sg19
S'243400b0'
p38
sg21
Vadrp x4, #0x685000
p39
sg5
L18446743798839772872L
sg6
Nsg23
S'ADRP'
p40
sg25
S'0xffffffc0007c06c8L'
p41
sg27
Nsba(ibclass
BInstr
p42
(dp43
g2
Nsg17
S'STP             X19, X20, [SP,#0x50+var_40]'
p44
sg19
S'f35301a9'
p45
sg21
Vstp x19, x20, [sp, #0x10]
p46
sg5
L18446743798839772876L
sg6
Nsg23
S'STP'
p47
sg25
S'0xffffffc0007c06ccL'
p48
sg27
Nsba(ibclass
BInstr
p49
(dp50
g2
Nsg17
S'MOV             X19, X0'
p51
sg19
S'f30300aa'
p52
sg21
Vmov x19, x0
p53
sg5
L18446743798839772880L
sg6
Nsg23
S'MOV'
p54
sg25
S'0xffffffc0007c06d0L'
p55
sg27
Nsba(ibclass
BInstr
p56
(dp57
g2
Nsg17
S'LDR             X0, [X4,#qword_FFFFFFC000E458A0@PAGEOFF]'
p58
sg19
S'805044f9'
p59
sg21
Vldr x0, [x4, #0x8a0]
p60
sg5
L18446743798839772884L
sg6
Nsg23
S'LDR'
p61
sg25
S'0xffffffc0007c06d4L'
p62
sg27
Nsba(ibclass
BInstr
p63
(dp64
g2
Nsg17
S'STP             X21, X22, [SP,#0x50+var_30]'
p65
sg19
S'f55b02a9'
p66
sg21
Vstp x21, x22, [sp, #0x20]
p67
sg5
L18446743798839772888L
sg6
Nsg23
S'STP'
p68
sg25
S'0xffffffc0007c06d8L'
p69
sg27
Nsba(ibclass
BInstr
p70
(dp71
g2
Nsg17
S'LDR             W0, [X0]'
p72
sg19
S'000040b9'
p73
sg21
Vldr w0, [x0]
p74
sg5
L18446743798839772892L
sg6
Nsg23
S'LDR'
p75
sg25
S'0xffffffc0007c06dcL'
p76
sg27
Nsba(ibclass
BInstr
p77
(dp78
g2
Nsg17
S'STP             XZR, XZR, [X29,#0x50+var_20]'
p79
sg19
S'bf7f03a9'
p80
sg21
Vstp xzr, xzr, [x29, #0x30]
p81
sg5
L18446743798839772896L
sg6
Nsg23
S'STP'
p82
sg25
S'0xffffffc0007c06e0L'
p83
sg27
Nsba(ibclass
BInstr
p84
(dp85
g2
Nsg17
S'STP             XZR, XZR, [X29,#0x50+var_10]'
p86
sg19
S'bf7f04a9'
p87
sg21
Vstp xzr, xzr, [x29, #0x40]
p88
sg5
L18446743798839772900L
sg6
Nsg23
S'STP'
p89
sg25
S'0xffffffc0007c06e4L'
p90
sg27
Nsba(ibclass
BInstr
p91
(dp92
g2
Nsg17
S'MOV             W21, W1'
p93
sg19
S'f503012a'
p94
sg21
Vmov w21, w1
p95
sg5
L18446743798839772904L
sg6
Nsg23
S'MOV'
p96
sg25
S'0xffffffc0007c06e8L'
p97
sg27
Nsba(ibclass
BInstr
p98
(dp99
g2
Nsg17
S'MOV             X20, X2'
p100
sg19
S'f40302aa'
p101
sg21
Vmov x20, x2
p102
sg5
L18446743798839772908L
sg6
Nsg23
S'MOV'
p103
sg25
S'0xffffffc0007c06ecL'
p104
sg27
Nsba(ibclass
BInstr
p105
(dp106
g2
Nsg17
S'MOV             X22, X4'
p107
sg19
S'f60304aa'
p108
sg21
Vmov x22, x4
p109
sg5
L18446743798839772912L
sg6
Nsg23
S'MOV'
p110
sg25
S'0xffffffc0007c06f0L'
p111
sg27
Nsba(ibclass
BInstr
p112
(dp113
g2
Nsg17
S'TBZ             W0, #3, loc_FFFFFFC0007C0724'
p114
sg19
S'80011836'
p115
sg21
Vtbz w0, #3, #0x30
p116
sg5
L18446743798839772916L
sg6
Nsg23
S'TBZ'
p117
sg25
S'0xffffffc0007c06f4L'
p118
sg27
NsbasS'disasm_list'
p119
(lp120
S'STP reg9, reg0, mem!'
p121
aS'MOV reg9, SP'
p122
aS'ADRP reg, #func@PAGE'
p123
aS'STP reg9, reg0, mem'
p124
aS'MOV reg9, reg'
p125
aS'LDR reg, mem'
p126
aS'STP reg1, reg2, mem'
p127
aS'LDR reg, mem'
p128
aS'STP XZR, XZR, mem'
p129
aS'STP XZR, XZR, mem'
p130
aS'MOV reg1, reg'
p131
aS'MOV reg0, reg'
p132
aS'MOV reg2, reg'
p133
aS'TBZ reg, #3, func'
p134
asS'end_address'
p135
Nsg5
S'0xffffffc0007c06c0L'
p136
sS'preds'
p137
(lp138
sg6
NsS'succs'
p139
(lp140
S'0xffffffc0007c06f8L'
p141
aS'0xffffffc0007c0724L'
p142
asS'hash_v3'
p143
NsS'flag_v2'
p144
NsS'hash_v1'
p145
S'6e53134e1d040ca5bee2f23d8428bd68'
p146
sS'hash_v2'
p147
S'1d24a70e5bf57670732100afb93222f2'
p148
sS'mnen_list'
p149
(lp150
g24
ag33
ag40
ag47
ag54
ag61
ag68
ag75
ag82
ag89
ag96
ag103
ag110
ag117
asS'neighbour_disasm_list'
p151
Nsba(ibclass
BBasicBlock
p152
(dp153
g12
Nsg13
(lp154
(ibclass
BInstr
p155
(dp156
g2
Nsg17
S'ADRP            X0, #qword_FFFFFFC000E43D48@PAGE'
p157
sg19
S'003400f0'
p158
sg21
Vadrp x0, #0x683000
p159
sg5
L18446743798839772920L
sg6
Nsg23
S'ADRP'
p160
sg25
S'0xffffffc0007c06f8L'
p161
sg27
Nsba(ibclass
BInstr
p162
(dp163
g2
Nsg17
S'LDR             X0, [X0,#qword_FFFFFFC000E43D48@PAGEOFF]'
p164
sg19
S'00a446f9'
p165
sg21
Vldr x0, [x0, #0xd48]
p166
sg5
L18446743798839772924L
sg6
Nsg23
S'LDR'
p167
sg25
S'0xffffffc0007c06fcL'
p168
sg27
Nsba(ibclass
BInstr
p169
(dp170
g2
Nsg17
S'LDR             W0, [X0]'
p171
sg19
S'000040b9'
p172
sg21
Vldr w0, [x0]
p173
sg5
L18446743798839772928L
sg6
Nsg23
S'LDR'
p174
sg25
S'0xffffffc0007c0700L'
p175
sg27
Nsba(ibclass
BInstr
p176
(dp177
g2
Nsg17
S'CBNZ            W0, loc_FFFFFFC0007C0724'
p178
sg19
S'00010035'
p179
sg21
Vcbnz w0, #0x20
p180
sg5
L18446743798839772932L
sg6
Nsg23
S'CBNZ'
p181
sg25
S'0xffffffc0007c0704L'
p182
sg27
Nsbasg119
(lp183
S'ADRP reg, #func@PAGE'
p184
aS'LDR reg, mem'
p185
aS'LDR reg, mem'
p186
aS'CBNZ reg, func'
p187
asg135
Nsg5
S'0xffffffc0007c06f8L'
p188
sg137
(lp189
S'0xffffffc0007c06c0L'
p190
asg6
Nsg139
(lp191
S'0xffffffc0007c0708L'
p192
aS'0xffffffc0007c0724L'
p193
asg143
Nsg144
Nsg145
S'9c97521b8b0f280d47a50ec9a5e4f86f'
p194
sg147
S'bd26f8893557dc5fa132ff2490be0ebf'
p195
sg149
(lp196
g160
ag167
ag174
ag181
asg151
Nsba(ibclass
BBasicBlock
p197
(dp198
g12
Nsg13
(lp199
(ibclass
BInstr
p200
(dp201
g2
Nsg17
S'ADRP            X0, #unk_FFFFFFC0013C1C35@PAGE'
p202
sg19
S'006000b0'
p203
sg21
Vadrp x0, #0xc01000
p204
sg5
L18446743798839772936L
sg6
Nsg23
S'ADRP'
p205
sg25
S'0xffffffc0007c0708L'
p206
sg27
Nsba(ibclass
BInstr
p207
(dp208
g2
Nsg17
S'ADRP            X1, #(aRulesDbg+6)@PAGE; "dbg"'
p209
sg19
S'e16600b0'
p210
sg21
Vadrp x1, #0xcdd000
p211
sg5
L18446743798839772940L
sg6
Nsg23
S'ADRP'
p212
sg25
S'0xffffffc0007c070cL'
p213
sg27
Nsba(ibclass
BInstr
p214
(dp215
g2
Nsg17
S'ADD             X0, X0, #unk_FFFFFFC0013C1C35@PAGEOFF'
p216
sg19
S'00d43091'
p217
sg21
Vadd x0, x0, #0xc35
p218
sg5
L18446743798839772944L
sg6
Nsg23
S'ADD'
p219
sg25
S'0xffffffc0007c0710L'
p220
sg27
Nsba(ibclass
BInstr
p221
(dp222
g2
Nsg17
S'ADD             X1, X1, #(aRulesDbg+6)@PAGEOFF; "dbg"'
p223
sg19
S'21e00291'
p224
sg21
Vadd x1, x1, #0xb8
p225
sg5
L18446743798839772948L
sg6
Nsg23
S'ADD'
p226
sg25
S'0xffffffc0007c0714L'
p227
sg27
Nsba(ibclass
BInstr
p228
(dp229
g2
Nsg17
S'STR             X3, [X29,#0x50+var_s0]'
p230
sg19
S'a32b00f9'
p231
sg21
Vstr x3, [x29, #0x50]
p232
sg5
L18446743798839772952L
sg6
Nsg23
S'STR'
p233
sg25
S'0xffffffc0007c0718L'
p234
sg27
Nsba(ibclass
BInstr
p235
(dp236
g2
Nsg17
S'BL              printk'
p237
sg19
S'd3b81994'
p238
sg21
Vbl #0x66e34c
p239
sg5
L18446743798839772956L
sg6
Nsg23
S'BL'
p240
sg25
S'0xffffffc0007c071cL'
p241
sg27
Nsba(ibclass
BInstr
p242
(dp243
g2
Nsg17
S'LDR             X3, [X29,#0x50+var_s0]'
p244
sg19
S'a32b40f9'
p245
sg21
Vldr x3, [x29, #0x50]
p246
sg5
L18446743798839772960L
sg6
Nsg23
S'LDR'
p247
sg25
S'0xffffffc0007c0720L'
p248
sg27
Nsbasg119
(lp249
S'ADRP reg, #func@PAGE'
p250
aS'ADRP reg, #(aRulesDbg+6)@PAGE'
p251
aS'ADD reg, reg, #func@PAGEOFF'
p252
aS'ADD reg, reg, #(aRulesDbg+6)@PAGEOFF'
p253
aS'STR reg, mem'
p254
aS'BL printk'
p255
aS'LDR reg, mem'
p256
asg135
Nsg5
S'0xffffffc0007c0708L'
p257
sg137
(lp258
S'0xffffffc0007c06f8L'
p259
asg6
Nsg139
(lp260
S'0xffffffc0007c0724L'
p261
asg143
Nsg144
Nsg145
S'4fef620e9f7eba3f608ec57728523200'
p262
sg147
S'89b1d0d9a1ad023f7414ba56d500ab13'
p263
sg149
(lp264
g205
ag212
ag219
ag226
ag233
ag240
ag247
asg151
Nsba(ibclass
BBasicBlock
p265
(dp266
g12
Nsg13
(lp267
(ibclass
BInstr
p268
(dp269
g2
Nsg17
S'CBZ             X3, loc_FFFFFFC0007C0734'
p270
sg19
S'830000b4'
p271
sg21
Vcbz x3, #0x10
p272
sg5
L18446743798839772964L
sg6
Nsg23
S'CBZ'
p273
sg25
S'0xffffffc0007c0724L'
p274
sg27
Nsbasg119
(lp275
S'CBZ reg, func'
p276
asg135
Nsg5
S'0xffffffc0007c0724L'
p277
sg137
(lp278
S'0xffffffc0007c06c0L'
p279
aS'0xffffffc0007c06f8L'
p280
aS'0xffffffc0007c0708L'
p281
asg6
Nsg139
(lp282
S'0xffffffc0007c0728L'
p283
aS'0xffffffc0007c0734L'
p284
asg143
Nsg144
Nsg145
S'de8e361453cf9f764a4abe9d486f8fbe'
p285
sg147
S'1f44e7b7d6ea8c93b4632bf8395c86c6'
p286
sg149
(lp287
g273
asg151
Nsba(ibclass
BBasicBlock
p288
(dp289
g12
Nsg13
(lp290
(ibclass
BInstr
p291
(dp292
g2
Nsg17
S'LDR             W0, [X3]'
p293
sg19
S'600040b9'
p294
sg21
Vldr w0, [x3]
p295
sg5
L18446743798839772968L
sg6
Nsg23
S'LDR'
p296
sg25
S'0xffffffc0007c0728L'
p297
sg27
Nsba(ibclass
BInstr
p298
(dp299
g2
Nsg17
S'CMP             W0, #0x10'
p300
sg19
S'1f400071'
p301
sg21
Vcmp w0, #0x10
p302
sg5
L18446743798839772972L
sg6
Nsg23
S'CMP'
p303
sg25
S'0xffffffc0007c072cL'
p304
sg27
Nsba(ibclass
BInstr
p305
(dp306
g2
Nsg17
S'B.EQ            loc_FFFFFFC0007C0774'
p307
sg19
S'20020054'
p308
sg21
Vb.eq #0x44
p309
sg5
L18446743798839772976L
sg6
Nsg23
S'B'
p310
sg25
S'0xffffffc0007c0730L'
p311
sg27
Nsbasg119
(lp312
S'LDR reg, mem'
p313
aS'CMP reg, #0x10'
p314
aS'B.EQ func'
p315
asg135
Nsg5
S'0xffffffc0007c0728L'
p316
sg137
(lp317
S'0xffffffc0007c0724L'
p318
asg6
Nsg139
(lp319
S'0xffffffc0007c0734L'
p320
aS'0xffffffc0007c0774L'
p321
asg143
Nsg144
Nsg145
S'fa4df767a85c49648339e2dc5c6807f6'
p322
sg147
S'709ad4fabade5546c8c153c1fed471e2'
p323
sg149
(lp324
g296
ag303
ag310
asg151
Nsba(ibclass
BBasicBlock
p325
(dp326
g12
Nsg13
(lp327
(ibclass
BInstr
p328
(dp329
g2
Nsg17
S'LDR             X22, [X22,#(qword_FFFFFFC000E458A0 - 0xFFFFFFC000E45000)]'
p330
sg19
S'd65244f9'
p331
sg21
Vldr x22, [x22, #0x8a0]
p332
sg5
L18446743798839772980L
sg6
Nsg23
S'LDR'
p333
sg25
S'0xffffffc0007c0734L'
p334
sg27
Nsba(ibclass
BInstr
p335
(dp336
g2
Nsg17
S'LDR             W0, [X22]'
p337
sg19
S'c00240b9'
p338
sg21
Vldr w0, [x22]
p339
sg5
L18446743798839772984L
sg6
Nsg23
S'LDR'
p340
sg25
S'0xffffffc0007c0738L'
p341
sg27
Nsba(ibclass
BInstr
p342
(dp343
g2
Nsg17
S'TBZ             W0, #0, loc_FFFFFFC0007C07A0'
p344
sg19
S'20030036'
p345
sg21
Vtbz w0, #0, #0x64
p346
sg5
L18446743798839772988L
sg6
Nsg23
S'TBZ'
p347
sg25
S'0xffffffc0007c073cL'
p348
sg27
Nsbasg119
(lp349
S'LDR reg2, mem'
p350
aS'LDR reg, mem'
p351
aS'TBZ reg, #0, func'
p352
asg135
Nsg5
S'0xffffffc0007c0734L'
p353
sg137
(lp354
S'0xffffffc0007c0724L'
p355
aS'0xffffffc0007c0728L'
p356
asg6
Nsg139
(lp357
S'0xffffffc0007c0740L'
p358
aS'0xffffffc0007c07a0L'
p359
asg143
Nsg144
Nsg145
S'ac18b97d3a767be1a0530f85211830b6'
p360
sg147
S'661777bb57fd04b48c40457f1d7e4dee'
p361
sg149
(lp362
g333
ag340
ag347
asg151
Nsba(ibclass
BBasicBlock
p363
(dp364
g12
Nsg13
(lp365
(ibclass
BInstr
p366
(dp367
g2
Nsg17
S'ADRP            X0, #qword_FFFFFFC000E43D48@PAGE'
p368
sg19
S'003400f0'
p369
sg21
Vadrp x0, #0x683000
p370
sg5
L18446743798839772992L
sg6
Nsg23
S'ADRP'
p371
sg25
S'0xffffffc0007c0740L'
p372
sg27
Nsba(ibclass
BInstr
p373
(dp374
g2
Nsg17
S'LDR             X0, [X0,#qword_FFFFFFC000E43D48@PAGEOFF]'
p375
sg19
S'00a446f9'
p376
sg21
Vldr x0, [x0, #0xd48]
p377
sg5
L18446743798839772996L
sg6
Nsg23
S'LDR'
p378
sg25
S'0xffffffc0007c0744L'
p379
sg27
Nsba(ibclass
BInstr
p380
(dp381
g2
Nsg17
S'LDR             W0, [X0]'
p382
sg19
S'000040b9'
p383
sg21
Vldr w0, [x0]
p384
sg5
L18446743798839773000L
sg6
Nsg23
S'LDR'
p385
sg25
S'0xffffffc0007c0748L'
p386
sg27
Nsba(ibclass
BInstr
p387
(dp388
g2
Nsg17
S'CBNZ            W0, loc_FFFFFFC0007C07A0'
p389
sg19
S'a0020035'
p390
sg21
Vcbnz w0, #0x54
p391
sg5
L18446743798839773004L
sg6
Nsg23
S'CBNZ'
p392
sg25
S'0xffffffc0007c074cL'
p393
sg27
Nsbasg119
(lp394
S'ADRP reg, #func@PAGE'
p395
aS'LDR reg, mem'
p396
aS'LDR reg, mem'
p397
aS'CBNZ reg, func'
p398
asg135
Nsg5
S'0xffffffc0007c0740L'
p399
sg137
(lp400
S'0xffffffc0007c0734L'
p401
asg6
Nsg139
(lp402
S'0xffffffc0007c0750L'
p403
aS'0xffffffc0007c07a0L'
p404
asg143
Nsg144
Nsg145
S'9c97521b8b0f280d47a50ec9a5e4f86f'
p405
sg147
S'bd26f8893557dc5fa132ff2490be0ebf'
p406
sg149
(lp407
g371
ag378
ag385
ag392
asg151
Nsba(ibclass
BBasicBlock
p408
(dp409
g12
Nsg13
(lp410
(ibclass
BInstr
p411
(dp412
g2
Nsg17
S'ADRP            X2, #__func__.31869@PAGE; "hfi_process_session_abort_done"'
p413
sg19
S'424400d0'
p414
sg21
Vadrp x2, #0x88a000
p415
sg5
L18446743798839773008L
sg6
Nsg23
S'ADRP'
p416
sg25
S'0xffffffc0007c0750L'
p417
sg27
Nsba(ibclass
BInstr
p418
(dp419
g2
Nsg17
S'ADRP            X0, #unk_FFFFFFC0013C1A74@PAGE'
p420
sg19
S'006000b0'
p421
sg21
Vadrp x0, #0xc01000
p422
sg5
L18446743798839773012L
sg6
Nsg23
S'ADRP'
p423
sg25
S'0xffffffc0007c0754L'
p424
sg27
Nsba(ibclass
BInstr
p425
(dp426
g2
Nsg17
S'ADRP            X1, #(aQcomMdssDsi_17+0x1B)@PAGE; "err"'
p427
sg19
S'615b00f0'
p428
sg21
Vadrp x1, #0xb6f000
p429
sg5
L18446743798839773016L
sg6
Nsg23
S'ADRP'
p430
sg25
S'0xffffffc0007c0758L'
p431
sg27
Nsba(ibclass
BInstr
p432
(dp433
g2
Nsg17
S'ADD             X2, X2, #__func__.31869@PAGEOFF; "hfi_process_session_abort_done"'
p434
sg19
S'42802991'
p435
sg21
Vadd x2, x2, #0xa60
p436
sg5
L18446743798839773020L
sg6
Nsg23
S'ADD'
p437
sg25
S'0xffffffc0007c075cL'
p438
sg27
Nsba(ibclass
BInstr
p439
(dp440
g2
Nsg17
S'ADD             X1, X1, #(aQcomMdssDsi_17+0x1B)@PAGEOFF; "err"'
p441
sg19
S'21800091'
p442
sg21
Vadd x1, x1, #0x20
p443
sg5
L18446743798839773024L
sg6
Nsg23
S'ADD'
p444
sg25
S'0xffffffc0007c0760L'
p445
sg27
Nsba(ibclass
BInstr
p446
(dp447
g2
Nsg17
S'ADD             X2, X2, #0x70'
p448
sg19
S'42c00191'
p449
sg21
Vadd x2, x2, #0x70
p450
sg5
L18446743798839773028L
sg6
Nsg23
S'ADD'
p451
sg25
S'0xffffffc0007c0764L'
p452
sg27
Nsba(ibclass
BInstr
p453
(dp454
g2
Nsg17
S'ADD             X0, X0, #unk_FFFFFFC0013C1A74@PAGEOFF'
p455
sg19
S'00d02991'
p456
sg21
Vadd x0, x0, #0xa74
p457
sg5
L18446743798839773032L
sg6
Nsg23
S'ADD'
p458
sg25
S'0xffffffc0007c0768L'
p459
sg27
Nsba(ibclass
BInstr
p460
(dp461
g2
Nsg17
S'BL              printk'
p462
sg19
S'bfb81994'
p463
sg21
Vbl #0x66e2fc
p464
sg5
L18446743798839773036L
sg6
Nsg23
S'BL'
p465
sg25
S'0xffffffc0007c076cL'
p466
sg27
Nsba(ibclass
BInstr
p467
(dp468
g2
Nsg17
S'B               loc_FFFFFFC0007C07A0'
p469
sg19
S'0c000014'
p470
sg21
Vb #0x30
p471
sg5
L18446743798839773040L
sg6
Nsg23
g310
sg25
S'0xffffffc0007c0770L'
p472
sg27
Nsbasg119
(lp473
S'ADRP reg, #__func__.31869@PAGE'
p474
aS'ADRP reg, #func@PAGE'
p475
aS'ADRP reg, #(aQcomMdssDsi_17+0x1B)@PAGE'
p476
aS'ADD reg, reg, #__func__.31869@PAGEOFF'
p477
aS'ADD reg, reg, #(aQcomMdssDsi_17+0x1B)@PAGEOFF'
p478
aS'ADD reg, reg, #0x70'
p479
aS'ADD reg, reg, #func@PAGEOFF'
p480
aS'BL printk'
p481
aS'B func'
p482
asg135
Nsg5
S'0xffffffc0007c0750L'
p483
sg137
(lp484
S'0xffffffc0007c0740L'
p485
asg6
Nsg139
(lp486
S'0xffffffc0007c07a0L'
p487
asg143
Nsg144
Nsg145
S'8d01fe9050abe03509e35279925e126f'
p488
sg147
S'58529153725d71c5ba5a2d5435f2e74c'
p489
sg149
(lp490
g416
ag423
ag430
ag437
ag444
ag451
ag458
ag465
ag310
asg151
Nsba(ibclass
BBasicBlock
p491
(dp492
g12
Nsg13
(lp493
(ibclass
BInstr
p494
(dp495
g2
Nsg17
S'LDR             X0, [X20,#0x10]'
p496
sg19
S'800a40f9'
p497
sg21
Vldr x0, [x20, #0x10]
p498
sg5
L18446743798839773044L
sg6
Nsg23
S'LDR'
p499
sg25
S'0xffffffc0007c0774L'
p500
sg27
Nsba(ibclass
BInstr
p501
(dp502
g2
Nsg17
S'STR             W21, [X29,#arg_20]'
p503
sg19
S'b53300b9'
p504
sg21
Vstr w21, [x29, #0x30]
p505
sg5
L18446743798839773048L
sg6
Nsg23
S'STR'
p506
sg25
S'0xffffffc0007c0778L'
p507
sg27
Nsba(ibclass
BInstr
p508
(dp509
g2
Nsg17
S'STR             X0, [X29,#arg_28]'
p510
sg19
S'a01f00f9'
p511
sg21
Vstr x0, [x29, #0x38]
p512
sg5
L18446743798839773052L
sg6
Nsg23
S'STR'
p513
sg25
S'0xffffffc0007c077cL'
p514
sg27
Nsba(ibclass
BInstr
p515
(dp516
g2
Nsg17
S'LDR             W0, [X3,#0xC]'
p517
sg19
S'600c40b9'
p518
sg21
Vldr w0, [x3, #0xc]
p519
sg5
L18446743798839773056L
sg6
Nsg23
S'LDR'
p520
sg25
S'0xffffffc0007c0780L'
p521
sg27
Nsba(ibclass
BInstr
p522
(dp523
g2
Nsg17
S'BL              hfi_map_err_status'
p524
sg19
S'fcfdff97'
p525
sg21
Vbl #0xfffffffffffff7f0
p526
sg5
L18446743798839773060L
sg6
Nsg23
S'BL'
p527
sg25
S'0xffffffc0007c0784L'
p528
sg27
Nsba(ibclass
BInstr
p529
(dp530
g2
Nsg17
S'STR             W0, [X29,#arg_30]'
p531
sg19
S'a04300b9'
p532
sg21
Vstr w0, [x29, #0x40]
p533
sg5
L18446743798839773064L
sg6
Nsg23
S'STR'
p534
sg25
S'0xffffffc0007c0788L'
p535
sg27
Nsba(ibclass
BInstr
p536
(dp537
g2
Nsg17
S'ADD             X1, X29, #0x30'
p538
sg19
S'a1c30091'
p539
sg21
Vadd x1, x29, #0x30
p540
sg5
L18446743798839773068L
sg6
Nsg23
S'ADD'
p541
sg25
S'0xffffffc0007c078cL'
p542
sg27
Nsba(ibclass
BInstr
p543
(dp544
g2
Nsg17
S'MOV             W0, #0xF'
p545
sg19
S'e0018052'
p546
sg21
Vmovz w0, #0xf
p547
sg5
L18446743798839773072L
sg6
Nsg23
S'MOV'
p548
sg25
S'0xffffffc0007c0790L'
p549
sg27
Nsba(ibclass
BInstr
p550
(dp551
g2
Nsg17
S'STR             XZR, [X29,#arg_38]'
p552
sg19
S'bf2700f9'
p553
sg21
Vstr xzr, [x29, #0x48]
p554
sg5
L18446743798839773076L
sg6
Nsg23
S'STR'
p555
sg25
S'0xffffffc0007c0794L'
p556
sg27
Nsba(ibclass
BInstr
p557
(dp558
g2
Nsg17
S'STR             WZR, [X29,#arg_34]'
p559
sg19
S'bf4700b9'
p560
sg21
Vstr wzr, [x29, #0x44]
p561
sg5
L18446743798839773080L
sg6
Nsg23
S'STR'
p562
sg25
S'0xffffffc0007c0798L'
p563
sg27
Nsba(ibclass
BInstr
p564
(dp565
g2
Nsg17
S'BLR             X19'
p566
sg19
S'60023fd6'
p567
sg21
Vblr x19
p568
sg5
L18446743798839773084L
sg6
Nsg23
S'BLR'
p569
sg25
S'0xffffffc0007c079cL'
p570
sg27
Nsbasg119
(lp571
S'LDR reg, mem'
p572
aS'STR reg1, mem'
p573
aS'STR reg, mem'
p574
aS'LDR reg, mem'
p575
aS'BL hfi_map_err_status'
p576
aS'STR reg, mem'
p577
aS'ADD reg, reg9, #0x30'
p578
aS'MOV reg, #0xF'
p579
aS'STR XZR, mem'
p580
aS'STR WZR, mem'
p581
aS'BLR reg9'
p582
asg135
Nsg5
S'0xffffffc0007c0774L'
p583
sg137
(lp584
S'0xffffffc0007c0728L'
p585
asg6
Nsg139
(lp586
S'0xffffffc0007c07a0L'
p587
asg143
Nsg144
Nsg145
S'65224f592c85712ef347a4f2a43caa0a'
p588
sg147
S'e7e1e3d3f3f6bc03d075b8e0e0102697'
p589
sg149
(lp590
g499
ag506
ag513
ag520
ag527
ag534
ag541
ag548
ag555
ag562
ag569
asg151
Nsba(ibclass
BBasicBlock
p591
(dp592
g12
Nsg13
(lp593
(ibclass
BInstr
p594
(dp595
g2
Nsg17
S'LDP             X19, X20, [SP,#0x50+var_40]'
p596
sg19
S'f35341a9'
p597
sg21
Vldp x19, x20, [sp, #0x10]
p598
sg5
L18446743798839773088L
sg6
Nsg23
S'LDP'
p599
sg25
S'0xffffffc0007c07a0L'
p600
sg27
Nsba(ibclass
BInstr
p601
(dp602
g2
Nsg17
S'LDP             X21, X22, [SP,#0x50+var_30]'
p603
sg19
S'f55b42a9'
p604
sg21
Vldp x21, x22, [sp, #0x20]
p605
sg5
L18446743798839773092L
sg6
Nsg23
S'LDP'
p606
sg25
S'0xffffffc0007c07a4L'
p607
sg27
Nsba(ibclass
BInstr
p608
(dp609
g2
Nsg17
S'LDP             X29, X30, [SP+0x50+var_50],#0x60'
p610
sg19
S'fd7bc6a8'
p611
sg21
Vldp x29, x30, [sp], #0x60
p612
sg5
L18446743798839773096L
sg6
Nsg23
S'LDP'
p613
sg25
S'0xffffffc0007c07a8L'
p614
sg27
Nsba(ibclass
BInstr
p615
(dp616
g2
Nsg17
S'RET'
p617
sg19
S'c0035fd6'
p618
sg21
Vret 
p619
sg5
L18446743798839773100L
sg6
Nsg23
S'RET'
p620
sg25
S'0xffffffc0007c07acL'
p621
sg27
Nsbasg119
(lp622
S'LDP reg9, reg0, mem'
p623
aS'LDP reg1, reg2, mem'
p624
aS'LDP reg9, reg0, mem,#0x60'
p625
ag617
asg135
Nsg5
S'0xffffffc0007c07a0L'
p626
sg137
(lp627
S'0xffffffc0007c0734L'
p628
aS'0xffffffc0007c0740L'
p629
aS'0xffffffc0007c0750L'
p630
aS'0xffffffc0007c0774L'
p631
asg6
Nsg139
(lp632
sg143
Nsg144
Nsg145
S'e506acdec8f0d1b80ba12a70d6d398f7'
p633
sg147
S'47a4ce7dd1d7cf82ef19de57a0763938'
p634
sg149
(lp635
g599
ag606
ag613
ag620
asg151
Nsbasb.