(ibclass
BFunc
p0
(dp1
S'hash'
p2
NsS'name'
p3
S'ion_handle_get'
p4
sS'start_address'
p5
L18446743798841074580L
sS'flag'
p6
NsS'program'
p7
NsS'bbs'
p8
(lp9
(ibclass
BBasicBlock
p10
(dp11
S'function'
p12
NsS'binstrs'
p13
(lp14
(ibclass
BInstr
p15
(dp16
g2
NsS'disasm'
p17
S'STP             X29, X30, [SP,#-0x10+var_10]!'
p18
sS'bytes'
p19
S'fd7bbea9'
p20
sS'disasm_striped'
p21
Vstp x29, x30, [sp, #-0x20]!
p22
sg5
L18446743798841074580L
sg6
NsS'mnem'
p23
S'STP'
p24
sS'address'
p25
S'0xffffffc0008fe394L'
p26
sS'basicblock'
p27
Nsba(ibclass
BInstr
p28
(dp29
g2
Nsg17
S'MOV             X29, SP'
p30
sg19
S'fd030091'
p31
sg21
Vmov x29, sp
p32
sg5
L18446743798841074584L
sg6
Nsg23
S'MOV'
p33
sg25
S'0xffffffc0008fe398L'
p34
sg27
Nsba(ibclass
BInstr
p35
(dp36
g2
Nsg17
S'STR             X19, [SP,#0x10+var_s0]'
p37
sg19
S'f30b00f9'
p38
sg21
Vstr x19, [sp, #0x10]
p39
sg5
L18446743798841074588L
sg6
Nsg23
S'STR'
p40
sg25
S'0xffffffc0008fe39cL'
p41
sg27
NsbasS'disasm_list'
p42
(lp43
S'STP reg9, reg0, mem!'
p44
aS'MOV reg9, SP'
p45
aS'STR reg9, mem'
p46
asS'end_address'
p47
Nsg5
S'0xffffffc0008fe394L'
p48
sS'preds'
p49
(lp50
sg6
NsS'succs'
p51
(lp52
S'0xffffffc0008fe3a0L'
p53
asS'hash_v3'
p54
NsS'flag_v2'
p55
NsS'hash_v1'
p56
S'e9bf3753b17c1a3d1a21d75c3ed8634f'
p57
sS'hash_v2'
p58
S'f5a86196c96a307d25920cf6ff17e9ac'
p59
sS'mnen_list'
p60
(lp61
g24
ag33
ag40
asS'neighbour_disasm_list'
p62
Nsba(ibclass
BBasicBlock
p63
(dp64
g12
Nsg13
(lp65
(ibclass
BInstr
p66
(dp67
g2
Nsg17
S'LDXR            W1, [X0]'
p68
sg19
S'017c5f88'
p69
sg21
Vldxr w1, [x0]
p70
sg5
L18446743798841074592L
sg6
Nsg23
S'LDXR'
p71
sg25
S'0xffffffc0008fe3a0L'
p72
sg27
Nsba(ibclass
BInstr
p73
(dp74
g2
Nsg17
S'ADD             W1, W1, #1'
p75
sg19
S'21040011'
p76
sg21
Vadd w1, w1, #1
p77
sg5
L18446743798841074596L
sg6
Nsg23
S'ADD'
p78
sg25
S'0xffffffc0008fe3a4L'
p79
sg27
Nsba(ibclass
BInstr
p80
(dp81
g2
Nsg17
S'STLXR           W2, W1, [X0]'
p82
sg19
S'01fc0288'
p83
sg21
Vstlxr w2, w1, [x0]
p84
sg5
L18446743798841074600L
sg6
Nsg23
S'STLXR'
p85
sg25
S'0xffffffc0008fe3a8L'
p86
sg27
Nsba(ibclass
BInstr
p87
(dp88
g2
Nsg17
S'CBNZ            W2, loc_FFFFFFC0008FE3A0'
p89
sg19
S'a2ffff35'
p90
sg21
Vcbnz w2, #0xfffffffffffffff4
p91
sg5
L18446743798841074604L
sg6
Nsg23
S'CBNZ'
p92
sg25
S'0xffffffc0008fe3acL'
p93
sg27
Nsbasg42
(lp94
S'LDXR reg, mem'
p95
aS'ADD reg, reg, #1'
p96
aS'STLXR reg, reg, mem'
p97
aS'CBNZ reg, func'
p98
asg47
Nsg5
S'0xffffffc0008fe3a0L'
p99
sg49
(lp100
S'0xffffffc0008fe394L'
p101
aS'0xffffffc0008fe3a0L'
p102
asg6
Nsg51
(lp103
S'0xffffffc0008fe3b0L'
p104
aS'0xffffffc0008fe3a0L'
p105
asg54
Nsg55
Nsg56
S'544e43e2d70fd4a4bf2b74eb696a63a1'
p106
sg58
S'223f04c56679d90f9e8236c88e52699f'
p107
sg60
(lp108
g71
ag78
ag85
ag92
asg62
Nsba(ibclass
BBasicBlock
p109
(dp110
g12
Nsg13
(lp111
(ibclass
BInstr
p112
(dp113
g2
Nsg17
S'DMB             ISH'
p114
sg19
S'bf3b03d5'
p115
sg21
Vdmb ish
p116
sg5
L18446743798841074608L
sg6
Nsg23
S'DMB'
p117
sg25
S'0xffffffc0008fe3b0L'
p118
sg27
Nsba(ibclass
BInstr
p119
(dp120
g2
Nsg17
S'CMP             W1, #1'
p121
sg19
S'3f040071'
p122
sg21
Vcmp w1, #1
p123
sg5
L18446743798841074612L
sg6
Nsg23
S'CMP'
p124
sg25
S'0xffffffc0008fe3b4L'
p125
sg27
Nsba(ibclass
BInstr
p126
(dp127
g2
Nsg17
S'B.GT            loc_FFFFFFC0008FE3E0'
p128
sg19
S'4c010054'
p129
sg21
Vb.gt #0x28
p130
sg5
L18446743798841074616L
sg6
Nsg23
S'B'
p131
sg25
S'0xffffffc0008fe3b8L'
p132
sg27
Nsbasg42
(lp133
S'DMB ISH'
p134
aS'CMP reg, #1'
p135
aS'B.GT func'
p136
asg47
Nsg5
S'0xffffffc0008fe3b0L'
p137
sg49
(lp138
S'0xffffffc0008fe3a0L'
p139
asg6
Nsg51
(lp140
S'0xffffffc0008fe3bcL'
p141
aS'0xffffffc0008fe3e0L'
p142
asg54
Nsg55
Nsg56
S'ebb97575e020f6df9ff5faa88a31ba41'
p143
sg58
S'9799bc88c8eb0f0625d87c8d0959abb3'
p144
sg60
(lp145
g117
ag124
ag131
asg62
Nsba(ibclass
BBasicBlock
p146
(dp147
g12
Nsg13
(lp148
(ibclass
BInstr
p149
(dp150
g2
Nsg17
S'ADRP            X19, #__warned.14367@PAGE'
p151
sg19
S'937b00d0'
p152
sg21
Vadrp x19, #0xf72000
p153
sg5
L18446743798841074620L
sg6
Nsg23
S'ADRP'
p154
sg25
S'0xffffffc0008fe3bcL'
p155
sg27
Nsba(ibclass
BInstr
p156
(dp157
g2
Nsg17
S'LDRB            W0, [X19,#__warned.14367@PAGEOFF]'
p158
sg19
S'602a7439'
p159
sg21
Vldrb w0, [x19, #0xd0a]
p160
sg5
L18446743798841074624L
sg6
Nsg23
S'LDR'
p161
sg25
S'0xffffffc0008fe3c0L'
p162
sg27
Nsba(ibclass
BInstr
p163
(dp164
g2
Nsg17
S'CBNZ            W0, loc_FFFFFFC0008FE3E0'
p165
sg19
S'e0000035'
p166
sg21
Vcbnz w0, #0x1c
p167
sg5
L18446743798841074628L
sg6
Nsg23
S'CBNZ'
p168
sg25
S'0xffffffc0008fe3c4L'
p169
sg27
Nsbasg42
(lp170
S'ADRP reg9, #__warned.14367@PAGE'
p171
aS'LDRB reg, mem'
p172
aS'CBNZ reg, func'
p173
asg47
Nsg5
S'0xffffffc0008fe3bcL'
p174
sg49
(lp175
S'0xffffffc0008fe3b0L'
p176
asg6
Nsg51
(lp177
S'0xffffffc0008fe3c8L'
p178
aS'0xffffffc0008fe3e0L'
p179
asg54
Nsg55
Nsg56
S'05f6a82d46b8bd30b16c85114e739af4'
p180
sg58
S'5fcc77f0365558812a60196b556c641e'
p181
sg60
(lp182
g154
ag161
ag168
asg62
Nsba(ibclass
BBasicBlock
p183
(dp184
g12
Nsg13
(lp185
(ibclass
BInstr
p186
(dp187
g2
Nsg17
S'ADRP            X0, #aIncludeLinuxKr@PAGE; "include/linux/kref.h"'
p188
sg19
S'604f0090'
p189
sg21
Vadrp x0, #0x9ec000
p190
sg5
L18446743798841074632L
sg6
Nsg23
S'ADRP'
p191
sg25
S'0xffffffc0008fe3c8L'
p192
sg27
Nsba(ibclass
BInstr
p193
(dp194
g2
Nsg17
S'ADD             X0, X0, #aIncludeLinuxKr@PAGEOFF; "include/linux/kref.h"'
p195
sg19
S'00ac0191'
p196
sg21
Vadd x0, x0, #0x6b
p197
sg5
L18446743798841074636L
sg6
Nsg23
S'ADD'
p198
sg25
S'0xffffffc0008fe3ccL'
p199
sg27
Nsba(ibclass
BInstr
p200
(dp201
g2
Nsg17
S'MOV             W1, #0x2F'
p202
sg19
S'e1058052'
p203
sg21
Vmovz w1, #0x2f
p204
sg5
L18446743798841074640L
sg6
Nsg23
S'MOV'
p205
sg25
S'0xffffffc0008fe3d0L'
p206
sg27
Nsba(ibclass
BInstr
p207
(dp208
g2
Nsg17
S'BL              warn_slowpath_null'
p209
sg19
S'cf78e497'
p210
sg21
Vbl #0xffffffffff91e33c
p211
sg5
L18446743798841074644L
sg6
Nsg23
S'BL'
p212
sg25
S'0xffffffc0008fe3d4L'
p213
sg27
Nsba(ibclass
BInstr
p214
(dp215
g2
Nsg17
S'MOV             W0, #1'
p216
sg19
S'20008052'
p217
sg21
Vmovz w0, #0x1
p218
sg5
L18446743798841074648L
sg6
Nsg23
S'MOV'
p219
sg25
S'0xffffffc0008fe3d8L'
p220
sg27
Nsba(ibclass
BInstr
p221
(dp222
g2
Nsg17
S'STRB            W0, [X19,#__warned.14367@PAGEOFF]'
p223
sg19
S'602a3439'
p224
sg21
Vstrb w0, [x19, #0xd0a]
p225
sg5
L18446743798841074652L
sg6
Nsg23
S'STR'
p226
sg25
S'0xffffffc0008fe3dcL'
p227
sg27
Nsbasg42
(lp228
S'ADRP reg, #aIncludeLinuxKr@PAGE'
p229
aS'ADD reg, reg, #aIncludeLinuxKr@PAGEOFF'
p230
aS'MOV reg, #0x2F'
p231
aS'BL warn_slowpath_null'
p232
aS'MOV reg, #1'
p233
aS'STRB reg, mem'
p234
asg47
Nsg5
S'0xffffffc0008fe3c8L'
p235
sg49
(lp236
S'0xffffffc0008fe3bcL'
p237
asg6
Nsg51
(lp238
S'0xffffffc0008fe3e0L'
p239
asg54
Nsg55
Nsg56
S'79060f08668cc167721a1c82a177263c'
p240
sg58
S'5a40338b509a13204543d2b198eb1c10'
p241
sg60
(lp242
g191
ag198
ag205
ag212
ag219
ag226
asg62
Nsba(ibclass
BBasicBlock
p243
(dp244
g12
Nsg13
(lp245
(ibclass
BInstr
p246
(dp247
g2
Nsg17
S'LDR             X19, [SP,#0x10+var_s0]'
p248
sg19
S'f30b40f9'
p249
sg21
Vldr x19, [sp, #0x10]
p250
sg5
L18446743798841074656L
sg6
Nsg23
S'LDR'
p251
sg25
S'0xffffffc0008fe3e0L'
p252
sg27
Nsba(ibclass
BInstr
p253
(dp254
g2
Nsg17
S'LDP             X29, X30, [SP+0x10+var_10],#0x20'
p255
sg19
S'fd7bc2a8'
p256
sg21
Vldp x29, x30, [sp], #0x20
p257
sg5
L18446743798841074660L
sg6
Nsg23
S'LDP'
p258
sg25
S'0xffffffc0008fe3e4L'
p259
sg27
Nsba(ibclass
BInstr
p260
(dp261
g2
Nsg17
S'RET'
p262
sg19
S'c0035fd6'
p263
sg21
Vret 
p264
sg5
L18446743798841074664L
sg6
Nsg23
S'RET'
p265
sg25
S'0xffffffc0008fe3e8L'
p266
sg27
Nsbasg42
(lp267
S'LDR reg9, mem'
p268
aS'LDP reg9, reg0, mem,#0x20'
p269
ag262
asg47
Nsg5
S'0xffffffc0008fe3e0L'
p270
sg49
(lp271
S'0xffffffc0008fe3b0L'
p272
aS'0xffffffc0008fe3bcL'
p273
aS'0xffffffc0008fe3c8L'
p274
asg6
Nsg51
(lp275
sg54
Nsg55
Nsg56
S'b19baa01c2af40452bf43ec402780718'
p276
sg58
S'71d92ae7a31262bdca4074e5de761511'
p277
sg60
(lp278
g251
ag258
ag265
asg62
Nsbasb.