(ibclass
BFunc
p0
(dp1
S'hash'
p2
NsS'name'
p3
S'mdss_misr_set'
p4
sS'start_address'
p5
L18446743798836609424L
sS'flag'
p6
NsS'program'
p7
NsS'bbs'
p8
(lp9
(ibclass
BBasicBlock
p10
(dp11
S'function'
p12
NsS'binstrs'
p13
(lp14
(ibclass
BInstr
p15
(dp16
g2
NsS'disasm'
p17
S'STP             X29, X30, [SP,#-0x10+var_60]!'
p18
sS'bytes'
p19
S'fd7bb9a9'
p20
sS'disasm_striped'
p21
Vstp x29, x30, [sp, #-0x70]!
p22
sg5
L18446743798836609424L
sg6
NsS'mnem'
p23
S'STP'
p24
sS'address'
p25
S'0xffffffc0004bc190L'
p26
sS'basicblock'
p27
Nsba(ibclass
BInstr
p28
(dp29
g2
Nsg17
S'MOV             X29, SP'
p30
sg19
S'fd030091'
p31
sg21
Vmov x29, sp
p32
sg5
L18446743798836609428L
sg6
Nsg23
S'MOV'
p33
sg25
S'0xffffffc0004bc194L'
p34
sg27
Nsba(ibclass
BInstr
p35
(dp36
g2
Nsg17
S'STP             X19, X20, [SP,#0x60+var_50]'
p37
sg19
S'f35301a9'
p38
sg21
Vstp x19, x20, [sp, #0x10]
p39
sg5
L18446743798836609432L
sg6
Nsg23
S'STP'
p40
sg25
S'0xffffffc0004bc198L'
p41
sg27
Nsba(ibclass
BInstr
p42
(dp43
g2
Nsg17
S'STP             X21, X22, [SP,#0x60+var_40]'
p44
sg19
S'f55b02a9'
p45
sg21
Vstp x21, x22, [sp, #0x20]
p46
sg5
L18446743798836609436L
sg6
Nsg23
S'STP'
p47
sg25
S'0xffffffc0004bc19cL'
p48
sg27
Nsba(ibclass
BInstr
p49
(dp50
g2
Nsg17
S'STP             X23, X24, [SP,#0x60+var_30]'
p51
sg19
S'f76303a9'
p52
sg21
Vstp x23, x24, [sp, #0x30]
p53
sg5
L18446743798836609440L
sg6
Nsg23
S'STP'
p54
sg25
S'0xffffffc0004bc1a0L'
p55
sg27
Nsba(ibclass
BInstr
p56
(dp57
g2
Nsg17
S'STP             X25, X26, [SP,#0x60+var_20]'
p58
sg19
S'f96b04a9'
p59
sg21
Vstp x25, x26, [sp, #0x40]
p60
sg5
L18446743798836609444L
sg6
Nsg23
S'STP'
p61
sg25
S'0xffffffc0004bc1a4L'
p62
sg27
Nsba(ibclass
BInstr
p63
(dp64
g2
Nsg17
S'STR             X27, [SP,#0x60+var_10]'
p65
sg19
S'fb2b00f9'
p66
sg21
Vstr x27, [sp, #0x50]
p67
sg5
L18446743798836609448L
sg6
Nsg23
S'STR'
p68
sg25
S'0xffffffc0004bc1a8L'
p69
sg27
Nsba(ibclass
BInstr
p70
(dp71
g2
Nsg17
S'LDR             W21, [X1]'
p72
sg19
S'350040b9'
p73
sg21
Vldr w21, [x1]
p74
sg5
L18446743798836609452L
sg6
Nsg23
S'LDR'
p75
sg25
S'0xffffffc0004bc1acL'
p76
sg27
Nsba(ibclass
BInstr
p77
(dp78
g2
Nsg17
S'MOV             X20, X0'
p79
sg19
S'f40300aa'
p80
sg21
Vmov x20, x0
p81
sg5
L18446743798836609456L
sg6
Nsg23
S'MOV'
p82
sg25
S'0xffffffc0004bc1b0L'
p83
sg27
Nsba(ibclass
BInstr
p84
(dp85
g2
Nsg17
S'CMP             W21, #5'
p86
sg19
S'bf160071'
p87
sg21
Vcmp w21, #5
p88
sg5
L18446743798836609460L
sg6
Nsg23
S'CMP'
p89
sg25
S'0xffffffc0004bc1b4L'
p90
sg27
Nsba(ibclass
BInstr
p91
(dp92
g2
Nsg17
S'MOV             X22, X1'
p93
sg19
S'f60301aa'
p94
sg21
Vmov x22, x1
p95
sg5
L18446743798836609464L
sg6
Nsg23
S'MOV'
p96
sg25
S'0xffffffc0004bc1b8L'
p97
sg27
Nsba(ibclass
BInstr
p98
(dp99
g2
Nsg17
S'MOV             X24, X2'
p100
sg19
S'f80302aa'
p101
sg21
Vmov x24, x2
p102
sg5
L18446743798836609468L
sg6
Nsg23
S'MOV'
p103
sg25
S'0xffffffc0004bc1bcL'
p104
sg27
Nsba(ibclass
BInstr
p105
(dp106
g2
Nsg17
S'B.LS            loc_FFFFFFC0004BC1D0'
p107
sg19
S'89000054'
p108
sg21
Vb.ls #0x10
p109
sg5
L18446743798836609472L
sg6
Nsg23
S'B'
p110
sg25
S'0xffffffc0004bc1c0L'
p111
sg27
NsbasS'disasm_list'
p112
(lp113
S'STP reg9, reg0, mem!'
p114
aS'MOV reg9, SP'
p115
aS'STP reg9, reg0, mem'
p116
aS'STP reg1, reg2, mem'
p117
aS'STP reg3, reg4, mem'
p118
aS'STP reg5, reg6, mem'
p119
aS'STR reg7, mem'
p120
aS'LDR reg1, mem'
p121
aS'MOV reg0, reg'
p122
aS'CMP reg1, #5'
p123
aS'MOV reg2, reg'
p124
aS'MOV reg4, reg'
p125
aS'B.LS func'
p126
asS'end_address'
p127
Nsg5
S'0xffffffc0004bc190L'
p128
sS'preds'
p129
(lp130
sg6
NsS'succs'
p131
(lp132
S'0xffffffc0004bc1c4L'
p133
aS'0xffffffc0004bc1d0L'
p134
asS'hash_v3'
p135
NsS'flag_v2'
p136
NsS'hash_v1'
p137
S'1f5b554a5d119eb7f4dee22fb22df74f'
p138
sS'hash_v2'
p139
S'f21461cd1a62520ae68e3a2301ad5408'
p140
sS'mnen_list'
p141
(lp142
g24
ag33
ag40
ag47
ag54
ag61
ag68
ag75
ag82
ag89
ag96
ag103
ag110
asS'neighbour_disasm_list'
p143
Nsba(ibclass
BBasicBlock
p144
(dp145
g12
Nsg13
(lp146
(ibclass
BInstr
p147
(dp148
g2
Nsg17
S'ADRP            X0, #unk_FFFFFFC00132AF46@PAGE'
p149
sg19
S'607300d0'
p150
sg21
Vadrp x0, #0xe6e000
p151
sg5
L18446743798836609476L
sg6
Nsg23
S'ADRP'
p152
sg25
S'0xffffffc0004bc1c4L'
p153
sg27
Nsba(ibclass
BInstr
p154
(dp155
g2
Nsg17
S'ADD             X0, X0, #unk_FFFFFFC00132AF46@PAGEOFF'
p156
sg19
S'00183d91'
p157
sg21
Vadd x0, x0, #0xf46
p158
sg5
L18446743798836609480L
sg6
Nsg23
S'ADD'
p159
sg25
S'0xffffffc0004bc1c8L'
p160
sg27
Nsba(ibclass
BInstr
p161
(dp162
g2
Nsg17
S'B               loc_FFFFFFC0004BC2D0'
p163
sg19
S'41000014'
p164
sg21
Vb #0x104
p165
sg5
L18446743798836609484L
sg6
Nsg23
g110
sg25
S'0xffffffc0004bc1ccL'
p166
sg27
Nsbasg112
(lp167
S'ADRP reg, #func@PAGE'
p168
aS'ADD reg, reg, #func@PAGEOFF'
p169
aS'B func'
p170
asg127
Nsg5
S'0xffffffc0004bc1c4L'
p171
sg129
(lp172
S'0xffffffc0004bc190L'
p173
asg6
Nsg131
(lp174
S'0xffffffc0004bc2d0L'
p175
asg135
Nsg136
Nsg137
S'fbb05d8d8f727699d69de49f56b5b4c8'
p176
sg139
S'504e84c4ef9350eb8240fe83ea7f699a'
p177
sg141
(lp178
g152
ag159
ag110
asg143
Nsba(ibclass
BBasicBlock
p179
(dp180
g12
Nsg13
(lp181
(ibclass
BInstr
p182
(dp183
g2
Nsg17
S'LDR             W2, [X0]'
p184
sg19
S'020040b9'
p185
sg21
Vldr w2, [x0]
p186
sg5
L18446743798836609488L
sg6
Nsg23
S'LDR'
p187
sg25
S'0xffffffc0004bc1d0L'
p188
sg27
Nsba(ibclass
BInstr
p189
(dp190
g2
Nsg17
S'MOV             W1, #0x1004FFFF'
p191
sg19
S'61ffbd12'
p192
sg21
Vmovn w1, #0xeffb, lsl #16
p193
sg5
L18446743798836609492L
sg6
Nsg23
S'MOV'
p194
sg25
S'0xffffffc0004bc1d4L'
p195
sg27
Nsba(ibclass
BInstr
p196
(dp197
g2
Nsg17
S'CMP             W2, W1'
p198
sg19
S'5f00016b'
p199
sg21
Vcmp w2, w1
p200
sg5
L18446743798836609496L
sg6
Nsg23
S'CMP'
p201
sg25
S'0xffffffc0004bc1d8L'
p202
sg27
Nsba(ibclass
BInstr
p203
(dp204
g2
Nsg17
S'MOV             X6, #0'
p205
sg19
S'060080d2'
p206
sg21
Vmovz x6, #0
p207
sg5
L18446743798836609500L
sg6
Nsg23
S'MOV'
p208
sg25
S'0xffffffc0004bc1dcL'
p209
sg27
Nsba(ibclass
BInstr
p210
(dp211
g2
Nsg17
S'ADRP            X25, #panel_reg@PAGE'
p212
sg19
S'b99b00f0'
p213
sg21
Vadrp x25, #0x1377000
p214
sg5
L18446743798836609504L
sg6
Nsg23
S'ADRP'
p215
sg25
S'0xffffffc0004bc1e0L'
p216
sg27
Nsba(ibclass
BInstr
p217
(dp218
g2
Nsg17
S'B.LS            loc_FFFFFFC0004BC2A4'
p219
sg19
S'09060054'
p220
sg21
Vb.ls #0xc0
p221
sg5
L18446743798836609508L
sg6
Nsg23
g110
sg25
S'0xffffffc0004bc1e4L'
p222
sg27
Nsbasg112
(lp223
S'LDR reg, mem'
p224
aS'MOV reg, #0x1004FFFF'
p225
aS'CMP reg, reg'
p226
aS'MOV reg, #0'
p227
aS'ADRP reg5, #panel_reg@PAGE'
p228
aS'B.LS func'
p229
asg127
Nsg5
S'0xffffffc0004bc1d0L'
p230
sg129
(lp231
S'0xffffffc0004bc190L'
p232
asg6
Nsg131
(lp233
S'0xffffffc0004bc1e8L'
p234
aS'0xffffffc0004bc2a4L'
p235
asg135
Nsg136
Nsg137
S'73e8c73eb30418dbf952479166001e36'
p236
sg139
S'6fc44e78dbc94b31b2386a414a9f8b6d'
p237
sg141
(lp238
g187
ag194
ag201
ag208
ag215
ag110
asg143
Nsba(ibclass
BBasicBlock
p239
(dp240
g12
Nsg13
(lp241
(ibclass
BInstr
p242
(dp243
g2
Nsg17
S'CMP             W21, #5'
p244
sg19
S'bf160071'
p245
sg21
Vcmp w21, #5
p246
sg5
L18446743798836609512L
sg6
Nsg23
S'CMP'
p247
sg25
S'0xffffffc0004bc1e8L'
p248
sg27
Nsba(ibclass
BInstr
p249
(dp250
g2
Nsg17
S'B.NE            loc_FFFFFFC0004BC218'
p251
sg19
S'61010054'
p252
sg21
Vb.ne #0x2c
p253
sg5
L18446743798836609516L
sg6
Nsg23
g110
sg25
S'0xffffffc0004bc1ecL'
p254
sg27
Nsbasg112
(lp255
S'CMP reg1, #5'
p256
aS'B.NE func'
p257
asg127
Nsg5
S'0xffffffc0004bc1e8L'
p258
sg129
(lp259
S'0xffffffc0004bc1d0L'
p260
asg6
Nsg131
(lp261
S'0xffffffc0004bc1f0L'
p262
aS'0xffffffc0004bc218L'
p263
asg135
Nsg136
Nsg137
S'c78fd620a449e3c979d3f3ec12d4ee88'
p264
sg139
S'646203944b78e174b3fe25803f23711c'
p265
sg141
(lp266
g247
ag110
asg143
Nsba(ibclass
BBasicBlock
p267
(dp268
g12
Nsg13
(lp269
(ibclass
BInstr
p270
(dp271
g2
Nsg17
S'CBZ             X24, loc_FFFFFFC0004BC268'
p272
sg19
S'd80300b4'
p273
sg21
Vcbz x24, #0x78
p274
sg5
L18446743798836609520L
sg6
Nsg23
S'CBZ'
p275
sg25
S'0xffffffc0004bc1f0L'
p276
sg27
Nsbasg112
(lp277
S'CBZ reg4, func'
p278
asg127
Nsg5
S'0xffffffc0004bc1f0L'
p279
sg129
(lp280
S'0xffffffc0004bc1e8L'
p281
asg6
Nsg131
(lp282
S'0xffffffc0004bc1f4L'
p283
aS'0xffffffc0004bc268L'
p284
asg135
Nsg136
Nsg137
S'de8e361453cf9f764a4abe9d486f8fbe'
p285
sg139
S'82d026d7867fb41c143ea243ebdac617'
p286
sg141
(lp287
g275
asg143
Nsba(ibclass
BBasicBlock
p288
(dp289
g12
Nsg13
(lp290
(ibclass
BInstr
p291
(dp292
g2
Nsg17
S'MOV             W1, W6'
p293
sg19
S'e103062a'
p294
sg21
Vmov w1, w6
p295
sg5
L18446743798836609524L
sg6
Nsg23
S'MOV'
p296
sg25
S'0xffffffc0004bc1f4L'
p297
sg27
Nsba(ibclass
BInstr
p298
(dp299
g2
Nsg17
S'MOV             X0, X24'
p300
sg19
S'e00318aa'
p301
sg21
Vmov x0, x24
p302
sg5
L18446743798836609528L
sg6
Nsg23
S'MOV'
p303
sg25
S'0xffffffc0004bc1f8L'
p304
sg27
Nsba(ibclass
BInstr
p305
(dp306
g2
Nsg17
S'STR             X6, [X29,#arg_50]'
p307
sg19
S'a63300f9'
p308
sg21
Vstr x6, [x29, #0x60]
p309
sg5
L18446743798836609532L
sg6
Nsg23
S'STR'
p310
sg25
S'0xffffffc0004bc1fcL'
p311
sg27
Nsba(ibclass
BInstr
p312
(dp313
g2
Nsg17
S'BL              mdss_mdp_mixer_get'
p314
sg19
S'4d4bff97'
p315
sg21
Vbl #0xfffffffffffd2d34
p316
sg5
L18446743798836609536L
sg6
Nsg23
S'BL'
p317
sg25
S'0xffffffc0004bc200L'
p318
sg27
Nsba(ibclass
BInstr
p319
(dp320
g2
Nsg17
S'LDR             X0, [X0,#8]'
p321
sg19
S'000440f9'
p322
sg21
Vldr x0, [x0, #8]
p323
sg5
L18446743798836609540L
sg6
Nsg23
S'LDR'
p324
sg25
S'0xffffffc0004bc204L'
p325
sg27
Nsba(ibclass
BInstr
p326
(dp327
g2
Nsg17
S'LDR             X6, [X29,#arg_50]'
p328
sg19
S'a63340f9'
p329
sg21
Vldr x6, [x29, #0x60]
p330
sg5
L18446743798836609544L
sg6
Nsg23
S'LDR'
p331
sg25
S'0xffffffc0004bc208L'
p332
sg27
Nsba(ibclass
BInstr
p333
(dp334
g2
Nsg17
S'ADD             X1, X0, #0x380'
p335
sg19
S'01000e91'
p336
sg21
Vadd x1, x0, #0x380
p337
sg5
L18446743798836609548L
sg6
Nsg23
S'ADD'
p338
sg25
S'0xffffffc0004bc20cL'
p339
sg27
Nsba(ibclass
BInstr
p340
(dp341
g2
Nsg17
S'ADD             X0, X0, #0x384'
p342
sg19
S'00100e91'
p343
sg21
Vadd x0, x0, #0x384
p344
sg5
L18446743798836609552L
sg6
Nsg23
S'ADD'
p345
sg25
S'0xffffffc0004bc210L'
p346
sg27
Nsba(ibclass
BInstr
p347
(dp348
g2
Nsg17
S'B               loc_FFFFFFC0004BC274'
p349
sg19
S'18000014'
p350
sg21
Vb #0x60
p351
sg5
L18446743798836609556L
sg6
Nsg23
g110
sg25
S'0xffffffc0004bc214L'
p352
sg27
Nsbasg112
(lp353
S'MOV reg, reg'
p354
aS'MOV reg, reg4'
p355
aS'STR reg, mem'
p356
aS'BL mdss_mdp_mixer_get'
p357
aS'LDR reg, mem'
p358
aS'LDR reg, mem'
p359
aS'ADD reg, reg, #0x380'
p360
aS'ADD reg, reg, #0x384'
p361
aS'B func'
p362
asg127
Nsg5
S'0xffffffc0004bc1f4L'
p363
sg129
(lp364
S'0xffffffc0004bc1f0L'
p365
asg6
Nsg131
(lp366
S'0xffffffc0004bc274L'
p367
asg135
Nsg136
Nsg137
S'08b693d9fb67888870d310d125183414'
p368
sg139
S'ac67701821d8aff9d01e4cc1f6b2adc8'
p369
sg141
(lp370
g296
ag303
ag310
ag317
ag324
ag331
ag338
ag345
ag110
asg143
Nsba(ibclass
BBasicBlock
p371
(dp372
g12
Nsg13
(lp373
(ibclass
BInstr
p374
(dp375
g2
Nsg17
S'CMP             W21, #4'
p376
sg19
S'bf120071'
p377
sg21
Vcmp w21, #4
p378
sg5
L18446743798836609560L
sg6
Nsg23
S'CMP'
p379
sg25
S'0xffffffc0004bc218L'
p380
sg27
Nsba(ibclass
BInstr
p381
(dp382
g2
Nsg17
S'B.EQ            loc_FFFFFFC0004BC238'
p383
sg19
S'e0000054'
p384
sg21
Vb.eq #0x1c
p385
sg5
L18446743798836609564L
sg6
Nsg23
g110
sg25
S'0xffffffc0004bc21cL'
p386
sg27
Nsbasg112
(lp387
S'CMP reg1, #4'
p388
aS'B.EQ func'
p389
asg127
Nsg5
S'0xffffffc0004bc218L'
p390
sg129
(lp391
S'0xffffffc0004bc1e8L'
p392
asg6
Nsg131
(lp393
S'0xffffffc0004bc220L'
p394
aS'0xffffffc0004bc238L'
p395
asg135
Nsg136
Nsg137
S'c78fd620a449e3c979d3f3ec12d4ee88'
p396
sg139
S'0119e94bbc134b44883a05554b4b48d6'
p397
sg141
(lp398
g379
ag110
asg143
Nsba(ibclass
BBasicBlock
p399
(dp400
g12
Nsg13
(lp401
(ibclass
BInstr
p402
(dp403
g2
Nsg17
S'MOV             W1, W21'
p404
sg19
S'e103152a'
p405
sg21
Vmov w1, w21
p406
sg5
L18446743798836609568L
sg6
Nsg23
S'MOV'
p407
sg25
S'0xffffffc0004bc220L'
p408
sg27
Nsba(ibclass
BInstr
p409
(dp410
g2
Nsg17
S'BL              mdss_mdp_get_intf_base_addr'
p411
sg19
S'50afff97'
p412
sg21
Vbl #0xfffffffffffebd40
p413
sg5
L18446743798836609572L
sg6
Nsg23
S'BL'
p414
sg25
S'0xffffffc0004bc224L'
p415
sg27
Nsba(ibclass
BInstr
p416
(dp417
g2
Nsg17
S'MOV             X6, X0'
p418
sg19
S'e60300aa'
p419
sg21
Vmov x6, x0
p420
sg5
L18446743798836609576L
sg6
Nsg23
S'MOV'
p421
sg25
S'0xffffffc0004bc228L'
p422
sg27
Nsba(ibclass
BInstr
p423
(dp424
g2
Nsg17
S'ADD             X1, X0, #0x180'
p425
sg19
S'01000691'
p426
sg21
Vadd x1, x0, #0x180
p427
sg5
L18446743798836609580L
sg6
Nsg23
S'ADD'
p428
sg25
S'0xffffffc0004bc22cL'
p429
sg27
Nsba(ibclass
BInstr
p430
(dp431
g2
Nsg17
S'ADD             X0, X0, #0x184'
p432
sg19
S'00100691'
p433
sg21
Vadd x0, x0, #0x184
p434
sg5
L18446743798836609584L
sg6
Nsg23
S'ADD'
p435
sg25
S'0xffffffc0004bc230L'
p436
sg27
Nsba(ibclass
BInstr
p437
(dp438
g2
Nsg17
S'B               loc_FFFFFFC0004BC240'
p439
sg19
S'03000014'
p440
sg21
Vb #0xc
p441
sg5
L18446743798836609588L
sg6
Nsg23
g110
sg25
S'0xffffffc0004bc234L'
p442
sg27
Nsbasg112
(lp443
S'MOV reg, reg1'
p444
aS'BL mdss_mdp_get_intf_base_addr'
p445
aS'MOV reg, reg'
p446
aS'ADD reg, reg, #0x180'
p447
aS'ADD reg, reg, #0x184'
p448
aS'B func'
p449
asg127
Nsg5
S'0xffffffc0004bc220L'
p450
sg129
(lp451
S'0xffffffc0004bc218L'
p452
asg6
Nsg131
(lp453
S'0xffffffc0004bc240L'
p454
asg135
Nsg136
Nsg137
S'7e84e885546bfbbe36bf05eb2ca60042'
p455
sg139
S'6c846511c5aa0382b48a8c1f97394883'
p456
sg141
(lp457
g407
ag414
ag421
ag428
ag435
ag110
asg143
Nsba(ibclass
BBasicBlock
p458
(dp459
g12
Nsg13
(lp460
(ibclass
BInstr
p461
(dp462
g2
Nsg17
S'MOV             X0, X6'
p463
sg19
S'e00306aa'
p464
sg21
Vmov x0, x6
p465
sg5
L18446743798836609592L
sg6
Nsg23
S'MOV'
p466
sg25
S'0xffffffc0004bc238L'
p467
sg27
Nsba(ibclass
BInstr
p468
(dp469
g2
Nsg17
S'MOV             X1, X6'
p470
sg19
S'e10306aa'
p471
sg21
Vmov x1, x6
p472
sg5
L18446743798836609596L
sg6
Nsg23
S'MOV'
p473
sg25
S'0xffffffc0004bc23cL'
p474
sg27
Nsbasg112
(lp475
S'MOV reg, reg'
p476
aS'MOV reg, reg'
p477
asg127
Nsg5
S'0xffffffc0004bc238L'
p478
sg129
(lp479
S'0xffffffc0004bc218L'
p480
asg6
Nsg131
(lp481
S'0xffffffc0004bc240L'
p482
asg135
Nsg136
Nsg137
S'9550fc5ede544c04b34283aa3b0709c7'
p483
sg139
S'069bb7da9048b3427defd253489edfd3'
p484
sg141
(lp485
g466
ag473
asg143
Nsba(ibclass
BBasicBlock
p486
(dp487
g12
Nsg13
(lp488
(ibclass
BInstr
p489
(dp490
g2
Nsg17
S'LDR             W2, [X20]'
p491
sg19
S'820240b9'
p492
sg21
Vldr w2, [x20]
p493
sg5
L18446743798836609600L
sg6
Nsg23
S'LDR'
p494
sg25
S'0xffffffc0004bc240L'
p495
sg27
Nsba(ibclass
BInstr
p496
(dp497
g2
Nsg17
S'MOV             W3, #0x10080000'
p498
sg19
S'0301a252'
p499
sg21
Vmovz w3, #0x1008, lsl #16
p500
sg5
L18446743798836609604L
sg6
Nsg23
S'MOV'
p501
sg25
S'0xffffffc0004bc244L'
p502
sg27
Nsba(ibclass
BInstr
p503
(dp504
g2
Nsg17
S'CMP             W2, W3'
p505
sg19
S'5f00036b'
p506
sg21
Vcmp w2, w3
p507
sg5
L18446743798836609608L
sg6
Nsg23
S'CMP'
p508
sg25
S'0xffffffc0004bc248L'
p509
sg27
Nsba(ibclass
BInstr
p510
(dp511
g2
Nsg17
S'B.EQ            loc_FFFFFFC0004BC25C'
p512
sg19
S'80000054'
p513
sg21
Vb.eq #0x10
p514
sg5
L18446743798836609612L
sg6
Nsg23
g110
sg25
S'0xffffffc0004bc24cL'
p515
sg27
Nsbasg112
(lp516
S'LDR reg, mem'
p517
aS'MOV reg, #address000'
p518
aS'CMP reg, reg'
p519
aS'B.EQ func'
p520
asg127
Nsg5
S'0xffffffc0004bc240L'
p521
sg129
(lp522
S'0xffffffc0004bc220L'
p523
aS'0xffffffc0004bc238L'
p524
asg6
Nsg131
(lp525
S'0xffffffc0004bc250L'
p526
aS'0xffffffc0004bc25cL'
p527
asg135
Nsg136
Nsg137
S'c12720853e5913f36fa2fd1ae3388377'
p528
sg139
S'0919d9fbd535fad098469fb0c0340174'
p529
sg141
(lp530
g494
ag501
ag508
ag110
asg143
Nsba(ibclass
BBasicBlock
p531
(dp532
g12
Nsg13
(lp533
(ibclass
BInstr
p534
(dp535
g2
Nsg17
S'MOV             W3, #0x10060000'
p536
sg19
S'c300a252'
p537
sg21
Vmovz w3, #0x1006, lsl #16
p538
sg5
L18446743798836609616L
sg6
Nsg23
S'MOV'
p539
sg25
S'0xffffffc0004bc250L'
p540
sg27
Nsba(ibclass
BInstr
p541
(dp542
g2
Nsg17
S'CMP             W2, W3'
p543
sg19
S'5f00036b'
p544
sg21
Vcmp w2, w3
p545
sg5
L18446743798836609620L
sg6
Nsg23
S'CMP'
p546
sg25
S'0xffffffc0004bc254L'
p547
sg27
Nsba(ibclass
BInstr
p548
(dp549
g2
Nsg17
S'B.NE            loc_FFFFFFC0004BC274'
p550
sg19
S'e1000054'
p551
sg21
Vb.ne #0x1c
p552
sg5
L18446743798836609624L
sg6
Nsg23
g110
sg25
S'0xffffffc0004bc258L'
p553
sg27
Nsbasg112
(lp554
S'MOV reg, #address000'
p555
aS'CMP reg, reg'
p556
aS'B.NE func'
p557
asg127
Nsg5
S'0xffffffc0004bc250L'
p558
sg129
(lp559
S'0xffffffc0004bc240L'
p560
asg6
Nsg131
(lp561
S'0xffffffc0004bc25cL'
p562
aS'0xffffffc0004bc274L'
p563
asg135
Nsg136
Nsg137
S'70a81b069f66193ebcd10783eac8e787'
p564
sg139
S'5eae270da4155860e3d542002f1b750f'
p565
sg141
(lp566
g539
ag546
ag110
asg143
Nsba(ibclass
BBasicBlock
p567
(dp568
g12
Nsg13
(lp569
(ibclass
BInstr
p570
(dp571
g2
Nsg17
S'ADD             X1, X1, #0x10'
p572
sg19
S'21400091'
p573
sg21
Vadd x1, x1, #0x10
p574
sg5
L18446743798836609628L
sg6
Nsg23
S'ADD'
p575
sg25
S'0xffffffc0004bc25cL'
p576
sg27
Nsba(ibclass
BInstr
p577
(dp578
g2
Nsg17
S'ADD             X0, X0, #0x10'
p579
sg19
S'00400091'
p580
sg21
Vadd x0, x0, #0x10
p581
sg5
L18446743798836609632L
sg6
Nsg23
S'ADD'
p582
sg25
S'0xffffffc0004bc260L'
p583
sg27
Nsba(ibclass
BInstr
p584
(dp585
g2
Nsg17
S'B               loc_FFFFFFC0004BC274'
p586
sg19
S'04000014'
p587
sg21
Vb #0x10
p588
sg5
L18446743798836609636L
sg6
Nsg23
g110
sg25
S'0xffffffc0004bc264L'
p589
sg27
Nsbasg112
(lp590
S'ADD reg, reg, #0x10'
p591
aS'ADD reg, reg, #0x10'
p592
aS'B func'
p593
asg127
Nsg5
S'0xffffffc0004bc25cL'
p594
sg129
(lp595
S'0xffffffc0004bc240L'
p596
aS'0xffffffc0004bc250L'
p597
asg6
Nsg131
(lp598
S'0xffffffc0004bc274L'
p599
asg135
Nsg136
Nsg137
S'66daf27747737d8e2f7c125a789fa03f'
p600
sg139
S'4919298ad212881dc85254faafe14400'
p601
sg141
(lp602
g575
ag582
ag110
asg143
Nsba(ibclass
BBasicBlock
p603
(dp604
g12
Nsg13
(lp605
(ibclass
BInstr
p606
(dp607
g2
Nsg17
S'MOV             X6, X24'
p608
sg19
S'e60318aa'
p609
sg21
Vmov x6, x24
p610
sg5
L18446743798836609640L
sg6
Nsg23
S'MOV'
p611
sg25
S'0xffffffc0004bc268L'
p612
sg27
Nsba(ibclass
BInstr
p613
(dp614
g2
Nsg17
S'MOV             X0, X24'
p615
sg19
S'e00318aa'
p616
sg21
Vmov x0, x24
p617
sg5
L18446743798836609644L
sg6
Nsg23
S'MOV'
p618
sg25
S'0xffffffc0004bc26cL'
p619
sg27
Nsba(ibclass
BInstr
p620
(dp621
g2
Nsg17
S'MOV             X1, X24'
p622
sg19
S'e10318aa'
p623
sg21
Vmov x1, x24
p624
sg5
L18446743798836609648L
sg6
Nsg23
S'MOV'
p625
sg25
S'0xffffffc0004bc270L'
p626
sg27
Nsbasg112
(lp627
S'MOV reg, reg4'
p628
aS'MOV reg, reg4'
p629
aS'MOV reg, reg4'
p630
asg127
Nsg5
S'0xffffffc0004bc268L'
p631
sg129
(lp632
S'0xffffffc0004bc1f0L'
p633
asg6
Nsg131
(lp634
S'0xffffffc0004bc274L'
p635
asg135
Nsg136
Nsg137
S'a0d1ef45ab3bcd8bca0bb7a5bc71fdc4'
p636
sg139
S'8f77a6ee9186cbb8ad364aced7f50a3c'
p637
sg141
(lp638
g611
ag618
ag625
asg143
Nsba(ibclass
BBasicBlock
p639
(dp640
g12
Nsg13
(lp641
(ibclass
BInstr
p642
(dp643
g2
Nsg17
S'LDR             X5, [X20,#0xA0]'
p644
sg19
S'855240f9'
p645
sg21
Vldr x5, [x20, #0xa0]
p646
sg5
L18446743798836609652L
sg6
Nsg23
S'LDR'
p647
sg25
S'0xffffffc0004bc274L'
p648
sg27
Nsba(ibclass
BInstr
p649
(dp650
g2
Nsg17
S'MOV             W4, W21'
p651
sg19
S'e403152a'
p652
sg21
Vmov w4, w21
p653
sg5
L18446743798836609656L
sg6
Nsg23
S'MOV'
p654
sg25
S'0xffffffc0004bc278L'
p655
sg27
Nsba(ibclass
BInstr
p656
(dp657
g2
Nsg17
S'ADD             X3, X25, #panel_reg@PAGEOFF'
p658
sg19
S'23832791'
p659
sg21
Vadd x3, x25, #0x9e0
p660
sg5
L18446743798836609660L
sg6
Nsg23
S'ADD'
p661
sg25
S'0xffffffc0004bc27cL'
p662
sg27
Nsba(ibclass
BInstr
p663
(dp664
g2
Nsg17
S'MOV             X2, #0x140'
p665
sg19
S'022880d2'
p666
sg21
Vmovz x2, #0x140
p667
sg5
L18446743798836609664L
sg6
Nsg23
S'MOV'
p668
sg25
S'0xffffffc0004bc280L'
p669
sg27
Nsba(ibclass
BInstr
p670
(dp671
g2
Nsg17
S'ADD             X3, X3, #8'
p672
sg19
S'63200091'
p673
sg21
Vadd x3, x3, #8
p674
sg5
L18446743798836609668L
sg6
Nsg23
S'ADD'
p675
sg25
S'0xffffffc0004bc284L'
p676
sg27
Nsba(ibclass
BInstr
p677
(dp678
g2
Nsg17
S'MADD            X2, X4, X2, XZR'
p679
sg19
S'827c029b'
p680
sg21
Vmul x2, x4, x2
p681
sg5
L18446743798836609672L
sg6
Nsg23
S'MADD'
p682
sg25
S'0xffffffc0004bc288L'
p683
sg27
Nsba(ibclass
BInstr
p684
(dp685
g2
Nsg17
S'SUB             X1, X1, X5'
p686
sg19
S'210005cb'
p687
sg21
Vsub x1, x1, x5
p688
sg5
L18446743798836609676L
sg6
Nsg23
S'SUB'
p689
sg25
S'0xffffffc0004bc28cL'
p690
sg27
Nsba(ibclass
BInstr
p691
(dp692
g2
Nsg17
S'STR             W1, [X3,X2]'
p693
sg19
S'616822b8'
p694
sg21
Vstr w1, [x3, x2]
p695
sg5
L18446743798836609680L
sg6
Nsg23
S'STR'
p696
sg25
S'0xffffffc0004bc290L'
p697
sg27
Nsba(ibclass
BInstr
p698
(dp699
g2
Nsg17
S'LDR             X1, [X20,#0xA0]'
p700
sg19
S'815240f9'
p701
sg21
Vldr x1, [x20, #0xa0]
p702
sg5
L18446743798836609684L
sg6
Nsg23
S'LDR'
p703
sg25
S'0xffffffc0004bc294L'
p704
sg27
Nsba(ibclass
BInstr
p705
(dp706
g2
Nsg17
S'ADD             X4, X3, X2'
p707
sg19
S'6400028b'
p708
sg21
Vadd x4, x3, x2
p709
sg5
L18446743798836609688L
sg6
Nsg23
S'ADD'
p710
sg25
S'0xffffffc0004bc298L'
p711
sg27
Nsba(ibclass
BInstr
p712
(dp713
g2
Nsg17
S'SUB             X0, X0, X1'
p714
sg19
S'000001cb'
p715
sg21
Vsub x0, x0, x1
p716
sg5
L18446743798836609692L
sg6
Nsg23
S'SUB'
p717
sg25
S'0xffffffc0004bc29cL'
p718
sg27
Nsba(ibclass
BInstr
p719
(dp720
g2
Nsg17
S'STR             W0, [X4,#4]'
p721
sg19
S'800400b9'
p722
sg21
Vstr w0, [x4, #4]
p723
sg5
L18446743798836609696L
sg6
Nsg23
S'STR'
p724
sg25
S'0xffffffc0004bc2a0L'
p725
sg27
Nsbasg112
(lp726
S'LDR reg, mem'
p727
aS'MOV reg, reg1'
p728
aS'ADD reg, reg5, #panel_reg@PAGEOFF'
p729
aS'MOV reg, #0x140'
p730
aS'ADD reg, reg, #8'
p731
aS'MADD reg, reg, reg, XZR'
p732
aS'SUB reg, reg, reg'
p733
aS'STR reg, mem'
p734
aS'LDR reg, mem'
p735
aS'ADD reg, reg, reg'
p736
aS'SUB reg, reg, reg'
p737
aS'STR reg, mem'
p738
asg127
Nsg5
S'0xffffffc0004bc274L'
p739
sg129
(lp740
S'0xffffffc0004bc1f4L'
p741
aS'0xffffffc0004bc250L'
p742
aS'0xffffffc0004bc25cL'
p743
aS'0xffffffc0004bc268L'
p744
asg6
Nsg131
(lp745
S'0xffffffc0004bc2a4L'
p746
asg135
Nsg136
Nsg137
S'35d73f8016ef077e572b38195a28ce8e'
p747
sg139
S'b48ebabe3607c21ddad085f631204d69'
p748
sg141
(lp749
g647
ag654
ag661
ag668
ag675
ag682
ag689
ag696
ag703
ag710
ag717
ag724
asg143
Nsba(ibclass
BBasicBlock
p750
(dp751
g12
Nsg13
(lp752
(ibclass
BInstr
p753
(dp754
g2
Nsg17
S'ADD             X25, X25, #panel_reg@PAGEOFF'
p755
sg19
S'39832791'
p756
sg21
Vadd x25, x25, #0x9e0
p757
sg5
L18446743798836609700L
sg6
Nsg23
S'ADD'
p758
sg25
S'0xffffffc0004bc2a4L'
p759
sg27
Nsba(ibclass
BInstr
p760
(dp761
g2
Nsg17
S'MOV             W26, #0x140'
p762
sg19
S'1a288052'
p763
sg21
Vmovz w26, #0x140
p764
sg5
L18446743798836609704L
sg6
Nsg23
S'MOV'
p765
sg25
S'0xffffffc0004bc2a8L'
p766
sg27
Nsba(ibclass
BInstr
p767
(dp768
g2
Nsg17
S'ADD             X25, X25, #8'
p769
sg19
S'39230091'
p770
sg21
Vadd x25, x25, #8
p771
sg5
L18446743798836609708L
sg6
Nsg23
S'ADD'
p772
sg25
S'0xffffffc0004bc2acL'
p773
sg27
Nsba(ibclass
BInstr
p774
(dp775
g2
Nsg17
S'UMADDL          X26, W21, W26, XZR'
p776
sg19
S'ba7eba9b'
p777
sg21
Vumull x26, w21, w26
p778
sg5
L18446743798836609712L
sg6
Nsg23
S'UMADDL'
p779
sg25
S'0xffffffc0004bc2b0L'
p780
sg27
Nsba(ibclass
BInstr
p781
(dp782
g2
Nsg17
S'LDR             W4, [X25,X26]'
p783
sg19
S'246b7ab8'
p784
sg21
Vldr w4, [x25, x26]
p785
sg5
L18446743798836609716L
sg6
Nsg23
S'LDR'
p786
sg25
S'0xffffffc0004bc2b4L'
p787
sg27
Nsba(ibclass
BInstr
p788
(dp789
g2
Nsg17
S'ADD             X19, X25, X26'
p790
sg19
S'33031a8b'
p791
sg21
Vadd x19, x25, x26
p792
sg5
L18446743798836609720L
sg6
Nsg23
S'ADD'
p793
sg25
S'0xffffffc0004bc2b8L'
p794
sg27
Nsba(ibclass
BInstr
p795
(dp796
g2
Nsg17
S'CBZ             W4, loc_FFFFFFC0004BC2C8'
p797
sg19
S'64000034'
p798
sg21
Vcbz w4, #0xc
p799
sg5
L18446743798836609724L
sg6
Nsg23
S'CBZ'
p800
sg25
S'0xffffffc0004bc2bcL'
p801
sg27
Nsbasg112
(lp802
S'ADD reg5, reg5, #panel_reg@PAGEOFF'
p803
aS'MOV reg6, #0x140'
p804
aS'ADD reg5, reg5, #8'
p805
aS'UMADDL reg6, reg1, reg6, XZR'
p806
aS'LDR reg, mem'
p807
aS'ADD reg9, reg5, reg6'
p808
aS'CBZ reg, func'
p809
asg127
Nsg5
S'0xffffffc0004bc2a4L'
p810
sg129
(lp811
S'0xffffffc0004bc1d0L'
p812
aS'0xffffffc0004bc274L'
p813
asg6
Nsg131
(lp814
S'0xffffffc0004bc2c0L'
p815
aS'0xffffffc0004bc2c8L'
p816
asg135
Nsg136
Nsg137
S'782c6bb173eda77fd9f2b005af23eeb9'
p817
sg139
S'ff31285c87cb21f30943b88f914c43dc'
p818
sg141
(lp819
g758
ag765
ag772
ag779
ag786
ag793
ag800
asg143
Nsba(ibclass
BBasicBlock
p820
(dp821
g12
Nsg13
(lp822
(ibclass
BInstr
p823
(dp824
g2
Nsg17
S'LDR             W5, [X19,#4]'
p825
sg19
S'650640b9'
p826
sg21
Vldr w5, [x19, #4]
p827
sg5
L18446743798836609728L
sg6
Nsg23
S'LDR'
p828
sg25
S'0xffffffc0004bc2c0L'
p829
sg27
Nsba(ibclass
BInstr
p830
(dp831
g2
Nsg17
S'CBNZ            W5, loc_FFFFFFC0004BC2E8'
p832
sg19
S'25010035'
p833
sg21
Vcbnz w5, #0x24
p834
sg5
L18446743798836609732L
sg6
Nsg23
S'CBNZ'
p835
sg25
S'0xffffffc0004bc2c4L'
p836
sg27
Nsbasg112
(lp837
S'LDR reg, mem'
p838
aS'CBNZ reg, func'
p839
asg127
Nsg5
S'0xffffffc0004bc2c0L'
p840
sg129
(lp841
S'0xffffffc0004bc2a4L'
p842
asg6
Nsg131
(lp843
S'0xffffffc0004bc2c8L'
p844
aS'0xffffffc0004bc2e8L'
p845
asg135
Nsg136
Nsg137
S'5522ad3e8b25e3a8f9013bb9571723e7'
p846
sg139
S'7604765c3c810c2510cc031abcc4f1e2'
p847
sg141
(lp848
g828
ag835
asg143
Nsba(ibclass
BBasicBlock
p849
(dp850
g12
Nsg13
(lp851
(ibclass
BInstr
p852
(dp853
g2
Nsg17
S'ADRP            X0, #unk_FFFFFFC00132AF6D@PAGE'
p854
sg19
S'607300d0'
p855
sg21
Vadrp x0, #0xe6e000
p856
sg5
L18446743798836609736L
sg6
Nsg23
S'ADRP'
p857
sg25
S'0xffffffc0004bc2c8L'
p858
sg27
Nsba(ibclass
BInstr
p859
(dp860
g2
Nsg17
S'ADD             X0, X0, #unk_FFFFFFC00132AF6D@PAGEOFF'
p861
sg19
S'00b43d91'
p862
sg21
Vadd x0, x0, #0xf6d
p863
sg5
L18446743798836609740L
sg6
Nsg23
S'ADD'
p864
sg25
S'0xffffffc0004bc2ccL'
p865
sg27
Nsbasg112
(lp866
S'ADRP reg, #func@PAGE'
p867
aS'ADD reg, reg, #func@PAGEOFF'
p868
asg127
Nsg5
S'0xffffffc0004bc2c8L'
p869
sg129
(lp870
S'0xffffffc0004bc2a4L'
p871
aS'0xffffffc0004bc2c0L'
p872
asg6
Nsg131
(lp873
S'0xffffffc0004bc2d0L'
p874
asg135
Nsg136
Nsg137
S'4c330fd47d9d30794e360f434bcba16f'
p875
sg139
S'5d0c12c1c2f0dc35884d116bfd571de9'
p876
sg141
(lp877
g857
ag864
asg143
Nsba(ibclass
BBasicBlock
p878
(dp879
g12
Nsg13
(lp880
(ibclass
BInstr
p881
(dp882
g2
Nsg17
S'ADRP            X1, #__func__.26831@PAGE; "panel_debug_base_offset_write"'
p883
sg19
S'215b00d0'
p884
sg21
Vadrp x1, #0xb66000
p885
sg5
L18446743798836609744L
sg6
Nsg23
S'ADRP'
p886
sg25
S'0xffffffc0004bc2d0L'
p887
sg27
Nsba(ibclass
BInstr
p888
(dp889
g2
Nsg17
S'ADD             X1, X1, #__func__.26831@PAGEOFF; "panel_debug_base_offset_write"'
p890
sg19
S'21e01691'
p891
sg21
Vadd x1, x1, #0x5b8
p892
sg5
L18446743798836609748L
sg6
Nsg23
S'ADD'
p893
sg25
S'0xffffffc0004bc2d4L'
p894
sg27
Nsba(ibclass
BInstr
p895
(dp896
g2
Nsg17
S'ADD             X1, X1, #0x230'
p897
sg19
S'21c00891'
p898
sg21
Vadd x1, x1, #0x230
p899
sg5
L18446743798836609752L
sg6
Nsg23
S'ADD'
p900
sg25
S'0xffffffc0004bc2d8L'
p901
sg27
Nsba(ibclass
BInstr
p902
(dp903
g2
Nsg17
S'MOV             W2, W21'
p904
sg19
S'e203152a'
p905
sg21
Vmov w2, w21
p906
sg5
L18446743798836609756L
sg6
Nsg23
S'MOV'
p907
sg25
S'0xffffffc0004bc2dcL'
p908
sg27
Nsba(ibclass
BInstr
p909
(dp910
g2
Nsg17
S'BL              printk'
p911
sg19
S'e2c92594'
p912
sg21
Vbl #0x972788
p913
sg5
L18446743798836609760L
sg6
Nsg23
S'BL'
p914
sg25
S'0xffffffc0004bc2e0L'
p915
sg27
Nsba(ibclass
BInstr
p916
(dp917
g2
Nsg17
S'B               loc_FFFFFFC0004BC31C'
p918
sg19
S'0e000014'
p919
sg21
Vb #0x38
p920
sg5
L18446743798836609764L
sg6
Nsg23
g110
sg25
S'0xffffffc0004bc2e4L'
p921
sg27
Nsbasg112
(lp922
S'ADRP reg, #__func__.26831@PAGE'
p923
aS'ADD reg, reg, #__func__.26831@PAGEOFF'
p924
aS'ADD reg, reg, #0x230'
p925
aS'MOV reg, reg1'
p926
aS'BL printk'
p927
aS'B func'
p928
asg127
Nsg5
S'0xffffffc0004bc2d0L'
p929
sg129
(lp930
S'0xffffffc0004bc1c4L'
p931
aS'0xffffffc0004bc2c8L'
p932
asg6
Nsg131
(lp933
S'0xffffffc0004bc31cL'
p934
asg135
Nsg136
Nsg137
S'91f3e35adba853ec17b0fdcab7960f65'
p935
sg139
S'3b18aa12b065b33a6ee91878e442cdbf'
p936
sg141
(lp937
g886
ag893
ag900
ag907
ag914
ag110
asg143
Nsba(ibclass
BBasicBlock
p938
(dp939
g12
Nsg13
(lp940
(ibclass
BInstr
p941
(dp942
g2
Nsg17
S'ADRP            X23, #descriptor.26830@PAGE'
p943
sg19
S'379e0090'
p944
sg21
Vadrp x23, #0x13c4000
p945
sg5
L18446743798836609768L
sg6
Nsg23
S'ADRP'
p946
sg25
S'0xffffffc0004bc2e8L'
p947
sg27
Nsba(ibclass
BInstr
p948
(dp949
g2
Nsg17
S'ADD             X0, X23, #descriptor.26830@PAGEOFF'
p950
sg19
S'e0022391'
p951
sg21
Vadd x0, x23, #0x8c0
p952
sg5
L18446743798836609772L
sg6
Nsg23
S'ADD'
p953
sg25
S'0xffffffc0004bc2ecL'
p954
sg27
Nsba(ibclass
BInstr
p955
(dp956
g2
Nsg17
S'ADD             X0, X0, #0x2D0'
p957
sg19
S'00400b91'
p958
sg21
Vadd x0, x0, #0x2d0
p959
sg5
L18446743798836609776L
sg6
Nsg23
S'ADD'
p960
sg25
S'0xffffffc0004bc2f0L'
p961
sg27
Nsba(ibclass
BInstr
p962
(dp963
g2
Nsg17
S'LDRH            W1, [X0,#(word_FFFFFFC001880BB2 - 0xFFFFFFC001880B90)]'
p964
sg19
S'01444079'
p965
sg21
Vldrh w1, [x0, #0x22]
p966
sg5
L18446743798836609780L
sg6
Nsg23
S'LDR'
p967
sg25
S'0xffffffc0004bc2f4L'
p968
sg27
Nsba(ibclass
BInstr
p969
(dp970
g2
Nsg17
S'TBZ             W1, #2, loc_FFFFFFC0004BC318'
p971
sg19
S'01011036'
p972
sg21
Vtbz w1, #2, #0x20
p973
sg5
L18446743798836609784L
sg6
Nsg23
S'TBZ'
p974
sg25
S'0xffffffc0004bc2f8L'
p975
sg27
Nsbasg112
(lp976
S'ADRP reg3, #descriptor.26830@PAGE'
p977
aS'ADD reg, reg3, #descriptor.26830@PAGEOFF'
p978
aS'ADD reg, reg, #0x2D0'
p979
aS'LDRH reg, mem'
p980
aS'TBZ reg, #2, func'
p981
asg127
Nsg5
S'0xffffffc0004bc2e8L'
p982
sg129
(lp983
S'0xffffffc0004bc2c0L'
p984
asg6
Nsg131
(lp985
S'0xffffffc0004bc2fcL'
p986
aS'0xffffffc0004bc318L'
p987
asg135
Nsg136
Nsg137
S'6587a2c05df004845eaae6fa4bb61607'
p988
sg139
S'20ab72e31a30010b9f346d2e53b85bc7'
p989
sg141
(lp990
g946
ag953
ag960
ag967
ag974
asg143
Nsba(ibclass
BBasicBlock
p991
(dp992
g12
Nsg13
(lp993
(ibclass
BInstr
p994
(dp995
g2
Nsg17
S'ADRP            X2, #__func__.26831@PAGE; "panel_debug_base_offset_write"'
p996
sg19
S'225b00d0'
p997
sg21
Vadrp x2, #0xb66000
p998
sg5
L18446743798836609788L
sg6
Nsg23
S'ADRP'
p999
sg25
S'0xffffffc0004bc2fcL'
p1000
sg27
Nsba(ibclass
BInstr
p1001
(dp1002
g2
Nsg17
S'ADRP            X1, #aSMisrModuleDCt@PAGE; "%s: MISR Module(%d) CTRL(0x%x) SIG(0x%x"...'
p1003
sg19
S'617300d0'
p1004
sg21
Vadrp x1, #0xe6e000
p1005
sg5
L18446743798836609792L
sg6
Nsg23
S'ADRP'
p1006
sg25
S'0xffffffc0004bc300L'
p1007
sg27
Nsba(ibclass
BInstr
p1008
(dp1009
g2
Nsg17
S'ADD             X2, X2, #__func__.26831@PAGEOFF; "panel_debug_base_offset_write"'
p1010
sg19
S'42e01691'
p1011
sg21
Vadd x2, x2, #0x5b8
p1012
sg5
L18446743798836609796L
sg6
Nsg23
S'ADD'
p1013
sg25
S'0xffffffc0004bc304L'
p1014
sg27
Nsba(ibclass
BInstr
p1015
(dp1016
g2
Nsg17
S'ADD             X1, X1, #aSMisrModuleDCt@PAGEOFF; "%s: MISR Module(%d) CTRL(0x%x) SIG(0x%x"...'
p1017
sg19
S'21603e91'
p1018
sg21
Vadd x1, x1, #0xf98
p1019
sg5
L18446743798836609800L
sg6
Nsg23
S'ADD'
p1020
sg25
S'0xffffffc0004bc308L'
p1021
sg27
Nsba(ibclass
BInstr
p1022
(dp1023
g2
Nsg17
S'ADD             X2, X2, #0x230'
p1024
sg19
S'42c00891'
p1025
sg21
Vadd x2, x2, #0x230
p1026
sg5
L18446743798836609804L
sg6
Nsg23
S'ADD'
p1027
sg25
S'0xffffffc0004bc30cL'
p1028
sg27
Nsba(ibclass
BInstr
p1029
(dp1030
g2
Nsg17
S'MOV             W3, W21'
p1031
sg19
S'e303152a'
p1032
sg21
Vmov w3, w21
p1033
sg5
L18446743798836609808L
sg6
Nsg23
S'MOV'
p1034
sg25
S'0xffffffc0004bc310L'
p1035
sg27
Nsba(ibclass
BInstr
p1036
(dp1037
g2
Nsg17
S'BL              __dynamic_pr_debug'
p1038
sg19
S'a50bfe97'
p1039
sg21
Vbl #0xfffffffffff82e94
p1040
sg5
L18446743798836609812L
sg6
Nsg23
S'BL'
p1041
sg25
S'0xffffffc0004bc314L'
p1042
sg27
Nsbasg112
(lp1043
S'ADRP reg, #__func__.26831@PAGE'
p1044
aS'ADRP reg, #aSMisrModuleDCt@PAGE'
p1045
aS'ADD reg, reg, #__func__.26831@PAGEOFF'
p1046
aS'ADD reg, reg, #aSMisrModuleDCt@PAGEOFF'
p1047
aS'ADD reg, reg, #0x230'
p1048
aS'MOV reg, reg1'
p1049
aS'BL __dynamic_pr_debug'
p1050
asg127
Nsg5
S'0xffffffc0004bc2fcL'
p1051
sg129
(lp1052
S'0xffffffc0004bc2e8L'
p1053
asg6
Nsg131
(lp1054
S'0xffffffc0004bc318L'
p1055
asg135
Nsg136
Nsg137
S'1ec7e3272c47417a60d3daea1bb753b5'
p1056
sg139
S'9c7dc68c5e7503f08a26d830066bf5ef'
p1057
sg141
(lp1058
g999
ag1006
ag1013
ag1020
ag1027
ag1034
ag1041
asg143
Nsba(ibclass
BBasicBlock
p1059
(dp1060
g12
Nsg13
(lp1061
(ibclass
BInstr
p1062
(dp1063
g2
Nsg17
S'CBNZ            X19, loc_FFFFFFC0004BC33C'
p1064
sg19
S'330100b5'
p1065
sg21
Vcbnz x19, #0x24
p1066
sg5
L18446743798836609816L
sg6
Nsg23
S'CBNZ'
p1067
sg25
S'0xffffffc0004bc318L'
p1068
sg27
Nsbasg112
(lp1069
S'CBNZ reg9, func'
p1070
asg127
Nsg5
S'0xffffffc0004bc318L'
p1071
sg129
(lp1072
S'0xffffffc0004bc2e8L'
p1073
aS'0xffffffc0004bc2fcL'
p1074
asg6
Nsg131
(lp1075
S'0xffffffc0004bc31cL'
p1076
aS'0xffffffc0004bc33cL'
p1077
asg135
Nsg136
Nsg137
S'482b7d814ad85789cad59d80ecb8562a'
p1078
sg139
S'dff4e8ccf28b27112458638fe68a8d09'
p1079
sg141
(lp1080
g1067
asg143
Nsba(ibclass
BBasicBlock
p1081
(dp1082
g12
Nsg13
(lp1083
(ibclass
BInstr
p1084
(dp1085
g2
Nsg17
S'ADRP            X1, #__func__.26831@PAGE; "panel_debug_base_offset_write"'
p1086
sg19
S'215b00d0'
p1087
sg21
Vadrp x1, #0xb66000
p1088
sg5
L18446743798836609820L
sg6
Nsg23
S'ADRP'
p1089
sg25
S'0xffffffc0004bc31cL'
p1090
sg27
Nsba(ibclass
BInstr
p1091
(dp1092
g2
Nsg17
S'ADRP            X0, #unk_FFFFFFC00132AFD2@PAGE'
p1093
sg19
S'607300d0'
p1094
sg21
Vadrp x0, #0xe6e000
p1095
sg5
L18446743798836609824L
sg6
Nsg23
S'ADRP'
p1096
sg25
S'0xffffffc0004bc320L'
p1097
sg27
Nsba(ibclass
BInstr
p1098
(dp1099
g2
Nsg17
S'ADD             X1, X1, #__func__.26831@PAGEOFF; "panel_debug_base_offset_write"'
p1100
sg19
S'21e01691'
p1101
sg21
Vadd x1, x1, #0x5b8
p1102
sg5
L18446743798836609828L
sg6
Nsg23
S'ADD'
p1103
sg25
S'0xffffffc0004bc324L'
p1104
sg27
Nsba(ibclass
BInstr
p1105
(dp1106
g2
Nsg17
S'LDR             W2, [X22]'
p1107
sg19
S'c20240b9'
p1108
sg21
Vldr w2, [x22]
p1109
sg5
L18446743798836609832L
sg6
Nsg23
S'LDR'
p1110
sg25
S'0xffffffc0004bc328L'
p1111
sg27
Nsba(ibclass
BInstr
p1112
(dp1113
g2
Nsg17
S'ADD             X1, X1, #0x248'
p1114
sg19
S'21200991'
p1115
sg21
Vadd x1, x1, #0x248
p1116
sg5
L18446743798836609836L
sg6
Nsg23
S'ADD'
p1117
sg25
S'0xffffffc0004bc32cL'
p1118
sg27
Nsba(ibclass
BInstr
p1119
(dp1120
g2
Nsg17
S'ADD             X0, X0, #unk_FFFFFFC00132AFD2@PAGEOFF'
p1121
sg19
S'00483f91'
p1122
sg21
Vadd x0, x0, #0xfd2
p1123
sg5
L18446743798836609840L
sg6
Nsg23
S'ADD'
p1124
sg25
S'0xffffffc0004bc330L'
p1125
sg27
Nsba(ibclass
BInstr
p1126
(dp1127
g2
Nsg17
S'BL              printk'
p1128
sg19
S'cdc92594'
p1129
sg21
Vbl #0x972734
p1130
sg5
L18446743798836609844L
sg6
Nsg23
S'BL'
p1131
sg25
S'0xffffffc0004bc334L'
p1132
sg27
Nsba(ibclass
BInstr
p1133
(dp1134
g2
Nsg17
S'B               loc_FFFFFFC0004BC394'
p1135
sg19
S'17000014'
p1136
sg21
Vb #0x5c
p1137
sg5
L18446743798836609848L
sg6
Nsg23
g110
sg25
S'0xffffffc0004bc338L'
p1138
sg27
Nsbasg112
(lp1139
S'ADRP reg, #__func__.26831@PAGE'
p1140
aS'ADRP reg, #func@PAGE'
p1141
aS'ADD reg, reg, #__func__.26831@PAGEOFF'
p1142
aS'LDR reg, mem'
p1143
aS'ADD reg, reg, #0x248'
p1144
aS'ADD reg, reg, #func@PAGEOFF'
p1145
aS'BL printk'
p1146
aS'B func'
p1147
asg127
Nsg5
S'0xffffffc0004bc31cL'
p1148
sg129
(lp1149
S'0xffffffc0004bc2d0L'
p1150
aS'0xffffffc0004bc318L'
p1151
asg6
Nsg131
(lp1152
S'0xffffffc0004bc394L'
p1153
asg135
Nsg136
Nsg137
S'2010bb16ea1063e30e256ef56cb1a111'
p1154
sg139
S'e9204b8c9e198b2edaf591e4f0db61e4'
p1155
sg141
(lp1156
g1089
ag1096
ag1103
ag1110
ag1117
ag1124
ag1131
ag110
asg143
Nsba(ibclass
BBasicBlock
p1157
(dp1158
g12
Nsg13
(lp1159
(ibclass
BInstr
p1160
(dp1161
g2
Nsg17
S'LDR             W1, [X20]'
p1162
sg19
S'810240b9'
p1163
sg21
Vldr w1, [x20]
p1164
sg5
L18446743798836609852L
sg6
Nsg23
S'LDR'
p1165
sg25
S'0xffffffc0004bc33cL'
p1166
sg27
Nsba(ibclass
BInstr
p1167
(dp1168
g2
Nsg17
S'LDR             W2, [X22]'
p1169
sg19
S'c20240b9'
p1170
sg21
Vldr w2, [x22]
p1171
sg5
L18446743798836609856L
sg6
Nsg23
S'LDR'
p1172
sg25
S'0xffffffc0004bc340L'
p1173
sg27
Nsba(ibclass
BInstr
p1174
(dp1175
g2
Nsg17
S'MOV             X0, X19'
p1176
sg19
S'e00313aa'
p1177
sg21
Vmov x0, x19
p1178
sg5
L18446743798836609860L
sg6
Nsg23
S'MOV'
p1179
sg25
S'0xffffffc0004bc344L'
p1180
sg27
Nsba(ibclass
BInstr
p1181
(dp1182
g2
Nsg17
S'BL              switch_mdp_misr_offset'
p1183
sg19
S'36fdff97'
p1184
sg21
Vbl #0xfffffffffffff4d8
p1185
sg5
L18446743798836609864L
sg6
Nsg23
S'BL'
p1186
sg25
S'0xffffffc0004bc348L'
p1187
sg27
Nsba(ibclass
BInstr
p1188
(dp1189
g2
Nsg17
S'UBFM            W27, W0, #0, #7'
p1190
sg19
S'1b1c0053'
p1191
sg21
Vuxtb w27, w0
p1192
sg5
L18446743798836609868L
sg6
Nsg23
S'UBFM'
p1193
sg25
S'0xffffffc0004bc34cL'
p1194
sg27
Nsba(ibclass
BInstr
p1195
(dp1196
g2
Nsg17
S'MOV             W0, #1'
p1197
sg19
S'20008052'
p1198
sg21
Vmovz w0, #0x1
p1199
sg5
L18446743798836609872L
sg6
Nsg23
S'MOV'
p1200
sg25
S'0xffffffc0004bc350L'
p1201
sg27
Nsba(ibclass
BInstr
p1202
(dp1203
g2
Nsg17
S'BL              mdss_mdp_clk_ctrl'
p1204
sg19
S'782aff97'
p1205
sg21
Vbl #0xfffffffffffca9e0
p1206
sg5
L18446743798836609876L
sg6
Nsg23
S'BL'
p1207
sg25
S'0xffffffc0004bc354L'
p1208
sg27
Nsba(ibclass
BInstr
p1209
(dp1210
g2
Nsg17
S'LDR             W0, [X22]'
p1211
sg19
S'c00240b9'
p1212
sg21
Vldr w0, [x22]
p1213
sg5
L18446743798836609880L
sg6
Nsg23
S'LDR'
p1214
sg25
S'0xffffffc0004bc358L'
p1215
sg27
Nsba(ibclass
BInstr
p1216
(dp1217
g2
Nsg17
S'CMP             W0, #5'
p1218
sg19
S'1f140071'
p1219
sg21
Vcmp w0, #5
p1220
sg5
L18446743798836609884L
sg6
Nsg23
S'CMP'
p1221
sg25
S'0xffffffc0004bc35cL'
p1222
sg27
Nsba(ibclass
BInstr
p1223
(dp1224
g2
Nsg17
S'B.NE            loc_FFFFFFC0004BC4C0'
p1225
sg19
S'010b0054'
p1226
sg21
Vb.ne #0x160
p1227
sg5
L18446743798836609888L
sg6
Nsg23
g110
sg25
S'0xffffffc0004bc360L'
p1228
sg27
Nsbasg112
(lp1229
S'LDR reg, mem'
p1230
aS'LDR reg, mem'
p1231
aS'MOV reg, reg9'
p1232
aS'BL switch_mdp_misr_offset'
p1233
aS'UBFM reg7, reg, #0, #7'
p1234
aS'MOV reg, #1'
p1235
aS'BL mdss_mdp_clk_ctrl'
p1236
aS'LDR reg, mem'
p1237
aS'CMP reg, #5'
p1238
aS'B.NE func'
p1239
asg127
Nsg5
S'0xffffffc0004bc33cL'
p1240
sg129
(lp1241
S'0xffffffc0004bc318L'
p1242
asg6
Nsg131
(lp1243
S'0xffffffc0004bc364L'
p1244
aS'0xffffffc0004bc4c0L'
p1245
asg135
Nsg136
Nsg137
S'2dd7b96a605dc58f3845b324f3d66083'
p1246
sg139
S'902694d75307da2e77a6cb66c164a4f7'
p1247
sg141
(lp1248
g1165
ag1172
ag1179
ag1186
ag1193
ag1200
ag1207
ag1214
ag1221
ag110
asg143
Nsba(ibclass
BBasicBlock
p1249
(dp1250
g12
Nsg13
(lp1251
(ibclass
BInstr
p1252
(dp1253
g2
Nsg17
S'MOV             X0, X24'
p1254
sg19
S'e00318aa'
p1255
sg21
Vmov x0, x24
p1256
sg5
L18446743798836609892L
sg6
Nsg23
S'MOV'
p1257
sg25
S'0xffffffc0004bc364L'
p1258
sg27
Nsba(ibclass
BInstr
p1259
(dp1260
g2
Nsg17
S'MOV             W1, #0'
p1261
sg19
S'01008052'
p1262
sg21
Vmovz w1, #0
p1263
sg5
L18446743798836609896L
sg6
Nsg23
S'MOV'
p1264
sg25
S'0xffffffc0004bc368L'
p1265
sg27
Nsba(ibclass
BInstr
p1266
(dp1267
g2
Nsg17
S'BL              mdss_mdp_mixer_get'
p1268
sg19
S'f24aff97'
p1269
sg21
Vbl #0xfffffffffffd2bc8
p1270
sg5
L18446743798836609900L
sg6
Nsg23
S'BL'
p1271
sg25
S'0xffffffc0004bc36cL'
p1272
sg27
Nsba(ibclass
BInstr
p1273
(dp1274
g2
Nsg17
S'CBNZ            X0, loc_FFFFFFC0004BC39C'
p1275
sg19
S'600100b5'
p1276
sg21
Vcbnz x0, #0x2c
p1277
sg5
L18446743798836609904L
sg6
Nsg23
S'CBNZ'
p1278
sg25
S'0xffffffc0004bc370L'
p1279
sg27
Nsbasg112
(lp1280
S'MOV reg, reg4'
p1281
aS'MOV reg, #0'
p1282
aS'BL mdss_mdp_mixer_get'
p1283
aS'CBNZ reg, func'
p1284
asg127
Nsg5
S'0xffffffc0004bc364L'
p1285
sg129
(lp1286
S'0xffffffc0004bc33cL'
p1287
asg6
Nsg131
(lp1288
S'0xffffffc0004bc374L'
p1289
aS'0xffffffc0004bc39cL'
p1290
asg135
Nsg136
Nsg137
S'9d0fe8f83df2f56e19375fde7faf6a62'
p1291
sg139
S'e27638cbb1ad404cfb4895f8ca12d72a'
p1292
sg141
(lp1293
g1257
ag1264
ag1271
ag1278
asg143
Nsba(ibclass
BBasicBlock
p1294
(dp1295
g12
Nsg13
(lp1296
(ibclass
BInstr
p1297
(dp1298
g2
Nsg17
S'ADRP            X1, #__func__.26831@PAGE; "panel_debug_base_offset_write"'
p1299
sg19
S'215b00d0'
p1300
sg21
Vadrp x1, #0xb66000
p1301
sg5
L18446743798836609908L
sg6
Nsg23
S'ADRP'
p1302
sg25
S'0xffffffc0004bc374L'
p1303
sg27
Nsba(ibclass
BInstr
p1304
(dp1305
g2
Nsg17
S'ADD             X1, X1, #__func__.26831@PAGEOFF; "panel_debug_base_offset_write"'
p1306
sg19
S'21e01691'
p1307
sg21
Vadd x1, x1, #0x5b8
p1308
sg5
L18446743798836609912L
sg6
Nsg23
S'ADD'
p1309
sg25
S'0xffffffc0004bc378L'
p1310
sg27
Nsba(ibclass
BInstr
p1311
(dp1312
g2
Nsg17
S'ADRP            X0, #unk_FFFFFFC00132AFEF@PAGE'
p1313
sg19
S'607300d0'
p1314
sg21
Vadrp x0, #0xe6e000
p1315
sg5
L18446743798836609916L
sg6
Nsg23
S'ADRP'
p1316
sg25
S'0xffffffc0004bc37cL'
p1317
sg27
Nsba(ibclass
BInstr
p1318
(dp1319
g2
Nsg17
S'ADD             X1, X1, #0x248'
p1320
sg19
S'21200991'
p1321
sg21
Vadd x1, x1, #0x248
p1322
sg5
L18446743798836609920L
sg6
Nsg23
S'ADD'
p1323
sg25
S'0xffffffc0004bc380L'
p1324
sg27
Nsba(ibclass
BInstr
p1325
(dp1326
g2
Nsg17
S'LDR             W3, [X22]'
p1327
sg19
S'c30240b9'
p1328
sg21
Vldr w3, [x22]
p1329
sg5
L18446743798836609924L
sg6
Nsg23
S'LDR'
p1330
sg25
S'0xffffffc0004bc384L'
p1331
sg27
Nsba(ibclass
BInstr
p1332
(dp1333
g2
Nsg17
S'ADD             X0, X0, #unk_FFFFFFC00132AFEF@PAGEOFF'
p1334
sg19
S'00bc3f91'
p1335
sg21
Vadd x0, x0, #0xfef
p1336
sg5
L18446743798836609928L
sg6
Nsg23
S'ADD'
p1337
sg25
S'0xffffffc0004bc388L'
p1338
sg27
Nsba(ibclass
BInstr
p1339
(dp1340
g2
Nsg17
S'MOV             X2, X1'
p1341
sg19
S'e20301aa'
p1342
sg21
Vmov x2, x1
p1343
sg5
L18446743798836609932L
sg6
Nsg23
S'MOV'
p1344
sg25
S'0xffffffc0004bc38cL'
p1345
sg27
Nsba(ibclass
BInstr
p1346
(dp1347
g2
Nsg17
S'BL              printk'
p1348
sg19
S'b6c92594'
p1349
sg21
Vbl #0x9726d8
p1350
sg5
L18446743798836609936L
sg6
Nsg23
S'BL'
p1351
sg25
S'0xffffffc0004bc390L'
p1352
sg27
Nsbasg112
(lp1353
S'ADRP reg, #__func__.26831@PAGE'
p1354
aS'ADD reg, reg, #__func__.26831@PAGEOFF'
p1355
aS'ADRP reg, #func@PAGE'
p1356
aS'ADD reg, reg, #0x248'
p1357
aS'LDR reg, mem'
p1358
aS'ADD reg, reg, #func@PAGEOFF'
p1359
aS'MOV reg, reg'
p1360
aS'BL printk'
p1361
asg127
Nsg5
S'0xffffffc0004bc374L'
p1362
sg129
(lp1363
S'0xffffffc0004bc364L'
p1364
asg6
Nsg131
(lp1365
S'0xffffffc0004bc394L'
p1366
asg135
Nsg136
Nsg137
S'4c83dcff894e7f7ebe73375025946666'
p1367
sg139
S'ec63634b733a6d9300b3157e8d2d70b9'
p1368
sg141
(lp1369
g1302
ag1309
ag1316
ag1323
ag1330
ag1337
ag1344
ag1351
asg143
Nsba(ibclass
BBasicBlock
p1370
(dp1371
g12
Nsg13
(lp1372
(ibclass
BInstr
p1373
(dp1374
g2
Nsg17
S'MOV             W0, #0xFFFFFFEA'
p1375
sg19
S'a0028012'
p1376
sg21
Vmovn w0, #0x15
p1377
sg5
L18446743798836609940L
sg6
Nsg23
S'MOV'
p1378
sg25
S'0xffffffc0004bc394L'
p1379
sg27
Nsba(ibclass
BInstr
p1380
(dp1381
g2
Nsg17
S'B               loc_FFFFFFC0004BC630'
p1382
sg19
S'a6000014'
p1383
sg21
Vb #0x298
p1384
sg5
L18446743798836609944L
sg6
Nsg23
g110
sg25
S'0xffffffc0004bc398L'
p1385
sg27
Nsbasg112
(lp1386
S'MOV reg, #0xFFFFFFEA'
p1387
aS'B func'
p1388
asg127
Nsg5
S'0xffffffc0004bc394L'
p1389
sg129
(lp1390
S'0xffffffc0004bc31cL'
p1391
aS'0xffffffc0004bc374L'
p1392
asg6
Nsg131
(lp1393
S'0xffffffc0004bc630L'
p1394
asg135
Nsg136
Nsg137
S'b6c4e95ccfe77a95e4cf2019dd3d5574'
p1395
sg139
S'a17f88dd95e9c87c91b756bdda64e5a5'
p1396
sg141
(lp1397
g1378
ag110
asg143
Nsba(ibclass
BBasicBlock
p1398
(dp1399
g12
Nsg13
(lp1400
(ibclass
BInstr
p1401
(dp1402
g2
Nsg17
S'LDR             W21, [X0]'
p1403
sg19
S'150040b9'
p1404
sg21
Vldr w21, [x0]
p1405
sg5
L18446743798836609948L
sg6
Nsg23
S'LDR'
p1406
sg25
S'0xffffffc0004bc39cL'
p1407
sg27
Nsba(ibclass
BInstr
p1408
(dp1409
g2
Nsg17
S'ADD             X0, X23, #descriptor.26830@PAGEOFF'
p1410
sg19
S'e0022391'
p1411
sg21
Vadd x0, x23, #0x8c0
p1412
sg5
L18446743798836609952L
sg6
Nsg23
S'ADD'
p1413
sg25
S'0xffffffc0004bc3a0L'
p1414
sg27
Nsba(ibclass
BInstr
p1415
(dp1416
g2
Nsg17
S'ADD             X0, X0, #0x2F8'
p1417
sg19
S'00e00b91'
p1418
sg21
Vadd x0, x0, #0x2f8
p1419
sg5
L18446743798836609956L
sg6
Nsg23
S'ADD'
p1420
sg25
S'0xffffffc0004bc3a4L'
p1421
sg27
Nsba(ibclass
BInstr
p1422
(dp1423
g2
Nsg17
S'LDRH            W1, [X0,#(word_FFFFFFC001880BDA - 0xFFFFFFC001880BB8)]'
p1424
sg19
S'01444079'
p1425
sg21
Vldrh w1, [x0, #0x22]
p1426
sg5
L18446743798836609960L
sg6
Nsg23
S'LDR'
p1427
sg25
S'0xffffffc0004bc3a8L'
p1428
sg27
Nsba(ibclass
BInstr
p1429
(dp1430
g2
Nsg17
S'TBZ             W1, #2, loc_FFFFFFC0004BC3CC'
p1431
sg19
S'01011036'
p1432
sg21
Vtbz w1, #2, #0x20
p1433
sg5
L18446743798836609964L
sg6
Nsg23
S'TBZ'
p1434
sg25
S'0xffffffc0004bc3acL'
p1435
sg27
Nsbasg112
(lp1436
S'LDR reg1, mem'
p1437
aS'ADD reg, reg3, #descriptor.26830@PAGEOFF'
p1438
aS'ADD reg, reg, #0x2F8'
p1439
aS'LDRH reg, mem'
p1440
aS'TBZ reg, #2, func'
p1441
asg127
Nsg5
S'0xffffffc0004bc39cL'
p1442
sg129
(lp1443
S'0xffffffc0004bc364L'
p1444
asg6
Nsg131
(lp1445
S'0xffffffc0004bc3b0L'
p1446
aS'0xffffffc0004bc3ccL'
p1447
asg135
Nsg136
Nsg137
S'8b31cb1a47cd1911e10fae9a3387329f'
p1448
sg139
S'203fce794b3b85f2d6a26e724f9c2c55'
p1449
sg141
(lp1450
g1406
ag1413
ag1420
ag1427
ag1434
asg143
Nsba(ibclass
BBasicBlock
p1451
(dp1452
g12
Nsg13
(lp1453
(ibclass
BInstr
p1454
(dp1455
g2
Nsg17
S'ADRP            X2, #__func__.26831@PAGE; "panel_debug_base_offset_write"'
p1456
sg19
S'225b00d0'
p1457
sg21
Vadrp x2, #0xb66000
p1458
sg5
L18446743798836609968L
sg6
Nsg23
S'ADRP'
p1459
sg25
S'0xffffffc0004bc3b0L'
p1460
sg27
Nsba(ibclass
BInstr
p1461
(dp1462
g2
Nsg17
S'ADRP            X1, #aSSetMdpMisrBlk@PAGE; "%s: SET MDP MISR BLK to MDSS_MDP_LP_MIS"...'
p1463
sg19
S'617300f0'
p1464
sg21
Vadrp x1, #0xe6f000
p1465
sg5
L18446743798836609972L
sg6
Nsg23
S'ADRP'
p1466
sg25
S'0xffffffc0004bc3b4L'
p1467
sg27
Nsba(ibclass
BInstr
p1468
(dp1469
g2
Nsg17
S'ADD             X2, X2, #__func__.26831@PAGEOFF; "panel_debug_base_offset_write"'
p1470
sg19
S'42e01691'
p1471
sg21
Vadd x2, x2, #0x5b8
p1472
sg5
L18446743798836609976L
sg6
Nsg23
S'ADD'
p1473
sg25
S'0xffffffc0004bc3b8L'
p1474
sg27
Nsba(ibclass
BInstr
p1475
(dp1476
g2
Nsg17
S'ADD             X1, X1, #aSSetMdpMisrBlk@PAGEOFF; "%s: SET MDP MISR BLK to MDSS_MDP_LP_MIS"...'
p1477
sg19
S'21800091'
p1478
sg21
Vadd x1, x1, #0x20
p1479
sg5
L18446743798836609980L
sg6
Nsg23
S'ADD'
p1480
sg25
S'0xffffffc0004bc3bcL'
p1481
sg27
Nsba(ibclass
BInstr
p1482
(dp1483
g2
Nsg17
S'ADD             X2, X2, #0x248'
p1484
sg19
S'42200991'
p1485
sg21
Vadd x2, x2, #0x248
p1486
sg5
L18446743798836609984L
sg6
Nsg23
S'ADD'
p1487
sg25
S'0xffffffc0004bc3c0L'
p1488
sg27
Nsba(ibclass
BInstr
p1489
(dp1490
g2
Nsg17
S'MOV             W3, W21'
p1491
sg19
S'e303152a'
p1492
sg21
Vmov w3, w21
p1493
sg5
L18446743798836609988L
sg6
Nsg23
S'MOV'
p1494
sg25
S'0xffffffc0004bc3c4L'
p1495
sg27
Nsba(ibclass
BInstr
p1496
(dp1497
g2
Nsg17
S'BL              __dynamic_pr_debug'
p1498
sg19
S'780bfe97'
p1499
sg21
Vbl #0xfffffffffff82de0
p1500
sg5
L18446743798836609992L
sg6
Nsg23
S'BL'
p1501
sg25
S'0xffffffc0004bc3c8L'
p1502
sg27
Nsbasg112
(lp1503
S'ADRP reg, #__func__.26831@PAGE'
p1504
aS'ADRP reg, #aSSetMdpMisrBlk@PAGE'
p1505
aS'ADD reg, reg, #__func__.26831@PAGEOFF'
p1506
aS'ADD reg, reg, #aSSetMdpMisrBlk@PAGEOFF'
p1507
aS'ADD reg, reg, #0x248'
p1508
aS'MOV reg, reg1'
p1509
aS'BL __dynamic_pr_debug'
p1510
asg127
Nsg5
S'0xffffffc0004bc3b0L'
p1511
sg129
(lp1512
S'0xffffffc0004bc39cL'
p1513
asg6
Nsg131
(lp1514
S'0xffffffc0004bc3ccL'
p1515
asg135
Nsg136
Nsg137
S'1ec7e3272c47417a60d3daea1bb753b5'
p1516
sg139
S'd6666bd580cf6754848e9d77e779bf14'
p1517
sg141
(lp1518
g1459
ag1466
ag1473
ag1480
ag1487
ag1494
ag1501
asg143
Nsba(ibclass
BBasicBlock
p1519
(dp1520
g12
Nsg13
(lp1521
(ibclass
BInstr
p1522
(dp1523
g2
Nsg17
S'CMP             W21, #1'
p1524
sg19
S'bf060071'
p1525
sg21
Vcmp w21, #1
p1526
sg5
L18446743798836609996L
sg6
Nsg23
S'CMP'
p1527
sg25
S'0xffffffc0004bc3ccL'
p1528
sg27
Nsba(ibclass
BInstr
p1529
(dp1530
g2
Nsg17
S'B.EQ            loc_FFFFFFC0004BC404'
p1531
sg19
S'a0010054'
p1532
sg21
Vb.eq #0x34
p1533
sg5
L18446743798836610000L
sg6
Nsg23
g110
sg25
S'0xffffffc0004bc3d0L'
p1534
sg27
Nsbasg112
(lp1535
S'CMP reg1, #1'
p1536
aS'B.EQ func'
p1537
asg127
Nsg5
S'0xffffffc0004bc3ccL'
p1538
sg129
(lp1539
S'0xffffffc0004bc39cL'
p1540
aS'0xffffffc0004bc3b0L'
p1541
asg6
Nsg131
(lp1542
S'0xffffffc0004bc3d4L'
p1543
aS'0xffffffc0004bc404L'
p1544
asg135
Nsg136
Nsg137
S'c78fd620a449e3c979d3f3ec12d4ee88'
p1545
sg139
S'1042fe1ee0da88184cba596f2f230611'
p1546
sg141
(lp1547
g1527
ag110
asg143
Nsba(ibclass
BBasicBlock
p1548
(dp1549
g12
Nsg13
(lp1550
(ibclass
BInstr
p1551
(dp1552
g2
Nsg17
S'CBZ             W21, loc_FFFFFFC0004BC3E4'
p1553
sg19
S'95000034'
p1554
sg21
Vcbz w21, #0x10
p1555
sg5
L18446743798836610004L
sg6
Nsg23
S'CBZ'
p1556
sg25
S'0xffffffc0004bc3d4L'
p1557
sg27
Nsbasg112
(lp1558
S'CBZ reg1, func'
p1559
asg127
Nsg5
S'0xffffffc0004bc3d4L'
p1560
sg129
(lp1561
S'0xffffffc0004bc3ccL'
p1562
asg6
Nsg131
(lp1563
S'0xffffffc0004bc3d8L'
p1564
aS'0xffffffc0004bc3e4L'
p1565
asg135
Nsg136
Nsg137
S'de8e361453cf9f764a4abe9d486f8fbe'
p1566
sg139
S'c618421d27b4dcd978a9e10bf674b688'
p1567
sg141
(lp1568
g1556
asg143
Nsba(ibclass
BBasicBlock
p1569
(dp1570
g12
Nsg13
(lp1571
(ibclass
BInstr
p1572
(dp1573
g2
Nsg17
S'CMP             W21, #2'
p1574
sg19
S'bf0a0071'
p1575
sg21
Vcmp w21, #2
p1576
sg5
L18446743798836610008L
sg6
Nsg23
S'CMP'
p1577
sg25
S'0xffffffc0004bc3d8L'
p1578
sg27
Nsba(ibclass
BInstr
p1579
(dp1580
g2
Nsg17
S'B.EQ            loc_FFFFFFC0004BC424'
p1581
sg19
S'40020054'
p1582
sg21
Vb.eq #0x48
p1583
sg5
L18446743798836610012L
sg6
Nsg23
g110
sg25
S'0xffffffc0004bc3dcL'
p1584
sg27
Nsbasg112
(lp1585
S'CMP reg1, #2'
p1586
aS'B.EQ func'
p1587
asg127
Nsg5
S'0xffffffc0004bc3d8L'
p1588
sg129
(lp1589
S'0xffffffc0004bc3d4L'
p1590
asg6
Nsg131
(lp1591
S'0xffffffc0004bc3e0L'
p1592
aS'0xffffffc0004bc424L'
p1593
asg135
Nsg136
Nsg137
S'c78fd620a449e3c979d3f3ec12d4ee88'
p1594
sg139
S'c662d84185923f4a0df1a701d5f6b22c'
p1595
sg141
(lp1596
g1577
ag110
asg143
Nsba(ibclass
BBasicBlock
p1597
(dp1598
g12
Nsg13
(lp1599
(ibclass
BInstr
p1600
(dp1601
g2
Nsg17
S'B               loc_FFFFFFC0004BC454'
p1602
sg19
S'1d000014'
p1603
sg21
Vb #0x74
p1604
sg5
L18446743798836610016L
sg6
Nsg23
g110
sg25
S'0xffffffc0004bc3e0L'
p1605
sg27
Nsbasg112
(lp1606
S'B func'
p1607
asg127
Nsg5
S'0xffffffc0004bc3e0L'
p1608
sg129
(lp1609
S'0xffffffc0004bc3d8L'
p1610
asg6
Nsg131
(lp1611
S'0xffffffc0004bc454L'
p1612
asg135
Nsg136
Nsg137
S'9d5ed678fe57bcca610140957afab571'
p1613
sg139
S'071b057c420e304c628380fd3541c021'
p1614
sg141
(lp1615
g110
asg143
Nsba(ibclass
BBasicBlock
p1616
(dp1617
g12
Nsg13
(lp1618
(ibclass
BInstr
p1619
(dp1620
g2
Nsg17
S'ADD             X0, X23, #descriptor.26830@PAGEOFF'
p1621
sg19
S'e0022391'
p1622
sg21
Vadd x0, x23, #0x8c0
p1623
sg5
L18446743798836610020L
sg6
Nsg23
S'ADD'
p1624
sg25
S'0xffffffc0004bc3e4L'
p1625
sg27
Nsba(ibclass
BInstr
p1626
(dp1627
g2
Nsg17
S'ADD             X0, X0, #0x320'
p1628
sg19
S'00800c91'
p1629
sg21
Vadd x0, x0, #0x320
p1630
sg5
L18446743798836610024L
sg6
Nsg23
S'ADD'
p1631
sg25
S'0xffffffc0004bc3e8L'
p1632
sg27
Nsba(ibclass
BInstr
p1633
(dp1634
g2
Nsg17
S'LDRH            W1, [X0,#(word_FFFFFFC001880C02 - 0xFFFFFFC001880BE0)]'
p1635
sg19
S'01444079'
p1636
sg21
Vldrh w1, [x0, #0x22]
p1637
sg5
L18446743798836610028L
sg6
Nsg23
S'LDR'
p1638
sg25
S'0xffffffc0004bc3ecL'
p1639
sg27
Nsba(ibclass
BInstr
p1640
(dp1641
g2
Nsg17
S'MOV             W21, #9'
p1642
sg19
S'35018052'
p1643
sg21
Vmovz w21, #0x9
p1644
sg5
L18446743798836610032L
sg6
Nsg23
S'MOV'
p1645
sg25
S'0xffffffc0004bc3f0L'
p1646
sg27
Nsba(ibclass
BInstr
p1647
(dp1648
g2
Nsg17
S'TBZ             W1, #2, loc_FFFFFFC0004BC474'
p1649
sg19
S'01041036'
p1650
sg21
Vtbz w1, #2, #0x80
p1651
sg5
L18446743798836610036L
sg6
Nsg23
S'TBZ'
p1652
sg25
S'0xffffffc0004bc3f4L'
p1653
sg27
Nsbasg112
(lp1654
S'ADD reg, reg3, #descriptor.26830@PAGEOFF'
p1655
aS'ADD reg, reg, #0x320'
p1656
aS'LDRH reg, mem'
p1657
aS'MOV reg1, #9'
p1658
aS'TBZ reg, #2, func'
p1659
asg127
Nsg5
S'0xffffffc0004bc3e4L'
p1660
sg129
(lp1661
S'0xffffffc0004bc3d4L'
p1662
asg6
Nsg131
(lp1663
S'0xffffffc0004bc3f8L'
p1664
aS'0xffffffc0004bc474L'
p1665
asg135
Nsg136
Nsg137
S'c225a4c53f1b04f0a9820b364a55766d'
p1666
sg139
S'ad6c5fc846b8c7007716c16c96d87639'
p1667
sg141
(lp1668
g1624
ag1631
ag1638
ag1645
ag1652
asg143
Nsba(ibclass
BBasicBlock
p1669
(dp1670
g12
Nsg13
(lp1671
(ibclass
BInstr
p1672
(dp1673
g2
Nsg17
S'ADRP            X1, #aSUseLayerMixer@PAGE; "%s: Use Layer Mixer 0 for WB CRC\\n"'
p1674
sg19
S'617300f0'
p1675
sg21
Vadrp x1, #0xe6f000
p1676
sg5
L18446743798836610040L
sg6
Nsg23
S'ADRP'
p1677
sg25
S'0xffffffc0004bc3f8L'
p1678
sg27
Nsba(ibclass
BInstr
p1679
(dp1680
g2
Nsg17
S'ADD             X1, X1, #aSUseLayerMixer@PAGEOFF; "%s: Use Layer Mixer 0 for WB CRC\\n"'
p1681
sg19
S'21600191'
p1682
sg21
Vadd x1, x1, #0x58
p1683
sg5
L18446743798836610044L
sg6
Nsg23
S'ADD'
p1684
sg25
S'0xffffffc0004bc3fcL'
p1685
sg27
Nsba(ibclass
BInstr
p1686
(dp1687
g2
Nsg17
S'B               loc_FFFFFFC0004BC440'
p1688
sg19
S'10000014'
p1689
sg21
Vb #0x40
p1690
sg5
L18446743798836610048L
sg6
Nsg23
g110
sg25
S'0xffffffc0004bc400L'
p1691
sg27
Nsbasg112
(lp1692
S'ADRP reg, #aSUseLayerMixer@PAGE'
p1693
aS'ADD reg, reg, #aSUseLayerMixer@PAGEOFF'
p1694
aS'B func'
p1695
asg127
Nsg5
S'0xffffffc0004bc3f8L'
p1696
sg129
(lp1697
S'0xffffffc0004bc3e4L'
p1698
asg6
Nsg131
(lp1699
S'0xffffffc0004bc440L'
p1700
asg135
Nsg136
Nsg137
S'fbb05d8d8f727699d69de49f56b5b4c8'
p1701
sg139
S'76923a3315335cbd3dfe1661a2aa2415'
p1702
sg141
(lp1703
g1677
ag1684
ag110
asg143
Nsba(ibclass
BBasicBlock
p1704
(dp1705
g12
Nsg13
(lp1706
(ibclass
BInstr
p1707
(dp1708
g2
Nsg17
S'ADD             X0, X23, #descriptor.26830@PAGEOFF'
p1709
sg19
S'e0022391'
p1710
sg21
Vadd x0, x23, #0x8c0
p1711
sg5
L18446743798836610052L
sg6
Nsg23
S'ADD'
p1712
sg25
S'0xffffffc0004bc404L'
p1713
sg27
Nsba(ibclass
BInstr
p1714
(dp1715
g2
Nsg17
S'ADD             X0, X0, #0x348'
p1716
sg19
S'00200d91'
p1717
sg21
Vadd x0, x0, #0x348
p1718
sg5
L18446743798836610056L
sg6
Nsg23
S'ADD'
p1719
sg25
S'0xffffffc0004bc408L'
p1720
sg27
Nsba(ibclass
BInstr
p1721
(dp1722
g2
Nsg17
S'LDRH            W1, [X0,#(word_FFFFFFC001880C2A - 0xFFFFFFC001880C08)]'
p1723
sg19
S'01444079'
p1724
sg21
Vldrh w1, [x0, #0x22]
p1725
sg5
L18446743798836610060L
sg6
Nsg23
S'LDR'
p1726
sg25
S'0xffffffc0004bc40cL'
p1727
sg27
Nsba(ibclass
BInstr
p1728
(dp1729
g2
Nsg17
S'MOV             W21, #0xB'
p1730
sg19
S'75018052'
p1731
sg21
Vmovz w21, #0xb
p1732
sg5
L18446743798836610064L
sg6
Nsg23
S'MOV'
p1733
sg25
S'0xffffffc0004bc410L'
p1734
sg27
Nsba(ibclass
BInstr
p1735
(dp1736
g2
Nsg17
S'TBZ             W1, #2, loc_FFFFFFC0004BC474'
p1737
sg19
S'01031036'
p1738
sg21
Vtbz w1, #2, #0x60
p1739
sg5
L18446743798836610068L
sg6
Nsg23
S'TBZ'
p1740
sg25
S'0xffffffc0004bc414L'
p1741
sg27
Nsbasg112
(lp1742
S'ADD reg, reg3, #descriptor.26830@PAGEOFF'
p1743
aS'ADD reg, reg, #0x348'
p1744
aS'LDRH reg, mem'
p1745
aS'MOV reg1, #0xB'
p1746
aS'TBZ reg, #2, func'
p1747
asg127
Nsg5
S'0xffffffc0004bc404L'
p1748
sg129
(lp1749
S'0xffffffc0004bc3ccL'
p1750
asg6
Nsg131
(lp1751
S'0xffffffc0004bc418L'
p1752
aS'0xffffffc0004bc474L'
p1753
asg135
Nsg136
Nsg137
S'c225a4c53f1b04f0a9820b364a55766d'
p1754
sg139
S'227b011c28a5d55bf2e5eba91ee9f5e4'
p1755
sg141
(lp1756
g1712
ag1719
ag1726
ag1733
ag1740
asg143
Nsba(ibclass
BBasicBlock
p1757
(dp1758
g12
Nsg13
(lp1759
(ibclass
BInstr
p1760
(dp1761
g2
Nsg17
S'ADRP            X1, #aSUseLayerMix_0@PAGE; "%s: Use Layer Mixer 1 for WB CRC\\n"'
p1762
sg19
S'617300f0'
p1763
sg21
Vadrp x1, #0xe6f000
p1764
sg5
L18446743798836610072L
sg6
Nsg23
S'ADRP'
p1765
sg25
S'0xffffffc0004bc418L'
p1766
sg27
Nsba(ibclass
BInstr
p1767
(dp1768
g2
Nsg17
S'ADD             X1, X1, #aSUseLayerMix_0@PAGEOFF; "%s: Use Layer Mixer 1 for WB CRC\\n"'
p1769
sg19
S'21e80191'
p1770
sg21
Vadd x1, x1, #0x7a
p1771
sg5
L18446743798836610076L
sg6
Nsg23
S'ADD'
p1772
sg25
S'0xffffffc0004bc41cL'
p1773
sg27
Nsba(ibclass
BInstr
p1774
(dp1775
g2
Nsg17
S'B               loc_FFFFFFC0004BC440'
p1776
sg19
S'08000014'
p1777
sg21
Vb #0x20
p1778
sg5
L18446743798836610080L
sg6
Nsg23
g110
sg25
S'0xffffffc0004bc420L'
p1779
sg27
Nsbasg112
(lp1780
S'ADRP reg, #aSUseLayerMix_0@PAGE'
p1781
aS'ADD reg, reg, #aSUseLayerMix_0@PAGEOFF'
p1782
aS'B func'
p1783
asg127
Nsg5
S'0xffffffc0004bc418L'
p1784
sg129
(lp1785
S'0xffffffc0004bc404L'
p1786
asg6
Nsg131
(lp1787
S'0xffffffc0004bc440L'
p1788
asg135
Nsg136
Nsg137
S'fbb05d8d8f727699d69de49f56b5b4c8'
p1789
sg139
S'19bf3348d0d201a1e91b80dbf6e1ac9d'
p1790
sg141
(lp1791
g1765
ag1772
ag110
asg143
Nsba(ibclass
BBasicBlock
p1792
(dp1793
g12
Nsg13
(lp1794
(ibclass
BInstr
p1795
(dp1796
g2
Nsg17
S'ADD             X0, X23, #descriptor.26830@PAGEOFF'
p1797
sg19
S'e0022391'
p1798
sg21
Vadd x0, x23, #0x8c0
p1799
sg5
L18446743798836610084L
sg6
Nsg23
S'ADD'
p1800
sg25
S'0xffffffc0004bc424L'
p1801
sg27
Nsba(ibclass
BInstr
p1802
(dp1803
g2
Nsg17
S'ADD             X0, X0, #0x370'
p1804
sg19
S'00c00d91'
p1805
sg21
Vadd x0, x0, #0x370
p1806
sg5
L18446743798836610088L
sg6
Nsg23
S'ADD'
p1807
sg25
S'0xffffffc0004bc428L'
p1808
sg27
Nsba(ibclass
BInstr
p1809
(dp1810
g2
Nsg17
S'LDRH            W1, [X0,#(word_FFFFFFC001880C52 - 0xFFFFFFC001880C30)]'
p1811
sg19
S'01444079'
p1812
sg21
Vldrh w1, [x0, #0x22]
p1813
sg5
L18446743798836610092L
sg6
Nsg23
S'LDR'
p1814
sg25
S'0xffffffc0004bc42cL'
p1815
sg27
Nsba(ibclass
BInstr
p1816
(dp1817
g2
Nsg17
S'MOV             W21, #0xD'
p1818
sg19
S'b5018052'
p1819
sg21
Vmovz w21, #0xd
p1820
sg5
L18446743798836610096L
sg6
Nsg23
S'MOV'
p1821
sg25
S'0xffffffc0004bc430L'
p1822
sg27
Nsba(ibclass
BInstr
p1823
(dp1824
g2
Nsg17
S'TBZ             W1, #2, loc_FFFFFFC0004BC474'
p1825
sg19
S'01021036'
p1826
sg21
Vtbz w1, #2, #0x40
p1827
sg5
L18446743798836610100L
sg6
Nsg23
S'TBZ'
p1828
sg25
S'0xffffffc0004bc434L'
p1829
sg27
Nsbasg112
(lp1830
S'ADD reg, reg3, #descriptor.26830@PAGEOFF'
p1831
aS'ADD reg, reg, #0x370'
p1832
aS'LDRH reg, mem'
p1833
aS'MOV reg1, #0xD'
p1834
aS'TBZ reg, #2, func'
p1835
asg127
Nsg5
S'0xffffffc0004bc424L'
p1836
sg129
(lp1837
S'0xffffffc0004bc3d8L'
p1838
asg6
Nsg131
(lp1839
S'0xffffffc0004bc438L'
p1840
aS'0xffffffc0004bc474L'
p1841
asg135
Nsg136
Nsg137
S'c225a4c53f1b04f0a9820b364a55766d'
p1842
sg139
S'b386f637dc556a4f984fd70dc76c0ee5'
p1843
sg141
(lp1844
g1800
ag1807
ag1814
ag1821
ag1828
asg143
Nsba(ibclass
BBasicBlock
p1845
(dp1846
g12
Nsg13
(lp1847
(ibclass
BInstr
p1848
(dp1849
g2
Nsg17
S'ADRP            X1, #aSUseLayerMix_1@PAGE; "%s: Use Layer Mixer 2 for WB CRC\\n"'
p1850
sg19
S'617300f0'
p1851
sg21
Vadrp x1, #0xe6f000
p1852
sg5
L18446743798836610104L
sg6
Nsg23
S'ADRP'
p1853
sg25
S'0xffffffc0004bc438L'
p1854
sg27
Nsba(ibclass
BInstr
p1855
(dp1856
g2
Nsg17
S'ADD             X1, X1, #aSUseLayerMix_1@PAGEOFF; "%s: Use Layer Mixer 2 for WB CRC\\n"'
p1857
sg19
S'21700291'
p1858
sg21
Vadd x1, x1, #0x9c
p1859
sg5
L18446743798836610108L
sg6
Nsg23
S'ADD'
p1860
sg25
S'0xffffffc0004bc43cL'
p1861
sg27
Nsbasg112
(lp1862
S'ADRP reg, #aSUseLayerMix_1@PAGE'
p1863
aS'ADD reg, reg, #aSUseLayerMix_1@PAGEOFF'
p1864
asg127
Nsg5
S'0xffffffc0004bc438L'
p1865
sg129
(lp1866
S'0xffffffc0004bc424L'
p1867
asg6
Nsg131
(lp1868
S'0xffffffc0004bc440L'
p1869
asg135
Nsg136
Nsg137
S'4c330fd47d9d30794e360f434bcba16f'
p1870
sg139
S'5c630cc9e8d5b8e5185c30a232fcf01f'
p1871
sg141
(lp1872
g1853
ag1860
asg143
Nsba(ibclass
BBasicBlock
p1873
(dp1874
g12
Nsg13
(lp1875
(ibclass
BInstr
p1876
(dp1877
g2
Nsg17
S'ADRP            X2, #__func__.26831@PAGE; "panel_debug_base_offset_write"'
p1878
sg19
S'225b00d0'
p1879
sg21
Vadrp x2, #0xb66000
p1880
sg5
L18446743798836610112L
sg6
Nsg23
S'ADRP'
p1881
sg25
S'0xffffffc0004bc440L'
p1882
sg27
Nsba(ibclass
BInstr
p1883
(dp1884
g2
Nsg17
S'ADD             X2, X2, #__func__.26831@PAGEOFF; "panel_debug_base_offset_write"'
p1885
sg19
S'42e01691'
p1886
sg21
Vadd x2, x2, #0x5b8
p1887
sg5
L18446743798836610116L
sg6
Nsg23
S'ADD'
p1888
sg25
S'0xffffffc0004bc444L'
p1889
sg27
Nsba(ibclass
BInstr
p1890
(dp1891
g2
Nsg17
S'ADD             X2, X2, #0x248'
p1892
sg19
S'42200991'
p1893
sg21
Vadd x2, x2, #0x248
p1894
sg5
L18446743798836610120L
sg6
Nsg23
S'ADD'
p1895
sg25
S'0xffffffc0004bc448L'
p1896
sg27
Nsba(ibclass
BInstr
p1897
(dp1898
g2
Nsg17
S'BL              __dynamic_pr_debug'
p1899
sg19
S'570bfe97'
p1900
sg21
Vbl #0xfffffffffff82d5c
p1901
sg5
L18446743798836610124L
sg6
Nsg23
S'BL'
p1902
sg25
S'0xffffffc0004bc44cL'
p1903
sg27
Nsba(ibclass
BInstr
p1904
(dp1905
g2
Nsg17
S'B               loc_FFFFFFC0004BC474'
p1906
sg19
S'09000014'
p1907
sg21
Vb #0x24
p1908
sg5
L18446743798836610128L
sg6
Nsg23
g110
sg25
S'0xffffffc0004bc450L'
p1909
sg27
Nsbasg112
(lp1910
S'ADRP reg, #__func__.26831@PAGE'
p1911
aS'ADD reg, reg, #__func__.26831@PAGEOFF'
p1912
aS'ADD reg, reg, #0x248'
p1913
aS'BL __dynamic_pr_debug'
p1914
aS'B func'
p1915
asg127
Nsg5
S'0xffffffc0004bc440L'
p1916
sg129
(lp1917
S'0xffffffc0004bc3f8L'
p1918
aS'0xffffffc0004bc418L'
p1919
aS'0xffffffc0004bc438L'
p1920
asg6
Nsg131
(lp1921
S'0xffffffc0004bc474L'
p1922
asg135
Nsg136
Nsg137
S'19c832d9761ac3176ba8d07fae40a67c'
p1923
sg139
S'e85030250efa2903eefb49c5dda49140'
p1924
sg141
(lp1925
g1881
ag1888
ag1895
ag1902
ag110
asg143
Nsba(ibclass
BBasicBlock
p1926
(dp1927
g12
Nsg13
(lp1928
(ibclass
BInstr
p1929
(dp1930
g2
Nsg17
S'ADRP            X1, #__func__.26831@PAGE; "panel_debug_base_offset_write"'
p1931
sg19
S'215b00d0'
p1932
sg21
Vadrp x1, #0xb66000
p1933
sg5
L18446743798836610132L
sg6
Nsg23
S'ADRP'
p1934
sg25
S'0xffffffc0004bc454L'
p1935
sg27
Nsba(ibclass
BInstr
p1936
(dp1937
g2
Nsg17
S'ADRP            X0, #unk_FFFFFFC00132B0BE@PAGE'
p1938
sg19
S'607300f0'
p1939
sg21
Vadrp x0, #0xe6f000
p1940
sg5
L18446743798836610136L
sg6
Nsg23
S'ADRP'
p1941
sg25
S'0xffffffc0004bc458L'
p1942
sg27
Nsba(ibclass
BInstr
p1943
(dp1944
g2
Nsg17
S'ADD             X1, X1, #__func__.26831@PAGEOFF; "panel_debug_base_offset_write"'
p1945
sg19
S'21e01691'
p1946
sg21
Vadd x1, x1, #0x5b8
p1947
sg5
L18446743798836610140L
sg6
Nsg23
S'ADD'
p1948
sg25
S'0xffffffc0004bc45cL'
p1949
sg27
Nsba(ibclass
BInstr
p1950
(dp1951
g2
Nsg17
S'ADD             X1, X1, #0x248'
p1952
sg19
S'21200991'
p1953
sg21
Vadd x1, x1, #0x248
p1954
sg5
L18446743798836610144L
sg6
Nsg23
S'ADD'
p1955
sg25
S'0xffffffc0004bc460L'
p1956
sg27
Nsba(ibclass
BInstr
p1957
(dp1958
g2
Nsg17
S'MOV             W2, W21'
p1959
sg19
S'e203152a'
p1960
sg21
Vmov w2, w21
p1961
sg5
L18446743798836610148L
sg6
Nsg23
S'MOV'
p1962
sg25
S'0xffffffc0004bc464L'
p1963
sg27
Nsba(ibclass
BInstr
p1964
(dp1965
g2
Nsg17
S'ADD             X0, X0, #unk_FFFFFFC00132B0BE@PAGEOFF'
p1966
sg19
S'00f80291'
p1967
sg21
Vadd x0, x0, #0xbe
p1968
sg5
L18446743798836610152L
sg6
Nsg23
S'ADD'
p1969
sg25
S'0xffffffc0004bc468L'
p1970
sg27
Nsba(ibclass
BInstr
p1971
(dp1972
g2
Nsg17
S'BL              printk'
p1973
sg19
S'7fc92594'
p1974
sg21
Vbl #0x9725fc
p1975
sg5
L18446743798836610156L
sg6
Nsg23
S'BL'
p1976
sg25
S'0xffffffc0004bc46cL'
p1977
sg27
Nsba(ibclass
BInstr
p1978
(dp1979
g2
Nsg17
S'B               loc_FFFFFFC0004BC4C0'
p1980
sg19
S'14000014'
p1981
sg21
Vb #0x50
p1982
sg5
L18446743798836610160L
sg6
Nsg23
g110
sg25
S'0xffffffc0004bc470L'
p1983
sg27
Nsbasg112
(lp1984
S'ADRP reg, #__func__.26831@PAGE'
p1985
aS'ADRP reg, #func@PAGE'
p1986
aS'ADD reg, reg, #__func__.26831@PAGEOFF'
p1987
aS'ADD reg, reg, #0x248'
p1988
aS'MOV reg, reg1'
p1989
aS'ADD reg, reg, #func@PAGEOFF'
p1990
aS'BL printk'
p1991
aS'B func'
p1992
asg127
Nsg5
S'0xffffffc0004bc454L'
p1993
sg129
(lp1994
S'0xffffffc0004bc3e0L'
p1995
asg6
Nsg131
(lp1996
S'0xffffffc0004bc4c0L'
p1997
asg135
Nsg136
Nsg137
S'57fbdd9827ba8a6f7ec6550f3bc8f167'
p1998
sg139
S'059d0436d3cc4fade30164637d5dda1f'
p1999
sg141
(lp2000
g1934
ag1941
ag1948
ag1955
ag1962
ag1969
ag1976
ag110
asg143
Nsba(ibclass
BBasicBlock
p2001
(dp2002
g12
Nsg13
(lp2003
(ibclass
BInstr
p2004
(dp2005
g2
Nsg17
S'LDR             W1, [X20]'
p2006
sg19
S'810240b9'
p2007
sg21
Vldr w1, [x20]
p2008
sg5
L18446743798836610164L
sg6
Nsg23
S'LDR'
p2009
sg25
S'0xffffffc0004bc474L'
p2010
sg27
Nsba(ibclass
BInstr
p2011
(dp2012
g2
Nsg17
S'MOV             W0, #0x1005FFFF'
p2013
sg19
S'40ffbd12'
p2014
sg21
Vmovn w0, #0xeffa, lsl #16
p2015
sg5
L18446743798836610168L
sg6
Nsg23
S'MOV'
p2016
sg25
S'0xffffffc0004bc478L'
p2017
sg27
Nsba(ibclass
BInstr
p2018
(dp2019
g2
Nsg17
S'CMP             W1, W0'
p2020
sg19
S'3f00006b'
p2021
sg21
Vcmp w1, w0
p2022
sg5
L18446743798836610172L
sg6
Nsg23
S'CMP'
p2023
sg25
S'0xffffffc0004bc47cL'
p2024
sg27
Nsba(ibclass
BInstr
p2025
(dp2026
g2
Nsg17
S'B.HI            loc_FFFFFFC0004BC4C0'
p2027
sg19
S'08020054'
p2028
sg21
Vb.hi #0x40
p2029
sg5
L18446743798836610176L
sg6
Nsg23
g110
sg25
S'0xffffffc0004bc480L'
p2030
sg27
Nsbasg112
(lp2031
S'LDR reg, mem'
p2032
aS'MOV reg, #0x1005FFFF'
p2033
aS'CMP reg, reg'
p2034
aS'B.HI func'
p2035
asg127
Nsg5
S'0xffffffc0004bc474L'
p2036
sg129
(lp2037
S'0xffffffc0004bc3e4L'
p2038
aS'0xffffffc0004bc404L'
p2039
aS'0xffffffc0004bc424L'
p2040
aS'0xffffffc0004bc440L'
p2041
asg6
Nsg131
(lp2042
S'0xffffffc0004bc484L'
p2043
aS'0xffffffc0004bc4c0L'
p2044
asg135
Nsg136
Nsg137
S'c12720853e5913f36fa2fd1ae3388377'
p2045
sg139
S'ec72c6c000acf550f9119a7de1b2e238'
p2046
sg141
(lp2047
g2009
ag2016
ag2023
ag110
asg143
Nsba(ibclass
BBasicBlock
p2048
(dp2049
g12
Nsg13
(lp2050
(ibclass
BInstr
p2051
(dp2052
g2
Nsg17
S'LDR             X24, [X20,#0xA0]'
p2053
sg19
S'985240f9'
p2054
sg21
Vldr x24, [x20, #0xa0]
p2055
sg5
L18446743798836610180L
sg6
Nsg23
S'LDR'
p2056
sg25
S'0xffffffc0004bc484L'
p2057
sg27
Nsba(ibclass
BInstr
p2058
(dp2059
g2
Nsg17
S'CBZ             W27, loc_FFFFFFC0004BC60C'
p2060
sg19
S'3b0c0034'
p2061
sg21
Vcbz w27, #0x184
p2062
sg5
L18446743798836610184L
sg6
Nsg23
S'CBZ'
p2063
sg25
S'0xffffffc0004bc488L'
p2064
sg27
Nsbasg112
(lp2065
S'LDR reg4, mem'
p2066
aS'CBZ reg7, func'
p2067
asg127
Nsg5
S'0xffffffc0004bc484L'
p2068
sg129
(lp2069
S'0xffffffc0004bc474L'
p2070
asg6
Nsg131
(lp2071
S'0xffffffc0004bc48cL'
p2072
aS'0xffffffc0004bc60cL'
p2073
asg135
Nsg136
Nsg137
S'a0c488049ab653dbdfa1dc805bb83f13'
p2074
sg139
S'681a9b4a92ac1ad134bbf8392edecddc'
p2075
sg141
(lp2076
g2056
ag2063
asg143
Nsba(ibclass
BBasicBlock
p2077
(dp2078
g12
Nsg13
(lp2079
(ibclass
BInstr
p2080
(dp2081
g2
Nsg17
S'ADD             X24, X24, #0x2A0'
p2082
sg19
S'18830a91'
p2083
sg21
Vadd x24, x24, #0x2a0
p2084
sg5
L18446743798836610188L
sg6
Nsg23
S'ADD'
p2085
sg25
S'0xffffffc0004bc48cL'
p2086
sg27
Nsba(ibclass
BInstr
p2087
(dp2088
g2
Nsg17
S'MOV             X1, X24'
p2089
sg19
S'e10318aa'
p2090
sg21
Vmov x1, x24
p2091
sg5
L18446743798836610192L
sg6
Nsg23
S'MOV'
p2092
sg25
S'0xffffffc0004bc490L'
p2093
sg27
Nsba(ibclass
BInstr
p2094
(dp2095
g2
Nsg17
S'MOV             W0, #2'
p2096
sg19
S'40008052'
p2097
sg21
Vmovz w0, #0x2
p2098
sg5
L18446743798836610196L
sg6
Nsg23
S'MOV'
p2099
sg25
S'0xffffffc0004bc494L'
p2100
sg27
Nsba(ibclass
BInstr
p2101
(dp2102
g2
Nsg17
S'BL              uncached_logk'
p2103
sg19
S'c3c1f797'
p2104
sg21
Vbl #0xffffffffffdf070c
p2105
sg5
L18446743798836610200L
sg6
Nsg23
S'BL'
p2106
sg25
S'0xffffffc0004bc498L'
p2107
sg27
Nsba(ibclass
BInstr
p2108
(dp2109
g2
Nsg17
S'B               loc_FFFFFFC0004BC4A0'
p2110
sg19
S'01000014'
p2111
sg21
Vb #4
p2112
sg5
L18446743798836610204L
sg6
Nsg23
g110
sg25
S'0xffffffc0004bc49cL'
p2113
sg27
Nsbasg112
(lp2114
S'ADD reg4, reg4, #0x2A0'
p2115
aS'MOV reg, reg4'
p2116
aS'MOV reg, #2'
p2117
aS'BL uncached_logk'
p2118
aS'B func'
p2119
asg127
Nsg5
S'0xffffffc0004bc48cL'
p2120
sg129
(lp2121
S'0xffffffc0004bc484L'
p2122
asg6
Nsg131
(lp2123
S'0xffffffc0004bc4a0L'
p2124
asg135
Nsg136
Nsg137
S'e3548680809003a0c25cb1c7af39f7b4'
p2125
sg139
S'461bd46398bf933f128df01452890744'
p2126
sg141
(lp2127
g2085
ag2092
ag2099
ag2106
ag110
asg143
Nsba(ibclass
BBasicBlock
p2128
(dp2129
g12
Nsg13
(lp2130
(ibclass
BInstr
p2131
(dp2132
g2
Nsg17
S'NOP'
p2133
sg19
S'1f2003d5'
p2134
sg21
Vnop 
p2135
sg5
L18446743798836610208L
sg6
Nsg23
S'NOP'
p2136
sg25
S'0xffffffc0004bc4a0L'
p2137
sg27
Nsba(ibclass
BInstr
p2138
(dp2139
g2
Nsg17
S'B               loc_FFFFFFC0004BC4A8'
p2140
sg19
S'01000014'
p2141
sg21
Vb #4
p2142
sg5
L18446743798836610212L
sg6
Nsg23
g110
sg25
S'0xffffffc0004bc4a4L'
p2143
sg27
Nsbasg112
(lp2144
g2133
aS'B func'
p2145
asg127
Nsg5
S'0xffffffc0004bc4a0L'
p2146
sg129
(lp2147
S'0xffffffc0004bc48cL'
p2148
asg6
Nsg131
(lp2149
S'0xffffffc0004bc4a8L'
p2150
asg135
Nsg136
Nsg137
S'cd7747b0f25165b140e3928a9053deac'
p2151
sg139
S'361ec6e5b53b4a9d315a4d3f79274e10'
p2152
sg141
(lp2153
g2136
ag110
asg143
Nsba(ibclass
BBasicBlock
p2154
(dp2155
g12
Nsg13
(lp2156
(ibclass
BInstr
p2157
(dp2158
g2
Nsg17
S'NOP'
p2159
sg19
S'1f2003d5'
p2160
sg21
Vnop 
p2161
sg5
L18446743798836610216L
sg6
Nsg23
S'NOP'
p2162
sg25
S'0xffffffc0004bc4a8L'
p2163
sg27
Nsba(ibclass
BInstr
p2164
(dp2165
g2
Nsg17
S'ADD             W21, W21, #0x4C'
p2166
sg19
S'b5320111'
p2167
sg21
Vadd w21, w21, #0x4c
p2168
sg5
L18446743798836610220L
sg6
Nsg23
S'ADD'
p2169
sg25
S'0xffffffc0004bc4acL'
p2170
sg27
Nsbasg112
(lp2171
g2159
aS'ADD reg1, reg1, #0x4C'
p2172
asg127
Nsg5
S'0xffffffc0004bc4a8L'
p2173
sg129
(lp2174
S'0xffffffc0004bc4a0L'
p2175
asg6
Nsg131
(lp2176
S'0xffffffc0004bc4b0L'
p2177
asg135
Nsg136
Nsg137
S'e6579f4c2ccdc9b36a74bfbed66bf0c6'
p2178
sg139
S'f4aec7b41b8bded00ddd2533ba866409'
p2179
sg141
(lp2180
g2162
ag2169
asg143
Nsba(ibclass
BBasicBlock
p2181
(dp2182
g12
Nsg13
(lp2183
(ibclass
BInstr
p2184
(dp2185
g2
Nsg17
S'STR             W21, [X24]'
p2186
sg19
S'150300b9'
p2187
sg21
Vstr w21, [x24]
p2188
sg5
L18446743798836610224L
sg6
Nsg23
S'STR'
p2189
sg25
S'0xffffffc0004bc4b0L'
p2190
sg27
Nsba(ibclass
BInstr
p2191
(dp2192
g2
Nsg17
S'CBZ             W0, loc_FFFFFFC0004BC4C0'
p2193
sg19
S'60000034'
p2194
sg21
Vcbz w0, #0xc
p2195
sg5
L18446743798836610228L
sg6
Nsg23
S'CBZ'
p2196
sg25
S'0xffffffc0004bc4b4L'
p2197
sg27
Nsbasg112
(lp2198
S'STR reg1, mem'
p2199
aS'CBZ reg, func'
p2200
asg127
Nsg5
S'0xffffffc0004bc4b0L'
p2201
sg129
(lp2202
S'0xffffffc0004bc4a8L'
p2203
aS'0xffffffc0004bc628L'
p2204
asg6
Nsg131
(lp2205
S'0xffffffc0004bc4b8L'
p2206
aS'0xffffffc0004bc4c0L'
p2207
asg135
Nsg136
Nsg137
S'7d788d46420b368d5de59b91ed664d66'
p2208
sg139
S'8a4e84ce7282e6e692f832533fa0f324'
p2209
sg141
(lp2210
g2189
ag2196
asg143
Nsba(ibclass
BBasicBlock
p2211
(dp2212
g12
Nsg13
(lp2213
(ibclass
BInstr
p2214
(dp2215
g2
Nsg17
S'DSB             SY'
p2216
sg19
S'9f3f03d5'
p2217
sg21
Vdsb sy
p2218
sg5
L18446743798836610232L
sg6
Nsg23
S'DSB'
p2219
sg25
S'0xffffffc0004bc4b8L'
p2220
sg27
Nsba(ibclass
BInstr
p2221
(dp2222
g2
Nsg17
S'ISB'
p2223
sg19
S'df3f03d5'
p2224
sg21
Visb 
p2225
sg5
L18446743798836610236L
sg6
Nsg23
S'ISB'
p2226
sg25
S'0xffffffc0004bc4bcL'
p2227
sg27
Nsbasg112
(lp2228
S'DSB SY'
p2229
ag2223
asg127
Nsg5
S'0xffffffc0004bc4b8L'
p2230
sg129
(lp2231
S'0xffffffc0004bc4b0L'
p2232
asg6
Nsg131
(lp2233
S'0xffffffc0004bc4c0L'
p2234
asg135
Nsg136
Nsg137
S'53dc4bd1d85e328cea59865fd16599f6'
p2235
sg139
S'2c7d9dbff8fc4f24f1e9854b312ef5cb'
p2236
sg141
(lp2237
g2219
ag2226
asg143
Nsba(ibclass
BBasicBlock
p2238
(dp2239
g12
Nsg13
(lp2240
(ibclass
BInstr
p2241
(dp2242
g2
Nsg17
S'ADRP            X0, #qword_FFFFFFC000E49038@PAGE'
p2243
sg19
S'604c00b0'
p2244
sg21
Vadrp x0, #0x98d000
p2245
sg5
L18446743798836610240L
sg6
Nsg23
S'ADRP'
p2246
sg25
S'0xffffffc0004bc4c0L'
p2247
sg27
Nsba(ibclass
BInstr
p2248
(dp2249
g2
Nsg17
S'LDR             X0, [X0,#qword_FFFFFFC000E49038@PAGEOFF]'
p2250
sg19
S'001c40f9'
p2251
sg21
Vldr x0, [x0, #0x38]
p2252
sg5
L18446743798836610244L
sg6
Nsg23
S'LDR'
p2253
sg25
S'0xffffffc0004bc4c4L'
p2254
sg27
Nsba(ibclass
BInstr
p2255
(dp2256
g2
Nsg17
S'STR             WZR, [X0]'
p2257
sg19
S'1f0000b9'
p2258
sg21
Vstr wzr, [x0]
p2259
sg5
L18446743798836610248L
sg6
Nsg23
S'STR'
p2260
sg25
S'0xffffffc0004bc4c8L'
p2261
sg27
Nsba(ibclass
BInstr
p2262
(dp2263
g2
Nsg17
S'LDR             W0, [X22,#8]'
p2264
sg19
S'c00a40b9'
p2265
sg21
Vldr w0, [x22, #8]
p2266
sg5
L18446743798836610252L
sg6
Nsg23
S'LDR'
p2267
sg25
S'0xffffffc0004bc4ccL'
p2268
sg27
Nsba(ibclass
BInstr
p2269
(dp2270
g2
Nsg17
S'STR             W0, [X19,#8]'
p2271
sg19
S'600a00b9'
p2272
sg21
Vstr w0, [x19, #8]
p2273
sg5
L18446743798836610256L
sg6
Nsg23
S'STR'
p2274
sg25
S'0xffffffc0004bc4d0L'
p2275
sg27
Nsba(ibclass
BInstr
p2276
(dp2277
g2
Nsg17
S'LDR             W0, [X25,X26]'
p2278
sg19
S'206b7ab8'
p2279
sg21
Vldr w0, [x25, x26]
p2280
sg5
L18446743798836610260L
sg6
Nsg23
S'LDR'
p2281
sg25
S'0xffffffc0004bc4d4L'
p2282
sg27
Nsba(ibclass
BInstr
p2283
(dp2284
g2
Nsg17
S'LDR             X21, [X20,#0xA0]'
p2285
sg19
S'955240f9'
p2286
sg21
Vldr x21, [x20, #0xa0]
p2287
sg5
L18446743798836610264L
sg6
Nsg23
S'LDR'
p2288
sg25
S'0xffffffc0004bc4d8L'
p2289
sg27
Nsba(ibclass
BInstr
p2290
(dp2291
g2
Nsg17
S'LDR             W22, [X22,#4]'
p2292
sg19
S'd60640b9'
p2293
sg21
Vldr w22, [x22, #4]
p2294
sg5
L18446743798836610268L
sg6
Nsg23
S'LDR'
p2295
sg25
S'0xffffffc0004bc4dcL'
p2296
sg27
Nsba(ibclass
BInstr
p2297
(dp2298
g2
Nsg17
S'ADD             X21, X21, X0'
p2299
sg19
S'b502008b'
p2300
sg21
Vadd x21, x21, x0
p2301
sg5
L18446743798836610272L
sg6
Nsg23
S'ADD'
p2302
sg25
S'0xffffffc0004bc4e0L'
p2303
sg27
Nsba(ibclass
BInstr
p2304
(dp2305
g2
Nsg17
S'MOV             X1, X21'
p2306
sg19
S'e10315aa'
p2307
sg21
Vmov x1, x21
p2308
sg5
L18446743798836610276L
sg6
Nsg23
S'MOV'
p2309
sg25
S'0xffffffc0004bc4e4L'
p2310
sg27
Nsba(ibclass
BInstr
p2311
(dp2312
g2
Nsg17
S'MOV             W0, #2'
p2313
sg19
S'40008052'
p2314
sg21
Vmovz w0, #0x2
p2315
sg5
L18446743798836610280L
sg6
Nsg23
S'MOV'
p2316
sg25
S'0xffffffc0004bc4e8L'
p2317
sg27
Nsba(ibclass
BInstr
p2318
(dp2319
g2
Nsg17
S'BL              uncached_logk'
p2320
sg19
S'aec1f797'
p2321
sg21
Vbl #0xffffffffffdf06b8
p2322
sg5
L18446743798836610284L
sg6
Nsg23
S'BL'
p2323
sg25
S'0xffffffc0004bc4ecL'
p2324
sg27
Nsba(ibclass
BInstr
p2325
(dp2326
g2
Nsg17
S'B               loc_FFFFFFC0004BC4F4'
p2327
sg19
S'01000014'
p2328
sg21
Vb #4
p2329
sg5
L18446743798836610288L
sg6
Nsg23
g110
sg25
S'0xffffffc0004bc4f0L'
p2330
sg27
Nsbasg112
(lp2331
S'ADRP reg, #func@PAGE'
p2332
aS'LDR reg, mem'
p2333
aS'STR WZR, mem'
p2334
aS'LDR reg, mem'
p2335
aS'STR reg, mem'
p2336
aS'LDR reg, mem'
p2337
aS'LDR reg1, mem'
p2338
aS'LDR reg2, mem'
p2339
aS'ADD reg1, reg1, reg'
p2340
aS'MOV reg, reg1'
p2341
aS'MOV reg, #2'
p2342
aS'BL uncached_logk'
p2343
aS'B func'
p2344
asg127
Nsg5
S'0xffffffc0004bc4c0L'
p2345
sg129
(lp2346
S'0xffffffc0004bc33cL'
p2347
aS'0xffffffc0004bc454L'
p2348
aS'0xffffffc0004bc474L'
p2349
aS'0xffffffc0004bc4b0L'
p2350
aS'0xffffffc0004bc4b8L'
p2351
asg6
Nsg131
(lp2352
S'0xffffffc0004bc4f4L'
p2353
asg135
Nsg136
Nsg137
S'9172262c03ef0f23583235fb61607856'
p2354
sg139
S'1d8d7198400db75ff676f9d0e4b2373e'
p2355
sg141
(lp2356
g2246
ag2253
ag2260
ag2267
ag2274
ag2281
ag2288
ag2295
ag2302
ag2309
ag2316
ag2323
ag110
asg143
Nsba(ibclass
BBasicBlock
p2357
(dp2358
g12
Nsg13
(lp2359
(ibclass
BInstr
p2360
(dp2361
g2
Nsg17
S'NOP'
p2362
sg19
S'1f2003d5'
p2363
sg21
Vnop 
p2364
sg5
L18446743798836610292L
sg6
Nsg23
S'NOP'
p2365
sg25
S'0xffffffc0004bc4f4L'
p2366
sg27
Nsba(ibclass
BInstr
p2367
(dp2368
g2
Nsg17
S'B               loc_FFFFFFC0004BC4FC'
p2369
sg19
S'01000014'
p2370
sg21
Vb #4
p2371
sg5
L18446743798836610296L
sg6
Nsg23
g110
sg25
S'0xffffffc0004bc4f8L'
p2372
sg27
Nsbasg112
(lp2373
g2362
aS'B func'
p2374
asg127
Nsg5
S'0xffffffc0004bc4f4L'
p2375
sg129
(lp2376
S'0xffffffc0004bc4c0L'
p2377
asg6
Nsg131
(lp2378
S'0xffffffc0004bc4fcL'
p2379
asg135
Nsg136
Nsg137
S'cd7747b0f25165b140e3928a9053deac'
p2380
sg139
S'361ec6e5b53b4a9d315a4d3f79274e10'
p2381
sg141
(lp2382
g2365
ag110
asg143
Nsba(ibclass
BBasicBlock
p2383
(dp2384
g12
Nsg13
(lp2385
(ibclass
BInstr
p2386
(dp2387
g2
Nsg17
S'NOP'
p2388
sg19
S'1f2003d5'
p2389
sg21
Vnop 
p2390
sg5
L18446743798836610300L
sg6
Nsg23
S'NOP'
p2391
sg25
S'0xffffffc0004bc4fcL'
p2392
sg27
Nsba(ibclass
BInstr
p2393
(dp2394
g2
Nsg17
S'MOV             W1, #0x400'
p2395
sg19
S'01808052'
p2396
sg21
Vmovz w1, #0x400
p2397
sg5
L18446743798836610304L
sg6
Nsg23
S'MOV'
p2398
sg25
S'0xffffffc0004bc500L'
p2399
sg27
Nsba(ibclass
BInstr
p2400
(dp2401
g2
Nsg17
S'STR             W1, [X21]'
p2402
sg19
S'a10200b9'
p2403
sg21
Vstr w1, [x21]
p2404
sg5
L18446743798836610308L
sg6
Nsg23
S'STR'
p2405
sg25
S'0xffffffc0004bc504L'
p2406
sg27
Nsba(ibclass
BInstr
p2407
(dp2408
g2
Nsg17
S'CBZ             W0, loc_FFFFFFC0004BC514'
p2409
sg19
S'60000034'
p2410
sg21
Vcbz w0, #0xc
p2411
sg5
L18446743798836610312L
sg6
Nsg23
S'CBZ'
p2412
sg25
S'0xffffffc0004bc508L'
p2413
sg27
Nsbasg112
(lp2414
g2388
aS'MOV reg, #0x400'
p2415
aS'STR reg, mem'
p2416
aS'CBZ reg, func'
p2417
asg127
Nsg5
S'0xffffffc0004bc4fcL'
p2418
sg129
(lp2419
S'0xffffffc0004bc4f4L'
p2420
asg6
Nsg131
(lp2421
S'0xffffffc0004bc50cL'
p2422
aS'0xffffffc0004bc514L'
p2423
asg135
Nsg136
Nsg137
S'4832f3fe52218ea650befd43e0a7d425'
p2424
sg139
S'ddf722094c939bfd7745034553d1a50a'
p2425
sg141
(lp2426
g2391
ag2398
ag2405
ag2412
asg143
Nsba(ibclass
BBasicBlock
p2427
(dp2428
g12
Nsg13
(lp2429
(ibclass
BInstr
p2430
(dp2431
g2
Nsg17
S'DSB             SY'
p2432
sg19
S'9f3f03d5'
p2433
sg21
Vdsb sy
p2434
sg5
L18446743798836610316L
sg6
Nsg23
S'DSB'
p2435
sg25
S'0xffffffc0004bc50cL'
p2436
sg27
Nsba(ibclass
BInstr
p2437
(dp2438
g2
Nsg17
S'ISB'
p2439
sg19
S'df3f03d5'
p2440
sg21
Visb 
p2441
sg5
L18446743798836610320L
sg6
Nsg23
S'ISB'
p2442
sg25
S'0xffffffc0004bc510L'
p2443
sg27
Nsbasg112
(lp2444
S'DSB SY'
p2445
ag2439
asg127
Nsg5
S'0xffffffc0004bc50cL'
p2446
sg129
(lp2447
S'0xffffffc0004bc4fcL'
p2448
asg6
Nsg131
(lp2449
S'0xffffffc0004bc514L'
p2450
asg135
Nsg136
Nsg137
S'53dc4bd1d85e328cea59865fd16599f6'
p2451
sg139
S'2c7d9dbff8fc4f24f1e9854b312ef5cb'
p2452
sg141
(lp2453
g2435
ag2442
asg143
Nsba(ibclass
BBasicBlock
p2454
(dp2455
g12
Nsg13
(lp2456
(ibclass
BInstr
p2457
(dp2458
g2
Nsg17
S'DSB             ST'
p2459
sg19
S'9f3e03d5'
p2460
sg21
Vdsb st
p2461
sg5
L18446743798836610324L
sg6
Nsg23
S'DSB'
p2462
sg25
S'0xffffffc0004bc514L'
p2463
sg27
Nsba(ibclass
BInstr
p2464
(dp2465
g2
Nsg17
S'MOV             W1, #0'
p2466
sg19
S'01008052'
p2467
sg21
Vmovz w1, #0
p2468
sg5
L18446743798836610328L
sg6
Nsg23
S'MOV'
p2469
sg25
S'0xffffffc0004bc518L'
p2470
sg27
Nsba(ibclass
BInstr
p2471
(dp2472
g2
Nsg17
S'MOV             X2, #0x80'
p2473
sg19
S'021080d2'
p2474
sg21
Vmovz x2, #0x80
p2475
sg5
L18446743798836610332L
sg6
Nsg23
S'MOV'
p2476
sg25
S'0xffffffc0004bc51cL'
p2477
sg27
Nsba(ibclass
BInstr
p2478
(dp2479
g2
Nsg17
S'ADD             X0, X19, #0x40'
p2480
sg19
S'60020191'
p2481
sg21
Vadd x0, x19, #0x40
p2482
sg5
L18446743798836610336L
sg6
Nsg23
S'ADD'
p2483
sg25
S'0xffffffc0004bc520L'
p2484
sg27
Nsba(ibclass
BInstr
p2485
(dp2486
g2
Nsg17
S'BL              memset'
p2487
sg19
S'3790fd97'
p2488
sg21
Vbl #0xfffffffffff640dc
p2489
sg5
L18446743798836610340L
sg6
Nsg23
S'BL'
p2490
sg25
S'0xffffffc0004bc524L'
p2491
sg27
Nsba(ibclass
BInstr
p2492
(dp2493
g2
Nsg17
S'ADD             X0, X19, #0xC0'
p2494
sg19
S'60020391'
p2495
sg21
Vadd x0, x19, #0xc0
p2496
sg5
L18446743798836610344L
sg6
Nsg23
S'ADD'
p2497
sg25
S'0xffffffc0004bc528L'
p2498
sg27
Nsba(ibclass
BInstr
p2499
(dp2500
g2
Nsg17
S'MOV             W1, #0'
p2501
sg19
S'01008052'
p2502
sg21
Vmovz w1, #0
p2503
sg5
L18446743798836610348L
sg6
Nsg23
S'MOV'
p2504
sg25
S'0xffffffc0004bc52cL'
p2505
sg27
Nsba(ibclass
BInstr
p2506
(dp2507
g2
Nsg17
S'MOV             X2, #0x80'
p2508
sg19
S'021080d2'
p2509
sg21
Vmovz x2, #0x80
p2510
sg5
L18446743798836610352L
sg6
Nsg23
S'MOV'
p2511
sg25
S'0xffffffc0004bc530L'
p2512
sg27
Nsba(ibclass
BInstr
p2513
(dp2514
g2
Nsg17
S'BL              memset'
p2515
sg19
S'3390fd97'
p2516
sg21
Vbl #0xfffffffffff640cc
p2517
sg5
L18446743798836610356L
sg6
Nsg23
S'BL'
p2518
sg25
S'0xffffffc0004bc534L'
p2519
sg27
Nsba(ibclass
BInstr
p2520
(dp2521
g2
Nsg17
S'MOV             W0, #1'
p2522
sg19
S'20008052'
p2523
sg21
Vmovz w0, #0x1
p2524
sg5
L18446743798836610360L
sg6
Nsg23
S'MOV'
p2525
sg25
S'0xffffffc0004bc538L'
p2526
sg27
Nsba(ibclass
BInstr
p2527
(dp2528
g2
Nsg17
S'STRB            W0, [X19,#0x10]'
p2529
sg19
S'60420039'
p2530
sg21
Vstrb w0, [x19, #0x10]
p2531
sg5
L18446743798836610364L
sg6
Nsg23
S'STR'
p2532
sg25
S'0xffffffc0004bc53cL'
p2533
sg27
Nsba(ibclass
BInstr
p2534
(dp2535
g2
Nsg17
S'LDR             W0, [X19,#8]'
p2536
sg19
S'600a40b9'
p2537
sg21
Vldr w0, [x19, #8]
p2538
sg5
L18446743798836610368L
sg6
Nsg23
S'LDR'
p2539
sg25
S'0xffffffc0004bc540L'
p2540
sg27
Nsba(ibclass
BInstr
p2541
(dp2542
g2
Nsg17
S'STR             WZR, [X19,#0xC]'
p2543
sg19
S'7f0e00b9'
p2544
sg21
Vstr wzr, [x19, #0xc]
p2545
sg5
L18446743798836610372L
sg6
Nsg23
S'STR'
p2546
sg25
S'0xffffffc0004bc544L'
p2547
sg27
Nsba(ibclass
BInstr
p2548
(dp2549
g2
Nsg17
S'STRB            WZR, [X19,#0x11]'
p2550
sg19
S'7f460039'
p2551
sg21
Vstrb wzr, [x19, #0x11]
p2552
sg5
L18446743798836610376L
sg6
Nsg23
S'STR'
p2553
sg25
S'0xffffffc0004bc548L'
p2554
sg27
Nsba(ibclass
BInstr
p2555
(dp2556
g2
Nsg17
S'STRB            WZR, [X19,#0x12]'
p2557
sg19
S'7f4a0039'
p2558
sg21
Vstrb wzr, [x19, #0x12]
p2559
sg5
L18446743798836610380L
sg6
Nsg23
S'STR'
p2560
sg25
S'0xffffffc0004bc54cL'
p2561
sg27
Nsba(ibclass
BInstr
p2562
(dp2563
g2
Nsg17
S'CMP             W0, #3'
p2564
sg19
S'1f0c0071'
p2565
sg21
Vcmp w0, #3
p2566
sg5
L18446743798836610384L
sg6
Nsg23
S'CMP'
p2567
sg25
S'0xffffffc0004bc550L'
p2568
sg27
Nsba(ibclass
BInstr
p2569
(dp2570
g2
Nsg17
S'B.EQ            loc_FFFFFFC0004BC5FC'
p2571
sg19
S'40050054'
p2572
sg21
Vb.eq #0xa8
p2573
sg5
L18446743798836610388L
sg6
Nsg23
g110
sg25
S'0xffffffc0004bc554L'
p2574
sg27
Nsbasg112
(lp2575
S'DSB ST'
p2576
aS'MOV reg, #0'
p2577
aS'MOV reg, #0x80'
p2578
aS'ADD reg, reg9, #0x40'
p2579
aS'BL memset'
p2580
aS'ADD reg, reg9, #0xC0'
p2581
aS'MOV reg, #0'
p2582
aS'MOV reg, #0x80'
p2583
aS'BL memset'
p2584
aS'MOV reg, #1'
p2585
aS'STRB reg, mem'
p2586
aS'LDR reg, mem'
p2587
aS'STR WZR, mem'
p2588
aS'STRB WZR, mem'
p2589
aS'STRB WZR, mem'
p2590
aS'CMP reg, #3'
p2591
aS'B.EQ func'
p2592
asg127
Nsg5
S'0xffffffc0004bc514L'
p2593
sg129
(lp2594
S'0xffffffc0004bc4fcL'
p2595
aS'0xffffffc0004bc50cL'
p2596
asg6
Nsg131
(lp2597
S'0xffffffc0004bc558L'
p2598
aS'0xffffffc0004bc5fcL'
p2599
asg135
Nsg136
Nsg137
S'd24b384e0e6b93f1c187d80430080255'
p2600
sg139
S'de3c2e28562dbc0f1160518389ec32d0'
p2601
sg141
(lp2602
g2462
ag2469
ag2476
ag2483
ag2490
ag2497
ag2504
ag2511
ag2518
ag2525
ag2532
ag2539
ag2546
ag2553
ag2560
ag2567
ag110
asg143
Nsba(ibclass
BBasicBlock
p2603
(dp2604
g12
Nsg13
(lp2605
(ibclass
BInstr
p2606
(dp2607
g2
Nsg17
S'LDR             W0, [X25,X26]'
p2608
sg19
S'206b7ab8'
p2609
sg21
Vldr w0, [x25, x26]
p2610
sg5
L18446743798836610392L
sg6
Nsg23
S'LDR'
p2611
sg25
S'0xffffffc0004bc558L'
p2612
sg27
Nsba(ibclass
BInstr
p2613
(dp2614
g2
Nsg17
S'LDR             X19, [X20,#0xA0]'
p2615
sg19
S'935240f9'
p2616
sg21
Vldr x19, [x20, #0xa0]
p2617
sg5
L18446743798836610396L
sg6
Nsg23
S'LDR'
p2618
sg25
S'0xffffffc0004bc55cL'
p2619
sg27
Nsba(ibclass
BInstr
p2620
(dp2621
g2
Nsg17
S'ADD             X19, X19, X0'
p2622
sg19
S'7302008b'
p2623
sg21
Vadd x19, x19, x0
p2624
sg5
L18446743798836610400L
sg6
Nsg23
S'ADD'
p2625
sg25
S'0xffffffc0004bc560L'
p2626
sg27
Nsba(ibclass
BInstr
p2627
(dp2628
g2
Nsg17
S'MOV             X1, X19'
p2629
sg19
S'e10313aa'
p2630
sg21
Vmov x1, x19
p2631
sg5
L18446743798836610404L
sg6
Nsg23
S'MOV'
p2632
sg25
S'0xffffffc0004bc564L'
p2633
sg27
Nsba(ibclass
BInstr
p2634
(dp2635
g2
Nsg17
S'MOV             W0, #2'
p2636
sg19
S'40008052'
p2637
sg21
Vmovz w0, #0x2
p2638
sg5
L18446743798836610408L
sg6
Nsg23
S'MOV'
p2639
sg25
S'0xffffffc0004bc568L'
p2640
sg27
Nsba(ibclass
BInstr
p2641
(dp2642
g2
Nsg17
S'BL              uncached_logk'
p2643
sg19
S'8ec1f797'
p2644
sg21
Vbl #0xffffffffffdf0638
p2645
sg5
L18446743798836610412L
sg6
Nsg23
S'BL'
p2646
sg25
S'0xffffffc0004bc56cL'
p2647
sg27
Nsba(ibclass
BInstr
p2648
(dp2649
g2
Nsg17
S'B               loc_FFFFFFC0004BC574'
p2650
sg19
S'01000014'
p2651
sg21
Vb #4
p2652
sg5
L18446743798836610416L
sg6
Nsg23
g110
sg25
S'0xffffffc0004bc570L'
p2653
sg27
Nsbasg112
(lp2654
S'LDR reg, mem'
p2655
aS'LDR reg9, mem'
p2656
aS'ADD reg9, reg9, reg'
p2657
aS'MOV reg, reg9'
p2658
aS'MOV reg, #2'
p2659
aS'BL uncached_logk'
p2660
aS'B func'
p2661
asg127
Nsg5
S'0xffffffc0004bc558L'
p2662
sg129
(lp2663
S'0xffffffc0004bc514L'
p2664
asg6
Nsg131
(lp2665
S'0xffffffc0004bc574L'
p2666
asg135
Nsg136
Nsg137
S'4a9d71e5e39dbc49f6c1f0c1d38d130a'
p2667
sg139
S'687c63a376603d3004baa519bd15bd29'
p2668
sg141
(lp2669
g2611
ag2618
ag2625
ag2632
ag2639
ag2646
ag110
asg143
Nsba(ibclass
BBasicBlock
p2670
(dp2671
g12
Nsg13
(lp2672
(ibclass
BInstr
p2673
(dp2674
g2
Nsg17
S'NOP'
p2675
sg19
S'1f2003d5'
p2676
sg21
Vnop 
p2677
sg5
L18446743798836610420L
sg6
Nsg23
S'NOP'
p2678
sg25
S'0xffffffc0004bc574L'
p2679
sg27
Nsba(ibclass
BInstr
p2680
(dp2681
g2
Nsg17
S'B               loc_FFFFFFC0004BC57C'
p2682
sg19
S'01000014'
p2683
sg21
Vb #4
p2684
sg5
L18446743798836610424L
sg6
Nsg23
g110
sg25
S'0xffffffc0004bc578L'
p2685
sg27
Nsbasg112
(lp2686
g2675
aS'B func'
p2687
asg127
Nsg5
S'0xffffffc0004bc574L'
p2688
sg129
(lp2689
S'0xffffffc0004bc558L'
p2690
asg6
Nsg131
(lp2691
S'0xffffffc0004bc57cL'
p2692
asg135
Nsg136
Nsg137
S'cd7747b0f25165b140e3928a9053deac'
p2693
sg139
S'361ec6e5b53b4a9d315a4d3f79274e10'
p2694
sg141
(lp2695
g2678
ag110
asg143
Nsba(ibclass
BBasicBlock
p2696
(dp2697
g12
Nsg13
(lp2698
(ibclass
BInstr
p2699
(dp2700
g2
Nsg17
S'NOP'
p2701
sg19
S'1f2003d5'
p2702
sg21
Vnop 
p2703
sg5
L18446743798836610428L
sg6
Nsg23
S'NOP'
p2704
sg25
S'0xffffffc0004bc57cL'
p2705
sg27
Nsba(ibclass
BInstr
p2706
(dp2707
g2
Nsg17
S'AND             W22, W22, #0xFF'
p2708
sg19
S'd61e0012'
p2709
sg21
Vand w22, w22, #0xff
p2710
sg5
L18446743798836610432L
sg6
Nsg23
S'AND'
p2711
sg25
S'0xffffffc0004bc580L'
p2712
sg27
Nsba(ibclass
BInstr
p2713
(dp2714
g2
Nsg17
S'ORR             W22, W22, #0x100'
p2715
sg19
S'd6021832'
p2716
sg21
Vorr w22, w22, #0x100
p2717
sg5
L18446743798836610436L
sg6
Nsg23
S'ORR'
p2718
sg25
S'0xffffffc0004bc584L'
p2719
sg27
Nsba(ibclass
BInstr
p2720
(dp2721
g2
Nsg17
S'STR             W22, [X19]'
p2722
sg19
S'760200b9'
p2723
sg21
Vstr w22, [x19]
p2724
sg5
L18446743798836610440L
sg6
Nsg23
S'STR'
p2725
sg25
S'0xffffffc0004bc588L'
p2726
sg27
Nsba(ibclass
BInstr
p2727
(dp2728
g2
Nsg17
S'CBZ             W0, loc_FFFFFFC0004BC598'
p2729
sg19
S'60000034'
p2730
sg21
Vcbz w0, #0xc
p2731
sg5
L18446743798836610444L
sg6
Nsg23
S'CBZ'
p2732
sg25
S'0xffffffc0004bc58cL'
p2733
sg27
Nsbasg112
(lp2734
g2701
aS'AND reg2, reg2, #0xFF'
p2735
aS'ORR reg2, reg2, #0x100'
p2736
aS'STR reg2, mem'
p2737
aS'CBZ reg, func'
p2738
asg127
Nsg5
S'0xffffffc0004bc57cL'
p2739
sg129
(lp2740
S'0xffffffc0004bc574L'
p2741
asg6
Nsg131
(lp2742
S'0xffffffc0004bc590L'
p2743
aS'0xffffffc0004bc598L'
p2744
asg135
Nsg136
Nsg137
S'978c0d8183208fc1cfa65ecdaa681dde'
p2745
sg139
S'1a0cc35812e673ff6419599e85571419'
p2746
sg141
(lp2747
g2704
ag2711
ag2718
ag2725
ag2732
asg143
Nsba(ibclass
BBasicBlock
p2748
(dp2749
g12
Nsg13
(lp2750
(ibclass
BInstr
p2751
(dp2752
g2
Nsg17
S'DSB             SY'
p2753
sg19
S'9f3f03d5'
p2754
sg21
Vdsb sy
p2755
sg5
L18446743798836610448L
sg6
Nsg23
S'DSB'
p2756
sg25
S'0xffffffc0004bc590L'
p2757
sg27
Nsba(ibclass
BInstr
p2758
(dp2759
g2
Nsg17
S'ISB'
p2760
sg19
S'df3f03d5'
p2761
sg21
Visb 
p2762
sg5
L18446743798836610452L
sg6
Nsg23
S'ISB'
p2763
sg25
S'0xffffffc0004bc594L'
p2764
sg27
Nsbasg112
(lp2765
S'DSB SY'
p2766
ag2760
asg127
Nsg5
S'0xffffffc0004bc590L'
p2767
sg129
(lp2768
S'0xffffffc0004bc57cL'
p2769
asg6
Nsg131
(lp2770
S'0xffffffc0004bc598L'
p2771
asg135
Nsg136
Nsg137
S'53dc4bd1d85e328cea59865fd16599f6'
p2772
sg139
S'2c7d9dbff8fc4f24f1e9854b312ef5cb'
p2773
sg141
(lp2774
g2756
ag2763
asg143
Nsba(ibclass
BBasicBlock
p2775
(dp2776
g12
Nsg13
(lp2777
(ibclass
BInstr
p2778
(dp2779
g2
Nsg17
S'ADD             X0, X23, #0x8C0'
p2780
sg19
S'e0022391'
p2781
sg21
Vadd x0, x23, #0x8c0
p2782
sg5
L18446743798836610456L
sg6
Nsg23
S'ADD'
p2783
sg25
S'0xffffffc0004bc598L'
p2784
sg27
Nsba(ibclass
BInstr
p2785
(dp2786
g2
Nsg17
S'LDRH            W0, [X0,#0x3BA]'
p2787
sg19
S'00744779'
p2788
sg21
Vldrh w0, [x0, #0x3ba]
p2789
sg5
L18446743798836610460L
sg6
Nsg23
S'LDR'
p2790
sg25
S'0xffffffc0004bc59cL'
p2791
sg27
Nsba(ibclass
BInstr
p2792
(dp2793
g2
Nsg17
S'TBZ             W0, #2, loc_FFFFFFC0004BC5FC'
p2794
sg19
S'e0021036'
p2795
sg21
Vtbz w0, #2, #0x5c
p2796
sg5
L18446743798836610464L
sg6
Nsg23
S'TBZ'
p2797
sg25
S'0xffffffc0004bc5a0L'
p2798
sg27
Nsbasg112
(lp2799
S'ADD reg, reg3, #0x8C0'
p2800
aS'LDRH reg, mem'
p2801
aS'TBZ reg, #2, func'
p2802
asg127
Nsg5
S'0xffffffc0004bc598L'
p2803
sg129
(lp2804
S'0xffffffc0004bc57cL'
p2805
aS'0xffffffc0004bc590L'
p2806
asg6
Nsg131
(lp2807
S'0xffffffc0004bc5a4L'
p2808
aS'0xffffffc0004bc5fcL'
p2809
asg135
Nsg136
Nsg137
S'fd1487b74198afa5a4cbb8ff070d99ba'
p2810
sg139
S'e2544ca4ecf2ba35f736477237157479'
p2811
sg141
(lp2812
g2783
ag2790
ag2797
asg143
Nsba(ibclass
BBasicBlock
p2813
(dp2814
g12
Nsg13
(lp2815
(ibclass
BInstr
p2816
(dp2817
g2
Nsg17
S'LDR             W0, [X25,X26]'
p2818
sg19
S'206b7ab8'
p2819
sg21
Vldr w0, [x25, x26]
p2820
sg5
L18446743798836610468L
sg6
Nsg23
S'LDR'
p2821
sg25
S'0xffffffc0004bc5a4L'
p2822
sg27
Nsba(ibclass
BInstr
p2823
(dp2824
g2
Nsg17
S'LDR             X19, [X20,#0xA0]'
p2825
sg19
S'935240f9'
p2826
sg21
Vldr x19, [x20, #0xa0]
p2827
sg5
L18446743798836610472L
sg6
Nsg23
S'LDR'
p2828
sg25
S'0xffffffc0004bc5a8L'
p2829
sg27
Nsba(ibclass
BInstr
p2830
(dp2831
g2
Nsg17
S'ADD             X19, X19, X0'
p2832
sg19
S'7302008b'
p2833
sg21
Vadd x19, x19, x0
p2834
sg5
L18446743798836610476L
sg6
Nsg23
S'ADD'
p2835
sg25
S'0xffffffc0004bc5acL'
p2836
sg27
Nsba(ibclass
BInstr
p2837
(dp2838
g2
Nsg17
S'MOV             X1, X19'
p2839
sg19
S'e10313aa'
p2840
sg21
Vmov x1, x19
p2841
sg5
L18446743798836610480L
sg6
Nsg23
S'MOV'
p2842
sg25
S'0xffffffc0004bc5b0L'
p2843
sg27
Nsba(ibclass
BInstr
p2844
(dp2845
g2
Nsg17
S'MOV             W0, #1'
p2846
sg19
S'20008052'
p2847
sg21
Vmovz w0, #0x1
p2848
sg5
L18446743798836610484L
sg6
Nsg23
S'MOV'
p2849
sg25
S'0xffffffc0004bc5b4L'
p2850
sg27
Nsba(ibclass
BInstr
p2851
(dp2852
g2
Nsg17
S'BL              uncached_logk'
p2853
sg19
S'7bc1f797'
p2854
sg21
Vbl #0xffffffffffdf05ec
p2855
sg5
L18446743798836610488L
sg6
Nsg23
S'BL'
p2856
sg25
S'0xffffffc0004bc5b8L'
p2857
sg27
Nsba(ibclass
BInstr
p2858
(dp2859
g2
Nsg17
S'B               loc_FFFFFFC0004BC5C0'
p2860
sg19
S'01000014'
p2861
sg21
Vb #4
p2862
sg5
L18446743798836610492L
sg6
Nsg23
g110
sg25
S'0xffffffc0004bc5bcL'
p2863
sg27
Nsbasg112
(lp2864
S'LDR reg, mem'
p2865
aS'LDR reg9, mem'
p2866
aS'ADD reg9, reg9, reg'
p2867
aS'MOV reg, reg9'
p2868
aS'MOV reg, #1'
p2869
aS'BL uncached_logk'
p2870
aS'B func'
p2871
asg127
Nsg5
S'0xffffffc0004bc5a4L'
p2872
sg129
(lp2873
S'0xffffffc0004bc598L'
p2874
asg6
Nsg131
(lp2875
S'0xffffffc0004bc5c0L'
p2876
asg135
Nsg136
Nsg137
S'4a9d71e5e39dbc49f6c1f0c1d38d130a'
p2877
sg139
S'ca76dda50b3b7303468161a86269c19c'
p2878
sg141
(lp2879
g2821
ag2828
ag2835
ag2842
ag2849
ag2856
ag110
asg143
Nsba(ibclass
BBasicBlock
p2880
(dp2881
g12
Nsg13
(lp2882
(ibclass
BInstr
p2883
(dp2884
g2
Nsg17
S'NOP'
p2885
sg19
S'1f2003d5'
p2886
sg21
Vnop 
p2887
sg5
L18446743798836610496L
sg6
Nsg23
S'NOP'
p2888
sg25
S'0xffffffc0004bc5c0L'
p2889
sg27
Nsba(ibclass
BInstr
p2890
(dp2891
g2
Nsg17
S'B               loc_FFFFFFC0004BC5C8'
p2892
sg19
S'01000014'
p2893
sg21
Vb #4
p2894
sg5
L18446743798836610500L
sg6
Nsg23
g110
sg25
S'0xffffffc0004bc5c4L'
p2895
sg27
Nsbasg112
(lp2896
g2885
aS'B func'
p2897
asg127
Nsg5
S'0xffffffc0004bc5c0L'
p2898
sg129
(lp2899
S'0xffffffc0004bc5a4L'
p2900
asg6
Nsg131
(lp2901
S'0xffffffc0004bc5c8L'
p2902
asg135
Nsg136
Nsg137
S'cd7747b0f25165b140e3928a9053deac'
p2903
sg139
S'361ec6e5b53b4a9d315a4d3f79274e10'
p2904
sg141
(lp2905
g2888
ag110
asg143
Nsba(ibclass
BBasicBlock
p2906
(dp2907
g12
Nsg13
(lp2908
(ibclass
BInstr
p2909
(dp2910
g2
Nsg17
S'NOP'
p2911
sg19
S'1f2003d5'
p2912
sg21
Vnop 
p2913
sg5
L18446743798836610504L
sg6
Nsg23
S'NOP'
p2914
sg25
S'0xffffffc0004bc5c8L'
p2915
sg27
Nsba(ibclass
BInstr
p2916
(dp2917
g2
Nsg17
S'LDAR            W3, [X19]'
p2918
sg19
S'63fedf88'
p2919
sg21
Vldar w3, [x19]
p2920
sg5
L18446743798836610508L
sg6
Nsg23
S'LDAR'
p2921
sg25
S'0xffffffc0004bc5ccL'
p2922
sg27
Nsba(ibclass
BInstr
p2923
(dp2924
g2
Nsg17
S'CBZ             W0, loc_FFFFFFC0004BC5DC'
p2925
sg19
S'60000034'
p2926
sg21
Vcbz w0, #0xc
p2927
sg5
L18446743798836610512L
sg6
Nsg23
S'CBZ'
p2928
sg25
S'0xffffffc0004bc5d0L'
p2929
sg27
Nsbasg112
(lp2930
g2911
aS'LDAR reg, mem'
p2931
aS'CBZ reg, func'
p2932
asg127
Nsg5
S'0xffffffc0004bc5c8L'
p2933
sg129
(lp2934
S'0xffffffc0004bc5c0L'
p2935
asg6
Nsg131
(lp2936
S'0xffffffc0004bc5d4L'
p2937
aS'0xffffffc0004bc5dcL'
p2938
asg135
Nsg136
Nsg137
S'29b25a0d149fac82bf7a190b0a7ff9af'
p2939
sg139
S'28c1bdb73d46af5e57b7509dad2bcab8'
p2940
sg141
(lp2941
g2914
ag2921
ag2928
asg143
Nsba(ibclass
BBasicBlock
p2942
(dp2943
g12
Nsg13
(lp2944
(ibclass
BInstr
p2945
(dp2946
g2
Nsg17
S'DSB             SY'
p2947
sg19
S'9f3f03d5'
p2948
sg21
Vdsb sy
p2949
sg5
L18446743798836610516L
sg6
Nsg23
S'DSB'
p2950
sg25
S'0xffffffc0004bc5d4L'
p2951
sg27
Nsba(ibclass
BInstr
p2952
(dp2953
g2
Nsg17
S'ISB'
p2954
sg19
S'df3f03d5'
p2955
sg21
Visb 
p2956
sg5
L18446743798836610520L
sg6
Nsg23
S'ISB'
p2957
sg25
S'0xffffffc0004bc5d8L'
p2958
sg27
Nsbasg112
(lp2959
S'DSB SY'
p2960
ag2954
asg127
Nsg5
S'0xffffffc0004bc5d4L'
p2961
sg129
(lp2962
S'0xffffffc0004bc5c8L'
p2963
asg6
Nsg131
(lp2964
S'0xffffffc0004bc5dcL'
p2965
asg135
Nsg136
Nsg137
S'53dc4bd1d85e328cea59865fd16599f6'
p2966
sg139
S'2c7d9dbff8fc4f24f1e9854b312ef5cb'
p2967
sg141
(lp2968
g2950
ag2957
asg143
Nsba(ibclass
BBasicBlock
p2969
(dp2970
g12
Nsg13
(lp2971
(ibclass
BInstr
p2972
(dp2973
g2
Nsg17
S'ADRP            X2, #__func__.26831@PAGE; "panel_debug_base_offset_write"'
p2974
sg19
S'225b00d0'
p2975
sg21
Vadrp x2, #0xb66000
p2976
sg5
L18446743798836610524L
sg6
Nsg23
S'ADRP'
p2977
sg25
S'0xffffffc0004bc5dcL'
p2978
sg27
Nsba(ibclass
BInstr
p2979
(dp2980
g2
Nsg17
S'ADD             X0, X23, #0x8C0'
p2981
sg19
S'e0022391'
p2982
sg21
Vadd x0, x23, #0x8c0
p2983
sg5
L18446743798836610528L
sg6
Nsg23
S'ADD'
p2984
sg25
S'0xffffffc0004bc5e0L'
p2985
sg27
Nsba(ibclass
BInstr
p2986
(dp2987
g2
Nsg17
S'ADRP            X1, #aSMisr_ctrl0xX@PAGE; "%s: MISR_CTRL = 0x%x"'
p2988
sg19
S'617300f0'
p2989
sg21
Vadrp x1, #0xe6f000
p2990
sg5
L18446743798836610532L
sg6
Nsg23
S'ADRP'
p2991
sg25
S'0xffffffc0004bc5e4L'
p2992
sg27
Nsba(ibclass
BInstr
p2993
(dp2994
g2
Nsg17
S'ADD             X2, X2, #__func__.26831@PAGEOFF; "panel_debug_base_offset_write"'
p2995
sg19
S'42e01691'
p2996
sg21
Vadd x2, x2, #0x5b8
p2997
sg5
L18446743798836610536L
sg6
Nsg23
S'ADD'
p2998
sg25
S'0xffffffc0004bc5e8L'
p2999
sg27
Nsba(ibclass
BInstr
p3000
(dp3001
g2
Nsg17
S'ADD             X0, X0, #0x398'
p3002
sg19
S'00600e91'
p3003
sg21
Vadd x0, x0, #0x398
p3004
sg5
L18446743798836610540L
sg6
Nsg23
S'ADD'
p3005
sg25
S'0xffffffc0004bc5ecL'
p3006
sg27
Nsba(ibclass
BInstr
p3007
(dp3008
g2
Nsg17
S'ADD             X1, X1, #aSMisr_ctrl0xX@PAGEOFF; "%s: MISR_CTRL = 0x%x"'
p3009
sg19
S'21c00391'
p3010
sg21
Vadd x1, x1, #0xf0
p3011
sg5
L18446743798836610544L
sg6
Nsg23
S'ADD'
p3012
sg25
S'0xffffffc0004bc5f0L'
p3013
sg27
Nsba(ibclass
BInstr
p3014
(dp3015
g2
Nsg17
S'ADD             X2, X2, #0x248'
p3016
sg19
S'42200991'
p3017
sg21
Vadd x2, x2, #0x248
p3018
sg5
L18446743798836610548L
sg6
Nsg23
S'ADD'
p3019
sg25
S'0xffffffc0004bc5f4L'
p3020
sg27
Nsba(ibclass
BInstr
p3021
(dp3022
g2
Nsg17
S'BL              __dynamic_pr_debug'
p3023
sg19
S'ec0afe97'
p3024
sg21
Vbl #0xfffffffffff82bb0
p3025
sg5
L18446743798836610552L
sg6
Nsg23
S'BL'
p3026
sg25
S'0xffffffc0004bc5f8L'
p3027
sg27
Nsbasg112
(lp3028
S'ADRP reg, #__func__.26831@PAGE'
p3029
aS'ADD reg, reg3, #0x8C0'
p3030
aS'ADRP reg, #aSMisr_ctrl0xX@PAGE'
p3031
aS'ADD reg, reg, #__func__.26831@PAGEOFF'
p3032
aS'ADD reg, reg, #0x398'
p3033
aS'ADD reg, reg, #aSMisr_ctrl0xX@PAGEOFF'
p3034
aS'ADD reg, reg, #0x248'
p3035
aS'BL __dynamic_pr_debug'
p3036
asg127
Nsg5
S'0xffffffc0004bc5dcL'
p3037
sg129
(lp3038
S'0xffffffc0004bc5c8L'
p3039
aS'0xffffffc0004bc5d4L'
p3040
asg6
Nsg131
(lp3041
S'0xffffffc0004bc5fcL'
p3042
asg135
Nsg136
Nsg137
S'45daeb1f05f33d6564d84c069c6c3d2c'
p3043
sg139
S'0fb15f29002800dfc5541cd2f01c1c8b'
p3044
sg141
(lp3045
g2977
ag2984
ag2991
ag2998
ag3005
ag3012
ag3019
ag3026
asg143
Nsba(ibclass
BBasicBlock
p3046
(dp3047
g12
Nsg13
(lp3048
(ibclass
BInstr
p3049
(dp3050
g2
Nsg17
S'MOV             W0, #0'
p3051
sg19
S'00008052'
p3052
sg21
Vmovz w0, #0
p3053
sg5
L18446743798836610556L
sg6
Nsg23
S'MOV'
p3054
sg25
S'0xffffffc0004bc5fcL'
p3055
sg27
Nsba(ibclass
BInstr
p3056
(dp3057
g2
Nsg17
S'BL              mdss_mdp_clk_ctrl'
p3058
sg19
S'cd29ff97'
p3059
sg21
Vbl #0xfffffffffffca734
p3060
sg5
L18446743798836610560L
sg6
Nsg23
S'BL'
p3061
sg25
S'0xffffffc0004bc600L'
p3062
sg27
Nsba(ibclass
BInstr
p3063
(dp3064
g2
Nsg17
S'MOV             W0, #0'
p3065
sg19
S'00008052'
p3066
sg21
Vmovz w0, #0
p3067
sg5
L18446743798836610564L
sg6
Nsg23
S'MOV'
p3068
sg25
S'0xffffffc0004bc604L'
p3069
sg27
Nsba(ibclass
BInstr
p3070
(dp3071
g2
Nsg17
S'B               loc_FFFFFFC0004BC630'
p3072
sg19
S'0a000014'
p3073
sg21
Vb #0x28
p3074
sg5
L18446743798836610568L
sg6
Nsg23
g110
sg25
S'0xffffffc0004bc608L'
p3075
sg27
Nsbasg112
(lp3076
S'MOV reg, #0'
p3077
aS'BL mdss_mdp_clk_ctrl'
p3078
aS'MOV reg, #0'
p3079
aS'B func'
p3080
asg127
Nsg5
S'0xffffffc0004bc5fcL'
p3081
sg129
(lp3082
S'0xffffffc0004bc514L'
p3083
aS'0xffffffc0004bc598L'
p3084
aS'0xffffffc0004bc5dcL'
p3085
asg6
Nsg131
(lp3086
S'0xffffffc0004bc630L'
p3087
asg135
Nsg136
Nsg137
S'cd23e0eb2129bcc2960febbe800808ae'
p3088
sg139
S'22ea451b62590df018b4832393f7f175'
p3089
sg141
(lp3090
g3054
ag3061
ag3068
ag110
asg143
Nsba(ibclass
BBasicBlock
p3091
(dp3092
g12
Nsg13
(lp3093
(ibclass
BInstr
p3094
(dp3095
g2
Nsg17
S'ADD             X24, X24, #0x350'
p3096
sg19
S'18430d91'
p3097
sg21
Vadd x24, x24, #0x350
p3098
sg5
L18446743798836610572L
sg6
Nsg23
S'ADD'
p3099
sg25
S'0xffffffc0004bc60cL'
p3100
sg27
Nsba(ibclass
BInstr
p3101
(dp3102
g2
Nsg17
S'MOV             X1, X24'
p3103
sg19
S'e10318aa'
p3104
sg21
Vmov x1, x24
p3105
sg5
L18446743798836610576L
sg6
Nsg23
S'MOV'
p3106
sg25
S'0xffffffc0004bc610L'
p3107
sg27
Nsba(ibclass
BInstr
p3108
(dp3109
g2
Nsg17
S'MOV             W0, #2'
p3110
sg19
S'40008052'
p3111
sg21
Vmovz w0, #0x2
p3112
sg5
L18446743798836610580L
sg6
Nsg23
S'MOV'
p3113
sg25
S'0xffffffc0004bc614L'
p3114
sg27
Nsba(ibclass
BInstr
p3115
(dp3116
g2
Nsg17
S'BL              uncached_logk'
p3117
sg19
S'63c1f797'
p3118
sg21
Vbl #0xffffffffffdf058c
p3119
sg5
L18446743798836610584L
sg6
Nsg23
S'BL'
p3120
sg25
S'0xffffffc0004bc618L'
p3121
sg27
Nsba(ibclass
BInstr
p3122
(dp3123
g2
Nsg17
S'B               loc_FFFFFFC0004BC620'
p3124
sg19
S'01000014'
p3125
sg21
Vb #4
p3126
sg5
L18446743798836610588L
sg6
Nsg23
g110
sg25
S'0xffffffc0004bc61cL'
p3127
sg27
Nsbasg112
(lp3128
S'ADD reg4, reg4, #0x350'
p3129
aS'MOV reg, reg4'
p3130
aS'MOV reg, #2'
p3131
aS'BL uncached_logk'
p3132
aS'B func'
p3133
asg127
Nsg5
S'0xffffffc0004bc60cL'
p3134
sg129
(lp3135
S'0xffffffc0004bc484L'
p3136
asg6
Nsg131
(lp3137
S'0xffffffc0004bc620L'
p3138
asg135
Nsg136
Nsg137
S'e3548680809003a0c25cb1c7af39f7b4'
p3139
sg139
S'364cd7426d643adbf7f8a3e5a75fe3b7'
p3140
sg141
(lp3141
g3099
ag3106
ag3113
ag3120
ag110
asg143
Nsba(ibclass
BBasicBlock
p3142
(dp3143
g12
Nsg13
(lp3144
(ibclass
BInstr
p3145
(dp3146
g2
Nsg17
S'NOP'
p3147
sg19
S'1f2003d5'
p3148
sg21
Vnop 
p3149
sg5
L18446743798836610592L
sg6
Nsg23
S'NOP'
p3150
sg25
S'0xffffffc0004bc620L'
p3151
sg27
Nsba(ibclass
BInstr
p3152
(dp3153
g2
Nsg17
S'B               loc_FFFFFFC0004BC628'
p3154
sg19
S'01000014'
p3155
sg21
Vb #4
p3156
sg5
L18446743798836610596L
sg6
Nsg23
g110
sg25
S'0xffffffc0004bc624L'
p3157
sg27
Nsbasg112
(lp3158
g3147
aS'B func'
p3159
asg127
Nsg5
S'0xffffffc0004bc620L'
p3160
sg129
(lp3161
S'0xffffffc0004bc60cL'
p3162
asg6
Nsg131
(lp3163
S'0xffffffc0004bc628L'
p3164
asg135
Nsg136
Nsg137
S'cd7747b0f25165b140e3928a9053deac'
p3165
sg139
S'361ec6e5b53b4a9d315a4d3f79274e10'
p3166
sg141
(lp3167
g3150
ag110
asg143
Nsba(ibclass
BBasicBlock
p3168
(dp3169
g12
Nsg13
(lp3170
(ibclass
BInstr
p3171
(dp3172
g2
Nsg17
S'NOP'
p3173
sg19
S'1f2003d5'
p3174
sg21
Vnop 
p3175
sg5
L18446743798836610600L
sg6
Nsg23
S'NOP'
p3176
sg25
S'0xffffffc0004bc628L'
p3177
sg27
Nsba(ibclass
BInstr
p3178
(dp3179
g2
Nsg17
S'B               loc_FFFFFFC0004BC4B0'
p3180
sg19
S'a1ffff17'
p3181
sg21
Vb #0xfffffffffffffe84
p3182
sg5
L18446743798836610604L
sg6
Nsg23
g110
sg25
S'0xffffffc0004bc62cL'
p3183
sg27
Nsbasg112
(lp3184
g3173
aS'B func'
p3185
asg127
Nsg5
S'0xffffffc0004bc628L'
p3186
sg129
(lp3187
S'0xffffffc0004bc620L'
p3188
asg6
Nsg131
(lp3189
S'0xffffffc0004bc4b0L'
p3190
asg135
Nsg136
Nsg137
S'cd7747b0f25165b140e3928a9053deac'
p3191
sg139
S'361ec6e5b53b4a9d315a4d3f79274e10'
p3192
sg141
(lp3193
g3176
ag110
asg143
Nsba(ibclass
BBasicBlock
p3194
(dp3195
g12
Nsg13
(lp3196
(ibclass
BInstr
p3197
(dp3198
g2
Nsg17
S'LDP             X19, X20, [SP,#0x60+var_50]'
p3199
sg19
S'f35341a9'
p3200
sg21
Vldp x19, x20, [sp, #0x10]
p3201
sg5
L18446743798836610608L
sg6
Nsg23
S'LDP'
p3202
sg25
S'0xffffffc0004bc630L'
p3203
sg27
Nsba(ibclass
BInstr
p3204
(dp3205
g2
Nsg17
S'LDP             X21, X22, [SP,#0x60+var_40]'
p3206
sg19
S'f55b42a9'
p3207
sg21
Vldp x21, x22, [sp, #0x20]
p3208
sg5
L18446743798836610612L
sg6
Nsg23
S'LDP'
p3209
sg25
S'0xffffffc0004bc634L'
p3210
sg27
Nsba(ibclass
BInstr
p3211
(dp3212
g2
Nsg17
S'LDP             X23, X24, [SP,#0x60+var_30]'
p3213
sg19
S'f76343a9'
p3214
sg21
Vldp x23, x24, [sp, #0x30]
p3215
sg5
L18446743798836610616L
sg6
Nsg23
S'LDP'
p3216
sg25
S'0xffffffc0004bc638L'
p3217
sg27
Nsba(ibclass
BInstr
p3218
(dp3219
g2
Nsg17
S'LDP             X25, X26, [SP,#0x60+var_20]'
p3220
sg19
S'f96b44a9'
p3221
sg21
Vldp x25, x26, [sp, #0x40]
p3222
sg5
L18446743798836610620L
sg6
Nsg23
S'LDP'
p3223
sg25
S'0xffffffc0004bc63cL'
p3224
sg27
Nsba(ibclass
BInstr
p3225
(dp3226
g2
Nsg17
S'LDR             X27, [SP,#0x60+var_10]'
p3227
sg19
S'fb2b40f9'
p3228
sg21
Vldr x27, [sp, #0x50]
p3229
sg5
L18446743798836610624L
sg6
Nsg23
S'LDR'
p3230
sg25
S'0xffffffc0004bc640L'
p3231
sg27
Nsba(ibclass
BInstr
p3232
(dp3233
g2
Nsg17
S'LDP             X29, X30, [SP+0x60+var_60],#0x70'
p3234
sg19
S'fd7bc7a8'
p3235
sg21
Vldp x29, x30, [sp], #0x70
p3236
sg5
L18446743798836610628L
sg6
Nsg23
S'LDP'
p3237
sg25
S'0xffffffc0004bc644L'
p3238
sg27
Nsba(ibclass
BInstr
p3239
(dp3240
g2
Nsg17
S'RET'
p3241
sg19
S'c0035fd6'
p3242
sg21
Vret 
p3243
sg5
L18446743798836610632L
sg6
Nsg23
S'RET'
p3244
sg25
S'0xffffffc0004bc648L'
p3245
sg27
Nsbasg112
(lp3246
S'LDP reg9, reg0, mem'
p3247
aS'LDP reg1, reg2, mem'
p3248
aS'LDP reg3, reg4, mem'
p3249
aS'LDP reg5, reg6, mem'
p3250
aS'LDR reg7, mem'
p3251
aS'LDP reg9, reg0, mem,#0x70'
p3252
ag3241
asg127
Nsg5
S'0xffffffc0004bc630L'
p3253
sg129
(lp3254
S'0xffffffc0004bc394L'
p3255
aS'0xffffffc0004bc5fcL'
p3256
asg6
Nsg131
(lp3257
sg135
Nsg136
Nsg137
S'702e9b760a82bbf4b936ba5efdeab680'
p3258
sg139
S'91de67b1bc35056b920c700d90389151'
p3259
sg141
(lp3260
g3202
ag3209
ag3216
ag3223
ag3230
ag3237
ag3244
asg143
Nsbasb.