(ibclass
BFunc
p0
(dp1
S'hash'
p2
NsS'name'
p3
S'mdss_fb_force_panel_dead'
p4
sS'start_address'
p5
L18446743798836707520L
sS'flag'
p6
NsS'program'
p7
NsS'bbs'
p8
(lp9
(ibclass
BBasicBlock
p10
(dp11
S'function'
p12
NsS'binstrs'
p13
(lp14
(ibclass
BInstr
p15
(dp16
g2
NsS'disasm'
p17
S'STP             X29, X30, [SP,#-0x10+var_20]!'
p18
sS'bytes'
p19
S'fd7bbda9'
p20
sS'disasm_striped'
p21
Vstp x29, x30, [sp, #-0x30]!
p22
sg5
L18446743798836707520L
sg6
NsS'mnem'
p23
S'STP'
p24
sS'address'
p25
S'0xffffffc0004d40c0L'
p26
sS'basicblock'
p27
Nsba(ibclass
BInstr
p28
(dp29
g2
Nsg17
S'MOV             X29, SP'
p30
sg19
S'fd030091'
p31
sg21
Vmov x29, sp
p32
sg5
L18446743798836707524L
sg6
Nsg23
S'MOV'
p33
sg25
S'0xffffffc0004d40c4L'
p34
sg27
Nsba(ibclass
BInstr
p35
(dp36
g2
Nsg17
S'STR             X19, [SP,#0x20+var_10]'
p37
sg19
S'f30b00f9'
p38
sg21
Vstr x19, [sp, #0x10]
p39
sg5
L18446743798836707528L
sg6
Nsg23
S'STR'
p40
sg25
S'0xffffffc0004d40c8L'
p41
sg27
Nsba(ibclass
BInstr
p42
(dp43
g2
Nsg17
S'STR             X2, [X29,#0x20+var_s0]'
p44
sg19
S'a21300f9'
p45
sg21
Vstr x2, [x29, #0x20]
p46
sg5
L18446743798836707532L
sg6
Nsg23
S'STR'
p47
sg25
S'0xffffffc0004d40ccL'
p48
sg27
Nsba(ibclass
BInstr
p49
(dp50
g2
Nsg17
S'MOV             X19, X3'
p51
sg19
S'f30303aa'
p52
sg21
Vmov x19, x3
p53
sg5
L18446743798836707536L
sg6
Nsg23
S'MOV'
p54
sg25
S'0xffffffc0004d40d0L'
p55
sg27
Nsba(ibclass
BInstr
p56
(dp57
g2
Nsg17
S'BL              dev_get_drvdata'
p58
sg19
S'db6b0394'
p59
sg21
Vbl #0xdaf6c
p60
sg5
L18446743798836707540L
sg6
Nsg23
S'BL'
p61
sg25
S'0xffffffc0004d40d4L'
p62
sg27
Nsba(ibclass
BInstr
p63
(dp64
g2
Nsg17
S'LDR             X0, [X0,#0x300]'
p65
sg19
S'008041f9'
p66
sg21
Vldr x0, [x0, #0x300]
p67
sg5
L18446743798836707544L
sg6
Nsg23
S'LDR'
p68
sg25
S'0xffffffc0004d40d8L'
p69
sg27
Nsba(ibclass
BInstr
p70
(dp71
g2
Nsg17
S'LDR             X2, [X29,#0x20+var_s0]'
p72
sg19
S'a21340f9'
p73
sg21
Vldr x2, [x29, #0x20]
p74
sg5
L18446743798836707548L
sg6
Nsg23
S'LDR'
p75
sg25
S'0xffffffc0004d40dcL'
p76
sg27
Nsba(ibclass
BInstr
p77
(dp78
g2
Nsg17
S'LDR             X0, [X0,#0x550]'
p79
sg19
S'00a842f9'
p80
sg21
Vldr x0, [x0, #0x550]
p81
sg5
L18446743798836707552L
sg6
Nsg23
S'LDR'
p82
sg25
S'0xffffffc0004d40e0L'
p83
sg27
Nsba(ibclass
BInstr
p84
(dp85
g2
Nsg17
S'LDR             X4, [X0,#0xA8]'
p86
sg19
S'045440f9'
p87
sg21
Vldr x4, [x0, #0xa8]
p88
sg5
L18446743798836707556L
sg6
Nsg23
S'LDR'
p89
sg25
S'0xffffffc0004d40e4L'
p90
sg27
Nsba(ibclass
BInstr
p91
(dp92
g2
Nsg17
S'ADRP            X0, #unk_FFFFFFC001331060@PAGE'
p93
sg19
S'e07200b0'
p94
sg21
Vadrp x0, #0xe5d000
p95
sg5
L18446743798836707560L
sg6
Nsg23
S'ADRP'
p96
sg25
S'0xffffffc0004d40e8L'
p97
sg27
Nsba(ibclass
BInstr
p98
(dp99
g2
Nsg17
S'ADD             X0, X0, #unk_FFFFFFC001331060@PAGEOFF'
p100
sg19
S'00800191'
p101
sg21
Vadd x0, x0, #0x60
p102
sg5
L18446743798836707564L
sg6
Nsg23
S'ADD'
p103
sg25
S'0xffffffc0004d40ecL'
p104
sg27
Nsba(ibclass
BInstr
p105
(dp106
g2
Nsg17
S'CBZ             X4, loc_FFFFFFC0004D4118'
p107
sg19
S'440100b4'
p108
sg21
Vcbz x4, #0x28
p109
sg5
L18446743798836707568L
sg6
Nsg23
S'CBZ'
p110
sg25
S'0xffffffc0004d40f0L'
p111
sg27
NsbasS'disasm_list'
p112
(lp113
S'STP reg9, reg0, mem!'
p114
aS'MOV reg9, SP'
p115
aS'STR reg9, mem'
p116
aS'STR reg, mem'
p117
aS'MOV reg9, reg'
p118
aS'BL dev_get_drvdata'
p119
aS'LDR reg, mem'
p120
aS'LDR reg, mem'
p121
aS'LDR reg, mem'
p122
aS'LDR reg, mem'
p123
aS'ADRP reg, #func@PAGE'
p124
aS'ADD reg, reg, #func@PAGEOFF'
p125
aS'CBZ reg, func'
p126
asS'end_address'
p127
Nsg5
S'0xffffffc0004d40c0L'
p128
sS'preds'
p129
(lp130
sg6
NsS'succs'
p131
(lp132
S'0xffffffc0004d40f4L'
p133
aS'0xffffffc0004d4118L'
p134
asS'hash_v3'
p135
NsS'flag_v2'
p136
NsS'hash_v1'
p137
S'052861535deda14a8bc9b89a80cc4bbd'
p138
sS'hash_v2'
p139
S'4933e1b73d0a7f3a1350a469f3972fd9'
p140
sS'mnen_list'
p141
(lp142
g24
ag33
ag40
ag47
ag54
ag61
ag68
ag75
ag82
ag89
ag96
ag103
ag110
asS'neighbour_disasm_list'
p143
Nsba(ibclass
BBasicBlock
p144
(dp145
g12
Nsg13
(lp146
(ibclass
BInstr
p147
(dp148
g2
Nsg17
S'ADRP            X1, #unk_FFFFFFC0014C0F5E@PAGE'
p149
sg19
S'617f0090'
p150
sg21
Vadrp x1, #0xfec000
p151
sg5
L18446743798836707572L
sg6
Nsg23
S'ADRP'
p152
sg25
S'0xffffffc0004d40f4L'
p153
sg27
Nsba(ibclass
BInstr
p154
(dp155
g2
Nsg17
S'MOV             X0, X2'
p156
sg19
S'e00302aa'
p157
sg21
Vmov x0, x2
p158
sg5
L18446743798836707576L
sg6
Nsg23
S'MOV'
p159
sg25
S'0xffffffc0004d40f8L'
p160
sg27
Nsba(ibclass
BInstr
p161
(dp162
g2
Nsg17
S'ADD             X1, X1, #unk_FFFFFFC0014C0F5E@PAGEOFF'
p163
sg19
S'21783d91'
p164
sg21
Vadd x1, x1, #0xf5e
p165
sg5
L18446743798836707580L
sg6
Nsg23
S'ADD'
p166
sg25
S'0xffffffc0004d40fcL'
p167
sg27
Nsba(ibclass
BInstr
p168
(dp169
g2
Nsg17
S'ADD             X2, X4, #0xEC'
p170
sg19
S'82b00391'
p171
sg21
Vadd x2, x4, #0xec
p172
sg5
L18446743798836707584L
sg6
Nsg23
S'ADD'
p173
sg25
S'0xffffffc0004d4100L'
p174
sg27
Nsba(ibclass
BInstr
p175
(dp176
g2
Nsg17
S'BL              sscanf'
p177
sg19
S'6d60fd97'
p178
sg21
Vbl #0xfffffffffff581b4
p179
sg5
L18446743798836707588L
sg6
Nsg23
S'BL'
p180
sg25
S'0xffffffc0004d4104L'
p181
sg27
Nsba(ibclass
BInstr
p182
(dp183
g2
Nsg17
S'CMP             W0, #1'
p184
sg19
S'1f040071'
p185
sg21
Vcmp w0, #1
p186
sg5
L18446743798836707592L
sg6
Nsg23
S'CMP'
p187
sg25
S'0xffffffc0004d4108L'
p188
sg27
Nsba(ibclass
BInstr
p189
(dp190
g2
Nsg17
S'B.EQ            loc_FFFFFFC0004D4128'
p191
sg19
S'e0000054'
p192
sg21
Vb.eq #0x1c
p193
sg5
L18446743798836707596L
sg6
Nsg23
S'B'
p194
sg25
S'0xffffffc0004d410cL'
p195
sg27
Nsbasg112
(lp196
S'ADRP reg, #func@PAGE'
p197
aS'MOV reg, reg'
p198
aS'ADD reg, reg, #func@PAGEOFF'
p199
aS'ADD reg, reg, #0xEC'
p200
aS'BL sscanf'
p201
aS'CMP reg, #1'
p202
aS'B.EQ func'
p203
asg127
Nsg5
S'0xffffffc0004d40f4L'
p204
sg129
(lp205
S'0xffffffc0004d40c0L'
p206
asg6
Nsg131
(lp207
S'0xffffffc0004d4110L'
p208
aS'0xffffffc0004d4128L'
p209
asg135
Nsg136
Nsg137
S'4fcf0eaad5cca5f9c60763ba02fdb780'
p210
sg139
S'1303da695a307fd42bb3d92c0ebcd5cd'
p211
sg141
(lp212
g152
ag159
ag166
ag173
ag180
ag187
ag194
asg143
Nsba(ibclass
BBasicBlock
p213
(dp214
g12
Nsg13
(lp215
(ibclass
BInstr
p216
(dp217
g2
Nsg17
S'ADRP            X0, #unk_FFFFFFC00133107B@PAGE'
p218
sg19
S'e07200b0'
p219
sg21
Vadrp x0, #0xe5d000
p220
sg5
L18446743798836707600L
sg6
Nsg23
S'ADRP'
p221
sg25
S'0xffffffc0004d4110L'
p222
sg27
Nsba(ibclass
BInstr
p223
(dp224
g2
Nsg17
S'ADD             X0, X0, #unk_FFFFFFC00133107B@PAGEOFF'
p225
sg19
S'00ec0191'
p226
sg21
Vadd x0, x0, #0x7b
p227
sg5
L18446743798836707604L
sg6
Nsg23
S'ADD'
p228
sg25
S'0xffffffc0004d4114L'
p229
sg27
Nsbasg112
(lp230
S'ADRP reg, #func@PAGE'
p231
aS'ADD reg, reg, #func@PAGEOFF'
p232
asg127
Nsg5
S'0xffffffc0004d4110L'
p233
sg129
(lp234
S'0xffffffc0004d40f4L'
p235
asg6
Nsg131
(lp236
S'0xffffffc0004d4118L'
p237
asg135
Nsg136
Nsg137
S'4c330fd47d9d30794e360f434bcba16f'
p238
sg139
S'5d0c12c1c2f0dc35884d116bfd571de9'
p239
sg141
(lp240
g221
ag228
asg143
Nsba(ibclass
BBasicBlock
p241
(dp242
g12
Nsg13
(lp243
(ibclass
BInstr
p244
(dp245
g2
Nsg17
S'ADRP            X1, #__func__.34372@PAGE; "mdss_fb_stop_disp_thread"'
p246
sg19
S'615a00f0'
p247
sg21
Vadrp x1, #0xb4f000
p248
sg5
L18446743798836707608L
sg6
Nsg23
S'ADRP'
p249
sg25
S'0xffffffc0004d4118L'
p250
sg27
Nsba(ibclass
BInstr
p251
(dp252
g2
Nsg17
S'ADD             X1, X1, #__func__.34372@PAGEOFF; "mdss_fb_stop_disp_thread"'
p253
sg19
S'21803491'
p254
sg21
Vadd x1, x1, #0xd20
p255
sg5
L18446743798836707612L
sg6
Nsg23
S'ADD'
p256
sg25
S'0xffffffc0004d411cL'
p257
sg27
Nsba(ibclass
BInstr
p258
(dp259
g2
Nsg17
S'ADD             X1, X1, #0x98'
p260
sg19
S'21600291'
p261
sg21
Vadd x1, x1, #0x98
p262
sg5
L18446743798836707616L
sg6
Nsg23
S'ADD'
p263
sg25
S'0xffffffc0004d4120L'
p264
sg27
Nsba(ibclass
BInstr
p265
(dp266
g2
Nsg17
S'BL              printk'
p267
sg19
S'516a2594'
p268
sg21
Vbl #0x95a944
p269
sg5
L18446743798836707620L
sg6
Nsg23
S'BL'
p270
sg25
S'0xffffffc0004d4124L'
p271
sg27
Nsbasg112
(lp272
S'ADRP reg, #__func__.34372@PAGE'
p273
aS'ADD reg, reg, #__func__.34372@PAGEOFF'
p274
aS'ADD reg, reg, #0x98'
p275
aS'BL printk'
p276
asg127
Nsg5
S'0xffffffc0004d4118L'
p277
sg129
(lp278
S'0xffffffc0004d40c0L'
p279
aS'0xffffffc0004d4110L'
p280
asg6
Nsg131
(lp281
S'0xffffffc0004d4128L'
p282
asg135
Nsg136
Nsg137
S'c8a90cccbd9f57e80b680be252a83539'
p283
sg139
S'3af94e1c7d5ce339ef732338863aeb1e'
p284
sg141
(lp285
g249
ag256
ag263
ag270
asg143
Nsba(ibclass
BBasicBlock
p286
(dp287
g12
Nsg13
(lp288
(ibclass
BInstr
p289
(dp290
g2
Nsg17
S'MOV             X0, X19'
p291
sg19
S'e00313aa'
p292
sg21
Vmov x0, x19
p293
sg5
L18446743798836707624L
sg6
Nsg23
S'MOV'
p294
sg25
S'0xffffffc0004d4128L'
p295
sg27
Nsba(ibclass
BInstr
p296
(dp297
g2
Nsg17
S'LDR             X19, [SP,#0x20+var_10]'
p298
sg19
S'f30b40f9'
p299
sg21
Vldr x19, [sp, #0x10]
p300
sg5
L18446743798836707628L
sg6
Nsg23
S'LDR'
p301
sg25
S'0xffffffc0004d412cL'
p302
sg27
Nsba(ibclass
BInstr
p303
(dp304
g2
Nsg17
S'LDP             X29, X30, [SP+0x20+var_20],#0x30'
p305
sg19
S'fd7bc3a8'
p306
sg21
Vldp x29, x30, [sp], #0x30
p307
sg5
L18446743798836707632L
sg6
Nsg23
S'LDP'
p308
sg25
S'0xffffffc0004d4130L'
p309
sg27
Nsba(ibclass
BInstr
p310
(dp311
g2
Nsg17
S'RET'
p312
sg19
S'c0035fd6'
p313
sg21
Vret 
p314
sg5
L18446743798836707636L
sg6
Nsg23
S'RET'
p315
sg25
S'0xffffffc0004d4134L'
p316
sg27
Nsbasg112
(lp317
S'MOV reg, reg9'
p318
aS'LDR reg9, mem'
p319
aS'LDP reg9, reg0, mem,#0x30'
p320
ag312
asg127
Nsg5
S'0xffffffc0004d4128L'
p321
sg129
(lp322
S'0xffffffc0004d40f4L'
p323
aS'0xffffffc0004d4118L'
p324
asg6
Nsg131
(lp325
sg135
Nsg136
Nsg137
S'700b6007ea89efb2d19f65eecdfbdc66'
p326
sg139
S'71235216961c6238f85f36259fb59106'
p327
sg141
(lp328
g294
ag301
ag308
ag315
asg143
Nsbasb.