(ibclass
BFunc
p0
(dp1
S'hash'
p2
NsS'name'
p3
S'mdss_debug_perf_mode_read'
p4
sS'start_address'
p5
L18446743798836603508L
sS'flag'
p6
NsS'program'
p7
NsS'bbs'
p8
(lp9
(ibclass
BBasicBlock
p10
(dp11
S'function'
p12
NsS'binstrs'
p13
(lp14
(ibclass
BInstr
p15
(dp16
g2
NsS'disasm'
p17
S'STP             X29, X30, [SP,#-0x10+var_50]!'
p18
sS'bytes'
p19
S'fd7bbaa9'
p20
sS'disasm_striped'
p21
Vstp x29, x30, [sp, #-0x60]!
p22
sg5
L18446743798836603508L
sg6
NsS'mnem'
p23
S'STP'
p24
sS'address'
p25
S'0xffffffc0004baa74L'
p26
sS'basicblock'
p27
Nsba(ibclass
BInstr
p28
(dp29
g2
Nsg17
S'MOV             X29, SP'
p30
sg19
S'fd030091'
p31
sg21
Vmov x29, sp
p32
sg5
L18446743798836603512L
sg6
Nsg23
S'MOV'
p33
sg25
S'0xffffffc0004baa78L'
p34
sg27
Nsba(ibclass
BInstr
p35
(dp36
g2
Nsg17
S'STP             X19, X20, [SP,#0x50+var_40]'
p37
sg19
S'f35301a9'
p38
sg21
Vstp x19, x20, [sp, #0x10]
p39
sg5
L18446743798836603516L
sg6
Nsg23
S'STP'
p40
sg25
S'0xffffffc0004baa7cL'
p41
sg27
Nsba(ibclass
BInstr
p42
(dp43
g2
Nsg17
S'STR             X21, [SP,#0x50+var_30]'
p44
sg19
S'f51300f9'
p45
sg21
Vstr x21, [sp, #0x20]
p46
sg5
L18446743798836603520L
sg6
Nsg23
S'STR'
p47
sg25
S'0xffffffc0004baa80L'
p48
sg27
Nsba(ibclass
BInstr
p49
(dp50
g2
Nsg17
S'LDR             X4, [X0,#0xA8]'
p51
sg19
S'045440f9'
p52
sg21
Vldr x4, [x0, #0xa8]
p53
sg5
L18446743798836603524L
sg6
Nsg23
S'LDR'
p54
sg25
S'0xffffffc0004baa84L'
p55
sg27
Nsba(ibclass
BInstr
p56
(dp57
g2
Nsg17
S'MOV             X20, X1'
p58
sg19
S'f40301aa'
p59
sg21
Vmov x20, x1
p60
sg5
L18446743798836603528L
sg6
Nsg23
S'MOV'
p61
sg25
S'0xffffffc0004baa88L'
p62
sg27
Nsba(ibclass
BInstr
p63
(dp64
g2
Nsg17
S'MOV             X19, X3'
p65
sg19
S'f30303aa'
p66
sg21
Vmov x19, x3
p67
sg5
L18446743798836603532L
sg6
Nsg23
S'MOV'
p68
sg25
S'0xffffffc0004baa8cL'
p69
sg27
Nsba(ibclass
BInstr
p70
(dp71
g2
Nsg17
S'CBZ             X4, loc_FFFFFFC0004BAB1C'
p72
sg19
S'640400b4'
p73
sg21
Vcbz x4, #0x8c
p74
sg5
L18446743798836603536L
sg6
Nsg23
S'CBZ'
p75
sg25
S'0xffffffc0004baa90L'
p76
sg27
NsbasS'disasm_list'
p77
(lp78
S'STP reg9, reg0, mem!'
p79
aS'MOV reg9, SP'
p80
aS'STP reg9, reg0, mem'
p81
aS'STR reg1, mem'
p82
aS'LDR reg, mem'
p83
aS'MOV reg0, reg'
p84
aS'MOV reg9, reg'
p85
aS'CBZ reg, func'
p86
asS'end_address'
p87
Nsg5
S'0xffffffc0004baa74L'
p88
sS'preds'
p89
(lp90
sg6
NsS'succs'
p91
(lp92
S'0xffffffc0004baa94L'
p93
aS'0xffffffc0004bab1cL'
p94
asS'hash_v3'
p95
NsS'flag_v2'
p96
NsS'hash_v1'
p97
S'e1b690212a2144acf21fdf75c2b2b5fd'
p98
sS'hash_v2'
p99
S'edc654ad721604c234a11ba56ca9a6cd'
p100
sS'mnen_list'
p101
(lp102
g24
ag33
ag40
ag47
ag54
ag61
ag68
ag75
asS'neighbour_disasm_list'
p103
Nsba(ibclass
BBasicBlock
p104
(dp105
g12
Nsg13
(lp106
(ibclass
BInstr
p107
(dp108
g2
Nsg17
S'LDR             X0, [X3]'
p109
sg19
S'600040f9'
p110
sg21
Vldr x0, [x3]
p111
sg5
L18446743798836603540L
sg6
Nsg23
S'LDR'
p112
sg25
S'0xffffffc0004baa94L'
p113
sg27
Nsba(ibclass
BInstr
p114
(dp115
g2
Nsg17
S'CBZ             X0, loc_FFFFFFC0004BAAA4'
p116
sg19
S'600000b4'
p117
sg21
Vcbz x0, #0xc
p118
sg5
L18446743798836603544L
sg6
Nsg23
S'CBZ'
p119
sg25
S'0xffffffc0004baa98L'
p120
sg27
Nsbasg77
(lp121
S'LDR reg, mem'
p122
aS'CBZ reg, func'
p123
asg87
Nsg5
S'0xffffffc0004baa94L'
p124
sg89
(lp125
S'0xffffffc0004baa74L'
p126
asg6
Nsg91
(lp127
S'0xffffffc0004baa9cL'
p128
aS'0xffffffc0004baaa4L'
p129
asg95
Nsg96
Nsg97
S'a0c488049ab653dbdfa1dc805bb83f13'
p130
sg99
S'33abe016da9abbebb8608f035d51762d'
p131
sg101
(lp132
g112
ag119
asg103
Nsba(ibclass
BBasicBlock
p133
(dp134
g12
Nsg13
(lp135
(ibclass
BInstr
p136
(dp137
g2
Nsg17
S'MOV             X0, #0'
p138
sg19
S'000080d2'
p139
sg21
Vmovz x0, #0
p140
sg5
L18446743798836603548L
sg6
Nsg23
S'MOV'
p141
sg25
S'0xffffffc0004baa9cL'
p142
sg27
Nsba(ibclass
BInstr
p143
(dp144
g2
Nsg17
S'B               loc_FFFFFFC0004BAB28'
p145
sg19
S'22000014'
p146
sg21
Vb #0x88
p147
sg5
L18446743798836603552L
sg6
Nsg23
S'B'
p148
sg25
S'0xffffffc0004baaa0L'
p149
sg27
Nsbasg77
(lp150
S'MOV reg, #0'
p151
aS'B func'
p152
asg87
Nsg5
S'0xffffffc0004baa9cL'
p153
sg89
(lp154
S'0xffffffc0004baa94L'
p155
aS'0xffffffc0004baaa4L'
p156
asg6
Nsg91
(lp157
S'0xffffffc0004bab28L'
p158
asg95
Nsg96
Nsg97
S'b6c4e95ccfe77a95e4cf2019dd3d5574'
p159
sg99
S'487d2131c9e9084b6289188d6ce03ca3'
p160
sg101
(lp161
g141
ag148
asg103
Nsba(ibclass
BBasicBlock
p162
(dp163
g12
Nsg13
(lp164
(ibclass
BInstr
p165
(dp166
g2
Nsg17
S'ADD             X1, X29, #0x30'
p167
sg19
S'a1c30091'
p168
sg21
Vadd x1, x29, #0x30
p169
sg5
L18446743798836603556L
sg6
Nsg23
S'ADD'
p170
sg25
S'0xffffffc0004baaa4L'
p171
sg27
Nsba(ibclass
BInstr
p172
(dp173
g2
Nsg17
S'STRB            W0, [X1,X2]'
p174
sg19
S'20682238'
p175
sg21
Vstrb w0, [x1, x2]
p176
sg5
L18446743798836603560L
sg6
Nsg23
S'STR'
p177
sg25
S'0xffffffc0004baaa8L'
p178
sg27
Nsba(ibclass
BInstr
p179
(dp180
g2
Nsg17
S'LDR             X3, [X4]'
p181
sg19
S'830040f9'
p182
sg21
Vldr x3, [x4]
p183
sg5
L18446743798836603564L
sg6
Nsg23
S'LDR'
p184
sg25
S'0xffffffc0004baaacL'
p185
sg27
Nsba(ibclass
BInstr
p186
(dp187
g2
Nsg17
S'ADRP            X2, #aMin_mdp_clkLuM@PAGE; "min_mdp_clk %lu min_bus_vote %llu\\n"'
p188
sg19
S'82730090'
p189
sg21
Vadrp x2, #0xe70000
p190
sg5
L18446743798836603568L
sg6
Nsg23
S'ADRP'
p191
sg25
S'0xffffffc0004baab0L'
p192
sg27
Nsba(ibclass
BInstr
p193
(dp194
g2
Nsg17
S'LDR             X4, [X4,#8]'
p195
sg19
S'840440f9'
p196
sg21
Vldr x4, [x4, #8]
p197
sg5
L18446743798836603572L
sg6
Nsg23
S'LDR'
p198
sg25
S'0xffffffc0004baab4L'
p199
sg27
Nsba(ibclass
BInstr
p200
(dp201
g2
Nsg17
S'MOV             X0, X1'
p202
sg19
S'e00301aa'
p203
sg21
Vmov x0, x1
p204
sg5
L18446743798836603576L
sg6
Nsg23
S'MOV'
p205
sg25
S'0xffffffc0004baab8L'
p206
sg27
Nsba(ibclass
BInstr
p207
(dp208
g2
Nsg17
S'ADD             X2, X2, #aMin_mdp_clkLuM@PAGEOFF; "min_mdp_clk %lu min_bus_vote %llu\\n"'
p209
sg19
S'42f02a91'
p210
sg21
Vadd x2, x2, #0xabc
p211
sg5
L18446743798836603580L
sg6
Nsg23
S'ADD'
p212
sg25
S'0xffffffc0004baabcL'
p213
sg27
Nsba(ibclass
BInstr
p214
(dp215
g2
Nsg17
S'MOV             X1, #0x28'
p216
sg19
S'010580d2'
p217
sg21
Vmovz x1, #0x28
p218
sg5
L18446743798836603584L
sg6
Nsg23
S'MOV'
p219
sg25
S'0xffffffc0004baac0L'
p220
sg27
Nsba(ibclass
BInstr
p221
(dp222
g2
Nsg17
S'BL              snprintf'
p223
sg19
S'4bc2fd97'
p224
sg21
Vbl #0xfffffffffff7092c
p225
sg5
L18446743798836603588L
sg6
Nsg23
S'BL'
p226
sg25
S'0xffffffc0004baac4L'
p227
sg27
Nsba(ibclass
BInstr
p228
(dp229
g2
Nsg17
S'TBNZ            W0, #0x1F, loc_FFFFFFC0004BAA9C'
p230
sg19
S'a0feff37'
p231
sg21
Vtbnz w0, #0x1f, #0xffffffffffffffd4
p232
sg5
L18446743798836603592L
sg6
Nsg23
S'TBNZ'
p233
sg25
S'0xffffffc0004baac8L'
p234
sg27
Nsbasg77
(lp235
S'ADD reg, reg9, #0x30'
p236
aS'STRB reg, mem'
p237
aS'LDR reg, mem'
p238
aS'ADRP reg, #aMin_mdp_clkLuM@PAGE'
p239
aS'LDR reg, mem'
p240
aS'MOV reg, reg'
p241
aS'ADD reg, reg, #aMin_mdp_clkLuM@PAGEOFF'
p242
aS'MOV reg, #0x28'
p243
aS'BL snprintf'
p244
aS'TBNZ reg, #0x1F, func'
p245
asg87
Nsg5
S'0xffffffc0004baaa4L'
p246
sg89
(lp247
S'0xffffffc0004baa94L'
p248
asg6
Nsg91
(lp249
S'0xffffffc0004baa9cL'
p250
aS'0xffffffc0004baaccL'
p251
asg95
Nsg96
Nsg97
S'f2205b89bf44a902fec19c488c9c7916'
p252
sg99
S'ad04a012f71989a64b8c99de55a3f103'
p253
sg101
(lp254
g170
ag177
ag184
ag191
ag198
ag205
ag212
ag219
ag226
ag233
asg103
Nsba(ibclass
BBasicBlock
p255
(dp256
g12
Nsg13
(lp257
(ibclass
BInstr
p258
(dp259
g2
Nsg17
S'MOV             X1, SP'
p260
sg19
S'e1030091'
p261
sg21
Vmov x1, sp
p262
sg5
L18446743798836603596L
sg6
Nsg23
S'MOV'
p263
sg25
S'0xffffffc0004baaccL'
p264
sg27
Nsba(ibclass
BInstr
p265
(dp266
g2
Nsg17
S'SBFM            X2, X0, #0, #0x1F'
p267
sg19
S'027c4093'
p268
sg21
Vsxtw x2, w0
p269
sg5
L18446743798836603600L
sg6
Nsg23
S'SBFM'
p270
sg25
S'0xffffffc0004baad0L'
p271
sg27
Nsba(ibclass
BInstr
p272
(dp273
g2
Nsg17
S'AND             X0, X1, #0xFFFFFFFFFFFFC000'
p274
sg19
S'20c47292'
p275
sg21
Vand x0, x1, #0xffffffffffffc000
p276
sg5
L18446743798836603604L
sg6
Nsg23
S'AND'
p277
sg25
S'0xffffffc0004baad4L'
p278
sg27
Nsba(ibclass
BInstr
p279
(dp280
g2
Nsg17
S'LDR             X0, [X0,#8]'
p281
sg19
S'000440f9'
p282
sg21
Vldr x0, [x0, #8]
p283
sg5
L18446743798836603608L
sg6
Nsg23
S'LDR'
p284
sg25
S'0xffffffc0004baad8L'
p285
sg27
Nsba(ibclass
BInstr
p286
(dp287
g2
Nsg17
S'MOV             X3, X20'
p288
sg19
S'e30314aa'
p289
sg21
Vmov x3, x20
p290
sg5
L18446743798836603612L
sg6
Nsg23
S'MOV'
p291
sg25
S'0xffffffc0004baadcL'
p292
sg27
Nsba(ibclass
BInstr
p293
(dp294
g2
Nsg17
S'MOV             X21, X2'
p295
sg19
S'f50302aa'
p296
sg21
Vmov x21, x2
p297
sg5
L18446743798836603616L
sg6
Nsg23
S'MOV'
p298
sg25
S'0xffffffc0004baae0L'
p299
sg27
Nsba(ibclass
BInstr
p300
(dp301
g2
Nsg17
S'ADDS            X3, X3, X2'
p302
sg19
S'630002ab'
p303
sg21
Vadds x3, x3, x2
p304
sg5
L18446743798836603620L
sg6
Nsg23
S'ADD'
p305
sg25
S'0xffffffc0004baae4L'
p306
sg27
Nsba(ibclass
BInstr
p307
(dp308
g2
Nsg17
S'CCMP            X3, X0, #2, CC'
p309
sg19
S'623040fa'
p310
sg21
Vccmp x3, x0, #2, lo
p311
sg5
L18446743798836603624L
sg6
Nsg23
S'CCMP'
p312
sg25
S'0xffffffc0004baae8L'
p313
sg27
Nsba(ibclass
BInstr
p314
(dp315
g2
Nsg17
S'CSET            X1, LS'
p316
sg19
S'e1879f9a'
p317
sg21
Vcset x1, ls
p318
sg5
L18446743798836603628L
sg6
Nsg23
S'CSET'
p319
sg25
S'0xffffffc0004baaecL'
p320
sg27
Nsba(ibclass
BInstr
p321
(dp322
g2
Nsg17
S'CBZ             X1, loc_FFFFFFC0004BAB04'
p323
sg19
S'a10000b4'
p324
sg21
Vcbz x1, #0x14
p325
sg5
L18446743798836603632L
sg6
Nsg23
S'CBZ'
p326
sg25
S'0xffffffc0004baaf0L'
p327
sg27
Nsbasg77
(lp328
S'MOV reg, SP'
p329
aS'SBFM reg, reg, #0, #0x1F'
p330
aS'AND reg, reg, #0xFFFFFFFFFFFFC000'
p331
aS'LDR reg, mem'
p332
aS'MOV reg, reg0'
p333
aS'MOV reg1, reg'
p334
aS'ADDS reg, reg, reg'
p335
aS'CCMP reg, reg, #2, CC'
p336
aS'CSET reg, LS'
p337
aS'CBZ reg, func'
p338
asg87
Nsg5
S'0xffffffc0004baaccL'
p339
sg89
(lp340
S'0xffffffc0004baaa4L'
p341
asg6
Nsg91
(lp342
S'0xffffffc0004baaf4L'
p343
aS'0xffffffc0004bab04L'
p344
asg95
Nsg96
Nsg97
S'73a899044300e1eb90c5a6ade74cde9f'
p345
sg99
S'11dcb84752918a09c242cb88d0151134'
p346
sg101
(lp347
g263
ag270
ag277
ag284
ag291
ag298
ag305
ag312
ag319
ag326
asg103
Nsba(ibclass
BBasicBlock
p348
(dp349
g12
Nsg13
(lp350
(ibclass
BInstr
p351
(dp352
g2
Nsg17
S'MOV             X0, X20'
p353
sg19
S'e00314aa'
p354
sg21
Vmov x0, x20
p355
sg5
L18446743798836603636L
sg6
Nsg23
S'MOV'
p356
sg25
S'0xffffffc0004baaf4L'
p357
sg27
Nsba(ibclass
BInstr
p358
(dp359
g2
Nsg17
S'ADD             X1, X29, #0x30'
p360
sg19
S'a1c30091'
p361
sg21
Vadd x1, x29, #0x30
p362
sg5
L18446743798836603640L
sg6
Nsg23
S'ADD'
p363
sg25
S'0xffffffc0004baaf8L'
p364
sg27
Nsba(ibclass
BInstr
p365
(dp366
g2
Nsg17
S'BL              __copy_to_user'
p367
sg19
S'3595fd97'
p368
sg21
Vbl #0xfffffffffff654d4
p369
sg5
L18446743798836603644L
sg6
Nsg23
S'BL'
p370
sg25
S'0xffffffc0004baafcL'
p371
sg27
Nsba(ibclass
BInstr
p372
(dp373
g2
Nsg17
S'MOV             X2, X0'
p374
sg19
S'e20300aa'
p375
sg21
Vmov x2, x0
p376
sg5
L18446743798836603648L
sg6
Nsg23
S'MOV'
p377
sg25
S'0xffffffc0004bab00L'
p378
sg27
Nsbasg77
(lp379
S'MOV reg, reg0'
p380
aS'ADD reg, reg9, #0x30'
p381
aS'BL __copy_to_user'
p382
aS'MOV reg, reg'
p383
asg87
Nsg5
S'0xffffffc0004baaf4L'
p384
sg89
(lp385
S'0xffffffc0004baaccL'
p386
asg6
Nsg91
(lp387
S'0xffffffc0004bab04L'
p388
asg95
Nsg96
Nsg97
S'2e15ede4c99aeb14d0e9aa2dc7d74315'
p389
sg99
S'01c4bb5832a51f9b3cb8f6065604dd9e'
p390
sg101
(lp391
g356
ag363
ag370
ag377
asg103
Nsba(ibclass
BBasicBlock
p392
(dp393
g12
Nsg13
(lp394
(ibclass
BInstr
p395
(dp396
g2
Nsg17
S'CBNZ            X2, loc_FFFFFFC0004BAB24'
p397
sg19
S'020100b5'
p398
sg21
Vcbnz x2, #0x20
p399
sg5
L18446743798836603652L
sg6
Nsg23
S'CBNZ'
p400
sg25
S'0xffffffc0004bab04L'
p401
sg27
Nsbasg77
(lp402
S'CBNZ reg, func'
p403
asg87
Nsg5
S'0xffffffc0004bab04L'
p404
sg89
(lp405
S'0xffffffc0004baaccL'
p406
aS'0xffffffc0004baaf4L'
p407
asg6
Nsg91
(lp408
S'0xffffffc0004bab08L'
p409
aS'0xffffffc0004bab24L'
p410
asg95
Nsg96
Nsg97
S'482b7d814ad85789cad59d80ecb8562a'
p411
sg99
S'c81d544e8093e123ef790602aa39a0d0'
p412
sg101
(lp413
g400
asg103
Nsba(ibclass
BBasicBlock
p414
(dp415
g12
Nsg13
(lp416
(ibclass
BInstr
p417
(dp418
g2
Nsg17
S'LDR             X0, [X19]'
p419
sg19
S'600240f9'
p420
sg21
Vldr x0, [x19]
p421
sg5
L18446743798836603656L
sg6
Nsg23
S'LDR'
p422
sg25
S'0xffffffc0004bab08L'
p423
sg27
Nsba(ibclass
BInstr
p424
(dp425
g2
Nsg17
S'ADD             X0, X0, X21'
p426
sg19
S'0000158b'
p427
sg21
Vadd x0, x0, x21
p428
sg5
L18446743798836603660L
sg6
Nsg23
S'ADD'
p429
sg25
S'0xffffffc0004bab0cL'
p430
sg27
Nsba(ibclass
BInstr
p431
(dp432
g2
Nsg17
S'STR             X0, [X19]'
p433
sg19
S'600200f9'
p434
sg21
Vstr x0, [x19]
p435
sg5
L18446743798836603664L
sg6
Nsg23
S'STR'
p436
sg25
S'0xffffffc0004bab10L'
p437
sg27
Nsba(ibclass
BInstr
p438
(dp439
g2
Nsg17
S'MOV             X0, X21'
p440
sg19
S'e00315aa'
p441
sg21
Vmov x0, x21
p442
sg5
L18446743798836603668L
sg6
Nsg23
S'MOV'
p443
sg25
S'0xffffffc0004bab14L'
p444
sg27
Nsba(ibclass
BInstr
p445
(dp446
g2
Nsg17
S'B               loc_FFFFFFC0004BAB28'
p447
sg19
S'04000014'
p448
sg21
Vb #0x10
p449
sg5
L18446743798836603672L
sg6
Nsg23
g148
sg25
S'0xffffffc0004bab18L'
p450
sg27
Nsbasg77
(lp451
S'LDR reg, mem'
p452
aS'ADD reg, reg, reg1'
p453
aS'STR reg, mem'
p454
aS'MOV reg, reg1'
p455
aS'B func'
p456
asg87
Nsg5
S'0xffffffc0004bab08L'
p457
sg89
(lp458
S'0xffffffc0004bab04L'
p459
asg6
Nsg91
(lp460
S'0xffffffc0004bab28L'
p461
asg95
Nsg96
Nsg97
S'aadcc43cdc2a99d1a6ca4a03b08606d5'
p462
sg99
S'48ea67d3cf5b0706131ae0317110db59'
p463
sg101
(lp464
g422
ag429
ag436
ag443
ag148
asg103
Nsba(ibclass
BBasicBlock
p465
(dp466
g12
Nsg13
(lp467
(ibclass
BInstr
p468
(dp469
g2
Nsg17
S'MOV             X0, #0xFFFFFFFFFFFFFFED'
p470
sg19
S'40028092'
p471
sg21
Vmovn x0, #0x12
p472
sg5
L18446743798836603676L
sg6
Nsg23
S'MOV'
p473
sg25
S'0xffffffc0004bab1cL'
p474
sg27
Nsba(ibclass
BInstr
p475
(dp476
g2
Nsg17
S'B               loc_FFFFFFC0004BAB28'
p477
sg19
S'02000014'
p478
sg21
Vb #8
p479
sg5
L18446743798836603680L
sg6
Nsg23
g148
sg25
S'0xffffffc0004bab20L'
p480
sg27
Nsbasg77
(lp481
S'MOV reg, #0xFFFFFFFFFFFFFFED'
p482
aS'B func'
p483
asg87
Nsg5
S'0xffffffc0004bab1cL'
p484
sg89
(lp485
S'0xffffffc0004baa74L'
p486
asg6
Nsg91
(lp487
S'0xffffffc0004bab28L'
p488
asg95
Nsg96
Nsg97
S'b6c4e95ccfe77a95e4cf2019dd3d5574'
p489
sg99
S'd6037bdf3642280edfe95bdc7a27c760'
p490
sg101
(lp491
g473
ag148
asg103
Nsba(ibclass
BBasicBlock
p492
(dp493
g12
Nsg13
(lp494
(ibclass
BInstr
p495
(dp496
g2
Nsg17
S'MOV             X0, #0xFFFFFFFFFFFFFFF2'
p497
sg19
S'a0018092'
p498
sg21
Vmovn x0, #0xd
p499
sg5
L18446743798836603684L
sg6
Nsg23
S'MOV'
p500
sg25
S'0xffffffc0004bab24L'
p501
sg27
Nsbasg77
(lp502
S'MOV reg, #0xFFFFFFFFFFFFFFF2'
p503
asg87
Nsg5
S'0xffffffc0004bab24L'
p504
sg89
(lp505
S'0xffffffc0004bab04L'
p506
asg6
Nsg91
(lp507
S'0xffffffc0004bab28L'
p508
asg95
Nsg96
Nsg97
S'17b32100aef1fc19670be7fd58bc85df'
p509
sg99
S'266ad5fec82b4871331d29c3125ce490'
p510
sg101
(lp511
g500
asg103
Nsba(ibclass
BBasicBlock
p512
(dp513
g12
Nsg13
(lp514
(ibclass
BInstr
p515
(dp516
g2
Nsg17
S'LDP             X19, X20, [SP,#0x50+var_40]'
p517
sg19
S'f35341a9'
p518
sg21
Vldp x19, x20, [sp, #0x10]
p519
sg5
L18446743798836603688L
sg6
Nsg23
S'LDP'
p520
sg25
S'0xffffffc0004bab28L'
p521
sg27
Nsba(ibclass
BInstr
p522
(dp523
g2
Nsg17
S'LDR             X21, [SP,#0x50+var_30]'
p524
sg19
S'f51340f9'
p525
sg21
Vldr x21, [sp, #0x20]
p526
sg5
L18446743798836603692L
sg6
Nsg23
S'LDR'
p527
sg25
S'0xffffffc0004bab2cL'
p528
sg27
Nsba(ibclass
BInstr
p529
(dp530
g2
Nsg17
S'LDP             X29, X30, [SP+0x50+var_50],#0x60'
p531
sg19
S'fd7bc6a8'
p532
sg21
Vldp x29, x30, [sp], #0x60
p533
sg5
L18446743798836603696L
sg6
Nsg23
S'LDP'
p534
sg25
S'0xffffffc0004bab30L'
p535
sg27
Nsba(ibclass
BInstr
p536
(dp537
g2
Nsg17
S'RET'
p538
sg19
S'c0035fd6'
p539
sg21
Vret 
p540
sg5
L18446743798836603700L
sg6
Nsg23
S'RET'
p541
sg25
S'0xffffffc0004bab34L'
p542
sg27
Nsbasg77
(lp543
S'LDP reg9, reg0, mem'
p544
aS'LDR reg1, mem'
p545
aS'LDP reg9, reg0, mem,#0x60'
p546
ag538
asg87
Nsg5
S'0xffffffc0004bab28L'
p547
sg89
(lp548
S'0xffffffc0004baa9cL'
p549
aS'0xffffffc0004bab08L'
p550
aS'0xffffffc0004bab1cL'
p551
aS'0xffffffc0004bab24L'
p552
asg6
Nsg91
(lp553
sg95
Nsg96
Nsg97
S'b128167488f61fa9efc4b75f88cc16c9'
p554
sg99
S'660fb6fbb60d2c087d584ff0828ebd9c'
p555
sg101
(lp556
g520
ag527
ag534
ag541
asg103
Nsbasb.