(ibclass
BFunc
p0
(dp1
S'hash'
p2
NsS'name'
p3
S'mdss_debug_perf_panic_read'
p4
sS'start_address'
p5
L18446743798836603892L
sS'flag'
p6
NsS'program'
p7
NsS'bbs'
p8
(lp9
(ibclass
BBasicBlock
p10
(dp11
S'function'
p12
NsS'binstrs'
p13
(lp14
(ibclass
BInstr
p15
(dp16
g2
NsS'disasm'
p17
S'STP             X29, X30, [SP,#-0x10+var_50]!'
p18
sS'bytes'
p19
S'fd7bbaa9'
p20
sS'disasm_striped'
p21
Vstp x29, x30, [sp, #-0x60]!
p22
sg5
L18446743798836603892L
sg6
NsS'mnem'
p23
S'STP'
p24
sS'address'
p25
S'0xffffffc0004babf4L'
p26
sS'basicblock'
p27
Nsba(ibclass
BInstr
p28
(dp29
g2
Nsg17
S'MOV             X29, SP'
p30
sg19
S'fd030091'
p31
sg21
Vmov x29, sp
p32
sg5
L18446743798836603896L
sg6
Nsg23
S'MOV'
p33
sg25
S'0xffffffc0004babf8L'
p34
sg27
Nsba(ibclass
BInstr
p35
(dp36
g2
Nsg17
S'STP             X19, X20, [SP,#0x50+var_40]'
p37
sg19
S'f35301a9'
p38
sg21
Vstp x19, x20, [sp, #0x10]
p39
sg5
L18446743798836603900L
sg6
Nsg23
S'STP'
p40
sg25
S'0xffffffc0004babfcL'
p41
sg27
Nsba(ibclass
BInstr
p42
(dp43
g2
Nsg17
S'STR             X21, [SP,#0x50+var_30]'
p44
sg19
S'f51300f9'
p45
sg21
Vstr x21, [sp, #0x20]
p46
sg5
L18446743798836603904L
sg6
Nsg23
S'STR'
p47
sg25
S'0xffffffc0004bac00L'
p48
sg27
Nsba(ibclass
BInstr
p49
(dp50
g2
Nsg17
S'LDR             X0, [X0,#0xA8]'
p51
sg19
S'005440f9'
p52
sg21
Vldr x0, [x0, #0xa8]
p53
sg5
L18446743798836603908L
sg6
Nsg23
S'LDR'
p54
sg25
S'0xffffffc0004bac04L'
p55
sg27
Nsba(ibclass
BInstr
p56
(dp57
g2
Nsg17
S'MOV             X20, X1'
p58
sg19
S'f40301aa'
p59
sg21
Vmov x20, x1
p60
sg5
L18446743798836603912L
sg6
Nsg23
S'MOV'
p61
sg25
S'0xffffffc0004bac08L'
p62
sg27
Nsba(ibclass
BInstr
p63
(dp64
g2
Nsg17
S'MOV             X19, X3'
p65
sg19
S'f30303aa'
p66
sg21
Vmov x19, x3
p67
sg5
L18446743798836603916L
sg6
Nsg23
S'MOV'
p68
sg25
S'0xffffffc0004bac0cL'
p69
sg27
Nsba(ibclass
BInstr
p70
(dp71
g2
Nsg17
S'CBZ             X0, loc_FFFFFFC0004BAC94'
p72
sg19
S'200400b4'
p73
sg21
Vcbz x0, #0x84
p74
sg5
L18446743798836603920L
sg6
Nsg23
S'CBZ'
p75
sg25
S'0xffffffc0004bac10L'
p76
sg27
NsbasS'disasm_list'
p77
(lp78
S'STP reg9, reg0, mem!'
p79
aS'MOV reg9, SP'
p80
aS'STP reg9, reg0, mem'
p81
aS'STR reg1, mem'
p82
aS'LDR reg, mem'
p83
aS'MOV reg0, reg'
p84
aS'MOV reg9, reg'
p85
aS'CBZ reg, func'
p86
asS'end_address'
p87
Nsg5
S'0xffffffc0004babf4L'
p88
sS'preds'
p89
(lp90
sg6
NsS'succs'
p91
(lp92
S'0xffffffc0004bac14L'
p93
aS'0xffffffc0004bac94L'
p94
asS'hash_v3'
p95
NsS'flag_v2'
p96
NsS'hash_v1'
p97
S'e1b690212a2144acf21fdf75c2b2b5fd'
p98
sS'hash_v2'
p99
S'edc654ad721604c234a11ba56ca9a6cd'
p100
sS'mnen_list'
p101
(lp102
g24
ag33
ag40
ag47
ag54
ag61
ag68
ag75
asS'neighbour_disasm_list'
p103
Nsba(ibclass
BBasicBlock
p104
(dp105
g12
Nsg13
(lp106
(ibclass
BInstr
p107
(dp108
g2
Nsg17
S'LDR             X1, [X3]'
p109
sg19
S'610040f9'
p110
sg21
Vldr x1, [x3]
p111
sg5
L18446743798836603924L
sg6
Nsg23
S'LDR'
p112
sg25
S'0xffffffc0004bac14L'
p113
sg27
Nsba(ibclass
BInstr
p114
(dp115
g2
Nsg17
S'CBZ             X1, loc_FFFFFFC0004BAC24'
p116
sg19
S'610000b4'
p117
sg21
Vcbz x1, #0xc
p118
sg5
L18446743798836603928L
sg6
Nsg23
S'CBZ'
p119
sg25
S'0xffffffc0004bac18L'
p120
sg27
Nsbasg77
(lp121
S'LDR reg, mem'
p122
aS'CBZ reg, func'
p123
asg87
Nsg5
S'0xffffffc0004bac14L'
p124
sg89
(lp125
S'0xffffffc0004babf4L'
p126
asg6
Nsg91
(lp127
S'0xffffffc0004bac1cL'
p128
aS'0xffffffc0004bac24L'
p129
asg95
Nsg96
Nsg97
S'a0c488049ab653dbdfa1dc805bb83f13'
p130
sg99
S'33abe016da9abbebb8608f035d51762d'
p131
sg101
(lp132
g112
ag119
asg103
Nsba(ibclass
BBasicBlock
p133
(dp134
g12
Nsg13
(lp135
(ibclass
BInstr
p136
(dp137
g2
Nsg17
S'MOV             X0, #0'
p138
sg19
S'000080d2'
p139
sg21
Vmovz x0, #0
p140
sg5
L18446743798836603932L
sg6
Nsg23
S'MOV'
p141
sg25
S'0xffffffc0004bac1cL'
p142
sg27
Nsba(ibclass
BInstr
p143
(dp144
g2
Nsg17
S'B               loc_FFFFFFC0004BACA0'
p145
sg19
S'20000014'
p146
sg21
Vb #0x80
p147
sg5
L18446743798836603936L
sg6
Nsg23
S'B'
p148
sg25
S'0xffffffc0004bac20L'
p149
sg27
Nsbasg77
(lp150
S'MOV reg, #0'
p151
aS'B func'
p152
asg87
Nsg5
S'0xffffffc0004bac1cL'
p153
sg89
(lp154
S'0xffffffc0004bac14L'
p155
aS'0xffffffc0004bac24L'
p156
asg6
Nsg91
(lp157
S'0xffffffc0004baca0L'
p158
asg95
Nsg96
Nsg97
S'b6c4e95ccfe77a95e4cf2019dd3d5574'
p159
sg99
S'487d2131c9e9084b6289188d6ce03ca3'
p160
sg101
(lp161
g141
ag148
asg103
Nsba(ibclass
BBasicBlock
p162
(dp163
g12
Nsg13
(lp164
(ibclass
BInstr
p165
(dp166
g2
Nsg17
S'LDRB            W3, [X0,#0x10D]'
p167
sg19
S'03344439'
p168
sg21
Vldrb w3, [x0, #0x10d]
p169
sg5
L18446743798836603940L
sg6
Nsg23
S'LDR'
p170
sg25
S'0xffffffc0004bac24L'
p171
sg27
Nsba(ibclass
BInstr
p172
(dp173
g2
Nsg17
S'ADRP            X2, #(a08x5dD08lxD+0x17)@PAGE; "%d\\n"'
p174
sg19
S'e28100f0'
p175
sg21
Vadrp x2, #0x103f000
p176
sg5
L18446743798836603944L
sg6
Nsg23
S'ADRP'
p177
sg25
S'0xffffffc0004bac28L'
p178
sg27
Nsba(ibclass
BInstr
p179
(dp180
g2
Nsg17
S'MOV             X1, #0x28'
p181
sg19
S'010580d2'
p182
sg21
Vmovz x1, #0x28
p183
sg5
L18446743798836603948L
sg6
Nsg23
S'MOV'
p184
sg25
S'0xffffffc0004bac2cL'
p185
sg27
Nsba(ibclass
BInstr
p186
(dp187
g2
Nsg17
S'ADD             X0, X29, #0x30'
p188
sg19
S'a0c30091'
p189
sg21
Vadd x0, x29, #0x30
p190
sg5
L18446743798836603952L
sg6
Nsg23
S'ADD'
p191
sg25
S'0xffffffc0004bac30L'
p192
sg27
Nsba(ibclass
BInstr
p193
(dp194
g2
Nsg17
S'ADD             X2, X2, #(a08x5dD08lxD+0x17)@PAGEOFF; "%d\\n"'
p195
sg19
S'42881391'
p196
sg21
Vadd x2, x2, #0x4e2
p197
sg5
L18446743798836603956L
sg6
Nsg23
S'ADD'
p198
sg25
S'0xffffffc0004bac34L'
p199
sg27
Nsba(ibclass
BInstr
p200
(dp201
g2
Nsg17
S'EOR             W3, W3, #1'
p202
sg19
S'63000052'
p203
sg21
Veor w3, w3, #1
p204
sg5
L18446743798836603960L
sg6
Nsg23
S'EOR'
p205
sg25
S'0xffffffc0004bac38L'
p206
sg27
Nsba(ibclass
BInstr
p207
(dp208
g2
Nsg17
S'BL              snprintf'
p209
sg19
S'edc1fd97'
p210
sg21
Vbl #0xfffffffffff707b4
p211
sg5
L18446743798836603964L
sg6
Nsg23
S'BL'
p212
sg25
S'0xffffffc0004bac3cL'
p213
sg27
Nsba(ibclass
BInstr
p214
(dp215
g2
Nsg17
S'TBNZ            W0, #0x1F, loc_FFFFFFC0004BAC1C'
p216
sg19
S'e0feff37'
p217
sg21
Vtbnz w0, #0x1f, #0xffffffffffffffdc
p218
sg5
L18446743798836603968L
sg6
Nsg23
S'TBNZ'
p219
sg25
S'0xffffffc0004bac40L'
p220
sg27
Nsbasg77
(lp221
S'LDRB reg, mem'
p222
aS'ADRP reg, #(a08x5dD08lxD+0x17)@PAGE'
p223
aS'MOV reg, #0x28'
p224
aS'ADD reg, reg9, #0x30'
p225
aS'ADD reg, reg, #(a08x5dD08lxD+0x17)@PAGEOFF'
p226
aS'EOR reg, reg, #1'
p227
aS'BL snprintf'
p228
aS'TBNZ reg, #0x1F, func'
p229
asg87
Nsg5
S'0xffffffc0004bac24L'
p230
sg89
(lp231
S'0xffffffc0004bac14L'
p232
asg6
Nsg91
(lp233
S'0xffffffc0004bac1cL'
p234
aS'0xffffffc0004bac44L'
p235
asg95
Nsg96
Nsg97
S'c5b07fdb6713be132182c53180bcdb39'
p236
sg99
S'8a6a5cec5fb58e7071c912e21f07a510'
p237
sg101
(lp238
g170
ag177
ag184
ag191
ag198
ag205
ag212
ag219
asg103
Nsba(ibclass
BBasicBlock
p239
(dp240
g12
Nsg13
(lp241
(ibclass
BInstr
p242
(dp243
g2
Nsg17
S'MOV             X1, SP'
p244
sg19
S'e1030091'
p245
sg21
Vmov x1, sp
p246
sg5
L18446743798836603972L
sg6
Nsg23
S'MOV'
p247
sg25
S'0xffffffc0004bac44L'
p248
sg27
Nsba(ibclass
BInstr
p249
(dp250
g2
Nsg17
S'SBFM            X2, X0, #0, #0x1F'
p251
sg19
S'027c4093'
p252
sg21
Vsxtw x2, w0
p253
sg5
L18446743798836603976L
sg6
Nsg23
S'SBFM'
p254
sg25
S'0xffffffc0004bac48L'
p255
sg27
Nsba(ibclass
BInstr
p256
(dp257
g2
Nsg17
S'AND             X0, X1, #0xFFFFFFFFFFFFC000'
p258
sg19
S'20c47292'
p259
sg21
Vand x0, x1, #0xffffffffffffc000
p260
sg5
L18446743798836603980L
sg6
Nsg23
S'AND'
p261
sg25
S'0xffffffc0004bac4cL'
p262
sg27
Nsba(ibclass
BInstr
p263
(dp264
g2
Nsg17
S'LDR             X0, [X0,#8]'
p265
sg19
S'000440f9'
p266
sg21
Vldr x0, [x0, #8]
p267
sg5
L18446743798836603984L
sg6
Nsg23
S'LDR'
p268
sg25
S'0xffffffc0004bac50L'
p269
sg27
Nsba(ibclass
BInstr
p270
(dp271
g2
Nsg17
S'MOV             X3, X20'
p272
sg19
S'e30314aa'
p273
sg21
Vmov x3, x20
p274
sg5
L18446743798836603988L
sg6
Nsg23
S'MOV'
p275
sg25
S'0xffffffc0004bac54L'
p276
sg27
Nsba(ibclass
BInstr
p277
(dp278
g2
Nsg17
S'MOV             X21, X2'
p279
sg19
S'f50302aa'
p280
sg21
Vmov x21, x2
p281
sg5
L18446743798836603992L
sg6
Nsg23
S'MOV'
p282
sg25
S'0xffffffc0004bac58L'
p283
sg27
Nsba(ibclass
BInstr
p284
(dp285
g2
Nsg17
S'ADDS            X3, X3, X2'
p286
sg19
S'630002ab'
p287
sg21
Vadds x3, x3, x2
p288
sg5
L18446743798836603996L
sg6
Nsg23
S'ADD'
p289
sg25
S'0xffffffc0004bac5cL'
p290
sg27
Nsba(ibclass
BInstr
p291
(dp292
g2
Nsg17
S'CCMP            X3, X0, #2, CC'
p293
sg19
S'623040fa'
p294
sg21
Vccmp x3, x0, #2, lo
p295
sg5
L18446743798836604000L
sg6
Nsg23
S'CCMP'
p296
sg25
S'0xffffffc0004bac60L'
p297
sg27
Nsba(ibclass
BInstr
p298
(dp299
g2
Nsg17
S'CSET            X1, LS'
p300
sg19
S'e1879f9a'
p301
sg21
Vcset x1, ls
p302
sg5
L18446743798836604004L
sg6
Nsg23
S'CSET'
p303
sg25
S'0xffffffc0004bac64L'
p304
sg27
Nsba(ibclass
BInstr
p305
(dp306
g2
Nsg17
S'CBZ             X1, loc_FFFFFFC0004BAC7C'
p307
sg19
S'a10000b4'
p308
sg21
Vcbz x1, #0x14
p309
sg5
L18446743798836604008L
sg6
Nsg23
S'CBZ'
p310
sg25
S'0xffffffc0004bac68L'
p311
sg27
Nsbasg77
(lp312
S'MOV reg, SP'
p313
aS'SBFM reg, reg, #0, #0x1F'
p314
aS'AND reg, reg, #0xFFFFFFFFFFFFC000'
p315
aS'LDR reg, mem'
p316
aS'MOV reg, reg0'
p317
aS'MOV reg1, reg'
p318
aS'ADDS reg, reg, reg'
p319
aS'CCMP reg, reg, #2, CC'
p320
aS'CSET reg, LS'
p321
aS'CBZ reg, func'
p322
asg87
Nsg5
S'0xffffffc0004bac44L'
p323
sg89
(lp324
S'0xffffffc0004bac24L'
p325
asg6
Nsg91
(lp326
S'0xffffffc0004bac6cL'
p327
aS'0xffffffc0004bac7cL'
p328
asg95
Nsg96
Nsg97
S'73a899044300e1eb90c5a6ade74cde9f'
p329
sg99
S'11dcb84752918a09c242cb88d0151134'
p330
sg101
(lp331
g247
ag254
ag261
ag268
ag275
ag282
ag289
ag296
ag303
ag310
asg103
Nsba(ibclass
BBasicBlock
p332
(dp333
g12
Nsg13
(lp334
(ibclass
BInstr
p335
(dp336
g2
Nsg17
S'MOV             X0, X20'
p337
sg19
S'e00314aa'
p338
sg21
Vmov x0, x20
p339
sg5
L18446743798836604012L
sg6
Nsg23
S'MOV'
p340
sg25
S'0xffffffc0004bac6cL'
p341
sg27
Nsba(ibclass
BInstr
p342
(dp343
g2
Nsg17
S'ADD             X1, X29, #0x30'
p344
sg19
S'a1c30091'
p345
sg21
Vadd x1, x29, #0x30
p346
sg5
L18446743798836604016L
sg6
Nsg23
S'ADD'
p347
sg25
S'0xffffffc0004bac70L'
p348
sg27
Nsba(ibclass
BInstr
p349
(dp350
g2
Nsg17
S'BL              __copy_to_user'
p351
sg19
S'd794fd97'
p352
sg21
Vbl #0xfffffffffff6535c
p353
sg5
L18446743798836604020L
sg6
Nsg23
S'BL'
p354
sg25
S'0xffffffc0004bac74L'
p355
sg27
Nsba(ibclass
BInstr
p356
(dp357
g2
Nsg17
S'MOV             X2, X0'
p358
sg19
S'e20300aa'
p359
sg21
Vmov x2, x0
p360
sg5
L18446743798836604024L
sg6
Nsg23
S'MOV'
p361
sg25
S'0xffffffc0004bac78L'
p362
sg27
Nsbasg77
(lp363
S'MOV reg, reg0'
p364
aS'ADD reg, reg9, #0x30'
p365
aS'BL __copy_to_user'
p366
aS'MOV reg, reg'
p367
asg87
Nsg5
S'0xffffffc0004bac6cL'
p368
sg89
(lp369
S'0xffffffc0004bac44L'
p370
asg6
Nsg91
(lp371
S'0xffffffc0004bac7cL'
p372
asg95
Nsg96
Nsg97
S'2e15ede4c99aeb14d0e9aa2dc7d74315'
p373
sg99
S'01c4bb5832a51f9b3cb8f6065604dd9e'
p374
sg101
(lp375
g340
ag347
ag354
ag361
asg103
Nsba(ibclass
BBasicBlock
p376
(dp377
g12
Nsg13
(lp378
(ibclass
BInstr
p379
(dp380
g2
Nsg17
S'CBNZ            X2, loc_FFFFFFC0004BAC9C'
p381
sg19
S'020100b5'
p382
sg21
Vcbnz x2, #0x20
p383
sg5
L18446743798836604028L
sg6
Nsg23
S'CBNZ'
p384
sg25
S'0xffffffc0004bac7cL'
p385
sg27
Nsbasg77
(lp386
S'CBNZ reg, func'
p387
asg87
Nsg5
S'0xffffffc0004bac7cL'
p388
sg89
(lp389
S'0xffffffc0004bac44L'
p390
aS'0xffffffc0004bac6cL'
p391
asg6
Nsg91
(lp392
S'0xffffffc0004bac80L'
p393
aS'0xffffffc0004bac9cL'
p394
asg95
Nsg96
Nsg97
S'482b7d814ad85789cad59d80ecb8562a'
p395
sg99
S'c81d544e8093e123ef790602aa39a0d0'
p396
sg101
(lp397
g384
asg103
Nsba(ibclass
BBasicBlock
p398
(dp399
g12
Nsg13
(lp400
(ibclass
BInstr
p401
(dp402
g2
Nsg17
S'LDR             X0, [X19]'
p403
sg19
S'600240f9'
p404
sg21
Vldr x0, [x19]
p405
sg5
L18446743798836604032L
sg6
Nsg23
S'LDR'
p406
sg25
S'0xffffffc0004bac80L'
p407
sg27
Nsba(ibclass
BInstr
p408
(dp409
g2
Nsg17
S'ADD             X0, X0, X21'
p410
sg19
S'0000158b'
p411
sg21
Vadd x0, x0, x21
p412
sg5
L18446743798836604036L
sg6
Nsg23
S'ADD'
p413
sg25
S'0xffffffc0004bac84L'
p414
sg27
Nsba(ibclass
BInstr
p415
(dp416
g2
Nsg17
S'STR             X0, [X19]'
p417
sg19
S'600200f9'
p418
sg21
Vstr x0, [x19]
p419
sg5
L18446743798836604040L
sg6
Nsg23
S'STR'
p420
sg25
S'0xffffffc0004bac88L'
p421
sg27
Nsba(ibclass
BInstr
p422
(dp423
g2
Nsg17
S'MOV             X0, X21'
p424
sg19
S'e00315aa'
p425
sg21
Vmov x0, x21
p426
sg5
L18446743798836604044L
sg6
Nsg23
S'MOV'
p427
sg25
S'0xffffffc0004bac8cL'
p428
sg27
Nsba(ibclass
BInstr
p429
(dp430
g2
Nsg17
S'B               loc_FFFFFFC0004BACA0'
p431
sg19
S'04000014'
p432
sg21
Vb #0x10
p433
sg5
L18446743798836604048L
sg6
Nsg23
g148
sg25
S'0xffffffc0004bac90L'
p434
sg27
Nsbasg77
(lp435
S'LDR reg, mem'
p436
aS'ADD reg, reg, reg1'
p437
aS'STR reg, mem'
p438
aS'MOV reg, reg1'
p439
aS'B func'
p440
asg87
Nsg5
S'0xffffffc0004bac80L'
p441
sg89
(lp442
S'0xffffffc0004bac7cL'
p443
asg6
Nsg91
(lp444
S'0xffffffc0004baca0L'
p445
asg95
Nsg96
Nsg97
S'aadcc43cdc2a99d1a6ca4a03b08606d5'
p446
sg99
S'48ea67d3cf5b0706131ae0317110db59'
p447
sg101
(lp448
g406
ag413
ag420
ag427
ag148
asg103
Nsba(ibclass
BBasicBlock
p449
(dp450
g12
Nsg13
(lp451
(ibclass
BInstr
p452
(dp453
g2
Nsg17
S'MOV             X0, #0xFFFFFFFFFFFFFFED'
p454
sg19
S'40028092'
p455
sg21
Vmovn x0, #0x12
p456
sg5
L18446743798836604052L
sg6
Nsg23
S'MOV'
p457
sg25
S'0xffffffc0004bac94L'
p458
sg27
Nsba(ibclass
BInstr
p459
(dp460
g2
Nsg17
S'B               loc_FFFFFFC0004BACA0'
p461
sg19
S'02000014'
p462
sg21
Vb #8
p463
sg5
L18446743798836604056L
sg6
Nsg23
g148
sg25
S'0xffffffc0004bac98L'
p464
sg27
Nsbasg77
(lp465
S'MOV reg, #0xFFFFFFFFFFFFFFED'
p466
aS'B func'
p467
asg87
Nsg5
S'0xffffffc0004bac94L'
p468
sg89
(lp469
S'0xffffffc0004babf4L'
p470
asg6
Nsg91
(lp471
S'0xffffffc0004baca0L'
p472
asg95
Nsg96
Nsg97
S'b6c4e95ccfe77a95e4cf2019dd3d5574'
p473
sg99
S'd6037bdf3642280edfe95bdc7a27c760'
p474
sg101
(lp475
g457
ag148
asg103
Nsba(ibclass
BBasicBlock
p476
(dp477
g12
Nsg13
(lp478
(ibclass
BInstr
p479
(dp480
g2
Nsg17
S'MOV             X0, #0xFFFFFFFFFFFFFFF2'
p481
sg19
S'a0018092'
p482
sg21
Vmovn x0, #0xd
p483
sg5
L18446743798836604060L
sg6
Nsg23
S'MOV'
p484
sg25
S'0xffffffc0004bac9cL'
p485
sg27
Nsbasg77
(lp486
S'MOV reg, #0xFFFFFFFFFFFFFFF2'
p487
asg87
Nsg5
S'0xffffffc0004bac9cL'
p488
sg89
(lp489
S'0xffffffc0004bac7cL'
p490
asg6
Nsg91
(lp491
S'0xffffffc0004baca0L'
p492
asg95
Nsg96
Nsg97
S'17b32100aef1fc19670be7fd58bc85df'
p493
sg99
S'266ad5fec82b4871331d29c3125ce490'
p494
sg101
(lp495
g484
asg103
Nsba(ibclass
BBasicBlock
p496
(dp497
g12
Nsg13
(lp498
(ibclass
BInstr
p499
(dp500
g2
Nsg17
S'LDP             X19, X20, [SP,#0x50+var_40]'
p501
sg19
S'f35341a9'
p502
sg21
Vldp x19, x20, [sp, #0x10]
p503
sg5
L18446743798836604064L
sg6
Nsg23
S'LDP'
p504
sg25
S'0xffffffc0004baca0L'
p505
sg27
Nsba(ibclass
BInstr
p506
(dp507
g2
Nsg17
S'LDR             X21, [SP,#0x50+var_30]'
p508
sg19
S'f51340f9'
p509
sg21
Vldr x21, [sp, #0x20]
p510
sg5
L18446743798836604068L
sg6
Nsg23
S'LDR'
p511
sg25
S'0xffffffc0004baca4L'
p512
sg27
Nsba(ibclass
BInstr
p513
(dp514
g2
Nsg17
S'LDP             X29, X30, [SP+0x50+var_50],#0x60'
p515
sg19
S'fd7bc6a8'
p516
sg21
Vldp x29, x30, [sp], #0x60
p517
sg5
L18446743798836604072L
sg6
Nsg23
S'LDP'
p518
sg25
S'0xffffffc0004baca8L'
p519
sg27
Nsba(ibclass
BInstr
p520
(dp521
g2
Nsg17
S'RET'
p522
sg19
S'c0035fd6'
p523
sg21
Vret 
p524
sg5
L18446743798836604076L
sg6
Nsg23
S'RET'
p525
sg25
S'0xffffffc0004bacacL'
p526
sg27
Nsbasg77
(lp527
S'LDP reg9, reg0, mem'
p528
aS'LDR reg1, mem'
p529
aS'LDP reg9, reg0, mem,#0x60'
p530
ag522
asg87
Nsg5
S'0xffffffc0004baca0L'
p531
sg89
(lp532
S'0xffffffc0004bac1cL'
p533
aS'0xffffffc0004bac80L'
p534
aS'0xffffffc0004bac94L'
p535
aS'0xffffffc0004bac9cL'
p536
asg6
Nsg91
(lp537
sg95
Nsg96
Nsg97
S'b128167488f61fa9efc4b75f88cc16c9'
p538
sg99
S'660fb6fbb60d2c087d584ff0828ebd9c'
p539
sg101
(lp540
g504
ag511
ag518
ag525
asg103
Nsbasb.