(ibclass
BFunc
p0
(dp1
S'hash'
p2
NsS'name'
p3
S'mdss_debug_perf_mode_write'
p4
sS'start_address'
p5
L18446743798836602332L
sS'flag'
p6
NsS'program'
p7
NsS'bbs'
p8
(lp9
(ibclass
BBasicBlock
p10
(dp11
S'function'
p12
NsS'binstrs'
p13
(lp14
(ibclass
BInstr
p15
(dp16
g2
NsS'disasm'
p17
S'STP             X29, X30, [SP,#-0x10+var_30]!'
p18
sS'bytes'
p19
S'fd7bbca9'
p20
sS'disasm_striped'
p21
Vstp x29, x30, [sp, #-0x40]!
p22
sg5
L18446743798836602332L
sg6
NsS'mnem'
p23
S'STP'
p24
sS'address'
p25
S'0xffffffc0004ba5dcL'
p26
sS'basicblock'
p27
Nsba(ibclass
BInstr
p28
(dp29
g2
Nsg17
S'MOV             X29, SP'
p30
sg19
S'fd030091'
p31
sg21
Vmov x29, sp
p32
sg5
L18446743798836602336L
sg6
Nsg23
S'MOV'
p33
sg25
S'0xffffffc0004ba5e0L'
p34
sg27
Nsba(ibclass
BInstr
p35
(dp36
g2
Nsg17
S'STP             X19, X20, [SP,#0x30+var_20]'
p37
sg19
S'f35301a9'
p38
sg21
Vstp x19, x20, [sp, #0x10]
p39
sg5
L18446743798836602340L
sg6
Nsg23
S'STP'
p40
sg25
S'0xffffffc0004ba5e4L'
p41
sg27
Nsba(ibclass
BInstr
p42
(dp43
g2
Nsg17
S'STR             X21, [SP,#0x30+var_10]'
p44
sg19
S'f51300f9'
p45
sg21
Vstr x21, [sp, #0x20]
p46
sg5
L18446743798836602344L
sg6
Nsg23
S'STR'
p47
sg25
S'0xffffffc0004ba5e8L'
p48
sg27
Nsba(ibclass
BInstr
p49
(dp50
g2
Nsg17
S'ADRP            X4, #qword_FFFFFFC000E468C8@PAGE'
p51
sg19
S'644c0090'
p52
sg21
Vadrp x4, #0x98c000
p53
sg5
L18446743798836602348L
sg6
Nsg23
S'ADRP'
p54
sg25
S'0xffffffc0004ba5ecL'
p55
sg27
Nsba(ibclass
BInstr
p56
(dp57
g2
Nsg17
S'LDR             X4, [X4,#qword_FFFFFFC000E468C8@PAGEOFF]'
p58
sg19
S'846444f9'
p59
sg21
Vldr x4, [x4, #0x8c8]
p60
sg5
L18446743798836602352L
sg6
Nsg23
S'LDR'
p61
sg25
S'0xffffffc0004ba5f0L'
p62
sg27
Nsba(ibclass
BInstr
p63
(dp64
g2
Nsg17
S'LDR             X0, [X0,#0xA8]'
p65
sg19
S'005440f9'
p66
sg21
Vldr x0, [x0, #0xa8]
p67
sg5
L18446743798836602356L
sg6
Nsg23
S'LDR'
p68
sg25
S'0xffffffc0004ba5f4L'
p69
sg27
Nsba(ibclass
BInstr
p70
(dp71
g2
Nsg17
S'STR             WZR, [X29,#0x30+var_sC]'
p72
sg19
S'bf3f00b9'
p73
sg21
Vstr wzr, [x29, #0x3c]
p74
sg5
L18446743798836602360L
sg6
Nsg23
S'STR'
p75
sg25
S'0xffffffc0004ba5f8L'
p76
sg27
Nsba(ibclass
BInstr
p77
(dp78
g2
Nsg17
S'MOV             X20, X2'
p79
sg19
S'f40302aa'
p80
sg21
Vmov x20, x2
p81
sg5
L18446743798836602364L
sg6
Nsg23
S'MOV'
p82
sg25
S'0xffffffc0004ba5fcL'
p83
sg27
Nsba(ibclass
BInstr
p84
(dp85
g2
Nsg17
S'LDR             X19, [X4]'
p86
sg19
S'930040f9'
p87
sg21
Vldr x19, [x4]
p88
sg5
L18446743798836602368L
sg6
Nsg23
S'LDR'
p89
sg25
S'0xffffffc0004ba600L'
p90
sg27
Nsba(ibclass
BInstr
p91
(dp92
g2
Nsg17
S'CBNZ            X0, loc_FFFFFFC0004BA610'
p93
sg19
S'600000b5'
p94
sg21
Vcbnz x0, #0xc
p95
sg5
L18446743798836602372L
sg6
Nsg23
S'CBNZ'
p96
sg25
S'0xffffffc0004ba604L'
p97
sg27
NsbasS'disasm_list'
p98
(lp99
S'STP reg9, reg0, mem!'
p100
aS'MOV reg9, SP'
p101
aS'STP reg9, reg0, mem'
p102
aS'STR reg1, mem'
p103
aS'ADRP reg, #func@PAGE'
p104
aS'LDR reg, mem'
p105
aS'LDR reg, mem'
p106
aS'STR WZR, mem'
p107
aS'MOV reg0, reg'
p108
aS'LDR reg9, mem'
p109
aS'CBNZ reg, func'
p110
asS'end_address'
p111
Nsg5
S'0xffffffc0004ba5dcL'
p112
sS'preds'
p113
(lp114
sg6
NsS'succs'
p115
(lp116
S'0xffffffc0004ba608L'
p117
aS'0xffffffc0004ba610L'
p118
asS'hash_v3'
p119
NsS'flag_v2'
p120
NsS'hash_v1'
p121
S'7ff8b133f6efc971c0f67bc74074cc4d'
p122
sS'hash_v2'
p123
S'f1f1482c148dee9e0add08562a6f1de9'
p124
sS'mnen_list'
p125
(lp126
g24
ag33
ag40
ag47
ag54
ag61
ag68
ag75
ag82
ag89
ag96
asS'neighbour_disasm_list'
p127
Nsba(ibclass
BBasicBlock
p128
(dp129
g12
Nsg13
(lp130
(ibclass
BInstr
p131
(dp132
g2
Nsg17
S'MOV             X0, #0xFFFFFFFFFFFFFFF2'
p133
sg19
S'a0018092'
p134
sg21
Vmovn x0, #0xd
p135
sg5
L18446743798836602376L
sg6
Nsg23
S'MOV'
p136
sg25
S'0xffffffc0004ba608L'
p137
sg27
Nsba(ibclass
BInstr
p138
(dp139
g2
Nsg17
S'B               loc_FFFFFFC0004BA6A4'
p140
sg19
S'26000014'
p141
sg21
Vb #0x98
p142
sg5
L18446743798836602380L
sg6
Nsg23
S'B'
p143
sg25
S'0xffffffc0004ba60cL'
p144
sg27
Nsbasg98
(lp145
S'MOV reg, #0xFFFFFFFFFFFFFFF2'
p146
aS'B func'
p147
asg111
Nsg5
S'0xffffffc0004ba608L'
p148
sg113
(lp149
S'0xffffffc0004ba5dcL'
p150
aS'0xffffffc0004ba610L'
p151
aS'0xffffffc0004ba654L'
p152
aS'0xffffffc0004ba658L'
p153
asg6
Nsg115
(lp154
S'0xffffffc0004ba6a4L'
p155
asg119
Nsg120
Nsg121
S'b6c4e95ccfe77a95e4cf2019dd3d5574'
p156
sg123
S'de5cd3634b99fc7484a5299a0e06a6dc'
p157
sg125
(lp158
g136
ag143
asg127
Nsba(ibclass
BBasicBlock
p159
(dp160
g12
Nsg13
(lp161
(ibclass
BInstr
p162
(dp163
g2
Nsg17
S'CMP             X2, #9'
p164
sg19
S'5f2400f1'
p165
sg21
Vcmp x2, #9
p166
sg5
L18446743798836602384L
sg6
Nsg23
S'CMP'
p167
sg25
S'0xffffffc0004ba610L'
p168
sg27
Nsba(ibclass
BInstr
p169
(dp170
g2
Nsg17
S'B.HI            loc_FFFFFFC0004BA608'
p171
sg19
S'a8ffff54'
p172
sg21
Vb.hi #0xfffffffffffffff4
p173
sg5
L18446743798836602388L
sg6
Nsg23
g143
sg25
S'0xffffffc0004ba614L'
p174
sg27
Nsbasg98
(lp175
S'CMP reg, #9'
p176
aS'B.HI func'
p177
asg111
Nsg5
S'0xffffffc0004ba610L'
p178
sg113
(lp179
S'0xffffffc0004ba5dcL'
p180
asg6
Nsg115
(lp181
S'0xffffffc0004ba608L'
p182
aS'0xffffffc0004ba618L'
p183
asg119
Nsg120
Nsg121
S'c78fd620a449e3c979d3f3ec12d4ee88'
p184
sg123
S'92e6fc4b8e4e8ec68f2cdb3bc4771e60'
p185
sg125
(lp186
g167
ag143
asg127
Nsba(ibclass
BBasicBlock
p187
(dp188
g12
Nsg13
(lp189
(ibclass
BInstr
p190
(dp191
g2
Nsg17
S'MOV             X4, SP'
p192
sg19
S'e4030091'
p193
sg21
Vmov x4, sp
p194
sg5
L18446743798836602392L
sg6
Nsg23
S'MOV'
p195
sg25
S'0xffffffc0004ba618L'
p196
sg27
Nsba(ibclass
BInstr
p197
(dp198
g2
Nsg17
S'AND             X0, X4, #0xFFFFFFFFFFFFC000'
p199
sg19
S'80c47292'
p200
sg21
Vand x0, x4, #0xffffffffffffc000
p201
sg5
L18446743798836602396L
sg6
Nsg23
S'AND'
p202
sg25
S'0xffffffc0004ba61cL'
p203
sg27
Nsba(ibclass
BInstr
p204
(dp205
g2
Nsg17
S'LDR             X4, [X0,#8]'
p206
sg19
S'040440f9'
p207
sg21
Vldr x4, [x0, #8]
p208
sg5
L18446743798836602400L
sg6
Nsg23
S'LDR'
p209
sg25
S'0xffffffc0004ba620L'
p210
sg27
Nsba(ibclass
BInstr
p211
(dp212
g2
Nsg17
S'MOV             X0, X1'
p213
sg19
S'e00301aa'
p214
sg21
Vmov x0, x1
p215
sg5
L18446743798836602404L
sg6
Nsg23
S'MOV'
p216
sg25
S'0xffffffc0004ba624L'
p217
sg27
Nsba(ibclass
BInstr
p218
(dp219
g2
Nsg17
S'ADDS            X0, X0, X2'
p220
sg19
S'000002ab'
p221
sg21
Vadds x0, x0, x2
p222
sg5
L18446743798836602408L
sg6
Nsg23
S'ADD'
p223
sg25
S'0xffffffc0004ba628L'
p224
sg27
Nsba(ibclass
BInstr
p225
(dp226
g2
Nsg17
S'CCMP            X0, X4, #2, CC'
p227
sg19
S'023044fa'
p228
sg21
Vccmp x0, x4, #2, lo
p229
sg5
L18446743798836602412L
sg6
Nsg23
S'CCMP'
p230
sg25
S'0xffffffc0004ba62cL'
p231
sg27
Nsba(ibclass
BInstr
p232
(dp233
g2
Nsg17
S'CSET            X3, LS'
p234
sg19
S'e3879f9a'
p235
sg21
Vcset x3, ls
p236
sg5
L18446743798836602416L
sg6
Nsg23
S'CSET'
p237
sg25
S'0xffffffc0004ba630L'
p238
sg27
Nsba(ibclass
BInstr
p239
(dp240
g2
Nsg17
S'ADD             X0, X29, #0x30'
p241
sg19
S'a0c30091'
p242
sg21
Vadd x0, x29, #0x30
p243
sg5
L18446743798836602420L
sg6
Nsg23
S'ADD'
p244
sg25
S'0xffffffc0004ba634L'
p245
sg27
Nsba(ibclass
BInstr
p246
(dp247
g2
Nsg17
S'CBZ             X3, loc_FFFFFFC0004BA648'
p248
sg19
S'830000b4'
p249
sg21
Vcbz x3, #0x10
p250
sg5
L18446743798836602424L
sg6
Nsg23
S'CBZ'
p251
sg25
S'0xffffffc0004ba638L'
p252
sg27
Nsbasg98
(lp253
S'MOV reg, SP'
p254
aS'AND reg, reg, #0xFFFFFFFFFFFFC000'
p255
aS'LDR reg, mem'
p256
aS'MOV reg, reg'
p257
aS'ADDS reg, reg, reg'
p258
aS'CCMP reg, reg, #2, CC'
p259
aS'CSET reg, LS'
p260
aS'ADD reg, reg9, #0x30'
p261
aS'CBZ reg, func'
p262
asg111
Nsg5
S'0xffffffc0004ba618L'
p263
sg113
(lp264
S'0xffffffc0004ba610L'
p265
asg6
Nsg115
(lp266
S'0xffffffc0004ba63cL'
p267
aS'0xffffffc0004ba648L'
p268
asg119
Nsg120
Nsg121
S'855fef765c622f509009a0d487bbf388'
p269
sg123
S'3781ae1335a77939c31f5e9791922d57'
p270
sg125
(lp271
g195
ag202
ag209
ag216
ag223
ag230
ag237
ag244
ag251
asg127
Nsba(ibclass
BBasicBlock
p272
(dp273
g12
Nsg13
(lp274
(ibclass
BInstr
p275
(dp276
g2
Nsg17
S'BL              __copy_from_user'
p277
sg19
S'2596fd97'
p278
sg21
Vbl #0xfffffffffff65894
p279
sg5
L18446743798836602428L
sg6
Nsg23
S'BL'
p280
sg25
S'0xffffffc0004ba63cL'
p281
sg27
Nsba(ibclass
BInstr
p282
(dp283
g2
Nsg17
S'MOV             X21, X0'
p284
sg19
S'f50300aa'
p285
sg21
Vmov x21, x0
p286
sg5
L18446743798836602432L
sg6
Nsg23
S'MOV'
p287
sg25
S'0xffffffc0004ba640L'
p288
sg27
Nsba(ibclass
BInstr
p289
(dp290
g2
Nsg17
S'B               loc_FFFFFFC0004BA654'
p291
sg19
S'04000014'
p292
sg21
Vb #0x10
p293
sg5
L18446743798836602436L
sg6
Nsg23
g143
sg25
S'0xffffffc0004ba644L'
p294
sg27
Nsbasg98
(lp295
S'BL __copy_from_user'
p296
aS'MOV reg1, reg'
p297
aS'B func'
p298
asg111
Nsg5
S'0xffffffc0004ba63cL'
p299
sg113
(lp300
S'0xffffffc0004ba618L'
p301
asg6
Nsg115
(lp302
S'0xffffffc0004ba654L'
p303
asg119
Nsg120
Nsg121
S'784a337fe2b2b07f8b8369fbd0da5f75'
p304
sg123
S'6ca07e4a612a5ae1e93ec140a856a4b5'
p305
sg125
(lp306
g280
ag287
ag143
asg127
Nsba(ibclass
BBasicBlock
p307
(dp308
g12
Nsg13
(lp309
(ibclass
BInstr
p310
(dp311
g2
Nsg17
S'MOV             W1, W3'
p312
sg19
S'e103032a'
p313
sg21
Vmov w1, w3
p314
sg5
L18446743798836602440L
sg6
Nsg23
S'MOV'
p315
sg25
S'0xffffffc0004ba648L'
p316
sg27
Nsba(ibclass
BInstr
p317
(dp318
g2
Nsg17
S'BL              memset'
p319
sg19
S'ed97fd97'
p320
sg21
Vbl #0xfffffffffff65fb4
p321
sg5
L18446743798836602444L
sg6
Nsg23
S'BL'
p322
sg25
S'0xffffffc0004ba64cL'
p323
sg27
Nsba(ibclass
BInstr
p324
(dp325
g2
Nsg17
S'MOV             X21, X20'
p326
sg19
S'f50314aa'
p327
sg21
Vmov x21, x20
p328
sg5
L18446743798836602448L
sg6
Nsg23
S'MOV'
p329
sg25
S'0xffffffc0004ba650L'
p330
sg27
Nsbasg98
(lp331
S'MOV reg, reg'
p332
aS'BL memset'
p333
aS'MOV reg1, reg0'
p334
asg111
Nsg5
S'0xffffffc0004ba648L'
p335
sg113
(lp336
S'0xffffffc0004ba618L'
p337
asg6
Nsg115
(lp338
S'0xffffffc0004ba654L'
p339
asg119
Nsg120
Nsg121
S'f5aca26e8f695df15220ab59afc1e815'
p340
sg123
S'ac227ebe0d6904f7b3e71567015ba8a6'
p341
sg125
(lp342
g315
ag322
ag329
asg127
Nsba(ibclass
BBasicBlock
p343
(dp344
g12
Nsg13
(lp345
(ibclass
BInstr
p346
(dp347
g2
Nsg17
S'CBNZ            X21, loc_FFFFFFC0004BA608'
p348
sg19
S'b5fdffb5'
p349
sg21
Vcbnz x21, #0xffffffffffffffb4
p350
sg5
L18446743798836602452L
sg6
Nsg23
S'CBNZ'
p351
sg25
S'0xffffffc0004ba654L'
p352
sg27
Nsbasg98
(lp353
S'CBNZ reg1, func'
p354
asg111
Nsg5
S'0xffffffc0004ba654L'
p355
sg113
(lp356
S'0xffffffc0004ba63cL'
p357
aS'0xffffffc0004ba648L'
p358
asg6
Nsg115
(lp359
S'0xffffffc0004ba608L'
p360
aS'0xffffffc0004ba658L'
p361
asg119
Nsg120
Nsg121
S'482b7d814ad85789cad59d80ecb8562a'
p362
sg123
S'c00791758cb2eab3a17bb89572748ad4'
p363
sg125
(lp364
g351
asg127
Nsba(ibclass
BBasicBlock
p365
(dp366
g12
Nsg13
(lp367
(ibclass
BInstr
p368
(dp369
g2
Nsg17
S'ADRP            X1, #unk_FFFFFFC0014C0F5E@PAGE'
p370
sg19
S'218000d0'
p371
sg21
Vadrp x1, #0x1006000
p372
sg5
L18446743798836602456L
sg6
Nsg23
S'ADRP'
p373
sg25
S'0xffffffc0004ba658L'
p374
sg27
Nsba(ibclass
BInstr
p375
(dp376
g2
Nsg17
S'ADD             X0, X29, #0x30'
p377
sg19
S'a0c30091'
p378
sg21
Vadd x0, x29, #0x30
p379
sg5
L18446743798836602460L
sg6
Nsg23
S'ADD'
p380
sg25
S'0xffffffc0004ba65cL'
p381
sg27
Nsba(ibclass
BInstr
p382
(dp383
g2
Nsg17
S'ADD             X1, X1, #unk_FFFFFFC0014C0F5E@PAGEOFF'
p384
sg19
S'21783d91'
p385
sg21
Vadd x1, x1, #0xf5e
p386
sg5
L18446743798836602464L
sg6
Nsg23
S'ADD'
p387
sg25
S'0xffffffc0004ba660L'
p388
sg27
Nsba(ibclass
BInstr
p389
(dp390
g2
Nsg17
S'ADD             X2, X29, #0x3C'
p391
sg19
S'a2f30091'
p392
sg21
Vadd x2, x29, #0x3c
p393
sg5
L18446743798836602468L
sg6
Nsg23
S'ADD'
p394
sg25
S'0xffffffc0004ba664L'
p395
sg27
Nsba(ibclass
BInstr
p396
(dp397
g2
Nsg17
S'BL              sscanf'
p398
sg19
S'14c7fd97'
p399
sg21
Vbl #0xfffffffffff71c50
p400
sg5
L18446743798836602472L
sg6
Nsg23
S'BL'
p401
sg25
S'0xffffffc0004ba668L'
p402
sg27
Nsba(ibclass
BInstr
p403
(dp404
g2
Nsg17
S'CMP             W0, #1'
p405
sg19
S'1f040071'
p406
sg21
Vcmp w0, #1
p407
sg5
L18446743798836602476L
sg6
Nsg23
S'CMP'
p408
sg25
S'0xffffffc0004ba66cL'
p409
sg27
Nsba(ibclass
BInstr
p410
(dp411
g2
Nsg17
S'B.NE            loc_FFFFFFC0004BA608'
p412
sg19
S'c1fcff54'
p413
sg21
Vb.ne #0xffffffffffffff98
p414
sg5
L18446743798836602480L
sg6
Nsg23
g143
sg25
S'0xffffffc0004ba670L'
p415
sg27
Nsbasg98
(lp416
S'ADRP reg, #func@PAGE'
p417
aS'ADD reg, reg9, #0x30'
p418
aS'ADD reg, reg, #func@PAGEOFF'
p419
aS'ADD reg, reg9, #0x3C'
p420
aS'BL sscanf'
p421
aS'CMP reg, #1'
p422
aS'B.NE func'
p423
asg111
Nsg5
S'0xffffffc0004ba658L'
p424
sg113
(lp425
S'0xffffffc0004ba654L'
p426
asg6
Nsg115
(lp427
S'0xffffffc0004ba608L'
p428
aS'0xffffffc0004ba674L'
p429
asg119
Nsg120
Nsg121
S'be755508fdb57635731c4e75834663ba'
p430
sg123
S'c16907ec5a9cbc7666bf97409c96b3ca'
p431
sg125
(lp432
g373
ag380
ag387
ag394
ag401
ag408
ag143
asg127
Nsba(ibclass
BBasicBlock
p433
(dp434
g12
Nsg13
(lp435
(ibclass
BInstr
p436
(dp437
g2
Nsg17
S'LDR             W0, [X29,#arg_2C]'
p438
sg19
S'a03f40b9'
p439
sg21
Vldr w0, [x29, #0x3c]
p440
sg5
L18446743798836602484L
sg6
Nsg23
S'LDR'
p441
sg25
S'0xffffffc0004ba674L'
p442
sg27
Nsba(ibclass
BInstr
p443
(dp444
g2
Nsg17
S'CBZ             W0, loc_FFFFFFC0004BA698'
p445
sg19
S'00010034'
p446
sg21
Vcbz w0, #0x20
p447
sg5
L18446743798836602488L
sg6
Nsg23
S'CBZ'
p448
sg25
S'0xffffffc0004ba678L'
p449
sg27
Nsbasg98
(lp450
S'LDR reg, mem'
p451
aS'CBZ reg, func'
p452
asg111
Nsg5
S'0xffffffc0004ba674L'
p453
sg113
(lp454
S'0xffffffc0004ba658L'
p455
asg6
Nsg115
(lp456
S'0xffffffc0004ba67cL'
p457
aS'0xffffffc0004ba698L'
p458
asg119
Nsg120
Nsg121
S'a0c488049ab653dbdfa1dc805bb83f13'
p459
sg123
S'33abe016da9abbebb8608f035d51762d'
p460
sg125
(lp461
g441
ag448
asg127
Nsba(ibclass
BBasicBlock
p462
(dp463
g12
Nsg13
(lp464
(ibclass
BInstr
p465
(dp466
g2
Nsg17
S'LDR             W0, [X19,#0x5C]'
p467
sg19
S'605e40b9'
p468
sg21
Vldr w0, [x19, #0x5c]
p469
sg5
L18446743798836602492L
sg6
Nsg23
S'LDR'
p470
sg25
S'0xffffffc0004ba67cL'
p471
sg27
Nsba(ibclass
BInstr
p472
(dp473
g2
Nsg17
S'LDR             W1, [X19,#0x1AC]'
p474
sg19
S'61ae41b9'
p475
sg21
Vldr w1, [x19, #0x1ac]
p476
sg5
L18446743798836602496L
sg6
Nsg23
S'LDR'
p477
sg25
S'0xffffffc0004ba680L'
p478
sg27
Nsba(ibclass
BInstr
p479
(dp480
g2
Nsg17
S'STR             X0, [X19,#0x498]'
p481
sg19
S'604e02f9'
p482
sg21
Vstr x0, [x19, #0x498]
p483
sg5
L18446743798836602500L
sg6
Nsg23
S'STR'
p484
sg25
S'0xffffffc0004ba684L'
p485
sg27
Nsba(ibclass
BInstr
p486
(dp487
g2
Nsg17
S'MOV             W0, #0x3E8'
p488
sg19
S'007d8052'
p489
sg21
Vmovz w0, #0x3e8
p490
sg5
L18446743798836602504L
sg6
Nsg23
S'MOV'
p491
sg25
S'0xffffffc0004ba688L'
p492
sg27
Nsba(ibclass
BInstr
p493
(dp494
g2
Nsg17
S'UMADDL          X0, W1, W0, XZR'
p495
sg19
S'207ca09b'
p496
sg21
Vumull x0, w1, w0
p497
sg5
L18446743798836602508L
sg6
Nsg23
S'UMADDL'
p498
sg25
S'0xffffffc0004ba68cL'
p499
sg27
Nsba(ibclass
BInstr
p500
(dp501
g2
Nsg17
S'STR             X0, [X19,#0x4A0]'
p502
sg19
S'605202f9'
p503
sg21
Vstr x0, [x19, #0x4a0]
p504
sg5
L18446743798836602512L
sg6
Nsg23
S'STR'
p505
sg25
S'0xffffffc0004ba690L'
p506
sg27
Nsba(ibclass
BInstr
p507
(dp508
g2
Nsg17
S'B               loc_FFFFFFC0004BA6A0'
p509
sg19
S'03000014'
p510
sg21
Vb #0xc
p511
sg5
L18446743798836602516L
sg6
Nsg23
g143
sg25
S'0xffffffc0004ba694L'
p512
sg27
Nsbasg98
(lp513
S'LDR reg, mem'
p514
aS'LDR reg, mem'
p515
aS'STR reg, mem'
p516
aS'MOV reg, #0x3E8'
p517
aS'UMADDL reg, reg, reg, XZR'
p518
aS'STR reg, mem'
p519
aS'B func'
p520
asg111
Nsg5
S'0xffffffc0004ba67cL'
p521
sg113
(lp522
S'0xffffffc0004ba674L'
p523
asg6
Nsg115
(lp524
S'0xffffffc0004ba6a0L'
p525
asg119
Nsg120
Nsg121
S'6ce6d274bff300c8cb8d47dcc59676df'
p526
sg123
S'7bad46557422df04078c719849a11b35'
p527
sg125
(lp528
g470
ag477
ag484
ag491
ag498
ag505
ag143
asg127
Nsba(ibclass
BBasicBlock
p529
(dp530
g12
Nsg13
(lp531
(ibclass
BInstr
p532
(dp533
g2
Nsg17
S'STR             X21, [X19,#0x498]'
p534
sg19
S'754e02f9'
p535
sg21
Vstr x21, [x19, #0x498]
p536
sg5
L18446743798836602520L
sg6
Nsg23
S'STR'
p537
sg25
S'0xffffffc0004ba698L'
p538
sg27
Nsba(ibclass
BInstr
p539
(dp540
g2
Nsg17
S'STR             X21, [X19,#0x4A0]'
p541
sg19
S'755202f9'
p542
sg21
Vstr x21, [x19, #0x4a0]
p543
sg5
L18446743798836602524L
sg6
Nsg23
S'STR'
p544
sg25
S'0xffffffc0004ba69cL'
p545
sg27
Nsbasg98
(lp546
S'STR reg1, mem'
p547
aS'STR reg1, mem'
p548
asg111
Nsg5
S'0xffffffc0004ba698L'
p549
sg113
(lp550
S'0xffffffc0004ba674L'
p551
asg6
Nsg115
(lp552
S'0xffffffc0004ba6a0L'
p553
asg119
Nsg120
Nsg121
S'9d5b820087e41099dc1c75ea7689157b'
p554
sg123
S'80dca8f6d61976d076c035eda7f152d1'
p555
sg125
(lp556
g537
ag544
asg127
Nsba(ibclass
BBasicBlock
p557
(dp558
g12
Nsg13
(lp559
(ibclass
BInstr
p560
(dp561
g2
Nsg17
S'MOV             X0, X20'
p562
sg19
S'e00314aa'
p563
sg21
Vmov x0, x20
p564
sg5
L18446743798836602528L
sg6
Nsg23
S'MOV'
p565
sg25
S'0xffffffc0004ba6a0L'
p566
sg27
Nsbasg98
(lp567
S'MOV reg, reg0'
p568
asg111
Nsg5
S'0xffffffc0004ba6a0L'
p569
sg113
(lp570
S'0xffffffc0004ba67cL'
p571
aS'0xffffffc0004ba698L'
p572
asg6
Nsg115
(lp573
S'0xffffffc0004ba6a4L'
p574
asg119
Nsg120
Nsg121
S'17b32100aef1fc19670be7fd58bc85df'
p575
sg123
S'f4168b5bab158e8f6facf4e66b27a1ef'
p576
sg125
(lp577
g565
asg127
Nsba(ibclass
BBasicBlock
p578
(dp579
g12
Nsg13
(lp580
(ibclass
BInstr
p581
(dp582
g2
Nsg17
S'LDP             X19, X20, [SP,#0x30+var_20]'
p583
sg19
S'f35341a9'
p584
sg21
Vldp x19, x20, [sp, #0x10]
p585
sg5
L18446743798836602532L
sg6
Nsg23
S'LDP'
p586
sg25
S'0xffffffc0004ba6a4L'
p587
sg27
Nsba(ibclass
BInstr
p588
(dp589
g2
Nsg17
S'LDR             X21, [SP,#0x30+var_10]'
p590
sg19
S'f51340f9'
p591
sg21
Vldr x21, [sp, #0x20]
p592
sg5
L18446743798836602536L
sg6
Nsg23
S'LDR'
p593
sg25
S'0xffffffc0004ba6a8L'
p594
sg27
Nsba(ibclass
BInstr
p595
(dp596
g2
Nsg17
S'LDP             X29, X30, [SP+0x30+var_30],#0x40'
p597
sg19
S'fd7bc4a8'
p598
sg21
Vldp x29, x30, [sp], #0x40
p599
sg5
L18446743798836602540L
sg6
Nsg23
S'LDP'
p600
sg25
S'0xffffffc0004ba6acL'
p601
sg27
Nsba(ibclass
BInstr
p602
(dp603
g2
Nsg17
S'RET'
p604
sg19
S'c0035fd6'
p605
sg21
Vret 
p606
sg5
L18446743798836602544L
sg6
Nsg23
S'RET'
p607
sg25
S'0xffffffc0004ba6b0L'
p608
sg27
Nsbasg98
(lp609
S'LDP reg9, reg0, mem'
p610
aS'LDR reg1, mem'
p611
aS'LDP reg9, reg0, mem,#0x40'
p612
ag604
asg111
Nsg5
S'0xffffffc0004ba6a4L'
p613
sg113
(lp614
S'0xffffffc0004ba608L'
p615
aS'0xffffffc0004ba6a0L'
p616
asg6
Nsg115
(lp617
sg119
Nsg120
Nsg121
S'b128167488f61fa9efc4b75f88cc16c9'
p618
sg123
S'7f6a0911baff82d816961441d8301e3b'
p619
sg125
(lp620
g586
ag593
ag600
ag607
asg127
Nsbasb.