(ibclass
BFunc
p0
(dp1
S'hash'
p2
NsS'name'
p3
S'msm_venc_querycap'
p4
sS'start_address'
p5
L18446743798839700588L
sS'flag'
p6
NsS'program'
p7
NsS'bbs'
p8
(lp9
(ibclass
BBasicBlock
p10
(dp11
S'function'
p12
NsS'binstrs'
p13
(lp14
(ibclass
BInstr
p15
(dp16
g2
NsS'disasm'
p17
S'STP             X29, X30, [SP,#-0x10+var_10]!'
p18
sS'bytes'
p19
S'fd7bbea9'
p20
sS'disasm_striped'
p21
Vstp x29, x30, [sp, #-0x20]!
p22
sg5
L18446743798839700588L
sg6
NsS'mnem'
p23
S'STP'
p24
sS'address'
p25
S'0xffffffc0007aec6cL'
p26
sS'basicblock'
p27
Nsba(ibclass
BInstr
p28
(dp29
g2
Nsg17
S'MOV             X29, SP'
p30
sg19
S'fd030091'
p31
sg21
Vmov x29, sp
p32
sg5
L18446743798839700592L
sg6
Nsg23
S'MOV'
p33
sg25
S'0xffffffc0007aec70L'
p34
sg27
Nsba(ibclass
BInstr
p35
(dp36
g2
Nsg17
S'STP             X19, X20, [SP,#0x10+var_s0]'
p37
sg19
S'f35301a9'
p38
sg21
Vstp x19, x20, [sp, #0x10]
p39
sg5
L18446743798839700596L
sg6
Nsg23
S'STP'
p40
sg25
S'0xffffffc0007aec74L'
p41
sg27
Nsba(ibclass
BInstr
p42
(dp43
g2
Nsg17
S'MOV             X2, X0'
p44
sg19
S'e20300aa'
p45
sg21
Vmov x2, x0
p46
sg5
L18446743798839700600L
sg6
Nsg23
S'MOV'
p47
sg25
S'0xffffffc0007aec78L'
p48
sg27
Nsba(ibclass
BInstr
p49
(dp50
g2
Nsg17
S'MOV             X19, X1'
p51
sg19
S'f30301aa'
p52
sg21
Vmov x19, x1
p53
sg5
L18446743798839700604L
sg6
Nsg23
S'MOV'
p54
sg25
S'0xffffffc0007aec7cL'
p55
sg27
Nsba(ibclass
BInstr
p56
(dp57
g2
Nsg17
S'CBZ             X0, loc_FFFFFFC0007AEC90'
p58
sg19
S'800000b4'
p59
sg21
Vcbz x0, #0x10
p60
sg5
L18446743798839700608L
sg6
Nsg23
S'CBZ'
p61
sg25
S'0xffffffc0007aec80L'
p62
sg27
NsbasS'disasm_list'
p63
(lp64
S'STP reg9, reg0, mem!'
p65
aS'MOV reg9, SP'
p66
aS'STP reg9, reg0, mem'
p67
aS'MOV reg, reg'
p68
aS'MOV reg9, reg'
p69
aS'CBZ reg, func'
p70
asS'end_address'
p71
Nsg5
S'0xffffffc0007aec6cL'
p72
sS'preds'
p73
(lp74
sg6
NsS'succs'
p75
(lp76
S'0xffffffc0007aec84L'
p77
aS'0xffffffc0007aec90L'
p78
asS'hash_v3'
p79
NsS'flag_v2'
p80
NsS'hash_v1'
p81
S'c04b157cbe11ed1d0c980cef767486ad'
p82
sS'hash_v2'
p83
S'61089596d6ca18a8010c0b185493ee7e'
p84
sS'mnen_list'
p85
(lp86
g24
ag33
ag40
ag47
ag54
ag61
asS'neighbour_disasm_list'
p87
Nsba(ibclass
BBasicBlock
p88
(dp89
g12
Nsg13
(lp90
(ibclass
BInstr
p91
(dp92
g2
Nsg17
S'CMP             X1, XZR'
p93
sg19
S'3f001feb'
p94
sg21
Vcmp x1, xzr
p95
sg5
L18446743798839700612L
sg6
Nsg23
S'CMP'
p96
sg25
S'0xffffffc0007aec84L'
p97
sg27
Nsba(ibclass
BInstr
p98
(dp99
g2
Nsg17
S'CSET            W20, EQ'
p100
sg19
S'f4179f1a'
p101
sg21
Vcset w20, eq
p102
sg5
L18446743798839700616L
sg6
Nsg23
S'CSET'
p103
sg25
S'0xffffffc0007aec88L'
p104
sg27
Nsba(ibclass
BInstr
p105
(dp106
g2
Nsg17
S'CBZ             W20, loc_FFFFFFC0007AECD0'
p107
sg19
S'34020034'
p108
sg21
Vcbz w20, #0x44
p109
sg5
L18446743798839700620L
sg6
Nsg23
S'CBZ'
p110
sg25
S'0xffffffc0007aec8cL'
p111
sg27
Nsbasg63
(lp112
S'CMP reg, XZR'
p113
aS'CSET reg0, EQ'
p114
aS'CBZ reg0, func'
p115
asg71
Nsg5
S'0xffffffc0007aec84L'
p116
sg73
(lp117
S'0xffffffc0007aec6cL'
p118
asg6
Nsg75
(lp119
S'0xffffffc0007aec90L'
p120
aS'0xffffffc0007aecd0L'
p121
asg79
Nsg80
Nsg81
S'f704f93687a6b1bd84c9bea144c50305'
p122
sg83
S'75849ae68203b2d71770b5fd16123519'
p123
sg85
(lp124
g96
ag103
ag110
asg87
Nsba(ibclass
BBasicBlock
p125
(dp126
g12
Nsg13
(lp127
(ibclass
BInstr
p128
(dp129
g2
Nsg17
S'ADRP            X0, #qword_FFFFFFC000E458A0@PAGE'
p130
sg19
S'a03400f0'
p131
sg21
Vadrp x0, #0x697000
p132
sg5
L18446743798839700624L
sg6
Nsg23
S'ADRP'
p133
sg25
S'0xffffffc0007aec90L'
p134
sg27
Nsba(ibclass
BInstr
p135
(dp136
g2
Nsg17
S'LDR             X0, [X0,#qword_FFFFFFC000E458A0@PAGEOFF]'
p137
sg19
S'005044f9'
p138
sg21
Vldr x0, [x0, #0x8a0]
p139
sg5
L18446743798839700628L
sg6
Nsg23
S'LDR'
p140
sg25
S'0xffffffc0007aec94L'
p141
sg27
Nsba(ibclass
BInstr
p142
(dp143
g2
Nsg17
S'LDR             W0, [X0]'
p144
sg19
S'000040b9'
p145
sg21
Vldr w0, [x0]
p146
sg5
L18446743798839700632L
sg6
Nsg23
S'LDR'
p147
sg25
S'0xffffffc0007aec98L'
p148
sg27
Nsba(ibclass
BInstr
p149
(dp150
g2
Nsg17
S'TBZ             W0, #0, loc_FFFFFFC0007AED1C'
p151
sg19
S'00040036'
p152
sg21
Vtbz w0, #0, #0x80
p153
sg5
L18446743798839700636L
sg6
Nsg23
S'TBZ'
p154
sg25
S'0xffffffc0007aec9cL'
p155
sg27
Nsbasg63
(lp156
S'ADRP reg, #func@PAGE'
p157
aS'LDR reg, mem'
p158
aS'LDR reg, mem'
p159
aS'TBZ reg, #0, func'
p160
asg71
Nsg5
S'0xffffffc0007aec90L'
p161
sg73
(lp162
S'0xffffffc0007aec6cL'
p163
aS'0xffffffc0007aec84L'
p164
asg6
Nsg75
(lp165
S'0xffffffc0007aeca0L'
p166
aS'0xffffffc0007aed1cL'
p167
asg79
Nsg80
Nsg81
S'2de94c9e326481f2f467f11acce8dcc9'
p168
sg83
S'f9f7225e2bae36aff04e5d93bafe5e1d'
p169
sg85
(lp170
g133
ag140
ag147
ag154
asg87
Nsba(ibclass
BBasicBlock
p171
(dp172
g12
Nsg13
(lp173
(ibclass
BInstr
p174
(dp175
g2
Nsg17
S'ADRP            X0, #qword_FFFFFFC000E43D48@PAGE'
p176
sg19
S'a03400b0'
p177
sg21
Vadrp x0, #0x695000
p178
sg5
L18446743798839700640L
sg6
Nsg23
S'ADRP'
p179
sg25
S'0xffffffc0007aeca0L'
p180
sg27
Nsba(ibclass
BInstr
p181
(dp182
g2
Nsg17
S'LDR             X0, [X0,#qword_FFFFFFC000E43D48@PAGEOFF]'
p183
sg19
S'00a446f9'
p184
sg21
Vldr x0, [x0, #0xd48]
p185
sg5
L18446743798839700644L
sg6
Nsg23
S'LDR'
p186
sg25
S'0xffffffc0007aeca4L'
p187
sg27
Nsba(ibclass
BInstr
p188
(dp189
g2
Nsg17
S'MOV             W20, #0xFFFFFFEA'
p190
sg19
S'b4028012'
p191
sg21
Vmovn w20, #0x15
p192
sg5
L18446743798839700648L
sg6
Nsg23
S'MOV'
p193
sg25
S'0xffffffc0007aeca8L'
p194
sg27
Nsba(ibclass
BInstr
p195
(dp196
g2
Nsg17
S'LDR             W0, [X0]'
p197
sg19
S'000040b9'
p198
sg21
Vldr w0, [x0]
p199
sg5
L18446743798839700652L
sg6
Nsg23
S'LDR'
p200
sg25
S'0xffffffc0007aecacL'
p201
sg27
Nsba(ibclass
BInstr
p202
(dp203
g2
Nsg17
S'CBNZ            W0, loc_FFFFFFC0007AED20'
p204
sg19
S'80030035'
p205
sg21
Vcbnz w0, #0x70
p206
sg5
L18446743798839700656L
sg6
Nsg23
S'CBNZ'
p207
sg25
S'0xffffffc0007aecb0L'
p208
sg27
Nsbasg63
(lp209
S'ADRP reg, #func@PAGE'
p210
aS'LDR reg, mem'
p211
aS'MOV reg0, #0xFFFFFFEA'
p212
aS'LDR reg, mem'
p213
aS'CBNZ reg, func'
p214
asg71
Nsg5
S'0xffffffc0007aeca0L'
p215
sg73
(lp216
S'0xffffffc0007aec90L'
p217
asg6
Nsg75
(lp218
S'0xffffffc0007aecb4L'
p219
aS'0xffffffc0007aed20L'
p220
asg79
Nsg80
Nsg81
S'd80cc6d531f24a5b2d60307977d236c7'
p221
sg83
S'aeb30c42a5eaa4a016930da3733155ca'
p222
sg85
(lp223
g179
ag186
ag193
ag200
ag207
asg87
Nsba(ibclass
BBasicBlock
p224
(dp225
g12
Nsg13
(lp226
(ibclass
BInstr
p227
(dp228
g2
Nsg17
S'ADRP            X0, #unk_FFFFFFC0013BAEA3@PAGE'
p229
sg19
S'60600090'
p230
sg21
Vadrp x0, #0xc0c000
p231
sg5
L18446743798839700660L
sg6
Nsg23
S'ADRP'
p232
sg25
S'0xffffffc0007aecb4L'
p233
sg27
Nsba(ibclass
BInstr
p234
(dp235
g2
Nsg17
S'ADRP            X1, #(aQcomMdssDsi_17+0x1B)@PAGE; "err"'
p236
sg19
S'015c00b0'
p237
sg21
Vadrp x1, #0xb81000
p238
sg5
L18446743798839700664L
sg6
Nsg23
S'ADRP'
p239
sg25
S'0xffffffc0007aecb8L'
p240
sg27
Nsba(ibclass
BInstr
p241
(dp242
g2
Nsg17
S'ADD             X1, X1, #(aQcomMdssDsi_17+0x1B)@PAGEOFF; "err"'
p243
sg19
S'21800091'
p244
sg21
Vadd x1, x1, #0x20
p245
sg5
L18446743798839700668L
sg6
Nsg23
S'ADD'
p246
sg25
S'0xffffffc0007aecbcL'
p247
sg27
Nsba(ibclass
BInstr
p248
(dp249
g2
Nsg17
S'MOV             X3, X19'
p250
sg19
S'e30313aa'
p251
sg21
Vmov x3, x19
p252
sg5
L18446743798839700672L
sg6
Nsg23
S'MOV'
p253
sg25
S'0xffffffc0007aecc0L'
p254
sg27
Nsba(ibclass
BInstr
p255
(dp256
g2
Nsg17
S'ADD             X0, X0, #unk_FFFFFFC0013BAEA3@PAGEOFF'
p257
sg19
S'008c3a91'
p258
sg21
Vadd x0, x0, #0xea3
p259
sg5
L18446743798839700676L
sg6
Nsg23
S'ADD'
p260
sg25
S'0xffffffc0007aecc4L'
p261
sg27
Nsba(ibclass
BInstr
p262
(dp263
g2
Nsg17
S'BL              printk'
p264
sg19
S'68ff1994'
p265
sg21
Vbl #0x67fda0
p266
sg5
L18446743798839700680L
sg6
Nsg23
S'BL'
p267
sg25
S'0xffffffc0007aecc8L'
p268
sg27
Nsba(ibclass
BInstr
p269
(dp270
g2
Nsg17
S'B               loc_FFFFFFC0007AED20'
p271
sg19
S'15000014'
p272
sg21
Vb #0x54
p273
sg5
L18446743798839700684L
sg6
Nsg23
S'B'
p274
sg25
S'0xffffffc0007aecccL'
p275
sg27
Nsbasg63
(lp276
S'ADRP reg, #func@PAGE'
p277
aS'ADRP reg, #(aQcomMdssDsi_17+0x1B)@PAGE'
p278
aS'ADD reg, reg, #(aQcomMdssDsi_17+0x1B)@PAGEOFF'
p279
aS'MOV reg, reg9'
p280
aS'ADD reg, reg, #func@PAGEOFF'
p281
aS'BL printk'
p282
aS'B func'
p283
asg71
Nsg5
S'0xffffffc0007aecb4L'
p284
sg73
(lp285
S'0xffffffc0007aeca0L'
p286
asg6
Nsg75
(lp287
S'0xffffffc0007aed20L'
p288
asg79
Nsg80
Nsg81
S'ff7f44466e74267aa9d96fda41da35ba'
p289
sg83
S'ce8cadf5efd001b9bcf49855903a28a2'
p290
sg85
(lp291
g232
ag239
ag246
ag253
ag260
ag267
ag274
asg87
Nsba(ibclass
BBasicBlock
p292
(dp293
g12
Nsg13
(lp294
(ibclass
BInstr
p295
(dp296
g2
Nsg17
S'MOV             X0, X1'
p297
sg19
S'e00301aa'
p298
sg21
Vmov x0, x1
p299
sg5
L18446743798839700688L
sg6
Nsg23
S'MOV'
p300
sg25
S'0xffffffc0007aecd0L'
p301
sg27
Nsba(ibclass
BInstr
p302
(dp303
g2
Nsg17
S'ADRP            X1, #aMsm_vidc_drive@PAGE; "msm_vidc_driver"'
p304
sg19
S'61600090'
p305
sg21
Vadrp x1, #0xc0c000
p306
sg5
L18446743798839700692L
sg6
Nsg23
S'ADRP'
p307
sg25
S'0xffffffc0007aecd4L'
p308
sg27
Nsba(ibclass
BInstr
p309
(dp310
g2
Nsg17
S'ADD             X1, X1, #aMsm_vidc_drive@PAGEOFF; "msm_vidc_driver"'
p311
sg19
S'21603b91'
p312
sg21
Vadd x1, x1, #0xed8
p313
sg5
L18446743798839700696L
sg6
Nsg23
S'ADD'
p314
sg25
S'0xffffffc0007aecd8L'
p315
sg27
Nsba(ibclass
BInstr
p316
(dp317
g2
Nsg17
S'MOV             X2, #0x10'
p318
sg19
S'020280d2'
p319
sg21
Vmovz x2, #0x10
p320
sg5
L18446743798839700700L
sg6
Nsg23
S'MOV'
p321
sg25
S'0xffffffc0007aecdcL'
p322
sg27
Nsba(ibclass
BInstr
p323
(dp324
g2
Nsg17
S'BL              strlcpy'
p325
sg19
S'54e8f197'
p326
sg21
Vbl #0xffffffffffc7a150
p327
sg5
L18446743798839700704L
sg6
Nsg23
S'BL'
p328
sg25
S'0xffffffc0007aece0L'
p329
sg27
Nsba(ibclass
BInstr
p330
(dp331
g2
Nsg17
S'ADRP            X1, #aMsm_venc_8974@PAGE; "msm_venc_8974"'
p332
sg19
S'616000d0'
p333
sg21
Vadrp x1, #0xc0e000
p334
sg5
L18446743798839700708L
sg6
Nsg23
S'ADRP'
p335
sg25
S'0xffffffc0007aece4L'
p336
sg27
Nsba(ibclass
BInstr
p337
(dp338
g2
Nsg17
S'ADD             X0, X19, #0x10'
p339
sg19
S'60420091'
p340
sg21
Vadd x0, x19, #0x10
p341
sg5
L18446743798839700712L
sg6
Nsg23
S'ADD'
p342
sg25
S'0xffffffc0007aece8L'
p343
sg27
Nsba(ibclass
BInstr
p344
(dp345
g2
Nsg17
S'ADD             X1, X1, #aMsm_venc_8974@PAGEOFF; "msm_venc_8974"'
p346
sg19
S'21980791'
p347
sg21
Vadd x1, x1, #0x1e6
p348
sg5
L18446743798839700716L
sg6
Nsg23
S'ADD'
p349
sg25
S'0xffffffc0007aececL'
p350
sg27
Nsba(ibclass
BInstr
p351
(dp352
g2
Nsg17
S'MOV             X2, #0x20'
p353
sg19
S'020480d2'
p354
sg21
Vmovz x2, #0x20
p355
sg5
L18446743798839700720L
sg6
Nsg23
S'MOV'
p356
sg25
S'0xffffffc0007aecf0L'
p357
sg27
Nsba(ibclass
BInstr
p358
(dp359
g2
Nsg17
S'BL              strlcpy'
p360
sg19
S'4fe8f197'
p361
sg21
Vbl #0xffffffffffc7a13c
p362
sg5
L18446743798839700724L
sg6
Nsg23
S'BL'
p363
sg25
S'0xffffffc0007aecf4L'
p364
sg27
Nsba(ibclass
BInstr
p365
(dp366
g2
Nsg17
S'MOV             W0, #1'
p367
sg19
S'20008052'
p368
sg21
Vmovz w0, #0x1
p369
sg5
L18446743798839700728L
sg6
Nsg23
S'MOV'
p370
sg25
S'0xffffffc0007aecf8L'
p371
sg27
Nsba(ibclass
BInstr
p372
(dp373
g2
Nsg17
S'STR             W0, [X19,#0x50]'
p374
sg19
S'605200b9'
p375
sg21
Vstr w0, [x19, #0x50]
p376
sg5
L18446743798839700732L
sg6
Nsg23
S'STR'
p377
sg25
S'0xffffffc0007aecfcL'
p378
sg27
Nsba(ibclass
BInstr
p379
(dp380
g2
Nsg17
S'MOV             W0, #0x3000'
p381
sg19
S'00008652'
p382
sg21
Vmovz w0, #0x3000
p383
sg5
L18446743798839700736L
sg6
Nsg23
S'MOV'
p384
sg25
S'0xffffffc0007aed00L'
p385
sg27
Nsba(ibclass
BInstr
p386
(dp387
g2
Nsg17
S'MOVK            W0, #0x400,LSL#16'
p388
sg19
S'0080a072'
p389
sg21
Vmovk w0, #0x400, lsl #16
p390
sg5
L18446743798839700740L
sg6
Nsg23
S'MOVK'
p391
sg25
S'0xffffffc0007aed04L'
p392
sg27
Nsba(ibclass
BInstr
p393
(dp394
g2
Nsg17
S'STRB            W20, [X19,#0x30]'
p395
sg19
S'74c20039'
p396
sg21
Vstrb w20, [x19, #0x30]
p397
sg5
L18446743798839700744L
sg6
Nsg23
S'STR'
p398
sg25
S'0xffffffc0007aed08L'
p399
sg27
Nsba(ibclass
BInstr
p400
(dp401
g2
Nsg17
S'STR             W0, [X19,#0x54]'
p402
sg19
S'605600b9'
p403
sg21
Vstr w0, [x19, #0x54]
p404
sg5
L18446743798839700748L
sg6
Nsg23
S'STR'
p405
sg25
S'0xffffffc0007aed0cL'
p406
sg27
Nsba(ibclass
BInstr
p407
(dp408
g2
Nsg17
S'STUR            XZR, [X19,#0x5C]'
p409
sg19
S'7fc205f8'
p410
sg21
Vstur xzr, [x19, #0x5c]
p411
sg5
L18446743798839700752L
sg6
Nsg23
S'STUR'
p412
sg25
S'0xffffffc0007aed10L'
p413
sg27
Nsba(ibclass
BInstr
p414
(dp415
g2
Nsg17
S'STR             W20, [X19,#0x64]'
p416
sg19
S'746600b9'
p417
sg21
Vstr w20, [x19, #0x64]
p418
sg5
L18446743798839700756L
sg6
Nsg23
S'STR'
p419
sg25
S'0xffffffc0007aed14L'
p420
sg27
Nsba(ibclass
BInstr
p421
(dp422
g2
Nsg17
S'B               loc_FFFFFFC0007AED20'
p423
sg19
S'02000014'
p424
sg21
Vb #8
p425
sg5
L18446743798839700760L
sg6
Nsg23
g274
sg25
S'0xffffffc0007aed18L'
p426
sg27
Nsbasg63
(lp427
S'MOV reg, reg'
p428
aS'ADRP reg, #aMsm_vidc_drive@PAGE'
p429
aS'ADD reg, reg, #aMsm_vidc_drive@PAGEOFF'
p430
aS'MOV reg, #0x10'
p431
aS'BL strlcpy'
p432
aS'ADRP reg, #aMsm_venc_8974@PAGE'
p433
aS'ADD reg, reg9, #0x10'
p434
aS'ADD reg, reg, #aMsm_venc_8974@PAGEOFF'
p435
aS'MOV reg, #0x20'
p436
aS'BL strlcpy'
p437
aS'MOV reg, #1'
p438
aS'STR reg, mem'
p439
aS'MOV reg, #0x3000'
p440
aS'MOVK reg, #0x400,LSL#16'
p441
aS'STRB reg0, mem'
p442
aS'STR reg, mem'
p443
aS'STUR XZR, mem'
p444
aS'STR reg0, mem'
p445
aS'B func'
p446
asg71
Nsg5
S'0xffffffc0007aecd0L'
p447
sg73
(lp448
S'0xffffffc0007aec84L'
p449
asg6
Nsg75
(lp450
S'0xffffffc0007aed20L'
p451
asg79
Nsg80
Nsg81
S'1328613c64ece17676fbf3ecc22fd90e'
p452
sg83
S'6fb06159df287fd80393bd77a763d9a2'
p453
sg85
(lp454
g300
ag307
ag314
ag321
ag328
ag335
ag342
ag349
ag356
ag363
ag370
ag377
ag384
ag391
ag398
ag405
ag412
ag419
ag274
asg87
Nsba(ibclass
BBasicBlock
p455
(dp456
g12
Nsg13
(lp457
(ibclass
BInstr
p458
(dp459
g2
Nsg17
S'MOV             W20, #0xFFFFFFEA'
p460
sg19
S'b4028012'
p461
sg21
Vmovn w20, #0x15
p462
sg5
L18446743798839700764L
sg6
Nsg23
S'MOV'
p463
sg25
S'0xffffffc0007aed1cL'
p464
sg27
Nsbasg63
(lp465
S'MOV reg0, #0xFFFFFFEA'
p466
asg71
Nsg5
S'0xffffffc0007aed1cL'
p467
sg73
(lp468
S'0xffffffc0007aec90L'
p469
asg6
Nsg75
(lp470
S'0xffffffc0007aed20L'
p471
asg79
Nsg80
Nsg81
S'17b32100aef1fc19670be7fd58bc85df'
p472
sg83
S'df9685dff01bfe08ae98ed966d387ffe'
p473
sg85
(lp474
g463
asg87
Nsba(ibclass
BBasicBlock
p475
(dp476
g12
Nsg13
(lp477
(ibclass
BInstr
p478
(dp479
g2
Nsg17
S'MOV             W0, W20'
p480
sg19
S'e003142a'
p481
sg21
Vmov w0, w20
p482
sg5
L18446743798839700768L
sg6
Nsg23
S'MOV'
p483
sg25
S'0xffffffc0007aed20L'
p484
sg27
Nsba(ibclass
BInstr
p485
(dp486
g2
Nsg17
S'LDP             X19, X20, [SP,#0x10+var_s0]'
p487
sg19
S'f35341a9'
p488
sg21
Vldp x19, x20, [sp, #0x10]
p489
sg5
L18446743798839700772L
sg6
Nsg23
S'LDP'
p490
sg25
S'0xffffffc0007aed24L'
p491
sg27
Nsba(ibclass
BInstr
p492
(dp493
g2
Nsg17
S'LDP             X29, X30, [SP+0x10+var_10],#0x20'
p494
sg19
S'fd7bc2a8'
p495
sg21
Vldp x29, x30, [sp], #0x20
p496
sg5
L18446743798839700776L
sg6
Nsg23
S'LDP'
p497
sg25
S'0xffffffc0007aed28L'
p498
sg27
Nsba(ibclass
BInstr
p499
(dp500
g2
Nsg17
S'RET'
p501
sg19
S'c0035fd6'
p502
sg21
Vret 
p503
sg5
L18446743798839700780L
sg6
Nsg23
S'RET'
p504
sg25
S'0xffffffc0007aed2cL'
p505
sg27
Nsbasg63
(lp506
S'MOV reg, reg0'
p507
aS'LDP reg9, reg0, mem'
p508
aS'LDP reg9, reg0, mem,#0x20'
p509
ag501
asg71
Nsg5
S'0xffffffc0007aed20L'
p510
sg73
(lp511
S'0xffffffc0007aeca0L'
p512
aS'0xffffffc0007aecb4L'
p513
aS'0xffffffc0007aecd0L'
p514
aS'0xffffffc0007aed1cL'
p515
asg6
Nsg75
(lp516
sg79
Nsg80
Nsg81
S'71ab966c7236e9c8ca7660e140718091'
p517
sg83
S'a49a1cf691fb3a5071861ee16c9640a3'
p518
sg85
(lp519
g483
ag490
ag497
ag504
asg87
Nsbasb.