(ibclass
BFunc
p0
(dp1
S'hash'
p2
NsS'name'
p3
S'msm_vidc_smem_get_client'
p4
sS'start_address'
p5
L18446743798839660620L
sS'flag'
p6
NsS'program'
p7
NsS'bbs'
p8
(lp9
(ibclass
BBasicBlock
p10
(dp11
S'function'
p12
NsS'binstrs'
p13
(lp14
(ibclass
BInstr
p15
(dp16
g2
NsS'disasm'
p17
S'STP             X29, X30, [SP,#-0x10+var_10]!'
p18
sS'bytes'
p19
S'fd7bbea9'
p20
sS'disasm_striped'
p21
Vstp x29, x30, [sp, #-0x20]!
p22
sg5
L18446743798839660620L
sg6
NsS'mnem'
p23
S'STP'
p24
sS'address'
p25
S'0xffffffc0007a504cL'
p26
sS'basicblock'
p27
Nsba(ibclass
BInstr
p28
(dp29
g2
Nsg17
S'MOV             X29, SP'
p30
sg19
S'fd030091'
p31
sg21
Vmov x29, sp
p32
sg5
L18446743798839660624L
sg6
Nsg23
S'MOV'
p33
sg25
S'0xffffffc0007a5050L'
p34
sg27
Nsba(ibclass
BInstr
p35
(dp36
g2
Nsg17
S'STR             X19, [SP,#0x10+var_s0]'
p37
sg19
S'f30b00f9'
p38
sg21
Vstr x19, [sp, #0x10]
p39
sg5
L18446743798839660628L
sg6
Nsg23
S'STR'
p40
sg25
S'0xffffffc0007a5054L'
p41
sg27
Nsba(ibclass
BInstr
p42
(dp43
g2
Nsg17
S'MOV             X3, X0'
p44
sg19
S'e30300aa'
p45
sg21
Vmov x3, x0
p46
sg5
L18446743798839660632L
sg6
Nsg23
S'MOV'
p47
sg25
S'0xffffffc0007a5058L'
p48
sg27
Nsba(ibclass
BInstr
p49
(dp50
g2
Nsg17
S'CBZ             X0, loc_FFFFFFC0007A5068'
p51
sg19
S'600000b4'
p52
sg21
Vcbz x0, #0xc
p53
sg5
L18446743798839660636L
sg6
Nsg23
S'CBZ'
p54
sg25
S'0xffffffc0007a505cL'
p55
sg27
NsbasS'disasm_list'
p56
(lp57
S'STP reg9, reg0, mem!'
p58
aS'MOV reg9, SP'
p59
aS'STR reg9, mem'
p60
aS'MOV reg, reg'
p61
aS'CBZ reg, func'
p62
asS'end_address'
p63
Nsg5
S'0xffffffc0007a504cL'
p64
sS'preds'
p65
(lp66
sg6
NsS'succs'
p67
(lp68
S'0xffffffc0007a5060L'
p69
aS'0xffffffc0007a5068L'
p70
asS'hash_v3'
p71
NsS'flag_v2'
p72
NsS'hash_v1'
p73
S'2dfe4927ca7b220a904ca8ecf0c5cca7'
p74
sS'hash_v2'
p75
S'331d09b5b9dec638878265cbacd1e2f9'
p76
sS'mnen_list'
p77
(lp78
g24
ag33
ag40
ag47
ag54
asS'neighbour_disasm_list'
p79
Nsba(ibclass
BBasicBlock
p80
(dp81
g12
Nsg13
(lp82
(ibclass
BInstr
p83
(dp84
g2
Nsg17
S'LDR             X19, [X0,#0x9B8]'
p85
sg19
S'13dc44f9'
p86
sg21
Vldr x19, [x0, #0x9b8]
p87
sg5
L18446743798839660640L
sg6
Nsg23
S'LDR'
p88
sg25
S'0xffffffc0007a5060L'
p89
sg27
Nsba(ibclass
BInstr
p90
(dp91
g2
Nsg17
S'CBNZ            X19, loc_FFFFFFC0007A50B4'
p92
sg19
S'930200b5'
p93
sg21
Vcbnz x19, #0x50
p94
sg5
L18446743798839660644L
sg6
Nsg23
S'CBNZ'
p95
sg25
S'0xffffffc0007a5064L'
p96
sg27
Nsbasg56
(lp97
S'LDR reg9, mem'
p98
aS'CBNZ reg9, func'
p99
asg63
Nsg5
S'0xffffffc0007a5060L'
p100
sg65
(lp101
S'0xffffffc0007a504cL'
p102
asg6
Nsg67
(lp103
S'0xffffffc0007a5068L'
p104
aS'0xffffffc0007a50b4L'
p105
asg71
Nsg72
Nsg73
S'5522ad3e8b25e3a8f9013bb9571723e7'
p106
sg75
S'debc7bab3e76a551d8830f0b206e7edd'
p107
sg77
(lp108
g88
ag95
asg79
Nsba(ibclass
BBasicBlock
p109
(dp110
g12
Nsg13
(lp111
(ibclass
BInstr
p112
(dp113
g2
Nsg17
S'ADRP            X0, #qword_FFFFFFC000E458A0@PAGE'
p114
sg19
S'00350090'
p115
sg21
Vadrp x0, #0x6a0000
p116
sg5
L18446743798839660648L
sg6
Nsg23
S'ADRP'
p117
sg25
S'0xffffffc0007a5068L'
p118
sg27
Nsba(ibclass
BInstr
p119
(dp120
g2
Nsg17
S'LDR             X0, [X0,#qword_FFFFFFC000E458A0@PAGEOFF]'
p121
sg19
S'005044f9'
p122
sg21
Vldr x0, [x0, #0x8a0]
p123
sg5
L18446743798839660652L
sg6
Nsg23
S'LDR'
p124
sg25
S'0xffffffc0007a506cL'
p125
sg27
Nsba(ibclass
BInstr
p126
(dp127
g2
Nsg17
S'LDR             W0, [X0]'
p128
sg19
S'000040b9'
p129
sg21
Vldr w0, [x0]
p130
sg5
L18446743798839660656L
sg6
Nsg23
S'LDR'
p131
sg25
S'0xffffffc0007a5070L'
p132
sg27
Nsba(ibclass
BInstr
p133
(dp134
g2
Nsg17
S'TBZ             W0, #0, loc_FFFFFFC0007A50B0'
p135
sg19
S'e0010036'
p136
sg21
Vtbz w0, #0, #0x3c
p137
sg5
L18446743798839660660L
sg6
Nsg23
S'TBZ'
p138
sg25
S'0xffffffc0007a5074L'
p139
sg27
Nsbasg56
(lp140
S'ADRP reg, #func@PAGE'
p141
aS'LDR reg, mem'
p142
aS'LDR reg, mem'
p143
aS'TBZ reg, #0, func'
p144
asg63
Nsg5
S'0xffffffc0007a5068L'
p145
sg65
(lp146
S'0xffffffc0007a504cL'
p147
aS'0xffffffc0007a5060L'
p148
asg6
Nsg67
(lp149
S'0xffffffc0007a5078L'
p150
aS'0xffffffc0007a50b0L'
p151
asg71
Nsg72
Nsg73
S'2de94c9e326481f2f467f11acce8dcc9'
p152
sg75
S'f9f7225e2bae36aff04e5d93bafe5e1d'
p153
sg77
(lp154
g117
ag124
ag131
ag138
asg79
Nsba(ibclass
BBasicBlock
p155
(dp156
g12
Nsg13
(lp157
(ibclass
BInstr
p158
(dp159
g2
Nsg17
S'ADRP            X0, #qword_FFFFFFC000E43D48@PAGE'
p160
sg19
S'e03400d0'
p161
sg21
Vadrp x0, #0x69e000
p162
sg5
L18446743798839660664L
sg6
Nsg23
S'ADRP'
p163
sg25
S'0xffffffc0007a5078L'
p164
sg27
Nsba(ibclass
BInstr
p165
(dp166
g2
Nsg17
S'LDR             X0, [X0,#qword_FFFFFFC000E43D48@PAGEOFF]'
p167
sg19
S'00a446f9'
p168
sg21
Vldr x0, [x0, #0xd48]
p169
sg5
L18446743798839660668L
sg6
Nsg23
S'LDR'
p170
sg25
S'0xffffffc0007a507cL'
p171
sg27
Nsba(ibclass
BInstr
p172
(dp173
g2
Nsg17
S'MOV             X19, #0'
p174
sg19
S'130080d2'
p175
sg21
Vmovz x19, #0
p176
sg5
L18446743798839660672L
sg6
Nsg23
S'MOV'
p177
sg25
S'0xffffffc0007a5080L'
p178
sg27
Nsba(ibclass
BInstr
p179
(dp180
g2
Nsg17
S'LDR             W0, [X0]'
p181
sg19
S'000040b9'
p182
sg21
Vldr w0, [x0]
p183
sg5
L18446743798839660676L
sg6
Nsg23
S'LDR'
p184
sg25
S'0xffffffc0007a5084L'
p185
sg27
Nsba(ibclass
BInstr
p186
(dp187
g2
Nsg17
S'CBNZ            W0, loc_FFFFFFC0007A50B4'
p188
sg19
S'60010035'
p189
sg21
Vcbnz w0, #0x2c
p190
sg5
L18446743798839660680L
sg6
Nsg23
S'CBNZ'
p191
sg25
S'0xffffffc0007a5088L'
p192
sg27
Nsbasg56
(lp193
S'ADRP reg, #func@PAGE'
p194
aS'LDR reg, mem'
p195
aS'MOV reg9, #0'
p196
aS'LDR reg, mem'
p197
aS'CBNZ reg, func'
p198
asg63
Nsg5
S'0xffffffc0007a5078L'
p199
sg65
(lp200
S'0xffffffc0007a5068L'
p201
asg6
Nsg67
(lp202
S'0xffffffc0007a508cL'
p203
aS'0xffffffc0007a50b4L'
p204
asg71
Nsg72
Nsg73
S'd80cc6d531f24a5b2d60307977d236c7'
p205
sg75
S'ea76a59f29ab8e93dd3b835600e7dc93'
p206
sg77
(lp207
g163
ag170
ag177
ag184
ag191
asg79
Nsba(ibclass
BBasicBlock
p208
(dp209
g12
Nsg13
(lp210
(ibclass
BInstr
p211
(dp212
g2
Nsg17
S'ADRP            X2, #__func__.29884@PAGE; "map_and_register_buf"'
p213
sg19
S'22450090'
p214
sg21
Vadrp x2, #0x8a4000
p215
sg5
L18446743798839660684L
sg6
Nsg23
S'ADRP'
p216
sg25
S'0xffffffc0007a508cL'
p217
sg27
Nsba(ibclass
BInstr
p218
(dp219
g2
Nsg17
S'ADRP            X0, #unk_FFFFFFC0013B99C6@PAGE'
p220
sg19
S'a0600090'
p221
sg21
Vadrp x0, #0xc14000
p222
sg5
L18446743798839660688L
sg6
Nsg23
S'ADRP'
p223
sg25
S'0xffffffc0007a5090L'
p224
sg27
Nsba(ibclass
BInstr
p225
(dp226
g2
Nsg17
S'ADRP            X1, #(aQcomMdssDsi_17+0x1B)@PAGE; "err"'
p227
sg19
S'415c00d0'
p228
sg21
Vadrp x1, #0xb8a000
p229
sg5
L18446743798839660692L
sg6
Nsg23
S'ADRP'
p230
sg25
S'0xffffffc0007a5094L'
p231
sg27
Nsba(ibclass
BInstr
p232
(dp233
g2
Nsg17
S'ADD             X2, X2, #__func__.29884@PAGEOFF; "map_and_register_buf"'
p234
sg19
S'42a03391'
p235
sg21
Vadd x2, x2, #0xce8
p236
sg5
L18446743798839660696L
sg6
Nsg23
S'ADD'
p237
sg25
S'0xffffffc0007a5098L'
p238
sg27
Nsba(ibclass
BInstr
p239
(dp240
g2
Nsg17
S'ADD             X1, X1, #(aQcomMdssDsi_17+0x1B)@PAGEOFF; "err"'
p241
sg19
S'21800091'
p242
sg21
Vadd x1, x1, #0x20
p243
sg5
L18446743798839660700L
sg6
Nsg23
S'ADD'
p244
sg25
S'0xffffffc0007a509cL'
p245
sg27
Nsba(ibclass
BInstr
p246
(dp247
g2
Nsg17
S'ADD             X2, X2, #0x158'
p248
sg19
S'42600591'
p249
sg21
Vadd x2, x2, #0x158
p250
sg5
L18446743798839660704L
sg6
Nsg23
S'ADD'
p251
sg25
S'0xffffffc0007a50a0L'
p252
sg27
Nsba(ibclass
BInstr
p253
(dp254
g2
Nsg17
S'ADD             X0, X0, #unk_FFFFFFC0013B99C6@PAGEOFF'
p255
sg19
S'00182791'
p256
sg21
Vadd x0, x0, #0x9c6
p257
sg5
L18446743798839660708L
sg6
Nsg23
S'ADD'
p258
sg25
S'0xffffffc0007a50a4L'
p259
sg27
Nsba(ibclass
BInstr
p260
(dp261
g2
Nsg17
S'BL              printk'
p262
sg19
S'70261a94'
p263
sg21
Vbl #0x6899c0
p264
sg5
L18446743798839660712L
sg6
Nsg23
S'BL'
p265
sg25
S'0xffffffc0007a50a8L'
p266
sg27
Nsba(ibclass
BInstr
p267
(dp268
g2
Nsg17
S'B               loc_FFFFFFC0007A50B4'
p269
sg19
S'02000014'
p270
sg21
Vb #8
p271
sg5
L18446743798839660716L
sg6
Nsg23
S'B'
p272
sg25
S'0xffffffc0007a50acL'
p273
sg27
Nsbasg56
(lp274
S'ADRP reg, #__func__.29884@PAGE'
p275
aS'ADRP reg, #func@PAGE'
p276
aS'ADRP reg, #(aQcomMdssDsi_17+0x1B)@PAGE'
p277
aS'ADD reg, reg, #__func__.29884@PAGEOFF'
p278
aS'ADD reg, reg, #(aQcomMdssDsi_17+0x1B)@PAGEOFF'
p279
aS'ADD reg, reg, #0x158'
p280
aS'ADD reg, reg, #func@PAGEOFF'
p281
aS'BL printk'
p282
aS'B func'
p283
asg63
Nsg5
S'0xffffffc0007a508cL'
p284
sg65
(lp285
S'0xffffffc0007a5078L'
p286
asg6
Nsg67
(lp287
S'0xffffffc0007a50b4L'
p288
asg71
Nsg72
Nsg73
S'8d01fe9050abe03509e35279925e126f'
p289
sg75
S'01ba19883281add6930d64219f35ca07'
p290
sg77
(lp291
g216
ag223
ag230
ag237
ag244
ag251
ag258
ag265
ag272
asg79
Nsba(ibclass
BBasicBlock
p292
(dp293
g12
Nsg13
(lp294
(ibclass
BInstr
p295
(dp296
g2
Nsg17
S'MOV             X19, #0'
p297
sg19
S'130080d2'
p298
sg21
Vmovz x19, #0
p299
sg5
L18446743798839660720L
sg6
Nsg23
S'MOV'
p300
sg25
S'0xffffffc0007a50b0L'
p301
sg27
Nsbasg56
(lp302
S'MOV reg9, #0'
p303
asg63
Nsg5
S'0xffffffc0007a50b0L'
p304
sg65
(lp305
S'0xffffffc0007a5068L'
p306
asg6
Nsg67
(lp307
S'0xffffffc0007a50b4L'
p308
asg71
Nsg72
Nsg73
S'17b32100aef1fc19670be7fd58bc85df'
p309
sg75
S'72f573c87f6f3c56e29191a101e77110'
p310
sg77
(lp311
g300
asg79
Nsba(ibclass
BBasicBlock
p312
(dp313
g12
Nsg13
(lp314
(ibclass
BInstr
p315
(dp316
g2
Nsg17
S'MOV             X0, X19'
p317
sg19
S'e00313aa'
p318
sg21
Vmov x0, x19
p319
sg5
L18446743798839660724L
sg6
Nsg23
S'MOV'
p320
sg25
S'0xffffffc0007a50b4L'
p321
sg27
Nsba(ibclass
BInstr
p322
(dp323
g2
Nsg17
S'LDR             X19, [SP,#0x10+var_s0]'
p324
sg19
S'f30b40f9'
p325
sg21
Vldr x19, [sp, #0x10]
p326
sg5
L18446743798839660728L
sg6
Nsg23
S'LDR'
p327
sg25
S'0xffffffc0007a50b8L'
p328
sg27
Nsba(ibclass
BInstr
p329
(dp330
g2
Nsg17
S'LDP             X29, X30, [SP+0x10+var_10],#0x20'
p331
sg19
S'fd7bc2a8'
p332
sg21
Vldp x29, x30, [sp], #0x20
p333
sg5
L18446743798839660732L
sg6
Nsg23
S'LDP'
p334
sg25
S'0xffffffc0007a50bcL'
p335
sg27
Nsba(ibclass
BInstr
p336
(dp337
g2
Nsg17
S'RET'
p338
sg19
S'c0035fd6'
p339
sg21
Vret 
p340
sg5
L18446743798839660736L
sg6
Nsg23
S'RET'
p341
sg25
S'0xffffffc0007a50c0L'
p342
sg27
Nsbasg56
(lp343
S'MOV reg, reg9'
p344
aS'LDR reg9, mem'
p345
aS'LDP reg9, reg0, mem,#0x20'
p346
ag338
asg63
Nsg5
S'0xffffffc0007a50b4L'
p347
sg65
(lp348
S'0xffffffc0007a5060L'
p349
aS'0xffffffc0007a5078L'
p350
aS'0xffffffc0007a508cL'
p351
aS'0xffffffc0007a50b0L'
p352
asg6
Nsg67
(lp353
sg71
Nsg72
Nsg73
S'700b6007ea89efb2d19f65eecdfbdc66'
p354
sg75
S'2540ec61573c55ff75133ef1ef4cbd07'
p355
sg77
(lp356
g320
ag327
ag334
ag341
asg79
Nsbasb.