(ibclass
BFunc
p0
(dp1
S'hash'
p2
NsS'name'
p3
S'msm_isp_release_stats_stream'
p4
sS'start_address'
p5
L18446743798840043372L
sS'flag'
p6
NsS'program'
p7
NsS'bbs'
p8
(lp9
(ibclass
BBasicBlock
p10
(dp11
S'function'
p12
NsS'binstrs'
p13
(lp14
(ibclass
BInstr
p15
(dp16
g2
NsS'disasm'
p17
S'STP             X29, X30, [SP,#-0x10+var_60]!'
p18
sS'bytes'
p19
S'fd7bb9a9'
p20
sS'disasm_striped'
p21
Vstp x29, x30, [sp, #-0x70]!
p22
sg5
L18446743798840043372L
sg6
NsS'mnem'
p23
S'STP'
p24
sS'address'
p25
S'0xffffffc00080276cL'
p26
sS'basicblock'
p27
Nsba(ibclass
BInstr
p28
(dp29
g2
Nsg17
S'MOV             X29, SP'
p30
sg19
S'fd030091'
p31
sg21
Vmov x29, sp
p32
sg5
L18446743798840043376L
sg6
Nsg23
S'MOV'
p33
sg25
S'0xffffffc000802770L'
p34
sg27
Nsba(ibclass
BInstr
p35
(dp36
g2
Nsg17
S'STP             X19, X20, [SP,#0x60+var_50]'
p37
sg19
S'f35301a9'
p38
sg21
Vstp x19, x20, [sp, #0x10]
p39
sg5
L18446743798840043380L
sg6
Nsg23
S'STP'
p40
sg25
S'0xffffffc000802774L'
p41
sg27
Nsba(ibclass
BInstr
p42
(dp43
g2
Nsg17
S'LDR             X3, [X0,#0x4160]'
p44
sg19
S'03b060f9'
p45
sg21
Vldr x3, [x0, #0x4160]
p46
sg5
L18446743798840043384L
sg6
Nsg23
S'LDR'
p47
sg25
S'0xffffffc000802778L'
p48
sg27
Nsba(ibclass
BInstr
p49
(dp50
g2
Nsg17
S'LDR             W1, [X1]'
p51
sg19
S'210040b9'
p52
sg21
Vldr w1, [x1]
p53
sg5
L18446743798840043388L
sg6
Nsg23
S'LDR'
p54
sg25
S'0xffffffc00080277cL'
p55
sg27
Nsba(ibclass
BInstr
p56
(dp57
g2
Nsg17
S'LDR             X3, [X3,#0x228]'
p58
sg19
S'631441f9'
p59
sg21
Vldr x3, [x3, #0x228]
p60
sg5
L18446743798840043392L
sg6
Nsg23
S'LDR'
p61
sg25
S'0xffffffc000802780L'
p62
sg27
Nsba(ibclass
BInstr
p63
(dp64
g2
Nsg17
S'AND             W2, W1, #0xFF'
p65
sg19
S'221c0012'
p66
sg21
Vand w2, w1, #0xff
p67
sg5
L18446743798840043396L
sg6
Nsg23
S'AND'
p68
sg25
S'0xffffffc000802784L'
p69
sg27
Nsba(ibclass
BInstr
p70
(dp71
g2
Nsg17
S'LDRB            W3, [X3,#0x10]'
p72
sg19
S'63404039'
p73
sg21
Vldrb w3, [x3, #0x10]
p74
sg5
L18446743798840043400L
sg6
Nsg23
S'LDR'
p75
sg25
S'0xffffffc000802788L'
p76
sg27
Nsba(ibclass
BInstr
p77
(dp78
g2
Nsg17
S'MOV             X20, X0'
p79
sg19
S'f40300aa'
p80
sg21
Vmov x20, x0
p81
sg5
L18446743798840043404L
sg6
Nsg23
S'MOV'
p82
sg25
S'0xffffffc00080278cL'
p83
sg27
Nsba(ibclass
BInstr
p84
(dp85
g2
Nsg17
S'CMP             W2, W3'
p86
sg19
S'5f00036b'
p87
sg21
Vcmp w2, w3
p88
sg5
L18446743798840043408L
sg6
Nsg23
S'CMP'
p89
sg25
S'0xffffffc000802790L'
p90
sg27
Nsba(ibclass
BInstr
p91
(dp92
g2
Nsg17
S'B.LT            loc_FFFFFFC0008027B8'
p93
sg19
S'2b010054'
p94
sg21
Vb.lt #0x24
p95
sg5
L18446743798840043412L
sg6
Nsg23
S'B'
p96
sg25
S'0xffffffc000802794L'
p97
sg27
NsbasS'disasm_list'
p98
(lp99
S'STP reg9, reg0, mem!'
p100
aS'MOV reg9, SP'
p101
aS'STP reg9, reg0, mem'
p102
aS'LDR reg, mem'
p103
aS'LDR reg, mem'
p104
aS'LDR reg, mem'
p105
aS'AND reg, reg, #0xFF'
p106
aS'LDRB reg, mem'
p107
aS'MOV reg0, reg'
p108
aS'CMP reg, reg'
p109
aS'B.LT func'
p110
asS'end_address'
p111
Nsg5
S'0xffffffc00080276cL'
p112
sS'preds'
p113
(lp114
sg6
NsS'succs'
p115
(lp116
S'0xffffffc000802798L'
p117
aS'0xffffffc0008027b8L'
p118
asS'hash_v3'
p119
NsS'flag_v2'
p120
NsS'hash_v1'
p121
S'ee7e105a3653ff6f5c7e0f55e403852e'
p122
sS'hash_v2'
p123
S'1d8eb9095f2f9dee7f8b7da23605f9be'
p124
sS'mnen_list'
p125
(lp126
g24
ag33
ag40
ag47
ag54
ag61
ag68
ag75
ag82
ag89
ag96
asS'neighbour_disasm_list'
p127
Nsba(ibclass
BBasicBlock
p128
(dp129
g12
Nsg13
(lp130
(ibclass
BInstr
p131
(dp132
g2
Nsg17
S'ADRP            X1, #__func__.27940_0@PAGE; "msm_isp_stats_cfg_ping_pong_address"'
p133
sg19
S'614200b0'
p134
sg21
Vadrp x1, #0x84d000
p135
sg5
L18446743798840043416L
sg6
Nsg23
S'ADRP'
p136
sg25
S'0xffffffc000802798L'
p137
sg27
Nsba(ibclass
BInstr
p138
(dp139
g2
Nsg17
S'ADRP            X0, #unk_FFFFFFC0013CFBF5@PAGE'
p140
sg19
S'605e00b0'
p141
sg21
Vadrp x0, #0xbcd000
p142
sg5
L18446743798840043420L
sg6
Nsg23
S'ADRP'
p143
sg25
S'0xffffffc00080279cL'
p144
sg27
Nsba(ibclass
BInstr
p145
(dp146
g2
Nsg17
S'ADD             X1, X1, #__func__.27940_0@PAGEOFF; "msm_isp_stats_cfg_ping_pong_address"'
p147
sg19
S'21602591'
p148
sg21
Vadd x1, x1, #0x958
p149
sg5
L18446743798840043424L
sg6
Nsg23
S'ADD'
p150
sg25
S'0xffffffc0008027a0L'
p151
sg27
Nsba(ibclass
BInstr
p152
(dp153
g2
Nsg17
S'ADD             X0, X0, #unk_FFFFFFC0013CFBF5@PAGEOFF'
p154
sg19
S'00d42f91'
p155
sg21
Vadd x0, x0, #0xbf5
p156
sg5
L18446743798840043428L
sg6
Nsg23
S'ADD'
p157
sg25
S'0xffffffc0008027a4L'
p158
sg27
Nsba(ibclass
BInstr
p159
(dp160
g2
Nsg17
S'ADD             X1, X1, #0x188'
p161
sg19
S'21200691'
p162
sg21
Vadd x1, x1, #0x188
p163
sg5
L18446743798840043432L
sg6
Nsg23
S'ADD'
p164
sg25
S'0xffffffc0008027a8L'
p165
sg27
Nsba(ibclass
BInstr
p166
(dp167
g2
Nsg17
S'BL              printk'
p168
sg19
S'afb01894'
p169
sg21
Vbl #0x62c2bc
p170
sg5
L18446743798840043436L
sg6
Nsg23
S'BL'
p171
sg25
S'0xffffffc0008027acL'
p172
sg27
Nsba(ibclass
BInstr
p173
(dp174
g2
Nsg17
S'MOV             W0, #0xFFFFFFEA'
p175
sg19
S'a0028012'
p176
sg21
Vmovn w0, #0x15
p177
sg5
L18446743798840043440L
sg6
Nsg23
S'MOV'
p178
sg25
S'0xffffffc0008027b0L'
p179
sg27
Nsba(ibclass
BInstr
p180
(dp181
g2
Nsg17
S'B               loc_FFFFFFC000802860'
p182
sg19
S'2b000014'
p183
sg21
Vb #0xac
p184
sg5
L18446743798840043444L
sg6
Nsg23
g96
sg25
S'0xffffffc0008027b4L'
p185
sg27
Nsbasg98
(lp186
S'ADRP reg, #__func__.27940_0@PAGE'
p187
aS'ADRP reg, #func@PAGE'
p188
aS'ADD reg, reg, #__func__.27940_0@PAGEOFF'
p189
aS'ADD reg, reg, #func@PAGEOFF'
p190
aS'ADD reg, reg, #0x188'
p191
aS'BL printk'
p192
aS'MOV reg, #0xFFFFFFEA'
p193
aS'B func'
p194
asg111
Nsg5
S'0xffffffc000802798L'
p195
sg113
(lp196
S'0xffffffc00080276cL'
p197
asg6
Nsg115
(lp198
S'0xffffffc000802860L'
p199
asg119
Nsg120
Nsg121
S'f6b4a164d3a83cb5addeace3d1f2fa3b'
p200
sg123
S'a1db977f0107c2bab9b8429fa6167b31'
p201
sg125
(lp202
g136
ag143
ag150
ag157
ag164
ag171
ag178
ag96
asg127
Nsba(ibclass
BBasicBlock
p203
(dp204
g12
Nsg13
(lp205
(ibclass
BInstr
p206
(dp207
g2
Nsg17
S'ADD             X3, X0, #5,LSL#12'
p208
sg19
S'03144091'
p209
sg21
Vadd x3, x0, #5, lsl #12
p210
sg5
L18446743798840043448L
sg6
Nsg23
S'ADD'
p211
sg25
S'0xffffffc0008027b8L'
p212
sg27
Nsba(ibclass
BInstr
p213
(dp214
g2
Nsg17
S'SBFM            X19, X2, #0, #0x1F'
p215
sg19
S'537c4093'
p216
sg21
Vsxtw x19, w2
p217
sg5
L18446743798840043452L
sg6
Nsg23
S'SBFM'
p218
sg25
S'0xffffffc0008027bcL'
p219
sg27
Nsba(ibclass
BInstr
p220
(dp221
g2
Nsg17
S'ADD             X3, X3, #0x208'
p222
sg19
S'63200891'
p223
sg21
Vadd x3, x3, #0x208
p224
sg5
L18446743798840043456L
sg6
Nsg23
S'ADD'
p225
sg25
S'0xffffffc0008027c0L'
p226
sg27
Nsba(ibclass
BInstr
p227
(dp228
g2
Nsg17
S'MOV             X4, #0x58'
p229
sg19
S'040b80d2'
p230
sg21
Vmovz x4, #0x58
p231
sg5
L18446743798840043460L
sg6
Nsg23
S'MOV'
p232
sg25
S'0xffffffc0008027c4L'
p233
sg27
Nsba(ibclass
BInstr
p234
(dp235
g2
Nsg17
S'MADD            X19, X19, X4, X3'
p236
sg19
S'730e049b'
p237
sg21
Vmadd x19, x19, x4, x3
p238
sg5
L18446743798840043464L
sg6
Nsg23
S'MADD'
p239
sg25
S'0xffffffc0008027c8L'
p240
sg27
Nsba(ibclass
BInstr
p241
(dp242
g2
Nsg17
S'LDR             W2, [X19,#0x14]'
p243
sg19
S'621640b9'
p244
sg21
Vldr w2, [x19, #0x14]
p245
sg5
L18446743798840043468L
sg6
Nsg23
S'LDR'
p246
sg25
S'0xffffffc0008027ccL'
p247
sg27
Nsba(ibclass
BInstr
p248
(dp249
g2
Nsg17
S'CBNZ            W2, loc_FFFFFFC0008027F4'
p250
sg19
S'22010035'
p251
sg21
Vcbnz w2, #0x24
p252
sg5
L18446743798840043472L
sg6
Nsg23
S'CBNZ'
p253
sg25
S'0xffffffc0008027d0L'
p254
sg27
Nsbasg98
(lp255
S'ADD reg, reg, #5,LSL#12'
p256
aS'SBFM reg9, reg, #0, #0x1F'
p257
aS'ADD reg, reg, #0x208'
p258
aS'MOV reg, #0x58'
p259
aS'MADD reg9, reg9, reg, reg'
p260
aS'LDR reg, mem'
p261
aS'CBNZ reg, func'
p262
asg111
Nsg5
S'0xffffffc0008027b8L'
p263
sg113
(lp264
S'0xffffffc00080276cL'
p265
asg6
Nsg115
(lp266
S'0xffffffc0008027d4L'
p267
aS'0xffffffc0008027f4L'
p268
asg119
Nsg120
Nsg121
S'cf9ee3384b298367f7afa3ec91e315f1'
p269
sg123
S'c3f878b604a444805a28f3d03fcde3f0'
p270
sg125
(lp271
g211
ag218
ag225
ag232
ag239
ag246
ag253
asg127
Nsba(ibclass
BBasicBlock
p272
(dp273
g12
Nsg13
(lp274
(ibclass
BInstr
p275
(dp276
g2
Nsg17
S'ADRP            X1, #__func__.27940_0@PAGE; "msm_isp_stats_cfg_ping_pong_address"'
p277
sg19
S'614200b0'
p278
sg21
Vadrp x1, #0x84d000
p279
sg5
L18446743798840043476L
sg6
Nsg23
S'ADRP'
p280
sg25
S'0xffffffc0008027d4L'
p281
sg27
Nsba(ibclass
BInstr
p282
(dp283
g2
Nsg17
S'ADRP            X0, #unk_FFFFFFC0013CFE99@PAGE'
p284
sg19
S'605e00b0'
p285
sg21
Vadrp x0, #0xbcd000
p286
sg5
L18446743798840043480L
sg6
Nsg23
S'ADRP'
p287
sg25
S'0xffffffc0008027d8L'
p288
sg27
Nsba(ibclass
BInstr
p289
(dp290
g2
Nsg17
S'ADD             X1, X1, #__func__.27940_0@PAGEOFF; "msm_isp_stats_cfg_ping_pong_address"'
p291
sg19
S'21602591'
p292
sg21
Vadd x1, x1, #0x958
p293
sg5
L18446743798840043484L
sg6
Nsg23
S'ADD'
p294
sg25
S'0xffffffc0008027dcL'
p295
sg27
Nsba(ibclass
BInstr
p296
(dp297
g2
Nsg17
S'ADD             X0, X0, #unk_FFFFFFC0013CFE99@PAGEOFF'
p298
sg19
S'00643a91'
p299
sg21
Vadd x0, x0, #0xe99
p300
sg5
L18446743798840043488L
sg6
Nsg23
S'ADD'
p301
sg25
S'0xffffffc0008027e0L'
p302
sg27
Nsba(ibclass
BInstr
p303
(dp304
g2
Nsg17
S'ADD             X1, X1, #0x188'
p305
sg19
S'21200691'
p306
sg21
Vadd x1, x1, #0x188
p307
sg5
L18446743798840043492L
sg6
Nsg23
S'ADD'
p308
sg25
S'0xffffffc0008027e4L'
p309
sg27
Nsba(ibclass
BInstr
p310
(dp311
g2
Nsg17
S'BL              printk'
p312
sg19
S'a0b01894'
p313
sg21
Vbl #0x62c280
p314
sg5
L18446743798840043496L
sg6
Nsg23
S'BL'
p315
sg25
S'0xffffffc0008027e8L'
p316
sg27
Nsba(ibclass
BInstr
p317
(dp318
g2
Nsg17
S'MOV             W0, #0xFFFFFFFF'
p319
sg19
S'00008012'
p320
sg21
Vmovn w0, #0
p321
sg5
L18446743798840043500L
sg6
Nsg23
S'MOV'
p322
sg25
S'0xffffffc0008027ecL'
p323
sg27
Nsba(ibclass
BInstr
p324
(dp325
g2
Nsg17
S'B               loc_FFFFFFC000802860'
p326
sg19
S'1c000014'
p327
sg21
Vb #0x70
p328
sg5
L18446743798840043504L
sg6
Nsg23
g96
sg25
S'0xffffffc0008027f0L'
p329
sg27
Nsbasg98
(lp330
S'ADRP reg, #__func__.27940_0@PAGE'
p331
aS'ADRP reg, #func@PAGE'
p332
aS'ADD reg, reg, #__func__.27940_0@PAGEOFF'
p333
aS'ADD reg, reg, #func@PAGEOFF'
p334
aS'ADD reg, reg, #0x188'
p335
aS'BL printk'
p336
aS'MOV reg, #0xFFFFFFFF'
p337
aS'B func'
p338
asg111
Nsg5
S'0xffffffc0008027d4L'
p339
sg113
(lp340
S'0xffffffc0008027b8L'
p341
asg6
Nsg115
(lp342
S'0xffffffc000802860L'
p343
asg119
Nsg120
Nsg121
S'f6b4a164d3a83cb5addeace3d1f2fa3b'
p344
sg123
S'de6ad4abce161bde20c9c9123291a9e6'
p345
sg125
(lp346
g280
ag287
ag294
ag301
ag308
ag315
ag322
ag96
asg127
Nsba(ibclass
BBasicBlock
p347
(dp348
g12
Nsg13
(lp349
(ibclass
BInstr
p350
(dp351
g2
Nsg17
S'CMP             W2, #1'
p352
sg19
S'5f040071'
p353
sg21
Vcmp w2, #1
p354
sg5
L18446743798840043508L
sg6
Nsg23
S'CMP'
p355
sg25
S'0xffffffc0008027f4L'
p356
sg27
Nsba(ibclass
BInstr
p357
(dp358
g2
Nsg17
S'B.EQ            loc_FFFFFFC000802814'
p359
sg19
S'e0000054'
p360
sg21
Vb.eq #0x1c
p361
sg5
L18446743798840043512L
sg6
Nsg23
g96
sg25
S'0xffffffc0008027f8L'
p362
sg27
Nsbasg98
(lp363
S'CMP reg, #1'
p364
aS'B.EQ func'
p365
asg111
Nsg5
S'0xffffffc0008027f4L'
p366
sg113
(lp367
S'0xffffffc0008027b8L'
p368
asg6
Nsg115
(lp369
S'0xffffffc0008027fcL'
p370
aS'0xffffffc000802814L'
p371
asg119
Nsg120
Nsg121
S'c78fd620a449e3c979d3f3ec12d4ee88'
p372
sg123
S'80ff9404225251bcdd8440688ef17eb4'
p373
sg125
(lp374
g355
ag96
asg127
Nsba(ibclass
BBasicBlock
p375
(dp376
g12
Nsg13
(lp377
(ibclass
BInstr
p378
(dp379
g2
Nsg17
S'MOV             W2, #1'
p380
sg19
S'22008052'
p381
sg21
Vmovz w2, #0x1
p382
sg5
L18446743798840043516L
sg6
Nsg23
S'MOV'
p383
sg25
S'0xffffffc0008027fcL'
p384
sg27
Nsba(ibclass
BInstr
p385
(dp386
g2
Nsg17
S'STR             W1, [X29,#arg_14]'
p387
sg19
S'a12700b9'
p388
sg21
Vstr w1, [x29, #0x24]
p389
sg5
L18446743798840043520L
sg6
Nsg23
S'STR'
p390
sg25
S'0xffffffc000802800L'
p391
sg27
Nsba(ibclass
BInstr
p392
(dp393
g2
Nsg17
S'ADD             X1, X29, #0x20'
p394
sg19
S'a1830091'
p395
sg21
Vadd x1, x29, #0x20
p396
sg5
L18446743798840043524L
sg6
Nsg23
S'ADD'
p397
sg25
S'0xffffffc000802804L'
p398
sg27
Nsba(ibclass
BInstr
p399
(dp400
g2
Nsg17
S'STRB            WZR, [X29,#arg_50]'
p401
sg19
S'bf830139'
p402
sg21
Vstrb wzr, [x29, #0x60]
p403
sg5
L18446743798840043528L
sg6
Nsg23
S'STR'
p404
sg25
S'0xffffffc000802808L'
p405
sg27
Nsba(ibclass
BInstr
p406
(dp407
g2
Nsg17
S'STRB            W2, [X29,#arg_10]'
p408
sg19
S'a2830039'
p409
sg21
Vstrb w2, [x29, #0x20]
p410
sg5
L18446743798840043532L
sg6
Nsg23
S'STR'
p411
sg25
S'0xffffffc00080280cL'
p412
sg27
Nsba(ibclass
BInstr
p413
(dp414
g2
Nsg17
S'BL              msm_isp_cfg_stats_stream'
p415
sg19
S'a9feff97'
p416
sg21
Vbl #0xfffffffffffffaa4
p417
sg5
L18446743798840043536L
sg6
Nsg23
S'BL'
p418
sg25
S'0xffffffc000802810L'
p419
sg27
Nsbasg98
(lp420
S'MOV reg, #1'
p421
aS'STR reg, mem'
p422
aS'ADD reg, reg9, #0x20'
p423
aS'STRB WZR, mem'
p424
aS'STRB reg, mem'
p425
aS'BL msm_isp_cfg_stats_stream'
p426
asg111
Nsg5
S'0xffffffc0008027fcL'
p427
sg113
(lp428
S'0xffffffc0008027f4L'
p429
asg6
Nsg115
(lp430
S'0xffffffc000802814L'
p431
asg119
Nsg120
Nsg121
S'a31d78039fe64c038abf526f6cc8d276'
p432
sg123
S'4fb4d8ebbf9e97c7717d1157d800d3d9'
p433
sg125
(lp434
g383
ag390
ag397
ag404
ag411
ag418
asg127
Nsba(ibclass
BBasicBlock
p435
(dp436
g12
Nsg13
(lp437
(ibclass
BInstr
p438
(dp439
g2
Nsg17
S'LDR             W0, [X19,#0xC]'
p440
sg19
S'600e40b9'
p441
sg21
Vldr w0, [x19, #0xc]
p442
sg5
L18446743798840043540L
sg6
Nsg23
S'LDR'
p443
sg25
S'0xffffffc000802814L'
p444
sg27
Nsba(ibclass
BInstr
p445
(dp446
g2
Nsg17
S'CBNZ            W0, loc_FFFFFFC000802830'
p447
sg19
S'c0000035'
p448
sg21
Vcbnz w0, #0x18
p449
sg5
L18446743798840043544L
sg6
Nsg23
S'CBNZ'
p450
sg25
S'0xffffffc000802818L'
p451
sg27
Nsbasg98
(lp452
S'LDR reg, mem'
p453
aS'CBNZ reg, func'
p454
asg111
Nsg5
S'0xffffffc000802814L'
p455
sg113
(lp456
S'0xffffffc0008027f4L'
p457
aS'0xffffffc0008027fcL'
p458
asg6
Nsg115
(lp459
S'0xffffffc00080281cL'
p460
aS'0xffffffc000802830L'
p461
asg119
Nsg120
Nsg121
S'5522ad3e8b25e3a8f9013bb9571723e7'
p462
sg123
S'7604765c3c810c2510cc031abcc4f1e2'
p463
sg125
(lp464
g443
ag450
asg127
Nsba(ibclass
BBasicBlock
p465
(dp466
g12
Nsg13
(lp467
(ibclass
BInstr
p468
(dp469
g2
Nsg17
S'LDR             X0, [X20,#0x4160]'
p470
sg19
S'80b260f9'
p471
sg21
Vldr x0, [x20, #0x4160]
p472
sg5
L18446743798840043548L
sg6
Nsg23
S'LDR'
p473
sg25
S'0xffffffc00080281cL'
p474
sg27
Nsba(ibclass
BInstr
p475
(dp476
g2
Nsg17
S'MOV             X1, X19'
p477
sg19
S'e10313aa'
p478
sg21
Vmov x1, x19
p479
sg5
L18446743798840043552L
sg6
Nsg23
S'MOV'
p480
sg25
S'0xffffffc000802820L'
p481
sg27
Nsba(ibclass
BInstr
p482
(dp483
g2
Nsg17
S'LDR             X2, [X0,#0x1C8]'
p484
sg19
S'02e440f9'
p485
sg21
Vldr x2, [x0, #0x1c8]
p486
sg5
L18446743798840043556L
sg6
Nsg23
S'LDR'
p487
sg25
S'0xffffffc000802824L'
p488
sg27
Nsba(ibclass
BInstr
p489
(dp490
g2
Nsg17
S'MOV             X0, X20'
p491
sg19
S'e00314aa'
p492
sg21
Vmov x0, x20
p493
sg5
L18446743798840043560L
sg6
Nsg23
S'MOV'
p494
sg25
S'0xffffffc000802828L'
p495
sg27
Nsba(ibclass
BInstr
p496
(dp497
g2
Nsg17
S'BLR             X2'
p498
sg19
S'40003fd6'
p499
sg21
Vblr x2
p500
sg5
L18446743798840043564L
sg6
Nsg23
S'BLR'
p501
sg25
S'0xffffffc00080282cL'
p502
sg27
Nsbasg98
(lp503
S'LDR reg, mem'
p504
aS'MOV reg, reg9'
p505
aS'LDR reg, mem'
p506
aS'MOV reg, reg0'
p507
aS'BLR reg'
p508
asg111
Nsg5
S'0xffffffc00080281cL'
p509
sg113
(lp510
S'0xffffffc000802814L'
p511
asg6
Nsg115
(lp512
S'0xffffffc000802830L'
p513
asg119
Nsg120
Nsg121
S'06b02e1eda656563a84c2f8c39fa0bf4'
p514
sg123
S'14f568b7c13ce90378d4b58aac2300d2'
p515
sg125
(lp516
g473
ag480
ag487
ag494
ag501
asg127
Nsba(ibclass
BBasicBlock
p517
(dp518
g12
Nsg13
(lp519
(ibclass
BInstr
p520
(dp521
g2
Nsg17
S'LDR             X0, [X20,#0x4160]'
p522
sg19
S'80b260f9'
p523
sg21
Vldr x0, [x20, #0x4160]
p524
sg5
L18446743798840043568L
sg6
Nsg23
S'LDR'
p525
sg25
S'0xffffffc000802830L'
p526
sg27
Nsba(ibclass
BInstr
p527
(dp528
g2
Nsg17
S'MOV             X1, X19'
p529
sg19
S'e10313aa'
p530
sg21
Vmov x1, x19
p531
sg5
L18446743798840043572L
sg6
Nsg23
S'MOV'
p532
sg25
S'0xffffffc000802834L'
p533
sg27
Nsba(ibclass
BInstr
p534
(dp535
g2
Nsg17
S'LDR             X2, [X0,#0x1D8]'
p536
sg19
S'02ec40f9'
p537
sg21
Vldr x2, [x0, #0x1d8]
p538
sg5
L18446743798840043576L
sg6
Nsg23
S'LDR'
p539
sg25
S'0xffffffc000802838L'
p540
sg27
Nsba(ibclass
BInstr
p541
(dp542
g2
Nsg17
S'MOV             X0, X20'
p543
sg19
S'e00314aa'
p544
sg21
Vmov x0, x20
p545
sg5
L18446743798840043580L
sg6
Nsg23
S'MOV'
p546
sg25
S'0xffffffc00080283cL'
p547
sg27
Nsba(ibclass
BInstr
p548
(dp549
g2
Nsg17
S'BLR             X2'
p550
sg19
S'40003fd6'
p551
sg21
Vblr x2
p552
sg5
L18446743798840043584L
sg6
Nsg23
S'BLR'
p553
sg25
S'0xffffffc000802840L'
p554
sg27
Nsba(ibclass
BInstr
p555
(dp556
g2
Nsg17
S'MOV             W0, #0'
p557
sg19
S'00008052'
p558
sg21
Vmovz w0, #0
p559
sg5
L18446743798840043588L
sg6
Nsg23
S'MOV'
p560
sg25
S'0xffffffc000802844L'
p561
sg27
Nsba(ibclass
BInstr
p562
(dp563
g2
Nsg17
S'STP             XZR, XZR, [X19]'
p564
sg19
S'7f7e00a9'
p565
sg21
Vstp xzr, xzr, [x19]
p566
sg5
L18446743798840043592L
sg6
Nsg23
S'STP'
p567
sg25
S'0xffffffc000802848L'
p568
sg27
Nsba(ibclass
BInstr
p569
(dp570
g2
Nsg17
S'STP             XZR, XZR, [X19,#0x10]'
p571
sg19
S'7f7e01a9'
p572
sg21
Vstp xzr, xzr, [x19, #0x10]
p573
sg5
L18446743798840043596L
sg6
Nsg23
S'STP'
p574
sg25
S'0xffffffc00080284cL'
p575
sg27
Nsba(ibclass
BInstr
p576
(dp577
g2
Nsg17
S'STP             XZR, XZR, [X19,#0x20]'
p578
sg19
S'7f7e02a9'
p579
sg21
Vstp xzr, xzr, [x19, #0x20]
p580
sg5
L18446743798840043600L
sg6
Nsg23
S'STP'
p581
sg25
S'0xffffffc000802850L'
p582
sg27
Nsba(ibclass
BInstr
p583
(dp584
g2
Nsg17
S'STP             XZR, XZR, [X19,#0x30]'
p585
sg19
S'7f7e03a9'
p586
sg21
Vstp xzr, xzr, [x19, #0x30]
p587
sg5
L18446743798840043604L
sg6
Nsg23
S'STP'
p588
sg25
S'0xffffffc000802854L'
p589
sg27
Nsba(ibclass
BInstr
p590
(dp591
g2
Nsg17
S'STP             XZR, XZR, [X19,#0x40]'
p592
sg19
S'7f7e04a9'
p593
sg21
Vstp xzr, xzr, [x19, #0x40]
p594
sg5
L18446743798840043608L
sg6
Nsg23
S'STP'
p595
sg25
S'0xffffffc000802858L'
p596
sg27
Nsba(ibclass
BInstr
p597
(dp598
g2
Nsg17
S'STR             XZR, [X19,#0x50]'
p599
sg19
S'7f2a00f9'
p600
sg21
Vstr xzr, [x19, #0x50]
p601
sg5
L18446743798840043612L
sg6
Nsg23
S'STR'
p602
sg25
S'0xffffffc00080285cL'
p603
sg27
Nsbasg98
(lp604
S'LDR reg, mem'
p605
aS'MOV reg, reg9'
p606
aS'LDR reg, mem'
p607
aS'MOV reg, reg0'
p608
aS'BLR reg'
p609
aS'MOV reg, #0'
p610
aS'STP XZR, XZR, mem'
p611
aS'STP XZR, XZR, mem'
p612
aS'STP XZR, XZR, mem'
p613
aS'STP XZR, XZR, mem'
p614
aS'STP XZR, XZR, mem'
p615
aS'STR XZR, mem'
p616
asg111
Nsg5
S'0xffffffc000802830L'
p617
sg113
(lp618
S'0xffffffc000802814L'
p619
aS'0xffffffc00080281cL'
p620
asg6
Nsg115
(lp621
S'0xffffffc000802860L'
p622
asg119
Nsg120
Nsg121
S'7315d94113f08976e3c9be7d22ff1e81'
p623
sg123
S'f26be1eb81c84388611cf5bf012b87d3'
p624
sg125
(lp625
g525
ag532
ag539
ag546
ag553
ag560
ag567
ag574
ag581
ag588
ag595
ag602
asg127
Nsba(ibclass
BBasicBlock
p626
(dp627
g12
Nsg13
(lp628
(ibclass
BInstr
p629
(dp630
g2
Nsg17
S'LDP             X19, X20, [SP,#0x60+var_50]'
p631
sg19
S'f35341a9'
p632
sg21
Vldp x19, x20, [sp, #0x10]
p633
sg5
L18446743798840043616L
sg6
Nsg23
S'LDP'
p634
sg25
S'0xffffffc000802860L'
p635
sg27
Nsba(ibclass
BInstr
p636
(dp637
g2
Nsg17
S'LDP             X29, X30, [SP+0x60+var_60],#0x70'
p638
sg19
S'fd7bc7a8'
p639
sg21
Vldp x29, x30, [sp], #0x70
p640
sg5
L18446743798840043620L
sg6
Nsg23
S'LDP'
p641
sg25
S'0xffffffc000802864L'
p642
sg27
Nsba(ibclass
BInstr
p643
(dp644
g2
Nsg17
S'RET'
p645
sg19
S'c0035fd6'
p646
sg21
Vret 
p647
sg5
L18446743798840043624L
sg6
Nsg23
S'RET'
p648
sg25
S'0xffffffc000802868L'
p649
sg27
Nsbasg98
(lp650
S'LDP reg9, reg0, mem'
p651
aS'LDP reg9, reg0, mem,#0x70'
p652
ag645
asg111
Nsg5
S'0xffffffc000802860L'
p653
sg113
(lp654
S'0xffffffc000802798L'
p655
aS'0xffffffc0008027d4L'
p656
aS'0xffffffc000802830L'
p657
asg6
Nsg115
(lp658
sg119
Nsg120
Nsg121
S'0abd6d226edb2f97e9eefc6c1654aa67'
p659
sg123
S'51e90b864f028a47092020714996491b'
p660
sg125
(lp661
g634
ag641
ag648
asg127
Nsbasb.