(ibclass
BFunc
p0
(dp1
S'hash'
p2
NsS'name'
p3
S'msm_camera_cci_i2c_write_seq_table'
p4
sS'start_address'
p5
L18446743798839844280L
sS'flag'
p6
NsS'program'
p7
NsS'bbs'
p8
(lp9
(ibclass
BBasicBlock
p10
(dp11
S'function'
p12
NsS'binstrs'
p13
(lp14
(ibclass
BInstr
p15
(dp16
g2
NsS'disasm'
p17
S'STP             X29, X30, [SP,#-0x10+var_30]!'
p18
sS'bytes'
p19
S'fd7bbca9'
p20
sS'disasm_striped'
p21
Vstp x29, x30, [sp, #-0x40]!
p22
sg5
L18446743798839844280L
sg6
NsS'mnem'
p23
S'STP'
p24
sS'address'
p25
S'0xffffffc0007d1db8L'
p26
sS'basicblock'
p27
Nsba(ibclass
BInstr
p28
(dp29
g2
Nsg17
S'MOV             X29, SP'
p30
sg19
S'fd030091'
p31
sg21
Vmov x29, sp
p32
sg5
L18446743798839844284L
sg6
Nsg23
S'MOV'
p33
sg25
S'0xffffffc0007d1dbcL'
p34
sg27
Nsba(ibclass
BInstr
p35
(dp36
g2
Nsg17
S'STP             X19, X20, [SP,#0x30+var_20]'
p37
sg19
S'f35301a9'
p38
sg21
Vstp x19, x20, [sp, #0x10]
p39
sg5
L18446743798839844288L
sg6
Nsg23
S'STP'
p40
sg25
S'0xffffffc0007d1dc0L'
p41
sg27
Nsba(ibclass
BInstr
p42
(dp43
g2
Nsg17
S'STP             X21, X22, [SP,#0x30+var_10]'
p44
sg19
S'f55b02a9'
p45
sg21
Vstp x21, x22, [sp, #0x20]
p46
sg5
L18446743798839844292L
sg6
Nsg23
S'STP'
p47
sg25
S'0xffffffc0007d1dc4L'
p48
sg27
Nsba(ibclass
BInstr
p49
(dp50
g2
Nsg17
S'STP             X23, X24, [SP,#0x30+var_s0]'
p51
sg19
S'f76303a9'
p52
sg21
Vstp x23, x24, [sp, #0x30]
p53
sg5
L18446743798839844296L
sg6
Nsg23
S'STP'
p54
sg25
S'0xffffffc0007d1dc8L'
p55
sg27
Nsba(ibclass
BInstr
p56
(dp57
g2
Nsg17
S'MOV             X19, X0'
p58
sg19
S'f30300aa'
p59
sg21
Vmov x19, x0
p60
sg5
L18446743798839844300L
sg6
Nsg23
S'MOV'
p61
sg25
S'0xffffffc0007d1dccL'
p62
sg27
Nsba(ibclass
BInstr
p63
(dp64
g2
Nsg17
S'MOV             X20, X1'
p65
sg19
S'f40301aa'
p66
sg21
Vmov x20, x1
p67
sg5
L18446743798839844304L
sg6
Nsg23
S'MOV'
p68
sg25
S'0xffffffc0007d1dd0L'
p69
sg27
Nsba(ibclass
BInstr
p70
(dp71
g2
Nsg17
S'CBZ             X0, loc_FFFFFFC0007D1E94'
p72
sg19
S'000600b4'
p73
sg21
Vcbz x0, #0xc0
p74
sg5
L18446743798839844308L
sg6
Nsg23
S'CBZ'
p75
sg25
S'0xffffffc0007d1dd4L'
p76
sg27
NsbasS'disasm_list'
p77
(lp78
S'STP reg9, reg0, mem!'
p79
aS'MOV reg9, SP'
p80
aS'STP reg9, reg0, mem'
p81
aS'STP reg1, reg2, mem'
p82
aS'STP reg3, reg4, mem'
p83
aS'MOV reg9, reg'
p84
aS'MOV reg0, reg'
p85
aS'CBZ reg, func'
p86
asS'end_address'
p87
Nsg5
S'0xffffffc0007d1db8L'
p88
sS'preds'
p89
(lp90
sg6
NsS'succs'
p91
(lp92
S'0xffffffc0007d1dd8L'
p93
aS'0xffffffc0007d1e94L'
p94
asS'hash_v3'
p95
NsS'flag_v2'
p96
NsS'hash_v1'
p97
S'b39b152bdaaaf9c0e8ac133a7db91238'
p98
sS'hash_v2'
p99
S'02f0da7851a6cbf2d2f9959641e5cc75'
p100
sS'mnen_list'
p101
(lp102
g24
ag33
ag40
ag47
ag54
ag61
ag68
ag75
asS'neighbour_disasm_list'
p103
Nsba(ibclass
BBasicBlock
p104
(dp105
g12
Nsg13
(lp106
(ibclass
BInstr
p107
(dp108
g2
Nsg17
S'CMP             X1, XZR'
p109
sg19
S'3f001feb'
p110
sg21
Vcmp x1, xzr
p111
sg5
L18446743798839844312L
sg6
Nsg23
S'CMP'
p112
sg25
S'0xffffffc0007d1dd8L'
p113
sg27
Nsba(ibclass
BInstr
p114
(dp115
g2
Nsg17
S'CSET            W23, EQ'
p116
sg19
S'f7179f1a'
p117
sg21
Vcset w23, eq
p118
sg5
L18446743798839844316L
sg6
Nsg23
S'CSET'
p119
sg25
S'0xffffffc0007d1ddcL'
p120
sg27
Nsba(ibclass
BInstr
p121
(dp122
g2
Nsg17
S'CBNZ            W23, loc_FFFFFFC0007D1E94'
p123
sg19
S'b7050035'
p124
sg21
Vcbnz w23, #0xb4
p125
sg5
L18446743798839844320L
sg6
Nsg23
S'CBNZ'
p126
sg25
S'0xffffffc0007d1de0L'
p127
sg27
Nsbasg77
(lp128
S'CMP reg, XZR'
p129
aS'CSET reg3, EQ'
p130
aS'CBNZ reg3, func'
p131
asg87
Nsg5
S'0xffffffc0007d1dd8L'
p132
sg89
(lp133
S'0xffffffc0007d1db8L'
p134
asg6
Nsg91
(lp135
S'0xffffffc0007d1de4L'
p136
aS'0xffffffc0007d1e94L'
p137
asg95
Nsg96
Nsg97
S'178ce55fc1d917546f97f1b77807abe0'
p138
sg99
S'0d8ff53517e12adb05bc681ba4d5d93d'
p139
sg101
(lp140
g112
ag119
ag126
asg103
Nsba(ibclass
BBasicBlock
p141
(dp142
g12
Nsg13
(lp143
(ibclass
BInstr
p144
(dp145
g2
Nsg17
S'LDR             W2, [X1,#0xC]'
p146
sg19
S'220c40b9'
p147
sg21
Vldr w2, [x1, #0xc]
p148
sg5
L18446743798839844324L
sg6
Nsg23
S'LDR'
p149
sg25
S'0xffffffc0007d1de4L'
p150
sg27
Nsba(ibclass
BInstr
p151
(dp152
g2
Nsg17
S'SUB             W0, W2, #1'
p153
sg19
S'40040051'
p154
sg21
Vsub w0, w2, #1
p155
sg5
L18446743798839844328L
sg6
Nsg23
S'SUB'
p156
sg25
S'0xffffffc0007d1de8L'
p157
sg27
Nsba(ibclass
BInstr
p158
(dp159
g2
Nsg17
S'CMP             W0, #1'
p160
sg19
S'1f040071'
p161
sg21
Vcmp w0, #1
p162
sg5
L18446743798839844332L
sg6
Nsg23
S'CMP'
p163
sg25
S'0xffffffc0007d1decL'
p164
sg27
Nsba(ibclass
BInstr
p165
(dp166
g2
Nsg17
S'B.LS            loc_FFFFFFC0007D1E10'
p167
sg19
S'09010054'
p168
sg21
Vb.ls #0x20
p169
sg5
L18446743798839844336L
sg6
Nsg23
S'B'
p170
sg25
S'0xffffffc0007d1df0L'
p171
sg27
Nsbasg77
(lp172
S'LDR reg, mem'
p173
aS'SUB reg, reg, #1'
p174
aS'CMP reg, #1'
p175
aS'B.LS func'
p176
asg87
Nsg5
S'0xffffffc0007d1de4L'
p177
sg89
(lp178
S'0xffffffc0007d1dd8L'
p179
asg6
Nsg91
(lp180
S'0xffffffc0007d1df4L'
p181
aS'0xffffffc0007d1e10L'
p182
asg95
Nsg96
Nsg97
S'dd5dbfa9105770945b09dacfec96972a'
p183
sg99
S'aed14bc0e349e26e5f521582ac78b9fa'
p184
sg101
(lp185
g149
ag156
ag163
ag170
asg103
Nsba(ibclass
BBasicBlock
p186
(dp187
g12
Nsg13
(lp188
(ibclass
BInstr
p189
(dp190
g2
Nsg17
S'ADRP            X1, #__func__.26002@PAGE; "msm_camera_cci_i2c_read"'
p191
sg19
S'c14300d0'
p192
sg21
Vadrp x1, #0x87a000
p193
sg5
L18446743798839844340L
sg6
Nsg23
S'ADRP'
p194
sg25
S'0xffffffc0007d1df4L'
p195
sg27
Nsba(ibclass
BInstr
p196
(dp197
g2
Nsg17
S'ADRP            X0, #unk_FFFFFFC0013C57C1@PAGE'
p198
sg19
S'a05f0090'
p199
sg21
Vadrp x0, #0xbf4000
p200
sg5
L18446743798839844344L
sg6
Nsg23
S'ADRP'
p201
sg25
S'0xffffffc0007d1df8L'
p202
sg27
Nsba(ibclass
BInstr
p203
(dp204
g2
Nsg17
S'ADD             X1, X1, #__func__.26002@PAGEOFF; "msm_camera_cci_i2c_read"'
p205
sg19
S'21002891'
p206
sg21
Vadd x1, x1, #0xa00
p207
sg5
L18446743798839844348L
sg6
Nsg23
S'ADD'
p208
sg25
S'0xffffffc0007d1dfcL'
p209
sg27
Nsba(ibclass
BInstr
p210
(dp211
g2
Nsg17
S'ADD             X1, X1, #0xB8'
p212
sg19
S'21e00291'
p213
sg21
Vadd x1, x1, #0xb8
p214
sg5
L18446743798839844352L
sg6
Nsg23
S'ADD'
p215
sg25
S'0xffffffc0007d1e00L'
p216
sg27
Nsba(ibclass
BInstr
p217
(dp218
g2
Nsg17
S'ADD             X0, X0, #unk_FFFFFFC0013C57C1@PAGEOFF'
p219
sg19
S'00041f91'
p220
sg21
Vadd x0, x0, #0x7c1
p221
sg5
L18446743798839844356L
sg6
Nsg23
S'ADD'
p222
sg25
S'0xffffffc0007d1e04L'
p223
sg27
Nsba(ibclass
BInstr
p224
(dp225
g2
Nsg17
S'BL              printk'
p226
sg19
S'18731994'
p227
sg21
Vbl #0x65cc60
p228
sg5
L18446743798839844360L
sg6
Nsg23
S'BL'
p229
sg25
S'0xffffffc0007d1e08L'
p230
sg27
Nsba(ibclass
BInstr
p231
(dp232
g2
Nsg17
S'B               loc_FFFFFFC0007D1E94'
p233
sg19
S'22000014'
p234
sg21
Vb #0x88
p235
sg5
L18446743798839844364L
sg6
Nsg23
g170
sg25
S'0xffffffc0007d1e0cL'
p236
sg27
Nsbasg77
(lp237
S'ADRP reg, #__func__.26002@PAGE'
p238
aS'ADRP reg, #func@PAGE'
p239
aS'ADD reg, reg, #__func__.26002@PAGEOFF'
p240
aS'ADD reg, reg, #0xB8'
p241
aS'ADD reg, reg, #func@PAGEOFF'
p242
aS'BL printk'
p243
aS'B func'
p244
asg87
Nsg5
S'0xffffffc0007d1df4L'
p245
sg89
(lp246
S'0xffffffc0007d1de4L'
p247
asg6
Nsg91
(lp248
S'0xffffffc0007d1e94L'
p249
asg95
Nsg96
Nsg97
S'2c9793ad0fe6f054cbe18acf8837e8db'
p250
sg99
S'b46093a9d68b28f98d7ac4f367f18fc9'
p251
sg101
(lp252
g194
ag201
ag208
ag215
ag222
ag229
ag170
asg103
Nsba(ibclass
BBasicBlock
p253
(dp254
g12
Nsg13
(lp255
(ibclass
BInstr
p256
(dp257
g2
Nsg17
S'LDR             X21, [X1]'
p258
sg19
S'350040f9'
p259
sg21
Vldr x21, [x1]
p260
sg5
L18446743798839844368L
sg6
Nsg23
S'LDR'
p261
sg25
S'0xffffffc0007d1e10L'
p262
sg27
Nsba(ibclass
BInstr
p263
(dp264
g2
Nsg17
S'LDR             W24, [X19,#0x20]'
p265
sg19
S'782240b9'
p266
sg21
Vldr w24, [x19, #0x20]
p267
sg5
L18446743798839844372L
sg6
Nsg23
S'LDR'
p268
sg25
S'0xffffffc0007d1e14L'
p269
sg27
Nsba(ibclass
BInstr
p270
(dp271
g2
Nsg17
S'ADD             X21, X21, #2'
p272
sg19
S'b50a0091'
p273
sg21
Vadd x21, x21, #2
p274
sg5
L18446743798839844376L
sg6
Nsg23
S'ADD'
p275
sg25
S'0xffffffc0007d1e18L'
p276
sg27
Nsba(ibclass
BInstr
p277
(dp278
g2
Nsg17
S'STR             W2, [X19,#0x20]'
p279
sg19
S'622200b9'
p280
sg21
Vstr w2, [x19, #0x20]
p281
sg5
L18446743798839844380L
sg6
Nsg23
S'STR'
p282
sg25
S'0xffffffc0007d1e1cL'
p283
sg27
Nsba(ibclass
BInstr
p284
(dp285
g2
Nsg17
S'MOV             W22, #0xFFFFFFF2'
p286
sg19
S'b6018012'
p287
sg21
Vmovn w22, #0xd
p288
sg5
L18446743798839844384L
sg6
Nsg23
S'MOV'
p289
sg25
S'0xffffffc0007d1e20L'
p290
sg27
Nsbasg77
(lp291
S'LDR reg1, mem'
p292
aS'LDR reg4, mem'
p293
aS'ADD reg1, reg1, #2'
p294
aS'STR reg, mem'
p295
aS'MOV reg2, #0xFFFFFFF2'
p296
asg87
Nsg5
S'0xffffffc0007d1e10L'
p297
sg89
(lp298
S'0xffffffc0007d1de4L'
p299
asg6
Nsg91
(lp300
S'0xffffffc0007d1e24L'
p301
asg95
Nsg96
Nsg97
S'3afedf5092bceb28456c7de1474b7623'
p302
sg99
S'65064bef3b146e054f912a95f7b33969'
p303
sg101
(lp304
g261
ag268
ag275
ag282
ag289
asg103
Nsba(ibclass
BBasicBlock
p305
(dp306
g12
Nsg13
(lp307
(ibclass
BInstr
p308
(dp309
g2
Nsg17
S'LDRH            W0, [X20,#8]'
p310
sg19
S'80124079'
p311
sg21
Vldrh w0, [x20, #8]
p312
sg5
L18446743798839844388L
sg6
Nsg23
S'LDR'
p313
sg25
S'0xffffffc0007d1e24L'
p314
sg27
Nsba(ibclass
BInstr
p315
(dp316
g2
Nsg17
S'CMP             W23, W0'
p317
sg19
S'ff02006b'
p318
sg21
Vcmp w23, w0
p319
sg5
L18446743798839844392L
sg6
Nsg23
S'CMP'
p320
sg25
S'0xffffffc0007d1e28L'
p321
sg27
Nsba(ibclass
BInstr
p322
(dp323
g2
Nsg17
S'B.GE            loc_FFFFFFC0007D1E58'
p324
sg19
S'6a010054'
p325
sg21
Vb.ge #0x2c
p326
sg5
L18446743798839844396L
sg6
Nsg23
g170
sg25
S'0xffffffc0007d1e2cL'
p327
sg27
Nsbasg77
(lp328
S'LDRH reg, mem'
p329
aS'CMP reg3, reg'
p330
aS'B.GE func'
p331
asg87
Nsg5
S'0xffffffc0007d1e24L'
p332
sg89
(lp333
S'0xffffffc0007d1e10L'
p334
aS'0xffffffc0007d1e50L'
p335
asg6
Nsg91
(lp336
S'0xffffffc0007d1e30L'
p337
aS'0xffffffc0007d1e58L'
p338
asg95
Nsg96
Nsg97
S'fa4df767a85c49648339e2dc5c6807f6'
p339
sg99
S'9fb7ce706f2b9d3274d2552926874602'
p340
sg101
(lp341
g313
ag320
ag170
asg103
Nsba(ibclass
BBasicBlock
p342
(dp343
g12
Nsg13
(lp344
(ibclass
BInstr
p345
(dp346
g2
Nsg17
S'LDURH           W1, [X21,#-2]'
p347
sg19
S'a1e25f78'
p348
sg21
Vldurh w1, [x21, #-2]
p349
sg5
L18446743798839844400L
sg6
Nsg23
S'LDUR'
p350
sg25
S'0xffffffc0007d1e30L'
p351
sg27
Nsba(ibclass
BInstr
p352
(dp353
g2
Nsg17
S'LDRH            W3, [X21,#0x100]'
p354
sg19
S'a3024279'
p355
sg21
Vldrh w3, [x21, #0x100]
p356
sg5
L18446743798839844404L
sg6
Nsg23
S'LDR'
p357
sg25
S'0xffffffc0007d1e34L'
p358
sg27
Nsba(ibclass
BInstr
p359
(dp360
g2
Nsg17
S'MOV             X2, X21'
p361
sg19
S'e20315aa'
p362
sg21
Vmov x2, x21
p363
sg5
L18446743798839844408L
sg6
Nsg23
S'MOV'
p364
sg25
S'0xffffffc0007d1e38L'
p365
sg27
Nsba(ibclass
BInstr
p366
(dp367
g2
Nsg17
S'MOV             X0, X19'
p368
sg19
S'e00313aa'
p369
sg21
Vmov x0, x19
p370
sg5
L18446743798839844412L
sg6
Nsg23
S'MOV'
p371
sg25
S'0xffffffc0007d1e3cL'
p372
sg27
Nsba(ibclass
BInstr
p373
(dp374
g2
Nsg17
S'BL              msm_camera_cci_i2c_write_seq'
p375
sg19
S'2bffff97'
p376
sg21
Vbl #0xfffffffffffffcac
p377
sg5
L18446743798839844416L
sg6
Nsg23
S'BL'
p378
sg25
S'0xffffffc0007d1e40L'
p379
sg27
Nsba(ibclass
BInstr
p380
(dp381
g2
Nsg17
S'MOV             W22, W0'
p382
sg19
S'f603002a'
p383
sg21
Vmov w22, w0
p384
sg5
L18446743798839844420L
sg6
Nsg23
S'MOV'
p385
sg25
S'0xffffffc0007d1e44L'
p386
sg27
Nsba(ibclass
BInstr
p387
(dp388
g2
Nsg17
S'ADD             X21, X21, #0x104'
p389
sg19
S'b5120491'
p390
sg21
Vadd x21, x21, #0x104
p391
sg5
L18446743798839844424L
sg6
Nsg23
S'ADD'
p392
sg25
S'0xffffffc0007d1e48L'
p393
sg27
Nsba(ibclass
BInstr
p394
(dp395
g2
Nsg17
S'TBNZ            W22, #0x1F, loc_FFFFFFC0007D1E98'
p396
sg19
S'7602f837'
p397
sg21
Vtbnz w22, #0x1f, #0x4c
p398
sg5
L18446743798839844428L
sg6
Nsg23
S'TBNZ'
p399
sg25
S'0xffffffc0007d1e4cL'
p400
sg27
Nsbasg77
(lp401
S'LDURH reg, mem'
p402
aS'LDRH reg, mem'
p403
aS'MOV reg, reg1'
p404
aS'MOV reg, reg9'
p405
aS'BL msm_camera_cci_i2c_write_seq'
p406
aS'MOV reg2, reg'
p407
aS'ADD reg1, reg1, #0x104'
p408
aS'TBNZ reg2, #0x1F, func'
p409
asg87
Nsg5
S'0xffffffc0007d1e30L'
p410
sg89
(lp411
S'0xffffffc0007d1e24L'
p412
asg6
Nsg91
(lp413
S'0xffffffc0007d1e50L'
p414
aS'0xffffffc0007d1e98L'
p415
asg95
Nsg96
Nsg97
S'1d484115fa95fcd6e1675b0bba3311a6'
p416
sg99
S'244dd3be86db25c4268e131bee606a34'
p417
sg101
(lp418
g350
ag357
ag364
ag371
ag378
ag385
ag392
ag399
asg103
Nsba(ibclass
BBasicBlock
p419
(dp420
g12
Nsg13
(lp421
(ibclass
BInstr
p422
(dp423
g2
Nsg17
S'ADD             W23, W23, #1'
p424
sg19
S'f7060011'
p425
sg21
Vadd w23, w23, #1
p426
sg5
L18446743798839844432L
sg6
Nsg23
S'ADD'
p427
sg25
S'0xffffffc0007d1e50L'
p428
sg27
Nsba(ibclass
BInstr
p429
(dp430
g2
Nsg17
S'B               loc_FFFFFFC0007D1E24'
p431
sg19
S'f4ffff17'
p432
sg21
Vb #0xffffffffffffffd0
p433
sg5
L18446743798839844436L
sg6
Nsg23
g170
sg25
S'0xffffffc0007d1e54L'
p434
sg27
Nsbasg77
(lp435
S'ADD reg3, reg3, #1'
p436
aS'B func'
p437
asg87
Nsg5
S'0xffffffc0007d1e50L'
p438
sg89
(lp439
S'0xffffffc0007d1e30L'
p440
asg6
Nsg91
(lp441
S'0xffffffc0007d1e24L'
p442
asg95
Nsg96
Nsg97
S'f59ed0fb4617df9a98cc94b1d7075f92'
p443
sg99
S'9861030616fa7c80f4d458221b1a2c5e'
p444
sg101
(lp445
g427
ag170
asg103
Nsba(ibclass
BBasicBlock
p446
(dp447
g12
Nsg13
(lp448
(ibclass
BInstr
p449
(dp450
g2
Nsg17
S'LDRH            W0, [X20,#0x10]'
p451
sg19
S'80224079'
p452
sg21
Vldrh w0, [x20, #0x10]
p453
sg5
L18446743798839844440L
sg6
Nsg23
S'LDR'
p454
sg25
S'0xffffffc0007d1e58L'
p455
sg27
Nsba(ibclass
BInstr
p456
(dp457
g2
Nsg17
S'CMP             W0, #0x14'
p458
sg19
S'1f500071'
p459
sg21
Vcmp w0, #0x14
p460
sg5
L18446743798839844444L
sg6
Nsg23
S'CMP'
p461
sg25
S'0xffffffc0007d1e5cL'
p462
sg27
Nsba(ibclass
BInstr
p463
(dp464
g2
Nsg17
S'B.LS            loc_FFFFFFC0007D1E6C'
p465
sg19
S'69000054'
p466
sg21
Vb.ls #0xc
p467
sg5
L18446743798839844448L
sg6
Nsg23
g170
sg25
S'0xffffffc0007d1e60L'
p468
sg27
Nsbasg77
(lp469
S'LDRH reg, mem'
p470
aS'CMP reg, #0x14'
p471
aS'B.LS func'
p472
asg87
Nsg5
S'0xffffffc0007d1e58L'
p473
sg89
(lp474
S'0xffffffc0007d1e24L'
p475
asg6
Nsg91
(lp476
S'0xffffffc0007d1e64L'
p477
aS'0xffffffc0007d1e6cL'
p478
asg95
Nsg96
Nsg97
S'fa4df767a85c49648339e2dc5c6807f6'
p479
sg99
S'408f573d17ae2f50f4ddaa134e4b3f36'
p480
sg101
(lp481
g454
ag461
ag170
asg103
Nsba(ibclass
BBasicBlock
p482
(dp483
g12
Nsg13
(lp484
(ibclass
BInstr
p485
(dp486
g2
Nsg17
S'BL              msleep'
p487
sg19
S'aa67e997'
p488
sg21
Vbl #0xffffffffffa59ea8
p489
sg5
L18446743798839844452L
sg6
Nsg23
S'BL'
p490
sg25
S'0xffffffc0007d1e64L'
p491
sg27
Nsba(ibclass
BInstr
p492
(dp493
g2
Nsg17
S'B               loc_FFFFFFC0007D1E88'
p494
sg19
S'08000014'
p495
sg21
Vb #0x20
p496
sg5
L18446743798839844456L
sg6
Nsg23
g170
sg25
S'0xffffffc0007d1e68L'
p497
sg27
Nsbasg77
(lp498
S'BL msleep'
p499
aS'B func'
p500
asg87
Nsg5
S'0xffffffc0007d1e64L'
p501
sg89
(lp502
S'0xffffffc0007d1e58L'
p503
asg6
Nsg91
(lp504
S'0xffffffc0007d1e88L'
p505
asg95
Nsg96
Nsg97
S'be97a5cc528a44f4f1daeedd1e2f20e2'
p506
sg99
S'8005f9ea591cb4fac163317e2dfd1203'
p507
sg101
(lp508
g490
ag170
asg103
Nsba(ibclass
BBasicBlock
p509
(dp510
g12
Nsg13
(lp511
(ibclass
BInstr
p512
(dp513
g2
Nsg17
S'CBZ             W0, loc_FFFFFFC0007D1E88'
p514
sg19
S'e0000034'
p515
sg21
Vcbz w0, #0x1c
p516
sg5
L18446743798839844460L
sg6
Nsg23
S'CBZ'
p517
sg25
S'0xffffffc0007d1e6cL'
p518
sg27
Nsbasg77
(lp519
S'CBZ reg, func'
p520
asg87
Nsg5
S'0xffffffc0007d1e6cL'
p521
sg89
(lp522
S'0xffffffc0007d1e58L'
p523
asg6
Nsg91
(lp524
S'0xffffffc0007d1e70L'
p525
aS'0xffffffc0007d1e88L'
p526
asg95
Nsg96
Nsg97
S'de8e361453cf9f764a4abe9d486f8fbe'
p527
sg99
S'1f44e7b7d6ea8c93b4632bf8395c86c6'
p528
sg101
(lp529
g517
asg103
Nsba(ibclass
BBasicBlock
p530
(dp531
g12
Nsg13
(lp532
(ibclass
BInstr
p533
(dp534
g2
Nsg17
S'MOV             W1, #0x3E8'
p535
sg19
S'017d8052'
p536
sg21
Vmovz w1, #0x3e8
p537
sg5
L18446743798839844464L
sg6
Nsg23
S'MOV'
p538
sg25
S'0xffffffc0007d1e70L'
p539
sg27
Nsba(ibclass
BInstr
p540
(dp541
g2
Nsg17
S'MADD            W0, W0, W1, WZR'
p542
sg19
S'007c011b'
p543
sg21
Vmul w0, w0, w1
p544
sg5
L18446743798839844468L
sg6
Nsg23
S'MADD'
p545
sg25
S'0xffffffc0007d1e74L'
p546
sg27
Nsba(ibclass
BInstr
p547
(dp548
g2
Nsg17
S'ADD             W1, W0, W1'
p549
sg19
S'0100010b'
p550
sg21
Vadd w1, w0, w1
p551
sg5
L18446743798839844472L
sg6
Nsg23
S'ADD'
p552
sg25
S'0xffffffc0007d1e78L'
p553
sg27
Nsba(ibclass
BInstr
p554
(dp555
g2
Nsg17
S'SBFM            X1, X1, #0, #0x1F'
p556
sg19
S'217c4093'
p557
sg21
Vsxtw x1, w1
p558
sg5
L18446743798839844476L
sg6
Nsg23
S'SBFM'
p559
sg25
S'0xffffffc0007d1e7cL'
p560
sg27
Nsba(ibclass
BInstr
p561
(dp562
g2
Nsg17
S'SBFM            X0, X0, #0, #0x1F'
p563
sg19
S'007c4093'
p564
sg21
Vsxtw x0, w0
p565
sg5
L18446743798839844480L
sg6
Nsg23
S'SBFM'
p566
sg25
S'0xffffffc0007d1e80L'
p567
sg27
Nsba(ibclass
BInstr
p568
(dp569
g2
Nsg17
S'BL              usleep_range'
p570
sg19
S'be67e997'
p571
sg21
Vbl #0xffffffffffa59ef8
p572
sg5
L18446743798839844484L
sg6
Nsg23
S'BL'
p573
sg25
S'0xffffffc0007d1e84L'
p574
sg27
Nsbasg77
(lp575
S'MOV reg, #0x3E8'
p576
aS'MADD reg, reg, reg, WZR'
p577
aS'ADD reg, reg, reg'
p578
aS'SBFM reg, reg, #0, #0x1F'
p579
aS'SBFM reg, reg, #0, #0x1F'
p580
aS'BL usleep_range'
p581
asg87
Nsg5
S'0xffffffc0007d1e70L'
p582
sg89
(lp583
S'0xffffffc0007d1e6cL'
p584
asg6
Nsg91
(lp585
S'0xffffffc0007d1e88L'
p586
asg95
Nsg96
Nsg97
S'1f871f59baea397a42f4087a602c3d54'
p587
sg99
S'b9418005a0a4a98e298579e5dfbb4632'
p588
sg101
(lp589
g538
ag545
ag552
ag559
ag566
ag573
asg103
Nsba(ibclass
BBasicBlock
p590
(dp591
g12
Nsg13
(lp592
(ibclass
BInstr
p593
(dp594
g2
Nsg17
S'AND             W24, W24, #0xFFFF'
p595
sg19
S'183f0012'
p596
sg21
Vand w24, w24, #0xffff
p597
sg5
L18446743798839844488L
sg6
Nsg23
S'AND'
p598
sg25
S'0xffffffc0007d1e88L'
p599
sg27
Nsba(ibclass
BInstr
p600
(dp601
g2
Nsg17
S'STR             W24, [X19,#0x20]'
p602
sg19
S'782200b9'
p603
sg21
Vstr w24, [x19, #0x20]
p604
sg5
L18446743798839844492L
sg6
Nsg23
S'STR'
p605
sg25
S'0xffffffc0007d1e8cL'
p606
sg27
Nsba(ibclass
BInstr
p607
(dp608
g2
Nsg17
S'B               loc_FFFFFFC0007D1E98'
p609
sg19
S'02000014'
p610
sg21
Vb #8
p611
sg5
L18446743798839844496L
sg6
Nsg23
g170
sg25
S'0xffffffc0007d1e90L'
p612
sg27
Nsbasg77
(lp613
S'AND reg4, reg4, #0xFFFF'
p614
aS'STR reg4, mem'
p615
aS'B func'
p616
asg87
Nsg5
S'0xffffffc0007d1e88L'
p617
sg89
(lp618
S'0xffffffc0007d1e64L'
p619
aS'0xffffffc0007d1e6cL'
p620
aS'0xffffffc0007d1e70L'
p621
asg6
Nsg91
(lp622
S'0xffffffc0007d1e98L'
p623
asg95
Nsg96
Nsg97
S'27095b987d9b3e96045562cff6a17614'
p624
sg99
S'32401ca782001eed85a6ba74b2ea051d'
p625
sg101
(lp626
g598
ag605
ag170
asg103
Nsba(ibclass
BBasicBlock
p627
(dp628
g12
Nsg13
(lp629
(ibclass
BInstr
p630
(dp631
g2
Nsg17
S'MOV             W22, #0xFFFFFFF2'
p632
sg19
S'b6018012'
p633
sg21
Vmovn w22, #0xd
p634
sg5
L18446743798839844500L
sg6
Nsg23
S'MOV'
p635
sg25
S'0xffffffc0007d1e94L'
p636
sg27
Nsbasg77
(lp637
S'MOV reg2, #0xFFFFFFF2'
p638
asg87
Nsg5
S'0xffffffc0007d1e94L'
p639
sg89
(lp640
S'0xffffffc0007d1db8L'
p641
aS'0xffffffc0007d1dd8L'
p642
aS'0xffffffc0007d1df4L'
p643
asg6
Nsg91
(lp644
S'0xffffffc0007d1e98L'
p645
asg95
Nsg96
Nsg97
S'17b32100aef1fc19670be7fd58bc85df'
p646
sg99
S'8a55ba7e14ff07d233888fd5ca9f06be'
p647
sg101
(lp648
g635
asg103
Nsba(ibclass
BBasicBlock
p649
(dp650
g12
Nsg13
(lp651
(ibclass
BInstr
p652
(dp653
g2
Nsg17
S'MOV             W0, W22'
p654
sg19
S'e003162a'
p655
sg21
Vmov w0, w22
p656
sg5
L18446743798839844504L
sg6
Nsg23
S'MOV'
p657
sg25
S'0xffffffc0007d1e98L'
p658
sg27
Nsba(ibclass
BInstr
p659
(dp660
g2
Nsg17
S'LDP             X19, X20, [SP,#0x30+var_20]'
p661
sg19
S'f35341a9'
p662
sg21
Vldp x19, x20, [sp, #0x10]
p663
sg5
L18446743798839844508L
sg6
Nsg23
S'LDP'
p664
sg25
S'0xffffffc0007d1e9cL'
p665
sg27
Nsba(ibclass
BInstr
p666
(dp667
g2
Nsg17
S'LDP             X21, X22, [SP,#0x30+var_10]'
p668
sg19
S'f55b42a9'
p669
sg21
Vldp x21, x22, [sp, #0x20]
p670
sg5
L18446743798839844512L
sg6
Nsg23
S'LDP'
p671
sg25
S'0xffffffc0007d1ea0L'
p672
sg27
Nsba(ibclass
BInstr
p673
(dp674
g2
Nsg17
S'LDP             X23, X24, [SP,#0x30+var_s0]'
p675
sg19
S'f76343a9'
p676
sg21
Vldp x23, x24, [sp, #0x30]
p677
sg5
L18446743798839844516L
sg6
Nsg23
S'LDP'
p678
sg25
S'0xffffffc0007d1ea4L'
p679
sg27
Nsba(ibclass
BInstr
p680
(dp681
g2
Nsg17
S'LDP             X29, X30, [SP+0x30+var_30],#0x40'
p682
sg19
S'fd7bc4a8'
p683
sg21
Vldp x29, x30, [sp], #0x40
p684
sg5
L18446743798839844520L
sg6
Nsg23
S'LDP'
p685
sg25
S'0xffffffc0007d1ea8L'
p686
sg27
Nsba(ibclass
BInstr
p687
(dp688
g2
Nsg17
S'RET'
p689
sg19
S'c0035fd6'
p690
sg21
Vret 
p691
sg5
L18446743798839844524L
sg6
Nsg23
S'RET'
p692
sg25
S'0xffffffc0007d1eacL'
p693
sg27
Nsbasg77
(lp694
S'MOV reg, reg2'
p695
aS'LDP reg9, reg0, mem'
p696
aS'LDP reg1, reg2, mem'
p697
aS'LDP reg3, reg4, mem'
p698
aS'LDP reg9, reg0, mem,#0x40'
p699
ag689
asg87
Nsg5
S'0xffffffc0007d1e98L'
p700
sg89
(lp701
S'0xffffffc0007d1e30L'
p702
aS'0xffffffc0007d1e88L'
p703
aS'0xffffffc0007d1e94L'
p704
asg6
Nsg91
(lp705
sg95
Nsg96
Nsg97
S'f4de5cb19e967cb6f069fe53d982556d'
p706
sg99
S'5e90a845778647fb2938877820b41f94'
p707
sg101
(lp708
g657
ag664
ag671
ag678
ag685
ag692
asg103
Nsbasb.