(ibclass
BFunc
p0
(dp1
S'hash'
p2
NsS'name'
p3
S'msm_comm_get_pixel_fmt_fourcc'
p4
sS'start_address'
p5
L18446743798839618288L
sS'flag'
p6
NsS'program'
p7
NsS'bbs'
p8
(lp9
(ibclass
BBasicBlock
p10
(dp11
S'function'
p12
NsS'binstrs'
p13
(lp14
(ibclass
BInstr
p15
(dp16
g2
NsS'disasm'
p17
S'STP             X29, X30, [SP,#-0x10+var_10]!'
p18
sS'bytes'
p19
S'fd7bbea9'
p20
sS'disasm_striped'
p21
Vstp x29, x30, [sp, #-0x20]!
p22
sg5
L18446743798839618288L
sg6
NsS'mnem'
p23
S'STP'
p24
sS'address'
p25
S'0xffffffc00079aaf0L'
p26
sS'basicblock'
p27
Nsba(ibclass
BInstr
p28
(dp29
g2
Nsg17
S'MOV             X29, SP'
p30
sg19
S'fd030091'
p31
sg21
Vmov x29, sp
p32
sg5
L18446743798839618292L
sg6
Nsg23
S'MOV'
p33
sg25
S'0xffffffc00079aaf4L'
p34
sg27
Nsba(ibclass
BInstr
p35
(dp36
g2
Nsg17
S'STR             X19, [SP,#0x10+var_s0]'
p37
sg19
S'f30b00f9'
p38
sg21
Vstr x19, [sp, #0x10]
p39
sg5
L18446743798839618296L
sg6
Nsg23
S'STR'
p40
sg25
S'0xffffffc00079aaf8L'
p41
sg27
Nsba(ibclass
BInstr
p42
(dp43
g2
Nsg17
S'CBZ             X0, loc_FFFFFFC00079AB0C'
p44
sg19
S'800000b4'
p45
sg21
Vcbz x0, #0x10
p46
sg5
L18446743798839618300L
sg6
Nsg23
S'CBZ'
p47
sg25
S'0xffffffc00079aafcL'
p48
sg27
NsbasS'disasm_list'
p49
(lp50
S'STP reg9, reg0, mem!'
p51
aS'MOV reg9, SP'
p52
aS'STR reg9, mem'
p53
aS'CBZ reg, func'
p54
asS'end_address'
p55
Nsg5
S'0xffffffc00079aaf0L'
p56
sS'preds'
p57
(lp58
sg6
NsS'succs'
p59
(lp60
S'0xffffffc00079ab00L'
p61
aS'0xffffffc00079ab0cL'
p62
asS'hash_v3'
p63
NsS'flag_v2'
p64
NsS'hash_v1'
p65
S'a0ec039e831edb83b3c233805b01e119'
p66
sS'hash_v2'
p67
S'ec3ed769de3f6a3b902405679c6db4de'
p68
sS'mnen_list'
p69
(lp70
g24
ag33
ag40
ag47
asS'neighbour_disasm_list'
p71
Nsba(ibclass
BBasicBlock
p72
(dp73
g12
Nsg13
(lp74
(ibclass
BInstr
p75
(dp76
g2
Nsg17
S'MOV             X3, #0'
p77
sg19
S'030080d2'
p78
sg21
Vmovz x3, #0
p79
sg5
L18446743798839618304L
sg6
Nsg23
S'MOV'
p80
sg25
S'0xffffffc00079ab00L'
p81
sg27
Nsba(ibclass
BInstr
p82
(dp83
g2
Nsg17
S'MOV             X5, #0x78'
p84
sg19
S'050f80d2'
p85
sg21
Vmovz x5, #0x78
p86
sg5
L18446743798839618308L
sg6
Nsg23
S'MOV'
p87
sg25
S'0xffffffc00079ab04L'
p88
sg27
Nsba(ibclass
BInstr
p89
(dp90
g2
Nsg17
S'B               loc_FFFFFFC00079AB60'
p91
sg19
S'16000014'
p92
sg21
Vb #0x58
p93
sg5
L18446743798839618312L
sg6
Nsg23
S'B'
p94
sg25
S'0xffffffc00079ab08L'
p95
sg27
Nsbasg49
(lp96
S'MOV reg, #0'
p97
aS'MOV reg, #0x78'
p98
aS'B func'
p99
asg55
Nsg5
S'0xffffffc00079ab00L'
p100
sg57
(lp101
S'0xffffffc00079aaf0L'
p102
asg6
Nsg59
(lp103
S'0xffffffc00079ab60L'
p104
asg63
Nsg64
Nsg65
S'7391dd723071525ee502f0c2742c56af'
p105
sg67
S'76dd56cfe7e855abfe2762e624241e9b'
p106
sg69
(lp107
g80
ag87
ag94
asg71
Nsba(ibclass
BBasicBlock
p108
(dp109
g12
Nsg13
(lp110
(ibclass
BInstr
p111
(dp112
g2
Nsg17
S'ADRP            X1, #qword_FFFFFFC000E458A0@PAGE'
p113
sg19
S'413500f0'
p114
sg21
Vadrp x1, #0x6ab000
p115
sg5
L18446743798839618316L
sg6
Nsg23
S'ADRP'
p116
sg25
S'0xffffffc00079ab0cL'
p117
sg27
Nsba(ibclass
BInstr
p118
(dp119
g2
Nsg17
S'LDR             X1, [X1,#qword_FFFFFFC000E458A0@PAGEOFF]'
p120
sg19
S'215044f9'
p121
sg21
Vldr x1, [x1, #0x8a0]
p122
sg5
L18446743798839618320L
sg6
Nsg23
S'LDR'
p123
sg25
S'0xffffffc00079ab10L'
p124
sg27
Nsba(ibclass
BInstr
p125
(dp126
g2
Nsg17
S'LDR             W1, [X1]'
p127
sg19
S'210040b9'
p128
sg21
Vldr w1, [x1]
p129
sg5
L18446743798839618324L
sg6
Nsg23
S'LDR'
p130
sg25
S'0xffffffc00079ab14L'
p131
sg27
Nsba(ibclass
BInstr
p132
(dp133
g2
Nsg17
S'TBZ             W1, #0, loc_FFFFFFC00079ABBC'
p134
sg19
S'21050036'
p135
sg21
Vtbz w1, #0, #0xa4
p136
sg5
L18446743798839618328L
sg6
Nsg23
S'TBZ'
p137
sg25
S'0xffffffc00079ab18L'
p138
sg27
Nsbasg49
(lp139
S'ADRP reg, #func@PAGE'
p140
aS'LDR reg, mem'
p141
aS'LDR reg, mem'
p142
aS'TBZ reg, #0, func'
p143
asg55
Nsg5
S'0xffffffc00079ab0cL'
p144
sg57
(lp145
S'0xffffffc00079aaf0L'
p146
asg6
Nsg59
(lp147
S'0xffffffc00079ab1cL'
p148
aS'0xffffffc00079abbcL'
p149
asg63
Nsg64
Nsg65
S'2de94c9e326481f2f467f11acce8dcc9'
p150
sg67
S'f9f7225e2bae36aff04e5d93bafe5e1d'
p151
sg69
(lp152
g116
ag123
ag130
ag137
asg71
Nsba(ibclass
BBasicBlock
p153
(dp154
g12
Nsg13
(lp155
(ibclass
BInstr
p156
(dp157
g2
Nsg17
S'ADRP            X1, #qword_FFFFFFC000E43D48@PAGE'
p158
sg19
S'413500b0'
p159
sg21
Vadrp x1, #0x6a9000
p160
sg5
L18446743798839618332L
sg6
Nsg23
S'ADRP'
p161
sg25
S'0xffffffc00079ab1cL'
p162
sg27
Nsba(ibclass
BInstr
p163
(dp164
g2
Nsg17
S'LDR             X1, [X1,#qword_FFFFFFC000E43D48@PAGEOFF]'
p165
sg19
S'21a446f9'
p166
sg21
Vldr x1, [x1, #0xd48]
p167
sg5
L18446743798839618336L
sg6
Nsg23
S'LDR'
p168
sg25
S'0xffffffc00079ab20L'
p169
sg27
Nsba(ibclass
BInstr
p170
(dp171
g2
Nsg17
S'MOV             X19, X0'
p172
sg19
S'f30300aa'
p173
sg21
Vmov x19, x0
p174
sg5
L18446743798839618340L
sg6
Nsg23
S'MOV'
p175
sg25
S'0xffffffc00079ab24L'
p176
sg27
Nsba(ibclass
BInstr
p177
(dp178
g2
Nsg17
S'LDR             W1, [X1]'
p179
sg19
S'210040b9'
p180
sg21
Vldr w1, [x1]
p181
sg5
L18446743798839618344L
sg6
Nsg23
S'LDR'
p182
sg25
S'0xffffffc00079ab28L'
p183
sg27
Nsba(ibclass
BInstr
p184
(dp185
g2
Nsg17
S'CBNZ            W1, loc_FFFFFFC00079ABC8'
p186
sg19
S'e1040035'
p187
sg21
Vcbnz w1, #0x9c
p188
sg5
L18446743798839618348L
sg6
Nsg23
S'CBNZ'
p189
sg25
S'0xffffffc00079ab2cL'
p190
sg27
Nsbasg49
(lp191
S'ADRP reg, #func@PAGE'
p192
aS'LDR reg, mem'
p193
aS'MOV reg9, reg'
p194
aS'LDR reg, mem'
p195
aS'CBNZ reg, func'
p196
asg55
Nsg5
S'0xffffffc00079ab1cL'
p197
sg57
(lp198
S'0xffffffc00079ab0cL'
p199
asg6
Nsg59
(lp200
S'0xffffffc00079ab30L'
p201
aS'0xffffffc00079abc8L'
p202
asg63
Nsg64
Nsg65
S'd80cc6d531f24a5b2d60307977d236c7'
p203
sg67
S'd4ce1f39a7dcca0cbc6138eda5878f62'
p204
sg69
(lp205
g161
ag168
ag175
ag182
ag189
asg71
Nsba(ibclass
BBasicBlock
p206
(dp207
g12
Nsg13
(lp208
(ibclass
BInstr
p209
(dp210
g2
Nsg17
S'ADRP            X0, #unk_FFFFFFC0013B6207@PAGE'
p211
sg19
S'e0600090'
p212
sg21
Vadrp x0, #0xc1c000
p213
sg5
L18446743798839618352L
sg6
Nsg23
S'ADRP'
p214
sg25
S'0xffffffc00079ab30L'
p215
sg27
Nsba(ibclass
BInstr
p216
(dp217
g2
Nsg17
S'ADRP            X1, #(aQcomMdssDsi_17+0x1B)@PAGE; "err"'
p218
sg19
S'a15c00b0'
p219
sg21
Vadrp x1, #0xb95000
p220
sg5
L18446743798839618356L
sg6
Nsg23
S'ADRP'
p221
sg25
S'0xffffffc00079ab34L'
p222
sg27
Nsba(ibclass
BInstr
p223
(dp224
g2
Nsg17
S'ADD             X1, X1, #(aQcomMdssDsi_17+0x1B)@PAGEOFF; "err"'
p225
sg19
S'21800091'
p226
sg21
Vadd x1, x1, #0x20
p227
sg5
L18446743798839618360L
sg6
Nsg23
S'ADD'
p228
sg25
S'0xffffffc00079ab38L'
p229
sg27
Nsba(ibclass
BInstr
p230
(dp231
g2
Nsg17
S'MOV             X2, X19'
p232
sg19
S'e20313aa'
p233
sg21
Vmov x2, x19
p234
sg5
L18446743798839618364L
sg6
Nsg23
S'MOV'
p235
sg25
S'0xffffffc00079ab3cL'
p236
sg27
Nsba(ibclass
BInstr
p237
(dp238
g2
Nsg17
S'ADD             X0, X0, #unk_FFFFFFC0013B6207@PAGEOFF'
p239
sg19
S'001c0891'
p240
sg21
Vadd x0, x0, #0x207
p241
sg5
L18446743798839618368L
sg6
Nsg23
S'ADD'
p242
sg25
S'0xffffffc00079ab40L'
p243
sg27
Nsba(ibclass
BInstr
p244
(dp245
g2
Nsg17
S'BL              printk'
p246
sg19
S'c94f1a94'
p247
sg21
Vbl #0x693f24
p248
sg5
L18446743798839618372L
sg6
Nsg23
S'BL'
p249
sg25
S'0xffffffc00079ab44L'
p250
sg27
Nsba(ibclass
BInstr
p251
(dp252
g2
Nsg17
S'B               loc_FFFFFFC00079ABC8'
p253
sg19
S'20000014'
p254
sg21
Vb #0x80
p255
sg5
L18446743798839618376L
sg6
Nsg23
g94
sg25
S'0xffffffc00079ab48L'
p256
sg27
Nsbasg49
(lp257
S'ADRP reg, #func@PAGE'
p258
aS'ADRP reg, #(aQcomMdssDsi_17+0x1B)@PAGE'
p259
aS'ADD reg, reg, #(aQcomMdssDsi_17+0x1B)@PAGEOFF'
p260
aS'MOV reg, reg9'
p261
aS'ADD reg, reg, #func@PAGEOFF'
p262
aS'BL printk'
p263
aS'B func'
p264
asg55
Nsg5
S'0xffffffc00079ab30L'
p265
sg57
(lp266
S'0xffffffc00079ab1cL'
p267
asg6
Nsg59
(lp268
S'0xffffffc00079abc8L'
p269
asg63
Nsg64
Nsg65
S'ff7f44466e74267aa9d96fda41da35ba'
p270
sg67
S'ce8cadf5efd001b9bcf49855903a28a2'
p271
sg69
(lp272
g214
ag221
ag228
ag235
ag242
ag249
ag94
asg71
Nsba(ibclass
BBasicBlock
p273
(dp274
g12
Nsg13
(lp275
(ibclass
BInstr
p276
(dp277
g2
Nsg17
S'MADD            X6, X3, X5, X0'
p278
sg19
S'6600059b'
p279
sg21
Vmadd x6, x3, x5, x0
p280
sg5
L18446743798839618380L
sg6
Nsg23
S'MADD'
p281
sg25
S'0xffffffc00079ab4cL'
p282
sg27
Nsba(ibclass
BInstr
p283
(dp284
g2
Nsg17
S'LDR             W6, [X6,#0x60]'
p285
sg19
S'c66040b9'
p286
sg21
Vldr w6, [x6, #0x60]
p287
sg5
L18446743798839618384L
sg6
Nsg23
S'LDR'
p288
sg25
S'0xffffffc00079ab50L'
p289
sg27
Nsba(ibclass
BInstr
p290
(dp291
g2
Nsg17
S'ADD             X3, X3, #1'
p292
sg19
S'63040091'
p293
sg21
Vadd x3, x3, #1
p294
sg5
L18446743798839618388L
sg6
Nsg23
S'ADD'
p295
sg25
S'0xffffffc00079ab54L'
p296
sg27
Nsba(ibclass
BInstr
p297
(dp298
g2
Nsg17
S'CMP             W6, W2'
p299
sg19
S'df00026b'
p300
sg21
Vcmp w6, w2
p301
sg5
L18446743798839618392L
sg6
Nsg23
S'CMP'
p302
sg25
S'0xffffffc00079ab58L'
p303
sg27
Nsba(ibclass
BInstr
p304
(dp305
g2
Nsg17
S'B.EQ            loc_FFFFFFC00079AB6C'
p306
sg19
S'80000054'
p307
sg21
Vb.eq #0x10
p308
sg5
L18446743798839618396L
sg6
Nsg23
g94
sg25
S'0xffffffc00079ab5cL'
p309
sg27
Nsbasg49
(lp310
S'MADD reg, reg, reg, reg'
p311
aS'LDR reg, mem'
p312
aS'ADD reg, reg, #1'
p313
aS'CMP reg, reg'
p314
aS'B.EQ func'
p315
asg55
Nsg5
S'0xffffffc00079ab4cL'
p316
sg57
(lp317
S'0xffffffc00079ab60L'
p318
asg6
Nsg59
(lp319
S'0xffffffc00079ab60L'
p320
aS'0xffffffc00079ab6cL'
p321
asg63
Nsg64
Nsg65
S'5cc18ab01bf4c6f05a5db6b31f8f35a3'
p322
sg67
S'3bc4a21f321bbd10422a96abd43b1a0a'
p323
sg69
(lp324
g281
ag288
ag295
ag302
ag94
asg71
Nsba(ibclass
BBasicBlock
p325
(dp326
g12
Nsg13
(lp327
(ibclass
BInstr
p328
(dp329
g2
Nsg17
S'CMP             W3, W1'
p330
sg19
S'7f00016b'
p331
sg21
Vcmp w3, w1
p332
sg5
L18446743798839618400L
sg6
Nsg23
S'CMP'
p333
sg25
S'0xffffffc00079ab60L'
p334
sg27
Nsba(ibclass
BInstr
p335
(dp336
g2
Nsg17
S'MOV             W4, W3'
p337
sg19
S'e403032a'
p338
sg21
Vmov w4, w3
p339
sg5
L18446743798839618404L
sg6
Nsg23
S'MOV'
p340
sg25
S'0xffffffc00079ab64L'
p341
sg27
Nsba(ibclass
BInstr
p342
(dp343
g2
Nsg17
S'B.LT            loc_FFFFFFC00079AB4C'
p344
sg19
S'2bffff54'
p345
sg21
Vb.lt #0xffffffffffffffe4
p346
sg5
L18446743798839618408L
sg6
Nsg23
g94
sg25
S'0xffffffc00079ab68L'
p347
sg27
Nsbasg49
(lp348
S'CMP reg, reg'
p349
aS'MOV reg, reg'
p350
aS'B.LT func'
p351
asg55
Nsg5
S'0xffffffc00079ab60L'
p352
sg57
(lp353
S'0xffffffc00079ab00L'
p354
aS'0xffffffc00079ab4cL'
p355
asg6
Nsg59
(lp356
S'0xffffffc00079ab4cL'
p357
aS'0xffffffc00079ab6cL'
p358
asg63
Nsg64
Nsg65
S'e8df9ba4cde3984b4ab59d5bb6791e02'
p359
sg67
S'580579e3a228dad7eb6af049e67ea2a7'
p360
sg69
(lp361
g333
ag340
ag94
asg71
Nsba(ibclass
BBasicBlock
p362
(dp363
g12
Nsg13
(lp364
(ibclass
BInstr
p365
(dp366
g2
Nsg17
S'CMP             W4, W1'
p367
sg19
S'9f00016b'
p368
sg21
Vcmp w4, w1
p369
sg5
L18446743798839618412L
sg6
Nsg23
S'CMP'
p370
sg25
S'0xffffffc00079ab6cL'
p371
sg27
Nsba(ibclass
BInstr
p372
(dp373
g2
Nsg17
S'B.NE            loc_FFFFFFC00079ABB0'
p374
sg19
S'01020054'
p375
sg21
Vb.ne #0x40
p376
sg5
L18446743798839618416L
sg6
Nsg23
g94
sg25
S'0xffffffc00079ab70L'
p377
sg27
Nsbasg49
(lp378
S'CMP reg, reg'
p379
aS'B.NE func'
p380
asg55
Nsg5
S'0xffffffc00079ab6cL'
p381
sg57
(lp382
S'0xffffffc00079ab4cL'
p383
aS'0xffffffc00079ab60L'
p384
asg6
Nsg59
(lp385
S'0xffffffc00079ab74L'
p386
aS'0xffffffc00079abb0L'
p387
asg63
Nsg64
Nsg65
S'c78fd620a449e3c979d3f3ec12d4ee88'
p388
sg67
S'540ee9ce1e0ac85e4f670464eda924b3'
p389
sg69
(lp390
g370
ag94
asg71
Nsba(ibclass
BBasicBlock
p391
(dp392
g12
Nsg13
(lp393
(ibclass
BInstr
p394
(dp395
g2
Nsg17
S'ADRP            X0, #qword_FFFFFFC000E458A0@PAGE'
p396
sg19
S'403500f0'
p397
sg21
Vadrp x0, #0x6ab000
p398
sg5
L18446743798839618420L
sg6
Nsg23
S'ADRP'
p399
sg25
S'0xffffffc00079ab74L'
p400
sg27
Nsba(ibclass
BInstr
p401
(dp402
g2
Nsg17
S'LDR             X0, [X0,#qword_FFFFFFC000E458A0@PAGEOFF]'
p403
sg19
S'005044f9'
p404
sg21
Vldr x0, [x0, #0x8a0]
p405
sg5
L18446743798839618424L
sg6
Nsg23
S'LDR'
p406
sg25
S'0xffffffc00079ab78L'
p407
sg27
Nsba(ibclass
BInstr
p408
(dp409
g2
Nsg17
S'LDR             W0, [X0]'
p410
sg19
S'000040b9'
p411
sg21
Vldr w0, [x0]
p412
sg5
L18446743798839618428L
sg6
Nsg23
S'LDR'
p413
sg25
S'0xffffffc00079ab7cL'
p414
sg27
Nsba(ibclass
BInstr
p415
(dp416
g2
Nsg17
S'TBZ             W0, #2, loc_FFFFFFC00079ABC4'
p417
sg19
S'20021036'
p418
sg21
Vtbz w0, #2, #0x44
p419
sg5
L18446743798839618432L
sg6
Nsg23
S'TBZ'
p420
sg25
S'0xffffffc00079ab80L'
p421
sg27
Nsbasg49
(lp422
S'ADRP reg, #func@PAGE'
p423
aS'LDR reg, mem'
p424
aS'LDR reg, mem'
p425
aS'TBZ reg, #2, func'
p426
asg55
Nsg5
S'0xffffffc00079ab74L'
p427
sg57
(lp428
S'0xffffffc00079ab6cL'
p429
asg6
Nsg59
(lp430
S'0xffffffc00079ab84L'
p431
aS'0xffffffc00079abc4L'
p432
asg63
Nsg64
Nsg65
S'2de94c9e326481f2f467f11acce8dcc9'
p433
sg67
S'3804d876f2352d338a315acfdd643f15'
p434
sg69
(lp435
g399
ag406
ag413
ag420
asg71
Nsba(ibclass
BBasicBlock
p436
(dp437
g12
Nsg13
(lp438
(ibclass
BInstr
p439
(dp440
g2
Nsg17
S'ADRP            X0, #qword_FFFFFFC000E43D48@PAGE'
p441
sg19
S'403500b0'
p442
sg21
Vadrp x0, #0x6a9000
p443
sg5
L18446743798839618436L
sg6
Nsg23
S'ADRP'
p444
sg25
S'0xffffffc00079ab84L'
p445
sg27
Nsba(ibclass
BInstr
p446
(dp447
g2
Nsg17
S'LDR             X0, [X0,#qword_FFFFFFC000E43D48@PAGEOFF]'
p448
sg19
S'00a446f9'
p449
sg21
Vldr x0, [x0, #0xd48]
p450
sg5
L18446743798839618440L
sg6
Nsg23
S'LDR'
p451
sg25
S'0xffffffc00079ab88L'
p452
sg27
Nsba(ibclass
BInstr
p453
(dp454
g2
Nsg17
S'MOV             X19, #0'
p455
sg19
S'130080d2'
p456
sg21
Vmovz x19, #0
p457
sg5
L18446743798839618444L
sg6
Nsg23
S'MOV'
p458
sg25
S'0xffffffc00079ab8cL'
p459
sg27
Nsba(ibclass
BInstr
p460
(dp461
g2
Nsg17
S'LDR             W0, [X0]'
p462
sg19
S'000040b9'
p463
sg21
Vldr w0, [x0]
p464
sg5
L18446743798839618448L
sg6
Nsg23
S'LDR'
p465
sg25
S'0xffffffc00079ab90L'
p466
sg27
Nsba(ibclass
BInstr
p467
(dp468
g2
Nsg17
S'CBNZ            W0, loc_FFFFFFC00079ABC8'
p469
sg19
S'a0010035'
p470
sg21
Vcbnz w0, #0x34
p471
sg5
L18446743798839618452L
sg6
Nsg23
S'CBNZ'
p472
sg25
S'0xffffffc00079ab94L'
p473
sg27
Nsbasg49
(lp474
S'ADRP reg, #func@PAGE'
p475
aS'LDR reg, mem'
p476
aS'MOV reg9, #0'
p477
aS'LDR reg, mem'
p478
aS'CBNZ reg, func'
p479
asg55
Nsg5
S'0xffffffc00079ab84L'
p480
sg57
(lp481
S'0xffffffc00079ab74L'
p482
asg6
Nsg59
(lp483
S'0xffffffc00079ab98L'
p484
aS'0xffffffc00079abc8L'
p485
asg63
Nsg64
Nsg65
S'd80cc6d531f24a5b2d60307977d236c7'
p486
sg67
S'ea76a59f29ab8e93dd3b835600e7dc93'
p487
sg69
(lp488
g444
ag451
ag458
ag465
ag472
asg71
Nsba(ibclass
BBasicBlock
p489
(dp490
g12
Nsg13
(lp491
(ibclass
BInstr
p492
(dp493
g2
Nsg17
S'ADRP            X0, #unk_FFFFFFC0013B61E4@PAGE'
p494
sg19
S'e0600090'
p495
sg21
Vadrp x0, #0xc1c000
p496
sg5
L18446743798839618456L
sg6
Nsg23
S'ADRP'
p497
sg25
S'0xffffffc00079ab98L'
p498
sg27
Nsba(ibclass
BInstr
p499
(dp500
g2
Nsg17
S'ADRP            X1, #aInfo@PAGE; "info"'
p501
sg19
S'c15e00b0'
p502
sg21
Vadrp x1, #0xbd9000
p503
sg5
L18446743798839618460L
sg6
Nsg23
S'ADRP'
p504
sg25
S'0xffffffc00079ab9cL'
p505
sg27
Nsba(ibclass
BInstr
p506
(dp507
g2
Nsg17
S'ADD             X1, X1, #aInfo@PAGEOFF; "info"'
p508
sg19
S'217c0991'
p509
sg21
Vadd x1, x1, #0x25f
p510
sg5
L18446743798839618464L
sg6
Nsg23
S'ADD'
p511
sg25
S'0xffffffc00079aba0L'
p512
sg27
Nsba(ibclass
BInstr
p513
(dp514
g2
Nsg17
S'ADD             X0, X0, #unk_FFFFFFC0013B61E4@PAGEOFF'
p515
sg19
S'00900791'
p516
sg21
Vadd x0, x0, #0x1e4
p517
sg5
L18446743798839618468L
sg6
Nsg23
S'ADD'
p518
sg25
S'0xffffffc00079aba4L'
p519
sg27
Nsba(ibclass
BInstr
p520
(dp521
g2
Nsg17
S'BL              printk'
p522
sg19
S'b04f1a94'
p523
sg21
Vbl #0x693ec0
p524
sg5
L18446743798839618472L
sg6
Nsg23
S'BL'
p525
sg25
S'0xffffffc00079aba8L'
p526
sg27
Nsba(ibclass
BInstr
p527
(dp528
g2
Nsg17
S'B               loc_FFFFFFC00079ABC8'
p529
sg19
S'07000014'
p530
sg21
Vb #0x1c
p531
sg5
L18446743798839618476L
sg6
Nsg23
g94
sg25
S'0xffffffc00079abacL'
p532
sg27
Nsbasg49
(lp533
S'ADRP reg, #func@PAGE'
p534
aS'ADRP reg, #aInfo@PAGE'
p535
aS'ADD reg, reg, #aInfo@PAGEOFF'
p536
aS'ADD reg, reg, #func@PAGEOFF'
p537
aS'BL printk'
p538
aS'B func'
p539
asg55
Nsg5
S'0xffffffc00079ab98L'
p540
sg57
(lp541
S'0xffffffc00079ab84L'
p542
asg6
Nsg59
(lp543
S'0xffffffc00079abc8L'
p544
asg63
Nsg64
Nsg65
S'b2a3927201f2643e37e238d870ced3c2'
p545
sg67
S'a889cc12cd570e572d0c0f1e966f615f'
p546
sg69
(lp547
g497
ag504
ag511
ag518
ag525
ag94
asg71
Nsba(ibclass
BBasicBlock
p548
(dp549
g12
Nsg13
(lp550
(ibclass
BInstr
p551
(dp552
g2
Nsg17
S'MOV             W19, #0x78'
p553
sg19
S'130f8052'
p554
sg21
Vmovz w19, #0x78
p555
sg5
L18446743798839618480L
sg6
Nsg23
S'MOV'
p556
sg25
S'0xffffffc00079abb0L'
p557
sg27
Nsba(ibclass
BInstr
p558
(dp559
g2
Nsg17
S'SMADDL          X19, W4, W19, X0'
p560
sg19
S'9300339b'
p561
sg21
Vsmaddl x19, w4, w19, x0
p562
sg5
L18446743798839618484L
sg6
Nsg23
S'SMADDL'
p563
sg25
S'0xffffffc00079abb4L'
p564
sg27
Nsba(ibclass
BInstr
p565
(dp566
g2
Nsg17
S'B               loc_FFFFFFC00079ABC8'
p567
sg19
S'04000014'
p568
sg21
Vb #0x10
p569
sg5
L18446743798839618488L
sg6
Nsg23
g94
sg25
S'0xffffffc00079abb8L'
p570
sg27
Nsbasg49
(lp571
S'MOV reg9, #0x78'
p572
aS'SMADDL reg9, reg, reg9, reg'
p573
aS'B func'
p574
asg55
Nsg5
S'0xffffffc00079abb0L'
p575
sg57
(lp576
S'0xffffffc00079ab6cL'
p577
asg6
Nsg59
(lp578
S'0xffffffc00079abc8L'
p579
asg63
Nsg64
Nsg65
S'e0810f87982ff2b501b90664a54ca702'
p580
sg67
S'b7fa608ebdb2d74f3f37dec689c8e0d0'
p581
sg69
(lp582
g556
ag563
ag94
asg71
Nsba(ibclass
BBasicBlock
p583
(dp584
g12
Nsg13
(lp585
(ibclass
BInstr
p586
(dp587
g2
Nsg17
S'MOV             X19, X0'
p588
sg19
S'f30300aa'
p589
sg21
Vmov x19, x0
p590
sg5
L18446743798839618492L
sg6
Nsg23
S'MOV'
p591
sg25
S'0xffffffc00079abbcL'
p592
sg27
Nsba(ibclass
BInstr
p593
(dp594
g2
Nsg17
S'B               loc_FFFFFFC00079ABC8'
p595
sg19
S'02000014'
p596
sg21
Vb #8
p597
sg5
L18446743798839618496L
sg6
Nsg23
g94
sg25
S'0xffffffc00079abc0L'
p598
sg27
Nsbasg49
(lp599
S'MOV reg9, reg'
p600
aS'B func'
p601
asg55
Nsg5
S'0xffffffc00079abbcL'
p602
sg57
(lp603
S'0xffffffc00079ab0cL'
p604
asg6
Nsg59
(lp605
S'0xffffffc00079abc8L'
p606
asg63
Nsg64
Nsg65
S'b6c4e95ccfe77a95e4cf2019dd3d5574'
p607
sg67
S'1b743682713ad886e49754f9dd80e2a9'
p608
sg69
(lp609
g591
ag94
asg71
Nsba(ibclass
BBasicBlock
p610
(dp611
g12
Nsg13
(lp612
(ibclass
BInstr
p613
(dp614
g2
Nsg17
S'MOV             X19, #0'
p615
sg19
S'130080d2'
p616
sg21
Vmovz x19, #0
p617
sg5
L18446743798839618500L
sg6
Nsg23
S'MOV'
p618
sg25
S'0xffffffc00079abc4L'
p619
sg27
Nsbasg49
(lp620
S'MOV reg9, #0'
p621
asg55
Nsg5
S'0xffffffc00079abc4L'
p622
sg57
(lp623
S'0xffffffc00079ab74L'
p624
asg6
Nsg59
(lp625
S'0xffffffc00079abc8L'
p626
asg63
Nsg64
Nsg65
S'17b32100aef1fc19670be7fd58bc85df'
p627
sg67
S'72f573c87f6f3c56e29191a101e77110'
p628
sg69
(lp629
g618
asg71
Nsba(ibclass
BBasicBlock
p630
(dp631
g12
Nsg13
(lp632
(ibclass
BInstr
p633
(dp634
g2
Nsg17
S'MOV             X0, X19'
p635
sg19
S'e00313aa'
p636
sg21
Vmov x0, x19
p637
sg5
L18446743798839618504L
sg6
Nsg23
S'MOV'
p638
sg25
S'0xffffffc00079abc8L'
p639
sg27
Nsba(ibclass
BInstr
p640
(dp641
g2
Nsg17
S'LDR             X19, [SP,#0x10+var_s0]'
p642
sg19
S'f30b40f9'
p643
sg21
Vldr x19, [sp, #0x10]
p644
sg5
L18446743798839618508L
sg6
Nsg23
S'LDR'
p645
sg25
S'0xffffffc00079abccL'
p646
sg27
Nsba(ibclass
BInstr
p647
(dp648
g2
Nsg17
S'LDP             X29, X30, [SP+0x10+var_10],#0x20'
p649
sg19
S'fd7bc2a8'
p650
sg21
Vldp x29, x30, [sp], #0x20
p651
sg5
L18446743798839618512L
sg6
Nsg23
S'LDP'
p652
sg25
S'0xffffffc00079abd0L'
p653
sg27
Nsba(ibclass
BInstr
p654
(dp655
g2
Nsg17
S'RET'
p656
sg19
S'c0035fd6'
p657
sg21
Vret 
p658
sg5
L18446743798839618516L
sg6
Nsg23
S'RET'
p659
sg25
S'0xffffffc00079abd4L'
p660
sg27
Nsbasg49
(lp661
S'MOV reg, reg9'
p662
aS'LDR reg9, mem'
p663
aS'LDP reg9, reg0, mem,#0x20'
p664
ag656
asg55
Nsg5
S'0xffffffc00079abc8L'
p665
sg57
(lp666
S'0xffffffc00079ab1cL'
p667
aS'0xffffffc00079ab30L'
p668
aS'0xffffffc00079ab84L'
p669
aS'0xffffffc00079ab98L'
p670
aS'0xffffffc00079abb0L'
p671
aS'0xffffffc00079abbcL'
p672
aS'0xffffffc00079abc4L'
p673
asg6
Nsg59
(lp674
sg63
Nsg64
Nsg65
S'700b6007ea89efb2d19f65eecdfbdc66'
p675
sg67
S'2540ec61573c55ff75133ef1ef4cbd07'
p676
sg69
(lp677
g638
ag645
ag652
ag659
asg71
Nsbasb.