(ibclass
BFunc
p0
(dp1
S'hash'
p2
NsS'name'
p3
S'msm_comm_get_inst_load'
p4
sS'start_address'
p5
L18446743798839616236L
sS'flag'
p6
NsS'program'
p7
NsS'bbs'
p8
(lp9
(ibclass
BBasicBlock
p10
(dp11
S'function'
p12
NsS'binstrs'
p13
(lp14
(ibclass
BInstr
p15
(dp16
g2
NsS'disasm'
p17
S'STP             X29, X30, [SP,#-0x10+var_30]!'
p18
sS'bytes'
p19
S'fd7bbca9'
p20
sS'disasm_striped'
p21
Vstp x29, x30, [sp, #-0x40]!
p22
sg5
L18446743798839616236L
sg6
NsS'mnem'
p23
S'STP'
p24
sS'address'
p25
S'0xffffffc00079a2ecL'
p26
sS'basicblock'
p27
Nsba(ibclass
BInstr
p28
(dp29
g2
Nsg17
S'MOV             X29, SP'
p30
sg19
S'fd030091'
p31
sg21
Vmov x29, sp
p32
sg5
L18446743798839616240L
sg6
Nsg23
S'MOV'
p33
sg25
S'0xffffffc00079a2f0L'
p34
sg27
Nsba(ibclass
BInstr
p35
(dp36
g2
Nsg17
S'STP             X19, X20, [SP,#0x30+var_20]'
p37
sg19
S'f35301a9'
p38
sg21
Vstp x19, x20, [sp, #0x10]
p39
sg5
L18446743798839616244L
sg6
Nsg23
S'STP'
p40
sg25
S'0xffffffc00079a2f4L'
p41
sg27
Nsba(ibclass
BInstr
p42
(dp43
g2
Nsg17
S'STR             X21, [SP,#0x30+var_10]'
p44
sg19
S'f51300f9'
p45
sg21
Vstr x21, [sp, #0x20]
p46
sg5
L18446743798839616248L
sg6
Nsg23
S'STR'
p47
sg25
S'0xffffffc00079a2f8L'
p48
sg27
Nsba(ibclass
BInstr
p49
(dp50
g2
Nsg17
S'MOV             W21, W1'
p51
sg19
S'f503012a'
p52
sg21
Vmov w21, w1
p53
sg5
L18446743798839616252L
sg6
Nsg23
S'MOV'
p54
sg25
S'0xffffffc00079a2fcL'
p55
sg27
Nsba(ibclass
BInstr
p56
(dp57
g2
Nsg17
S'LDR             W1, [X0,#0x90]'
p58
sg19
S'019040b9'
p59
sg21
Vldr w1, [x0, #0x90]
p60
sg5
L18446743798839616256L
sg6
Nsg23
S'LDR'
p61
sg25
S'0xffffffc00079a300L'
p62
sg27
Nsba(ibclass
BInstr
p63
(dp64
g2
Nsg17
S'MOV             X19, X0'
p65
sg19
S'f30300aa'
p66
sg21
Vmov x19, x0
p67
sg5
L18446743798839616260L
sg6
Nsg23
S'MOV'
p68
sg25
S'0xffffffc00079a304L'
p69
sg27
Nsba(ibclass
BInstr
p70
(dp71
g2
Nsg17
S'SUB             W1, W1, #5'
p72
sg19
S'21140051'
p73
sg21
Vsub w1, w1, #5
p74
sg5
L18446743798839616264L
sg6
Nsg23
S'SUB'
p75
sg25
S'0xffffffc00079a308L'
p76
sg27
Nsba(ibclass
BInstr
p77
(dp78
g2
Nsg17
S'CMP             W1, #5'
p79
sg19
S'3f140071'
p80
sg21
Vcmp w1, #5
p81
sg5
L18446743798839616268L
sg6
Nsg23
S'CMP'
p82
sg25
S'0xffffffc00079a30cL'
p83
sg27
Nsba(ibclass
BInstr
p84
(dp85
g2
Nsg17
S'MOV             W20, #0'
p86
sg19
S'14008052'
p87
sg21
Vmovz w20, #0
p88
sg5
L18446743798839616272L
sg6
Nsg23
S'MOV'
p89
sg25
S'0xffffffc00079a310L'
p90
sg27
Nsba(ibclass
BInstr
p91
(dp92
g2
Nsg17
S'B.HI            loc_FFFFFFC00079A398'
p93
sg19
S'28040054'
p94
sg21
Vb.hi #0x84
p95
sg5
L18446743798839616276L
sg6
Nsg23
S'B'
p96
sg25
S'0xffffffc00079a314L'
p97
sg27
NsbasS'disasm_list'
p98
(lp99
S'STP reg9, reg0, mem!'
p100
aS'MOV reg9, SP'
p101
aS'STP reg9, reg0, mem'
p102
aS'STR reg1, mem'
p103
aS'MOV reg1, reg'
p104
aS'LDR reg, mem'
p105
aS'MOV reg9, reg'
p106
aS'SUB reg, reg, #5'
p107
aS'CMP reg, #5'
p108
aS'MOV reg0, #0'
p109
aS'B.HI func'
p110
asS'end_address'
p111
Nsg5
S'0xffffffc00079a2ecL'
p112
sS'preds'
p113
(lp114
sg6
NsS'succs'
p115
(lp116
S'0xffffffc00079a318L'
p117
aS'0xffffffc00079a398L'
p118
asS'hash_v3'
p119
NsS'flag_v2'
p120
NsS'hash_v1'
p121
S'3520995ba40c718858b71683530d980f'
p122
sS'hash_v2'
p123
S'1fb03f55da8cce23907b609564a52527'
p124
sS'mnen_list'
p125
(lp126
g24
ag33
ag40
ag47
ag54
ag61
ag68
ag75
ag82
ag89
ag96
asS'neighbour_disasm_list'
p127
Nsba(ibclass
BBasicBlock
p128
(dp129
g12
Nsg13
(lp130
(ibclass
BInstr
p131
(dp132
g2
Nsg17
S'BL              msm_comm_get_mbs_per_sec'
p133
sg19
S'acfdff97'
p134
sg21
Vbl #0xfffffffffffff6b0
p135
sg5
L18446743798839616280L
sg6
Nsg23
S'BL'
p136
sg25
S'0xffffffc00079a318L'
p137
sg27
Nsba(ibclass
BInstr
p138
(dp139
g2
Nsg17
S'MOV             W20, W0'
p140
sg19
S'f403002a'
p141
sg21
Vmov w20, w0
p142
sg5
L18446743798839616284L
sg6
Nsg23
S'MOV'
p143
sg25
S'0xffffffc00079a31cL'
p144
sg27
Nsba(ibclass
BInstr
p145
(dp146
g2
Nsg17
S'LDR             W0, [X19,#0xFA4]'
p147
sg19
S'60a64fb9'
p148
sg21
Vldr w0, [x19, #0xfa4]
p149
sg5
L18446743798839616288L
sg6
Nsg23
S'LDR'
p150
sg25
S'0xffffffc00079a320L'
p151
sg27
Nsba(ibclass
BInstr
p152
(dp153
g2
Nsg17
S'TBZ             W0, #2, loc_FFFFFFC00079A334'
p154
sg19
S'80001036'
p155
sg21
Vtbz w0, #2, #0x10
p156
sg5
L18446743798839616292L
sg6
Nsg23
S'TBZ'
p157
sg25
S'0xffffffc00079a324L'
p158
sg27
Nsbasg98
(lp159
S'BL msm_comm_get_mbs_per_sec'
p160
aS'MOV reg0, reg'
p161
aS'LDR reg, mem'
p162
aS'TBZ reg, #2, func'
p163
asg111
Nsg5
S'0xffffffc00079a318L'
p164
sg113
(lp165
S'0xffffffc00079a2ecL'
p166
asg6
Nsg115
(lp167
S'0xffffffc00079a328L'
p168
aS'0xffffffc00079a334L'
p169
asg119
Nsg120
Nsg121
S'6e8e37626438dc21d4866d73e89b0733'
p170
sg123
S'464c337aa65740a8721477ee43f1e6ce'
p171
sg125
(lp172
g136
ag143
ag150
ag157
asg127
Nsba(ibclass
BBasicBlock
p173
(dp174
g12
Nsg13
(lp175
(ibclass
BInstr
p176
(dp177
g2
Nsg17
S'AND             W0, W21, #2'
p178
sg19
S'a0021f12'
p179
sg21
Vand w0, w21, #2
p180
sg5
L18446743798839616296L
sg6
Nsg23
S'AND'
p181
sg25
S'0xffffffc00079a328L'
p182
sg27
Nsba(ibclass
BInstr
p183
(dp184
g2
Nsg17
S'CMP             W0, WZR'
p185
sg19
S'1f001f6b'
p186
sg21
Vcmp w0, wzr
p187
sg5
L18446743798839616300L
sg6
Nsg23
S'CMP'
p188
sg25
S'0xffffffc00079a32cL'
p189
sg27
Nsba(ibclass
BInstr
p190
(dp191
g2
Nsg17
S'CSEL            W20, W20, WZR, EQ'
p192
sg19
S'94029f1a'
p193
sg21
Vcsel w20, w20, wzr, eq
p194
sg5
L18446743798839616304L
sg6
Nsg23
S'CSEL'
p195
sg25
S'0xffffffc00079a330L'
p196
sg27
Nsbasg98
(lp197
S'AND reg, reg1, #2'
p198
aS'CMP reg, WZR'
p199
aS'CSEL reg0, reg0, WZR, EQ'
p200
asg111
Nsg5
S'0xffffffc00079a328L'
p201
sg113
(lp202
S'0xffffffc00079a318L'
p203
asg6
Nsg115
(lp204
S'0xffffffc00079a334L'
p205
asg119
Nsg120
Nsg121
S'46e0a5ef1f2c2b1dc41515f106ec33b7'
p206
sg123
S'764f9f1a225d367b3fdfb2e2a0b6bfc3'
p207
sg125
(lp208
g181
ag188
ag195
asg127
Nsba(ibclass
BBasicBlock
p209
(dp210
g12
Nsg13
(lp211
(ibclass
BInstr
p212
(dp213
g2
Nsg17
S'MOV             X0, X19'
p214
sg19
S'e00313aa'
p215
sg21
Vmov x0, x19
p216
sg5
L18446743798839616308L
sg6
Nsg23
S'MOV'
p217
sg25
S'0xffffffc00079a334L'
p218
sg27
Nsba(ibclass
BInstr
p219
(dp220
g2
Nsg17
S'BL              msm_comm_turbo_session'
p221
sg19
S'68ffff97'
p222
sg21
Vbl #0xfffffffffffffda0
p223
sg5
L18446743798839616312L
sg6
Nsg23
S'BL'
p224
sg25
S'0xffffffc00079a338L'
p225
sg27
Nsba(ibclass
BInstr
p226
(dp227
g2
Nsg17
S'UBFM            W0, W0, #0, #7'
p228
sg19
S'001c0053'
p229
sg21
Vuxtb w0, w0
p230
sg5
L18446743798839616316L
sg6
Nsg23
S'UBFM'
p231
sg25
S'0xffffffc00079a33cL'
p232
sg27
Nsba(ibclass
BInstr
p233
(dp234
g2
Nsg17
S'CBZ             W0, loc_FFFFFFC00079A350'
p235
sg19
S'80000034'
p236
sg21
Vcbz w0, #0x10
p237
sg5
L18446743798839616320L
sg6
Nsg23
S'CBZ'
p238
sg25
S'0xffffffc00079a340L'
p239
sg27
Nsbasg98
(lp240
S'MOV reg, reg9'
p241
aS'BL msm_comm_turbo_session'
p242
aS'UBFM reg, reg, #0, #7'
p243
aS'CBZ reg, func'
p244
asg111
Nsg5
S'0xffffffc00079a334L'
p245
sg113
(lp246
S'0xffffffc00079a318L'
p247
aS'0xffffffc00079a328L'
p248
asg6
Nsg115
(lp249
S'0xffffffc00079a344L'
p250
aS'0xffffffc00079a350L'
p251
asg119
Nsg120
Nsg121
S'91190df1c9d4b5dc0b56e54d47de183c'
p252
sg123
S'e2e24f879cffefbe640442bba3676d91'
p253
sg125
(lp254
g217
ag224
ag231
ag238
asg127
Nsba(ibclass
BBasicBlock
p255
(dp256
g12
Nsg13
(lp257
(ibclass
BInstr
p258
(dp259
g2
Nsg17
S'TBNZ            W21, #0, loc_FFFFFFC00079A350'
p260
sg19
S'75000037'
p261
sg21
Vtbnz w21, #0, #0xc
p262
sg5
L18446743798839616324L
sg6
Nsg23
S'TBNZ'
p263
sg25
S'0xffffffc00079a344L'
p264
sg27
Nsbasg98
(lp265
S'TBNZ reg1, #0, func'
p266
asg111
Nsg5
S'0xffffffc00079a344L'
p267
sg113
(lp268
S'0xffffffc00079a334L'
p269
asg6
Nsg115
(lp270
S'0xffffffc00079a348L'
p271
aS'0xffffffc00079a350L'
p272
asg119
Nsg120
Nsg121
S'1e87583633efc2ba1131acfd744a2ae7'
p273
sg123
S'c9e5cb8762cde48f2642733b88f583d7'
p274
sg125
(lp275
g263
asg127
Nsba(ibclass
BBasicBlock
p276
(dp277
g12
Nsg13
(lp278
(ibclass
BInstr
p279
(dp280
g2
Nsg17
S'LDR             X0, [X19,#0x60]'
p281
sg19
S'603240f9'
p282
sg21
Vldr x0, [x19, #0x60]
p283
sg5
L18446743798839616328L
sg6
Nsg23
S'LDR'
p284
sg25
S'0xffffffc00079a348L'
p285
sg27
Nsba(ibclass
BInstr
p286
(dp287
g2
Nsg17
S'LDR             W20, [X0,#0xA8C]'
p288
sg19
S'148c4ab9'
p289
sg21
Vldr w20, [x0, #0xa8c]
p290
sg5
L18446743798839616332L
sg6
Nsg23
S'LDR'
p291
sg25
S'0xffffffc00079a34cL'
p292
sg27
Nsbasg98
(lp293
S'LDR reg, mem'
p294
aS'LDR reg0, mem'
p295
asg111
Nsg5
S'0xffffffc00079a348L'
p296
sg113
(lp297
S'0xffffffc00079a344L'
p298
asg6
Nsg115
(lp299
S'0xffffffc00079a350L'
p300
asg119
Nsg120
Nsg121
S'21ff94608a2748267b1ec014923ca646'
p301
sg123
S'3c90fcfc8bb6c04555e13f5056b1754f'
p302
sg125
(lp303
g284
ag291
asg127
Nsba(ibclass
BBasicBlock
p304
(dp305
g12
Nsg13
(lp306
(ibclass
BInstr
p307
(dp308
g2
Nsg17
S'MOV             W0, #0x2049'
p309
sg19
S'20098452'
p310
sg21
Vmovz w0, #0x2049
p311
sg5
L18446743798839616336L
sg6
Nsg23
S'MOV'
p312
sg25
S'0xffffffc00079a350L'
p313
sg27
Nsba(ibclass
BInstr
p314
(dp315
g2
Nsg17
S'STR             XZR, [X29,#arg_20]'
p316
sg19
S'bf1b00f9'
p317
sg21
Vstr xzr, [x29, #0x30]
p318
sg5
L18446743798839616340L
sg6
Nsg23
S'STR'
p319
sg25
S'0xffffffc00079a354L'
p320
sg27
Nsba(ibclass
BInstr
p321
(dp322
g2
Nsg17
S'MOVK            W0, #0x99,LSL#16'
p323
sg19
S'2013a072'
p324
sg21
Vmovk w0, #0x99, lsl #16
p325
sg5
L18446743798839616344L
sg6
Nsg23
S'MOVK'
p326
sg25
S'0xffffffc00079a358L'
p327
sg27
Nsba(ibclass
BInstr
p328
(dp329
g2
Nsg17
S'STR             W0, [X29,#arg_20]'
p330
sg19
S'a03300b9'
p331
sg21
Vstr w0, [x29, #0x30]
p332
sg5
L18446743798839616348L
sg6
Nsg23
S'STR'
p333
sg25
S'0xffffffc00079a35cL'
p334
sg27
Nsba(ibclass
BInstr
p335
(dp336
g2
Nsg17
S'ADD             X1, X29, #0x30'
p337
sg19
S'a1c30091'
p338
sg21
Vadd x1, x29, #0x30
p339
sg5
L18446743798839616352L
sg6
Nsg23
S'ADD'
p340
sg25
S'0xffffffc00079a360L'
p341
sg27
Nsba(ibclass
BInstr
p342
(dp343
g2
Nsg17
S'ADD             X0, X19, #0x9C0'
p344
sg19
S'60022791'
p345
sg21
Vadd x0, x19, #0x9c0
p346
sg5
L18446743798839616356L
sg6
Nsg23
S'ADD'
p347
sg25
S'0xffffffc00079a364L'
p348
sg27
Nsba(ibclass
BInstr
p349
(dp350
g2
Nsg17
S'BL              v4l2_g_ctrl'
p351
sg19
S'3ed0ff97'
p352
sg21
Vbl #0xffffffffffff40f8
p353
sg5
L18446743798839616360L
sg6
Nsg23
S'BL'
p354
sg25
S'0xffffffc00079a368L'
p355
sg27
Nsba(ibclass
BInstr
p356
(dp357
g2
Nsg17
S'MOV             W1, #0'
p358
sg19
S'01008052'
p359
sg21
Vmovz w1, #0
p360
sg5
L18446743798839616364L
sg6
Nsg23
S'MOV'
p361
sg25
S'0xffffffc00079a36cL'
p362
sg27
Nsba(ibclass
BInstr
p363
(dp364
g2
Nsg17
S'CBNZ            W0, loc_FFFFFFC00079A380'
p365
sg19
S'80000035'
p366
sg21
Vcbnz w0, #0x10
p367
sg5
L18446743798839616368L
sg6
Nsg23
S'CBNZ'
p368
sg25
S'0xffffffc00079a370L'
p369
sg27
Nsbasg98
(lp370
S'MOV reg, #0x2049'
p371
aS'STR XZR, mem'
p372
aS'MOVK reg, #0x99,LSL#16'
p373
aS'STR reg, mem'
p374
aS'ADD reg, reg9, #0x30'
p375
aS'ADD reg, reg9, #0x9C0'
p376
aS'BL v4l2_g_ctrl'
p377
aS'MOV reg, #0'
p378
aS'CBNZ reg, func'
p379
asg111
Nsg5
S'0xffffffc00079a350L'
p380
sg113
(lp381
S'0xffffffc00079a334L'
p382
aS'0xffffffc00079a344L'
p383
aS'0xffffffc00079a348L'
p384
asg6
Nsg115
(lp385
S'0xffffffc00079a374L'
p386
aS'0xffffffc00079a380L'
p387
asg119
Nsg120
Nsg121
S'e59ef9da9b50ad0d62aa63d532e5659d'
p388
sg123
S'c6146090c2e967ad0b0e348d1a0435e9'
p389
sg125
(lp390
g312
ag319
ag326
ag333
ag340
ag347
ag354
ag361
ag368
asg127
Nsba(ibclass
BBasicBlock
p391
(dp392
g12
Nsg13
(lp393
(ibclass
BInstr
p394
(dp395
g2
Nsg17
S'LDR             W0, [X29,#arg_20+4]'
p396
sg19
S'a03740b9'
p397
sg21
Vldr w0, [x29, #0x34]
p398
sg5
L18446743798839616372L
sg6
Nsg23
S'LDR'
p399
sg25
S'0xffffffc00079a374L'
p400
sg27
Nsba(ibclass
BInstr
p401
(dp402
g2
Nsg17
S'CMP             W0, W1'
p403
sg19
S'1f00016b'
p404
sg21
Vcmp w0, w1
p405
sg5
L18446743798839616376L
sg6
Nsg23
S'CMP'
p406
sg25
S'0xffffffc00079a378L'
p407
sg27
Nsba(ibclass
BInstr
p408
(dp409
g2
Nsg17
S'CSET            W1, NE'
p410
sg19
S'e1079f1a'
p411
sg21
Vcset w1, ne
p412
sg5
L18446743798839616380L
sg6
Nsg23
S'CSET'
p413
sg25
S'0xffffffc00079a37cL'
p414
sg27
Nsbasg98
(lp415
S'LDR reg, mem'
p416
aS'CMP reg, reg'
p417
aS'CSET reg, NE'
p418
asg111
Nsg5
S'0xffffffc00079a374L'
p419
sg113
(lp420
S'0xffffffc00079a350L'
p421
asg6
Nsg115
(lp422
S'0xffffffc00079a380L'
p423
asg119
Nsg120
Nsg121
S'083798dab7f1b7710b28003daec5f309'
p424
sg123
S'08f0aa34b6a246831cc08171ad2a1fb9'
p425
sg125
(lp426
g399
ag406
ag413
asg127
Nsba(ibclass
BBasicBlock
p427
(dp428
g12
Nsg13
(lp429
(ibclass
BInstr
p430
(dp431
g2
Nsg17
S'CBZ             W1, loc_FFFFFFC00079A398'
p432
sg19
S'c1000034'
p433
sg21
Vcbz w1, #0x18
p434
sg5
L18446743798839616384L
sg6
Nsg23
S'CBZ'
p435
sg25
S'0xffffffc00079a380L'
p436
sg27
Nsbasg98
(lp437
S'CBZ reg, func'
p438
asg111
Nsg5
S'0xffffffc00079a380L'
p439
sg113
(lp440
S'0xffffffc00079a350L'
p441
aS'0xffffffc00079a374L'
p442
asg6
Nsg115
(lp443
S'0xffffffc00079a384L'
p444
aS'0xffffffc00079a398L'
p445
asg119
Nsg120
Nsg121
S'de8e361453cf9f764a4abe9d486f8fbe'
p446
sg123
S'1f44e7b7d6ea8c93b4632bf8395c86c6'
p447
sg125
(lp448
g435
asg127
Nsba(ibclass
BBasicBlock
p449
(dp450
g12
Nsg13
(lp451
(ibclass
BInstr
p452
(dp453
g2
Nsg17
S'TBZ             W21, #2, loc_FFFFFFC00079A398'
p454
sg19
S'b5001036'
p455
sg21
Vtbz w21, #2, #0x14
p456
sg5
L18446743798839616388L
sg6
Nsg23
S'TBZ'
p457
sg25
S'0xffffffc00079a384L'
p458
sg27
Nsbasg98
(lp459
S'TBZ reg1, #2, func'
p460
asg111
Nsg5
S'0xffffffc00079a384L'
p461
sg113
(lp462
S'0xffffffc00079a380L'
p463
asg6
Nsg115
(lp464
S'0xffffffc00079a388L'
p465
aS'0xffffffc00079a398L'
p466
asg119
Nsg120
Nsg121
S'b05993cf85beb302c9604086eec65e11'
p467
sg123
S'021734e99a8bb4c3d94d23a01adaf48a'
p468
sg125
(lp469
g457
asg127
Nsba(ibclass
BBasicBlock
p470
(dp471
g12
Nsg13
(lp472
(ibclass
BInstr
p473
(dp474
g2
Nsg17
S'MOV             X0, X19'
p475
sg19
S'e00313aa'
p476
sg21
Vmov x0, x19
p477
sg5
L18446743798839616392L
sg6
Nsg23
S'MOV'
p478
sg25
S'0xffffffc00079a388L'
p479
sg27
Nsba(ibclass
BInstr
p480
(dp481
g2
Nsg17
S'BL              msm_comm_get_mbs_per_sec'
p482
sg19
S'8ffdff97'
p483
sg21
Vbl #0xfffffffffffff63c
p484
sg5
L18446743798839616396L
sg6
Nsg23
S'BL'
p485
sg25
S'0xffffffc00079a38cL'
p486
sg27
Nsba(ibclass
BInstr
p487
(dp488
g2
Nsg17
S'LDR             W20, [X19,#0x88]'
p489
sg19
S'748a40b9'
p490
sg21
Vldr w20, [x19, #0x88]
p491
sg5
L18446743798839616400L
sg6
Nsg23
S'LDR'
p492
sg25
S'0xffffffc00079a390L'
p493
sg27
Nsba(ibclass
BInstr
p494
(dp495
g2
Nsg17
S'UDIV            W20, W0, W20'
p496
sg19
S'1408d41a'
p497
sg21
Vudiv w20, w0, w20
p498
sg5
L18446743798839616404L
sg6
Nsg23
S'UDIV'
p499
sg25
S'0xffffffc00079a394L'
p500
sg27
Nsbasg98
(lp501
S'MOV reg, reg9'
p502
aS'BL msm_comm_get_mbs_per_sec'
p503
aS'LDR reg0, mem'
p504
aS'UDIV reg0, reg, reg0'
p505
asg111
Nsg5
S'0xffffffc00079a388L'
p506
sg113
(lp507
S'0xffffffc00079a384L'
p508
asg6
Nsg115
(lp509
S'0xffffffc00079a398L'
p510
asg119
Nsg120
Nsg121
S'ac48863e4de1d1dd4fb7e178c9919a6e'
p511
sg123
S'fcce2ad002792a78efe7002804ce82f3'
p512
sg125
(lp513
g478
ag485
ag492
ag499
asg127
Nsba(ibclass
BBasicBlock
p514
(dp515
g12
Nsg13
(lp516
(ibclass
BInstr
p517
(dp518
g2
Nsg17
S'MOV             W0, W20'
p519
sg19
S'e003142a'
p520
sg21
Vmov w0, w20
p521
sg5
L18446743798839616408L
sg6
Nsg23
S'MOV'
p522
sg25
S'0xffffffc00079a398L'
p523
sg27
Nsba(ibclass
BInstr
p524
(dp525
g2
Nsg17
S'LDR             X21, [SP,#0x30+var_10]'
p526
sg19
S'f51340f9'
p527
sg21
Vldr x21, [sp, #0x20]
p528
sg5
L18446743798839616412L
sg6
Nsg23
S'LDR'
p529
sg25
S'0xffffffc00079a39cL'
p530
sg27
Nsba(ibclass
BInstr
p531
(dp532
g2
Nsg17
S'LDP             X19, X20, [SP,#0x30+var_20]'
p533
sg19
S'f35341a9'
p534
sg21
Vldp x19, x20, [sp, #0x10]
p535
sg5
L18446743798839616416L
sg6
Nsg23
S'LDP'
p536
sg25
S'0xffffffc00079a3a0L'
p537
sg27
Nsba(ibclass
BInstr
p538
(dp539
g2
Nsg17
S'LDP             X29, X30, [SP+0x30+var_30],#0x40'
p540
sg19
S'fd7bc4a8'
p541
sg21
Vldp x29, x30, [sp], #0x40
p542
sg5
L18446743798839616420L
sg6
Nsg23
S'LDP'
p543
sg25
S'0xffffffc00079a3a4L'
p544
sg27
Nsba(ibclass
BInstr
p545
(dp546
g2
Nsg17
S'RET'
p547
sg19
S'c0035fd6'
p548
sg21
Vret 
p549
sg5
L18446743798839616424L
sg6
Nsg23
S'RET'
p550
sg25
S'0xffffffc00079a3a8L'
p551
sg27
Nsbasg98
(lp552
S'MOV reg, reg0'
p553
aS'LDR reg1, mem'
p554
aS'LDP reg9, reg0, mem'
p555
aS'LDP reg9, reg0, mem,#0x40'
p556
ag547
asg111
Nsg5
S'0xffffffc00079a398L'
p557
sg113
(lp558
S'0xffffffc00079a2ecL'
p559
aS'0xffffffc00079a380L'
p560
aS'0xffffffc00079a384L'
p561
aS'0xffffffc00079a388L'
p562
asg6
Nsg115
(lp563
sg119
Nsg120
Nsg121
S'38f802c64085aee4a911b5f172baeddc'
p564
sg123
S'f1d674f2b969c62bfb5705c8d8a0b177'
p565
sg125
(lp566
g522
ag529
ag536
ag543
ag550
asg127
Nsbasb.