(ibclass
BFunc
p0
(dp1
S'hash'
p2
NsS'name'
p3
S'msm_isp_axi_update_cgc_override'
p4
sS'start_address'
p5
L18446743798840018368L
sS'flag'
p6
NsS'program'
p7
NsS'bbs'
p8
(lp9
(ibclass
BBasicBlock
p10
(dp11
S'function'
p12
NsS'binstrs'
p13
(lp14
(ibclass
BInstr
p15
(dp16
g2
NsS'disasm'
p17
S'STP             X29, X30, [SP,#-0x10+var_40]!'
p18
sS'bytes'
p19
S'fd7bbba9'
p20
sS'disasm_striped'
p21
Vstp x29, x30, [sp, #-0x50]!
p22
sg5
L18446743798840018368L
sg6
NsS'mnem'
p23
S'STP'
p24
sS'address'
p25
S'0xffffffc0007fc5c0L'
p26
sS'basicblock'
p27
Nsba(ibclass
BInstr
p28
(dp29
g2
Nsg17
S'MOV             X29, SP'
p30
sg19
S'fd030091'
p31
sg21
Vmov x29, sp
p32
sg5
L18446743798840018372L
sg6
Nsg23
S'MOV'
p33
sg25
S'0xffffffc0007fc5c4L'
p34
sg27
Nsba(ibclass
BInstr
p35
(dp36
g2
Nsg17
S'STP             X21, X22, [SP,#0x40+var_20]'
p37
sg19
S'f55b02a9'
p38
sg21
Vstp x21, x22, [sp, #0x20]
p39
sg5
L18446743798840018376L
sg6
Nsg23
S'STP'
p40
sg25
S'0xffffffc0007fc5c8L'
p41
sg27
Nsba(ibclass
BInstr
p42
(dp43
g2
Nsg17
S'STP             X23, X24, [SP,#0x40+var_10]'
p44
sg19
S'f76303a9'
p45
sg21
Vstp x23, x24, [sp, #0x30]
p46
sg5
L18446743798840018380L
sg6
Nsg23
S'STP'
p47
sg25
S'0xffffffc0007fc5ccL'
p48
sg27
Nsba(ibclass
BInstr
p49
(dp50
g2
Nsg17
S'STP             X19, X20, [SP,#0x40+var_30]'
p51
sg19
S'f35301a9'
p52
sg21
Vstp x19, x20, [sp, #0x10]
p53
sg5
L18446743798840018384L
sg6
Nsg23
S'STP'
p54
sg25
S'0xffffffc0007fc5d0L'
p55
sg27
Nsba(ibclass
BInstr
p56
(dp57
g2
Nsg17
S'STP             X25, X26, [SP,#0x40+var_s0]'
p58
sg19
S'f96b04a9'
p59
sg21
Vstp x25, x26, [sp, #0x40]
p60
sg5
L18446743798840018388L
sg6
Nsg23
S'STP'
p61
sg25
S'0xffffffc0007fc5d4L'
p62
sg27
Nsba(ibclass
BInstr
p63
(dp64
g2
Nsg17
S'MOV             X22, X0'
p65
sg19
S'f60300aa'
p66
sg21
Vmov x22, x0
p67
sg5
L18446743798840018392L
sg6
Nsg23
S'MOV'
p68
sg25
S'0xffffffc0007fc5d8L'
p69
sg27
Nsba(ibclass
BInstr
p70
(dp71
g2
Nsg17
S'LDRB            W0, [X1]'
p72
sg19
S'20004039'
p73
sg21
Vldrb w0, [x1]
p74
sg5
L18446743798840018396L
sg6
Nsg23
S'LDR'
p75
sg25
S'0xffffffc0007fc5dcL'
p76
sg27
Nsba(ibclass
BInstr
p77
(dp78
g2
Nsg17
S'MOV             X21, X1'
p79
sg19
S'f50301aa'
p80
sg21
Vmov x21, x1
p81
sg5
L18446743798840018400L
sg6
Nsg23
S'MOV'
p82
sg25
S'0xffffffc0007fc5e0L'
p83
sg27
Nsba(ibclass
BInstr
p84
(dp85
g2
Nsg17
S'CMP             W0, #7'
p86
sg19
S'1f1c0071'
p87
sg21
Vcmp w0, #7
p88
sg5
L18446743798840018404L
sg6
Nsg23
S'CMP'
p89
sg25
S'0xffffffc0007fc5e4L'
p90
sg27
Nsba(ibclass
BInstr
p91
(dp92
g2
Nsg17
S'UBFM            W24, W2, #0, #7'
p93
sg19
S'581c0053'
p94
sg21
Vuxtb w24, w2
p95
sg5
L18446743798840018408L
sg6
Nsg23
S'UBFM'
p96
sg25
S'0xffffffc0007fc5e8L'
p97
sg27
Nsba(ibclass
BInstr
p98
(dp99
g2
Nsg17
S'B.HI            loc_FFFFFFC0007FC604'
p100
sg19
S'c8000054'
p101
sg21
Vb.hi #0x18
p102
sg5
L18446743798840018412L
sg6
Nsg23
S'B'
p103
sg25
S'0xffffffc0007fc5ecL'
p104
sg27
NsbasS'disasm_list'
p105
(lp106
S'STP reg9, reg0, mem!'
p107
aS'MOV reg9, SP'
p108
aS'STP reg1, reg2, mem'
p109
aS'STP reg3, reg4, mem'
p110
aS'STP reg9, reg0, mem'
p111
aS'STP reg5, reg6, mem'
p112
aS'MOV reg2, reg'
p113
aS'LDRB reg, mem'
p114
aS'MOV reg1, reg'
p115
aS'CMP reg, #7'
p116
aS'UBFM reg4, reg, #0, #7'
p117
aS'B.HI func'
p118
asS'end_address'
p119
Nsg5
S'0xffffffc0007fc5c0L'
p120
sS'preds'
p121
(lp122
sg6
NsS'succs'
p123
(lp124
S'0xffffffc0007fc5f0L'
p125
aS'0xffffffc0007fc604L'
p126
asS'hash_v3'
p127
NsS'flag_v2'
p128
NsS'hash_v1'
p129
S'b7055cab31888cb3cfb00e4eb23ccb83'
p130
sS'hash_v2'
p131
S'23c01329bc950fb65772c2df78285ea9'
p132
sS'mnen_list'
p133
(lp134
g24
ag33
ag40
ag47
ag54
ag61
ag68
ag75
ag82
ag89
ag96
ag103
asS'neighbour_disasm_list'
p135
Nsba(ibclass
BBasicBlock
p136
(dp137
g12
Nsg13
(lp138
(ibclass
BInstr
p139
(dp140
g2
Nsg17
S'ADD             X25, X22, #4,LSL#12'
p141
sg19
S'd9124091'
p142
sg21
Vadd x25, x22, #4, lsl #12
p143
sg5
L18446743798840018416L
sg6
Nsg23
S'ADD'
p144
sg25
S'0xffffffc0007fc5f0L'
p145
sg27
Nsba(ibclass
BInstr
p146
(dp147
g2
Nsg17
S'MOV             X19, #0'
p148
sg19
S'130080d2'
p149
sg21
Vmovz x19, #0
p150
sg5
L18446743798840018420L
sg6
Nsg23
S'MOV'
p151
sg25
S'0xffffffc0007fc5f4L'
p152
sg27
Nsba(ibclass
BInstr
p153
(dp154
g2
Nsg17
S'ADD             X25, X25, #0x168'
p155
sg19
S'39a30591'
p156
sg21
Vadd x25, x25, #0x168
p157
sg5
L18446743798840018424L
sg6
Nsg23
S'ADD'
p158
sg25
S'0xffffffc0007fc5f8L'
p159
sg27
Nsba(ibclass
BInstr
p160
(dp161
g2
Nsg17
S'MOV             X26, #0x1E0'
p162
sg19
S'1a3c80d2'
p163
sg21
Vmovz x26, #0x1e0
p164
sg5
L18446743798840018428L
sg6
Nsg23
S'MOV'
p165
sg25
S'0xffffffc0007fc5fcL'
p166
sg27
Nsba(ibclass
BInstr
p167
(dp168
g2
Nsg17
S'B               loc_FFFFFFC0007FC63C'
p169
sg19
S'0f000014'
p170
sg21
Vb #0x3c
p171
sg5
L18446743798840018432L
sg6
Nsg23
g103
sg25
S'0xffffffc0007fc600L'
p172
sg27
Nsbasg105
(lp173
S'ADD reg5, reg2, #4,LSL#12'
p174
aS'MOV reg9, #0'
p175
aS'ADD reg5, reg5, #0x168'
p176
aS'MOV reg6, #0x1E0'
p177
aS'B func'
p178
asg119
Nsg5
S'0xffffffc0007fc5f0L'
p179
sg121
(lp180
S'0xffffffc0007fc5c0L'
p181
asg6
Nsg123
(lp182
S'0xffffffc0007fc63cL'
p183
asg127
Nsg128
Nsg129
S'dd5cd7a3a9f74ce4bf32e6283eeb907c'
p184
sg131
S'cddd8ff32b71d911dd856a768da21053'
p185
sg133
(lp186
g144
ag151
ag158
ag165
ag103
asg135
Nsba(ibclass
BBasicBlock
p187
(dp188
g12
Nsg13
(lp189
(ibclass
BInstr
p190
(dp191
g2
Nsg17
S'MOV             W0, #0xFFFFFFEA'
p192
sg19
S'a0028012'
p193
sg21
Vmovn w0, #0x15
p194
sg5
L18446743798840018436L
sg6
Nsg23
S'MOV'
p195
sg25
S'0xffffffc0007fc604L'
p196
sg27
Nsba(ibclass
BInstr
p197
(dp198
g2
Nsg17
S'B               loc_FFFFFFC0007FC678'
p199
sg19
S'1c000014'
p200
sg21
Vb #0x70
p201
sg5
L18446743798840018440L
sg6
Nsg23
g103
sg25
S'0xffffffc0007fc608L'
p202
sg27
Nsbasg105
(lp203
S'MOV reg, #0xFFFFFFEA'
p204
aS'B func'
p205
asg119
Nsg5
S'0xffffffc0007fc604L'
p206
sg121
(lp207
S'0xffffffc0007fc5c0L'
p208
aS'0xffffffc0007fc60cL'
p209
asg6
Nsg123
(lp210
S'0xffffffc0007fc678L'
p211
asg127
Nsg128
Nsg129
S'b6c4e95ccfe77a95e4cf2019dd3d5574'
p212
sg131
S'a17f88dd95e9c87c91b756bdda64e5a5'
p213
sg133
(lp214
g195
ag103
asg135
Nsba(ibclass
BBasicBlock
p215
(dp216
g12
Nsg13
(lp217
(ibclass
BInstr
p218
(dp219
g2
Nsg17
S'ADD             X0, X21, X19,LSL#2'
p220
sg19
S'a00a138b'
p221
sg21
Vadd x0, x21, x19, lsl #2
p222
sg5
L18446743798840018444L
sg6
Nsg23
S'ADD'
p223
sg25
S'0xffffffc0007fc60cL'
p224
sg27
Nsba(ibclass
BInstr
p225
(dp226
g2
Nsg17
S'LDRB            W23, [X0,#4]'
p227
sg19
S'17104039'
p228
sg21
Vldrb w23, [x0, #4]
p229
sg5
L18446743798840018448L
sg6
Nsg23
S'LDR'
p230
sg25
S'0xffffffc0007fc610L'
p231
sg27
Nsba(ibclass
BInstr
p232
(dp233
g2
Nsg17
S'CMP             W23, #6'
p234
sg19
S'ff1a0071'
p235
sg21
Vcmp w23, #6
p236
sg5
L18446743798840018452L
sg6
Nsg23
S'CMP'
p237
sg25
S'0xffffffc0007fc614L'
p238
sg27
Nsba(ibclass
BInstr
p239
(dp240
g2
Nsg17
S'B.HI            loc_FFFFFFC0007FC604'
p241
sg19
S'68ffff54'
p242
sg21
Vb.hi #0xffffffffffffffec
p243
sg5
L18446743798840018456L
sg6
Nsg23
g103
sg25
S'0xffffffc0007fc618L'
p244
sg27
Nsbasg105
(lp245
S'ADD reg, reg1, reg9,LSL#2'
p246
aS'LDRB reg3, mem'
p247
aS'CMP reg3, #6'
p248
aS'B.HI func'
p249
asg119
Nsg5
S'0xffffffc0007fc60cL'
p250
sg121
(lp251
S'0xffffffc0007fc63cL'
p252
asg6
Nsg123
(lp253
S'0xffffffc0007fc604L'
p254
aS'0xffffffc0007fc61cL'
p255
asg127
Nsg128
Nsg129
S'0ae8aac804af3a318df13a4ace7a8890'
p256
sg131
S'cf523bf7148e4091808404bc8fbc7f56'
p257
sg133
(lp258
g223
ag230
ag237
ag103
asg135
Nsba(ibclass
BBasicBlock
p259
(dp260
g12
Nsg13
(lp261
(ibclass
BInstr
p262
(dp263
g2
Nsg17
S'MOV             W23, W23'
p264
sg19
S'f703172a'
p265
sg21
Vmov w23, w23
p266
sg5
L18446743798840018460L
sg6
Nsg23
S'MOV'
p267
sg25
S'0xffffffc0007fc61cL'
p268
sg27
Nsba(ibclass
BInstr
p269
(dp270
g2
Nsg17
S'MADD            X23, X23, X26, X25'
p271
sg19
S'f7661a9b'
p272
sg21
Vmadd x23, x23, x26, x25
p273
sg5
L18446743798840018464L
sg6
Nsg23
S'MADD'
p274
sg25
S'0xffffffc0007fc620L'
p275
sg27
Nsba(ibclass
BInstr
p276
(dp277
g2
Nsg17
S'ADD             X23, X23, #8'
p278
sg19
S'f7220091'
p279
sg21
Vadd x23, x23, #8
p280
sg5
L18446743798840018468L
sg6
Nsg23
S'ADD'
p281
sg25
S'0xffffffc0007fc624L'
p282
sg27
Nsba(ibclass
BInstr
p283
(dp284
g2
Nsg17
S'MOV             X20, #0'
p285
sg19
S'140080d2'
p286
sg21
Vmovz x20, #0
p287
sg5
L18446743798840018472L
sg6
Nsg23
S'MOV'
p288
sg25
S'0xffffffc0007fc628L'
p289
sg27
Nsbasg105
(lp290
S'MOV reg3, reg3'
p291
aS'MADD reg3, reg3, reg6, reg5'
p292
aS'ADD reg3, reg3, #8'
p293
aS'MOV reg0, #0'
p294
asg119
Nsg5
S'0xffffffc0007fc61cL'
p295
sg121
(lp296
S'0xffffffc0007fc60cL'
p297
asg6
Nsg123
(lp298
S'0xffffffc0007fc62cL'
p299
asg127
Nsg128
Nsg129
S'f256e7afd4c04f14cf7a2aac43039dba'
p300
sg131
S'ce27a23c2add36ffbdd8a3ce6b61c61f'
p301
sg133
(lp302
g267
ag274
ag281
ag288
asg135
Nsba(ibclass
BBasicBlock
p303
(dp304
g12
Nsg13
(lp305
(ibclass
BInstr
p306
(dp307
g2
Nsg17
S'LDRB            W0, [X23,#0xC]'
p308
sg19
S'e0324039'
p309
sg21
Vldrb w0, [x23, #0xc]
p310
sg5
L18446743798840018476L
sg6
Nsg23
S'LDR'
p311
sg25
S'0xffffffc0007fc62cL'
p312
sg27
Nsba(ibclass
BInstr
p313
(dp314
g2
Nsg17
S'CMP             W0, W20'
p315
sg19
S'1f00146b'
p316
sg21
Vcmp w0, w20
p317
sg5
L18446743798840018480L
sg6
Nsg23
S'CMP'
p318
sg25
S'0xffffffc0007fc630L'
p319
sg27
Nsba(ibclass
BInstr
p320
(dp321
g2
Nsg17
S'B.GT            loc_FFFFFFC0007FC64C'
p322
sg19
S'cc000054'
p323
sg21
Vb.gt #0x18
p324
sg5
L18446743798840018484L
sg6
Nsg23
g103
sg25
S'0xffffffc0007fc634L'
p325
sg27
Nsbasg105
(lp326
S'LDRB reg, mem'
p327
aS'CMP reg, reg0'
p328
aS'B.GT func'
p329
asg119
Nsg5
S'0xffffffc0007fc62cL'
p330
sg121
(lp331
S'0xffffffc0007fc61cL'
p332
aS'0xffffffc0007fc66cL'
p333
asg6
Nsg123
(lp334
S'0xffffffc0007fc638L'
p335
aS'0xffffffc0007fc64cL'
p336
asg127
Nsg128
Nsg129
S'fa4df767a85c49648339e2dc5c6807f6'
p337
sg131
S'af1dff55564c1683bf4002cdceb2f5ec'
p338
sg133
(lp339
g311
ag318
ag103
asg135
Nsba(ibclass
BBasicBlock
p340
(dp341
g12
Nsg13
(lp342
(ibclass
BInstr
p343
(dp344
g2
Nsg17
S'ADD             X19, X19, #1'
p345
sg19
S'73060091'
p346
sg21
Vadd x19, x19, #1
p347
sg5
L18446743798840018488L
sg6
Nsg23
S'ADD'
p348
sg25
S'0xffffffc0007fc638L'
p349
sg27
Nsbasg105
(lp350
S'ADD reg9, reg9, #1'
p351
asg119
Nsg5
S'0xffffffc0007fc638L'
p352
sg121
(lp353
S'0xffffffc0007fc62cL'
p354
asg6
Nsg123
(lp355
S'0xffffffc0007fc63cL'
p356
asg127
Nsg128
Nsg129
S'9eeb52badb613229884838847294b90d'
p357
sg131
S'f1df75fedebc328ba884e40b8b549da2'
p358
sg133
(lp359
g348
asg135
Nsba(ibclass
BBasicBlock
p360
(dp361
g12
Nsg13
(lp362
(ibclass
BInstr
p363
(dp364
g2
Nsg17
S'LDRB            W0, [X21]'
p365
sg19
S'a0024039'
p366
sg21
Vldrb w0, [x21]
p367
sg5
L18446743798840018492L
sg6
Nsg23
S'LDR'
p368
sg25
S'0xffffffc0007fc63cL'
p369
sg27
Nsba(ibclass
BInstr
p370
(dp371
g2
Nsg17
S'CMP             W0, W19'
p372
sg19
S'1f00136b'
p373
sg21
Vcmp w0, w19
p374
sg5
L18446743798840018496L
sg6
Nsg23
S'CMP'
p375
sg25
S'0xffffffc0007fc640L'
p376
sg27
Nsba(ibclass
BInstr
p377
(dp378
g2
Nsg17
S'B.GT            loc_FFFFFFC0007FC60C'
p379
sg19
S'4cfeff54'
p380
sg21
Vb.gt #0xffffffffffffffc8
p381
sg5
L18446743798840018500L
sg6
Nsg23
g103
sg25
S'0xffffffc0007fc644L'
p382
sg27
Nsbasg105
(lp383
S'LDRB reg, mem'
p384
aS'CMP reg, reg9'
p385
aS'B.GT func'
p386
asg119
Nsg5
S'0xffffffc0007fc63cL'
p387
sg121
(lp388
S'0xffffffc0007fc5f0L'
p389
aS'0xffffffc0007fc638L'
p390
asg6
Nsg123
(lp391
S'0xffffffc0007fc60cL'
p392
aS'0xffffffc0007fc648L'
p393
asg127
Nsg128
Nsg129
S'fa4df767a85c49648339e2dc5c6807f6'
p394
sg131
S'21288e95c04db894c825c7e2f8d23a70'
p395
sg133
(lp396
g368
ag375
ag103
asg135
Nsba(ibclass
BBasicBlock
p397
(dp398
g12
Nsg13
(lp399
(ibclass
BInstr
p400
(dp401
g2
Nsg17
S'B               loc_FFFFFFC0007FC674'
p402
sg19
S'0b000014'
p403
sg21
Vb #0x2c
p404
sg5
L18446743798840018504L
sg6
Nsg23
g103
sg25
S'0xffffffc0007fc648L'
p405
sg27
Nsbasg105
(lp406
S'B func'
p407
asg119
Nsg5
S'0xffffffc0007fc648L'
p408
sg121
(lp409
S'0xffffffc0007fc63cL'
p410
asg6
Nsg123
(lp411
S'0xffffffc0007fc674L'
p412
asg127
Nsg128
Nsg129
S'9d5ed678fe57bcca610140957afab571'
p413
sg131
S'071b057c420e304c628380fd3541c021'
p414
sg133
(lp415
g103
asg135
Nsba(ibclass
BBasicBlock
p416
(dp417
g12
Nsg13
(lp418
(ibclass
BInstr
p419
(dp420
g2
Nsg17
S'LDR             X0, [X22,#0x4160]'
p421
sg19
S'c0b260f9'
p422
sg21
Vldr x0, [x22, #0x4160]
p423
sg5
L18446743798840018508L
sg6
Nsg23
S'LDR'
p424
sg25
S'0xffffffc0007fc64cL'
p425
sg27
Nsba(ibclass
BInstr
p426
(dp427
g2
Nsg17
S'LDR             X3, [X0,#0xF8]'
p428
sg19
S'037c40f9'
p429
sg21
Vldr x3, [x0, #0xf8]
p430
sg5
L18446743798840018512L
sg6
Nsg23
S'LDR'
p431
sg25
S'0xffffffc0007fc650L'
p432
sg27
Nsba(ibclass
BInstr
p433
(dp434
g2
Nsg17
S'CBZ             X3, loc_FFFFFFC0007FC66C'
p435
sg19
S'c30000b4'
p436
sg21
Vcbz x3, #0x18
p437
sg5
L18446743798840018516L
sg6
Nsg23
S'CBZ'
p438
sg25
S'0xffffffc0007fc654L'
p439
sg27
Nsbasg105
(lp440
S'LDR reg, mem'
p441
aS'LDR reg, mem'
p442
aS'CBZ reg, func'
p443
asg119
Nsg5
S'0xffffffc0007fc64cL'
p444
sg121
(lp445
S'0xffffffc0007fc62cL'
p446
asg6
Nsg123
(lp447
S'0xffffffc0007fc658L'
p448
aS'0xffffffc0007fc66cL'
p449
asg127
Nsg128
Nsg129
S'60187e9e58071f660cfb958182c60556'
p450
sg131
S'3e5c29d2dfd58dbf2ba2bc610a064d70'
p451
sg133
(lp452
g424
ag431
ag438
asg135
Nsba(ibclass
BBasicBlock
p453
(dp454
g12
Nsg13
(lp455
(ibclass
BInstr
p456
(dp457
g2
Nsg17
S'ADD             X1, X23, X20'
p458
sg19
S'e102148b'
p459
sg21
Vadd x1, x23, x20
p460
sg5
L18446743798840018520L
sg6
Nsg23
S'ADD'
p461
sg25
S'0xffffffc0007fc658L'
p462
sg27
Nsba(ibclass
BInstr
p463
(dp464
g2
Nsg17
S'LDRB            W1, [X1,#0xD]'
p465
sg19
S'21344039'
p466
sg21
Vldrb w1, [x1, #0xd]
p467
sg5
L18446743798840018524L
sg6
Nsg23
S'LDR'
p468
sg25
S'0xffffffc0007fc65cL'
p469
sg27
Nsba(ibclass
BInstr
p470
(dp471
g2
Nsg17
S'MOV             X0, X22'
p472
sg19
S'e00316aa'
p473
sg21
Vmov x0, x22
p474
sg5
L18446743798840018528L
sg6
Nsg23
S'MOV'
p475
sg25
S'0xffffffc0007fc660L'
p476
sg27
Nsba(ibclass
BInstr
p477
(dp478
g2
Nsg17
S'MOV             W2, W24'
p479
sg19
S'e203182a'
p480
sg21
Vmov w2, w24
p481
sg5
L18446743798840018532L
sg6
Nsg23
S'MOV'
p482
sg25
S'0xffffffc0007fc664L'
p483
sg27
Nsba(ibclass
BInstr
p484
(dp485
g2
Nsg17
S'BLR             X3'
p486
sg19
S'60003fd6'
p487
sg21
Vblr x3
p488
sg5
L18446743798840018536L
sg6
Nsg23
S'BLR'
p489
sg25
S'0xffffffc0007fc668L'
p490
sg27
Nsbasg105
(lp491
S'ADD reg, reg3, reg0'
p492
aS'LDRB reg, mem'
p493
aS'MOV reg, reg2'
p494
aS'MOV reg, reg4'
p495
aS'BLR reg'
p496
asg119
Nsg5
S'0xffffffc0007fc658L'
p497
sg121
(lp498
S'0xffffffc0007fc64cL'
p499
asg6
Nsg123
(lp500
S'0xffffffc0007fc66cL'
p501
asg127
Nsg128
Nsg129
S'd808711f06b0f8a4aed7d587ee4c9830'
p502
sg131
S'ac83d336f1bed46507bd30e3c329b459'
p503
sg133
(lp504
g461
ag468
ag475
ag482
ag489
asg135
Nsba(ibclass
BBasicBlock
p505
(dp506
g12
Nsg13
(lp507
(ibclass
BInstr
p508
(dp509
g2
Nsg17
S'ADD             X20, X20, #1'
p510
sg19
S'94060091'
p511
sg21
Vadd x20, x20, #1
p512
sg5
L18446743798840018540L
sg6
Nsg23
S'ADD'
p513
sg25
S'0xffffffc0007fc66cL'
p514
sg27
Nsba(ibclass
BInstr
p515
(dp516
g2
Nsg17
S'B               loc_FFFFFFC0007FC62C'
p517
sg19
S'efffff17'
p518
sg21
Vb #0xffffffffffffffbc
p519
sg5
L18446743798840018544L
sg6
Nsg23
g103
sg25
S'0xffffffc0007fc670L'
p520
sg27
Nsbasg105
(lp521
S'ADD reg0, reg0, #1'
p522
aS'B func'
p523
asg119
Nsg5
S'0xffffffc0007fc66cL'
p524
sg121
(lp525
S'0xffffffc0007fc64cL'
p526
aS'0xffffffc0007fc658L'
p527
asg6
Nsg123
(lp528
S'0xffffffc0007fc62cL'
p529
asg127
Nsg128
Nsg129
S'f59ed0fb4617df9a98cc94b1d7075f92'
p530
sg131
S'7a6bd9dc238ea5270fac804af6a88c3f'
p531
sg133
(lp532
g513
ag103
asg135
Nsba(ibclass
BBasicBlock
p533
(dp534
g12
Nsg13
(lp535
(ibclass
BInstr
p536
(dp537
g2
Nsg17
S'MOV             W0, #0'
p538
sg19
S'00008052'
p539
sg21
Vmovz w0, #0
p540
sg5
L18446743798840018548L
sg6
Nsg23
S'MOV'
p541
sg25
S'0xffffffc0007fc674L'
p542
sg27
Nsbasg105
(lp543
S'MOV reg, #0'
p544
asg119
Nsg5
S'0xffffffc0007fc674L'
p545
sg121
(lp546
S'0xffffffc0007fc648L'
p547
asg6
Nsg123
(lp548
S'0xffffffc0007fc678L'
p549
asg127
Nsg128
Nsg129
S'17b32100aef1fc19670be7fd58bc85df'
p550
sg131
S'17993b23cf884d1eea667e1e803e3392'
p551
sg133
(lp552
g541
asg135
Nsba(ibclass
BBasicBlock
p553
(dp554
g12
Nsg13
(lp555
(ibclass
BInstr
p556
(dp557
g2
Nsg17
S'LDP             X19, X20, [SP,#0x40+var_30]'
p558
sg19
S'f35341a9'
p559
sg21
Vldp x19, x20, [sp, #0x10]
p560
sg5
L18446743798840018552L
sg6
Nsg23
S'LDP'
p561
sg25
S'0xffffffc0007fc678L'
p562
sg27
Nsba(ibclass
BInstr
p563
(dp564
g2
Nsg17
S'LDP             X21, X22, [SP,#0x40+var_20]'
p565
sg19
S'f55b42a9'
p566
sg21
Vldp x21, x22, [sp, #0x20]
p567
sg5
L18446743798840018556L
sg6
Nsg23
S'LDP'
p568
sg25
S'0xffffffc0007fc67cL'
p569
sg27
Nsba(ibclass
BInstr
p570
(dp571
g2
Nsg17
S'LDP             X23, X24, [SP,#0x40+var_10]'
p572
sg19
S'f76343a9'
p573
sg21
Vldp x23, x24, [sp, #0x30]
p574
sg5
L18446743798840018560L
sg6
Nsg23
S'LDP'
p575
sg25
S'0xffffffc0007fc680L'
p576
sg27
Nsba(ibclass
BInstr
p577
(dp578
g2
Nsg17
S'LDP             X25, X26, [SP,#0x40+var_s0]'
p579
sg19
S'f96b44a9'
p580
sg21
Vldp x25, x26, [sp, #0x40]
p581
sg5
L18446743798840018564L
sg6
Nsg23
S'LDP'
p582
sg25
S'0xffffffc0007fc684L'
p583
sg27
Nsba(ibclass
BInstr
p584
(dp585
g2
Nsg17
S'LDP             X29, X30, [SP+0x40+var_40],#0x50'
p586
sg19
S'fd7bc5a8'
p587
sg21
Vldp x29, x30, [sp], #0x50
p588
sg5
L18446743798840018568L
sg6
Nsg23
S'LDP'
p589
sg25
S'0xffffffc0007fc688L'
p590
sg27
Nsba(ibclass
BInstr
p591
(dp592
g2
Nsg17
S'RET'
p593
sg19
S'c0035fd6'
p594
sg21
Vret 
p595
sg5
L18446743798840018572L
sg6
Nsg23
S'RET'
p596
sg25
S'0xffffffc0007fc68cL'
p597
sg27
Nsbasg105
(lp598
S'LDP reg9, reg0, mem'
p599
aS'LDP reg1, reg2, mem'
p600
aS'LDP reg3, reg4, mem'
p601
aS'LDP reg5, reg6, mem'
p602
aS'LDP reg9, reg0, mem,#0x50'
p603
ag593
asg119
Nsg5
S'0xffffffc0007fc678L'
p604
sg121
(lp605
S'0xffffffc0007fc604L'
p606
aS'0xffffffc0007fc674L'
p607
asg6
Nsg123
(lp608
sg127
Nsg128
Nsg129
S'be6cb7dbf904825cdfc5591720269ab2'
p609
sg131
S'7fafeb1ccc9c4b2fa74ebeac277128f8'
p610
sg133
(lp611
g561
ag568
ag575
ag582
ag589
ag596
asg135
Nsbasb.