(ibclass
BFunc
p0
(dp1
S'hash'
p2
NsS'name'
p3
S'msm_isp_update_camif_output_count'
p4
sS'start_address'
p5
L18446743798840021824L
sS'flag'
p6
NsS'program'
p7
NsS'bbs'
p8
(lp9
(ibclass
BBasicBlock
p10
(dp11
S'function'
p12
NsS'binstrs'
p13
(lp14
(ibclass
BInstr
p15
(dp16
g2
NsS'disasm'
p17
S'LDRB            W2, [X1]'
p18
sS'bytes'
p19
S'22004039'
p20
sS'disasm_striped'
p21
Vldrb w2, [x1]
p22
sg5
L18446743798840021824L
sg6
NsS'mnem'
p23
S'LDR'
p24
sS'address'
p25
S'0xffffffc0007fd340L'
p26
sS'basicblock'
p27
Nsba(ibclass
BInstr
p28
(dp29
g2
Nsg17
S'CMP             W2, #7'
p30
sg19
S'5f1c0071'
p31
sg21
Vcmp w2, #7
p32
sg5
L18446743798840021828L
sg6
Nsg23
S'CMP'
p33
sg25
S'0xffffffc0007fd344L'
p34
sg27
Nsba(ibclass
BInstr
p35
(dp36
g2
Nsg17
S'B.HI            locret_FFFFFFC0007FD3EC'
p37
sg19
S'28050054'
p38
sg21
Vb.hi #0xa4
p39
sg5
L18446743798840021832L
sg6
Nsg23
S'B'
p40
sg25
S'0xffffffc0007fd348L'
p41
sg27
NsbasS'disasm_list'
p42
(lp43
S'LDRB reg, mem'
p44
aS'CMP reg, #7'
p45
aS'B.HI func'
p46
asS'end_address'
p47
Nsg5
S'0xffffffc0007fd340L'
p48
sS'preds'
p49
(lp50
sg6
NsS'succs'
p51
(lp52
S'0xffffffc0007fd34cL'
p53
aS'0xffffffc0007fd3ecL'
p54
asS'hash_v3'
p55
NsS'flag_v2'
p56
NsS'hash_v1'
p57
S'fa4df767a85c49648339e2dc5c6807f6'
p58
sS'hash_v2'
p59
S'7c301ab6379e808f2826056093a36564'
p60
sS'mnen_list'
p61
(lp62
g24
ag33
ag40
asS'neighbour_disasm_list'
p63
Nsba(ibclass
BBasicBlock
p64
(dp65
g12
Nsg13
(lp66
(ibclass
BInstr
p67
(dp68
g2
Nsg17
S'ADD             X6, X0, #4,LSL#12'
p69
sg19
S'06104091'
p70
sg21
Vadd x6, x0, #4, lsl #12
p71
sg5
L18446743798840021836L
sg6
Nsg23
S'ADD'
p72
sg25
S'0xffffffc0007fd34cL'
p73
sg27
Nsba(ibclass
BInstr
p74
(dp75
g2
Nsg17
S'ADD             X0, X0, #5,LSL#12'
p76
sg19
S'00144091'
p77
sg21
Vadd x0, x0, #5, lsl #12
p78
sg5
L18446743798840021840L
sg6
Nsg23
S'ADD'
p79
sg25
S'0xffffffc0007fd350L'
p80
sg27
Nsba(ibclass
BInstr
p81
(dp82
g2
Nsg17
S'ADD             X3, X0, #0x10D'
p83
sg19
S'03340491'
p84
sg21
Vadd x3, x0, #0x10d
p85
sg5
L18446743798840021844L
sg6
Nsg23
S'ADD'
p86
sg25
S'0xffffffc0007fd354L'
p87
sg27
Nsba(ibclass
BInstr
p88
(dp89
g2
Nsg17
S'MOV             X2, #0'
p90
sg19
S'020080d2'
p91
sg21
Vmovz x2, #0
p92
sg5
L18446743798840021848L
sg6
Nsg23
S'MOV'
p93
sg25
S'0xffffffc0007fd358L'
p94
sg27
Nsba(ibclass
BInstr
p95
(dp96
g2
Nsg17
S'ADD             X6, X6, #0x168'
p97
sg19
S'c6a00591'
p98
sg21
Vadd x6, x6, #0x168
p99
sg5
L18446743798840021852L
sg6
Nsg23
S'ADD'
p100
sg25
S'0xffffffc0007fd35cL'
p101
sg27
Nsba(ibclass
BInstr
p102
(dp103
g2
Nsg17
S'MOV             X7, #0x1E0'
p104
sg19
S'073c80d2'
p105
sg21
Vmovz x7, #0x1e0
p106
sg5
L18446743798840021856L
sg6
Nsg23
S'MOV'
p107
sg25
S'0xffffffc0007fd360L'
p108
sg27
Nsba(ibclass
BInstr
p109
(dp110
g2
Nsg17
S'ADD             X0, X0, #0x10E'
p111
sg19
S'00380491'
p112
sg21
Vadd x0, x0, #0x10e
p113
sg5
L18446743798840021860L
sg6
Nsg23
S'ADD'
p114
sg25
S'0xffffffc0007fd364L'
p115
sg27
Nsbasg42
(lp116
S'ADD reg, reg, #4,LSL#12'
p117
aS'ADD reg, reg, #5,LSL#12'
p118
aS'ADD reg, reg, #0x10D'
p119
aS'MOV reg, #0'
p120
aS'ADD reg, reg, #0x168'
p121
aS'MOV reg, #0x1E0'
p122
aS'ADD reg, reg, #0x10E'
p123
asg47
Nsg5
S'0xffffffc0007fd34cL'
p124
sg49
(lp125
S'0xffffffc0007fd340L'
p126
asg6
Nsg51
(lp127
S'0xffffffc0007fd368L'
p128
asg55
Nsg56
Nsg57
S'd507c1a49383072e5fc7c6f7e8e1023d'
p129
sg59
S'b55153aa295c792430afd7dce8626cad'
p130
sg61
(lp131
g72
ag79
ag86
ag93
ag100
ag107
ag114
asg63
Nsba(ibclass
BBasicBlock
p132
(dp133
g12
Nsg13
(lp134
(ibclass
BInstr
p135
(dp136
g2
Nsg17
S'LDRB            W4, [X1]'
p137
sg19
S'24004039'
p138
sg21
Vldrb w4, [x1]
p139
sg5
L18446743798840021864L
sg6
Nsg23
S'LDR'
p140
sg25
S'0xffffffc0007fd368L'
p141
sg27
Nsba(ibclass
BInstr
p142
(dp143
g2
Nsg17
S'CMP             W4, W2'
p144
sg19
S'9f00026b'
p145
sg21
Vcmp w4, w2
p146
sg5
L18446743798840021868L
sg6
Nsg23
S'CMP'
p147
sg25
S'0xffffffc0007fd36cL'
p148
sg27
Nsba(ibclass
BInstr
p149
(dp150
g2
Nsg17
S'B.LE            locret_FFFFFFC0007FD3EC'
p151
sg19
S'ed030054'
p152
sg21
Vb.le #0x7c
p153
sg5
L18446743798840021872L
sg6
Nsg23
g40
sg25
S'0xffffffc0007fd370L'
p154
sg27
Nsbasg42
(lp155
S'LDRB reg, mem'
p156
aS'CMP reg, reg'
p157
aS'B.LE func'
p158
asg47
Nsg5
S'0xffffffc0007fd368L'
p159
sg49
(lp160
S'0xffffffc0007fd34cL'
p161
aS'0xffffffc0007fd3e4L'
p162
asg6
Nsg51
(lp163
S'0xffffffc0007fd374L'
p164
aS'0xffffffc0007fd3ecL'
p165
asg55
Nsg56
Nsg57
S'fa4df767a85c49648339e2dc5c6807f6'
p166
sg59
S'5beb37e4483cf899bea81c8e86661e3a'
p167
sg61
(lp168
g140
ag147
ag40
asg63
Nsba(ibclass
BBasicBlock
p169
(dp170
g12
Nsg13
(lp171
(ibclass
BInstr
p172
(dp173
g2
Nsg17
S'ADD             X4, X1, X2,LSL#2'
p174
sg19
S'2408028b'
p175
sg21
Vadd x4, x1, x2, lsl #2
p176
sg5
L18446743798840021876L
sg6
Nsg23
S'ADD'
p177
sg25
S'0xffffffc0007fd374L'
p178
sg27
Nsba(ibclass
BInstr
p179
(dp180
g2
Nsg17
S'LDRB            W4, [X4,#4]'
p181
sg19
S'84104039'
p182
sg21
Vldrb w4, [x4, #4]
p183
sg5
L18446743798840021880L
sg6
Nsg23
S'LDR'
p184
sg25
S'0xffffffc0007fd378L'
p185
sg27
Nsba(ibclass
BInstr
p186
(dp187
g2
Nsg17
S'CMP             W4, #6'
p188
sg19
S'9f180071'
p189
sg21
Vcmp w4, #6
p190
sg5
L18446743798840021884L
sg6
Nsg23
S'CMP'
p191
sg25
S'0xffffffc0007fd37cL'
p192
sg27
Nsba(ibclass
BInstr
p193
(dp194
g2
Nsg17
S'B.HI            locret_FFFFFFC0007FD3EC'
p195
sg19
S'68030054'
p196
sg21
Vb.hi #0x6c
p197
sg5
L18446743798840021888L
sg6
Nsg23
g40
sg25
S'0xffffffc0007fd380L'
p198
sg27
Nsbasg42
(lp199
S'ADD reg, reg, reg,LSL#2'
p200
aS'LDRB reg, mem'
p201
aS'CMP reg, #6'
p202
aS'B.HI func'
p203
asg47
Nsg5
S'0xffffffc0007fd374L'
p204
sg49
(lp205
S'0xffffffc0007fd368L'
p206
asg6
Nsg51
(lp207
S'0xffffffc0007fd384L'
p208
aS'0xffffffc0007fd3ecL'
p209
asg55
Nsg56
Nsg57
S'0ae8aac804af3a318df13a4ace7a8890'
p210
sg59
S'0d39c5c44a368610ca4e2e06d83b74f1'
p211
sg61
(lp212
g177
ag184
ag191
ag40
asg63
Nsba(ibclass
BBasicBlock
p213
(dp214
g12
Nsg13
(lp215
(ibclass
BInstr
p216
(dp217
g2
Nsg17
S'MOV             W4, W4'
p218
sg19
S'e403042a'
p219
sg21
Vmov w4, w4
p220
sg5
L18446743798840021892L
sg6
Nsg23
S'MOV'
p221
sg25
S'0xffffffc0007fd384L'
p222
sg27
Nsba(ibclass
BInstr
p223
(dp224
g2
Nsg17
S'MADD            X4, X4, X7, X6'
p225
sg19
S'8418079b'
p226
sg21
Vmadd x4, x4, x7, x6
p227
sg5
L18446743798840021896L
sg6
Nsg23
S'MADD'
p228
sg25
S'0xffffffc0007fd388L'
p229
sg27
Nsba(ibclass
BInstr
p230
(dp231
g2
Nsg17
S'LDR             W5, [X4,#0x10]'
p232
sg19
S'851040b9'
p233
sg21
Vldr w5, [x4, #0x10]
p234
sg5
L18446743798840021900L
sg6
Nsg23
S'LDR'
p235
sg25
S'0xffffffc0007fd38cL'
p236
sg27
Nsba(ibclass
BInstr
p237
(dp238
g2
Nsg17
S'CMP             W5, #4'
p239
sg19
S'bf100071'
p240
sg21
Vcmp w5, #4
p241
sg5
L18446743798840021904L
sg6
Nsg23
S'CMP'
p242
sg25
S'0xffffffc0007fd390L'
p243
sg27
Nsba(ibclass
BInstr
p244
(dp245
g2
Nsg17
S'B.HI            loc_FFFFFFC0007FD3E4'
p246
sg19
S'88020054'
p247
sg21
Vb.hi #0x50
p248
sg5
L18446743798840021908L
sg6
Nsg23
g40
sg25
S'0xffffffc0007fd394L'
p249
sg27
Nsbasg42
(lp250
S'MOV reg, reg'
p251
aS'MADD reg, reg, reg, reg'
p252
aS'LDR reg, mem'
p253
aS'CMP reg, #4'
p254
aS'B.HI func'
p255
asg47
Nsg5
S'0xffffffc0007fd384L'
p256
sg49
(lp257
S'0xffffffc0007fd374L'
p258
asg6
Nsg51
(lp259
S'0xffffffc0007fd398L'
p260
aS'0xffffffc0007fd3e4L'
p261
asg55
Nsg56
Nsg57
S'f389f5e07ac280af60443c3e791a388f'
p262
sg59
S'47fb8f34db7a0a64e25ef4e67a91ba7c'
p263
sg61
(lp264
g221
ag228
ag235
ag242
ag40
asg63
Nsba(ibclass
BBasicBlock
p265
(dp266
g12
Nsg13
(lp267
(ibclass
BInstr
p268
(dp269
g2
Nsg17
S'LDR             W4, [X1,#0x20]'
p270
sg19
S'242040b9'
p271
sg21
Vldr w4, [x1, #0x20]
p272
sg5
L18446743798840021912L
sg6
Nsg23
S'LDR'
p273
sg25
S'0xffffffc0007fd398L'
p274
sg27
Nsba(ibclass
BInstr
p275
(dp276
g2
Nsg17
S'B.EQ            loc_FFFFFFC0007FD3A8'
p277
sg19
S'60000054'
p278
sg21
Vb.eq #0xc
p279
sg5
L18446743798840021916L
sg6
Nsg23
g40
sg25
S'0xffffffc0007fd39cL'
p280
sg27
Nsbasg42
(lp281
S'LDR reg, mem'
p282
aS'B.EQ func'
p283
asg47
Nsg5
S'0xffffffc0007fd398L'
p284
sg49
(lp285
S'0xffffffc0007fd384L'
p286
asg6
Nsg51
(lp287
S'0xffffffc0007fd3a0L'
p288
aS'0xffffffc0007fd3a8L'
p289
asg55
Nsg56
Nsg57
S'd269f92813b7f9be0535ea2960d9947c'
p290
sg59
S'473cf654e9b2fa8440e59d420a9fb56d'
p291
sg61
(lp292
g273
ag40
asg63
Nsba(ibclass
BBasicBlock
p293
(dp294
g12
Nsg13
(lp295
(ibclass
BInstr
p296
(dp297
g2
Nsg17
S'CMP             W5, #2'
p298
sg19
S'bf080071'
p299
sg21
Vcmp w5, #2
p300
sg5
L18446743798840021920L
sg6
Nsg23
S'CMP'
p301
sg25
S'0xffffffc0007fd3a0L'
p302
sg27
Nsba(ibclass
BInstr
p303
(dp304
g2
Nsg17
S'B.HI            loc_FFFFFFC0007FD3C8'
p305
sg19
S'28010054'
p306
sg21
Vb.hi #0x24
p307
sg5
L18446743798840021924L
sg6
Nsg23
g40
sg25
S'0xffffffc0007fd3a4L'
p308
sg27
Nsbasg42
(lp309
S'CMP reg, #2'
p310
aS'B.HI func'
p311
asg47
Nsg5
S'0xffffffc0007fd3a0L'
p312
sg49
(lp313
S'0xffffffc0007fd398L'
p314
asg6
Nsg51
(lp315
S'0xffffffc0007fd3a8L'
p316
aS'0xffffffc0007fd3c8L'
p317
asg55
Nsg56
Nsg57
S'c78fd620a449e3c979d3f3ec12d4ee88'
p318
sg59
S'942272c425365d83daff152fc7b2ce0c'
p319
sg61
(lp320
g301
ag40
asg63
Nsba(ibclass
BBasicBlock
p321
(dp322
g12
Nsg13
(lp323
(ibclass
BInstr
p324
(dp325
g2
Nsg17
S'CMP             W4, #1'
p326
sg19
S'9f040071'
p327
sg21
Vcmp w4, #1
p328
sg5
L18446743798840021928L
sg6
Nsg23
S'CMP'
p329
sg25
S'0xffffffc0007fd3a8L'
p330
sg27
Nsba(ibclass
BInstr
p331
(dp332
g2
Nsg17
S'LDRB            W4, [X3]'
p333
sg19
S'64004039'
p334
sg21
Vldrb w4, [x3]
p335
sg5
L18446743798840021932L
sg6
Nsg23
S'LDR'
p336
sg25
S'0xffffffc0007fd3acL'
p337
sg27
Nsba(ibclass
BInstr
p338
(dp339
g2
Nsg17
S'B.NE            loc_FFFFFFC0007FD3BC'
p340
sg19
S'61000054'
p341
sg21
Vb.ne #0xc
p342
sg5
L18446743798840021936L
sg6
Nsg23
g40
sg25
S'0xffffffc0007fd3b0L'
p343
sg27
Nsbasg42
(lp344
S'CMP reg, #1'
p345
aS'LDRB reg, mem'
p346
aS'B.NE func'
p347
asg47
Nsg5
S'0xffffffc0007fd3a8L'
p348
sg49
(lp349
S'0xffffffc0007fd398L'
p350
aS'0xffffffc0007fd3a0L'
p351
asg6
Nsg51
(lp352
S'0xffffffc0007fd3b4L'
p353
aS'0xffffffc0007fd3bcL'
p354
asg55
Nsg56
Nsg57
S'f14ba23bebb3d568b56c4c24e1549c7e'
p355
sg59
S'eb291230c932b905b037b156bdf6fd45'
p356
sg61
(lp357
g329
ag336
ag40
asg63
Nsba(ibclass
BBasicBlock
p358
(dp359
g12
Nsg13
(lp360
(ibclass
BInstr
p361
(dp362
g2
Nsg17
S'ADD             W4, W4, #1'
p363
sg19
S'84040011'
p364
sg21
Vadd w4, w4, #1
p365
sg5
L18446743798840021940L
sg6
Nsg23
S'ADD'
p366
sg25
S'0xffffffc0007fd3b4L'
p367
sg27
Nsba(ibclass
BInstr
p368
(dp369
g2
Nsg17
S'B               loc_FFFFFFC0007FD3C0'
p370
sg19
S'02000014'
p371
sg21
Vb #8
p372
sg5
L18446743798840021944L
sg6
Nsg23
g40
sg25
S'0xffffffc0007fd3b8L'
p373
sg27
Nsbasg42
(lp374
S'ADD reg, reg, #1'
p375
aS'B func'
p376
asg47
Nsg5
S'0xffffffc0007fd3b4L'
p377
sg49
(lp378
S'0xffffffc0007fd3a8L'
p379
asg6
Nsg51
(lp380
S'0xffffffc0007fd3c0L'
p381
asg55
Nsg56
Nsg57
S'f59ed0fb4617df9a98cc94b1d7075f92'
p382
sg59
S'cee4ed047876b9909a7833592f765a91'
p383
sg61
(lp384
g366
ag40
asg63
Nsba(ibclass
BBasicBlock
p385
(dp386
g12
Nsg13
(lp387
(ibclass
BInstr
p388
(dp389
g2
Nsg17
S'SUB             W4, W4, #1'
p390
sg19
S'84040051'
p391
sg21
Vsub w4, w4, #1
p392
sg5
L18446743798840021948L
sg6
Nsg23
S'SUB'
p393
sg25
S'0xffffffc0007fd3bcL'
p394
sg27
Nsbasg42
(lp395
S'SUB reg, reg, #1'
p396
asg47
Nsg5
S'0xffffffc0007fd3bcL'
p397
sg49
(lp398
S'0xffffffc0007fd3a8L'
p399
asg6
Nsg51
(lp400
S'0xffffffc0007fd3c0L'
p401
asg55
Nsg56
Nsg57
S'241dd841abade20fcb27b8a9f494e1eb'
p402
sg59
S'e272600276d3e58f6eccc0178c369784'
p403
sg61
(lp404
g393
asg63
Nsba(ibclass
BBasicBlock
p405
(dp406
g12
Nsg13
(lp407
(ibclass
BInstr
p408
(dp409
g2
Nsg17
S'STRB            W4, [X3]'
p410
sg19
S'64000039'
p411
sg21
Vstrb w4, [x3]
p412
sg5
L18446743798840021952L
sg6
Nsg23
S'STR'
p413
sg25
S'0xffffffc0007fd3c0L'
p414
sg27
Nsba(ibclass
BInstr
p415
(dp416
g2
Nsg17
S'B               loc_FFFFFFC0007FD3E4'
p417
sg19
S'08000014'
p418
sg21
Vb #0x20
p419
sg5
L18446743798840021956L
sg6
Nsg23
g40
sg25
S'0xffffffc0007fd3c4L'
p420
sg27
Nsbasg42
(lp421
S'STRB reg, mem'
p422
aS'B func'
p423
asg47
Nsg5
S'0xffffffc0007fd3c0L'
p424
sg49
(lp425
S'0xffffffc0007fd3b4L'
p426
aS'0xffffffc0007fd3bcL'
p427
asg6
Nsg51
(lp428
S'0xffffffc0007fd3e4L'
p429
asg55
Nsg56
Nsg57
S'bb4d1d0d0e01d20d3b7cbdf52fe2caa6'
p430
sg59
S'ed8de5ef8047facdb1c726a3e7a5f2b4'
p431
sg61
(lp432
g413
ag40
asg63
Nsba(ibclass
BBasicBlock
p433
(dp434
g12
Nsg13
(lp435
(ibclass
BInstr
p436
(dp437
g2
Nsg17
S'CMP             W4, #1'
p438
sg19
S'9f040071'
p439
sg21
Vcmp w4, #1
p440
sg5
L18446743798840021960L
sg6
Nsg23
S'CMP'
p441
sg25
S'0xffffffc0007fd3c8L'
p442
sg27
Nsba(ibclass
BInstr
p443
(dp444
g2
Nsg17
S'LDRB            W4, [X0]'
p445
sg19
S'04004039'
p446
sg21
Vldrb w4, [x0]
p447
sg5
L18446743798840021964L
sg6
Nsg23
S'LDR'
p448
sg25
S'0xffffffc0007fd3ccL'
p449
sg27
Nsba(ibclass
BInstr
p450
(dp451
g2
Nsg17
S'B.NE            loc_FFFFFFC0007FD3DC'
p452
sg19
S'61000054'
p453
sg21
Vb.ne #0xc
p454
sg5
L18446743798840021968L
sg6
Nsg23
g40
sg25
S'0xffffffc0007fd3d0L'
p455
sg27
Nsbasg42
(lp456
S'CMP reg, #1'
p457
aS'LDRB reg, mem'
p458
aS'B.NE func'
p459
asg47
Nsg5
S'0xffffffc0007fd3c8L'
p460
sg49
(lp461
S'0xffffffc0007fd3a0L'
p462
asg6
Nsg51
(lp463
S'0xffffffc0007fd3d4L'
p464
aS'0xffffffc0007fd3dcL'
p465
asg55
Nsg56
Nsg57
S'f14ba23bebb3d568b56c4c24e1549c7e'
p466
sg59
S'eb291230c932b905b037b156bdf6fd45'
p467
sg61
(lp468
g441
ag448
ag40
asg63
Nsba(ibclass
BBasicBlock
p469
(dp470
g12
Nsg13
(lp471
(ibclass
BInstr
p472
(dp473
g2
Nsg17
S'ADD             W4, W4, #1'
p474
sg19
S'84040011'
p475
sg21
Vadd w4, w4, #1
p476
sg5
L18446743798840021972L
sg6
Nsg23
S'ADD'
p477
sg25
S'0xffffffc0007fd3d4L'
p478
sg27
Nsba(ibclass
BInstr
p479
(dp480
g2
Nsg17
S'B               loc_FFFFFFC0007FD3E0'
p481
sg19
S'02000014'
p482
sg21
Vb #8
p483
sg5
L18446743798840021976L
sg6
Nsg23
g40
sg25
S'0xffffffc0007fd3d8L'
p484
sg27
Nsbasg42
(lp485
S'ADD reg, reg, #1'
p486
aS'B func'
p487
asg47
Nsg5
S'0xffffffc0007fd3d4L'
p488
sg49
(lp489
S'0xffffffc0007fd3c8L'
p490
asg6
Nsg51
(lp491
S'0xffffffc0007fd3e0L'
p492
asg55
Nsg56
Nsg57
S'f59ed0fb4617df9a98cc94b1d7075f92'
p493
sg59
S'cee4ed047876b9909a7833592f765a91'
p494
sg61
(lp495
g477
ag40
asg63
Nsba(ibclass
BBasicBlock
p496
(dp497
g12
Nsg13
(lp498
(ibclass
BInstr
p499
(dp500
g2
Nsg17
S'SUB             W4, W4, #1'
p501
sg19
S'84040051'
p502
sg21
Vsub w4, w4, #1
p503
sg5
L18446743798840021980L
sg6
Nsg23
S'SUB'
p504
sg25
S'0xffffffc0007fd3dcL'
p505
sg27
Nsbasg42
(lp506
S'SUB reg, reg, #1'
p507
asg47
Nsg5
S'0xffffffc0007fd3dcL'
p508
sg49
(lp509
S'0xffffffc0007fd3c8L'
p510
asg6
Nsg51
(lp511
S'0xffffffc0007fd3e0L'
p512
asg55
Nsg56
Nsg57
S'241dd841abade20fcb27b8a9f494e1eb'
p513
sg59
S'e272600276d3e58f6eccc0178c369784'
p514
sg61
(lp515
g504
asg63
Nsba(ibclass
BBasicBlock
p516
(dp517
g12
Nsg13
(lp518
(ibclass
BInstr
p519
(dp520
g2
Nsg17
S'STRB            W4, [X0]'
p521
sg19
S'04000039'
p522
sg21
Vstrb w4, [x0]
p523
sg5
L18446743798840021984L
sg6
Nsg23
S'STR'
p524
sg25
S'0xffffffc0007fd3e0L'
p525
sg27
Nsbasg42
(lp526
S'STRB reg, mem'
p527
asg47
Nsg5
S'0xffffffc0007fd3e0L'
p528
sg49
(lp529
S'0xffffffc0007fd3d4L'
p530
aS'0xffffffc0007fd3dcL'
p531
asg6
Nsg51
(lp532
S'0xffffffc0007fd3e4L'
p533
asg55
Nsg56
Nsg57
S'3fe0dfff438296bb525e0e8642586c2d'
p534
sg59
S'2f0115d1bb5d9a375d04ee947aa49044'
p535
sg61
(lp536
g524
asg63
Nsba(ibclass
BBasicBlock
p537
(dp538
g12
Nsg13
(lp539
(ibclass
BInstr
p540
(dp541
g2
Nsg17
S'ADD             X2, X2, #1'
p542
sg19
S'42040091'
p543
sg21
Vadd x2, x2, #1
p544
sg5
L18446743798840021988L
sg6
Nsg23
S'ADD'
p545
sg25
S'0xffffffc0007fd3e4L'
p546
sg27
Nsba(ibclass
BInstr
p547
(dp548
g2
Nsg17
S'B               loc_FFFFFFC0007FD368'
p549
sg19
S'e0ffff17'
p550
sg21
Vb #0xffffffffffffff80
p551
sg5
L18446743798840021992L
sg6
Nsg23
g40
sg25
S'0xffffffc0007fd3e8L'
p552
sg27
Nsbasg42
(lp553
S'ADD reg, reg, #1'
p554
aS'B func'
p555
asg47
Nsg5
S'0xffffffc0007fd3e4L'
p556
sg49
(lp557
S'0xffffffc0007fd384L'
p558
aS'0xffffffc0007fd3c0L'
p559
aS'0xffffffc0007fd3e0L'
p560
asg6
Nsg51
(lp561
S'0xffffffc0007fd368L'
p562
asg55
Nsg56
Nsg57
S'f59ed0fb4617df9a98cc94b1d7075f92'
p563
sg59
S'cee4ed047876b9909a7833592f765a91'
p564
sg61
(lp565
g545
ag40
asg63
Nsba(ibclass
BBasicBlock
p566
(dp567
g12
Nsg13
(lp568
(ibclass
BInstr
p569
(dp570
g2
Nsg17
S'RET'
p571
sg19
S'c0035fd6'
p572
sg21
Vret 
p573
sg5
L18446743798840021996L
sg6
Nsg23
S'RET'
p574
sg25
S'0xffffffc0007fd3ecL'
p575
sg27
Nsbasg42
(lp576
g571
asg47
Nsg5
S'0xffffffc0007fd3ecL'
p577
sg49
(lp578
S'0xffffffc0007fd340L'
p579
aS'0xffffffc0007fd368L'
p580
aS'0xffffffc0007fd374L'
p581
asg6
Nsg51
(lp582
sg55
Nsg56
Nsg57
S'fb902bc4807c307b9309f2b528b96f2b'
p583
sg59
S'fb902bc4807c307b9309f2b528b96f2b'
p584
sg61
(lp585
g574
asg63
Nsbasb.