(ibclass
BFunc
p0
(dp1
S'hash'
p2
NsS'name'
p3
S'msm_comm_flush'
p4
sS'start_address'
p5
L18446743798839629312L
sS'flag'
p6
NsS'program'
p7
NsS'bbs'
p8
(lp9
(ibclass
BBasicBlock
p10
(dp11
S'function'
p12
NsS'binstrs'
p13
(lp14
(ibclass
BInstr
p15
(dp16
g2
NsS'disasm'
p17
S'STP             X29, X30, [SP,#-0x10+var_70]!'
p18
sS'bytes'
p19
S'fd7bb8a9'
p20
sS'disasm_striped'
p21
Vstp x29, x30, [sp, #-0x80]!
p22
sg5
L18446743798839629312L
sg6
NsS'mnem'
p23
S'STP'
p24
sS'address'
p25
S'0xffffffc00079d600L'
p26
sS'basicblock'
p27
Nsba(ibclass
BInstr
p28
(dp29
g2
Nsg17
S'MOV             X29, SP'
p30
sg19
S'fd030091'
p31
sg21
Vmov x29, sp
p32
sg5
L18446743798839629316L
sg6
Nsg23
S'MOV'
p33
sg25
S'0xffffffc00079d604L'
p34
sg27
Nsba(ibclass
BInstr
p35
(dp36
g2
Nsg17
S'STP             X19, X20, [SP,#0x70+var_60]'
p37
sg19
S'f35301a9'
p38
sg21
Vstp x19, x20, [sp, #0x10]
p39
sg5
L18446743798839629320L
sg6
Nsg23
S'STP'
p40
sg25
S'0xffffffc00079d608L'
p41
sg27
Nsba(ibclass
BInstr
p42
(dp43
g2
Nsg17
S'STP             X21, X22, [SP,#0x70+var_50]'
p44
sg19
S'f55b02a9'
p45
sg21
Vstp x21, x22, [sp, #0x20]
p46
sg5
L18446743798839629324L
sg6
Nsg23
S'STP'
p47
sg25
S'0xffffffc00079d60cL'
p48
sg27
Nsba(ibclass
BInstr
p49
(dp50
g2
Nsg17
S'STP             X23, X24, [SP,#0x70+var_40]'
p51
sg19
S'f76303a9'
p52
sg21
Vstp x23, x24, [sp, #0x30]
p53
sg5
L18446743798839629328L
sg6
Nsg23
S'STP'
p54
sg25
S'0xffffffc00079d610L'
p55
sg27
Nsba(ibclass
BInstr
p56
(dp57
g2
Nsg17
S'STP             X25, X26, [SP,#0x70+var_30]'
p58
sg19
S'f96b04a9'
p59
sg21
Vstp x25, x26, [sp, #0x40]
p60
sg5
L18446743798839629332L
sg6
Nsg23
S'STP'
p61
sg25
S'0xffffffc00079d614L'
p62
sg27
Nsba(ibclass
BInstr
p63
(dp64
g2
Nsg17
S'STP             X27, X28, [SP,#0x70+var_20]'
p65
sg19
S'fb7305a9'
p66
sg21
Vstp x27, x28, [sp, #0x50]
p67
sg5
L18446743798839629336L
sg6
Nsg23
S'STP'
p68
sg25
S'0xffffffc00079d618L'
p69
sg27
Nsba(ibclass
BInstr
p70
(dp71
g2
Nsg17
S'MOV             X19, X0'
p72
sg19
S'f30300aa'
p73
sg21
Vmov x19, x0
p74
sg5
L18446743798839629340L
sg6
Nsg23
S'MOV'
p75
sg25
S'0xffffffc00079d61cL'
p76
sg27
Nsba(ibclass
BInstr
p77
(dp78
g2
Nsg17
S'CBNZ            X0, loc_FFFFFFC00079D660'
p79
sg19
S'000200b5'
p80
sg21
Vcbnz x0, #0x40
p81
sg5
L18446743798839629344L
sg6
Nsg23
S'CBNZ'
p82
sg25
S'0xffffffc00079d620L'
p83
sg27
NsbasS'disasm_list'
p84
(lp85
S'STP reg9, reg0, mem!'
p86
aS'MOV reg9, SP'
p87
aS'STP reg9, reg0, mem'
p88
aS'STP reg1, reg2, mem'
p89
aS'STP reg3, reg4, mem'
p90
aS'STP reg5, reg6, mem'
p91
aS'STP reg7, reg8, mem'
p92
aS'MOV reg9, reg'
p93
aS'CBNZ reg, func'
p94
asS'end_address'
p95
Nsg5
S'0xffffffc00079d600L'
p96
sS'preds'
p97
(lp98
sg6
NsS'succs'
p99
(lp100
S'0xffffffc00079d624L'
p101
aS'0xffffffc00079d660L'
p102
asS'hash_v3'
p103
NsS'flag_v2'
p104
NsS'hash_v1'
p105
S'1efdf6b8cac55575c2fd0c56e0293609'
p106
sS'hash_v2'
p107
S'89d4cfe2998347bbbc25ad461c3b97bd'
p108
sS'mnen_list'
p109
(lp110
g24
ag33
ag40
ag47
ag54
ag61
ag68
ag75
ag82
asS'neighbour_disasm_list'
p111
Nsba(ibclass
BBasicBlock
p112
(dp113
g12
Nsg13
(lp114
(ibclass
BInstr
p115
(dp116
g2
Nsg17
S'ADRP            X0, #qword_FFFFFFC000E458A0@PAGE'
p117
sg19
S'40350090'
p118
sg21
Vadrp x0, #0x6a8000
p119
sg5
L18446743798839629348L
sg6
Nsg23
S'ADRP'
p120
sg25
S'0xffffffc00079d624L'
p121
sg27
Nsba(ibclass
BInstr
p122
(dp123
g2
Nsg17
S'LDR             X0, [X0,#qword_FFFFFFC000E458A0@PAGEOFF]'
p124
sg19
S'005044f9'
p125
sg21
Vldr x0, [x0, #0x8a0]
p126
sg5
L18446743798839629352L
sg6
Nsg23
S'LDR'
p127
sg25
S'0xffffffc00079d628L'
p128
sg27
Nsba(ibclass
BInstr
p129
(dp130
g2
Nsg17
S'LDR             W0, [X0]'
p131
sg19
S'000040b9'
p132
sg21
Vldr w0, [x0]
p133
sg5
L18446743798839629356L
sg6
Nsg23
S'LDR'
p134
sg25
S'0xffffffc00079d62cL'
p135
sg27
Nsba(ibclass
BInstr
p136
(dp137
g2
Nsg17
S'TBZ             W0, #0, loc_FFFFFFC00079D9E8'
p138
sg19
S'c01d0036'
p139
sg21
Vtbz w0, #0, #0x3b8
p140
sg5
L18446743798839629360L
sg6
Nsg23
S'TBZ'
p141
sg25
S'0xffffffc00079d630L'
p142
sg27
Nsbasg84
(lp143
S'ADRP reg, #func@PAGE'
p144
aS'LDR reg, mem'
p145
aS'LDR reg, mem'
p146
aS'TBZ reg, #0, func'
p147
asg95
Nsg5
S'0xffffffc00079d624L'
p148
sg97
(lp149
S'0xffffffc00079d600L'
p150
asg6
Nsg99
(lp151
S'0xffffffc00079d634L'
p152
aS'0xffffffc00079d9e8L'
p153
asg103
Nsg104
Nsg105
S'2de94c9e326481f2f467f11acce8dcc9'
p154
sg107
S'f9f7225e2bae36aff04e5d93bafe5e1d'
p155
sg109
(lp156
g120
ag127
ag134
ag141
asg111
Nsba(ibclass
BBasicBlock
p157
(dp158
g12
Nsg13
(lp159
(ibclass
BInstr
p160
(dp161
g2
Nsg17
S'ADRP            X0, #qword_FFFFFFC000E43D48@PAGE'
p162
sg19
S'203500d0'
p163
sg21
Vadrp x0, #0x6a6000
p164
sg5
L18446743798839629364L
sg6
Nsg23
S'ADRP'
p165
sg25
S'0xffffffc00079d634L'
p166
sg27
Nsba(ibclass
BInstr
p167
(dp168
g2
Nsg17
S'LDR             X0, [X0,#qword_FFFFFFC000E43D48@PAGEOFF]'
p169
sg19
S'00a446f9'
p170
sg21
Vldr x0, [x0, #0xd48]
p171
sg5
L18446743798839629368L
sg6
Nsg23
S'LDR'
p172
sg25
S'0xffffffc00079d638L'
p173
sg27
Nsba(ibclass
BInstr
p174
(dp175
g2
Nsg17
S'MOV             W20, #0xFFFFFFEA'
p176
sg19
S'b4028012'
p177
sg21
Vmovn w20, #0x15
p178
sg5
L18446743798839629372L
sg6
Nsg23
S'MOV'
p179
sg25
S'0xffffffc00079d63cL'
p180
sg27
Nsba(ibclass
BInstr
p181
(dp182
g2
Nsg17
S'LDR             W0, [X0]'
p183
sg19
S'000040b9'
p184
sg21
Vldr w0, [x0]
p185
sg5
L18446743798839629376L
sg6
Nsg23
S'LDR'
p186
sg25
S'0xffffffc00079d640L'
p187
sg27
Nsba(ibclass
BInstr
p188
(dp189
g2
Nsg17
S'CBNZ            W0, loc_FFFFFFC00079D9EC'
p190
sg19
S'401d0035'
p191
sg21
Vcbnz w0, #0x3a8
p192
sg5
L18446743798839629380L
sg6
Nsg23
S'CBNZ'
p193
sg25
S'0xffffffc00079d644L'
p194
sg27
Nsbasg84
(lp195
S'ADRP reg, #func@PAGE'
p196
aS'LDR reg, mem'
p197
aS'MOV reg0, #0xFFFFFFEA'
p198
aS'LDR reg, mem'
p199
aS'CBNZ reg, func'
p200
asg95
Nsg5
S'0xffffffc00079d634L'
p201
sg97
(lp202
S'0xffffffc00079d624L'
p203
asg6
Nsg99
(lp204
S'0xffffffc00079d648L'
p205
aS'0xffffffc00079d9ecL'
p206
asg103
Nsg104
Nsg105
S'd80cc6d531f24a5b2d60307977d236c7'
p207
sg107
S'aeb30c42a5eaa4a016930da3733155ca'
p208
sg109
(lp209
g165
ag172
ag179
ag186
ag193
asg111
Nsba(ibclass
BBasicBlock
p210
(dp211
g12
Nsg13
(lp212
(ibclass
BInstr
p213
(dp214
g2
Nsg17
S'ADRP            X0, #unk_FFFFFFC0013B7186@PAGE'
p215
sg19
S'c06000d0'
p216
sg21
Vadrp x0, #0xc1a000
p217
sg5
L18446743798839629384L
sg6
Nsg23
S'ADRP'
p218
sg25
S'0xffffffc00079d648L'
p219
sg27
Nsba(ibclass
BInstr
p220
(dp221
g2
Nsg17
S'ADRP            X1, #(aQcomMdssDsi_17+0x1B)@PAGE; "err"'
p222
sg19
S'815c00d0'
p223
sg21
Vadrp x1, #0xb92000
p224
sg5
L18446743798839629388L
sg6
Nsg23
S'ADRP'
p225
sg25
S'0xffffffc00079d64cL'
p226
sg27
Nsba(ibclass
BInstr
p227
(dp228
g2
Nsg17
S'ADD             X0, X0, #unk_FFFFFFC0013B7186@PAGEOFF'
p229
sg19
S'00180691'
p230
sg21
Vadd x0, x0, #0x186
p231
sg5
L18446743798839629392L
sg6
Nsg23
S'ADD'
p232
sg25
S'0xffffffc00079d650L'
p233
sg27
Nsba(ibclass
BInstr
p234
(dp235
g2
Nsg17
S'ADD             X1, X1, #(aQcomMdssDsi_17+0x1B)@PAGEOFF; "err"'
p236
sg19
S'21800091'
p237
sg21
Vadd x1, x1, #0x20
p238
sg5
L18446743798839629396L
sg6
Nsg23
S'ADD'
p239
sg25
S'0xffffffc00079d654L'
p240
sg27
Nsba(ibclass
BInstr
p241
(dp242
g2
Nsg17
S'MOV             X2, X19'
p243
sg19
S'e20313aa'
p244
sg21
Vmov x2, x19
p245
sg5
L18446743798839629400L
sg6
Nsg23
S'MOV'
p246
sg25
S'0xffffffc00079d658L'
p247
sg27
Nsba(ibclass
BInstr
p248
(dp249
g2
Nsg17
S'B               loc_FFFFFFC00079D6E4'
p250
sg19
S'22000014'
p251
sg21
Vb #0x88
p252
sg5
L18446743798839629404L
sg6
Nsg23
S'B'
p253
sg25
S'0xffffffc00079d65cL'
p254
sg27
Nsbasg84
(lp255
S'ADRP reg, #func@PAGE'
p256
aS'ADRP reg, #(aQcomMdssDsi_17+0x1B)@PAGE'
p257
aS'ADD reg, reg, #func@PAGEOFF'
p258
aS'ADD reg, reg, #(aQcomMdssDsi_17+0x1B)@PAGEOFF'
p259
aS'MOV reg, reg9'
p260
aS'B func'
p261
asg95
Nsg5
S'0xffffffc00079d648L'
p262
sg97
(lp263
S'0xffffffc00079d634L'
p264
asg6
Nsg99
(lp265
S'0xffffffc00079d6e4L'
p266
asg103
Nsg104
Nsg105
S'98a279a9279bfb8dff751b0d8c2b1c46'
p267
sg107
S'25d07cf930400f34f4f6a51cb0206bb1'
p268
sg109
(lp269
g218
ag225
ag232
ag239
ag246
ag253
asg111
Nsba(ibclass
BBasicBlock
p270
(dp271
g12
Nsg13
(lp272
(ibclass
BInstr
p273
(dp274
g2
Nsg17
S'LDR             X21, [X0,#0x60]'
p275
sg19
S'153040f9'
p276
sg21
Vldr x21, [x0, #0x60]
p277
sg5
L18446743798839629408L
sg6
Nsg23
S'LDR'
p278
sg25
S'0xffffffc00079d660L'
p279
sg27
Nsba(ibclass
BInstr
p280
(dp281
g2
Nsg17
S'CBNZ            X21, loc_FFFFFFC00079D6A4'
p282
sg19
S'150200b5'
p283
sg21
Vcbnz x21, #0x40
p284
sg5
L18446743798839629412L
sg6
Nsg23
S'CBNZ'
p285
sg25
S'0xffffffc00079d664L'
p286
sg27
Nsbasg84
(lp287
S'LDR reg1, mem'
p288
aS'CBNZ reg1, func'
p289
asg95
Nsg5
S'0xffffffc00079d660L'
p290
sg97
(lp291
S'0xffffffc00079d600L'
p292
asg6
Nsg99
(lp293
S'0xffffffc00079d668L'
p294
aS'0xffffffc00079d6a4L'
p295
asg103
Nsg104
Nsg105
S'5522ad3e8b25e3a8f9013bb9571723e7'
p296
sg107
S'08e326848748cb2f4eecaed6f51eb737'
p297
sg109
(lp298
g278
ag285
asg111
Nsba(ibclass
BBasicBlock
p299
(dp300
g12
Nsg13
(lp301
(ibclass
BInstr
p302
(dp303
g2
Nsg17
S'ADRP            X0, #qword_FFFFFFC000E458A0@PAGE'
p304
sg19
S'40350090'
p305
sg21
Vadrp x0, #0x6a8000
p306
sg5
L18446743798839629416L
sg6
Nsg23
S'ADRP'
p307
sg25
S'0xffffffc00079d668L'
p308
sg27
Nsba(ibclass
BInstr
p309
(dp310
g2
Nsg17
S'LDR             X0, [X0,#qword_FFFFFFC000E458A0@PAGEOFF]'
p311
sg19
S'005044f9'
p312
sg21
Vldr x0, [x0, #0x8a0]
p313
sg5
L18446743798839629420L
sg6
Nsg23
S'LDR'
p314
sg25
S'0xffffffc00079d66cL'
p315
sg27
Nsba(ibclass
BInstr
p316
(dp317
g2
Nsg17
S'LDR             W0, [X0]'
p318
sg19
S'000040b9'
p319
sg21
Vldr w0, [x0]
p320
sg5
L18446743798839629424L
sg6
Nsg23
S'LDR'
p321
sg25
S'0xffffffc00079d670L'
p322
sg27
Nsba(ibclass
BInstr
p323
(dp324
g2
Nsg17
S'TBZ             W0, #0, loc_FFFFFFC00079D9E8'
p325
sg19
S'a01b0036'
p326
sg21
Vtbz w0, #0, #0x374
p327
sg5
L18446743798839629428L
sg6
Nsg23
S'TBZ'
p328
sg25
S'0xffffffc00079d674L'
p329
sg27
Nsbasg84
(lp330
S'ADRP reg, #func@PAGE'
p331
aS'LDR reg, mem'
p332
aS'LDR reg, mem'
p333
aS'TBZ reg, #0, func'
p334
asg95
Nsg5
S'0xffffffc00079d668L'
p335
sg97
(lp336
S'0xffffffc00079d660L'
p337
asg6
Nsg99
(lp338
S'0xffffffc00079d678L'
p339
aS'0xffffffc00079d9e8L'
p340
asg103
Nsg104
Nsg105
S'2de94c9e326481f2f467f11acce8dcc9'
p341
sg107
S'f9f7225e2bae36aff04e5d93bafe5e1d'
p342
sg109
(lp343
g307
ag314
ag321
ag328
asg111
Nsba(ibclass
BBasicBlock
p344
(dp345
g12
Nsg13
(lp346
(ibclass
BInstr
p347
(dp348
g2
Nsg17
S'ADRP            X0, #qword_FFFFFFC000E43D48@PAGE'
p349
sg19
S'203500d0'
p350
sg21
Vadrp x0, #0x6a6000
p351
sg5
L18446743798839629432L
sg6
Nsg23
S'ADRP'
p352
sg25
S'0xffffffc00079d678L'
p353
sg27
Nsba(ibclass
BInstr
p354
(dp355
g2
Nsg17
S'LDR             X0, [X0,#qword_FFFFFFC000E43D48@PAGEOFF]'
p356
sg19
S'00a446f9'
p357
sg21
Vldr x0, [x0, #0xd48]
p358
sg5
L18446743798839629436L
sg6
Nsg23
S'LDR'
p359
sg25
S'0xffffffc00079d67cL'
p360
sg27
Nsba(ibclass
BInstr
p361
(dp362
g2
Nsg17
S'MOV             W20, #0xFFFFFFEA'
p363
sg19
S'b4028012'
p364
sg21
Vmovn w20, #0x15
p365
sg5
L18446743798839629440L
sg6
Nsg23
S'MOV'
p366
sg25
S'0xffffffc00079d680L'
p367
sg27
Nsba(ibclass
BInstr
p368
(dp369
g2
Nsg17
S'LDR             W0, [X0]'
p370
sg19
S'000040b9'
p371
sg21
Vldr w0, [x0]
p372
sg5
L18446743798839629444L
sg6
Nsg23
S'LDR'
p373
sg25
S'0xffffffc00079d684L'
p374
sg27
Nsba(ibclass
BInstr
p375
(dp376
g2
Nsg17
S'CBNZ            W0, loc_FFFFFFC00079D9EC'
p377
sg19
S'201b0035'
p378
sg21
Vcbnz w0, #0x364
p379
sg5
L18446743798839629448L
sg6
Nsg23
S'CBNZ'
p380
sg25
S'0xffffffc00079d688L'
p381
sg27
Nsbasg84
(lp382
S'ADRP reg, #func@PAGE'
p383
aS'LDR reg, mem'
p384
aS'MOV reg0, #0xFFFFFFEA'
p385
aS'LDR reg, mem'
p386
aS'CBNZ reg, func'
p387
asg95
Nsg5
S'0xffffffc00079d678L'
p388
sg97
(lp389
S'0xffffffc00079d668L'
p390
asg6
Nsg99
(lp391
S'0xffffffc00079d68cL'
p392
aS'0xffffffc00079d9ecL'
p393
asg103
Nsg104
Nsg105
S'd80cc6d531f24a5b2d60307977d236c7'
p394
sg107
S'aeb30c42a5eaa4a016930da3733155ca'
p395
sg109
(lp396
g352
ag359
ag366
ag373
ag380
asg111
Nsba(ibclass
BBasicBlock
p397
(dp398
g12
Nsg13
(lp399
(ibclass
BInstr
p400
(dp401
g2
Nsg17
S'ADRP            X0, #unk_FFFFFFC0013B71B6@PAGE'
p402
sg19
S'c06000d0'
p403
sg21
Vadrp x0, #0xc1a000
p404
sg5
L18446743798839629452L
sg6
Nsg23
S'ADRP'
p405
sg25
S'0xffffffc00079d68cL'
p406
sg27
Nsba(ibclass
BInstr
p407
(dp408
g2
Nsg17
S'ADRP            X1, #(aQcomMdssDsi_17+0x1B)@PAGE; "err"'
p409
sg19
S'815c00d0'
p410
sg21
Vadrp x1, #0xb92000
p411
sg5
L18446743798839629456L
sg6
Nsg23
S'ADRP'
p412
sg25
S'0xffffffc00079d690L'
p413
sg27
Nsba(ibclass
BInstr
p414
(dp415
g2
Nsg17
S'ADD             X0, X0, #unk_FFFFFFC0013B71B6@PAGEOFF'
p416
sg19
S'00d80691'
p417
sg21
Vadd x0, x0, #0x1b6
p418
sg5
L18446743798839629460L
sg6
Nsg23
S'ADD'
p419
sg25
S'0xffffffc00079d694L'
p420
sg27
Nsba(ibclass
BInstr
p421
(dp422
g2
Nsg17
S'ADD             X1, X1, #(aQcomMdssDsi_17+0x1B)@PAGEOFF; "err"'
p423
sg19
S'21800091'
p424
sg21
Vadd x1, x1, #0x20
p425
sg5
L18446743798839629464L
sg6
Nsg23
S'ADD'
p426
sg25
S'0xffffffc00079d698L'
p427
sg27
Nsba(ibclass
BInstr
p428
(dp429
g2
Nsg17
S'MOV             X2, X21'
p430
sg19
S'e20315aa'
p431
sg21
Vmov x2, x21
p432
sg5
L18446743798839629468L
sg6
Nsg23
S'MOV'
p433
sg25
S'0xffffffc00079d69cL'
p434
sg27
Nsba(ibclass
BInstr
p435
(dp436
g2
Nsg17
S'B               loc_FFFFFFC00079D6E4'
p437
sg19
S'11000014'
p438
sg21
Vb #0x44
p439
sg5
L18446743798839629472L
sg6
Nsg23
g253
sg25
S'0xffffffc00079d6a0L'
p440
sg27
Nsbasg84
(lp441
S'ADRP reg, #func@PAGE'
p442
aS'ADRP reg, #(aQcomMdssDsi_17+0x1B)@PAGE'
p443
aS'ADD reg, reg, #func@PAGEOFF'
p444
aS'ADD reg, reg, #(aQcomMdssDsi_17+0x1B)@PAGEOFF'
p445
aS'MOV reg, reg1'
p446
aS'B func'
p447
asg95
Nsg5
S'0xffffffc00079d68cL'
p448
sg97
(lp449
S'0xffffffc00079d678L'
p450
asg6
Nsg99
(lp451
S'0xffffffc00079d6e4L'
p452
asg103
Nsg104
Nsg105
S'98a279a9279bfb8dff751b0d8c2b1c46'
p453
sg107
S'1decc2c365ceea453c8c50e1d8b6941e'
p454
sg109
(lp455
g405
ag412
ag419
ag426
ag433
ag253
asg111
Nsba(ibclass
BBasicBlock
p456
(dp457
g12
Nsg13
(lp458
(ibclass
BInstr
p459
(dp460
g2
Nsg17
S'LDR             X22, [X21,#0x40]'
p461
sg19
S'b62240f9'
p462
sg21
Vldr x22, [x21, #0x40]
p463
sg5
L18446743798839629476L
sg6
Nsg23
S'LDR'
p464
sg25
S'0xffffffc00079d6a4L'
p465
sg27
Nsba(ibclass
BInstr
p466
(dp467
g2
Nsg17
S'CBNZ            X22, loc_FFFFFFC00079D6EC'
p468
sg19
S'360200b5'
p469
sg21
Vcbnz x22, #0x44
p470
sg5
L18446743798839629480L
sg6
Nsg23
S'CBNZ'
p471
sg25
S'0xffffffc00079d6a8L'
p472
sg27
Nsbasg84
(lp473
S'LDR reg2, mem'
p474
aS'CBNZ reg2, func'
p475
asg95
Nsg5
S'0xffffffc00079d6a4L'
p476
sg97
(lp477
S'0xffffffc00079d660L'
p478
asg6
Nsg99
(lp479
S'0xffffffc00079d6acL'
p480
aS'0xffffffc00079d6ecL'
p481
asg103
Nsg104
Nsg105
S'5522ad3e8b25e3a8f9013bb9571723e7'
p482
sg107
S'761960af1777d98a5bc7803df11c79e3'
p483
sg109
(lp484
g464
ag471
asg111
Nsba(ibclass
BBasicBlock
p485
(dp486
g12
Nsg13
(lp487
(ibclass
BInstr
p488
(dp489
g2
Nsg17
S'ADRP            X0, #qword_FFFFFFC000E458A0@PAGE'
p490
sg19
S'40350090'
p491
sg21
Vadrp x0, #0x6a8000
p492
sg5
L18446743798839629484L
sg6
Nsg23
S'ADRP'
p493
sg25
S'0xffffffc00079d6acL'
p494
sg27
Nsba(ibclass
BInstr
p495
(dp496
g2
Nsg17
S'LDR             X0, [X0,#qword_FFFFFFC000E458A0@PAGEOFF]'
p497
sg19
S'005044f9'
p498
sg21
Vldr x0, [x0, #0x8a0]
p499
sg5
L18446743798839629488L
sg6
Nsg23
S'LDR'
p500
sg25
S'0xffffffc00079d6b0L'
p501
sg27
Nsba(ibclass
BInstr
p502
(dp503
g2
Nsg17
S'LDR             W0, [X0]'
p504
sg19
S'000040b9'
p505
sg21
Vldr w0, [x0]
p506
sg5
L18446743798839629492L
sg6
Nsg23
S'LDR'
p507
sg25
S'0xffffffc00079d6b4L'
p508
sg27
Nsba(ibclass
BInstr
p509
(dp510
g2
Nsg17
S'TBZ             W0, #0, loc_FFFFFFC00079D9E8'
p511
sg19
S'80190036'
p512
sg21
Vtbz w0, #0, #0x330
p513
sg5
L18446743798839629496L
sg6
Nsg23
S'TBZ'
p514
sg25
S'0xffffffc00079d6b8L'
p515
sg27
Nsbasg84
(lp516
S'ADRP reg, #func@PAGE'
p517
aS'LDR reg, mem'
p518
aS'LDR reg, mem'
p519
aS'TBZ reg, #0, func'
p520
asg95
Nsg5
S'0xffffffc00079d6acL'
p521
sg97
(lp522
S'0xffffffc00079d6a4L'
p523
asg6
Nsg99
(lp524
S'0xffffffc00079d6bcL'
p525
aS'0xffffffc00079d9e8L'
p526
asg103
Nsg104
Nsg105
S'2de94c9e326481f2f467f11acce8dcc9'
p527
sg107
S'f9f7225e2bae36aff04e5d93bafe5e1d'
p528
sg109
(lp529
g493
ag500
ag507
ag514
asg111
Nsba(ibclass
BBasicBlock
p530
(dp531
g12
Nsg13
(lp532
(ibclass
BInstr
p533
(dp534
g2
Nsg17
S'ADRP            X0, #qword_FFFFFFC000E43D48@PAGE'
p535
sg19
S'203500d0'
p536
sg21
Vadrp x0, #0x6a6000
p537
sg5
L18446743798839629500L
sg6
Nsg23
S'ADRP'
p538
sg25
S'0xffffffc00079d6bcL'
p539
sg27
Nsba(ibclass
BInstr
p540
(dp541
g2
Nsg17
S'LDR             X0, [X0,#qword_FFFFFFC000E43D48@PAGEOFF]'
p542
sg19
S'00a446f9'
p543
sg21
Vldr x0, [x0, #0xd48]
p544
sg5
L18446743798839629504L
sg6
Nsg23
S'LDR'
p545
sg25
S'0xffffffc00079d6c0L'
p546
sg27
Nsba(ibclass
BInstr
p547
(dp548
g2
Nsg17
S'MOV             W20, #0xFFFFFFEA'
p549
sg19
S'b4028012'
p550
sg21
Vmovn w20, #0x15
p551
sg5
L18446743798839629508L
sg6
Nsg23
S'MOV'
p552
sg25
S'0xffffffc00079d6c4L'
p553
sg27
Nsba(ibclass
BInstr
p554
(dp555
g2
Nsg17
S'LDR             W0, [X0]'
p556
sg19
S'000040b9'
p557
sg21
Vldr w0, [x0]
p558
sg5
L18446743798839629512L
sg6
Nsg23
S'LDR'
p559
sg25
S'0xffffffc00079d6c8L'
p560
sg27
Nsba(ibclass
BInstr
p561
(dp562
g2
Nsg17
S'CBNZ            W0, loc_FFFFFFC00079D9EC'
p563
sg19
S'00190035'
p564
sg21
Vcbnz w0, #0x320
p565
sg5
L18446743798839629516L
sg6
Nsg23
S'CBNZ'
p566
sg25
S'0xffffffc00079d6ccL'
p567
sg27
Nsbasg84
(lp568
S'ADRP reg, #func@PAGE'
p569
aS'LDR reg, mem'
p570
aS'MOV reg0, #0xFFFFFFEA'
p571
aS'LDR reg, mem'
p572
aS'CBNZ reg, func'
p573
asg95
Nsg5
S'0xffffffc00079d6bcL'
p574
sg97
(lp575
S'0xffffffc00079d6acL'
p576
asg6
Nsg99
(lp577
S'0xffffffc00079d6d0L'
p578
aS'0xffffffc00079d9ecL'
p579
asg103
Nsg104
Nsg105
S'd80cc6d531f24a5b2d60307977d236c7'
p580
sg107
S'aeb30c42a5eaa4a016930da3733155ca'
p581
sg109
(lp582
g538
ag545
ag552
ag559
ag566
asg111
Nsba(ibclass
BBasicBlock
p583
(dp584
g12
Nsg13
(lp585
(ibclass
BInstr
p586
(dp587
g2
Nsg17
S'ADRP            X0, #unk_FFFFFFC0013B71E2@PAGE'
p588
sg19
S'c06000d0'
p589
sg21
Vadrp x0, #0xc1a000
p590
sg5
L18446743798839629520L
sg6
Nsg23
S'ADRP'
p591
sg25
S'0xffffffc00079d6d0L'
p592
sg27
Nsba(ibclass
BInstr
p593
(dp594
g2
Nsg17
S'ADRP            X1, #(aQcomMdssDsi_17+0x1B)@PAGE; "err"'
p595
sg19
S'815c00d0'
p596
sg21
Vadrp x1, #0xb92000
p597
sg5
L18446743798839629524L
sg6
Nsg23
S'ADRP'
p598
sg25
S'0xffffffc00079d6d4L'
p599
sg27
Nsba(ibclass
BInstr
p600
(dp601
g2
Nsg17
S'ADD             X0, X0, #unk_FFFFFFC0013B71E2@PAGEOFF'
p602
sg19
S'00880791'
p603
sg21
Vadd x0, x0, #0x1e2
p604
sg5
L18446743798839629528L
sg6
Nsg23
S'ADD'
p605
sg25
S'0xffffffc00079d6d8L'
p606
sg27
Nsba(ibclass
BInstr
p607
(dp608
g2
Nsg17
S'ADD             X1, X1, #(aQcomMdssDsi_17+0x1B)@PAGEOFF; "err"'
p609
sg19
S'21800091'
p610
sg21
Vadd x1, x1, #0x20
p611
sg5
L18446743798839629532L
sg6
Nsg23
S'ADD'
p612
sg25
S'0xffffffc00079d6dcL'
p613
sg27
Nsba(ibclass
BInstr
p614
(dp615
g2
Nsg17
S'MOV             X2, X22'
p616
sg19
S'e20316aa'
p617
sg21
Vmov x2, x22
p618
sg5
L18446743798839629536L
sg6
Nsg23
S'MOV'
p619
sg25
S'0xffffffc00079d6e0L'
p620
sg27
Nsbasg84
(lp621
S'ADRP reg, #func@PAGE'
p622
aS'ADRP reg, #(aQcomMdssDsi_17+0x1B)@PAGE'
p623
aS'ADD reg, reg, #func@PAGEOFF'
p624
aS'ADD reg, reg, #(aQcomMdssDsi_17+0x1B)@PAGEOFF'
p625
aS'MOV reg, reg2'
p626
asg95
Nsg5
S'0xffffffc00079d6d0L'
p627
sg97
(lp628
S'0xffffffc00079d6bcL'
p629
asg6
Nsg99
(lp630
S'0xffffffc00079d6e4L'
p631
asg103
Nsg104
Nsg105
S'fd9b91f55620d030b8f46e2c6bcae905'
p632
sg107
S'0acf5b0969acec7c94ff7d5b4ac512dd'
p633
sg109
(lp634
g591
ag598
ag605
ag612
ag619
asg111
Nsba(ibclass
BBasicBlock
p635
(dp636
g12
Nsg13
(lp637
(ibclass
BInstr
p638
(dp639
g2
Nsg17
S'BL              printk'
p640
sg19
S'e1441a94'
p641
sg21
Vbl #0x691384
p642
sg5
L18446743798839629540L
sg6
Nsg23
S'BL'
p643
sg25
S'0xffffffc00079d6e4L'
p644
sg27
Nsba(ibclass
BInstr
p645
(dp646
g2
Nsg17
S'B               loc_FFFFFFC00079D9EC'
p647
sg19
S'c1000014'
p648
sg21
Vb #0x304
p649
sg5
L18446743798839629544L
sg6
Nsg23
g253
sg25
S'0xffffffc00079d6e8L'
p650
sg27
Nsbasg84
(lp651
S'BL printk'
p652
aS'B func'
p653
asg95
Nsg5
S'0xffffffc00079d6e4L'
p654
sg97
(lp655
S'0xffffffc00079d648L'
p656
aS'0xffffffc00079d68cL'
p657
aS'0xffffffc00079d6d0L'
p658
asg6
Nsg99
(lp659
S'0xffffffc00079d9ecL'
p660
asg103
Nsg104
Nsg105
S'be97a5cc528a44f4f1daeedd1e2f20e2'
p661
sg107
S'52ad415ea588355cd9189b7ec61881f4'
p662
sg109
(lp663
g643
ag253
asg111
Nsba(ibclass
BBasicBlock
p664
(dp665
g12
Nsg13
(lp666
(ibclass
BInstr
p667
(dp668
g2
Nsg17
S'UBFM            X20, X1, #1, #1'
p669
sg19
S'340441d3'
p670
sg21
Vubfx x20, x1, #1, #1
p671
sg5
L18446743798839629548L
sg6
Nsg23
S'UBFM'
p672
sg25
S'0xffffffc00079d6ecL'
p673
sg27
Nsba(ibclass
BInstr
p674
(dp675
g2
Nsg17
S'AND             W24, W1, #1'
p676
sg19
S'38000012'
p677
sg21
Vand w24, w1, #1
p678
sg5
L18446743798839629552L
sg6
Nsg23
S'AND'
p679
sg25
S'0xffffffc00079d6f0L'
p680
sg27
Nsba(ibclass
BInstr
p681
(dp682
g2
Nsg17
S'CBNZ            W20, loc_FFFFFFC00079D734'
p683
sg19
S'14020035'
p684
sg21
Vcbnz w20, #0x40
p685
sg5
L18446743798839629556L
sg6
Nsg23
S'CBNZ'
p686
sg25
S'0xffffffc00079d6f4L'
p687
sg27
Nsbasg84
(lp688
S'UBFM reg0, reg, #1, #1'
p689
aS'AND reg4, reg, #1'
p690
aS'CBNZ reg0, func'
p691
asg95
Nsg5
S'0xffffffc00079d6ecL'
p692
sg97
(lp693
S'0xffffffc00079d6a4L'
p694
asg6
Nsg99
(lp695
S'0xffffffc00079d6f8L'
p696
aS'0xffffffc00079d734L'
p697
asg103
Nsg104
Nsg105
S'8816091d4fe93985d352ecfb3b5309b4'
p698
sg107
S'b7f6f4419100a95f635bbac977ade1a1'
p699
sg109
(lp700
g672
ag679
ag686
asg111
Nsba(ibclass
BBasicBlock
p701
(dp702
g12
Nsg13
(lp703
(ibclass
BInstr
p704
(dp705
g2
Nsg17
S'CBZ             W24, loc_FFFFFFC00079D734'
p706
sg19
S'f8010034'
p707
sg21
Vcbz w24, #0x3c
p708
sg5
L18446743798839629560L
sg6
Nsg23
S'CBZ'
p709
sg25
S'0xffffffc00079d6f8L'
p710
sg27
Nsbasg84
(lp711
S'CBZ reg4, func'
p712
asg95
Nsg5
S'0xffffffc00079d6f8L'
p713
sg97
(lp714
S'0xffffffc00079d6ecL'
p715
asg6
Nsg99
(lp716
S'0xffffffc00079d6fcL'
p717
aS'0xffffffc00079d734L'
p718
asg103
Nsg104
Nsg105
S'de8e361453cf9f764a4abe9d486f8fbe'
p719
sg107
S'82d026d7867fb41c143ea243ebdac617'
p720
sg109
(lp721
g709
asg111
Nsba(ibclass
BBasicBlock
p722
(dp723
g12
Nsg13
(lp724
(ibclass
BInstr
p725
(dp726
g2
Nsg17
S'ADRP            X0, #qword_FFFFFFC000E458A0@PAGE'
p727
sg19
S'40350090'
p728
sg21
Vadrp x0, #0x6a8000
p729
sg5
L18446743798839629564L
sg6
Nsg23
S'ADRP'
p730
sg25
S'0xffffffc00079d6fcL'
p731
sg27
Nsba(ibclass
BInstr
p732
(dp733
g2
Nsg17
S'LDR             X0, [X0,#qword_FFFFFFC000E458A0@PAGEOFF]'
p734
sg19
S'005044f9'
p735
sg21
Vldr x0, [x0, #0x8a0]
p736
sg5
L18446743798839629568L
sg6
Nsg23
S'LDR'
p737
sg25
S'0xffffffc00079d700L'
p738
sg27
Nsba(ibclass
BInstr
p739
(dp740
g2
Nsg17
S'LDR             W0, [X0]'
p741
sg19
S'000040b9'
p742
sg21
Vldr w0, [x0]
p743
sg5
L18446743798839629572L
sg6
Nsg23
S'LDR'
p744
sg25
S'0xffffffc00079d704L'
p745
sg27
Nsba(ibclass
BInstr
p746
(dp747
g2
Nsg17
S'TBZ             W0, #2, loc_FFFFFFC00079D864'
p748
sg19
S'e00a1036'
p749
sg21
Vtbz w0, #2, #0x15c
p750
sg5
L18446743798839629576L
sg6
Nsg23
S'TBZ'
p751
sg25
S'0xffffffc00079d708L'
p752
sg27
Nsbasg84
(lp753
S'ADRP reg, #func@PAGE'
p754
aS'LDR reg, mem'
p755
aS'LDR reg, mem'
p756
aS'TBZ reg, #2, func'
p757
asg95
Nsg5
S'0xffffffc00079d6fcL'
p758
sg97
(lp759
S'0xffffffc00079d6f8L'
p760
asg6
Nsg99
(lp761
S'0xffffffc00079d70cL'
p762
aS'0xffffffc00079d864L'
p763
asg103
Nsg104
Nsg105
S'2de94c9e326481f2f467f11acce8dcc9'
p764
sg107
S'3804d876f2352d338a315acfdd643f15'
p765
sg109
(lp766
g730
ag737
ag744
ag751
asg111
Nsba(ibclass
BBasicBlock
p767
(dp768
g12
Nsg13
(lp769
(ibclass
BInstr
p770
(dp771
g2
Nsg17
S'ADRP            X0, #qword_FFFFFFC000E43D48@PAGE'
p772
sg19
S'203500d0'
p773
sg21
Vadrp x0, #0x6a6000
p774
sg5
L18446743798839629580L
sg6
Nsg23
S'ADRP'
p775
sg25
S'0xffffffc00079d70cL'
p776
sg27
Nsba(ibclass
BInstr
p777
(dp778
g2
Nsg17
S'LDR             X0, [X0,#qword_FFFFFFC000E43D48@PAGEOFF]'
p779
sg19
S'00a446f9'
p780
sg21
Vldr x0, [x0, #0xd48]
p781
sg5
L18446743798839629584L
sg6
Nsg23
S'LDR'
p782
sg25
S'0xffffffc00079d710L'
p783
sg27
Nsba(ibclass
BInstr
p784
(dp785
g2
Nsg17
S'LDR             W20, [X0]'
p786
sg19
S'140040b9'
p787
sg21
Vldr w20, [x0]
p788
sg5
L18446743798839629588L
sg6
Nsg23
S'LDR'
p789
sg25
S'0xffffffc00079d714L'
p790
sg27
Nsba(ibclass
BInstr
p791
(dp792
g2
Nsg17
S'CBNZ            W20, loc_FFFFFFC00079D864'
p793
sg19
S'740a0035'
p794
sg21
Vcbnz w20, #0x14c
p795
sg5
L18446743798839629592L
sg6
Nsg23
S'CBNZ'
p796
sg25
S'0xffffffc00079d718L'
p797
sg27
Nsbasg84
(lp798
S'ADRP reg, #func@PAGE'
p799
aS'LDR reg, mem'
p800
aS'LDR reg0, mem'
p801
aS'CBNZ reg0, func'
p802
asg95
Nsg5
S'0xffffffc00079d70cL'
p803
sg97
(lp804
S'0xffffffc00079d6fcL'
p805
asg6
Nsg99
(lp806
S'0xffffffc00079d71cL'
p807
aS'0xffffffc00079d864L'
p808
asg103
Nsg104
Nsg105
S'9c97521b8b0f280d47a50ec9a5e4f86f'
p809
sg107
S'6141f46f57d029187bd433fdca84b18d'
p810
sg109
(lp811
g775
ag782
ag789
ag796
asg111
Nsba(ibclass
BBasicBlock
p812
(dp813
g12
Nsg13
(lp814
(ibclass
BInstr
p815
(dp816
g2
Nsg17
S'ADRP            X0, #unk_FFFFFFC0013B7210@PAGE'
p817
sg19
S'c06000d0'
p818
sg21
Vadrp x0, #0xc1a000
p819
sg5
L18446743798839629596L
sg6
Nsg23
S'ADRP'
p820
sg25
S'0xffffffc00079d71cL'
p821
sg27
Nsba(ibclass
BInstr
p822
(dp823
g2
Nsg17
S'ADRP            X1, #aInfo@PAGE; "info"'
p824
sg19
S'a15e00d0'
p825
sg21
Vadrp x1, #0xbd6000
p826
sg5
L18446743798839629600L
sg6
Nsg23
S'ADRP'
p827
sg25
S'0xffffffc00079d720L'
p828
sg27
Nsba(ibclass
BInstr
p829
(dp830
g2
Nsg17
S'ADD             X1, X1, #aInfo@PAGEOFF; "info"'
p831
sg19
S'217c0991'
p832
sg21
Vadd x1, x1, #0x25f
p833
sg5
L18446743798839629604L
sg6
Nsg23
S'ADD'
p834
sg25
S'0xffffffc00079d724L'
p835
sg27
Nsba(ibclass
BInstr
p836
(dp837
g2
Nsg17
S'ADD             X0, X0, #unk_FFFFFFC0013B7210@PAGEOFF'
p838
sg19
S'00400891'
p839
sg21
Vadd x0, x0, #0x210
p840
sg5
L18446743798839629608L
sg6
Nsg23
S'ADD'
p841
sg25
S'0xffffffc00079d728L'
p842
sg27
Nsba(ibclass
BInstr
p843
(dp844
g2
Nsg17
S'BL              printk'
p845
sg19
S'cf441a94'
p846
sg21
Vbl #0x69133c
p847
sg5
L18446743798839629612L
sg6
Nsg23
S'BL'
p848
sg25
S'0xffffffc00079d72cL'
p849
sg27
Nsba(ibclass
BInstr
p850
(dp851
g2
Nsg17
S'B               loc_FFFFFFC00079D9EC'
p852
sg19
S'af000014'
p853
sg21
Vb #0x2bc
p854
sg5
L18446743798839629616L
sg6
Nsg23
g253
sg25
S'0xffffffc00079d730L'
p855
sg27
Nsbasg84
(lp856
S'ADRP reg, #func@PAGE'
p857
aS'ADRP reg, #aInfo@PAGE'
p858
aS'ADD reg, reg, #aInfo@PAGEOFF'
p859
aS'ADD reg, reg, #func@PAGEOFF'
p860
aS'BL printk'
p861
aS'B func'
p862
asg95
Nsg5
S'0xffffffc00079d71cL'
p863
sg97
(lp864
S'0xffffffc00079d70cL'
p865
asg6
Nsg99
(lp866
S'0xffffffc00079d9ecL'
p867
asg103
Nsg104
Nsg105
S'b2a3927201f2643e37e238d870ced3c2'
p868
sg107
S'a889cc12cd570e572d0c0f1e966f615f'
p869
sg109
(lp870
g820
ag827
ag834
ag841
ag848
ag253
asg111
Nsba(ibclass
BBasicBlock
p871
(dp872
g12
Nsg13
(lp873
(ibclass
BInstr
p874
(dp875
g2
Nsg17
S'MOV             X0, X19'
p876
sg19
S'e00313aa'
p877
sg21
Vmov x0, x19
p878
sg5
L18446743798839629620L
sg6
Nsg23
S'MOV'
p879
sg25
S'0xffffffc00079d734L'
p880
sg27
Nsba(ibclass
BInstr
p881
(dp882
g2
Nsg17
S'BL              msm_comm_flush_dynamic_buffers'
p883
sg19
S'21ffff97'
p884
sg21
Vbl #0xfffffffffffffc84
p885
sg5
L18446743798839629624L
sg6
Nsg23
S'BL'
p886
sg25
S'0xffffffc00079d738L'
p887
sg27
Nsba(ibclass
BInstr
p888
(dp889
g2
Nsg17
S'LDR             W0, [X19,#0x90]'
p890
sg19
S'609240b9'
p891
sg21
Vldr w0, [x19, #0x90]
p892
sg5
L18446743798839629628L
sg6
Nsg23
S'LDR'
p893
sg25
S'0xffffffc00079d73cL'
p894
sg27
Nsba(ibclass
BInstr
p895
(dp896
g2
Nsg17
S'CMP             W0, #0x11'
p897
sg19
S'1f440071'
p898
sg21
Vcmp w0, #0x11
p899
sg5
L18446743798839629632L
sg6
Nsg23
S'CMP'
p900
sg25
S'0xffffffc00079d740L'
p901
sg27
Nsba(ibclass
BInstr
p902
(dp903
g2
Nsg17
S'B.EQ            loc_FFFFFFC00079D754'
p904
sg19
S'80000054'
p905
sg21
Vb.eq #0x10
p906
sg5
L18446743798839629636L
sg6
Nsg23
g253
sg25
S'0xffffffc00079d744L'
p907
sg27
Nsbasg84
(lp908
S'MOV reg, reg9'
p909
aS'BL msm_comm_flush_dynamic_buffers'
p910
aS'LDR reg, mem'
p911
aS'CMP reg, #0x11'
p912
aS'B.EQ func'
p913
asg95
Nsg5
S'0xffffffc00079d734L'
p914
sg97
(lp915
S'0xffffffc00079d6ecL'
p916
aS'0xffffffc00079d6f8L'
p917
asg6
Nsg99
(lp918
S'0xffffffc00079d748L'
p919
aS'0xffffffc00079d754L'
p920
asg103
Nsg104
Nsg105
S'4b424ec4ae6fc4f34f58b51fd1c10108'
p921
sg107
S'6547421479f91dd8d30be726b0e170e5'
p922
sg109
(lp923
g879
ag886
ag893
ag900
ag253
asg111
Nsba(ibclass
BBasicBlock
p924
(dp925
g12
Nsg13
(lp926
(ibclass
BInstr
p927
(dp928
g2
Nsg17
S'LDR             W0, [X21,#0x910]'
p929
sg19
S'a01249b9'
p930
sg21
Vldr w0, [x21, #0x910]
p931
sg5
L18446743798839629640L
sg6
Nsg23
S'LDR'
p932
sg25
S'0xffffffc00079d748L'
p933
sg27
Nsba(ibclass
BInstr
p934
(dp935
g2
Nsg17
S'TST             W0, #0xFFFFFFFB'
p936
sg19
S'1f781d72'
p937
sg21
Vtst w0, #0xfffffffb
p938
sg5
L18446743798839629644L
sg6
Nsg23
S'TST'
p939
sg25
S'0xffffffc00079d74cL'
p940
sg27
Nsba(ibclass
BInstr
p941
(dp942
g2
Nsg17
S'B.NE            loc_FFFFFFC00079D86C'
p943
sg19
S'e1080054'
p944
sg21
Vb.ne #0x11c
p945
sg5
L18446743798839629648L
sg6
Nsg23
g253
sg25
S'0xffffffc00079d750L'
p946
sg27
Nsbasg84
(lp947
S'LDR reg, mem'
p948
aS'TST reg, #0xFFFFFFFB'
p949
aS'B.NE func'
p950
asg95
Nsg5
S'0xffffffc00079d748L'
p951
sg97
(lp952
S'0xffffffc00079d734L'
p953
asg6
Nsg99
(lp954
S'0xffffffc00079d754L'
p955
aS'0xffffffc00079d86cL'
p956
asg103
Nsg104
Nsg105
S'dd777ef652da0507ba65ee39c3cb079f'
p957
sg107
S'0f308823cb9ef2d41683ad4e1db88161'
p958
sg109
(lp959
g932
ag939
ag253
asg111
Nsba(ibclass
BBasicBlock
p960
(dp961
g12
Nsg13
(lp962
(ibclass
BInstr
p963
(dp964
g2
Nsg17
S'ADRP            X23, #qword_FFFFFFC000E458A0@PAGE'
p965
sg19
S'57350090'
p966
sg21
Vadrp x23, #0x6a8000
p967
sg5
L18446743798839629652L
sg6
Nsg23
S'ADRP'
p968
sg25
S'0xffffffc00079d754L'
p969
sg27
Nsba(ibclass
BInstr
p970
(dp971
g2
Nsg17
S'LDR             X0, [X23,#qword_FFFFFFC000E458A0@PAGEOFF]'
p972
sg19
S'e05244f9'
p973
sg21
Vldr x0, [x23, #0x8a0]
p974
sg5
L18446743798839629656L
sg6
Nsg23
S'LDR'
p975
sg25
S'0xffffffc00079d758L'
p976
sg27
Nsba(ibclass
BInstr
p977
(dp978
g2
Nsg17
S'LDR             W0, [X0]'
p979
sg19
S'000040b9'
p980
sg21
Vldr w0, [x0]
p981
sg5
L18446743798839629660L
sg6
Nsg23
S'LDR'
p982
sg25
S'0xffffffc00079d75cL'
p983
sg27
Nsba(ibclass
BInstr
p984
(dp985
g2
Nsg17
S'TBZ             W0, #0, loc_FFFFFFC00079D790'
p986
sg19
S'80010036'
p987
sg21
Vtbz w0, #0, #0x30
p988
sg5
L18446743798839629664L
sg6
Nsg23
S'TBZ'
p989
sg25
S'0xffffffc00079d760L'
p990
sg27
Nsbasg84
(lp991
S'ADRP reg3, #func@PAGE'
p992
aS'LDR reg, mem'
p993
aS'LDR reg, mem'
p994
aS'TBZ reg, #0, func'
p995
asg95
Nsg5
S'0xffffffc00079d754L'
p996
sg97
(lp997
S'0xffffffc00079d734L'
p998
aS'0xffffffc00079d748L'
p999
asg6
Nsg99
(lp1000
S'0xffffffc00079d764L'
p1001
aS'0xffffffc00079d790L'
p1002
asg103
Nsg104
Nsg105
S'2de94c9e326481f2f467f11acce8dcc9'
p1003
sg107
S'07dcb964155431c4306fa4e392f051ad'
p1004
sg109
(lp1005
g968
ag975
ag982
ag989
asg111
Nsba(ibclass
BBasicBlock
p1006
(dp1007
g12
Nsg13
(lp1008
(ibclass
BInstr
p1009
(dp1010
g2
Nsg17
S'ADRP            X0, #qword_FFFFFFC000E43D48@PAGE'
p1011
sg19
S'203500d0'
p1012
sg21
Vadrp x0, #0x6a6000
p1013
sg5
L18446743798839629668L
sg6
Nsg23
S'ADRP'
p1014
sg25
S'0xffffffc00079d764L'
p1015
sg27
Nsba(ibclass
BInstr
p1016
(dp1017
g2
Nsg17
S'LDR             X0, [X0,#qword_FFFFFFC000E43D48@PAGEOFF]'
p1018
sg19
S'00a446f9'
p1019
sg21
Vldr x0, [x0, #0xd48]
p1020
sg5
L18446743798839629672L
sg6
Nsg23
S'LDR'
p1021
sg25
S'0xffffffc00079d768L'
p1022
sg27
Nsba(ibclass
BInstr
p1023
(dp1024
g2
Nsg17
S'LDR             W0, [X0]'
p1025
sg19
S'000040b9'
p1026
sg21
Vldr w0, [x0]
p1027
sg5
L18446743798839629676L
sg6
Nsg23
S'LDR'
p1028
sg25
S'0xffffffc00079d76cL'
p1029
sg27
Nsba(ibclass
BInstr
p1030
(dp1031
g2
Nsg17
S'CBNZ            W0, loc_FFFFFFC00079D790'
p1032
sg19
S'00010035'
p1033
sg21
Vcbnz w0, #0x20
p1034
sg5
L18446743798839629680L
sg6
Nsg23
S'CBNZ'
p1035
sg25
S'0xffffffc00079d770L'
p1036
sg27
Nsbasg84
(lp1037
S'ADRP reg, #func@PAGE'
p1038
aS'LDR reg, mem'
p1039
aS'LDR reg, mem'
p1040
aS'CBNZ reg, func'
p1041
asg95
Nsg5
S'0xffffffc00079d764L'
p1042
sg97
(lp1043
S'0xffffffc00079d754L'
p1044
asg6
Nsg99
(lp1045
S'0xffffffc00079d774L'
p1046
aS'0xffffffc00079d790L'
p1047
asg103
Nsg104
Nsg105
S'9c97521b8b0f280d47a50ec9a5e4f86f'
p1048
sg107
S'bd26f8893557dc5fa132ff2490be0ebf'
p1049
sg109
(lp1050
g1014
ag1021
ag1028
ag1035
asg111
Nsba(ibclass
BBasicBlock
p1051
(dp1052
g12
Nsg13
(lp1053
(ibclass
BInstr
p1054
(dp1055
g2
Nsg17
S'ADRP            X0, #unk_FFFFFFC0013B7241@PAGE'
p1056
sg19
S'c06000d0'
p1057
sg21
Vadrp x0, #0xc1a000
p1058
sg5
L18446743798839629684L
sg6
Nsg23
S'ADRP'
p1059
sg25
S'0xffffffc00079d774L'
p1060
sg27
Nsba(ibclass
BInstr
p1061
(dp1062
g2
Nsg17
S'ADRP            X1, #(aQcomMdssDsi_17+0x1B)@PAGE; "err"'
p1063
sg19
S'815c00d0'
p1064
sg21
Vadrp x1, #0xb92000
p1065
sg5
L18446743798839629688L
sg6
Nsg23
S'ADRP'
p1066
sg25
S'0xffffffc00079d778L'
p1067
sg27
Nsba(ibclass
BInstr
p1068
(dp1069
g2
Nsg17
S'ADD             X0, X0, #unk_FFFFFFC0013B7241@PAGEOFF'
p1070
sg19
S'00040991'
p1071
sg21
Vadd x0, x0, #0x241
p1072
sg5
L18446743798839629692L
sg6
Nsg23
S'ADD'
p1073
sg25
S'0xffffffc00079d77cL'
p1074
sg27
Nsba(ibclass
BInstr
p1075
(dp1076
g2
Nsg17
S'ADD             X1, X1, #(aQcomMdssDsi_17+0x1B)@PAGEOFF; "err"'
p1077
sg19
S'21800091'
p1078
sg21
Vadd x1, x1, #0x20
p1079
sg5
L18446743798839629696L
sg6
Nsg23
S'ADD'
p1080
sg25
S'0xffffffc00079d780L'
p1081
sg27
Nsba(ibclass
BInstr
p1082
(dp1083
g2
Nsg17
S'MOV             X2, X21'
p1084
sg19
S'e20315aa'
p1085
sg21
Vmov x2, x21
p1086
sg5
L18446743798839629700L
sg6
Nsg23
S'MOV'
p1087
sg25
S'0xffffffc00079d784L'
p1088
sg27
Nsba(ibclass
BInstr
p1089
(dp1090
g2
Nsg17
S'MOV             X3, X19'
p1091
sg19
S'e30313aa'
p1092
sg21
Vmov x3, x19
p1093
sg5
L18446743798839629704L
sg6
Nsg23
S'MOV'
p1094
sg25
S'0xffffffc00079d788L'
p1095
sg27
Nsba(ibclass
BInstr
p1096
(dp1097
g2
Nsg17
S'BL              printk'
p1098
sg19
S'b7441a94'
p1099
sg21
Vbl #0x6912dc
p1100
sg5
L18446743798839629708L
sg6
Nsg23
S'BL'
p1101
sg25
S'0xffffffc00079d78cL'
p1102
sg27
Nsbasg84
(lp1103
S'ADRP reg, #func@PAGE'
p1104
aS'ADRP reg, #(aQcomMdssDsi_17+0x1B)@PAGE'
p1105
aS'ADD reg, reg, #func@PAGEOFF'
p1106
aS'ADD reg, reg, #(aQcomMdssDsi_17+0x1B)@PAGEOFF'
p1107
aS'MOV reg, reg1'
p1108
aS'MOV reg, reg9'
p1109
aS'BL printk'
p1110
asg95
Nsg5
S'0xffffffc00079d774L'
p1111
sg97
(lp1112
S'0xffffffc00079d764L'
p1113
asg6
Nsg99
(lp1114
S'0xffffffc00079d790L'
p1115
asg103
Nsg104
Nsg105
S'ffb6f4fd63f1f89296178080f44de9c2'
p1116
sg107
S'eba61e49bc08a326d2bfa51b6b322637'
p1117
sg109
(lp1118
g1059
ag1066
ag1073
ag1080
ag1087
ag1094
ag1101
asg111
Nsba(ibclass
BBasicBlock
p1119
(dp1120
g12
Nsg13
(lp1121
(ibclass
BInstr
p1122
(dp1123
g2
Nsg17
S'MOV             W0, #1'
p1124
sg19
S'20008052'
p1125
sg21
Vmovz w0, #0x1
p1126
sg5
L18446743798839629712L
sg6
Nsg23
S'MOV'
p1127
sg25
S'0xffffffc00079d790L'
p1128
sg27
Nsba(ibclass
BInstr
p1129
(dp1130
g2
Nsg17
S'ADRP            X25, #unk_FFFFFFC0013B7278@PAGE'
p1131
sg19
S'd96000d0'
p1132
sg21
Vadrp x25, #0xc1a000
p1133
sg5
L18446743798839629716L
sg6
Nsg23
S'ADRP'
p1134
sg25
S'0xffffffc00079d794L'
p1135
sg27
Nsba(ibclass
BInstr
p1136
(dp1137
g2
Nsg17
S'ADRP            X26, #(aRulesDbg+6)@PAGE; "dbg"'
p1138
sg19
S'1a680090'
p1139
sg21
Vadrp x26, #0xd00000
p1140
sg5
L18446743798839629720L
sg6
Nsg23
S'ADRP'
p1141
sg25
S'0xffffffc00079d798L'
p1142
sg27
Nsba(ibclass
BInstr
p1143
(dp1144
g2
Nsg17
S'STR             WZR, [X29,#arg_50]'
p1145
sg19
S'bf6300b9'
p1146
sg21
Vstr wzr, [x29, #0x60]
p1147
sg5
L18446743798839629724L
sg6
Nsg23
S'STR'
p1148
sg25
S'0xffffffc00079d79cL'
p1149
sg27
Nsba(ibclass
BInstr
p1150
(dp1151
g2
Nsg17
S'STR             W0, [X29,#arg_54]'
p1152
sg19
S'a06700b9'
p1153
sg21
Vstr w0, [x29, #0x64]
p1154
sg5
L18446743798839629728L
sg6
Nsg23
S'STR'
p1155
sg25
S'0xffffffc00079d7a0L'
p1156
sg27
Nsba(ibclass
BInstr
p1157
(dp1158
g2
Nsg17
S'MOV             X20, #0'
p1159
sg19
S'140080d2'
p1160
sg21
Vmovz x20, #0
p1161
sg5
L18446743798839629732L
sg6
Nsg23
S'MOV'
p1162
sg25
S'0xffffffc00079d7a4L'
p1163
sg27
Nsba(ibclass
BInstr
p1164
(dp1165
g2
Nsg17
S'ADRP            X24, #qword_FFFFFFC000E43D48@PAGE'
p1166
sg19
S'383500d0'
p1167
sg21
Vadrp x24, #0x6a6000
p1168
sg5
L18446743798839629736L
sg6
Nsg23
S'ADRP'
p1169
sg25
S'0xffffffc00079d7a8L'
p1170
sg27
Nsba(ibclass
BInstr
p1171
(dp1172
g2
Nsg17
S'ADD             X25, X25, #unk_FFFFFFC0013B7278@PAGEOFF'
p1173
sg19
S'39e30991'
p1174
sg21
Vadd x25, x25, #0x278
p1175
sg5
L18446743798839629740L
sg6
Nsg23
S'ADD'
p1176
sg25
S'0xffffffc00079d7acL'
p1177
sg27
Nsba(ibclass
BInstr
p1178
(dp1179
g2
Nsg17
S'ADD             X26, X26, #(aRulesDbg+6)@PAGEOFF; "dbg"'
p1180
sg19
S'5ae30291'
p1181
sg21
Vadd x26, x26, #0xb8
p1182
sg5
L18446743798839629744L
sg6
Nsg23
S'ADD'
p1183
sg25
S'0xffffffc00079d7b0L'
p1184
sg27
Nsba(ibclass
BInstr
p1185
(dp1186
g2
Nsg17
S'MOV             X27, #0x330'
p1187
sg19
S'1b6680d2'
p1188
sg21
Vmovz x27, #0x330
p1189
sg5
L18446743798839629748L
sg6
Nsg23
S'MOV'
p1190
sg25
S'0xffffffc00079d7b4L'
p1191
sg27
Nsbasg84
(lp1192
S'MOV reg, #1'
p1193
aS'ADRP reg5, #func@PAGE'
p1194
aS'ADRP reg6, #(aRulesDbg+6)@PAGE'
p1195
aS'STR WZR, mem'
p1196
aS'STR reg, mem'
p1197
aS'MOV reg0, #0'
p1198
aS'ADRP reg4, #func@PAGE'
p1199
aS'ADD reg5, reg5, #func@PAGEOFF'
p1200
aS'ADD reg6, reg6, #(aRulesDbg+6)@PAGEOFF'
p1201
aS'MOV reg7, #0x330'
p1202
asg95
Nsg5
S'0xffffffc00079d790L'
p1203
sg97
(lp1204
S'0xffffffc00079d754L'
p1205
aS'0xffffffc00079d764L'
p1206
aS'0xffffffc00079d774L'
p1207
asg6
Nsg99
(lp1208
S'0xffffffc00079d7b8L'
p1209
asg103
Nsg104
Nsg105
S'8436408bcc48e1a2ecb9f056b0a9e4dc'
p1210
sg107
S'28382e5b5b4c98c2fa366957569ca389'
p1211
sg109
(lp1212
g1127
ag1134
ag1141
ag1148
ag1155
ag1162
ag1169
ag1176
ag1183
ag1190
asg111
Nsba(ibclass
BBasicBlock
p1213
(dp1214
g12
Nsg13
(lp1215
(ibclass
BInstr
p1216
(dp1217
g2
Nsg17
S'ADD             X0, X20, #0x60'
p1218
sg19
S'80820191'
p1219
sg21
Vadd x0, x20, #0x60
p1220
sg5
L18446743798839629752L
sg6
Nsg23
S'ADD'
p1221
sg25
S'0xffffffc00079d7b8L'
p1222
sg27
Nsba(ibclass
BInstr
p1223
(dp1224
g2
Nsg17
S'LDR             W22, [X0,X29]'
p1225
sg19
S'16687db8'
p1226
sg21
Vldr w22, [x0, x29]
p1227
sg5
L18446743798839629756L
sg6
Nsg23
S'LDR'
p1228
sg25
S'0xffffffc00079d7bcL'
p1229
sg27
Nsba(ibclass
BInstr
p1230
(dp1231
g2
Nsg17
S'LDR             X0, [X23,#qword_FFFFFFC000E458A0@PAGEOFF]'
p1232
sg19
S'e05244f9'
p1233
sg21
Vldr x0, [x23, #0x8a0]
p1234
sg5
L18446743798839629760L
sg6
Nsg23
S'LDR'
p1235
sg25
S'0xffffffc00079d7c0L'
p1236
sg27
Nsba(ibclass
BInstr
p1237
(dp1238
g2
Nsg17
S'LDR             W0, [X0]'
p1239
sg19
S'000040b9'
p1240
sg21
Vldr w0, [x0]
p1241
sg5
L18446743798839629764L
sg6
Nsg23
S'LDR'
p1242
sg25
S'0xffffffc00079d7c4L'
p1243
sg27
Nsba(ibclass
BInstr
p1244
(dp1245
g2
Nsg17
S'TBZ             W0, #3, loc_FFFFFFC00079D7E8'
p1246
sg19
S'00011836'
p1247
sg21
Vtbz w0, #3, #0x20
p1248
sg5
L18446743798839629768L
sg6
Nsg23
S'TBZ'
p1249
sg25
S'0xffffffc00079d7c8L'
p1250
sg27
Nsbasg84
(lp1251
S'ADD reg, reg0, #0x60'
p1252
aS'LDR reg2, mem'
p1253
aS'LDR reg, mem'
p1254
aS'LDR reg, mem'
p1255
aS'TBZ reg, #3, func'
p1256
asg95
Nsg5
S'0xffffffc00079d7b8L'
p1257
sg97
(lp1258
S'0xffffffc00079d790L'
p1259
aS'0xffffffc00079d848L'
p1260
asg6
Nsg99
(lp1261
S'0xffffffc00079d7ccL'
p1262
aS'0xffffffc00079d7e8L'
p1263
asg103
Nsg104
Nsg105
S'd29fe621d62af2e9e9f19517a8654825'
p1264
sg107
S'2b7116d894cf5fc3481593e0a1cbc7a1'
p1265
sg109
(lp1266
g1221
ag1228
ag1235
ag1242
ag1249
asg111
Nsba(ibclass
BBasicBlock
p1267
(dp1268
g12
Nsg13
(lp1269
(ibclass
BInstr
p1270
(dp1271
g2
Nsg17
S'LDR             X0, [X24,#qword_FFFFFFC000E43D48@PAGEOFF]'
p1272
sg19
S'00a746f9'
p1273
sg21
Vldr x0, [x24, #0xd48]
p1274
sg5
L18446743798839629772L
sg6
Nsg23
S'LDR'
p1275
sg25
S'0xffffffc00079d7ccL'
p1276
sg27
Nsba(ibclass
BInstr
p1277
(dp1278
g2
Nsg17
S'LDR             W0, [X0]'
p1279
sg19
S'000040b9'
p1280
sg21
Vldr w0, [x0]
p1281
sg5
L18446743798839629776L
sg6
Nsg23
S'LDR'
p1282
sg25
S'0xffffffc00079d7d0L'
p1283
sg27
Nsba(ibclass
BInstr
p1284
(dp1285
g2
Nsg17
S'CBNZ            W0, loc_FFFFFFC00079D7E8'
p1286
sg19
S'a0000035'
p1287
sg21
Vcbnz w0, #0x14
p1288
sg5
L18446743798839629780L
sg6
Nsg23
S'CBNZ'
p1289
sg25
S'0xffffffc00079d7d4L'
p1290
sg27
Nsbasg84
(lp1291
S'LDR reg, mem'
p1292
aS'LDR reg, mem'
p1293
aS'CBNZ reg, func'
p1294
asg95
Nsg5
S'0xffffffc00079d7ccL'
p1295
sg97
(lp1296
S'0xffffffc00079d7b8L'
p1297
asg6
Nsg99
(lp1298
S'0xffffffc00079d7d8L'
p1299
aS'0xffffffc00079d7e8L'
p1300
asg103
Nsg104
Nsg105
S'f99d4c26198b49c08607b4e65321097b'
p1301
sg107
S'153317dd053ff09ae8062c0ea8ae7ec2'
p1302
sg109
(lp1303
g1275
ag1282
ag1289
asg111
Nsba(ibclass
BBasicBlock
p1304
(dp1305
g12
Nsg13
(lp1306
(ibclass
BInstr
p1307
(dp1308
g2
Nsg17
S'MOV             X0, X25'
p1309
sg19
S'e00319aa'
p1310
sg21
Vmov x0, x25
p1311
sg5
L18446743798839629784L
sg6
Nsg23
S'MOV'
p1312
sg25
S'0xffffffc00079d7d8L'
p1313
sg27
Nsba(ibclass
BInstr
p1314
(dp1315
g2
Nsg17
S'MOV             X1, X26'
p1316
sg19
S'e1031aaa'
p1317
sg21
Vmov x1, x26
p1318
sg5
L18446743798839629788L
sg6
Nsg23
S'MOV'
p1319
sg25
S'0xffffffc00079d7dcL'
p1320
sg27
Nsba(ibclass
BInstr
p1321
(dp1322
g2
Nsg17
S'MOV             W2, W22'
p1323
sg19
S'e203162a'
p1324
sg21
Vmov w2, w22
p1325
sg5
L18446743798839629792L
sg6
Nsg23
S'MOV'
p1326
sg25
S'0xffffffc00079d7e0L'
p1327
sg27
Nsba(ibclass
BInstr
p1328
(dp1329
g2
Nsg17
S'BL              printk'
p1330
sg19
S'a1441a94'
p1331
sg21
Vbl #0x691284
p1332
sg5
L18446743798839629796L
sg6
Nsg23
S'BL'
p1333
sg25
S'0xffffffc00079d7e4L'
p1334
sg27
Nsbasg84
(lp1335
S'MOV reg, reg5'
p1336
aS'MOV reg, reg6'
p1337
aS'MOV reg, reg2'
p1338
aS'BL printk'
p1339
asg95
Nsg5
S'0xffffffc00079d7d8L'
p1340
sg97
(lp1341
S'0xffffffc00079d7ccL'
p1342
asg6
Nsg99
(lp1343
S'0xffffffc00079d7e8L'
p1344
asg103
Nsg104
Nsg105
S'441b8e198e5abdd2c95327eca4a4bbe4'
p1345
sg107
S'90c52e75638a3276293af1e1d8bc0b8f'
p1346
sg109
(lp1347
g1312
ag1319
ag1326
ag1333
asg111
Nsba(ibclass
BBasicBlock
p1348
(dp1349
g12
Nsg13
(lp1350
(ibclass
BInstr
p1351
(dp1352
g2
Nsg17
S'MOV             W22, W22'
p1353
sg19
S'f603162a'
p1354
sg21
Vmov w22, w22
p1355
sg5
L18446743798839629800L
sg6
Nsg23
S'MOV'
p1356
sg25
S'0xffffffc00079d7e8L'
p1357
sg27
Nsba(ibclass
BInstr
p1358
(dp1359
g2
Nsg17
S'MADD            X22, X22, X27, XZR'
p1360
sg19
S'd67e1b9b'
p1361
sg21
Vmul x22, x22, x27
p1362
sg5
L18446743798839629804L
sg6
Nsg23
S'MADD'
p1363
sg25
S'0xffffffc00079d7ecL'
p1364
sg27
Nsba(ibclass
BInstr
p1365
(dp1366
g2
Nsg17
S'ADD             X0, X19, X22'
p1367
sg19
S'6002168b'
p1368
sg21
Vadd x0, x19, x22
p1369
sg5
L18446743798839629808L
sg6
Nsg23
S'ADD'
p1370
sg25
S'0xffffffc00079d7f0L'
p1371
sg27
Nsba(ibclass
BInstr
p1372
(dp1373
g2
Nsg17
S'LDR             X3, [X0,#0x2F8]'
p1374
sg19
S'037c41f9'
p1375
sg21
Vldr x3, [x0, #0x2f8]
p1376
sg5
L18446743798839629812L
sg6
Nsg23
S'LDR'
p1377
sg25
S'0xffffffc00079d7f4L'
p1378
sg27
Nsba(ibclass
BInstr
p1379
(dp1380
g2
Nsg17
S'ADD             X2, X0, #0x2F8'
p1381
sg19
S'02e00b91'
p1382
sg21
Vadd x2, x0, #0x2f8
p1383
sg5
L18446743798839629816L
sg6
Nsg23
S'ADD'
p1384
sg25
S'0xffffffc00079d7f8L'
p1385
sg27
Nsba(ibclass
BInstr
p1386
(dp1387
g2
Nsg17
S'LDR             X21, [X3]'
p1388
sg19
S'750040f9'
p1389
sg21
Vldr x21, [x3]
p1390
sg5
L18446743798839629820L
sg6
Nsg23
S'LDR'
p1391
sg25
S'0xffffffc00079d7fcL'
p1392
sg27
Nsba(ibclass
BInstr
p1393
(dp1394
g2
Nsg17
S'ADD             X22, X0, #0x3B0'
p1395
sg19
S'16c00e91'
p1396
sg21
Vadd x22, x0, #0x3b0
p1397
sg5
L18446743798839629824L
sg6
Nsg23
S'ADD'
p1398
sg25
S'0xffffffc00079d800L'
p1399
sg27
Nsbasg84
(lp1400
S'MOV reg2, reg2'
p1401
aS'MADD reg2, reg2, reg7, XZR'
p1402
aS'ADD reg, reg9, reg2'
p1403
aS'LDR reg, mem'
p1404
aS'ADD reg, reg, #0x2F8'
p1405
aS'LDR reg1, mem'
p1406
aS'ADD reg2, reg, #0x3B0'
p1407
asg95
Nsg5
S'0xffffffc00079d7e8L'
p1408
sg97
(lp1409
S'0xffffffc00079d7b8L'
p1410
aS'0xffffffc00079d7ccL'
p1411
aS'0xffffffc00079d7d8L'
p1412
asg6
Nsg99
(lp1413
S'0xffffffc00079d804L'
p1414
asg103
Nsg104
Nsg105
S'752a6b0a1820fdfae909c9e67a9b30d4'
p1415
sg107
S'3aa5414ca6e6ba524c07b92ef3678c71'
p1416
sg109
(lp1417
g1356
ag1363
ag1370
ag1377
ag1384
ag1391
ag1398
asg111
Nsba(ibclass
BBasicBlock
p1418
(dp1419
g12
Nsg13
(lp1420
(ibclass
BInstr
p1421
(dp1422
g2
Nsg17
S'CMP             X3, X2'
p1423
sg19
S'7f0002eb'
p1424
sg21
Vcmp x3, x2
p1425
sg5
L18446743798839629828L
sg6
Nsg23
S'CMP'
p1426
sg25
S'0xffffffc00079d804L'
p1427
sg27
Nsba(ibclass
BInstr
p1428
(dp1429
g2
Nsg17
S'B.EQ            loc_FFFFFFC00079D848'
p1430
sg19
S'00020054'
p1431
sg21
Vb.eq #0x40
p1432
sg5
L18446743798839629832L
sg6
Nsg23
g253
sg25
S'0xffffffc00079d808L'
p1433
sg27
Nsbasg84
(lp1434
S'CMP reg, reg'
p1435
aS'B.EQ func'
p1436
asg95
Nsg5
S'0xffffffc00079d804L'
p1437
sg97
(lp1438
S'0xffffffc00079d7e8L'
p1439
aS'0xffffffc00079d80cL'
p1440
asg6
Nsg99
(lp1441
S'0xffffffc00079d80cL'
p1442
aS'0xffffffc00079d848L'
p1443
asg103
Nsg104
Nsg105
S'c78fd620a449e3c979d3f3ec12d4ee88'
p1444
sg107
S'cd020f6b9bc7a829fec19b8ab4fd5c17'
p1445
sg109
(lp1446
g1426
ag253
asg111
Nsba(ibclass
BBasicBlock
p1447
(dp1448
g12
Nsg13
(lp1449
(ibclass
BInstr
p1450
(dp1451
g2
Nsg17
S'SUB             X28, X3, #0x268'
p1452
sg19
S'7ca009d1'
p1453
sg21
Vsub x28, x3, #0x268
p1454
sg5
L18446743798839629836L
sg6
Nsg23
S'SUB'
p1455
sg25
S'0xffffffc00079d80cL'
p1456
sg27
Nsba(ibclass
BInstr
p1457
(dp1458
g2
Nsg17
S'STR             WZR, [X28,#0x58]'
p1459
sg19
S'9f5b00b9'
p1460
sg21
Vstr wzr, [x28, #0x58]
p1461
sg5
L18446743798839629840L
sg6
Nsg23
S'STR'
p1462
sg25
S'0xffffffc00079d810L'
p1463
sg27
Nsba(ibclass
BInstr
p1464
(dp1465
g2
Nsg17
S'STR             WZR, [X28,#0x68]'
p1466
sg19
S'9f6b00b9'
p1467
sg21
Vstr wzr, [x28, #0x68]
p1468
sg5
L18446743798839629844L
sg6
Nsg23
S'STR'
p1469
sg25
S'0xffffffc00079d814L'
p1470
sg27
Nsba(ibclass
BInstr
p1471
(dp1472
g2
Nsg17
S'MOV             X0, X22'
p1473
sg19
S'e00316aa'
p1474
sg21
Vmov x0, x22
p1475
sg5
L18446743798839629848L
sg6
Nsg23
S'MOV'
p1476
sg25
S'0xffffffc00079d818L'
p1477
sg27
Nsba(ibclass
BInstr
p1478
(dp1479
g2
Nsg17
S'STR             X2, [X29,#arg_60]'
p1480
sg19
S'a23b00f9'
p1481
sg21
Vstr x2, [x29, #0x70]
p1482
sg5
L18446743798839629852L
sg6
Nsg23
S'STR'
p1483
sg25
S'0xffffffc00079d81cL'
p1484
sg27
Nsba(ibclass
BInstr
p1485
(dp1486
g2
Nsg17
S'BL              mutex_lock'
p1487
sg19
S'f3781a94'
p1488
sg21
Vbl #0x69e3cc
p1489
sg5
L18446743798839629856L
sg6
Nsg23
S'BL'
p1490
sg25
S'0xffffffc00079d820L'
p1491
sg27
Nsba(ibclass
BInstr
p1492
(dp1493
g2
Nsg17
S'MOV             X0, X28'
p1494
sg19
S'e0031caa'
p1495
sg21
Vmov x0, x28
p1496
sg5
L18446743798839629860L
sg6
Nsg23
S'MOV'
p1497
sg25
S'0xffffffc00079d824L'
p1498
sg27
Nsba(ibclass
BInstr
p1499
(dp1500
g2
Nsg17
S'MOV             W1, #4'
p1501
sg19
S'81008052'
p1502
sg21
Vmovz w1, #0x4
p1503
sg5
L18446743798839629864L
sg6
Nsg23
S'MOV'
p1504
sg25
S'0xffffffc00079d828L'
p1505
sg27
Nsba(ibclass
BInstr
p1506
(dp1507
g2
Nsg17
S'BL              vb2_buffer_done'
p1508
sg19
S'acdaff97'
p1509
sg21
Vbl #0xffffffffffff6ab0
p1510
sg5
L18446743798839629868L
sg6
Nsg23
S'BL'
p1511
sg25
S'0xffffffc00079d82cL'
p1512
sg27
Nsba(ibclass
BInstr
p1513
(dp1514
g2
Nsg17
S'MOV             X0, X22'
p1515
sg19
S'e00316aa'
p1516
sg21
Vmov x0, x22
p1517
sg5
L18446743798839629872L
sg6
Nsg23
S'MOV'
p1518
sg25
S'0xffffffc00079d830L'
p1519
sg27
Nsba(ibclass
BInstr
p1520
(dp1521
g2
Nsg17
S'BL              mutex_unlock'
p1522
sg19
S'31781a94'
p1523
sg21
Vbl #0x69e0c4
p1524
sg5
L18446743798839629876L
sg6
Nsg23
S'BL'
p1525
sg25
S'0xffffffc00079d834L'
p1526
sg27
Nsba(ibclass
BInstr
p1527
(dp1528
g2
Nsg17
S'MOV             X3, X21'
p1529
sg19
S'e30315aa'
p1530
sg21
Vmov x3, x21
p1531
sg5
L18446743798839629880L
sg6
Nsg23
S'MOV'
p1532
sg25
S'0xffffffc00079d838L'
p1533
sg27
Nsba(ibclass
BInstr
p1534
(dp1535
g2
Nsg17
S'LDR             X2, [X29,#arg_60]'
p1536
sg19
S'a23b40f9'
p1537
sg21
Vldr x2, [x29, #0x70]
p1538
sg5
L18446743798839629884L
sg6
Nsg23
S'LDR'
p1539
sg25
S'0xffffffc00079d83cL'
p1540
sg27
Nsba(ibclass
BInstr
p1541
(dp1542
g2
Nsg17
S'LDR             X21, [X21]'
p1543
sg19
S'b50240f9'
p1544
sg21
Vldr x21, [x21]
p1545
sg5
L18446743798839629888L
sg6
Nsg23
S'LDR'
p1546
sg25
S'0xffffffc00079d840L'
p1547
sg27
Nsba(ibclass
BInstr
p1548
(dp1549
g2
Nsg17
S'B               loc_FFFFFFC00079D804'
p1550
sg19
S'f0ffff17'
p1551
sg21
Vb #0xffffffffffffffc0
p1552
sg5
L18446743798839629892L
sg6
Nsg23
g253
sg25
S'0xffffffc00079d844L'
p1553
sg27
Nsbasg84
(lp1554
S'SUB reg8, reg, #0x268'
p1555
aS'STR WZR, mem'
p1556
aS'STR WZR, mem'
p1557
aS'MOV reg, reg2'
p1558
aS'STR reg, mem'
p1559
aS'BL mutex_lock'
p1560
aS'MOV reg, reg8'
p1561
aS'MOV reg, #4'
p1562
aS'BL vb2_buffer_done'
p1563
aS'MOV reg, reg2'
p1564
aS'BL mutex_unlock'
p1565
aS'MOV reg, reg1'
p1566
aS'LDR reg, mem'
p1567
aS'LDR reg1, mem'
p1568
aS'B func'
p1569
asg95
Nsg5
S'0xffffffc00079d80cL'
p1570
sg97
(lp1571
S'0xffffffc00079d804L'
p1572
asg6
Nsg99
(lp1573
S'0xffffffc00079d804L'
p1574
asg103
Nsg104
Nsg105
S'707f74dc023ae62f4e6d0b3d66f52167'
p1575
sg107
S'4ac6e03111199b47dfa5e2e0332f6db3'
p1576
sg109
(lp1577
g1455
ag1462
ag1469
ag1476
ag1483
ag1490
ag1497
ag1504
ag1511
ag1518
ag1525
ag1532
ag1539
ag1546
ag253
asg111
Nsba(ibclass
BBasicBlock
p1578
(dp1579
g12
Nsg13
(lp1580
(ibclass
BInstr
p1581
(dp1582
g2
Nsg17
S'ADD             X20, X20, #4'
p1583
sg19
S'94120091'
p1584
sg21
Vadd x20, x20, #4
p1585
sg5
L18446743798839629896L
sg6
Nsg23
S'ADD'
p1586
sg25
S'0xffffffc00079d848L'
p1587
sg27
Nsba(ibclass
BInstr
p1588
(dp1589
g2
Nsg17
S'CMP             X20, #8'
p1590
sg19
S'9f2200f1'
p1591
sg21
Vcmp x20, #8
p1592
sg5
L18446743798839629900L
sg6
Nsg23
S'CMP'
p1593
sg25
S'0xffffffc00079d84cL'
p1594
sg27
Nsba(ibclass
BInstr
p1595
(dp1596
g2
Nsg17
S'B.NE            loc_FFFFFFC00079D7B8'
p1597
sg19
S'41fbff54'
p1598
sg21
Vb.ne #0xffffffffffffff68
p1599
sg5
L18446743798839629904L
sg6
Nsg23
g253
sg25
S'0xffffffc00079d850L'
p1600
sg27
Nsbasg84
(lp1601
S'ADD reg0, reg0, #4'
p1602
aS'CMP reg0, #8'
p1603
aS'B.NE func'
p1604
asg95
Nsg5
S'0xffffffc00079d848L'
p1605
sg97
(lp1606
S'0xffffffc00079d804L'
p1607
asg6
Nsg99
(lp1608
S'0xffffffc00079d7b8L'
p1609
aS'0xffffffc00079d854L'
p1610
asg103
Nsg104
Nsg105
S'b18482ce28e47cedf5ced20c4c995241'
p1611
sg107
S'1671826c87885fc473815e84f779755e'
p1612
sg109
(lp1613
g1586
ag1593
ag253
asg111
Nsba(ibclass
BBasicBlock
p1614
(dp1615
g12
Nsg13
(lp1616
(ibclass
BInstr
p1617
(dp1618
g2
Nsg17
S'MOV             W1, #0x1001'
p1619
sg19
S'21008252'
p1620
sg21
Vmovz w1, #0x1001
p1621
sg5
L18446743798839629908L
sg6
Nsg23
S'MOV'
p1622
sg25
S'0xffffffc00079d854L'
p1623
sg27
Nsba(ibclass
BInstr
p1624
(dp1625
g2
Nsg17
S'MOV             X0, X19'
p1626
sg19
S'e00313aa'
p1627
sg21
Vmov x0, x19
p1628
sg5
L18446743798839629912L
sg6
Nsg23
S'MOV'
p1629
sg25
S'0xffffffc00079d858L'
p1630
sg27
Nsba(ibclass
BInstr
p1631
(dp1632
g2
Nsg17
S'MOVK            W1, #0x800,LSL#16'
p1633
sg19
S'0100a172'
p1634
sg21
Vmovk w1, #0x800, lsl #16
p1635
sg5
L18446743798839629916L
sg6
Nsg23
S'MOVK'
p1636
sg25
S'0xffffffc00079d85cL'
p1637
sg27
Nsba(ibclass
BInstr
p1638
(dp1639
g2
Nsg17
S'BL              msm_vidc_queue_v4l2_event'
p1640
sg19
S'e6f4ff97'
p1641
sg21
Vbl #0xffffffffffffd398
p1642
sg5
L18446743798839629920L
sg6
Nsg23
S'BL'
p1643
sg25
S'0xffffffc00079d860L'
p1644
sg27
Nsbasg84
(lp1645
S'MOV reg, #0x1001'
p1646
aS'MOV reg, reg9'
p1647
aS'MOVK reg, #0x800,LSL#16'
p1648
aS'BL msm_vidc_queue_v4l2_event'
p1649
asg95
Nsg5
S'0xffffffc00079d854L'
p1650
sg97
(lp1651
S'0xffffffc00079d848L'
p1652
asg6
Nsg99
(lp1653
S'0xffffffc00079d864L'
p1654
asg103
Nsg104
Nsg105
S'5543ac91a5c11f52fd3b98ab1021838d'
p1655
sg107
S'a769adf0a7e9ec21d96eb4f8377a5cba'
p1656
sg109
(lp1657
g1622
ag1629
ag1636
ag1643
asg111
Nsba(ibclass
BBasicBlock
p1658
(dp1659
g12
Nsg13
(lp1660
(ibclass
BInstr
p1661
(dp1662
g2
Nsg17
S'MOV             W20, #0'
p1663
sg19
S'14008052'
p1664
sg21
Vmovz w20, #0
p1665
sg5
L18446743798839629924L
sg6
Nsg23
S'MOV'
p1666
sg25
S'0xffffffc00079d864L'
p1667
sg27
Nsba(ibclass
BInstr
p1668
(dp1669
g2
Nsg17
S'B               loc_FFFFFFC00079D9EC'
p1670
sg19
S'61000014'
p1671
sg21
Vb #0x184
p1672
sg5
L18446743798839629928L
sg6
Nsg23
g253
sg25
S'0xffffffc00079d868L'
p1673
sg27
Nsbasg84
(lp1674
S'MOV reg0, #0'
p1675
aS'B func'
p1676
asg95
Nsg5
S'0xffffffc00079d864L'
p1677
sg97
(lp1678
S'0xffffffc00079d6fcL'
p1679
aS'0xffffffc00079d70cL'
p1680
aS'0xffffffc00079d854L'
p1681
aS'0xffffffc00079d8dcL'
p1682
aS'0xffffffc00079d908L'
p1683
aS'0xffffffc00079d9c0L'
p1684
aS'0xffffffc00079d9ccL'
p1685
asg6
Nsg99
(lp1686
S'0xffffffc00079d9ecL'
p1687
asg103
Nsg104
Nsg105
S'b6c4e95ccfe77a95e4cf2019dd3d5574'
p1688
sg107
S'817c453f1cf7b583cc9ae8e413663636'
p1689
sg109
(lp1690
g1666
ag253
asg111
Nsba(ibclass
BBasicBlock
p1691
(dp1692
g12
Nsg13
(lp1693
(ibclass
BInstr
p1694
(dp1695
g2
Nsg17
S'LDRB            W0, [X19,#0xD08]'
p1696
sg19
S'60227439'
p1697
sg21
Vldrb w0, [x19, #0xd08]
p1698
sg5
L18446743798839629932L
sg6
Nsg23
S'LDR'
p1699
sg25
S'0xffffffc00079d86cL'
p1700
sg27
Nsba(ibclass
BInstr
p1701
(dp1702
g2
Nsg17
S'ADD             X23, X19, #0x718'
p1703
sg19
S'77621c91'
p1704
sg21
Vadd x23, x19, #0x718
p1705
sg5
L18446743798839629936L
sg6
Nsg23
S'ADD'
p1706
sg25
S'0xffffffc00079d870L'
p1707
sg27
Nsba(ibclass
BInstr
p1708
(dp1709
g2
Nsg17
S'ADD             X25, X19, #0x708'
p1710
sg19
S'79221c91'
p1711
sg21
Vadd x25, x19, #0x708
p1712
sg5
L18446743798839629940L
sg6
Nsg23
S'ADD'
p1713
sg25
S'0xffffffc00079d874L'
p1714
sg27
Nsba(ibclass
BInstr
p1715
(dp1716
g2
Nsg17
S'CBZ             W0, loc_FFFFFFC00079D918'
p1717
sg19
S'00050034'
p1718
sg21
Vcbz w0, #0xa0
p1719
sg5
L18446743798839629944L
sg6
Nsg23
S'CBZ'
p1720
sg25
S'0xffffffc00079d878L'
p1721
sg27
Nsbasg84
(lp1722
S'LDRB reg, mem'
p1723
aS'ADD reg3, reg9, #0x718'
p1724
aS'ADD reg5, reg9, #0x708'
p1725
aS'CBZ reg, func'
p1726
asg95
Nsg5
S'0xffffffc00079d86cL'
p1727
sg97
(lp1728
S'0xffffffc00079d748L'
p1729
asg6
Nsg99
(lp1730
S'0xffffffc00079d87cL'
p1731
aS'0xffffffc00079d918L'
p1732
asg103
Nsg104
Nsg105
S'2ea89ecfcca5a93345c3eb89bbe78182'
p1733
sg107
S'062c701d8ee537c9015ca3292b86645a'
p1734
sg109
(lp1735
g1699
ag1706
ag1713
ag1720
asg111
Nsba(ibclass
BBasicBlock
p1736
(dp1737
g12
Nsg13
(lp1738
(ibclass
BInstr
p1739
(dp1740
g2
Nsg17
S'CBNZ            W24, loc_FFFFFFC00079D918'
p1741
sg19
S'f8040035'
p1742
sg21
Vcbnz w24, #0x9c
p1743
sg5
L18446743798839629948L
sg6
Nsg23
S'CBNZ'
p1744
sg25
S'0xffffffc00079d87cL'
p1745
sg27
Nsbasg84
(lp1746
S'CBNZ reg4, func'
p1747
asg95
Nsg5
S'0xffffffc00079d87cL'
p1748
sg97
(lp1749
S'0xffffffc00079d86cL'
p1750
asg6
Nsg99
(lp1751
S'0xffffffc00079d880L'
p1752
aS'0xffffffc00079d918L'
p1753
asg103
Nsg104
Nsg105
S'482b7d814ad85789cad59d80ecb8562a'
p1754
sg107
S'c26efe74f91b320029b727905f01d4e6'
p1755
sg109
(lp1756
g1744
asg111
Nsba(ibclass
BBasicBlock
p1757
(dp1758
g12
Nsg13
(lp1759
(ibclass
BInstr
p1760
(dp1761
g2
Nsg17
S'CBZ             W20, loc_FFFFFFC00079D918'
p1762
sg19
S'd4040034'
p1763
sg21
Vcbz w20, #0x98
p1764
sg5
L18446743798839629952L
sg6
Nsg23
S'CBZ'
p1765
sg25
S'0xffffffc00079d880L'
p1766
sg27
Nsbasg84
(lp1767
S'CBZ reg0, func'
p1768
asg95
Nsg5
S'0xffffffc00079d880L'
p1769
sg97
(lp1770
S'0xffffffc00079d87cL'
p1771
asg6
Nsg99
(lp1772
S'0xffffffc00079d884L'
p1773
aS'0xffffffc00079d918L'
p1774
asg103
Nsg104
Nsg105
S'de8e361453cf9f764a4abe9d486f8fbe'
p1775
sg107
S'002fdf30aefe9033232096dde6ad5565'
p1776
sg109
(lp1777
g1765
asg111
Nsba(ibclass
BBasicBlock
p1778
(dp1779
g12
Nsg13
(lp1780
(ibclass
BInstr
p1781
(dp1782
g2
Nsg17
S'MOV             X0, X23'
p1783
sg19
S'e00317aa'
p1784
sg21
Vmov x0, x23
p1785
sg5
L18446743798839629956L
sg6
Nsg23
S'MOV'
p1786
sg25
S'0xffffffc00079d884L'
p1787
sg27
Nsba(ibclass
BInstr
p1788
(dp1789
g2
Nsg17
S'BL              mutex_lock'
p1790
sg19
S'd9781a94'
p1791
sg21
Vbl #0x69e364
p1792
sg5
L18446743798839629960L
sg6
Nsg23
S'BL'
p1793
sg25
S'0xffffffc00079d888L'
p1794
sg27
Nsba(ibclass
BInstr
p1795
(dp1796
g2
Nsg17
S'LDR             X0, [X19,#0x708]'
p1797
sg19
S'608643f9'
p1798
sg21
Vldr x0, [x19, #0x708]
p1799
sg5
L18446743798839629964L
sg6
Nsg23
S'LDR'
p1800
sg25
S'0xffffffc00079d88cL'
p1801
sg27
Nsba(ibclass
BInstr
p1802
(dp1803
g2
Nsg17
S'CMP             X0, X25'
p1804
sg19
S'1f0019eb'
p1805
sg21
Vcmp x0, x25
p1806
sg5
L18446743798839629968L
sg6
Nsg23
S'CMP'
p1807
sg25
S'0xffffffc00079d890L'
p1808
sg27
Nsba(ibclass
BInstr
p1809
(dp1810
g2
Nsg17
S'B.EQ            loc_FFFFFFC00079D8CC'
p1811
sg19
S'c0010054'
p1812
sg21
Vb.eq #0x38
p1813
sg5
L18446743798839629972L
sg6
Nsg23
g253
sg25
S'0xffffffc00079d894L'
p1814
sg27
Nsbasg84
(lp1815
S'MOV reg, reg3'
p1816
aS'BL mutex_lock'
p1817
aS'LDR reg, mem'
p1818
aS'CMP reg, reg5'
p1819
aS'B.EQ func'
p1820
asg95
Nsg5
S'0xffffffc00079d884L'
p1821
sg97
(lp1822
S'0xffffffc00079d880L'
p1823
asg6
Nsg99
(lp1824
S'0xffffffc00079d898L'
p1825
aS'0xffffffc00079d8ccL'
p1826
asg103
Nsg104
Nsg105
S'4b424ec4ae6fc4f34f58b51fd1c10108'
p1827
sg107
S'376b1aacdfae464d142748d84325475f'
p1828
sg109
(lp1829
g1786
ag1793
ag1800
ag1807
ag253
asg111
Nsba(ibclass
BBasicBlock
p1830
(dp1831
g12
Nsg13
(lp1832
(ibclass
BInstr
p1833
(dp1834
g2
Nsg17
S'ADRP            X0, #qword_FFFFFFC000E458A0@PAGE'
p1835
sg19
S'40350090'
p1836
sg21
Vadrp x0, #0x6a8000
p1837
sg5
L18446743798839629976L
sg6
Nsg23
S'ADRP'
p1838
sg25
S'0xffffffc00079d898L'
p1839
sg27
Nsba(ibclass
BInstr
p1840
(dp1841
g2
Nsg17
S'LDR             X0, [X0,#qword_FFFFFFC000E458A0@PAGEOFF]'
p1842
sg19
S'005044f9'
p1843
sg21
Vldr x0, [x0, #0x8a0]
p1844
sg5
L18446743798839629980L
sg6
Nsg23
S'LDR'
p1845
sg25
S'0xffffffc00079d89cL'
p1846
sg27
Nsba(ibclass
BInstr
p1847
(dp1848
g2
Nsg17
S'LDR             W0, [X0]'
p1849
sg19
S'000040b9'
p1850
sg21
Vldr w0, [x0]
p1851
sg5
L18446743798839629984L
sg6
Nsg23
S'LDR'
p1852
sg25
S'0xffffffc00079d8a0L'
p1853
sg27
Nsba(ibclass
BInstr
p1854
(dp1855
g2
Nsg17
S'TBZ             W0, #1, loc_FFFFFFC00079D8CC'
p1856
sg19
S'40010836'
p1857
sg21
Vtbz w0, #1, #0x28
p1858
sg5
L18446743798839629988L
sg6
Nsg23
S'TBZ'
p1859
sg25
S'0xffffffc00079d8a4L'
p1860
sg27
Nsbasg84
(lp1861
S'ADRP reg, #func@PAGE'
p1862
aS'LDR reg, mem'
p1863
aS'LDR reg, mem'
p1864
aS'TBZ reg, #1, func'
p1865
asg95
Nsg5
S'0xffffffc00079d898L'
p1866
sg97
(lp1867
S'0xffffffc00079d884L'
p1868
asg6
Nsg99
(lp1869
S'0xffffffc00079d8a8L'
p1870
aS'0xffffffc00079d8ccL'
p1871
asg103
Nsg104
Nsg105
S'2de94c9e326481f2f467f11acce8dcc9'
p1872
sg107
S'5a2df7748023b4b74960a558be39a089'
p1873
sg109
(lp1874
g1838
ag1845
ag1852
ag1859
asg111
Nsba(ibclass
BBasicBlock
p1875
(dp1876
g12
Nsg13
(lp1877
(ibclass
BInstr
p1878
(dp1879
g2
Nsg17
S'ADRP            X0, #qword_FFFFFFC000E43D48@PAGE'
p1880
sg19
S'203500d0'
p1881
sg21
Vadrp x0, #0x6a6000
p1882
sg5
L18446743798839629992L
sg6
Nsg23
S'ADRP'
p1883
sg25
S'0xffffffc00079d8a8L'
p1884
sg27
Nsba(ibclass
BInstr
p1885
(dp1886
g2
Nsg17
S'LDR             X0, [X0,#qword_FFFFFFC000E43D48@PAGEOFF]'
p1887
sg19
S'00a446f9'
p1888
sg21
Vldr x0, [x0, #0xd48]
p1889
sg5
L18446743798839629996L
sg6
Nsg23
S'LDR'
p1890
sg25
S'0xffffffc00079d8acL'
p1891
sg27
Nsba(ibclass
BInstr
p1892
(dp1893
g2
Nsg17
S'LDR             W0, [X0]'
p1894
sg19
S'000040b9'
p1895
sg21
Vldr w0, [x0]
p1896
sg5
L18446743798839630000L
sg6
Nsg23
S'LDR'
p1897
sg25
S'0xffffffc00079d8b0L'
p1898
sg27
Nsba(ibclass
BInstr
p1899
(dp1900
g2
Nsg17
S'CBNZ            W0, loc_FFFFFFC00079D8CC'
p1901
sg19
S'c0000035'
p1902
sg21
Vcbnz w0, #0x18
p1903
sg5
L18446743798839630004L
sg6
Nsg23
S'CBNZ'
p1904
sg25
S'0xffffffc00079d8b4L'
p1905
sg27
Nsbasg84
(lp1906
S'ADRP reg, #func@PAGE'
p1907
aS'LDR reg, mem'
p1908
aS'LDR reg, mem'
p1909
aS'CBNZ reg, func'
p1910
asg95
Nsg5
S'0xffffffc00079d8a8L'
p1911
sg97
(lp1912
S'0xffffffc00079d898L'
p1913
asg6
Nsg99
(lp1914
S'0xffffffc00079d8b8L'
p1915
aS'0xffffffc00079d8ccL'
p1916
asg103
Nsg104
Nsg105
S'9c97521b8b0f280d47a50ec9a5e4f86f'
p1917
sg107
S'bd26f8893557dc5fa132ff2490be0ebf'
p1918
sg109
(lp1919
g1883
ag1890
ag1897
ag1904
asg111
Nsba(ibclass
BBasicBlock
p1920
(dp1921
g12
Nsg13
(lp1922
(ibclass
BInstr
p1923
(dp1924
g2
Nsg17
S'ADRP            X0, #unk_FFFFFFC0013B72B3@PAGE'
p1925
sg19
S'c06000d0'
p1926
sg21
Vadrp x0, #0xc1a000
p1927
sg5
L18446743798839630008L
sg6
Nsg23
S'ADRP'
p1928
sg25
S'0xffffffc00079d8b8L'
p1929
sg27
Nsba(ibclass
BInstr
p1930
(dp1931
g2
Nsg17
S'ADRP            X1, #aWarn@PAGE; "warn"'
p1932
sg19
S'c1600090'
p1933
sg21
Vadrp x1, #0xc18000
p1934
sg5
L18446743798839630012L
sg6
Nsg23
S'ADRP'
p1935
sg25
S'0xffffffc00079d8bcL'
p1936
sg27
Nsba(ibclass
BInstr
p1937
(dp1938
g2
Nsg17
S'ADD             X0, X0, #unk_FFFFFFC0013B72B3@PAGEOFF'
p1939
sg19
S'00cc0a91'
p1940
sg21
Vadd x0, x0, #0x2b3
p1941
sg5
L18446743798839630016L
sg6
Nsg23
S'ADD'
p1942
sg25
S'0xffffffc00079d8c0L'
p1943
sg27
Nsba(ibclass
BInstr
p1944
(dp1945
g2
Nsg17
S'ADD             X1, X1, #aWarn@PAGEOFF; "warn"'
p1946
sg19
S'21281691'
p1947
sg21
Vadd x1, x1, #0x58a
p1948
sg5
L18446743798839630020L
sg6
Nsg23
S'ADD'
p1949
sg25
S'0xffffffc00079d8c4L'
p1950
sg27
Nsba(ibclass
BInstr
p1951
(dp1952
g2
Nsg17
S'BL              printk'
p1953
sg19
S'68441a94'
p1954
sg21
Vbl #0x6911a0
p1955
sg5
L18446743798839630024L
sg6
Nsg23
S'BL'
p1956
sg25
S'0xffffffc00079d8c8L'
p1957
sg27
Nsbasg84
(lp1958
S'ADRP reg, #func@PAGE'
p1959
aS'ADRP reg, #aWarn@PAGE'
p1960
aS'ADD reg, reg, #func@PAGEOFF'
p1961
aS'ADD reg, reg, #aWarn@PAGEOFF'
p1962
aS'BL printk'
p1963
asg95
Nsg5
S'0xffffffc00079d8b8L'
p1964
sg97
(lp1965
S'0xffffffc00079d8a8L'
p1966
asg6
Nsg99
(lp1967
S'0xffffffc00079d8ccL'
p1968
asg103
Nsg104
Nsg105
S'4bb3c333f0963e9d264d92b454a1960d'
p1969
sg107
S'c535ea1738d7f725e62352b8453acb65'
p1970
sg109
(lp1971
g1928
ag1935
ag1942
ag1949
ag1956
asg111
Nsba(ibclass
BBasicBlock
p1972
(dp1973
g12
Nsg13
(lp1974
(ibclass
BInstr
p1975
(dp1976
g2
Nsg17
S'MOV             X0, X23'
p1977
sg19
S'e00317aa'
p1978
sg21
Vmov x0, x23
p1979
sg5
L18446743798839630028L
sg6
Nsg23
S'MOV'
p1980
sg25
S'0xffffffc00079d8ccL'
p1981
sg27
Nsba(ibclass
BInstr
p1982
(dp1983
g2
Nsg17
S'BL              mutex_unlock'
p1984
sg19
S'0a781a94'
p1985
sg21
Vbl #0x69e028
p1986
sg5
L18446743798839630032L
sg6
Nsg23
S'BL'
p1987
sg25
S'0xffffffc00079d8d0L'
p1988
sg27
Nsba(ibclass
BInstr
p1989
(dp1990
g2
Nsg17
S'LDR             X2, [X22,#0xA0]'
p1991
sg19
S'c25240f9'
p1992
sg21
Vldr x2, [x22, #0xa0]
p1993
sg5
L18446743798839630036L
sg6
Nsg23
S'LDR'
p1994
sg25
S'0xffffffc00079d8d4L'
p1995
sg27
Nsba(ibclass
BInstr
p1996
(dp1997
g2
Nsg17
S'CBNZ            X2, loc_FFFFFFC00079D8F4'
p1998
sg19
S'e20000b5'
p1999
sg21
Vcbnz x2, #0x1c
p2000
sg5
L18446743798839630040L
sg6
Nsg23
S'CBNZ'
p2001
sg25
S'0xffffffc00079d8d8L'
p2002
sg27
Nsbasg84
(lp2003
S'MOV reg, reg3'
p2004
aS'BL mutex_unlock'
p2005
aS'LDR reg, mem'
p2006
aS'CBNZ reg, func'
p2007
asg95
Nsg5
S'0xffffffc00079d8ccL'
p2008
sg97
(lp2009
S'0xffffffc00079d884L'
p2010
aS'0xffffffc00079d898L'
p2011
aS'0xffffffc00079d8a8L'
p2012
aS'0xffffffc00079d8b8L'
p2013
asg6
Nsg99
(lp2014
S'0xffffffc00079d8dcL'
p2015
aS'0xffffffc00079d8f4L'
p2016
asg103
Nsg104
Nsg105
S'efae624d64a1e74cf5fc2455a51afc79'
p2017
sg107
S'e46384da2d02fe3881d53c28559aaeb2'
p2018
sg109
(lp2019
g1980
ag1987
ag1994
ag2001
asg111
Nsba(ibclass
BBasicBlock
p2020
(dp2021
g12
Nsg13
(lp2022
(ibclass
BInstr
p2023
(dp2024
g2
Nsg17
S'MOV             X0, X19'
p2025
sg19
S'e00313aa'
p2026
sg21
Vmov x0, x19
p2027
sg5
L18446743798839630044L
sg6
Nsg23
S'MOV'
p2028
sg25
S'0xffffffc00079d8dcL'
p2029
sg27
Nsba(ibclass
BInstr
p2030
(dp2031
g2
Nsg17
S'BL              msm_comm_get_stream_output_mode'
p2032
sg19
S'6df2ff97'
p2033
sg21
Vbl #0xffffffffffffc9b4
p2034
sg5
L18446743798839630048L
sg6
Nsg23
S'BL'
p2035
sg25
S'0xffffffc00079d8e0L'
p2036
sg27
Nsba(ibclass
BInstr
p2037
(dp2038
g2
Nsg17
S'CMP             W0, #2'
p2039
sg19
S'1f080071'
p2040
sg21
Vcmp w0, #2
p2041
sg5
L18446743798839630052L
sg6
Nsg23
S'CMP'
p2042
sg25
S'0xffffffc00079d8e4L'
p2043
sg27
Nsba(ibclass
BInstr
p2044
(dp2045
g2
Nsg17
S'MOV             W1, W0'
p2046
sg19
S'e103002a'
p2047
sg21
Vmov w1, w0
p2048
sg5
L18446743798839630056L
sg6
Nsg23
S'MOV'
p2049
sg25
S'0xffffffc00079d8e8L'
p2050
sg27
Nsba(ibclass
BInstr
p2051
(dp2052
g2
Nsg17
S'B.NE            loc_FFFFFFC00079D864'
p2053
sg19
S'c1fbff54'
p2054
sg21
Vb.ne #0xffffffffffffff78
p2055
sg5
L18446743798839630060L
sg6
Nsg23
g253
sg25
S'0xffffffc00079d8ecL'
p2056
sg27
Nsbasg84
(lp2057
S'MOV reg, reg9'
p2058
aS'BL msm_comm_get_stream_output_mode'
p2059
aS'CMP reg, #2'
p2060
aS'MOV reg, reg'
p2061
aS'B.NE func'
p2062
asg95
Nsg5
S'0xffffffc00079d8dcL'
p2063
sg97
(lp2064
S'0xffffffc00079d8ccL'
p2065
aS'0xffffffc00079d904L'
p2066
asg6
Nsg99
(lp2067
S'0xffffffc00079d864L'
p2068
aS'0xffffffc00079d8f0L'
p2069
asg103
Nsg104
Nsg105
S'64431fe0327d49f8402a22c5ffa00d4f'
p2070
sg107
S'45e2656057aa7ae05352521a50db9d19'
p2071
sg109
(lp2072
g2028
ag2035
ag2042
ag2049
ag253
asg111
Nsba(ibclass
BBasicBlock
p2073
(dp2074
g12
Nsg13
(lp2075
(ibclass
BInstr
p2076
(dp2077
g2
Nsg17
S'B               loc_FFFFFFC00079D908'
p2078
sg19
S'06000014'
p2079
sg21
Vb #0x18
p2080
sg5
L18446743798839630064L
sg6
Nsg23
g253
sg25
S'0xffffffc00079d8f0L'
p2081
sg27
Nsbasg84
(lp2082
S'B func'
p2083
asg95
Nsg5
S'0xffffffc00079d8f0L'
p2084
sg97
(lp2085
S'0xffffffc00079d8dcL'
p2086
asg6
Nsg99
(lp2087
S'0xffffffc00079d908L'
p2088
asg103
Nsg104
Nsg105
S'9d5ed678fe57bcca610140957afab571'
p2089
sg107
S'071b057c420e304c628380fd3541c021'
p2090
sg109
(lp2091
g253
asg111
Nsba(ibclass
BBasicBlock
p2092
(dp2093
g12
Nsg13
(lp2094
(ibclass
BInstr
p2095
(dp2096
g2
Nsg17
S'LDR             X0, [X19,#0x70]'
p2097
sg19
S'603a40f9'
p2098
sg21
Vldr x0, [x19, #0x70]
p2099
sg5
L18446743798839630068L
sg6
Nsg23
S'LDR'
p2100
sg25
S'0xffffffc00079d8f4L'
p2101
sg27
Nsba(ibclass
BInstr
p2102
(dp2103
g2
Nsg17
S'MOV             W1, #1'
p2104
sg19
S'21008052'
p2105
sg21
Vmovz w1, #0x1
p2106
sg5
L18446743798839630072L
sg6
Nsg23
S'MOV'
p2107
sg25
S'0xffffffc00079d8f8L'
p2108
sg27
Nsba(ibclass
BInstr
p2109
(dp2110
g2
Nsg17
S'BLR             X2'
p2111
sg19
S'40003fd6'
p2112
sg21
Vblr x2
p2113
sg5
L18446743798839630076L
sg6
Nsg23
S'BLR'
p2114
sg25
S'0xffffffc00079d8fcL'
p2115
sg27
Nsba(ibclass
BInstr
p2116
(dp2117
g2
Nsg17
S'CBNZ            W0, loc_FFFFFFC00079D9E0'
p2118
sg19
S'00070035'
p2119
sg21
Vcbnz w0, #0xe0
p2120
sg5
L18446743798839630080L
sg6
Nsg23
S'CBNZ'
p2121
sg25
S'0xffffffc00079d900L'
p2122
sg27
Nsbasg84
(lp2123
S'LDR reg, mem'
p2124
aS'MOV reg, #1'
p2125
aS'BLR reg'
p2126
aS'CBNZ reg, func'
p2127
asg95
Nsg5
S'0xffffffc00079d8f4L'
p2128
sg97
(lp2129
S'0xffffffc00079d8ccL'
p2130
asg6
Nsg99
(lp2131
S'0xffffffc00079d904L'
p2132
aS'0xffffffc00079d9e0L'
p2133
asg103
Nsg104
Nsg105
S'af069c94d58d2c407ae51beb85dec758'
p2134
sg107
S'75c600712f80b15180ccc95001845f28'
p2135
sg109
(lp2136
g2100
ag2107
ag2114
ag2121
asg111
Nsba(ibclass
BBasicBlock
p2137
(dp2138
g12
Nsg13
(lp2139
(ibclass
BInstr
p2140
(dp2141
g2
Nsg17
S'B               loc_FFFFFFC00079D8DC'
p2142
sg19
S'f6ffff17'
p2143
sg21
Vb #0xffffffffffffffd8
p2144
sg5
L18446743798839630084L
sg6
Nsg23
g253
sg25
S'0xffffffc00079d904L'
p2145
sg27
Nsbasg84
(lp2146
S'B func'
p2147
asg95
Nsg5
S'0xffffffc00079d904L'
p2148
sg97
(lp2149
S'0xffffffc00079d8f4L'
p2150
asg6
Nsg99
(lp2151
S'0xffffffc00079d8dcL'
p2152
asg103
Nsg104
Nsg105
S'9d5ed678fe57bcca610140957afab571'
p2153
sg107
S'071b057c420e304c628380fd3541c021'
p2154
sg109
(lp2155
g253
asg111
Nsba(ibclass
BBasicBlock
p2156
(dp2157
g12
Nsg13
(lp2158
(ibclass
BInstr
p2159
(dp2160
g2
Nsg17
S'LDR             X2, [X22,#0xA0]'
p2161
sg19
S'c25240f9'
p2162
sg21
Vldr x2, [x22, #0xa0]
p2163
sg5
L18446743798839630088L
sg6
Nsg23
S'LDR'
p2164
sg25
S'0xffffffc00079d908L'
p2165
sg27
Nsba(ibclass
BInstr
p2166
(dp2167
g2
Nsg17
S'CBZ             X2, loc_FFFFFFC00079D864'
p2168
sg19
S'c2faffb4'
p2169
sg21
Vcbz x2, #0xffffffffffffff58
p2170
sg5
L18446743798839630092L
sg6
Nsg23
S'CBZ'
p2171
sg25
S'0xffffffc00079d90cL'
p2172
sg27
Nsbasg84
(lp2173
S'LDR reg, mem'
p2174
aS'CBZ reg, func'
p2175
asg95
Nsg5
S'0xffffffc00079d908L'
p2176
sg97
(lp2177
S'0xffffffc00079d8f0L'
p2178
asg6
Nsg99
(lp2179
S'0xffffffc00079d864L'
p2180
aS'0xffffffc00079d910L'
p2181
asg103
Nsg104
Nsg105
S'a0c488049ab653dbdfa1dc805bb83f13'
p2182
sg107
S'33abe016da9abbebb8608f035d51762d'
p2183
sg109
(lp2184
g2164
ag2171
asg111
Nsba(ibclass
BBasicBlock
p2185
(dp2186
g12
Nsg13
(lp2187
(ibclass
BInstr
p2188
(dp2189
g2
Nsg17
S'LDR             X0, [X19,#0x70]'
p2190
sg19
S'603a40f9'
p2191
sg21
Vldr x0, [x19, #0x70]
p2192
sg5
L18446743798839630096L
sg6
Nsg23
S'LDR'
p2193
sg25
S'0xffffffc00079d910L'
p2194
sg27
Nsba(ibclass
BInstr
p2195
(dp2196
g2
Nsg17
S'B               loc_FFFFFFC00079D9DC'
p2197
sg19
S'32000014'
p2198
sg21
Vb #0xc8
p2199
sg5
L18446743798839630100L
sg6
Nsg23
g253
sg25
S'0xffffffc00079d914L'
p2200
sg27
Nsbasg84
(lp2201
S'LDR reg, mem'
p2202
aS'B func'
p2203
asg95
Nsg5
S'0xffffffc00079d910L'
p2204
sg97
(lp2205
S'0xffffffc00079d908L'
p2206
asg6
Nsg99
(lp2207
S'0xffffffc00079d9dcL'
p2208
asg103
Nsg104
Nsg105
S'd269f92813b7f9be0535ea2960d9947c'
p2209
sg107
S'ae729ca63de59cc36787fc83d808cb9e'
p2210
sg109
(lp2211
g2193
ag253
asg111
Nsba(ibclass
BBasicBlock
p2212
(dp2213
g12
Nsg13
(lp2214
(ibclass
BInstr
p2215
(dp2216
g2
Nsg17
S'MOV             X0, X19'
p2217
sg19
S'e00313aa'
p2218
sg21
Vmov x0, x19
p2219
sg5
L18446743798839630104L
sg6
Nsg23
S'MOV'
p2220
sg25
S'0xffffffc00079d918L'
p2221
sg27
Nsba(ibclass
BInstr
p2222
(dp2223
g2
Nsg17
S'BL              msm_comm_flush_pending_dynamic_buffers'
p2224
sg19
S'fcfeff97'
p2225
sg21
Vbl #0xfffffffffffffbf0
p2226
sg5
L18446743798839630108L
sg6
Nsg23
S'BL'
p2227
sg25
S'0xffffffc00079d91cL'
p2228
sg27
Nsba(ibclass
BInstr
p2229
(dp2230
g2
Nsg17
S'MOV             X0, X23'
p2231
sg19
S'e00317aa'
p2232
sg21
Vmov x0, x23
p2233
sg5
L18446743798839630112L
sg6
Nsg23
S'MOV'
p2234
sg25
S'0xffffffc00079d920L'
p2235
sg27
Nsba(ibclass
BInstr
p2236
(dp2237
g2
Nsg17
S'BL              mutex_lock'
p2238
sg19
S'b2781a94'
p2239
sg21
Vbl #0x69e2c8
p2240
sg5
L18446743798839630116L
sg6
Nsg23
S'BL'
p2241
sg25
S'0xffffffc00079d924L'
p2242
sg27
Nsba(ibclass
BInstr
p2243
(dp2244
g2
Nsg17
S'LDR             X20, [X19,#0x708]'
p2245
sg19
S'748643f9'
p2246
sg21
Vldr x20, [x19, #0x708]
p2247
sg5
L18446743798839630120L
sg6
Nsg23
S'LDR'
p2248
sg25
S'0xffffffc00079d928L'
p2249
sg27
Nsba(ibclass
BInstr
p2250
(dp2251
g2
Nsg17
S'ADD             X27, X19, #0x6E0'
p2252
sg19
S'7b821b91'
p2253
sg21
Vadd x27, x19, #0x6e0
p2254
sg5
L18446743798839630124L
sg6
Nsg23
S'ADD'
p2255
sg25
S'0xffffffc00079d92cL'
p2256
sg27
Nsba(ibclass
BInstr
p2257
(dp2258
g2
Nsg17
S'LDR             X24, [X20]'
p2259
sg19
S'980240f9'
p2260
sg21
Vldr x24, [x20]
p2261
sg5
L18446743798839630128L
sg6
Nsg23
S'LDR'
p2262
sg25
S'0xffffffc00079d930L'
p2263
sg27
Nsba(ibclass
BInstr
p2264
(dp2265
g2
Nsg17
S'ADD             X28, X19, #0x3B0'
p2266
sg19
S'7cc20e91'
p2267
sg21
Vadd x28, x19, #0x3b0
p2268
sg5
L18446743798839630132L
sg6
Nsg23
S'ADD'
p2269
sg25
S'0xffffffc00079d934L'
p2270
sg27
Nsbasg84
(lp2271
S'MOV reg, reg9'
p2272
aS'BL msm_comm_flush_pending_dynamic_buffers'
p2273
aS'MOV reg, reg3'
p2274
aS'BL mutex_lock'
p2275
aS'LDR reg0, mem'
p2276
aS'ADD reg7, reg9, #0x6E0'
p2277
aS'LDR reg4, mem'
p2278
aS'ADD reg8, reg9, #0x3B0'
p2279
asg95
Nsg5
S'0xffffffc00079d918L'
p2280
sg97
(lp2281
S'0xffffffc00079d86cL'
p2282
aS'0xffffffc00079d87cL'
p2283
aS'0xffffffc00079d880L'
p2284
asg6
Nsg99
(lp2285
S'0xffffffc00079d938L'
p2286
asg103
Nsg104
Nsg105
S'd89ea4097bb71d9e5d1f1b813efaaeba'
p2287
sg107
S'4e389dadec21186322c8943235789629'
p2288
sg109
(lp2289
g2220
ag2227
ag2234
ag2241
ag2248
ag2255
ag2262
ag2269
asg111
Nsba(ibclass
BBasicBlock
p2290
(dp2291
g12
Nsg13
(lp2292
(ibclass
BInstr
p2293
(dp2294
g2
Nsg17
S'CMP             X20, X25'
p2295
sg19
S'9f0219eb'
p2296
sg21
Vcmp x20, x25
p2297
sg5
L18446743798839630136L
sg6
Nsg23
S'CMP'
p2298
sg25
S'0xffffffc00079d938L'
p2299
sg27
Nsba(ibclass
BInstr
p2300
(dp2301
g2
Nsg17
S'B.EQ            loc_FFFFFFC00079D9AC'
p2302
sg19
S'80030054'
p2303
sg21
Vb.eq #0x70
p2304
sg5
L18446743798839630140L
sg6
Nsg23
g253
sg25
S'0xffffffc00079d93cL'
p2305
sg27
Nsbasg84
(lp2306
S'CMP reg0, reg5'
p2307
aS'B.EQ func'
p2308
asg95
Nsg5
S'0xffffffc00079d938L'
p2309
sg97
(lp2310
S'0xffffffc00079d918L'
p2311
aS'0xffffffc00079d940L'
p2312
asg6
Nsg99
(lp2313
S'0xffffffc00079d940L'
p2314
aS'0xffffffc00079d9acL'
p2315
asg103
Nsg104
Nsg105
S'c78fd620a449e3c979d3f3ec12d4ee88'
p2316
sg107
S'b6972d61064e9720485fe01c1cc5b82f'
p2317
sg109
(lp2318
g2298
ag253
asg111
Nsba(ibclass
BBasicBlock
p2319
(dp2320
g12
Nsg13
(lp2321
(ibclass
BInstr
p2322
(dp2323
g2
Nsg17
S'LDR             X0, [X20,#0x10]'
p2324
sg19
S'800a40f9'
p2325
sg21
Vldr x0, [x20, #0x10]
p2326
sg5
L18446743798839630144L
sg6
Nsg23
S'LDR'
p2327
sg25
S'0xffffffc00079d940L'
p2328
sg27
Nsba(ibclass
BInstr
p2329
(dp2330
g2
Nsg17
S'LDR             W1, [X0,#4]'
p2331
sg19
S'010440b9'
p2332
sg21
Vldr w1, [x0, #4]
p2333
sg5
L18446743798839630148L
sg6
Nsg23
S'LDR'
p2334
sg25
S'0xffffffc00079d944L'
p2335
sg27
Nsba(ibclass
BInstr
p2336
(dp2337
g2
Nsg17
S'STR             WZR, [X0,#0x58]'
p2338
sg19
S'1f5800b9'
p2339
sg21
Vstr wzr, [x0, #0x58]
p2340
sg5
L18446743798839630152L
sg6
Nsg23
S'STR'
p2341
sg25
S'0xffffffc00079d948L'
p2342
sg27
Nsba(ibclass
BInstr
p2343
(dp2344
g2
Nsg17
S'CMP             W1, #9'
p2345
sg19
S'3f240071'
p2346
sg21
Vcmp w1, #9
p2347
sg5
L18446743798839630156L
sg6
Nsg23
S'CMP'
p2348
sg25
S'0xffffffc00079d94cL'
p2349
sg27
Nsba(ibclass
BInstr
p2350
(dp2351
g2
Nsg17
S'CSEL            X26, X28, X27, NE'
p2352
sg19
S'9a139b9a'
p2353
sg21
Vcsel x26, x28, x27, ne
p2354
sg5
L18446743798839630160L
sg6
Nsg23
S'CSEL'
p2355
sg25
S'0xffffffc00079d950L'
p2356
sg27
Nsba(ibclass
BInstr
p2357
(dp2358
g2
Nsg17
S'MOV             X0, X26'
p2359
sg19
S'e0031aaa'
p2360
sg21
Vmov x0, x26
p2361
sg5
L18446743798839630164L
sg6
Nsg23
S'MOV'
p2362
sg25
S'0xffffffc00079d954L'
p2363
sg27
Nsba(ibclass
BInstr
p2364
(dp2365
g2
Nsg17
S'BL              mutex_lock'
p2366
sg19
S'a5781a94'
p2367
sg21
Vbl #0x69e294
p2368
sg5
L18446743798839630168L
sg6
Nsg23
S'BL'
p2369
sg25
S'0xffffffc00079d958L'
p2370
sg27
Nsba(ibclass
BInstr
p2371
(dp2372
g2
Nsg17
S'LDR             X0, [X20,#0x10]'
p2373
sg19
S'800a40f9'
p2374
sg21
Vldr x0, [x20, #0x10]
p2375
sg5
L18446743798839630172L
sg6
Nsg23
S'LDR'
p2376
sg25
S'0xffffffc00079d95cL'
p2377
sg27
Nsba(ibclass
BInstr
p2378
(dp2379
g2
Nsg17
S'MOV             W1, #4'
p2380
sg19
S'81008052'
p2381
sg21
Vmovz w1, #0x4
p2382
sg5
L18446743798839630176L
sg6
Nsg23
S'MOV'
p2383
sg25
S'0xffffffc00079d960L'
p2384
sg27
Nsba(ibclass
BInstr
p2385
(dp2386
g2
Nsg17
S'BL              vb2_buffer_done'
p2387
sg19
S'5edaff97'
p2388
sg21
Vbl #0xffffffffffff6978
p2389
sg5
L18446743798839630180L
sg6
Nsg23
S'BL'
p2390
sg25
S'0xffffffc00079d964L'
p2391
sg27
Nsba(ibclass
BInstr
p2392
(dp2393
g2
Nsg17
S'MOV             X0, X26'
p2394
sg19
S'e0031aaa'
p2395
sg21
Vmov x0, x26
p2396
sg5
L18446743798839630184L
sg6
Nsg23
S'MOV'
p2397
sg25
S'0xffffffc00079d968L'
p2398
sg27
Nsba(ibclass
BInstr
p2399
(dp2400
g2
Nsg17
S'BL              mutex_unlock'
p2401
sg19
S'e3771a94'
p2402
sg21
Vbl #0x69df8c
p2403
sg5
L18446743798839630188L
sg6
Nsg23
S'BL'
p2404
sg25
S'0xffffffc00079d96cL'
p2405
sg27
Nsba(ibclass
BInstr
p2406
(dp2407
g2
Nsg17
S'LDR             X0, [X20,#8]'
p2408
sg19
S'800640f9'
p2409
sg21
Vldr x0, [x20, #8]
p2410
sg5
L18446743798839630192L
sg6
Nsg23
S'LDR'
p2411
sg25
S'0xffffffc00079d970L'
p2412
sg27
Nsba(ibclass
BInstr
p2413
(dp2414
g2
Nsg17
S'LDR             X1, [X20]'
p2415
sg19
S'810240f9'
p2416
sg21
Vldr x1, [x20]
p2417
sg5
L18446743798839630196L
sg6
Nsg23
S'LDR'
p2418
sg25
S'0xffffffc00079d974L'
p2419
sg27
Nsba(ibclass
BInstr
p2420
(dp2421
g2
Nsg17
S'STR             X0, [X1,#8]'
p2422
sg19
S'200400f9'
p2423
sg21
Vstr x0, [x1, #8]
p2424
sg5
L18446743798839630200L
sg6
Nsg23
S'STR'
p2425
sg25
S'0xffffffc00079d978L'
p2426
sg27
Nsba(ibclass
BInstr
p2427
(dp2428
g2
Nsg17
S'STR             X1, [X0]'
p2429
sg19
S'010000f9'
p2430
sg21
Vstr x1, [x0]
p2431
sg5
L18446743798839630204L
sg6
Nsg23
S'STR'
p2432
sg25
S'0xffffffc00079d97cL'
p2433
sg27
Nsba(ibclass
BInstr
p2434
(dp2435
g2
Nsg17
S'MOV             X0, #0x100'
p2436
sg19
S'002080d2'
p2437
sg21
Vmovz x0, #0x100
p2438
sg5
L18446743798839630208L
sg6
Nsg23
S'MOV'
p2439
sg25
S'0xffffffc00079d980L'
p2440
sg27
Nsba(ibclass
BInstr
p2441
(dp2442
g2
Nsg17
S'MOVK            X0, #0xDEAD,LSL#48'
p2443
sg19
S'a0d5fbf2'
p2444
sg21
Vmovk x0, #0xdead, lsl #48
p2445
sg5
L18446743798839630212L
sg6
Nsg23
S'MOVK'
p2446
sg25
S'0xffffffc00079d984L'
p2447
sg27
Nsba(ibclass
BInstr
p2448
(dp2449
g2
Nsg17
S'STR             X0, [X20]'
p2450
sg19
S'800200f9'
p2451
sg21
Vstr x0, [x20]
p2452
sg5
L18446743798839630216L
sg6
Nsg23
S'STR'
p2453
sg25
S'0xffffffc00079d988L'
p2454
sg27
Nsba(ibclass
BInstr
p2455
(dp2456
g2
Nsg17
S'MOV             X0, #0x200'
p2457
sg19
S'004080d2'
p2458
sg21
Vmovz x0, #0x200
p2459
sg5
L18446743798839630220L
sg6
Nsg23
S'MOV'
p2460
sg25
S'0xffffffc00079d98cL'
p2461
sg27
Nsba(ibclass
BInstr
p2462
(dp2463
g2
Nsg17
S'MOVK            X0, #0xDEAD,LSL#48'
p2464
sg19
S'a0d5fbf2'
p2465
sg21
Vmovk x0, #0xdead, lsl #48
p2466
sg5
L18446743798839630224L
sg6
Nsg23
S'MOVK'
p2467
sg25
S'0xffffffc00079d990L'
p2468
sg27
Nsba(ibclass
BInstr
p2469
(dp2470
g2
Nsg17
S'STR             X0, [X20,#8]'
p2471
sg19
S'800600f9'
p2472
sg21
Vstr x0, [x20, #8]
p2473
sg5
L18446743798839630228L
sg6
Nsg23
S'STR'
p2474
sg25
S'0xffffffc00079d994L'
p2475
sg27
Nsba(ibclass
BInstr
p2476
(dp2477
g2
Nsg17
S'MOV             X0, X20'
p2478
sg19
S'e00314aa'
p2479
sg21
Vmov x0, x20
p2480
sg5
L18446743798839630232L
sg6
Nsg23
S'MOV'
p2481
sg25
S'0xffffffc00079d998L'
p2482
sg27
Nsba(ibclass
BInstr
p2483
(dp2484
g2
Nsg17
S'BL              kfree'
p2485
sg19
S'554ded97'
p2486
sg21
Vbl #0xffffffffffb53554
p2487
sg5
L18446743798839630236L
sg6
Nsg23
S'BL'
p2488
sg25
S'0xffffffc00079d99cL'
p2489
sg27
Nsba(ibclass
BInstr
p2490
(dp2491
g2
Nsg17
S'MOV             X20, X24'
p2492
sg19
S'f40318aa'
p2493
sg21
Vmov x20, x24
p2494
sg5
L18446743798839630240L
sg6
Nsg23
S'MOV'
p2495
sg25
S'0xffffffc00079d9a0L'
p2496
sg27
Nsba(ibclass
BInstr
p2497
(dp2498
g2
Nsg17
S'LDR             X24, [X24]'
p2499
sg19
S'180340f9'
p2500
sg21
Vldr x24, [x24]
p2501
sg5
L18446743798839630244L
sg6
Nsg23
S'LDR'
p2502
sg25
S'0xffffffc00079d9a4L'
p2503
sg27
Nsba(ibclass
BInstr
p2504
(dp2505
g2
Nsg17
S'B               loc_FFFFFFC00079D938'
p2506
sg19
S'e4ffff17'
p2507
sg21
Vb #0xffffffffffffff90
p2508
sg5
L18446743798839630248L
sg6
Nsg23
g253
sg25
S'0xffffffc00079d9a8L'
p2509
sg27
Nsbasg84
(lp2510
S'LDR reg, mem'
p2511
aS'LDR reg, mem'
p2512
aS'STR WZR, mem'
p2513
aS'CMP reg, #9'
p2514
aS'CSEL reg6, reg8, reg7, NE'
p2515
aS'MOV reg, reg6'
p2516
aS'BL mutex_lock'
p2517
aS'LDR reg, mem'
p2518
aS'MOV reg, #4'
p2519
aS'BL vb2_buffer_done'
p2520
aS'MOV reg, reg6'
p2521
aS'BL mutex_unlock'
p2522
aS'LDR reg, mem'
p2523
aS'LDR reg, mem'
p2524
aS'STR reg, mem'
p2525
aS'STR reg, mem'
p2526
aS'MOV reg, #0x100'
p2527
aS'MOVK reg, #0xDEAD,LSL#48'
p2528
aS'STR reg, mem'
p2529
aS'MOV reg, #0x200'
p2530
aS'MOVK reg, #0xDEAD,LSL#48'
p2531
aS'STR reg, mem'
p2532
aS'MOV reg, reg0'
p2533
aS'BL kfree'
p2534
aS'MOV reg0, reg4'
p2535
aS'LDR reg4, mem'
p2536
aS'B func'
p2537
asg95
Nsg5
S'0xffffffc00079d940L'
p2538
sg97
(lp2539
S'0xffffffc00079d938L'
p2540
asg6
Nsg99
(lp2541
S'0xffffffc00079d938L'
p2542
asg103
Nsg104
Nsg105
S'b9c6eca4f83c20f9647d40923bce6e0f'
p2543
sg107
S'2f92a598e804dfb0f2192c2602bd4a0e'
p2544
sg109
(lp2545
g2327
ag2334
ag2341
ag2348
ag2355
ag2362
ag2369
ag2376
ag2383
ag2390
ag2397
ag2404
ag2411
ag2418
ag2425
ag2432
ag2439
ag2446
ag2453
ag2460
ag2467
ag2474
ag2481
ag2488
ag2495
ag2502
ag253
asg111
Nsba(ibclass
BBasicBlock
p2546
(dp2547
g12
Nsg13
(lp2548
(ibclass
BInstr
p2549
(dp2550
g2
Nsg17
S'MOV             X0, X23'
p2551
sg19
S'e00317aa'
p2552
sg21
Vmov x0, x23
p2553
sg5
L18446743798839630252L
sg6
Nsg23
S'MOV'
p2554
sg25
S'0xffffffc00079d9acL'
p2555
sg27
Nsba(ibclass
BInstr
p2556
(dp2557
g2
Nsg17
S'BL              mutex_unlock'
p2558
sg19
S'd2771a94'
p2559
sg21
Vbl #0x69df48
p2560
sg5
L18446743798839630256L
sg6
Nsg23
S'BL'
p2561
sg25
S'0xffffffc00079d9b0L'
p2562
sg27
Nsba(ibclass
BInstr
p2563
(dp2564
g2
Nsg17
S'LDR             W0, [X19,#0x90]'
p2565
sg19
S'609240b9'
p2566
sg21
Vldr w0, [x19, #0x90]
p2567
sg5
L18446743798839630260L
sg6
Nsg23
S'LDR'
p2568
sg25
S'0xffffffc00079d9b4L'
p2569
sg27
Nsba(ibclass
BInstr
p2570
(dp2571
g2
Nsg17
S'CMP             W0, #0x11'
p2572
sg19
S'1f440071'
p2573
sg21
Vcmp w0, #0x11
p2574
sg5
L18446743798839630264L
sg6
Nsg23
S'CMP'
p2575
sg25
S'0xffffffc00079d9b8L'
p2576
sg27
Nsba(ibclass
BInstr
p2577
(dp2578
g2
Nsg17
S'B.NE            loc_FFFFFFC00079D9CC'
p2579
sg19
S'81000054'
p2580
sg21
Vb.ne #0x10
p2581
sg5
L18446743798839630268L
sg6
Nsg23
g253
sg25
S'0xffffffc00079d9bcL'
p2582
sg27
Nsbasg84
(lp2583
S'MOV reg, reg3'
p2584
aS'BL mutex_unlock'
p2585
aS'LDR reg, mem'
p2586
aS'CMP reg, #0x11'
p2587
aS'B.NE func'
p2588
asg95
Nsg5
S'0xffffffc00079d9acL'
p2589
sg97
(lp2590
S'0xffffffc00079d938L'
p2591
asg6
Nsg99
(lp2592
S'0xffffffc00079d9c0L'
p2593
aS'0xffffffc00079d9ccL'
p2594
asg103
Nsg104
Nsg105
S'4b424ec4ae6fc4f34f58b51fd1c10108'
p2595
sg107
S'2789d408ee43445ab73b673d8c9b53e3'
p2596
sg109
(lp2597
g2554
ag2561
ag2568
ag2575
ag253
asg111
Nsba(ibclass
BBasicBlock
p2598
(dp2599
g12
Nsg13
(lp2600
(ibclass
BInstr
p2601
(dp2602
g2
Nsg17
S'LDR             W0, [X21,#0x910]'
p2603
sg19
S'a01249b9'
p2604
sg21
Vldr w0, [x21, #0x910]
p2605
sg5
L18446743798839630272L
sg6
Nsg23
S'LDR'
p2606
sg25
S'0xffffffc00079d9c0L'
p2607
sg27
Nsba(ibclass
BInstr
p2608
(dp2609
g2
Nsg17
S'CMP             W0, #4'
p2610
sg19
S'1f100071'
p2611
sg21
Vcmp w0, #4
p2612
sg5
L18446743798839630276L
sg6
Nsg23
S'CMP'
p2613
sg25
S'0xffffffc00079d9c4L'
p2614
sg27
Nsba(ibclass
BInstr
p2615
(dp2616
g2
Nsg17
S'B.NE            loc_FFFFFFC00079D864'
p2617
sg19
S'e1f4ff54'
p2618
sg21
Vb.ne #0xfffffffffffffe9c
p2619
sg5
L18446743798839630280L
sg6
Nsg23
g253
sg25
S'0xffffffc00079d9c8L'
p2620
sg27
Nsbasg84
(lp2621
S'LDR reg, mem'
p2622
aS'CMP reg, #4'
p2623
aS'B.NE func'
p2624
asg95
Nsg5
S'0xffffffc00079d9c0L'
p2625
sg97
(lp2626
S'0xffffffc00079d9acL'
p2627
asg6
Nsg99
(lp2628
S'0xffffffc00079d864L'
p2629
aS'0xffffffc00079d9ccL'
p2630
asg103
Nsg104
Nsg105
S'fa4df767a85c49648339e2dc5c6807f6'
p2631
sg107
S'c6de610e6fa451c4f6142072e6b82f0e'
p2632
sg109
(lp2633
g2606
ag2613
ag253
asg111
Nsba(ibclass
BBasicBlock
p2634
(dp2635
g12
Nsg13
(lp2636
(ibclass
BInstr
p2637
(dp2638
g2
Nsg17
S'LDR             X2, [X22,#0xA0]'
p2639
sg19
S'c25240f9'
p2640
sg21
Vldr x2, [x22, #0xa0]
p2641
sg5
L18446743798839630284L
sg6
Nsg23
S'LDR'
p2642
sg25
S'0xffffffc00079d9ccL'
p2643
sg27
Nsba(ibclass
BInstr
p2644
(dp2645
g2
Nsg17
S'CBZ             X2, loc_FFFFFFC00079D864'
p2646
sg19
S'a2f4ffb4'
p2647
sg21
Vcbz x2, #0xfffffffffffffe94
p2648
sg5
L18446743798839630288L
sg6
Nsg23
S'CBZ'
p2649
sg25
S'0xffffffc00079d9d0L'
p2650
sg27
Nsbasg84
(lp2651
S'LDR reg, mem'
p2652
aS'CBZ reg, func'
p2653
asg95
Nsg5
S'0xffffffc00079d9ccL'
p2654
sg97
(lp2655
S'0xffffffc00079d9acL'
p2656
aS'0xffffffc00079d9c0L'
p2657
asg6
Nsg99
(lp2658
S'0xffffffc00079d864L'
p2659
aS'0xffffffc00079d9d4L'
p2660
asg103
Nsg104
Nsg105
S'a0c488049ab653dbdfa1dc805bb83f13'
p2661
sg107
S'33abe016da9abbebb8608f035d51762d'
p2662
sg109
(lp2663
g2642
ag2649
asg111
Nsba(ibclass
BBasicBlock
p2664
(dp2665
g12
Nsg13
(lp2666
(ibclass
BInstr
p2667
(dp2668
g2
Nsg17
S'LDR             X0, [X19,#0x70]'
p2669
sg19
S'603a40f9'
p2670
sg21
Vldr x0, [x19, #0x70]
p2671
sg5
L18446743798839630292L
sg6
Nsg23
S'LDR'
p2672
sg25
S'0xffffffc00079d9d4L'
p2673
sg27
Nsba(ibclass
BInstr
p2674
(dp2675
g2
Nsg17
S'MOV             W1, #3'
p2676
sg19
S'61008052'
p2677
sg21
Vmovz w1, #0x3
p2678
sg5
L18446743798839630296L
sg6
Nsg23
S'MOV'
p2679
sg25
S'0xffffffc00079d9d8L'
p2680
sg27
Nsbasg84
(lp2681
S'LDR reg, mem'
p2682
aS'MOV reg, #3'
p2683
asg95
Nsg5
S'0xffffffc00079d9d4L'
p2684
sg97
(lp2685
S'0xffffffc00079d9ccL'
p2686
asg6
Nsg99
(lp2687
S'0xffffffc00079d9dcL'
p2688
asg103
Nsg104
Nsg105
S'1af8b40d3e561e49b645fac902e584fd'
p2689
sg107
S'e533b9776310a2f7afbff63a21e11ed1'
p2690
sg109
(lp2691
g2672
ag2679
asg111
Nsba(ibclass
BBasicBlock
p2692
(dp2693
g12
Nsg13
(lp2694
(ibclass
BInstr
p2695
(dp2696
g2
Nsg17
S'BLR             X2'
p2697
sg19
S'40003fd6'
p2698
sg21
Vblr x2
p2699
sg5
L18446743798839630300L
sg6
Nsg23
S'BLR'
p2700
sg25
S'0xffffffc00079d9dcL'
p2701
sg27
Nsbasg84
(lp2702
S'BLR reg'
p2703
asg95
Nsg5
S'0xffffffc00079d9dcL'
p2704
sg97
(lp2705
S'0xffffffc00079d910L'
p2706
aS'0xffffffc00079d9d4L'
p2707
asg6
Nsg99
(lp2708
S'0xffffffc00079d9e0L'
p2709
asg103
Nsg104
Nsg105
S'c2ebc59aab4d1f9da0af54726eb32782'
p2710
sg107
S'3482f4faa72ae2276fb7b524954b94e2'
p2711
sg109
(lp2712
g2700
asg111
Nsba(ibclass
BBasicBlock
p2713
(dp2714
g12
Nsg13
(lp2715
(ibclass
BInstr
p2716
(dp2717
g2
Nsg17
S'MOV             W20, W0'
p2718
sg19
S'f403002a'
p2719
sg21
Vmov w20, w0
p2720
sg5
L18446743798839630304L
sg6
Nsg23
S'MOV'
p2721
sg25
S'0xffffffc00079d9e0L'
p2722
sg27
Nsba(ibclass
BInstr
p2723
(dp2724
g2
Nsg17
S'B               loc_FFFFFFC00079D9EC'
p2725
sg19
S'02000014'
p2726
sg21
Vb #8
p2727
sg5
L18446743798839630308L
sg6
Nsg23
g253
sg25
S'0xffffffc00079d9e4L'
p2728
sg27
Nsbasg84
(lp2729
S'MOV reg0, reg'
p2730
aS'B func'
p2731
asg95
Nsg5
S'0xffffffc00079d9e0L'
p2732
sg97
(lp2733
S'0xffffffc00079d8f4L'
p2734
aS'0xffffffc00079d9dcL'
p2735
asg6
Nsg99
(lp2736
S'0xffffffc00079d9ecL'
p2737
asg103
Nsg104
Nsg105
S'b6c4e95ccfe77a95e4cf2019dd3d5574'
p2738
sg107
S'616624b7384dcfe6d97dc2ee50dbf851'
p2739
sg109
(lp2740
g2721
ag253
asg111
Nsba(ibclass
BBasicBlock
p2741
(dp2742
g12
Nsg13
(lp2743
(ibclass
BInstr
p2744
(dp2745
g2
Nsg17
S'MOV             W20, #0xFFFFFFEA'
p2746
sg19
S'b4028012'
p2747
sg21
Vmovn w20, #0x15
p2748
sg5
L18446743798839630312L
sg6
Nsg23
S'MOV'
p2749
sg25
S'0xffffffc00079d9e8L'
p2750
sg27
Nsbasg84
(lp2751
S'MOV reg0, #0xFFFFFFEA'
p2752
asg95
Nsg5
S'0xffffffc00079d9e8L'
p2753
sg97
(lp2754
S'0xffffffc00079d624L'
p2755
aS'0xffffffc00079d668L'
p2756
aS'0xffffffc00079d6acL'
p2757
asg6
Nsg99
(lp2758
S'0xffffffc00079d9ecL'
p2759
asg103
Nsg104
Nsg105
S'17b32100aef1fc19670be7fd58bc85df'
p2760
sg107
S'df9685dff01bfe08ae98ed966d387ffe'
p2761
sg109
(lp2762
g2749
asg111
Nsba(ibclass
BBasicBlock
p2763
(dp2764
g12
Nsg13
(lp2765
(ibclass
BInstr
p2766
(dp2767
g2
Nsg17
S'MOV             W0, W20'
p2768
sg19
S'e003142a'
p2769
sg21
Vmov w0, w20
p2770
sg5
L18446743798839630316L
sg6
Nsg23
S'MOV'
p2771
sg25
S'0xffffffc00079d9ecL'
p2772
sg27
Nsba(ibclass
BInstr
p2773
(dp2774
g2
Nsg17
S'LDP             X21, X22, [SP,#0x70+var_50]'
p2775
sg19
S'f55b42a9'
p2776
sg21
Vldp x21, x22, [sp, #0x20]
p2777
sg5
L18446743798839630320L
sg6
Nsg23
S'LDP'
p2778
sg25
S'0xffffffc00079d9f0L'
p2779
sg27
Nsba(ibclass
BInstr
p2780
(dp2781
g2
Nsg17
S'LDP             X19, X20, [SP,#0x70+var_60]'
p2782
sg19
S'f35341a9'
p2783
sg21
Vldp x19, x20, [sp, #0x10]
p2784
sg5
L18446743798839630324L
sg6
Nsg23
S'LDP'
p2785
sg25
S'0xffffffc00079d9f4L'
p2786
sg27
Nsba(ibclass
BInstr
p2787
(dp2788
g2
Nsg17
S'LDP             X23, X24, [SP,#0x70+var_40]'
p2789
sg19
S'f76343a9'
p2790
sg21
Vldp x23, x24, [sp, #0x30]
p2791
sg5
L18446743798839630328L
sg6
Nsg23
S'LDP'
p2792
sg25
S'0xffffffc00079d9f8L'
p2793
sg27
Nsba(ibclass
BInstr
p2794
(dp2795
g2
Nsg17
S'LDP             X25, X26, [SP,#0x70+var_30]'
p2796
sg19
S'f96b44a9'
p2797
sg21
Vldp x25, x26, [sp, #0x40]
p2798
sg5
L18446743798839630332L
sg6
Nsg23
S'LDP'
p2799
sg25
S'0xffffffc00079d9fcL'
p2800
sg27
Nsba(ibclass
BInstr
p2801
(dp2802
g2
Nsg17
S'LDP             X27, X28, [SP,#0x70+var_20]'
p2803
sg19
S'fb7345a9'
p2804
sg21
Vldp x27, x28, [sp, #0x50]
p2805
sg5
L18446743798839630336L
sg6
Nsg23
S'LDP'
p2806
sg25
S'0xffffffc00079da00L'
p2807
sg27
Nsba(ibclass
BInstr
p2808
(dp2809
g2
Nsg17
S'LDP             X29, X30, [SP+0x70+var_70],#0x80'
p2810
sg19
S'fd7bc8a8'
p2811
sg21
Vldp x29, x30, [sp], #0x80
p2812
sg5
L18446743798839630340L
sg6
Nsg23
S'LDP'
p2813
sg25
S'0xffffffc00079da04L'
p2814
sg27
Nsba(ibclass
BInstr
p2815
(dp2816
g2
Nsg17
S'RET'
p2817
sg19
S'c0035fd6'
p2818
sg21
Vret 
p2819
sg5
L18446743798839630344L
sg6
Nsg23
S'RET'
p2820
sg25
S'0xffffffc00079da08L'
p2821
sg27
Nsbasg84
(lp2822
S'MOV reg, reg0'
p2823
aS'LDP reg1, reg2, mem'
p2824
aS'LDP reg9, reg0, mem'
p2825
aS'LDP reg3, reg4, mem'
p2826
aS'LDP reg5, reg6, mem'
p2827
aS'LDP reg7, reg8, mem'
p2828
aS'LDP reg9, reg0, mem,#0x80'
p2829
ag2817
asg95
Nsg5
S'0xffffffc00079d9ecL'
p2830
sg97
(lp2831
S'0xffffffc00079d634L'
p2832
aS'0xffffffc00079d678L'
p2833
aS'0xffffffc00079d6bcL'
p2834
aS'0xffffffc00079d6e4L'
p2835
aS'0xffffffc00079d71cL'
p2836
aS'0xffffffc00079d864L'
p2837
aS'0xffffffc00079d9e0L'
p2838
aS'0xffffffc00079d9e8L'
p2839
asg6
Nsg99
(lp2840
sg103
Nsg104
Nsg105
S'fb51b4f49e207839e4541c8a63536464'
p2841
sg107
S'3087bf9188199c080fd7f88bc66c1bc4'
p2842
sg109
(lp2843
g2771
ag2778
ag2785
ag2792
ag2799
ag2806
ag2813
ag2820
asg111
Nsbasb.