(ibclass
BFunc
p0
(dp1
S'hash'
p2
NsS'name'
p3
S'msm_isp_release_axi_stream'
p4
sS'start_address'
p5
L18446743798840035232L
sS'flag'
p6
NsS'program'
p7
NsS'bbs'
p8
(lp9
(ibclass
BBasicBlock
p10
(dp11
S'function'
p12
NsS'binstrs'
p13
(lp14
(ibclass
BInstr
p15
(dp16
g2
NsS'disasm'
p17
S'STP             X29, X30, [SP,#-0x10+var_70]!'
p18
sS'bytes'
p19
S'fd7bb8a9'
p20
sS'disasm_striped'
p21
Vstp x29, x30, [sp, #-0x80]!
p22
sg5
L18446743798840035232L
sg6
NsS'mnem'
p23
S'STP'
p24
sS'address'
p25
S'0xffffffc0008007a0L'
p26
sS'basicblock'
p27
Nsba(ibclass
BInstr
p28
(dp29
g2
Nsg17
S'MOV             X29, SP'
p30
sg19
S'fd030091'
p31
sg21
Vmov x29, sp
p32
sg5
L18446743798840035236L
sg6
Nsg23
S'MOV'
p33
sg25
S'0xffffffc0008007a4L'
p34
sg27
Nsba(ibclass
BInstr
p35
(dp36
g2
Nsg17
S'STP             X19, X20, [SP,#0x70+var_60]'
p37
sg19
S'f35301a9'
p38
sg21
Vstp x19, x20, [sp, #0x10]
p39
sg5
L18446743798840035240L
sg6
Nsg23
S'STP'
p40
sg25
S'0xffffffc0008007a8L'
p41
sg27
Nsba(ibclass
BInstr
p42
(dp43
g2
Nsg17
S'STP             X21, X22, [SP,#0x70+var_50]'
p44
sg19
S'f55b02a9'
p45
sg21
Vstp x21, x22, [sp, #0x20]
p46
sg5
L18446743798840035244L
sg6
Nsg23
S'STP'
p47
sg25
S'0xffffffc0008007acL'
p48
sg27
Nsba(ibclass
BInstr
p49
(dp50
g2
Nsg17
S'STP             X23, X24, [SP,#0x70+var_40]'
p51
sg19
S'f76303a9'
p52
sg21
Vstp x23, x24, [sp, #0x30]
p53
sg5
L18446743798840035248L
sg6
Nsg23
S'STP'
p54
sg25
S'0xffffffc0008007b0L'
p55
sg27
Nsba(ibclass
BInstr
p56
(dp57
g2
Nsg17
S'STR             X25, [SP,#0x70+var_30]'
p58
sg19
S'f92300f9'
p59
sg21
Vstr x25, [sp, #0x40]
p60
sg5
L18446743798840035252L
sg6
Nsg23
S'STR'
p61
sg25
S'0xffffffc0008007b4L'
p62
sg27
Nsba(ibclass
BInstr
p63
(dp64
g2
Nsg17
S'MOV             X24, X1'
p65
sg19
S'f80301aa'
p66
sg21
Vmov x24, x1
p67
sg5
L18446743798840035256L
sg6
Nsg23
S'MOV'
p68
sg25
S'0xffffffc0008007b8L'
p69
sg27
Nsba(ibclass
BInstr
p70
(dp71
g2
Nsg17
S'LDR             W1, [X1]'
p72
sg19
S'210040b9'
p73
sg21
Vldr w1, [x1]
p74
sg5
L18446743798840035260L
sg6
Nsg23
S'LDR'
p75
sg25
S'0xffffffc0008007bcL'
p76
sg27
Nsba(ibclass
BInstr
p77
(dp78
g2
Nsg17
S'ADD             X22, X0, #4,LSL#12'
p79
sg19
S'16104091'
p80
sg21
Vadd x22, x0, #4, lsl #12
p81
sg5
L18446743798840035264L
sg6
Nsg23
S'ADD'
p82
sg25
S'0xffffffc0008007c0L'
p83
sg27
Nsba(ibclass
BInstr
p84
(dp85
g2
Nsg17
S'AND             W19, W1, #0xFF'
p86
sg19
S'331c0012'
p87
sg21
Vand w19, w1, #0xff
p88
sg5
L18446743798840035268L
sg6
Nsg23
S'AND'
p89
sg25
S'0xffffffc0008007c4L'
p90
sg27
Nsba(ibclass
BInstr
p91
(dp92
g2
Nsg17
S'CMP             W19, #6'
p93
sg19
S'7f1a0071'
p94
sg21
Vcmp w19, #6
p95
sg5
L18446743798840035272L
sg6
Nsg23
S'CMP'
p96
sg25
S'0xffffffc0008007c8L'
p97
sg27
Nsba(ibclass
BInstr
p98
(dp99
g2
Nsg17
S'MOV             X20, X0'
p100
sg19
S'f40300aa'
p101
sg21
Vmov x20, x0
p102
sg5
L18446743798840035276L
sg6
Nsg23
S'MOV'
p103
sg25
S'0xffffffc0008007ccL'
p104
sg27
Nsba(ibclass
BInstr
p105
(dp106
g2
Nsg17
S'ADD             X22, X22, #0x168'
p107
sg19
S'd6a20591'
p108
sg21
Vadd x22, x22, #0x168
p109
sg5
L18446743798840035280L
sg6
Nsg23
S'ADD'
p110
sg25
S'0xffffffc0008007d0L'
p111
sg27
Nsba(ibclass
BInstr
p112
(dp113
g2
Nsg17
S'B.LS            loc_FFFFFFC0008007E4'
p114
sg19
S'89000054'
p115
sg21
Vb.ls #0x10
p116
sg5
L18446743798840035284L
sg6
Nsg23
S'B'
p117
sg25
S'0xffffffc0008007d4L'
p118
sg27
NsbasS'disasm_list'
p119
(lp120
S'STP reg9, reg0, mem!'
p121
aS'MOV reg9, SP'
p122
aS'STP reg9, reg0, mem'
p123
aS'STP reg1, reg2, mem'
p124
aS'STP reg3, reg4, mem'
p125
aS'STR reg5, mem'
p126
aS'MOV reg4, reg'
p127
aS'LDR reg, mem'
p128
aS'ADD reg2, reg, #4,LSL#12'
p129
aS'AND reg9, reg, #0xFF'
p130
aS'CMP reg9, #6'
p131
aS'MOV reg0, reg'
p132
aS'ADD reg2, reg2, #0x168'
p133
aS'B.LS func'
p134
asS'end_address'
p135
Nsg5
S'0xffffffc0008007a0L'
p136
sS'preds'
p137
(lp138
sg6
NsS'succs'
p139
(lp140
S'0xffffffc0008007d8L'
p141
aS'0xffffffc0008007e4L'
p142
asS'hash_v3'
p143
NsS'flag_v2'
p144
NsS'hash_v1'
p145
S'20b34feb2e8009f323c4723640639836'
p146
sS'hash_v2'
p147
S'f566dee4ec1666da159227ca90e54b3a'
p148
sS'mnen_list'
p149
(lp150
g24
ag33
ag40
ag47
ag54
ag61
ag68
ag75
ag82
ag89
ag96
ag103
ag110
ag117
asS'neighbour_disasm_list'
p151
Nsba(ibclass
BBasicBlock
p152
(dp153
g12
Nsg13
(lp154
(ibclass
BInstr
p155
(dp156
g2
Nsg17
S'ADRP            X0, #unk_FFFFFFC0013CF8B7@PAGE'
p157
sg19
S'605e00f0'
p158
sg21
Vadrp x0, #0xbcf000
p159
sg5
L18446743798840035288L
sg6
Nsg23
S'ADRP'
p160
sg25
S'0xffffffc0008007d8L'
p161
sg27
Nsba(ibclass
BInstr
p162
(dp163
g2
Nsg17
S'ADD             X0, X0, #unk_FFFFFFC0013CF8B7@PAGEOFF'
p164
sg19
S'00dc2291'
p165
sg21
Vadd x0, x0, #0x8b7
p166
sg5
L18446743798840035292L
sg6
Nsg23
S'ADD'
p167
sg25
S'0xffffffc0008007dcL'
p168
sg27
Nsba(ibclass
BInstr
p169
(dp170
g2
Nsg17
S'B               loc_FFFFFFC000800804'
p171
sg19
S'09000014'
p172
sg21
Vb #0x24
p173
sg5
L18446743798840035296L
sg6
Nsg23
g117
sg25
S'0xffffffc0008007e0L'
p174
sg27
Nsbasg119
(lp175
S'ADRP reg, #func@PAGE'
p176
aS'ADD reg, reg, #func@PAGEOFF'
p177
aS'B func'
p178
asg135
Nsg5
S'0xffffffc0008007d8L'
p179
sg137
(lp180
S'0xffffffc0008007a0L'
p181
asg6
Nsg139
(lp182
S'0xffffffc000800804L'
p183
asg143
Nsg144
Nsg145
S'fbb05d8d8f727699d69de49f56b5b4c8'
p184
sg147
S'504e84c4ef9350eb8240fe83ea7f699a'
p185
sg149
(lp186
g160
ag167
ag117
asg151
Nsba(ibclass
BBasicBlock
p187
(dp188
g12
Nsg13
(lp189
(ibclass
BInstr
p190
(dp191
g2
Nsg17
S'MOV             X2, #0x1E0'
p192
sg19
S'023c80d2'
p193
sg21
Vmovz x2, #0x1e0
p194
sg5
L18446743798840035300L
sg6
Nsg23
S'MOV'
p195
sg25
S'0xffffffc0008007e4L'
p196
sg27
Nsba(ibclass
BInstr
p197
(dp198
g2
Nsg17
S'MOV             W19, W19'
p199
sg19
S'f303132a'
p200
sg21
Vmov w19, w19
p201
sg5
L18446743798840035304L
sg6
Nsg23
S'MOV'
p202
sg25
S'0xffffffc0008007e8L'
p203
sg27
Nsba(ibclass
BInstr
p204
(dp205
g2
Nsg17
S'MADD            X19, X19, X2, X22'
p206
sg19
S'735a029b'
p207
sg21
Vmadd x19, x19, x2, x22
p208
sg5
L18446743798840035308L
sg6
Nsg23
S'MADD'
p209
sg25
S'0xffffffc0008007ecL'
p210
sg27
Nsba(ibclass
BInstr
p211
(dp212
g2
Nsg17
S'ADD             X19, X19, #8'
p213
sg19
S'73220091'
p214
sg21
Vadd x19, x19, #8
p215
sg5
L18446743798840035312L
sg6
Nsg23
S'ADD'
p216
sg25
S'0xffffffc0008007f0L'
p217
sg27
Nsba(ibclass
BInstr
p218
(dp219
g2
Nsg17
S'LDR             W2, [X19,#4]'
p220
sg19
S'620640b9'
p221
sg21
Vldr w2, [x19, #4]
p222
sg5
L18446743798840035316L
sg6
Nsg23
S'LDR'
p223
sg25
S'0xffffffc0008007f4L'
p224
sg27
Nsba(ibclass
BInstr
p225
(dp226
g2
Nsg17
S'CBNZ            W2, loc_FFFFFFC00080081C'
p227
sg19
S'22010035'
p228
sg21
Vcbnz w2, #0x24
p229
sg5
L18446743798840035320L
sg6
Nsg23
S'CBNZ'
p230
sg25
S'0xffffffc0008007f8L'
p231
sg27
Nsbasg119
(lp232
S'MOV reg, #0x1E0'
p233
aS'MOV reg9, reg9'
p234
aS'MADD reg9, reg9, reg, reg2'
p235
aS'ADD reg9, reg9, #8'
p236
aS'LDR reg, mem'
p237
aS'CBNZ reg, func'
p238
asg135
Nsg5
S'0xffffffc0008007e4L'
p239
sg137
(lp240
S'0xffffffc0008007a0L'
p241
asg6
Nsg139
(lp242
S'0xffffffc0008007fcL'
p243
aS'0xffffffc00080081cL'
p244
asg143
Nsg144
Nsg145
S'f1feb49be79ef9ad37a08768cb956c89'
p245
sg147
S'8c4c12c2e02bd556f64821d0a0ecd668'
p246
sg149
(lp247
g195
ag202
ag209
ag216
ag223
ag230
asg151
Nsba(ibclass
BBasicBlock
p248
(dp249
g12
Nsg13
(lp250
(ibclass
BInstr
p251
(dp252
g2
Nsg17
S'ADRP            X0, #unk_FFFFFFC0013CF8D4@PAGE'
p253
sg19
S'605e00f0'
p254
sg21
Vadrp x0, #0xbcf000
p255
sg5
L18446743798840035324L
sg6
Nsg23
S'ADRP'
p256
sg25
S'0xffffffc0008007fcL'
p257
sg27
Nsba(ibclass
BInstr
p258
(dp259
g2
Nsg17
S'ADD             X0, X0, #unk_FFFFFFC0013CF8D4@PAGEOFF'
p260
sg19
S'00502391'
p261
sg21
Vadd x0, x0, #0x8d4
p262
sg5
L18446743798840035328L
sg6
Nsg23
S'ADD'
p263
sg25
S'0xffffffc000800800L'
p264
sg27
Nsbasg119
(lp265
S'ADRP reg, #func@PAGE'
p266
aS'ADD reg, reg, #func@PAGEOFF'
p267
asg135
Nsg5
S'0xffffffc0008007fcL'
p268
sg137
(lp269
S'0xffffffc0008007e4L'
p270
asg6
Nsg139
(lp271
S'0xffffffc000800804L'
p272
asg143
Nsg144
Nsg145
S'4c330fd47d9d30794e360f434bcba16f'
p273
sg147
S'5d0c12c1c2f0dc35884d116bfd571de9'
p274
sg149
(lp275
g256
ag263
asg151
Nsba(ibclass
BBasicBlock
p276
(dp277
g12
Nsg13
(lp278
(ibclass
BInstr
p279
(dp280
g2
Nsg17
S'ADRP            X1, #__func__.28408_0@PAGE; "msm_isp_cfg_ping_pong_address"'
p281
sg19
S'614200f0'
p282
sg21
Vadrp x1, #0x84f000
p283
sg5
L18446743798840035332L
sg6
Nsg23
S'ADRP'
p284
sg25
S'0xffffffc000800804L'
p285
sg27
Nsba(ibclass
BInstr
p286
(dp287
g2
Nsg17
S'ADD             X1, X1, #__func__.28408_0@PAGEOFF; "msm_isp_cfg_ping_pong_address"'
p288
sg19
S'21201591'
p289
sg21
Vadd x1, x1, #0x548
p290
sg5
L18446743798840035336L
sg6
Nsg23
S'ADD'
p291
sg25
S'0xffffffc000800808L'
p292
sg27
Nsba(ibclass
BInstr
p293
(dp294
g2
Nsg17
S'ADD             X1, X1, #0x380'
p295
sg19
S'21000e91'
p296
sg21
Vadd x1, x1, #0x380
p297
sg5
L18446743798840035340L
sg6
Nsg23
S'ADD'
p298
sg25
S'0xffffffc00080080cL'
p299
sg27
Nsba(ibclass
BInstr
p300
(dp301
g2
Nsg17
S'BL              printk'
p302
sg19
S'96b81894'
p303
sg21
Vbl #0x62e258
p304
sg5
L18446743798840035344L
sg6
Nsg23
S'BL'
p305
sg25
S'0xffffffc000800810L'
p306
sg27
Nsba(ibclass
BInstr
p307
(dp308
g2
Nsg17
S'MOV             W0, #0xFFFFFFEA'
p309
sg19
S'a0028012'
p310
sg21
Vmovn w0, #0x15
p311
sg5
L18446743798840035348L
sg6
Nsg23
S'MOV'
p312
sg25
S'0xffffffc000800814L'
p313
sg27
Nsba(ibclass
BInstr
p314
(dp315
g2
Nsg17
S'B               loc_FFFFFFC00080091C'
p316
sg19
S'41000014'
p317
sg21
Vb #0x104
p318
sg5
L18446743798840035352L
sg6
Nsg23
g117
sg25
S'0xffffffc000800818L'
p319
sg27
Nsbasg119
(lp320
S'ADRP reg, #__func__.28408_0@PAGE'
p321
aS'ADD reg, reg, #__func__.28408_0@PAGEOFF'
p322
aS'ADD reg, reg, #0x380'
p323
aS'BL printk'
p324
aS'MOV reg, #0xFFFFFFEA'
p325
aS'B func'
p326
asg135
Nsg5
S'0xffffffc000800804L'
p327
sg137
(lp328
S'0xffffffc0008007d8L'
p329
aS'0xffffffc0008007fcL'
p330
asg6
Nsg139
(lp331
S'0xffffffc00080091cL'
p332
asg143
Nsg144
Nsg145
S'fe74aaa914ff61a969aa45615523adbb'
p333
sg147
S'35cb49ca1f50afe4f780e19804ca961d'
p334
sg149
(lp335
g284
ag291
ag298
ag305
ag312
ag117
asg151
Nsba(ibclass
BBasicBlock
p336
(dp337
g12
Nsg13
(lp338
(ibclass
BInstr
p339
(dp340
g2
Nsg17
S'CMP             W2, #1'
p341
sg19
S'5f040071'
p342
sg21
Vcmp w2, #1
p343
sg5
L18446743798840035356L
sg6
Nsg23
S'CMP'
p344
sg25
S'0xffffffc00080081cL'
p345
sg27
Nsba(ibclass
BInstr
p346
(dp347
g2
Nsg17
S'B.EQ            loc_FFFFFFC000800864'
p348
sg19
S'20020054'
p349
sg21
Vb.eq #0x44
p350
sg5
L18446743798840035360L
sg6
Nsg23
g117
sg25
S'0xffffffc000800820L'
p351
sg27
Nsbasg119
(lp352
S'CMP reg, #1'
p353
aS'B.EQ func'
p354
asg135
Nsg5
S'0xffffffc00080081cL'
p355
sg137
(lp356
S'0xffffffc0008007e4L'
p357
asg6
Nsg139
(lp358
S'0xffffffc000800824L'
p359
aS'0xffffffc000800864L'
p360
asg143
Nsg144
Nsg145
S'c78fd620a449e3c979d3f3ec12d4ee88'
p361
sg147
S'80ff9404225251bcdd8440688ef17eb4'
p362
sg149
(lp363
g344
ag117
asg151
Nsba(ibclass
BBasicBlock
p364
(dp365
g12
Nsg13
(lp366
(ibclass
BInstr
p367
(dp368
g2
Nsg17
S'MOV             W2, #1'
p369
sg19
S'22008052'
p370
sg21
Vmovz w2, #0x1
p371
sg5
L18446743798840035364L
sg6
Nsg23
S'MOV'
p372
sg25
S'0xffffffc000800824L'
p373
sg27
Nsba(ibclass
BInstr
p374
(dp375
g2
Nsg17
S'STR             W1, [X29,#arg_44]'
p376
sg19
S'a15700b9'
p377
sg21
Vstr w1, [x29, #0x54]
p378
sg5
L18446743798840035368L
sg6
Nsg23
S'STR'
p379
sg25
S'0xffffffc000800828L'
p380
sg27
Nsba(ibclass
BInstr
p381
(dp382
g2
Nsg17
S'ADD             X1, X29, #0x50'
p383
sg19
S'a1430191'
p384
sg21
Vadd x1, x29, #0x50
p385
sg5
L18446743798840035372L
sg6
Nsg23
S'ADD'
p386
sg25
S'0xffffffc00080082cL'
p387
sg27
Nsba(ibclass
BInstr
p388
(dp389
g2
Nsg17
S'STR             WZR, [X29,#arg_60]'
p390
sg19
S'bf7300b9'
p391
sg21
Vstr wzr, [x29, #0x70]
p392
sg5
L18446743798840035376L
sg6
Nsg23
S'STR'
p393
sg25
S'0xffffffc000800830L'
p394
sg27
Nsba(ibclass
BInstr
p395
(dp396
g2
Nsg17
S'STRB            W2, [X29,#arg_40]'
p397
sg19
S'a2430139'
p398
sg21
Vstrb w2, [x29, #0x50]
p399
sg5
L18446743798840035380L
sg6
Nsg23
S'STR'
p400
sg25
S'0xffffffc000800834L'
p401
sg27
Nsba(ibclass
BInstr
p402
(dp403
g2
Nsg17
S'BL              msm_isp_cfg_axi_stream'
p404
sg19
S'aafdff97'
p405
sg21
Vbl #0xfffffffffffff6a8
p406
sg5
L18446743798840035384L
sg6
Nsg23
S'BL'
p407
sg25
S'0xffffffc000800838L'
p408
sg27
Nsba(ibclass
BInstr
p409
(dp410
g2
Nsg17
S'MOV             W21, W0'
p411
sg19
S'f503002a'
p412
sg21
Vmov w21, w0
p413
sg5
L18446743798840035388L
sg6
Nsg23
S'MOV'
p414
sg25
S'0xffffffc00080083cL'
p415
sg27
Nsba(ibclass
BInstr
p416
(dp417
g2
Nsg17
S'TBZ             W21, #0x1F, loc_FFFFFFC000800868'
p418
sg19
S'5501f836'
p419
sg21
Vtbz w21, #0x1f, #0x28
p420
sg5
L18446743798840035392L
sg6
Nsg23
S'TBZ'
p421
sg25
S'0xffffffc000800840L'
p422
sg27
Nsbasg119
(lp423
S'MOV reg, #1'
p424
aS'STR reg, mem'
p425
aS'ADD reg, reg9, #0x50'
p426
aS'STR WZR, mem'
p427
aS'STRB reg, mem'
p428
aS'BL msm_isp_cfg_axi_stream'
p429
aS'MOV reg1, reg'
p430
aS'TBZ reg1, #0x1F, func'
p431
asg135
Nsg5
S'0xffffffc000800824L'
p432
sg137
(lp433
S'0xffffffc00080081cL'
p434
asg6
Nsg139
(lp435
S'0xffffffc000800844L'
p436
aS'0xffffffc000800868L'
p437
asg143
Nsg144
Nsg145
S'7422f62fa741fb29dbb8658205395e7b'
p438
sg147
S'78f9f8b7661c6edce415701b40890ab5'
p439
sg149
(lp440
g372
ag379
ag386
ag393
ag400
ag407
ag414
ag421
asg151
Nsba(ibclass
BBasicBlock
p441
(dp442
g12
Nsg13
(lp443
(ibclass
BInstr
p444
(dp445
g2
Nsg17
S'ADRP            X1, #__func__.28408_0@PAGE; "msm_isp_cfg_ping_pong_address"'
p446
sg19
S'614200f0'
p447
sg21
Vadrp x1, #0x84f000
p448
sg5
L18446743798840035396L
sg6
Nsg23
S'ADRP'
p449
sg25
S'0xffffffc000800844L'
p450
sg27
Nsba(ibclass
BInstr
p451
(dp452
g2
Nsg17
S'ADRP            X0, #unk_FFFFFFC0013CF8F3@PAGE'
p453
sg19
S'605e00f0'
p454
sg21
Vadrp x0, #0xbcf000
p455
sg5
L18446743798840035400L
sg6
Nsg23
S'ADRP'
p456
sg25
S'0xffffffc000800848L'
p457
sg27
Nsba(ibclass
BInstr
p458
(dp459
g2
Nsg17
S'ADD             X1, X1, #__func__.28408_0@PAGEOFF; "msm_isp_cfg_ping_pong_address"'
p460
sg19
S'21201591'
p461
sg21
Vadd x1, x1, #0x548
p462
sg5
L18446743798840035404L
sg6
Nsg23
S'ADD'
p463
sg25
S'0xffffffc00080084cL'
p464
sg27
Nsba(ibclass
BInstr
p465
(dp466
g2
Nsg17
S'ADD             X1, X1, #0x380'
p467
sg19
S'21000e91'
p468
sg21
Vadd x1, x1, #0x380
p469
sg5
L18446743798840035408L
sg6
Nsg23
S'ADD'
p470
sg25
S'0xffffffc000800850L'
p471
sg27
Nsba(ibclass
BInstr
p472
(dp473
g2
Nsg17
S'MOV             W2, W21'
p474
sg19
S'e203152a'
p475
sg21
Vmov w2, w21
p476
sg5
L18446743798840035412L
sg6
Nsg23
S'MOV'
p477
sg25
S'0xffffffc000800854L'
p478
sg27
Nsba(ibclass
BInstr
p479
(dp480
g2
Nsg17
S'ADD             X0, X0, #unk_FFFFFFC0013CF8F3@PAGEOFF'
p481
sg19
S'00cc2391'
p482
sg21
Vadd x0, x0, #0x8f3
p483
sg5
L18446743798840035416L
sg6
Nsg23
S'ADD'
p484
sg25
S'0xffffffc000800858L'
p485
sg27
Nsba(ibclass
BInstr
p486
(dp487
g2
Nsg17
S'BL              printk'
p488
sg19
S'83b81894'
p489
sg21
Vbl #0x62e20c
p490
sg5
L18446743798840035420L
sg6
Nsg23
S'BL'
p491
sg25
S'0xffffffc00080085cL'
p492
sg27
Nsba(ibclass
BInstr
p493
(dp494
g2
Nsg17
S'B               loc_FFFFFFC000800918'
p495
sg19
S'2e000014'
p496
sg21
Vb #0xb8
p497
sg5
L18446743798840035424L
sg6
Nsg23
g117
sg25
S'0xffffffc000800860L'
p498
sg27
Nsbasg119
(lp499
S'ADRP reg, #__func__.28408_0@PAGE'
p500
aS'ADRP reg, #func@PAGE'
p501
aS'ADD reg, reg, #__func__.28408_0@PAGEOFF'
p502
aS'ADD reg, reg, #0x380'
p503
aS'MOV reg, reg1'
p504
aS'ADD reg, reg, #func@PAGEOFF'
p505
aS'BL printk'
p506
aS'B func'
p507
asg135
Nsg5
S'0xffffffc000800844L'
p508
sg137
(lp509
S'0xffffffc000800824L'
p510
asg6
Nsg139
(lp511
S'0xffffffc000800918L'
p512
asg143
Nsg144
Nsg145
S'57fbdd9827ba8a6f7ec6550f3bc8f167'
p513
sg147
S'614da07969eafa7f5c7deac9f1641476'
p514
sg149
(lp515
g449
ag456
ag463
ag470
ag477
ag484
ag491
ag117
asg151
Nsba(ibclass
BBasicBlock
p516
(dp517
g12
Nsg13
(lp518
(ibclass
BInstr
p519
(dp520
g2
Nsg17
S'MOV             W21, #0'
p521
sg19
S'15008052'
p522
sg21
Vmovz w21, #0
p523
sg5
L18446743798840035428L
sg6
Nsg23
S'MOV'
p524
sg25
S'0xffffffc000800864L'
p525
sg27
Nsbasg119
(lp526
S'MOV reg1, #0'
p527
asg135
Nsg5
S'0xffffffc000800864L'
p528
sg137
(lp529
S'0xffffffc00080081cL'
p530
asg6
Nsg139
(lp531
S'0xffffffc000800868L'
p532
asg143
Nsg144
Nsg145
S'17b32100aef1fc19670be7fd58bc85df'
p533
sg147
S'247e20b8dfabf6d0a1be17d34350ffbc'
p534
sg149
(lp535
g524
asg151
Nsba(ibclass
BBasicBlock
p536
(dp537
g12
Nsg13
(lp538
(ibclass
BInstr
p539
(dp540
g2
Nsg17
S'MOV             W23, #0'
p541
sg19
S'17008052'
p542
sg21
Vmovz w23, #0
p543
sg5
L18446743798840035432L
sg6
Nsg23
S'MOV'
p544
sg25
S'0xffffffc000800868L'
p545
sg27
Nsbasg119
(lp546
S'MOV reg3, #0'
p547
asg135
Nsg5
S'0xffffffc000800868L'
p548
sg137
(lp549
S'0xffffffc000800824L'
p550
aS'0xffffffc000800864L'
p551
asg6
Nsg139
(lp552
S'0xffffffc00080086cL'
p553
asg143
Nsg144
Nsg145
S'17b32100aef1fc19670be7fd58bc85df'
p554
sg147
S'121fa5526f61515aacd83967374e9e40'
p555
sg149
(lp556
g544
asg151
Nsba(ibclass
BBasicBlock
p557
(dp558
g12
Nsg13
(lp559
(ibclass
BInstr
p560
(dp561
g2
Nsg17
S'LDRB            W1, [X19,#0xC]'
p562
sg19
S'61324039'
p563
sg21
Vldrb w1, [x19, #0xc]
p564
sg5
L18446743798840035436L
sg6
Nsg23
S'LDR'
p565
sg25
S'0xffffffc00080086cL'
p566
sg27
Nsba(ibclass
BInstr
p567
(dp568
g2
Nsg17
S'LDR             X0, [X20,#0x4160]'
p569
sg19
S'80b260f9'
p570
sg21
Vldr x0, [x20, #0x4160]
p571
sg5
L18446743798840035440L
sg6
Nsg23
S'LDR'
p572
sg25
S'0xffffffc000800870L'
p573
sg27
Nsba(ibclass
BInstr
p574
(dp575
g2
Nsg17
S'CMP             W23, W1'
p576
sg19
S'ff02016b'
p577
sg21
Vcmp w23, w1
p578
sg5
L18446743798840035444L
sg6
Nsg23
S'CMP'
p579
sg25
S'0xffffffc000800874L'
p580
sg27
Nsba(ibclass
BInstr
p581
(dp582
g2
Nsg17
S'B.GE            loc_FFFFFFC0008008B4'
p583
sg19
S'ea010054'
p584
sg21
Vb.ge #0x3c
p585
sg5
L18446743798840035448L
sg6
Nsg23
g117
sg25
S'0xffffffc000800878L'
p586
sg27
Nsbasg119
(lp587
S'LDRB reg, mem'
p588
aS'LDR reg, mem'
p589
aS'CMP reg3, reg'
p590
aS'B.GE func'
p591
asg135
Nsg5
S'0xffffffc00080086cL'
p592
sg137
(lp593
S'0xffffffc000800868L'
p594
aS'0xffffffc00080087cL'
p595
asg6
Nsg139
(lp596
S'0xffffffc00080087cL'
p597
aS'0xffffffc0008008b4L'
p598
asg143
Nsg144
Nsg145
S'd9812e74326a7ebe01ae9e2a00bbb5ee'
p599
sg147
S'c0a63339ceaa151157367860be9dbd20'
p600
sg149
(lp601
g565
ag572
ag579
ag117
asg151
Nsba(ibclass
BBasicBlock
p602
(dp603
g12
Nsg13
(lp604
(ibclass
BInstr
p605
(dp606
g2
Nsg17
S'UBFM            W25, W23, #0, #7'
p607
sg19
S'f91e0053'
p608
sg21
Vuxtb w25, w23
p609
sg5
L18446743798840035452L
sg6
Nsg23
S'UBFM'
p610
sg25
S'0xffffffc00080087cL'
p611
sg27
Nsba(ibclass
BInstr
p612
(dp613
g2
Nsg17
S'LDR             X3, [X0,#0xA0]'
p614
sg19
S'035040f9'
p615
sg21
Vldr x3, [x0, #0xa0]
p616
sg5
L18446743798840035456L
sg6
Nsg23
S'LDR'
p617
sg25
S'0xffffffc000800880L'
p618
sg27
Nsba(ibclass
BInstr
p619
(dp620
g2
Nsg17
S'MOV             X1, X19'
p621
sg19
S'e10313aa'
p622
sg21
Vmov x1, x19
p623
sg5
L18446743798840035460L
sg6
Nsg23
S'MOV'
p624
sg25
S'0xffffffc000800884L'
p625
sg27
Nsba(ibclass
BInstr
p626
(dp627
g2
Nsg17
S'MOV             X0, X20'
p628
sg19
S'e00314aa'
p629
sg21
Vmov x0, x20
p630
sg5
L18446743798840035464L
sg6
Nsg23
S'MOV'
p631
sg25
S'0xffffffc000800888L'
p632
sg27
Nsba(ibclass
BInstr
p633
(dp634
g2
Nsg17
S'MOV             W2, W25'
p635
sg19
S'e203192a'
p636
sg21
Vmov w2, w25
p637
sg5
L18446743798840035468L
sg6
Nsg23
S'MOV'
p638
sg25
S'0xffffffc00080088cL'
p639
sg27
Nsba(ibclass
BInstr
p640
(dp641
g2
Nsg17
S'BLR             X3'
p642
sg19
S'60003fd6'
p643
sg21
Vblr x3
p644
sg5
L18446743798840035472L
sg6
Nsg23
S'BLR'
p645
sg25
S'0xffffffc000800890L'
p646
sg27
Nsba(ibclass
BInstr
p647
(dp648
g2
Nsg17
S'LDR             X0, [X20,#0x4160]'
p649
sg19
S'80b260f9'
p650
sg21
Vldr x0, [x20, #0x4160]
p651
sg5
L18446743798840035476L
sg6
Nsg23
S'LDR'
p652
sg25
S'0xffffffc000800894L'
p653
sg27
Nsba(ibclass
BInstr
p654
(dp655
g2
Nsg17
S'MOV             X1, X19'
p656
sg19
S'e10313aa'
p657
sg21
Vmov x1, x19
p658
sg5
L18446743798840035480L
sg6
Nsg23
S'MOV'
p659
sg25
S'0xffffffc000800898L'
p660
sg27
Nsba(ibclass
BInstr
p661
(dp662
g2
Nsg17
S'LDR             X3, [X0,#0xB0]'
p663
sg19
S'035840f9'
p664
sg21
Vldr x3, [x0, #0xb0]
p665
sg5
L18446743798840035484L
sg6
Nsg23
S'LDR'
p666
sg25
S'0xffffffc00080089cL'
p667
sg27
Nsba(ibclass
BInstr
p668
(dp669
g2
Nsg17
S'MOV             W2, W25'
p670
sg19
S'e203192a'
p671
sg21
Vmov w2, w25
p672
sg5
L18446743798840035488L
sg6
Nsg23
S'MOV'
p673
sg25
S'0xffffffc0008008a0L'
p674
sg27
Nsba(ibclass
BInstr
p675
(dp676
g2
Nsg17
S'MOV             X0, X20'
p677
sg19
S'e00314aa'
p678
sg21
Vmov x0, x20
p679
sg5
L18446743798840035492L
sg6
Nsg23
S'MOV'
p680
sg25
S'0xffffffc0008008a4L'
p681
sg27
Nsba(ibclass
BInstr
p682
(dp683
g2
Nsg17
S'BLR             X3'
p684
sg19
S'60003fd6'
p685
sg21
Vblr x3
p686
sg5
L18446743798840035496L
sg6
Nsg23
S'BLR'
p687
sg25
S'0xffffffc0008008a8L'
p688
sg27
Nsba(ibclass
BInstr
p689
(dp690
g2
Nsg17
S'ADD             W23, W23, #1'
p691
sg19
S'f7060011'
p692
sg21
Vadd w23, w23, #1
p693
sg5
L18446743798840035500L
sg6
Nsg23
S'ADD'
p694
sg25
S'0xffffffc0008008acL'
p695
sg27
Nsba(ibclass
BInstr
p696
(dp697
g2
Nsg17
S'B               loc_FFFFFFC00080086C'
p698
sg19
S'efffff17'
p699
sg21
Vb #0xffffffffffffffbc
p700
sg5
L18446743798840035504L
sg6
Nsg23
g117
sg25
S'0xffffffc0008008b0L'
p701
sg27
Nsbasg119
(lp702
S'UBFM reg5, reg3, #0, #7'
p703
aS'LDR reg, mem'
p704
aS'MOV reg, reg9'
p705
aS'MOV reg, reg0'
p706
aS'MOV reg, reg5'
p707
aS'BLR reg'
p708
aS'LDR reg, mem'
p709
aS'MOV reg, reg9'
p710
aS'LDR reg, mem'
p711
aS'MOV reg, reg5'
p712
aS'MOV reg, reg0'
p713
aS'BLR reg'
p714
aS'ADD reg3, reg3, #1'
p715
aS'B func'
p716
asg135
Nsg5
S'0xffffffc00080087cL'
p717
sg137
(lp718
S'0xffffffc00080086cL'
p719
asg6
Nsg139
(lp720
S'0xffffffc00080086cL'
p721
asg143
Nsg144
Nsg145
S'89ecec8026ea3bd5aab793f7f3f93e7b'
p722
sg147
S'78a7379e2ad8c62ce78eac53998d8969'
p723
sg149
(lp724
g610
ag617
ag624
ag631
ag638
ag645
ag652
ag659
ag666
ag673
ag680
ag687
ag694
ag117
asg151
Nsba(ibclass
BBasicBlock
p725
(dp726
g12
Nsg13
(lp727
(ibclass
BInstr
p728
(dp729
g2
Nsg17
S'CMP             W1, #1'
p730
sg19
S'3f040071'
p731
sg21
Vcmp w1, #1
p732
sg5
L18446743798840035508L
sg6
Nsg23
S'CMP'
p733
sg25
S'0xffffffc0008008b4L'
p734
sg27
Nsba(ibclass
BInstr
p735
(dp736
g2
Nsg17
S'B.LS            loc_FFFFFFC0008008DC'
p737
sg19
S'29010054'
p738
sg21
Vb.ls #0x24
p739
sg5
L18446743798840035512L
sg6
Nsg23
g117
sg25
S'0xffffffc0008008b8L'
p740
sg27
Nsbasg119
(lp741
S'CMP reg, #1'
p742
aS'B.LS func'
p743
asg135
Nsg5
S'0xffffffc0008008b4L'
p744
sg137
(lp745
S'0xffffffc00080086cL'
p746
asg6
Nsg139
(lp747
S'0xffffffc0008008bcL'
p748
aS'0xffffffc0008008dcL'
p749
asg143
Nsg144
Nsg145
S'c78fd620a449e3c979d3f3ec12d4ee88'
p750
sg147
S'62b8b964cb4d19afe410896f218fca06'
p751
sg149
(lp752
g733
ag117
asg151
Nsba(ibclass
BBasicBlock
p753
(dp754
g12
Nsg13
(lp755
(ibclass
BInstr
p756
(dp757
g2
Nsg17
S'LDR             X2, [X0,#0x80]'
p758
sg19
S'024040f9'
p759
sg21
Vldr x2, [x0, #0x80]
p760
sg5
L18446743798840035516L
sg6
Nsg23
S'LDR'
p761
sg25
S'0xffffffc0008008bcL'
p762
sg27
Nsba(ibclass
BInstr
p763
(dp764
g2
Nsg17
S'MOV             X1, X19'
p765
sg19
S'e10313aa'
p766
sg21
Vmov x1, x19
p767
sg5
L18446743798840035520L
sg6
Nsg23
S'MOV'
p768
sg25
S'0xffffffc0008008c0L'
p769
sg27
Nsba(ibclass
BInstr
p770
(dp771
g2
Nsg17
S'MOV             X0, X20'
p772
sg19
S'e00314aa'
p773
sg21
Vmov x0, x20
p774
sg5
L18446743798840035524L
sg6
Nsg23
S'MOV'
p775
sg25
S'0xffffffc0008008c4L'
p776
sg27
Nsba(ibclass
BInstr
p777
(dp778
g2
Nsg17
S'BLR             X2'
p779
sg19
S'40003fd6'
p780
sg21
Vblr x2
p781
sg5
L18446743798840035528L
sg6
Nsg23
S'BLR'
p782
sg25
S'0xffffffc0008008c8L'
p783
sg27
Nsba(ibclass
BInstr
p784
(dp785
g2
Nsg17
S'MOV             X0, X22'
p786
sg19
S'e00316aa'
p787
sg21
Vmov x0, x22
p788
sg5
L18446743798840035532L
sg6
Nsg23
S'MOV'
p789
sg25
S'0xffffffc0008008ccL'
p790
sg27
Nsba(ibclass
BInstr
p791
(dp792
g2
Nsg17
S'MOV             X1, X19'
p793
sg19
S'e10313aa'
p794
sg21
Vmov x1, x19
p795
sg5
L18446743798840035536L
sg6
Nsg23
S'MOV'
p796
sg25
S'0xffffffc0008008d0L'
p797
sg27
Nsba(ibclass
BInstr
p798
(dp799
g2
Nsg17
S'BL              msm_isp_axi_free_comp_mask'
p800
sg19
S'52f6ff97'
p801
sg21
Vbl #0xffffffffffffd948
p802
sg5
L18446743798840035540L
sg6
Nsg23
S'BL'
p803
sg25
S'0xffffffc0008008d4L'
p804
sg27
Nsba(ibclass
BInstr
p805
(dp806
g2
Nsg17
S'B               loc_FFFFFFC0008008EC'
p807
sg19
S'05000014'
p808
sg21
Vb #0x14
p809
sg5
L18446743798840035544L
sg6
Nsg23
g117
sg25
S'0xffffffc0008008d8L'
p810
sg27
Nsbasg119
(lp811
S'LDR reg, mem'
p812
aS'MOV reg, reg9'
p813
aS'MOV reg, reg0'
p814
aS'BLR reg'
p815
aS'MOV reg, reg2'
p816
aS'MOV reg, reg9'
p817
aS'BL msm_isp_axi_free_comp_mask'
p818
aS'B func'
p819
asg135
Nsg5
S'0xffffffc0008008bcL'
p820
sg137
(lp821
S'0xffffffc0008008b4L'
p822
asg6
Nsg139
(lp823
S'0xffffffc0008008ecL'
p824
asg143
Nsg144
Nsg145
S'abaf97e69f6f89125e6c965a3e58c857'
p825
sg147
S'7eb072ee3643ebb19024f1052f8d57e5'
p826
sg149
(lp827
g761
ag768
ag775
ag782
ag789
ag796
ag803
ag117
asg151
Nsba(ibclass
BBasicBlock
p828
(dp829
g12
Nsg13
(lp830
(ibclass
BInstr
p831
(dp832
g2
Nsg17
S'LDR             X2, [X0,#0x90]'
p833
sg19
S'024840f9'
p834
sg21
Vldr x2, [x0, #0x90]
p835
sg5
L18446743798840035548L
sg6
Nsg23
S'LDR'
p836
sg25
S'0xffffffc0008008dcL'
p837
sg27
Nsba(ibclass
BInstr
p838
(dp839
g2
Nsg17
S'MOV             X1, X19'
p840
sg19
S'e10313aa'
p841
sg21
Vmov x1, x19
p842
sg5
L18446743798840035552L
sg6
Nsg23
S'MOV'
p843
sg25
S'0xffffffc0008008e0L'
p844
sg27
Nsba(ibclass
BInstr
p845
(dp846
g2
Nsg17
S'MOV             X0, X20'
p847
sg19
S'e00314aa'
p848
sg21
Vmov x0, x20
p849
sg5
L18446743798840035556L
sg6
Nsg23
S'MOV'
p850
sg25
S'0xffffffc0008008e4L'
p851
sg27
Nsba(ibclass
BInstr
p852
(dp853
g2
Nsg17
S'BLR             X2'
p854
sg19
S'40003fd6'
p855
sg21
Vblr x2
p856
sg5
L18446743798840035560L
sg6
Nsg23
S'BLR'
p857
sg25
S'0xffffffc0008008e8L'
p858
sg27
Nsbasg119
(lp859
S'LDR reg, mem'
p860
aS'MOV reg, reg9'
p861
aS'MOV reg, reg0'
p862
aS'BLR reg'
p863
asg135
Nsg5
S'0xffffffc0008008dcL'
p864
sg137
(lp865
S'0xffffffc0008008b4L'
p866
asg6
Nsg139
(lp867
S'0xffffffc0008008ecL'
p868
asg143
Nsg144
Nsg145
S'ac7cea4d805eb79c950c31c4e00011e9'
p869
sg147
S'27d54eb873b22528b9bbe1ce757bc5e0'
p870
sg149
(lp871
g836
ag843
ag850
ag857
asg151
Nsba(ibclass
BBasicBlock
p872
(dp873
g12
Nsg13
(lp874
(ibclass
BInstr
p875
(dp876
g2
Nsg17
S'LDR             X0, [X20,#0x4160]'
p877
sg19
S'80b260f9'
p878
sg21
Vldr x0, [x20, #0x4160]
p879
sg5
L18446743798840035564L
sg6
Nsg23
S'LDR'
p880
sg25
S'0xffffffc0008008ecL'
p881
sg27
Nsba(ibclass
BInstr
p882
(dp883
g2
Nsg17
S'MOV             X1, X19'
p884
sg19
S'e10313aa'
p885
sg21
Vmov x1, x19
p886
sg5
L18446743798840035568L
sg6
Nsg23
S'MOV'
p887
sg25
S'0xffffffc0008008f0L'
p888
sg27
Nsba(ibclass
BInstr
p889
(dp890
g2
Nsg17
S'LDR             X2, [X0,#0x70]'
p891
sg19
S'023840f9'
p892
sg21
Vldr x2, [x0, #0x70]
p893
sg5
L18446743798840035572L
sg6
Nsg23
S'LDR'
p894
sg25
S'0xffffffc0008008f4L'
p895
sg27
Nsba(ibclass
BInstr
p896
(dp897
g2
Nsg17
S'MOV             X0, X20'
p898
sg19
S'e00314aa'
p899
sg21
Vmov x0, x20
p900
sg5
L18446743798840035576L
sg6
Nsg23
S'MOV'
p901
sg25
S'0xffffffc0008008f8L'
p902
sg27
Nsba(ibclass
BInstr
p903
(dp904
g2
Nsg17
S'BLR             X2'
p905
sg19
S'40003fd6'
p906
sg21
Vblr x2
p907
sg5
L18446743798840035580L
sg6
Nsg23
S'BLR'
p908
sg25
S'0xffffffc0008008fcL'
p909
sg27
Nsba(ibclass
BInstr
p910
(dp911
g2
Nsg17
S'MOV             X0, X22'
p912
sg19
S'e00316aa'
p913
sg21
Vmov x0, x22
p914
sg5
L18446743798840035584L
sg6
Nsg23
S'MOV'
p915
sg25
S'0xffffffc000800900L'
p916
sg27
Nsba(ibclass
BInstr
p917
(dp918
g2
Nsg17
S'MOV             X1, X19'
p919
sg19
S'e10313aa'
p920
sg21
Vmov x1, x19
p921
sg5
L18446743798840035588L
sg6
Nsg23
S'MOV'
p922
sg25
S'0xffffffc000800904L'
p923
sg27
Nsba(ibclass
BInstr
p924
(dp925
g2
Nsg17
S'BL              msm_isp_axi_free_wm'
p926
sg19
S'0bf6ff97'
p927
sg21
Vbl #0xffffffffffffd82c
p928
sg5
L18446743798840035592L
sg6
Nsg23
S'BL'
p929
sg25
S'0xffffffc000800908L'
p930
sg27
Nsba(ibclass
BInstr
p931
(dp932
g2
Nsg17
S'LDRB            W1, [X24]'
p933
sg19
S'01034039'
p934
sg21
Vldrb w1, [x24]
p935
sg5
L18446743798840035596L
sg6
Nsg23
S'LDR'
p936
sg25
S'0xffffffc00080090cL'
p937
sg27
Nsba(ibclass
BInstr
p938
(dp939
g2
Nsg17
S'MOV             X0, X22'
p940
sg19
S'e00316aa'
p941
sg21
Vmov x0, x22
p942
sg5
L18446743798840035600L
sg6
Nsg23
S'MOV'
p943
sg25
S'0xffffffc000800910L'
p944
sg27
Nsba(ibclass
BInstr
p945
(dp946
g2
Nsg17
S'BL              msm_isp_axi_destroy_stream'
p947
sg19
S'6cf3ff97'
p948
sg21
Vbl #0xffffffffffffcdb0
p949
sg5
L18446743798840035604L
sg6
Nsg23
S'BL'
p950
sg25
S'0xffffffc000800914L'
p951
sg27
Nsbasg119
(lp952
S'LDR reg, mem'
p953
aS'MOV reg, reg9'
p954
aS'LDR reg, mem'
p955
aS'MOV reg, reg0'
p956
aS'BLR reg'
p957
aS'MOV reg, reg2'
p958
aS'MOV reg, reg9'
p959
aS'BL msm_isp_axi_free_wm'
p960
aS'LDRB reg, mem'
p961
aS'MOV reg, reg2'
p962
aS'BL msm_isp_axi_destroy_stream'
p963
asg135
Nsg5
S'0xffffffc0008008ecL'
p964
sg137
(lp965
S'0xffffffc0008008bcL'
p966
aS'0xffffffc0008008dcL'
p967
asg6
Nsg139
(lp968
S'0xffffffc000800918L'
p969
asg143
Nsg144
Nsg145
S'138bf77cd5eb265393980c8cf9b8283e'
p970
sg147
S'e22a9db23551d8637de1301c652504f8'
p971
sg149
(lp972
g880
ag887
ag894
ag901
ag908
ag915
ag922
ag929
ag936
ag943
ag950
asg151
Nsba(ibclass
BBasicBlock
p973
(dp974
g12
Nsg13
(lp975
(ibclass
BInstr
p976
(dp977
g2
Nsg17
S'MOV             W0, W21'
p978
sg19
S'e003152a'
p979
sg21
Vmov w0, w21
p980
sg5
L18446743798840035608L
sg6
Nsg23
S'MOV'
p981
sg25
S'0xffffffc000800918L'
p982
sg27
Nsbasg119
(lp983
S'MOV reg, reg1'
p984
asg135
Nsg5
S'0xffffffc000800918L'
p985
sg137
(lp986
S'0xffffffc000800844L'
p987
aS'0xffffffc0008008ecL'
p988
asg6
Nsg139
(lp989
S'0xffffffc00080091cL'
p990
asg143
Nsg144
Nsg145
S'17b32100aef1fc19670be7fd58bc85df'
p991
sg147
S'755f3b926ac9c3eb9c2b84643c2f496b'
p992
sg149
(lp993
g981
asg151
Nsba(ibclass
BBasicBlock
p994
(dp995
g12
Nsg13
(lp996
(ibclass
BInstr
p997
(dp998
g2
Nsg17
S'LDP             X19, X20, [SP,#0x70+var_60]'
p999
sg19
S'f35341a9'
p1000
sg21
Vldp x19, x20, [sp, #0x10]
p1001
sg5
L18446743798840035612L
sg6
Nsg23
S'LDP'
p1002
sg25
S'0xffffffc00080091cL'
p1003
sg27
Nsba(ibclass
BInstr
p1004
(dp1005
g2
Nsg17
S'LDP             X21, X22, [SP,#0x70+var_50]'
p1006
sg19
S'f55b42a9'
p1007
sg21
Vldp x21, x22, [sp, #0x20]
p1008
sg5
L18446743798840035616L
sg6
Nsg23
S'LDP'
p1009
sg25
S'0xffffffc000800920L'
p1010
sg27
Nsba(ibclass
BInstr
p1011
(dp1012
g2
Nsg17
S'LDP             X23, X24, [SP,#0x70+var_40]'
p1013
sg19
S'f76343a9'
p1014
sg21
Vldp x23, x24, [sp, #0x30]
p1015
sg5
L18446743798840035620L
sg6
Nsg23
S'LDP'
p1016
sg25
S'0xffffffc000800924L'
p1017
sg27
Nsba(ibclass
BInstr
p1018
(dp1019
g2
Nsg17
S'LDR             X25, [SP,#0x70+var_30]'
p1020
sg19
S'f92340f9'
p1021
sg21
Vldr x25, [sp, #0x40]
p1022
sg5
L18446743798840035624L
sg6
Nsg23
S'LDR'
p1023
sg25
S'0xffffffc000800928L'
p1024
sg27
Nsba(ibclass
BInstr
p1025
(dp1026
g2
Nsg17
S'LDP             X29, X30, [SP+0x70+var_70],#0x80'
p1027
sg19
S'fd7bc8a8'
p1028
sg21
Vldp x29, x30, [sp], #0x80
p1029
sg5
L18446743798840035628L
sg6
Nsg23
S'LDP'
p1030
sg25
S'0xffffffc00080092cL'
p1031
sg27
Nsba(ibclass
BInstr
p1032
(dp1033
g2
Nsg17
S'RET'
p1034
sg19
S'c0035fd6'
p1035
sg21
Vret 
p1036
sg5
L18446743798840035632L
sg6
Nsg23
S'RET'
p1037
sg25
S'0xffffffc000800930L'
p1038
sg27
Nsbasg119
(lp1039
S'LDP reg9, reg0, mem'
p1040
aS'LDP reg1, reg2, mem'
p1041
aS'LDP reg3, reg4, mem'
p1042
aS'LDR reg5, mem'
p1043
aS'LDP reg9, reg0, mem,#0x80'
p1044
ag1034
asg135
Nsg5
S'0xffffffc00080091cL'
p1045
sg137
(lp1046
S'0xffffffc000800804L'
p1047
aS'0xffffffc000800918L'
p1048
asg6
Nsg139
(lp1049
sg143
Nsg144
Nsg145
S'435e86ed5c81e680f6e6bba6930929fc'
p1050
sg147
S'429c2ccd6c859211f99d9b011aa77366'
p1051
sg149
(lp1052
g1002
ag1009
ag1016
ag1023
ag1030
ag1037
asg151
Nsbasb.