(ibclass
BFunc
p0
(dp1
S'hash'
p2
NsS'name'
p3
S'msm_comm_try_get_prop'
p4
sS'start_address'
p5
L18446743798839636020L
sS'flag'
p6
NsS'program'
p7
NsS'bbs'
p8
(lp9
(ibclass
BBasicBlock
p10
(dp11
S'function'
p12
NsS'binstrs'
p13
(lp14
(ibclass
BInstr
p15
(dp16
g2
NsS'disasm'
p17
S'STP             X29, X30, [SP,#-0x10+var_30]!'
p18
sS'bytes'
p19
S'fd7bbca9'
p20
sS'disasm_striped'
p21
Vstp x29, x30, [sp, #-0x40]!
p22
sg5
L18446743798839636020L
sg6
NsS'mnem'
p23
S'STP'
p24
sS'address'
p25
S'0xffffffc00079f034L'
p26
sS'basicblock'
p27
Nsba(ibclass
BInstr
p28
(dp29
g2
Nsg17
S'MOV             X29, SP'
p30
sg19
S'fd030091'
p31
sg21
Vmov x29, sp
p32
sg5
L18446743798839636024L
sg6
Nsg23
S'MOV'
p33
sg25
S'0xffffffc00079f038L'
p34
sg27
Nsba(ibclass
BInstr
p35
(dp36
g2
Nsg17
S'STP             X19, X20, [SP,#0x30+var_20]'
p37
sg19
S'f35301a9'
p38
sg21
Vstp x19, x20, [sp, #0x10]
p39
sg5
L18446743798839636028L
sg6
Nsg23
S'STP'
p40
sg25
S'0xffffffc00079f03cL'
p41
sg27
Nsba(ibclass
BInstr
p42
(dp43
g2
Nsg17
S'STR             X23, [SP,#0x30+var_s0]'
p44
sg19
S'f71b00f9'
p45
sg21
Vstr x23, [sp, #0x30]
p46
sg5
L18446743798839636032L
sg6
Nsg23
S'STR'
p47
sg25
S'0xffffffc00079f040L'
p48
sg27
Nsba(ibclass
BInstr
p49
(dp50
g2
Nsg17
S'STP             X21, X22, [SP,#0x30+var_10]'
p51
sg19
S'f55b02a9'
p52
sg21
Vstp x21, x22, [sp, #0x20]
p53
sg5
L18446743798839636036L
sg6
Nsg23
S'STP'
p54
sg25
S'0xffffffc00079f044L'
p55
sg27
Nsba(ibclass
BInstr
p56
(dp57
g2
Nsg17
S'MOV             X19, X0'
p58
sg19
S'f30300aa'
p59
sg21
Vmov x19, x0
p60
sg5
L18446743798839636040L
sg6
Nsg23
S'MOV'
p61
sg25
S'0xffffffc00079f048L'
p62
sg27
Nsba(ibclass
BInstr
p63
(dp64
g2
Nsg17
S'MOV             W20, W1'
p65
sg19
S'f403012a'
p66
sg21
Vmov w20, w1
p67
sg5
L18446743798839636044L
sg6
Nsg23
S'MOV'
p68
sg25
S'0xffffffc00079f04cL'
p69
sg27
Nsba(ibclass
BInstr
p70
(dp71
g2
Nsg17
S'MOV             X23, X2'
p72
sg19
S'f70302aa'
p73
sg21
Vmov x23, x2
p74
sg5
L18446743798839636048L
sg6
Nsg23
S'MOV'
p75
sg25
S'0xffffffc00079f050L'
p76
sg27
Nsba(ibclass
BInstr
p77
(dp78
g2
Nsg17
S'CBZ             X0, loc_FFFFFFC00079F068'
p79
sg19
S'a00000b4'
p80
sg21
Vcbz x0, #0x14
p81
sg5
L18446743798839636052L
sg6
Nsg23
S'CBZ'
p82
sg25
S'0xffffffc00079f054L'
p83
sg27
NsbasS'disasm_list'
p84
(lp85
S'STP reg9, reg0, mem!'
p86
aS'MOV reg9, SP'
p87
aS'STP reg9, reg0, mem'
p88
aS'STR reg3, mem'
p89
aS'STP reg1, reg2, mem'
p90
aS'MOV reg9, reg'
p91
aS'MOV reg0, reg'
p92
aS'MOV reg3, reg'
p93
aS'CBZ reg, func'
p94
asS'end_address'
p95
Nsg5
S'0xffffffc00079f034L'
p96
sS'preds'
p97
(lp98
sg6
NsS'succs'
p99
(lp100
S'0xffffffc00079f058L'
p101
aS'0xffffffc00079f068L'
p102
asS'hash_v3'
p103
NsS'flag_v2'
p104
NsS'hash_v1'
p105
S'6b00d456c53f69e0505b11b346a68927'
p106
sS'hash_v2'
p107
S'84e0e2edf6f4d4274bcefca47e06f02f'
p108
sS'mnen_list'
p109
(lp110
g24
ag33
ag40
ag47
ag54
ag61
ag68
ag75
ag82
asS'neighbour_disasm_list'
p111
Nsba(ibclass
BBasicBlock
p112
(dp113
g12
Nsg13
(lp114
(ibclass
BInstr
p115
(dp116
g2
Nsg17
S'LDR             X1, [X0,#0x60]'
p117
sg19
S'013040f9'
p118
sg21
Vldr x1, [x0, #0x60]
p119
sg5
L18446743798839636056L
sg6
Nsg23
S'LDR'
p120
sg25
S'0xffffffc00079f058L'
p121
sg27
Nsba(ibclass
BInstr
p122
(dp123
g2
Nsg17
S'CBZ             X1, loc_FFFFFFC00079F068'
p124
sg19
S'610000b4'
p125
sg21
Vcbz x1, #0xc
p126
sg5
L18446743798839636060L
sg6
Nsg23
S'CBZ'
p127
sg25
S'0xffffffc00079f05cL'
p128
sg27
Nsbasg84
(lp129
S'LDR reg, mem'
p130
aS'CBZ reg, func'
p131
asg95
Nsg5
S'0xffffffc00079f058L'
p132
sg97
(lp133
S'0xffffffc00079f034L'
p134
asg6
Nsg99
(lp135
S'0xffffffc00079f060L'
p136
aS'0xffffffc00079f068L'
p137
asg103
Nsg104
Nsg105
S'a0c488049ab653dbdfa1dc805bb83f13'
p138
sg107
S'33abe016da9abbebb8608f035d51762d'
p139
sg109
(lp140
g120
ag127
asg111
Nsba(ibclass
BBasicBlock
p141
(dp142
g12
Nsg13
(lp143
(ibclass
BInstr
p144
(dp145
g2
Nsg17
S'LDR             X21, [X1,#0x40]'
p146
sg19
S'352040f9'
p147
sg21
Vldr x21, [x1, #0x40]
p148
sg5
L18446743798839636064L
sg6
Nsg23
S'LDR'
p149
sg25
S'0xffffffc00079f060L'
p150
sg27
Nsba(ibclass
BInstr
p151
(dp152
g2
Nsg17
S'CBNZ            X21, loc_FFFFFFC00079F0B0'
p153
sg19
S'750200b5'
p154
sg21
Vcbnz x21, #0x4c
p155
sg5
L18446743798839636068L
sg6
Nsg23
S'CBNZ'
p156
sg25
S'0xffffffc00079f064L'
p157
sg27
Nsbasg84
(lp158
S'LDR reg1, mem'
p159
aS'CBNZ reg1, func'
p160
asg95
Nsg5
S'0xffffffc00079f060L'
p161
sg97
(lp162
S'0xffffffc00079f058L'
p163
asg6
Nsg99
(lp164
S'0xffffffc00079f068L'
p165
aS'0xffffffc00079f0b0L'
p166
asg103
Nsg104
Nsg105
S'5522ad3e8b25e3a8f9013bb9571723e7'
p167
sg107
S'08e326848748cb2f4eecaed6f51eb737'
p168
sg109
(lp169
g149
ag156
asg111
Nsba(ibclass
BBasicBlock
p170
(dp171
g12
Nsg13
(lp172
(ibclass
BInstr
p173
(dp174
g2
Nsg17
S'ADRP            X0, #qword_FFFFFFC000E458A0@PAGE'
p175
sg19
S'203500d0'
p176
sg21
Vadrp x0, #0x6a6000
p177
sg5
L18446743798839636072L
sg6
Nsg23
S'ADRP'
p178
sg25
S'0xffffffc00079f068L'
p179
sg27
Nsba(ibclass
BInstr
p180
(dp181
g2
Nsg17
S'LDR             X0, [X0,#qword_FFFFFFC000E458A0@PAGEOFF]'
p182
sg19
S'005044f9'
p183
sg21
Vldr x0, [x0, #0x8a0]
p184
sg5
L18446743798839636076L
sg6
Nsg23
S'LDR'
p185
sg25
S'0xffffffc00079f06cL'
p186
sg27
Nsba(ibclass
BInstr
p187
(dp188
g2
Nsg17
S'LDR             W0, [X0]'
p189
sg19
S'000040b9'
p190
sg21
Vldr w0, [x0]
p191
sg5
L18446743798839636080L
sg6
Nsg23
S'LDR'
p192
sg25
S'0xffffffc00079f070L'
p193
sg27
Nsba(ibclass
BInstr
p194
(dp195
g2
Nsg17
S'TBZ             W0, #0, loc_FFFFFFC00079F3C4'
p196
sg19
S'801a0036'
p197
sg21
Vtbz w0, #0, #0x350
p198
sg5
L18446743798839636084L
sg6
Nsg23
S'TBZ'
p199
sg25
S'0xffffffc00079f074L'
p200
sg27
Nsbasg84
(lp201
S'ADRP reg, #func@PAGE'
p202
aS'LDR reg, mem'
p203
aS'LDR reg, mem'
p204
aS'TBZ reg, #0, func'
p205
asg95
Nsg5
S'0xffffffc00079f068L'
p206
sg97
(lp207
S'0xffffffc00079f034L'
p208
aS'0xffffffc00079f058L'
p209
aS'0xffffffc00079f060L'
p210
asg6
Nsg99
(lp211
S'0xffffffc00079f078L'
p212
aS'0xffffffc00079f3c4L'
p213
asg103
Nsg104
Nsg105
S'2de94c9e326481f2f467f11acce8dcc9'
p214
sg107
S'f9f7225e2bae36aff04e5d93bafe5e1d'
p215
sg109
(lp216
g178
ag185
ag192
ag199
asg111
Nsba(ibclass
BBasicBlock
p217
(dp218
g12
Nsg13
(lp219
(ibclass
BInstr
p220
(dp221
g2
Nsg17
S'ADRP            X0, #qword_FFFFFFC000E43D48@PAGE'
p222
sg19
S'20350090'
p223
sg21
Vadrp x0, #0x6a4000
p224
sg5
L18446743798839636088L
sg6
Nsg23
S'ADRP'
p225
sg25
S'0xffffffc00079f078L'
p226
sg27
Nsba(ibclass
BInstr
p227
(dp228
g2
Nsg17
S'LDR             X0, [X0,#qword_FFFFFFC000E43D48@PAGEOFF]'
p229
sg19
S'00a446f9'
p230
sg21
Vldr x0, [x0, #0xd48]
p231
sg5
L18446743798839636092L
sg6
Nsg23
S'LDR'
p232
sg25
S'0xffffffc00079f07cL'
p233
sg27
Nsba(ibclass
BInstr
p234
(dp235
g2
Nsg17
S'MOV             W19, #0xFFFFFFEA'
p236
sg19
S'b3028012'
p237
sg21
Vmovn w19, #0x15
p238
sg5
L18446743798839636096L
sg6
Nsg23
S'MOV'
p239
sg25
S'0xffffffc00079f080L'
p240
sg27
Nsba(ibclass
BInstr
p241
(dp242
g2
Nsg17
S'LDR             W0, [X0]'
p243
sg19
S'000040b9'
p244
sg21
Vldr w0, [x0]
p245
sg5
L18446743798839636100L
sg6
Nsg23
S'LDR'
p246
sg25
S'0xffffffc00079f084L'
p247
sg27
Nsba(ibclass
BInstr
p248
(dp249
g2
Nsg17
S'CBNZ            W0, loc_FFFFFFC00079F3D0'
p250
sg19
S'401a0035'
p251
sg21
Vcbnz w0, #0x348
p252
sg5
L18446743798839636104L
sg6
Nsg23
S'CBNZ'
p253
sg25
S'0xffffffc00079f088L'
p254
sg27
Nsbasg84
(lp255
S'ADRP reg, #func@PAGE'
p256
aS'LDR reg, mem'
p257
aS'MOV reg9, #0xFFFFFFEA'
p258
aS'LDR reg, mem'
p259
aS'CBNZ reg, func'
p260
asg95
Nsg5
S'0xffffffc00079f078L'
p261
sg97
(lp262
S'0xffffffc00079f068L'
p263
asg6
Nsg99
(lp264
S'0xffffffc00079f08cL'
p265
aS'0xffffffc00079f3d0L'
p266
asg103
Nsg104
Nsg105
S'd80cc6d531f24a5b2d60307977d236c7'
p267
sg107
S'baaaa11d303d94886d47725c6dea0608'
p268
sg109
(lp269
g225
ag232
ag239
ag246
ag253
asg111
Nsba(ibclass
BBasicBlock
p270
(dp271
g12
Nsg13
(lp272
(ibclass
BInstr
p273
(dp274
g2
Nsg17
S'ADRP            X2, #__func__.34388@PAGE; "msm_vidc_check_scaling_supported"'
p275
sg19
S'424500d0'
p276
sg21
Vadrp x2, #0x8aa000
p277
sg5
L18446743798839636108L
sg6
Nsg23
S'ADRP'
p278
sg25
S'0xffffffc00079f08cL'
p279
sg27
Nsba(ibclass
BInstr
p280
(dp281
g2
Nsg17
S'ADRP            X0, #unk_FFFFFFC0013B5D6D@PAGE'
p282
sg19
S'a06000d0'
p283
sg21
Vadrp x0, #0xc16000
p284
sg5
L18446743798839636112L
sg6
Nsg23
S'ADRP'
p285
sg25
S'0xffffffc00079f090L'
p286
sg27
Nsba(ibclass
BInstr
p287
(dp288
g2
Nsg17
S'ADRP            X1, #(aQcomMdssDsi_17+0x1B)@PAGE; "err"'
p289
sg19
S'815c0090'
p290
sg21
Vadrp x1, #0xb90000
p291
sg5
L18446743798839636116L
sg6
Nsg23
S'ADRP'
p292
sg25
S'0xffffffc00079f094L'
p293
sg27
Nsba(ibclass
BInstr
p294
(dp295
g2
Nsg17
S'ADD             X2, X2, #__func__.34388@PAGEOFF; "msm_vidc_check_scaling_supported"'
p296
sg19
S'42a02391'
p297
sg21
Vadd x2, x2, #0x8e8
p298
sg5
L18446743798839636120L
sg6
Nsg23
S'ADD'
p299
sg25
S'0xffffffc00079f098L'
p300
sg27
Nsba(ibclass
BInstr
p301
(dp302
g2
Nsg17
S'ADD             X1, X1, #(aQcomMdssDsi_17+0x1B)@PAGEOFF; "err"'
p303
sg19
S'21800091'
p304
sg21
Vadd x1, x1, #0x20
p305
sg5
L18446743798839636124L
sg6
Nsg23
S'ADD'
p306
sg25
S'0xffffffc00079f09cL'
p307
sg27
Nsba(ibclass
BInstr
p308
(dp309
g2
Nsg17
S'ADD             X2, X2, #0x110'
p310
sg19
S'42400491'
p311
sg21
Vadd x2, x2, #0x110
p312
sg5
L18446743798839636128L
sg6
Nsg23
S'ADD'
p313
sg25
S'0xffffffc00079f0a0L'
p314
sg27
Nsba(ibclass
BInstr
p315
(dp316
g2
Nsg17
S'ADD             X0, X0, #unk_FFFFFFC0013B5D6D@PAGEOFF'
p317
sg19
S'00b43591'
p318
sg21
Vadd x0, x0, #0xd6d
p319
sg5
L18446743798839636132L
sg6
Nsg23
S'ADD'
p320
sg25
S'0xffffffc00079f0a4L'
p321
sg27
Nsba(ibclass
BInstr
p322
(dp323
g2
Nsg17
S'BL              printk'
p324
sg19
S'703e1a94'
p325
sg21
Vbl #0x68f9c0
p326
sg5
L18446743798839636136L
sg6
Nsg23
S'BL'
p327
sg25
S'0xffffffc00079f0a8L'
p328
sg27
Nsba(ibclass
BInstr
p329
(dp330
g2
Nsg17
S'B               loc_FFFFFFC00079F3D0'
p331
sg19
S'c9000014'
p332
sg21
Vb #0x324
p333
sg5
L18446743798839636140L
sg6
Nsg23
S'B'
p334
sg25
S'0xffffffc00079f0acL'
p335
sg27
Nsbasg84
(lp336
S'ADRP reg, #__func__.34388@PAGE'
p337
aS'ADRP reg, #func@PAGE'
p338
aS'ADRP reg, #(aQcomMdssDsi_17+0x1B)@PAGE'
p339
aS'ADD reg, reg, #__func__.34388@PAGEOFF'
p340
aS'ADD reg, reg, #(aQcomMdssDsi_17+0x1B)@PAGEOFF'
p341
aS'ADD reg, reg, #0x110'
p342
aS'ADD reg, reg, #func@PAGEOFF'
p343
aS'BL printk'
p344
aS'B func'
p345
asg95
Nsg5
S'0xffffffc00079f08cL'
p346
sg97
(lp347
S'0xffffffc00079f078L'
p348
asg6
Nsg99
(lp349
S'0xffffffc00079f3d0L'
p350
asg103
Nsg104
Nsg105
S'8d01fe9050abe03509e35279925e126f'
p351
sg107
S'56039d72fe2f0f5029d7f2ba706d5cf8'
p352
sg109
(lp353
g278
ag285
ag292
ag299
ag306
ag313
ag320
ag327
ag334
asg111
Nsba(ibclass
BBasicBlock
p354
(dp355
g12
Nsg13
(lp356
(ibclass
BInstr
p357
(dp358
g2
Nsg17
S'LDR             W0, [X0,#0x90]'
p359
sg19
S'009040b9'
p360
sg21
Vldr w0, [x0, #0x90]
p361
sg5
L18446743798839636144L
sg6
Nsg23
S'LDR'
p362
sg25
S'0xffffffc00079f0b0L'
p363
sg27
Nsba(ibclass
BInstr
p364
(dp365
g2
Nsg17
S'CMP             W0, #0x11'
p366
sg19
S'1f440071'
p367
sg21
Vcmp w0, #0x11
p368
sg5
L18446743798839636148L
sg6
Nsg23
S'CMP'
p369
sg25
S'0xffffffc00079f0b4L'
p370
sg27
Nsba(ibclass
BInstr
p371
(dp372
g2
Nsg17
S'B.EQ            loc_FFFFFFC00079F0C8'
p373
sg19
S'80000054'
p374
sg21
Vb.eq #0x10
p375
sg5
L18446743798839636152L
sg6
Nsg23
g334
sg25
S'0xffffffc00079f0b8L'
p376
sg27
Nsbasg84
(lp377
S'LDR reg, mem'
p378
aS'CMP reg, #0x11'
p379
aS'B.EQ func'
p380
asg95
Nsg5
S'0xffffffc00079f0b0L'
p381
sg97
(lp382
S'0xffffffc00079f060L'
p383
asg6
Nsg99
(lp384
S'0xffffffc00079f0bcL'
p385
aS'0xffffffc00079f0c8L'
p386
asg103
Nsg104
Nsg105
S'fa4df767a85c49648339e2dc5c6807f6'
p387
sg107
S'541e1f718f123ee878040bbdd837c628'
p388
sg109
(lp389
g362
ag369
ag334
asg111
Nsba(ibclass
BBasicBlock
p390
(dp391
g12
Nsg13
(lp392
(ibclass
BInstr
p393
(dp394
g2
Nsg17
S'LDR             W0, [X1,#0x910]'
p395
sg19
S'201049b9'
p396
sg21
Vldr w0, [x1, #0x910]
p397
sg5
L18446743798839636156L
sg6
Nsg23
S'LDR'
p398
sg25
S'0xffffffc00079f0bcL'
p399
sg27
Nsba(ibclass
BInstr
p400
(dp401
g2
Nsg17
S'CMP             W0, #4'
p402
sg19
S'1f100071'
p403
sg21
Vcmp w0, #4
p404
sg5
L18446743798839636160L
sg6
Nsg23
S'CMP'
p405
sg25
S'0xffffffc00079f0c0L'
p406
sg27
Nsba(ibclass
BInstr
p407
(dp408
g2
Nsg17
S'B.NE            loc_FFFFFFC00079F104'
p409
sg19
S'01020054'
p410
sg21
Vb.ne #0x40
p411
sg5
L18446743798839636164L
sg6
Nsg23
g334
sg25
S'0xffffffc00079f0c4L'
p412
sg27
Nsbasg84
(lp413
S'LDR reg, mem'
p414
aS'CMP reg, #4'
p415
aS'B.NE func'
p416
asg95
Nsg5
S'0xffffffc00079f0bcL'
p417
sg97
(lp418
S'0xffffffc00079f0b0L'
p419
asg6
Nsg99
(lp420
S'0xffffffc00079f0c8L'
p421
aS'0xffffffc00079f104L'
p422
asg103
Nsg104
Nsg105
S'fa4df767a85c49648339e2dc5c6807f6'
p423
sg107
S'c6de610e6fa451c4f6142072e6b82f0e'
p424
sg109
(lp425
g398
ag405
ag334
asg111
Nsba(ibclass
BBasicBlock
p426
(dp427
g12
Nsg13
(lp428
(ibclass
BInstr
p429
(dp430
g2
Nsg17
S'ADRP            X0, #qword_FFFFFFC000E458A0@PAGE'
p431
sg19
S'203500d0'
p432
sg21
Vadrp x0, #0x6a6000
p433
sg5
L18446743798839636168L
sg6
Nsg23
S'ADRP'
p434
sg25
S'0xffffffc00079f0c8L'
p435
sg27
Nsba(ibclass
BInstr
p436
(dp437
g2
Nsg17
S'LDR             X0, [X0,#qword_FFFFFFC000E458A0@PAGEOFF]'
p438
sg19
S'005044f9'
p439
sg21
Vldr x0, [x0, #0x8a0]
p440
sg5
L18446743798839636172L
sg6
Nsg23
S'LDR'
p441
sg25
S'0xffffffc00079f0ccL'
p442
sg27
Nsba(ibclass
BInstr
p443
(dp444
g2
Nsg17
S'LDR             W0, [X0]'
p445
sg19
S'000040b9'
p446
sg21
Vldr w0, [x0]
p447
sg5
L18446743798839636176L
sg6
Nsg23
S'LDR'
p448
sg25
S'0xffffffc00079f0d0L'
p449
sg27
Nsba(ibclass
BInstr
p450
(dp451
g2
Nsg17
S'TBZ             W0, #0, loc_FFFFFFC00079F3CC'
p452
sg19
S'c0170036'
p453
sg21
Vtbz w0, #0, #0x2f8
p454
sg5
L18446743798839636180L
sg6
Nsg23
S'TBZ'
p455
sg25
S'0xffffffc00079f0d4L'
p456
sg27
Nsbasg84
(lp457
S'ADRP reg, #func@PAGE'
p458
aS'LDR reg, mem'
p459
aS'LDR reg, mem'
p460
aS'TBZ reg, #0, func'
p461
asg95
Nsg5
S'0xffffffc00079f0c8L'
p462
sg97
(lp463
S'0xffffffc00079f0b0L'
p464
aS'0xffffffc00079f0bcL'
p465
asg6
Nsg99
(lp466
S'0xffffffc00079f0d8L'
p467
aS'0xffffffc00079f3ccL'
p468
asg103
Nsg104
Nsg105
S'2de94c9e326481f2f467f11acce8dcc9'
p469
sg107
S'f9f7225e2bae36aff04e5d93bafe5e1d'
p470
sg109
(lp471
g434
ag441
ag448
ag455
asg111
Nsba(ibclass
BBasicBlock
p472
(dp473
g12
Nsg13
(lp474
(ibclass
BInstr
p475
(dp476
g2
Nsg17
S'ADRP            X0, #qword_FFFFFFC000E43D48@PAGE'
p477
sg19
S'20350090'
p478
sg21
Vadrp x0, #0x6a4000
p479
sg5
L18446743798839636184L
sg6
Nsg23
S'ADRP'
p480
sg25
S'0xffffffc00079f0d8L'
p481
sg27
Nsba(ibclass
BInstr
p482
(dp483
g2
Nsg17
S'LDR             X0, [X0,#qword_FFFFFFC000E43D48@PAGEOFF]'
p484
sg19
S'00a446f9'
p485
sg21
Vldr x0, [x0, #0xd48]
p486
sg5
L18446743798839636188L
sg6
Nsg23
S'LDR'
p487
sg25
S'0xffffffc00079f0dcL'
p488
sg27
Nsba(ibclass
BInstr
p489
(dp490
g2
Nsg17
S'MOV             W19, #0xFFFFFFF5'
p491
sg19
S'53018012'
p492
sg21
Vmovn w19, #0xa
p493
sg5
L18446743798839636192L
sg6
Nsg23
S'MOV'
p494
sg25
S'0xffffffc00079f0e0L'
p495
sg27
Nsba(ibclass
BInstr
p496
(dp497
g2
Nsg17
S'LDR             W0, [X0]'
p498
sg19
S'000040b9'
p499
sg21
Vldr w0, [x0]
p500
sg5
L18446743798839636196L
sg6
Nsg23
S'LDR'
p501
sg25
S'0xffffffc00079f0e4L'
p502
sg27
Nsba(ibclass
BInstr
p503
(dp504
g2
Nsg17
S'CBNZ            W0, loc_FFFFFFC00079F3D0'
p505
sg19
S'40170035'
p506
sg21
Vcbnz w0, #0x2e8
p507
sg5
L18446743798839636200L
sg6
Nsg23
S'CBNZ'
p508
sg25
S'0xffffffc00079f0e8L'
p509
sg27
Nsbasg84
(lp510
S'ADRP reg, #func@PAGE'
p511
aS'LDR reg, mem'
p512
aS'MOV reg9, #0xFFFFFFF5'
p513
aS'LDR reg, mem'
p514
aS'CBNZ reg, func'
p515
asg95
Nsg5
S'0xffffffc00079f0d8L'
p516
sg97
(lp517
S'0xffffffc00079f0c8L'
p518
asg6
Nsg99
(lp519
S'0xffffffc00079f0ecL'
p520
aS'0xffffffc00079f3d0L'
p521
asg103
Nsg104
Nsg105
S'd80cc6d531f24a5b2d60307977d236c7'
p522
sg107
S'540ebe718cea02729b5950f111563b50'
p523
sg109
(lp524
g480
ag487
ag494
ag501
ag508
asg111
Nsba(ibclass
BBasicBlock
p525
(dp526
g12
Nsg13
(lp527
(ibclass
BInstr
p528
(dp529
g2
Nsg17
S'ADRP            X0, #unk_FFFFFFC0013B7A8E@PAGE'
p530
sg19
S'c0600090'
p531
sg21
Vadrp x0, #0xc18000
p532
sg5
L18446743798839636204L
sg6
Nsg23
S'ADRP'
p533
sg25
S'0xffffffc00079f0ecL'
p534
sg27
Nsba(ibclass
BInstr
p535
(dp536
g2
Nsg17
S'ADRP            X1, #(aQcomMdssDsi_17+0x1B)@PAGE; "err"'
p537
sg19
S'815c0090'
p538
sg21
Vadrp x1, #0xb90000
p539
sg5
L18446743798839636208L
sg6
Nsg23
S'ADRP'
p540
sg25
S'0xffffffc00079f0f0L'
p541
sg27
Nsba(ibclass
BInstr
p542
(dp543
g2
Nsg17
S'ADD             X1, X1, #(aQcomMdssDsi_17+0x1B)@PAGEOFF; "err"'
p544
sg19
S'21800091'
p545
sg21
Vadd x1, x1, #0x20
p546
sg5
L18446743798839636212L
sg6
Nsg23
S'ADD'
p547
sg25
S'0xffffffc00079f0f4L'
p548
sg27
Nsba(ibclass
BInstr
p549
(dp550
g2
Nsg17
S'ADD             X0, X0, #unk_FFFFFFC0013B7A8E@PAGEOFF'
p551
sg19
S'00382a91'
p552
sg21
Vadd x0, x0, #0xa8e
p553
sg5
L18446743798839636216L
sg6
Nsg23
S'ADD'
p554
sg25
S'0xffffffc00079f0f8L'
p555
sg27
Nsba(ibclass
BInstr
p556
(dp557
g2
Nsg17
S'BL              printk'
p558
sg19
S'5b3e1a94'
p559
sg21
Vbl #0x68f96c
p560
sg5
L18446743798839636220L
sg6
Nsg23
S'BL'
p561
sg25
S'0xffffffc00079f0fcL'
p562
sg27
Nsba(ibclass
BInstr
p563
(dp564
g2
Nsg17
S'B               loc_FFFFFFC00079F3D0'
p565
sg19
S'b4000014'
p566
sg21
Vb #0x2d0
p567
sg5
L18446743798839636224L
sg6
Nsg23
g334
sg25
S'0xffffffc00079f100L'
p568
sg27
Nsbasg84
(lp569
S'ADRP reg, #func@PAGE'
p570
aS'ADRP reg, #(aQcomMdssDsi_17+0x1B)@PAGE'
p571
aS'ADD reg, reg, #(aQcomMdssDsi_17+0x1B)@PAGEOFF'
p572
aS'ADD reg, reg, #func@PAGEOFF'
p573
aS'BL printk'
p574
aS'B func'
p575
asg95
Nsg5
S'0xffffffc00079f0ecL'
p576
sg97
(lp577
S'0xffffffc00079f0d8L'
p578
asg6
Nsg99
(lp579
S'0xffffffc00079f3d0L'
p580
asg103
Nsg104
Nsg105
S'b2a3927201f2643e37e238d870ced3c2'
p581
sg107
S'3e167cdac8f124cfbacea29ee5c30eb0'
p582
sg109
(lp583
g533
ag540
ag547
ag554
ag561
ag334
asg111
Nsba(ibclass
BBasicBlock
p584
(dp585
g12
Nsg13
(lp586
(ibclass
BInstr
p587
(dp588
g2
Nsg17
S'ADD             X22, X19, #0x10'
p589
sg19
S'76420091'
p590
sg21
Vadd x22, x19, #0x10
p591
sg5
L18446743798839636228L
sg6
Nsg23
S'ADD'
p592
sg25
S'0xffffffc00079f104L'
p593
sg27
Nsba(ibclass
BInstr
p594
(dp595
g2
Nsg17
S'MOV             X0, X22'
p596
sg19
S'e00316aa'
p597
sg21
Vmov x0, x22
p598
sg5
L18446743798839636232L
sg6
Nsg23
S'MOV'
p599
sg25
S'0xffffffc00079f108L'
p600
sg27
Nsba(ibclass
BInstr
p601
(dp602
g2
Nsg17
S'BL              mutex_lock'
p603
sg19
S'b8721a94'
p604
sg21
Vbl #0x69cae0
p605
sg5
L18446743798839636236L
sg6
Nsg23
S'BL'
p606
sg25
S'0xffffffc00079f10cL'
p607
sg27
Nsba(ibclass
BInstr
p608
(dp609
g2
Nsg17
S'LDR             W0, [X19,#0x90]'
p610
sg19
S'609240b9'
p611
sg21
Vldr w0, [x19, #0x90]
p612
sg5
L18446743798839636240L
sg6
Nsg23
S'LDR'
p613
sg25
S'0xffffffc00079f110L'
p614
sg27
Nsba(ibclass
BInstr
p615
(dp616
g2
Nsg17
S'SUB             W0, W0, #5'
p617
sg19
S'00140051'
p618
sg21
Vsub w0, w0, #5
p619
sg5
L18446743798839636244L
sg6
Nsg23
S'SUB'
p620
sg25
S'0xffffffc00079f114L'
p621
sg27
Nsba(ibclass
BInstr
p622
(dp623
g2
Nsg17
S'CMP             W0, #8'
p624
sg19
S'1f200071'
p625
sg21
Vcmp w0, #8
p626
sg5
L18446743798839636248L
sg6
Nsg23
S'CMP'
p627
sg25
S'0xffffffc00079f118L'
p628
sg27
Nsba(ibclass
BInstr
p629
(dp630
g2
Nsg17
S'B.LS            loc_FFFFFFC00079F168'
p631
sg19
S'69020054'
p632
sg21
Vb.ls #0x4c
p633
sg5
L18446743798839636252L
sg6
Nsg23
g334
sg25
S'0xffffffc00079f11cL'
p634
sg27
Nsbasg84
(lp635
S'ADD reg2, reg9, #0x10'
p636
aS'MOV reg, reg2'
p637
aS'BL mutex_lock'
p638
aS'LDR reg, mem'
p639
aS'SUB reg, reg, #5'
p640
aS'CMP reg, #8'
p641
aS'B.LS func'
p642
asg95
Nsg5
S'0xffffffc00079f104L'
p643
sg97
(lp644
S'0xffffffc00079f0bcL'
p645
asg6
Nsg99
(lp646
S'0xffffffc00079f120L'
p647
aS'0xffffffc00079f168L'
p648
asg103
Nsg104
Nsg105
S'e724c790271ca30e645b9e8021326a44'
p649
sg107
S'b4a31263104452cb3dbb229ca8d4c710'
p650
sg109
(lp651
g592
ag599
ag606
ag613
ag620
ag627
ag334
asg111
Nsba(ibclass
BBasicBlock
p652
(dp653
g12
Nsg13
(lp654
(ibclass
BInstr
p655
(dp656
g2
Nsg17
S'ADRP            X0, #qword_FFFFFFC000E458A0@PAGE'
p657
sg19
S'203500d0'
p658
sg21
Vadrp x0, #0x6a6000
p659
sg5
L18446743798839636256L
sg6
Nsg23
S'ADRP'
p660
sg25
S'0xffffffc00079f120L'
p661
sg27
Nsba(ibclass
BInstr
p662
(dp663
g2
Nsg17
S'LDR             X0, [X0,#qword_FFFFFFC000E458A0@PAGEOFF]'
p664
sg19
S'005044f9'
p665
sg21
Vldr x0, [x0, #0x8a0]
p666
sg5
L18446743798839636260L
sg6
Nsg23
S'LDR'
p667
sg25
S'0xffffffc00079f124L'
p668
sg27
Nsba(ibclass
BInstr
p669
(dp670
g2
Nsg17
S'LDR             W0, [X0]'
p671
sg19
S'000040b9'
p672
sg21
Vldr w0, [x0]
p673
sg5
L18446743798839636264L
sg6
Nsg23
S'LDR'
p674
sg25
S'0xffffffc00079f128L'
p675
sg27
Nsba(ibclass
BInstr
p676
(dp677
g2
Nsg17
S'TBZ             W0, #0, loc_FFFFFFC00079F160'
p678
sg19
S'a0010036'
p679
sg21
Vtbz w0, #0, #0x34
p680
sg5
L18446743798839636268L
sg6
Nsg23
S'TBZ'
p681
sg25
S'0xffffffc00079f12cL'
p682
sg27
Nsbasg84
(lp683
S'ADRP reg, #func@PAGE'
p684
aS'LDR reg, mem'
p685
aS'LDR reg, mem'
p686
aS'TBZ reg, #0, func'
p687
asg95
Nsg5
S'0xffffffc00079f120L'
p688
sg97
(lp689
S'0xffffffc00079f104L'
p690
asg6
Nsg99
(lp691
S'0xffffffc00079f130L'
p692
aS'0xffffffc00079f160L'
p693
asg103
Nsg104
Nsg105
S'2de94c9e326481f2f467f11acce8dcc9'
p694
sg107
S'f9f7225e2bae36aff04e5d93bafe5e1d'
p695
sg109
(lp696
g660
ag667
ag674
ag681
asg111
Nsba(ibclass
BBasicBlock
p697
(dp698
g12
Nsg13
(lp699
(ibclass
BInstr
p700
(dp701
g2
Nsg17
S'ADRP            X0, #qword_FFFFFFC000E43D48@PAGE'
p702
sg19
S'20350090'
p703
sg21
Vadrp x0, #0x6a4000
p704
sg5
L18446743798839636272L
sg6
Nsg23
S'ADRP'
p705
sg25
S'0xffffffc00079f130L'
p706
sg27
Nsba(ibclass
BInstr
p707
(dp708
g2
Nsg17
S'LDR             X0, [X0,#qword_FFFFFFC000E43D48@PAGEOFF]'
p709
sg19
S'00a446f9'
p710
sg21
Vldr x0, [x0, #0xd48]
p711
sg5
L18446743798839636276L
sg6
Nsg23
S'LDR'
p712
sg25
S'0xffffffc00079f134L'
p713
sg27
Nsba(ibclass
BInstr
p714
(dp715
g2
Nsg17
S'LDR             W0, [X0]'
p716
sg19
S'000040b9'
p717
sg21
Vldr w0, [x0]
p718
sg5
L18446743798839636280L
sg6
Nsg23
S'LDR'
p719
sg25
S'0xffffffc00079f138L'
p720
sg27
Nsba(ibclass
BInstr
p721
(dp722
g2
Nsg17
S'CBNZ            W0, loc_FFFFFFC00079F160'
p723
sg19
S'20010035'
p724
sg21
Vcbnz w0, #0x24
p725
sg5
L18446743798839636284L
sg6
Nsg23
S'CBNZ'
p726
sg25
S'0xffffffc00079f13cL'
p727
sg27
Nsbasg84
(lp728
S'ADRP reg, #func@PAGE'
p729
aS'LDR reg, mem'
p730
aS'LDR reg, mem'
p731
aS'CBNZ reg, func'
p732
asg95
Nsg5
S'0xffffffc00079f130L'
p733
sg97
(lp734
S'0xffffffc00079f120L'
p735
asg6
Nsg99
(lp736
S'0xffffffc00079f140L'
p737
aS'0xffffffc00079f160L'
p738
asg103
Nsg104
Nsg105
S'9c97521b8b0f280d47a50ec9a5e4f86f'
p739
sg107
S'bd26f8893557dc5fa132ff2490be0ebf'
p740
sg109
(lp741
g705
ag712
ag719
ag726
asg111
Nsba(ibclass
BBasicBlock
p742
(dp743
g12
Nsg13
(lp744
(ibclass
BInstr
p745
(dp746
g2
Nsg17
S'ADRP            X0, #unk_FFFFFFC0013B7ACF@PAGE'
p747
sg19
S'c0600090'
p748
sg21
Vadrp x0, #0xc18000
p749
sg5
L18446743798839636288L
sg6
Nsg23
S'ADRP'
p750
sg25
S'0xffffffc00079f140L'
p751
sg27
Nsba(ibclass
BInstr
p752
(dp753
g2
Nsg17
S'ADD             X0, X0, #unk_FFFFFFC0013B7ACF@PAGEOFF'
p754
sg19
S'003c2b91'
p755
sg21
Vadd x0, x0, #0xacf
p756
sg5
L18446743798839636292L
sg6
Nsg23
S'ADD'
p757
sg25
S'0xffffffc00079f144L'
p758
sg27
Nsbasg84
(lp759
S'ADRP reg, #func@PAGE'
p760
aS'ADD reg, reg, #func@PAGEOFF'
p761
asg95
Nsg5
S'0xffffffc00079f140L'
p762
sg97
(lp763
S'0xffffffc00079f130L'
p764
asg6
Nsg99
(lp765
S'0xffffffc00079f148L'
p766
asg103
Nsg104
Nsg105
S'4c330fd47d9d30794e360f434bcba16f'
p767
sg107
S'5d0c12c1c2f0dc35884d116bfd571de9'
p768
sg109
(lp769
g750
ag757
asg111
Nsba(ibclass
BBasicBlock
p770
(dp771
g12
Nsg13
(lp772
(ibclass
BInstr
p773
(dp774
g2
Nsg17
S'ADRP            X2, #__func__.34388@PAGE; "msm_vidc_check_scaling_supported"'
p775
sg19
S'424500d0'
p776
sg21
Vadrp x2, #0x8aa000
p777
sg5
L18446743798839636296L
sg6
Nsg23
S'ADRP'
p778
sg25
S'0xffffffc00079f148L'
p779
sg27
Nsba(ibclass
BInstr
p780
(dp781
g2
Nsg17
S'ADRP            X1, #(aQcomMdssDsi_17+0x1B)@PAGE; "err"'
p782
sg19
S'815c0090'
p783
sg21
Vadrp x1, #0xb90000
p784
sg5
L18446743798839636300L
sg6
Nsg23
S'ADRP'
p785
sg25
S'0xffffffc00079f14cL'
p786
sg27
Nsba(ibclass
BInstr
p787
(dp788
g2
Nsg17
S'ADD             X2, X2, #__func__.34388@PAGEOFF; "msm_vidc_check_scaling_supported"'
p789
sg19
S'42a02391'
p790
sg21
Vadd x2, x2, #0x8e8
p791
sg5
L18446743798839636304L
sg6
Nsg23
S'ADD'
p792
sg25
S'0xffffffc00079f150L'
p793
sg27
Nsba(ibclass
BInstr
p794
(dp795
g2
Nsg17
S'ADD             X1, X1, #(aQcomMdssDsi_17+0x1B)@PAGEOFF; "err"'
p796
sg19
S'21800091'
p797
sg21
Vadd x1, x1, #0x20
p798
sg5
L18446743798839636308L
sg6
Nsg23
S'ADD'
p799
sg25
S'0xffffffc00079f154L'
p800
sg27
Nsba(ibclass
BInstr
p801
(dp802
g2
Nsg17
S'ADD             X2, X2, #0x110'
p803
sg19
S'42400491'
p804
sg21
Vadd x2, x2, #0x110
p805
sg5
L18446743798839636312L
sg6
Nsg23
S'ADD'
p806
sg25
S'0xffffffc00079f158L'
p807
sg27
Nsba(ibclass
BInstr
p808
(dp809
g2
Nsg17
S'BL              printk'
p810
sg19
S'433e1a94'
p811
sg21
Vbl #0x68f90c
p812
sg5
L18446743798839636316L
sg6
Nsg23
S'BL'
p813
sg25
S'0xffffffc00079f15cL'
p814
sg27
Nsbasg84
(lp815
S'ADRP reg, #__func__.34388@PAGE'
p816
aS'ADRP reg, #(aQcomMdssDsi_17+0x1B)@PAGE'
p817
aS'ADD reg, reg, #__func__.34388@PAGEOFF'
p818
aS'ADD reg, reg, #(aQcomMdssDsi_17+0x1B)@PAGEOFF'
p819
aS'ADD reg, reg, #0x110'
p820
aS'BL printk'
p821
asg95
Nsg5
S'0xffffffc00079f148L'
p822
sg97
(lp823
S'0xffffffc00079f140L'
p824
aS'0xffffffc00079f1e4L'
p825
asg6
Nsg99
(lp826
S'0xffffffc00079f160L'
p827
asg103
Nsg104
Nsg105
S'e4dcad9e7cd2c60a0b76a9fee40dbab3'
p828
sg107
S'20ec75b4165c1346ea541f7332161d0e'
p829
sg109
(lp830
g778
ag785
ag792
ag799
ag806
ag813
asg111
Nsba(ibclass
BBasicBlock
p831
(dp832
g12
Nsg13
(lp833
(ibclass
BInstr
p834
(dp835
g2
Nsg17
S'MOV             W19, #0xFFFFFFF5'
p836
sg19
S'53018012'
p837
sg21
Vmovn w19, #0xa
p838
sg5
L18446743798839636320L
sg6
Nsg23
S'MOV'
p839
sg25
S'0xffffffc00079f160L'
p840
sg27
Nsba(ibclass
BInstr
p841
(dp842
g2
Nsg17
S'B               loc_FFFFFFC00079F3B8'
p843
sg19
S'95000014'
p844
sg21
Vb #0x254
p845
sg5
L18446743798839636324L
sg6
Nsg23
g334
sg25
S'0xffffffc00079f164L'
p846
sg27
Nsbasg84
(lp847
S'MOV reg9, #0xFFFFFFF5'
p848
aS'B func'
p849
asg95
Nsg5
S'0xffffffc00079f160L'
p850
sg97
(lp851
S'0xffffffc00079f120L'
p852
aS'0xffffffc00079f130L'
p853
aS'0xffffffc00079f148L'
p854
aS'0xffffffc00079f1c4L'
p855
aS'0xffffffc00079f1d4L'
p856
aS'0xffffffc00079f204L'
p857
aS'0xffffffc00079f214L'
p858
aS'0xffffffc00079f224L'
p859
asg6
Nsg99
(lp860
S'0xffffffc00079f3b8L'
p861
asg103
Nsg104
Nsg105
S'b6c4e95ccfe77a95e4cf2019dd3d5574'
p862
sg107
S'1fee1d790aa7dd580b6fcbc15ce47ce1'
p863
sg109
(lp864
g839
ag334
asg111
Nsba(ibclass
BBasicBlock
p865
(dp866
g12
Nsg13
(lp867
(ibclass
BInstr
p868
(dp869
g2
Nsg17
S'ADRP            X1, #aXWait@PAGE; "&x->wait"'
p870
sg19
S'415a00f0'
p871
sg21
Vadrp x1, #0xb4b000
p872
sg5
L18446743798839636328L
sg6
Nsg23
S'ADRP'
p873
sg25
S'0xffffffc00079f168L'
p874
sg27
Nsba(ibclass
BInstr
p875
(dp876
g2
Nsg17
S'ADRP            X2, #dbg_buf@PAGE'
p877
sg19
S'c2ac0090'
p878
sg21
Vadrp x2, #0x1598000
p879
sg5
L18446743798839636332L
sg6
Nsg23
S'ADRP'
p880
sg25
S'0xffffffc00079f16cL'
p881
sg27
Nsba(ibclass
BInstr
p882
(dp883
g2
Nsg17
S'ADD             X0, X19, #0xC60'
p884
sg19
S'60823191'
p885
sg21
Vadd x0, x19, #0xc60
p886
sg5
L18446743798839636336L
sg6
Nsg23
S'ADD'
p887
sg25
S'0xffffffc00079f170L'
p888
sg27
Nsba(ibclass
BInstr
p889
(dp890
g2
Nsg17
S'STR             WZR, [X19,#0xC58]'
p891
sg19
S'7f5a0cb9'
p892
sg21
Vstr wzr, [x19, #0xc58]
p893
sg5
L18446743798839636340L
sg6
Nsg23
S'STR'
p894
sg25
S'0xffffffc00079f174L'
p895
sg27
Nsba(ibclass
BInstr
p896
(dp897
g2
Nsg17
S'ADD             X1, X1, #aXWait@PAGEOFF; "&x->wait"'
p898
sg19
S'212c3e91'
p899
sg21
Vadd x1, x1, #0xf8b
p900
sg5
L18446743798839636344L
sg6
Nsg23
S'ADD'
p901
sg25
S'0xffffffc00079f178L'
p902
sg27
Nsba(ibclass
BInstr
p903
(dp904
g2
Nsg17
S'ADD             X2, X2, #dbg_buf@PAGEOFF'
p905
sg19
S'42e02d91'
p906
sg21
Vadd x2, x2, #0xb78
p907
sg5
L18446743798839636348L
sg6
Nsg23
S'ADD'
p908
sg25
S'0xffffffc00079f17cL'
p909
sg27
Nsba(ibclass
BInstr
p910
(dp911
g2
Nsg17
S'BL              __init_waitqueue_head'
p912
sg19
S'8d7bea97'
p913
sg21
Vbl #0xffffffffffa9ee34
p914
sg5
L18446743798839636352L
sg6
Nsg23
S'BL'
p915
sg25
S'0xffffffc00079f180L'
p916
sg27
Nsba(ibclass
BInstr
p917
(dp918
g2
Nsg17
S'MOV             W0, #0x19'
p919
sg19
S'20038052'
p920
sg21
Vmovz w0, #0x19
p921
sg5
L18446743798839636356L
sg6
Nsg23
S'MOV'
p922
sg25
S'0xffffffc00079f184L'
p923
sg27
Nsba(ibclass
BInstr
p924
(dp925
g2
Nsg17
S'MOVK            W0, #0x400,LSL#16'
p926
sg19
S'0080a072'
p927
sg21
Vmovk w0, #0x400, lsl #16
p928
sg5
L18446743798839636360L
sg6
Nsg23
S'MOVK'
p929
sg25
S'0xffffffc00079f188L'
p930
sg27
Nsba(ibclass
BInstr
p931
(dp932
g2
Nsg17
S'CMP             W20, W0'
p933
sg19
S'9f02006b'
p934
sg21
Vcmp w20, w0
p935
sg5
L18446743798839636364L
sg6
Nsg23
S'CMP'
p936
sg25
S'0xffffffc00079f18cL'
p937
sg27
Nsba(ibclass
BInstr
p938
(dp939
g2
Nsg17
S'B.EQ            loc_FFFFFFC00079F1A8'
p940
sg19
S'c0000054'
p941
sg21
Vb.eq #0x18
p942
sg5
L18446743798839636368L
sg6
Nsg23
g334
sg25
S'0xffffffc00079f190L'
p943
sg27
Nsbasg84
(lp944
S'ADRP reg, #aXWait@PAGE'
p945
aS'ADRP reg, #dbg_buf@PAGE'
p946
aS'ADD reg, reg9, #0xC60'
p947
aS'STR WZR, mem'
p948
aS'ADD reg, reg, #aXWait@PAGEOFF'
p949
aS'ADD reg, reg, #dbg_buf@PAGEOFF'
p950
aS'BL __init_waitqueue_head'
p951
aS'MOV reg, #0x19'
p952
aS'MOVK reg, #0x400,LSL#16'
p953
aS'CMP reg0, reg'
p954
aS'B.EQ func'
p955
asg95
Nsg5
S'0xffffffc00079f168L'
p956
sg97
(lp957
S'0xffffffc00079f104L'
p958
asg6
Nsg99
(lp959
S'0xffffffc00079f194L'
p960
aS'0xffffffc00079f1a8L'
p961
asg103
Nsg104
Nsg105
S'f2d409a3cc434a96925c6555d1f49605'
p962
sg107
S'7bdedf486e4efed977e860b891eb0e79'
p963
sg109
(lp964
g873
ag880
ag887
ag894
ag901
ag908
ag915
ag922
ag929
ag936
ag334
asg111
Nsba(ibclass
BBasicBlock
p965
(dp966
g12
Nsg13
(lp967
(ibclass
BInstr
p968
(dp969
g2
Nsg17
S'MOV             W0, #0x50'
p970
sg19
S'000a8052'
p971
sg21
Vmovz w0, #0x50
p972
sg5
L18446743798839636372L
sg6
Nsg23
S'MOV'
p973
sg25
S'0xffffffc00079f194L'
p974
sg27
Nsba(ibclass
BInstr
p975
(dp976
g2
Nsg17
S'MOVK            W0, #0x400,LSL#16'
p977
sg19
S'0080a072'
p978
sg21
Vmovk w0, #0x400, lsl #16
p979
sg5
L18446743798839636376L
sg6
Nsg23
S'MOVK'
p980
sg25
S'0xffffffc00079f198L'
p981
sg27
Nsba(ibclass
BInstr
p982
(dp983
g2
Nsg17
S'CMP             W20, W0'
p984
sg19
S'9f02006b'
p985
sg21
Vcmp w20, w0
p986
sg5
L18446743798839636380L
sg6
Nsg23
S'CMP'
p987
sg25
S'0xffffffc00079f19cL'
p988
sg27
Nsba(ibclass
BInstr
p989
(dp990
g2
Nsg17
S'B.EQ            loc_FFFFFFC00079F1F0'
p991
sg19
S'80020054'
p992
sg21
Vb.eq #0x50
p993
sg5
L18446743798839636384L
sg6
Nsg23
g334
sg25
S'0xffffffc00079f1a0L'
p994
sg27
Nsbasg84
(lp995
S'MOV reg, #0x50'
p996
aS'MOVK reg, #0x400,LSL#16'
p997
aS'CMP reg0, reg'
p998
aS'B.EQ func'
p999
asg95
Nsg5
S'0xffffffc00079f194L'
p1000
sg97
(lp1001
S'0xffffffc00079f168L'
p1002
asg6
Nsg99
(lp1003
S'0xffffffc00079f1a4L'
p1004
aS'0xffffffc00079f1f0L'
p1005
asg103
Nsg104
Nsg105
S'fbe85b71e0db4b451ef16ba1f8d96770'
p1006
sg107
S'eb16791c97806cba5fa7f72edafa7c8b'
p1007
sg109
(lp1008
g973
ag980
ag987
ag334
asg111
Nsba(ibclass
BBasicBlock
p1009
(dp1010
g12
Nsg13
(lp1011
(ibclass
BInstr
p1012
(dp1013
g2
Nsg17
S'B               loc_FFFFFFC00079F23C'
p1014
sg19
S'26000014'
p1015
sg21
Vb #0x98
p1016
sg5
L18446743798839636388L
sg6
Nsg23
g334
sg25
S'0xffffffc00079f1a4L'
p1017
sg27
Nsbasg84
(lp1018
S'B func'
p1019
asg95
Nsg5
S'0xffffffc00079f1a4L'
p1020
sg97
(lp1021
S'0xffffffc00079f194L'
p1022
asg6
Nsg99
(lp1023
S'0xffffffc00079f23cL'
p1024
asg103
Nsg104
Nsg105
S'9d5ed678fe57bcca610140957afab571'
p1025
sg107
S'071b057c420e304c628380fd3541c021'
p1026
sg109
(lp1027
g334
asg111
Nsba(ibclass
BBasicBlock
p1028
(dp1029
g12
Nsg13
(lp1030
(ibclass
BInstr
p1031
(dp1032
g2
Nsg17
S'LDR             X3, [X21,#0xB0]'
p1033
sg19
S'a35a40f9'
p1034
sg21
Vldr x3, [x21, #0xb0]
p1035
sg5
L18446743798839636392L
sg6
Nsg23
S'LDR'
p1036
sg25
S'0xffffffc00079f1a8L'
p1037
sg27
Nsba(ibclass
BInstr
p1038
(dp1039
g2
Nsg17
S'CBZ             X3, loc_FFFFFFC00079F280'
p1040
sg19
S'a30600b4'
p1041
sg21
Vcbz x3, #0xd4
p1042
sg5
L18446743798839636396L
sg6
Nsg23
S'CBZ'
p1043
sg25
S'0xffffffc00079f1acL'
p1044
sg27
Nsbasg84
(lp1045
S'LDR reg, mem'
p1046
aS'CBZ reg, func'
p1047
asg95
Nsg5
S'0xffffffc00079f1a8L'
p1048
sg97
(lp1049
S'0xffffffc00079f168L'
p1050
asg6
Nsg99
(lp1051
S'0xffffffc00079f1b0L'
p1052
aS'0xffffffc00079f280L'
p1053
asg103
Nsg104
Nsg105
S'a0c488049ab653dbdfa1dc805bb83f13'
p1054
sg107
S'33abe016da9abbebb8608f035d51762d'
p1055
sg109
(lp1056
g1036
ag1043
asg111
Nsba(ibclass
BBasicBlock
p1057
(dp1058
g12
Nsg13
(lp1059
(ibclass
BInstr
p1060
(dp1061
g2
Nsg17
S'MOV             W1, #0x19'
p1062
sg19
S'21038052'
p1063
sg21
Vmovz w1, #0x19
p1064
sg5
L18446743798839636400L
sg6
Nsg23
S'MOV'
p1065
sg25
S'0xffffffc00079f1b0L'
p1066
sg27
Nsba(ibclass
BInstr
p1067
(dp1068
g2
Nsg17
S'LDR             X0, [X19,#0x70]'
p1069
sg19
S'603a40f9'
p1070
sg21
Vldr x0, [x19, #0x70]
p1071
sg5
L18446743798839636404L
sg6
Nsg23
S'LDR'
p1072
sg25
S'0xffffffc00079f1b4L'
p1073
sg27
Nsba(ibclass
BInstr
p1074
(dp1075
g2
Nsg17
S'MOVK            W1, #0x400,LSL#16'
p1076
sg19
S'0180a072'
p1077
sg21
Vmovk w1, #0x400, lsl #16
p1078
sg5
L18446743798839636408L
sg6
Nsg23
S'MOVK'
p1079
sg25
S'0xffffffc00079f1b8L'
p1080
sg27
Nsba(ibclass
BInstr
p1081
(dp1082
g2
Nsg17
S'BLR             X3'
p1083
sg19
S'60003fd6'
p1084
sg21
Vblr x3
p1085
sg5
L18446743798839636412L
sg6
Nsg23
S'BLR'
p1086
sg25
S'0xffffffc00079f1bcL'
p1087
sg27
Nsba(ibclass
BInstr
p1088
(dp1089
g2
Nsg17
S'CBZ             W0, loc_FFFFFFC00079F280'
p1090
sg19
S'00060034'
p1091
sg21
Vcbz w0, #0xc0
p1092
sg5
L18446743798839636416L
sg6
Nsg23
S'CBZ'
p1093
sg25
S'0xffffffc00079f1c0L'
p1094
sg27
Nsbasg84
(lp1095
S'MOV reg, #0x19'
p1096
aS'LDR reg, mem'
p1097
aS'MOVK reg, #0x400,LSL#16'
p1098
aS'BLR reg'
p1099
aS'CBZ reg, func'
p1100
asg95
Nsg5
S'0xffffffc00079f1b0L'
p1101
sg97
(lp1102
S'0xffffffc00079f1a8L'
p1103
asg6
Nsg99
(lp1104
S'0xffffffc00079f1c4L'
p1105
aS'0xffffffc00079f280L'
p1106
asg103
Nsg104
Nsg105
S'603f947750b6c97bba35f5eaf49aed14'
p1107
sg107
S'7a46d62c26eb28e65afffbee09aaf6d5'
p1108
sg109
(lp1109
g1065
ag1072
ag1079
ag1086
ag1093
asg111
Nsba(ibclass
BBasicBlock
p1110
(dp1111
g12
Nsg13
(lp1112
(ibclass
BInstr
p1113
(dp1114
g2
Nsg17
S'ADRP            X0, #qword_FFFFFFC000E458A0@PAGE'
p1115
sg19
S'203500d0'
p1116
sg21
Vadrp x0, #0x6a6000
p1117
sg5
L18446743798839636420L
sg6
Nsg23
S'ADRP'
p1118
sg25
S'0xffffffc00079f1c4L'
p1119
sg27
Nsba(ibclass
BInstr
p1120
(dp1121
g2
Nsg17
S'LDR             X0, [X0,#qword_FFFFFFC000E458A0@PAGEOFF]'
p1122
sg19
S'005044f9'
p1123
sg21
Vldr x0, [x0, #0x8a0]
p1124
sg5
L18446743798839636424L
sg6
Nsg23
S'LDR'
p1125
sg25
S'0xffffffc00079f1c8L'
p1126
sg27
Nsba(ibclass
BInstr
p1127
(dp1128
g2
Nsg17
S'LDR             W0, [X0]'
p1129
sg19
S'000040b9'
p1130
sg21
Vldr w0, [x0]
p1131
sg5
L18446743798839636428L
sg6
Nsg23
S'LDR'
p1132
sg25
S'0xffffffc00079f1ccL'
p1133
sg27
Nsba(ibclass
BInstr
p1134
(dp1135
g2
Nsg17
S'TBZ             W0, #0, loc_FFFFFFC00079F160'
p1136
sg19
S'80fc0736'
p1137
sg21
Vtbz w0, #0, #0xffffffffffffff90
p1138
sg5
L18446743798839636432L
sg6
Nsg23
S'TBZ'
p1139
sg25
S'0xffffffc00079f1d0L'
p1140
sg27
Nsbasg84
(lp1141
S'ADRP reg, #func@PAGE'
p1142
aS'LDR reg, mem'
p1143
aS'LDR reg, mem'
p1144
aS'TBZ reg, #0, func'
p1145
asg95
Nsg5
S'0xffffffc00079f1c4L'
p1146
sg97
(lp1147
S'0xffffffc00079f1b0L'
p1148
asg6
Nsg99
(lp1149
S'0xffffffc00079f160L'
p1150
aS'0xffffffc00079f1d4L'
p1151
asg103
Nsg104
Nsg105
S'2de94c9e326481f2f467f11acce8dcc9'
p1152
sg107
S'f9f7225e2bae36aff04e5d93bafe5e1d'
p1153
sg109
(lp1154
g1118
ag1125
ag1132
ag1139
asg111
Nsba(ibclass
BBasicBlock
p1155
(dp1156
g12
Nsg13
(lp1157
(ibclass
BInstr
p1158
(dp1159
g2
Nsg17
S'ADRP            X0, #qword_FFFFFFC000E43D48@PAGE'
p1160
sg19
S'20350090'
p1161
sg21
Vadrp x0, #0x6a4000
p1162
sg5
L18446743798839636436L
sg6
Nsg23
S'ADRP'
p1163
sg25
S'0xffffffc00079f1d4L'
p1164
sg27
Nsba(ibclass
BInstr
p1165
(dp1166
g2
Nsg17
S'LDR             X0, [X0,#qword_FFFFFFC000E43D48@PAGEOFF]'
p1167
sg19
S'00a446f9'
p1168
sg21
Vldr x0, [x0, #0xd48]
p1169
sg5
L18446743798839636440L
sg6
Nsg23
S'LDR'
p1170
sg25
S'0xffffffc00079f1d8L'
p1171
sg27
Nsba(ibclass
BInstr
p1172
(dp1173
g2
Nsg17
S'LDR             W0, [X0]'
p1174
sg19
S'000040b9'
p1175
sg21
Vldr w0, [x0]
p1176
sg5
L18446743798839636444L
sg6
Nsg23
S'LDR'
p1177
sg25
S'0xffffffc00079f1dcL'
p1178
sg27
Nsba(ibclass
BInstr
p1179
(dp1180
g2
Nsg17
S'CBNZ            W0, loc_FFFFFFC00079F160'
p1181
sg19
S'00fcff35'
p1182
sg21
Vcbnz w0, #0xffffffffffffff80
p1183
sg5
L18446743798839636448L
sg6
Nsg23
S'CBNZ'
p1184
sg25
S'0xffffffc00079f1e0L'
p1185
sg27
Nsbasg84
(lp1186
S'ADRP reg, #func@PAGE'
p1187
aS'LDR reg, mem'
p1188
aS'LDR reg, mem'
p1189
aS'CBNZ reg, func'
p1190
asg95
Nsg5
S'0xffffffc00079f1d4L'
p1191
sg97
(lp1192
S'0xffffffc00079f1c4L'
p1193
asg6
Nsg99
(lp1194
S'0xffffffc00079f160L'
p1195
aS'0xffffffc00079f1e4L'
p1196
asg103
Nsg104
Nsg105
S'9c97521b8b0f280d47a50ec9a5e4f86f'
p1197
sg107
S'bd26f8893557dc5fa132ff2490be0ebf'
p1198
sg109
(lp1199
g1163
ag1170
ag1177
ag1184
asg111
Nsba(ibclass
BBasicBlock
p1200
(dp1201
g12
Nsg13
(lp1202
(ibclass
BInstr
p1203
(dp1204
g2
Nsg17
S'ADRP            X0, #unk_FFFFFFC0013B7AF8@PAGE'
p1205
sg19
S'c0600090'
p1206
sg21
Vadrp x0, #0xc18000
p1207
sg5
L18446743798839636452L
sg6
Nsg23
S'ADRP'
p1208
sg25
S'0xffffffc00079f1e4L'
p1209
sg27
Nsba(ibclass
BInstr
p1210
(dp1211
g2
Nsg17
S'ADD             X0, X0, #unk_FFFFFFC0013B7AF8@PAGEOFF'
p1212
sg19
S'00e02b91'
p1213
sg21
Vadd x0, x0, #0xaf8
p1214
sg5
L18446743798839636456L
sg6
Nsg23
S'ADD'
p1215
sg25
S'0xffffffc00079f1e8L'
p1216
sg27
Nsba(ibclass
BInstr
p1217
(dp1218
g2
Nsg17
S'B               loc_FFFFFFC00079F148'
p1219
sg19
S'd7ffff17'
p1220
sg21
Vb #0xffffffffffffff5c
p1221
sg5
L18446743798839636460L
sg6
Nsg23
g334
sg25
S'0xffffffc00079f1ecL'
p1222
sg27
Nsbasg84
(lp1223
S'ADRP reg, #func@PAGE'
p1224
aS'ADD reg, reg, #func@PAGEOFF'
p1225
aS'B func'
p1226
asg95
Nsg5
S'0xffffffc00079f1e4L'
p1227
sg97
(lp1228
S'0xffffffc00079f1d4L'
p1229
asg6
Nsg99
(lp1230
S'0xffffffc00079f148L'
p1231
asg103
Nsg104
Nsg105
S'fbb05d8d8f727699d69de49f56b5b4c8'
p1232
sg107
S'504e84c4ef9350eb8240fe83ea7f699a'
p1233
sg109
(lp1234
g1208
ag1215
ag334
asg111
Nsba(ibclass
BBasicBlock
p1235
(dp1236
g12
Nsg13
(lp1237
(ibclass
BInstr
p1238
(dp1239
g2
Nsg17
S'LDR             X1, [X21,#0x98]'
p1240
sg19
S'a14e40f9'
p1241
sg21
Vldr x1, [x21, #0x98]
p1242
sg5
L18446743798839636464L
sg6
Nsg23
S'LDR'
p1243
sg25
S'0xffffffc00079f1f0L'
p1244
sg27
Nsba(ibclass
BInstr
p1245
(dp1246
g2
Nsg17
S'CBZ             X1, loc_FFFFFFC00079F280'
p1247
sg19
S'610400b4'
p1248
sg21
Vcbz x1, #0x8c
p1249
sg5
L18446743798839636468L
sg6
Nsg23
S'CBZ'
p1250
sg25
S'0xffffffc00079f1f4L'
p1251
sg27
Nsbasg84
(lp1252
S'LDR reg, mem'
p1253
aS'CBZ reg, func'
p1254
asg95
Nsg5
S'0xffffffc00079f1f0L'
p1255
sg97
(lp1256
S'0xffffffc00079f194L'
p1257
asg6
Nsg99
(lp1258
S'0xffffffc00079f1f8L'
p1259
aS'0xffffffc00079f280L'
p1260
asg103
Nsg104
Nsg105
S'a0c488049ab653dbdfa1dc805bb83f13'
p1261
sg107
S'33abe016da9abbebb8608f035d51762d'
p1262
sg109
(lp1263
g1243
ag1250
asg111
Nsba(ibclass
BBasicBlock
p1264
(dp1265
g12
Nsg13
(lp1266
(ibclass
BInstr
p1267
(dp1268
g2
Nsg17
S'LDR             X0, [X19,#0x70]'
p1269
sg19
S'603a40f9'
p1270
sg21
Vldr x0, [x19, #0x70]
p1271
sg5
L18446743798839636472L
sg6
Nsg23
S'LDR'
p1272
sg25
S'0xffffffc00079f1f8L'
p1273
sg27
Nsba(ibclass
BInstr
p1274
(dp1275
g2
Nsg17
S'BLR             X1'
p1276
sg19
S'20003fd6'
p1277
sg21
Vblr x1
p1278
sg5
L18446743798839636476L
sg6
Nsg23
S'BLR'
p1279
sg25
S'0xffffffc00079f1fcL'
p1280
sg27
Nsba(ibclass
BInstr
p1281
(dp1282
g2
Nsg17
S'CBZ             W0, loc_FFFFFFC00079F280'
p1283
sg19
S'00040034'
p1284
sg21
Vcbz w0, #0x80
p1285
sg5
L18446743798839636480L
sg6
Nsg23
S'CBZ'
p1286
sg25
S'0xffffffc00079f200L'
p1287
sg27
Nsbasg84
(lp1288
S'LDR reg, mem'
p1289
aS'BLR reg'
p1290
aS'CBZ reg, func'
p1291
asg95
Nsg5
S'0xffffffc00079f1f8L'
p1292
sg97
(lp1293
S'0xffffffc00079f1f0L'
p1294
asg6
Nsg99
(lp1295
S'0xffffffc00079f204L'
p1296
aS'0xffffffc00079f280L'
p1297
asg103
Nsg104
Nsg105
S'9e949ecad6d03f168e5e52f445b8c722'
p1298
sg107
S'fc07cc4ad91ebcaf985ed8ea3d0ced6c'
p1299
sg109
(lp1300
g1272
ag1279
ag1286
asg111
Nsba(ibclass
BBasicBlock
p1301
(dp1302
g12
Nsg13
(lp1303
(ibclass
BInstr
p1304
(dp1305
g2
Nsg17
S'ADRP            X0, #qword_FFFFFFC000E458A0@PAGE'
p1306
sg19
S'203500d0'
p1307
sg21
Vadrp x0, #0x6a6000
p1308
sg5
L18446743798839636484L
sg6
Nsg23
S'ADRP'
p1309
sg25
S'0xffffffc00079f204L'
p1310
sg27
Nsba(ibclass
BInstr
p1311
(dp1312
g2
Nsg17
S'LDR             X0, [X0,#qword_FFFFFFC000E458A0@PAGEOFF]'
p1313
sg19
S'005044f9'
p1314
sg21
Vldr x0, [x0, #0x8a0]
p1315
sg5
L18446743798839636488L
sg6
Nsg23
S'LDR'
p1316
sg25
S'0xffffffc00079f208L'
p1317
sg27
Nsba(ibclass
BInstr
p1318
(dp1319
g2
Nsg17
S'LDR             W0, [X0]'
p1320
sg19
S'000040b9'
p1321
sg21
Vldr w0, [x0]
p1322
sg5
L18446743798839636492L
sg6
Nsg23
S'LDR'
p1323
sg25
S'0xffffffc00079f20cL'
p1324
sg27
Nsba(ibclass
BInstr
p1325
(dp1326
g2
Nsg17
S'TBZ             W0, #0, loc_FFFFFFC00079F160'
p1327
sg19
S'80fa0736'
p1328
sg21
Vtbz w0, #0, #0xffffffffffffff50
p1329
sg5
L18446743798839636496L
sg6
Nsg23
S'TBZ'
p1330
sg25
S'0xffffffc00079f210L'
p1331
sg27
Nsbasg84
(lp1332
S'ADRP reg, #func@PAGE'
p1333
aS'LDR reg, mem'
p1334
aS'LDR reg, mem'
p1335
aS'TBZ reg, #0, func'
p1336
asg95
Nsg5
S'0xffffffc00079f204L'
p1337
sg97
(lp1338
S'0xffffffc00079f1f8L'
p1339
asg6
Nsg99
(lp1340
S'0xffffffc00079f160L'
p1341
aS'0xffffffc00079f214L'
p1342
asg103
Nsg104
Nsg105
S'2de94c9e326481f2f467f11acce8dcc9'
p1343
sg107
S'f9f7225e2bae36aff04e5d93bafe5e1d'
p1344
sg109
(lp1345
g1309
ag1316
ag1323
ag1330
asg111
Nsba(ibclass
BBasicBlock
p1346
(dp1347
g12
Nsg13
(lp1348
(ibclass
BInstr
p1349
(dp1350
g2
Nsg17
S'ADRP            X0, #qword_FFFFFFC000E43D48@PAGE'
p1351
sg19
S'20350090'
p1352
sg21
Vadrp x0, #0x6a4000
p1353
sg5
L18446743798839636500L
sg6
Nsg23
S'ADRP'
p1354
sg25
S'0xffffffc00079f214L'
p1355
sg27
Nsba(ibclass
BInstr
p1356
(dp1357
g2
Nsg17
S'LDR             X0, [X0,#qword_FFFFFFC000E43D48@PAGEOFF]'
p1358
sg19
S'00a446f9'
p1359
sg21
Vldr x0, [x0, #0xd48]
p1360
sg5
L18446743798839636504L
sg6
Nsg23
S'LDR'
p1361
sg25
S'0xffffffc00079f218L'
p1362
sg27
Nsba(ibclass
BInstr
p1363
(dp1364
g2
Nsg17
S'LDR             W0, [X0]'
p1365
sg19
S'000040b9'
p1366
sg21
Vldr w0, [x0]
p1367
sg5
L18446743798839636508L
sg6
Nsg23
S'LDR'
p1368
sg25
S'0xffffffc00079f21cL'
p1369
sg27
Nsba(ibclass
BInstr
p1370
(dp1371
g2
Nsg17
S'CBNZ            W0, loc_FFFFFFC00079F160'
p1372
sg19
S'00faff35'
p1373
sg21
Vcbnz w0, #0xffffffffffffff40
p1374
sg5
L18446743798839636512L
sg6
Nsg23
S'CBNZ'
p1375
sg25
S'0xffffffc00079f220L'
p1376
sg27
Nsbasg84
(lp1377
S'ADRP reg, #func@PAGE'
p1378
aS'LDR reg, mem'
p1379
aS'LDR reg, mem'
p1380
aS'CBNZ reg, func'
p1381
asg95
Nsg5
S'0xffffffc00079f214L'
p1382
sg97
(lp1383
S'0xffffffc00079f204L'
p1384
asg6
Nsg99
(lp1385
S'0xffffffc00079f160L'
p1386
aS'0xffffffc00079f224L'
p1387
asg103
Nsg104
Nsg105
S'9c97521b8b0f280d47a50ec9a5e4f86f'
p1388
sg107
S'bd26f8893557dc5fa132ff2490be0ebf'
p1389
sg109
(lp1390
g1354
ag1361
ag1368
ag1375
asg111
Nsba(ibclass
BBasicBlock
p1391
(dp1392
g12
Nsg13
(lp1393
(ibclass
BInstr
p1394
(dp1395
g2
Nsg17
S'ADRP            X0, #unk_FFFFFFC0013B7B28@PAGE'
p1396
sg19
S'c0600090'
p1397
sg21
Vadrp x0, #0xc18000
p1398
sg5
L18446743798839636516L
sg6
Nsg23
S'ADRP'
p1399
sg25
S'0xffffffc00079f224L'
p1400
sg27
Nsba(ibclass
BInstr
p1401
(dp1402
g2
Nsg17
S'ADRP            X1, #(aQcomMdssDsi_17+0x1B)@PAGE; "err"'
p1403
sg19
S'815c0090'
p1404
sg21
Vadrp x1, #0xb90000
p1405
sg5
L18446743798839636520L
sg6
Nsg23
S'ADRP'
p1406
sg25
S'0xffffffc00079f228L'
p1407
sg27
Nsba(ibclass
BInstr
p1408
(dp1409
g2
Nsg17
S'ADD             X1, X1, #(aQcomMdssDsi_17+0x1B)@PAGEOFF; "err"'
p1410
sg19
S'21800091'
p1411
sg21
Vadd x1, x1, #0x20
p1412
sg5
L18446743798839636524L
sg6
Nsg23
S'ADD'
p1413
sg25
S'0xffffffc00079f22cL'
p1414
sg27
Nsba(ibclass
BInstr
p1415
(dp1416
g2
Nsg17
S'ADD             X0, X0, #unk_FFFFFFC0013B7B28@PAGEOFF'
p1417
sg19
S'00a02c91'
p1418
sg21
Vadd x0, x0, #0xb28
p1419
sg5
L18446743798839636528L
sg6
Nsg23
S'ADD'
p1420
sg25
S'0xffffffc00079f230L'
p1421
sg27
Nsba(ibclass
BInstr
p1422
(dp1423
g2
Nsg17
S'BL              printk'
p1424
sg19
S'0d3e1a94'
p1425
sg21
Vbl #0x68f834
p1426
sg5
L18446743798839636532L
sg6
Nsg23
S'BL'
p1427
sg25
S'0xffffffc00079f234L'
p1428
sg27
Nsba(ibclass
BInstr
p1429
(dp1430
g2
Nsg17
S'B               loc_FFFFFFC00079F160'
p1431
sg19
S'caffff17'
p1432
sg21
Vb #0xffffffffffffff28
p1433
sg5
L18446743798839636536L
sg6
Nsg23
g334
sg25
S'0xffffffc00079f238L'
p1434
sg27
Nsbasg84
(lp1435
S'ADRP reg, #func@PAGE'
p1436
aS'ADRP reg, #(aQcomMdssDsi_17+0x1B)@PAGE'
p1437
aS'ADD reg, reg, #(aQcomMdssDsi_17+0x1B)@PAGEOFF'
p1438
aS'ADD reg, reg, #func@PAGEOFF'
p1439
aS'BL printk'
p1440
aS'B func'
p1441
asg95
Nsg5
S'0xffffffc00079f224L'
p1442
sg97
(lp1443
S'0xffffffc00079f214L'
p1444
asg6
Nsg99
(lp1445
S'0xffffffc00079f160L'
p1446
asg103
Nsg104
Nsg105
S'b2a3927201f2643e37e238d870ced3c2'
p1447
sg107
S'3e167cdac8f124cfbacea29ee5c30eb0'
p1448
sg109
(lp1449
g1399
ag1406
ag1413
ag1420
ag1427
ag334
asg111
Nsba(ibclass
BBasicBlock
p1450
(dp1451
g12
Nsg13
(lp1452
(ibclass
BInstr
p1453
(dp1454
g2
Nsg17
S'ADRP            X0, #qword_FFFFFFC000E458A0@PAGE'
p1455
sg19
S'203500d0'
p1456
sg21
Vadrp x0, #0x6a6000
p1457
sg5
L18446743798839636540L
sg6
Nsg23
S'ADRP'
p1458
sg25
S'0xffffffc00079f23cL'
p1459
sg27
Nsba(ibclass
BInstr
p1460
(dp1461
g2
Nsg17
S'LDR             X0, [X0,#qword_FFFFFFC000E458A0@PAGEOFF]'
p1462
sg19
S'005044f9'
p1463
sg21
Vldr x0, [x0, #0x8a0]
p1464
sg5
L18446743798839636544L
sg6
Nsg23
S'LDR'
p1465
sg25
S'0xffffffc00079f240L'
p1466
sg27
Nsba(ibclass
BInstr
p1467
(dp1468
g2
Nsg17
S'LDR             W0, [X0]'
p1469
sg19
S'000040b9'
p1470
sg21
Vldr w0, [x0]
p1471
sg5
L18446743798839636548L
sg6
Nsg23
S'LDR'
p1472
sg25
S'0xffffffc00079f244L'
p1473
sg27
Nsba(ibclass
BInstr
p1474
(dp1475
g2
Nsg17
S'TBZ             W0, #0, loc_FFFFFFC00079F280'
p1476
sg19
S'c0010036'
p1477
sg21
Vtbz w0, #0, #0x38
p1478
sg5
L18446743798839636552L
sg6
Nsg23
S'TBZ'
p1479
sg25
S'0xffffffc00079f248L'
p1480
sg27
Nsbasg84
(lp1481
S'ADRP reg, #func@PAGE'
p1482
aS'LDR reg, mem'
p1483
aS'LDR reg, mem'
p1484
aS'TBZ reg, #0, func'
p1485
asg95
Nsg5
S'0xffffffc00079f23cL'
p1486
sg97
(lp1487
S'0xffffffc00079f1a4L'
p1488
asg6
Nsg99
(lp1489
S'0xffffffc00079f24cL'
p1490
aS'0xffffffc00079f280L'
p1491
asg103
Nsg104
Nsg105
S'2de94c9e326481f2f467f11acce8dcc9'
p1492
sg107
S'f9f7225e2bae36aff04e5d93bafe5e1d'
p1493
sg109
(lp1494
g1458
ag1465
ag1472
ag1479
asg111
Nsba(ibclass
BBasicBlock
p1495
(dp1496
g12
Nsg13
(lp1497
(ibclass
BInstr
p1498
(dp1499
g2
Nsg17
S'ADRP            X0, #qword_FFFFFFC000E43D48@PAGE'
p1500
sg19
S'20350090'
p1501
sg21
Vadrp x0, #0x6a4000
p1502
sg5
L18446743798839636556L
sg6
Nsg23
S'ADRP'
p1503
sg25
S'0xffffffc00079f24cL'
p1504
sg27
Nsba(ibclass
BInstr
p1505
(dp1506
g2
Nsg17
S'LDR             X0, [X0,#qword_FFFFFFC000E43D48@PAGEOFF]'
p1507
sg19
S'00a446f9'
p1508
sg21
Vldr x0, [x0, #0xd48]
p1509
sg5
L18446743798839636560L
sg6
Nsg23
S'LDR'
p1510
sg25
S'0xffffffc00079f250L'
p1511
sg27
Nsba(ibclass
BInstr
p1512
(dp1513
g2
Nsg17
S'LDR             W0, [X0]'
p1514
sg19
S'000040b9'
p1515
sg21
Vldr w0, [x0]
p1516
sg5
L18446743798839636564L
sg6
Nsg23
S'LDR'
p1517
sg25
S'0xffffffc00079f254L'
p1518
sg27
Nsba(ibclass
BInstr
p1519
(dp1520
g2
Nsg17
S'CBNZ            W0, loc_FFFFFFC00079F280'
p1521
sg19
S'40010035'
p1522
sg21
Vcbnz w0, #0x28
p1523
sg5
L18446743798839636568L
sg6
Nsg23
S'CBNZ'
p1524
sg25
S'0xffffffc00079f258L'
p1525
sg27
Nsbasg84
(lp1526
S'ADRP reg, #func@PAGE'
p1527
aS'LDR reg, mem'
p1528
aS'LDR reg, mem'
p1529
aS'CBNZ reg, func'
p1530
asg95
Nsg5
S'0xffffffc00079f24cL'
p1531
sg97
(lp1532
S'0xffffffc00079f23cL'
p1533
asg6
Nsg99
(lp1534
S'0xffffffc00079f25cL'
p1535
aS'0xffffffc00079f280L'
p1536
asg103
Nsg104
Nsg105
S'9c97521b8b0f280d47a50ec9a5e4f86f'
p1537
sg107
S'bd26f8893557dc5fa132ff2490be0ebf'
p1538
sg109
(lp1539
g1503
ag1510
ag1517
ag1524
asg111
Nsba(ibclass
BBasicBlock
p1540
(dp1541
g12
Nsg13
(lp1542
(ibclass
BInstr
p1543
(dp1544
g2
Nsg17
S'ADRP            X2, #__func__.34388@PAGE; "msm_vidc_check_scaling_supported"'
p1545
sg19
S'424500d0'
p1546
sg21
Vadrp x2, #0x8aa000
p1547
sg5
L18446743798839636572L
sg6
Nsg23
S'ADRP'
p1548
sg25
S'0xffffffc00079f25cL'
p1549
sg27
Nsba(ibclass
BInstr
p1550
(dp1551
g2
Nsg17
S'ADRP            X0, #unk_FFFFFFC0013B7B51@PAGE'
p1552
sg19
S'c0600090'
p1553
sg21
Vadrp x0, #0xc18000
p1554
sg5
L18446743798839636576L
sg6
Nsg23
S'ADRP'
p1555
sg25
S'0xffffffc00079f260L'
p1556
sg27
Nsba(ibclass
BInstr
p1557
(dp1558
g2
Nsg17
S'ADRP            X1, #(aQcomMdssDsi_17+0x1B)@PAGE; "err"'
p1559
sg19
S'815c0090'
p1560
sg21
Vadrp x1, #0xb90000
p1561
sg5
L18446743798839636580L
sg6
Nsg23
S'ADRP'
p1562
sg25
S'0xffffffc00079f264L'
p1563
sg27
Nsba(ibclass
BInstr
p1564
(dp1565
g2
Nsg17
S'ADD             X2, X2, #__func__.34388@PAGEOFF; "msm_vidc_check_scaling_supported"'
p1566
sg19
S'42a02391'
p1567
sg21
Vadd x2, x2, #0x8e8
p1568
sg5
L18446743798839636584L
sg6
Nsg23
S'ADD'
p1569
sg25
S'0xffffffc00079f268L'
p1570
sg27
Nsba(ibclass
BInstr
p1571
(dp1572
g2
Nsg17
S'ADD             X0, X0, #unk_FFFFFFC0013B7B51@PAGEOFF'
p1573
sg19
S'00442d91'
p1574
sg21
Vadd x0, x0, #0xb51
p1575
sg5
L18446743798839636588L
sg6
Nsg23
S'ADD'
p1576
sg25
S'0xffffffc00079f26cL'
p1577
sg27
Nsba(ibclass
BInstr
p1578
(dp1579
g2
Nsg17
S'ADD             X1, X1, #(aQcomMdssDsi_17+0x1B)@PAGEOFF; "err"'
p1580
sg19
S'21800091'
p1581
sg21
Vadd x1, x1, #0x20
p1582
sg5
L18446743798839636592L
sg6
Nsg23
S'ADD'
p1583
sg25
S'0xffffffc00079f270L'
p1584
sg27
Nsba(ibclass
BInstr
p1585
(dp1586
g2
Nsg17
S'ADD             X2, X2, #0x110'
p1587
sg19
S'42400491'
p1588
sg21
Vadd x2, x2, #0x110
p1589
sg5
L18446743798839636596L
sg6
Nsg23
S'ADD'
p1590
sg25
S'0xffffffc00079f274L'
p1591
sg27
Nsba(ibclass
BInstr
p1592
(dp1593
g2
Nsg17
S'MOV             W3, W20'
p1594
sg19
S'e303142a'
p1595
sg21
Vmov w3, w20
p1596
sg5
L18446743798839636600L
sg6
Nsg23
S'MOV'
p1597
sg25
S'0xffffffc00079f278L'
p1598
sg27
Nsba(ibclass
BInstr
p1599
(dp1600
g2
Nsg17
S'BL              printk'
p1601
sg19
S'fb3d1a94'
p1602
sg21
Vbl #0x68f7ec
p1603
sg5
L18446743798839636604L
sg6
Nsg23
S'BL'
p1604
sg25
S'0xffffffc00079f27cL'
p1605
sg27
Nsbasg84
(lp1606
S'ADRP reg, #__func__.34388@PAGE'
p1607
aS'ADRP reg, #func@PAGE'
p1608
aS'ADRP reg, #(aQcomMdssDsi_17+0x1B)@PAGE'
p1609
aS'ADD reg, reg, #__func__.34388@PAGEOFF'
p1610
aS'ADD reg, reg, #func@PAGEOFF'
p1611
aS'ADD reg, reg, #(aQcomMdssDsi_17+0x1B)@PAGEOFF'
p1612
aS'ADD reg, reg, #0x110'
p1613
aS'MOV reg, reg0'
p1614
aS'BL printk'
p1615
asg95
Nsg5
S'0xffffffc00079f25cL'
p1616
sg97
(lp1617
S'0xffffffc00079f24cL'
p1618
asg6
Nsg99
(lp1619
S'0xffffffc00079f280L'
p1620
asg103
Nsg104
Nsg105
S'bfdccf877a69b1df6a02b04be1b0067e'
p1621
sg107
S'd491ffc492c621c6e5b376ec7eeb4467'
p1622
sg109
(lp1623
g1548
ag1555
ag1562
ag1569
ag1576
ag1583
ag1590
ag1597
ag1604
asg111
Nsba(ibclass
BBasicBlock
p1624
(dp1625
g12
Nsg13
(lp1626
(ibclass
BInstr
p1627
(dp1628
g2
Nsg17
S'ADRP            X0, #qword_FFFFFFC000E45FB0@PAGE'
p1629
sg19
S'203500d0'
p1630
sg21
Vadrp x0, #0x6a6000
p1631
sg5
L18446743798839636608L
sg6
Nsg23
S'ADRP'
p1632
sg25
S'0xffffffc00079f280L'
p1633
sg27
Nsba(ibclass
BInstr
p1634
(dp1635
g2
Nsg17
S'LDR             X0, [X0,#qword_FFFFFFC000E45FB0@PAGEOFF]'
p1636
sg19
S'00d847f9'
p1637
sg21
Vldr x0, [x0, #0xfb0]
p1638
sg5
L18446743798839636612L
sg6
Nsg23
S'LDR'
p1639
sg25
S'0xffffffc00079f284L'
p1640
sg27
Nsba(ibclass
BInstr
p1641
(dp1642
g2
Nsg17
S'LDR             W0, [X0]'
p1643
sg19
S'000040b9'
p1644
sg21
Vldr w0, [x0]
p1645
sg5
L18446743798839636616L
sg6
Nsg23
S'LDR'
p1646
sg25
S'0xffffffc00079f288L'
p1647
sg27
Nsba(ibclass
BInstr
p1648
(dp1649
g2
Nsg17
S'BL              msecs_to_jiffies'
p1650
sg19
S'0c10ea97'
p1651
sg21
Vbl #0xffffffffffa84030
p1652
sg5
L18446743798839636620L
sg6
Nsg23
S'BL'
p1653
sg25
S'0xffffffc00079f28cL'
p1654
sg27
Nsba(ibclass
BInstr
p1655
(dp1656
g2
Nsg17
S'MOV             X1, X0'
p1657
sg19
S'e10300aa'
p1658
sg21
Vmov x1, x0
p1659
sg5
L18446743798839636624L
sg6
Nsg23
S'MOV'
p1660
sg25
S'0xffffffc00079f290L'
p1661
sg27
Nsba(ibclass
BInstr
p1662
(dp1663
g2
Nsg17
S'ADD             X0, X19, #0xC58'
p1664
sg19
S'60623191'
p1665
sg21
Vadd x0, x19, #0xc58
p1666
sg5
L18446743798839636628L
sg6
Nsg23
S'ADD'
p1667
sg25
S'0xffffffc00079f294L'
p1668
sg27
Nsba(ibclass
BInstr
p1669
(dp1670
g2
Nsg17
S'BL              wait_for_completion_timeout'
p1671
sg19
S'c1771a94'
p1672
sg21
Vbl #0x69df04
p1673
sg5
L18446743798839636632L
sg6
Nsg23
S'BL'
p1674
sg25
S'0xffffffc00079f298L'
p1675
sg27
Nsba(ibclass
BInstr
p1676
(dp1677
g2
Nsg17
S'CBNZ            W0, loc_FFFFFFC00079F300'
p1678
sg19
S'20030035'
p1679
sg21
Vcbnz w0, #0x64
p1680
sg5
L18446743798839636636L
sg6
Nsg23
S'CBNZ'
p1681
sg25
S'0xffffffc00079f29cL'
p1682
sg27
Nsbasg84
(lp1683
S'ADRP reg, #func@PAGE'
p1684
aS'LDR reg, mem'
p1685
aS'LDR reg, mem'
p1686
aS'BL msecs_to_jiffies'
p1687
aS'MOV reg, reg'
p1688
aS'ADD reg, reg9, #0xC58'
p1689
aS'BL wait_for_completion_timeout'
p1690
aS'CBNZ reg, func'
p1691
asg95
Nsg5
S'0xffffffc00079f280L'
p1692
sg97
(lp1693
S'0xffffffc00079f1a8L'
p1694
aS'0xffffffc00079f1b0L'
p1695
aS'0xffffffc00079f1f0L'
p1696
aS'0xffffffc00079f1f8L'
p1697
aS'0xffffffc00079f23cL'
p1698
aS'0xffffffc00079f24cL'
p1699
aS'0xffffffc00079f25cL'
p1700
asg6
Nsg99
(lp1701
S'0xffffffc00079f2a0L'
p1702
aS'0xffffffc00079f300L'
p1703
asg103
Nsg104
Nsg105
S'379520c864688fa01fb496b49863e541'
p1704
sg107
S'e69016efae91d26b55a1dbe3235fab0c'
p1705
sg109
(lp1706
g1632
ag1639
ag1646
ag1653
ag1660
ag1667
ag1674
ag1681
asg111
Nsba(ibclass
BBasicBlock
p1707
(dp1708
g12
Nsg13
(lp1709
(ibclass
BInstr
p1710
(dp1711
g2
Nsg17
S'ADRP            X0, #qword_FFFFFFC000E458A0@PAGE'
p1712
sg19
S'203500d0'
p1713
sg21
Vadrp x0, #0x6a6000
p1714
sg5
L18446743798839636640L
sg6
Nsg23
S'ADRP'
p1715
sg25
S'0xffffffc00079f2a0L'
p1716
sg27
Nsba(ibclass
BInstr
p1717
(dp1718
g2
Nsg17
S'LDR             X0, [X0,#qword_FFFFFFC000E458A0@PAGEOFF]'
p1719
sg19
S'005044f9'
p1720
sg21
Vldr x0, [x0, #0x8a0]
p1721
sg5
L18446743798839636644L
sg6
Nsg23
S'LDR'
p1722
sg25
S'0xffffffc00079f2a4L'
p1723
sg27
Nsba(ibclass
BInstr
p1724
(dp1725
g2
Nsg17
S'LDR             W0, [X0]'
p1726
sg19
S'000040b9'
p1727
sg21
Vldr w0, [x0]
p1728
sg5
L18446743798839636648L
sg6
Nsg23
S'LDR'
p1729
sg25
S'0xffffffc00079f2a8L'
p1730
sg27
Nsba(ibclass
BInstr
p1731
(dp1732
g2
Nsg17
S'TBZ             W0, #0, loc_FFFFFFC00079F2E8'
p1733
sg19
S'e0010036'
p1734
sg21
Vtbz w0, #0, #0x3c
p1735
sg5
L18446743798839636652L
sg6
Nsg23
S'TBZ'
p1736
sg25
S'0xffffffc00079f2acL'
p1737
sg27
Nsbasg84
(lp1738
S'ADRP reg, #func@PAGE'
p1739
aS'LDR reg, mem'
p1740
aS'LDR reg, mem'
p1741
aS'TBZ reg, #0, func'
p1742
asg95
Nsg5
S'0xffffffc00079f2a0L'
p1743
sg97
(lp1744
S'0xffffffc00079f280L'
p1745
asg6
Nsg99
(lp1746
S'0xffffffc00079f2b0L'
p1747
aS'0xffffffc00079f2e8L'
p1748
asg103
Nsg104
Nsg105
S'2de94c9e326481f2f467f11acce8dcc9'
p1749
sg107
S'f9f7225e2bae36aff04e5d93bafe5e1d'
p1750
sg109
(lp1751
g1715
ag1722
ag1729
ag1736
asg111
Nsba(ibclass
BBasicBlock
p1752
(dp1753
g12
Nsg13
(lp1754
(ibclass
BInstr
p1755
(dp1756
g2
Nsg17
S'ADRP            X0, #qword_FFFFFFC000E43D48@PAGE'
p1757
sg19
S'20350090'
p1758
sg21
Vadrp x0, #0x6a4000
p1759
sg5
L18446743798839636656L
sg6
Nsg23
S'ADRP'
p1760
sg25
S'0xffffffc00079f2b0L'
p1761
sg27
Nsba(ibclass
BInstr
p1762
(dp1763
g2
Nsg17
S'LDR             X0, [X0,#qword_FFFFFFC000E43D48@PAGEOFF]'
p1764
sg19
S'00a446f9'
p1765
sg21
Vldr x0, [x0, #0xd48]
p1766
sg5
L18446743798839636660L
sg6
Nsg23
S'LDR'
p1767
sg25
S'0xffffffc00079f2b4L'
p1768
sg27
Nsba(ibclass
BInstr
p1769
(dp1770
g2
Nsg17
S'LDR             W0, [X0]'
p1771
sg19
S'000040b9'
p1772
sg21
Vldr w0, [x0]
p1773
sg5
L18446743798839636664L
sg6
Nsg23
S'LDR'
p1774
sg25
S'0xffffffc00079f2b8L'
p1775
sg27
Nsba(ibclass
BInstr
p1776
(dp1777
g2
Nsg17
S'CBNZ            W0, loc_FFFFFFC00079F2E8'
p1778
sg19
S'60010035'
p1779
sg21
Vcbnz w0, #0x2c
p1780
sg5
L18446743798839636668L
sg6
Nsg23
S'CBNZ'
p1781
sg25
S'0xffffffc00079f2bcL'
p1782
sg27
Nsbasg84
(lp1783
S'ADRP reg, #func@PAGE'
p1784
aS'LDR reg, mem'
p1785
aS'LDR reg, mem'
p1786
aS'CBNZ reg, func'
p1787
asg95
Nsg5
S'0xffffffc00079f2b0L'
p1788
sg97
(lp1789
S'0xffffffc00079f2a0L'
p1790
asg6
Nsg99
(lp1791
S'0xffffffc00079f2c0L'
p1792
aS'0xffffffc00079f2e8L'
p1793
asg103
Nsg104
Nsg105
S'9c97521b8b0f280d47a50ec9a5e4f86f'
p1794
sg107
S'bd26f8893557dc5fa132ff2490be0ebf'
p1795
sg109
(lp1796
g1760
ag1767
ag1774
ag1781
asg111
Nsba(ibclass
BBasicBlock
p1797
(dp1798
g12
Nsg13
(lp1799
(ibclass
BInstr
p1800
(dp1801
g2
Nsg17
S'ADRP            X2, #__func__.34388@PAGE; "msm_vidc_check_scaling_supported"'
p1802
sg19
S'424500d0'
p1803
sg21
Vadrp x2, #0x8aa000
p1804
sg5
L18446743798839636672L
sg6
Nsg23
S'ADRP'
p1805
sg25
S'0xffffffc00079f2c0L'
p1806
sg27
Nsba(ibclass
BInstr
p1807
(dp1808
g2
Nsg17
S'ADRP            X0, #unk_FFFFFFC0013B660E@PAGE'
p1809
sg19
S'a06000f0'
p1810
sg21
Vadrp x0, #0xc17000
p1811
sg5
L18446743798839636676L
sg6
Nsg23
S'ADRP'
p1812
sg25
S'0xffffffc00079f2c4L'
p1813
sg27
Nsba(ibclass
BInstr
p1814
(dp1815
g2
Nsg17
S'ADRP            X1, #(aQcomMdssDsi_17+0x1B)@PAGE; "err"'
p1816
sg19
S'815c0090'
p1817
sg21
Vadrp x1, #0xb90000
p1818
sg5
L18446743798839636680L
sg6
Nsg23
S'ADRP'
p1819
sg25
S'0xffffffc00079f2c8L'
p1820
sg27
Nsba(ibclass
BInstr
p1821
(dp1822
g2
Nsg17
S'ADD             X2, X2, #__func__.34388@PAGEOFF; "msm_vidc_check_scaling_supported"'
p1823
sg19
S'42a02391'
p1824
sg21
Vadd x2, x2, #0x8e8
p1825
sg5
L18446743798839636684L
sg6
Nsg23
S'ADD'
p1826
sg25
S'0xffffffc00079f2ccL'
p1827
sg27
Nsba(ibclass
BInstr
p1828
(dp1829
g2
Nsg17
S'ADD             X0, X0, #unk_FFFFFFC0013B660E@PAGEOFF'
p1830
sg19
S'00381891'
p1831
sg21
Vadd x0, x0, #0x60e
p1832
sg5
L18446743798839636688L
sg6
Nsg23
S'ADD'
p1833
sg25
S'0xffffffc00079f2d0L'
p1834
sg27
Nsba(ibclass
BInstr
p1835
(dp1836
g2
Nsg17
S'ADD             X1, X1, #(aQcomMdssDsi_17+0x1B)@PAGEOFF; "err"'
p1837
sg19
S'21800091'
p1838
sg21
Vadd x1, x1, #0x20
p1839
sg5
L18446743798839636692L
sg6
Nsg23
S'ADD'
p1840
sg25
S'0xffffffc00079f2d4L'
p1841
sg27
Nsba(ibclass
BInstr
p1842
(dp1843
g2
Nsg17
S'ADD             X2, X2, #0x110'
p1844
sg19
S'42400491'
p1845
sg21
Vadd x2, x2, #0x110
p1846
sg5
L18446743798839636696L
sg6
Nsg23
S'ADD'
p1847
sg25
S'0xffffffc00079f2d8L'
p1848
sg27
Nsba(ibclass
BInstr
p1849
(dp1850
g2
Nsg17
S'MOV             X3, X19'
p1851
sg19
S'e30313aa'
p1852
sg21
Vmov x3, x19
p1853
sg5
L18446743798839636700L
sg6
Nsg23
S'MOV'
p1854
sg25
S'0xffffffc00079f2dcL'
p1855
sg27
Nsba(ibclass
BInstr
p1856
(dp1857
g2
Nsg17
S'MOV             W4, #0x11'
p1858
sg19
S'24028052'
p1859
sg21
Vmovz w4, #0x11
p1860
sg5
L18446743798839636704L
sg6
Nsg23
S'MOV'
p1861
sg25
S'0xffffffc00079f2e0L'
p1862
sg27
Nsba(ibclass
BInstr
p1863
(dp1864
g2
Nsg17
S'BL              printk'
p1865
sg19
S'e13d1a94'
p1866
sg21
Vbl #0x68f784
p1867
sg5
L18446743798839636708L
sg6
Nsg23
S'BL'
p1868
sg25
S'0xffffffc00079f2e4L'
p1869
sg27
Nsbasg84
(lp1870
S'ADRP reg, #__func__.34388@PAGE'
p1871
aS'ADRP reg, #func@PAGE'
p1872
aS'ADRP reg, #(aQcomMdssDsi_17+0x1B)@PAGE'
p1873
aS'ADD reg, reg, #__func__.34388@PAGEOFF'
p1874
aS'ADD reg, reg, #func@PAGEOFF'
p1875
aS'ADD reg, reg, #(aQcomMdssDsi_17+0x1B)@PAGEOFF'
p1876
aS'ADD reg, reg, #0x110'
p1877
aS'MOV reg, reg9'
p1878
aS'MOV reg, #0x11'
p1879
aS'BL printk'
p1880
asg95
Nsg5
S'0xffffffc00079f2c0L'
p1881
sg97
(lp1882
S'0xffffffc00079f2b0L'
p1883
asg6
Nsg99
(lp1884
S'0xffffffc00079f2e8L'
p1885
asg103
Nsg104
Nsg105
S'717da19595f79a1fa3b00c72532aa8b9'
p1886
sg107
S'a92cef177d6bffe4d307996fed249bae'
p1887
sg109
(lp1888
g1805
ag1812
ag1819
ag1826
ag1833
ag1840
ag1847
ag1854
ag1861
ag1868
asg111
Nsba(ibclass
BBasicBlock
p1889
(dp1890
g12
Nsg13
(lp1891
(ibclass
BInstr
p1892
(dp1893
g2
Nsg17
S'MOV             W0, #0x11'
p1894
sg19
S'20028052'
p1895
sg21
Vmovz w0, #0x11
p1896
sg5
L18446743798839636712L
sg6
Nsg23
S'MOV'
p1897
sg25
S'0xffffffc00079f2e8L'
p1898
sg27
Nsba(ibclass
BInstr
p1899
(dp1900
g2
Nsg17
S'STR             W0, [X19,#0x90]'
p1901
sg19
S'609200b9'
p1902
sg21
Vstr w0, [x19, #0x90]
p1903
sg5
L18446743798839636716L
sg6
Nsg23
S'STR'
p1904
sg25
S'0xffffffc00079f2ecL'
p1905
sg27
Nsba(ibclass
BInstr
p1906
(dp1907
g2
Nsg17
S'MOV             X0, X19'
p1908
sg19
S'e00313aa'
p1909
sg21
Vmov x0, x19
p1910
sg5
L18446743798839636720L
sg6
Nsg23
S'MOV'
p1911
sg25
S'0xffffffc00079f2f0L'
p1912
sg27
Nsba(ibclass
BInstr
p1913
(dp1914
g2
Nsg17
S'BL              msm_comm_kill_session'
p1915
sg19
S'06fbff97'
p1916
sg21
Vbl #0xffffffffffffec18
p1917
sg5
L18446743798839636724L
sg6
Nsg23
S'BL'
p1918
sg25
S'0xffffffc00079f2f4L'
p1919
sg27
Nsba(ibclass
BInstr
p1920
(dp1921
g2
Nsg17
S'MOV             W19, #0xFFFFFFFB'
p1922
sg19
S'93008012'
p1923
sg21
Vmovn w19, #0x4
p1924
sg5
L18446743798839636728L
sg6
Nsg23
S'MOV'
p1925
sg25
S'0xffffffc00079f2f8L'
p1926
sg27
Nsba(ibclass
BInstr
p1927
(dp1928
g2
Nsg17
S'B               loc_FFFFFFC00079F3B8'
p1929
sg19
S'2f000014'
p1930
sg21
Vb #0xbc
p1931
sg5
L18446743798839636732L
sg6
Nsg23
g334
sg25
S'0xffffffc00079f2fcL'
p1932
sg27
Nsbasg84
(lp1933
S'MOV reg, #0x11'
p1934
aS'STR reg, mem'
p1935
aS'MOV reg, reg9'
p1936
aS'BL msm_comm_kill_session'
p1937
aS'MOV reg9, #0xFFFFFFFB'
p1938
aS'B func'
p1939
asg95
Nsg5
S'0xffffffc00079f2e8L'
p1940
sg97
(lp1941
S'0xffffffc00079f2a0L'
p1942
aS'0xffffffc00079f2b0L'
p1943
aS'0xffffffc00079f2c0L'
p1944
asg6
Nsg99
(lp1945
S'0xffffffc00079f3b8L'
p1946
asg103
Nsg104
Nsg105
S'd37c5c09418f65528e26efb487399a66'
p1947
sg107
S'98a690603db65a175c2931226c75df24'
p1948
sg109
(lp1949
g1897
ag1904
ag1911
ag1918
ag1925
ag334
asg111
Nsba(ibclass
BBasicBlock
p1950
(dp1951
g12
Nsg13
(lp1952
(ibclass
BInstr
p1953
(dp1954
g2
Nsg17
S'ADD             X20, X19, #0x7C0'
p1955
sg19
S'74021f91'
p1956
sg21
Vadd x20, x19, #0x7c0
p1957
sg5
L18446743798839636736L
sg6
Nsg23
S'ADD'
p1958
sg25
S'0xffffffc00079f300L'
p1959
sg27
Nsba(ibclass
BInstr
p1960
(dp1961
g2
Nsg17
S'MOV             X0, X20'
p1962
sg19
S'e00314aa'
p1963
sg21
Vmov x0, x20
p1964
sg5
L18446743798839636740L
sg6
Nsg23
S'MOV'
p1965
sg25
S'0xffffffc00079f304L'
p1966
sg27
Nsba(ibclass
BInstr
p1967
(dp1968
g2
Nsg17
S'BL              mutex_lock'
p1969
sg19
S'39721a94'
p1970
sg21
Vbl #0x69c8e4
p1971
sg5
L18446743798839636744L
sg6
Nsg23
S'BL'
p1972
sg25
S'0xffffffc00079f308L'
p1973
sg27
Nsba(ibclass
BInstr
p1974
(dp1975
g2
Nsg17
S'ADD             X0, X19, #0x7B0'
p1976
sg19
S'60c21e91'
p1977
sg21
Vadd x0, x19, #0x7b0
p1978
sg5
L18446743798839636748L
sg6
Nsg23
S'ADD'
p1979
sg25
S'0xffffffc00079f30cL'
p1980
sg27
Nsba(ibclass
BInstr
p1981
(dp1982
g2
Nsg17
S'LDR             X19, [X19,#0x7B0]'
p1983
sg19
S'73da43f9'
p1984
sg21
Vldr x19, [x19, #0x7b0]
p1985
sg5
L18446743798839636752L
sg6
Nsg23
S'LDR'
p1986
sg25
S'0xffffffc00079f310L'
p1987
sg27
Nsba(ibclass
BInstr
p1988
(dp1989
g2
Nsg17
S'CMP             X19, X0'
p1990
sg19
S'7f0200eb'
p1991
sg21
Vcmp x19, x0
p1992
sg5
L18446743798839636756L
sg6
Nsg23
S'CMP'
p1993
sg25
S'0xffffffc00079f314L'
p1994
sg27
Nsba(ibclass
BInstr
p1995
(dp1996
g2
Nsg17
S'B.EQ            loc_FFFFFFC00079F36C'
p1997
sg19
S'a0020054'
p1998
sg21
Vb.eq #0x54
p1999
sg5
L18446743798839636760L
sg6
Nsg23
g334
sg25
S'0xffffffc00079f318L'
p2000
sg27
Nsbasg84
(lp2001
S'ADD reg0, reg9, #0x7C0'
p2002
aS'MOV reg, reg0'
p2003
aS'BL mutex_lock'
p2004
aS'ADD reg, reg9, #0x7B0'
p2005
aS'LDR reg9, mem'
p2006
aS'CMP reg9, reg'
p2007
aS'B.EQ func'
p2008
asg95
Nsg5
S'0xffffffc00079f300L'
p2009
sg97
(lp2010
S'0xffffffc00079f280L'
p2011
asg6
Nsg99
(lp2012
S'0xffffffc00079f31cL'
p2013
aS'0xffffffc00079f36cL'
p2014
asg103
Nsg104
Nsg105
S'a83f182f42335efa0167137bd8b0cb90'
p2015
sg107
S'e88335465ef884c6f3e97503071e1125'
p2016
sg109
(lp2017
g1958
ag1965
ag1972
ag1979
ag1986
ag1993
ag334
asg111
Nsba(ibclass
BBasicBlock
p2018
(dp2019
g12
Nsg13
(lp2020
(ibclass
BInstr
p2021
(dp2022
g2
Nsg17
S'LDR             X1, [X19,#0x10]'
p2023
sg19
S'610a40f9'
p2024
sg21
Vldr x1, [x19, #0x10]
p2025
sg5
L18446743798839636764L
sg6
Nsg23
S'LDR'
p2026
sg25
S'0xffffffc00079f31cL'
p2027
sg27
Nsba(ibclass
BInstr
p2028
(dp2029
g2
Nsg17
S'MOV             X2, #0x160'
p2030
sg19
S'022c80d2'
p2031
sg21
Vmovz x2, #0x160
p2032
sg5
L18446743798839636768L
sg6
Nsg23
S'MOV'
p2033
sg25
S'0xffffffc00079f320L'
p2034
sg27
Nsba(ibclass
BInstr
p2035
(dp2036
g2
Nsg17
S'MOV             X0, X23'
p2037
sg19
S'e00317aa'
p2038
sg21
Vmov x0, x23
p2039
sg5
L18446743798839636772L
sg6
Nsg23
S'MOV'
p2040
sg25
S'0xffffffc00079f324L'
p2041
sg27
Nsba(ibclass
BInstr
p2042
(dp2043
g2
Nsg17
S'BL              memcpy'
p2044
sg19
S'f603f297'
p2045
sg21
Vbl #0xffffffffffc80fd8
p2046
sg5
L18446743798839636776L
sg6
Nsg23
S'BL'
p2047
sg25
S'0xffffffc00079f328L'
p2048
sg27
Nsba(ibclass
BInstr
p2049
(dp2050
g2
Nsg17
S'LDR             X0, [X19,#0x10]'
p2051
sg19
S'600a40f9'
p2052
sg21
Vldr x0, [x19, #0x10]
p2053
sg5
L18446743798839636780L
sg6
Nsg23
S'LDR'
p2054
sg25
S'0xffffffc00079f32cL'
p2055
sg27
Nsba(ibclass
BInstr
p2056
(dp2057
g2
Nsg17
S'BL              kfree'
p2058
sg19
S'f046ed97'
p2059
sg21
Vbl #0xffffffffffb51bc0
p2060
sg5
L18446743798839636784L
sg6
Nsg23
S'BL'
p2061
sg25
S'0xffffffc00079f330L'
p2062
sg27
Nsba(ibclass
BInstr
p2063
(dp2064
g2
Nsg17
S'LDR             X0, [X19,#8]'
p2065
sg19
S'600640f9'
p2066
sg21
Vldr x0, [x19, #8]
p2067
sg5
L18446743798839636788L
sg6
Nsg23
S'LDR'
p2068
sg25
S'0xffffffc00079f334L'
p2069
sg27
Nsba(ibclass
BInstr
p2070
(dp2071
g2
Nsg17
S'LDR             X1, [X19]'
p2072
sg19
S'610240f9'
p2073
sg21
Vldr x1, [x19]
p2074
sg5
L18446743798839636792L
sg6
Nsg23
S'LDR'
p2075
sg25
S'0xffffffc00079f338L'
p2076
sg27
Nsba(ibclass
BInstr
p2077
(dp2078
g2
Nsg17
S'STR             X0, [X1,#8]'
p2079
sg19
S'200400f9'
p2080
sg21
Vstr x0, [x1, #8]
p2081
sg5
L18446743798839636796L
sg6
Nsg23
S'STR'
p2082
sg25
S'0xffffffc00079f33cL'
p2083
sg27
Nsba(ibclass
BInstr
p2084
(dp2085
g2
Nsg17
S'STR             X1, [X0]'
p2086
sg19
S'010000f9'
p2087
sg21
Vstr x1, [x0]
p2088
sg5
L18446743798839636800L
sg6
Nsg23
S'STR'
p2089
sg25
S'0xffffffc00079f340L'
p2090
sg27
Nsba(ibclass
BInstr
p2091
(dp2092
g2
Nsg17
S'MOV             X0, #0x100'
p2093
sg19
S'002080d2'
p2094
sg21
Vmovz x0, #0x100
p2095
sg5
L18446743798839636804L
sg6
Nsg23
S'MOV'
p2096
sg25
S'0xffffffc00079f344L'
p2097
sg27
Nsba(ibclass
BInstr
p2098
(dp2099
g2
Nsg17
S'MOVK            X0, #0xDEAD,LSL#48'
p2100
sg19
S'a0d5fbf2'
p2101
sg21
Vmovk x0, #0xdead, lsl #48
p2102
sg5
L18446743798839636808L
sg6
Nsg23
S'MOVK'
p2103
sg25
S'0xffffffc00079f348L'
p2104
sg27
Nsba(ibclass
BInstr
p2105
(dp2106
g2
Nsg17
S'STR             X0, [X19]'
p2107
sg19
S'600200f9'
p2108
sg21
Vstr x0, [x19]
p2109
sg5
L18446743798839636812L
sg6
Nsg23
S'STR'
p2110
sg25
S'0xffffffc00079f34cL'
p2111
sg27
Nsba(ibclass
BInstr
p2112
(dp2113
g2
Nsg17
S'MOV             X0, #0x200'
p2114
sg19
S'004080d2'
p2115
sg21
Vmovz x0, #0x200
p2116
sg5
L18446743798839636816L
sg6
Nsg23
S'MOV'
p2117
sg25
S'0xffffffc00079f350L'
p2118
sg27
Nsba(ibclass
BInstr
p2119
(dp2120
g2
Nsg17
S'MOVK            X0, #0xDEAD,LSL#48'
p2121
sg19
S'a0d5fbf2'
p2122
sg21
Vmovk x0, #0xdead, lsl #48
p2123
sg5
L18446743798839636820L
sg6
Nsg23
S'MOVK'
p2124
sg25
S'0xffffffc00079f354L'
p2125
sg27
Nsba(ibclass
BInstr
p2126
(dp2127
g2
Nsg17
S'STR             X0, [X19,#8]'
p2128
sg19
S'600600f9'
p2129
sg21
Vstr x0, [x19, #8]
p2130
sg5
L18446743798839636824L
sg6
Nsg23
S'STR'
p2131
sg25
S'0xffffffc00079f358L'
p2132
sg27
Nsba(ibclass
BInstr
p2133
(dp2134
g2
Nsg17
S'MOV             X0, X19'
p2135
sg19
S'e00313aa'
p2136
sg21
Vmov x0, x19
p2137
sg5
L18446743798839636828L
sg6
Nsg23
S'MOV'
p2138
sg25
S'0xffffffc00079f35cL'
p2139
sg27
Nsba(ibclass
BInstr
p2140
(dp2141
g2
Nsg17
S'BL              kfree'
p2142
sg19
S'e446ed97'
p2143
sg21
Vbl #0xffffffffffb51b90
p2144
sg5
L18446743798839636832L
sg6
Nsg23
S'BL'
p2145
sg25
S'0xffffffc00079f360L'
p2146
sg27
Nsba(ibclass
BInstr
p2147
(dp2148
g2
Nsg17
S'MOV             W19, #0'
p2149
sg19
S'13008052'
p2150
sg21
Vmovz w19, #0
p2151
sg5
L18446743798839636836L
sg6
Nsg23
S'MOV'
p2152
sg25
S'0xffffffc00079f364L'
p2153
sg27
Nsba(ibclass
BInstr
p2154
(dp2155
g2
Nsg17
S'B               loc_FFFFFFC00079F3B0'
p2156
sg19
S'12000014'
p2157
sg21
Vb #0x48
p2158
sg5
L18446743798839636840L
sg6
Nsg23
g334
sg25
S'0xffffffc00079f368L'
p2159
sg27
Nsbasg84
(lp2160
S'LDR reg, mem'
p2161
aS'MOV reg, #0x160'
p2162
aS'MOV reg, reg3'
p2163
aS'BL memcpy'
p2164
aS'LDR reg, mem'
p2165
aS'BL kfree'
p2166
aS'LDR reg, mem'
p2167
aS'LDR reg, mem'
p2168
aS'STR reg, mem'
p2169
aS'STR reg, mem'
p2170
aS'MOV reg, #0x100'
p2171
aS'MOVK reg, #0xDEAD,LSL#48'
p2172
aS'STR reg, mem'
p2173
aS'MOV reg, #0x200'
p2174
aS'MOVK reg, #0xDEAD,LSL#48'
p2175
aS'STR reg, mem'
p2176
aS'MOV reg, reg9'
p2177
aS'BL kfree'
p2178
aS'MOV reg9, #0'
p2179
aS'B func'
p2180
asg95
Nsg5
S'0xffffffc00079f31cL'
p2181
sg97
(lp2182
S'0xffffffc00079f300L'
p2183
asg6
Nsg99
(lp2184
S'0xffffffc00079f3b0L'
p2185
asg103
Nsg104
Nsg105
S'a1e695ebdf682f995d3927d42e09e3b0'
p2186
sg107
S'd9d29eeeadbe4fc87b489e89edb47ae1'
p2187
sg109
(lp2188
g2026
ag2033
ag2040
ag2047
ag2054
ag2061
ag2068
ag2075
ag2082
ag2089
ag2096
ag2103
ag2110
ag2117
ag2124
ag2131
ag2138
ag2145
ag2152
ag334
asg111
Nsba(ibclass
BBasicBlock
p2189
(dp2190
g12
Nsg13
(lp2191
(ibclass
BInstr
p2192
(dp2193
g2
Nsg17
S'ADRP            X0, #qword_FFFFFFC000E458A0@PAGE'
p2194
sg19
S'203500d0'
p2195
sg21
Vadrp x0, #0x6a6000
p2196
sg5
L18446743798839636844L
sg6
Nsg23
S'ADRP'
p2197
sg25
S'0xffffffc00079f36cL'
p2198
sg27
Nsba(ibclass
BInstr
p2199
(dp2200
g2
Nsg17
S'LDR             X0, [X0,#qword_FFFFFFC000E458A0@PAGEOFF]'
p2201
sg19
S'005044f9'
p2202
sg21
Vldr x0, [x0, #0x8a0]
p2203
sg5
L18446743798839636848L
sg6
Nsg23
S'LDR'
p2204
sg25
S'0xffffffc00079f370L'
p2205
sg27
Nsba(ibclass
BInstr
p2206
(dp2207
g2
Nsg17
S'MOV             W19, #0xFFFFFFEA'
p2208
sg19
S'b3028012'
p2209
sg21
Vmovn w19, #0x15
p2210
sg5
L18446743798839636852L
sg6
Nsg23
S'MOV'
p2211
sg25
S'0xffffffc00079f374L'
p2212
sg27
Nsba(ibclass
BInstr
p2213
(dp2214
g2
Nsg17
S'LDR             W0, [X0]'
p2215
sg19
S'000040b9'
p2216
sg21
Vldr w0, [x0]
p2217
sg5
L18446743798839636856L
sg6
Nsg23
S'LDR'
p2218
sg25
S'0xffffffc00079f378L'
p2219
sg27
Nsba(ibclass
BInstr
p2220
(dp2221
g2
Nsg17
S'TBZ             W0, #0, loc_FFFFFFC00079F3B0'
p2222
sg19
S'a0010036'
p2223
sg21
Vtbz w0, #0, #0x34
p2224
sg5
L18446743798839636860L
sg6
Nsg23
S'TBZ'
p2225
sg25
S'0xffffffc00079f37cL'
p2226
sg27
Nsbasg84
(lp2227
S'ADRP reg, #func@PAGE'
p2228
aS'LDR reg, mem'
p2229
aS'MOV reg9, #0xFFFFFFEA'
p2230
aS'LDR reg, mem'
p2231
aS'TBZ reg, #0, func'
p2232
asg95
Nsg5
S'0xffffffc00079f36cL'
p2233
sg97
(lp2234
S'0xffffffc00079f300L'
p2235
asg6
Nsg99
(lp2236
S'0xffffffc00079f380L'
p2237
aS'0xffffffc00079f3b0L'
p2238
asg103
Nsg104
Nsg105
S'fb7c64e200fb6e0b1c15ec663b8ca287'
p2239
sg107
S'a4b4f20763289874cd9a705e6b077677'
p2240
sg109
(lp2241
g2197
ag2204
ag2211
ag2218
ag2225
asg111
Nsba(ibclass
BBasicBlock
p2242
(dp2243
g12
Nsg13
(lp2244
(ibclass
BInstr
p2245
(dp2246
g2
Nsg17
S'ADRP            X0, #qword_FFFFFFC000E43D48@PAGE'
p2247
sg19
S'20350090'
p2248
sg21
Vadrp x0, #0x6a4000
p2249
sg5
L18446743798839636864L
sg6
Nsg23
S'ADRP'
p2250
sg25
S'0xffffffc00079f380L'
p2251
sg27
Nsba(ibclass
BInstr
p2252
(dp2253
g2
Nsg17
S'LDR             X0, [X0,#qword_FFFFFFC000E43D48@PAGEOFF]'
p2254
sg19
S'00a446f9'
p2255
sg21
Vldr x0, [x0, #0xd48]
p2256
sg5
L18446743798839636868L
sg6
Nsg23
S'LDR'
p2257
sg25
S'0xffffffc00079f384L'
p2258
sg27
Nsba(ibclass
BInstr
p2259
(dp2260
g2
Nsg17
S'LDR             W0, [X0]'
p2261
sg19
S'000040b9'
p2262
sg21
Vldr w0, [x0]
p2263
sg5
L18446743798839636872L
sg6
Nsg23
S'LDR'
p2264
sg25
S'0xffffffc00079f388L'
p2265
sg27
Nsba(ibclass
BInstr
p2266
(dp2267
g2
Nsg17
S'CBNZ            W0, loc_FFFFFFC00079F3B0'
p2268
sg19
S'20010035'
p2269
sg21
Vcbnz w0, #0x24
p2270
sg5
L18446743798839636876L
sg6
Nsg23
S'CBNZ'
p2271
sg25
S'0xffffffc00079f38cL'
p2272
sg27
Nsbasg84
(lp2273
S'ADRP reg, #func@PAGE'
p2274
aS'LDR reg, mem'
p2275
aS'LDR reg, mem'
p2276
aS'CBNZ reg, func'
p2277
asg95
Nsg5
S'0xffffffc00079f380L'
p2278
sg97
(lp2279
S'0xffffffc00079f36cL'
p2280
asg6
Nsg99
(lp2281
S'0xffffffc00079f390L'
p2282
aS'0xffffffc00079f3b0L'
p2283
asg103
Nsg104
Nsg105
S'9c97521b8b0f280d47a50ec9a5e4f86f'
p2284
sg107
S'bd26f8893557dc5fa132ff2490be0ebf'
p2285
sg109
(lp2286
g2250
ag2257
ag2264
ag2271
asg111
Nsba(ibclass
BBasicBlock
p2287
(dp2288
g12
Nsg13
(lp2289
(ibclass
BInstr
p2290
(dp2291
g2
Nsg17
S'ADRP            X2, #__func__.34388@PAGE; "msm_vidc_check_scaling_supported"'
p2292
sg19
S'424500d0'
p2293
sg21
Vadrp x2, #0x8aa000
p2294
sg5
L18446743798839636880L
sg6
Nsg23
S'ADRP'
p2295
sg25
S'0xffffffc00079f390L'
p2296
sg27
Nsba(ibclass
BInstr
p2297
(dp2298
g2
Nsg17
S'ADRP            X0, #unk_FFFFFFC0013B7B7A@PAGE'
p2299
sg19
S'c0600090'
p2300
sg21
Vadrp x0, #0xc18000
p2301
sg5
L18446743798839636884L
sg6
Nsg23
S'ADRP'
p2302
sg25
S'0xffffffc00079f394L'
p2303
sg27
Nsba(ibclass
BInstr
p2304
(dp2305
g2
Nsg17
S'ADRP            X1, #(aQcomMdssDsi_17+0x1B)@PAGE; "err"'
p2306
sg19
S'815c0090'
p2307
sg21
Vadrp x1, #0xb90000
p2308
sg5
L18446743798839636888L
sg6
Nsg23
S'ADRP'
p2309
sg25
S'0xffffffc00079f398L'
p2310
sg27
Nsba(ibclass
BInstr
p2311
(dp2312
g2
Nsg17
S'ADD             X2, X2, #__func__.34388@PAGEOFF; "msm_vidc_check_scaling_supported"'
p2313
sg19
S'42a02391'
p2314
sg21
Vadd x2, x2, #0x8e8
p2315
sg5
L18446743798839636892L
sg6
Nsg23
S'ADD'
p2316
sg25
S'0xffffffc00079f39cL'
p2317
sg27
Nsba(ibclass
BInstr
p2318
(dp2319
g2
Nsg17
S'ADD             X0, X0, #unk_FFFFFFC0013B7B7A@PAGEOFF'
p2320
sg19
S'00e82d91'
p2321
sg21
Vadd x0, x0, #0xb7a
p2322
sg5
L18446743798839636896L
sg6
Nsg23
S'ADD'
p2323
sg25
S'0xffffffc00079f3a0L'
p2324
sg27
Nsba(ibclass
BInstr
p2325
(dp2326
g2
Nsg17
S'ADD             X1, X1, #(aQcomMdssDsi_17+0x1B)@PAGEOFF; "err"'
p2327
sg19
S'21800091'
p2328
sg21
Vadd x1, x1, #0x20
p2329
sg5
L18446743798839636900L
sg6
Nsg23
S'ADD'
p2330
sg25
S'0xffffffc00079f3a4L'
p2331
sg27
Nsba(ibclass
BInstr
p2332
(dp2333
g2
Nsg17
S'ADD             X2, X2, #0x110'
p2334
sg19
S'42400491'
p2335
sg21
Vadd x2, x2, #0x110
p2336
sg5
L18446743798839636904L
sg6
Nsg23
S'ADD'
p2337
sg25
S'0xffffffc00079f3a8L'
p2338
sg27
Nsba(ibclass
BInstr
p2339
(dp2340
g2
Nsg17
S'BL              printk'
p2341
sg19
S'af3d1a94'
p2342
sg21
Vbl #0x68f6bc
p2343
sg5
L18446743798839636908L
sg6
Nsg23
S'BL'
p2344
sg25
S'0xffffffc00079f3acL'
p2345
sg27
Nsbasg84
(lp2346
S'ADRP reg, #__func__.34388@PAGE'
p2347
aS'ADRP reg, #func@PAGE'
p2348
aS'ADRP reg, #(aQcomMdssDsi_17+0x1B)@PAGE'
p2349
aS'ADD reg, reg, #__func__.34388@PAGEOFF'
p2350
aS'ADD reg, reg, #func@PAGEOFF'
p2351
aS'ADD reg, reg, #(aQcomMdssDsi_17+0x1B)@PAGEOFF'
p2352
aS'ADD reg, reg, #0x110'
p2353
aS'BL printk'
p2354
asg95
Nsg5
S'0xffffffc00079f390L'
p2355
sg97
(lp2356
S'0xffffffc00079f380L'
p2357
asg6
Nsg99
(lp2358
S'0xffffffc00079f3b0L'
p2359
asg103
Nsg104
Nsg105
S'99acf08af43df42f68f68c3b9bebdce7'
p2360
sg107
S'07f20cc7ddeec112f6b3e3390e8172a4'
p2361
sg109
(lp2362
g2295
ag2302
ag2309
ag2316
ag2323
ag2330
ag2337
ag2344
asg111
Nsba(ibclass
BBasicBlock
p2363
(dp2364
g12
Nsg13
(lp2365
(ibclass
BInstr
p2366
(dp2367
g2
Nsg17
S'MOV             X0, X20'
p2368
sg19
S'e00314aa'
p2369
sg21
Vmov x0, x20
p2370
sg5
L18446743798839636912L
sg6
Nsg23
S'MOV'
p2371
sg25
S'0xffffffc00079f3b0L'
p2372
sg27
Nsba(ibclass
BInstr
p2373
(dp2374
g2
Nsg17
S'BL              mutex_unlock'
p2375
sg19
S'51711a94'
p2376
sg21
Vbl #0x69c544
p2377
sg5
L18446743798839636916L
sg6
Nsg23
S'BL'
p2378
sg25
S'0xffffffc00079f3b4L'
p2379
sg27
Nsbasg84
(lp2380
S'MOV reg, reg0'
p2381
aS'BL mutex_unlock'
p2382
asg95
Nsg5
S'0xffffffc00079f3b0L'
p2383
sg97
(lp2384
S'0xffffffc00079f31cL'
p2385
aS'0xffffffc00079f36cL'
p2386
aS'0xffffffc00079f380L'
p2387
aS'0xffffffc00079f390L'
p2388
asg6
Nsg99
(lp2389
S'0xffffffc00079f3b8L'
p2390
asg103
Nsg104
Nsg105
S'd358f8b13c87ca08ba6d4b865203703e'
p2391
sg107
S'd0ee2635f8563542093f26db75c2c36a'
p2392
sg109
(lp2393
g2371
ag2378
asg111
Nsba(ibclass
BBasicBlock
p2394
(dp2395
g12
Nsg13
(lp2396
(ibclass
BInstr
p2397
(dp2398
g2
Nsg17
S'MOV             X0, X22'
p2399
sg19
S'e00316aa'
p2400
sg21
Vmov x0, x22
p2401
sg5
L18446743798839636920L
sg6
Nsg23
S'MOV'
p2402
sg25
S'0xffffffc00079f3b8L'
p2403
sg27
Nsba(ibclass
BInstr
p2404
(dp2405
g2
Nsg17
S'BL              mutex_unlock'
p2406
sg19
S'4f711a94'
p2407
sg21
Vbl #0x69c53c
p2408
sg5
L18446743798839636924L
sg6
Nsg23
S'BL'
p2409
sg25
S'0xffffffc00079f3bcL'
p2410
sg27
Nsba(ibclass
BInstr
p2411
(dp2412
g2
Nsg17
S'B               loc_FFFFFFC00079F3D0'
p2413
sg19
S'04000014'
p2414
sg21
Vb #0x10
p2415
sg5
L18446743798839636928L
sg6
Nsg23
g334
sg25
S'0xffffffc00079f3c0L'
p2416
sg27
Nsbasg84
(lp2417
S'MOV reg, reg2'
p2418
aS'BL mutex_unlock'
p2419
aS'B func'
p2420
asg95
Nsg5
S'0xffffffc00079f3b8L'
p2421
sg97
(lp2422
S'0xffffffc00079f160L'
p2423
aS'0xffffffc00079f2e8L'
p2424
aS'0xffffffc00079f3b0L'
p2425
asg6
Nsg99
(lp2426
S'0xffffffc00079f3d0L'
p2427
asg103
Nsg104
Nsg105
S'f3f645dfcfe38b34211b70b425c07bfe'
p2428
sg107
S'73117b4c3122e94fde52168be2cc6b81'
p2429
sg109
(lp2430
g2402
ag2409
ag334
asg111
Nsba(ibclass
BBasicBlock
p2431
(dp2432
g12
Nsg13
(lp2433
(ibclass
BInstr
p2434
(dp2435
g2
Nsg17
S'MOV             W19, #0xFFFFFFEA'
p2436
sg19
S'b3028012'
p2437
sg21
Vmovn w19, #0x15
p2438
sg5
L18446743798839636932L
sg6
Nsg23
S'MOV'
p2439
sg25
S'0xffffffc00079f3c4L'
p2440
sg27
Nsba(ibclass
BInstr
p2441
(dp2442
g2
Nsg17
S'B               loc_FFFFFFC00079F3D0'
p2443
sg19
S'02000014'
p2444
sg21
Vb #8
p2445
sg5
L18446743798839636936L
sg6
Nsg23
g334
sg25
S'0xffffffc00079f3c8L'
p2446
sg27
Nsbasg84
(lp2447
S'MOV reg9, #0xFFFFFFEA'
p2448
aS'B func'
p2449
asg95
Nsg5
S'0xffffffc00079f3c4L'
p2450
sg97
(lp2451
S'0xffffffc00079f068L'
p2452
asg6
Nsg99
(lp2453
S'0xffffffc00079f3d0L'
p2454
asg103
Nsg104
Nsg105
S'b6c4e95ccfe77a95e4cf2019dd3d5574'
p2455
sg107
S'2df65a3d1e38b6b0509f82fc7f43f7ca'
p2456
sg109
(lp2457
g2439
ag334
asg111
Nsba(ibclass
BBasicBlock
p2458
(dp2459
g12
Nsg13
(lp2460
(ibclass
BInstr
p2461
(dp2462
g2
Nsg17
S'MOV             W19, #0xFFFFFFF5'
p2463
sg19
S'53018012'
p2464
sg21
Vmovn w19, #0xa
p2465
sg5
L18446743798839636940L
sg6
Nsg23
S'MOV'
p2466
sg25
S'0xffffffc00079f3ccL'
p2467
sg27
Nsbasg84
(lp2468
S'MOV reg9, #0xFFFFFFF5'
p2469
asg95
Nsg5
S'0xffffffc00079f3ccL'
p2470
sg97
(lp2471
S'0xffffffc00079f0c8L'
p2472
asg6
Nsg99
(lp2473
S'0xffffffc00079f3d0L'
p2474
asg103
Nsg104
Nsg105
S'17b32100aef1fc19670be7fd58bc85df'
p2475
sg107
S'9be77579b4a3d4d9a1594f003e6bf305'
p2476
sg109
(lp2477
g2466
asg111
Nsba(ibclass
BBasicBlock
p2478
(dp2479
g12
Nsg13
(lp2480
(ibclass
BInstr
p2481
(dp2482
g2
Nsg17
S'MOV             W0, W19'
p2483
sg19
S'e003132a'
p2484
sg21
Vmov w0, w19
p2485
sg5
L18446743798839636944L
sg6
Nsg23
S'MOV'
p2486
sg25
S'0xffffffc00079f3d0L'
p2487
sg27
Nsba(ibclass
BInstr
p2488
(dp2489
g2
Nsg17
S'LDP             X21, X22, [SP,#0x30+var_10]'
p2490
sg19
S'f55b42a9'
p2491
sg21
Vldp x21, x22, [sp, #0x20]
p2492
sg5
L18446743798839636948L
sg6
Nsg23
S'LDP'
p2493
sg25
S'0xffffffc00079f3d4L'
p2494
sg27
Nsba(ibclass
BInstr
p2495
(dp2496
g2
Nsg17
S'LDP             X19, X20, [SP,#0x30+var_20]'
p2497
sg19
S'f35341a9'
p2498
sg21
Vldp x19, x20, [sp, #0x10]
p2499
sg5
L18446743798839636952L
sg6
Nsg23
S'LDP'
p2500
sg25
S'0xffffffc00079f3d8L'
p2501
sg27
Nsba(ibclass
BInstr
p2502
(dp2503
g2
Nsg17
S'LDR             X23, [SP,#0x30+var_s0]'
p2504
sg19
S'f71b40f9'
p2505
sg21
Vldr x23, [sp, #0x30]
p2506
sg5
L18446743798839636956L
sg6
Nsg23
S'LDR'
p2507
sg25
S'0xffffffc00079f3dcL'
p2508
sg27
Nsba(ibclass
BInstr
p2509
(dp2510
g2
Nsg17
S'LDP             X29, X30, [SP+0x30+var_30],#0x40'
p2511
sg19
S'fd7bc4a8'
p2512
sg21
Vldp x29, x30, [sp], #0x40
p2513
sg5
L18446743798839636960L
sg6
Nsg23
S'LDP'
p2514
sg25
S'0xffffffc00079f3e0L'
p2515
sg27
Nsba(ibclass
BInstr
p2516
(dp2517
g2
Nsg17
S'RET'
p2518
sg19
S'c0035fd6'
p2519
sg21
Vret 
p2520
sg5
L18446743798839636964L
sg6
Nsg23
S'RET'
p2521
sg25
S'0xffffffc00079f3e4L'
p2522
sg27
Nsbasg84
(lp2523
S'MOV reg, reg9'
p2524
aS'LDP reg1, reg2, mem'
p2525
aS'LDP reg9, reg0, mem'
p2526
aS'LDR reg3, mem'
p2527
aS'LDP reg9, reg0, mem,#0x40'
p2528
ag2518
asg95
Nsg5
S'0xffffffc00079f3d0L'
p2529
sg97
(lp2530
S'0xffffffc00079f078L'
p2531
aS'0xffffffc00079f08cL'
p2532
aS'0xffffffc00079f0d8L'
p2533
aS'0xffffffc00079f0ecL'
p2534
aS'0xffffffc00079f3b8L'
p2535
aS'0xffffffc00079f3c4L'
p2536
aS'0xffffffc00079f3ccL'
p2537
asg6
Nsg99
(lp2538
sg103
Nsg104
Nsg105
S'cfc037613e13b271d86b454fb9148531'
p2539
sg107
S'f83a361a1e12903ddbba5076b1b0ac7a'
p2540
sg109
(lp2541
g2486
ag2493
ag2500
ag2507
ag2514
ag2521
asg111
Nsbasb.