(ibclass
BFunc
p0
(dp1
S'hash'
p2
NsS'name'
p3
S'panel_debug_base_offset_write'
p4
sS'start_address'
p5
L18446743798836601736L
sS'flag'
p6
NsS'program'
p7
NsS'bbs'
p8
(lp9
(ibclass
BBasicBlock
p10
(dp11
S'function'
p12
NsS'binstrs'
p13
(lp14
(ibclass
BInstr
p15
(dp16
g2
NsS'disasm'
p17
S'STP             X29, X30, [SP,#-0x10+var_B0]!'
p18
sS'bytes'
p19
S'fd7bb4a9'
p20
sS'disasm_striped'
p21
Vstp x29, x30, [sp, #-0xc0]!
p22
sg5
L18446743798836601736L
sg6
NsS'mnem'
p23
S'STP'
p24
sS'address'
p25
S'0xffffffc0004ba388L'
p26
sS'basicblock'
p27
Nsba(ibclass
BInstr
p28
(dp29
g2
Nsg17
S'MOV             X29, SP'
p30
sg19
S'fd030091'
p31
sg21
Vmov x29, sp
p32
sg5
L18446743798836601740L
sg6
Nsg23
S'MOV'
p33
sg25
S'0xffffffc0004ba38cL'
p34
sg27
Nsba(ibclass
BInstr
p35
(dp36
g2
Nsg17
S'STP             X19, X20, [SP,#0xB0+var_A0]'
p37
sg19
S'f35301a9'
p38
sg21
Vstp x19, x20, [sp, #0x10]
p39
sg5
L18446743798836601744L
sg6
Nsg23
S'STP'
p40
sg25
S'0xffffffc0004ba390L'
p41
sg27
Nsba(ibclass
BInstr
p42
(dp43
g2
Nsg17
S'STR             X21, [SP,#0xB0+var_90]'
p44
sg19
S'f51300f9'
p45
sg21
Vstr x21, [sp, #0x20]
p46
sg5
L18446743798836601748L
sg6
Nsg23
S'STR'
p47
sg25
S'0xffffffc0004ba394L'
p48
sg27
Nsba(ibclass
BInstr
p49
(dp50
g2
Nsg17
S'LDR             X20, [X0,#0xA8]'
p51
sg19
S'145440f9'
p52
sg21
Vldr x20, [x0, #0xa8]
p53
sg5
L18446743798836601752L
sg6
Nsg23
S'LDR'
p54
sg25
S'0xffffffc0004ba398L'
p55
sg27
Nsba(ibclass
BInstr
p56
(dp57
g2
Nsg17
S'MOV             W0, #0x100'
p58
sg19
S'00208052'
p59
sg21
Vmovz w0, #0x100
p60
sg5
L18446743798836601756L
sg6
Nsg23
S'MOV'
p61
sg25
S'0xffffffc0004ba39cL'
p62
sg27
Nsba(ibclass
BInstr
p63
(dp64
g2
Nsg17
S'MOV             X21, X1'
p65
sg19
S'f50301aa'
p66
sg21
Vmov x21, x1
p67
sg5
L18446743798836601760L
sg6
Nsg23
S'MOV'
p68
sg25
S'0xffffffc0004ba3a0L'
p69
sg27
Nsba(ibclass
BInstr
p70
(dp71
g2
Nsg17
S'MOV             X19, X2'
p72
sg19
S'f30302aa'
p73
sg21
Vmov x19, x2
p74
sg5
L18446743798836601764L
sg6
Nsg23
S'MOV'
p75
sg25
S'0xffffffc0004ba3a4L'
p76
sg27
Nsba(ibclass
BInstr
p77
(dp78
g2
Nsg17
S'STR             W0, [X29,#0xB0+var_s0]'
p79
sg19
S'a0b300b9'
p80
sg21
Vstr w0, [x29, #0xb0]
p81
sg5
L18446743798836601768L
sg6
Nsg23
S'STR'
p82
sg25
S'0xffffffc0004ba3a8L'
p83
sg27
Nsba(ibclass
BInstr
p84
(dp85
g2
Nsg17
S'MOV             W1, #0'
p86
sg19
S'01008052'
p87
sg21
Vmovz w1, #0
p88
sg5
L18446743798836601772L
sg6
Nsg23
S'MOV'
p89
sg25
S'0xffffffc0004ba3acL'
p90
sg27
Nsba(ibclass
BInstr
p91
(dp92
g2
Nsg17
S'ADD             X0, X29, #0x30'
p93
sg19
S'a0c30091'
p94
sg21
Vadd x0, x29, #0x30
p95
sg5
L18446743798836601776L
sg6
Nsg23
S'ADD'
p96
sg25
S'0xffffffc0004ba3b0L'
p97
sg27
Nsba(ibclass
BInstr
p98
(dp99
g2
Nsg17
S'MOV             X2, #0x80'
p100
sg19
S'021080d2'
p101
sg21
Vmovz x2, #0x80
p102
sg5
L18446743798836601780L
sg6
Nsg23
S'MOV'
p103
sg25
S'0xffffffc0004ba3b4L'
p104
sg27
Nsba(ibclass
BInstr
p105
(dp106
g2
Nsg17
S'STR             WZR, [X29,#0xB0+var_s4]'
p107
sg19
S'bfb700b9'
p108
sg21
Vstr wzr, [x29, #0xb4]
p109
sg5
L18446743798836601784L
sg6
Nsg23
S'STR'
p110
sg25
S'0xffffffc0004ba3b8L'
p111
sg27
Nsba(ibclass
BInstr
p112
(dp113
g2
Nsg17
S'BL              memset'
p114
sg19
S'9198fd97'
p115
sg21
Vbl #0xfffffffffff66244
p116
sg5
L18446743798836601788L
sg6
Nsg23
S'BL'
p117
sg25
S'0xffffffc0004ba3bcL'
p118
sg27
Nsba(ibclass
BInstr
p119
(dp120
g2
Nsg17
S'CBZ             X20, loc_FFFFFFC0004BA4A8'
p121
sg19
S'540700b4'
p122
sg21
Vcbz x20, #0xe8
p123
sg5
L18446743798836601792L
sg6
Nsg23
S'CBZ'
p124
sg25
S'0xffffffc0004ba3c0L'
p125
sg27
NsbasS'disasm_list'
p126
(lp127
S'STP reg9, reg0, mem!'
p128
aS'MOV reg9, SP'
p129
aS'STP reg9, reg0, mem'
p130
aS'STR reg1, mem'
p131
aS'LDR reg0, mem'
p132
aS'MOV reg, #0x100'
p133
aS'MOV reg1, reg'
p134
aS'MOV reg9, reg'
p135
aS'STR reg, mem'
p136
aS'MOV reg, #0'
p137
aS'ADD reg, reg9, #0x30'
p138
aS'MOV reg, #0x80'
p139
aS'STR WZR, mem'
p140
aS'BL memset'
p141
aS'CBZ reg0, func'
p142
asS'end_address'
p143
Nsg5
S'0xffffffc0004ba388L'
p144
sS'preds'
p145
(lp146
sg6
NsS'succs'
p147
(lp148
S'0xffffffc0004ba3c4L'
p149
aS'0xffffffc0004ba4a8L'
p150
asS'hash_v3'
p151
NsS'flag_v2'
p152
NsS'hash_v1'
p153
S'c142409bd9016151eef7b15376159392'
p154
sS'hash_v2'
p155
S'fef4fe381da2aa989b3efcecd2fdf444'
p156
sS'mnen_list'
p157
(lp158
g24
ag33
ag40
ag47
ag54
ag61
ag68
ag75
ag82
ag89
ag96
ag103
ag110
ag117
ag124
asS'neighbour_disasm_list'
p159
Nsba(ibclass
BBasicBlock
p160
(dp161
g12
Nsg13
(lp162
(ibclass
BInstr
p163
(dp164
g2
Nsg17
S'CMP             X19, #0x7F'
p165
sg19
S'7ffe01f1'
p166
sg21
Vcmp x19, #0x7f
p167
sg5
L18446743798836601796L
sg6
Nsg23
S'CMP'
p168
sg25
S'0xffffffc0004ba3c4L'
p169
sg27
Nsba(ibclass
BInstr
p170
(dp171
g2
Nsg17
S'B.LS            loc_FFFFFFC0004BA3D4'
p172
sg19
S'69000054'
p173
sg21
Vb.ls #0xc
p174
sg5
L18446743798836601800L
sg6
Nsg23
S'B'
p175
sg25
S'0xffffffc0004ba3c8L'
p176
sg27
Nsbasg126
(lp177
S'CMP reg9, #0x7F'
p178
aS'B.LS func'
p179
asg143
Nsg5
S'0xffffffc0004ba3c4L'
p180
sg145
(lp181
S'0xffffffc0004ba388L'
p182
asg6
Nsg147
(lp183
S'0xffffffc0004ba3ccL'
p184
aS'0xffffffc0004ba3d4L'
p185
asg151
Nsg152
Nsg153
S'c78fd620a449e3c979d3f3ec12d4ee88'
p186
sg155
S'740b020087b45f10d365e7de1f7b82cb'
p187
sg157
(lp188
g168
ag175
asg159
Nsba(ibclass
BBasicBlock
p189
(dp190
g12
Nsg13
(lp191
(ibclass
BInstr
p192
(dp193
g2
Nsg17
S'MOV             X0, #0xFFFFFFFFFFFFFFF2'
p194
sg19
S'a0018092'
p195
sg21
Vmovn x0, #0xd
p196
sg5
L18446743798836601804L
sg6
Nsg23
S'MOV'
p197
sg25
S'0xffffffc0004ba3ccL'
p198
sg27
Nsba(ibclass
BInstr
p199
(dp200
g2
Nsg17
S'B               loc_FFFFFFC0004BA4B4'
p201
sg19
S'39000014'
p202
sg21
Vb #0xe4
p203
sg5
L18446743798836601808L
sg6
Nsg23
g175
sg25
S'0xffffffc0004ba3d0L'
p204
sg27
Nsbasg126
(lp205
S'MOV reg, #0xFFFFFFFFFFFFFFF2'
p206
aS'B func'
p207
asg143
Nsg5
S'0xffffffc0004ba3ccL'
p208
sg145
(lp209
S'0xffffffc0004ba3c4L'
p210
aS'0xffffffc0004ba414L'
p211
aS'0xffffffc0004ba418L'
p212
asg6
Nsg147
(lp213
S'0xffffffc0004ba4b4L'
p214
asg151
Nsg152
Nsg153
S'b6c4e95ccfe77a95e4cf2019dd3d5574'
p215
sg155
S'de5cd3634b99fc7484a5299a0e06a6dc'
p216
sg157
(lp217
g197
ag175
asg159
Nsba(ibclass
BBasicBlock
p218
(dp219
g12
Nsg13
(lp220
(ibclass
BInstr
p221
(dp222
g2
Nsg17
S'MOV             X1, SP'
p223
sg19
S'e1030091'
p224
sg21
Vmov x1, sp
p225
sg5
L18446743798836601812L
sg6
Nsg23
S'MOV'
p226
sg25
S'0xffffffc0004ba3d4L'
p227
sg27
Nsba(ibclass
BInstr
p228
(dp229
g2
Nsg17
S'AND             X0, X1, #0xFFFFFFFFFFFFC000'
p230
sg19
S'20c47292'
p231
sg21
Vand x0, x1, #0xffffffffffffc000
p232
sg5
L18446743798836601816L
sg6
Nsg23
S'AND'
p233
sg25
S'0xffffffc0004ba3d8L'
p234
sg27
Nsba(ibclass
BInstr
p235
(dp236
g2
Nsg17
S'LDR             X2, [X0,#8]'
p237
sg19
S'020440f9'
p238
sg21
Vldr x2, [x0, #8]
p239
sg5
L18446743798836601820L
sg6
Nsg23
S'LDR'
p240
sg25
S'0xffffffc0004ba3dcL'
p241
sg27
Nsba(ibclass
BInstr
p242
(dp243
g2
Nsg17
S'MOV             X0, X21'
p244
sg19
S'e00315aa'
p245
sg21
Vmov x0, x21
p246
sg5
L18446743798836601824L
sg6
Nsg23
S'MOV'
p247
sg25
S'0xffffffc0004ba3e0L'
p248
sg27
Nsba(ibclass
BInstr
p249
(dp250
g2
Nsg17
S'ADDS            X0, X0, X19'
p251
sg19
S'000013ab'
p252
sg21
Vadds x0, x0, x19
p253
sg5
L18446743798836601828L
sg6
Nsg23
S'ADD'
p254
sg25
S'0xffffffc0004ba3e4L'
p255
sg27
Nsba(ibclass
BInstr
p256
(dp257
g2
Nsg17
S'CCMP            X0, X2, #2, CC'
p258
sg19
S'023042fa'
p259
sg21
Vccmp x0, x2, #2, lo
p260
sg5
L18446743798836601832L
sg6
Nsg23
S'CCMP'
p261
sg25
S'0xffffffc0004ba3e8L'
p262
sg27
Nsba(ibclass
BInstr
p263
(dp264
g2
Nsg17
S'CSET            X1, LS'
p265
sg19
S'e1879f9a'
p266
sg21
Vcset x1, ls
p267
sg5
L18446743798836601836L
sg6
Nsg23
S'CSET'
p268
sg25
S'0xffffffc0004ba3ecL'
p269
sg27
Nsba(ibclass
BInstr
p270
(dp271
g2
Nsg17
S'ADD             X0, X29, #0x30'
p272
sg19
S'a0c30091'
p273
sg21
Vadd x0, x29, #0x30
p274
sg5
L18446743798836601840L
sg6
Nsg23
S'ADD'
p275
sg25
S'0xffffffc0004ba3f0L'
p276
sg27
Nsba(ibclass
BInstr
p277
(dp278
g2
Nsg17
S'CBZ             X1, loc_FFFFFFC0004BA408'
p279
sg19
S'a10000b4'
p280
sg21
Vcbz x1, #0x14
p281
sg5
L18446743798836601844L
sg6
Nsg23
S'CBZ'
p282
sg25
S'0xffffffc0004ba3f4L'
p283
sg27
Nsbasg126
(lp284
S'MOV reg, SP'
p285
aS'AND reg, reg, #0xFFFFFFFFFFFFC000'
p286
aS'LDR reg, mem'
p287
aS'MOV reg, reg1'
p288
aS'ADDS reg, reg, reg9'
p289
aS'CCMP reg, reg, #2, CC'
p290
aS'CSET reg, LS'
p291
aS'ADD reg, reg9, #0x30'
p292
aS'CBZ reg, func'
p293
asg143
Nsg5
S'0xffffffc0004ba3d4L'
p294
sg145
(lp295
S'0xffffffc0004ba3c4L'
p296
asg6
Nsg147
(lp297
S'0xffffffc0004ba3f8L'
p298
aS'0xffffffc0004ba408L'
p299
asg151
Nsg152
Nsg153
S'855fef765c622f509009a0d487bbf388'
p300
sg155
S'45a72c7d52687a031dadb1075ad0ea1f'
p301
sg157
(lp302
g226
ag233
ag240
ag247
ag254
ag261
ag268
ag275
ag282
asg159
Nsba(ibclass
BBasicBlock
p303
(dp304
g12
Nsg13
(lp305
(ibclass
BInstr
p306
(dp307
g2
Nsg17
S'MOV             X1, X21'
p308
sg19
S'e10315aa'
p309
sg21
Vmov x1, x21
p310
sg5
L18446743798836601848L
sg6
Nsg23
S'MOV'
p311
sg25
S'0xffffffc0004ba3f8L'
p312
sg27
Nsba(ibclass
BInstr
p313
(dp314
g2
Nsg17
S'MOV             X2, X19'
p315
sg19
S'e20313aa'
p316
sg21
Vmov x2, x19
p317
sg5
L18446743798836601852L
sg6
Nsg23
S'MOV'
p318
sg25
S'0xffffffc0004ba3fcL'
p319
sg27
Nsba(ibclass
BInstr
p320
(dp321
g2
Nsg17
S'BL              __copy_from_user'
p322
sg19
S'b496fd97'
p323
sg21
Vbl #0xfffffffffff65ad0
p324
sg5
L18446743798836601856L
sg6
Nsg23
S'BL'
p325
sg25
S'0xffffffc0004ba400L'
p326
sg27
Nsba(ibclass
BInstr
p327
(dp328
g2
Nsg17
S'B               loc_FFFFFFC0004BA414'
p329
sg19
S'04000014'
p330
sg21
Vb #0x10
p331
sg5
L18446743798836601860L
sg6
Nsg23
g175
sg25
S'0xffffffc0004ba404L'
p332
sg27
Nsbasg126
(lp333
S'MOV reg, reg1'
p334
aS'MOV reg, reg9'
p335
aS'BL __copy_from_user'
p336
aS'B func'
p337
asg143
Nsg5
S'0xffffffc0004ba3f8L'
p338
sg145
(lp339
S'0xffffffc0004ba3d4L'
p340
asg6
Nsg147
(lp341
S'0xffffffc0004ba414L'
p342
asg151
Nsg152
Nsg153
S'c7080d4a00502726be394af0677088cd'
p343
sg155
S'd56e9f008daf3f527feb3ba75774ac9a'
p344
sg157
(lp345
g311
ag318
ag325
ag175
asg159
Nsba(ibclass
BBasicBlock
p346
(dp347
g12
Nsg13
(lp348
(ibclass
BInstr
p349
(dp350
g2
Nsg17
S'MOV             X2, X19'
p351
sg19
S'e20313aa'
p352
sg21
Vmov x2, x19
p353
sg5
L18446743798836601864L
sg6
Nsg23
S'MOV'
p354
sg25
S'0xffffffc0004ba408L'
p355
sg27
Nsba(ibclass
BInstr
p356
(dp357
g2
Nsg17
S'BL              memset'
p358
sg19
S'7d98fd97'
p359
sg21
Vbl #0xfffffffffff661f4
p360
sg5
L18446743798836601868L
sg6
Nsg23
S'BL'
p361
sg25
S'0xffffffc0004ba40cL'
p362
sg27
Nsba(ibclass
BInstr
p363
(dp364
g2
Nsg17
S'MOV             X0, X19'
p365
sg19
S'e00313aa'
p366
sg21
Vmov x0, x19
p367
sg5
L18446743798836601872L
sg6
Nsg23
S'MOV'
p368
sg25
S'0xffffffc0004ba410L'
p369
sg27
Nsbasg126
(lp370
S'MOV reg, reg9'
p371
aS'BL memset'
p372
aS'MOV reg, reg9'
p373
asg143
Nsg5
S'0xffffffc0004ba408L'
p374
sg145
(lp375
S'0xffffffc0004ba3d4L'
p376
asg6
Nsg147
(lp377
S'0xffffffc0004ba414L'
p378
asg151
Nsg152
Nsg153
S'f5aca26e8f695df15220ab59afc1e815'
p379
sg155
S'89b97024c09de01b2891d00607683175'
p380
sg157
(lp381
g354
ag361
ag368
asg159
Nsba(ibclass
BBasicBlock
p382
(dp383
g12
Nsg13
(lp384
(ibclass
BInstr
p385
(dp386
g2
Nsg17
S'CBNZ            X0, loc_FFFFFFC0004BA3CC'
p387
sg19
S'c0fdffb5'
p388
sg21
Vcbnz x0, #0xffffffffffffffb8
p389
sg5
L18446743798836601876L
sg6
Nsg23
S'CBNZ'
p390
sg25
S'0xffffffc0004ba414L'
p391
sg27
Nsbasg126
(lp392
S'CBNZ reg, func'
p393
asg143
Nsg5
S'0xffffffc0004ba414L'
p394
sg145
(lp395
S'0xffffffc0004ba3f8L'
p396
aS'0xffffffc0004ba408L'
p397
asg6
Nsg147
(lp398
S'0xffffffc0004ba3ccL'
p399
aS'0xffffffc0004ba418L'
p400
asg151
Nsg152
Nsg153
S'482b7d814ad85789cad59d80ecb8562a'
p401
sg155
S'c81d544e8093e123ef790602aa39a0d0'
p402
sg157
(lp403
g390
asg159
Nsba(ibclass
BBasicBlock
p404
(dp405
g12
Nsg13
(lp406
(ibclass
BInstr
p407
(dp408
g2
Nsg17
S'ADD             X2, X29, #0x30'
p409
sg19
S'a2c30091'
p410
sg21
Vadd x2, x29, #0x30
p411
sg5
L18446743798836601880L
sg6
Nsg23
S'ADD'
p412
sg25
S'0xffffffc0004ba418L'
p413
sg27
Nsba(ibclass
BInstr
p414
(dp415
g2
Nsg17
S'ADRP            X1, #aXX@PAGE; "%x %x"'
p416
sg19
S'817c0090'
p417
sg21
Vadrp x1, #0xf90000
p418
sg5
L18446743798836601884L
sg6
Nsg23
S'ADRP'
p419
sg25
S'0xffffffc0004ba41cL'
p420
sg27
Nsba(ibclass
BInstr
p421
(dp422
g2
Nsg17
S'STRB            W0, [X2,X19]'
p423
sg19
S'40683338'
p424
sg21
Vstrb w0, [x2, x19]
p425
sg5
L18446743798836601888L
sg6
Nsg23
S'STR'
p426
sg25
S'0xffffffc0004ba420L'
p427
sg27
Nsba(ibclass
BInstr
p428
(dp429
g2
Nsg17
S'ADD             X1, X1, #aXX@PAGEOFF; "%x %x"'
p430
sg19
S'21b02091'
p431
sg21
Vadd x1, x1, #0x82c
p432
sg5
L18446743798836601892L
sg6
Nsg23
S'ADD'
p433
sg25
S'0xffffffc0004ba424L'
p434
sg27
Nsba(ibclass
BInstr
p435
(dp436
g2
Nsg17
S'MOV             X0, X2'
p437
sg19
S'e00302aa'
p438
sg21
Vmov x0, x2
p439
sg5
L18446743798836601896L
sg6
Nsg23
S'MOV'
p440
sg25
S'0xffffffc0004ba428L'
p441
sg27
Nsba(ibclass
BInstr
p442
(dp443
g2
Nsg17
S'ADD             X3, X29, #0xB0'
p444
sg19
S'a3c30291'
p445
sg21
Vadd x3, x29, #0xb0
p446
sg5
L18446743798836601900L
sg6
Nsg23
S'ADD'
p447
sg25
S'0xffffffc0004ba42cL'
p448
sg27
Nsba(ibclass
BInstr
p449
(dp450
g2
Nsg17
S'ADD             X2, X29, #0xB4'
p451
sg19
S'a2d30291'
p452
sg21
Vadd x2, x29, #0xb4
p453
sg5
L18446743798836601904L
sg6
Nsg23
S'ADD'
p454
sg25
S'0xffffffc0004ba430L'
p455
sg27
Nsba(ibclass
BInstr
p456
(dp457
g2
Nsg17
S'BL              sscanf'
p458
sg19
S'a1c7fd97'
p459
sg21
Vbl #0xfffffffffff71e84
p460
sg5
L18446743798836601908L
sg6
Nsg23
S'BL'
p461
sg25
S'0xffffffc0004ba434L'
p462
sg27
Nsba(ibclass
BInstr
p463
(dp464
g2
Nsg17
S'CMP             W0, #2'
p465
sg19
S'1f080071'
p466
sg21
Vcmp w0, #2
p467
sg5
L18446743798836601912L
sg6
Nsg23
S'CMP'
p468
sg25
S'0xffffffc0004ba438L'
p469
sg27
Nsba(ibclass
BInstr
p470
(dp471
g2
Nsg17
S'B.NE            loc_FFFFFFC0004BA3CC'
p472
sg19
S'81fcff54'
p473
sg21
Vb.ne #0xffffffffffffff90
p474
sg5
L18446743798836601916L
sg6
Nsg23
g175
sg25
S'0xffffffc0004ba43cL'
p475
sg27
Nsbasg126
(lp476
S'ADD reg, reg9, #0x30'
p477
aS'ADRP reg, #aXX@PAGE'
p478
aS'STRB reg, mem'
p479
aS'ADD reg, reg, #aXX@PAGEOFF'
p480
aS'MOV reg, reg'
p481
aS'ADD reg, reg9, #0xB0'
p482
aS'ADD reg, reg9, #0xB4'
p483
aS'BL sscanf'
p484
aS'CMP reg, #2'
p485
aS'B.NE func'
p486
asg143
Nsg5
S'0xffffffc0004ba418L'
p487
sg145
(lp488
S'0xffffffc0004ba414L'
p489
asg6
Nsg147
(lp490
S'0xffffffc0004ba3ccL'
p491
aS'0xffffffc0004ba440L'
p492
asg151
Nsg152
Nsg153
S'26f164902e05df99b58328095d71bfd7'
p493
sg155
S'd6a250d4f91d2f2272e2dc9ed8799ae4'
p494
sg157
(lp495
g412
ag419
ag426
ag433
ag440
ag447
ag454
ag461
ag468
ag175
asg159
Nsba(ibclass
BBasicBlock
p496
(dp497
g12
Nsg13
(lp498
(ibclass
BInstr
p499
(dp500
g2
Nsg17
S'LDR             W3, [X29,#arg_A4]'
p501
sg19
S'a3b740b9'
p502
sg21
Vldr w3, [x29, #0xb4]
p503
sg5
L18446743798836601920L
sg6
Nsg23
S'LDR'
p504
sg25
S'0xffffffc0004ba440L'
p505
sg27
Nsba(ibclass
BInstr
p506
(dp507
g2
Nsg17
S'LDR             X1, [X20,#0x90]'
p508
sg19
S'814a40f9'
p509
sg21
Vldr x1, [x20, #0x90]
p510
sg5
L18446743798836601924L
sg6
Nsg23
S'LDR'
p511
sg25
S'0xffffffc0004ba444L'
p512
sg27
Nsba(ibclass
BInstr
p513
(dp514
g2
Nsg17
S'MOV             W0, W3'
p515
sg19
S'e003032a'
p516
sg21
Vmov w0, w3
p517
sg5
L18446743798836601928L
sg6
Nsg23
S'MOV'
p518
sg25
S'0xffffffc0004ba448L'
p519
sg27
Nsba(ibclass
BInstr
p520
(dp521
g2
Nsg17
S'CMP             X0, X1'
p522
sg19
S'1f0001eb'
p523
sg21
Vcmp x0, x1
p524
sg5
L18446743798836601932L
sg6
Nsg23
S'CMP'
p525
sg25
S'0xffffffc0004ba44cL'
p526
sg27
Nsba(ibclass
BInstr
p527
(dp528
g2
Nsg17
S'B.HI            loc_FFFFFFC0004BA4B0'
p529
sg19
S'08030054'
p530
sg21
Vb.hi #0x60
p531
sg5
L18446743798836601936L
sg6
Nsg23
g175
sg25
S'0xffffffc0004ba450L'
p532
sg27
Nsbasg126
(lp533
S'LDR reg, mem'
p534
aS'LDR reg, mem'
p535
aS'MOV reg, reg'
p536
aS'CMP reg, reg'
p537
aS'B.HI func'
p538
asg143
Nsg5
S'0xffffffc0004ba440L'
p539
sg145
(lp540
S'0xffffffc0004ba418L'
p541
asg6
Nsg147
(lp542
S'0xffffffc0004ba454L'
p543
aS'0xffffffc0004ba4b0L'
p544
asg151
Nsg152
Nsg153
S'85490e98f11eb151892ea9e5296ea71c'
p545
sg155
S'6ba8d94897efde715ccc1f50f9d93586'
p546
sg157
(lp547
g504
ag511
ag518
ag525
ag175
asg159
Nsba(ibclass
BBasicBlock
p548
(dp549
g12
Nsg13
(lp550
(ibclass
BInstr
p551
(dp552
g2
Nsg17
S'LDR             W4, [X29,#arg_A0]'
p553
sg19
S'a4b340b9'
p554
sg21
Vldr w4, [x29, #0xb0]
p555
sg5
L18446743798836601940L
sg6
Nsg23
S'LDR'
p556
sg25
S'0xffffffc0004ba454L'
p557
sg27
Nsba(ibclass
BInstr
p558
(dp559
g2
Nsg17
S'SUB             X2, X1, X0'
p560
sg19
S'220000cb'
p561
sg21
Vsub x2, x1, x0
p562
sg5
L18446743798836601944L
sg6
Nsg23
S'SUB'
p563
sg25
S'0xffffffc0004ba458L'
p564
sg27
Nsba(ibclass
BInstr
p565
(dp566
g2
Nsg17
S'CMP             X4, X2'
p567
sg19
S'9f0002eb'
p568
sg21
Vcmp x4, x2
p569
sg5
L18446743798836601948L
sg6
Nsg23
S'CMP'
p570
sg25
S'0xffffffc0004ba45cL'
p571
sg27
Nsba(ibclass
BInstr
p572
(dp573
g2
Nsg17
S'B.LS            loc_FFFFFFC0004BA46C'
p574
sg19
S'69000054'
p575
sg21
Vb.ls #0xc
p576
sg5
L18446743798836601952L
sg6
Nsg23
g175
sg25
S'0xffffffc0004ba460L'
p577
sg27
Nsbasg126
(lp578
S'LDR reg, mem'
p579
aS'SUB reg, reg, reg'
p580
aS'CMP reg, reg'
p581
aS'B.LS func'
p582
asg143
Nsg5
S'0xffffffc0004ba454L'
p583
sg145
(lp584
S'0xffffffc0004ba440L'
p585
asg6
Nsg147
(lp586
S'0xffffffc0004ba464L'
p587
aS'0xffffffc0004ba46cL'
p588
asg151
Nsg152
Nsg153
S'dd5dbfa9105770945b09dacfec96972a'
p589
sg155
S'6ef4216a768c743a64bfb28a88f0147c'
p590
sg157
(lp591
g556
ag563
ag570
ag175
asg159
Nsba(ibclass
BBasicBlock
p592
(dp593
g12
Nsg13
(lp594
(ibclass
BInstr
p595
(dp596
g2
Nsg17
S'SUB             W1, W1, W3'
p597
sg19
S'2100034b'
p598
sg21
Vsub w1, w1, w3
p599
sg5
L18446743798836601956L
sg6
Nsg23
S'SUB'
p600
sg25
S'0xffffffc0004ba464L'
p601
sg27
Nsba(ibclass
BInstr
p602
(dp603
g2
Nsg17
S'STR             W1, [X29,#arg_A0]'
p604
sg19
S'a1b300b9'
p605
sg21
Vstr w1, [x29, #0xb0]
p606
sg5
L18446743798836601960L
sg6
Nsg23
S'STR'
p607
sg25
S'0xffffffc0004ba468L'
p608
sg27
Nsbasg126
(lp609
S'SUB reg, reg, reg'
p610
aS'STR reg, mem'
p611
asg143
Nsg5
S'0xffffffc0004ba464L'
p612
sg145
(lp613
S'0xffffffc0004ba454L'
p614
asg6
Nsg147
(lp615
S'0xffffffc0004ba46cL'
p616
asg151
Nsg152
Nsg153
S'5fce279038fa450e05d4a112835bc5ba'
p617
sg155
S'8f9547760492afde1b90bcffd93569f8'
p618
sg157
(lp619
g600
ag607
asg159
Nsba(ibclass
BBasicBlock
p620
(dp621
g12
Nsg13
(lp622
(ibclass
BInstr
p623
(dp624
g2
Nsg17
S'LDR             W4, [X29,#arg_A0]'
p625
sg19
S'a4b340b9'
p626
sg21
Vldr w4, [x29, #0xb0]
p627
sg5
L18446743798836601964L
sg6
Nsg23
S'LDR'
p628
sg25
S'0xffffffc0004ba46cL'
p629
sg27
Nsba(ibclass
BInstr
p630
(dp631
g2
Nsg17
S'STR             X0, [X20,#0x80]'
p632
sg19
S'804200f9'
p633
sg21
Vstr x0, [x20, #0x80]
p634
sg5
L18446743798836601968L
sg6
Nsg23
S'STR'
p635
sg25
S'0xffffffc0004ba470L'
p636
sg27
Nsba(ibclass
BInstr
p637
(dp638
g2
Nsg17
S'MOV             W0, W4'
p639
sg19
S'e003042a'
p640
sg21
Vmov w0, w4
p641
sg5
L18446743798836601972L
sg6
Nsg23
S'MOV'
p642
sg25
S'0xffffffc0004ba474L'
p643
sg27
Nsba(ibclass
BInstr
p644
(dp645
g2
Nsg17
S'STR             X0, [X20,#0x88]'
p646
sg19
S'804600f9'
p647
sg21
Vstr x0, [x20, #0x88]
p648
sg5
L18446743798836601976L
sg6
Nsg23
S'STR'
p649
sg25
S'0xffffffc0004ba478L'
p650
sg27
Nsba(ibclass
BInstr
p651
(dp652
g2
Nsg17
S'ADRP            X0, #descriptor.26830@PAGE'
p653
sg19
S'209e00d0'
p654
sg21
Vadrp x0, #0x13c6000
p655
sg5
L18446743798836601980L
sg6
Nsg23
S'ADRP'
p656
sg25
S'0xffffffc0004ba47cL'
p657
sg27
Nsba(ibclass
BInstr
p658
(dp659
g2
Nsg17
S'ADD             X0, X0, #descriptor.26830@PAGEOFF'
p660
sg19
S'00002391'
p661
sg21
Vadd x0, x0, #0x8c0
p662
sg5
L18446743798836601984L
sg6
Nsg23
S'ADD'
p663
sg25
S'0xffffffc0004ba480L'
p664
sg27
Nsba(ibclass
BInstr
p665
(dp666
g2
Nsg17
S'LDRH            W1, [X0,#(word_FFFFFFC0018808E2 - 0xFFFFFFC0018808C0)]'
p667
sg19
S'01444079'
p668
sg21
Vldrh w1, [x0, #0x22]
p669
sg5
L18446743798836601988L
sg6
Nsg23
S'LDR'
p670
sg25
S'0xffffffc0004ba484L'
p671
sg27
Nsba(ibclass
BInstr
p672
(dp673
g2
Nsg17
S'TBZ             W1, #2, loc_FFFFFFC0004BA4A0'
p674
sg19
S'c1001036'
p675
sg21
Vtbz w1, #2, #0x18
p676
sg5
L18446743798836601992L
sg6
Nsg23
S'TBZ'
p677
sg25
S'0xffffffc0004ba488L'
p678
sg27
Nsbasg126
(lp679
S'LDR reg, mem'
p680
aS'STR reg, mem'
p681
aS'MOV reg, reg'
p682
aS'STR reg, mem'
p683
aS'ADRP reg, #descriptor.26830@PAGE'
p684
aS'ADD reg, reg, #descriptor.26830@PAGEOFF'
p685
aS'LDRH reg, mem'
p686
aS'TBZ reg, #2, func'
p687
asg143
Nsg5
S'0xffffffc0004ba46cL'
p688
sg145
(lp689
S'0xffffffc0004ba454L'
p690
aS'0xffffffc0004ba464L'
p691
asg6
Nsg147
(lp692
S'0xffffffc0004ba48cL'
p693
aS'0xffffffc0004ba4a0L'
p694
asg151
Nsg152
Nsg153
S'ecf04a3dd65b7e48453b882d176f375b'
p695
sg155
S'4ad9ed4442df008deb60ea83797aa257'
p696
sg157
(lp697
g628
ag635
ag642
ag649
ag656
ag663
ag670
ag677
asg159
Nsba(ibclass
BBasicBlock
p698
(dp699
g12
Nsg13
(lp700
(ibclass
BInstr
p701
(dp702
g2
Nsg17
S'ADRP            X1, #aSOffsetXCntX@PAGE; "%s: offset=%x cnt=%x\\n"'
p703
sg19
S'81730090'
p704
sg21
Vadrp x1, #0xe70000
p705
sg5
L18446743798836601996L
sg6
Nsg23
S'ADRP'
p706
sg25
S'0xffffffc0004ba48cL'
p707
sg27
Nsba(ibclass
BInstr
p708
(dp709
g2
Nsg17
S'ADRP            X2, #__func__.26831@PAGE; "panel_debug_base_offset_write"'
p710
sg19
S'425b0090'
p711
sg21
Vadrp x2, #0xb68000
p712
sg5
L18446743798836602000L
sg6
Nsg23
S'ADRP'
p713
sg25
S'0xffffffc0004ba490L'
p714
sg27
Nsba(ibclass
BInstr
p715
(dp716
g2
Nsg17
S'ADD             X1, X1, #aSOffsetXCntX@PAGEOFF; "%s: offset=%x cnt=%x\\n"'
p717
sg19
S'21142991'
p718
sg21
Vadd x1, x1, #0xa45
p719
sg5
L18446743798836602004L
sg6
Nsg23
S'ADD'
p720
sg25
S'0xffffffc0004ba494L'
p721
sg27
Nsba(ibclass
BInstr
p722
(dp723
g2
Nsg17
S'ADD             X2, X2, #__func__.26831@PAGEOFF; "panel_debug_base_offset_write"'
p724
sg19
S'42e01691'
p725
sg21
Vadd x2, x2, #0x5b8
p726
sg5
L18446743798836602008L
sg6
Nsg23
S'ADD'
p727
sg25
S'0xffffffc0004ba498L'
p728
sg27
Nsba(ibclass
BInstr
p729
(dp730
g2
Nsg17
S'BL              __dynamic_pr_debug'
p731
sg19
S'4313fe97'
p732
sg21
Vbl #0xfffffffffff84d0c
p733
sg5
L18446743798836602012L
sg6
Nsg23
S'BL'
p734
sg25
S'0xffffffc0004ba49cL'
p735
sg27
Nsbasg126
(lp736
S'ADRP reg, #aSOffsetXCntX@PAGE'
p737
aS'ADRP reg, #__func__.26831@PAGE'
p738
aS'ADD reg, reg, #aSOffsetXCntX@PAGEOFF'
p739
aS'ADD reg, reg, #__func__.26831@PAGEOFF'
p740
aS'BL __dynamic_pr_debug'
p741
asg143
Nsg5
S'0xffffffc0004ba48cL'
p742
sg145
(lp743
S'0xffffffc0004ba46cL'
p744
asg6
Nsg147
(lp745
S'0xffffffc0004ba4a0L'
p746
asg151
Nsg152
Nsg153
S'4bb3c333f0963e9d264d92b454a1960d'
p747
sg155
S'62425d849f65609f9ea41c23764fd6e8'
p748
sg157
(lp749
g706
ag713
ag720
ag727
ag734
asg159
Nsba(ibclass
BBasicBlock
p750
(dp751
g12
Nsg13
(lp752
(ibclass
BInstr
p753
(dp754
g2
Nsg17
S'MOV             X0, X19'
p755
sg19
S'e00313aa'
p756
sg21
Vmov x0, x19
p757
sg5
L18446743798836602016L
sg6
Nsg23
S'MOV'
p758
sg25
S'0xffffffc0004ba4a0L'
p759
sg27
Nsba(ibclass
BInstr
p760
(dp761
g2
Nsg17
S'B               loc_FFFFFFC0004BA4B4'
p762
sg19
S'04000014'
p763
sg21
Vb #0x10
p764
sg5
L18446743798836602020L
sg6
Nsg23
g175
sg25
S'0xffffffc0004ba4a4L'
p765
sg27
Nsbasg126
(lp766
S'MOV reg, reg9'
p767
aS'B func'
p768
asg143
Nsg5
S'0xffffffc0004ba4a0L'
p769
sg145
(lp770
S'0xffffffc0004ba46cL'
p771
aS'0xffffffc0004ba48cL'
p772
asg6
Nsg147
(lp773
S'0xffffffc0004ba4b4L'
p774
asg151
Nsg152
Nsg153
S'b6c4e95ccfe77a95e4cf2019dd3d5574'
p775
sg155
S'90bd6bc801a1f938d10ee1f7030297c0'
p776
sg157
(lp777
g758
ag175
asg159
Nsba(ibclass
BBasicBlock
p778
(dp779
g12
Nsg13
(lp780
(ibclass
BInstr
p781
(dp782
g2
Nsg17
S'MOV             X0, #0xFFFFFFFFFFFFFFED'
p783
sg19
S'40028092'
p784
sg21
Vmovn x0, #0x12
p785
sg5
L18446743798836602024L
sg6
Nsg23
S'MOV'
p786
sg25
S'0xffffffc0004ba4a8L'
p787
sg27
Nsba(ibclass
BInstr
p788
(dp789
g2
Nsg17
S'B               loc_FFFFFFC0004BA4B4'
p790
sg19
S'02000014'
p791
sg21
Vb #8
p792
sg5
L18446743798836602028L
sg6
Nsg23
g175
sg25
S'0xffffffc0004ba4acL'
p793
sg27
Nsbasg126
(lp794
S'MOV reg, #0xFFFFFFFFFFFFFFED'
p795
aS'B func'
p796
asg143
Nsg5
S'0xffffffc0004ba4a8L'
p797
sg145
(lp798
S'0xffffffc0004ba388L'
p799
asg6
Nsg147
(lp800
S'0xffffffc0004ba4b4L'
p801
asg151
Nsg152
Nsg153
S'b6c4e95ccfe77a95e4cf2019dd3d5574'
p802
sg155
S'd6037bdf3642280edfe95bdc7a27c760'
p803
sg157
(lp804
g786
ag175
asg159
Nsba(ibclass
BBasicBlock
p805
(dp806
g12
Nsg13
(lp807
(ibclass
BInstr
p808
(dp809
g2
Nsg17
S'MOV             X0, #0xFFFFFFFFFFFFFFEA'
p810
sg19
S'a0028092'
p811
sg21
Vmovn x0, #0x15
p812
sg5
L18446743798836602032L
sg6
Nsg23
S'MOV'
p813
sg25
S'0xffffffc0004ba4b0L'
p814
sg27
Nsbasg126
(lp815
S'MOV reg, #0xFFFFFFFFFFFFFFEA'
p816
asg143
Nsg5
S'0xffffffc0004ba4b0L'
p817
sg145
(lp818
S'0xffffffc0004ba440L'
p819
asg6
Nsg147
(lp820
S'0xffffffc0004ba4b4L'
p821
asg151
Nsg152
Nsg153
S'17b32100aef1fc19670be7fd58bc85df'
p822
sg155
S'e246af720660f75a784ce8a959acd15d'
p823
sg157
(lp824
g813
asg159
Nsba(ibclass
BBasicBlock
p825
(dp826
g12
Nsg13
(lp827
(ibclass
BInstr
p828
(dp829
g2
Nsg17
S'LDP             X19, X20, [SP,#0xB0+var_A0]'
p830
sg19
S'f35341a9'
p831
sg21
Vldp x19, x20, [sp, #0x10]
p832
sg5
L18446743798836602036L
sg6
Nsg23
S'LDP'
p833
sg25
S'0xffffffc0004ba4b4L'
p834
sg27
Nsba(ibclass
BInstr
p835
(dp836
g2
Nsg17
S'LDR             X21, [SP,#0xB0+var_90]'
p837
sg19
S'f51340f9'
p838
sg21
Vldr x21, [sp, #0x20]
p839
sg5
L18446743798836602040L
sg6
Nsg23
S'LDR'
p840
sg25
S'0xffffffc0004ba4b8L'
p841
sg27
Nsba(ibclass
BInstr
p842
(dp843
g2
Nsg17
S'LDP             X29, X30, [SP+0xB0+var_B0],#0xC0'
p844
sg19
S'fd7bcca8'
p845
sg21
Vldp x29, x30, [sp], #0xc0
p846
sg5
L18446743798836602044L
sg6
Nsg23
S'LDP'
p847
sg25
S'0xffffffc0004ba4bcL'
p848
sg27
Nsba(ibclass
BInstr
p849
(dp850
g2
Nsg17
S'RET'
p851
sg19
S'c0035fd6'
p852
sg21
Vret 
p853
sg5
L18446743798836602048L
sg6
Nsg23
S'RET'
p854
sg25
S'0xffffffc0004ba4c0L'
p855
sg27
Nsbasg126
(lp856
S'LDP reg9, reg0, mem'
p857
aS'LDR reg1, mem'
p858
aS'LDP reg9, reg0, mem,#0xC0'
p859
ag851
asg143
Nsg5
S'0xffffffc0004ba4b4L'
p860
sg145
(lp861
S'0xffffffc0004ba3ccL'
p862
aS'0xffffffc0004ba4a0L'
p863
aS'0xffffffc0004ba4a8L'
p864
aS'0xffffffc0004ba4b0L'
p865
asg6
Nsg147
(lp866
sg151
Nsg152
Nsg153
S'b128167488f61fa9efc4b75f88cc16c9'
p867
sg155
S'1cd89799baad27bb8d7fa4885043276f'
p868
sg157
(lp869
g833
ag840
ag847
ag854
asg159
Nsbasb.