(ibclass
BFunc
p0
(dp1
S'hash'
p2
NsS'name'
p3
S'perf_swevent_add'
p4
sS'start_address'
p5
L18446743798834457724L
sS'flag'
p6
NsS'program'
p7
NsS'bbs'
p8
(lp9
(ibclass
BBasicBlock
p10
(dp11
S'function'
p12
NsS'binstrs'
p13
(lp14
(ibclass
BInstr
p15
(dp16
g2
NsS'disasm'
p17
S'STP             X29, X30, [SP,#-0x10+var_30]!'
p18
sS'bytes'
p19
S'fd7bbca9'
p20
sS'disasm_striped'
p21
Vstp x29, x30, [sp, #-0x40]!
p22
sg5
L18446743798834457724L
sg6
NsS'mnem'
p23
S'STP'
p24
sS'address'
p25
S'0xffffffc0002aec7cL'
p26
sS'basicblock'
p27
Nsba(ibclass
BInstr
p28
(dp29
g2
Nsg17
S'MOV             X29, SP'
p30
sg19
S'fd030091'
p31
sg21
Vmov x29, sp
p32
sg5
L18446743798834457728L
sg6
Nsg23
S'MOV'
p33
sg25
S'0xffffffc0002aec80L'
p34
sg27
Nsba(ibclass
BInstr
p35
(dp36
g2
Nsg17
S'STP             X19, X20, [SP,#0x30+var_20]'
p37
sg19
S'f35301a9'
p38
sg21
Vstp x19, x20, [sp, #0x10]
p39
sg5
L18446743798834457732L
sg6
Nsg23
S'STP'
p40
sg25
S'0xffffffc0002aec84L'
p41
sg27
Nsba(ibclass
BInstr
p42
(dp43
g2
Nsg17
S'STP             X21, X22, [SP,#0x30+var_10]'
p44
sg19
S'f55b02a9'
p45
sg21
Vstp x21, x22, [sp, #0x20]
p46
sg5
L18446743798834457736L
sg6
Nsg23
S'STP'
p47
sg25
S'0xffffffc0002aec88L'
p48
sg27
Nsba(ibclass
BInstr
p49
(dp50
g2
Nsg17
S'STP             X23, X24, [SP,#0x30+var_s0]'
p51
sg19
S'f76303a9'
p52
sg21
Vstp x23, x24, [sp, #0x30]
p53
sg5
L18446743798834457740L
sg6
Nsg23
S'STP'
p54
sg25
S'0xffffffc0002aec8cL'
p55
sg27
Nsba(ibclass
BInstr
p56
(dp57
g2
Nsg17
S'MOV             X19, X0'
p58
sg19
S'f30300aa'
p59
sg21
Vmov x19, x0
p60
sg5
L18446743798834457744L
sg6
Nsg23
S'MOV'
p61
sg25
S'0xffffffc0002aec90L'
p62
sg27
Nsba(ibclass
BInstr
p63
(dp64
g2
Nsg17
S'MOV             W23, W1'
p65
sg19
S'f703012a'
p66
sg21
Vmov w23, w1
p67
sg5
L18446743798834457748L
sg6
Nsg23
S'MOV'
p68
sg25
S'0xffffffc0002aec94L'
p69
sg27
Nsba(ibclass
BInstr
p70
(dp71
g2
Nsg17
S'BL              debug_smp_processor_id'
p72
sg19
S'43110694'
p73
sg21
Vbl #0x18450c
p74
sg5
L18446743798834457752L
sg6
Nsg23
S'BL'
p75
sg25
S'0xffffffc0002aec98L'
p76
sg27
Nsba(ibclass
BInstr
p77
(dp78
g2
Nsg17
S'ADRP            X1, #qword_FFFFFFC000E46668@PAGE'
p79
sg19
S'c15c0090'
p80
sg21
Vadrp x1, #0xb98000
p81
sg5
L18446743798834457756L
sg6
Nsg23
S'ADRP'
p82
sg25
S'0xffffffc0002aec9cL'
p83
sg27
Nsba(ibclass
BInstr
p84
(dp85
g2
Nsg17
S'LDR             X1, [X1,#qword_FFFFFFC000E46668@PAGEOFF]'
p86
sg19
S'213443f9'
p87
sg21
Vldr x1, [x1, #0x668]
p88
sg5
L18446743798834457760L
sg6
Nsg23
S'LDR'
p89
sg25
S'0xffffffc0002aeca0L'
p90
sg27
Nsba(ibclass
BInstr
p91
(dp92
g2
Nsg17
S'ADRP            X20, #swevent_htable_0@PAGE'
p93
sg19
S'14ab00d0'
p94
sg21
Vadrp x20, #0x1562000
p95
sg5
L18446743798834457764L
sg6
Nsg23
S'ADRP'
p96
sg25
S'0xffffffc0002aeca4L'
p97
sg27
Nsba(ibclass
BInstr
p98
(dp99
g2
Nsg17
S'LDR             X22, [X1,W0,UXTW#3]'
p100
sg19
S'365860f8'
p101
sg21
Vldr x22, [x1, w0, uxtw #3]
p102
sg5
L18446743798834457768L
sg6
Nsg23
S'LDR'
p103
sg25
S'0xffffffc0002aeca8L'
p104
sg27
Nsba(ibclass
BInstr
p105
(dp106
g2
Nsg17
S'LDR             X0, [X19,#0xB8]'
p107
sg19
S'605e40f9'
p108
sg21
Vldr x0, [x19, #0xb8]
p109
sg5
L18446743798834457772L
sg6
Nsg23
S'LDR'
p110
sg25
S'0xffffffc0002aecacL'
p111
sg27
Nsba(ibclass
BInstr
p112
(dp113
g2
Nsg17
S'ADD             X20, X20, #swevent_htable_0@PAGEOFF'
p114
sg19
S'94223e91'
p115
sg21
Vadd x20, x20, #0xf88
p116
sg5
L18446743798834457776L
sg6
Nsg23
S'ADD'
p117
sg25
S'0xffffffc0002aecb0L'
p118
sg27
Nsba(ibclass
BInstr
p119
(dp120
g2
Nsg17
S'ADD             X21, X19, #0x110'
p121
sg19
S'75420491'
p122
sg21
Vadd x21, x19, #0x110
p123
sg5
L18446743798834457780L
sg6
Nsg23
S'ADD'
p124
sg25
S'0xffffffc0002aecb4L'
p125
sg27
Nsba(ibclass
BInstr
p126
(dp127
g2
Nsg17
S'ADD             X24, X20, X22'
p128
sg19
S'9802168b'
p129
sg21
Vadd x24, x20, x22
p130
sg5
L18446743798834457784L
sg6
Nsg23
S'ADD'
p131
sg25
S'0xffffffc0002aecb8L'
p132
sg27
Nsba(ibclass
BInstr
p133
(dp134
g2
Nsg17
S'CBZ             X0, loc_FFFFFFC0002AECD0'
p135
sg19
S'a00000b4'
p136
sg21
Vcbz x0, #0x14
p137
sg5
L18446743798834457788L
sg6
Nsg23
S'CBZ'
p138
sg25
S'0xffffffc0002aecbcL'
p139
sg27
NsbasS'disasm_list'
p140
(lp141
S'STP reg9, reg0, mem!'
p142
aS'MOV reg9, SP'
p143
aS'STP reg9, reg0, mem'
p144
aS'STP reg1, reg2, mem'
p145
aS'STP reg3, reg4, mem'
p146
aS'MOV reg9, reg'
p147
aS'MOV reg3, reg'
p148
aS'BL debug_smp_processor_id'
p149
aS'ADRP reg, #func@PAGE'
p150
aS'LDR reg, mem'
p151
aS'ADRP reg0, #swevent_htable_0@PAGE'
p152
aS'LDR reg2, mem'
p153
aS'LDR reg, mem'
p154
aS'ADD reg0, reg0, #swevent_htable_0@PAGEOFF'
p155
aS'ADD reg1, reg9, #0x110'
p156
aS'ADD reg4, reg0, reg2'
p157
aS'CBZ reg, func'
p158
asS'end_address'
p159
Nsg5
S'0xffffffc0002aec7cL'
p160
sS'preds'
p161
(lp162
sg6
NsS'succs'
p163
(lp164
S'0xffffffc0002aecc0L'
p165
aS'0xffffffc0002aecd0L'
p166
asS'hash_v3'
p167
NsS'flag_v2'
p168
NsS'hash_v1'
p169
S'9cd6d3dcc2be155b28158f3d3182ab87'
p170
sS'hash_v2'
p171
S'ac56be635aa72e88a818b0352bc675bc'
p172
sS'mnen_list'
p173
(lp174
g24
ag33
ag40
ag47
ag54
ag61
ag68
ag75
ag82
ag89
ag96
ag103
ag110
ag117
ag124
ag131
ag138
asS'neighbour_disasm_list'
p175
Nsba(ibclass
BBasicBlock
p176
(dp177
g12
Nsg13
(lp178
(ibclass
BInstr
p179
(dp180
g2
Nsg17
S'LDR             X0, [X21,#0x70]'
p181
sg19
S'a03a40f9'
p182
sg21
Vldr x0, [x21, #0x70]
p183
sg5
L18446743798834457792L
sg6
Nsg23
S'LDR'
p184
sg25
S'0xffffffc0002aecc0L'
p185
sg27
Nsba(ibclass
BInstr
p186
(dp187
g2
Nsg17
S'STR             X0, [X21,#0x78]'
p188
sg19
S'a03e00f9'
p189
sg21
Vstr x0, [x21, #0x78]
p190
sg5
L18446743798834457796L
sg6
Nsg23
S'STR'
p191
sg25
S'0xffffffc0002aecc4L'
p192
sg27
Nsba(ibclass
BInstr
p193
(dp194
g2
Nsg17
S'MOV             X0, X19'
p195
sg19
S'e00313aa'
p196
sg21
Vmov x0, x19
p197
sg5
L18446743798834457800L
sg6
Nsg23
S'MOV'
p198
sg25
S'0xffffffc0002aecc8L'
p199
sg27
Nsba(ibclass
BInstr
p200
(dp201
g2
Nsg17
S'BL              perf_swevent_set_period'
p202
sg19
S'18ffff97'
p203
sg21
Vbl #0xfffffffffffffc60
p204
sg5
L18446743798834457804L
sg6
Nsg23
S'BL'
p205
sg25
S'0xffffffc0002aecccL'
p206
sg27
Nsbasg140
(lp207
S'LDR reg, mem'
p208
aS'STR reg, mem'
p209
aS'MOV reg, reg9'
p210
aS'BL perf_swevent_set_period'
p211
asg159
Nsg5
S'0xffffffc0002aecc0L'
p212
sg161
(lp213
S'0xffffffc0002aec7cL'
p214
asg6
Nsg163
(lp215
S'0xffffffc0002aecd0L'
p216
asg167
Nsg168
Nsg169
S'f7cb1771e117ba4f6831626aa8c9d302'
p217
sg171
S'440774d5c0b4075441ce285a539ef5a0'
p218
sg173
(lp219
g184
ag191
ag198
ag205
asg175
Nsba(ibclass
BBasicBlock
p220
(dp221
g12
Nsg13
(lp222
(ibclass
BInstr
p223
(dp224
g2
Nsg17
S'AND             W23, W23, #1'
p225
sg19
S'f7020012'
p226
sg21
Vand w23, w23, #1
p227
sg5
L18446743798834457808L
sg6
Nsg23
S'AND'
p228
sg25
S'0xffffffc0002aecd0L'
p229
sg27
Nsba(ibclass
BInstr
p230
(dp231
g2
Nsg17
S'EOR             W23, W23, #1'
p232
sg19
S'f7020052'
p233
sg21
Veor w23, w23, #1
p234
sg5
L18446743798834457812L
sg6
Nsg23
S'EOR'
p235
sg25
S'0xffffffc0002aecd4L'
p236
sg27
Nsba(ibclass
BInstr
p237
(dp238
g2
Nsg17
S'STR             W23, [X21,#0x60]'
p239
sg19
S'b76200b9'
p240
sg21
Vstr w23, [x21, #0x60]
p241
sg5
L18446743798834457816L
sg6
Nsg23
S'STR'
p242
sg25
S'0xffffffc0002aecd8L'
p243
sg27
Nsba(ibclass
BInstr
p244
(dp245
g2
Nsg17
S'LDR             X2, [X20,X22]'
p246
sg19
S'826a76f8'
p247
sg21
Vldr x2, [x20, x22]
p248
sg5
L18446743798834457820L
sg6
Nsg23
S'LDR'
p249
sg25
S'0xffffffc0002aecdcL'
p250
sg27
Nsba(ibclass
BInstr
p251
(dp252
g2
Nsg17
S'LDR             X0, [X19,#0xB0]'
p253
sg19
S'605a40f9'
p254
sg21
Vldr x0, [x19, #0xb0]
p255
sg5
L18446743798834457824L
sg6
Nsg23
S'LDR'
p256
sg25
S'0xffffffc0002aece0L'
p257
sg27
Nsba(ibclass
BInstr
p258
(dp259
g2
Nsg17
S'LDR             W1, [X19,#0xA8]'
p260
sg19
S'61aa40b9'
p261
sg21
Vldr w1, [x19, #0xa8]
p262
sg5
L18446743798834457828L
sg6
Nsg23
S'LDR'
p263
sg25
S'0xffffffc0002aece4L'
p264
sg27
Nsba(ibclass
BInstr
p265
(dp266
g2
Nsg17
S'CBZ             X2, loc_FFFFFFC0002AED40'
p267
sg19
S'c20200b4'
p268
sg21
Vcbz x2, #0x58
p269
sg5
L18446743798834457832L
sg6
Nsg23
S'CBZ'
p270
sg25
S'0xffffffc0002aece8L'
p271
sg27
Nsbasg140
(lp272
S'AND reg3, reg3, #1'
p273
aS'EOR reg3, reg3, #1'
p274
aS'STR reg3, mem'
p275
aS'LDR reg, mem'
p276
aS'LDR reg, mem'
p277
aS'LDR reg, mem'
p278
aS'CBZ reg, func'
p279
asg159
Nsg5
S'0xffffffc0002aecd0L'
p280
sg161
(lp281
S'0xffffffc0002aec7cL'
p282
aS'0xffffffc0002aecc0L'
p283
asg6
Nsg163
(lp284
S'0xffffffc0002aececL'
p285
aS'0xffffffc0002aed40L'
p286
asg167
Nsg168
Nsg169
S'9435da4260bd9c1cb448c108ba859f36'
p287
sg171
S'96771d13fe4166c091bccc9196c8d6b3'
p288
sg173
(lp289
g228
ag235
ag242
ag249
ag256
ag263
ag270
asg175
Nsba(ibclass
BBasicBlock
p290
(dp291
g12
Nsg13
(lp292
(ibclass
BInstr
p293
(dp294
g2
Nsg17
S'AND             X0, X0, #0xFFFFFFFF'
p295
sg19
S'007c4092'
p296
sg21
Vand x0, x0, #0xffffffff
p297
sg5
L18446743798834457836L
sg6
Nsg23
S'AND'
p298
sg25
S'0xffffffc0002aececL'
p299
sg27
Nsba(ibclass
BInstr
p300
(dp301
g2
Nsg17
S'ORR             X0, X0, X1,LSL#32'
p302
sg19
S'008001aa'
p303
sg21
Vorr x0, x0, x1, lsl #32
p304
sg5
L18446743798834457840L
sg6
Nsg23
S'ORR'
p305
sg25
S'0xffffffc0002aecf0L'
p306
sg27
Nsba(ibclass
BInstr
p307
(dp308
g2
Nsg17
S'SUB             X1, X0, X0,LSL#18'
p309
sg19
S'014800cb'
p310
sg21
Vsub x1, x0, x0, lsl #18
p311
sg5
L18446743798834457844L
sg6
Nsg23
S'SUB'
p312
sg25
S'0xffffffc0002aecf4L'
p313
sg27
Nsba(ibclass
BInstr
p314
(dp315
g2
Nsg17
S'SUB             X1, X1, X0,LSL#51'
p316
sg19
S'21cc00cb'
p317
sg21
Vsub x1, x1, x0, lsl #51
p318
sg5
L18446743798834457848L
sg6
Nsg23
S'SUB'
p319
sg25
S'0xffffffc0002aecf8L'
p320
sg27
Nsba(ibclass
BInstr
p321
(dp322
g2
Nsg17
S'ADD             X1, X1, X0,LSL#54'
p323
sg19
S'21d8008b'
p324
sg21
Vadd x1, x1, x0, lsl #54
p325
sg5
L18446743798834457852L
sg6
Nsg23
S'ADD'
p326
sg25
S'0xffffffc0002aecfcL'
p327
sg27
Nsba(ibclass
BInstr
p328
(dp329
g2
Nsg17
S'SUB             X1, X1, X0,LSL#57'
p330
sg19
S'21e400cb'
p331
sg21
Vsub x1, x1, x0, lsl #57
p332
sg5
L18446743798834457856L
sg6
Nsg23
S'SUB'
p333
sg25
S'0xffffffc0002aed00L'
p334
sg27
Nsba(ibclass
BInstr
p335
(dp336
g2
Nsg17
S'ADD             X1, X1, X0,LSL#61'
p337
sg19
S'21f4008b'
p338
sg21
Vadd x1, x1, x0, lsl #61
p339
sg5
L18446743798834457860L
sg6
Nsg23
S'ADD'
p340
sg25
S'0xffffffc0002aed04L'
p341
sg27
Nsba(ibclass
BInstr
p342
(dp343
g2
Nsg17
S'SUB             X0, X1, X0,LSL#63'
p344
sg19
S'20fc00cb'
p345
sg21
Vsub x0, x1, x0, lsl #63
p346
sg5
L18446743798834457864L
sg6
Nsg23
S'SUB'
p347
sg25
S'0xffffffc0002aed08L'
p348
sg27
Nsba(ibclass
BInstr
p349
(dp350
g2
Nsg17
S'UBFM            X0, X0, #0x38, #0x3F'
p351
sg19
S'00fc78d3'
p352
sg21
Vlsr x0, x0, #0x38
p353
sg5
L18446743798834457868L
sg6
Nsg23
S'UBFM'
p354
sg25
S'0xffffffc0002aed0cL'
p355
sg27
Nsba(ibclass
BInstr
p356
(dp357
g2
Nsg17
S'UBFM            X0, X0, #0x3D, #0x3C'
p358
sg19
S'00f07dd3'
p359
sg21
Vlsl x0, x0, #3
p360
sg5
L18446743798834457872L
sg6
Nsg23
S'UBFM'
p361
sg25
S'0xffffffc0002aed10L'
p362
sg27
Nsba(ibclass
BInstr
p363
(dp364
g2
Nsg17
S'LDR             X1, [X2,X0]'
p365
sg19
S'416860f8'
p366
sg21
Vldr x1, [x2, x0]
p367
sg5
L18446743798834457876L
sg6
Nsg23
S'LDR'
p368
sg25
S'0xffffffc0002aed14L'
p369
sg27
Nsba(ibclass
BInstr
p370
(dp371
g2
Nsg17
S'ADD             X4, X2, X0'
p372
sg19
S'4400008b'
p373
sg21
Vadd x4, x2, x0
p374
sg5
L18446743798834457880L
sg6
Nsg23
S'ADD'
p375
sg25
S'0xffffffc0002aed18L'
p376
sg27
Nsba(ibclass
BInstr
p377
(dp378
g2
Nsg17
S'ADD             X3, X19, #0x30'
p379
sg19
S'63c20091'
p380
sg21
Vadd x3, x19, #0x30
p381
sg5
L18446743798834457884L
sg6
Nsg23
S'ADD'
p382
sg25
S'0xffffffc0002aed1cL'
p383
sg27
Nsba(ibclass
BInstr
p384
(dp385
g2
Nsg17
S'STR             X1, [X19,#0x30]'
p386
sg19
S'611a00f9'
p387
sg21
Vstr x1, [x19, #0x30]
p388
sg5
L18446743798834457888L
sg6
Nsg23
S'STR'
p389
sg25
S'0xffffffc0002aed20L'
p390
sg27
Nsba(ibclass
BInstr
p391
(dp392
g2
Nsg17
S'STR             X4, [X19,#0x38]'
p393
sg19
S'641e00f9'
p394
sg21
Vstr x4, [x19, #0x38]
p395
sg5
L18446743798834457892L
sg6
Nsg23
S'STR'
p396
sg25
S'0xffffffc0002aed24L'
p397
sg27
Nsba(ibclass
BInstr
p398
(dp399
g2
Nsg17
S'DMB             ISHST'
p400
sg19
S'bf3a03d5'
p401
sg21
Vdmb ishst
p402
sg5
L18446743798834457896L
sg6
Nsg23
S'DMB'
p403
sg25
S'0xffffffc0002aed28L'
p404
sg27
Nsba(ibclass
BInstr
p405
(dp406
g2
Nsg17
S'STR             X3, [X2,X0]'
p407
sg19
S'436820f8'
p408
sg21
Vstr x3, [x2, x0]
p409
sg5
L18446743798834457900L
sg6
Nsg23
S'STR'
p410
sg25
S'0xffffffc0002aed2cL'
p411
sg27
Nsba(ibclass
BInstr
p412
(dp413
g2
Nsg17
S'CBZ             X1, loc_FFFFFFC0002AED38'
p414
sg19
S'410000b4'
p415
sg21
Vcbz x1, #8
p416
sg5
L18446743798834457904L
sg6
Nsg23
S'CBZ'
p417
sg25
S'0xffffffc0002aed30L'
p418
sg27
Nsbasg140
(lp419
S'AND reg, reg, #0xFFFFFFFF'
p420
aS'ORR reg, reg, reg,LSL#32'
p421
aS'SUB reg, reg, reg,LSL#18'
p422
aS'SUB reg, reg, reg,LSL#51'
p423
aS'ADD reg, reg, reg,LSL#54'
p424
aS'SUB reg, reg, reg,LSL#57'
p425
aS'ADD reg, reg, reg,LSL#61'
p426
aS'SUB reg, reg, reg,LSL#63'
p427
aS'UBFM reg, reg, #0x38, #0x3F'
p428
aS'UBFM reg, reg, #0x3D, #0x3C'
p429
aS'LDR reg, mem'
p430
aS'ADD reg, reg, reg'
p431
aS'ADD reg, reg9, #0x30'
p432
aS'STR reg, mem'
p433
aS'STR reg, mem'
p434
aS'DMB ISHST'
p435
aS'STR reg, mem'
p436
aS'CBZ reg, func'
p437
asg159
Nsg5
S'0xffffffc0002aececL'
p438
sg161
(lp439
S'0xffffffc0002aecd0L'
p440
asg6
Nsg163
(lp441
S'0xffffffc0002aed34L'
p442
aS'0xffffffc0002aed38L'
p443
asg167
Nsg168
Nsg169
S'9bcb3bf00e74b8f1e2393a46915b841d'
p444
sg171
S'b10be6e8fddc642e3fd5dd374a159057'
p445
sg173
(lp446
g298
ag305
ag312
ag319
ag326
ag333
ag340
ag347
ag354
ag361
ag368
ag375
ag382
ag389
ag396
ag403
ag410
ag417
asg175
Nsba(ibclass
BBasicBlock
p447
(dp448
g12
Nsg13
(lp449
(ibclass
BInstr
p450
(dp451
g2
Nsg17
S'STR             X3, [X1,#8]'
p452
sg19
S'230400f9'
p453
sg21
Vstr x3, [x1, #8]
p454
sg5
L18446743798834457908L
sg6
Nsg23
S'STR'
p455
sg25
S'0xffffffc0002aed34L'
p456
sg27
Nsbasg140
(lp457
S'STR reg, mem'
p458
asg159
Nsg5
S'0xffffffc0002aed34L'
p459
sg161
(lp460
S'0xffffffc0002aececL'
p461
asg6
Nsg163
(lp462
S'0xffffffc0002aed38L'
p463
asg167
Nsg168
Nsg169
S'3fe0dfff438296bb525e0e8642586c2d'
p464
sg171
S'646a0f802431e0f982aab0e2c8fb243c'
p465
sg173
(lp466
g455
asg175
Nsba(ibclass
BBasicBlock
p467
(dp468
g12
Nsg13
(lp469
(ibclass
BInstr
p470
(dp471
g2
Nsg17
S'MOV             W19, #0'
p472
sg19
S'13008052'
p473
sg21
Vmovz w19, #0
p474
sg5
L18446743798834457912L
sg6
Nsg23
S'MOV'
p475
sg25
S'0xffffffc0002aed38L'
p476
sg27
Nsba(ibclass
BInstr
p477
(dp478
g2
Nsg17
S'B               loc_FFFFFFC0002AED78'
p479
sg19
S'0f000014'
p480
sg21
Vb #0x3c
p481
sg5
L18446743798834457916L
sg6
Nsg23
S'B'
p482
sg25
S'0xffffffc0002aed3cL'
p483
sg27
Nsbasg140
(lp484
S'MOV reg9, #0'
p485
aS'B func'
p486
asg159
Nsg5
S'0xffffffc0002aed38L'
p487
sg161
(lp488
S'0xffffffc0002aececL'
p489
aS'0xffffffc0002aed34L'
p490
asg6
Nsg163
(lp491
S'0xffffffc0002aed78L'
p492
asg167
Nsg168
Nsg169
S'b6c4e95ccfe77a95e4cf2019dd3d5574'
p493
sg171
S'4f0a3a0ac466b94f12987d6776cc5e5e'
p494
sg173
(lp495
g475
ag482
asg175
Nsba(ibclass
BBasicBlock
p496
(dp497
g12
Nsg13
(lp498
(ibclass
BInstr
p499
(dp500
g2
Nsg17
S'LDRB            W0, [X24,#0x44]'
p501
sg19
S'00134139'
p502
sg21
Vldrb w0, [x24, #0x44]
p503
sg5
L18446743798834457920L
sg6
Nsg23
S'LDR'
p504
sg25
S'0xffffffc0002aed40L'
p505
sg27
Nsba(ibclass
BInstr
p506
(dp507
g2
Nsg17
S'CBZ             W0, loc_FFFFFFC0002AED74'
p508
sg19
S'80010034'
p509
sg21
Vcbz w0, #0x30
p510
sg5
L18446743798834457924L
sg6
Nsg23
S'CBZ'
p511
sg25
S'0xffffffc0002aed44L'
p512
sg27
Nsbasg140
(lp513
S'LDRB reg, mem'
p514
aS'CBZ reg, func'
p515
asg159
Nsg5
S'0xffffffc0002aed40L'
p516
sg161
(lp517
S'0xffffffc0002aecd0L'
p518
asg6
Nsg163
(lp519
S'0xffffffc0002aed48L'
p520
aS'0xffffffc0002aed74L'
p521
asg167
Nsg168
Nsg169
S'a0c488049ab653dbdfa1dc805bb83f13'
p522
sg171
S'b1e37b9f660dcea597f0caebd1994bf4'
p523
sg173
(lp524
g504
ag511
asg175
Nsba(ibclass
BBasicBlock
p525
(dp526
g12
Nsg13
(lp527
(ibclass
BInstr
p528
(dp529
g2
Nsg17
S'ADRP            X20, #__warned.28683@PAGE'
p530
sg19
S'14ae00d0'
p531
sg21
Vadrp x20, #0x15c2000
p532
sg5
L18446743798834457928L
sg6
Nsg23
S'ADRP'
p533
sg25
S'0xffffffc0002aed48L'
p534
sg27
Nsba(ibclass
BInstr
p535
(dp536
g2
Nsg17
S'LDRB            W0, [X20,#__warned.28683@PAGEOFF]'
p537
sg19
S'80d27039'
p538
sg21
Vldrb w0, [x20, #0xc34]
p539
sg5
L18446743798834457932L
sg6
Nsg23
S'LDR'
p540
sg25
S'0xffffffc0002aed4cL'
p541
sg27
Nsba(ibclass
BInstr
p542
(dp543
g2
Nsg17
S'MOV             W19, #0xFFFFFFEA'
p544
sg19
S'b3028012'
p545
sg21
Vmovn w19, #0x15
p546
sg5
L18446743798834457936L
sg6
Nsg23
S'MOV'
p547
sg25
S'0xffffffc0002aed50L'
p548
sg27
Nsba(ibclass
BInstr
p549
(dp550
g2
Nsg17
S'CBNZ            W0, loc_FFFFFFC0002AED78'
p551
sg19
S'20010035'
p552
sg21
Vcbnz w0, #0x24
p553
sg5
L18446743798834457940L
sg6
Nsg23
S'CBNZ'
p554
sg25
S'0xffffffc0002aed54L'
p555
sg27
Nsbasg140
(lp556
S'ADRP reg0, #__warned.28683@PAGE'
p557
aS'LDRB reg, mem'
p558
aS'MOV reg9, #0xFFFFFFEA'
p559
aS'CBNZ reg, func'
p560
asg159
Nsg5
S'0xffffffc0002aed48L'
p561
sg161
(lp562
S'0xffffffc0002aed40L'
p563
asg6
Nsg163
(lp564
S'0xffffffc0002aed58L'
p565
aS'0xffffffc0002aed78L'
p566
asg167
Nsg168
Nsg169
S'85da856f2d32506f3ae6b6b15c12a757'
p567
sg171
S'4fb5e76290c8b73c1cd1d92880ba5977'
p568
sg173
(lp569
g533
ag540
ag547
ag554
asg175
Nsba(ibclass
BBasicBlock
p570
(dp571
g12
Nsg13
(lp572
(ibclass
BInstr
p573
(dp574
g2
Nsg17
S'ADRP            X0, #aKernelEventsCo@PAGE; "kernel/events/core.c"'
p575
sg19
S'208200d0'
p576
sg21
Vadrp x0, #0x1046000
p577
sg5
L18446743798834457944L
sg6
Nsg23
S'ADRP'
p578
sg25
S'0xffffffc0002aed58L'
p579
sg27
Nsba(ibclass
BInstr
p580
(dp581
g2
Nsg17
S'ADD             X0, X0, #aKernelEventsCo@PAGEOFF; "kernel/events/core.c"'
p582
sg19
S'00e41691'
p583
sg21
Vadd x0, x0, #0x5b9
p584
sg5
L18446743798834457948L
sg6
Nsg23
S'ADD'
p585
sg25
S'0xffffffc0002aed5cL'
p586
sg27
Nsba(ibclass
BInstr
p587
(dp588
g2
Nsg17
S'MOV             W1, #0x15A3'
p589
sg19
S'61b48252'
p590
sg21
Vmovz w1, #0x15a3
p591
sg5
L18446743798834457952L
sg6
Nsg23
S'MOV'
p592
sg25
S'0xffffffc0002aed60L'
p593
sg27
Nsba(ibclass
BInstr
p594
(dp595
g2
Nsg17
S'BL              warn_slowpath_null'
p596
sg19
S'6bb6fd97'
p597
sg21
Vbl #0xfffffffffff6d9ac
p598
sg5
L18446743798834457956L
sg6
Nsg23
S'BL'
p599
sg25
S'0xffffffc0002aed64L'
p600
sg27
Nsba(ibclass
BInstr
p601
(dp602
g2
Nsg17
S'MOV             W0, #1'
p603
sg19
S'20008052'
p604
sg21
Vmovz w0, #0x1
p605
sg5
L18446743798834457960L
sg6
Nsg23
S'MOV'
p606
sg25
S'0xffffffc0002aed68L'
p607
sg27
Nsba(ibclass
BInstr
p608
(dp609
g2
Nsg17
S'STRB            W0, [X20,#__warned.28683@PAGEOFF]'
p610
sg19
S'80d23039'
p611
sg21
Vstrb w0, [x20, #0xc34]
p612
sg5
L18446743798834457964L
sg6
Nsg23
S'STR'
p613
sg25
S'0xffffffc0002aed6cL'
p614
sg27
Nsba(ibclass
BInstr
p615
(dp616
g2
Nsg17
S'B               loc_FFFFFFC0002AED78'
p617
sg19
S'02000014'
p618
sg21
Vb #8
p619
sg5
L18446743798834457968L
sg6
Nsg23
g482
sg25
S'0xffffffc0002aed70L'
p620
sg27
Nsbasg140
(lp621
S'ADRP reg, #aKernelEventsCo@PAGE'
p622
aS'ADD reg, reg, #aKernelEventsCo@PAGEOFF'
p623
aS'MOV reg, #0x15A3'
p624
aS'BL warn_slowpath_null'
p625
aS'MOV reg, #1'
p626
aS'STRB reg, mem'
p627
aS'B func'
p628
asg159
Nsg5
S'0xffffffc0002aed58L'
p629
sg161
(lp630
S'0xffffffc0002aed48L'
p631
asg6
Nsg163
(lp632
S'0xffffffc0002aed78L'
p633
asg167
Nsg168
Nsg169
S'dd878e1d5a9e85cfe3755d41963f6825'
p634
sg171
S'093fd8f861405941019a0bb53676983e'
p635
sg173
(lp636
g578
ag585
ag592
ag599
ag606
ag613
ag482
asg175
Nsba(ibclass
BBasicBlock
p637
(dp638
g12
Nsg13
(lp639
(ibclass
BInstr
p640
(dp641
g2
Nsg17
S'MOV             W19, #0xFFFFFFEA'
p642
sg19
S'b3028012'
p643
sg21
Vmovn w19, #0x15
p644
sg5
L18446743798834457972L
sg6
Nsg23
S'MOV'
p645
sg25
S'0xffffffc0002aed74L'
p646
sg27
Nsbasg140
(lp647
S'MOV reg9, #0xFFFFFFEA'
p648
asg159
Nsg5
S'0xffffffc0002aed74L'
p649
sg161
(lp650
S'0xffffffc0002aed40L'
p651
asg6
Nsg163
(lp652
S'0xffffffc0002aed78L'
p653
asg167
Nsg168
Nsg169
S'17b32100aef1fc19670be7fd58bc85df'
p654
sg171
S'b3606159d658f642fff4e1852538bd21'
p655
sg173
(lp656
g645
asg175
Nsba(ibclass
BBasicBlock
p657
(dp658
g12
Nsg13
(lp659
(ibclass
BInstr
p660
(dp661
g2
Nsg17
S'MOV             W0, W19'
p662
sg19
S'e003132a'
p663
sg21
Vmov w0, w19
p664
sg5
L18446743798834457976L
sg6
Nsg23
S'MOV'
p665
sg25
S'0xffffffc0002aed78L'
p666
sg27
Nsba(ibclass
BInstr
p667
(dp668
g2
Nsg17
S'LDP             X21, X22, [SP,#0x30+var_10]'
p669
sg19
S'f55b42a9'
p670
sg21
Vldp x21, x22, [sp, #0x20]
p671
sg5
L18446743798834457980L
sg6
Nsg23
S'LDP'
p672
sg25
S'0xffffffc0002aed7cL'
p673
sg27
Nsba(ibclass
BInstr
p674
(dp675
g2
Nsg17
S'LDP             X19, X20, [SP,#0x30+var_20]'
p676
sg19
S'f35341a9'
p677
sg21
Vldp x19, x20, [sp, #0x10]
p678
sg5
L18446743798834457984L
sg6
Nsg23
S'LDP'
p679
sg25
S'0xffffffc0002aed80L'
p680
sg27
Nsba(ibclass
BInstr
p681
(dp682
g2
Nsg17
S'LDP             X23, X24, [SP,#0x30+var_s0]'
p683
sg19
S'f76343a9'
p684
sg21
Vldp x23, x24, [sp, #0x30]
p685
sg5
L18446743798834457988L
sg6
Nsg23
S'LDP'
p686
sg25
S'0xffffffc0002aed84L'
p687
sg27
Nsba(ibclass
BInstr
p688
(dp689
g2
Nsg17
S'LDP             X29, X30, [SP+0x30+var_30],#0x40'
p690
sg19
S'fd7bc4a8'
p691
sg21
Vldp x29, x30, [sp], #0x40
p692
sg5
L18446743798834457992L
sg6
Nsg23
S'LDP'
p693
sg25
S'0xffffffc0002aed88L'
p694
sg27
Nsba(ibclass
BInstr
p695
(dp696
g2
Nsg17
S'RET'
p697
sg19
S'c0035fd6'
p698
sg21
Vret 
p699
sg5
L18446743798834457996L
sg6
Nsg23
S'RET'
p700
sg25
S'0xffffffc0002aed8cL'
p701
sg27
Nsbasg140
(lp702
S'MOV reg, reg9'
p703
aS'LDP reg1, reg2, mem'
p704
aS'LDP reg9, reg0, mem'
p705
aS'LDP reg3, reg4, mem'
p706
aS'LDP reg9, reg0, mem,#0x40'
p707
ag697
asg159
Nsg5
S'0xffffffc0002aed78L'
p708
sg161
(lp709
S'0xffffffc0002aed38L'
p710
aS'0xffffffc0002aed48L'
p711
aS'0xffffffc0002aed58L'
p712
aS'0xffffffc0002aed74L'
p713
asg6
Nsg163
(lp714
sg167
Nsg168
Nsg169
S'f4de5cb19e967cb6f069fe53d982556d'
p715
sg171
S'e23de9bd4192046677c0a3adc45cc168'
p716
sg173
(lp717
g665
ag672
ag679
ag686
ag693
ag700
asg175
Nsbasb.