(ibclass
BFunc
p0
(dp1
S'hash'
p2
NsS'name'
p3
S'qcedev_sha_update'
p4
sS'start_address'
p5
L18446743798837894984L
sS'flag'
p6
NsS'program'
p7
NsS'bbs'
p8
(lp9
(ibclass
BBasicBlock
p10
(dp11
S'function'
p12
NsS'binstrs'
p13
(lp14
(ibclass
BInstr
p15
(dp16
g2
NsS'disasm'
p17
S'STP             X29, X30, [SP,#-0x10+var_s0]!'
p18
sS'bytes'
p19
S'fd7bbfa9'
p20
sS'disasm_striped'
p21
Vstp x29, x30, [sp, #-0x10]!
p22
sg5
L18446743798837894984L
sg6
NsS'mnem'
p23
S'STP'
p24
sS'address'
p25
S'0xffffffc0005f5f48L'
p26
sS'basicblock'
p27
Nsba(ibclass
BInstr
p28
(dp29
g2
Nsg17
S'MOV             X29, SP'
p30
sg19
S'fd030091'
p31
sg21
Vmov x29, sp
p32
sg5
L18446743798837894988L
sg6
Nsg23
S'MOV'
p33
sg25
S'0xffffffc0005f5f4cL'
p34
sg27
Nsba(ibclass
BInstr
p35
(dp36
g2
Nsg17
S'LDRB            W3, [X1,#0xC2]'
p37
sg19
S'23084339'
p38
sg21
Vldrb w3, [x1, #0xc2]
p39
sg5
L18446743798837894992L
sg6
Nsg23
S'LDR'
p40
sg25
S'0xffffffc0005f5f50L'
p41
sg27
Nsba(ibclass
BInstr
p42
(dp43
g2
Nsg17
S'CBZ             W3, loc_FFFFFFC0005F5F70'
p44
sg19
S'e3000034'
p45
sg21
Vcbz w3, #0x1c
p46
sg5
L18446743798837894996L
sg6
Nsg23
S'CBZ'
p47
sg25
S'0xffffffc0005f5f54L'
p48
sg27
NsbasS'disasm_list'
p49
(lp50
S'STP reg9, reg0, mem!'
p51
aS'MOV reg9, SP'
p52
aS'LDRB reg, mem'
p53
aS'CBZ reg, func'
p54
asS'end_address'
p55
Nsg5
S'0xffffffc0005f5f48L'
p56
sS'preds'
p57
(lp58
sg6
NsS'succs'
p59
(lp60
S'0xffffffc0005f5f58L'
p61
aS'0xffffffc0005f5f70L'
p62
asS'hash_v3'
p63
NsS'flag_v2'
p64
NsS'hash_v1'
p65
S'b7014b9b7680475402f2264b9cde462a'
p66
sS'hash_v2'
p67
S'2333317061398bf4470d67e0fc1912ee'
p68
sS'mnen_list'
p69
(lp70
g24
ag33
ag40
ag47
asS'neighbour_disasm_list'
p71
Nsba(ibclass
BBasicBlock
p72
(dp73
g12
Nsg13
(lp74
(ibclass
BInstr
p75
(dp76
g2
Nsg17
S'MOV             X3, SP'
p77
sg19
S'e3030091'
p78
sg21
Vmov x3, sp
p79
sg5
L18446743798837895000L
sg6
Nsg23
S'MOV'
p80
sg25
S'0xffffffc0005f5f58L'
p81
sg27
Nsba(ibclass
BInstr
p82
(dp83
g2
Nsg17
S'AND             X9, X3, #0xFFFFFFFFFFFFC000'
p84
sg19
S'69c47292'
p85
sg21
Vand x9, x3, #0xffffffffffffc000
p86
sg5
L18446743798837895004L
sg6
Nsg23
S'AND'
p87
sg25
S'0xffffffc0005f5f5cL'
p88
sg27
Nsba(ibclass
BInstr
p89
(dp90
g2
Nsg17
S'LDR             W8, [X0,#0x138]'
p91
sg19
S'083841b9'
p92
sg21
Vldr w8, [x0, #0x138]
p93
sg5
L18446743798837895008L
sg6
Nsg23
S'LDR'
p94
sg25
S'0xffffffc0005f5f60L'
p95
sg27
Nsba(ibclass
BInstr
p96
(dp97
g2
Nsg17
S'MOV             X3, X0'
p98
sg19
S'e30300aa'
p99
sg21
Vmov x3, x0
p100
sg5
L18446743798837895012L
sg6
Nsg23
S'MOV'
p101
sg25
S'0xffffffc0005f5f64L'
p102
sg27
Nsba(ibclass
BInstr
p103
(dp104
g2
Nsg17
S'MOV             W4, #0'
p105
sg19
S'04008052'
p106
sg21
Vmovz w4, #0
p107
sg5
L18446743798837895016L
sg6
Nsg23
S'MOV'
p108
sg25
S'0xffffffc0005f5f68L'
p109
sg27
Nsba(ibclass
BInstr
p110
(dp111
g2
Nsg17
S'B               loc_FFFFFFC0005F5FB4'
p112
sg19
S'12000014'
p113
sg21
Vb #0x48
p114
sg5
L18446743798837895020L
sg6
Nsg23
S'B'
p115
sg25
S'0xffffffc0005f5f6cL'
p116
sg27
Nsbasg49
(lp117
S'MOV reg, SP'
p118
aS'AND reg, reg, #0xFFFFFFFFFFFFC000'
p119
aS'LDR reg, mem'
p120
aS'MOV reg, reg'
p121
aS'MOV reg, #0'
p122
aS'B func'
p123
asg55
Nsg5
S'0xffffffc0005f5f58L'
p124
sg57
(lp125
S'0xffffffc0005f5f48L'
p126
asg6
Nsg59
(lp127
S'0xffffffc0005f5fb4L'
p128
asg63
Nsg64
Nsg65
S'f46a7442971186c290e6c3f67f96c036'
p129
sg67
S'aecb50abb9dafa1daae40175d8ee1951'
p130
sg69
(lp131
g80
ag87
ag94
ag101
ag108
ag115
asg71
Nsba(ibclass
BBasicBlock
p132
(dp133
g12
Nsg13
(lp134
(ibclass
BInstr
p135
(dp136
g2
Nsg17
S'ADRP            X1, #__func__.28098@PAGE; "qcedev_open"'
p137
sg19
S'e15100f0'
p138
sg21
Vadrp x1, #0xa3f000
p139
sg5
L18446743798837895024L
sg6
Nsg23
S'ADRP'
p140
sg25
S'0xffffffc0005f5f70L'
p141
sg27
Nsba(ibclass
BInstr
p142
(dp143
g2
Nsg17
S'ADRP            X0, #unk_FFFFFFC001369D82@PAGE'
p144
sg19
S'a06b0090'
p145
sg21
Vadrp x0, #0xd74000
p146
sg5
L18446743798837895028L
sg6
Nsg23
S'ADRP'
p147
sg25
S'0xffffffc0005f5f74L'
p148
sg27
Nsba(ibclass
BInstr
p149
(dp150
g2
Nsg17
S'ADD             X1, X1, #__func__.28098@PAGEOFF; "qcedev_open"'
p151
sg19
S'21a03691'
p152
sg21
Vadd x1, x1, #0xda8
p153
sg5
L18446743798837895032L
sg6
Nsg23
S'ADD'
p154
sg25
S'0xffffffc0005f5f78L'
p155
sg27
Nsba(ibclass
BInstr
p156
(dp157
g2
Nsg17
S'ADD             X0, X0, #unk_FFFFFFC001369D82@PAGEOFF'
p158
sg19
S'00083691'
p159
sg21
Vadd x0, x0, #0xd82
p160
sg5
L18446743798837895036L
sg6
Nsg23
S'ADD'
p161
sg25
S'0xffffffc0005f5f7cL'
p162
sg27
Nsba(ibclass
BInstr
p163
(dp164
g2
Nsg17
S'ADD             X1, X1, #0xC0'
p165
sg19
S'21000391'
p166
sg21
Vadd x1, x1, #0xc0
p167
sg5
L18446743798837895040L
sg6
Nsg23
S'ADD'
p168
sg25
S'0xffffffc0005f5f80L'
p169
sg27
Nsba(ibclass
BInstr
p170
(dp171
g2
Nsg17
S'BL              printk'
p172
sg19
S'b9e22094'
p173
sg21
Vbl #0x838ae4
p174
sg5
L18446743798837895044L
sg6
Nsg23
S'BL'
p175
sg25
S'0xffffffc0005f5f84L'
p176
sg27
Nsba(ibclass
BInstr
p177
(dp178
g2
Nsg17
S'MOV             W0, #0xFFFFFFEA'
p179
sg19
S'a0028012'
p180
sg21
Vmovn w0, #0x15
p181
sg5
L18446743798837895048L
sg6
Nsg23
S'MOV'
p182
sg25
S'0xffffffc0005f5f88L'
p183
sg27
Nsba(ibclass
BInstr
p184
(dp185
g2
Nsg17
S'B               loc_FFFFFFC0005F5FC8'
p186
sg19
S'0f000014'
p187
sg21
Vb #0x3c
p188
sg5
L18446743798837895052L
sg6
Nsg23
g115
sg25
S'0xffffffc0005f5f8cL'
p189
sg27
Nsbasg49
(lp190
S'ADRP reg, #__func__.28098@PAGE'
p191
aS'ADRP reg, #func@PAGE'
p192
aS'ADD reg, reg, #__func__.28098@PAGEOFF'
p193
aS'ADD reg, reg, #func@PAGEOFF'
p194
aS'ADD reg, reg, #0xC0'
p195
aS'BL printk'
p196
aS'MOV reg, #0xFFFFFFEA'
p197
aS'B func'
p198
asg55
Nsg5
S'0xffffffc0005f5f70L'
p199
sg57
(lp200
S'0xffffffc0005f5f48L'
p201
asg6
Nsg59
(lp202
S'0xffffffc0005f5fc8L'
p203
asg63
Nsg64
Nsg65
S'f6b4a164d3a83cb5addeace3d1f2fa3b'
p204
sg67
S'825d97b7f55a8a7481c0ebc3048b985f'
p205
sg69
(lp206
g140
ag147
ag154
ag161
ag168
ag175
ag182
ag115
asg71
Nsba(ibclass
BBasicBlock
p207
(dp208
g12
Nsg13
(lp209
(ibclass
BInstr
p210
(dp211
g2
Nsg17
S'LDR             X5, [X3,#0x38]'
p212
sg19
S'651c40f9'
p213
sg21
Vldr x5, [x3, #0x38]
p214
sg5
L18446743798837895056L
sg6
Nsg23
S'LDR'
p215
sg25
S'0xffffffc0005f5f90L'
p216
sg27
Nsba(ibclass
BInstr
p217
(dp218
g2
Nsg17
S'LDR             W6, [X3,#0x40]'
p219
sg19
S'664040b9'
p220
sg21
Vldr w6, [x3, #0x40]
p221
sg5
L18446743798837895060L
sg6
Nsg23
S'LDR'
p222
sg25
S'0xffffffc0005f5f94L'
p223
sg27
Nsba(ibclass
BInstr
p224
(dp225
g2
Nsg17
S'LDR             X7, [X9,#8]'
p226
sg19
S'270540f9'
p227
sg21
Vldr x7, [x9, #8]
p228
sg5
L18446743798837895064L
sg6
Nsg23
S'LDR'
p229
sg25
S'0xffffffc0005f5f98L'
p230
sg27
Nsba(ibclass
BInstr
p231
(dp232
g2
Nsg17
S'ADD             X3, X3, #0x10'
p233
sg19
S'63400091'
p234
sg21
Vadd x3, x3, #0x10
p235
sg5
L18446743798837895068L
sg6
Nsg23
S'ADD'
p236
sg25
S'0xffffffc0005f5f9cL'
p237
sg27
Nsba(ibclass
BInstr
p238
(dp239
g2
Nsg17
S'ADDS            X5, X5, X6'
p240
sg19
S'a50006ab'
p241
sg21
Vadds x5, x5, x6
p242
sg5
L18446743798837895072L
sg6
Nsg23
S'ADD'
p243
sg25
S'0xffffffc0005f5fa0L'
p244
sg27
Nsba(ibclass
BInstr
p245
(dp246
g2
Nsg17
S'CCMP            X5, X7, #2, CC'
p247
sg19
S'a23047fa'
p248
sg21
Vccmp x5, x7, #2, lo
p249
sg5
L18446743798837895076L
sg6
Nsg23
S'CCMP'
p250
sg25
S'0xffffffc0005f5fa4L'
p251
sg27
Nsba(ibclass
BInstr
p252
(dp253
g2
Nsg17
S'CSET            X10, LS'
p254
sg19
S'ea879f9a'
p255
sg21
Vcset x10, ls
p256
sg5
L18446743798837895080L
sg6
Nsg23
S'CSET'
p257
sg25
S'0xffffffc0005f5fa8L'
p258
sg27
Nsba(ibclass
BInstr
p259
(dp260
g2
Nsg17
S'CBZ             X10, loc_FFFFFFC0005F5FC4'
p261
sg19
S'ca0000b4'
p262
sg21
Vcbz x10, #0x18
p263
sg5
L18446743798837895084L
sg6
Nsg23
S'CBZ'
p264
sg25
S'0xffffffc0005f5facL'
p265
sg27
Nsbasg49
(lp266
S'LDR reg, mem'
p267
aS'LDR reg, mem'
p268
aS'LDR reg, mem'
p269
aS'ADD reg, reg, #0x10'
p270
aS'ADDS reg, reg, reg'
p271
aS'CCMP reg, reg, #2, CC'
p272
aS'CSET reg0, LS'
p273
aS'CBZ reg0, func'
p274
asg55
Nsg5
S'0xffffffc0005f5f90L'
p275
sg57
(lp276
S'0xffffffc0005f5fb4L'
p277
asg6
Nsg59
(lp278
S'0xffffffc0005f5fb0L'
p279
aS'0xffffffc0005f5fc4L'
p280
asg63
Nsg64
Nsg65
S'60469e90cd1cff824feb54087ff74837'
p281
sg67
S'37dd5c6bf1b4de14bedab77d2f5b0a38'
p282
sg69
(lp283
g215
ag222
ag229
ag236
ag243
ag250
ag257
ag264
asg71
Nsba(ibclass
BBasicBlock
p284
(dp285
g12
Nsg13
(lp286
(ibclass
BInstr
p287
(dp288
g2
Nsg17
S'ADD             W4, W4, #1'
p289
sg19
S'84040011'
p290
sg21
Vadd w4, w4, #1
p291
sg5
L18446743798837895088L
sg6
Nsg23
S'ADD'
p292
sg25
S'0xffffffc0005f5fb0L'
p293
sg27
Nsbasg49
(lp294
S'ADD reg, reg, #1'
p295
asg55
Nsg5
S'0xffffffc0005f5fb0L'
p296
sg57
(lp297
S'0xffffffc0005f5f90L'
p298
asg6
Nsg59
(lp299
S'0xffffffc0005f5fb4L'
p300
asg63
Nsg64
Nsg65
S'9eeb52badb613229884838847294b90d'
p301
sg67
S'd9b40ffd2ae5b64a4f96e1e8dfae49fb'
p302
sg69
(lp303
g292
asg71
Nsba(ibclass
BBasicBlock
p304
(dp305
g12
Nsg13
(lp306
(ibclass
BInstr
p307
(dp308
g2
Nsg17
S'CMP             W4, W8'
p309
sg19
S'9f00086b'
p310
sg21
Vcmp w4, w8
p311
sg5
L18446743798837895092L
sg6
Nsg23
S'CMP'
p312
sg25
S'0xffffffc0005f5fb4L'
p313
sg27
Nsba(ibclass
BInstr
p314
(dp315
g2
Nsg17
S'B.NE            loc_FFFFFFC0005F5F90'
p316
sg19
S'c1feff54'
p317
sg21
Vb.ne #0xffffffffffffffd8
p318
sg5
L18446743798837895096L
sg6
Nsg23
g115
sg25
S'0xffffffc0005f5fb8L'
p319
sg27
Nsbasg49
(lp320
S'CMP reg, reg'
p321
aS'B.NE func'
p322
asg55
Nsg5
S'0xffffffc0005f5fb4L'
p323
sg57
(lp324
S'0xffffffc0005f5f58L'
p325
aS'0xffffffc0005f5fb0L'
p326
asg6
Nsg59
(lp327
S'0xffffffc0005f5f90L'
p328
aS'0xffffffc0005f5fbcL'
p329
asg63
Nsg64
Nsg65
S'c78fd620a449e3c979d3f3ec12d4ee88'
p330
sg67
S'540ee9ce1e0ac85e4f670464eda924b3'
p331
sg69
(lp332
g312
ag115
asg71
Nsba(ibclass
BBasicBlock
p333
(dp334
g12
Nsg13
(lp335
(ibclass
BInstr
p336
(dp337
g2
Nsg17
S'BL              qcedev_sha_update.part.7'
p338
sg19
S'39ffff97'
p339
sg21
Vbl #0xfffffffffffffce4
p340
sg5
L18446743798837895100L
sg6
Nsg23
S'BL'
p341
sg25
S'0xffffffc0005f5fbcL'
p342
sg27
Nsba(ibclass
BInstr
p343
(dp344
g2
Nsg17
S'B               loc_FFFFFFC0005F5FC8'
p345
sg19
S'02000014'
p346
sg21
Vb #8
p347
sg5
L18446743798837895104L
sg6
Nsg23
g115
sg25
S'0xffffffc0005f5fc0L'
p348
sg27
Nsbasg49
(lp349
S'BL qcedev_sha_update.part.7'
p350
aS'B func'
p351
asg55
Nsg5
S'0xffffffc0005f5fbcL'
p352
sg57
(lp353
S'0xffffffc0005f5fb4L'
p354
asg6
Nsg59
(lp355
S'0xffffffc0005f5fc8L'
p356
asg63
Nsg64
Nsg65
S'be97a5cc528a44f4f1daeedd1e2f20e2'
p357
sg67
S'4d4535036423a9a6f2638e8e3edf70e4'
p358
sg69
(lp359
g341
ag115
asg71
Nsba(ibclass
BBasicBlock
p360
(dp361
g12
Nsg13
(lp362
(ibclass
BInstr
p363
(dp364
g2
Nsg17
S'MOV             W0, #0xFFFFFFF2'
p365
sg19
S'a0018012'
p366
sg21
Vmovn w0, #0xd
p367
sg5
L18446743798837895108L
sg6
Nsg23
S'MOV'
p368
sg25
S'0xffffffc0005f5fc4L'
p369
sg27
Nsbasg49
(lp370
S'MOV reg, #0xFFFFFFF2'
p371
asg55
Nsg5
S'0xffffffc0005f5fc4L'
p372
sg57
(lp373
S'0xffffffc0005f5f90L'
p374
asg6
Nsg59
(lp375
S'0xffffffc0005f5fc8L'
p376
asg63
Nsg64
Nsg65
S'17b32100aef1fc19670be7fd58bc85df'
p377
sg67
S'6c1e855cb763475c3c98e4ef75345b23'
p378
sg69
(lp379
g368
asg71
Nsba(ibclass
BBasicBlock
p380
(dp381
g12
Nsg13
(lp382
(ibclass
BInstr
p383
(dp384
g2
Nsg17
S'LDP             X29, X30, [SP+var_s0],#0x10'
p385
sg19
S'fd7bc1a8'
p386
sg21
Vldp x29, x30, [sp], #0x10
p387
sg5
L18446743798837895112L
sg6
Nsg23
S'LDP'
p388
sg25
S'0xffffffc0005f5fc8L'
p389
sg27
Nsba(ibclass
BInstr
p390
(dp391
g2
Nsg17
S'RET'
p392
sg19
S'c0035fd6'
p393
sg21
Vret 
p394
sg5
L18446743798837895116L
sg6
Nsg23
S'RET'
p395
sg25
S'0xffffffc0005f5fccL'
p396
sg27
Nsbasg49
(lp397
S'LDP reg9, reg0, mem,#0x10'
p398
ag392
asg55
Nsg5
S'0xffffffc0005f5fc8L'
p399
sg57
(lp400
S'0xffffffc0005f5f70L'
p401
aS'0xffffffc0005f5fbcL'
p402
aS'0xffffffc0005f5fc4L'
p403
asg6
Nsg59
(lp404
sg63
Nsg64
Nsg65
S'3d517d9f03fd129b48e60b4db531cca0'
p405
sg67
S'8846ee026fc62da58c19e0b2e704071d'
p406
sg69
(lp407
g388
ag395
asg71
Nsbasb.