(ibclass
BFunc
p0
(dp1
S'hash'
p2
NsS'name'
p3
S'qseecom_query_app_loaded'
p4
sS'start_address'
p5
L18446743798837728912L
sS'flag'
p6
NsS'program'
p7
NsS'bbs'
p8
(lp9
(ibclass
BBasicBlock
p10
(dp11
S'function'
p12
NsS'binstrs'
p13
(lp14
(ibclass
BInstr
p15
(dp16
g2
NsS'disasm'
p17
S'STP             X29, X30, [SP,#-0x10+var_130]!'
p18
sS'bytes'
p19
S'fd7baca9'
p20
sS'disasm_striped'
p21
Vstp x29, x30, [sp, #-0x140]!
p22
sg5
L18446743798837728912L
sg6
NsS'mnem'
p23
S'STP'
p24
sS'address'
p25
S'0xffffffc0005cd690L'
p26
sS'basicblock'
p27
Nsba(ibclass
BInstr
p28
(dp29
g2
Nsg17
S'MOV             X29, SP'
p30
sg19
S'fd030091'
p31
sg21
Vmov x29, sp
p32
sg5
L18446743798837728916L
sg6
Nsg23
S'MOV'
p33
sg25
S'0xffffffc0005cd694L'
p34
sg27
Nsba(ibclass
BInstr
p35
(dp36
g2
Nsg17
S'STP             X23, X24, [SP,#0x130+var_100]'
p37
sg19
S'f76303a9'
p38
sg21
Vstp x23, x24, [sp, #0x30]
p39
sg5
L18446743798837728920L
sg6
Nsg23
S'STP'
p40
sg25
S'0xffffffc0005cd698L'
p41
sg27
Nsba(ibclass
BInstr
p42
(dp43
g2
Nsg17
S'MOV             X24, X0'
p44
sg19
S'f80300aa'
p45
sg21
Vmov x24, x0
p46
sg5
L18446743798837728924L
sg6
Nsg23
S'MOV'
p47
sg25
S'0xffffffc0005cd69cL'
p48
sg27
Nsba(ibclass
BInstr
p49
(dp50
g2
Nsg17
S'MOV             X0, SP'
p51
sg19
S'e0030091'
p52
sg21
Vmov x0, sp
p53
sg5
L18446743798837728928L
sg6
Nsg23
S'MOV'
p54
sg25
S'0xffffffc0005cd6a0L'
p55
sg27
Nsba(ibclass
BInstr
p56
(dp57
g2
Nsg17
S'STP             X19, X20, [SP,#0x130+var_120]'
p58
sg19
S'f35301a9'
p59
sg21
Vstp x19, x20, [sp, #0x10]
p60
sg5
L18446743798837728932L
sg6
Nsg23
S'STP'
p61
sg25
S'0xffffffc0005cd6a4L'
p62
sg27
Nsba(ibclass
BInstr
p63
(dp64
g2
Nsg17
S'STP             X21, X22, [SP,#0x130+var_110]'
p65
sg19
S'f55b02a9'
p66
sg21
Vstp x21, x22, [sp, #0x20]
p67
sg5
L18446743798837728936L
sg6
Nsg23
S'STP'
p68
sg25
S'0xffffffc0005cd6a8L'
p69
sg27
Nsba(ibclass
BInstr
p70
(dp71
g2
Nsg17
S'AND             X23, X0, #0xFFFFFFFFFFFFC000'
p72
sg19
S'17c47292'
p73
sg21
Vand x23, x0, #0xffffffffffffc000
p74
sg5
L18446743798837728940L
sg6
Nsg23
S'AND'
p75
sg25
S'0xffffffc0005cd6acL'
p76
sg27
Nsba(ibclass
BInstr
p77
(dp78
g2
Nsg17
S'STP             X25, X26, [SP,#0x130+var_F0]'
p79
sg19
S'f96b04a9'
p80
sg21
Vstp x25, x26, [sp, #0x40]
p81
sg5
L18446743798837728944L
sg6
Nsg23
S'STP'
p82
sg25
S'0xffffffc0005cd6b0L'
p83
sg27
Nsba(ibclass
BInstr
p84
(dp85
g2
Nsg17
S'LDR             X3, [X23,#8]'
p86
sg19
S'e30640f9'
p87
sg21
Vldr x3, [x23, #8]
p88
sg5
L18446743798837728948L
sg6
Nsg23
S'LDR'
p89
sg25
S'0xffffffc0005cd6b4L'
p90
sg27
Nsba(ibclass
BInstr
p91
(dp92
g2
Nsg17
S'MOV             X2, X1'
p93
sg19
S'e20301aa'
p94
sg21
Vmov x2, x1
p95
sg5
L18446743798837728952L
sg6
Nsg23
S'MOV'
p96
sg25
S'0xffffffc0005cd6b8L'
p97
sg27
Nsba(ibclass
BInstr
p98
(dp99
g2
Nsg17
S'MOV             X22, X1'
p100
sg19
S'f60301aa'
p101
sg21
Vmov x22, x1
p102
sg5
L18446743798837728956L
sg6
Nsg23
S'MOV'
p103
sg25
S'0xffffffc0005cd6bcL'
p104
sg27
Nsba(ibclass
BInstr
p105
(dp106
g2
Nsg17
S'ADDS            X2, X2, #0x44'
p107
sg19
S'421001b1'
p108
sg21
Vadds x2, x2, #0x44
p109
sg5
L18446743798837728960L
sg6
Nsg23
S'ADD'
p110
sg25
S'0xffffffc0005cd6c0L'
p111
sg27
Nsba(ibclass
BInstr
p112
(dp113
g2
Nsg17
S'CCMP            X2, X3, #2, CC'
p114
sg19
S'423043fa'
p115
sg21
Vccmp x2, x3, #2, lo
p116
sg5
L18446743798837728964L
sg6
Nsg23
S'CCMP'
p117
sg25
S'0xffffffc0005cd6c4L'
p118
sg27
Nsba(ibclass
BInstr
p119
(dp120
g2
Nsg17
S'CSET            X0, LS'
p121
sg19
S'e0879f9a'
p122
sg21
Vcset x0, ls
p123
sg5
L18446743798837728968L
sg6
Nsg23
S'CSET'
p124
sg25
S'0xffffffc0005cd6c8L'
p125
sg27
Nsba(ibclass
BInstr
p126
(dp127
g2
Nsg17
S'ADD             X19, X29, #0x98'
p128
sg19
S'b3630291'
p129
sg21
Vadd x19, x29, #0x98
p130
sg5
L18446743798837728972L
sg6
Nsg23
S'ADD'
p131
sg25
S'0xffffffc0005cd6ccL'
p132
sg27
Nsba(ibclass
BInstr
p133
(dp134
g2
Nsg17
S'CBZ             X0, loc_FFFFFFC0005CD6EC'
p135
sg19
S'e00000b4'
p136
sg21
Vcbz x0, #0x1c
p137
sg5
L18446743798837728976L
sg6
Nsg23
S'CBZ'
p138
sg25
S'0xffffffc0005cd6d0L'
p139
sg27
NsbasS'disasm_list'
p140
(lp141
S'STP reg9, reg0, mem!'
p142
aS'MOV reg9, SP'
p143
aS'STP reg3, reg4, mem'
p144
aS'MOV reg4, reg'
p145
aS'MOV reg, SP'
p146
aS'STP reg9, reg0, mem'
p147
aS'STP reg1, reg2, mem'
p148
aS'AND reg3, reg, #0xFFFFFFFFFFFFC000'
p149
aS'STP reg5, reg6, mem'
p150
aS'LDR reg, mem'
p151
aS'MOV reg, reg'
p152
aS'MOV reg2, reg'
p153
aS'ADDS reg, reg, #0x44'
p154
aS'CCMP reg, reg, #2, CC'
p155
aS'CSET reg, LS'
p156
aS'ADD reg9, reg9, #0x98'
p157
aS'CBZ reg, func'
p158
asS'end_address'
p159
Nsg5
S'0xffffffc0005cd690L'
p160
sS'preds'
p161
(lp162
sg6
NsS'succs'
p163
(lp164
S'0xffffffc0005cd6d4L'
p165
aS'0xffffffc0005cd6ecL'
p166
asS'hash_v3'
p167
NsS'flag_v2'
p168
NsS'hash_v1'
p169
S'12f63d6081c5aa740205e1a2dfd7ca2a'
p170
sS'hash_v2'
p171
S'59bc4dbdc30eeb148162a3ad52ec656c'
p172
sS'mnen_list'
p173
(lp174
g24
ag33
ag40
ag47
ag54
ag61
ag68
ag75
ag82
ag89
ag96
ag103
ag110
ag117
ag124
ag131
ag138
asS'neighbour_disasm_list'
p175
Nsba(ibclass
BBasicBlock
p176
(dp177
g12
Nsg13
(lp178
(ibclass
BInstr
p179
(dp180
g2
Nsg17
S'MOV             X0, X19'
p181
sg19
S'e00313aa'
p182
sg21
Vmov x0, x19
p183
sg5
L18446743798837728980L
sg6
Nsg23
S'MOV'
p184
sg25
S'0xffffffc0005cd6d4L'
p185
sg27
Nsba(ibclass
BInstr
p186
(dp187
g2
Nsg17
S'MOV             X2, #0x44'
p188
sg19
S'820880d2'
p189
sg21
Vmovz x2, #0x44
p190
sg5
L18446743798837728984L
sg6
Nsg23
S'MOV'
p191
sg25
S'0xffffffc0005cd6d8L'
p192
sg27
Nsba(ibclass
BInstr
p193
(dp194
g2
Nsg17
S'BL              __copy_from_user'
p195
sg19
S'fd49f997'
p196
sg21
Vbl #0xffffffffffe527f4
p197
sg5
L18446743798837728988L
sg6
Nsg23
S'BL'
p198
sg25
S'0xffffffc0005cd6dcL'
p199
sg27
Nsba(ibclass
BInstr
p200
(dp201
g2
Nsg17
S'MOV             X21, X0'
p202
sg19
S'f50300aa'
p203
sg21
Vmov x21, x0
p204
sg5
L18446743798837728992L
sg6
Nsg23
S'MOV'
p205
sg25
S'0xffffffc0005cd6e0L'
p206
sg27
Nsba(ibclass
BInstr
p207
(dp208
g2
Nsg17
S'CBZ             X0, loc_FFFFFFC0005CD70C'
p209
sg19
S'400100b4'
p210
sg21
Vcbz x0, #0x28
p211
sg5
L18446743798837728996L
sg6
Nsg23
S'CBZ'
p212
sg25
S'0xffffffc0005cd6e4L'
p213
sg27
Nsbasg140
(lp214
S'MOV reg, reg9'
p215
aS'MOV reg, #0x44'
p216
aS'BL __copy_from_user'
p217
aS'MOV reg1, reg'
p218
aS'CBZ reg, func'
p219
asg159
Nsg5
S'0xffffffc0005cd6d4L'
p220
sg161
(lp221
S'0xffffffc0005cd690L'
p222
asg6
Nsg163
(lp223
S'0xffffffc0005cd6e8L'
p224
aS'0xffffffc0005cd70cL'
p225
asg167
Nsg168
Nsg169
S'6284d937e15648607c4062b89cb09820'
p226
sg171
S'ff7ae83ea03e81c1ac13a3baf5957302'
p227
sg173
(lp228
g184
ag191
ag198
ag205
ag212
asg175
Nsba(ibclass
BBasicBlock
p229
(dp230
g12
Nsg13
(lp231
(ibclass
BInstr
p232
(dp233
g2
Nsg17
S'B               loc_FFFFFFC0005CD700'
p234
sg19
S'06000014'
p235
sg21
Vb #0x18
p236
sg5
L18446743798837729000L
sg6
Nsg23
S'B'
p237
sg25
S'0xffffffc0005cd6e8L'
p238
sg27
Nsbasg140
(lp239
S'B func'
p240
asg159
Nsg5
S'0xffffffc0005cd6e8L'
p241
sg161
(lp242
S'0xffffffc0005cd6d4L'
p243
asg6
Nsg163
(lp244
S'0xffffffc0005cd700L'
p245
asg167
Nsg168
Nsg169
S'9d5ed678fe57bcca610140957afab571'
p246
sg171
S'071b057c420e304c628380fd3541c021'
p247
sg173
(lp248
g237
asg175
Nsba(ibclass
BBasicBlock
p249
(dp250
g12
Nsg13
(lp251
(ibclass
BInstr
p252
(dp253
g2
Nsg17
S'STP             XZR, XZR, [X19]'
p254
sg19
S'7f7e00a9'
p255
sg21
Vstp xzr, xzr, [x19]
p256
sg5
L18446743798837729004L
sg6
Nsg23
S'STP'
p257
sg25
S'0xffffffc0005cd6ecL'
p258
sg27
Nsba(ibclass
BInstr
p259
(dp260
g2
Nsg17
S'STP             XZR, XZR, [X19,#0x10]'
p261
sg19
S'7f7e01a9'
p262
sg21
Vstp xzr, xzr, [x19, #0x10]
p263
sg5
L18446743798837729008L
sg6
Nsg23
S'STP'
p264
sg25
S'0xffffffc0005cd6f0L'
p265
sg27
Nsba(ibclass
BInstr
p266
(dp267
g2
Nsg17
S'STP             XZR, XZR, [X19,#0x20]'
p268
sg19
S'7f7e02a9'
p269
sg21
Vstp xzr, xzr, [x19, #0x20]
p270
sg5
L18446743798837729012L
sg6
Nsg23
S'STP'
p271
sg25
S'0xffffffc0005cd6f4L'
p272
sg27
Nsba(ibclass
BInstr
p273
(dp274
g2
Nsg17
S'STP             XZR, XZR, [X19,#0x30]'
p275
sg19
S'7f7e03a9'
p276
sg21
Vstp xzr, xzr, [x19, #0x30]
p277
sg5
L18446743798837729016L
sg6
Nsg23
S'STP'
p278
sg25
S'0xffffffc0005cd6f8L'
p279
sg27
Nsba(ibclass
BInstr
p280
(dp281
g2
Nsg17
S'STR             W0, [X19,#0x40]'
p282
sg19
S'604200b9'
p283
sg21
Vstr w0, [x19, #0x40]
p284
sg5
L18446743798837729020L
sg6
Nsg23
S'STR'
p285
sg25
S'0xffffffc0005cd6fcL'
p286
sg27
Nsbasg140
(lp287
S'STP XZR, XZR, mem'
p288
aS'STP XZR, XZR, mem'
p289
aS'STP XZR, XZR, mem'
p290
aS'STP XZR, XZR, mem'
p291
aS'STR reg, mem'
p292
asg159
Nsg5
S'0xffffffc0005cd6ecL'
p293
sg161
(lp294
S'0xffffffc0005cd690L'
p295
asg6
Nsg163
(lp296
S'0xffffffc0005cd700L'
p297
asg167
Nsg168
Nsg169
S'ed5b05a0264f0fbf34e855bcb91cd7fc'
p298
sg171
S'141f9b2487501faa6ecd5a571adb0ec6'
p299
sg173
(lp300
g257
ag264
ag271
ag278
ag285
asg175
Nsba(ibclass
BBasicBlock
p301
(dp302
g12
Nsg13
(lp303
(ibclass
BInstr
p304
(dp305
g2
Nsg17
S'ADRP            X0, #unk_FFFFFFC00135DDCA@PAGE'
p306
sg19
S'806c0090'
p307
sg21
Vadrp x0, #0xd90000
p308
sg5
L18446743798837729024L
sg6
Nsg23
S'ADRP'
p309
sg25
S'0xffffffc0005cd700L'
p310
sg27
Nsba(ibclass
BInstr
p311
(dp312
g2
Nsg17
S'ADD             X0, X0, #unk_FFFFFFC00135DDCA@PAGEOFF'
p313
sg19
S'00283791'
p314
sg21
Vadd x0, x0, #0xdca
p315
sg5
L18446743798837729028L
sg6
Nsg23
S'ADD'
p316
sg25
S'0xffffffc0005cd704L'
p317
sg27
Nsba(ibclass
BInstr
p318
(dp319
g2
Nsg17
S'B               loc_FFFFFFC0005CD914'
p320
sg19
S'83000014'
p321
sg21
Vb #0x20c
p322
sg5
L18446743798837729032L
sg6
Nsg23
g237
sg25
S'0xffffffc0005cd708L'
p323
sg27
Nsbasg140
(lp324
S'ADRP reg, #func@PAGE'
p325
aS'ADD reg, reg, #func@PAGEOFF'
p326
aS'B func'
p327
asg159
Nsg5
S'0xffffffc0005cd700L'
p328
sg161
(lp329
S'0xffffffc0005cd6e8L'
p330
aS'0xffffffc0005cd6ecL'
p331
asg6
Nsg163
(lp332
S'0xffffffc0005cd914L'
p333
asg167
Nsg168
Nsg169
S'fbb05d8d8f727699d69de49f56b5b4c8'
p334
sg171
S'504e84c4ef9350eb8240fe83ea7f699a'
p335
sg173
(lp336
g309
ag316
ag237
asg175
Nsba(ibclass
BBasicBlock
p337
(dp338
g12
Nsg13
(lp339
(ibclass
BInstr
p340
(dp341
g2
Nsg17
S'ADD             X4, X29, #0x50'
p342
sg19
S'a4430191'
p343
sg21
Vadd x4, x29, #0x50
p344
sg5
L18446743798837729036L
sg6
Nsg23
S'ADD'
p345
sg25
S'0xffffffc0005cd70cL'
p346
sg27
Nsba(ibclass
BInstr
p347
(dp348
g2
Nsg17
S'MOV             W0, #3'
p349
sg19
S'60008052'
p350
sg21
Vmovz w0, #0x3
p351
sg5
L18446743798837729040L
sg6
Nsg23
S'MOV'
p352
sg25
S'0xffffffc0005cd710L'
p353
sg27
Nsba(ibclass
BInstr
p354
(dp355
g2
Nsg17
S'STR             W0, [X4],#4'
p356
sg19
S'804400b8'
p357
sg21
Vstr w0, [x4], #4
p358
sg5
L18446743798837729044L
sg6
Nsg23
S'STR'
p359
sg25
S'0xffffffc0005cd714L'
p360
sg27
Nsba(ibclass
BInstr
p361
(dp362
g2
Nsg17
S'MOV             X0, X4'
p363
sg19
S'e00304aa'
p364
sg21
Vmov x0, x4
p365
sg5
L18446743798837729048L
sg6
Nsg23
S'MOV'
p366
sg25
S'0xffffffc0005cd718L'
p367
sg27
Nsba(ibclass
BInstr
p368
(dp369
g2
Nsg17
S'STRB            W21, [X19,#0x3F]'
p370
sg19
S'75fe0039'
p371
sg21
Vstrb w21, [x19, #0x3f]
p372
sg5
L18446743798837729052L
sg6
Nsg23
S'STR'
p373
sg25
S'0xffffffc0005cd71cL'
p374
sg27
Nsba(ibclass
BInstr
p375
(dp376
g2
Nsg17
S'MOV             X1, X19'
p377
sg19
S'e10313aa'
p378
sg21
Vmov x1, x19
p379
sg5
L18446743798837729056L
sg6
Nsg23
S'MOV'
p380
sg25
S'0xffffffc0005cd720L'
p381
sg27
Nsba(ibclass
BInstr
p382
(dp383
g2
Nsg17
S'MOV             X2, #0x40'
p384
sg19
S'020880d2'
p385
sg21
Vmovz x2, #0x40
p386
sg5
L18446743798837729060L
sg6
Nsg23
S'MOV'
p387
sg25
S'0xffffffc0005cd724L'
p388
sg27
Nsba(ibclass
BInstr
p389
(dp390
g2
Nsg17
S'STR             X4, [X29,#arg_120]'
p391
sg19
S'a49b00f9'
p392
sg21
Vstr x4, [x29, #0x130]
p393
sg5
L18446743798837729064L
sg6
Nsg23
S'STR'
p394
sg25
S'0xffffffc0005cd728L'
p395
sg27
Nsba(ibclass
BInstr
p396
(dp397
g2
Nsg17
S'BL              strlcpy'
p398
sg19
S'c16df997'
p399
sg21
Vbl #0xffffffffffe5b704
p400
sg5
L18446743798837729068L
sg6
Nsg23
S'BL'
p401
sg25
S'0xffffffc0005cd72cL'
p402
sg27
Nsba(ibclass
BInstr
p403
(dp404
g2
Nsg17
S'ADD             X3, X29, #0xE0'
p405
sg19
S'a3830391'
p406
sg21
Vadd x3, x29, #0xe0
p407
sg5
L18446743798837729072L
sg6
Nsg23
S'ADD'
p408
sg25
S'0xffffffc0005cd730L'
p409
sg27
Nsba(ibclass
BInstr
p410
(dp411
g2
Nsg17
S'MOV             X0, X3'
p412
sg19
S'e00303aa'
p413
sg21
Vmov x0, x3
p414
sg5
L18446743798837729076L
sg6
Nsg23
S'MOV'
p415
sg25
S'0xffffffc0005cd734L'
p416
sg27
Nsba(ibclass
BInstr
p417
(dp418
g2
Nsg17
S'ADD             X1, X29, #0x50'
p419
sg19
S'a1430191'
p420
sg21
Vadd x1, x29, #0x50
p421
sg5
L18446743798837729080L
sg6
Nsg23
S'ADD'
p422
sg25
S'0xffffffc0005cd738L'
p423
sg27
Nsba(ibclass
BInstr
p424
(dp425
g2
Nsg17
S'MOV             X2, #0x44'
p426
sg19
S'820880d2'
p427
sg21
Vmovz x2, #0x44
p428
sg5
L18446743798837729084L
sg6
Nsg23
S'MOV'
p429
sg25
S'0xffffffc0005cd73cL'
p430
sg27
Nsba(ibclass
BInstr
p431
(dp432
g2
Nsg17
S'BL              memcpy'
p433
sg19
S'f04af997'
p434
sg21
Vbl #0xffffffffffe52bc0
p435
sg5
L18446743798837729088L
sg6
Nsg23
S'BL'
p436
sg25
S'0xffffffc0005cd740L'
p437
sg27
Nsba(ibclass
BInstr
p438
(dp439
g2
Nsg17
S'BL              __qseecom_check_app_exists'
p440
sg19
S'a7ffff97'
p441
sg21
Vbl #0xfffffffffffffe9c
p442
sg5
L18446743798837729092L
sg6
Nsg23
S'BL'
p443
sg25
S'0xffffffc0005cd744L'
p444
sg27
Nsba(ibclass
BInstr
p445
(dp446
g2
Nsg17
S'CMN             W0, #0x13'
p447
sg19
S'1f4c0031'
p448
sg21
Vcmn w0, #0x13
p449
sg5
L18446743798837729096L
sg6
Nsg23
S'CMN'
p450
sg25
S'0xffffffc0005cd748L'
p451
sg27
Nsba(ibclass
BInstr
p452
(dp453
g2
Nsg17
S'MOV             W20, W0'
p454
sg19
S'f403002a'
p455
sg21
Vmov w20, w0
p456
sg5
L18446743798837729100L
sg6
Nsg23
S'MOV'
p457
sg25
S'0xffffffc0005cd74cL'
p458
sg27
Nsba(ibclass
BInstr
p459
(dp460
g2
Nsg17
S'LDR             X4, [X29,#arg_120]'
p461
sg19
S'a49b40f9'
p462
sg21
Vldr x4, [x29, #0x130]
p463
sg5
L18446743798837729104L
sg6
Nsg23
S'LDR'
p464
sg25
S'0xffffffc0005cd750L'
p465
sg27
Nsba(ibclass
BInstr
p466
(dp467
g2
Nsg17
S'B.EQ            loc_FFFFFFC0005CD760'
p468
sg19
S'60000054'
p469
sg21
Vb.eq #0xc
p470
sg5
L18446743798837729108L
sg6
Nsg23
g237
sg25
S'0xffffffc0005cd754L'
p471
sg27
Nsbasg140
(lp472
S'ADD reg, reg9, #0x50'
p473
aS'MOV reg, #3'
p474
aS'STR reg, mem,#4'
p475
aS'MOV reg, reg'
p476
aS'STRB reg1, mem'
p477
aS'MOV reg, reg9'
p478
aS'MOV reg, #0x40'
p479
aS'STR reg, mem'
p480
aS'BL strlcpy'
p481
aS'ADD reg, reg9, #0xE0'
p482
aS'MOV reg, reg'
p483
aS'ADD reg, reg9, #0x50'
p484
aS'MOV reg, #0x44'
p485
aS'BL memcpy'
p486
aS'BL __qseecom_check_app_exists'
p487
aS'CMN reg, #0x13'
p488
aS'MOV reg0, reg'
p489
aS'LDR reg, mem'
p490
aS'B.EQ func'
p491
asg159
Nsg5
S'0xffffffc0005cd70cL'
p492
sg161
(lp493
S'0xffffffc0005cd6d4L'
p494
asg6
Nsg163
(lp495
S'0xffffffc0005cd758L'
p496
aS'0xffffffc0005cd760L'
p497
asg167
Nsg168
Nsg169
S'15a639fedf1d32b0dfd93e299c7862ba'
p498
sg171
S'59910998678307b3546b320c83af2622'
p499
sg173
(lp500
g345
ag352
ag359
ag366
ag373
ag380
ag387
ag394
ag401
ag408
ag415
ag422
ag429
ag436
ag443
ag450
ag457
ag464
ag237
asg175
Nsba(ibclass
BBasicBlock
p501
(dp502
g12
Nsg13
(lp503
(ibclass
BInstr
p504
(dp505
g2
Nsg17
S'CMN             W0, #0x16'
p506
sg19
S'1f580031'
p507
sg21
Vcmn w0, #0x16
p508
sg5
L18446743798837729112L
sg6
Nsg23
S'CMN'
p509
sg25
S'0xffffffc0005cd758L'
p510
sg27
Nsba(ibclass
BInstr
p511
(dp512
g2
Nsg17
S'B.NE            loc_FFFFFFC0005CD780'
p513
sg19
S'21010054'
p514
sg21
Vb.ne #0x24
p515
sg5
L18446743798837729116L
sg6
Nsg23
g237
sg25
S'0xffffffc0005cd75cL'
p516
sg27
Nsbasg140
(lp517
S'CMN reg, #0x16'
p518
aS'B.NE func'
p519
asg159
Nsg5
S'0xffffffc0005cd758L'
p520
sg161
(lp521
S'0xffffffc0005cd70cL'
p522
asg6
Nsg163
(lp523
S'0xffffffc0005cd760L'
p524
aS'0xffffffc0005cd780L'
p525
asg167
Nsg168
Nsg169
S'0efc94ace390d98fde13a1d606963ba2'
p526
sg171
S'b463b133ecb0e93b871c7d30dbbd7711'
p527
sg173
(lp528
g509
ag237
asg175
Nsba(ibclass
BBasicBlock
p529
(dp530
g12
Nsg13
(lp531
(ibclass
BInstr
p532
(dp533
g2
Nsg17
S'ADRP            X1, #__func__.24861@PAGE; "qseecom_unregister_listener"'
p534
sg19
S'215300b0'
p535
sg21
Vadrp x1, #0xa65000
p536
sg5
L18446743798837729120L
sg6
Nsg23
S'ADRP'
p537
sg25
S'0xffffffc0005cd760L'
p538
sg27
Nsba(ibclass
BInstr
p539
(dp540
g2
Nsg17
S'ADRP            X0, #unk_FFFFFFC00135DDF0@PAGE'
p541
sg19
S'806c0090'
p542
sg21
Vadrp x0, #0xd90000
p543
sg5
L18446743798837729124L
sg6
Nsg23
S'ADRP'
p544
sg25
S'0xffffffc0005cd764L'
p545
sg27
Nsba(ibclass
BInstr
p546
(dp547
g2
Nsg17
S'ADD             X1, X1, #__func__.24861@PAGEOFF; "qseecom_unregister_listener"'
p548
sg19
S'21200b91'
p549
sg21
Vadd x1, x1, #0x2c8
p550
sg5
L18446743798837729128L
sg6
Nsg23
S'ADD'
p551
sg25
S'0xffffffc0005cd768L'
p552
sg27
Nsba(ibclass
BInstr
p553
(dp554
g2
Nsg17
S'ADD             X0, X0, #unk_FFFFFFC00135DDF0@PAGEOFF'
p555
sg19
S'00c03791'
p556
sg21
Vadd x0, x0, #0xdf0
p557
sg5
L18446743798837729132L
sg6
Nsg23
S'ADD'
p558
sg25
S'0xffffffc0005cd76cL'
p559
sg27
Nsba(ibclass
BInstr
p560
(dp561
g2
Nsg17
S'ADD             X1, X1, #0x160'
p562
sg19
S'21800591'
p563
sg21
Vadd x1, x1, #0x160
p564
sg5
L18446743798837729136L
sg6
Nsg23
S'ADD'
p565
sg25
S'0xffffffc0005cd770L'
p566
sg27
Nsba(ibclass
BInstr
p567
(dp568
g2
Nsg17
S'BL              printk'
p569
sg19
S'bd842194'
p570
sg21
Vbl #0x8612f4
p571
sg5
L18446743798837729140L
sg6
Nsg23
S'BL'
p572
sg25
S'0xffffffc0005cd774L'
p573
sg27
Nsba(ibclass
BInstr
p574
(dp575
g2
Nsg17
S'MOV             W0, W20'
p576
sg19
S'e003142a'
p577
sg21
Vmov w0, w20
p578
sg5
L18446743798837729144L
sg6
Nsg23
S'MOV'
p579
sg25
S'0xffffffc0005cd778L'
p580
sg27
Nsba(ibclass
BInstr
p581
(dp582
g2
Nsg17
S'B               loc_FFFFFFC0005CD94C'
p583
sg19
S'74000014'
p584
sg21
Vb #0x1d0
p585
sg5
L18446743798837729148L
sg6
Nsg23
g237
sg25
S'0xffffffc0005cd77cL'
p586
sg27
Nsbasg140
(lp587
S'ADRP reg, #__func__.24861@PAGE'
p588
aS'ADRP reg, #func@PAGE'
p589
aS'ADD reg, reg, #__func__.24861@PAGEOFF'
p590
aS'ADD reg, reg, #func@PAGEOFF'
p591
aS'ADD reg, reg, #0x160'
p592
aS'BL printk'
p593
aS'MOV reg, reg0'
p594
aS'B func'
p595
asg159
Nsg5
S'0xffffffc0005cd760L'
p596
sg161
(lp597
S'0xffffffc0005cd70cL'
p598
aS'0xffffffc0005cd758L'
p599
asg6
Nsg163
(lp600
S'0xffffffc0005cd94cL'
p601
asg167
Nsg168
Nsg169
S'f6b4a164d3a83cb5addeace3d1f2fa3b'
p602
sg171
S'dadd7125a514cbfd34e1a5278e165315'
p603
sg173
(lp604
g537
ag544
ag551
ag558
ag565
ag572
ag579
ag237
asg175
Nsba(ibclass
BBasicBlock
p605
(dp606
g12
Nsg13
(lp607
(ibclass
BInstr
p608
(dp609
g2
Nsg17
S'CMP             W0, WZR'
p610
sg19
S'1f001f6b'
p611
sg21
Vcmp w0, wzr
p612
sg5
L18446743798837729152L
sg6
Nsg23
S'CMP'
p613
sg25
S'0xffffffc0005cd780L'
p614
sg27
Nsba(ibclass
BInstr
p615
(dp616
g2
Nsg17
S'B.LE            loc_FFFFFFC0005CD948'
p617
sg19
S'2d0e0054'
p618
sg21
Vb.le #0x1c4
p619
sg5
L18446743798837729156L
sg6
Nsg23
g237
sg25
S'0xffffffc0005cd784L'
p620
sg27
Nsbasg140
(lp621
S'CMP reg, WZR'
p622
aS'B.LE func'
p623
asg159
Nsg5
S'0xffffffc0005cd780L'
p624
sg161
(lp625
S'0xffffffc0005cd758L'
p626
asg6
Nsg163
(lp627
S'0xffffffc0005cd788L'
p628
aS'0xffffffc0005cd948L'
p629
asg167
Nsg168
Nsg169
S'c78fd620a449e3c979d3f3ec12d4ee88'
p630
sg171
S'bed8eeed68f401bff85b6b77097f2172'
p631
sg173
(lp632
g613
ag237
asg175
Nsba(ibclass
BBasicBlock
p633
(dp634
g12
Nsg13
(lp635
(ibclass
BInstr
p636
(dp637
g2
Nsg17
S'ADRP            X21, #descriptor.25167@PAGE'
p638
sg19
S'd59500f0'
p639
sg21
Vadrp x21, #0x12bb000
p640
sg5
L18446743798837729160L
sg6
Nsg23
S'ADRP'
p641
sg25
S'0xffffffc0005cd788L'
p642
sg27
Nsba(ibclass
BInstr
p643
(dp644
g2
Nsg17
S'ADD             X0, X21, #descriptor.25167@PAGEOFF'
p645
sg19
S'a0421891'
p646
sg21
Vadd x0, x21, #0x610
p647
sg5
L18446743798837729164L
sg6
Nsg23
S'ADD'
p648
sg25
S'0xffffffc0005cd78cL'
p649
sg27
Nsba(ibclass
BInstr
p650
(dp651
g2
Nsg17
S'ADD             X0, X0, #0x140'
p652
sg19
S'00000591'
p653
sg21
Vadd x0, x0, #0x140
p654
sg5
L18446743798837729168L
sg6
Nsg23
S'ADD'
p655
sg25
S'0xffffffc0005cd790L'
p656
sg27
Nsba(ibclass
BInstr
p657
(dp658
g2
Nsg17
S'LDRH            W1, [X0,#(word_FFFFFFC001888772 - 0xFFFFFFC001888750)]'
p659
sg19
S'01444079'
p660
sg21
Vldrh w1, [x0, #0x22]
p661
sg5
L18446743798837729172L
sg6
Nsg23
S'LDR'
p662
sg25
S'0xffffffc0005cd794L'
p663
sg27
Nsba(ibclass
BInstr
p664
(dp665
g2
Nsg17
S'TBZ             W1, #2, loc_FFFFFFC0005CD7B8'
p666
sg19
S'01011036'
p667
sg21
Vtbz w1, #2, #0x20
p668
sg5
L18446743798837729176L
sg6
Nsg23
S'TBZ'
p669
sg25
S'0xffffffc0005cd798L'
p670
sg27
Nsbasg140
(lp671
S'ADRP reg1, #descriptor.25167@PAGE'
p672
aS'ADD reg, reg1, #descriptor.25167@PAGEOFF'
p673
aS'ADD reg, reg, #0x140'
p674
aS'LDRH reg, mem'
p675
aS'TBZ reg, #2, func'
p676
asg159
Nsg5
S'0xffffffc0005cd788L'
p677
sg161
(lp678
S'0xffffffc0005cd780L'
p679
asg6
Nsg163
(lp680
S'0xffffffc0005cd79cL'
p681
aS'0xffffffc0005cd7b8L'
p682
asg167
Nsg168
Nsg169
S'6587a2c05df004845eaae6fa4bb61607'
p683
sg171
S'cebbc2de1932f05477712ef0c18fcaf8'
p684
sg173
(lp685
g641
ag648
ag655
ag662
ag669
asg175
Nsba(ibclass
BBasicBlock
p686
(dp687
g12
Nsg13
(lp688
(ibclass
BInstr
p689
(dp690
g2
Nsg17
S'ADRP            X2, #__func__.24861@PAGE; "qseecom_unregister_listener"'
p691
sg19
S'225300b0'
p692
sg21
Vadrp x2, #0xa65000
p693
sg5
L18446743798837729180L
sg6
Nsg23
S'ADRP'
p694
sg25
S'0xffffffc0005cd79cL'
p695
sg27
Nsba(ibclass
BInstr
p696
(dp697
g2
Nsg17
S'ADRP            X1, #aQseecomSAppIdD@PAGE; "QSEECOM: %s: App id %d (%s) already exi"...'
p698
sg19
S'816c0090'
p699
sg21
Vadrp x1, #0xd90000
p700
sg5
L18446743798837729184L
sg6
Nsg23
S'ADRP'
p701
sg25
S'0xffffffc0005cd7a0L'
p702
sg27
Nsba(ibclass
BInstr
p703
(dp704
g2
Nsg17
S'ADD             X2, X2, #__func__.24861@PAGEOFF; "qseecom_unregister_listener"'
p705
sg19
S'42200b91'
p706
sg21
Vadd x2, x2, #0x2c8
p707
sg5
L18446743798837729188L
sg6
Nsg23
S'ADD'
p708
sg25
S'0xffffffc0005cd7a4L'
p709
sg27
Nsba(ibclass
BInstr
p710
(dp711
g2
Nsg17
S'ADD             X1, X1, #aQseecomSAppIdD@PAGEOFF; "QSEECOM: %s: App id %d (%s) already exi"...'
p712
sg19
S'21a83891'
p713
sg21
Vadd x1, x1, #0xe2a
p714
sg5
L18446743798837729192L
sg6
Nsg23
S'ADD'
p715
sg25
S'0xffffffc0005cd7a8L'
p716
sg27
Nsba(ibclass
BInstr
p717
(dp718
g2
Nsg17
S'ADD             X2, X2, #0x160'
p719
sg19
S'42800591'
p720
sg21
Vadd x2, x2, #0x160
p721
sg5
L18446743798837729196L
sg6
Nsg23
S'ADD'
p722
sg25
S'0xffffffc0005cd7acL'
p723
sg27
Nsba(ibclass
BInstr
p724
(dp725
g2
Nsg17
S'MOV             W3, W20'
p726
sg19
S'e303142a'
p727
sg21
Vmov w3, w20
p728
sg5
L18446743798837729200L
sg6
Nsg23
S'MOV'
p729
sg25
S'0xffffffc0005cd7b0L'
p730
sg27
Nsba(ibclass
BInstr
p731
(dp732
g2
Nsg17
S'BL              __dynamic_pr_debug'
p733
sg19
S'7dc6f997'
p734
sg21
Vbl #0xffffffffffe719f4
p735
sg5
L18446743798837729204L
sg6
Nsg23
S'BL'
p736
sg25
S'0xffffffc0005cd7b4L'
p737
sg27
Nsbasg140
(lp738
S'ADRP reg, #__func__.24861@PAGE'
p739
aS'ADRP reg, #aQseecomSAppIdD@PAGE'
p740
aS'ADD reg, reg, #__func__.24861@PAGEOFF'
p741
aS'ADD reg, reg, #aQseecomSAppIdD@PAGEOFF'
p742
aS'ADD reg, reg, #0x160'
p743
aS'MOV reg, reg0'
p744
aS'BL __dynamic_pr_debug'
p745
asg159
Nsg5
S'0xffffffc0005cd79cL'
p746
sg161
(lp747
S'0xffffffc0005cd788L'
p748
asg6
Nsg163
(lp749
S'0xffffffc0005cd7b8L'
p750
asg167
Nsg168
Nsg169
S'1ec7e3272c47417a60d3daea1bb753b5'
p751
sg171
S'a1ab820c7761a8f6111ee8ec63ed1617'
p752
sg173
(lp753
g694
ag701
ag708
ag715
ag722
ag729
ag736
asg175
Nsba(ibclass
BBasicBlock
p754
(dp755
g12
Nsg13
(lp756
(ibclass
BInstr
p757
(dp758
g2
Nsg17
S'ADRP            X25, #qseecom@PAGE'
p759
sg19
S'd9b900f0'
p760
sg21
Vadrp x25, #0x173b000
p761
sg5
L18446743798837729208L
sg6
Nsg23
S'ADRP'
p762
sg25
S'0xffffffc0005cd7b8L'
p763
sg27
Nsba(ibclass
BInstr
p764
(dp765
g2
Nsg17
S'ADD             X26, X25, #qseecom@PAGEOFF'
p766
sg19
S'3a833e91'
p767
sg21
Vadd x26, x25, #0xfa0
p768
sg5
L18446743798837729212L
sg6
Nsg23
S'ADD'
p769
sg25
S'0xffffffc0005cd7bcL'
p770
sg27
Nsba(ibclass
BInstr
p771
(dp772
g2
Nsg17
S'ADD             X0, X26, #0x30'
p773
sg19
S'40c30091'
p774
sg21
Vadd x0, x26, #0x30
p775
sg5
L18446743798837729216L
sg6
Nsg23
S'ADD'
p776
sg25
S'0xffffffc0005cd7c0L'
p777
sg27
Nsba(ibclass
BInstr
p778
(dp779
g2
Nsg17
S'BL              _raw_spin_lock_irqsave'
p780
sg19
S'd6c22194'
p781
sg21
Vbl #0x870b58
p782
sg5
L18446743798837729220L
sg6
Nsg23
S'BL'
p783
sg25
S'0xffffffc0005cd7c4L'
p784
sg27
Nsba(ibclass
BInstr
p785
(dp786
g2
Nsg17
S'MOV             X3, X26'
p787
sg19
S'e3031aaa'
p788
sg21
Vmov x3, x26
p789
sg5
L18446743798837729224L
sg6
Nsg23
S'MOV'
p790
sg25
S'0xffffffc0005cd7c8L'
p791
sg27
Nsba(ibclass
BInstr
p792
(dp793
g2
Nsg17
S'LDR             X2, [X3,#(qword_FFFFFFC001D08FC0 - 0xFFFFFFC001D08FA0)]!'
p794
sg19
S'620c42f8'
p795
sg21
Vldr x2, [x3, #0x20]!
p796
sg5
L18446743798837729228L
sg6
Nsg23
S'LDR'
p797
sg25
S'0xffffffc0005cd7ccL'
p798
sg27
Nsba(ibclass
BInstr
p799
(dp800
g2
Nsg17
S'MOV             X1, X0'
p801
sg19
S'e10300aa'
p802
sg21
Vmov x1, x0
p803
sg5
L18446743798837729232L
sg6
Nsg23
S'MOV'
p804
sg25
S'0xffffffc0005cd7d0L'
p805
sg27
Nsbasg140
(lp806
S'ADRP reg5, #qseecom@PAGE'
p807
aS'ADD reg6, reg5, #qseecom@PAGEOFF'
p808
aS'ADD reg, reg6, #0x30'
p809
aS'BL _raw_spin_lock_irqsave'
p810
aS'MOV reg, reg6'
p811
aS'LDR reg, mem!'
p812
aS'MOV reg, reg'
p813
asg159
Nsg5
S'0xffffffc0005cd7b8L'
p814
sg161
(lp815
S'0xffffffc0005cd788L'
p816
aS'0xffffffc0005cd79cL'
p817
asg6
Nsg163
(lp818
S'0xffffffc0005cd7d4L'
p819
asg167
Nsg168
Nsg169
S'3bb6f57dfaa270af5659e6333bf8c4b0'
p820
sg171
S'15db1ce5de45c9228f438da61bffc91f'
p821
sg173
(lp822
g762
ag769
ag776
ag783
ag790
ag797
ag804
asg175
Nsba(ibclass
BBasicBlock
p823
(dp824
g12
Nsg13
(lp825
(ibclass
BInstr
p826
(dp827
g2
Nsg17
S'CMP             X2, X3'
p828
sg19
S'5f0003eb'
p829
sg21
Vcmp x2, x3
p830
sg5
L18446743798837729236L
sg6
Nsg23
S'CMP'
p831
sg25
S'0xffffffc0005cd7d4L'
p832
sg27
Nsba(ibclass
BInstr
p833
(dp834
g2
Nsg17
S'B.EQ            loc_FFFFFFC0005CD804'
p835
sg19
S'60010054'
p836
sg21
Vb.eq #0x2c
p837
sg5
L18446743798837729240L
sg6
Nsg23
g237
sg25
S'0xffffffc0005cd7d8L'
p838
sg27
Nsbasg140
(lp839
S'CMP reg, reg'
p840
aS'B.EQ func'
p841
asg159
Nsg5
S'0xffffffc0005cd7d4L'
p842
sg161
(lp843
S'0xffffffc0005cd7b8L'
p844
aS'0xffffffc0005cd7fcL'
p845
asg6
Nsg163
(lp846
S'0xffffffc0005cd7dcL'
p847
aS'0xffffffc0005cd804L'
p848
asg167
Nsg168
Nsg169
S'c78fd620a449e3c979d3f3ec12d4ee88'
p849
sg171
S'cd020f6b9bc7a829fec19b8ab4fd5c17'
p850
sg173
(lp851
g831
ag237
asg175
Nsba(ibclass
BBasicBlock
p852
(dp853
g12
Nsg13
(lp854
(ibclass
BInstr
p855
(dp856
g2
Nsg17
S'LDR             W0, [X2,#0x10]'
p857
sg19
S'401040b9'
p858
sg21
Vldr w0, [x2, #0x10]
p859
sg5
L18446743798837729244L
sg6
Nsg23
S'LDR'
p860
sg25
S'0xffffffc0005cd7dcL'
p861
sg27
Nsba(ibclass
BInstr
p862
(dp863
g2
Nsg17
S'CMP             W0, W20'
p864
sg19
S'1f00146b'
p865
sg21
Vcmp w0, w20
p866
sg5
L18446743798837729248L
sg6
Nsg23
S'CMP'
p867
sg25
S'0xffffffc0005cd7e0L'
p868
sg27
Nsba(ibclass
BInstr
p869
(dp870
g2
Nsg17
S'B.NE            loc_FFFFFFC0005CD7FC'
p871
sg19
S'c1000054'
p872
sg21
Vb.ne #0x18
p873
sg5
L18446743798837729252L
sg6
Nsg23
g237
sg25
S'0xffffffc0005cd7e4L'
p874
sg27
Nsbasg140
(lp875
S'LDR reg, mem'
p876
aS'CMP reg, reg0'
p877
aS'B.NE func'
p878
asg159
Nsg5
S'0xffffffc0005cd7dcL'
p879
sg161
(lp880
S'0xffffffc0005cd7d4L'
p881
asg6
Nsg163
(lp882
S'0xffffffc0005cd7e8L'
p883
aS'0xffffffc0005cd7fcL'
p884
asg167
Nsg168
Nsg169
S'fa4df767a85c49648339e2dc5c6807f6'
p885
sg171
S'e983c10f5447536e6ed7e8b6e9aa0dd8'
p886
sg173
(lp887
g860
ag867
ag237
asg175
Nsba(ibclass
BBasicBlock
p888
(dp889
g12
Nsg13
(lp890
(ibclass
BInstr
p891
(dp892
g2
Nsg17
S'LDR             W0, [X2,#0x14]'
p893
sg19
S'401440b9'
p894
sg21
Vldr w0, [x2, #0x14]
p895
sg5
L18446743798837729256L
sg6
Nsg23
S'LDR'
p896
sg25
S'0xffffffc0005cd7e8L'
p897
sg27
Nsba(ibclass
BInstr
p898
(dp899
g2
Nsg17
S'MOV             W26, #1'
p900
sg19
S'3a008052'
p901
sg21
Vmovz w26, #0x1
p902
sg5
L18446743798837729260L
sg6
Nsg23
S'MOV'
p903
sg25
S'0xffffffc0005cd7ecL'
p904
sg27
Nsba(ibclass
BInstr
p905
(dp906
g2
Nsg17
S'ADD             W0, W0, #1'
p907
sg19
S'00040011'
p908
sg21
Vadd w0, w0, #1
p909
sg5
L18446743798837729264L
sg6
Nsg23
S'ADD'
p910
sg25
S'0xffffffc0005cd7f0L'
p911
sg27
Nsba(ibclass
BInstr
p912
(dp913
g2
Nsg17
S'STR             W0, [X2,#0x14]'
p914
sg19
S'401400b9'
p915
sg21
Vstr w0, [x2, #0x14]
p916
sg5
L18446743798837729268L
sg6
Nsg23
S'STR'
p917
sg25
S'0xffffffc0005cd7f4L'
p918
sg27
Nsba(ibclass
BInstr
p919
(dp920
g2
Nsg17
S'B               loc_FFFFFFC0005CD808'
p921
sg19
S'04000014'
p922
sg21
Vb #0x10
p923
sg5
L18446743798837729272L
sg6
Nsg23
g237
sg25
S'0xffffffc0005cd7f8L'
p924
sg27
Nsbasg140
(lp925
S'LDR reg, mem'
p926
aS'MOV reg6, #1'
p927
aS'ADD reg, reg, #1'
p928
aS'STR reg, mem'
p929
aS'B func'
p930
asg159
Nsg5
S'0xffffffc0005cd7e8L'
p931
sg161
(lp932
S'0xffffffc0005cd7dcL'
p933
asg6
Nsg163
(lp934
S'0xffffffc0005cd808L'
p935
asg167
Nsg168
Nsg169
S'bfce0cb8e72c3e2f1ac52651cec250e0'
p936
sg171
S'7ccaee98a7bfb073624fe615e0ee493b'
p937
sg173
(lp938
g896
ag903
ag910
ag917
ag237
asg175
Nsba(ibclass
BBasicBlock
p939
(dp940
g12
Nsg13
(lp941
(ibclass
BInstr
p942
(dp943
g2
Nsg17
S'LDR             X2, [X2]'
p944
sg19
S'420040f9'
p945
sg21
Vldr x2, [x2]
p946
sg5
L18446743798837729276L
sg6
Nsg23
S'LDR'
p947
sg25
S'0xffffffc0005cd7fcL'
p948
sg27
Nsba(ibclass
BInstr
p949
(dp950
g2
Nsg17
S'B               loc_FFFFFFC0005CD7D4'
p951
sg19
S'f5ffff17'
p952
sg21
Vb #0xffffffffffffffd4
p953
sg5
L18446743798837729280L
sg6
Nsg23
g237
sg25
S'0xffffffc0005cd800L'
p954
sg27
Nsbasg140
(lp955
S'LDR reg, mem'
p956
aS'B func'
p957
asg159
Nsg5
S'0xffffffc0005cd7fcL'
p958
sg161
(lp959
S'0xffffffc0005cd7dcL'
p960
asg6
Nsg163
(lp961
S'0xffffffc0005cd7d4L'
p962
asg167
Nsg168
Nsg169
S'd269f92813b7f9be0535ea2960d9947c'
p963
sg171
S'ae729ca63de59cc36787fc83d808cb9e'
p964
sg173
(lp965
g947
ag237
asg175
Nsba(ibclass
BBasicBlock
p966
(dp967
g12
Nsg13
(lp968
(ibclass
BInstr
p969
(dp970
g2
Nsg17
S'MOV             W26, #0'
p971
sg19
S'1a008052'
p972
sg21
Vmovz w26, #0
p973
sg5
L18446743798837729284L
sg6
Nsg23
S'MOV'
p974
sg25
S'0xffffffc0005cd804L'
p975
sg27
Nsbasg140
(lp976
S'MOV reg6, #0'
p977
asg159
Nsg5
S'0xffffffc0005cd804L'
p978
sg161
(lp979
S'0xffffffc0005cd7d4L'
p980
asg6
Nsg163
(lp981
S'0xffffffc0005cd808L'
p982
asg167
Nsg168
Nsg169
S'17b32100aef1fc19670be7fd58bc85df'
p983
sg171
S'3d7c8486f64d9375f3bfd19750a6ac2c'
p984
sg173
(lp985
g974
asg175
Nsba(ibclass
BBasicBlock
p986
(dp987
g12
Nsg13
(lp988
(ibclass
BInstr
p989
(dp990
g2
Nsg17
S'ADD             X0, X25, #qseecom@PAGEOFF'
p991
sg19
S'20833e91'
p992
sg21
Vadd x0, x25, #0xfa0
p993
sg5
L18446743798837729288L
sg6
Nsg23
S'ADD'
p994
sg25
S'0xffffffc0005cd808L'
p995
sg27
Nsba(ibclass
BInstr
p996
(dp997
g2
Nsg17
S'ADD             X0, X0, #0x30'
p998
sg19
S'00c00091'
p999
sg21
Vadd x0, x0, #0x30
p1000
sg5
L18446743798837729292L
sg6
Nsg23
S'ADD'
p1001
sg25
S'0xffffffc0005cd80cL'
p1002
sg27
Nsba(ibclass
BInstr
p1003
(dp1004
g2
Nsg17
S'BL              _raw_spin_unlock_irqrestore'
p1005
sg19
S'17c32194'
p1006
sg21
Vbl #0x870c5c
p1007
sg5
L18446743798837729296L
sg6
Nsg23
S'BL'
p1008
sg25
S'0xffffffc0005cd810L'
p1009
sg27
Nsba(ibclass
BInstr
p1010
(dp1011
g2
Nsg17
S'ADD             X24, X24, #0x38'
p1012
sg19
S'18e30091'
p1013
sg21
Vadd x24, x24, #0x38
p1014
sg5
L18446743798837729300L
sg6
Nsg23
S'ADD'
p1015
sg25
S'0xffffffc0005cd814L'
p1016
sg27
Nsba(ibclass
BInstr
p1017
(dp1018
g2
Nsg17
S'STUR            W20, [X24,#-0x30]'
p1019
sg19
S'14031db8'
p1020
sg21
Vstur w20, [x24, #-0x30]
p1021
sg5
L18446743798837729304L
sg6
Nsg23
S'STUR'
p1022
sg25
S'0xffffffc0005cd818L'
p1023
sg27
Nsba(ibclass
BInstr
p1024
(dp1025
g2
Nsg17
S'MOV             X1, X19'
p1026
sg19
S'e10313aa'
p1027
sg21
Vmov x1, x19
p1028
sg5
L18446743798837729308L
sg6
Nsg23
S'MOV'
p1029
sg25
S'0xffffffc0005cd81cL'
p1030
sg27
Nsba(ibclass
BInstr
p1031
(dp1032
g2
Nsg17
S'MOV             X0, X24'
p1033
sg19
S'e00318aa'
p1034
sg21
Vmov x0, x24
p1035
sg5
L18446743798837729312L
sg6
Nsg23
S'MOV'
p1036
sg25
S'0xffffffc0005cd820L'
p1037
sg27
Nsba(ibclass
BInstr
p1038
(dp1039
g2
Nsg17
S'MOV             X2, #0x40'
p1040
sg19
S'020880d2'
p1041
sg21
Vmovz x2, #0x40
p1042
sg5
L18446743798837729316L
sg6
Nsg23
S'MOV'
p1043
sg25
S'0xffffffc0005cd824L'
p1044
sg27
Nsba(ibclass
BInstr
p1045
(dp1046
g2
Nsg17
S'STR             W20, [X19,#0x40]'
p1047
sg19
S'744200b9'
p1048
sg21
Vstr w20, [x19, #0x40]
p1049
sg5
L18446743798837729320L
sg6
Nsg23
S'STR'
p1050
sg25
S'0xffffffc0005cd828L'
p1051
sg27
Nsba(ibclass
BInstr
p1052
(dp1053
g2
Nsg17
S'BL              strlcpy'
p1054
sg19
S'816df997'
p1055
sg21
Vbl #0xffffffffffe5b604
p1056
sg5
L18446743798837729324L
sg6
Nsg23
S'BL'
p1057
sg25
S'0xffffffc0005cd82cL'
p1058
sg27
Nsba(ibclass
BInstr
p1059
(dp1060
g2
Nsg17
S'CBNZ            W26, loc_FFFFFFC0005CD8F4'
p1061
sg19
S'3a060035'
p1062
sg21
Vcbnz w26, #0xc4
p1063
sg5
L18446743798837729328L
sg6
Nsg23
S'CBNZ'
p1064
sg25
S'0xffffffc0005cd830L'
p1065
sg27
Nsbasg140
(lp1066
S'ADD reg, reg5, #qseecom@PAGEOFF'
p1067
aS'ADD reg, reg, #0x30'
p1068
aS'BL _raw_spin_unlock_irqrestore'
p1069
aS'ADD reg4, reg4, #0x38'
p1070
aS'STUR reg0, mem'
p1071
aS'MOV reg, reg9'
p1072
aS'MOV reg, reg4'
p1073
aS'MOV reg, #0x40'
p1074
aS'STR reg0, mem'
p1075
aS'BL strlcpy'
p1076
aS'CBNZ reg6, func'
p1077
asg159
Nsg5
S'0xffffffc0005cd808L'
p1078
sg161
(lp1079
S'0xffffffc0005cd7e8L'
p1080
aS'0xffffffc0005cd804L'
p1081
asg6
Nsg163
(lp1082
S'0xffffffc0005cd834L'
p1083
aS'0xffffffc0005cd8f4L'
p1084
asg167
Nsg168
Nsg169
S'34e3f9a281b14802acb94ffc30751e4b'
p1085
sg171
S'32a3ac3bb8b2b9c65351b7e9f5e9f220'
p1086
sg173
(lp1087
g994
ag1001
ag1008
ag1015
ag1022
ag1029
ag1036
ag1043
ag1050
ag1057
ag1064
asg175
Nsba(ibclass
BBasicBlock
p1088
(dp1089
g12
Nsg13
(lp1090
(ibclass
BInstr
p1091
(dp1092
g2
Nsg17
S'ADD             X21, X21, #descriptor.25167@PAGEOFF'
p1093
sg19
S'b5421891'
p1094
sg21
Vadd x21, x21, #0x610
p1095
sg5
L18446743798837729332L
sg6
Nsg23
S'ADD'
p1096
sg25
S'0xffffffc0005cd834L'
p1097
sg27
Nsba(ibclass
BInstr
p1098
(dp1099
g2
Nsg17
S'ADD             X0, X21, #0x168'
p1100
sg19
S'a0a20591'
p1101
sg21
Vadd x0, x21, #0x168
p1102
sg5
L18446743798837729336L
sg6
Nsg23
S'ADD'
p1103
sg25
S'0xffffffc0005cd838L'
p1104
sg27
Nsba(ibclass
BInstr
p1105
(dp1106
g2
Nsg17
S'LDRH            W1, [X0,#(word_FFFFFFC00188879A - 0xFFFFFFC001888778)]'
p1107
sg19
S'01444079'
p1108
sg21
Vldrh w1, [x0, #0x22]
p1109
sg5
L18446743798837729340L
sg6
Nsg23
S'LDR'
p1110
sg25
S'0xffffffc0005cd83cL'
p1111
sg27
Nsba(ibclass
BInstr
p1112
(dp1113
g2
Nsg17
S'TBZ             W1, #2, loc_FFFFFFC0005CD864'
p1114
sg19
S'21011036'
p1115
sg21
Vtbz w1, #2, #0x24
p1116
sg5
L18446743798837729344L
sg6
Nsg23
S'TBZ'
p1117
sg25
S'0xffffffc0005cd840L'
p1118
sg27
Nsbasg140
(lp1119
S'ADD reg1, reg1, #descriptor.25167@PAGEOFF'
p1120
aS'ADD reg, reg1, #0x168'
p1121
aS'LDRH reg, mem'
p1122
aS'TBZ reg, #2, func'
p1123
asg159
Nsg5
S'0xffffffc0005cd834L'
p1124
sg161
(lp1125
S'0xffffffc0005cd808L'
p1126
asg6
Nsg163
(lp1127
S'0xffffffc0005cd844L'
p1128
aS'0xffffffc0005cd864L'
p1129
asg167
Nsg168
Nsg169
S'3932122608ee3dd63805034014bc23ca'
p1130
sg171
S'0324d110746c602abc54ab854a822dfc'
p1131
sg173
(lp1132
g1096
ag1103
ag1110
ag1117
asg175
Nsba(ibclass
BBasicBlock
p1133
(dp1134
g12
Nsg13
(lp1135
(ibclass
BInstr
p1136
(dp1137
g2
Nsg17
S'ADRP            X2, #__func__.24861@PAGE; "qseecom_unregister_listener"'
p1138
sg19
S'225300b0'
p1139
sg21
Vadrp x2, #0xa65000
p1140
sg5
L18446743798837729348L
sg6
Nsg23
S'ADRP'
p1141
sg25
S'0xffffffc0005cd844L'
p1142
sg27
Nsba(ibclass
BInstr
p1143
(dp1144
g2
Nsg17
S'ADRP            X1, #aQseecomSRegist@PAGE; "QSEECOM: %s: Register app %d [%s] which"...'
p1145
sg19
S'816c0090'
p1146
sg21
Vadrp x1, #0xd90000
p1147
sg5
L18446743798837729352L
sg6
Nsg23
S'ADRP'
p1148
sg25
S'0xffffffc0005cd848L'
p1149
sg27
Nsba(ibclass
BInstr
p1150
(dp1151
g2
Nsg17
S'ADD             X2, X2, #__func__.24861@PAGEOFF; "qseecom_unregister_listener"'
p1152
sg19
S'42200b91'
p1153
sg21
Vadd x2, x2, #0x2c8
p1154
sg5
L18446743798837729356L
sg6
Nsg23
S'ADD'
p1155
sg25
S'0xffffffc0005cd84cL'
p1156
sg27
Nsba(ibclass
BInstr
p1157
(dp1158
g2
Nsg17
S'ADD             X1, X1, #aQseecomSRegist@PAGEOFF; "QSEECOM: %s: Register app %d [%s] which"...'
p1159
sg19
S'21583991'
p1160
sg21
Vadd x1, x1, #0xe56
p1161
sg5
L18446743798837729360L
sg6
Nsg23
S'ADD'
p1162
sg25
S'0xffffffc0005cd850L'
p1163
sg27
Nsba(ibclass
BInstr
p1164
(dp1165
g2
Nsg17
S'ADD             X2, X2, #0x160'
p1166
sg19
S'42800591'
p1167
sg21
Vadd x2, x2, #0x160
p1168
sg5
L18446743798837729364L
sg6
Nsg23
S'ADD'
p1169
sg25
S'0xffffffc0005cd854L'
p1170
sg27
Nsba(ibclass
BInstr
p1171
(dp1172
g2
Nsg17
S'MOV             W3, W20'
p1173
sg19
S'e303142a'
p1174
sg21
Vmov w3, w20
p1175
sg5
L18446743798837729368L
sg6
Nsg23
S'MOV'
p1176
sg25
S'0xffffffc0005cd858L'
p1177
sg27
Nsba(ibclass
BInstr
p1178
(dp1179
g2
Nsg17
S'MOV             X4, X19'
p1180
sg19
S'e40313aa'
p1181
sg21
Vmov x4, x19
p1182
sg5
L18446743798837729372L
sg6
Nsg23
S'MOV'
p1183
sg25
S'0xffffffc0005cd85cL'
p1184
sg27
Nsba(ibclass
BInstr
p1185
(dp1186
g2
Nsg17
S'BL              __dynamic_pr_debug'
p1187
sg19
S'52c6f997'
p1188
sg21
Vbl #0xffffffffffe71948
p1189
sg5
L18446743798837729376L
sg6
Nsg23
S'BL'
p1190
sg25
S'0xffffffc0005cd860L'
p1191
sg27
Nsbasg140
(lp1192
S'ADRP reg, #__func__.24861@PAGE'
p1193
aS'ADRP reg, #aQseecomSRegist@PAGE'
p1194
aS'ADD reg, reg, #__func__.24861@PAGEOFF'
p1195
aS'ADD reg, reg, #aQseecomSRegist@PAGEOFF'
p1196
aS'ADD reg, reg, #0x160'
p1197
aS'MOV reg, reg0'
p1198
aS'MOV reg, reg9'
p1199
aS'BL __dynamic_pr_debug'
p1200
asg159
Nsg5
S'0xffffffc0005cd844L'
p1201
sg161
(lp1202
S'0xffffffc0005cd834L'
p1203
asg6
Nsg163
(lp1204
S'0xffffffc0005cd864L'
p1205
asg167
Nsg168
Nsg169
S'304d16e2ee7ab520d9597ca3e9d9055a'
p1206
sg171
S'c8a56639f9e54d4695cea35469550f8f'
p1207
sg173
(lp1208
g1141
ag1148
ag1155
ag1162
ag1169
ag1176
ag1183
ag1190
asg175
Nsba(ibclass
BBasicBlock
p1209
(dp1210
g12
Nsg13
(lp1211
(ibclass
BInstr
p1212
(dp1213
g2
Nsg17
S'ADRP            X0, #qword_FFFFFFC000E445F0@PAGE'
p1214
sg19
S'a04300f0'
p1215
sg21
Vadrp x0, #0x877000
p1216
sg5
L18446743798837729380L
sg6
Nsg23
S'ADRP'
p1217
sg25
S'0xffffffc0005cd864L'
p1218
sg27
Nsba(ibclass
BInstr
p1219
(dp1220
g2
Nsg17
S'LDR             X0, [X0,#qword_FFFFFFC000E445F0@PAGEOFF]'
p1221
sg19
S'00f842f9'
p1222
sg21
Vldr x0, [x0, #0x5f0]
p1223
sg5
L18446743798837729384L
sg6
Nsg23
S'LDR'
p1224
sg25
S'0xffffffc0005cd868L'
p1225
sg27
Nsba(ibclass
BInstr
p1226
(dp1227
g2
Nsg17
S'MOV             W1, #0xD0'
p1228
sg19
S'011a8052'
p1229
sg21
Vmovz w1, #0xd0
p1230
sg5
L18446743798837729388L
sg6
Nsg23
S'MOV'
p1231
sg25
S'0xffffffc0005cd86cL'
p1232
sg27
Nsba(ibclass
BInstr
p1233
(dp1234
g2
Nsg17
S'LDR             X0, [X0,#0x38]'
p1235
sg19
S'001c40f9'
p1236
sg21
Vldr x0, [x0, #0x38]
p1237
sg5
L18446743798837729392L
sg6
Nsg23
S'LDR'
p1238
sg25
S'0xffffffc0005cd870L'
p1239
sg27
Nsba(ibclass
BInstr
p1240
(dp1241
g2
Nsg17
S'MOV             X2, #0x58'
p1242
sg19
S'020b80d2'
p1243
sg21
Vmovz x2, #0x58
p1244
sg5
L18446743798837729396L
sg6
Nsg23
S'MOV'
p1245
sg25
S'0xffffffc0005cd874L'
p1246
sg27
Nsba(ibclass
BInstr
p1247
(dp1248
g2
Nsg17
S'BL              kmem_cache_alloc_trace'
p1249
sg19
S'6b8bf497'
p1250
sg21
Vbl #0xffffffffffd22dac
p1251
sg5
L18446743798837729400L
sg6
Nsg23
S'BL'
p1252
sg25
S'0xffffffc0005cd878L'
p1253
sg27
Nsba(ibclass
BInstr
p1254
(dp1255
g2
Nsg17
S'MOV             X21, X0'
p1256
sg19
S'f50300aa'
p1257
sg21
Vmov x21, x0
p1258
sg5
L18446743798837729404L
sg6
Nsg23
S'MOV'
p1259
sg25
S'0xffffffc0005cd87cL'
p1260
sg27
Nsba(ibclass
BInstr
p1261
(dp1262
g2
Nsg17
S'CBNZ            X0, loc_FFFFFFC0005CD8A4'
p1263
sg19
S'200100b5'
p1264
sg21
Vcbnz x0, #0x24
p1265
sg5
L18446743798837729408L
sg6
Nsg23
S'CBNZ'
p1266
sg25
S'0xffffffc0005cd880L'
p1267
sg27
Nsbasg140
(lp1268
S'ADRP reg, #func@PAGE'
p1269
aS'LDR reg, mem'
p1270
aS'MOV reg, #0xD0'
p1271
aS'LDR reg, mem'
p1272
aS'MOV reg, #0x58'
p1273
aS'BL kmem_cache_alloc_trace'
p1274
aS'MOV reg1, reg'
p1275
aS'CBNZ reg, func'
p1276
asg159
Nsg5
S'0xffffffc0005cd864L'
p1277
sg161
(lp1278
S'0xffffffc0005cd834L'
p1279
aS'0xffffffc0005cd844L'
p1280
asg6
Nsg163
(lp1281
S'0xffffffc0005cd884L'
p1282
aS'0xffffffc0005cd8a4L'
p1283
asg167
Nsg168
Nsg169
S'5b2cb9ebe24c3adfcc6105f0ee5af2e3'
p1284
sg171
S'e2eb6de8f61e07c384508894bfb2621f'
p1285
sg173
(lp1286
g1217
ag1224
ag1231
ag1238
ag1245
ag1252
ag1259
ag1266
asg175
Nsba(ibclass
BBasicBlock
p1287
(dp1288
g12
Nsg13
(lp1289
(ibclass
BInstr
p1290
(dp1291
g2
Nsg17
S'ADRP            X1, #__func__.24861@PAGE; "qseecom_unregister_listener"'
p1292
sg19
S'215300b0'
p1293
sg21
Vadrp x1, #0xa65000
p1294
sg5
L18446743798837729412L
sg6
Nsg23
S'ADRP'
p1295
sg25
S'0xffffffc0005cd884L'
p1296
sg27
Nsba(ibclass
BInstr
p1297
(dp1298
g2
Nsg17
S'ADRP            X0, #unk_FFFFFFC00135DE91@PAGE'
p1299
sg19
S'806c0090'
p1300
sg21
Vadrp x0, #0xd90000
p1301
sg5
L18446743798837729416L
sg6
Nsg23
S'ADRP'
p1302
sg25
S'0xffffffc0005cd888L'
p1303
sg27
Nsba(ibclass
BInstr
p1304
(dp1305
g2
Nsg17
S'ADD             X1, X1, #__func__.24861@PAGEOFF; "qseecom_unregister_listener"'
p1306
sg19
S'21200b91'
p1307
sg21
Vadd x1, x1, #0x2c8
p1308
sg5
L18446743798837729420L
sg6
Nsg23
S'ADD'
p1309
sg25
S'0xffffffc0005cd88cL'
p1310
sg27
Nsba(ibclass
BInstr
p1311
(dp1312
g2
Nsg17
S'ADD             X0, X0, #unk_FFFFFFC00135DE91@PAGEOFF'
p1313
sg19
S'00443a91'
p1314
sg21
Vadd x0, x0, #0xe91
p1315
sg5
L18446743798837729424L
sg6
Nsg23
S'ADD'
p1316
sg25
S'0xffffffc0005cd890L'
p1317
sg27
Nsba(ibclass
BInstr
p1318
(dp1319
g2
Nsg17
S'ADD             X1, X1, #0x160'
p1320
sg19
S'21800591'
p1321
sg21
Vadd x1, x1, #0x160
p1322
sg5
L18446743798837729428L
sg6
Nsg23
S'ADD'
p1323
sg25
S'0xffffffc0005cd894L'
p1324
sg27
Nsba(ibclass
BInstr
p1325
(dp1326
g2
Nsg17
S'BL              printk'
p1327
sg19
S'74842194'
p1328
sg21
Vbl #0x8611d0
p1329
sg5
L18446743798837729432L
sg6
Nsg23
S'BL'
p1330
sg25
S'0xffffffc0005cd898L'
p1331
sg27
Nsba(ibclass
BInstr
p1332
(dp1333
g2
Nsg17
S'MOV             W0, #0xFFFFFFF4'
p1334
sg19
S'60018012'
p1335
sg21
Vmovn w0, #0xb
p1336
sg5
L18446743798837729436L
sg6
Nsg23
S'MOV'
p1337
sg25
S'0xffffffc0005cd89cL'
p1338
sg27
Nsba(ibclass
BInstr
p1339
(dp1340
g2
Nsg17
S'B               loc_FFFFFFC0005CD94C'
p1341
sg19
S'2b000014'
p1342
sg21
Vb #0xac
p1343
sg5
L18446743798837729440L
sg6
Nsg23
g237
sg25
S'0xffffffc0005cd8a0L'
p1344
sg27
Nsbasg140
(lp1345
S'ADRP reg, #__func__.24861@PAGE'
p1346
aS'ADRP reg, #func@PAGE'
p1347
aS'ADD reg, reg, #__func__.24861@PAGEOFF'
p1348
aS'ADD reg, reg, #func@PAGEOFF'
p1349
aS'ADD reg, reg, #0x160'
p1350
aS'BL printk'
p1351
aS'MOV reg, #0xFFFFFFF4'
p1352
aS'B func'
p1353
asg159
Nsg5
S'0xffffffc0005cd884L'
p1354
sg161
(lp1355
S'0xffffffc0005cd864L'
p1356
asg6
Nsg163
(lp1357
S'0xffffffc0005cd94cL'
p1358
asg167
Nsg168
Nsg169
S'f6b4a164d3a83cb5addeace3d1f2fa3b'
p1359
sg171
S'f1cd99b83ba78bf3885f75767d47d777'
p1360
sg173
(lp1361
g1295
ag1302
ag1309
ag1316
ag1323
ag1330
ag1337
ag237
asg175
Nsba(ibclass
BBasicBlock
p1362
(dp1363
g12
Nsg13
(lp1364
(ibclass
BInstr
p1365
(dp1366
g2
Nsg17
S'STR             W20, [X0,#0x10]'
p1367
sg19
S'141000b9'
p1368
sg21
Vstr w20, [x0, #0x10]
p1369
sg5
L18446743798837729444L
sg6
Nsg23
S'STR'
p1370
sg25
S'0xffffffc0005cd8a4L'
p1371
sg27
Nsba(ibclass
BInstr
p1372
(dp1373
g2
Nsg17
S'MOV             W0, #1'
p1374
sg19
S'20008052'
p1375
sg21
Vmovz w0, #0x1
p1376
sg5
L18446743798837729448L
sg6
Nsg23
S'MOV'
p1377
sg25
S'0xffffffc0005cd8a8L'
p1378
sg27
Nsba(ibclass
BInstr
p1379
(dp1380
g2
Nsg17
S'MOV             X1, X24'
p1381
sg19
S'e10318aa'
p1382
sg21
Vmov x1, x24
p1383
sg5
L18446743798837729452L
sg6
Nsg23
S'MOV'
p1384
sg25
S'0xffffffc0005cd8acL'
p1385
sg27
Nsba(ibclass
BInstr
p1386
(dp1387
g2
Nsg17
S'ADD             X20, X25, #qseecom@PAGEOFF'
p1388
sg19
S'34833e91'
p1389
sg21
Vadd x20, x25, #0xfa0
p1390
sg5
L18446743798837729456L
sg6
Nsg23
S'ADD'
p1391
sg25
S'0xffffffc0005cd8b0L'
p1392
sg27
Nsba(ibclass
BInstr
p1393
(dp1394
g2
Nsg17
S'MOV             X2, #0x40'
p1395
sg19
S'020880d2'
p1396
sg21
Vmovz x2, #0x40
p1397
sg5
L18446743798837729460L
sg6
Nsg23
S'MOV'
p1398
sg25
S'0xffffffc0005cd8b4L'
p1399
sg27
Nsba(ibclass
BInstr
p1400
(dp1401
g2
Nsg17
S'STR             W0, [X21,#0x14]'
p1402
sg19
S'a01600b9'
p1403
sg21
Vstr w0, [x21, #0x14]
p1404
sg5
L18446743798837729464L
sg6
Nsg23
S'STR'
p1405
sg25
S'0xffffffc0005cd8b8L'
p1406
sg27
Nsba(ibclass
BInstr
p1407
(dp1408
g2
Nsg17
S'ADD             X0, X21, #0x18'
p1409
sg19
S'a0620091'
p1410
sg21
Vadd x0, x21, #0x18
p1411
sg5
L18446743798837729468L
sg6
Nsg23
S'ADD'
p1412
sg25
S'0xffffffc0005cd8bcL'
p1413
sg27
Nsba(ibclass
BInstr
p1414
(dp1415
g2
Nsg17
S'BL              strlcpy'
p1416
sg19
S'5c6df997'
p1417
sg21
Vbl #0xffffffffffe5b570
p1418
sg5
L18446743798837729472L
sg6
Nsg23
S'BL'
p1419
sg25
S'0xffffffc0005cd8c0L'
p1420
sg27
Nsba(ibclass
BInstr
p1421
(dp1422
g2
Nsg17
S'ADD             X24, X20, #0x30'
p1423
sg19
S'98c20091'
p1424
sg21
Vadd x24, x20, #0x30
p1425
sg5
L18446743798837729476L
sg6
Nsg23
S'ADD'
p1426
sg25
S'0xffffffc0005cd8c4L'
p1427
sg27
Nsba(ibclass
BInstr
p1428
(dp1429
g2
Nsg17
S'MOV             X0, X24'
p1430
sg19
S'e00318aa'
p1431
sg21
Vmov x0, x24
p1432
sg5
L18446743798837729480L
sg6
Nsg23
S'MOV'
p1433
sg25
S'0xffffffc0005cd8c8L'
p1434
sg27
Nsba(ibclass
BInstr
p1435
(dp1436
g2
Nsg17
S'BL              _raw_spin_lock_irqsave'
p1437
sg19
S'94c22194'
p1438
sg21
Vbl #0x870a50
p1439
sg5
L18446743798837729484L
sg6
Nsg23
S'BL'
p1440
sg25
S'0xffffffc0005cd8ccL'
p1441
sg27
Nsba(ibclass
BInstr
p1442
(dp1443
g2
Nsg17
S'LDR             X2, [X20,#(qword_FFFFFFC001D08FC8 - 0xFFFFFFC001D08FA0)]'
p1444
sg19
S'821640f9'
p1445
sg21
Vldr x2, [x20, #0x28]
p1446
sg5
L18446743798837729488L
sg6
Nsg23
S'LDR'
p1447
sg25
S'0xffffffc0005cd8d0L'
p1448
sg27
Nsba(ibclass
BInstr
p1449
(dp1450
g2
Nsg17
S'STR             X21, [X20,#(qword_FFFFFFC001D08FC8 - 0xFFFFFFC001D08FA0)]'
p1451
sg19
S'951600f9'
p1452
sg21
Vstr x21, [x20, #0x28]
p1453
sg5
L18446743798837729492L
sg6
Nsg23
S'STR'
p1454
sg25
S'0xffffffc0005cd8d4L'
p1455
sg27
Nsba(ibclass
BInstr
p1456
(dp1457
g2
Nsg17
S'ADD             X20, X20, #0x20'
p1458
sg19
S'94820091'
p1459
sg21
Vadd x20, x20, #0x20
p1460
sg5
L18446743798837729496L
sg6
Nsg23
S'ADD'
p1461
sg25
S'0xffffffc0005cd8d8L'
p1462
sg27
Nsba(ibclass
BInstr
p1463
(dp1464
g2
Nsg17
S'STR             X20, [X21]'
p1465
sg19
S'b40200f9'
p1466
sg21
Vstr x20, [x21]
p1467
sg5
L18446743798837729500L
sg6
Nsg23
S'STR'
p1468
sg25
S'0xffffffc0005cd8dcL'
p1469
sg27
Nsba(ibclass
BInstr
p1470
(dp1471
g2
Nsg17
S'STR             X2, [X21,#8]'
p1472
sg19
S'a20600f9'
p1473
sg21
Vstr x2, [x21, #8]
p1474
sg5
L18446743798837729504L
sg6
Nsg23
S'STR'
p1475
sg25
S'0xffffffc0005cd8e0L'
p1476
sg27
Nsba(ibclass
BInstr
p1477
(dp1478
g2
Nsg17
S'MOV             X1, X0'
p1479
sg19
S'e10300aa'
p1480
sg21
Vmov x1, x0
p1481
sg5
L18446743798837729508L
sg6
Nsg23
S'MOV'
p1482
sg25
S'0xffffffc0005cd8e4L'
p1483
sg27
Nsba(ibclass
BInstr
p1484
(dp1485
g2
Nsg17
S'STR             X21, [X2]'
p1486
sg19
S'550000f9'
p1487
sg21
Vstr x21, [x2]
p1488
sg5
L18446743798837729512L
sg6
Nsg23
S'STR'
p1489
sg25
S'0xffffffc0005cd8e8L'
p1490
sg27
Nsba(ibclass
BInstr
p1491
(dp1492
g2
Nsg17
S'MOV             X0, X24'
p1493
sg19
S'e00318aa'
p1494
sg21
Vmov x0, x24
p1495
sg5
L18446743798837729516L
sg6
Nsg23
S'MOV'
p1496
sg25
S'0xffffffc0005cd8ecL'
p1497
sg27
Nsba(ibclass
BInstr
p1498
(dp1499
g2
Nsg17
S'BL              _raw_spin_unlock_irqrestore'
p1500
sg19
S'dfc22194'
p1501
sg21
Vbl #0x870b7c
p1502
sg5
L18446743798837729520L
sg6
Nsg23
S'BL'
p1503
sg25
S'0xffffffc0005cd8f0L'
p1504
sg27
Nsbasg140
(lp1505
S'STR reg0, mem'
p1506
aS'MOV reg, #1'
p1507
aS'MOV reg, reg4'
p1508
aS'ADD reg0, reg5, #qseecom@PAGEOFF'
p1509
aS'MOV reg, #0x40'
p1510
aS'STR reg, mem'
p1511
aS'ADD reg, reg1, #0x18'
p1512
aS'BL strlcpy'
p1513
aS'ADD reg4, reg0, #0x30'
p1514
aS'MOV reg, reg4'
p1515
aS'BL _raw_spin_lock_irqsave'
p1516
aS'LDR reg, mem'
p1517
aS'STR reg1, mem'
p1518
aS'ADD reg0, reg0, #0x20'
p1519
aS'STR reg0, mem'
p1520
aS'STR reg, mem'
p1521
aS'MOV reg, reg'
p1522
aS'STR reg1, mem'
p1523
aS'MOV reg, reg4'
p1524
aS'BL _raw_spin_unlock_irqrestore'
p1525
asg159
Nsg5
S'0xffffffc0005cd8a4L'
p1526
sg161
(lp1527
S'0xffffffc0005cd864L'
p1528
asg6
Nsg163
(lp1529
S'0xffffffc0005cd8f4L'
p1530
asg167
Nsg168
Nsg169
S'27eb2a075a436101c3cfe7a9b250dce2'
p1531
sg171
S'c3c49527b9ea27fb30dd57b18d101664'
p1532
sg173
(lp1533
g1370
ag1377
ag1384
ag1391
ag1398
ag1405
ag1412
ag1419
ag1426
ag1433
ag1440
ag1447
ag1454
ag1461
ag1468
ag1475
ag1482
ag1489
ag1496
ag1503
asg175
Nsba(ibclass
BBasicBlock
p1534
(dp1535
g12
Nsg13
(lp1536
(ibclass
BInstr
p1537
(dp1538
g2
Nsg17
S'LDR             X1, [X23,#8]'
p1539
sg19
S'e10640f9'
p1540
sg21
Vldr x1, [x23, #8]
p1541
sg5
L18446743798837729524L
sg6
Nsg23
S'LDR'
p1542
sg25
S'0xffffffc0005cd8f4L'
p1543
sg27
Nsba(ibclass
BInstr
p1544
(dp1545
g2
Nsg17
S'MOV             X0, X22'
p1546
sg19
S'e00316aa'
p1547
sg21
Vmov x0, x22
p1548
sg5
L18446743798837729528L
sg6
Nsg23
S'MOV'
p1549
sg25
S'0xffffffc0005cd8f8L'
p1550
sg27
Nsba(ibclass
BInstr
p1551
(dp1552
g2
Nsg17
S'ADDS            X0, X0, #0x44'
p1553
sg19
S'001001b1'
p1554
sg21
Vadds x0, x0, #0x44
p1555
sg5
L18446743798837729532L
sg6
Nsg23
S'ADD'
p1556
sg25
S'0xffffffc0005cd8fcL'
p1557
sg27
Nsba(ibclass
BInstr
p1558
(dp1559
g2
Nsg17
S'CCMP            X0, X1, #2, CC'
p1560
sg19
S'023041fa'
p1561
sg21
Vccmp x0, x1, #2, lo
p1562
sg5
L18446743798837729536L
sg6
Nsg23
S'CCMP'
p1563
sg25
S'0xffffffc0005cd900L'
p1564
sg27
Nsba(ibclass
BInstr
p1565
(dp1566
g2
Nsg17
S'CSET            X2, LS'
p1567
sg19
S'e2879f9a'
p1568
sg21
Vcset x2, ls
p1569
sg5
L18446743798837729540L
sg6
Nsg23
S'CSET'
p1570
sg25
S'0xffffffc0005cd904L'
p1571
sg27
Nsba(ibclass
BInstr
p1572
(dp1573
g2
Nsg17
S'CBNZ            X2, loc_FFFFFFC0005CD92C'
p1574
sg19
S'220100b5'
p1575
sg21
Vcbnz x2, #0x24
p1576
sg5
L18446743798837729544L
sg6
Nsg23
S'CBNZ'
p1577
sg25
S'0xffffffc0005cd908L'
p1578
sg27
Nsbasg140
(lp1579
S'LDR reg, mem'
p1580
aS'MOV reg, reg2'
p1581
aS'ADDS reg, reg, #0x44'
p1582
aS'CCMP reg, reg, #2, CC'
p1583
aS'CSET reg, LS'
p1584
aS'CBNZ reg, func'
p1585
asg159
Nsg5
S'0xffffffc0005cd8f4L'
p1586
sg161
(lp1587
S'0xffffffc0005cd808L'
p1588
aS'0xffffffc0005cd8a4L'
p1589
asg6
Nsg163
(lp1590
S'0xffffffc0005cd90cL'
p1591
aS'0xffffffc0005cd92cL'
p1592
asg167
Nsg168
Nsg169
S'ef32d854c4405ea50b3c279d3e2db59d'
p1593
sg171
S'a7206e6d6b3a119497116d286563d77c'
p1594
sg173
(lp1595
g1542
ag1549
ag1556
ag1563
ag1570
ag1577
asg175
Nsba(ibclass
BBasicBlock
p1596
(dp1597
g12
Nsg13
(lp1598
(ibclass
BInstr
p1599
(dp1600
g2
Nsg17
S'ADRP            X0, #unk_FFFFFFC00135DEBE@PAGE'
p1601
sg19
S'806c0090'
p1602
sg21
Vadrp x0, #0xd90000
p1603
sg5
L18446743798837729548L
sg6
Nsg23
S'ADRP'
p1604
sg25
S'0xffffffc0005cd90cL'
p1605
sg27
Nsba(ibclass
BInstr
p1606
(dp1607
g2
Nsg17
S'ADD             X0, X0, #unk_FFFFFFC00135DEBE@PAGEOFF'
p1608
sg19
S'00f83a91'
p1609
sg21
Vadd x0, x0, #0xebe
p1610
sg5
L18446743798837729552L
sg6
Nsg23
S'ADD'
p1611
sg25
S'0xffffffc0005cd910L'
p1612
sg27
Nsbasg140
(lp1613
S'ADRP reg, #func@PAGE'
p1614
aS'ADD reg, reg, #func@PAGEOFF'
p1615
asg159
Nsg5
S'0xffffffc0005cd90cL'
p1616
sg161
(lp1617
S'0xffffffc0005cd8f4L'
p1618
aS'0xffffffc0005cd92cL'
p1619
asg6
Nsg163
(lp1620
S'0xffffffc0005cd914L'
p1621
asg167
Nsg168
Nsg169
S'4c330fd47d9d30794e360f434bcba16f'
p1622
sg171
S'5d0c12c1c2f0dc35884d116bfd571de9'
p1623
sg173
(lp1624
g1604
ag1611
asg175
Nsba(ibclass
BBasicBlock
p1625
(dp1626
g12
Nsg13
(lp1627
(ibclass
BInstr
p1628
(dp1629
g2
Nsg17
S'ADRP            X1, #__func__.24861@PAGE; "qseecom_unregister_listener"'
p1630
sg19
S'215300b0'
p1631
sg21
Vadrp x1, #0xa65000
p1632
sg5
L18446743798837729556L
sg6
Nsg23
S'ADRP'
p1633
sg25
S'0xffffffc0005cd914L'
p1634
sg27
Nsba(ibclass
BInstr
p1635
(dp1636
g2
Nsg17
S'ADD             X1, X1, #__func__.24861@PAGEOFF; "qseecom_unregister_listener"'
p1637
sg19
S'21200b91'
p1638
sg21
Vadd x1, x1, #0x2c8
p1639
sg5
L18446743798837729560L
sg6
Nsg23
S'ADD'
p1640
sg25
S'0xffffffc0005cd918L'
p1641
sg27
Nsba(ibclass
BInstr
p1642
(dp1643
g2
Nsg17
S'ADD             X1, X1, #0x160'
p1644
sg19
S'21800591'
p1645
sg21
Vadd x1, x1, #0x160
p1646
sg5
L18446743798837729564L
sg6
Nsg23
S'ADD'
p1647
sg25
S'0xffffffc0005cd91cL'
p1648
sg27
Nsba(ibclass
BInstr
p1649
(dp1650
g2
Nsg17
S'BL              printk'
p1651
sg19
S'52842194'
p1652
sg21
Vbl #0x861148
p1653
sg5
L18446743798837729568L
sg6
Nsg23
S'BL'
p1654
sg25
S'0xffffffc0005cd920L'
p1655
sg27
Nsba(ibclass
BInstr
p1656
(dp1657
g2
Nsg17
S'MOV             W0, #0xFFFFFFF2'
p1658
sg19
S'a0018012'
p1659
sg21
Vmovn w0, #0xd
p1660
sg5
L18446743798837729572L
sg6
Nsg23
S'MOV'
p1661
sg25
S'0xffffffc0005cd924L'
p1662
sg27
Nsba(ibclass
BInstr
p1663
(dp1664
g2
Nsg17
S'B               loc_FFFFFFC0005CD94C'
p1665
sg19
S'09000014'
p1666
sg21
Vb #0x24
p1667
sg5
L18446743798837729576L
sg6
Nsg23
g237
sg25
S'0xffffffc0005cd928L'
p1668
sg27
Nsbasg140
(lp1669
S'ADRP reg, #__func__.24861@PAGE'
p1670
aS'ADD reg, reg, #__func__.24861@PAGEOFF'
p1671
aS'ADD reg, reg, #0x160'
p1672
aS'BL printk'
p1673
aS'MOV reg, #0xFFFFFFF2'
p1674
aS'B func'
p1675
asg159
Nsg5
S'0xffffffc0005cd914L'
p1676
sg161
(lp1677
S'0xffffffc0005cd700L'
p1678
aS'0xffffffc0005cd90cL'
p1679
asg6
Nsg163
(lp1680
S'0xffffffc0005cd94cL'
p1681
asg167
Nsg168
Nsg169
S'fe74aaa914ff61a969aa45615523adbb'
p1682
sg171
S'845478e11d3db90056a8bbf82a133b59'
p1683
sg173
(lp1684
g1633
ag1640
ag1647
ag1654
ag1661
ag237
asg175
Nsba(ibclass
BBasicBlock
p1685
(dp1686
g12
Nsg13
(lp1687
(ibclass
BInstr
p1688
(dp1689
g2
Nsg17
S'MOV             X0, X22'
p1690
sg19
S'e00316aa'
p1691
sg21
Vmov x0, x22
p1692
sg5
L18446743798837729580L
sg6
Nsg23
S'MOV'
p1693
sg25
S'0xffffffc0005cd92cL'
p1694
sg27
Nsba(ibclass
BInstr
p1695
(dp1696
g2
Nsg17
S'MOV             X1, X19'
p1697
sg19
S'e10313aa'
p1698
sg21
Vmov x1, x19
p1699
sg5
L18446743798837729584L
sg6
Nsg23
S'MOV'
p1700
sg25
S'0xffffffc0005cd930L'
p1701
sg27
Nsba(ibclass
BInstr
p1702
(dp1703
g2
Nsg17
S'MOV             X2, #0x44'
p1704
sg19
S'820880d2'
p1705
sg21
Vmovz x2, #0x44
p1706
sg5
L18446743798837729588L
sg6
Nsg23
S'MOV'
p1707
sg25
S'0xffffffc0005cd934L'
p1708
sg27
Nsba(ibclass
BInstr
p1709
(dp1710
g2
Nsg17
S'BL              __copy_to_user'
p1711
sg19
S'a649f997'
p1712
sg21
Vbl #0xffffffffffe52698
p1713
sg5
L18446743798837729592L
sg6
Nsg23
S'BL'
p1714
sg25
S'0xffffffc0005cd938L'
p1715
sg27
Nsba(ibclass
BInstr
p1716
(dp1717
g2
Nsg17
S'CBNZ            X0, loc_FFFFFFC0005CD90C'
p1718
sg19
S'80feffb5'
p1719
sg21
Vcbnz x0, #0xffffffffffffffd0
p1720
sg5
L18446743798837729596L
sg6
Nsg23
S'CBNZ'
p1721
sg25
S'0xffffffc0005cd93cL'
p1722
sg27
Nsbasg140
(lp1723
S'MOV reg, reg2'
p1724
aS'MOV reg, reg9'
p1725
aS'MOV reg, #0x44'
p1726
aS'BL __copy_to_user'
p1727
aS'CBNZ reg, func'
p1728
asg159
Nsg5
S'0xffffffc0005cd92cL'
p1729
sg161
(lp1730
S'0xffffffc0005cd8f4L'
p1731
asg6
Nsg163
(lp1732
S'0xffffffc0005cd90cL'
p1733
aS'0xffffffc0005cd940L'
p1734
asg167
Nsg168
Nsg169
S'02d363bfd85f517d1b09c24891234b3a'
p1735
sg171
S'e8d978a9a6dad7fec8d62102e28e68a9'
p1736
sg173
(lp1737
g1693
ag1700
ag1707
ag1714
ag1721
asg175
Nsba(ibclass
BBasicBlock
p1738
(dp1739
g12
Nsg13
(lp1740
(ibclass
BInstr
p1741
(dp1742
g2
Nsg17
S'MOV             W0, #0xFFFFFFEF'
p1743
sg19
S'00028012'
p1744
sg21
Vmovn w0, #0x10
p1745
sg5
L18446743798837729600L
sg6
Nsg23
S'MOV'
p1746
sg25
S'0xffffffc0005cd940L'
p1747
sg27
Nsba(ibclass
BInstr
p1748
(dp1749
g2
Nsg17
S'B               loc_FFFFFFC0005CD94C'
p1750
sg19
S'02000014'
p1751
sg21
Vb #8
p1752
sg5
L18446743798837729604L
sg6
Nsg23
g237
sg25
S'0xffffffc0005cd944L'
p1753
sg27
Nsbasg140
(lp1754
S'MOV reg, #0xFFFFFFEF'
p1755
aS'B func'
p1756
asg159
Nsg5
S'0xffffffc0005cd940L'
p1757
sg161
(lp1758
S'0xffffffc0005cd92cL'
p1759
asg6
Nsg163
(lp1760
S'0xffffffc0005cd94cL'
p1761
asg167
Nsg168
Nsg169
S'b6c4e95ccfe77a95e4cf2019dd3d5574'
p1762
sg171
S'b8a9444fad6bbb79711dc263454401fc'
p1763
sg173
(lp1764
g1746
ag237
asg175
Nsba(ibclass
BBasicBlock
p1765
(dp1766
g12
Nsg13
(lp1767
(ibclass
BInstr
p1768
(dp1769
g2
Nsg17
S'MOV             W0, W21'
p1770
sg19
S'e003152a'
p1771
sg21
Vmov w0, w21
p1772
sg5
L18446743798837729608L
sg6
Nsg23
S'MOV'
p1773
sg25
S'0xffffffc0005cd948L'
p1774
sg27
Nsbasg140
(lp1775
S'MOV reg, reg1'
p1776
asg159
Nsg5
S'0xffffffc0005cd948L'
p1777
sg161
(lp1778
S'0xffffffc0005cd780L'
p1779
asg6
Nsg163
(lp1780
S'0xffffffc0005cd94cL'
p1781
asg167
Nsg168
Nsg169
S'17b32100aef1fc19670be7fd58bc85df'
p1782
sg171
S'755f3b926ac9c3eb9c2b84643c2f496b'
p1783
sg173
(lp1784
g1773
asg175
Nsba(ibclass
BBasicBlock
p1785
(dp1786
g12
Nsg13
(lp1787
(ibclass
BInstr
p1788
(dp1789
g2
Nsg17
S'LDP             X19, X20, [SP,#0x130+var_120]'
p1790
sg19
S'f35341a9'
p1791
sg21
Vldp x19, x20, [sp, #0x10]
p1792
sg5
L18446743798837729612L
sg6
Nsg23
S'LDP'
p1793
sg25
S'0xffffffc0005cd94cL'
p1794
sg27
Nsba(ibclass
BInstr
p1795
(dp1796
g2
Nsg17
S'LDP             X21, X22, [SP,#0x130+var_110]'
p1797
sg19
S'f55b42a9'
p1798
sg21
Vldp x21, x22, [sp, #0x20]
p1799
sg5
L18446743798837729616L
sg6
Nsg23
S'LDP'
p1800
sg25
S'0xffffffc0005cd950L'
p1801
sg27
Nsba(ibclass
BInstr
p1802
(dp1803
g2
Nsg17
S'LDP             X23, X24, [SP,#0x130+var_100]'
p1804
sg19
S'f76343a9'
p1805
sg21
Vldp x23, x24, [sp, #0x30]
p1806
sg5
L18446743798837729620L
sg6
Nsg23
S'LDP'
p1807
sg25
S'0xffffffc0005cd954L'
p1808
sg27
Nsba(ibclass
BInstr
p1809
(dp1810
g2
Nsg17
S'LDP             X25, X26, [SP,#0x130+var_F0]'
p1811
sg19
S'f96b44a9'
p1812
sg21
Vldp x25, x26, [sp, #0x40]
p1813
sg5
L18446743798837729624L
sg6
Nsg23
S'LDP'
p1814
sg25
S'0xffffffc0005cd958L'
p1815
sg27
Nsba(ibclass
BInstr
p1816
(dp1817
g2
Nsg17
S'LDP             X29, X30, [SP+0x130+var_130],#0x140'
p1818
sg19
S'fd7bd4a8'
p1819
sg21
Vldp x29, x30, [sp], #0x140
p1820
sg5
L18446743798837729628L
sg6
Nsg23
S'LDP'
p1821
sg25
S'0xffffffc0005cd95cL'
p1822
sg27
Nsba(ibclass
BInstr
p1823
(dp1824
g2
Nsg17
S'RET'
p1825
sg19
S'c0035fd6'
p1826
sg21
Vret 
p1827
sg5
L18446743798837729632L
sg6
Nsg23
S'RET'
p1828
sg25
S'0xffffffc0005cd960L'
p1829
sg27
Nsbasg140
(lp1830
S'LDP reg9, reg0, mem'
p1831
aS'LDP reg1, reg2, mem'
p1832
aS'LDP reg3, reg4, mem'
p1833
aS'LDP reg5, reg6, mem'
p1834
aS'LDP reg9, reg0, mem,#0x140'
p1835
ag1825
asg159
Nsg5
S'0xffffffc0005cd94cL'
p1836
sg161
(lp1837
S'0xffffffc0005cd760L'
p1838
aS'0xffffffc0005cd884L'
p1839
aS'0xffffffc0005cd914L'
p1840
aS'0xffffffc0005cd940L'
p1841
aS'0xffffffc0005cd948L'
p1842
asg6
Nsg163
(lp1843
sg167
Nsg168
Nsg169
S'be6cb7dbf904825cdfc5591720269ab2'
p1844
sg171
S'0f29c5114a32a652fba0f66c03749931'
p1845
sg173
(lp1846
g1793
ag1800
ag1807
ag1814
ag1821
ag1828
asg175
Nsbasb.