(ibclass
BFunc
p0
(dp1
S'hash'
p2
NsS'name'
p3
S'signal_session_msg_receipt'
p4
sS'start_address'
p5
L18446743798839615500L
sS'flag'
p6
NsS'program'
p7
NsS'bbs'
p8
(lp9
(ibclass
BBasicBlock
p10
(dp11
S'function'
p12
NsS'binstrs'
p13
(lp14
(ibclass
BInstr
p15
(dp16
g2
NsS'disasm'
p17
S'STP             X29, X30, [SP,#-0x10+var_10]!'
p18
sS'bytes'
p19
S'fd7bbea9'
p20
sS'disasm_striped'
p21
Vstp x29, x30, [sp, #-0x20]!
p22
sg5
L18446743798839615500L
sg6
NsS'mnem'
p23
S'STP'
p24
sS'address'
p25
S'0xffffffc00079a00cL'
p26
sS'basicblock'
p27
Nsba(ibclass
BInstr
p28
(dp29
g2
Nsg17
S'MOV             X29, SP'
p30
sg19
S'fd030091'
p31
sg21
Vmov x29, sp
p32
sg5
L18446743798839615504L
sg6
Nsg23
S'MOV'
p33
sg25
S'0xffffffc00079a010L'
p34
sg27
Nsba(ibclass
BInstr
p35
(dp36
g2
Nsg17
S'STR             X19, [SP,#0x10+var_s0]'
p37
sg19
S'f30b00f9'
p38
sg21
Vstr x19, [sp, #0x10]
p39
sg5
L18446743798839615508L
sg6
Nsg23
S'STR'
p40
sg25
S'0xffffffc00079a014L'
p41
sg27
Nsba(ibclass
BInstr
p42
(dp43
g2
Nsg17
S'MOV             W3, W0'
p44
sg19
S'e303002a'
p45
sg21
Vmov w3, w0
p46
sg5
L18446743798839615512L
sg6
Nsg23
S'MOV'
p47
sg25
S'0xffffffc00079a018L'
p48
sg27
Nsba(ibclass
BInstr
p49
(dp50
g2
Nsg17
S'MOV             X2, X1'
p51
sg19
S'e20301aa'
p52
sg21
Vmov x2, x1
p53
sg5
L18446743798839615516L
sg6
Nsg23
S'MOV'
p54
sg25
S'0xffffffc00079a01cL'
p55
sg27
Nsba(ibclass
BInstr
p56
(dp57
g2
Nsg17
S'CBNZ            X1, loc_FFFFFFC00079A060'
p58
sg19
S'010200b5'
p59
sg21
Vcbnz x1, #0x40
p60
sg5
L18446743798839615520L
sg6
Nsg23
S'CBNZ'
p61
sg25
S'0xffffffc00079a020L'
p62
sg27
NsbasS'disasm_list'
p63
(lp64
S'STP reg9, reg0, mem!'
p65
aS'MOV reg9, SP'
p66
aS'STR reg9, mem'
p67
aS'MOV reg, reg'
p68
aS'MOV reg, reg'
p69
aS'CBNZ reg, func'
p70
asS'end_address'
p71
Nsg5
S'0xffffffc00079a00cL'
p72
sS'preds'
p73
(lp74
sg6
NsS'succs'
p75
(lp76
S'0xffffffc00079a024L'
p77
aS'0xffffffc00079a060L'
p78
asS'hash_v3'
p79
NsS'flag_v2'
p80
NsS'hash_v1'
p81
S'c607cb527f02a552059eb8f725812abf'
p82
sS'hash_v2'
p83
S'a9486076e13c260ec6dde8eea11b4055'
p84
sS'mnen_list'
p85
(lp86
g24
ag33
ag40
ag47
ag54
ag61
asS'neighbour_disasm_list'
p87
Nsba(ibclass
BBasicBlock
p88
(dp89
g12
Nsg13
(lp90
(ibclass
BInstr
p91
(dp92
g2
Nsg17
S'ADRP            X0, #qword_FFFFFFC000E458A0@PAGE'
p93
sg19
S'403500f0'
p94
sg21
Vadrp x0, #0x6ab000
p95
sg5
L18446743798839615524L
sg6
Nsg23
S'ADRP'
p96
sg25
S'0xffffffc00079a024L'
p97
sg27
Nsba(ibclass
BInstr
p98
(dp99
g2
Nsg17
S'LDR             X0, [X0,#qword_FFFFFFC000E458A0@PAGEOFF]'
p100
sg19
S'005044f9'
p101
sg21
Vldr x0, [x0, #0x8a0]
p102
sg5
L18446743798839615528L
sg6
Nsg23
S'LDR'
p103
sg25
S'0xffffffc00079a028L'
p104
sg27
Nsba(ibclass
BInstr
p105
(dp106
g2
Nsg17
S'LDR             W0, [X0]'
p107
sg19
S'000040b9'
p108
sg21
Vldr w0, [x0]
p109
sg5
L18446743798839615532L
sg6
Nsg23
S'LDR'
p110
sg25
S'0xffffffc00079a02cL'
p111
sg27
Nsba(ibclass
BInstr
p112
(dp113
g2
Nsg17
S'TBZ             W0, #0, loc_FFFFFFC00079A0C4'
p114
sg19
S'a0040036'
p115
sg21
Vtbz w0, #0, #0x94
p116
sg5
L18446743798839615536L
sg6
Nsg23
S'TBZ'
p117
sg25
S'0xffffffc00079a030L'
p118
sg27
Nsbasg63
(lp119
S'ADRP reg, #func@PAGE'
p120
aS'LDR reg, mem'
p121
aS'LDR reg, mem'
p122
aS'TBZ reg, #0, func'
p123
asg71
Nsg5
S'0xffffffc00079a024L'
p124
sg73
(lp125
S'0xffffffc00079a00cL'
p126
asg6
Nsg75
(lp127
S'0xffffffc00079a034L'
p128
aS'0xffffffc00079a0c4L'
p129
asg79
Nsg80
Nsg81
S'2de94c9e326481f2f467f11acce8dcc9'
p130
sg83
S'f9f7225e2bae36aff04e5d93bafe5e1d'
p131
sg85
(lp132
g96
ag103
ag110
ag117
asg87
Nsba(ibclass
BBasicBlock
p133
(dp134
g12
Nsg13
(lp135
(ibclass
BInstr
p136
(dp137
g2
Nsg17
S'ADRP            X0, #qword_FFFFFFC000E43D48@PAGE'
p138
sg19
S'403500b0'
p139
sg21
Vadrp x0, #0x6a9000
p140
sg5
L18446743798839615540L
sg6
Nsg23
S'ADRP'
p141
sg25
S'0xffffffc00079a034L'
p142
sg27
Nsba(ibclass
BInstr
p143
(dp144
g2
Nsg17
S'LDR             X0, [X0,#qword_FFFFFFC000E43D48@PAGEOFF]'
p145
sg19
S'00a446f9'
p146
sg21
Vldr x0, [x0, #0xd48]
p147
sg5
L18446743798839615544L
sg6
Nsg23
S'LDR'
p148
sg25
S'0xffffffc00079a038L'
p149
sg27
Nsba(ibclass
BInstr
p150
(dp151
g2
Nsg17
S'MOV             W19, #0xFFFFFFEA'
p152
sg19
S'b3028012'
p153
sg21
Vmovn w19, #0x15
p154
sg5
L18446743798839615548L
sg6
Nsg23
S'MOV'
p155
sg25
S'0xffffffc00079a03cL'
p156
sg27
Nsba(ibclass
BInstr
p157
(dp158
g2
Nsg17
S'LDR             W0, [X0]'
p159
sg19
S'000040b9'
p160
sg21
Vldr w0, [x0]
p161
sg5
L18446743798839615552L
sg6
Nsg23
S'LDR'
p162
sg25
S'0xffffffc00079a040L'
p163
sg27
Nsba(ibclass
BInstr
p164
(dp165
g2
Nsg17
S'CBNZ            W0, loc_FFFFFFC00079A0C8'
p166
sg19
S'20040035'
p167
sg21
Vcbnz w0, #0x84
p168
sg5
L18446743798839615556L
sg6
Nsg23
S'CBNZ'
p169
sg25
S'0xffffffc00079a044L'
p170
sg27
Nsbasg63
(lp171
S'ADRP reg, #func@PAGE'
p172
aS'LDR reg, mem'
p173
aS'MOV reg9, #0xFFFFFFEA'
p174
aS'LDR reg, mem'
p175
aS'CBNZ reg, func'
p176
asg71
Nsg5
S'0xffffffc00079a034L'
p177
sg73
(lp178
S'0xffffffc00079a024L'
p179
asg6
Nsg75
(lp180
S'0xffffffc00079a048L'
p181
aS'0xffffffc00079a0c8L'
p182
asg79
Nsg80
Nsg81
S'd80cc6d531f24a5b2d60307977d236c7'
p183
sg83
S'baaaa11d303d94886d47725c6dea0608'
p184
sg85
(lp185
g141
ag148
ag155
ag162
ag169
asg87
Nsba(ibclass
BBasicBlock
p186
(dp187
g12
Nsg13
(lp188
(ibclass
BInstr
p189
(dp190
g2
Nsg17
S'ADRP            X0, #unk_FFFFFFC0013B5F96@PAGE'
p191
sg19
S'c06000f0'
p192
sg21
Vadrp x0, #0xc1b000
p193
sg5
L18446743798839615560L
sg6
Nsg23
S'ADRP'
p194
sg25
S'0xffffffc00079a048L'
p195
sg27
Nsba(ibclass
BInstr
p196
(dp197
g2
Nsg17
S'ADRP            X1, #(aQcomMdssDsi_17+0x1B)@PAGE; "err"'
p198
sg19
S'a15c00b0'
p199
sg21
Vadrp x1, #0xb95000
p200
sg5
L18446743798839615564L
sg6
Nsg23
S'ADRP'
p201
sg25
S'0xffffffc00079a04cL'
p202
sg27
Nsba(ibclass
BInstr
p203
(dp204
g2
Nsg17
S'ADD             X1, X1, #(aQcomMdssDsi_17+0x1B)@PAGEOFF; "err"'
p205
sg19
S'21800091'
p206
sg21
Vadd x1, x1, #0x20
p207
sg5
L18446743798839615568L
sg6
Nsg23
S'ADD'
p208
sg25
S'0xffffffc00079a050L'
p209
sg27
Nsba(ibclass
BInstr
p210
(dp211
g2
Nsg17
S'ADD             X0, X0, #unk_FFFFFFC0013B5F96@PAGEOFF'
p212
sg19
S'00583e91'
p213
sg21
Vadd x0, x0, #0xf96
p214
sg5
L18446743798839615572L
sg6
Nsg23
S'ADD'
p215
sg25
S'0xffffffc00079a054L'
p216
sg27
Nsba(ibclass
BInstr
p217
(dp218
g2
Nsg17
S'BL              printk'
p219
sg19
S'84521a94'
p220
sg21
Vbl #0x694a10
p221
sg5
L18446743798839615576L
sg6
Nsg23
S'BL'
p222
sg25
S'0xffffffc00079a058L'
p223
sg27
Nsba(ibclass
BInstr
p224
(dp225
g2
Nsg17
S'B               loc_FFFFFFC00079A0C8'
p226
sg19
S'1b000014'
p227
sg21
Vb #0x6c
p228
sg5
L18446743798839615580L
sg6
Nsg23
S'B'
p229
sg25
S'0xffffffc00079a05cL'
p230
sg27
Nsbasg63
(lp231
S'ADRP reg, #func@PAGE'
p232
aS'ADRP reg, #(aQcomMdssDsi_17+0x1B)@PAGE'
p233
aS'ADD reg, reg, #(aQcomMdssDsi_17+0x1B)@PAGEOFF'
p234
aS'ADD reg, reg, #func@PAGEOFF'
p235
aS'BL printk'
p236
aS'B func'
p237
asg71
Nsg5
S'0xffffffc00079a048L'
p238
sg73
(lp239
S'0xffffffc00079a034L'
p240
asg6
Nsg75
(lp241
S'0xffffffc00079a0c8L'
p242
asg79
Nsg80
Nsg81
S'b2a3927201f2643e37e238d870ced3c2'
p243
sg83
S'3e167cdac8f124cfbacea29ee5c30eb0'
p244
sg85
(lp245
g194
ag201
ag208
ag215
ag222
ag229
asg87
Nsba(ibclass
BBasicBlock
p246
(dp247
g12
Nsg13
(lp248
(ibclass
BInstr
p249
(dp250
g2
Nsg17
S'SUB             W0, W0, #0xA'
p251
sg19
S'00280051'
p252
sg21
Vsub w0, w0, #0xa
p253
sg5
L18446743798839615584L
sg6
Nsg23
S'SUB'
p254
sg25
S'0xffffffc00079a060L'
p255
sg27
Nsba(ibclass
BInstr
p256
(dp257
g2
Nsg17
S'CMP             W0, #0x11'
p258
sg19
S'1f440071'
p259
sg21
Vcmp w0, #0x11
p260
sg5
L18446743798839615588L
sg6
Nsg23
S'CMP'
p261
sg25
S'0xffffffc00079a064L'
p262
sg27
Nsba(ibclass
BInstr
p263
(dp264
g2
Nsg17
S'B.HI            loc_FFFFFFC00079A084'
p265
sg19
S'e8000054'
p266
sg21
Vb.hi #0x1c
p267
sg5
L18446743798839615592L
sg6
Nsg23
g229
sg25
S'0xffffffc00079a068L'
p268
sg27
Nsbasg63
(lp269
S'SUB reg, reg, #0xA'
p270
aS'CMP reg, #0x11'
p271
aS'B.HI func'
p272
asg71
Nsg5
S'0xffffffc00079a060L'
p273
sg73
(lp274
S'0xffffffc00079a00cL'
p275
asg6
Nsg75
(lp276
S'0xffffffc00079a06cL'
p277
aS'0xffffffc00079a084L'
p278
asg79
Nsg80
Nsg81
S'894b8d3668dd4d870658172bcc02b6af'
p279
sg83
S'43b3bb6caf6d3a24d863e0ac7b03fcca'
p280
sg85
(lp281
g254
ag261
ag229
asg87
Nsba(ibclass
BBasicBlock
p282
(dp283
g12
Nsg13
(lp284
(ibclass
BInstr
p285
(dp286
g2
Nsg17
S'UBFM            X0, X0, #0x3B, #0x1F'
p287
sg19
S'007c7bd3'
p288
sg21
Vubfiz x0, x0, #5, #0x20
p289
sg5
L18446743798839615596L
sg6
Nsg23
S'UBFM'
p290
sg25
S'0xffffffc00079a06cL'
p291
sg27
Nsba(ibclass
BInstr
p292
(dp293
g2
Nsg17
S'ADD             X0, X1, X0'
p294
sg19
S'2000008b'
p295
sg21
Vadd x0, x1, x0
p296
sg5
L18446743798839615600L
sg6
Nsg23
S'ADD'
p297
sg25
S'0xffffffc00079a070L'
p298
sg27
Nsba(ibclass
BInstr
p299
(dp300
g2
Nsg17
S'ADD             X0, X0, #0xA38'
p301
sg19
S'00e02891'
p302
sg21
Vadd x0, x0, #0xa38
p303
sg5
L18446743798839615604L
sg6
Nsg23
S'ADD'
p304
sg25
S'0xffffffc00079a074L'
p305
sg27
Nsba(ibclass
BInstr
p306
(dp307
g2
Nsg17
S'BL              complete'
p308
sg19
S'63ccea97'
p309
sg21
Vbl #0xffffffffffab318c
p310
sg5
L18446743798839615608L
sg6
Nsg23
S'BL'
p311
sg25
S'0xffffffc00079a078L'
p312
sg27
Nsba(ibclass
BInstr
p313
(dp314
g2
Nsg17
S'MOV             W19, #0'
p315
sg19
S'13008052'
p316
sg21
Vmovz w19, #0
p317
sg5
L18446743798839615612L
sg6
Nsg23
S'MOV'
p318
sg25
S'0xffffffc00079a07cL'
p319
sg27
Nsba(ibclass
BInstr
p320
(dp321
g2
Nsg17
S'B               loc_FFFFFFC00079A0C8'
p322
sg19
S'12000014'
p323
sg21
Vb #0x48
p324
sg5
L18446743798839615616L
sg6
Nsg23
g229
sg25
S'0xffffffc00079a080L'
p325
sg27
Nsbasg63
(lp326
S'UBFM reg, reg, #0x3B, #0x1F'
p327
aS'ADD reg, reg, reg'
p328
aS'ADD reg, reg, #0xA38'
p329
aS'BL complete'
p330
aS'MOV reg9, #0'
p331
aS'B func'
p332
asg71
Nsg5
S'0xffffffc00079a06cL'
p333
sg73
(lp334
S'0xffffffc00079a060L'
p335
asg6
Nsg75
(lp336
S'0xffffffc00079a0c8L'
p337
asg79
Nsg80
Nsg81
S'ba06807e6cd81c2f335a8a4171f34441'
p338
sg83
S'ca287a77cce60c4bb99edf88a50dea04'
p339
sg85
(lp340
g290
ag297
ag304
ag311
ag318
ag229
asg87
Nsba(ibclass
BBasicBlock
p341
(dp342
g12
Nsg13
(lp343
(ibclass
BInstr
p344
(dp345
g2
Nsg17
S'ADRP            X0, #qword_FFFFFFC000E458A0@PAGE'
p346
sg19
S'403500f0'
p347
sg21
Vadrp x0, #0x6ab000
p348
sg5
L18446743798839615620L
sg6
Nsg23
S'ADRP'
p349
sg25
S'0xffffffc00079a084L'
p350
sg27
Nsba(ibclass
BInstr
p351
(dp352
g2
Nsg17
S'LDR             X0, [X0,#qword_FFFFFFC000E458A0@PAGEOFF]'
p353
sg19
S'005044f9'
p354
sg21
Vldr x0, [x0, #0x8a0]
p355
sg5
L18446743798839615624L
sg6
Nsg23
S'LDR'
p356
sg25
S'0xffffffc00079a088L'
p357
sg27
Nsba(ibclass
BInstr
p358
(dp359
g2
Nsg17
S'LDR             W0, [X0]'
p360
sg19
S'000040b9'
p361
sg21
Vldr w0, [x0]
p362
sg5
L18446743798839615628L
sg6
Nsg23
S'LDR'
p363
sg25
S'0xffffffc00079a08cL'
p364
sg27
Nsba(ibclass
BInstr
p365
(dp366
g2
Nsg17
S'TBZ             W0, #0, loc_FFFFFFC00079A0C4'
p367
sg19
S'a0010036'
p368
sg21
Vtbz w0, #0, #0x34
p369
sg5
L18446743798839615632L
sg6
Nsg23
S'TBZ'
p370
sg25
S'0xffffffc00079a090L'
p371
sg27
Nsbasg63
(lp372
S'ADRP reg, #func@PAGE'
p373
aS'LDR reg, mem'
p374
aS'LDR reg, mem'
p375
aS'TBZ reg, #0, func'
p376
asg71
Nsg5
S'0xffffffc00079a084L'
p377
sg73
(lp378
S'0xffffffc00079a060L'
p379
asg6
Nsg75
(lp380
S'0xffffffc00079a094L'
p381
aS'0xffffffc00079a0c4L'
p382
asg79
Nsg80
Nsg81
S'2de94c9e326481f2f467f11acce8dcc9'
p383
sg83
S'f9f7225e2bae36aff04e5d93bafe5e1d'
p384
sg85
(lp385
g349
ag356
ag363
ag370
asg87
Nsba(ibclass
BBasicBlock
p386
(dp387
g12
Nsg13
(lp388
(ibclass
BInstr
p389
(dp390
g2
Nsg17
S'ADRP            X0, #qword_FFFFFFC000E43D48@PAGE'
p391
sg19
S'403500b0'
p392
sg21
Vadrp x0, #0x6a9000
p393
sg5
L18446743798839615636L
sg6
Nsg23
S'ADRP'
p394
sg25
S'0xffffffc00079a094L'
p395
sg27
Nsba(ibclass
BInstr
p396
(dp397
g2
Nsg17
S'LDR             X0, [X0,#qword_FFFFFFC000E43D48@PAGEOFF]'
p398
sg19
S'00a446f9'
p399
sg21
Vldr x0, [x0, #0xd48]
p400
sg5
L18446743798839615640L
sg6
Nsg23
S'LDR'
p401
sg25
S'0xffffffc00079a098L'
p402
sg27
Nsba(ibclass
BInstr
p403
(dp404
g2
Nsg17
S'MOV             W19, #0xFFFFFFEA'
p405
sg19
S'b3028012'
p406
sg21
Vmovn w19, #0x15
p407
sg5
L18446743798839615644L
sg6
Nsg23
S'MOV'
p408
sg25
S'0xffffffc00079a09cL'
p409
sg27
Nsba(ibclass
BInstr
p410
(dp411
g2
Nsg17
S'LDR             W0, [X0]'
p412
sg19
S'000040b9'
p413
sg21
Vldr w0, [x0]
p414
sg5
L18446743798839615648L
sg6
Nsg23
S'LDR'
p415
sg25
S'0xffffffc00079a0a0L'
p416
sg27
Nsba(ibclass
BInstr
p417
(dp418
g2
Nsg17
S'CBNZ            W0, loc_FFFFFFC00079A0C8'
p419
sg19
S'20010035'
p420
sg21
Vcbnz w0, #0x24
p421
sg5
L18446743798839615652L
sg6
Nsg23
S'CBNZ'
p422
sg25
S'0xffffffc00079a0a4L'
p423
sg27
Nsbasg63
(lp424
S'ADRP reg, #func@PAGE'
p425
aS'LDR reg, mem'
p426
aS'MOV reg9, #0xFFFFFFEA'
p427
aS'LDR reg, mem'
p428
aS'CBNZ reg, func'
p429
asg71
Nsg5
S'0xffffffc00079a094L'
p430
sg73
(lp431
S'0xffffffc00079a084L'
p432
asg6
Nsg75
(lp433
S'0xffffffc00079a0a8L'
p434
aS'0xffffffc00079a0c8L'
p435
asg79
Nsg80
Nsg81
S'd80cc6d531f24a5b2d60307977d236c7'
p436
sg83
S'baaaa11d303d94886d47725c6dea0608'
p437
sg85
(lp438
g394
ag401
ag408
ag415
ag422
asg87
Nsba(ibclass
BBasicBlock
p439
(dp440
g12
Nsg13
(lp441
(ibclass
BInstr
p442
(dp443
g2
Nsg17
S'ADRP            X0, #unk_FFFFFFC0013B5FC0@PAGE'
p444
sg19
S'c06000f0'
p445
sg21
Vadrp x0, #0xc1b000
p446
sg5
L18446743798839615656L
sg6
Nsg23
S'ADRP'
p447
sg25
S'0xffffffc00079a0a8L'
p448
sg27
Nsba(ibclass
BInstr
p449
(dp450
g2
Nsg17
S'ADRP            X1, #(aQcomMdssDsi_17+0x1B)@PAGE; "err"'
p451
sg19
S'a15c00b0'
p452
sg21
Vadrp x1, #0xb95000
p453
sg5
L18446743798839615660L
sg6
Nsg23
S'ADRP'
p454
sg25
S'0xffffffc00079a0acL'
p455
sg27
Nsba(ibclass
BInstr
p456
(dp457
g2
Nsg17
S'ADD             X1, X1, #(aQcomMdssDsi_17+0x1B)@PAGEOFF; "err"'
p458
sg19
S'21800091'
p459
sg21
Vadd x1, x1, #0x20
p460
sg5
L18446743798839615664L
sg6
Nsg23
S'ADD'
p461
sg25
S'0xffffffc00079a0b0L'
p462
sg27
Nsba(ibclass
BInstr
p463
(dp464
g2
Nsg17
S'MOV             W2, W3'
p465
sg19
S'e203032a'
p466
sg21
Vmov w2, w3
p467
sg5
L18446743798839615668L
sg6
Nsg23
S'MOV'
p468
sg25
S'0xffffffc00079a0b4L'
p469
sg27
Nsba(ibclass
BInstr
p470
(dp471
g2
Nsg17
S'ADD             X0, X0, #unk_FFFFFFC0013B5FC0@PAGEOFF'
p472
sg19
S'00003f91'
p473
sg21
Vadd x0, x0, #0xfc0
p474
sg5
L18446743798839615672L
sg6
Nsg23
S'ADD'
p475
sg25
S'0xffffffc00079a0b8L'
p476
sg27
Nsba(ibclass
BInstr
p477
(dp478
g2
Nsg17
S'BL              printk'
p479
sg19
S'6b521a94'
p480
sg21
Vbl #0x6949ac
p481
sg5
L18446743798839615676L
sg6
Nsg23
S'BL'
p482
sg25
S'0xffffffc00079a0bcL'
p483
sg27
Nsba(ibclass
BInstr
p484
(dp485
g2
Nsg17
S'B               loc_FFFFFFC00079A0C8'
p486
sg19
S'02000014'
p487
sg21
Vb #8
p488
sg5
L18446743798839615680L
sg6
Nsg23
g229
sg25
S'0xffffffc00079a0c0L'
p489
sg27
Nsbasg63
(lp490
S'ADRP reg, #func@PAGE'
p491
aS'ADRP reg, #(aQcomMdssDsi_17+0x1B)@PAGE'
p492
aS'ADD reg, reg, #(aQcomMdssDsi_17+0x1B)@PAGEOFF'
p493
aS'MOV reg, reg'
p494
aS'ADD reg, reg, #func@PAGEOFF'
p495
aS'BL printk'
p496
aS'B func'
p497
asg71
Nsg5
S'0xffffffc00079a0a8L'
p498
sg73
(lp499
S'0xffffffc00079a094L'
p500
asg6
Nsg75
(lp501
S'0xffffffc00079a0c8L'
p502
asg79
Nsg80
Nsg81
S'ff7f44466e74267aa9d96fda41da35ba'
p503
sg83
S'e79c40bf9db2a6001325df04a3b7d820'
p504
sg85
(lp505
g447
ag454
ag461
ag468
ag475
ag482
ag229
asg87
Nsba(ibclass
BBasicBlock
p506
(dp507
g12
Nsg13
(lp508
(ibclass
BInstr
p509
(dp510
g2
Nsg17
S'MOV             W19, #0xFFFFFFEA'
p511
sg19
S'b3028012'
p512
sg21
Vmovn w19, #0x15
p513
sg5
L18446743798839615684L
sg6
Nsg23
S'MOV'
p514
sg25
S'0xffffffc00079a0c4L'
p515
sg27
Nsbasg63
(lp516
S'MOV reg9, #0xFFFFFFEA'
p517
asg71
Nsg5
S'0xffffffc00079a0c4L'
p518
sg73
(lp519
S'0xffffffc00079a024L'
p520
aS'0xffffffc00079a084L'
p521
asg6
Nsg75
(lp522
S'0xffffffc00079a0c8L'
p523
asg79
Nsg80
Nsg81
S'17b32100aef1fc19670be7fd58bc85df'
p524
sg83
S'b3606159d658f642fff4e1852538bd21'
p525
sg85
(lp526
g514
asg87
Nsba(ibclass
BBasicBlock
p527
(dp528
g12
Nsg13
(lp529
(ibclass
BInstr
p530
(dp531
g2
Nsg17
S'MOV             W0, W19'
p532
sg19
S'e003132a'
p533
sg21
Vmov w0, w19
p534
sg5
L18446743798839615688L
sg6
Nsg23
S'MOV'
p535
sg25
S'0xffffffc00079a0c8L'
p536
sg27
Nsba(ibclass
BInstr
p537
(dp538
g2
Nsg17
S'LDR             X19, [SP,#0x10+var_s0]'
p539
sg19
S'f30b40f9'
p540
sg21
Vldr x19, [sp, #0x10]
p541
sg5
L18446743798839615692L
sg6
Nsg23
S'LDR'
p542
sg25
S'0xffffffc00079a0ccL'
p543
sg27
Nsba(ibclass
BInstr
p544
(dp545
g2
Nsg17
S'LDP             X29, X30, [SP+0x10+var_10],#0x20'
p546
sg19
S'fd7bc2a8'
p547
sg21
Vldp x29, x30, [sp], #0x20
p548
sg5
L18446743798839615696L
sg6
Nsg23
S'LDP'
p549
sg25
S'0xffffffc00079a0d0L'
p550
sg27
Nsba(ibclass
BInstr
p551
(dp552
g2
Nsg17
S'RET'
p553
sg19
S'c0035fd6'
p554
sg21
Vret 
p555
sg5
L18446743798839615700L
sg6
Nsg23
S'RET'
p556
sg25
S'0xffffffc00079a0d4L'
p557
sg27
Nsbasg63
(lp558
S'MOV reg, reg9'
p559
aS'LDR reg9, mem'
p560
aS'LDP reg9, reg0, mem,#0x20'
p561
ag553
asg71
Nsg5
S'0xffffffc00079a0c8L'
p562
sg73
(lp563
S'0xffffffc00079a034L'
p564
aS'0xffffffc00079a048L'
p565
aS'0xffffffc00079a06cL'
p566
aS'0xffffffc00079a094L'
p567
aS'0xffffffc00079a0a8L'
p568
aS'0xffffffc00079a0c4L'
p569
asg6
Nsg75
(lp570
sg79
Nsg80
Nsg81
S'700b6007ea89efb2d19f65eecdfbdc66'
p571
sg83
S'2540ec61573c55ff75133ef1ef4cbd07'
p572
sg85
(lp573
g535
ag542
ag549
ag556
asg87
Nsbasb.