(ibclass
BFunc
p0
(dp1
S'hash'
p2
NsS'name'
p3
S'snd_timer_user_release'
p4
sS'start_address'
p5
L18446743798843910452L
sS'flag'
p6
NsS'program'
p7
NsS'bbs'
p8
(lp9
(ibclass
BBasicBlock
p10
(dp11
S'function'
p12
NsS'binstrs'
p13
(lp14
(ibclass
BInstr
p15
(dp16
g2
NsS'disasm'
p17
S'STP             X29, X30, [SP,#-0x10+var_10]!'
p18
sS'bytes'
p19
S'fd7bbea9'
p20
sS'disasm_striped'
p21
Vstp x29, x30, [sp, #-0x20]!
p22
sg5
L18446743798843910452L
sg6
NsS'mnem'
p23
S'STP'
p24
sS'address'
p25
S'0xffffffc000bb2934L'
p26
sS'basicblock'
p27
Nsba(ibclass
BInstr
p28
(dp29
g2
Nsg17
S'MOV             X29, SP'
p30
sg19
S'fd030091'
p31
sg21
Vmov x29, sp
p32
sg5
L18446743798843910456L
sg6
Nsg23
S'MOV'
p33
sg25
S'0xffffffc000bb2938L'
p34
sg27
Nsba(ibclass
BInstr
p35
(dp36
g2
Nsg17
S'STR             X19, [SP,#0x10+var_s0]'
p37
sg19
S'f30b00f9'
p38
sg21
Vstr x19, [sp, #0x10]
p39
sg5
L18446743798843910460L
sg6
Nsg23
S'STR'
p40
sg25
S'0xffffffc000bb293cL'
p41
sg27
Nsba(ibclass
BInstr
p42
(dp43
g2
Nsg17
S'LDR             X19, [X1,#0xA8]'
p44
sg19
S'335440f9'
p45
sg21
Vldr x19, [x1, #0xa8]
p46
sg5
L18446743798843910464L
sg6
Nsg23
S'LDR'
p47
sg25
S'0xffffffc000bb2940L'
p48
sg27
Nsba(ibclass
BInstr
p49
(dp50
g2
Nsg17
S'CBZ             X19, loc_FFFFFFC000BB2970'
p51
sg19
S'730100b4'
p52
sg21
Vcbz x19, #0x2c
p53
sg5
L18446743798843910468L
sg6
Nsg23
S'CBZ'
p54
sg25
S'0xffffffc000bb2944L'
p55
sg27
NsbasS'disasm_list'
p56
(lp57
S'STP reg9, reg0, mem!'
p58
aS'MOV reg9, SP'
p59
aS'STR reg9, mem'
p60
aS'LDR reg9, mem'
p61
aS'CBZ reg9, func'
p62
asS'end_address'
p63
Nsg5
S'0xffffffc000bb2934L'
p64
sS'preds'
p65
(lp66
sg6
NsS'succs'
p67
(lp68
S'0xffffffc000bb2948L'
p69
aS'0xffffffc000bb2970L'
p70
asS'hash_v3'
p71
NsS'flag_v2'
p72
NsS'hash_v1'
p73
S'4c8e3addcc654f60779fdc1527a543f7'
p74
sS'hash_v2'
p75
S'5a19eb3be4dc963d5b0f765c3a529b0f'
p76
sS'mnen_list'
p77
(lp78
g24
ag33
ag40
ag47
ag54
asS'neighbour_disasm_list'
p79
Nsba(ibclass
BBasicBlock
p80
(dp81
g12
Nsg13
(lp82
(ibclass
BInstr
p83
(dp84
g2
Nsg17
S'STR             XZR, [X1,#0xA8]'
p85
sg19
S'3f5400f9'
p86
sg21
Vstr xzr, [x1, #0xa8]
p87
sg5
L18446743798843910472L
sg6
Nsg23
S'STR'
p88
sg25
S'0xffffffc000bb2948L'
p89
sg27
Nsba(ibclass
BInstr
p90
(dp91
g2
Nsg17
S'LDR             X0, [X19]'
p92
sg19
S'600240f9'
p93
sg21
Vldr x0, [x19]
p94
sg5
L18446743798843910476L
sg6
Nsg23
S'LDR'
p95
sg25
S'0xffffffc000bb294cL'
p96
sg27
Nsba(ibclass
BInstr
p97
(dp98
g2
Nsg17
S'CBZ             X0, loc_FFFFFFC000BB2958'
p99
sg19
S'400000b4'
p100
sg21
Vcbz x0, #8
p101
sg5
L18446743798843910480L
sg6
Nsg23
S'CBZ'
p102
sg25
S'0xffffffc000bb2950L'
p103
sg27
Nsbasg56
(lp104
S'STR XZR, mem'
p105
aS'LDR reg, mem'
p106
aS'CBZ reg, func'
p107
asg63
Nsg5
S'0xffffffc000bb2948L'
p108
sg65
(lp109
S'0xffffffc000bb2934L'
p110
asg6
Nsg67
(lp111
S'0xffffffc000bb2954L'
p112
aS'0xffffffc000bb2958L'
p113
asg71
Nsg72
Nsg73
S'1b3add813ade02dad223b66a6342fe5d'
p114
sg75
S'8af802bb96b518bbc7c16b1aaf1b5b97'
p115
sg77
(lp116
g88
ag95
ag102
asg79
Nsba(ibclass
BBasicBlock
p117
(dp118
g12
Nsg13
(lp119
(ibclass
BInstr
p120
(dp121
g2
Nsg17
S'BL              snd_timer_close'
p122
sg19
S'75ffff97'
p123
sg21
Vbl #0xfffffffffffffdd4
p124
sg5
L18446743798843910484L
sg6
Nsg23
S'BL'
p125
sg25
S'0xffffffc000bb2954L'
p126
sg27
Nsbasg56
(lp127
S'BL snd_timer_close'
p128
asg63
Nsg5
S'0xffffffc000bb2954L'
p129
sg65
(lp130
S'0xffffffc000bb2948L'
p131
asg6
Nsg67
(lp132
S'0xffffffc000bb2958L'
p133
asg71
Nsg72
Nsg73
S'a6f5350f5a2b25a96d66757f761ce65c'
p134
sg75
S'0856bc85912ddcd2d7e5702dcb2113a1'
p135
sg77
(lp136
g125
asg79
Nsba(ibclass
BBasicBlock
p137
(dp138
g12
Nsg13
(lp139
(ibclass
BInstr
p140
(dp141
g2
Nsg17
S'LDR             X0, [X19,#0x30]'
p142
sg19
S'601a40f9'
p143
sg21
Vldr x0, [x19, #0x30]
p144
sg5
L18446743798843910488L
sg6
Nsg23
S'LDR'
p145
sg25
S'0xffffffc000bb2958L'
p146
sg27
Nsba(ibclass
BInstr
p147
(dp148
g2
Nsg17
S'BL              kfree'
p149
sg19
S'65f9dc97'
p150
sg21
Vbl #0xffffffffff73e594
p151
sg5
L18446743798843910492L
sg6
Nsg23
S'BL'
p152
sg25
S'0xffffffc000bb295cL'
p153
sg27
Nsba(ibclass
BInstr
p154
(dp155
g2
Nsg17
S'LDR             X0, [X19,#0x38]'
p156
sg19
S'601e40f9'
p157
sg21
Vldr x0, [x19, #0x38]
p158
sg5
L18446743798843910496L
sg6
Nsg23
S'LDR'
p159
sg25
S'0xffffffc000bb2960L'
p160
sg27
Nsba(ibclass
BInstr
p161
(dp162
g2
Nsg17
S'BL              kfree'
p163
sg19
S'63f9dc97'
p164
sg21
Vbl #0xffffffffff73e58c
p165
sg5
L18446743798843910500L
sg6
Nsg23
S'BL'
p166
sg25
S'0xffffffc000bb2964L'
p167
sg27
Nsba(ibclass
BInstr
p168
(dp169
g2
Nsg17
S'MOV             X0, X19'
p170
sg19
S'e00313aa'
p171
sg21
Vmov x0, x19
p172
sg5
L18446743798843910504L
sg6
Nsg23
S'MOV'
p173
sg25
S'0xffffffc000bb2968L'
p174
sg27
Nsba(ibclass
BInstr
p175
(dp176
g2
Nsg17
S'BL              kfree'
p177
sg19
S'61f9dc97'
p178
sg21
Vbl #0xffffffffff73e584
p179
sg5
L18446743798843910508L
sg6
Nsg23
S'BL'
p180
sg25
S'0xffffffc000bb296cL'
p181
sg27
Nsbasg56
(lp182
S'LDR reg, mem'
p183
aS'BL kfree'
p184
aS'LDR reg, mem'
p185
aS'BL kfree'
p186
aS'MOV reg, reg9'
p187
aS'BL kfree'
p188
asg63
Nsg5
S'0xffffffc000bb2958L'
p189
sg65
(lp190
S'0xffffffc000bb2948L'
p191
aS'0xffffffc000bb2954L'
p192
asg6
Nsg67
(lp193
S'0xffffffc000bb2970L'
p194
asg71
Nsg72
Nsg73
S'256a7aabd04f3226acfeca02f6818981'
p195
sg75
S'55164f243bbb15283b96fffd82540905'
p196
sg77
(lp197
g145
ag152
ag159
ag166
ag173
ag180
asg79
Nsba(ibclass
BBasicBlock
p198
(dp199
g12
Nsg13
(lp200
(ibclass
BInstr
p201
(dp202
g2
Nsg17
S'MOV             W0, #0'
p203
sg19
S'00008052'
p204
sg21
Vmovz w0, #0
p205
sg5
L18446743798843910512L
sg6
Nsg23
S'MOV'
p206
sg25
S'0xffffffc000bb2970L'
p207
sg27
Nsba(ibclass
BInstr
p208
(dp209
g2
Nsg17
S'LDR             X19, [SP,#0x10+var_s0]'
p210
sg19
S'f30b40f9'
p211
sg21
Vldr x19, [sp, #0x10]
p212
sg5
L18446743798843910516L
sg6
Nsg23
S'LDR'
p213
sg25
S'0xffffffc000bb2974L'
p214
sg27
Nsba(ibclass
BInstr
p215
(dp216
g2
Nsg17
S'LDP             X29, X30, [SP+0x10+var_10],#0x20'
p217
sg19
S'fd7bc2a8'
p218
sg21
Vldp x29, x30, [sp], #0x20
p219
sg5
L18446743798843910520L
sg6
Nsg23
S'LDP'
p220
sg25
S'0xffffffc000bb2978L'
p221
sg27
Nsba(ibclass
BInstr
p222
(dp223
g2
Nsg17
S'RET'
p224
sg19
S'c0035fd6'
p225
sg21
Vret 
p226
sg5
L18446743798843910524L
sg6
Nsg23
S'RET'
p227
sg25
S'0xffffffc000bb297cL'
p228
sg27
Nsbasg56
(lp229
S'MOV reg, #0'
p230
aS'LDR reg9, mem'
p231
aS'LDP reg9, reg0, mem,#0x20'
p232
ag224
asg63
Nsg5
S'0xffffffc000bb2970L'
p233
sg65
(lp234
S'0xffffffc000bb2934L'
p235
aS'0xffffffc000bb2958L'
p236
asg6
Nsg67
(lp237
sg71
Nsg72
Nsg73
S'700b6007ea89efb2d19f65eecdfbdc66'
p238
sg75
S'a1c03c47f4ca34eb3d5288dab16c2cac'
p239
sg77
(lp240
g206
ag213
ag220
ag227
asg79
Nsbasb.