(ibclass
BFunc
p0
(dp1
S'hash'
p2
NsS'name'
p3
S'snd_timer_user_open'
p4
sS'start_address'
p5
L18446743798843907308L
sS'flag'
p6
NsS'program'
p7
NsS'bbs'
p8
(lp9
(ibclass
BBasicBlock
p10
(dp11
S'function'
p12
NsS'binstrs'
p13
(lp14
(ibclass
BInstr
p15
(dp16
g2
NsS'disasm'
p17
S'STP             X29, X30, [SP,#-0x10+var_20]!'
p18
sS'bytes'
p19
S'fd7bbda9'
p20
sS'disasm_striped'
p21
Vstp x29, x30, [sp, #-0x30]!
p22
sg5
L18446743798843907308L
sg6
NsS'mnem'
p23
S'STP'
p24
sS'address'
p25
S'0xffffffc000bb1cecL'
p26
sS'basicblock'
p27
Nsba(ibclass
BInstr
p28
(dp29
g2
Nsg17
S'MOV             X29, SP'
p30
sg19
S'fd030091'
p31
sg21
Vmov x29, sp
p32
sg5
L18446743798843907312L
sg6
Nsg23
S'MOV'
p33
sg25
S'0xffffffc000bb1cf0L'
p34
sg27
Nsba(ibclass
BInstr
p35
(dp36
g2
Nsg17
S'STP             X21, X22, [SP,#0x20+var_s0]'
p37
sg19
S'f55b02a9'
p38
sg21
Vstp x21, x22, [sp, #0x20]
p39
sg5
L18446743798843907316L
sg6
Nsg23
S'STP'
p40
sg25
S'0xffffffc000bb1cf4L'
p41
sg27
Nsba(ibclass
BInstr
p42
(dp43
g2
Nsg17
S'STP             X19, X20, [SP,#0x20+var_10]'
p44
sg19
S'f35301a9'
p45
sg21
Vstp x19, x20, [sp, #0x10]
p46
sg5
L18446743798843907320L
sg6
Nsg23
S'STP'
p47
sg25
S'0xffffffc000bb1cf8L'
p48
sg27
Nsba(ibclass
BInstr
p49
(dp50
g2
Nsg17
S'MOV             X22, X1'
p51
sg19
S'f60301aa'
p52
sg21
Vmov x22, x1
p53
sg5
L18446743798843907324L
sg6
Nsg23
S'MOV'
p54
sg25
S'0xffffffc000bb1cfcL'
p55
sg27
Nsba(ibclass
BInstr
p56
(dp57
g2
Nsg17
S'BL              nonseekable_open'
p58
sg19
S'3910dd97'
p59
sg21
Vbl #0xffffffffff7440e4
p60
sg5
L18446743798843907328L
sg6
Nsg23
S'BL'
p61
sg25
S'0xffffffc000bb1d00L'
p62
sg27
Nsba(ibclass
BInstr
p63
(dp64
g2
Nsg17
S'TBNZ            W0, #0x1F, loc_FFFFFFC000BB1DA8'
p65
sg19
S'2005f837'
p66
sg21
Vtbnz w0, #0x1f, #0xa4
p67
sg5
L18446743798843907332L
sg6
Nsg23
S'TBNZ'
p68
sg25
S'0xffffffc000bb1d04L'
p69
sg27
NsbasS'disasm_list'
p70
(lp71
S'STP reg9, reg0, mem!'
p72
aS'MOV reg9, SP'
p73
aS'STP reg1, reg2, mem'
p74
aS'STP reg9, reg0, mem'
p75
aS'MOV reg2, reg'
p76
aS'BL nonseekable_open'
p77
aS'TBNZ reg, #0x1F, func'
p78
asS'end_address'
p79
Nsg5
S'0xffffffc000bb1cecL'
p80
sS'preds'
p81
(lp82
sg6
NsS'succs'
p83
(lp84
S'0xffffffc000bb1d08L'
p85
aS'0xffffffc000bb1da8L'
p86
asS'hash_v3'
p87
NsS'flag_v2'
p88
NsS'hash_v1'
p89
S'b9197e81be14db2ec33e5a5769ac4090'
p90
sS'hash_v2'
p91
S'cb88c4aefda236921fc98b68feebdf56'
p92
sS'mnen_list'
p93
(lp94
g24
ag33
ag40
ag47
ag54
ag61
ag68
asS'neighbour_disasm_list'
p95
Nsba(ibclass
BBasicBlock
p96
(dp97
g12
Nsg13
(lp98
(ibclass
BInstr
p99
(dp100
g2
Nsg17
S'ADRP            X20, #qword_FFFFFFC000E445F0@PAGE'
p101
sg19
S'941400f0'
p102
sg21
Vadrp x20, #0x293000
p103
sg5
L18446743798843907336L
sg6
Nsg23
S'ADRP'
p104
sg25
S'0xffffffc000bb1d08L'
p105
sg27
Nsba(ibclass
BInstr
p106
(dp107
g2
Nsg17
S'LDR             X20, [X20,#qword_FFFFFFC000E445F0@PAGEOFF]'
p108
sg19
S'94fa42f9'
p109
sg21
Vldr x20, [x20, #0x5f0]
p110
sg5
L18446743798843907340L
sg6
Nsg23
S'LDR'
p111
sg25
S'0xffffffc000bb1d0cL'
p112
sg27
Nsba(ibclass
BInstr
p113
(dp114
g2
Nsg17
S'MOV             W1, #0x80D0'
p115
sg19
S'011a9052'
p116
sg21
Vmovz w1, #0x80d0
p117
sg5
L18446743798843907344L
sg6
Nsg23
S'MOV'
p118
sg25
S'0xffffffc000bb1d10L'
p119
sg27
Nsba(ibclass
BInstr
p120
(dp121
g2
Nsg17
S'LDR             X0, [X20,#0x10]'
p122
sg19
S'800a40f9'
p123
sg21
Vldr x0, [x20, #0x10]
p124
sg5
L18446743798843907348L
sg6
Nsg23
S'LDR'
p125
sg25
S'0xffffffc000bb1d14L'
p126
sg27
Nsba(ibclass
BInstr
p127
(dp128
g2
Nsg17
S'MOV             X2, #0xB0'
p129
sg19
S'021680d2'
p130
sg21
Vmovz x2, #0xb0
p131
sg5
L18446743798843907352L
sg6
Nsg23
S'MOV'
p132
sg25
S'0xffffffc000bb1d18L'
p133
sg27
Nsba(ibclass
BInstr
p134
(dp135
g2
Nsg17
S'BL              kmem_cache_alloc_trace'
p136
sg19
S'42fadc97'
p137
sg21
Vbl #0xffffffffff73e908
p138
sg5
L18446743798843907356L
sg6
Nsg23
S'BL'
p139
sg25
S'0xffffffc000bb1d1cL'
p140
sg27
Nsba(ibclass
BInstr
p141
(dp142
g2
Nsg17
S'MOV             X19, X0'
p143
sg19
S'f30300aa'
p144
sg21
Vmov x19, x0
p145
sg5
L18446743798843907360L
sg6
Nsg23
S'MOV'
p146
sg25
S'0xffffffc000bb1d20L'
p147
sg27
Nsba(ibclass
BInstr
p148
(dp149
g2
Nsg17
S'CBZ             X0, loc_FFFFFFC000BB1DA4'
p150
sg19
S'000400b4'
p151
sg21
Vcbz x0, #0x80
p152
sg5
L18446743798843907364L
sg6
Nsg23
S'CBZ'
p153
sg25
S'0xffffffc000bb1d24L'
p154
sg27
Nsbasg70
(lp155
S'ADRP reg0, #func@PAGE'
p156
aS'LDR reg0, mem'
p157
aS'MOV reg, #0x80D0'
p158
aS'LDR reg, mem'
p159
aS'MOV reg, #0xB0'
p160
aS'BL kmem_cache_alloc_trace'
p161
aS'MOV reg9, reg'
p162
aS'CBZ reg, func'
p163
asg79
Nsg5
S'0xffffffc000bb1d08L'
p164
sg81
(lp165
S'0xffffffc000bb1cecL'
p166
asg6
Nsg83
(lp167
S'0xffffffc000bb1d28L'
p168
aS'0xffffffc000bb1da4L'
p169
asg87
Nsg88
Nsg89
S'f2fe383bc9335d68ac76107d6e73fe05'
p170
sg91
S'00ee3b7928883c81067f92295d77b140'
p171
sg93
(lp172
g104
ag111
ag118
ag125
ag132
ag139
ag146
ag153
asg95
Nsba(ibclass
BBasicBlock
p173
(dp174
g12
Nsg13
(lp175
(ibclass
BInstr
p176
(dp177
g2
Nsg17
S'ADRP            X21, #slave_active_lock@PAGE'
p178
sg19
S'159300b0'
p179
sg21
Vadrp x21, #0x1261000
p180
sg5
L18446743798843907368L
sg6
Nsg23
S'ADRP'
p181
sg25
S'0xffffffc000bb1d28L'
p182
sg27
Nsba(ibclass
BInstr
p183
(dp184
g2
Nsg17
S'ADD             X21, X21, #slave_active_lock@PAGEOFF'
p185
sg19
S'b5823491'
p186
sg21
Vadd x21, x21, #0xd20
p187
sg5
L18446743798843907372L
sg6
Nsg23
S'ADD'
p188
sg25
S'0xffffffc000bb1d2cL'
p189
sg27
Nsba(ibclass
BInstr
p190
(dp191
g2
Nsg17
S'ADD             X21, X21, #8'
p192
sg19
S'b5220091'
p193
sg21
Vadd x21, x21, #8
p194
sg5
L18446743798843907376L
sg6
Nsg23
S'ADD'
p195
sg25
S'0xffffffc000bb1d30L'
p196
sg27
Nsba(ibclass
BInstr
p197
(dp198
g2
Nsg17
S'ADRP            X1, #aTuQchange_slee@PAGE; "&tu->qchange_sleep"'
p199
sg19
S'614800f0'
p200
sg21
Vadrp x1, #0x90f000
p201
sg5
L18446743798843907380L
sg6
Nsg23
S'ADRP'
p202
sg25
S'0xffffffc000bb1d34L'
p203
sg27
Nsba(ibclass
BInstr
p204
(dp205
g2
Nsg17
S'STRH            WZR, [X0,#0x40]'
p206
sg19
S'1f800079'
p207
sg21
Vstrh wzr, [x0, #0x40]
p208
sg5
L18446743798843907384L
sg6
Nsg23
S'STR'
p209
sg25
S'0xffffffc000bb1d38L'
p210
sg27
Nsba(ibclass
BInstr
p211
(dp212
g2
Nsg17
S'STRH            WZR, [X0,#0x42]'
p213
sg19
S'1f840079'
p214
sg21
Vstrh wzr, [x0, #0x42]
p215
sg5
L18446743798843907388L
sg6
Nsg23
S'STR'
p216
sg25
S'0xffffffc000bb1d3cL'
p217
sg27
Nsba(ibclass
BInstr
p218
(dp219
g2
Nsg17
S'ADD             X1, X1, #aTuQchange_slee@PAGEOFF; "&tu->qchange_sleep"'
p220
sg19
S'21680e91'
p221
sg21
Vadd x1, x1, #0x39a
p222
sg5
L18446743798843907392L
sg6
Nsg23
S'ADD'
p223
sg25
S'0xffffffc000bb1d40L'
p224
sg27
Nsba(ibclass
BInstr
p225
(dp226
g2
Nsg17
S'ADD             X0, X0, #0x68'
p227
sg19
S'00a00191'
p228
sg21
Vadd x0, x0, #0x68
p229
sg5
L18446743798843907396L
sg6
Nsg23
S'ADD'
p230
sg25
S'0xffffffc000bb1d44L'
p231
sg27
Nsba(ibclass
BInstr
p232
(dp233
g2
Nsg17
S'MOV             X2, X21'
p234
sg19
S'e20315aa'
p235
sg21
Vmov x2, x21
p236
sg5
L18446743798843907400L
sg6
Nsg23
S'MOV'
p237
sg25
S'0xffffffc000bb1d48L'
p238
sg27
Nsba(ibclass
BInstr
p239
(dp240
g2
Nsg17
S'BL              __init_waitqueue_head'
p241
sg19
S'9a30da97'
p242
sg21
Vbl #0xffffffffff68c268
p243
sg5
L18446743798843907404L
sg6
Nsg23
S'BL'
p244
sg25
S'0xffffffc000bb1d4cL'
p245
sg27
Nsba(ibclass
BInstr
p246
(dp247
g2
Nsg17
S'ADRP            X1, #aTuTread_sem@PAGE; "&tu->tread_sem"'
p248
sg19
S'614800f0'
p249
sg21
Vadrp x1, #0x90f000
p250
sg5
L18446743798843907408L
sg6
Nsg23
S'ADRP'
p251
sg25
S'0xffffffc000bb1d50L'
p252
sg27
Nsba(ibclass
BInstr
p253
(dp254
g2
Nsg17
S'ADD             X0, X19, #0x88'
p255
sg19
S'60220291'
p256
sg21
Vadd x0, x19, #0x88
p257
sg5
L18446743798843907412L
sg6
Nsg23
S'ADD'
p258
sg25
S'0xffffffc000bb1d54L'
p259
sg27
Nsba(ibclass
BInstr
p260
(dp261
g2
Nsg17
S'ADD             X1, X1, #aTuTread_sem@PAGEOFF; "&tu->tread_sem"'
p262
sg19
S'21b40e91'
p263
sg21
Vadd x1, x1, #0x3ad
p264
sg5
L18446743798843907416L
sg6
Nsg23
S'ADD'
p265
sg25
S'0xffffffc000bb1d58L'
p266
sg27
Nsba(ibclass
BInstr
p267
(dp268
g2
Nsg17
S'MOV             X2, X21'
p269
sg19
S'e20315aa'
p270
sg21
Vmov x2, x21
p271
sg5
L18446743798843907420L
sg6
Nsg23
S'MOV'
p272
sg25
S'0xffffffc000bb1d5cL'
p273
sg27
Nsba(ibclass
BInstr
p274
(dp275
g2
Nsg17
S'BL              __mutex_init'
p276
sg19
S'0039da97'
p277
sg21
Vbl #0xffffffffff68e400
p278
sg5
L18446743798843907424L
sg6
Nsg23
S'BL'
p279
sg25
S'0xffffffc000bb1d60L'
p280
sg27
Nsba(ibclass
BInstr
p281
(dp282
g2
Nsg17
S'MOV             X0, #1'
p283
sg19
S'200080d2'
p284
sg21
Vmovz x0, #0x1
p285
sg5
L18446743798843907428L
sg6
Nsg23
S'MOV'
p286
sg25
S'0xffffffc000bb1d64L'
p287
sg27
Nsba(ibclass
BInstr
p288
(dp289
g2
Nsg17
S'STR             X0, [X19,#0x10]'
p290
sg19
S'600a00f9'
p291
sg21
Vstr x0, [x19, #0x10]
p292
sg5
L18446743798843907432L
sg6
Nsg23
S'STR'
p293
sg25
S'0xffffffc000bb1d68L'
p294
sg27
Nsba(ibclass
BInstr
p295
(dp296
g2
Nsg17
S'MOV             W0, #0x80'
p297
sg19
S'00108052'
p298
sg21
Vmovz w0, #0x80
p299
sg5
L18446743798843907436L
sg6
Nsg23
S'MOV'
p300
sg25
S'0xffffffc000bb1d6cL'
p301
sg27
Nsba(ibclass
BInstr
p302
(dp303
g2
Nsg17
S'STR             W0, [X19,#0x2C]'
p304
sg19
S'602e00b9'
p305
sg21
Vstr w0, [x19, #0x2c]
p306
sg5
L18446743798843907440L
sg6
Nsg23
S'STR'
p307
sg25
S'0xffffffc000bb1d70L'
p308
sg27
Nsba(ibclass
BInstr
p309
(dp310
g2
Nsg17
S'LDR             X0, [X20,#0x50]'
p311
sg19
S'802a40f9'
p312
sg21
Vldr x0, [x20, #0x50]
p313
sg5
L18446743798843907444L
sg6
Nsg23
S'LDR'
p314
sg25
S'0xffffffc000bb1d74L'
p315
sg27
Nsba(ibclass
BInstr
p316
(dp317
g2
Nsg17
S'MOV             W1, #0xD0'
p318
sg19
S'011a8052'
p319
sg21
Vmovz w1, #0xd0
p320
sg5
L18446743798843907448L
sg6
Nsg23
S'MOV'
p321
sg25
S'0xffffffc000bb1d78L'
p322
sg27
Nsba(ibclass
BInstr
p323
(dp324
g2
Nsg17
S'MOV             X2, #0x400'
p325
sg19
S'028080d2'
p326
sg21
Vmovz x2, #0x400
p327
sg5
L18446743798843907452L
sg6
Nsg23
S'MOV'
p328
sg25
S'0xffffffc000bb1d7cL'
p329
sg27
Nsba(ibclass
BInstr
p330
(dp331
g2
Nsg17
S'BL              kmem_cache_alloc_trace'
p332
sg19
S'29fadc97'
p333
sg21
Vbl #0xffffffffff73e8a4
p334
sg5
L18446743798843907456L
sg6
Nsg23
S'BL'
p335
sg25
S'0xffffffc000bb1d80L'
p336
sg27
Nsba(ibclass
BInstr
p337
(dp338
g2
Nsg17
S'STR             X0, [X19,#0x30]'
p339
sg19
S'601a00f9'
p340
sg21
Vstr x0, [x19, #0x30]
p341
sg5
L18446743798843907460L
sg6
Nsg23
S'STR'
p342
sg25
S'0xffffffc000bb1d84L'
p343
sg27
Nsba(ibclass
BInstr
p344
(dp345
g2
Nsg17
S'CBNZ            X0, loc_FFFFFFC000BB1D98'
p346
sg19
S'800000b5'
p347
sg21
Vcbnz x0, #0x10
p348
sg5
L18446743798843907464L
sg6
Nsg23
S'CBNZ'
p349
sg25
S'0xffffffc000bb1d88L'
p350
sg27
Nsbasg70
(lp351
S'ADRP reg1, #slave_active_lock@PAGE'
p352
aS'ADD reg1, reg1, #slave_active_lock@PAGEOFF'
p353
aS'ADD reg1, reg1, #8'
p354
aS'ADRP reg, #aTuQchange_slee@PAGE'
p355
aS'STRH WZR, mem'
p356
aS'STRH WZR, mem'
p357
aS'ADD reg, reg, #aTuQchange_slee@PAGEOFF'
p358
aS'ADD reg, reg, #0x68'
p359
aS'MOV reg, reg1'
p360
aS'BL __init_waitqueue_head'
p361
aS'ADRP reg, #aTuTread_sem@PAGE'
p362
aS'ADD reg, reg9, #0x88'
p363
aS'ADD reg, reg, #aTuTread_sem@PAGEOFF'
p364
aS'MOV reg, reg1'
p365
aS'BL __mutex_init'
p366
aS'MOV reg, #1'
p367
aS'STR reg, mem'
p368
aS'MOV reg, #0x80'
p369
aS'STR reg, mem'
p370
aS'LDR reg, mem'
p371
aS'MOV reg, #0xD0'
p372
aS'MOV reg, #0x400'
p373
aS'BL kmem_cache_alloc_trace'
p374
aS'STR reg, mem'
p375
aS'CBNZ reg, func'
p376
asg79
Nsg5
S'0xffffffc000bb1d28L'
p377
sg81
(lp378
S'0xffffffc000bb1d08L'
p379
asg6
Nsg83
(lp380
S'0xffffffc000bb1d8cL'
p381
aS'0xffffffc000bb1d98L'
p382
asg87
Nsg88
Nsg89
S'7626764080186a9c9f6154288d944288'
p383
sg91
S'd1a85dd7922b2c22a7ea0c03eb005824'
p384
sg93
(lp385
g181
ag188
ag195
ag202
ag209
ag216
ag223
ag230
ag237
ag244
ag251
ag258
ag265
ag272
ag279
ag286
ag293
ag300
ag307
ag314
ag321
ag328
ag335
ag342
ag349
asg95
Nsba(ibclass
BBasicBlock
p386
(dp387
g12
Nsg13
(lp388
(ibclass
BInstr
p389
(dp390
g2
Nsg17
S'MOV             X0, X19'
p391
sg19
S'e00313aa'
p392
sg21
Vmov x0, x19
p393
sg5
L18446743798843907468L
sg6
Nsg23
S'MOV'
p394
sg25
S'0xffffffc000bb1d8cL'
p395
sg27
Nsba(ibclass
BInstr
p396
(dp397
g2
Nsg17
S'BL              kfree'
p398
sg19
S'58fcdc97'
p399
sg21
Vbl #0xffffffffff73f160
p400
sg5
L18446743798843907472L
sg6
Nsg23
S'BL'
p401
sg25
S'0xffffffc000bb1d90L'
p402
sg27
Nsba(ibclass
BInstr
p403
(dp404
g2
Nsg17
S'B               loc_FFFFFFC000BB1DA4'
p405
sg19
S'04000014'
p406
sg21
Vb #0x10
p407
sg5
L18446743798843907476L
sg6
Nsg23
S'B'
p408
sg25
S'0xffffffc000bb1d94L'
p409
sg27
Nsbasg70
(lp410
S'MOV reg, reg9'
p411
aS'BL kfree'
p412
aS'B func'
p413
asg79
Nsg5
S'0xffffffc000bb1d8cL'
p414
sg81
(lp415
S'0xffffffc000bb1d28L'
p416
asg6
Nsg83
(lp417
S'0xffffffc000bb1da4L'
p418
asg87
Nsg88
Nsg89
S'f3f645dfcfe38b34211b70b425c07bfe'
p419
sg91
S'5d61ab52b6b8fb06b8631ff2e327f4ed'
p420
sg93
(lp421
g394
ag401
ag408
asg95
Nsba(ibclass
BBasicBlock
p422
(dp423
g12
Nsg13
(lp424
(ibclass
BInstr
p425
(dp426
g2
Nsg17
S'STR             X19, [X22,#0xA8]'
p427
sg19
S'd35600f9'
p428
sg21
Vstr x19, [x22, #0xa8]
p429
sg5
L18446743798843907480L
sg6
Nsg23
S'STR'
p430
sg25
S'0xffffffc000bb1d98L'
p431
sg27
Nsba(ibclass
BInstr
p432
(dp433
g2
Nsg17
S'MOV             W0, #0'
p434
sg19
S'00008052'
p435
sg21
Vmovz w0, #0
p436
sg5
L18446743798843907484L
sg6
Nsg23
S'MOV'
p437
sg25
S'0xffffffc000bb1d9cL'
p438
sg27
Nsba(ibclass
BInstr
p439
(dp440
g2
Nsg17
S'B               loc_FFFFFFC000BB1DA8'
p441
sg19
S'02000014'
p442
sg21
Vb #8
p443
sg5
L18446743798843907488L
sg6
Nsg23
g408
sg25
S'0xffffffc000bb1da0L'
p444
sg27
Nsbasg70
(lp445
S'STR reg9, mem'
p446
aS'MOV reg, #0'
p447
aS'B func'
p448
asg79
Nsg5
S'0xffffffc000bb1d98L'
p449
sg81
(lp450
S'0xffffffc000bb1d28L'
p451
asg6
Nsg83
(lp452
S'0xffffffc000bb1da8L'
p453
asg87
Nsg88
Nsg89
S'ae67871e53439720ff237cbdfb357aa2'
p454
sg91
S'cc97c183eec536296b29d1b9772d60d9'
p455
sg93
(lp456
g430
ag437
ag408
asg95
Nsba(ibclass
BBasicBlock
p457
(dp458
g12
Nsg13
(lp459
(ibclass
BInstr
p460
(dp461
g2
Nsg17
S'MOV             W0, #0xFFFFFFF4'
p462
sg19
S'60018012'
p463
sg21
Vmovn w0, #0xb
p464
sg5
L18446743798843907492L
sg6
Nsg23
S'MOV'
p465
sg25
S'0xffffffc000bb1da4L'
p466
sg27
Nsbasg70
(lp467
S'MOV reg, #0xFFFFFFF4'
p468
asg79
Nsg5
S'0xffffffc000bb1da4L'
p469
sg81
(lp470
S'0xffffffc000bb1d08L'
p471
aS'0xffffffc000bb1d8cL'
p472
asg6
Nsg83
(lp473
S'0xffffffc000bb1da8L'
p474
asg87
Nsg88
Nsg89
S'17b32100aef1fc19670be7fd58bc85df'
p475
sg91
S'e69abedb336ae83304deca9b2632a0d1'
p476
sg93
(lp477
g465
asg95
Nsba(ibclass
BBasicBlock
p478
(dp479
g12
Nsg13
(lp480
(ibclass
BInstr
p481
(dp482
g2
Nsg17
S'LDP             X19, X20, [SP,#0x20+var_10]'
p483
sg19
S'f35341a9'
p484
sg21
Vldp x19, x20, [sp, #0x10]
p485
sg5
L18446743798843907496L
sg6
Nsg23
S'LDP'
p486
sg25
S'0xffffffc000bb1da8L'
p487
sg27
Nsba(ibclass
BInstr
p488
(dp489
g2
Nsg17
S'LDP             X21, X22, [SP,#0x20+var_s0]'
p490
sg19
S'f55b42a9'
p491
sg21
Vldp x21, x22, [sp, #0x20]
p492
sg5
L18446743798843907500L
sg6
Nsg23
S'LDP'
p493
sg25
S'0xffffffc000bb1dacL'
p494
sg27
Nsba(ibclass
BInstr
p495
(dp496
g2
Nsg17
S'LDP             X29, X30, [SP+0x20+var_20],#0x30'
p497
sg19
S'fd7bc3a8'
p498
sg21
Vldp x29, x30, [sp], #0x30
p499
sg5
L18446743798843907504L
sg6
Nsg23
S'LDP'
p500
sg25
S'0xffffffc000bb1db0L'
p501
sg27
Nsba(ibclass
BInstr
p502
(dp503
g2
Nsg17
S'RET'
p504
sg19
S'c0035fd6'
p505
sg21
Vret 
p506
sg5
L18446743798843907508L
sg6
Nsg23
S'RET'
p507
sg25
S'0xffffffc000bb1db4L'
p508
sg27
Nsbasg70
(lp509
S'LDP reg9, reg0, mem'
p510
aS'LDP reg1, reg2, mem'
p511
aS'LDP reg9, reg0, mem,#0x30'
p512
ag504
asg79
Nsg5
S'0xffffffc000bb1da8L'
p513
sg81
(lp514
S'0xffffffc000bb1cecL'
p515
aS'0xffffffc000bb1d98L'
p516
aS'0xffffffc000bb1da4L'
p517
asg6
Nsg83
(lp518
sg87
Nsg88
Nsg89
S'e506acdec8f0d1b80ba12a70d6d398f7'
p519
sg91
S'3ac81bdcde4eb0fd97ff7d602d4ab967'
p520
sg93
(lp521
g486
ag493
ag500
ag507
asg95
Nsbasb.