(ibclass
BFunc
p0
(dp1
S'hash'
p2
NsS'name'
p3
S'udpv6_recvmsg'
p4
sS'start_address'
p5
L18446743798845686788L
sS'flag'
p6
NsS'program'
p7
NsS'bbs'
p8
(lp9
(ibclass
BBasicBlock
p10
(dp11
S'function'
p12
NsS'binstrs'
p13
(lp14
(ibclass
BInstr
p15
(dp16
g2
NsS'disasm'
p17
S'STP             X29, X30, [SP,#-0x10+var_90]!'
p18
sS'bytes'
p19
S'fd7bb6a9'
p20
sS'disasm_striped'
p21
Vstp x29, x30, [sp, #-0xa0]!
p22
sg5
L18446743798845686788L
sg6
NsS'mnem'
p23
S'STP'
p24
sS'address'
p25
S'0xffffffc000d64404L'
p26
sS'basicblock'
p27
Nsba(ibclass
BInstr
p28
(dp29
g2
Nsg17
S'MOV             X29, SP'
p30
sg19
S'fd030091'
p31
sg21
Vmov x29, sp
p32
sg5
L18446743798845686792L
sg6
Nsg23
S'MOV'
p33
sg25
S'0xffffffc000d64408L'
p34
sg27
Nsba(ibclass
BInstr
p35
(dp36
g2
Nsg17
S'STP             X23, X24, [SP,#0x90+var_60]'
p37
sg19
S'f76303a9'
p38
sg21
Vstp x23, x24, [sp, #0x30]
p39
sg5
L18446743798845686796L
sg6
Nsg23
S'STP'
p40
sg25
S'0xffffffc000d6440cL'
p41
sg27
Nsba(ibclass
BInstr
p42
(dp43
g2
Nsg17
S'STP             X19, X20, [SP,#0x90+var_80]'
p44
sg19
S'f35301a9'
p45
sg21
Vstp x19, x20, [sp, #0x10]
p46
sg5
L18446743798845686800L
sg6
Nsg23
S'STP'
p47
sg25
S'0xffffffc000d64410L'
p48
sg27
Nsba(ibclass
BInstr
p49
(dp50
g2
Nsg17
S'STP             X21, X22, [SP,#0x90+var_70]'
p51
sg19
S'f55b02a9'
p52
sg21
Vstp x21, x22, [sp, #0x20]
p53
sg5
L18446743798845686804L
sg6
Nsg23
S'STP'
p54
sg25
S'0xffffffc000d64414L'
p55
sg27
Nsba(ibclass
BInstr
p56
(dp57
g2
Nsg17
S'STP             X27, X28, [SP,#0x90+var_40]'
p58
sg19
S'fb7305a9'
p59
sg21
Vstp x27, x28, [sp, #0x50]
p60
sg5
L18446743798845686808L
sg6
Nsg23
S'STP'
p61
sg25
S'0xffffffc000d64418L'
p62
sg27
Nsba(ibclass
BInstr
p63
(dp64
g2
Nsg17
S'STP             X25, X26, [SP,#0x90+var_50]'
p65
sg19
S'f96b04a9'
p66
sg21
Vstp x25, x26, [sp, #0x40]
p67
sg5
L18446743798845686812L
sg6
Nsg23
S'STP'
p68
sg25
S'0xffffffc000d6441cL'
p69
sg27
Nsba(ibclass
BInstr
p70
(dp71
g2
Nsg17
S'LDRB            W0, [X1,#0x12]'
p72
sg19
S'20484039'
p73
sg21
Vldrb w0, [x1, #0x12]
p74
sg5
L18446743798845686816L
sg6
Nsg23
S'LDR'
p75
sg25
S'0xffffffc000d64420L'
p76
sg27
Nsba(ibclass
BInstr
p77
(dp78
g2
Nsg17
S'MOV             X28, X1'
p79
sg19
S'fc0301aa'
p80
sg21
Vmov x28, x1
p81
sg5
L18446743798845686820L
sg6
Nsg23
S'MOV'
p82
sg25
S'0xffffffc000d64424L'
p83
sg27
Nsba(ibclass
BInstr
p84
(dp85
g2
Nsg17
S'MOV             W1, #1'
p86
sg19
S'21008052'
p87
sg21
Vmovz w1, #0x1
p88
sg5
L18446743798845686824L
sg6
Nsg23
S'MOV'
p89
sg25
S'0xffffffc000d64428L'
p90
sg27
Nsba(ibclass
BInstr
p91
(dp92
g2
Nsg17
S'LSL             W0, W1, W0'
p93
sg19
S'2020c01a'
p94
sg21
Vlsl w0, w1, w0
p95
sg5
L18446743798845686828L
sg6
Nsg23
S'LSL'
p96
sg25
S'0xffffffc000d6442cL'
p97
sg27
Nsba(ibclass
BInstr
p98
(dp99
g2
Nsg17
S'STR             W4, [X29,#0x90+var_20]'
p100
sg19
S'a47300b9'
p101
sg21
Vstr w4, [x29, #0x70]
p102
sg5
L18446743798845686832L
sg6
Nsg23
S'STR'
p103
sg25
S'0xffffffc000d64430L'
p104
sg27
Nsba(ibclass
BInstr
p105
(dp106
g2
Nsg17
S'STR             X6, [X29,#0x90+var_18]'
p107
sg19
S'a63f00f9'
p108
sg21
Vstr x6, [x29, #0x78]
p109
sg5
L18446743798845686836L
sg6
Nsg23
S'STR'
p110
sg25
S'0xffffffc000d64434L'
p111
sg27
Nsba(ibclass
BInstr
p112
(dp113
g2
Nsg17
S'TST             W0, #0xFFFFFFBF'
p114
sg19
S'1f781972'
p115
sg21
Vtst w0, #0xffffffbf
p116
sg5
L18446743798845686840L
sg6
Nsg23
S'TST'
p117
sg25
S'0xffffffc000d64438L'
p118
sg27
Nsba(ibclass
BInstr
p119
(dp120
g2
Nsg17
S'MOV             X19, X2'
p121
sg19
S'f30302aa'
p122
sg21
Vmov x19, x2
p123
sg5
L18446743798845686844L
sg6
Nsg23
S'MOV'
p124
sg25
S'0xffffffc000d6443cL'
p125
sg27
Nsba(ibclass
BInstr
p126
(dp127
g2
Nsg17
S'MOV             X23, X3'
p128
sg19
S'f70303aa'
p129
sg21
Vmov x23, x3
p130
sg5
L18446743798845686848L
sg6
Nsg23
S'MOV'
p131
sg25
S'0xffffffc000d64440L'
p132
sg27
Nsba(ibclass
BInstr
p133
(dp134
g2
Nsg17
S'MOV             W24, W5'
p135
sg19
S'f803052a'
p136
sg21
Vmov w24, w5
p137
sg5
L18446743798845686852L
sg6
Nsg23
S'MOV'
p138
sg25
S'0xffffffc000d64444L'
p139
sg27
Nsba(ibclass
BInstr
p140
(dp141
g2
Nsg17
S'MOV             X22, #0'
p142
sg19
S'160080d2'
p143
sg21
Vmovz x22, #0
p144
sg5
L18446743798845686856L
sg6
Nsg23
S'MOV'
p145
sg25
S'0xffffffc000d64448L'
p146
sg27
Nsba(ibclass
BInstr
p147
(dp148
g2
Nsg17
S'B.EQ            loc_FFFFFFC000D64454'
p149
sg19
S'40000054'
p150
sg21
Vb.eq #8
p151
sg5
L18446743798845686860L
sg6
Nsg23
S'B'
p152
sg25
S'0xffffffc000d6444cL'
p153
sg27
NsbasS'disasm_list'
p154
(lp155
S'STP reg9, reg0, mem!'
p156
aS'MOV reg9, SP'
p157
aS'STP reg3, reg4, mem'
p158
aS'STP reg9, reg0, mem'
p159
aS'STP reg1, reg2, mem'
p160
aS'STP reg7, reg8, mem'
p161
aS'STP reg5, reg6, mem'
p162
aS'LDRB reg, mem'
p163
aS'MOV reg8, reg'
p164
aS'MOV reg, #1'
p165
aS'LSL reg, reg, reg'
p166
aS'STR reg, mem'
p167
aS'STR reg, mem'
p168
aS'TST reg, #0xFFFFFFBF'
p169
aS'MOV reg9, reg'
p170
aS'MOV reg3, reg'
p171
aS'MOV reg4, reg'
p172
aS'MOV reg2, #0'
p173
aS'B.EQ func'
p174
asS'end_address'
p175
Nsg5
S'0xffffffc000d64404L'
p176
sS'preds'
p177
(lp178
sg6
NsS'succs'
p179
(lp180
S'0xffffffc000d64450L'
p181
aS'0xffffffc000d64454L'
p182
asS'hash_v3'
p183
NsS'flag_v2'
p184
NsS'hash_v1'
p185
S'f25071f9f6425f9694117be7e60dadc6'
p186
sS'hash_v2'
p187
S'81753a6be0c108b91b02ca0f90f04a43'
p188
sS'mnen_list'
p189
(lp190
g24
ag33
ag40
ag47
ag54
ag61
ag68
ag75
ag82
ag89
ag96
ag103
ag110
ag117
ag124
ag131
ag138
ag145
ag152
asS'neighbour_disasm_list'
p191
Nsba(ibclass
BBasicBlock
p192
(dp193
g12
Nsg13
(lp194
(ibclass
BInstr
p195
(dp196
g2
Nsg17
S'LDR             X22, [X28,#0x278]'
p197
sg19
S'963f41f9'
p198
sg21
Vldr x22, [x28, #0x278]
p199
sg5
L18446743798845686864L
sg6
Nsg23
S'LDR'
p200
sg25
S'0xffffffc000d64450L'
p201
sg27
Nsbasg154
(lp202
S'LDR reg2, mem'
p203
asg175
Nsg5
S'0xffffffc000d64450L'
p204
sg177
(lp205
S'0xffffffc000d64404L'
p206
asg6
Nsg179
(lp207
S'0xffffffc000d64454L'
p208
asg183
Nsg184
Nsg185
S'6645d4de79aee6373f120d72c0030e5f'
p209
sg187
S'fdfe4edfc04800eef21e1cdc10092d83'
p210
sg189
(lp211
g200
asg191
Nsba(ibclass
BBasicBlock
p212
(dp213
g12
Nsg13
(lp214
(ibclass
BInstr
p215
(dp216
g2
Nsg17
S'STR             WZR, [X29,#arg_54]'
p217
sg19
S'bf6700b9'
p218
sg21
Vstr wzr, [x29, #0x64]
p219
sg5
L18446743798845686868L
sg6
Nsg23
S'STR'
p220
sg25
S'0xffffffc000d64454L'
p221
sg27
Nsba(ibclass
BInstr
p222
(dp223
g2
Nsg17
S'LDRB            W20, [X28,#0x330]'
p224
sg19
S'94c34c39'
p225
sg21
Vldrb w20, [x28, #0x330]
p226
sg5
L18446743798845686872L
sg6
Nsg23
S'LDR'
p227
sg25
S'0xffffffc000d64458L'
p228
sg27
Nsba(ibclass
BInstr
p229
(dp230
g2
Nsg17
S'TBZ             W24, #0xD, loc_FFFFFFC000D64478'
p231
sg19
S'f8006836'
p232
sg21
Vtbz w24, #0xd, #0x1c
p233
sg5
L18446743798845686876L
sg6
Nsg23
S'TBZ'
p234
sg25
S'0xffffffc000d6445cL'
p235
sg27
Nsbasg154
(lp236
S'STR WZR, mem'
p237
aS'LDRB reg0, mem'
p238
aS'TBZ reg4, #0xD, func'
p239
asg175
Nsg5
S'0xffffffc000d64454L'
p240
sg177
(lp241
S'0xffffffc000d64404L'
p242
aS'0xffffffc000d64450L'
p243
asg6
Nsg179
(lp244
S'0xffffffc000d64460L'
p245
aS'0xffffffc000d64478L'
p246
asg183
Nsg184
Nsg185
S'4131cb02a437d444da2fe32a0b49ad27'
p247
sg187
S'cc67ee2436f40ce729e00e7dd423f900'
p248
sg189
(lp249
g220
ag227
ag234
asg191
Nsba(ibclass
BBasicBlock
p250
(dp251
g12
Nsg13
(lp252
(ibclass
BInstr
p253
(dp254
g2
Nsg17
S'LDR             X3, [X29,#arg_68]'
p255
sg19
S'a33f40f9'
p256
sg21
Vldr x3, [x29, #0x78]
p257
sg5
L18446743798845686880L
sg6
Nsg23
S'LDR'
p258
sg25
S'0xffffffc000d64460L'
p259
sg27
Nsba(ibclass
BInstr
p260
(dp261
g2
Nsg17
S'MOV             X0, X28'
p262
sg19
S'e0031caa'
p263
sg21
Vmov x0, x28
p264
sg5
L18446743798845686884L
sg6
Nsg23
S'MOV'
p265
sg25
S'0xffffffc000d64464L'
p266
sg27
Nsba(ibclass
BInstr
p267
(dp268
g2
Nsg17
S'MOV             X1, X19'
p269
sg19
S'e10313aa'
p270
sg21
Vmov x1, x19
p271
sg5
L18446743798845686888L
sg6
Nsg23
S'MOV'
p272
sg25
S'0xffffffc000d64468L'
p273
sg27
Nsba(ibclass
BInstr
p274
(dp275
g2
Nsg17
S'MOV             W2, W23'
p276
sg19
S'e203172a'
p277
sg21
Vmov w2, w23
p278
sg5
L18446743798845686892L
sg6
Nsg23
S'MOV'
p279
sg25
S'0xffffffc000d6446cL'
p280
sg27
Nsba(ibclass
BInstr
p281
(dp282
g2
Nsg17
S'BL              ipv6_recv_error'
p283
sg19
S'd7420094'
p284
sg21
Vbl #0x10b5c
p285
sg5
L18446743798845686896L
sg6
Nsg23
S'BL'
p286
sg25
S'0xffffffc000d64470L'
p287
sg27
Nsba(ibclass
BInstr
p288
(dp289
g2
Nsg17
S'B               loc_FFFFFFC000D649B4'
p290
sg19
S'50010014'
p291
sg21
Vb #0x540
p292
sg5
L18446743798845686900L
sg6
Nsg23
g152
sg25
S'0xffffffc000d64474L'
p293
sg27
Nsbasg154
(lp294
S'LDR reg, mem'
p295
aS'MOV reg, reg8'
p296
aS'MOV reg, reg9'
p297
aS'MOV reg, reg3'
p298
aS'BL ipv6_recv_error'
p299
aS'B func'
p300
asg175
Nsg5
S'0xffffffc000d64460L'
p301
sg177
(lp302
S'0xffffffc000d64454L'
p303
asg6
Nsg179
(lp304
S'0xffffffc000d649b4L'
p305
asg183
Nsg184
Nsg185
S'da23dd70d57ebd327cfefcf8c91e5c70'
p306
sg187
S'458ebbd0f214ebf8d2a96879ca63d0d0'
p307
sg189
(lp308
g258
ag265
ag272
ag279
ag286
ag152
asg191
Nsba(ibclass
BBasicBlock
p309
(dp310
g12
Nsg13
(lp311
(ibclass
BInstr
p312
(dp313
g2
Nsg17
S'LDR             X0, [X22,#0xA8]'
p314
sg19
S'c05640f9'
p315
sg21
Vldr x0, [x22, #0xa8]
p316
sg5
L18446743798845686904L
sg6
Nsg23
S'LDR'
p317
sg25
S'0xffffffc000d64478L'
p318
sg27
Nsba(ibclass
BInstr
p319
(dp320
g2
Nsg17
S'CBZ             X0, loc_FFFFFFC000D644A0'
p321
sg19
S'200100b4'
p322
sg21
Vcbz x0, #0x24
p323
sg5
L18446743798845686908L
sg6
Nsg23
S'CBZ'
p324
sg25
S'0xffffffc000d6447cL'
p325
sg27
Nsbasg154
(lp326
S'LDR reg, mem'
p327
aS'CBZ reg, func'
p328
asg175
Nsg5
S'0xffffffc000d64478L'
p329
sg177
(lp330
S'0xffffffc000d64454L'
p331
asg6
Nsg179
(lp332
S'0xffffffc000d64480L'
p333
aS'0xffffffc000d644a0L'
p334
asg183
Nsg184
Nsg185
S'a0c488049ab653dbdfa1dc805bb83f13'
p335
sg187
S'33abe016da9abbebb8608f035d51762d'
p336
sg189
(lp337
g317
ag324
asg191
Nsba(ibclass
BBasicBlock
p338
(dp339
g12
Nsg13
(lp340
(ibclass
BInstr
p341
(dp342
g2
Nsg17
S'LDRB            W0, [X22,#0x6D]'
p343
sg19
S'c0b64139'
p344
sg21
Vldrb w0, [x22, #0x6d]
p345
sg5
L18446743798845686912L
sg6
Nsg23
S'LDR'
p346
sg25
S'0xffffffc000d64480L'
p347
sg27
Nsba(ibclass
BInstr
p348
(dp349
g2
Nsg17
S'TBZ             W0, #4, loc_FFFFFFC000D644A0'
p350
sg19
S'e0002036'
p351
sg21
Vtbz w0, #4, #0x1c
p352
sg5
L18446743798845686916L
sg6
Nsg23
S'TBZ'
p353
sg25
S'0xffffffc000d64484L'
p354
sg27
Nsbasg154
(lp355
S'LDRB reg, mem'
p356
aS'TBZ reg, #4, func'
p357
asg175
Nsg5
S'0xffffffc000d64480L'
p358
sg177
(lp359
S'0xffffffc000d64478L'
p360
asg6
Nsg179
(lp361
S'0xffffffc000d64488L'
p362
aS'0xffffffc000d644a0L'
p363
asg183
Nsg184
Nsg185
S'1cf4e33a651c04ed202c51992a2f5549'
p364
sg187
S'c42695a68c3bce1038eef9e234f46732'
p365
sg189
(lp366
g346
ag353
asg191
Nsba(ibclass
BBasicBlock
p367
(dp368
g12
Nsg13
(lp369
(ibclass
BInstr
p370
(dp371
g2
Nsg17
S'LDR             X3, [X29,#arg_68]'
p372
sg19
S'a33f40f9'
p373
sg21
Vldr x3, [x29, #0x78]
p374
sg5
L18446743798845686920L
sg6
Nsg23
S'LDR'
p375
sg25
S'0xffffffc000d64488L'
p376
sg27
Nsba(ibclass
BInstr
p377
(dp378
g2
Nsg17
S'MOV             X0, X28'
p379
sg19
S'e0031caa'
p380
sg21
Vmov x0, x28
p381
sg5
L18446743798845686924L
sg6
Nsg23
S'MOV'
p382
sg25
S'0xffffffc000d6448cL'
p383
sg27
Nsba(ibclass
BInstr
p384
(dp385
g2
Nsg17
S'MOV             X1, X19'
p386
sg19
S'e10313aa'
p387
sg21
Vmov x1, x19
p388
sg5
L18446743798845686928L
sg6
Nsg23
S'MOV'
p389
sg25
S'0xffffffc000d64490L'
p390
sg27
Nsba(ibclass
BInstr
p391
(dp392
g2
Nsg17
S'MOV             W2, W23'
p393
sg19
S'e203172a'
p394
sg21
Vmov w2, w23
p395
sg5
L18446743798845686932L
sg6
Nsg23
S'MOV'
p396
sg25
S'0xffffffc000d64494L'
p397
sg27
Nsba(ibclass
BInstr
p398
(dp399
g2
Nsg17
S'BL              ipv6_recv_rxpmtu'
p400
sg19
S'5d410094'
p401
sg21
Vbl #0x10574
p402
sg5
L18446743798845686936L
sg6
Nsg23
S'BL'
p403
sg25
S'0xffffffc000d64498L'
p404
sg27
Nsba(ibclass
BInstr
p405
(dp406
g2
Nsg17
S'B               loc_FFFFFFC000D649B4'
p407
sg19
S'46010014'
p408
sg21
Vb #0x518
p409
sg5
L18446743798845686940L
sg6
Nsg23
g152
sg25
S'0xffffffc000d6449cL'
p410
sg27
Nsbasg154
(lp411
S'LDR reg, mem'
p412
aS'MOV reg, reg8'
p413
aS'MOV reg, reg9'
p414
aS'MOV reg, reg3'
p415
aS'BL ipv6_recv_rxpmtu'
p416
aS'B func'
p417
asg175
Nsg5
S'0xffffffc000d64488L'
p418
sg177
(lp419
S'0xffffffc000d64480L'
p420
asg6
Nsg179
(lp421
S'0xffffffc000d649b4L'
p422
asg183
Nsg184
Nsg185
S'da23dd70d57ebd327cfefcf8c91e5c70'
p423
sg187
S'493c35f765859a67d17c739192d5efab'
p424
sg189
(lp425
g375
ag382
ag389
ag396
ag403
ag152
asg191
Nsba(ibclass
BBasicBlock
p426
(dp427
g12
Nsg13
(lp428
(ibclass
BInstr
p429
(dp430
g2
Nsg17
S'LDR             W2, [X29,#arg_60]'
p431
sg19
S'a27340b9'
p432
sg21
Vldr w2, [x29, #0x70]
p433
sg5
L18446743798845686944L
sg6
Nsg23
S'LDR'
p434
sg25
S'0xffffffc000d644a0L'
p435
sg27
Nsba(ibclass
BInstr
p436
(dp437
g2
Nsg17
S'MOV             W1, #0x40'
p438
sg19
S'01088052'
p439
sg21
Vmovz w1, #0x40
p440
sg5
L18446743798845686948L
sg6
Nsg23
S'MOV'
p441
sg25
S'0xffffffc000d644a4L'
p442
sg27
Nsba(ibclass
BInstr
p443
(dp444
g2
Nsg17
S'CMP             W2, WZR'
p445
sg19
S'5f001f6b'
p446
sg21
Vcmp w2, wzr
p447
sg5
L18446743798845686952L
sg6
Nsg23
S'CMP'
p448
sg25
S'0xffffffc000d644a8L'
p449
sg27
Nsba(ibclass
BInstr
p450
(dp451
g2
Nsg17
S'ADD             X3, X29, #0x68'
p452
sg19
S'a3a30191'
p453
sg21
Vadd x3, x29, #0x68
p454
sg5
L18446743798845686956L
sg6
Nsg23
S'ADD'
p455
sg25
S'0xffffffc000d644acL'
p456
sg27
Nsba(ibclass
BInstr
p457
(dp458
g2
Nsg17
S'ADD             X0, X29, #0x64'
p459
sg19
S'a0930191'
p460
sg21
Vadd x0, x29, #0x64
p461
sg5
L18446743798845686960L
sg6
Nsg23
S'ADD'
p462
sg25
S'0xffffffc000d644b0L'
p463
sg27
Nsba(ibclass
BInstr
p464
(dp465
g2
Nsg17
S'ADD             X2, X28, #0x50'
p466
sg19
S'82430191'
p467
sg21
Vadd x2, x28, #0x50
p468
sg5
L18446743798845686964L
sg6
Nsg23
S'ADD'
p469
sg25
S'0xffffffc000d644b4L'
p470
sg27
Nsba(ibclass
BInstr
p471
(dp472
g2
Nsg17
S'CSEL            W1, WZR, W1, EQ'
p473
sg19
S'e103811a'
p474
sg21
Vcsel w1, wzr, w1, eq
p475
sg5
L18446743798845686968L
sg6
Nsg23
S'CSEL'
p476
sg25
S'0xffffffc000d644b8L'
p477
sg27
Nsba(ibclass
BInstr
p478
(dp479
g2
Nsg17
S'STR             X3, [X29,#arg_70]'
p480
sg19
S'a34300f9'
p481
sg21
Vstr x3, [x29, #0x80]
p482
sg5
L18446743798845686972L
sg6
Nsg23
S'STR'
p483
sg25
S'0xffffffc000d644bcL'
p484
sg27
Nsba(ibclass
BInstr
p485
(dp486
g2
Nsg17
S'STR             X0, [X29,#arg_78]'
p487
sg19
S'a04700f9'
p488
sg21
Vstr x0, [x29, #0x88]
p489
sg5
L18446743798845686976L
sg6
Nsg23
S'STR'
p490
sg25
S'0xffffffc000d644c0L'
p491
sg27
Nsba(ibclass
BInstr
p492
(dp493
g2
Nsg17
S'STR             X2, [X29,#arg_80]'
p494
sg19
S'a24b00f9'
p495
sg21
Vstr x2, [x29, #0x90]
p496
sg5
L18446743798845686980L
sg6
Nsg23
S'STR'
p497
sg25
S'0xffffffc000d644c4L'
p498
sg27
Nsbasg154
(lp499
S'LDR reg, mem'
p500
aS'MOV reg, #0x40'
p501
aS'CMP reg, WZR'
p502
aS'ADD reg, reg9, #0x68'
p503
aS'ADD reg, reg9, #0x64'
p504
aS'ADD reg, reg8, #0x50'
p505
aS'CSEL reg, WZR, reg, EQ'
p506
aS'STR reg, mem'
p507
aS'STR reg, mem'
p508
aS'STR reg, mem'
p509
asg175
Nsg5
S'0xffffffc000d644a0L'
p510
sg177
(lp511
S'0xffffffc000d64478L'
p512
aS'0xffffffc000d64480L'
p513
asg6
Nsg179
(lp514
S'0xffffffc000d644c8L'
p515
asg183
Nsg184
Nsg185
S'5a0f84643ff4aaabf026427b87500147'
p516
sg187
S'cb8ba39c772d46faa8cdead530c7a3dc'
p517
sg189
(lp518
g434
ag441
ag448
ag455
ag462
ag469
ag476
ag483
ag490
ag497
asg191
Nsba(ibclass
BBasicBlock
p519
(dp520
g12
Nsg13
(lp521
(ibclass
BInstr
p522
(dp523
g2
Nsg17
S'MOV             X0, X28'
p524
sg19
S'e0031caa'
p525
sg21
Vmov x0, x28
p526
sg5
L18446743798845686984L
sg6
Nsg23
S'MOV'
p527
sg25
S'0xffffffc000d644c8L'
p528
sg27
Nsba(ibclass
BInstr
p529
(dp530
g2
Nsg17
S'ORR             W1, W1, W24'
p531
sg19
S'2100182a'
p532
sg21
Vorr w1, w1, w24
p533
sg5
L18446743798845686988L
sg6
Nsg23
S'ORR'
p534
sg25
S'0xffffffc000d644ccL'
p535
sg27
Nsba(ibclass
BInstr
p536
(dp537
g2
Nsg17
S'ADD             X2, X29, #0x68'
p538
sg19
S'a2a30191'
p539
sg21
Vadd x2, x29, #0x68
p540
sg5
L18446743798845686992L
sg6
Nsg23
S'ADD'
p541
sg25
S'0xffffffc000d644d0L'
p542
sg27
Nsba(ibclass
BInstr
p543
(dp544
g2
Nsg17
S'ADD             X3, X29, #0x64'
p545
sg19
S'a3930191'
p546
sg21
Vadd x3, x29, #0x64
p547
sg5
L18446743798845686996L
sg6
Nsg23
S'ADD'
p548
sg25
S'0xffffffc000d644d4L'
p549
sg27
Nsba(ibclass
BInstr
p550
(dp551
g2
Nsg17
S'ADD             X4, X29, #0x60'
p552
sg19
S'a4830191'
p553
sg21
Vadd x4, x29, #0x60
p554
sg5
L18446743798845687000L
sg6
Nsg23
S'ADD'
p555
sg25
S'0xffffffc000d644d8L'
p556
sg27
Nsba(ibclass
BInstr
p557
(dp558
g2
Nsg17
S'BL              __skb_recv_datagram'
p559
sg19
S'a77efc97'
p560
sg21
Vbl #0xfffffffffff1fa9c
p561
sg5
L18446743798845687004L
sg6
Nsg23
S'BL'
p562
sg25
S'0xffffffc000d644dcL'
p563
sg27
Nsba(ibclass
BInstr
p564
(dp565
g2
Nsg17
S'MOV             X27, X0'
p566
sg19
S'fb0300aa'
p567
sg21
Vmov x27, x0
p568
sg5
L18446743798845687008L
sg6
Nsg23
S'MOV'
p569
sg25
S'0xffffffc000d644e0L'
p570
sg27
Nsba(ibclass
BInstr
p571
(dp572
g2
Nsg17
S'CBZ             X0, loc_FFFFFFC000D64830'
p573
sg19
S'601a00b4'
p574
sg21
Vcbz x0, #0x34c
p575
sg5
L18446743798845687012L
sg6
Nsg23
S'CBZ'
p576
sg25
S'0xffffffc000d644e4L'
p577
sg27
Nsbasg154
(lp578
S'MOV reg, reg8'
p579
aS'ORR reg, reg, reg4'
p580
aS'ADD reg, reg9, #0x68'
p581
aS'ADD reg, reg9, #0x64'
p582
aS'ADD reg, reg9, #0x60'
p583
aS'BL __skb_recv_datagram'
p584
aS'MOV reg7, reg'
p585
aS'CBZ reg, func'
p586
asg175
Nsg5
S'0xffffffc000d644c8L'
p587
sg177
(lp588
S'0xffffffc000d644a0L'
p589
aS'0xffffffc000d649a0L'
p590
asg6
Nsg179
(lp591
S'0xffffffc000d644e8L'
p592
aS'0xffffffc000d64830L'
p593
asg183
Nsg184
Nsg185
S'b319cc99531071faa9063f1c1f365626'
p594
sg187
S'c87ceb8497bacd2f31fa107d88162468'
p595
sg189
(lp596
g527
ag534
ag541
ag548
ag555
ag562
ag569
ag576
asg191
Nsba(ibclass
BBasicBlock
p597
(dp598
g12
Nsg13
(lp599
(ibclass
BInstr
p600
(dp601
g2
Nsg17
S'LDR             W25, [X0,#0x68]'
p602
sg19
S'196840b9'
p603
sg21
Vldr w25, [x0, #0x68]
p604
sg5
L18446743798845687016L
sg6
Nsg23
S'LDR'
p605
sg25
S'0xffffffc000d644e8L'
p606
sg27
Nsba(ibclass
BInstr
p607
(dp608
g2
Nsg17
S'MOV             W26, W23'
p609
sg19
S'fa03172a'
p610
sg21
Vmov w26, w23
p611
sg5
L18446743798845687020L
sg6
Nsg23
S'MOV'
p612
sg25
S'0xffffffc000d644ecL'
p613
sg27
Nsba(ibclass
BInstr
p614
(dp615
g2
Nsg17
S'SUB             W25, W25, #8'
p616
sg19
S'39230051'
p617
sg21
Vsub w25, w25, #8
p618
sg5
L18446743798845687024L
sg6
Nsg23
S'SUB'
p619
sg25
S'0xffffffc000d644f0L'
p620
sg27
Nsba(ibclass
BInstr
p621
(dp622
g2
Nsg17
S'CMP             W23, W25'
p623
sg19
S'ff02196b'
p624
sg21
Vcmp w23, w25
p625
sg5
L18446743798845687028L
sg6
Nsg23
S'CMP'
p626
sg25
S'0xffffffc000d644f4L'
p627
sg27
Nsba(ibclass
BInstr
p628
(dp629
g2
Nsg17
S'B.HI            loc_FFFFFFC000D64510'
p630
sg19
S'c8000054'
p631
sg21
Vb.hi #0x18
p632
sg5
L18446743798845687032L
sg6
Nsg23
g152
sg25
S'0xffffffc000d644f8L'
p633
sg27
Nsbasg154
(lp634
S'LDR reg5, mem'
p635
aS'MOV reg6, reg3'
p636
aS'SUB reg5, reg5, #8'
p637
aS'CMP reg3, reg5'
p638
aS'B.HI func'
p639
asg175
Nsg5
S'0xffffffc000d644e8L'
p640
sg177
(lp641
S'0xffffffc000d644c8L'
p642
asg6
Nsg179
(lp643
S'0xffffffc000d644fcL'
p644
aS'0xffffffc000d64510L'
p645
asg183
Nsg184
Nsg185
S'46736493cedd05fc7f8c9658b878b74d'
p646
sg187
S'e6bdff75726a93a74b7b08f8fcea5e57'
p647
sg189
(lp648
g605
ag612
ag619
ag626
ag152
asg191
Nsba(ibclass
BBasicBlock
p649
(dp650
g12
Nsg13
(lp651
(ibclass
BInstr
p652
(dp653
g2
Nsg17
S'B.CS            loc_FFFFFFC000D64514'
p654
sg19
S'c2000054'
p655
sg21
Vb.hs #0x18
p656
sg5
L18446743798845687036L
sg6
Nsg23
g152
sg25
S'0xffffffc000d644fcL'
p657
sg27
Nsbasg154
(lp658
S'B.CS func'
p659
asg175
Nsg5
S'0xffffffc000d644fcL'
p660
sg177
(lp661
S'0xffffffc000d644e8L'
p662
asg6
Nsg179
(lp663
S'0xffffffc000d64500L'
p664
aS'0xffffffc000d64514L'
p665
asg183
Nsg184
Nsg185
S'9d5ed678fe57bcca610140957afab571'
p666
sg187
S'c1217b67b2a52e968a89ed44edbfc2b8'
p667
sg189
(lp668
g152
asg191
Nsba(ibclass
BBasicBlock
p669
(dp670
g12
Nsg13
(lp671
(ibclass
BInstr
p672
(dp673
g2
Nsg17
S'LDR             W0, [X19,#0x30]'
p674
sg19
S'603240b9'
p675
sg21
Vldr w0, [x19, #0x30]
p676
sg5
L18446743798845687040L
sg6
Nsg23
S'LDR'
p677
sg25
S'0xffffffc000d64500L'
p678
sg27
Nsba(ibclass
BInstr
p679
(dp680
g2
Nsg17
S'ORR             W0, W0, #0x20'
p681
sg19
S'00001b32'
p682
sg21
Vorr w0, w0, #0x20
p683
sg5
L18446743798845687044L
sg6
Nsg23
S'ORR'
p684
sg25
S'0xffffffc000d64504L'
p685
sg27
Nsba(ibclass
BInstr
p686
(dp687
g2
Nsg17
S'STR             W0, [X19,#0x30]'
p688
sg19
S'603200b9'
p689
sg21
Vstr w0, [x19, #0x30]
p690
sg5
L18446743798845687048L
sg6
Nsg23
S'STR'
p691
sg25
S'0xffffffc000d64508L'
p692
sg27
Nsba(ibclass
BInstr
p693
(dp694
g2
Nsg17
S'B               loc_FFFFFFC000D64514'
p695
sg19
S'02000014'
p696
sg21
Vb #8
p697
sg5
L18446743798845687052L
sg6
Nsg23
g152
sg25
S'0xffffffc000d6450cL'
p698
sg27
Nsbasg154
(lp699
S'LDR reg, mem'
p700
aS'ORR reg, reg, #0x20'
p701
aS'STR reg, mem'
p702
aS'B func'
p703
asg175
Nsg5
S'0xffffffc000d64500L'
p704
sg177
(lp705
S'0xffffffc000d644fcL'
p706
asg6
Nsg179
(lp707
S'0xffffffc000d64514L'
p708
asg183
Nsg184
Nsg185
S'77e4831cd7c1ae56c713ce33761bbb0a'
p709
sg187
S'a29d56b35021d3594da8ce8874fb01c1'
p710
sg189
(lp711
g677
ag684
ag691
ag152
asg191
Nsba(ibclass
BBasicBlock
p712
(dp713
g12
Nsg13
(lp714
(ibclass
BInstr
p715
(dp716
g2
Nsg17
S'MOV             W26, W25'
p717
sg19
S'fa03192a'
p718
sg21
Vmov w26, w25
p719
sg5
L18446743798845687056L
sg6
Nsg23
S'MOV'
p720
sg25
S'0xffffffc000d64510L'
p721
sg27
Nsbasg154
(lp722
S'MOV reg6, reg5'
p723
asg175
Nsg5
S'0xffffffc000d64510L'
p724
sg177
(lp725
S'0xffffffc000d644e8L'
p726
asg6
Nsg179
(lp727
S'0xffffffc000d64514L'
p728
asg183
Nsg184
Nsg185
S'17b32100aef1fc19670be7fd58bc85df'
p729
sg187
S'c5ab33b1b647d4746b4992da8279e9cd'
p730
sg189
(lp731
g720
asg191
Nsba(ibclass
BBasicBlock
p732
(dp733
g12
Nsg13
(lp734
(ibclass
BInstr
p735
(dp736
g2
Nsg17
S'LDRH            W0, [X27,#0x7E]'
p737
sg19
S'60ff4079'
p738
sg21
Vldrh w0, [x27, #0x7e]
p739
sg5
L18446743798845687060L
sg6
Nsg23
S'LDR'
p740
sg25
S'0xffffffc000d64514L'
p741
sg27
Nsba(ibclass
BInstr
p742
(dp743
g2
Nsg17
S'CMP             W0, #8'
p744
sg19
S'1f200071'
p745
sg21
Vcmp w0, #8
p746
sg5
L18446743798845687064L
sg6
Nsg23
S'CMP'
p747
sg25
S'0xffffffc000d64518L'
p748
sg27
Nsba(ibclass
BInstr
p749
(dp750
g2
Nsg17
S'CSET            W21, EQ'
p751
sg19
S'f5179f1a'
p752
sg21
Vcset w21, eq
p753
sg5
L18446743798845687068L
sg6
Nsg23
S'CSET'
p754
sg25
S'0xffffffc000d6451cL'
p755
sg27
Nsba(ibclass
BInstr
p756
(dp757
g2
Nsg17
S'CMP             W26, W25'
p758
sg19
S'5f03196b'
p759
sg21
Vcmp w26, w25
p760
sg5
L18446743798845687072L
sg6
Nsg23
S'CMP'
p761
sg25
S'0xffffffc000d64520L'
p762
sg27
Nsba(ibclass
BInstr
p763
(dp764
g2
Nsg17
S'B.CC            loc_FFFFFFC000D64530'
p765
sg19
S'63000054'
p766
sg21
Vb.lo #0xc
p767
sg5
L18446743798845687076L
sg6
Nsg23
g152
sg25
S'0xffffffc000d64524L'
p768
sg27
Nsbasg154
(lp769
S'LDRH reg, mem'
p770
aS'CMP reg, #8'
p771
aS'CSET reg1, EQ'
p772
aS'CMP reg6, reg5'
p773
aS'B.CC func'
p774
asg175
Nsg5
S'0xffffffc000d64514L'
p775
sg177
(lp776
S'0xffffffc000d644fcL'
p777
aS'0xffffffc000d64500L'
p778
aS'0xffffffc000d64510L'
p779
asg6
Nsg179
(lp780
S'0xffffffc000d64528L'
p781
aS'0xffffffc000d64530L'
p782
asg183
Nsg184
Nsg185
S'5ade76c49f4c4ddcabfa21f280f0b1f8'
p783
sg187
S'e65a680cd859303f5b7cc3b0aa230fce'
p784
sg189
(lp785
g740
ag747
ag754
ag761
ag152
asg191
Nsba(ibclass
BBasicBlock
p786
(dp787
g12
Nsg13
(lp788
(ibclass
BInstr
p789
(dp790
g2
Nsg17
S'LDRB            W0, [X27,#0x42]'
p791
sg19
S'600b4139'
p792
sg21
Vldrb w0, [x27, #0x42]
p793
sg5
L18446743798845687080L
sg6
Nsg23
S'LDR'
p794
sg25
S'0xffffffc000d64528L'
p795
sg27
Nsba(ibclass
BInstr
p796
(dp797
g2
Nsg17
S'CBZ             W0, loc_FFFFFFC000D6454C'
p798
sg19
S'00010034'
p799
sg21
Vcbz w0, #0x20
p800
sg5
L18446743798845687084L
sg6
Nsg23
S'CBZ'
p801
sg25
S'0xffffffc000d6452cL'
p802
sg27
Nsbasg154
(lp803
S'LDRB reg, mem'
p804
aS'CBZ reg, func'
p805
asg175
Nsg5
S'0xffffffc000d64528L'
p806
sg177
(lp807
S'0xffffffc000d64514L'
p808
asg6
Nsg179
(lp809
S'0xffffffc000d64530L'
p810
aS'0xffffffc000d6454cL'
p811
asg183
Nsg184
Nsg185
S'a0c488049ab653dbdfa1dc805bb83f13'
p812
sg187
S'b1e37b9f660dcea597f0caebd1994bf4'
p813
sg189
(lp814
g794
ag801
asg191
Nsba(ibclass
BBasicBlock
p815
(dp816
g12
Nsg13
(lp817
(ibclass
BInstr
p818
(dp819
g2
Nsg17
S'LDRB            W0, [X27,#0x7C]'
p820
sg19
S'60f34139'
p821
sg21
Vldrb w0, [x27, #0x7c]
p822
sg5
L18446743798845687088L
sg6
Nsg23
S'LDR'
p823
sg25
S'0xffffffc000d64530L'
p824
sg27
Nsba(ibclass
BInstr
p825
(dp826
g2
Nsg17
S'TBNZ            W0, #2, loc_FFFFFFC000D6454C'
p827
sg19
S'c0001037'
p828
sg21
Vtbnz w0, #2, #0x18
p829
sg5
L18446743798845687092L
sg6
Nsg23
S'TBNZ'
p830
sg25
S'0xffffffc000d64534L'
p831
sg27
Nsbasg154
(lp832
S'LDRB reg, mem'
p833
aS'TBNZ reg, #2, func'
p834
asg175
Nsg5
S'0xffffffc000d64530L'
p835
sg177
(lp836
S'0xffffffc000d64514L'
p837
aS'0xffffffc000d64528L'
p838
asg6
Nsg179
(lp839
S'0xffffffc000d64538L'
p840
aS'0xffffffc000d6454cL'
p841
asg183
Nsg184
Nsg185
S'e940763c5833d7cc7e43691c473e7702'
p842
sg187
S'7c7c22e4f6dee56d40a774361a84af02'
p843
sg189
(lp844
g823
ag830
asg191
Nsba(ibclass
BBasicBlock
p845
(dp846
g12
Nsg13
(lp847
(ibclass
BInstr
p848
(dp849
g2
Nsg17
S'LDRH            W1, [X27,#0x40]'
p850
sg19
S'61834079'
p851
sg21
Vldrh w1, [x27, #0x40]
p852
sg5
L18446743798845687096L
sg6
Nsg23
S'LDR'
p853
sg25
S'0xffffffc000d64538L'
p854
sg27
Nsba(ibclass
BInstr
p855
(dp856
g2
Nsg17
S'MOV             X0, X27'
p857
sg19
S'e0031baa'
p858
sg21
Vmov x0, x27
p859
sg5
L18446743798845687100L
sg6
Nsg23
S'MOV'
p860
sg25
S'0xffffffc000d6453cL'
p861
sg27
Nsba(ibclass
BInstr
p862
(dp863
g2
Nsg17
S'BL              __skb_checksum_complete_head'
p864
sg19
S'6581fc97'
p865
sg21
Vbl #0xfffffffffff20594
p866
sg5
L18446743798845687104L
sg6
Nsg23
S'BL'
p867
sg25
S'0xffffffc000d64540L'
p868
sg27
Nsba(ibclass
BInstr
p869
(dp870
g2
Nsg17
S'UBFM            W0, W0, #0, #0xF'
p871
sg19
S'003c0053'
p872
sg21
Vuxth w0, w0
p873
sg5
L18446743798845687108L
sg6
Nsg23
S'UBFM'
p874
sg25
S'0xffffffc000d64544L'
p875
sg27
Nsba(ibclass
BInstr
p876
(dp877
g2
Nsg17
S'CBNZ            W0, loc_FFFFFFC000D64838'
p878
sg19
S'80170035'
p879
sg21
Vcbnz w0, #0x2f0
p880
sg5
L18446743798845687112L
sg6
Nsg23
S'CBNZ'
p881
sg25
S'0xffffffc000d64548L'
p882
sg27
Nsbasg154
(lp883
S'LDRH reg, mem'
p884
aS'MOV reg, reg7'
p885
aS'BL __skb_checksum_complete_head'
p886
aS'UBFM reg, reg, #0, #0xF'
p887
aS'CBNZ reg, func'
p888
asg175
Nsg5
S'0xffffffc000d64538L'
p889
sg177
(lp890
S'0xffffffc000d64530L'
p891
asg6
Nsg179
(lp892
S'0xffffffc000d6454cL'
p893
aS'0xffffffc000d64838L'
p894
asg183
Nsg184
Nsg185
S'555b4a3f3659ec9ecfbc395aaf3bb0c9'
p895
sg187
S'a3a7e34cf9fca790e7a614fbe7d9beca'
p896
sg189
(lp897
g853
ag860
ag867
ag874
ag881
asg191
Nsba(ibclass
BBasicBlock
p898
(dp899
g12
Nsg13
(lp900
(ibclass
BInstr
p901
(dp902
g2
Nsg17
S'LDRB            W0, [X27,#0x7C]'
p903
sg19
S'60f34139'
p904
sg21
Vldrb w0, [x27, #0x7c]
p905
sg5
L18446743798845687116L
sg6
Nsg23
S'LDR'
p906
sg25
S'0xffffffc000d6454cL'
p907
sg27
Nsba(ibclass
BInstr
p908
(dp909
g2
Nsg17
S'TBZ             W0, #2, loc_FFFFFFC000D64570'
p910
sg19
S'00011036'
p911
sg21
Vtbz w0, #2, #0x20
p912
sg5
L18446743798845687120L
sg6
Nsg23
S'TBZ'
p913
sg25
S'0xffffffc000d64550L'
p914
sg27
Nsbasg154
(lp915
S'LDRB reg, mem'
p916
aS'TBZ reg, #2, func'
p917
asg175
Nsg5
S'0xffffffc000d6454cL'
p918
sg177
(lp919
S'0xffffffc000d64528L'
p920
aS'0xffffffc000d64530L'
p921
aS'0xffffffc000d64538L'
p922
asg6
Nsg179
(lp923
S'0xffffffc000d64554L'
p924
aS'0xffffffc000d64570L'
p925
asg183
Nsg184
Nsg185
S'1cf4e33a651c04ed202c51992a2f5549'
p926
sg187
S'9ec8bb8b0a61473c03cee4d0c22e9ace'
p927
sg189
(lp928
g906
ag913
asg191
Nsba(ibclass
BBasicBlock
p929
(dp930
g12
Nsg13
(lp931
(ibclass
BInstr
p932
(dp933
g2
Nsg17
S'LDR             X2, [X19,#0x10]'
p934
sg19
S'620a40f9'
p935
sg21
Vldr x2, [x19, #0x10]
p936
sg5
L18446743798845687124L
sg6
Nsg23
S'LDR'
p937
sg25
S'0xffffffc000d64554L'
p938
sg27
Nsba(ibclass
BInstr
p939
(dp940
g2
Nsg17
S'MOV             X0, X27'
p941
sg19
S'e0031baa'
p942
sg21
Vmov x0, x27
p943
sg5
L18446743798845687128L
sg6
Nsg23
S'MOV'
p944
sg25
S'0xffffffc000d64558L'
p945
sg27
Nsba(ibclass
BInstr
p946
(dp947
g2
Nsg17
S'MOV             W1, #8'
p948
sg19
S'01018052'
p949
sg21
Vmovz w1, #0x8
p950
sg5
L18446743798845687132L
sg6
Nsg23
S'MOV'
p951
sg25
S'0xffffffc000d6455cL'
p952
sg27
Nsba(ibclass
BInstr
p953
(dp954
g2
Nsg17
S'MOV             W3, W26'
p955
sg19
S'e3031a2a'
p956
sg21
Vmov w3, w26
p957
sg5
L18446743798845687136L
sg6
Nsg23
S'MOV'
p958
sg25
S'0xffffffc000d64560L'
p959
sg27
Nsba(ibclass
BInstr
p960
(dp961
g2
Nsg17
S'BL              skb_copy_datagram_iovec'
p962
sg19
S'b07ffc97'
p963
sg21
Vbl #0xfffffffffff1fec0
p964
sg5
L18446743798845687140L
sg6
Nsg23
S'BL'
p965
sg25
S'0xffffffc000d64564L'
p966
sg27
Nsba(ibclass
BInstr
p967
(dp968
g2
Nsg17
S'STR             W0, [X29,#arg_50]'
p969
sg19
S'a06300b9'
p970
sg21
Vstr w0, [x29, #0x60]
p971
sg5
L18446743798845687144L
sg6
Nsg23
S'STR'
p972
sg25
S'0xffffffc000d64568L'
p973
sg27
Nsba(ibclass
BInstr
p974
(dp975
g2
Nsg17
S'B               loc_FFFFFFC000D6458C'
p976
sg19
S'08000014'
p977
sg21
Vb #0x20
p978
sg5
L18446743798845687148L
sg6
Nsg23
g152
sg25
S'0xffffffc000d6456cL'
p979
sg27
Nsbasg154
(lp980
S'LDR reg, mem'
p981
aS'MOV reg, reg7'
p982
aS'MOV reg, #8'
p983
aS'MOV reg, reg6'
p984
aS'BL skb_copy_datagram_iovec'
p985
aS'STR reg, mem'
p986
aS'B func'
p987
asg175
Nsg5
S'0xffffffc000d64554L'
p988
sg177
(lp989
S'0xffffffc000d6454cL'
p990
asg6
Nsg179
(lp991
S'0xffffffc000d6458cL'
p992
asg183
Nsg184
Nsg185
S'd21ee2d75b967d985bed3b9275ca875a'
p993
sg187
S'b20ad21e9393be2babc261870b0ede9e'
p994
sg189
(lp995
g937
ag944
ag951
ag958
ag965
ag972
ag152
asg191
Nsba(ibclass
BBasicBlock
p996
(dp997
g12
Nsg13
(lp998
(ibclass
BInstr
p999
(dp1000
g2
Nsg17
S'LDR             X2, [X19,#0x10]'
p1001
sg19
S'620a40f9'
p1002
sg21
Vldr x2, [x19, #0x10]
p1003
sg5
L18446743798845687152L
sg6
Nsg23
S'LDR'
p1004
sg25
S'0xffffffc000d64570L'
p1005
sg27
Nsba(ibclass
BInstr
p1006
(dp1007
g2
Nsg17
S'MOV             X0, X27'
p1008
sg19
S'e0031baa'
p1009
sg21
Vmov x0, x27
p1010
sg5
L18446743798845687156L
sg6
Nsg23
S'MOV'
p1011
sg25
S'0xffffffc000d64574L'
p1012
sg27
Nsba(ibclass
BInstr
p1013
(dp1014
g2
Nsg17
S'MOV             W1, #8'
p1015
sg19
S'01018052'
p1016
sg21
Vmovz w1, #0x8
p1017
sg5
L18446743798845687160L
sg6
Nsg23
S'MOV'
p1018
sg25
S'0xffffffc000d64578L'
p1019
sg27
Nsba(ibclass
BInstr
p1020
(dp1021
g2
Nsg17
S'BL              skb_copy_and_csum_datagram_iovec'
p1022
sg19
S'7981fc97'
p1023
sg21
Vbl #0xfffffffffff205e4
p1024
sg5
L18446743798845687164L
sg6
Nsg23
S'BL'
p1025
sg25
S'0xffffffc000d6457cL'
p1026
sg27
Nsba(ibclass
BInstr
p1027
(dp1028
g2
Nsg17
S'STR             W0, [X29,#arg_50]'
p1029
sg19
S'a06300b9'
p1030
sg21
Vstr w0, [x29, #0x60]
p1031
sg5
L18446743798845687168L
sg6
Nsg23
S'STR'
p1032
sg25
S'0xffffffc000d64580L'
p1033
sg27
Nsba(ibclass
BInstr
p1034
(dp1035
g2
Nsg17
S'CMN             W0, #0x16'
p1036
sg19
S'1f580031'
p1037
sg21
Vcmn w0, #0x16
p1038
sg5
L18446743798845687172L
sg6
Nsg23
S'CMN'
p1039
sg25
S'0xffffffc000d64584L'
p1040
sg27
Nsba(ibclass
BInstr
p1041
(dp1042
g2
Nsg17
S'B.EQ            loc_FFFFFFC000D64838'
p1043
sg19
S'80150054'
p1044
sg21
Vb.eq #0x2b0
p1045
sg5
L18446743798845687176L
sg6
Nsg23
g152
sg25
S'0xffffffc000d64588L'
p1046
sg27
Nsbasg154
(lp1047
S'LDR reg, mem'
p1048
aS'MOV reg, reg7'
p1049
aS'MOV reg, #8'
p1050
aS'BL skb_copy_and_csum_datagram_iovec'
p1051
aS'STR reg, mem'
p1052
aS'CMN reg, #0x16'
p1053
aS'B.EQ func'
p1054
asg175
Nsg5
S'0xffffffc000d64570L'
p1055
sg177
(lp1056
S'0xffffffc000d6454cL'
p1057
asg6
Nsg179
(lp1058
S'0xffffffc000d6458cL'
p1059
aS'0xffffffc000d64838L'
p1060
asg183
Nsg184
Nsg185
S'5659cdbfe425e151a70c19cae8247c8c'
p1061
sg187
S'5e5a24ccb10ddf2ed94a4bcc9421e409'
p1062
sg189
(lp1063
g1004
ag1011
ag1018
ag1025
ag1032
ag1039
ag152
asg191
Nsba(ibclass
BBasicBlock
p1064
(dp1065
g12
Nsg13
(lp1066
(ibclass
BInstr
p1067
(dp1068
g2
Nsg17
S'LDR             W0, [X29,#arg_50]'
p1069
sg19
S'a06340b9'
p1070
sg21
Vldr w0, [x29, #0x60]
p1071
sg5
L18446743798845687180L
sg6
Nsg23
S'LDR'
p1072
sg25
S'0xffffffc000d6458cL'
p1073
sg27
Nsba(ibclass
BInstr
p1074
(dp1075
g2
Nsg17
S'CBZ             W0, loc_FFFFFFC000D646A0'
p1076
sg19
S'80080034'
p1077
sg21
Vcbz w0, #0x110
p1078
sg5
L18446743798845687184L
sg6
Nsg23
S'CBZ'
p1079
sg25
S'0xffffffc000d64590L'
p1080
sg27
Nsbasg154
(lp1081
S'LDR reg, mem'
p1082
aS'CBZ reg, func'
p1083
asg175
Nsg5
S'0xffffffc000d6458cL'
p1084
sg177
(lp1085
S'0xffffffc000d64554L'
p1086
aS'0xffffffc000d64570L'
p1087
asg6
Nsg179
(lp1088
S'0xffffffc000d64594L'
p1089
aS'0xffffffc000d646a0L'
p1090
asg183
Nsg184
Nsg185
S'a0c488049ab653dbdfa1dc805bb83f13'
p1091
sg187
S'33abe016da9abbebb8608f035d51762d'
p1092
sg189
(lp1093
g1072
ag1079
asg191
Nsba(ibclass
BBasicBlock
p1094
(dp1095
g12
Nsg13
(lp1096
(ibclass
BInstr
p1097
(dp1098
g2
Nsg17
S'ADRP            X0, #qword_FFFFFFC000E45CB8@PAGE'
p1099
sg19
S'000700b0'
p1100
sg21
Vadrp x0, #0xe1000
p1101
sg5
L18446743798845687188L
sg6
Nsg23
S'ADRP'
p1102
sg25
S'0xffffffc000d64594L'
p1103
sg27
Nsba(ibclass
BInstr
p1104
(dp1105
g2
Nsg17
S'LDR             X1, [X0,#qword_FFFFFFC000E45CB8@PAGEOFF]'
p1106
sg19
S'015c46f9'
p1107
sg21
Vldr x1, [x0, #0xcb8]
p1108
sg5
L18446743798845687192L
sg6
Nsg23
S'LDR'
p1109
sg25
S'0xffffffc000d64598L'
p1110
sg27
Nsba(ibclass
BInstr
p1111
(dp1112
g2
Nsg17
S'LDR             W2, [X1,#8]'
p1113
sg19
S'220840b9'
p1114
sg21
Vldr w2, [x1, #8]
p1115
sg5
L18446743798845687196L
sg6
Nsg23
S'LDR'
p1116
sg25
S'0xffffffc000d6459cL'
p1117
sg27
Nsba(ibclass
BInstr
p1118
(dp1119
g2
Nsg17
S'MOV             X1, X0'
p1120
sg19
S'e10300aa'
p1121
sg21
Vmov x1, x0
p1122
sg5
L18446743798845687200L
sg6
Nsg23
S'MOV'
p1123
sg25
S'0xffffffc000d645a0L'
p1124
sg27
Nsba(ibclass
BInstr
p1125
(dp1126
g2
Nsg17
S'CBZ             W2, loc_FFFFFFC000D64610'
p1127
sg19
S'62030034'
p1128
sg21
Vcbz w2, #0x6c
p1129
sg5
L18446743798845687204L
sg6
Nsg23
S'CBZ'
p1130
sg25
S'0xffffffc000d645a4L'
p1131
sg27
Nsbasg154
(lp1132
S'ADRP reg, #func@PAGE'
p1133
aS'LDR reg, mem'
p1134
aS'LDR reg, mem'
p1135
aS'MOV reg, reg'
p1136
aS'CBZ reg, func'
p1137
asg175
Nsg5
S'0xffffffc000d64594L'
p1138
sg177
(lp1139
S'0xffffffc000d6458cL'
p1140
asg6
Nsg179
(lp1141
S'0xffffffc000d645a8L'
p1142
aS'0xffffffc000d64610L'
p1143
asg183
Nsg184
Nsg185
S'035a29e270946bb0185210eaaed17497'
p1144
sg187
S'a9e53a08de38a44669999560b88ca80e'
p1145
sg189
(lp1146
g1102
ag1109
ag1116
ag1123
ag1130
asg191
Nsba(ibclass
BBasicBlock
p1147
(dp1148
g12
Nsg13
(lp1149
(ibclass
BInstr
p1150
(dp1151
g2
Nsg17
S'MOV             X2, SP'
p1152
sg19
S'e2030091'
p1153
sg21
Vmov x2, sp
p1154
sg5
L18446743798845687208L
sg6
Nsg23
S'MOV'
p1155
sg25
S'0xffffffc000d645a8L'
p1156
sg27
Nsba(ibclass
BInstr
p1157
(dp1158
g2
Nsg17
S'AND             X0, X2, #0xFFFFFFFFFFFFC000'
p1159
sg19
S'40c47292'
p1160
sg21
Vand x0, x2, #0xffffffffffffc000
p1161
sg5
L18446743798845687212L
sg6
Nsg23
S'AND'
p1162
sg25
S'0xffffffc000d645acL'
p1163
sg27
Nsba(ibclass
BInstr
p1164
(dp1165
g2
Nsg17
S'LDR             W2, [X0,#0x50]'
p1166
sg19
S'025040b9'
p1167
sg21
Vldr w2, [x0, #0x50]
p1168
sg5
L18446743798845687216L
sg6
Nsg23
S'LDR'
p1169
sg25
S'0xffffffc000d645b0L'
p1170
sg27
Nsba(ibclass
BInstr
p1171
(dp1172
g2
Nsg17
S'ADD             W2, W2, #1'
p1173
sg19
S'42040011'
p1174
sg21
Vadd w2, w2, #1
p1175
sg5
L18446743798845687220L
sg6
Nsg23
S'ADD'
p1176
sg25
S'0xffffffc000d645b4L'
p1177
sg27
Nsba(ibclass
BInstr
p1178
(dp1179
g2
Nsg17
S'STR             W2, [X0,#0x50]'
p1180
sg19
S'025000b9'
p1181
sg21
Vstr w2, [x0, #0x50]
p1182
sg5
L18446743798845687224L
sg6
Nsg23
S'STR'
p1183
sg25
S'0xffffffc000d645b8L'
p1184
sg27
Nsba(ibclass
BInstr
p1185
(dp1186
g2
Nsg17
S'LDR             X0, [X1,#(qword_FFFFFFC000E45CB8 - 0xFFFFFFC000E45000)]'
p1187
sg19
S'205c46f9'
p1188
sg21
Vldr x0, [x1, #0xcb8]
p1189
sg5
L18446743798845687228L
sg6
Nsg23
S'LDR'
p1190
sg25
S'0xffffffc000d645bcL'
p1191
sg27
Nsba(ibclass
BInstr
p1192
(dp1193
g2
Nsg17
S'MOV             X3, SP'
p1194
sg19
S'e3030091'
p1195
sg21
Vmov x3, sp
p1196
sg5
L18446743798845687232L
sg6
Nsg23
S'MOV'
p1197
sg25
S'0xffffffc000d645c0L'
p1198
sg27
Nsba(ibclass
BInstr
p1199
(dp1200
g2
Nsg17
S'LDR             X19, [X0,#0x20]'
p1201
sg19
S'131040f9'
p1202
sg21
Vldr x19, [x0, #0x20]
p1203
sg5
L18446743798845687236L
sg6
Nsg23
S'LDR'
p1204
sg25
S'0xffffffc000d645c4L'
p1205
sg27
Nsba(ibclass
BInstr
p1206
(dp1207
g2
Nsg17
S'AND             X22, X3, #0xFFFFFFFFFFFFC000'
p1208
sg19
S'76c47292'
p1209
sg21
Vand x22, x3, #0xffffffffffffc000
p1210
sg5
L18446743798845687240L
sg6
Nsg23
S'AND'
p1211
sg25
S'0xffffffc000d645c8L'
p1212
sg27
Nsba(ibclass
BInstr
p1213
(dp1214
g2
Nsg17
S'CBZ             X19, loc_FFFFFFC000D645F0'
p1215
sg19
S'330100b4'
p1216
sg21
Vcbz x19, #0x24
p1217
sg5
L18446743798845687244L
sg6
Nsg23
S'CBZ'
p1218
sg25
S'0xffffffc000d645ccL'
p1219
sg27
Nsbasg154
(lp1220
S'MOV reg, SP'
p1221
aS'AND reg, reg, #0xFFFFFFFFFFFFC000'
p1222
aS'LDR reg, mem'
p1223
aS'ADD reg, reg, #1'
p1224
aS'STR reg, mem'
p1225
aS'LDR reg, mem'
p1226
aS'MOV reg, SP'
p1227
aS'LDR reg9, mem'
p1228
aS'AND reg2, reg, #0xFFFFFFFFFFFFC000'
p1229
aS'CBZ reg9, func'
p1230
asg175
Nsg5
S'0xffffffc000d645a8L'
p1231
sg177
(lp1232
S'0xffffffc000d64594L'
p1233
asg6
Nsg179
(lp1234
S'0xffffffc000d645d0L'
p1235
aS'0xffffffc000d645f0L'
p1236
asg183
Nsg184
Nsg185
S'9d816496980b42bc9c6bb0176391be7c'
p1237
sg187
S'ff269cf42fcd0f3ce5408eba731a971d'
p1238
sg189
(lp1239
g1155
ag1162
ag1169
ag1176
ag1183
ag1190
ag1197
ag1204
ag1211
ag1218
asg191
Nsba(ibclass
BBasicBlock
p1240
(dp1241
g12
Nsg13
(lp1242
(ibclass
BInstr
p1243
(dp1244
g2
Nsg17
S'ADRP            X23, #qword_FFFFFFC000E47900@PAGE'
p1245
sg19
S'170700f0'
p1246
sg21
Vadrp x23, #0xe3000
p1247
sg5
L18446743798845687248L
sg6
Nsg23
S'ADRP'
p1248
sg25
S'0xffffffc000d645d0L'
p1249
sg27
Nsbasg154
(lp1250
S'ADRP reg3, #func@PAGE'
p1251
asg175
Nsg5
S'0xffffffc000d645d0L'
p1252
sg177
(lp1253
S'0xffffffc000d645a8L'
p1254
asg6
Nsg179
(lp1255
S'0xffffffc000d645d4L'
p1256
asg183
Nsg184
Nsg185
S'2adfe1e0c47686c9c8e43f858a7adacf'
p1257
sg187
S'295422e7bdc1a17ca697a3f5e336edae'
p1258
sg189
(lp1259
g1248
asg191
Nsba(ibclass
BBasicBlock
p1260
(dp1261
g12
Nsg13
(lp1262
(ibclass
BInstr
p1263
(dp1264
g2
Nsg17
S'LDR             X3, [X19]'
p1265
sg19
S'630240f9'
p1266
sg21
Vldr x3, [x19]
p1267
sg5
L18446743798845687252L
sg6
Nsg23
S'LDR'
p1268
sg25
S'0xffffffc000d645d4L'
p1269
sg27
Nsba(ibclass
BInstr
p1270
(dp1271
g2
Nsg17
S'LDR             X0, [X19,#8]'
p1272
sg19
S'600640f9'
p1273
sg21
Vldr x0, [x19, #8]
p1274
sg5
L18446743798845687256L
sg6
Nsg23
S'LDR'
p1275
sg25
S'0xffffffc000d645d8L'
p1276
sg27
Nsba(ibclass
BInstr
p1277
(dp1278
g2
Nsg17
S'LDR             X2, [X23,#qword_FFFFFFC000E47900@PAGEOFF]'
p1279
sg19
S'e28244f9'
p1280
sg21
Vldr x2, [x23, #0x900]
p1281
sg5
L18446743798845687260L
sg6
Nsg23
S'LDR'
p1282
sg25
S'0xffffffc000d645dcL'
p1283
sg27
Nsba(ibclass
BInstr
p1284
(dp1285
g2
Nsg17
S'MOV             X1, X27'
p1286
sg19
S'e1031baa'
p1287
sg21
Vmov x1, x27
p1288
sg5
L18446743798845687264L
sg6
Nsg23
S'MOV'
p1289
sg25
S'0xffffffc000d645e0L'
p1290
sg27
Nsba(ibclass
BInstr
p1291
(dp1292
g2
Nsg17
S'BLR             X3'
p1293
sg19
S'60003fd6'
p1294
sg21
Vblr x3
p1295
sg5
L18446743798845687268L
sg6
Nsg23
S'BLR'
p1296
sg25
S'0xffffffc000d645e4L'
p1297
sg27
Nsba(ibclass
BInstr
p1298
(dp1299
g2
Nsg17
S'LDR             X0, [X19,#0x10]!'
p1300
sg19
S'600e41f8'
p1301
sg21
Vldr x0, [x19, #0x10]!
p1302
sg5
L18446743798845687272L
sg6
Nsg23
S'LDR'
p1303
sg25
S'0xffffffc000d645e8L'
p1304
sg27
Nsba(ibclass
BInstr
p1305
(dp1306
g2
Nsg17
S'CBNZ            X0, loc_FFFFFFC000D645D4'
p1307
sg19
S'40ffffb5'
p1308
sg21
Vcbnz x0, #0xffffffffffffffe8
p1309
sg5
L18446743798845687276L
sg6
Nsg23
S'CBNZ'
p1310
sg25
S'0xffffffc000d645ecL'
p1311
sg27
Nsbasg154
(lp1312
S'LDR reg, mem'
p1313
aS'LDR reg, mem'
p1314
aS'LDR reg, mem'
p1315
aS'MOV reg, reg7'
p1316
aS'BLR reg'
p1317
aS'LDR reg, mem!'
p1318
aS'CBNZ reg, func'
p1319
asg175
Nsg5
S'0xffffffc000d645d4L'
p1320
sg177
(lp1321
S'0xffffffc000d645d0L'
p1322
aS'0xffffffc000d645d4L'
p1323
asg6
Nsg179
(lp1324
S'0xffffffc000d645f0L'
p1325
aS'0xffffffc000d645d4L'
p1326
asg183
Nsg184
Nsg185
S'ced4110bd58361040fab96d81197b223'
p1327
sg187
S'a0f25a110d2edf72becfc5f95c277931'
p1328
sg189
(lp1329
g1268
ag1275
ag1282
ag1289
ag1296
ag1303
ag1310
asg191
Nsba(ibclass
BBasicBlock
p1330
(dp1331
g12
Nsg13
(lp1332
(ibclass
BInstr
p1333
(dp1334
g2
Nsg17
S'LDR             W0, [X22,#0x50]'
p1335
sg19
S'c05240b9'
p1336
sg21
Vldr w0, [x22, #0x50]
p1337
sg5
L18446743798845687280L
sg6
Nsg23
S'LDR'
p1338
sg25
S'0xffffffc000d645f0L'
p1339
sg27
Nsba(ibclass
BInstr
p1340
(dp1341
g2
Nsg17
S'SUB             W0, W0, #1'
p1342
sg19
S'00040051'
p1343
sg21
Vsub w0, w0, #1
p1344
sg5
L18446743798845687284L
sg6
Nsg23
S'SUB'
p1345
sg25
S'0xffffffc000d645f4L'
p1346
sg27
Nsba(ibclass
BInstr
p1347
(dp1348
g2
Nsg17
S'STR             W0, [X22,#0x50]'
p1349
sg19
S'c05200b9'
p1350
sg21
Vstr w0, [x22, #0x50]
p1351
sg5
L18446743798845687288L
sg6
Nsg23
S'STR'
p1352
sg25
S'0xffffffc000d645f8L'
p1353
sg27
Nsba(ibclass
BInstr
p1354
(dp1355
g2
Nsg17
S'MOV             X2, SP'
p1356
sg19
S'e2030091'
p1357
sg21
Vmov x2, sp
p1358
sg5
L18446743798845687292L
sg6
Nsg23
S'MOV'
p1359
sg25
S'0xffffffc000d645fcL'
p1360
sg27
Nsba(ibclass
BInstr
p1361
(dp1362
g2
Nsg17
S'AND             X0, X2, #0xFFFFFFFFFFFFC000'
p1363
sg19
S'40c47292'
p1364
sg21
Vand x0, x2, #0xffffffffffffc000
p1365
sg5
L18446743798845687296L
sg6
Nsg23
S'AND'
p1366
sg25
S'0xffffffc000d64600L'
p1367
sg27
Nsba(ibclass
BInstr
p1368
(dp1369
g2
Nsg17
S'LDR             X0, [X0]'
p1370
sg19
S'000040f9'
p1371
sg21
Vldr x0, [x0]
p1372
sg5
L18446743798845687300L
sg6
Nsg23
S'LDR'
p1373
sg25
S'0xffffffc000d64604L'
p1374
sg27
Nsba(ibclass
BInstr
p1375
(dp1376
g2
Nsg17
S'TBZ             W0, #1, loc_FFFFFFC000D64610'
p1377
sg19
S'40000836'
p1378
sg21
Vtbz w0, #1, #8
p1379
sg5
L18446743798845687304L
sg6
Nsg23
S'TBZ'
p1380
sg25
S'0xffffffc000d64608L'
p1381
sg27
Nsbasg154
(lp1382
S'LDR reg, mem'
p1383
aS'SUB reg, reg, #1'
p1384
aS'STR reg, mem'
p1385
aS'MOV reg, SP'
p1386
aS'AND reg, reg, #0xFFFFFFFFFFFFC000'
p1387
aS'LDR reg, mem'
p1388
aS'TBZ reg, #1, func'
p1389
asg175
Nsg5
S'0xffffffc000d645f0L'
p1390
sg177
(lp1391
S'0xffffffc000d645a8L'
p1392
aS'0xffffffc000d645d4L'
p1393
asg6
Nsg179
(lp1394
S'0xffffffc000d6460cL'
p1395
aS'0xffffffc000d64610L'
p1396
asg183
Nsg184
Nsg185
S'3720064751a364c91ffbeb0560410e63'
p1397
sg187
S'37582c0faffe5543c0f071979b371e8c'
p1398
sg189
(lp1399
g1338
ag1345
ag1352
ag1359
ag1366
ag1373
ag1380
asg191
Nsba(ibclass
BBasicBlock
p1400
(dp1401
g12
Nsg13
(lp1402
(ibclass
BInstr
p1403
(dp1404
g2
Nsg17
S'BL              preempt_schedule'
p1405
sg19
S'af5f0394'
p1406
sg21
Vbl #0xd7ebc
p1407
sg5
L18446743798845687308L
sg6
Nsg23
S'BL'
p1408
sg25
S'0xffffffc000d6460cL'
p1409
sg27
Nsbasg154
(lp1410
S'BL preempt_schedule'
p1411
asg175
Nsg5
S'0xffffffc000d6460cL'
p1412
sg177
(lp1413
S'0xffffffc000d645f0L'
p1414
asg6
Nsg179
(lp1415
S'0xffffffc000d64610L'
p1416
asg183
Nsg184
Nsg185
S'a6f5350f5a2b25a96d66757f761ce65c'
p1417
sg187
S'abf5f2d6f93e306e960abf1c303135c2'
p1418
sg189
(lp1419
g1408
asg191
Nsba(ibclass
BBasicBlock
p1420
(dp1421
g12
Nsg13
(lp1422
(ibclass
BInstr
p1423
(dp1424
g2
Nsg17
S'LDR             W0, [X29,#arg_58]'
p1425
sg19
S'a06b40b9'
p1426
sg21
Vldr w0, [x29, #0x68]
p1427
sg5
L18446743798845687312L
sg6
Nsg23
S'LDR'
p1428
sg25
S'0xffffffc000d64610L'
p1429
sg27
Nsba(ibclass
BInstr
p1430
(dp1431
g2
Nsg17
S'CBNZ            W0, loc_FFFFFFC000D64824'
p1432
sg19
S'80100035'
p1433
sg21
Vcbnz w0, #0x210
p1434
sg5
L18446743798845687316L
sg6
Nsg23
S'CBNZ'
p1435
sg25
S'0xffffffc000d64614L'
p1436
sg27
Nsbasg154
(lp1437
S'LDR reg, mem'
p1438
aS'CBNZ reg, func'
p1439
asg175
Nsg5
S'0xffffffc000d64610L'
p1440
sg177
(lp1441
S'0xffffffc000d64594L'
p1442
aS'0xffffffc000d645f0L'
p1443
aS'0xffffffc000d6460cL'
p1444
asg6
Nsg179
(lp1445
S'0xffffffc000d64618L'
p1446
aS'0xffffffc000d64824L'
p1447
asg183
Nsg184
Nsg185
S'5522ad3e8b25e3a8f9013bb9571723e7'
p1448
sg187
S'7604765c3c810c2510cc031abcc4f1e2'
p1449
sg189
(lp1450
g1428
ag1435
asg191
Nsba(ibclass
BBasicBlock
p1451
(dp1452
g12
Nsg13
(lp1453
(ibclass
BInstr
p1454
(dp1455
g2
Nsg17
S'ADD             X2, X28, #0xA8'
p1456
sg19
S'82a30291'
p1457
sg21
Vadd x2, x28, #0xa8
p1458
sg5
L18446743798845687320L
sg6
Nsg23
S'ADD'
p1459
sg25
S'0xffffffc000d64618L'
p1460
sg27
Nsbasg154
(lp1461
S'ADD reg, reg8, #0xA8'
p1462
asg175
Nsg5
S'0xffffffc000d64618L'
p1463
sg177
(lp1464
S'0xffffffc000d64610L'
p1465
asg6
Nsg179
(lp1466
S'0xffffffc000d6461cL'
p1467
asg183
Nsg184
Nsg185
S'9eeb52badb613229884838847294b90d'
p1468
sg187
S'361466d0a5f77098a72c2ae38261c21d'
p1469
sg189
(lp1470
g1459
asg191
Nsba(ibclass
BBasicBlock
p1471
(dp1472
g12
Nsg13
(lp1473
(ibclass
BInstr
p1474
(dp1475
g2
Nsg17
S'LDXR            W0, [X2]'
p1476
sg19
S'407c5f88'
p1477
sg21
Vldxr w0, [x2]
p1478
sg5
L18446743798845687324L
sg6
Nsg23
S'LDXR'
p1479
sg25
S'0xffffffc000d6461cL'
p1480
sg27
Nsba(ibclass
BInstr
p1481
(dp1482
g2
Nsg17
S'ADD             W0, W0, #1'
p1483
sg19
S'00040011'
p1484
sg21
Vadd w0, w0, #1
p1485
sg5
L18446743798845687328L
sg6
Nsg23
S'ADD'
p1486
sg25
S'0xffffffc000d64620L'
p1487
sg27
Nsba(ibclass
BInstr
p1488
(dp1489
g2
Nsg17
S'STXR            W1, W0, [X2]'
p1490
sg19
S'407c0188'
p1491
sg21
Vstxr w1, w0, [x2]
p1492
sg5
L18446743798845687332L
sg6
Nsg23
S'STXR'
p1493
sg25
S'0xffffffc000d64624L'
p1494
sg27
Nsba(ibclass
BInstr
p1495
(dp1496
g2
Nsg17
S'CBNZ            W1, loc_FFFFFFC000D6461C'
p1497
sg19
S'a1ffff35'
p1498
sg21
Vcbnz w1, #0xfffffffffffffff4
p1499
sg5
L18446743798845687336L
sg6
Nsg23
S'CBNZ'
p1500
sg25
S'0xffffffc000d64628L'
p1501
sg27
Nsbasg154
(lp1502
S'LDXR reg, mem'
p1503
aS'ADD reg, reg, #1'
p1504
aS'STXR reg, reg, mem'
p1505
aS'CBNZ reg, func'
p1506
asg175
Nsg5
S'0xffffffc000d6461cL'
p1507
sg177
(lp1508
S'0xffffffc000d64618L'
p1509
aS'0xffffffc000d6461cL'
p1510
asg6
Nsg179
(lp1511
S'0xffffffc000d6462cL'
p1512
aS'0xffffffc000d6461cL'
p1513
asg183
Nsg184
Nsg185
S'a5c60fbaf1e978889356fe04f2c424be'
p1514
sg187
S'547079110406dca16a62d69255d5b977'
p1515
sg189
(lp1516
g1479
ag1486
ag1493
ag1500
asg191
Nsba(ibclass
BBasicBlock
p1517
(dp1518
g12
Nsg13
(lp1519
(ibclass
BInstr
p1520
(dp1521
g2
Nsg17
S'CBZ             W21, loc_FFFFFFC000D64674'
p1522
sg19
S'55020034'
p1523
sg21
Vcbz w21, #0x48
p1524
sg5
L18446743798845687340L
sg6
Nsg23
S'CBZ'
p1525
sg25
S'0xffffffc000d6462cL'
p1526
sg27
Nsbasg154
(lp1527
S'CBZ reg1, func'
p1528
asg175
Nsg5
S'0xffffffc000d6462cL'
p1529
sg177
(lp1530
S'0xffffffc000d6461cL'
p1531
asg6
Nsg179
(lp1532
S'0xffffffc000d64630L'
p1533
aS'0xffffffc000d64674L'
p1534
asg183
Nsg184
Nsg185
S'de8e361453cf9f764a4abe9d486f8fbe'
p1535
sg187
S'c618421d27b4dcd978a9e10bf674b688'
p1536
sg189
(lp1537
g1525
asg191
Nsba(ibclass
BBasicBlock
p1538
(dp1539
g12
Nsg13
(lp1540
(ibclass
BInstr
p1541
(dp1542
g2
Nsg17
S'CBZ             W20, loc_FFFFFFC000D64648'
p1543
sg19
S'd4000034'
p1544
sg21
Vcbz w20, #0x18
p1545
sg5
L18446743798845687344L
sg6
Nsg23
S'CBZ'
p1546
sg25
S'0xffffffc000d64630L'
p1547
sg27
Nsbasg154
(lp1548
S'CBZ reg0, func'
p1549
asg175
Nsg5
S'0xffffffc000d64630L'
p1550
sg177
(lp1551
S'0xffffffc000d6462cL'
p1552
asg6
Nsg179
(lp1553
S'0xffffffc000d64634L'
p1554
aS'0xffffffc000d64648L'
p1555
asg183
Nsg184
Nsg185
S'de8e361453cf9f764a4abe9d486f8fbe'
p1556
sg187
S'002fdf30aefe9033232096dde6ad5565'
p1557
sg189
(lp1558
g1546
asg191
Nsba(ibclass
BBasicBlock
p1559
(dp1560
g12
Nsg13
(lp1561
(ibclass
BInstr
p1562
(dp1563
g2
Nsg17
S'MRS             X2, #3, c4, c2, #1'
p1564
sg19
S'22423bd5'
p1565
sg21
Vmrs x2, daif
p1566
sg5
L18446743798845687348L
sg6
Nsg23
S'MRS'
p1567
sg25
S'0xffffffc000d64634L'
p1568
sg27
Nsba(ibclass
BInstr
p1569
(dp1570
g2
Nsg17
S'MSR             #6, #2'
p1571
sg19
S'df4203d5'
p1572
sg21
Vmsr daifset, #2
p1573
sg5
L18446743798845687352L
sg6
Nsg23
S'MSR'
p1574
sg25
S'0xffffffc000d64638L'
p1575
sg27
Nsba(ibclass
BInstr
p1576
(dp1577
g2
Nsg17
S'LDR             X0, [X28,#0x30]'
p1578
sg19
S'801b40f9'
p1579
sg21
Vldr x0, [x28, #0x30]
p1580
sg5
L18446743798845687356L
sg6
Nsg23
S'LDR'
p1581
sg25
S'0xffffffc000d6463cL'
p1582
sg27
Nsba(ibclass
BInstr
p1583
(dp1584
g2
Nsg17
S'LDR             X0, [X0,#0x140]'
p1585
sg19
S'00a040f9'
p1586
sg21
Vldr x0, [x0, #0x140]
p1587
sg5
L18446743798845687360L
sg6
Nsg23
S'LDR'
p1588
sg25
S'0xffffffc000d64640L'
p1589
sg27
Nsba(ibclass
BInstr
p1590
(dp1591
g2
Nsg17
S'B               loc_FFFFFFC000D64658'
p1592
sg19
S'05000014'
p1593
sg21
Vb #0x14
p1594
sg5
L18446743798845687364L
sg6
Nsg23
g152
sg25
S'0xffffffc000d64644L'
p1595
sg27
Nsbasg154
(lp1596
S'MRS reg, #3, c4, c2, #1'
p1597
aS'MSR #6, #2'
p1598
aS'LDR reg, mem'
p1599
aS'LDR reg, mem'
p1600
aS'B func'
p1601
asg175
Nsg5
S'0xffffffc000d64634L'
p1602
sg177
(lp1603
S'0xffffffc000d64630L'
p1604
asg6
Nsg179
(lp1605
S'0xffffffc000d64658L'
p1606
asg183
Nsg184
Nsg185
S'c5653b556b14dd0ea397c5efc1058652'
p1607
sg187
S'4fe0892d7c7075382314830ed69a88b1'
p1608
sg189
(lp1609
g1567
ag1574
ag1581
ag1588
ag152
asg191
Nsba(ibclass
BBasicBlock
p1610
(dp1611
g12
Nsg13
(lp1612
(ibclass
BInstr
p1613
(dp1614
g2
Nsg17
S'MRS             X2, #3, c4, c2, #1'
p1615
sg19
S'22423bd5'
p1616
sg21
Vmrs x2, daif
p1617
sg5
L18446743798845687368L
sg6
Nsg23
S'MRS'
p1618
sg25
S'0xffffffc000d64648L'
p1619
sg27
Nsba(ibclass
BInstr
p1620
(dp1621
g2
Nsg17
S'MSR             #6, #2'
p1622
sg19
S'df4203d5'
p1623
sg21
Vmsr daifset, #2
p1624
sg5
L18446743798845687372L
sg6
Nsg23
S'MSR'
p1625
sg25
S'0xffffffc000d6464cL'
p1626
sg27
Nsba(ibclass
BInstr
p1627
(dp1628
g2
Nsg17
S'LDR             X0, [X28,#0x30]'
p1629
sg19
S'801b40f9'
p1630
sg21
Vldr x0, [x28, #0x30]
p1631
sg5
L18446743798845687376L
sg6
Nsg23
S'LDR'
p1632
sg25
S'0xffffffc000d64650L'
p1633
sg27
Nsba(ibclass
BInstr
p1634
(dp1635
g2
Nsg17
S'LDR             X0, [X0,#0x138]'
p1636
sg19
S'009c40f9'
p1637
sg21
Vldr x0, [x0, #0x138]
p1638
sg5
L18446743798845687380L
sg6
Nsg23
S'LDR'
p1639
sg25
S'0xffffffc000d64654L'
p1640
sg27
Nsbasg154
(lp1641
S'MRS reg, #3, c4, c2, #1'
p1642
aS'MSR #6, #2'
p1643
aS'LDR reg, mem'
p1644
aS'LDR reg, mem'
p1645
asg175
Nsg5
S'0xffffffc000d64648L'
p1646
sg177
(lp1647
S'0xffffffc000d64630L'
p1648
asg6
Nsg179
(lp1649
S'0xffffffc000d64658L'
p1650
asg183
Nsg184
Nsg185
S'4b380b2523fb0e3bafbebfc0ff8c0824'
p1651
sg187
S'27c8a9d4453f60af90802d0ffae6105f'
p1652
sg189
(lp1653
g1618
ag1625
ag1632
ag1639
asg191
Nsba(ibclass
BBasicBlock
p1654
(dp1655
g12
Nsg13
(lp1656
(ibclass
BInstr
p1657
(dp1658
g2
Nsg17
S'MRS             X1, #0, c13, c0, #4'
p1659
sg19
S'81d038d5'
p1660
sg21
Vmrs x1, tpidr_el1
p1661
sg5
L18446743798845687384L
sg6
Nsg23
S'MRS'
p1662
sg25
S'0xffffffc000d64658L'
p1663
sg27
Nsba(ibclass
BInstr
p1664
(dp1665
g2
Nsg17
S'ADD             X0, X0, #0x18'
p1666
sg19
S'00600091'
p1667
sg21
Vadd x0, x0, #0x18
p1668
sg5
L18446743798845687388L
sg6
Nsg23
S'ADD'
p1669
sg25
S'0xffffffc000d6465cL'
p1670
sg27
Nsba(ibclass
BInstr
p1671
(dp1672
g2
Nsg17
S'LDR             X3, [X1,X0]'
p1673
sg19
S'236860f8'
p1674
sg21
Vldr x3, [x1, x0]
p1675
sg5
L18446743798845687392L
sg6
Nsg23
S'LDR'
p1676
sg25
S'0xffffffc000d64660L'
p1677
sg27
Nsba(ibclass
BInstr
p1678
(dp1679
g2
Nsg17
S'ADD             X3, X3, #1'
p1680
sg19
S'63040091'
p1681
sg21
Vadd x3, x3, #1
p1682
sg5
L18446743798845687396L
sg6
Nsg23
S'ADD'
p1683
sg25
S'0xffffffc000d64664L'
p1684
sg27
Nsba(ibclass
BInstr
p1685
(dp1686
g2
Nsg17
S'STR             X3, [X1,X0]'
p1687
sg19
S'236820f8'
p1688
sg21
Vstr x3, [x1, x0]
p1689
sg5
L18446743798845687400L
sg6
Nsg23
S'STR'
p1690
sg25
S'0xffffffc000d64668L'
p1691
sg27
Nsba(ibclass
BInstr
p1692
(dp1693
g2
Nsg17
S'MSR             #3, c4, c2, #1, X2'
p1694
sg19
S'22421bd5'
p1695
sg21
Vmsr daif, x2
p1696
sg5
L18446743798845687404L
sg6
Nsg23
S'MSR'
p1697
sg25
S'0xffffffc000d6466cL'
p1698
sg27
Nsba(ibclass
BInstr
p1699
(dp1700
g2
Nsg17
S'B               loc_FFFFFFC000D64824'
p1701
sg19
S'6d000014'
p1702
sg21
Vb #0x1b4
p1703
sg5
L18446743798845687408L
sg6
Nsg23
g152
sg25
S'0xffffffc000d64670L'
p1704
sg27
Nsbasg154
(lp1705
S'MRS reg, #0, c13, c0, #4'
p1706
aS'ADD reg, reg, #0x18'
p1707
aS'LDR reg, mem'
p1708
aS'ADD reg, reg, #1'
p1709
aS'STR reg, mem'
p1710
aS'MSR #3, c4, c2, #1, reg'
p1711
aS'B func'
p1712
asg175
Nsg5
S'0xffffffc000d64658L'
p1713
sg177
(lp1714
S'0xffffffc000d64634L'
p1715
aS'0xffffffc000d64648L'
p1716
aS'0xffffffc000d64678L'
p1717
aS'0xffffffc000d6468cL'
p1718
asg6
Nsg179
(lp1719
S'0xffffffc000d64824L'
p1720
asg183
Nsg184
Nsg185
S'79534139e24b04220f6a648032e41547'
p1721
sg187
S'2c27b26abcf495cdded6d51fd9e43723'
p1722
sg189
(lp1723
g1662
ag1669
ag1676
ag1683
ag1690
ag1697
ag152
asg191
Nsba(ibclass
BBasicBlock
p1724
(dp1725
g12
Nsg13
(lp1726
(ibclass
BInstr
p1727
(dp1728
g2
Nsg17
S'CBZ             W20, loc_FFFFFFC000D6468C'
p1729
sg19
S'd4000034'
p1730
sg21
Vcbz w20, #0x18
p1731
sg5
L18446743798845687412L
sg6
Nsg23
S'CBZ'
p1732
sg25
S'0xffffffc000d64674L'
p1733
sg27
Nsbasg154
(lp1734
S'CBZ reg0, func'
p1735
asg175
Nsg5
S'0xffffffc000d64674L'
p1736
sg177
(lp1737
S'0xffffffc000d6462cL'
p1738
asg6
Nsg179
(lp1739
S'0xffffffc000d64678L'
p1740
aS'0xffffffc000d6468cL'
p1741
asg183
Nsg184
Nsg185
S'de8e361453cf9f764a4abe9d486f8fbe'
p1742
sg187
S'002fdf30aefe9033232096dde6ad5565'
p1743
sg189
(lp1744
g1732
asg191
Nsba(ibclass
BBasicBlock
p1745
(dp1746
g12
Nsg13
(lp1747
(ibclass
BInstr
p1748
(dp1749
g2
Nsg17
S'MRS             X2, #3, c4, c2, #1'
p1750
sg19
S'22423bd5'
p1751
sg21
Vmrs x2, daif
p1752
sg5
L18446743798845687416L
sg6
Nsg23
S'MRS'
p1753
sg25
S'0xffffffc000d64678L'
p1754
sg27
Nsba(ibclass
BInstr
p1755
(dp1756
g2
Nsg17
S'MSR             #6, #2'
p1757
sg19
S'df4203d5'
p1758
sg21
Vmsr daifset, #2
p1759
sg5
L18446743798845687420L
sg6
Nsg23
S'MSR'
p1760
sg25
S'0xffffffc000d6467cL'
p1761
sg27
Nsba(ibclass
BInstr
p1762
(dp1763
g2
Nsg17
S'LDR             X0, [X28,#0x30]'
p1764
sg19
S'801b40f9'
p1765
sg21
Vldr x0, [x28, #0x30]
p1766
sg5
L18446743798845687424L
sg6
Nsg23
S'LDR'
p1767
sg25
S'0xffffffc000d64680L'
p1768
sg27
Nsba(ibclass
BInstr
p1769
(dp1770
g2
Nsg17
S'LDR             X0, [X0,#0x168]'
p1771
sg19
S'00b440f9'
p1772
sg21
Vldr x0, [x0, #0x168]
p1773
sg5
L18446743798845687428L
sg6
Nsg23
S'LDR'
p1774
sg25
S'0xffffffc000d64684L'
p1775
sg27
Nsba(ibclass
BInstr
p1776
(dp1777
g2
Nsg17
S'B               loc_FFFFFFC000D64658'
p1778
sg19
S'f4ffff17'
p1779
sg21
Vb #0xffffffffffffffd0
p1780
sg5
L18446743798845687432L
sg6
Nsg23
g152
sg25
S'0xffffffc000d64688L'
p1781
sg27
Nsbasg154
(lp1782
S'MRS reg, #3, c4, c2, #1'
p1783
aS'MSR #6, #2'
p1784
aS'LDR reg, mem'
p1785
aS'LDR reg, mem'
p1786
aS'B func'
p1787
asg175
Nsg5
S'0xffffffc000d64678L'
p1788
sg177
(lp1789
S'0xffffffc000d64674L'
p1790
asg6
Nsg179
(lp1791
S'0xffffffc000d64658L'
p1792
asg183
Nsg184
Nsg185
S'c5653b556b14dd0ea397c5efc1058652'
p1793
sg187
S'4fe0892d7c7075382314830ed69a88b1'
p1794
sg189
(lp1795
g1753
ag1760
ag1767
ag1774
ag152
asg191
Nsba(ibclass
BBasicBlock
p1796
(dp1797
g12
Nsg13
(lp1798
(ibclass
BInstr
p1799
(dp1800
g2
Nsg17
S'MRS             X2, #3, c4, c2, #1'
p1801
sg19
S'22423bd5'
p1802
sg21
Vmrs x2, daif
p1803
sg5
L18446743798845687436L
sg6
Nsg23
S'MRS'
p1804
sg25
S'0xffffffc000d6468cL'
p1805
sg27
Nsba(ibclass
BInstr
p1806
(dp1807
g2
Nsg17
S'MSR             #6, #2'
p1808
sg19
S'df4203d5'
p1809
sg21
Vmsr daifset, #2
p1810
sg5
L18446743798845687440L
sg6
Nsg23
S'MSR'
p1811
sg25
S'0xffffffc000d64690L'
p1812
sg27
Nsba(ibclass
BInstr
p1813
(dp1814
g2
Nsg17
S'LDR             X0, [X28,#0x30]'
p1815
sg19
S'801b40f9'
p1816
sg21
Vldr x0, [x28, #0x30]
p1817
sg5
L18446743798845687444L
sg6
Nsg23
S'LDR'
p1818
sg25
S'0xffffffc000d64694L'
p1819
sg27
Nsba(ibclass
BInstr
p1820
(dp1821
g2
Nsg17
S'LDR             X0, [X0,#0x160]'
p1822
sg19
S'00b040f9'
p1823
sg21
Vldr x0, [x0, #0x160]
p1824
sg5
L18446743798845687448L
sg6
Nsg23
S'LDR'
p1825
sg25
S'0xffffffc000d64698L'
p1826
sg27
Nsba(ibclass
BInstr
p1827
(dp1828
g2
Nsg17
S'B               loc_FFFFFFC000D64658'
p1829
sg19
S'efffff17'
p1830
sg21
Vb #0xffffffffffffffbc
p1831
sg5
L18446743798845687452L
sg6
Nsg23
g152
sg25
S'0xffffffc000d6469cL'
p1832
sg27
Nsbasg154
(lp1833
S'MRS reg, #3, c4, c2, #1'
p1834
aS'MSR #6, #2'
p1835
aS'LDR reg, mem'
p1836
aS'LDR reg, mem'
p1837
aS'B func'
p1838
asg175
Nsg5
S'0xffffffc000d6468cL'
p1839
sg177
(lp1840
S'0xffffffc000d64674L'
p1841
asg6
Nsg179
(lp1842
S'0xffffffc000d64658L'
p1843
asg183
Nsg184
Nsg185
S'c5653b556b14dd0ea397c5efc1058652'
p1844
sg187
S'4fe0892d7c7075382314830ed69a88b1'
p1845
sg189
(lp1846
g1804
ag1811
ag1818
ag1825
ag152
asg191
Nsba(ibclass
BBasicBlock
p1847
(dp1848
g12
Nsg13
(lp1849
(ibclass
BInstr
p1850
(dp1851
g2
Nsg17
S'LDR             W0, [X29,#arg_58]'
p1852
sg19
S'a06b40b9'
p1853
sg21
Vldr w0, [x29, #0x68]
p1854
sg5
L18446743798845687456L
sg6
Nsg23
S'LDR'
p1855
sg25
S'0xffffffc000d646a0L'
p1856
sg27
Nsba(ibclass
BInstr
p1857
(dp1858
g2
Nsg17
S'CBNZ            W0, loc_FFFFFFC000D64718'
p1859
sg19
S'a0030035'
p1860
sg21
Vcbnz w0, #0x74
p1861
sg5
L18446743798845687460L
sg6
Nsg23
S'CBNZ'
p1862
sg25
S'0xffffffc000d646a4L'
p1863
sg27
Nsbasg154
(lp1864
S'LDR reg, mem'
p1865
aS'CBNZ reg, func'
p1866
asg175
Nsg5
S'0xffffffc000d646a0L'
p1867
sg177
(lp1868
S'0xffffffc000d6458cL'
p1869
asg6
Nsg179
(lp1870
S'0xffffffc000d646a8L'
p1871
aS'0xffffffc000d64718L'
p1872
asg183
Nsg184
Nsg185
S'5522ad3e8b25e3a8f9013bb9571723e7'
p1873
sg187
S'7604765c3c810c2510cc031abcc4f1e2'
p1874
sg189
(lp1875
g1855
ag1862
asg191
Nsba(ibclass
BBasicBlock
p1876
(dp1877
g12
Nsg13
(lp1878
(ibclass
BInstr
p1879
(dp1880
g2
Nsg17
S'CBZ             W21, loc_FFFFFFC000D646D8'
p1881
sg19
S'95010034'
p1882
sg21
Vcbz w21, #0x30
p1883
sg5
L18446743798845687464L
sg6
Nsg23
S'CBZ'
p1884
sg25
S'0xffffffc000d646a8L'
p1885
sg27
Nsbasg154
(lp1886
S'CBZ reg1, func'
p1887
asg175
Nsg5
S'0xffffffc000d646a8L'
p1888
sg177
(lp1889
S'0xffffffc000d646a0L'
p1890
asg6
Nsg179
(lp1891
S'0xffffffc000d646acL'
p1892
aS'0xffffffc000d646d8L'
p1893
asg183
Nsg184
Nsg185
S'de8e361453cf9f764a4abe9d486f8fbe'
p1894
sg187
S'c618421d27b4dcd978a9e10bf674b688'
p1895
sg189
(lp1896
g1884
asg191
Nsba(ibclass
BBasicBlock
p1897
(dp1898
g12
Nsg13
(lp1899
(ibclass
BInstr
p1900
(dp1901
g2
Nsg17
S'CBZ             W20, loc_FFFFFFC000D646C4'
p1902
sg19
S'd4000034'
p1903
sg21
Vcbz w20, #0x18
p1904
sg5
L18446743798845687468L
sg6
Nsg23
S'CBZ'
p1905
sg25
S'0xffffffc000d646acL'
p1906
sg27
Nsbasg154
(lp1907
S'CBZ reg0, func'
p1908
asg175
Nsg5
S'0xffffffc000d646acL'
p1909
sg177
(lp1910
S'0xffffffc000d646a8L'
p1911
asg6
Nsg179
(lp1912
S'0xffffffc000d646b0L'
p1913
aS'0xffffffc000d646c4L'
p1914
asg183
Nsg184
Nsg185
S'de8e361453cf9f764a4abe9d486f8fbe'
p1915
sg187
S'002fdf30aefe9033232096dde6ad5565'
p1916
sg189
(lp1917
g1905
asg191
Nsba(ibclass
BBasicBlock
p1918
(dp1919
g12
Nsg13
(lp1920
(ibclass
BInstr
p1921
(dp1922
g2
Nsg17
S'MRS             X2, #3, c4, c2, #1'
p1923
sg19
S'22423bd5'
p1924
sg21
Vmrs x2, daif
p1925
sg5
L18446743798845687472L
sg6
Nsg23
S'MRS'
p1926
sg25
S'0xffffffc000d646b0L'
p1927
sg27
Nsba(ibclass
BInstr
p1928
(dp1929
g2
Nsg17
S'MSR             #6, #2'
p1930
sg19
S'df4203d5'
p1931
sg21
Vmsr daifset, #2
p1932
sg5
L18446743798845687476L
sg6
Nsg23
S'MSR'
p1933
sg25
S'0xffffffc000d646b4L'
p1934
sg27
Nsba(ibclass
BInstr
p1935
(dp1936
g2
Nsg17
S'LDR             X0, [X28,#0x30]'
p1937
sg19
S'801b40f9'
p1938
sg21
Vldr x0, [x28, #0x30]
p1939
sg5
L18446743798845687480L
sg6
Nsg23
S'LDR'
p1940
sg25
S'0xffffffc000d646b8L'
p1941
sg27
Nsba(ibclass
BInstr
p1942
(dp1943
g2
Nsg17
S'LDR             X0, [X0,#0x140]'
p1944
sg19
S'00a040f9'
p1945
sg21
Vldr x0, [x0, #0x140]
p1946
sg5
L18446743798845687484L
sg6
Nsg23
S'LDR'
p1947
sg25
S'0xffffffc000d646bcL'
p1948
sg27
Nsba(ibclass
BInstr
p1949
(dp1950
g2
Nsg17
S'B               loc_FFFFFFC000D64700'
p1951
sg19
S'10000014'
p1952
sg21
Vb #0x40
p1953
sg5
L18446743798845687488L
sg6
Nsg23
g152
sg25
S'0xffffffc000d646c0L'
p1954
sg27
Nsbasg154
(lp1955
S'MRS reg, #3, c4, c2, #1'
p1956
aS'MSR #6, #2'
p1957
aS'LDR reg, mem'
p1958
aS'LDR reg, mem'
p1959
aS'B func'
p1960
asg175
Nsg5
S'0xffffffc000d646b0L'
p1961
sg177
(lp1962
S'0xffffffc000d646acL'
p1963
asg6
Nsg179
(lp1964
S'0xffffffc000d64700L'
p1965
asg183
Nsg184
Nsg185
S'c5653b556b14dd0ea397c5efc1058652'
p1966
sg187
S'4fe0892d7c7075382314830ed69a88b1'
p1967
sg189
(lp1968
g1926
ag1933
ag1940
ag1947
ag152
asg191
Nsba(ibclass
BBasicBlock
p1969
(dp1970
g12
Nsg13
(lp1971
(ibclass
BInstr
p1972
(dp1973
g2
Nsg17
S'MRS             X2, #3, c4, c2, #1'
p1974
sg19
S'22423bd5'
p1975
sg21
Vmrs x2, daif
p1976
sg5
L18446743798845687492L
sg6
Nsg23
S'MRS'
p1977
sg25
S'0xffffffc000d646c4L'
p1978
sg27
Nsba(ibclass
BInstr
p1979
(dp1980
g2
Nsg17
S'MSR             #6, #2'
p1981
sg19
S'df4203d5'
p1982
sg21
Vmsr daifset, #2
p1983
sg5
L18446743798845687496L
sg6
Nsg23
S'MSR'
p1984
sg25
S'0xffffffc000d646c8L'
p1985
sg27
Nsba(ibclass
BInstr
p1986
(dp1987
g2
Nsg17
S'LDR             X0, [X28,#0x30]'
p1988
sg19
S'801b40f9'
p1989
sg21
Vldr x0, [x28, #0x30]
p1990
sg5
L18446743798845687500L
sg6
Nsg23
S'LDR'
p1991
sg25
S'0xffffffc000d646ccL'
p1992
sg27
Nsba(ibclass
BInstr
p1993
(dp1994
g2
Nsg17
S'LDR             X0, [X0,#0x138]'
p1995
sg19
S'009c40f9'
p1996
sg21
Vldr x0, [x0, #0x138]
p1997
sg5
L18446743798845687504L
sg6
Nsg23
S'LDR'
p1998
sg25
S'0xffffffc000d646d0L'
p1999
sg27
Nsba(ibclass
BInstr
p2000
(dp2001
g2
Nsg17
S'B               loc_FFFFFFC000D64700'
p2002
sg19
S'0b000014'
p2003
sg21
Vb #0x2c
p2004
sg5
L18446743798845687508L
sg6
Nsg23
g152
sg25
S'0xffffffc000d646d4L'
p2005
sg27
Nsbasg154
(lp2006
S'MRS reg, #3, c4, c2, #1'
p2007
aS'MSR #6, #2'
p2008
aS'LDR reg, mem'
p2009
aS'LDR reg, mem'
p2010
aS'B func'
p2011
asg175
Nsg5
S'0xffffffc000d646c4L'
p2012
sg177
(lp2013
S'0xffffffc000d646acL'
p2014
asg6
Nsg179
(lp2015
S'0xffffffc000d64700L'
p2016
asg183
Nsg184
Nsg185
S'c5653b556b14dd0ea397c5efc1058652'
p2017
sg187
S'4fe0892d7c7075382314830ed69a88b1'
p2018
sg189
(lp2019
g1977
ag1984
ag1991
ag1998
ag152
asg191
Nsba(ibclass
BBasicBlock
p2020
(dp2021
g12
Nsg13
(lp2022
(ibclass
BInstr
p2023
(dp2024
g2
Nsg17
S'CBZ             W20, loc_FFFFFFC000D646F0'
p2025
sg19
S'd4000034'
p2026
sg21
Vcbz w20, #0x18
p2027
sg5
L18446743798845687512L
sg6
Nsg23
S'CBZ'
p2028
sg25
S'0xffffffc000d646d8L'
p2029
sg27
Nsbasg154
(lp2030
S'CBZ reg0, func'
p2031
asg175
Nsg5
S'0xffffffc000d646d8L'
p2032
sg177
(lp2033
S'0xffffffc000d646a8L'
p2034
asg6
Nsg179
(lp2035
S'0xffffffc000d646dcL'
p2036
aS'0xffffffc000d646f0L'
p2037
asg183
Nsg184
Nsg185
S'de8e361453cf9f764a4abe9d486f8fbe'
p2038
sg187
S'002fdf30aefe9033232096dde6ad5565'
p2039
sg189
(lp2040
g2028
asg191
Nsba(ibclass
BBasicBlock
p2041
(dp2042
g12
Nsg13
(lp2043
(ibclass
BInstr
p2044
(dp2045
g2
Nsg17
S'MRS             X2, #3, c4, c2, #1'
p2046
sg19
S'22423bd5'
p2047
sg21
Vmrs x2, daif
p2048
sg5
L18446743798845687516L
sg6
Nsg23
S'MRS'
p2049
sg25
S'0xffffffc000d646dcL'
p2050
sg27
Nsba(ibclass
BInstr
p2051
(dp2052
g2
Nsg17
S'MSR             #6, #2'
p2053
sg19
S'df4203d5'
p2054
sg21
Vmsr daifset, #2
p2055
sg5
L18446743798845687520L
sg6
Nsg23
S'MSR'
p2056
sg25
S'0xffffffc000d646e0L'
p2057
sg27
Nsba(ibclass
BInstr
p2058
(dp2059
g2
Nsg17
S'LDR             X0, [X28,#0x30]'
p2060
sg19
S'801b40f9'
p2061
sg21
Vldr x0, [x28, #0x30]
p2062
sg5
L18446743798845687524L
sg6
Nsg23
S'LDR'
p2063
sg25
S'0xffffffc000d646e4L'
p2064
sg27
Nsba(ibclass
BInstr
p2065
(dp2066
g2
Nsg17
S'LDR             X0, [X0,#0x168]'
p2067
sg19
S'00b440f9'
p2068
sg21
Vldr x0, [x0, #0x168]
p2069
sg5
L18446743798845687528L
sg6
Nsg23
S'LDR'
p2070
sg25
S'0xffffffc000d646e8L'
p2071
sg27
Nsba(ibclass
BInstr
p2072
(dp2073
g2
Nsg17
S'B               loc_FFFFFFC000D64700'
p2074
sg19
S'05000014'
p2075
sg21
Vb #0x14
p2076
sg5
L18446743798845687532L
sg6
Nsg23
g152
sg25
S'0xffffffc000d646ecL'
p2077
sg27
Nsbasg154
(lp2078
S'MRS reg, #3, c4, c2, #1'
p2079
aS'MSR #6, #2'
p2080
aS'LDR reg, mem'
p2081
aS'LDR reg, mem'
p2082
aS'B func'
p2083
asg175
Nsg5
S'0xffffffc000d646dcL'
p2084
sg177
(lp2085
S'0xffffffc000d646d8L'
p2086
asg6
Nsg179
(lp2087
S'0xffffffc000d64700L'
p2088
asg183
Nsg184
Nsg185
S'c5653b556b14dd0ea397c5efc1058652'
p2089
sg187
S'4fe0892d7c7075382314830ed69a88b1'
p2090
sg189
(lp2091
g2049
ag2056
ag2063
ag2070
ag152
asg191
Nsba(ibclass
BBasicBlock
p2092
(dp2093
g12
Nsg13
(lp2094
(ibclass
BInstr
p2095
(dp2096
g2
Nsg17
S'MRS             X2, #3, c4, c2, #1'
p2097
sg19
S'22423bd5'
p2098
sg21
Vmrs x2, daif
p2099
sg5
L18446743798845687536L
sg6
Nsg23
S'MRS'
p2100
sg25
S'0xffffffc000d646f0L'
p2101
sg27
Nsba(ibclass
BInstr
p2102
(dp2103
g2
Nsg17
S'MSR             #6, #2'
p2104
sg19
S'df4203d5'
p2105
sg21
Vmsr daifset, #2
p2106
sg5
L18446743798845687540L
sg6
Nsg23
S'MSR'
p2107
sg25
S'0xffffffc000d646f4L'
p2108
sg27
Nsba(ibclass
BInstr
p2109
(dp2110
g2
Nsg17
S'LDR             X0, [X28,#0x30]'
p2111
sg19
S'801b40f9'
p2112
sg21
Vldr x0, [x28, #0x30]
p2113
sg5
L18446743798845687544L
sg6
Nsg23
S'LDR'
p2114
sg25
S'0xffffffc000d646f8L'
p2115
sg27
Nsba(ibclass
BInstr
p2116
(dp2117
g2
Nsg17
S'LDR             X0, [X0,#0x160]'
p2118
sg19
S'00b040f9'
p2119
sg21
Vldr x0, [x0, #0x160]
p2120
sg5
L18446743798845687548L
sg6
Nsg23
S'LDR'
p2121
sg25
S'0xffffffc000d646fcL'
p2122
sg27
Nsbasg154
(lp2123
S'MRS reg, #3, c4, c2, #1'
p2124
aS'MSR #6, #2'
p2125
aS'LDR reg, mem'
p2126
aS'LDR reg, mem'
p2127
asg175
Nsg5
S'0xffffffc000d646f0L'
p2128
sg177
(lp2129
S'0xffffffc000d646d8L'
p2130
asg6
Nsg179
(lp2131
S'0xffffffc000d64700L'
p2132
asg183
Nsg184
Nsg185
S'4b380b2523fb0e3bafbebfc0ff8c0824'
p2133
sg187
S'27c8a9d4453f60af90802d0ffae6105f'
p2134
sg189
(lp2135
g2100
ag2107
ag2114
ag2121
asg191
Nsba(ibclass
BBasicBlock
p2136
(dp2137
g12
Nsg13
(lp2138
(ibclass
BInstr
p2139
(dp2140
g2
Nsg17
S'MRS             X1, #0, c13, c0, #4'
p2141
sg19
S'81d038d5'
p2142
sg21
Vmrs x1, tpidr_el1
p2143
sg5
L18446743798845687552L
sg6
Nsg23
S'MRS'
p2144
sg25
S'0xffffffc000d64700L'
p2145
sg27
Nsba(ibclass
BInstr
p2146
(dp2147
g2
Nsg17
S'ADD             X0, X0, #8'
p2148
sg19
S'00200091'
p2149
sg21
Vadd x0, x0, #8
p2150
sg5
L18446743798845687556L
sg6
Nsg23
S'ADD'
p2151
sg25
S'0xffffffc000d64704L'
p2152
sg27
Nsba(ibclass
BInstr
p2153
(dp2154
g2
Nsg17
S'LDR             X3, [X1,X0]'
p2155
sg19
S'236860f8'
p2156
sg21
Vldr x3, [x1, x0]
p2157
sg5
L18446743798845687560L
sg6
Nsg23
S'LDR'
p2158
sg25
S'0xffffffc000d64708L'
p2159
sg27
Nsba(ibclass
BInstr
p2160
(dp2161
g2
Nsg17
S'ADD             X3, X3, #1'
p2162
sg19
S'63040091'
p2163
sg21
Vadd x3, x3, #1
p2164
sg5
L18446743798845687564L
sg6
Nsg23
S'ADD'
p2165
sg25
S'0xffffffc000d6470cL'
p2166
sg27
Nsba(ibclass
BInstr
p2167
(dp2168
g2
Nsg17
S'STR             X3, [X1,X0]'
p2169
sg19
S'236820f8'
p2170
sg21
Vstr x3, [x1, x0]
p2171
sg5
L18446743798845687568L
sg6
Nsg23
S'STR'
p2172
sg25
S'0xffffffc000d64710L'
p2173
sg27
Nsba(ibclass
BInstr
p2174
(dp2175
g2
Nsg17
S'MSR             #3, c4, c2, #1, X2'
p2176
sg19
S'22421bd5'
p2177
sg21
Vmsr daif, x2
p2178
sg5
L18446743798845687572L
sg6
Nsg23
S'MSR'
p2179
sg25
S'0xffffffc000d64714L'
p2180
sg27
Nsbasg154
(lp2181
S'MRS reg, #0, c13, c0, #4'
p2182
aS'ADD reg, reg, #8'
p2183
aS'LDR reg, mem'
p2184
aS'ADD reg, reg, #1'
p2185
aS'STR reg, mem'
p2186
aS'MSR #3, c4, c2, #1, reg'
p2187
asg175
Nsg5
S'0xffffffc000d64700L'
p2188
sg177
(lp2189
S'0xffffffc000d646b0L'
p2190
aS'0xffffffc000d646c4L'
p2191
aS'0xffffffc000d646dcL'
p2192
aS'0xffffffc000d646f0L'
p2193
asg6
Nsg179
(lp2194
S'0xffffffc000d64718L'
p2195
asg183
Nsg184
Nsg185
S'234390ebb4acd3efb86a3bdf88d932e8'
p2196
sg187
S'bff936dec764f568ca91e301910de3f6'
p2197
sg189
(lp2198
g2144
ag2151
ag2158
ag2165
ag2172
ag2179
asg191
Nsba(ibclass
BBasicBlock
p2199
(dp2200
g12
Nsg13
(lp2201
(ibclass
BInstr
p2202
(dp2203
g2
Nsg17
S'LDR             X1, [X28,#0xD0]'
p2204
sg19
S'816b40f9'
p2205
sg21
Vldr x1, [x28, #0xd0]
p2206
sg5
L18446743798845687576L
sg6
Nsg23
S'LDR'
p2207
sg25
S'0xffffffc000d64718L'
p2208
sg27
Nsba(ibclass
BInstr
p2209
(dp2210
g2
Nsg17
S'MOV             X0, #0x800'
p2211
sg19
S'000081d2'
p2212
sg21
Vmovz x0, #0x800
p2213
sg5
L18446743798845687580L
sg6
Nsg23
S'MOV'
p2214
sg25
S'0xffffffc000d6471cL'
p2215
sg27
Nsba(ibclass
BInstr
p2216
(dp2217
g2
Nsg17
S'MOVK            X0, #0x178,LSL#16'
p2218
sg19
S'002fa0f2'
p2219
sg21
Vmovk x0, #0x178, lsl #16
p2220
sg5
L18446743798845687584L
sg6
Nsg23
S'MOVK'
p2221
sg25
S'0xffffffc000d64720L'
p2222
sg27
Nsba(ibclass
BInstr
p2223
(dp2224
g2
Nsg17
S'TST             X1, X0'
p2225
sg19
S'3f0000ea'
p2226
sg21
Vtst x1, x0
p2227
sg5
L18446743798845687588L
sg6
Nsg23
S'TST'
p2228
sg25
S'0xffffffc000d64724L'
p2229
sg27
Nsba(ibclass
BInstr
p2230
(dp2231
g2
Nsg17
S'B.EQ            loc_FFFFFFC000D64740'
p2232
sg19
S'c0000054'
p2233
sg21
Vb.eq #0x18
p2234
sg5
L18446743798845687592L
sg6
Nsg23
g152
sg25
S'0xffffffc000d64728L'
p2235
sg27
Nsbasg154
(lp2236
S'LDR reg, mem'
p2237
aS'MOV reg, #0x800'
p2238
aS'MOVK reg, #0x178,LSL#16'
p2239
aS'TST reg, reg'
p2240
aS'B.EQ func'
p2241
asg175
Nsg5
S'0xffffffc000d64718L'
p2242
sg177
(lp2243
S'0xffffffc000d646a0L'
p2244
aS'0xffffffc000d64700L'
p2245
asg6
Nsg179
(lp2246
S'0xffffffc000d6472cL'
p2247
aS'0xffffffc000d64740L'
p2248
asg183
Nsg184
Nsg185
S'3f7baf5f189118b2595a07c366287580'
p2249
sg187
S'3803e94c870a71c75fe1372ca357acec'
p2250
sg189
(lp2251
g2207
ag2214
ag2221
ag2228
ag152
asg191
Nsba(ibclass
BBasicBlock
p2252
(dp2253
g12
Nsg13
(lp2254
(ibclass
BInstr
p2255
(dp2256
g2
Nsg17
S'MOV             X0, X19'
p2257
sg19
S'e00313aa'
p2258
sg21
Vmov x0, x19
p2259
sg5
L18446743798845687596L
sg6
Nsg23
S'MOV'
p2260
sg25
S'0xffffffc000d6472cL'
p2261
sg27
Nsba(ibclass
BInstr
p2262
(dp2263
g2
Nsg17
S'MOV             X1, X28'
p2264
sg19
S'e1031caa'
p2265
sg21
Vmov x1, x28
p2266
sg5
L18446743798845687600L
sg6
Nsg23
S'MOV'
p2267
sg25
S'0xffffffc000d64730L'
p2268
sg27
Nsba(ibclass
BInstr
p2269
(dp2270
g2
Nsg17
S'MOV             X2, X27'
p2271
sg19
S'e2031baa'
p2272
sg21
Vmov x2, x27
p2273
sg5
L18446743798845687604L
sg6
Nsg23
S'MOV'
p2274
sg25
S'0xffffffc000d64734L'
p2275
sg27
Nsba(ibclass
BInstr
p2276
(dp2277
g2
Nsg17
S'BL              __sock_recv_ts_and_drops'
p2278
sg19
S'5c50fc97'
p2279
sg21
Vbl #0xfffffffffff14170
p2280
sg5
L18446743798845687608L
sg6
Nsg23
S'BL'
p2281
sg25
S'0xffffffc000d64738L'
p2282
sg27
Nsba(ibclass
BInstr
p2283
(dp2284
g2
Nsg17
S'B               loc_FFFFFFC000D64748'
p2285
sg19
S'03000014'
p2286
sg21
Vb #0xc
p2287
sg5
L18446743798845687612L
sg6
Nsg23
g152
sg25
S'0xffffffc000d6473cL'
p2288
sg27
Nsbasg154
(lp2289
S'MOV reg, reg9'
p2290
aS'MOV reg, reg8'
p2291
aS'MOV reg, reg7'
p2292
aS'BL __sock_recv_ts_and_drops'
p2293
aS'B func'
p2294
asg175
Nsg5
S'0xffffffc000d6472cL'
p2295
sg177
(lp2296
S'0xffffffc000d64718L'
p2297
asg6
Nsg179
(lp2298
S'0xffffffc000d64748L'
p2299
asg183
Nsg184
Nsg185
S'938d111b8bed94625648a5a2bb44a5c7'
p2300
sg187
S'3996b85949e33171b97715bdf14d6f88'
p2301
sg189
(lp2302
g2260
ag2267
ag2274
ag2281
ag152
asg191
Nsba(ibclass
BBasicBlock
p2303
(dp2304
g12
Nsg13
(lp2305
(ibclass
BInstr
p2306
(dp2307
g2
Nsg17
S'LDR             X0, [X27,#0x10]'
p2308
sg19
S'600b40f9'
p2309
sg21
Vldr x0, [x27, #0x10]
p2310
sg5
L18446743798845687616L
sg6
Nsg23
S'LDR'
p2311
sg25
S'0xffffffc000d64740L'
p2312
sg27
Nsba(ibclass
BInstr
p2313
(dp2314
g2
Nsg17
S'STR             X0, [X28,#0x1F8]'
p2315
sg19
S'80ff00f9'
p2316
sg21
Vstr x0, [x28, #0x1f8]
p2317
sg5
L18446743798845687620L
sg6
Nsg23
S'STR'
p2318
sg25
S'0xffffffc000d64744L'
p2319
sg27
Nsbasg154
(lp2320
S'LDR reg, mem'
p2321
aS'STR reg, mem'
p2322
asg175
Nsg5
S'0xffffffc000d64740L'
p2323
sg177
(lp2324
S'0xffffffc000d64718L'
p2325
asg6
Nsg179
(lp2326
S'0xffffffc000d64748L'
p2327
asg183
Nsg184
Nsg185
S'f2c00f06cb6622818f2abed867fd0979'
p2328
sg187
S'5d1215ddb27ea48d720bf9012ac521db'
p2329
sg189
(lp2330
g2311
ag2318
asg191
Nsba(ibclass
BBasicBlock
p2331
(dp2332
g12
Nsg13
(lp2333
(ibclass
BInstr
p2334
(dp2335
g2
Nsg17
S'LDR             X20, [X19]'
p2336
sg19
S'740240f9'
p2337
sg21
Vldr x20, [x19]
p2338
sg5
L18446743798845687624L
sg6
Nsg23
S'LDR'
p2339
sg25
S'0xffffffc000d64748L'
p2340
sg27
Nsba(ibclass
BInstr
p2341
(dp2342
g2
Nsg17
S'CBZ             X20, loc_FFFFFFC000D647E4'
p2343
sg19
S'd40400b4'
p2344
sg21
Vcbz x20, #0x98
p2345
sg5
L18446743798845687628L
sg6
Nsg23
S'CBZ'
p2346
sg25
S'0xffffffc000d6474cL'
p2347
sg27
Nsbasg154
(lp2348
S'LDR reg0, mem'
p2349
aS'CBZ reg0, func'
p2350
asg175
Nsg5
S'0xffffffc000d64748L'
p2351
sg177
(lp2352
S'0xffffffc000d6472cL'
p2353
aS'0xffffffc000d64740L'
p2354
asg6
Nsg179
(lp2355
S'0xffffffc000d64750L'
p2356
aS'0xffffffc000d647e4L'
p2357
asg183
Nsg184
Nsg185
S'a0c488049ab653dbdfa1dc805bb83f13'
p2358
sg187
S'6bf98c6956d77f9f1033f03a6851b4b4'
p2359
sg189
(lp2360
g2339
ag2346
asg191
Nsba(ibclass
BBasicBlock
p2361
(dp2362
g12
Nsg13
(lp2363
(ibclass
BInstr
p2364
(dp2365
g2
Nsg17
S'MOV             W0, #0xA'
p2366
sg19
S'40018052'
p2367
sg21
Vmovz w0, #0xa
p2368
sg5
L18446743798845687632L
sg6
Nsg23
S'MOV'
p2369
sg25
S'0xffffffc000d64750L'
p2370
sg27
Nsba(ibclass
BInstr
p2371
(dp2372
g2
Nsg17
S'STRH            W0, [X20]'
p2373
sg19
S'80020079'
p2374
sg21
Vstrh w0, [x20]
p2375
sg5
L18446743798845687636L
sg6
Nsg23
S'STR'
p2376
sg25
S'0xffffffc000d64754L'
p2377
sg27
Nsba(ibclass
BInstr
p2378
(dp2379
g2
Nsg17
S'LDR             X1, [X27,#0xD8]'
p2380
sg19
S'616f40f9'
p2381
sg21
Vldr x1, [x27, #0xd8]
p2382
sg5
L18446743798845687640L
sg6
Nsg23
S'LDR'
p2383
sg25
S'0xffffffc000d64758L'
p2384
sg27
Nsba(ibclass
BInstr
p2385
(dp2386
g2
Nsg17
S'LDR             W0, [X27,#0xC0]'
p2387
sg19
S'60c340b9'
p2388
sg21
Vldr w0, [x27, #0xc0]
p2389
sg5
L18446743798845687644L
sg6
Nsg23
S'LDR'
p2390
sg25
S'0xffffffc000d6475cL'
p2391
sg27
Nsba(ibclass
BInstr
p2392
(dp2393
g2
Nsg17
S'LDRH            W0, [X1,X0]'
p2394
sg19
S'20686078'
p2395
sg21
Vldrh w0, [x1, x0]
p2396
sg5
L18446743798845687648L
sg6
Nsg23
S'LDR'
p2397
sg25
S'0xffffffc000d64760L'
p2398
sg27
Nsba(ibclass
BInstr
p2399
(dp2400
g2
Nsg17
S'STR             WZR, [X20,#4]'
p2401
sg19
S'9f0600b9'
p2402
sg21
Vstr wzr, [x20, #4]
p2403
sg5
L18446743798845687652L
sg6
Nsg23
S'STR'
p2404
sg25
S'0xffffffc000d64764L'
p2405
sg27
Nsba(ibclass
BInstr
p2406
(dp2407
g2
Nsg17
S'STRH            W0, [X20,#2]'
p2408
sg19
S'80060079'
p2409
sg21
Vstrh w0, [x20, #2]
p2410
sg5
L18446743798845687656L
sg6
Nsg23
S'STR'
p2411
sg25
S'0xffffffc000d64768L'
p2412
sg27
Nsba(ibclass
BInstr
p2413
(dp2414
g2
Nsg17
S'LDR             X2, [X27,#0xD8]'
p2415
sg19
S'626f40f9'
p2416
sg21
Vldr x2, [x27, #0xd8]
p2417
sg5
L18446743798845687660L
sg6
Nsg23
S'LDR'
p2418
sg25
S'0xffffffc000d6476cL'
p2419
sg27
Nsba(ibclass
BInstr
p2420
(dp2421
g2
Nsg17
S'LDR             W1, [X27,#0xC4]'
p2422
sg19
S'61c740b9'
p2423
sg21
Vldr w1, [x27, #0xc4]
p2424
sg5
L18446743798845687664L
sg6
Nsg23
S'LDR'
p2425
sg25
S'0xffffffc000d64770L'
p2426
sg27
Nsba(ibclass
BInstr
p2427
(dp2428
g2
Nsg17
S'CBZ             W21, loc_FFFFFFC000D64798'
p2429
sg19
S'35010034'
p2430
sg21
Vcbz w21, #0x24
p2431
sg5
L18446743798845687668L
sg6
Nsg23
S'CBZ'
p2432
sg25
S'0xffffffc000d64774L'
p2433
sg27
Nsbasg154
(lp2434
S'MOV reg, #0xA'
p2435
aS'STRH reg, mem'
p2436
aS'LDR reg, mem'
p2437
aS'LDR reg, mem'
p2438
aS'LDRH reg, mem'
p2439
aS'STR WZR, mem'
p2440
aS'STRH reg, mem'
p2441
aS'LDR reg, mem'
p2442
aS'LDR reg, mem'
p2443
aS'CBZ reg1, func'
p2444
asg175
Nsg5
S'0xffffffc000d64750L'
p2445
sg177
(lp2446
S'0xffffffc000d64748L'
p2447
asg6
Nsg179
(lp2448
S'0xffffffc000d64778L'
p2449
aS'0xffffffc000d64798L'
p2450
asg183
Nsg184
Nsg185
S'78bb01e6444e894c0080d16dbb208e7b'
p2451
sg187
S'7652a0d1b65850c3329a9d9f6804d78a'
p2452
sg189
(lp2453
g2369
ag2376
ag2383
ag2390
ag2397
ag2404
ag2411
ag2418
ag2425
ag2432
asg191
Nsba(ibclass
BBasicBlock
p2454
(dp2455
g12
Nsg13
(lp2456
(ibclass
BInstr
p2457
(dp2458
g2
Nsg17
S'ADD             X1, X2, X1'
p2459
sg19
S'4100018b'
p2460
sg21
Vadd x1, x2, x1
p2461
sg5
L18446743798845687672L
sg6
Nsg23
S'ADD'
p2462
sg25
S'0xffffffc000d64778L'
p2463
sg27
Nsba(ibclass
BInstr
p2464
(dp2465
g2
Nsg17
S'LDR             W0, [X1,#0xC]'
p2466
sg19
S'200c40b9'
p2467
sg21
Vldr w0, [x1, #0xc]
p2468
sg5
L18446743798845687676L
sg6
Nsg23
S'LDR'
p2469
sg25
S'0xffffffc000d6477cL'
p2470
sg27
Nsba(ibclass
BInstr
p2471
(dp2472
g2
Nsg17
S'MOV             W1, #0xFFFF0000'
p2473
sg19
S'e1ffbf52'
p2474
sg21
Vmovz w1, #0xffff, lsl #16
p2475
sg5
L18446743798845687680L
sg6
Nsg23
S'MOV'
p2476
sg25
S'0xffffffc000d64780L'
p2477
sg27
Nsba(ibclass
BInstr
p2478
(dp2479
g2
Nsg17
S'STR             XZR, [X20,#8]'
p2480
sg19
S'9f0600f9'
p2481
sg21
Vstr xzr, [x20, #8]
p2482
sg5
L18446743798845687684L
sg6
Nsg23
S'STR'
p2483
sg25
S'0xffffffc000d64784L'
p2484
sg27
Nsba(ibclass
BInstr
p2485
(dp2486
g2
Nsg17
S'STR             W1, [X20,#0x10]'
p2487
sg19
S'811200b9'
p2488
sg21
Vstr w1, [x20, #0x10]
p2489
sg5
L18446743798845687688L
sg6
Nsg23
S'STR'
p2490
sg25
S'0xffffffc000d64788L'
p2491
sg27
Nsba(ibclass
BInstr
p2492
(dp2493
g2
Nsg17
S'STR             W0, [X20,#0x14]'
p2494
sg19
S'801600b9'
p2495
sg21
Vstr w0, [x20, #0x14]
p2496
sg5
L18446743798845687692L
sg6
Nsg23
S'STR'
p2497
sg25
S'0xffffffc000d6478cL'
p2498
sg27
Nsba(ibclass
BInstr
p2499
(dp2500
g2
Nsg17
S'STR             WZR, [X20,#0x18]'
p2501
sg19
S'9f1a00b9'
p2502
sg21
Vstr wzr, [x20, #0x18]
p2503
sg5
L18446743798845687696L
sg6
Nsg23
S'STR'
p2504
sg25
S'0xffffffc000d64790L'
p2505
sg27
Nsba(ibclass
BInstr
p2506
(dp2507
g2
Nsg17
S'B               loc_FFFFFFC000D647D8'
p2508
sg19
S'11000014'
p2509
sg21
Vb #0x44
p2510
sg5
L18446743798845687700L
sg6
Nsg23
g152
sg25
S'0xffffffc000d64794L'
p2511
sg27
Nsbasg154
(lp2512
S'ADD reg, reg, reg'
p2513
aS'LDR reg, mem'
p2514
aS'MOV reg, #0xFFFF0000'
p2515
aS'STR XZR, mem'
p2516
aS'STR reg, mem'
p2517
aS'STR reg, mem'
p2518
aS'STR WZR, mem'
p2519
aS'B func'
p2520
asg175
Nsg5
S'0xffffffc000d64778L'
p2521
sg177
(lp2522
S'0xffffffc000d64750L'
p2523
asg6
Nsg179
(lp2524
S'0xffffffc000d647d8L'
p2525
asg183
Nsg184
Nsg185
S'8e0f6fc0e14d8b7116889f0c5f79d599'
p2526
sg187
S'8d1c27f2de1aa554152e0087cd777eb8'
p2527
sg189
(lp2528
g2462
ag2469
ag2476
ag2483
ag2490
ag2497
ag2504
ag152
asg191
Nsba(ibclass
BBasicBlock
p2529
(dp2530
g12
Nsg13
(lp2531
(ibclass
BInstr
p2532
(dp2533
g2
Nsg17
S'ADD             X1, X2, X1'
p2534
sg19
S'4100018b'
p2535
sg21
Vadd x1, x2, x1
p2536
sg5
L18446743798845687704L
sg6
Nsg23
S'ADD'
p2537
sg25
S'0xffffffc000d64798L'
p2538
sg27
Nsba(ibclass
BInstr
p2539
(dp2540
g2
Nsg17
S'ADD             X1, X1, #8'
p2541
sg19
S'21200091'
p2542
sg21
Vadd x1, x1, #8
p2543
sg5
L18446743798845687708L
sg6
Nsg23
S'ADD'
p2544
sg25
S'0xffffffc000d6479cL'
p2545
sg27
Nsba(ibclass
BInstr
p2546
(dp2547
g2
Nsg17
S'LDP             X4, X5, [X1]'
p2548
sg19
S'241440a9'
p2549
sg21
Vldp x4, x5, [x1]
p2550
sg5
L18446743798845687712L
sg6
Nsg23
S'LDP'
p2551
sg25
S'0xffffffc000d647a0L'
p2552
sg27
Nsba(ibclass
BInstr
p2553
(dp2554
g2
Nsg17
S'ADD             X0, X20, #8'
p2555
sg19
S'80220091'
p2556
sg21
Vadd x0, x20, #8
p2557
sg5
L18446743798845687716L
sg6
Nsg23
S'ADD'
p2558
sg25
S'0xffffffc000d647a4L'
p2559
sg27
Nsba(ibclass
BInstr
p2560
(dp2561
g2
Nsg17
S'STP             X4, X5, [X0]'
p2562
sg19
S'041400a9'
p2563
sg21
Vstp x4, x5, [x0]
p2564
sg5
L18446743798845687720L
sg6
Nsg23
S'STP'
p2565
sg25
S'0xffffffc000d647a8L'
p2566
sg27
Nsba(ibclass
BInstr
p2567
(dp2568
g2
Nsg17
S'LDR             W23, [X27,#0x28]'
p2569
sg19
S'772b40b9'
p2570
sg21
Vldr w23, [x27, #0x28]
p2571
sg5
L18446743798845687724L
sg6
Nsg23
S'LDR'
p2572
sg25
S'0xffffffc000d647acL'
p2573
sg27
Nsba(ibclass
BInstr
p2574
(dp2575
g2
Nsg17
S'BL              __ipv6_addr_type'
p2576
sg19
S'21800094'
p2577
sg21
Vbl #0x20084
p2578
sg5
L18446743798845687728L
sg6
Nsg23
S'BL'
p2579
sg25
S'0xffffffc000d647b0L'
p2580
sg27
Nsba(ibclass
BInstr
p2581
(dp2582
g2
Nsg17
S'MOV             W1, #1'
p2583
sg19
S'21008052'
p2584
sg21
Vmovz w1, #0x1
p2585
sg5
L18446743798845687732L
sg6
Nsg23
S'MOV'
p2586
sg25
S'0xffffffc000d647b4L'
p2587
sg27
Nsba(ibclass
BInstr
p2588
(dp2589
g2
Nsg17
S'TBNZ            W0, #5, loc_FFFFFFC000D647CC'
p2590
sg19
S'a0002837'
p2591
sg21
Vtbnz w0, #5, #0x14
p2592
sg5
L18446743798845687736L
sg6
Nsg23
S'TBNZ'
p2593
sg25
S'0xffffffc000d647b8L'
p2594
sg27
Nsbasg154
(lp2595
S'ADD reg, reg, reg'
p2596
aS'ADD reg, reg, #8'
p2597
aS'LDP reg, reg, mem'
p2598
aS'ADD reg, reg0, #8'
p2599
aS'STP reg, reg, mem'
p2600
aS'LDR reg3, mem'
p2601
aS'BL __ipv6_addr_type'
p2602
aS'MOV reg, #1'
p2603
aS'TBNZ reg, #5, func'
p2604
asg175
Nsg5
S'0xffffffc000d64798L'
p2605
sg177
(lp2606
S'0xffffffc000d64750L'
p2607
asg6
Nsg179
(lp2608
S'0xffffffc000d647bcL'
p2609
aS'0xffffffc000d647ccL'
p2610
asg183
Nsg184
Nsg185
S'd17edd8a4dfacd10ad6eaee120736dd5'
p2611
sg187
S'42a59f8947432cb013390ad5f67f30f2'
p2612
sg189
(lp2613
g2537
ag2544
ag2551
ag2558
ag2565
ag2572
ag2579
ag2586
ag2593
asg191
Nsba(ibclass
BBasicBlock
p2614
(dp2615
g12
Nsg13
(lp2616
(ibclass
BInstr
p2617
(dp2618
g2
Nsg17
S'MOV             W1, W21'
p2619
sg19
S'e103152a'
p2620
sg21
Vmov w1, w21
p2621
sg5
L18446743798845687740L
sg6
Nsg23
S'MOV'
p2622
sg25
S'0xffffffc000d647bcL'
p2623
sg27
Nsba(ibclass
BInstr
p2624
(dp2625
g2
Nsg17
S'TBZ             W0, #1, loc_FFFFFFC000D647CC'
p2626
sg19
S'60000836'
p2627
sg21
Vtbz w0, #1, #0xc
p2628
sg5
L18446743798845687744L
sg6
Nsg23
S'TBZ'
p2629
sg25
S'0xffffffc000d647c0L'
p2630
sg27
Nsbasg154
(lp2631
S'MOV reg, reg1'
p2632
aS'TBZ reg, #1, func'
p2633
asg175
Nsg5
S'0xffffffc000d647bcL'
p2634
sg177
(lp2635
S'0xffffffc000d64798L'
p2636
asg6
Nsg179
(lp2637
S'0xffffffc000d647c4L'
p2638
aS'0xffffffc000d647ccL'
p2639
asg183
Nsg184
Nsg185
S'd3be35d09a860437280ccc1e4c8f1a6f'
p2640
sg187
S'2893af7066ad848d19991bcf488cb31c'
p2641
sg189
(lp2642
g2622
ag2629
asg191
Nsba(ibclass
BBasicBlock
p2643
(dp2644
g12
Nsg13
(lp2645
(ibclass
BInstr
p2646
(dp2647
g2
Nsg17
S'TST             W0, #0x30'
p2648
sg19
S'1f041c72'
p2649
sg21
Vtst w0, #0x30
p2650
sg5
L18446743798845687748L
sg6
Nsg23
S'TST'
p2651
sg25
S'0xffffffc000d647c4L'
p2652
sg27
Nsba(ibclass
BInstr
p2653
(dp2654
g2
Nsg17
S'CSET            W1, NE'
p2655
sg19
S'e1079f1a'
p2656
sg21
Vcset w1, ne
p2657
sg5
L18446743798845687752L
sg6
Nsg23
S'CSET'
p2658
sg25
S'0xffffffc000d647c8L'
p2659
sg27
Nsbasg154
(lp2660
S'TST reg, #0x30'
p2661
aS'CSET reg, NE'
p2662
asg175
Nsg5
S'0xffffffc000d647c4L'
p2663
sg177
(lp2664
S'0xffffffc000d647bcL'
p2665
asg6
Nsg179
(lp2666
S'0xffffffc000d647ccL'
p2667
asg183
Nsg184
Nsg185
S'cd86b104becf47150e929b4a76736b9c'
p2668
sg187
S'258cf75bea7013522ad9536ef9c68cec'
p2669
sg189
(lp2670
g2651
ag2658
asg191
Nsba(ibclass
BBasicBlock
p2671
(dp2672
g12
Nsg13
(lp2673
(ibclass
BInstr
p2674
(dp2675
g2
Nsg17
S'CMP             W1, WZR'
p2676
sg19
S'3f001f6b'
p2677
sg21
Vcmp w1, wzr
p2678
sg5
L18446743798845687756L
sg6
Nsg23
S'CMP'
p2679
sg25
S'0xffffffc000d647ccL'
p2680
sg27
Nsba(ibclass
BInstr
p2681
(dp2682
g2
Nsg17
S'CSEL            W23, W23, WZR, NE'
p2683
sg19
S'f7129f1a'
p2684
sg21
Vcsel w23, w23, wzr, ne
p2685
sg5
L18446743798845687760L
sg6
Nsg23
S'CSEL'
p2686
sg25
S'0xffffffc000d647d0L'
p2687
sg27
Nsba(ibclass
BInstr
p2688
(dp2689
g2
Nsg17
S'STR             W23, [X20,#0x18]'
p2690
sg19
S'971a00b9'
p2691
sg21
Vstr w23, [x20, #0x18]
p2692
sg5
L18446743798845687764L
sg6
Nsg23
S'STR'
p2693
sg25
S'0xffffffc000d647d4L'
p2694
sg27
Nsbasg154
(lp2695
S'CMP reg, WZR'
p2696
aS'CSEL reg3, reg3, WZR, NE'
p2697
aS'STR reg3, mem'
p2698
asg175
Nsg5
S'0xffffffc000d647ccL'
p2699
sg177
(lp2700
S'0xffffffc000d64798L'
p2701
aS'0xffffffc000d647bcL'
p2702
aS'0xffffffc000d647c4L'
p2703
asg6
Nsg179
(lp2704
S'0xffffffc000d647d8L'
p2705
asg183
Nsg184
Nsg185
S'e5c650b909f85f82f600867ade37fd11'
p2706
sg187
S'21c4b685905c48c7295899c3c32f1a2b'
p2707
sg189
(lp2708
g2679
ag2686
ag2693
asg191
Nsba(ibclass
BBasicBlock
p2709
(dp2710
g12
Nsg13
(lp2711
(ibclass
BInstr
p2712
(dp2713
g2
Nsg17
S'LDR             X3, [X29,#arg_68]'
p2714
sg19
S'a33f40f9'
p2715
sg21
Vldr x3, [x29, #0x78]
p2716
sg5
L18446743798845687768L
sg6
Nsg23
S'LDR'
p2717
sg25
S'0xffffffc000d647d8L'
p2718
sg27
Nsba(ibclass
BInstr
p2719
(dp2720
g2
Nsg17
S'MOV             W0, #0x1C'
p2721
sg19
S'80038052'
p2722
sg21
Vmovz w0, #0x1c
p2723
sg5
L18446743798845687772L
sg6
Nsg23
S'MOV'
p2724
sg25
S'0xffffffc000d647dcL'
p2725
sg27
Nsba(ibclass
BInstr
p2726
(dp2727
g2
Nsg17
S'STR             W0, [X3]'
p2728
sg19
S'600000b9'
p2729
sg21
Vstr w0, [x3]
p2730
sg5
L18446743798845687776L
sg6
Nsg23
S'STR'
p2731
sg25
S'0xffffffc000d647e0L'
p2732
sg27
Nsbasg154
(lp2733
S'LDR reg, mem'
p2734
aS'MOV reg, #0x1C'
p2735
aS'STR reg, mem'
p2736
asg175
Nsg5
S'0xffffffc000d647d8L'
p2737
sg177
(lp2738
S'0xffffffc000d64778L'
p2739
aS'0xffffffc000d647ccL'
p2740
asg6
Nsg179
(lp2741
S'0xffffffc000d647e4L'
p2742
asg183
Nsg184
Nsg185
S'75af83999643f1a67cc2a77edbbb7fba'
p2743
sg187
S'753e04a0c578f4e2f75d62b9962e3d3c'
p2744
sg189
(lp2745
g2717
ag2724
ag2731
asg191
Nsba(ibclass
BBasicBlock
p2746
(dp2747
g12
Nsg13
(lp2748
(ibclass
BInstr
p2749
(dp2750
g2
Nsg17
S'CBZ             W21, loc_FFFFFFC000D64800'
p2751
sg19
S'f5000034'
p2752
sg21
Vcbz w21, #0x1c
p2753
sg5
L18446743798845687780L
sg6
Nsg23
S'CBZ'
p2754
sg25
S'0xffffffc000d647e4L'
p2755
sg27
Nsbasg154
(lp2756
S'CBZ reg1, func'
p2757
asg175
Nsg5
S'0xffffffc000d647e4L'
p2758
sg177
(lp2759
S'0xffffffc000d64748L'
p2760
aS'0xffffffc000d647d8L'
p2761
asg6
Nsg179
(lp2762
S'0xffffffc000d647e8L'
p2763
aS'0xffffffc000d64800L'
p2764
asg183
Nsg184
Nsg185
S'de8e361453cf9f764a4abe9d486f8fbe'
p2765
sg187
S'c618421d27b4dcd978a9e10bf674b688'
p2766
sg189
(lp2767
g2754
asg191
Nsba(ibclass
BBasicBlock
p2768
(dp2769
g12
Nsg13
(lp2770
(ibclass
BInstr
p2771
(dp2772
g2
Nsg17
S'LDRH            W0, [X28,#0x286]'
p2773
sg19
S'800f4579'
p2774
sg21
Vldrh w0, [x28, #0x286]
p2775
sg5
L18446743798845687784L
sg6
Nsg23
S'LDR'
p2776
sg25
S'0xffffffc000d647e8L'
p2777
sg27
Nsba(ibclass
BInstr
p2778
(dp2779
g2
Nsg17
S'CBZ             W0, loc_FFFFFFC000D64818'
p2780
sg19
S'60010034'
p2781
sg21
Vcbz w0, #0x2c
p2782
sg5
L18446743798845687788L
sg6
Nsg23
S'CBZ'
p2783
sg25
S'0xffffffc000d647ecL'
p2784
sg27
Nsbasg154
(lp2785
S'LDRH reg, mem'
p2786
aS'CBZ reg, func'
p2787
asg175
Nsg5
S'0xffffffc000d647e8L'
p2788
sg177
(lp2789
S'0xffffffc000d647e4L'
p2790
asg6
Nsg179
(lp2791
S'0xffffffc000d647f0L'
p2792
aS'0xffffffc000d64818L'
p2793
asg183
Nsg184
Nsg185
S'a0c488049ab653dbdfa1dc805bb83f13'
p2794
sg187
S'71dfb939301f28cc1628d752d6e4ec47'
p2795
sg189
(lp2796
g2776
ag2783
asg191
Nsba(ibclass
BBasicBlock
p2797
(dp2798
g12
Nsg13
(lp2799
(ibclass
BInstr
p2800
(dp2801
g2
Nsg17
S'MOV             X0, X19'
p2802
sg19
S'e00313aa'
p2803
sg21
Vmov x0, x19
p2804
sg5
L18446743798845687792L
sg6
Nsg23
S'MOV'
p2805
sg25
S'0xffffffc000d647f0L'
p2806
sg27
Nsba(ibclass
BInstr
p2807
(dp2808
g2
Nsg17
S'MOV             X1, X27'
p2809
sg19
S'e1031baa'
p2810
sg21
Vmov x1, x27
p2811
sg5
L18446743798845687796L
sg6
Nsg23
S'MOV'
p2812
sg25
S'0xffffffc000d647f4L'
p2813
sg27
Nsba(ibclass
BInstr
p2814
(dp2815
g2
Nsg17
S'BL              ip_cmsg_recv'
p2816
sg19
S'b534fe97'
p2817
sg21
Vbl #0xfffffffffff8d2d4
p2818
sg5
L18446743798845687800L
sg6
Nsg23
S'BL'
p2819
sg25
S'0xffffffc000d647f8L'
p2820
sg27
Nsba(ibclass
BInstr
p2821
(dp2822
g2
Nsg17
S'B               loc_FFFFFFC000D64818'
p2823
sg19
S'07000014'
p2824
sg21
Vb #0x1c
p2825
sg5
L18446743798845687804L
sg6
Nsg23
g152
sg25
S'0xffffffc000d647fcL'
p2826
sg27
Nsbasg154
(lp2827
S'MOV reg, reg9'
p2828
aS'MOV reg, reg7'
p2829
aS'BL ip_cmsg_recv'
p2830
aS'B func'
p2831
asg175
Nsg5
S'0xffffffc000d647f0L'
p2832
sg177
(lp2833
S'0xffffffc000d647e8L'
p2834
asg6
Nsg179
(lp2835
S'0xffffffc000d64818L'
p2836
asg183
Nsg184
Nsg185
S'c7080d4a00502726be394af0677088cd'
p2837
sg187
S'730f35f3cebed7e9e0414a93159262fa'
p2838
sg189
(lp2839
g2805
ag2812
ag2819
ag152
asg191
Nsba(ibclass
BBasicBlock
p2840
(dp2841
g12
Nsg13
(lp2842
(ibclass
BInstr
p2843
(dp2844
g2
Nsg17
S'LDRH            W0, [X22,#0x6C]'
p2845
sg19
S'c0da4079'
p2846
sg21
Vldrh w0, [x22, #0x6c]
p2847
sg5
L18446743798845687808L
sg6
Nsg23
S'LDR'
p2848
sg25
S'0xffffffc000d64800L'
p2849
sg27
Nsba(ibclass
BInstr
p2850
(dp2851
g2
Nsg17
S'CBZ             W0, loc_FFFFFFC000D64818'
p2852
sg19
S'a0000034'
p2853
sg21
Vcbz w0, #0x14
p2854
sg5
L18446743798845687812L
sg6
Nsg23
S'CBZ'
p2855
sg25
S'0xffffffc000d64804L'
p2856
sg27
Nsbasg154
(lp2857
S'LDRH reg, mem'
p2858
aS'CBZ reg, func'
p2859
asg175
Nsg5
S'0xffffffc000d64800L'
p2860
sg177
(lp2861
S'0xffffffc000d647e4L'
p2862
asg6
Nsg179
(lp2863
S'0xffffffc000d64808L'
p2864
aS'0xffffffc000d64818L'
p2865
asg183
Nsg184
Nsg185
S'a0c488049ab653dbdfa1dc805bb83f13'
p2866
sg187
S'71dfb939301f28cc1628d752d6e4ec47'
p2867
sg189
(lp2868
g2848
ag2855
asg191
Nsba(ibclass
BBasicBlock
p2869
(dp2870
g12
Nsg13
(lp2871
(ibclass
BInstr
p2872
(dp2873
g2
Nsg17
S'MOV             X0, X28'
p2874
sg19
S'e0031caa'
p2875
sg21
Vmov x0, x28
p2876
sg5
L18446743798845687816L
sg6
Nsg23
S'MOV'
p2877
sg25
S'0xffffffc000d64808L'
p2878
sg27
Nsba(ibclass
BInstr
p2879
(dp2880
g2
Nsg17
S'MOV             X1, X19'
p2881
sg19
S'e10313aa'
p2882
sg21
Vmov x1, x19
p2883
sg5
L18446743798845687820L
sg6
Nsg23
S'MOV'
p2884
sg25
S'0xffffffc000d6480cL'
p2885
sg27
Nsba(ibclass
BInstr
p2886
(dp2887
g2
Nsg17
S'MOV             X2, X27'
p2888
sg19
S'e2031baa'
p2889
sg21
Vmov x2, x27
p2890
sg5
L18446743798845687824L
sg6
Nsg23
S'MOV'
p2891
sg25
S'0xffffffc000d64810L'
p2892
sg27
Nsba(ibclass
BInstr
p2893
(dp2894
g2
Nsg17
S'BL              ip6_datagram_recv_ctl'
p2895
sg19
S'e7400094'
p2896
sg21
Vbl #0x1039c
p2897
sg5
L18446743798845687828L
sg6
Nsg23
S'BL'
p2898
sg25
S'0xffffffc000d64814L'
p2899
sg27
Nsbasg154
(lp2900
S'MOV reg, reg8'
p2901
aS'MOV reg, reg9'
p2902
aS'MOV reg, reg7'
p2903
aS'BL ip6_datagram_recv_ctl'
p2904
asg175
Nsg5
S'0xffffffc000d64808L'
p2905
sg177
(lp2906
S'0xffffffc000d64800L'
p2907
asg6
Nsg179
(lp2908
S'0xffffffc000d64818L'
p2909
asg183
Nsg184
Nsg185
S'441b8e198e5abdd2c95327eca4a4bbe4'
p2910
sg187
S'4a70a5efd462e3b86ef82da8dff52575'
p2911
sg189
(lp2912
g2877
ag2884
ag2891
ag2898
asg191
Nsba(ibclass
BBasicBlock
p2913
(dp2914
g12
Nsg13
(lp2915
(ibclass
BInstr
p2916
(dp2917
g2
Nsg17
S'STR             W26, [X29,#arg_50]'
p2918
sg19
S'ba6300b9'
p2919
sg21
Vstr w26, [x29, #0x60]
p2920
sg5
L18446743798845687832L
sg6
Nsg23
S'STR'
p2921
sg25
S'0xffffffc000d64818L'
p2922
sg27
Nsba(ibclass
BInstr
p2923
(dp2924
g2
Nsg17
S'TBZ             W24, #5, loc_FFFFFFC000D64824'
p2925
sg19
S'58002836'
p2926
sg21
Vtbz w24, #5, #8
p2927
sg5
L18446743798845687836L
sg6
Nsg23
S'TBZ'
p2928
sg25
S'0xffffffc000d6481cL'
p2929
sg27
Nsbasg154
(lp2930
S'STR reg6, mem'
p2931
aS'TBZ reg4, #5, func'
p2932
asg175
Nsg5
S'0xffffffc000d64818L'
p2933
sg177
(lp2934
S'0xffffffc000d647e8L'
p2935
aS'0xffffffc000d647f0L'
p2936
aS'0xffffffc000d64800L'
p2937
aS'0xffffffc000d64808L'
p2938
asg6
Nsg179
(lp2939
S'0xffffffc000d64820L'
p2940
aS'0xffffffc000d64824L'
p2941
asg183
Nsg184
Nsg185
S'cbe271dbfa3ee1f85bf4339dedc0f2d2'
p2942
sg187
S'a866ed8f26f4cf7149e7bfa0ef7f5fb8'
p2943
sg189
(lp2944
g2921
ag2928
asg191
Nsba(ibclass
BBasicBlock
p2945
(dp2946
g12
Nsg13
(lp2947
(ibclass
BInstr
p2948
(dp2949
g2
Nsg17
S'STR             W25, [X29,#arg_50]'
p2950
sg19
S'b96300b9'
p2951
sg21
Vstr w25, [x29, #0x60]
p2952
sg5
L18446743798845687840L
sg6
Nsg23
S'STR'
p2953
sg25
S'0xffffffc000d64820L'
p2954
sg27
Nsbasg154
(lp2955
S'STR reg5, mem'
p2956
asg175
Nsg5
S'0xffffffc000d64820L'
p2957
sg177
(lp2958
S'0xffffffc000d64818L'
p2959
asg6
Nsg179
(lp2960
S'0xffffffc000d64824L'
p2961
asg183
Nsg184
Nsg185
S'3fe0dfff438296bb525e0e8642586c2d'
p2962
sg187
S'e528e75a25e074d0069653967a2b7634'
p2963
sg189
(lp2964
g2953
asg191
Nsba(ibclass
BBasicBlock
p2965
(dp2966
g12
Nsg13
(lp2967
(ibclass
BInstr
p2968
(dp2969
g2
Nsg17
S'MOV             X0, X28'
p2970
sg19
S'e0031caa'
p2971
sg21
Vmov x0, x28
p2972
sg5
L18446743798845687844L
sg6
Nsg23
S'MOV'
p2973
sg25
S'0xffffffc000d64824L'
p2974
sg27
Nsba(ibclass
BInstr
p2975
(dp2976
g2
Nsg17
S'MOV             X1, X27'
p2977
sg19
S'e1031baa'
p2978
sg21
Vmov x1, x27
p2979
sg5
L18446743798845687848L
sg6
Nsg23
S'MOV'
p2980
sg25
S'0xffffffc000d64828L'
p2981
sg27
Nsba(ibclass
BInstr
p2982
(dp2983
g2
Nsg17
S'BL              skb_free_datagram_locked'
p2984
sg19
S'987efc97'
p2985
sg21
Vbl #0xfffffffffff1fa60
p2986
sg5
L18446743798845687852L
sg6
Nsg23
S'BL'
p2987
sg25
S'0xffffffc000d6482cL'
p2988
sg27
Nsbasg154
(lp2989
S'MOV reg, reg8'
p2990
aS'MOV reg, reg7'
p2991
aS'BL skb_free_datagram_locked'
p2992
asg175
Nsg5
S'0xffffffc000d64824L'
p2993
sg177
(lp2994
S'0xffffffc000d64610L'
p2995
aS'0xffffffc000d64658L'
p2996
aS'0xffffffc000d64818L'
p2997
aS'0xffffffc000d64820L'
p2998
asg6
Nsg179
(lp2999
S'0xffffffc000d64830L'
p3000
asg183
Nsg184
Nsg185
S'd0b32617f7e4cfc169d92597b8aefd43'
p3001
sg187
S'4fda38db78af84d8caf5df22919a10fd'
p3002
sg189
(lp3003
g2973
ag2980
ag2987
asg191
Nsba(ibclass
BBasicBlock
p3004
(dp3005
g12
Nsg13
(lp3006
(ibclass
BInstr
p3007
(dp3008
g2
Nsg17
S'LDR             W0, [X29,#arg_50]'
p3009
sg19
S'a06340b9'
p3010
sg21
Vldr w0, [x29, #0x60]
p3011
sg5
L18446743798845687856L
sg6
Nsg23
S'LDR'
p3012
sg25
S'0xffffffc000d64830L'
p3013
sg27
Nsba(ibclass
BInstr
p3014
(dp3015
g2
Nsg17
S'B               loc_FFFFFFC000D649B4'
p3016
sg19
S'60000014'
p3017
sg21
Vb #0x180
p3018
sg5
L18446743798845687860L
sg6
Nsg23
g152
sg25
S'0xffffffc000d64834L'
p3019
sg27
Nsbasg154
(lp3020
S'LDR reg, mem'
p3021
aS'B func'
p3022
asg175
Nsg5
S'0xffffffc000d64830L'
p3023
sg177
(lp3024
S'0xffffffc000d644c8L'
p3025
aS'0xffffffc000d64824L'
p3026
asg6
Nsg179
(lp3027
S'0xffffffc000d649b4L'
p3028
asg183
Nsg184
Nsg185
S'd269f92813b7f9be0535ea2960d9947c'
p3029
sg187
S'ae729ca63de59cc36787fc83d808cb9e'
p3030
sg189
(lp3031
g3012
ag152
asg191
Nsba(ibclass
BBasicBlock
p3032
(dp3033
g12
Nsg13
(lp3034
(ibclass
BInstr
p3035
(dp3036
g2
Nsg17
S'MOV             X0, X28'
p3037
sg19
S'e0031caa'
p3038
sg21
Vmov x0, x28
p3039
sg5
L18446743798845687864L
sg6
Nsg23
S'MOV'
p3040
sg25
S'0xffffffc000d64838L'
p3041
sg27
Nsba(ibclass
BInstr
p3042
(dp3043
g2
Nsg17
S'BL              lock_sock_fast'
p3044
sg19
S'3561fc97'
p3045
sg21
Vbl #0xfffffffffff184d4
p3046
sg5
L18446743798845687868L
sg6
Nsg23
S'BL'
p3047
sg25
S'0xffffffc000d6483cL'
p3048
sg27
Nsba(ibclass
BInstr
p3049
(dp3050
g2
Nsg17
S'UBFM            W25, W0, #0, #7'
p3051
sg19
S'191c0053'
p3052
sg21
Vuxtb w25, w0
p3053
sg5
L18446743798845687872L
sg6
Nsg23
S'UBFM'
p3054
sg25
S'0xffffffc000d64840L'
p3055
sg27
Nsba(ibclass
BInstr
p3056
(dp3057
g2
Nsg17
S'MOV             X1, X27'
p3058
sg19
S'e1031baa'
p3059
sg21
Vmov x1, x27
p3060
sg5
L18446743798845687876L
sg6
Nsg23
S'MOV'
p3061
sg25
S'0xffffffc000d64844L'
p3062
sg27
Nsba(ibclass
BInstr
p3063
(dp3064
g2
Nsg17
S'MOV             X0, X28'
p3065
sg19
S'e0031caa'
p3066
sg21
Vmov x0, x28
p3067
sg5
L18446743798845687880L
sg6
Nsg23
S'MOV'
p3068
sg25
S'0xffffffc000d64848L'
p3069
sg27
Nsba(ibclass
BInstr
p3070
(dp3071
g2
Nsg17
S'MOV             W2, W24'
p3072
sg19
S'e203182a'
p3073
sg21
Vmov w2, w24
p3074
sg5
L18446743798845687884L
sg6
Nsg23
S'MOV'
p3075
sg25
S'0xffffffc000d6484cL'
p3076
sg27
Nsba(ibclass
BInstr
p3077
(dp3078
g2
Nsg17
S'BL              skb_kill_datagram'
p3079
sg19
S'be7efc97'
p3080
sg21
Vbl #0xfffffffffff1faf8
p3081
sg5
L18446743798845687888L
sg6
Nsg23
S'BL'
p3082
sg25
S'0xffffffc000d64850L'
p3083
sg27
Nsba(ibclass
BInstr
p3084
(dp3085
g2
Nsg17
S'CBNZ            W0, loc_FFFFFFC000D64980'
p3086
sg19
S'60090035'
p3087
sg21
Vcbnz w0, #0x12c
p3088
sg5
L18446743798845687892L
sg6
Nsg23
S'CBNZ'
p3089
sg25
S'0xffffffc000d64854L'
p3090
sg27
Nsbasg154
(lp3091
S'MOV reg, reg8'
p3092
aS'BL lock_sock_fast'
p3093
aS'UBFM reg5, reg, #0, #7'
p3094
aS'MOV reg, reg7'
p3095
aS'MOV reg, reg8'
p3096
aS'MOV reg, reg4'
p3097
aS'BL skb_kill_datagram'
p3098
aS'CBNZ reg, func'
p3099
asg175
Nsg5
S'0xffffffc000d64838L'
p3100
sg177
(lp3101
S'0xffffffc000d64538L'
p3102
aS'0xffffffc000d64570L'
p3103
asg6
Nsg179
(lp3104
S'0xffffffc000d64858L'
p3105
aS'0xffffffc000d64980L'
p3106
asg183
Nsg184
Nsg185
S'fd7196e728fa051bc42039fa62ae18a1'
p3107
sg187
S'c7f11980327f03fcf50954c948091072'
p3108
sg189
(lp3109
g3040
ag3047
ag3054
ag3061
ag3068
ag3075
ag3082
ag3089
asg191
Nsba(ibclass
BBasicBlock
p3110
(dp3111
g12
Nsg13
(lp3112
(ibclass
BInstr
p3113
(dp3114
g2
Nsg17
S'CBZ             W21, loc_FFFFFFC000D648F0'
p3115
sg19
S'd5040034'
p3116
sg21
Vcbz w21, #0x98
p3117
sg5
L18446743798845687896L
sg6
Nsg23
S'CBZ'
p3118
sg25
S'0xffffffc000d64858L'
p3119
sg27
Nsbasg154
(lp3120
S'CBZ reg1, func'
p3121
asg175
Nsg5
S'0xffffffc000d64858L'
p3122
sg177
(lp3123
S'0xffffffc000d64838L'
p3124
asg6
Nsg179
(lp3125
S'0xffffffc000d6485cL'
p3126
aS'0xffffffc000d648f0L'
p3127
asg183
Nsg184
Nsg185
S'de8e361453cf9f764a4abe9d486f8fbe'
p3128
sg187
S'c618421d27b4dcd978a9e10bf674b688'
p3129
sg189
(lp3130
g3118
asg191
Nsba(ibclass
BBasicBlock
p3131
(dp3132
g12
Nsg13
(lp3133
(ibclass
BInstr
p3134
(dp3135
g2
Nsg17
S'CBZ             W20, loc_FFFFFFC000D648B4'
p3136
sg19
S'd4020034'
p3137
sg21
Vcbz w20, #0x58
p3138
sg5
L18446743798845687900L
sg6
Nsg23
S'CBZ'
p3139
sg25
S'0xffffffc000d6485cL'
p3140
sg27
Nsbasg154
(lp3141
S'CBZ reg0, func'
p3142
asg175
Nsg5
S'0xffffffc000d6485cL'
p3143
sg177
(lp3144
S'0xffffffc000d64858L'
p3145
asg6
Nsg179
(lp3146
S'0xffffffc000d64860L'
p3147
aS'0xffffffc000d648b4L'
p3148
asg183
Nsg184
Nsg185
S'de8e361453cf9f764a4abe9d486f8fbe'
p3149
sg187
S'002fdf30aefe9033232096dde6ad5565'
p3150
sg189
(lp3151
g3139
asg191
Nsba(ibclass
BBasicBlock
p3152
(dp3153
g12
Nsg13
(lp3154
(ibclass
BInstr
p3155
(dp3156
g2
Nsg17
S'MRS             X2, #3, c4, c2, #1'
p3157
sg19
S'22423bd5'
p3158
sg21
Vmrs x2, daif
p3159
sg5
L18446743798845687904L
sg6
Nsg23
S'MRS'
p3160
sg25
S'0xffffffc000d64860L'
p3161
sg27
Nsba(ibclass
BInstr
p3162
(dp3163
g2
Nsg17
S'MSR             #6, #2'
p3164
sg19
S'df4203d5'
p3165
sg21
Vmsr daifset, #2
p3166
sg5
L18446743798845687908L
sg6
Nsg23
S'MSR'
p3167
sg25
S'0xffffffc000d64864L'
p3168
sg27
Nsba(ibclass
BInstr
p3169
(dp3170
g2
Nsg17
S'LDR             X0, [X28,#0x30]'
p3171
sg19
S'801b40f9'
p3172
sg21
Vldr x0, [x28, #0x30]
p3173
sg5
L18446743798845687912L
sg6
Nsg23
S'LDR'
p3174
sg25
S'0xffffffc000d64868L'
p3175
sg27
Nsba(ibclass
BInstr
p3176
(dp3177
g2
Nsg17
S'LDR             X1, [X0,#0x140]'
p3178
sg19
S'01a040f9'
p3179
sg21
Vldr x1, [x0, #0x140]
p3180
sg5
L18446743798845687916L
sg6
Nsg23
S'LDR'
p3181
sg25
S'0xffffffc000d6486cL'
p3182
sg27
Nsba(ibclass
BInstr
p3183
(dp3184
g2
Nsg17
S'MRS             X0, #0, c13, c0, #4'
p3185
sg19
S'80d038d5'
p3186
sg21
Vmrs x0, tpidr_el1
p3187
sg5
L18446743798845687920L
sg6
Nsg23
S'MRS'
p3188
sg25
S'0xffffffc000d64870L'
p3189
sg27
Nsba(ibclass
BInstr
p3190
(dp3191
g2
Nsg17
S'ADD             X1, X1, #0x38'
p3192
sg19
S'21e00091'
p3193
sg21
Vadd x1, x1, #0x38
p3194
sg5
L18446743798845687924L
sg6
Nsg23
S'ADD'
p3195
sg25
S'0xffffffc000d64874L'
p3196
sg27
Nsba(ibclass
BInstr
p3197
(dp3198
g2
Nsg17
S'LDR             X3, [X0,X1]'
p3199
sg19
S'036861f8'
p3200
sg21
Vldr x3, [x0, x1]
p3201
sg5
L18446743798845687928L
sg6
Nsg23
S'LDR'
p3202
sg25
S'0xffffffc000d64878L'
p3203
sg27
Nsba(ibclass
BInstr
p3204
(dp3205
g2
Nsg17
S'ADD             X3, X3, #1'
p3206
sg19
S'63040091'
p3207
sg21
Vadd x3, x3, #1
p3208
sg5
L18446743798845687932L
sg6
Nsg23
S'ADD'
p3209
sg25
S'0xffffffc000d6487cL'
p3210
sg27
Nsba(ibclass
BInstr
p3211
(dp3212
g2
Nsg17
S'STR             X3, [X0,X1]'
p3213
sg19
S'036821f8'
p3214
sg21
Vstr x3, [x0, x1]
p3215
sg5
L18446743798845687936L
sg6
Nsg23
S'STR'
p3216
sg25
S'0xffffffc000d64880L'
p3217
sg27
Nsba(ibclass
BInstr
p3218
(dp3219
g2
Nsg17
S'MSR             #3, c4, c2, #1, X2'
p3220
sg19
S'22421bd5'
p3221
sg21
Vmsr daif, x2
p3222
sg5
L18446743798845687940L
sg6
Nsg23
S'MSR'
p3223
sg25
S'0xffffffc000d64884L'
p3224
sg27
Nsba(ibclass
BInstr
p3225
(dp3226
g2
Nsg17
S'MRS             X2, #3, c4, c2, #1'
p3227
sg19
S'22423bd5'
p3228
sg21
Vmrs x2, daif
p3229
sg5
L18446743798845687944L
sg6
Nsg23
S'MRS'
p3230
sg25
S'0xffffffc000d64888L'
p3231
sg27
Nsba(ibclass
BInstr
p3232
(dp3233
g2
Nsg17
S'MSR             #6, #2'
p3234
sg19
S'df4203d5'
p3235
sg21
Vmsr daifset, #2
p3236
sg5
L18446743798845687948L
sg6
Nsg23
S'MSR'
p3237
sg25
S'0xffffffc000d6488cL'
p3238
sg27
Nsba(ibclass
BInstr
p3239
(dp3240
g2
Nsg17
S'LDR             X0, [X28,#0x30]'
p3241
sg19
S'801b40f9'
p3242
sg21
Vldr x0, [x28, #0x30]
p3243
sg5
L18446743798845687952L
sg6
Nsg23
S'LDR'
p3244
sg25
S'0xffffffc000d64890L'
p3245
sg27
Nsba(ibclass
BInstr
p3246
(dp3247
g2
Nsg17
S'LDR             X1, [X0,#0x140]'
p3248
sg19
S'01a040f9'
p3249
sg21
Vldr x1, [x0, #0x140]
p3250
sg5
L18446743798845687956L
sg6
Nsg23
S'LDR'
p3251
sg25
S'0xffffffc000d64894L'
p3252
sg27
Nsba(ibclass
BInstr
p3253
(dp3254
g2
Nsg17
S'MRS             X0, #0, c13, c0, #4'
p3255
sg19
S'80d038d5'
p3256
sg21
Vmrs x0, tpidr_el1
p3257
sg5
L18446743798845687960L
sg6
Nsg23
S'MRS'
p3258
sg25
S'0xffffffc000d64898L'
p3259
sg27
Nsba(ibclass
BInstr
p3260
(dp3261
g2
Nsg17
S'ADD             X1, X1, #0x18'
p3262
sg19
S'21600091'
p3263
sg21
Vadd x1, x1, #0x18
p3264
sg5
L18446743798845687964L
sg6
Nsg23
S'ADD'
p3265
sg25
S'0xffffffc000d6489cL'
p3266
sg27
Nsba(ibclass
BInstr
p3267
(dp3268
g2
Nsg17
S'LDR             X3, [X0,X1]'
p3269
sg19
S'036861f8'
p3270
sg21
Vldr x3, [x0, x1]
p3271
sg5
L18446743798845687968L
sg6
Nsg23
S'LDR'
p3272
sg25
S'0xffffffc000d648a0L'
p3273
sg27
Nsba(ibclass
BInstr
p3274
(dp3275
g2
Nsg17
S'ADD             X3, X3, #1'
p3276
sg19
S'63040091'
p3277
sg21
Vadd x3, x3, #1
p3278
sg5
L18446743798845687972L
sg6
Nsg23
S'ADD'
p3279
sg25
S'0xffffffc000d648a4L'
p3280
sg27
Nsba(ibclass
BInstr
p3281
(dp3282
g2
Nsg17
S'STR             X3, [X0,X1]'
p3283
sg19
S'036821f8'
p3284
sg21
Vstr x3, [x0, x1]
p3285
sg5
L18446743798845687976L
sg6
Nsg23
S'STR'
p3286
sg25
S'0xffffffc000d648a8L'
p3287
sg27
Nsba(ibclass
BInstr
p3288
(dp3289
g2
Nsg17
S'MSR             #3, c4, c2, #1, X2'
p3290
sg19
S'22421bd5'
p3291
sg21
Vmsr daif, x2
p3292
sg5
L18446743798845687980L
sg6
Nsg23
S'MSR'
p3293
sg25
S'0xffffffc000d648acL'
p3294
sg27
Nsba(ibclass
BInstr
p3295
(dp3296
g2
Nsg17
S'B               loc_FFFFFFC000D64980'
p3297
sg19
S'34000014'
p3298
sg21
Vb #0xd0
p3299
sg5
L18446743798845687984L
sg6
Nsg23
g152
sg25
S'0xffffffc000d648b0L'
p3300
sg27
Nsbasg154
(lp3301
S'MRS reg, #3, c4, c2, #1'
p3302
aS'MSR #6, #2'
p3303
aS'LDR reg, mem'
p3304
aS'LDR reg, mem'
p3305
aS'MRS reg, #0, c13, c0, #4'
p3306
aS'ADD reg, reg, #0x38'
p3307
aS'LDR reg, mem'
p3308
aS'ADD reg, reg, #1'
p3309
aS'STR reg, mem'
p3310
aS'MSR #3, c4, c2, #1, reg'
p3311
aS'MRS reg, #3, c4, c2, #1'
p3312
aS'MSR #6, #2'
p3313
aS'LDR reg, mem'
p3314
aS'LDR reg, mem'
p3315
aS'MRS reg, #0, c13, c0, #4'
p3316
aS'ADD reg, reg, #0x18'
p3317
aS'LDR reg, mem'
p3318
aS'ADD reg, reg, #1'
p3319
aS'STR reg, mem'
p3320
aS'MSR #3, c4, c2, #1, reg'
p3321
aS'B func'
p3322
asg175
Nsg5
S'0xffffffc000d64860L'
p3323
sg177
(lp3324
S'0xffffffc000d6485cL'
p3325
asg6
Nsg179
(lp3326
S'0xffffffc000d64980L'
p3327
asg183
Nsg184
Nsg185
S'21ec169781587886ae52d334d9048d01'
p3328
sg187
S'7e89e6a9cb1b3dc3b4fc3cf8521ac2cb'
p3329
sg189
(lp3330
g3160
ag3167
ag3174
ag3181
ag3188
ag3195
ag3202
ag3209
ag3216
ag3223
ag3230
ag3237
ag3244
ag3251
ag3258
ag3265
ag3272
ag3279
ag3286
ag3293
ag152
asg191
Nsba(ibclass
BBasicBlock
p3331
(dp3332
g12
Nsg13
(lp3333
(ibclass
BInstr
p3334
(dp3335
g2
Nsg17
S'MRS             X2, #3, c4, c2, #1'
p3336
sg19
S'22423bd5'
p3337
sg21
Vmrs x2, daif
p3338
sg5
L18446743798845687988L
sg6
Nsg23
S'MRS'
p3339
sg25
S'0xffffffc000d648b4L'
p3340
sg27
Nsba(ibclass
BInstr
p3341
(dp3342
g2
Nsg17
S'MSR             #6, #2'
p3343
sg19
S'df4203d5'
p3344
sg21
Vmsr daifset, #2
p3345
sg5
L18446743798845687992L
sg6
Nsg23
S'MSR'
p3346
sg25
S'0xffffffc000d648b8L'
p3347
sg27
Nsba(ibclass
BInstr
p3348
(dp3349
g2
Nsg17
S'LDR             X0, [X28,#0x30]'
p3350
sg19
S'801b40f9'
p3351
sg21
Vldr x0, [x28, #0x30]
p3352
sg5
L18446743798845687996L
sg6
Nsg23
S'LDR'
p3353
sg25
S'0xffffffc000d648bcL'
p3354
sg27
Nsba(ibclass
BInstr
p3355
(dp3356
g2
Nsg17
S'LDR             X1, [X0,#0x138]'
p3357
sg19
S'019c40f9'
p3358
sg21
Vldr x1, [x0, #0x138]
p3359
sg5
L18446743798845688000L
sg6
Nsg23
S'LDR'
p3360
sg25
S'0xffffffc000d648c0L'
p3361
sg27
Nsba(ibclass
BInstr
p3362
(dp3363
g2
Nsg17
S'MRS             X0, #0, c13, c0, #4'
p3364
sg19
S'80d038d5'
p3365
sg21
Vmrs x0, tpidr_el1
p3366
sg5
L18446743798845688004L
sg6
Nsg23
S'MRS'
p3367
sg25
S'0xffffffc000d648c4L'
p3368
sg27
Nsba(ibclass
BInstr
p3369
(dp3370
g2
Nsg17
S'ADD             X1, X1, #0x38'
p3371
sg19
S'21e00091'
p3372
sg21
Vadd x1, x1, #0x38
p3373
sg5
L18446743798845688008L
sg6
Nsg23
S'ADD'
p3374
sg25
S'0xffffffc000d648c8L'
p3375
sg27
Nsba(ibclass
BInstr
p3376
(dp3377
g2
Nsg17
S'LDR             X3, [X0,X1]'
p3378
sg19
S'036861f8'
p3379
sg21
Vldr x3, [x0, x1]
p3380
sg5
L18446743798845688012L
sg6
Nsg23
S'LDR'
p3381
sg25
S'0xffffffc000d648ccL'
p3382
sg27
Nsba(ibclass
BInstr
p3383
(dp3384
g2
Nsg17
S'ADD             X3, X3, #1'
p3385
sg19
S'63040091'
p3386
sg21
Vadd x3, x3, #1
p3387
sg5
L18446743798845688016L
sg6
Nsg23
S'ADD'
p3388
sg25
S'0xffffffc000d648d0L'
p3389
sg27
Nsba(ibclass
BInstr
p3390
(dp3391
g2
Nsg17
S'STR             X3, [X0,X1]'
p3392
sg19
S'036821f8'
p3393
sg21
Vstr x3, [x0, x1]
p3394
sg5
L18446743798845688020L
sg6
Nsg23
S'STR'
p3395
sg25
S'0xffffffc000d648d4L'
p3396
sg27
Nsba(ibclass
BInstr
p3397
(dp3398
g2
Nsg17
S'MSR             #3, c4, c2, #1, X2'
p3399
sg19
S'22421bd5'
p3400
sg21
Vmsr daif, x2
p3401
sg5
L18446743798845688024L
sg6
Nsg23
S'MSR'
p3402
sg25
S'0xffffffc000d648d8L'
p3403
sg27
Nsba(ibclass
BInstr
p3404
(dp3405
g2
Nsg17
S'MRS             X0, #3, c4, c2, #1'
p3406
sg19
S'20423bd5'
p3407
sg21
Vmrs x0, daif
p3408
sg5
L18446743798845688028L
sg6
Nsg23
S'MRS'
p3409
sg25
S'0xffffffc000d648dcL'
p3410
sg27
Nsba(ibclass
BInstr
p3411
(dp3412
g2
Nsg17
S'MSR             #6, #2'
p3413
sg19
S'df4203d5'
p3414
sg21
Vmsr daifset, #2
p3415
sg5
L18446743798845688032L
sg6
Nsg23
S'MSR'
p3416
sg25
S'0xffffffc000d648e0L'
p3417
sg27
Nsba(ibclass
BInstr
p3418
(dp3419
g2
Nsg17
S'LDR             X1, [X28,#0x30]'
p3420
sg19
S'811b40f9'
p3421
sg21
Vldr x1, [x28, #0x30]
p3422
sg5
L18446743798845688036L
sg6
Nsg23
S'LDR'
p3423
sg25
S'0xffffffc000d648e4L'
p3424
sg27
Nsba(ibclass
BInstr
p3425
(dp3426
g2
Nsg17
S'LDR             X1, [X1,#0x138]'
p3427
sg19
S'219c40f9'
p3428
sg21
Vldr x1, [x1, #0x138]
p3429
sg5
L18446743798845688040L
sg6
Nsg23
S'LDR'
p3430
sg25
S'0xffffffc000d648e8L'
p3431
sg27
Nsba(ibclass
BInstr
p3432
(dp3433
g2
Nsg17
S'B               loc_FFFFFFC000D64968'
p3434
sg19
S'1f000014'
p3435
sg21
Vb #0x7c
p3436
sg5
L18446743798845688044L
sg6
Nsg23
g152
sg25
S'0xffffffc000d648ecL'
p3437
sg27
Nsbasg154
(lp3438
S'MRS reg, #3, c4, c2, #1'
p3439
aS'MSR #6, #2'
p3440
aS'LDR reg, mem'
p3441
aS'LDR reg, mem'
p3442
aS'MRS reg, #0, c13, c0, #4'
p3443
aS'ADD reg, reg, #0x38'
p3444
aS'LDR reg, mem'
p3445
aS'ADD reg, reg, #1'
p3446
aS'STR reg, mem'
p3447
aS'MSR #3, c4, c2, #1, reg'
p3448
aS'MRS reg, #3, c4, c2, #1'
p3449
aS'MSR #6, #2'
p3450
aS'LDR reg, mem'
p3451
aS'LDR reg, mem'
p3452
aS'B func'
p3453
asg175
Nsg5
S'0xffffffc000d648b4L'
p3454
sg177
(lp3455
S'0xffffffc000d6485cL'
p3456
asg6
Nsg179
(lp3457
S'0xffffffc000d64968L'
p3458
asg183
Nsg184
Nsg185
S'dd085f5c3f257d61cf62fa1eece08efe'
p3459
sg187
S'e3c9857f1059945a26a8f811ea23204c'
p3460
sg189
(lp3461
g3339
ag3346
ag3353
ag3360
ag3367
ag3374
ag3381
ag3388
ag3395
ag3402
ag3409
ag3416
ag3423
ag3430
ag152
asg191
Nsba(ibclass
BBasicBlock
p3462
(dp3463
g12
Nsg13
(lp3464
(ibclass
BInstr
p3465
(dp3466
g2
Nsg17
S'CBZ             W20, loc_FFFFFFC000D64930'
p3467
sg19
S'14020034'
p3468
sg21
Vcbz w20, #0x40
p3469
sg5
L18446743798845688048L
sg6
Nsg23
S'CBZ'
p3470
sg25
S'0xffffffc000d648f0L'
p3471
sg27
Nsbasg154
(lp3472
S'CBZ reg0, func'
p3473
asg175
Nsg5
S'0xffffffc000d648f0L'
p3474
sg177
(lp3475
S'0xffffffc000d64858L'
p3476
asg6
Nsg179
(lp3477
S'0xffffffc000d648f4L'
p3478
aS'0xffffffc000d64930L'
p3479
asg183
Nsg184
Nsg185
S'de8e361453cf9f764a4abe9d486f8fbe'
p3480
sg187
S'002fdf30aefe9033232096dde6ad5565'
p3481
sg189
(lp3482
g3470
asg191
Nsba(ibclass
BBasicBlock
p3483
(dp3484
g12
Nsg13
(lp3485
(ibclass
BInstr
p3486
(dp3487
g2
Nsg17
S'MRS             X0, #3, c4, c2, #1'
p3488
sg19
S'20423bd5'
p3489
sg21
Vmrs x0, daif
p3490
sg5
L18446743798845688052L
sg6
Nsg23
S'MRS'
p3491
sg25
S'0xffffffc000d648f4L'
p3492
sg27
Nsba(ibclass
BInstr
p3493
(dp3494
g2
Nsg17
S'MSR             #6, #2'
p3495
sg19
S'df4203d5'
p3496
sg21
Vmsr daifset, #2
p3497
sg5
L18446743798845688056L
sg6
Nsg23
S'MSR'
p3498
sg25
S'0xffffffc000d648f8L'
p3499
sg27
Nsba(ibclass
BInstr
p3500
(dp3501
g2
Nsg17
S'LDR             X1, [X28,#0x30]'
p3502
sg19
S'811b40f9'
p3503
sg21
Vldr x1, [x28, #0x30]
p3504
sg5
L18446743798845688060L
sg6
Nsg23
S'LDR'
p3505
sg25
S'0xffffffc000d648fcL'
p3506
sg27
Nsba(ibclass
BInstr
p3507
(dp3508
g2
Nsg17
S'MRS             X2, #0, c13, c0, #4'
p3509
sg19
S'82d038d5'
p3510
sg21
Vmrs x2, tpidr_el1
p3511
sg5
L18446743798845688064L
sg6
Nsg23
S'MRS'
p3512
sg25
S'0xffffffc000d64900L'
p3513
sg27
Nsba(ibclass
BInstr
p3514
(dp3515
g2
Nsg17
S'LDR             X1, [X1,#0x168]'
p3516
sg19
S'21b440f9'
p3517
sg21
Vldr x1, [x1, #0x168]
p3518
sg5
L18446743798845688068L
sg6
Nsg23
S'LDR'
p3519
sg25
S'0xffffffc000d64904L'
p3520
sg27
Nsba(ibclass
BInstr
p3521
(dp3522
g2
Nsg17
S'ADD             X1, X1, #0x38'
p3523
sg19
S'21e00091'
p3524
sg21
Vadd x1, x1, #0x38
p3525
sg5
L18446743798845688072L
sg6
Nsg23
S'ADD'
p3526
sg25
S'0xffffffc000d64908L'
p3527
sg27
Nsba(ibclass
BInstr
p3528
(dp3529
g2
Nsg17
S'LDR             X3, [X2,X1]'
p3530
sg19
S'436861f8'
p3531
sg21
Vldr x3, [x2, x1]
p3532
sg5
L18446743798845688076L
sg6
Nsg23
S'LDR'
p3533
sg25
S'0xffffffc000d6490cL'
p3534
sg27
Nsba(ibclass
BInstr
p3535
(dp3536
g2
Nsg17
S'ADD             X3, X3, #1'
p3537
sg19
S'63040091'
p3538
sg21
Vadd x3, x3, #1
p3539
sg5
L18446743798845688080L
sg6
Nsg23
S'ADD'
p3540
sg25
S'0xffffffc000d64910L'
p3541
sg27
Nsba(ibclass
BInstr
p3542
(dp3543
g2
Nsg17
S'STR             X3, [X2,X1]'
p3544
sg19
S'436821f8'
p3545
sg21
Vstr x3, [x2, x1]
p3546
sg5
L18446743798845688084L
sg6
Nsg23
S'STR'
p3547
sg25
S'0xffffffc000d64914L'
p3548
sg27
Nsba(ibclass
BInstr
p3549
(dp3550
g2
Nsg17
S'MSR             #3, c4, c2, #1, X0'
p3551
sg19
S'20421bd5'
p3552
sg21
Vmsr daif, x0
p3553
sg5
L18446743798845688088L
sg6
Nsg23
S'MSR'
p3554
sg25
S'0xffffffc000d64918L'
p3555
sg27
Nsba(ibclass
BInstr
p3556
(dp3557
g2
Nsg17
S'MRS             X0, #3, c4, c2, #1'
p3558
sg19
S'20423bd5'
p3559
sg21
Vmrs x0, daif
p3560
sg5
L18446743798845688092L
sg6
Nsg23
S'MRS'
p3561
sg25
S'0xffffffc000d6491cL'
p3562
sg27
Nsba(ibclass
BInstr
p3563
(dp3564
g2
Nsg17
S'MSR             #6, #2'
p3565
sg19
S'df4203d5'
p3566
sg21
Vmsr daifset, #2
p3567
sg5
L18446743798845688096L
sg6
Nsg23
S'MSR'
p3568
sg25
S'0xffffffc000d64920L'
p3569
sg27
Nsba(ibclass
BInstr
p3570
(dp3571
g2
Nsg17
S'LDR             X1, [X28,#0x30]'
p3572
sg19
S'811b40f9'
p3573
sg21
Vldr x1, [x28, #0x30]
p3574
sg5
L18446743798845688100L
sg6
Nsg23
S'LDR'
p3575
sg25
S'0xffffffc000d64924L'
p3576
sg27
Nsba(ibclass
BInstr
p3577
(dp3578
g2
Nsg17
S'LDR             X1, [X1,#0x168]'
p3579
sg19
S'21b440f9'
p3580
sg21
Vldr x1, [x1, #0x168]
p3581
sg5
L18446743798845688104L
sg6
Nsg23
S'LDR'
p3582
sg25
S'0xffffffc000d64928L'
p3583
sg27
Nsba(ibclass
BInstr
p3584
(dp3585
g2
Nsg17
S'B               loc_FFFFFFC000D64968'
p3586
sg19
S'0f000014'
p3587
sg21
Vb #0x3c
p3588
sg5
L18446743798845688108L
sg6
Nsg23
g152
sg25
S'0xffffffc000d6492cL'
p3589
sg27
Nsbasg154
(lp3590
S'MRS reg, #3, c4, c2, #1'
p3591
aS'MSR #6, #2'
p3592
aS'LDR reg, mem'
p3593
aS'MRS reg, #0, c13, c0, #4'
p3594
aS'LDR reg, mem'
p3595
aS'ADD reg, reg, #0x38'
p3596
aS'LDR reg, mem'
p3597
aS'ADD reg, reg, #1'
p3598
aS'STR reg, mem'
p3599
aS'MSR #3, c4, c2, #1, reg'
p3600
aS'MRS reg, #3, c4, c2, #1'
p3601
aS'MSR #6, #2'
p3602
aS'LDR reg, mem'
p3603
aS'LDR reg, mem'
p3604
aS'B func'
p3605
asg175
Nsg5
S'0xffffffc000d648f4L'
p3606
sg177
(lp3607
S'0xffffffc000d648f0L'
p3608
asg6
Nsg179
(lp3609
S'0xffffffc000d64968L'
p3610
asg183
Nsg184
Nsg185
S'f23e49dfb35b3005de990899363fca86'
p3611
sg187
S'e8e7024d39c17e81d0164d30bb39a4c3'
p3612
sg189
(lp3613
g3491
ag3498
ag3505
ag3512
ag3519
ag3526
ag3533
ag3540
ag3547
ag3554
ag3561
ag3568
ag3575
ag3582
ag152
asg191
Nsba(ibclass
BBasicBlock
p3614
(dp3615
g12
Nsg13
(lp3616
(ibclass
BInstr
p3617
(dp3618
g2
Nsg17
S'MRS             X0, #3, c4, c2, #1'
p3619
sg19
S'20423bd5'
p3620
sg21
Vmrs x0, daif
p3621
sg5
L18446743798845688112L
sg6
Nsg23
S'MRS'
p3622
sg25
S'0xffffffc000d64930L'
p3623
sg27
Nsba(ibclass
BInstr
p3624
(dp3625
g2
Nsg17
S'MSR             #6, #2'
p3626
sg19
S'df4203d5'
p3627
sg21
Vmsr daifset, #2
p3628
sg5
L18446743798845688116L
sg6
Nsg23
S'MSR'
p3629
sg25
S'0xffffffc000d64934L'
p3630
sg27
Nsba(ibclass
BInstr
p3631
(dp3632
g2
Nsg17
S'LDR             X1, [X28,#0x30]'
p3633
sg19
S'811b40f9'
p3634
sg21
Vldr x1, [x28, #0x30]
p3635
sg5
L18446743798845688120L
sg6
Nsg23
S'LDR'
p3636
sg25
S'0xffffffc000d64938L'
p3637
sg27
Nsba(ibclass
BInstr
p3638
(dp3639
g2
Nsg17
S'MRS             X2, #0, c13, c0, #4'
p3640
sg19
S'82d038d5'
p3641
sg21
Vmrs x2, tpidr_el1
p3642
sg5
L18446743798845688124L
sg6
Nsg23
S'MRS'
p3643
sg25
S'0xffffffc000d6493cL'
p3644
sg27
Nsba(ibclass
BInstr
p3645
(dp3646
g2
Nsg17
S'LDR             X1, [X1,#0x160]'
p3647
sg19
S'21b040f9'
p3648
sg21
Vldr x1, [x1, #0x160]
p3649
sg5
L18446743798845688128L
sg6
Nsg23
S'LDR'
p3650
sg25
S'0xffffffc000d64940L'
p3651
sg27
Nsba(ibclass
BInstr
p3652
(dp3653
g2
Nsg17
S'ADD             X1, X1, #0x38'
p3654
sg19
S'21e00091'
p3655
sg21
Vadd x1, x1, #0x38
p3656
sg5
L18446743798845688132L
sg6
Nsg23
S'ADD'
p3657
sg25
S'0xffffffc000d64944L'
p3658
sg27
Nsba(ibclass
BInstr
p3659
(dp3660
g2
Nsg17
S'LDR             X3, [X2,X1]'
p3661
sg19
S'436861f8'
p3662
sg21
Vldr x3, [x2, x1]
p3663
sg5
L18446743798845688136L
sg6
Nsg23
S'LDR'
p3664
sg25
S'0xffffffc000d64948L'
p3665
sg27
Nsba(ibclass
BInstr
p3666
(dp3667
g2
Nsg17
S'ADD             X3, X3, #1'
p3668
sg19
S'63040091'
p3669
sg21
Vadd x3, x3, #1
p3670
sg5
L18446743798845688140L
sg6
Nsg23
S'ADD'
p3671
sg25
S'0xffffffc000d6494cL'
p3672
sg27
Nsba(ibclass
BInstr
p3673
(dp3674
g2
Nsg17
S'STR             X3, [X2,X1]'
p3675
sg19
S'436821f8'
p3676
sg21
Vstr x3, [x2, x1]
p3677
sg5
L18446743798845688144L
sg6
Nsg23
S'STR'
p3678
sg25
S'0xffffffc000d64950L'
p3679
sg27
Nsba(ibclass
BInstr
p3680
(dp3681
g2
Nsg17
S'MSR             #3, c4, c2, #1, X0'
p3682
sg19
S'20421bd5'
p3683
sg21
Vmsr daif, x0
p3684
sg5
L18446743798845688148L
sg6
Nsg23
S'MSR'
p3685
sg25
S'0xffffffc000d64954L'
p3686
sg27
Nsba(ibclass
BInstr
p3687
(dp3688
g2
Nsg17
S'MRS             X0, #3, c4, c2, #1'
p3689
sg19
S'20423bd5'
p3690
sg21
Vmrs x0, daif
p3691
sg5
L18446743798845688152L
sg6
Nsg23
S'MRS'
p3692
sg25
S'0xffffffc000d64958L'
p3693
sg27
Nsba(ibclass
BInstr
p3694
(dp3695
g2
Nsg17
S'MSR             #6, #2'
p3696
sg19
S'df4203d5'
p3697
sg21
Vmsr daifset, #2
p3698
sg5
L18446743798845688156L
sg6
Nsg23
S'MSR'
p3699
sg25
S'0xffffffc000d6495cL'
p3700
sg27
Nsba(ibclass
BInstr
p3701
(dp3702
g2
Nsg17
S'LDR             X1, [X28,#0x30]'
p3703
sg19
S'811b40f9'
p3704
sg21
Vldr x1, [x28, #0x30]
p3705
sg5
L18446743798845688160L
sg6
Nsg23
S'LDR'
p3706
sg25
S'0xffffffc000d64960L'
p3707
sg27
Nsba(ibclass
BInstr
p3708
(dp3709
g2
Nsg17
S'LDR             X1, [X1,#0x160]'
p3710
sg19
S'21b040f9'
p3711
sg21
Vldr x1, [x1, #0x160]
p3712
sg5
L18446743798845688164L
sg6
Nsg23
S'LDR'
p3713
sg25
S'0xffffffc000d64964L'
p3714
sg27
Nsbasg154
(lp3715
S'MRS reg, #3, c4, c2, #1'
p3716
aS'MSR #6, #2'
p3717
aS'LDR reg, mem'
p3718
aS'MRS reg, #0, c13, c0, #4'
p3719
aS'LDR reg, mem'
p3720
aS'ADD reg, reg, #0x38'
p3721
aS'LDR reg, mem'
p3722
aS'ADD reg, reg, #1'
p3723
aS'STR reg, mem'
p3724
aS'MSR #3, c4, c2, #1, reg'
p3725
aS'MRS reg, #3, c4, c2, #1'
p3726
aS'MSR #6, #2'
p3727
aS'LDR reg, mem'
p3728
aS'LDR reg, mem'
p3729
asg175
Nsg5
S'0xffffffc000d64930L'
p3730
sg177
(lp3731
S'0xffffffc000d648f0L'
p3732
asg6
Nsg179
(lp3733
S'0xffffffc000d64968L'
p3734
asg183
Nsg184
Nsg185
S'4e621d7cfad3885d63ab98c7a08138ce'
p3735
sg187
S'311c577aa35a5713c454755f44b776b9'
p3736
sg189
(lp3737
g3622
ag3629
ag3636
ag3643
ag3650
ag3657
ag3664
ag3671
ag3678
ag3685
ag3692
ag3699
ag3706
ag3713
asg191
Nsba(ibclass
BBasicBlock
p3738
(dp3739
g12
Nsg13
(lp3740
(ibclass
BInstr
p3741
(dp3742
g2
Nsg17
S'MRS             X2, #0, c13, c0, #4'
p3743
sg19
S'82d038d5'
p3744
sg21
Vmrs x2, tpidr_el1
p3745
sg5
L18446743798845688168L
sg6
Nsg23
S'MRS'
p3746
sg25
S'0xffffffc000d64968L'
p3747
sg27
Nsba(ibclass
BInstr
p3748
(dp3749
g2
Nsg17
S'ADD             X1, X1, #0x18'
p3750
sg19
S'21600091'
p3751
sg21
Vadd x1, x1, #0x18
p3752
sg5
L18446743798845688172L
sg6
Nsg23
S'ADD'
p3753
sg25
S'0xffffffc000d6496cL'
p3754
sg27
Nsba(ibclass
BInstr
p3755
(dp3756
g2
Nsg17
S'LDR             X3, [X2,X1]'
p3757
sg19
S'436861f8'
p3758
sg21
Vldr x3, [x2, x1]
p3759
sg5
L18446743798845688176L
sg6
Nsg23
S'LDR'
p3760
sg25
S'0xffffffc000d64970L'
p3761
sg27
Nsba(ibclass
BInstr
p3762
(dp3763
g2
Nsg17
S'ADD             X3, X3, #1'
p3764
sg19
S'63040091'
p3765
sg21
Vadd x3, x3, #1
p3766
sg5
L18446743798845688180L
sg6
Nsg23
S'ADD'
p3767
sg25
S'0xffffffc000d64974L'
p3768
sg27
Nsba(ibclass
BInstr
p3769
(dp3770
g2
Nsg17
S'STR             X3, [X2,X1]'
p3771
sg19
S'436821f8'
p3772
sg21
Vstr x3, [x2, x1]
p3773
sg5
L18446743798845688184L
sg6
Nsg23
S'STR'
p3774
sg25
S'0xffffffc000d64978L'
p3775
sg27
Nsba(ibclass
BInstr
p3776
(dp3777
g2
Nsg17
S'MSR             #3, c4, c2, #1, X0'
p3778
sg19
S'20421bd5'
p3779
sg21
Vmsr daif, x0
p3780
sg5
L18446743798845688188L
sg6
Nsg23
S'MSR'
p3781
sg25
S'0xffffffc000d6497cL'
p3782
sg27
Nsbasg154
(lp3783
S'MRS reg, #0, c13, c0, #4'
p3784
aS'ADD reg, reg, #0x18'
p3785
aS'LDR reg, mem'
p3786
aS'ADD reg, reg, #1'
p3787
aS'STR reg, mem'
p3788
aS'MSR #3, c4, c2, #1, reg'
p3789
asg175
Nsg5
S'0xffffffc000d64968L'
p3790
sg177
(lp3791
S'0xffffffc000d648b4L'
p3792
aS'0xffffffc000d648f4L'
p3793
aS'0xffffffc000d64930L'
p3794
asg6
Nsg179
(lp3795
S'0xffffffc000d64980L'
p3796
asg183
Nsg184
Nsg185
S'234390ebb4acd3efb86a3bdf88d932e8'
p3797
sg187
S'cce75f051b3380580fb9ccab18f8e3de'
p3798
sg189
(lp3799
g3746
ag3753
ag3760
ag3767
ag3774
ag3781
asg191
Nsba(ibclass
BBasicBlock
p3800
(dp3801
g12
Nsg13
(lp3802
(ibclass
BInstr
p3803
(dp3804
g2
Nsg17
S'CBZ             W25, loc_FFFFFFC000D64990'
p3805
sg19
S'99000034'
p3806
sg21
Vcbz w25, #0x10
p3807
sg5
L18446743798845688192L
sg6
Nsg23
S'CBZ'
p3808
sg25
S'0xffffffc000d64980L'
p3809
sg27
Nsbasg154
(lp3810
S'CBZ reg5, func'
p3811
asg175
Nsg5
S'0xffffffc000d64980L'
p3812
sg177
(lp3813
S'0xffffffc000d64838L'
p3814
aS'0xffffffc000d64860L'
p3815
aS'0xffffffc000d64968L'
p3816
asg6
Nsg179
(lp3817
S'0xffffffc000d64984L'
p3818
aS'0xffffffc000d64990L'
p3819
asg183
Nsg184
Nsg185
S'de8e361453cf9f764a4abe9d486f8fbe'
p3820
sg187
S'e05762c38c42bd6b1fff61101acb13e7'
p3821
sg189
(lp3822
g3808
asg191
Nsba(ibclass
BBasicBlock
p3823
(dp3824
g12
Nsg13
(lp3825
(ibclass
BInstr
p3826
(dp3827
g2
Nsg17
S'MOV             X0, X28'
p3828
sg19
S'e0031caa'
p3829
sg21
Vmov x0, x28
p3830
sg5
L18446743798845688196L
sg6
Nsg23
S'MOV'
p3831
sg25
S'0xffffffc000d64984L'
p3832
sg27
Nsba(ibclass
BInstr
p3833
(dp3834
g2
Nsg17
S'BL              release_sock'
p3835
sg19
S'5b60fc97'
p3836
sg21
Vbl #0xfffffffffff1816c
p3837
sg5
L18446743798845688200L
sg6
Nsg23
S'BL'
p3838
sg25
S'0xffffffc000d64988L'
p3839
sg27
Nsba(ibclass
BInstr
p3840
(dp3841
g2
Nsg17
S'B               loc_FFFFFFC000D64998'
p3842
sg19
S'03000014'
p3843
sg21
Vb #0xc
p3844
sg5
L18446743798845688204L
sg6
Nsg23
g152
sg25
S'0xffffffc000d6498cL'
p3845
sg27
Nsbasg154
(lp3846
S'MOV reg, reg8'
p3847
aS'BL release_sock'
p3848
aS'B func'
p3849
asg175
Nsg5
S'0xffffffc000d64984L'
p3850
sg177
(lp3851
S'0xffffffc000d64980L'
p3852
asg6
Nsg179
(lp3853
S'0xffffffc000d64998L'
p3854
asg183
Nsg184
Nsg185
S'f3f645dfcfe38b34211b70b425c07bfe'
p3855
sg187
S'dbcb40af4b5e35e568bb1e4ab10d3498'
p3856
sg189
(lp3857
g3831
ag3838
ag152
asg191
Nsba(ibclass
BBasicBlock
p3858
(dp3859
g12
Nsg13
(lp3860
(ibclass
BInstr
p3861
(dp3862
g2
Nsg17
S'LDR             X0, [X29,#arg_80]'
p3863
sg19
S'a04b40f9'
p3864
sg21
Vldr x0, [x29, #0x90]
p3865
sg5
L18446743798845688208L
sg6
Nsg23
S'LDR'
p3866
sg25
S'0xffffffc000d64990L'
p3867
sg27
Nsba(ibclass
BInstr
p3868
(dp3869
g2
Nsg17
S'BL              _raw_spin_unlock_bh'
p3870
sg19
S'd8660394'
p3871
sg21
Vbl #0xd9b60
p3872
sg5
L18446743798845688212L
sg6
Nsg23
S'BL'
p3873
sg25
S'0xffffffc000d64994L'
p3874
sg27
Nsbasg154
(lp3875
S'LDR reg, mem'
p3876
aS'BL _raw_spin_unlock_bh'
p3877
asg175
Nsg5
S'0xffffffc000d64990L'
p3878
sg177
(lp3879
S'0xffffffc000d64980L'
p3880
asg6
Nsg179
(lp3881
S'0xffffffc000d64998L'
p3882
asg183
Nsg184
Nsg185
S'4e0fcbba73e1b3acf3fb7589695bbaa1'
p3883
sg187
S'b91bc4a49efd32d526ade868aee3e8b1'
p3884
sg189
(lp3885
g3866
ag3873
asg191
Nsba(ibclass
BBasicBlock
p3886
(dp3887
g12
Nsg13
(lp3888
(ibclass
BInstr
p3889
(dp3890
g2
Nsg17
S'LDR             W1, [X29,#arg_60]'
p3891
sg19
S'a17340b9'
p3892
sg21
Vldr w1, [x29, #0x70]
p3893
sg5
L18446743798845688216L
sg6
Nsg23
S'LDR'
p3894
sg25
S'0xffffffc000d64998L'
p3895
sg27
Nsba(ibclass
BInstr
p3896
(dp3897
g2
Nsg17
S'CBNZ            W1, loc_FFFFFFC000D649B0'
p3898
sg19
S'a1000035'
p3899
sg21
Vcbnz w1, #0x14
p3900
sg5
L18446743798845688220L
sg6
Nsg23
S'CBNZ'
p3901
sg25
S'0xffffffc000d6499cL'
p3902
sg27
Nsbasg154
(lp3903
S'LDR reg, mem'
p3904
aS'CBNZ reg, func'
p3905
asg175
Nsg5
S'0xffffffc000d64998L'
p3906
sg177
(lp3907
S'0xffffffc000d64984L'
p3908
aS'0xffffffc000d64990L'
p3909
asg6
Nsg179
(lp3910
S'0xffffffc000d649a0L'
p3911
aS'0xffffffc000d649b0L'
p3912
asg183
Nsg184
Nsg185
S'5522ad3e8b25e3a8f9013bb9571723e7'
p3913
sg187
S'7604765c3c810c2510cc031abcc4f1e2'
p3914
sg189
(lp3915
g3894
ag3901
asg191
Nsba(ibclass
BBasicBlock
p3916
(dp3917
g12
Nsg13
(lp3918
(ibclass
BInstr
p3919
(dp3920
g2
Nsg17
S'LDR             W0, [X19,#0x30]'
p3921
sg19
S'603240b9'
p3922
sg21
Vldr w0, [x19, #0x30]
p3923
sg5
L18446743798845688224L
sg6
Nsg23
S'LDR'
p3924
sg25
S'0xffffffc000d649a0L'
p3925
sg27
Nsba(ibclass
BInstr
p3926
(dp3927
g2
Nsg17
S'AND             W0, W0, #0xFFFFFFDF'
p3928
sg19
S'00781a12'
p3929
sg21
Vand w0, w0, #0xffffffdf
p3930
sg5
L18446743798845688228L
sg6
Nsg23
S'AND'
p3931
sg25
S'0xffffffc000d649a4L'
p3932
sg27
Nsba(ibclass
BInstr
p3933
(dp3934
g2
Nsg17
S'STR             W0, [X19,#0x30]'
p3935
sg19
S'603200b9'
p3936
sg21
Vstr w0, [x19, #0x30]
p3937
sg5
L18446743798845688232L
sg6
Nsg23
S'STR'
p3938
sg25
S'0xffffffc000d649a8L'
p3939
sg27
Nsba(ibclass
BInstr
p3940
(dp3941
g2
Nsg17
S'B               loc_FFFFFFC000D644C8'
p3942
sg19
S'c7feff17'
p3943
sg21
Vb #0xfffffffffffffb1c
p3944
sg5
L18446743798845688236L
sg6
Nsg23
g152
sg25
S'0xffffffc000d649acL'
p3945
sg27
Nsbasg154
(lp3946
S'LDR reg, mem'
p3947
aS'AND reg, reg, #0xFFFFFFDF'
p3948
aS'STR reg, mem'
p3949
aS'B func'
p3950
asg175
Nsg5
S'0xffffffc000d649a0L'
p3951
sg177
(lp3952
S'0xffffffc000d64998L'
p3953
asg6
Nsg179
(lp3954
S'0xffffffc000d644c8L'
p3955
asg183
Nsg184
Nsg185
S'b479a6c532fd3a82f2019d1d27337b1a'
p3956
sg187
S'6ec63611273ae0fb23b43f6d78ccf105'
p3957
sg189
(lp3958
g3924
ag3931
ag3938
ag152
asg191
Nsba(ibclass
BBasicBlock
p3959
(dp3960
g12
Nsg13
(lp3961
(ibclass
BInstr
p3962
(dp3963
g2
Nsg17
S'MOV             W0, #0xFFFFFFF5'
p3964
sg19
S'40018012'
p3965
sg21
Vmovn w0, #0xa
p3966
sg5
L18446743798845688240L
sg6
Nsg23
S'MOV'
p3967
sg25
S'0xffffffc000d649b0L'
p3968
sg27
Nsbasg154
(lp3969
S'MOV reg, #0xFFFFFFF5'
p3970
asg175
Nsg5
S'0xffffffc000d649b0L'
p3971
sg177
(lp3972
S'0xffffffc000d64998L'
p3973
asg6
Nsg179
(lp3974
S'0xffffffc000d649b4L'
p3975
asg183
Nsg184
Nsg185
S'17b32100aef1fc19670be7fd58bc85df'
p3976
sg187
S'50523a7dc90071ee084b7fef54cb35e5'
p3977
sg189
(lp3978
g3967
asg191
Nsba(ibclass
BBasicBlock
p3979
(dp3980
g12
Nsg13
(lp3981
(ibclass
BInstr
p3982
(dp3983
g2
Nsg17
S'LDP             X19, X20, [SP,#0x90+var_80]'
p3984
sg19
S'f35341a9'
p3985
sg21
Vldp x19, x20, [sp, #0x10]
p3986
sg5
L18446743798845688244L
sg6
Nsg23
S'LDP'
p3987
sg25
S'0xffffffc000d649b4L'
p3988
sg27
Nsba(ibclass
BInstr
p3989
(dp3990
g2
Nsg17
S'LDP             X21, X22, [SP,#0x90+var_70]'
p3991
sg19
S'f55b42a9'
p3992
sg21
Vldp x21, x22, [sp, #0x20]
p3993
sg5
L18446743798845688248L
sg6
Nsg23
S'LDP'
p3994
sg25
S'0xffffffc000d649b8L'
p3995
sg27
Nsba(ibclass
BInstr
p3996
(dp3997
g2
Nsg17
S'LDP             X23, X24, [SP,#0x90+var_60]'
p3998
sg19
S'f76343a9'
p3999
sg21
Vldp x23, x24, [sp, #0x30]
p4000
sg5
L18446743798845688252L
sg6
Nsg23
S'LDP'
p4001
sg25
S'0xffffffc000d649bcL'
p4002
sg27
Nsba(ibclass
BInstr
p4003
(dp4004
g2
Nsg17
S'LDP             X25, X26, [SP,#0x90+var_50]'
p4005
sg19
S'f96b44a9'
p4006
sg21
Vldp x25, x26, [sp, #0x40]
p4007
sg5
L18446743798845688256L
sg6
Nsg23
S'LDP'
p4008
sg25
S'0xffffffc000d649c0L'
p4009
sg27
Nsba(ibclass
BInstr
p4010
(dp4011
g2
Nsg17
S'LDP             X27, X28, [SP,#0x90+var_40]'
p4012
sg19
S'fb7345a9'
p4013
sg21
Vldp x27, x28, [sp, #0x50]
p4014
sg5
L18446743798845688260L
sg6
Nsg23
S'LDP'
p4015
sg25
S'0xffffffc000d649c4L'
p4016
sg27
Nsba(ibclass
BInstr
p4017
(dp4018
g2
Nsg17
S'LDP             X29, X30, [SP+0x90+var_90],#0xA0'
p4019
sg19
S'fd7bcaa8'
p4020
sg21
Vldp x29, x30, [sp], #0xa0
p4021
sg5
L18446743798845688264L
sg6
Nsg23
S'LDP'
p4022
sg25
S'0xffffffc000d649c8L'
p4023
sg27
Nsba(ibclass
BInstr
p4024
(dp4025
g2
Nsg17
S'RET'
p4026
sg19
S'c0035fd6'
p4027
sg21
Vret 
p4028
sg5
L18446743798845688268L
sg6
Nsg23
S'RET'
p4029
sg25
S'0xffffffc000d649ccL'
p4030
sg27
Nsbasg154
(lp4031
S'LDP reg9, reg0, mem'
p4032
aS'LDP reg1, reg2, mem'
p4033
aS'LDP reg3, reg4, mem'
p4034
aS'LDP reg5, reg6, mem'
p4035
aS'LDP reg7, reg8, mem'
p4036
aS'LDP reg9, reg0, mem,#0xA0'
p4037
ag4026
asg175
Nsg5
S'0xffffffc000d649b4L'
p4038
sg177
(lp4039
S'0xffffffc000d64460L'
p4040
aS'0xffffffc000d64488L'
p4041
aS'0xffffffc000d64830L'
p4042
aS'0xffffffc000d649b0L'
p4043
asg6
Nsg179
(lp4044
sg183
Nsg184
Nsg185
S'55f004df594cd7b606f87005407214ab'
p4045
sg187
S'388dc616accd8f2ebf2abaec2841d712'
p4046
sg189
(lp4047
g3987
ag3994
ag4001
ag4008
ag4015
ag4022
ag4029
asg191
Nsbasb.