(ibclass
BFunc
p0
(dp1
S'hash'
p2
NsS'name'
p3
S'venus_hfi_session_abort'
p4
sS'start_address'
p5
L18446743798839753816L
sS'flag'
p6
NsS'program'
p7
NsS'bbs'
p8
(lp9
(ibclass
BBasicBlock
p10
(dp11
S'function'
p12
NsS'binstrs'
p13
(lp14
(ibclass
BInstr
p15
(dp16
g2
NsS'disasm'
p17
S'STP             X29, X30, [SP,#-0x10+var_10]!'
p18
sS'bytes'
p19
S'fd7bbea9'
p20
sS'disasm_striped'
p21
Vstp x29, x30, [sp, #-0x20]!
p22
sg5
L18446743798839753816L
sg6
NsS'mnem'
p23
S'STP'
p24
sS'address'
p25
S'0xffffffc0007bbc58L'
p26
sS'basicblock'
p27
Nsba(ibclass
BInstr
p28
(dp29
g2
Nsg17
S'MOV             X29, SP'
p30
sg19
S'fd030091'
p31
sg21
Vmov x29, sp
p32
sg5
L18446743798839753820L
sg6
Nsg23
S'MOV'
p33
sg25
S'0xffffffc0007bbc5cL'
p34
sg27
Nsba(ibclass
BInstr
p35
(dp36
g2
Nsg17
S'STR             X19, [SP,#0x10+var_s0]'
p37
sg19
S'f30b00f9'
p38
sg21
Vstr x19, [sp, #0x10]
p39
sg5
L18446743798839753824L
sg6
Nsg23
S'STR'
p40
sg25
S'0xffffffc0007bbc60L'
p41
sg27
Nsba(ibclass
BInstr
p42
(dp43
g2
Nsg17
S'MOV             X19, X0'
p44
sg19
S'f30300aa'
p45
sg21
Vmov x19, x0
p46
sg5
L18446743798839753828L
sg6
Nsg23
S'MOV'
p47
sg25
S'0xffffffc0007bbc64L'
p48
sg27
Nsba(ibclass
BInstr
p49
(dp50
g2
Nsg17
S'CBZ             X0, loc_FFFFFFC0007BBC74'
p51
sg19
S'600000b4'
p52
sg21
Vcbz x0, #0xc
p53
sg5
L18446743798839753832L
sg6
Nsg23
S'CBZ'
p54
sg25
S'0xffffffc0007bbc68L'
p55
sg27
NsbasS'disasm_list'
p56
(lp57
S'STP reg9, reg0, mem!'
p58
aS'MOV reg9, SP'
p59
aS'STR reg9, mem'
p60
aS'MOV reg9, reg'
p61
aS'CBZ reg, func'
p62
asS'end_address'
p63
Nsg5
S'0xffffffc0007bbc58L'
p64
sS'preds'
p65
(lp66
sg6
NsS'succs'
p67
(lp68
S'0xffffffc0007bbc6cL'
p69
aS'0xffffffc0007bbc74L'
p70
asS'hash_v3'
p71
NsS'flag_v2'
p72
NsS'hash_v1'
p73
S'2dfe4927ca7b220a904ca8ecf0c5cca7'
p74
sS'hash_v2'
p75
S'c1ea8fce4c9816b91e26761a14b6693e'
p76
sS'mnen_list'
p77
(lp78
g24
ag33
ag40
ag47
ag54
asS'neighbour_disasm_list'
p79
Nsba(ibclass
BBasicBlock
p80
(dp81
g12
Nsg13
(lp82
(ibclass
BInstr
p83
(dp84
g2
Nsg17
S'LDR             X0, [X0,#0x20]'
p85
sg19
S'001040f9'
p86
sg21
Vldr x0, [x0, #0x20]
p87
sg5
L18446743798839753836L
sg6
Nsg23
S'LDR'
p88
sg25
S'0xffffffc0007bbc6cL'
p89
sg27
Nsba(ibclass
BInstr
p90
(dp91
g2
Nsg17
S'CBNZ            X0, loc_FFFFFFC0007BBCB0'
p92
sg19
S'000200b5'
p93
sg21
Vcbnz x0, #0x40
p94
sg5
L18446743798839753840L
sg6
Nsg23
S'CBNZ'
p95
sg25
S'0xffffffc0007bbc70L'
p96
sg27
Nsbasg56
(lp97
S'LDR reg, mem'
p98
aS'CBNZ reg, func'
p99
asg63
Nsg5
S'0xffffffc0007bbc6cL'
p100
sg65
(lp101
S'0xffffffc0007bbc58L'
p102
asg6
Nsg67
(lp103
S'0xffffffc0007bbc74L'
p104
aS'0xffffffc0007bbcb0L'
p105
asg71
Nsg72
Nsg73
S'5522ad3e8b25e3a8f9013bb9571723e7'
p106
sg75
S'7604765c3c810c2510cc031abcc4f1e2'
p107
sg77
(lp108
g88
ag95
asg79
Nsba(ibclass
BBasicBlock
p109
(dp110
g12
Nsg13
(lp111
(ibclass
BInstr
p112
(dp113
g2
Nsg17
S'ADRP            X0, #qword_FFFFFFC000E458A0@PAGE'
p114
sg19
S'403400d0'
p115
sg21
Vadrp x0, #0x68a000
p116
sg5
L18446743798839753844L
sg6
Nsg23
S'ADRP'
p117
sg25
S'0xffffffc0007bbc74L'
p118
sg27
Nsba(ibclass
BInstr
p119
(dp120
g2
Nsg17
S'LDR             X0, [X0,#qword_FFFFFFC000E458A0@PAGEOFF]'
p121
sg19
S'005044f9'
p122
sg21
Vldr x0, [x0, #0x8a0]
p123
sg5
L18446743798839753848L
sg6
Nsg23
S'LDR'
p124
sg25
S'0xffffffc0007bbc78L'
p125
sg27
Nsba(ibclass
BInstr
p126
(dp127
g2
Nsg17
S'LDR             W0, [X0]'
p128
sg19
S'000040b9'
p129
sg21
Vldr w0, [x0]
p130
sg5
L18446743798839753852L
sg6
Nsg23
S'LDR'
p131
sg25
S'0xffffffc0007bbc7cL'
p132
sg27
Nsba(ibclass
BInstr
p133
(dp134
g2
Nsg17
S'TBZ             W0, #0, loc_FFFFFFC0007BBCD0'
p135
sg19
S'80020036'
p136
sg21
Vtbz w0, #0, #0x50
p137
sg5
L18446743798839753856L
sg6
Nsg23
S'TBZ'
p138
sg25
S'0xffffffc0007bbc80L'
p139
sg27
Nsbasg56
(lp140
S'ADRP reg, #func@PAGE'
p141
aS'LDR reg, mem'
p142
aS'LDR reg, mem'
p143
aS'TBZ reg, #0, func'
p144
asg63
Nsg5
S'0xffffffc0007bbc74L'
p145
sg65
(lp146
S'0xffffffc0007bbc58L'
p147
aS'0xffffffc0007bbc6cL'
p148
asg6
Nsg67
(lp149
S'0xffffffc0007bbc84L'
p150
aS'0xffffffc0007bbcd0L'
p151
asg71
Nsg72
Nsg73
S'2de94c9e326481f2f467f11acce8dcc9'
p152
sg75
S'f9f7225e2bae36aff04e5d93bafe5e1d'
p153
sg77
(lp154
g117
ag124
ag131
ag138
asg79
Nsba(ibclass
BBasicBlock
p155
(dp156
g12
Nsg13
(lp157
(ibclass
BInstr
p158
(dp159
g2
Nsg17
S'ADRP            X0, #qword_FFFFFFC000E43D48@PAGE'
p160
sg19
S'40340090'
p161
sg21
Vadrp x0, #0x688000
p162
sg5
L18446743798839753860L
sg6
Nsg23
S'ADRP'
p163
sg25
S'0xffffffc0007bbc84L'
p164
sg27
Nsba(ibclass
BInstr
p165
(dp166
g2
Nsg17
S'LDR             X0, [X0,#qword_FFFFFFC000E43D48@PAGEOFF]'
p167
sg19
S'00a446f9'
p168
sg21
Vldr x0, [x0, #0xd48]
p169
sg5
L18446743798839753864L
sg6
Nsg23
S'LDR'
p170
sg25
S'0xffffffc0007bbc88L'
p171
sg27
Nsba(ibclass
BInstr
p172
(dp173
g2
Nsg17
S'MOV             W19, #0xFFFFFFEA'
p174
sg19
S'b3028012'
p175
sg21
Vmovn w19, #0x15
p176
sg5
L18446743798839753868L
sg6
Nsg23
S'MOV'
p177
sg25
S'0xffffffc0007bbc8cL'
p178
sg27
Nsba(ibclass
BInstr
p179
(dp180
g2
Nsg17
S'LDR             W0, [X0]'
p181
sg19
S'000040b9'
p182
sg21
Vldr w0, [x0]
p183
sg5
L18446743798839753872L
sg6
Nsg23
S'LDR'
p184
sg25
S'0xffffffc0007bbc90L'
p185
sg27
Nsba(ibclass
BInstr
p186
(dp187
g2
Nsg17
S'CBNZ            W0, loc_FFFFFFC0007BBCD4'
p188
sg19
S'00020035'
p189
sg21
Vcbnz w0, #0x40
p190
sg5
L18446743798839753876L
sg6
Nsg23
S'CBNZ'
p191
sg25
S'0xffffffc0007bbc94L'
p192
sg27
Nsbasg56
(lp193
S'ADRP reg, #func@PAGE'
p194
aS'LDR reg, mem'
p195
aS'MOV reg9, #0xFFFFFFEA'
p196
aS'LDR reg, mem'
p197
aS'CBNZ reg, func'
p198
asg63
Nsg5
S'0xffffffc0007bbc84L'
p199
sg65
(lp200
S'0xffffffc0007bbc74L'
p201
asg6
Nsg67
(lp202
S'0xffffffc0007bbc98L'
p203
aS'0xffffffc0007bbcd4L'
p204
asg71
Nsg72
Nsg73
S'd80cc6d531f24a5b2d60307977d236c7'
p205
sg75
S'baaaa11d303d94886d47725c6dea0608'
p206
sg77
(lp207
g163
ag170
ag177
ag184
ag191
asg79
Nsba(ibclass
BBasicBlock
p208
(dp209
g12
Nsg13
(lp210
(ibclass
BInstr
p211
(dp212
g2
Nsg17
S'ADRP            X0, #unk_FFFFFFC0013BEC23@PAGE'
p213
sg19
S'006000f0'
p214
sg21
Vadrp x0, #0xc03000
p215
sg5
L18446743798839753880L
sg6
Nsg23
S'ADRP'
p216
sg25
S'0xffffffc0007bbc98L'
p217
sg27
Nsba(ibclass
BInstr
p218
(dp219
g2
Nsg17
S'ADRP            X1, #(aQcomMdssDsi_17+0x1B)@PAGE; "err"'
p220
sg19
S'a15b0090'
p221
sg21
Vadrp x1, #0xb74000
p222
sg5
L18446743798839753884L
sg6
Nsg23
S'ADRP'
p223
sg25
S'0xffffffc0007bbc9cL'
p224
sg27
Nsba(ibclass
BInstr
p225
(dp226
g2
Nsg17
S'ADD             X1, X1, #(aQcomMdssDsi_17+0x1B)@PAGEOFF; "err"'
p227
sg19
S'21800091'
p228
sg21
Vadd x1, x1, #0x20
p229
sg5
L18446743798839753888L
sg6
Nsg23
S'ADD'
p230
sg25
S'0xffffffc0007bbca0L'
p231
sg27
Nsba(ibclass
BInstr
p232
(dp233
g2
Nsg17
S'ADD             X0, X0, #unk_FFFFFFC0013BEC23@PAGEOFF'
p234
sg19
S'008c3091'
p235
sg21
Vadd x0, x0, #0xc23
p236
sg5
L18446743798839753892L
sg6
Nsg23
S'ADD'
p237
sg25
S'0xffffffc0007bbca4L'
p238
sg27
Nsba(ibclass
BInstr
p239
(dp240
g2
Nsg17
S'BL              printk'
p241
sg19
S'70cb1994'
p242
sg21
Vbl #0x672dc0
p243
sg5
L18446743798839753896L
sg6
Nsg23
S'BL'
p244
sg25
S'0xffffffc0007bbca8L'
p245
sg27
Nsba(ibclass
BInstr
p246
(dp247
g2
Nsg17
S'B               loc_FFFFFFC0007BBCD4'
p248
sg19
S'0a000014'
p249
sg21
Vb #0x28
p250
sg5
L18446743798839753900L
sg6
Nsg23
S'B'
p251
sg25
S'0xffffffc0007bbcacL'
p252
sg27
Nsbasg56
(lp253
S'ADRP reg, #func@PAGE'
p254
aS'ADRP reg, #(aQcomMdssDsi_17+0x1B)@PAGE'
p255
aS'ADD reg, reg, #(aQcomMdssDsi_17+0x1B)@PAGEOFF'
p256
aS'ADD reg, reg, #func@PAGEOFF'
p257
aS'BL printk'
p258
aS'B func'
p259
asg63
Nsg5
S'0xffffffc0007bbc98L'
p260
sg65
(lp261
S'0xffffffc0007bbc84L'
p262
asg6
Nsg67
(lp263
S'0xffffffc0007bbcd4L'
p264
asg71
Nsg72
Nsg73
S'b2a3927201f2643e37e238d870ced3c2'
p265
sg75
S'3e167cdac8f124cfbacea29ee5c30eb0'
p266
sg77
(lp267
g216
ag223
ag230
ag237
ag244
ag251
asg79
Nsba(ibclass
BBasicBlock
p268
(dp269
g12
Nsg13
(lp270
(ibclass
BInstr
p271
(dp272
g2
Nsg17
S'MOV             X1, #0'
p273
sg19
S'010080d2'
p274
sg21
Vmovz x1, #0
p275
sg5
L18446743798839753904L
sg6
Nsg23
S'MOV'
p276
sg25
S'0xffffffc0007bbcb0L'
p277
sg27
Nsba(ibclass
BInstr
p278
(dp279
g2
Nsg17
S'BL              venus_hfi_flush_debug_queue'
p280
sg19
S'def0ff97'
p281
sg21
Vbl #0xffffffffffffc378
p282
sg5
L18446743798839753908L
sg6
Nsg23
S'BL'
p283
sg25
S'0xffffffc0007bbcb4L'
p284
sg27
Nsba(ibclass
BInstr
p285
(dp286
g2
Nsg17
S'MOV             W1, #1'
p287
sg19
S'21008052'
p288
sg21
Vmovz w1, #0x1
p289
sg5
L18446743798839753912L
sg6
Nsg23
S'MOV'
p290
sg25
S'0xffffffc0007bbcb8L'
p291
sg27
Nsba(ibclass
BInstr
p292
(dp293
g2
Nsg17
S'MOV             X0, X19'
p294
sg19
S'e00313aa'
p295
sg21
Vmov x0, x19
p296
sg5
L18446743798839753916L
sg6
Nsg23
S'MOV'
p297
sg25
S'0xffffffc0007bbcbcL'
p298
sg27
Nsba(ibclass
BInstr
p299
(dp300
g2
Nsg17
S'MOVK            W1, #0x21,LSL#16'
p301
sg19
S'2104a072'
p302
sg21
Vmovk w1, #0x21, lsl #16
p303
sg5
L18446743798839753920L
sg6
Nsg23
S'MOVK'
p304
sg25
S'0xffffffc0007bbcc0L'
p305
sg27
Nsba(ibclass
BInstr
p306
(dp307
g2
Nsg17
S'BL              venus_hfi_send_session_cmd'
p308
sg19
S'6dfeff97'
p309
sg21
Vbl #0xfffffffffffff9b4
p310
sg5
L18446743798839753924L
sg6
Nsg23
S'BL'
p311
sg25
S'0xffffffc0007bbcc4L'
p312
sg27
Nsba(ibclass
BInstr
p313
(dp314
g2
Nsg17
S'MOV             W19, W0'
p315
sg19
S'f303002a'
p316
sg21
Vmov w19, w0
p317
sg5
L18446743798839753928L
sg6
Nsg23
S'MOV'
p318
sg25
S'0xffffffc0007bbcc8L'
p319
sg27
Nsba(ibclass
BInstr
p320
(dp321
g2
Nsg17
S'B               loc_FFFFFFC0007BBCD4'
p322
sg19
S'02000014'
p323
sg21
Vb #8
p324
sg5
L18446743798839753932L
sg6
Nsg23
g251
sg25
S'0xffffffc0007bbcccL'
p325
sg27
Nsbasg56
(lp326
S'MOV reg, #0'
p327
aS'BL venus_hfi_flush_debug_queue'
p328
aS'MOV reg, #1'
p329
aS'MOV reg, reg9'
p330
aS'MOVK reg, #0x21,LSL#16'
p331
aS'BL venus_hfi_send_session_cmd'
p332
aS'MOV reg9, reg'
p333
aS'B func'
p334
asg63
Nsg5
S'0xffffffc0007bbcb0L'
p335
sg65
(lp336
S'0xffffffc0007bbc6cL'
p337
asg6
Nsg67
(lp338
S'0xffffffc0007bbcd4L'
p339
asg71
Nsg72
Nsg73
S'731f75881ecae8b7591ac50d99330361'
p340
sg75
S'd5b25e15852ddcc2e54ceb4e0d1712ac'
p341
sg77
(lp342
g276
ag283
ag290
ag297
ag304
ag311
ag318
ag251
asg79
Nsba(ibclass
BBasicBlock
p343
(dp344
g12
Nsg13
(lp345
(ibclass
BInstr
p346
(dp347
g2
Nsg17
S'MOV             W19, #0xFFFFFFEA'
p348
sg19
S'b3028012'
p349
sg21
Vmovn w19, #0x15
p350
sg5
L18446743798839753936L
sg6
Nsg23
S'MOV'
p351
sg25
S'0xffffffc0007bbcd0L'
p352
sg27
Nsbasg56
(lp353
S'MOV reg9, #0xFFFFFFEA'
p354
asg63
Nsg5
S'0xffffffc0007bbcd0L'
p355
sg65
(lp356
S'0xffffffc0007bbc74L'
p357
asg6
Nsg67
(lp358
S'0xffffffc0007bbcd4L'
p359
asg71
Nsg72
Nsg73
S'17b32100aef1fc19670be7fd58bc85df'
p360
sg75
S'b3606159d658f642fff4e1852538bd21'
p361
sg77
(lp362
g351
asg79
Nsba(ibclass
BBasicBlock
p363
(dp364
g12
Nsg13
(lp365
(ibclass
BInstr
p366
(dp367
g2
Nsg17
S'MOV             W0, W19'
p368
sg19
S'e003132a'
p369
sg21
Vmov w0, w19
p370
sg5
L18446743798839753940L
sg6
Nsg23
S'MOV'
p371
sg25
S'0xffffffc0007bbcd4L'
p372
sg27
Nsba(ibclass
BInstr
p373
(dp374
g2
Nsg17
S'LDR             X19, [SP,#0x10+var_s0]'
p375
sg19
S'f30b40f9'
p376
sg21
Vldr x19, [sp, #0x10]
p377
sg5
L18446743798839753944L
sg6
Nsg23
S'LDR'
p378
sg25
S'0xffffffc0007bbcd8L'
p379
sg27
Nsba(ibclass
BInstr
p380
(dp381
g2
Nsg17
S'LDP             X29, X30, [SP+0x10+var_10],#0x20'
p382
sg19
S'fd7bc2a8'
p383
sg21
Vldp x29, x30, [sp], #0x20
p384
sg5
L18446743798839753948L
sg6
Nsg23
S'LDP'
p385
sg25
S'0xffffffc0007bbcdcL'
p386
sg27
Nsba(ibclass
BInstr
p387
(dp388
g2
Nsg17
S'RET'
p389
sg19
S'c0035fd6'
p390
sg21
Vret 
p391
sg5
L18446743798839753952L
sg6
Nsg23
S'RET'
p392
sg25
S'0xffffffc0007bbce0L'
p393
sg27
Nsbasg56
(lp394
S'MOV reg, reg9'
p395
aS'LDR reg9, mem'
p396
aS'LDP reg9, reg0, mem,#0x20'
p397
ag389
asg63
Nsg5
S'0xffffffc0007bbcd4L'
p398
sg65
(lp399
S'0xffffffc0007bbc84L'
p400
aS'0xffffffc0007bbc98L'
p401
aS'0xffffffc0007bbcb0L'
p402
aS'0xffffffc0007bbcd0L'
p403
asg6
Nsg67
(lp404
sg71
Nsg72
Nsg73
S'700b6007ea89efb2d19f65eecdfbdc66'
p405
sg75
S'2540ec61573c55ff75133ef1ef4cbd07'
p406
sg77
(lp407
g371
ag378
ag385
ag392
asg79
Nsbasb.