(ibclass
BFunc
p0
(dp1
S'hash'
p2
NsS'name'
p3
S'venus_hfi_get_fw_info'
p4
sS'start_address'
p5
L18446743798839730760L
sS'flag'
p6
NsS'program'
p7
NsS'bbs'
p8
(lp9
(ibclass
BBasicBlock
p10
(dp11
S'function'
p12
NsS'binstrs'
p13
(lp14
(ibclass
BInstr
p15
(dp16
g2
NsS'disasm'
p17
S'STP             X29, X30, [SP,#-0x10+var_B0]!'
p18
sS'bytes'
p19
S'fd7bb4a9'
p20
sS'disasm_striped'
p21
Vstp x29, x30, [sp, #-0xc0]!
p22
sg5
L18446743798839730760L
sg6
NsS'mnem'
p23
S'STP'
p24
sS'address'
p25
S'0xffffffc0007b6248L'
p26
sS'basicblock'
p27
Nsba(ibclass
BInstr
p28
(dp29
g2
Nsg17
S'MOV             X29, SP'
p30
sg19
S'fd030091'
p31
sg21
Vmov x29, sp
p32
sg5
L18446743798839730764L
sg6
Nsg23
S'MOV'
p33
sg25
S'0xffffffc0007b624cL'
p34
sg27
Nsba(ibclass
BInstr
p35
(dp36
g2
Nsg17
S'STP             X19, X20, [SP,#0xB0+var_A0]'
p37
sg19
S'f35301a9'
p38
sg21
Vstp x19, x20, [sp, #0x10]
p39
sg5
L18446743798839730768L
sg6
Nsg23
S'STP'
p40
sg25
S'0xffffffc0007b6250L'
p41
sg27
Nsba(ibclass
BInstr
p42
(dp43
g2
Nsg17
S'STR             X21, [SP,#0xB0+var_90]'
p44
sg19
S'f51300f9'
p45
sg21
Vstr x21, [sp, #0x20]
p46
sg5
L18446743798839730772L
sg6
Nsg23
S'STR'
p47
sg25
S'0xffffffc0007b6254L'
p48
sg27
Nsba(ibclass
BInstr
p49
(dp50
g2
Nsg17
S'STR             WZR, [X29,#0xB0+var_s0]'
p51
sg19
S'bfb300b9'
p52
sg21
Vstr wzr, [x29, #0xb0]
p53
sg5
L18446743798839730776L
sg6
Nsg23
S'STR'
p54
sg25
S'0xffffffc0007b6258L'
p55
sg27
Nsba(ibclass
BInstr
p56
(dp57
g2
Nsg17
S'MOV             X20, X0'
p58
sg19
S'f40300aa'
p59
sg21
Vmov x20, x0
p60
sg5
L18446743798839730780L
sg6
Nsg23
S'MOV'
p61
sg25
S'0xffffffc0007b625cL'
p62
sg27
Nsba(ibclass
BInstr
p63
(dp64
g2
Nsg17
S'MOV             X19, X1'
p65
sg19
S'f30301aa'
p66
sg21
Vmov x19, x1
p67
sg5
L18446743798839730784L
sg6
Nsg23
S'MOV'
p68
sg25
S'0xffffffc0007b6260L'
p69
sg27
Nsba(ibclass
BInstr
p70
(dp71
g2
Nsg17
S'CBZ             X0, loc_FFFFFFC0007B6274'
p72
sg19
S'800000b4'
p73
sg21
Vcbz x0, #0x10
p74
sg5
L18446743798839730788L
sg6
Nsg23
S'CBZ'
p75
sg25
S'0xffffffc0007b6264L'
p76
sg27
NsbasS'disasm_list'
p77
(lp78
S'STP reg9, reg0, mem!'
p79
aS'MOV reg9, SP'
p80
aS'STP reg9, reg0, mem'
p81
aS'STR reg1, mem'
p82
aS'STR WZR, mem'
p83
aS'MOV reg0, reg'
p84
aS'MOV reg9, reg'
p85
aS'CBZ reg, func'
p86
asS'end_address'
p87
Nsg5
S'0xffffffc0007b6248L'
p88
sS'preds'
p89
(lp90
sg6
NsS'succs'
p91
(lp92
S'0xffffffc0007b6268L'
p93
aS'0xffffffc0007b6274L'
p94
asS'hash_v3'
p95
NsS'flag_v2'
p96
NsS'hash_v1'
p97
S'5dd6fa97a6e151d9bb81897a25a57fc3'
p98
sS'hash_v2'
p99
S'47c9285da36992145a13068e66fce1b9'
p100
sS'mnen_list'
p101
(lp102
g24
ag33
ag40
ag47
ag54
ag61
ag68
ag75
asS'neighbour_disasm_list'
p103
Nsba(ibclass
BBasicBlock
p104
(dp105
g12
Nsg13
(lp106
(ibclass
BInstr
p107
(dp108
g2
Nsg17
S'CMP             X1, XZR'
p109
sg19
S'3f001feb'
p110
sg21
Vcmp x1, xzr
p111
sg5
L18446743798839730792L
sg6
Nsg23
S'CMP'
p112
sg25
S'0xffffffc0007b6268L'
p113
sg27
Nsba(ibclass
BInstr
p114
(dp115
g2
Nsg17
S'CSET            W2, EQ'
p116
sg19
S'e2179f1a'
p117
sg21
Vcset w2, eq
p118
sg5
L18446743798839730796L
sg6
Nsg23
S'CSET'
p119
sg25
S'0xffffffc0007b626cL'
p120
sg27
Nsba(ibclass
BInstr
p121
(dp122
g2
Nsg17
S'CBZ             W2, loc_FFFFFFC0007B62C4'
p123
sg19
S'a2020034'
p124
sg21
Vcbz w2, #0x54
p125
sg5
L18446743798839730800L
sg6
Nsg23
S'CBZ'
p126
sg25
S'0xffffffc0007b6270L'
p127
sg27
Nsbasg77
(lp128
S'CMP reg, XZR'
p129
aS'CSET reg, EQ'
p130
aS'CBZ reg, func'
p131
asg87
Nsg5
S'0xffffffc0007b6268L'
p132
sg89
(lp133
S'0xffffffc0007b6248L'
p134
asg6
Nsg91
(lp135
S'0xffffffc0007b6274L'
p136
aS'0xffffffc0007b62c4L'
p137
asg95
Nsg96
Nsg97
S'f704f93687a6b1bd84c9bea144c50305'
p138
sg99
S'291fdfb7623f16d71f67ed81d3d11dcf'
p139
sg101
(lp140
g112
ag119
ag126
asg103
Nsba(ibclass
BBasicBlock
p141
(dp142
g12
Nsg13
(lp143
(ibclass
BInstr
p144
(dp145
g2
Nsg17
S'ADRP            X0, #qword_FFFFFFC000E458A0@PAGE'
p146
sg19
S'603400f0'
p147
sg21
Vadrp x0, #0x68f000
p148
sg5
L18446743798839730804L
sg6
Nsg23
S'ADRP'
p149
sg25
S'0xffffffc0007b6274L'
p150
sg27
Nsba(ibclass
BInstr
p151
(dp152
g2
Nsg17
S'LDR             X0, [X0,#qword_FFFFFFC000E458A0@PAGEOFF]'
p153
sg19
S'005044f9'
p154
sg21
Vldr x0, [x0, #0x8a0]
p155
sg5
L18446743798839730808L
sg6
Nsg23
S'LDR'
p156
sg25
S'0xffffffc0007b6278L'
p157
sg27
Nsba(ibclass
BInstr
p158
(dp159
g2
Nsg17
S'LDR             W0, [X0]'
p160
sg19
S'000040b9'
p161
sg21
Vldr w0, [x0]
p162
sg5
L18446743798839730812L
sg6
Nsg23
S'LDR'
p163
sg25
S'0xffffffc0007b627cL'
p164
sg27
Nsba(ibclass
BInstr
p165
(dp166
g2
Nsg17
S'TBZ             W0, #0, loc_FFFFFFC0007B6464'
p167
sg19
S'200f0036'
p168
sg21
Vtbz w0, #0, #0x1e4
p169
sg5
L18446743798839730816L
sg6
Nsg23
S'TBZ'
p170
sg25
S'0xffffffc0007b6280L'
p171
sg27
Nsbasg77
(lp172
S'ADRP reg, #func@PAGE'
p173
aS'LDR reg, mem'
p174
aS'LDR reg, mem'
p175
aS'TBZ reg, #0, func'
p176
asg87
Nsg5
S'0xffffffc0007b6274L'
p177
sg89
(lp178
S'0xffffffc0007b6248L'
p179
aS'0xffffffc0007b6268L'
p180
asg6
Nsg91
(lp181
S'0xffffffc0007b6284L'
p182
aS'0xffffffc0007b6464L'
p183
asg95
Nsg96
Nsg97
S'2de94c9e326481f2f467f11acce8dcc9'
p184
sg99
S'f9f7225e2bae36aff04e5d93bafe5e1d'
p185
sg101
(lp186
g149
ag156
ag163
ag170
asg103
Nsba(ibclass
BBasicBlock
p187
(dp188
g12
Nsg13
(lp189
(ibclass
BInstr
p190
(dp191
g2
Nsg17
S'ADRP            X0, #qword_FFFFFFC000E43D48@PAGE'
p192
sg19
S'603400b0'
p193
sg21
Vadrp x0, #0x68d000
p194
sg5
L18446743798839730820L
sg6
Nsg23
S'ADRP'
p195
sg25
S'0xffffffc0007b6284L'
p196
sg27
Nsba(ibclass
BInstr
p197
(dp198
g2
Nsg17
S'LDR             X0, [X0,#qword_FFFFFFC000E43D48@PAGEOFF]'
p199
sg19
S'00a446f9'
p200
sg21
Vldr x0, [x0, #0xd48]
p201
sg5
L18446743798839730824L
sg6
Nsg23
S'LDR'
p202
sg25
S'0xffffffc0007b6288L'
p203
sg27
Nsba(ibclass
BInstr
p204
(dp205
g2
Nsg17
S'MOV             W21, #0xFFFFFFEA'
p206
sg19
S'b5028012'
p207
sg21
Vmovn w21, #0x15
p208
sg5
L18446743798839730828L
sg6
Nsg23
S'MOV'
p209
sg25
S'0xffffffc0007b628cL'
p210
sg27
Nsba(ibclass
BInstr
p211
(dp212
g2
Nsg17
S'LDR             W0, [X0]'
p213
sg19
S'000040b9'
p214
sg21
Vldr w0, [x0]
p215
sg5
L18446743798839730832L
sg6
Nsg23
S'LDR'
p216
sg25
S'0xffffffc0007b6290L'
p217
sg27
Nsba(ibclass
BInstr
p218
(dp219
g2
Nsg17
S'CBNZ            W0, loc_FFFFFFC0007B6468'
p220
sg19
S'a00e0035'
p221
sg21
Vcbnz w0, #0x1d4
p222
sg5
L18446743798839730836L
sg6
Nsg23
S'CBNZ'
p223
sg25
S'0xffffffc0007b6294L'
p224
sg27
Nsbasg77
(lp225
S'ADRP reg, #func@PAGE'
p226
aS'LDR reg, mem'
p227
aS'MOV reg1, #0xFFFFFFEA'
p228
aS'LDR reg, mem'
p229
aS'CBNZ reg, func'
p230
asg87
Nsg5
S'0xffffffc0007b6284L'
p231
sg89
(lp232
S'0xffffffc0007b6274L'
p233
asg6
Nsg91
(lp234
S'0xffffffc0007b6298L'
p235
aS'0xffffffc0007b6468L'
p236
asg95
Nsg96
Nsg97
S'd80cc6d531f24a5b2d60307977d236c7'
p237
sg99
S'fd9dd1c0751cd65f386518ad58baa95d'
p238
sg101
(lp239
g195
ag202
ag209
ag216
ag223
asg103
Nsba(ibclass
BBasicBlock
p240
(dp241
g12
Nsg13
(lp242
(ibclass
BInstr
p243
(dp244
g2
Nsg17
S'ADRP            X2, #__func__.33986@PAGE; "venus_hfi_suspend"'
p245
sg19
S'a2440090'
p246
sg21
Vadrp x2, #0x894000
p247
sg5
L18446743798839730840L
sg6
Nsg23
S'ADRP'
p248
sg25
S'0xffffffc0007b6298L'
p249
sg27
Nsba(ibclass
BInstr
p250
(dp251
g2
Nsg17
S'ADRP            X0, #unk_FFFFFFC0013BEA38@PAGE'
p252
sg19
S'40600090'
p253
sg21
Vadrp x0, #0xc08000
p254
sg5
L18446743798839730844L
sg6
Nsg23
S'ADRP'
p255
sg25
S'0xffffffc0007b629cL'
p256
sg27
Nsba(ibclass
BInstr
p257
(dp258
g2
Nsg17
S'ADRP            X1, #(aQcomMdssDsi_17+0x1B)@PAGE; "err"'
p259
sg19
S'c15b00b0'
p260
sg21
Vadrp x1, #0xb79000
p261
sg5
L18446743798839730848L
sg6
Nsg23
S'ADRP'
p262
sg25
S'0xffffffc0007b62a0L'
p263
sg27
Nsba(ibclass
BInstr
p264
(dp265
g2
Nsg17
S'ADD             X2, X2, #__func__.33986@PAGEOFF; "venus_hfi_suspend"'
p266
sg19
S'42201991'
p267
sg21
Vadd x2, x2, #0x648
p268
sg5
L18446743798839730852L
sg6
Nsg23
S'ADD'
p269
sg25
S'0xffffffc0007b62a4L'
p270
sg27
Nsba(ibclass
BInstr
p271
(dp272
g2
Nsg17
S'ADD             X1, X1, #(aQcomMdssDsi_17+0x1B)@PAGEOFF; "err"'
p273
sg19
S'21800091'
p274
sg21
Vadd x1, x1, #0x20
p275
sg5
L18446743798839730856L
sg6
Nsg23
S'ADD'
p276
sg25
S'0xffffffc0007b62a8L'
p277
sg27
Nsba(ibclass
BInstr
p278
(dp279
g2
Nsg17
S'ADD             X2, X2, #0x28'
p280
sg19
S'42a00091'
p281
sg21
Vadd x2, x2, #0x28
p282
sg5
L18446743798839730860L
sg6
Nsg23
S'ADD'
p283
sg25
S'0xffffffc0007b62acL'
p284
sg27
Nsba(ibclass
BInstr
p285
(dp286
g2
Nsg17
S'MOV             X3, X20'
p287
sg19
S'e30314aa'
p288
sg21
Vmov x3, x20
p289
sg5
L18446743798839730864L
sg6
Nsg23
S'MOV'
p290
sg25
S'0xffffffc0007b62b0L'
p291
sg27
Nsba(ibclass
BInstr
p292
(dp293
g2
Nsg17
S'MOV             X4, X19'
p294
sg19
S'e40313aa'
p295
sg21
Vmov x4, x19
p296
sg5
L18446743798839730868L
sg6
Nsg23
S'MOV'
p297
sg25
S'0xffffffc0007b62b4L'
p298
sg27
Nsba(ibclass
BInstr
p299
(dp300
g2
Nsg17
S'ADD             X0, X0, #unk_FFFFFFC0013BEA38@PAGEOFF'
p301
sg19
S'00e02891'
p302
sg21
Vadd x0, x0, #0xa38
p303
sg5
L18446743798839730872L
sg6
Nsg23
S'ADD'
p304
sg25
S'0xffffffc0007b62b8L'
p305
sg27
Nsba(ibclass
BInstr
p306
(dp307
g2
Nsg17
S'BL              printk'
p308
sg19
S'ebe11994'
p309
sg21
Vbl #0x6787ac
p310
sg5
L18446743798839730876L
sg6
Nsg23
S'BL'
p311
sg25
S'0xffffffc0007b62bcL'
p312
sg27
Nsba(ibclass
BInstr
p313
(dp314
g2
Nsg17
S'B               loc_FFFFFFC0007B6468'
p315
sg19
S'6a000014'
p316
sg21
Vb #0x1a8
p317
sg5
L18446743798839730880L
sg6
Nsg23
S'B'
p318
sg25
S'0xffffffc0007b62c0L'
p319
sg27
Nsbasg77
(lp320
S'ADRP reg, #__func__.33986@PAGE'
p321
aS'ADRP reg, #func@PAGE'
p322
aS'ADRP reg, #(aQcomMdssDsi_17+0x1B)@PAGE'
p323
aS'ADD reg, reg, #__func__.33986@PAGEOFF'
p324
aS'ADD reg, reg, #(aQcomMdssDsi_17+0x1B)@PAGEOFF'
p325
aS'ADD reg, reg, #0x28'
p326
aS'MOV reg, reg0'
p327
aS'MOV reg, reg9'
p328
aS'ADD reg, reg, #func@PAGEOFF'
p329
aS'BL printk'
p330
aS'B func'
p331
asg87
Nsg5
S'0xffffffc0007b6298L'
p332
sg89
(lp333
S'0xffffffc0007b6284L'
p334
asg6
Nsg91
(lp335
S'0xffffffc0007b6468L'
p336
asg95
Nsg96
Nsg97
S'ee976f22153ecd27d328d685f753457b'
p337
sg99
S'09aa68e4b1c2673c421669e17b08c2f5'
p338
sg101
(lp339
g248
ag255
ag262
ag269
ag276
ag283
ag290
ag297
ag304
ag311
ag318
asg103
Nsba(ibclass
BBasicBlock
p340
(dp341
g12
Nsg13
(lp342
(ibclass
BInstr
p343
(dp344
g2
Nsg17
S'ADD             X1, X29, #0xB0'
p345
sg19
S'a1c30291'
p346
sg21
Vadd x1, x29, #0xb0
p347
sg5
L18446743798839730884L
sg6
Nsg23
S'ADD'
p348
sg25
S'0xffffffc0007b62c4L'
p349
sg27
Nsba(ibclass
BInstr
p350
(dp351
g2
Nsg17
S'MOV             W0, #0x1D5'
p352
sg19
S'a03a8052'
p353
sg21
Vmovz w0, #0x1d5
p354
sg5
L18446743798839730888L
sg6
Nsg23
S'MOV'
p355
sg25
S'0xffffffc0007b62c8L'
p356
sg27
Nsba(ibclass
BInstr
p357
(dp358
g2
Nsg17
S'MOV             W3, #2'
p359
sg19
S'43008052'
p360
sg21
Vmovz w3, #0x2
p361
sg5
L18446743798839730892L
sg6
Nsg23
S'MOV'
p362
sg25
S'0xffffffc0007b62ccL'
p363
sg27
Nsba(ibclass
BInstr
p364
(dp365
g2
Nsg17
S'BL              smem_get_entry'
p366
sg19
S'6419f597'
p367
sg21
Vbl #0xffffffffffd46590
p368
sg5
L18446743798839730896L
sg6
Nsg23
S'BL'
p369
sg25
S'0xffffffc0007b62d0L'
p370
sg27
Nsba(ibclass
BInstr
p371
(dp372
g2
Nsg17
S'MOV             X1, X0'
p373
sg19
S'e10300aa'
p374
sg21
Vmov x1, x0
p375
sg5
L18446743798839730900L
sg6
Nsg23
S'MOV'
p376
sg25
S'0xffffffc0007b62d4L'
p377
sg27
Nsba(ibclass
BInstr
p378
(dp379
g2
Nsg17
S'CBZ             X0, loc_FFFFFFC0007B62F8'
p380
sg19
S'000100b4'
p381
sg21
Vcbz x0, #0x20
p382
sg5
L18446743798839730904L
sg6
Nsg23
S'CBZ'
p383
sg25
S'0xffffffc0007b62d8L'
p384
sg27
Nsbasg77
(lp385
S'ADD reg, reg9, #0xB0'
p386
aS'MOV reg, #0x1D5'
p387
aS'MOV reg, #2'
p388
aS'BL smem_get_entry'
p389
aS'MOV reg, reg'
p390
aS'CBZ reg, func'
p391
asg87
Nsg5
S'0xffffffc0007b62c4L'
p392
sg89
(lp393
S'0xffffffc0007b6268L'
p394
asg6
Nsg91
(lp395
S'0xffffffc0007b62dcL'
p396
aS'0xffffffc0007b62f8L'
p397
asg95
Nsg96
Nsg97
S'1cb44c35ace0ffde51552ba36ec50720'
p398
sg99
S'e9342966af3dc77ca152d2f04a1e9f0c'
p399
sg101
(lp400
g348
ag355
ag362
ag369
ag376
ag383
asg103
Nsba(ibclass
BBasicBlock
p401
(dp402
g12
Nsg13
(lp403
(ibclass
BInstr
p404
(dp405
g2
Nsg17
S'LDR             W0, [X29,#arg_A0]'
p406
sg19
S'a0b340b9'
p407
sg21
Vldr w0, [x29, #0xb0]
p408
sg5
L18446743798839730908L
sg6
Nsg23
S'LDR'
p409
sg25
S'0xffffffc0007b62dcL'
p410
sg27
Nsba(ibclass
BInstr
p411
(dp412
g2
Nsg17
S'CMP             W0, #0x77F'
p413
sg19
S'1ffc1d71'
p414
sg21
Vcmp w0, #0x77f
p415
sg5
L18446743798839730912L
sg6
Nsg23
S'CMP'
p416
sg25
S'0xffffffc0007b62e0L'
p417
sg27
Nsba(ibclass
BInstr
p418
(dp419
g2
Nsg17
S'B.LS            loc_FFFFFFC0007B62F8'
p420
sg19
S'a9000054'
p421
sg21
Vb.ls #0x14
p422
sg5
L18446743798839730916L
sg6
Nsg23
g318
sg25
S'0xffffffc0007b62e4L'
p423
sg27
Nsbasg77
(lp424
S'LDR reg, mem'
p425
aS'CMP reg, #0x77F'
p426
aS'B.LS func'
p427
asg87
Nsg5
S'0xffffffc0007b62dcL'
p428
sg89
(lp429
S'0xffffffc0007b62c4L'
p430
asg6
Nsg91
(lp431
S'0xffffffc0007b62e8L'
p432
aS'0xffffffc0007b62f8L'
p433
asg95
Nsg96
Nsg97
S'fa4df767a85c49648339e2dc5c6807f6'
p434
sg99
S'dd608695d9491f7256649be286271c21'
p435
sg101
(lp436
g409
ag416
ag318
asg103
Nsba(ibclass
BBasicBlock
p437
(dp438
g12
Nsg13
(lp439
(ibclass
BInstr
p440
(dp441
g2
Nsg17
S'ADD             X0, X29, #0x30'
p442
sg19
S'a0c30091'
p443
sg21
Vadd x0, x29, #0x30
p444
sg5
L18446743798839730920L
sg6
Nsg23
S'ADD'
p445
sg25
S'0xffffffc0007b62e8L'
p446
sg27
Nsba(ibclass
BInstr
p447
(dp448
g2
Nsg17
S'ADD             X1, X1, #0x700'
p449
sg19
S'21001c91'
p450
sg21
Vadd x1, x1, #0x700
p451
sg5
L18446743798839730924L
sg6
Nsg23
S'ADD'
p452
sg25
S'0xffffffc0007b62ecL'
p453
sg27
Nsba(ibclass
BInstr
p454
(dp455
g2
Nsg17
S'MOV             X2, #0x80'
p456
sg19
S'021080d2'
p457
sg21
Vmovz x2, #0x80
p458
sg5
L18446743798839730928L
sg6
Nsg23
S'MOV'
p459
sg25
S'0xffffffc0007b62f0L'
p460
sg27
Nsba(ibclass
BInstr
p461
(dp462
g2
Nsg17
S'BL              memcpy'
p463
sg19
S'03a8f197'
p464
sg21
Vbl #0xffffffffffc6a00c
p465
sg5
L18446743798839730932L
sg6
Nsg23
S'BL'
p466
sg25
S'0xffffffc0007b62f4L'
p467
sg27
Nsbasg77
(lp468
S'ADD reg, reg9, #0x30'
p469
aS'ADD reg, reg, #0x700'
p470
aS'MOV reg, #0x80'
p471
aS'BL memcpy'
p472
asg87
Nsg5
S'0xffffffc0007b62e8L'
p473
sg89
(lp474
S'0xffffffc0007b62dcL'
p475
asg6
Nsg91
(lp476
S'0xffffffc0007b62f8L'
p477
asg95
Nsg96
Nsg97
S'b60d0c6a907cfc5361c44f979c370817'
p478
sg99
S'350cca8bed3ad00e8899fa77186ad498'
p479
sg101
(lp480
g445
ag452
ag459
ag466
asg103
Nsba(ibclass
BBasicBlock
p481
(dp482
g12
Nsg13
(lp483
(ibclass
BInstr
p484
(dp485
g2
Nsg17
S'MOV             X0, #0'
p486
sg19
S'000080d2'
p487
sg21
Vmovz x0, #0
p488
sg5
L18446743798839730936L
sg6
Nsg23
S'MOV'
p489
sg25
S'0xffffffc0007b62f8L'
p490
sg27
Nsbasg77
(lp491
S'MOV reg, #0'
p492
asg87
Nsg5
S'0xffffffc0007b62f8L'
p493
sg89
(lp494
S'0xffffffc0007b62c4L'
p495
aS'0xffffffc0007b62dcL'
p496
aS'0xffffffc0007b62e8L'
p497
asg6
Nsg91
(lp498
S'0xffffffc0007b62fcL'
p499
asg95
Nsg96
Nsg97
S'17b32100aef1fc19670be7fd58bc85df'
p500
sg99
S'17993b23cf884d1eea667e1e803e3392'
p501
sg101
(lp502
g489
asg103
Nsba(ibclass
BBasicBlock
p503
(dp504
g12
Nsg13
(lp505
(ibclass
BInstr
p506
(dp507
g2
Nsg17
S'ADD             X3, X0, #0x30'
p508
sg19
S'03c00091'
p509
sg21
Vadd x3, x0, #0x30
p510
sg5
L18446743798839730940L
sg6
Nsg23
S'ADD'
p511
sg25
S'0xffffffc0007b62fcL'
p512
sg27
Nsba(ibclass
BInstr
p513
(dp514
g2
Nsg17
S'LDRB            W1, [X3,X29]'
p515
sg19
S'61687d38'
p516
sg21
Vldrb w1, [x3, x29]
p517
sg5
L18446743798839730944L
sg6
Nsg23
S'LDR'
p518
sg25
S'0xffffffc0007b6300L'
p519
sg27
Nsba(ibclass
BInstr
p520
(dp521
g2
Nsg17
S'MOV             W2, W0'
p522
sg19
S'e203002a'
p523
sg21
Vmov w2, w0
p524
sg5
L18446743798839730948L
sg6
Nsg23
S'MOV'
p525
sg25
S'0xffffffc0007b6304L'
p526
sg27
Nsba(ibclass
BInstr
p527
(dp528
g2
Nsg17
S'CMP             W1, #0x56'
p529
sg19
S'3f580171'
p530
sg21
Vcmp w1, #0x56
p531
sg5
L18446743798839730952L
sg6
Nsg23
S'CMP'
p532
sg25
S'0xffffffc0007b6308L'
p533
sg27
Nsba(ibclass
BInstr
p534
(dp535
g2
Nsg17
S'B.NE            loc_FFFFFFC0007B6318'
p536
sg19
S'61000054'
p537
sg21
Vb.ne #0xc
p538
sg5
L18446743798839730956L
sg6
Nsg23
g318
sg25
S'0xffffffc0007b630cL'
p539
sg27
Nsbasg77
(lp540
S'ADD reg, reg, #0x30'
p541
aS'LDRB reg, mem'
p542
aS'MOV reg, reg'
p543
aS'CMP reg, #0x56'
p544
aS'B.NE func'
p545
asg87
Nsg5
S'0xffffffc0007b62fcL'
p546
sg89
(lp547
S'0xffffffc0007b62f8L'
p548
aS'0xffffffc0007b6318L'
p549
asg6
Nsg91
(lp550
S'0xffffffc0007b6310L'
p551
aS'0xffffffc0007b6318L'
p552
asg95
Nsg96
Nsg97
S'f1c6db1540f797e8152da066605e1d41'
p553
sg99
S'3ca74092c19ab901a87efa1177de578c'
p554
sg101
(lp555
g511
ag518
ag525
ag532
ag318
asg103
Nsba(ibclass
BBasicBlock
p556
(dp557
g12
Nsg13
(lp558
(ibclass
BInstr
p559
(dp560
g2
Nsg17
S'MOV             X0, #0'
p561
sg19
S'000080d2'
p562
sg21
Vmovz x0, #0
p563
sg5
L18446743798839730960L
sg6
Nsg23
S'MOV'
p564
sg25
S'0xffffffc0007b6310L'
p565
sg27
Nsba(ibclass
BInstr
p566
(dp567
g2
Nsg17
S'B               loc_FFFFFFC0007B6344'
p568
sg19
S'0c000014'
p569
sg21
Vb #0x30
p570
sg5
L18446743798839730964L
sg6
Nsg23
g318
sg25
S'0xffffffc0007b6314L'
p571
sg27
Nsbasg77
(lp572
S'MOV reg, #0'
p573
aS'B func'
p574
asg87
Nsg5
S'0xffffffc0007b6310L'
p575
sg89
(lp576
S'0xffffffc0007b62fcL'
p577
aS'0xffffffc0007b6324L'
p578
asg6
Nsg91
(lp579
S'0xffffffc0007b6344L'
p580
asg95
Nsg96
Nsg97
S'b6c4e95ccfe77a95e4cf2019dd3d5574'
p581
sg99
S'487d2131c9e9084b6289188d6ce03ca3'
p582
sg101
(lp583
g564
ag318
asg103
Nsba(ibclass
BBasicBlock
p584
(dp585
g12
Nsg13
(lp586
(ibclass
BInstr
p587
(dp588
g2
Nsg17
S'ADD             X0, X0, #1'
p589
sg19
S'00040091'
p590
sg21
Vadd x0, x0, #1
p591
sg5
L18446743798839730968L
sg6
Nsg23
S'ADD'
p592
sg25
S'0xffffffc0007b6318L'
p593
sg27
Nsba(ibclass
BInstr
p594
(dp595
g2
Nsg17
S'CMP             X0, #0x80'
p596
sg19
S'1f0002f1'
p597
sg21
Vcmp x0, #0x80
p598
sg5
L18446743798839730972L
sg6
Nsg23
S'CMP'
p599
sg25
S'0xffffffc0007b631cL'
p600
sg27
Nsba(ibclass
BInstr
p601
(dp602
g2
Nsg17
S'B.NE            loc_FFFFFFC0007B62FC'
p603
sg19
S'e1feff54'
p604
sg21
Vb.ne #0xffffffffffffffdc
p605
sg5
L18446743798839730976L
sg6
Nsg23
g318
sg25
S'0xffffffc0007b6320L'
p606
sg27
Nsbasg77
(lp607
S'ADD reg, reg, #1'
p608
aS'CMP reg, #0x80'
p609
aS'B.NE func'
p610
asg87
Nsg5
S'0xffffffc0007b6318L'
p611
sg89
(lp612
S'0xffffffc0007b62fcL'
p613
asg6
Nsg91
(lp614
S'0xffffffc0007b62fcL'
p615
aS'0xffffffc0007b6324L'
p616
asg95
Nsg96
Nsg97
S'b18482ce28e47cedf5ced20c4c995241'
p617
sg99
S'03b4a5ae2a89edde011f99b28d1c6012'
p618
sg101
(lp619
g592
ag599
ag318
asg103
Nsba(ibclass
BBasicBlock
p620
(dp621
g12
Nsg13
(lp622
(ibclass
BInstr
p623
(dp624
g2
Nsg17
S'B               loc_FFFFFFC0007B6310'
p625
sg19
S'fbffff17'
p626
sg21
Vb #0xffffffffffffffec
p627
sg5
L18446743798839730980L
sg6
Nsg23
g318
sg25
S'0xffffffc0007b6324L'
p628
sg27
Nsbasg77
(lp629
S'B func'
p630
asg87
Nsg5
S'0xffffffc0007b6324L'
p631
sg89
(lp632
S'0xffffffc0007b6318L'
p633
asg6
Nsg91
(lp634
S'0xffffffc0007b6310L'
p635
asg95
Nsg96
Nsg97
S'9d5ed678fe57bcca610140957afab571'
p636
sg99
S'071b057c420e304c628380fd3541c021'
p637
sg101
(lp638
g318
asg103
Nsba(ibclass
BBasicBlock
p639
(dp640
g12
Nsg13
(lp641
(ibclass
BInstr
p642
(dp643
g2
Nsg17
S'CMP             W0, #0x7F'
p644
sg19
S'1ffc0171'
p645
sg21
Vcmp w0, #0x7f
p646
sg5
L18446743798839730984L
sg6
Nsg23
S'CMP'
p647
sg25
S'0xffffffc0007b6328L'
p648
sg27
Nsba(ibclass
BInstr
p649
(dp650
g2
Nsg17
S'B.HI            loc_FFFFFFC0007B6350'
p651
sg19
S'28010054'
p652
sg21
Vb.hi #0x24
p653
sg5
L18446743798839730988L
sg6
Nsg23
g318
sg25
S'0xffffffc0007b632cL'
p654
sg27
Nsbasg77
(lp655
S'CMP reg, #0x7F'
p656
aS'B.HI func'
p657
asg87
Nsg5
S'0xffffffc0007b6328L'
p658
sg89
(lp659
S'0xffffffc0007b6344L'
p660
asg6
Nsg91
(lp661
S'0xffffffc0007b6330L'
p662
aS'0xffffffc0007b6350L'
p663
asg95
Nsg96
Nsg97
S'c78fd620a449e3c979d3f3ec12d4ee88'
p664
sg99
S'823ff2e40bcfc5fbc57f9ea199daa118'
p665
sg101
(lp666
g647
ag318
asg103
Nsba(ibclass
BBasicBlock
p667
(dp668
g12
Nsg13
(lp669
(ibclass
BInstr
p670
(dp671
g2
Nsg17
S'ADD             X3, X29, #0x30'
p672
sg19
S'a3c30091'
p673
sg21
Vadd x3, x29, #0x30
p674
sg5
L18446743798839730992L
sg6
Nsg23
S'ADD'
p675
sg25
S'0xffffffc0007b6330L'
p676
sg27
Nsba(ibclass
BInstr
p677
(dp678
g2
Nsg17
S'SBFM            X4, X1, #0, #0x1F'
p679
sg19
S'247c4093'
p680
sg21
Vsxtw x4, w1
p681
sg5
L18446743798839730996L
sg6
Nsg23
S'SBFM'
p682
sg25
S'0xffffffc0007b6334L'
p683
sg27
Nsba(ibclass
BInstr
p684
(dp685
g2
Nsg17
S'LDRB            W1, [X4,X3]'
p686
sg19
S'81686338'
p687
sg21
Vldrb w1, [x4, x3]
p688
sg5
L18446743798839731000L
sg6
Nsg23
S'LDR'
p689
sg25
S'0xffffffc0007b6338L'
p690
sg27
Nsba(ibclass
BInstr
p691
(dp692
g2
Nsg17
S'STRB            W1, [X19,X0]'
p693
sg19
S'616a2038'
p694
sg21
Vstrb w1, [x19, x0]
p695
sg5
L18446743798839731004L
sg6
Nsg23
S'STR'
p696
sg25
S'0xffffffc0007b633cL'
p697
sg27
Nsba(ibclass
BInstr
p698
(dp699
g2
Nsg17
S'ADD             X0, X0, #1'
p700
sg19
S'00040091'
p701
sg21
Vadd x0, x0, #1
p702
sg5
L18446743798839731008L
sg6
Nsg23
S'ADD'
p703
sg25
S'0xffffffc0007b6340L'
p704
sg27
Nsbasg77
(lp705
S'ADD reg, reg9, #0x30'
p706
aS'SBFM reg, reg, #0, #0x1F'
p707
aS'LDRB reg, mem'
p708
aS'STRB reg, mem'
p709
aS'ADD reg, reg, #1'
p710
asg87
Nsg5
S'0xffffffc0007b6330L'
p711
sg89
(lp712
S'0xffffffc0007b6328L'
p713
asg6
Nsg91
(lp714
S'0xffffffc0007b6344L'
p715
asg95
Nsg96
Nsg97
S'54bb77ee192286bcfe8b1b70c51fe632'
p716
sg99
S'0a1e0eac793f43ff0cc9ce5bc4ab2a26'
p717
sg101
(lp718
g675
ag682
ag689
ag696
ag703
asg103
Nsba(ibclass
BBasicBlock
p719
(dp720
g12
Nsg13
(lp721
(ibclass
BInstr
p722
(dp723
g2
Nsg17
S'ADD             W1, W2, W0'
p724
sg19
S'4100000b'
p725
sg21
Vadd w1, w2, w0
p726
sg5
L18446743798839731012L
sg6
Nsg23
S'ADD'
p727
sg25
S'0xffffffc0007b6344L'
p728
sg27
Nsba(ibclass
BInstr
p729
(dp730
g2
Nsg17
S'CMP             W1, #0x7F'
p731
sg19
S'3ffc0171'
p732
sg21
Vcmp w1, #0x7f
p733
sg5
L18446743798839731016L
sg6
Nsg23
S'CMP'
p734
sg25
S'0xffffffc0007b6348L'
p735
sg27
Nsba(ibclass
BInstr
p736
(dp737
g2
Nsg17
S'B.LS            loc_FFFFFFC0007B6328'
p738
sg19
S'e9feff54'
p739
sg21
Vb.ls #0xffffffffffffffdc
p740
sg5
L18446743798839731020L
sg6
Nsg23
g318
sg25
S'0xffffffc0007b634cL'
p741
sg27
Nsbasg77
(lp742
S'ADD reg, reg, reg'
p743
aS'CMP reg, #0x7F'
p744
aS'B.LS func'
p745
asg87
Nsg5
S'0xffffffc0007b6344L'
p746
sg89
(lp747
S'0xffffffc0007b6310L'
p748
aS'0xffffffc0007b6330L'
p749
asg6
Nsg91
(lp750
S'0xffffffc0007b6328L'
p751
aS'0xffffffc0007b6350L'
p752
asg95
Nsg96
Nsg97
S'b18482ce28e47cedf5ced20c4c995241'
p753
sg99
S'66d203e5193b949aa96ca0035569fd0c'
p754
sg101
(lp755
g727
ag734
ag318
asg103
Nsba(ibclass
BBasicBlock
p756
(dp757
g12
Nsg13
(lp758
(ibclass
BInstr
p759
(dp760
g2
Nsg17
S'STRB            WZR, [X19,#0x7F]'
p761
sg19
S'7ffe0139'
p762
sg21
Vstrb wzr, [x19, #0x7f]
p763
sg5
L18446743798839731024L
sg6
Nsg23
S'STR'
p764
sg25
S'0xffffffc0007b6350L'
p765
sg27
Nsba(ibclass
BInstr
p766
(dp767
g2
Nsg17
S'ADRP            X21, #qword_FFFFFFC000E458A0@PAGE'
p768
sg19
S'753400f0'
p769
sg21
Vadrp x21, #0x68f000
p770
sg5
L18446743798839731028L
sg6
Nsg23
S'ADRP'
p771
sg25
S'0xffffffc0007b6354L'
p772
sg27
Nsba(ibclass
BInstr
p773
(dp774
g2
Nsg17
S'LDR             X0, [X21,#qword_FFFFFFC000E458A0@PAGEOFF]'
p775
sg19
S'a05244f9'
p776
sg21
Vldr x0, [x21, #0x8a0]
p777
sg5
L18446743798839731032L
sg6
Nsg23
S'LDR'
p778
sg25
S'0xffffffc0007b6358L'
p779
sg27
Nsba(ibclass
BInstr
p780
(dp781
g2
Nsg17
S'LDR             W0, [X0]'
p782
sg19
S'000040b9'
p783
sg21
Vldr w0, [x0]
p784
sg5
L18446743798839731036L
sg6
Nsg23
S'LDR'
p785
sg25
S'0xffffffc0007b635cL'
p786
sg27
Nsba(ibclass
BInstr
p787
(dp788
g2
Nsg17
S'TBZ             W0, #3, loc_FFFFFFC0007B638C'
p789
sg19
S'60011836'
p790
sg21
Vtbz w0, #3, #0x2c
p791
sg5
L18446743798839731040L
sg6
Nsg23
S'TBZ'
p792
sg25
S'0xffffffc0007b6360L'
p793
sg27
Nsbasg77
(lp794
S'STRB WZR, mem'
p795
aS'ADRP reg1, #func@PAGE'
p796
aS'LDR reg, mem'
p797
aS'LDR reg, mem'
p798
aS'TBZ reg, #3, func'
p799
asg87
Nsg5
S'0xffffffc0007b6350L'
p800
sg89
(lp801
S'0xffffffc0007b6328L'
p802
aS'0xffffffc0007b6344L'
p803
asg6
Nsg91
(lp804
S'0xffffffc0007b6364L'
p805
aS'0xffffffc0007b638cL'
p806
asg95
Nsg96
Nsg97
S'b4bd5c5656e90e90df5721125fc4c87f'
p807
sg99
S'6159538c2a060ed0d4966ded295496f0'
p808
sg101
(lp809
g764
ag771
ag778
ag785
ag792
asg103
Nsba(ibclass
BBasicBlock
p810
(dp811
g12
Nsg13
(lp812
(ibclass
BInstr
p813
(dp814
g2
Nsg17
S'ADRP            X0, #qword_FFFFFFC000E43D48@PAGE'
p815
sg19
S'603400b0'
p816
sg21
Vadrp x0, #0x68d000
p817
sg5
L18446743798839731044L
sg6
Nsg23
S'ADRP'
p818
sg25
S'0xffffffc0007b6364L'
p819
sg27
Nsba(ibclass
BInstr
p820
(dp821
g2
Nsg17
S'LDR             X0, [X0,#qword_FFFFFFC000E43D48@PAGEOFF]'
p822
sg19
S'00a446f9'
p823
sg21
Vldr x0, [x0, #0xd48]
p824
sg5
L18446743798839731048L
sg6
Nsg23
S'LDR'
p825
sg25
S'0xffffffc0007b6368L'
p826
sg27
Nsba(ibclass
BInstr
p827
(dp828
g2
Nsg17
S'LDR             W0, [X0]'
p829
sg19
S'000040b9'
p830
sg21
Vldr w0, [x0]
p831
sg5
L18446743798839731052L
sg6
Nsg23
S'LDR'
p832
sg25
S'0xffffffc0007b636cL'
p833
sg27
Nsba(ibclass
BInstr
p834
(dp835
g2
Nsg17
S'CBNZ            W0, loc_FFFFFFC0007B638C'
p836
sg19
S'e0000035'
p837
sg21
Vcbnz w0, #0x1c
p838
sg5
L18446743798839731056L
sg6
Nsg23
S'CBNZ'
p839
sg25
S'0xffffffc0007b6370L'
p840
sg27
Nsbasg77
(lp841
S'ADRP reg, #func@PAGE'
p842
aS'LDR reg, mem'
p843
aS'LDR reg, mem'
p844
aS'CBNZ reg, func'
p845
asg87
Nsg5
S'0xffffffc0007b6364L'
p846
sg89
(lp847
S'0xffffffc0007b6350L'
p848
asg6
Nsg91
(lp849
S'0xffffffc0007b6374L'
p850
aS'0xffffffc0007b638cL'
p851
asg95
Nsg96
Nsg97
S'9c97521b8b0f280d47a50ec9a5e4f86f'
p852
sg99
S'bd26f8893557dc5fa132ff2490be0ebf'
p853
sg101
(lp854
g818
ag825
ag832
ag839
asg103
Nsba(ibclass
BBasicBlock
p855
(dp856
g12
Nsg13
(lp857
(ibclass
BInstr
p858
(dp859
g2
Nsg17
S'ADRP            X0, #unk_FFFFFFC0013BEA78@PAGE'
p860
sg19
S'40600090'
p861
sg21
Vadrp x0, #0xc08000
p862
sg5
L18446743798839731060L
sg6
Nsg23
S'ADRP'
p863
sg25
S'0xffffffc0007b6374L'
p864
sg27
Nsba(ibclass
BInstr
p865
(dp866
g2
Nsg17
S'ADRP            X1, #(aRulesDbg+6)@PAGE; "dbg"'
p867
sg19
S'216700f0'
p868
sg21
Vadrp x1, #0xce7000
p869
sg5
L18446743798839731064L
sg6
Nsg23
S'ADRP'
p870
sg25
S'0xffffffc0007b6378L'
p871
sg27
Nsba(ibclass
BInstr
p872
(dp873
g2
Nsg17
S'ADD             X0, X0, #unk_FFFFFFC0013BEA78@PAGEOFF'
p874
sg19
S'00e02991'
p875
sg21
Vadd x0, x0, #0xa78
p876
sg5
L18446743798839731068L
sg6
Nsg23
S'ADD'
p877
sg25
S'0xffffffc0007b637cL'
p878
sg27
Nsba(ibclass
BInstr
p879
(dp880
g2
Nsg17
S'ADD             X1, X1, #(aRulesDbg+6)@PAGEOFF; "dbg"'
p881
sg19
S'21e00291'
p882
sg21
Vadd x1, x1, #0xb8
p883
sg5
L18446743798839731072L
sg6
Nsg23
S'ADD'
p884
sg25
S'0xffffffc0007b6380L'
p885
sg27
Nsba(ibclass
BInstr
p886
(dp887
g2
Nsg17
S'MOV             X2, X19'
p888
sg19
S'e20313aa'
p889
sg21
Vmov x2, x19
p890
sg5
L18446743798839731076L
sg6
Nsg23
S'MOV'
p891
sg25
S'0xffffffc0007b6384L'
p892
sg27
Nsba(ibclass
BInstr
p893
(dp894
g2
Nsg17
S'BL              printk'
p895
sg19
S'b8e11994'
p896
sg21
Vbl #0x6786e0
p897
sg5
L18446743798839731080L
sg6
Nsg23
S'BL'
p898
sg25
S'0xffffffc0007b6388L'
p899
sg27
Nsbasg77
(lp900
S'ADRP reg, #func@PAGE'
p901
aS'ADRP reg, #(aRulesDbg+6)@PAGE'
p902
aS'ADD reg, reg, #func@PAGEOFF'
p903
aS'ADD reg, reg, #(aRulesDbg+6)@PAGEOFF'
p904
aS'MOV reg, reg9'
p905
aS'BL printk'
p906
asg87
Nsg5
S'0xffffffc0007b6374L'
p907
sg89
(lp908
S'0xffffffc0007b6364L'
p909
asg6
Nsg91
(lp910
S'0xffffffc0007b638cL'
p911
asg95
Nsg96
Nsg97
S'eb549194eba9a07b906701fad5f00138'
p912
sg99
S'820e5cfcfefc5d73da2fbeeff0ed5d50'
p913
sg101
(lp914
g863
ag870
ag877
ag884
ag891
ag898
asg103
Nsba(ibclass
BBasicBlock
p915
(dp916
g12
Nsg13
(lp917
(ibclass
BInstr
p918
(dp919
g2
Nsg17
S'LDR             X0, [X20,#0x1F8]'
p920
sg19
S'80fe40f9'
p921
sg21
Vldr x0, [x20, #0x1f8]
p922
sg5
L18446743798839731084L
sg6
Nsg23
S'LDR'
p923
sg25
S'0xffffffc0007b638cL'
p924
sg27
Nsba(ibclass
BInstr
p925
(dp926
g2
Nsg17
S'LDR             X4, [X0,#8]'
p927
sg19
S'040440f9'
p928
sg21
Vldr x4, [x0, #8]
p929
sg5
L18446743798839731088L
sg6
Nsg23
S'LDR'
p930
sg25
S'0xffffffc0007b6390L'
p931
sg27
Nsba(ibclass
BInstr
p932
(dp933
g2
Nsg17
S'STR             W4, [X19,#0x80]'
p934
sg19
S'648200b9'
p935
sg21
Vstr w4, [x19, #0x80]
p936
sg5
L18446743798839731092L
sg6
Nsg23
S'STR'
p937
sg25
S'0xffffffc0007b6394L'
p938
sg27
Nsba(ibclass
BInstr
p939
(dp940
g2
Nsg17
S'LDR             X3, [X20,#0x1F8]'
p941
sg19
S'83fe40f9'
p942
sg21
Vldr x3, [x20, #0x1f8]
p943
sg5
L18446743798839731096L
sg6
Nsg23
S'LDR'
p944
sg25
S'0xffffffc0007b6398L'
p945
sg27
Nsba(ibclass
BInstr
p946
(dp947
g2
Nsg17
S'LDR             X0, [X3,#8]'
p948
sg19
S'600440f9'
p949
sg21
Vldr x0, [x3, #8]
p950
sg5
L18446743798839731100L
sg6
Nsg23
S'LDR'
p951
sg25
S'0xffffffc0007b639cL'
p952
sg27
Nsba(ibclass
BInstr
p953
(dp954
g2
Nsg17
S'CMP             X0, W4,SXTW'
p955
sg19
S'1fc024eb'
p956
sg21
Vcmp x0, w4, sxtw
p957
sg5
L18446743798839731104L
sg6
Nsg23
S'CMP'
p958
sg25
S'0xffffffc0007b63a0L'
p959
sg27
Nsba(ibclass
BInstr
p960
(dp961
g2
Nsg17
S'B.EQ            loc_FFFFFFC0007B63E8'
p962
sg19
S'20020054'
p963
sg21
Vb.eq #0x44
p964
sg5
L18446743798839731108L
sg6
Nsg23
g318
sg25
S'0xffffffc0007b63a4L'
p965
sg27
Nsbasg77
(lp966
S'LDR reg, mem'
p967
aS'LDR reg, mem'
p968
aS'STR reg, mem'
p969
aS'LDR reg, mem'
p970
aS'LDR reg, mem'
p971
aS'CMP reg, reg,SXTW'
p972
aS'B.EQ func'
p973
asg87
Nsg5
S'0xffffffc0007b638cL'
p974
sg89
(lp975
S'0xffffffc0007b6350L'
p976
aS'0xffffffc0007b6364L'
p977
aS'0xffffffc0007b6374L'
p978
asg6
Nsg91
(lp979
S'0xffffffc0007b63a8L'
p980
aS'0xffffffc0007b63e8L'
p981
asg95
Nsg96
Nsg97
S'3e9f5b60bdacabf72e3d2b998bff7549'
p982
sg99
S'e7c9f6c2cab822038f26d856ed5c69d5'
p983
sg101
(lp984
g923
ag930
ag937
ag944
ag951
ag958
ag318
asg103
Nsba(ibclass
BBasicBlock
p985
(dp986
g12
Nsg13
(lp987
(ibclass
BInstr
p988
(dp989
g2
Nsg17
S'LDR             X0, [X21,#qword_FFFFFFC000E458A0@PAGEOFF]'
p990
sg19
S'a05244f9'
p991
sg21
Vldr x0, [x21, #0x8a0]
p992
sg5
L18446743798839731112L
sg6
Nsg23
S'LDR'
p993
sg25
S'0xffffffc0007b63a8L'
p994
sg27
Nsba(ibclass
BInstr
p995
(dp996
g2
Nsg17
S'LDR             W0, [X0]'
p997
sg19
S'000040b9'
p998
sg21
Vldr w0, [x0]
p999
sg5
L18446743798839731116L
sg6
Nsg23
S'LDR'
p1000
sg25
S'0xffffffc0007b63acL'
p1001
sg27
Nsba(ibclass
BInstr
p1002
(dp1003
g2
Nsg17
S'TBZ             W0, #2, loc_FFFFFFC0007B63E8'
p1004
sg19
S'c0011036'
p1005
sg21
Vtbz w0, #2, #0x38
p1006
sg5
L18446743798839731120L
sg6
Nsg23
S'TBZ'
p1007
sg25
S'0xffffffc0007b63b0L'
p1008
sg27
Nsbasg77
(lp1009
S'LDR reg, mem'
p1010
aS'LDR reg, mem'
p1011
aS'TBZ reg, #2, func'
p1012
asg87
Nsg5
S'0xffffffc0007b63a8L'
p1013
sg89
(lp1014
S'0xffffffc0007b638cL'
p1015
asg6
Nsg91
(lp1016
S'0xffffffc0007b63b4L'
p1017
aS'0xffffffc0007b63e8L'
p1018
asg95
Nsg96
Nsg97
S'ac18b97d3a767be1a0530f85211830b6'
p1019
sg99
S'c98be04ef243802b29e5c610fc7445ee'
p1020
sg101
(lp1021
g993
ag1000
ag1007
asg103
Nsba(ibclass
BBasicBlock
p1022
(dp1023
g12
Nsg13
(lp1024
(ibclass
BInstr
p1025
(dp1026
g2
Nsg17
S'ADRP            X0, #qword_FFFFFFC000E43D48@PAGE'
p1027
sg19
S'603400b0'
p1028
sg21
Vadrp x0, #0x68d000
p1029
sg5
L18446743798839731124L
sg6
Nsg23
S'ADRP'
p1030
sg25
S'0xffffffc0007b63b4L'
p1031
sg27
Nsba(ibclass
BInstr
p1032
(dp1033
g2
Nsg17
S'LDR             X0, [X0,#qword_FFFFFFC000E43D48@PAGEOFF]'
p1034
sg19
S'00a446f9'
p1035
sg21
Vldr x0, [x0, #0xd48]
p1036
sg5
L18446743798839731128L
sg6
Nsg23
S'LDR'
p1037
sg25
S'0xffffffc0007b63b8L'
p1038
sg27
Nsba(ibclass
BInstr
p1039
(dp1040
g2
Nsg17
S'LDR             W0, [X0]'
p1041
sg19
S'000040b9'
p1042
sg21
Vldr w0, [x0]
p1043
sg5
L18446743798839731132L
sg6
Nsg23
S'LDR'
p1044
sg25
S'0xffffffc0007b63bcL'
p1045
sg27
Nsba(ibclass
BInstr
p1046
(dp1047
g2
Nsg17
S'CBNZ            W0, loc_FFFFFFC0007B63E8'
p1048
sg19
S'40010035'
p1049
sg21
Vcbnz w0, #0x28
p1050
sg5
L18446743798839731136L
sg6
Nsg23
S'CBNZ'
p1051
sg25
S'0xffffffc0007b63c0L'
p1052
sg27
Nsbasg77
(lp1053
S'ADRP reg, #func@PAGE'
p1054
aS'LDR reg, mem'
p1055
aS'LDR reg, mem'
p1056
aS'CBNZ reg, func'
p1057
asg87
Nsg5
S'0xffffffc0007b63b4L'
p1058
sg89
(lp1059
S'0xffffffc0007b63a8L'
p1060
asg6
Nsg91
(lp1061
S'0xffffffc0007b63c4L'
p1062
aS'0xffffffc0007b63e8L'
p1063
asg95
Nsg96
Nsg97
S'9c97521b8b0f280d47a50ec9a5e4f86f'
p1064
sg99
S'bd26f8893557dc5fa132ff2490be0ebf'
p1065
sg101
(lp1066
g1030
ag1037
ag1044
ag1051
asg103
Nsba(ibclass
BBasicBlock
p1067
(dp1068
g12
Nsg13
(lp1069
(ibclass
BInstr
p1070
(dp1071
g2
Nsg17
S'ADRP            X2, #__func__.33986@PAGE; "venus_hfi_suspend"'
p1072
sg19
S'a2440090'
p1073
sg21
Vadrp x2, #0x894000
p1074
sg5
L18446743798839731140L
sg6
Nsg23
S'ADRP'
p1075
sg25
S'0xffffffc0007b63c4L'
p1076
sg27
Nsba(ibclass
BInstr
p1077
(dp1078
g2
Nsg17
S'ADRP            X0, #unk_FFFFFFC0013BEAA5@PAGE'
p1079
sg19
S'40600090'
p1080
sg21
Vadrp x0, #0xc08000
p1081
sg5
L18446743798839731144L
sg6
Nsg23
S'ADRP'
p1082
sg25
S'0xffffffc0007b63c8L'
p1083
sg27
Nsba(ibclass
BInstr
p1084
(dp1085
g2
Nsg17
S'ADRP            X1, #aInfo@PAGE; "info"'
p1086
sg19
S'e15d00b0'
p1087
sg21
Vadrp x1, #0xbbd000
p1088
sg5
L18446743798839731148L
sg6
Nsg23
S'ADRP'
p1089
sg25
S'0xffffffc0007b63ccL'
p1090
sg27
Nsba(ibclass
BInstr
p1091
(dp1092
g2
Nsg17
S'ADD             X2, X2, #__func__.33986@PAGEOFF; "venus_hfi_suspend"'
p1093
sg19
S'42201991'
p1094
sg21
Vadd x2, x2, #0x648
p1095
sg5
L18446743798839731152L
sg6
Nsg23
S'ADD'
p1096
sg25
S'0xffffffc0007b63d0L'
p1097
sg27
Nsba(ibclass
BInstr
p1098
(dp1099
g2
Nsg17
S'ADD             X0, X0, #unk_FFFFFFC0013BEAA5@PAGEOFF'
p1100
sg19
S'00942a91'
p1101
sg21
Vadd x0, x0, #0xaa5
p1102
sg5
L18446743798839731156L
sg6
Nsg23
S'ADD'
p1103
sg25
S'0xffffffc0007b63d4L'
p1104
sg27
Nsba(ibclass
BInstr
p1105
(dp1106
g2
Nsg17
S'ADD             X1, X1, #aInfo@PAGEOFF; "info"'
p1107
sg19
S'217c0991'
p1108
sg21
Vadd x1, x1, #0x25f
p1109
sg5
L18446743798839731160L
sg6
Nsg23
S'ADD'
p1110
sg25
S'0xffffffc0007b63d8L'
p1111
sg27
Nsba(ibclass
BInstr
p1112
(dp1113
g2
Nsg17
S'ADD             X2, X2, #0x28'
p1114
sg19
S'42a00091'
p1115
sg21
Vadd x2, x2, #0x28
p1116
sg5
L18446743798839731164L
sg6
Nsg23
S'ADD'
p1117
sg25
S'0xffffffc0007b63dcL'
p1118
sg27
Nsba(ibclass
BInstr
p1119
(dp1120
g2
Nsg17
S'ADD             X3, X3, #8'
p1121
sg19
S'63200091'
p1122
sg21
Vadd x3, x3, #8
p1123
sg5
L18446743798839731168L
sg6
Nsg23
S'ADD'
p1124
sg25
S'0xffffffc0007b63e0L'
p1125
sg27
Nsba(ibclass
BInstr
p1126
(dp1127
g2
Nsg17
S'BL              printk'
p1128
sg19
S'a1e11994'
p1129
sg21
Vbl #0x678684
p1130
sg5
L18446743798839731172L
sg6
Nsg23
S'BL'
p1131
sg25
S'0xffffffc0007b63e4L'
p1132
sg27
Nsbasg77
(lp1133
S'ADRP reg, #__func__.33986@PAGE'
p1134
aS'ADRP reg, #func@PAGE'
p1135
aS'ADRP reg, #aInfo@PAGE'
p1136
aS'ADD reg, reg, #__func__.33986@PAGEOFF'
p1137
aS'ADD reg, reg, #func@PAGEOFF'
p1138
aS'ADD reg, reg, #aInfo@PAGEOFF'
p1139
aS'ADD reg, reg, #0x28'
p1140
aS'ADD reg, reg, #8'
p1141
aS'BL printk'
p1142
asg87
Nsg5
S'0xffffffc0007b63c4L'
p1143
sg89
(lp1144
S'0xffffffc0007b63b4L'
p1145
asg6
Nsg91
(lp1146
S'0xffffffc0007b63e8L'
p1147
asg95
Nsg96
Nsg97
S'2ae4d8c6e196d3c450196d50ee706282'
p1148
sg99
S'08bae7323f7d5085f22352583226b795'
p1149
sg101
(lp1150
g1075
ag1082
ag1089
ag1096
ag1103
ag1110
ag1117
ag1124
ag1131
asg103
Nsba(ibclass
BBasicBlock
p1151
(dp1152
g12
Nsg13
(lp1153
(ibclass
BInstr
p1154
(dp1155
g2
Nsg17
S'LDR             X0, [X20,#0x248]'
p1156
sg19
S'802641f9'
p1157
sg21
Vldr x0, [x20, #0x248]
p1158
sg5
L18446743798839731176L
sg6
Nsg23
S'LDR'
p1159
sg25
S'0xffffffc0007b63e8L'
p1160
sg27
Nsba(ibclass
BInstr
p1161
(dp1162
g2
Nsg17
S'LDR             X4, [X0,#8]'
p1163
sg19
S'040440f9'
p1164
sg21
Vldr x4, [x0, #8]
p1165
sg5
L18446743798839731180L
sg6
Nsg23
S'LDR'
p1166
sg25
S'0xffffffc0007b63ecL'
p1167
sg27
Nsba(ibclass
BInstr
p1168
(dp1169
g2
Nsg17
S'STR             W4, [X19,#0x84]'
p1170
sg19
S'648600b9'
p1171
sg21
Vstr w4, [x19, #0x84]
p1172
sg5
L18446743798839731184L
sg6
Nsg23
S'STR'
p1173
sg25
S'0xffffffc0007b63f0L'
p1174
sg27
Nsba(ibclass
BInstr
p1175
(dp1176
g2
Nsg17
S'LDR             X3, [X20,#0x248]'
p1177
sg19
S'832641f9'
p1178
sg21
Vldr x3, [x20, #0x248]
p1179
sg5
L18446743798839731188L
sg6
Nsg23
S'LDR'
p1180
sg25
S'0xffffffc0007b63f4L'
p1181
sg27
Nsba(ibclass
BInstr
p1182
(dp1183
g2
Nsg17
S'LDR             X0, [X3,#8]'
p1184
sg19
S'600440f9'
p1185
sg21
Vldr x0, [x3, #8]
p1186
sg5
L18446743798839731192L
sg6
Nsg23
S'LDR'
p1187
sg25
S'0xffffffc0007b63f8L'
p1188
sg27
Nsba(ibclass
BInstr
p1189
(dp1190
g2
Nsg17
S'CMP             X0, W4,SXTW'
p1191
sg19
S'1fc024eb'
p1192
sg21
Vcmp x0, w4, sxtw
p1193
sg5
L18446743798839731196L
sg6
Nsg23
S'CMP'
p1194
sg25
S'0xffffffc0007b63fcL'
p1195
sg27
Nsba(ibclass
BInstr
p1196
(dp1197
g2
Nsg17
S'B.EQ            loc_FFFFFFC0007B6444'
p1198
sg19
S'20020054'
p1199
sg21
Vb.eq #0x44
p1200
sg5
L18446743798839731200L
sg6
Nsg23
g318
sg25
S'0xffffffc0007b6400L'
p1201
sg27
Nsbasg77
(lp1202
S'LDR reg, mem'
p1203
aS'LDR reg, mem'
p1204
aS'STR reg, mem'
p1205
aS'LDR reg, mem'
p1206
aS'LDR reg, mem'
p1207
aS'CMP reg, reg,SXTW'
p1208
aS'B.EQ func'
p1209
asg87
Nsg5
S'0xffffffc0007b63e8L'
p1210
sg89
(lp1211
S'0xffffffc0007b638cL'
p1212
aS'0xffffffc0007b63a8L'
p1213
aS'0xffffffc0007b63b4L'
p1214
aS'0xffffffc0007b63c4L'
p1215
asg6
Nsg91
(lp1216
S'0xffffffc0007b6404L'
p1217
aS'0xffffffc0007b6444L'
p1218
asg95
Nsg96
Nsg97
S'3e9f5b60bdacabf72e3d2b998bff7549'
p1219
sg99
S'e7c9f6c2cab822038f26d856ed5c69d5'
p1220
sg101
(lp1221
g1159
ag1166
ag1173
ag1180
ag1187
ag1194
ag318
asg103
Nsba(ibclass
BBasicBlock
p1222
(dp1223
g12
Nsg13
(lp1224
(ibclass
BInstr
p1225
(dp1226
g2
Nsg17
S'LDR             X21, [X21,#qword_FFFFFFC000E458A0@PAGEOFF]'
p1227
sg19
S'b55244f9'
p1228
sg21
Vldr x21, [x21, #0x8a0]
p1229
sg5
L18446743798839731204L
sg6
Nsg23
S'LDR'
p1230
sg25
S'0xffffffc0007b6404L'
p1231
sg27
Nsba(ibclass
BInstr
p1232
(dp1233
g2
Nsg17
S'LDR             W0, [X21]'
p1234
sg19
S'a00240b9'
p1235
sg21
Vldr w0, [x21]
p1236
sg5
L18446743798839731208L
sg6
Nsg23
S'LDR'
p1237
sg25
S'0xffffffc0007b6408L'
p1238
sg27
Nsba(ibclass
BInstr
p1239
(dp1240
g2
Nsg17
S'TBZ             W0, #2, loc_FFFFFFC0007B6444'
p1241
sg19
S'c0011036'
p1242
sg21
Vtbz w0, #2, #0x38
p1243
sg5
L18446743798839731212L
sg6
Nsg23
S'TBZ'
p1244
sg25
S'0xffffffc0007b640cL'
p1245
sg27
Nsbasg77
(lp1246
S'LDR reg1, mem'
p1247
aS'LDR reg, mem'
p1248
aS'TBZ reg, #2, func'
p1249
asg87
Nsg5
S'0xffffffc0007b6404L'
p1250
sg89
(lp1251
S'0xffffffc0007b63e8L'
p1252
asg6
Nsg91
(lp1253
S'0xffffffc0007b6410L'
p1254
aS'0xffffffc0007b6444L'
p1255
asg95
Nsg96
Nsg97
S'ac18b97d3a767be1a0530f85211830b6'
p1256
sg99
S'381a122854185207ed488644c453f913'
p1257
sg101
(lp1258
g1230
ag1237
ag1244
asg103
Nsba(ibclass
BBasicBlock
p1259
(dp1260
g12
Nsg13
(lp1261
(ibclass
BInstr
p1262
(dp1263
g2
Nsg17
S'ADRP            X0, #qword_FFFFFFC000E43D48@PAGE'
p1264
sg19
S'603400b0'
p1265
sg21
Vadrp x0, #0x68d000
p1266
sg5
L18446743798839731216L
sg6
Nsg23
S'ADRP'
p1267
sg25
S'0xffffffc0007b6410L'
p1268
sg27
Nsba(ibclass
BInstr
p1269
(dp1270
g2
Nsg17
S'LDR             X0, [X0,#qword_FFFFFFC000E43D48@PAGEOFF]'
p1271
sg19
S'00a446f9'
p1272
sg21
Vldr x0, [x0, #0xd48]
p1273
sg5
L18446743798839731220L
sg6
Nsg23
S'LDR'
p1274
sg25
S'0xffffffc0007b6414L'
p1275
sg27
Nsba(ibclass
BInstr
p1276
(dp1277
g2
Nsg17
S'LDR             W0, [X0]'
p1278
sg19
S'000040b9'
p1279
sg21
Vldr w0, [x0]
p1280
sg5
L18446743798839731224L
sg6
Nsg23
S'LDR'
p1281
sg25
S'0xffffffc0007b6418L'
p1282
sg27
Nsba(ibclass
BInstr
p1283
(dp1284
g2
Nsg17
S'CBNZ            W0, loc_FFFFFFC0007B6444'
p1285
sg19
S'40010035'
p1286
sg21
Vcbnz w0, #0x28
p1287
sg5
L18446743798839731228L
sg6
Nsg23
S'CBNZ'
p1288
sg25
S'0xffffffc0007b641cL'
p1289
sg27
Nsbasg77
(lp1290
S'ADRP reg, #func@PAGE'
p1291
aS'LDR reg, mem'
p1292
aS'LDR reg, mem'
p1293
aS'CBNZ reg, func'
p1294
asg87
Nsg5
S'0xffffffc0007b6410L'
p1295
sg89
(lp1296
S'0xffffffc0007b6404L'
p1297
asg6
Nsg91
(lp1298
S'0xffffffc0007b6420L'
p1299
aS'0xffffffc0007b6444L'
p1300
asg95
Nsg96
Nsg97
S'9c97521b8b0f280d47a50ec9a5e4f86f'
p1301
sg99
S'bd26f8893557dc5fa132ff2490be0ebf'
p1302
sg101
(lp1303
g1267
ag1274
ag1281
ag1288
asg103
Nsba(ibclass
BBasicBlock
p1304
(dp1305
g12
Nsg13
(lp1306
(ibclass
BInstr
p1307
(dp1308
g2
Nsg17
S'ADRP            X2, #__func__.33986@PAGE; "venus_hfi_suspend"'
p1309
sg19
S'a2440090'
p1310
sg21
Vadrp x2, #0x894000
p1311
sg5
L18446743798839731232L
sg6
Nsg23
S'ADRP'
p1312
sg25
S'0xffffffc0007b6420L'
p1313
sg27
Nsba(ibclass
BInstr
p1314
(dp1315
g2
Nsg17
S'ADRP            X0, #unk_FFFFFFC0013BEAE2@PAGE'
p1316
sg19
S'40600090'
p1317
sg21
Vadrp x0, #0xc08000
p1318
sg5
L18446743798839731236L
sg6
Nsg23
S'ADRP'
p1319
sg25
S'0xffffffc0007b6424L'
p1320
sg27
Nsba(ibclass
BInstr
p1321
(dp1322
g2
Nsg17
S'ADRP            X1, #aInfo@PAGE; "info"'
p1323
sg19
S'e15d00b0'
p1324
sg21
Vadrp x1, #0xbbd000
p1325
sg5
L18446743798839731240L
sg6
Nsg23
S'ADRP'
p1326
sg25
S'0xffffffc0007b6428L'
p1327
sg27
Nsba(ibclass
BInstr
p1328
(dp1329
g2
Nsg17
S'ADD             X2, X2, #__func__.33986@PAGEOFF; "venus_hfi_suspend"'
p1330
sg19
S'42201991'
p1331
sg21
Vadd x2, x2, #0x648
p1332
sg5
L18446743798839731244L
sg6
Nsg23
S'ADD'
p1333
sg25
S'0xffffffc0007b642cL'
p1334
sg27
Nsba(ibclass
BInstr
p1335
(dp1336
g2
Nsg17
S'ADD             X0, X0, #unk_FFFFFFC0013BEAE2@PAGEOFF'
p1337
sg19
S'00882b91'
p1338
sg21
Vadd x0, x0, #0xae2
p1339
sg5
L18446743798839731248L
sg6
Nsg23
S'ADD'
p1340
sg25
S'0xffffffc0007b6430L'
p1341
sg27
Nsba(ibclass
BInstr
p1342
(dp1343
g2
Nsg17
S'ADD             X1, X1, #aInfo@PAGEOFF; "info"'
p1344
sg19
S'217c0991'
p1345
sg21
Vadd x1, x1, #0x25f
p1346
sg5
L18446743798839731252L
sg6
Nsg23
S'ADD'
p1347
sg25
S'0xffffffc0007b6434L'
p1348
sg27
Nsba(ibclass
BInstr
p1349
(dp1350
g2
Nsg17
S'ADD             X2, X2, #0x28'
p1351
sg19
S'42a00091'
p1352
sg21
Vadd x2, x2, #0x28
p1353
sg5
L18446743798839731256L
sg6
Nsg23
S'ADD'
p1354
sg25
S'0xffffffc0007b6438L'
p1355
sg27
Nsba(ibclass
BInstr
p1356
(dp1357
g2
Nsg17
S'ADD             X3, X3, #8'
p1358
sg19
S'63200091'
p1359
sg21
Vadd x3, x3, #8
p1360
sg5
L18446743798839731260L
sg6
Nsg23
S'ADD'
p1361
sg25
S'0xffffffc0007b643cL'
p1362
sg27
Nsba(ibclass
BInstr
p1363
(dp1364
g2
Nsg17
S'BL              printk'
p1365
sg19
S'8ae11994'
p1366
sg21
Vbl #0x678628
p1367
sg5
L18446743798839731264L
sg6
Nsg23
S'BL'
p1368
sg25
S'0xffffffc0007b6440L'
p1369
sg27
Nsbasg77
(lp1370
S'ADRP reg, #__func__.33986@PAGE'
p1371
aS'ADRP reg, #func@PAGE'
p1372
aS'ADRP reg, #aInfo@PAGE'
p1373
aS'ADD reg, reg, #__func__.33986@PAGEOFF'
p1374
aS'ADD reg, reg, #func@PAGEOFF'
p1375
aS'ADD reg, reg, #aInfo@PAGEOFF'
p1376
aS'ADD reg, reg, #0x28'
p1377
aS'ADD reg, reg, #8'
p1378
aS'BL printk'
p1379
asg87
Nsg5
S'0xffffffc0007b6420L'
p1380
sg89
(lp1381
S'0xffffffc0007b6410L'
p1382
asg6
Nsg91
(lp1383
S'0xffffffc0007b6444L'
p1384
asg95
Nsg96
Nsg97
S'2ae4d8c6e196d3c450196d50ee706282'
p1385
sg99
S'08bae7323f7d5085f22352583226b795'
p1386
sg101
(lp1387
g1312
ag1319
ag1326
ag1333
ag1340
ag1347
ag1354
ag1361
ag1368
asg103
Nsba(ibclass
BBasicBlock
p1388
(dp1389
g12
Nsg13
(lp1390
(ibclass
BInstr
p1391
(dp1392
g2
Nsg17
S'LDR             X0, [X20,#0x1F8]'
p1393
sg19
S'80fe40f9'
p1394
sg21
Vldr x0, [x20, #0x1f8]
p1395
sg5
L18446743798839731268L
sg6
Nsg23
S'LDR'
p1396
sg25
S'0xffffffc0007b6444L'
p1397
sg27
Nsba(ibclass
BInstr
p1398
(dp1399
g2
Nsg17
S'MOV             W21, #0'
p1400
sg19
S'15008052'
p1401
sg21
Vmovz w21, #0
p1402
sg5
L18446743798839731272L
sg6
Nsg23
S'MOV'
p1403
sg25
S'0xffffffc0007b6448L'
p1404
sg27
Nsba(ibclass
BInstr
p1405
(dp1406
g2
Nsg17
S'LDR             W0, [X0,#0x18]'
p1407
sg19
S'001840b9'
p1408
sg21
Vldr w0, [x0, #0x18]
p1409
sg5
L18446743798839731276L
sg6
Nsg23
S'LDR'
p1410
sg25
S'0xffffffc0007b644cL'
p1411
sg27
Nsba(ibclass
BInstr
p1412
(dp1413
g2
Nsg17
S'STR             W0, [X19,#0x88]'
p1414
sg19
S'608a00b9'
p1415
sg21
Vstr w0, [x19, #0x88]
p1416
sg5
L18446743798839731280L
sg6
Nsg23
S'STR'
p1417
sg25
S'0xffffffc0007b6450L'
p1418
sg27
Nsba(ibclass
BInstr
p1419
(dp1420
g2
Nsg17
S'LDR             X0, [X20,#0x1F8]'
p1421
sg19
S'80fe40f9'
p1422
sg21
Vldr x0, [x20, #0x1f8]
p1423
sg5
L18446743798839731284L
sg6
Nsg23
S'LDR'
p1424
sg25
S'0xffffffc0007b6454L'
p1425
sg27
Nsba(ibclass
BInstr
p1426
(dp1427
g2
Nsg17
S'LDR             W0, [X0]'
p1428
sg19
S'000040b9'
p1429
sg21
Vldr w0, [x0]
p1430
sg5
L18446743798839731288L
sg6
Nsg23
S'LDR'
p1431
sg25
S'0xffffffc0007b6458L'
p1432
sg27
Nsba(ibclass
BInstr
p1433
(dp1434
g2
Nsg17
S'STR             W0, [X19,#0x8C]'
p1435
sg19
S'608e00b9'
p1436
sg21
Vstr w0, [x19, #0x8c]
p1437
sg5
L18446743798839731292L
sg6
Nsg23
S'STR'
p1438
sg25
S'0xffffffc0007b645cL'
p1439
sg27
Nsba(ibclass
BInstr
p1440
(dp1441
g2
Nsg17
S'B               loc_FFFFFFC0007B6468'
p1442
sg19
S'02000014'
p1443
sg21
Vb #8
p1444
sg5
L18446743798839731296L
sg6
Nsg23
g318
sg25
S'0xffffffc0007b6460L'
p1445
sg27
Nsbasg77
(lp1446
S'LDR reg, mem'
p1447
aS'MOV reg1, #0'
p1448
aS'LDR reg, mem'
p1449
aS'STR reg, mem'
p1450
aS'LDR reg, mem'
p1451
aS'LDR reg, mem'
p1452
aS'STR reg, mem'
p1453
aS'B func'
p1454
asg87
Nsg5
S'0xffffffc0007b6444L'
p1455
sg89
(lp1456
S'0xffffffc0007b63e8L'
p1457
aS'0xffffffc0007b6404L'
p1458
aS'0xffffffc0007b6410L'
p1459
aS'0xffffffc0007b6420L'
p1460
asg6
Nsg91
(lp1461
S'0xffffffc0007b6468L'
p1462
asg95
Nsg96
Nsg97
S'c3b77d81c6661089c08b9cc9e6afb51d'
p1463
sg99
S'5c11af4bac7140bd3771d765a4a1a73d'
p1464
sg101
(lp1465
g1396
ag1403
ag1410
ag1417
ag1424
ag1431
ag1438
ag318
asg103
Nsba(ibclass
BBasicBlock
p1466
(dp1467
g12
Nsg13
(lp1468
(ibclass
BInstr
p1469
(dp1470
g2
Nsg17
S'MOV             W21, #0xFFFFFFEA'
p1471
sg19
S'b5028012'
p1472
sg21
Vmovn w21, #0x15
p1473
sg5
L18446743798839731300L
sg6
Nsg23
S'MOV'
p1474
sg25
S'0xffffffc0007b6464L'
p1475
sg27
Nsbasg77
(lp1476
S'MOV reg1, #0xFFFFFFEA'
p1477
asg87
Nsg5
S'0xffffffc0007b6464L'
p1478
sg89
(lp1479
S'0xffffffc0007b6274L'
p1480
asg6
Nsg91
(lp1481
S'0xffffffc0007b6468L'
p1482
asg95
Nsg96
Nsg97
S'17b32100aef1fc19670be7fd58bc85df'
p1483
sg99
S'04fa9eb7c983897fd86b3dcbc689beab'
p1484
sg101
(lp1485
g1474
asg103
Nsba(ibclass
BBasicBlock
p1486
(dp1487
g12
Nsg13
(lp1488
(ibclass
BInstr
p1489
(dp1490
g2
Nsg17
S'MOV             W0, W21'
p1491
sg19
S'e003152a'
p1492
sg21
Vmov w0, w21
p1493
sg5
L18446743798839731304L
sg6
Nsg23
S'MOV'
p1494
sg25
S'0xffffffc0007b6468L'
p1495
sg27
Nsba(ibclass
BInstr
p1496
(dp1497
g2
Nsg17
S'LDP             X19, X20, [SP,#0xB0+var_A0]'
p1498
sg19
S'f35341a9'
p1499
sg21
Vldp x19, x20, [sp, #0x10]
p1500
sg5
L18446743798839731308L
sg6
Nsg23
S'LDP'
p1501
sg25
S'0xffffffc0007b646cL'
p1502
sg27
Nsba(ibclass
BInstr
p1503
(dp1504
g2
Nsg17
S'LDR             X21, [SP,#0xB0+var_90]'
p1505
sg19
S'f51340f9'
p1506
sg21
Vldr x21, [sp, #0x20]
p1507
sg5
L18446743798839731312L
sg6
Nsg23
S'LDR'
p1508
sg25
S'0xffffffc0007b6470L'
p1509
sg27
Nsba(ibclass
BInstr
p1510
(dp1511
g2
Nsg17
S'LDP             X29, X30, [SP+0xB0+var_B0],#0xC0'
p1512
sg19
S'fd7bcca8'
p1513
sg21
Vldp x29, x30, [sp], #0xc0
p1514
sg5
L18446743798839731316L
sg6
Nsg23
S'LDP'
p1515
sg25
S'0xffffffc0007b6474L'
p1516
sg27
Nsba(ibclass
BInstr
p1517
(dp1518
g2
Nsg17
S'RET'
p1519
sg19
S'c0035fd6'
p1520
sg21
Vret 
p1521
sg5
L18446743798839731320L
sg6
Nsg23
S'RET'
p1522
sg25
S'0xffffffc0007b6478L'
p1523
sg27
Nsbasg77
(lp1524
S'MOV reg, reg1'
p1525
aS'LDP reg9, reg0, mem'
p1526
aS'LDR reg1, mem'
p1527
aS'LDP reg9, reg0, mem,#0xC0'
p1528
ag1519
asg87
Nsg5
S'0xffffffc0007b6468L'
p1529
sg89
(lp1530
S'0xffffffc0007b6284L'
p1531
aS'0xffffffc0007b6298L'
p1532
aS'0xffffffc0007b6444L'
p1533
aS'0xffffffc0007b6464L'
p1534
asg6
Nsg91
(lp1535
sg95
Nsg96
Nsg97
S'47a51c6838251fd749eeafe5212d5a42'
p1536
sg99
S'da3e6fa3232f4077f311ff99682daf4c'
p1537
sg101
(lp1538
g1494
ag1501
ag1508
ag1515
ag1522
asg103
Nsbasb.