(ibclass
BFunc
p0
(dp1
S'hash'
p2
NsS'name'
p3
S'venus_hfi_iommu_detach'
p4
sS'start_address'
p5
L18446743798839735768L
sS'flag'
p6
NsS'program'
p7
NsS'bbs'
p8
(lp9
(ibclass
BBasicBlock
p10
(dp11
S'function'
p12
NsS'binstrs'
p13
(lp14
(ibclass
BInstr
p15
(dp16
g2
NsS'disasm'
p17
S'STP             X29, X30, [SP,#-0x10+var_30]!'
p18
sS'bytes'
p19
S'fd7bbca9'
p20
sS'disasm_striped'
p21
Vstp x29, x30, [sp, #-0x40]!
p22
sg5
L18446743798839735768L
sg6
NsS'mnem'
p23
S'STP'
p24
sS'address'
p25
S'0xffffffc0007b75d8L'
p26
sS'basicblock'
p27
Nsba(ibclass
BInstr
p28
(dp29
g2
Nsg17
S'MOV             X29, SP'
p30
sg19
S'fd030091'
p31
sg21
Vmov x29, sp
p32
sg5
L18446743798839735772L
sg6
Nsg23
S'MOV'
p33
sg25
S'0xffffffc0007b75dcL'
p34
sg27
Nsba(ibclass
BInstr
p35
(dp36
g2
Nsg17
S'STP             X19, X20, [SP,#0x30+var_20]'
p37
sg19
S'f35301a9'
p38
sg21
Vstp x19, x20, [sp, #0x10]
p39
sg5
L18446743798839735776L
sg6
Nsg23
S'STP'
p40
sg25
S'0xffffffc0007b75e0L'
p41
sg27
Nsba(ibclass
BInstr
p42
(dp43
g2
Nsg17
S'STR             X21, [SP,#0x30+var_10]'
p44
sg19
S'f51300f9'
p45
sg21
Vstr x21, [sp, #0x20]
p46
sg5
L18446743798839735780L
sg6
Nsg23
S'STR'
p47
sg25
S'0xffffffc0007b75e4L'
p48
sg27
Nsba(ibclass
BInstr
p49
(dp50
g2
Nsg17
S'MOV             X2, X0'
p51
sg19
S'e20300aa'
p52
sg21
Vmov x2, x0
p53
sg5
L18446743798839735784L
sg6
Nsg23
S'MOV'
p54
sg25
S'0xffffffc0007b75e8L'
p55
sg27
Nsba(ibclass
BInstr
p56
(dp57
g2
Nsg17
S'CBZ             X0, loc_FFFFFFC0007B7604'
p58
sg19
S'c00000b4'
p59
sg21
Vcbz x0, #0x18
p60
sg5
L18446743798839735788L
sg6
Nsg23
S'CBZ'
p61
sg25
S'0xffffffc0007b75ecL'
p62
sg27
NsbasS'disasm_list'
p63
(lp64
S'STP reg9, reg0, mem!'
p65
aS'MOV reg9, SP'
p66
aS'STP reg9, reg0, mem'
p67
aS'STR reg1, mem'
p68
aS'MOV reg, reg'
p69
aS'CBZ reg, func'
p70
asS'end_address'
p71
Nsg5
S'0xffffffc0007b75d8L'
p72
sS'preds'
p73
(lp74
sg6
NsS'succs'
p75
(lp76
S'0xffffffc0007b75f0L'
p77
aS'0xffffffc0007b7604L'
p78
asS'hash_v3'
p79
NsS'flag_v2'
p80
NsS'hash_v1'
p81
S'd53853be11e01d022939f3e57a9ea547'
p82
sS'hash_v2'
p83
S'446e6729a772f9b1b084405639bfffed'
p84
sS'mnen_list'
p85
(lp86
g24
ag33
ag40
ag47
ag54
ag61
asS'neighbour_disasm_list'
p87
Nsba(ibclass
BBasicBlock
p88
(dp89
g12
Nsg13
(lp90
(ibclass
BInstr
p91
(dp92
g2
Nsg17
S'LDR             X20, [X0,#0x248]'
p93
sg19
S'142441f9'
p94
sg21
Vldr x20, [x0, #0x248]
p95
sg5
L18446743798839735792L
sg6
Nsg23
S'LDR'
p96
sg25
S'0xffffffc0007b75f0L'
p97
sg27
Nsba(ibclass
BInstr
p98
(dp99
g2
Nsg17
S'CBZ             X20, loc_FFFFFFC0007B7604'
p100
sg19
S'940000b4'
p101
sg21
Vcbz x20, #0x10
p102
sg5
L18446743798839735796L
sg6
Nsg23
S'CBZ'
p103
sg25
S'0xffffffc0007b75f4L'
p104
sg27
Nsbasg63
(lp105
S'LDR reg0, mem'
p106
aS'CBZ reg0, func'
p107
asg71
Nsg5
S'0xffffffc0007b75f0L'
p108
sg73
(lp109
S'0xffffffc0007b75d8L'
p110
asg6
Nsg75
(lp111
S'0xffffffc0007b75f8L'
p112
aS'0xffffffc0007b7604L'
p113
asg79
Nsg80
Nsg81
S'a0c488049ab653dbdfa1dc805bb83f13'
p114
sg83
S'6bf98c6956d77f9f1033f03a6851b4b4'
p115
sg85
(lp116
g96
ag103
asg87
Nsba(ibclass
BBasicBlock
p117
(dp118
g12
Nsg13
(lp119
(ibclass
BInstr
p120
(dp121
g2
Nsg17
S'MOV             W19, #0'
p122
sg19
S'13008052'
p123
sg21
Vmovz w19, #0
p124
sg5
L18446743798839735800L
sg6
Nsg23
S'MOV'
p125
sg25
S'0xffffffc0007b75f8L'
p126
sg27
Nsba(ibclass
BInstr
p127
(dp128
g2
Nsg17
S'MOV             W21, #0x1A0'
p129
sg19
S'15348052'
p130
sg21
Vmovz w21, #0x1a0
p131
sg5
L18446743798839735804L
sg6
Nsg23
S'MOV'
p132
sg25
S'0xffffffc0007b75fcL'
p133
sg27
Nsba(ibclass
BInstr
p134
(dp135
g2
Nsg17
S'B               loc_FFFFFFC0007B7660'
p136
sg19
S'18000014'
p137
sg21
Vb #0x60
p138
sg5
L18446743798839735808L
sg6
Nsg23
S'B'
p139
sg25
S'0xffffffc0007b7600L'
p140
sg27
Nsbasg63
(lp141
S'MOV reg9, #0'
p142
aS'MOV reg1, #0x1A0'
p143
aS'B func'
p144
asg71
Nsg5
S'0xffffffc0007b75f8L'
p145
sg73
(lp146
S'0xffffffc0007b75f0L'
p147
asg6
Nsg75
(lp148
S'0xffffffc0007b7660L'
p149
asg79
Nsg80
Nsg81
S'7391dd723071525ee502f0c2742c56af'
p150
sg83
S'9caa4dbf879e1914ab1a656873ddc067'
p151
sg85
(lp152
g125
ag132
ag139
asg87
Nsba(ibclass
BBasicBlock
p153
(dp154
g12
Nsg13
(lp155
(ibclass
BInstr
p156
(dp157
g2
Nsg17
S'ADRP            X0, #qword_FFFFFFC000E458A0@PAGE'
p158
sg19
S'603400d0'
p159
sg21
Vadrp x0, #0x68e000
p160
sg5
L18446743798839735812L
sg6
Nsg23
S'ADRP'
p161
sg25
S'0xffffffc0007b7604L'
p162
sg27
Nsba(ibclass
BInstr
p163
(dp164
g2
Nsg17
S'LDR             X0, [X0,#qword_FFFFFFC000E458A0@PAGEOFF]'
p165
sg19
S'005044f9'
p166
sg21
Vldr x0, [x0, #0x8a0]
p167
sg5
L18446743798839735816L
sg6
Nsg23
S'LDR'
p168
sg25
S'0xffffffc0007b7608L'
p169
sg27
Nsba(ibclass
BInstr
p170
(dp171
g2
Nsg17
S'LDR             W0, [X0]'
p172
sg19
S'000040b9'
p173
sg21
Vldr w0, [x0]
p174
sg5
L18446743798839735820L
sg6
Nsg23
S'LDR'
p175
sg25
S'0xffffffc0007b760cL'
p176
sg27
Nsba(ibclass
BInstr
p177
(dp178
g2
Nsg17
S'TBZ             W0, #0, loc_FFFFFFC0007B767C'
p179
sg19
S'60030036'
p180
sg21
Vtbz w0, #0, #0x6c
p181
sg5
L18446743798839735824L
sg6
Nsg23
S'TBZ'
p182
sg25
S'0xffffffc0007b7610L'
p183
sg27
Nsbasg63
(lp184
S'ADRP reg, #func@PAGE'
p185
aS'LDR reg, mem'
p186
aS'LDR reg, mem'
p187
aS'TBZ reg, #0, func'
p188
asg71
Nsg5
S'0xffffffc0007b7604L'
p189
sg73
(lp190
S'0xffffffc0007b75d8L'
p191
aS'0xffffffc0007b75f0L'
p192
asg6
Nsg75
(lp193
S'0xffffffc0007b7614L'
p194
aS'0xffffffc0007b767cL'
p195
asg79
Nsg80
Nsg81
S'2de94c9e326481f2f467f11acce8dcc9'
p196
sg83
S'f9f7225e2bae36aff04e5d93bafe5e1d'
p197
sg85
(lp198
g161
ag168
ag175
ag182
asg87
Nsba(ibclass
BBasicBlock
p199
(dp200
g12
Nsg13
(lp201
(ibclass
BInstr
p202
(dp203
g2
Nsg17
S'ADRP            X0, #qword_FFFFFFC000E43D48@PAGE'
p204
sg19
S'60340090'
p205
sg21
Vadrp x0, #0x68c000
p206
sg5
L18446743798839735828L
sg6
Nsg23
S'ADRP'
p207
sg25
S'0xffffffc0007b7614L'
p208
sg27
Nsba(ibclass
BInstr
p209
(dp210
g2
Nsg17
S'LDR             X0, [X0,#qword_FFFFFFC000E43D48@PAGEOFF]'
p211
sg19
S'00a446f9'
p212
sg21
Vldr x0, [x0, #0xd48]
p213
sg5
L18446743798839735832L
sg6
Nsg23
S'LDR'
p214
sg25
S'0xffffffc0007b7618L'
p215
sg27
Nsba(ibclass
BInstr
p216
(dp217
g2
Nsg17
S'LDR             W0, [X0]'
p218
sg19
S'000040b9'
p219
sg21
Vldr w0, [x0]
p220
sg5
L18446743798839735836L
sg6
Nsg23
S'LDR'
p221
sg25
S'0xffffffc0007b761cL'
p222
sg27
Nsba(ibclass
BInstr
p223
(dp224
g2
Nsg17
S'CBNZ            W0, loc_FFFFFFC0007B767C'
p225
sg19
S'e0020035'
p226
sg21
Vcbnz w0, #0x5c
p227
sg5
L18446743798839735840L
sg6
Nsg23
S'CBNZ'
p228
sg25
S'0xffffffc0007b7620L'
p229
sg27
Nsbasg63
(lp230
S'ADRP reg, #func@PAGE'
p231
aS'LDR reg, mem'
p232
aS'LDR reg, mem'
p233
aS'CBNZ reg, func'
p234
asg71
Nsg5
S'0xffffffc0007b7614L'
p235
sg73
(lp236
S'0xffffffc0007b7604L'
p237
asg6
Nsg75
(lp238
S'0xffffffc0007b7624L'
p239
aS'0xffffffc0007b767cL'
p240
asg79
Nsg80
Nsg81
S'9c97521b8b0f280d47a50ec9a5e4f86f'
p241
sg83
S'bd26f8893557dc5fa132ff2490be0ebf'
p242
sg85
(lp243
g207
ag214
ag221
ag228
asg87
Nsba(ibclass
BBasicBlock
p244
(dp245
g12
Nsg13
(lp246
(ibclass
BInstr
p247
(dp248
g2
Nsg17
S'ADRP            X0, #unk_FFFFFFC0013BF096@PAGE'
p249
sg19
S'40600090'
p250
sg21
Vadrp x0, #0xc08000
p251
sg5
L18446743798839735844L
sg6
Nsg23
S'ADRP'
p252
sg25
S'0xffffffc0007b7624L'
p253
sg27
Nsba(ibclass
BInstr
p254
(dp255
g2
Nsg17
S'ADRP            X1, #(aQcomMdssDsi_17+0x1B)@PAGE; "err"'
p256
sg19
S'c15b0090'
p257
sg21
Vadrp x1, #0xb78000
p258
sg5
L18446743798839735848L
sg6
Nsg23
S'ADRP'
p259
sg25
S'0xffffffc0007b7628L'
p260
sg27
Nsba(ibclass
BInstr
p261
(dp262
g2
Nsg17
S'ADD             X1, X1, #(aQcomMdssDsi_17+0x1B)@PAGEOFF; "err"'
p263
sg19
S'21800091'
p264
sg21
Vadd x1, x1, #0x20
p265
sg5
L18446743798839735852L
sg6
Nsg23
S'ADD'
p266
sg25
S'0xffffffc0007b762cL'
p267
sg27
Nsba(ibclass
BInstr
p268
(dp269
g2
Nsg17
S'ADD             X0, X0, #unk_FFFFFFC0013BF096@PAGEOFF'
p270
sg19
S'00580291'
p271
sg21
Vadd x0, x0, #0x96
p272
sg5
L18446743798839735856L
sg6
Nsg23
S'ADD'
p273
sg25
S'0xffffffc0007b7630L'
p274
sg27
Nsba(ibclass
BInstr
p275
(dp276
g2
Nsg17
S'BL              printk'
p277
sg19
S'0ddd1994'
p278
sg21
Vbl #0x677434
p279
sg5
L18446743798839735860L
sg6
Nsg23
S'BL'
p280
sg25
S'0xffffffc0007b7634L'
p281
sg27
Nsba(ibclass
BInstr
p282
(dp283
g2
Nsg17
S'B               loc_FFFFFFC0007B767C'
p284
sg19
S'11000014'
p285
sg21
Vb #0x44
p286
sg5
L18446743798839735864L
sg6
Nsg23
g139
sg25
S'0xffffffc0007b7638L'
p287
sg27
Nsbasg63
(lp288
S'ADRP reg, #func@PAGE'
p289
aS'ADRP reg, #(aQcomMdssDsi_17+0x1B)@PAGE'
p290
aS'ADD reg, reg, #(aQcomMdssDsi_17+0x1B)@PAGEOFF'
p291
aS'ADD reg, reg, #func@PAGEOFF'
p292
aS'BL printk'
p293
aS'B func'
p294
asg71
Nsg5
S'0xffffffc0007b7624L'
p295
sg73
(lp296
S'0xffffffc0007b7614L'
p297
asg6
Nsg75
(lp298
S'0xffffffc0007b767cL'
p299
asg79
Nsg80
Nsg81
S'b2a3927201f2643e37e238d870ced3c2'
p300
sg83
S'3e167cdac8f124cfbacea29ee5c30eb0'
p301
sg85
(lp302
g252
ag259
ag266
ag273
ag280
ag139
asg87
Nsba(ibclass
BBasicBlock
p303
(dp304
g12
Nsg13
(lp305
(ibclass
BInstr
p306
(dp307
g2
Nsg17
S'LDR             X0, [X20,#0x48]'
p308
sg19
S'802640f9'
p309
sg21
Vldr x0, [x20, #0x48]
p310
sg5
L18446743798839735868L
sg6
Nsg23
S'LDR'
p311
sg25
S'0xffffffc0007b763cL'
p312
sg27
Nsba(ibclass
BInstr
p313
(dp314
g2
Nsg17
S'SMADDL          X0, W19, W21, X0'
p315
sg19
S'6002359b'
p316
sg21
Vsmaddl x0, w19, w21, x0
p317
sg5
L18446743798839735872L
sg6
Nsg23
S'SMADDL'
p318
sg25
S'0xffffffc0007b7640L'
p319
sg27
Nsba(ibclass
BInstr
p320
(dp321
g2
Nsg17
S'LDR             X1, [X0,#0x88]'
p322
sg19
S'014440f9'
p323
sg21
Vldr x1, [x0, #0x88]
p324
sg5
L18446743798839735876L
sg6
Nsg23
S'LDR'
p325
sg25
S'0xffffffc0007b7644L'
p326
sg27
Nsba(ibclass
BInstr
p327
(dp328
g2
Nsg17
S'LDR             W0, [X0,#0x90]'
p329
sg19
S'009040b9'
p330
sg21
Vldr w0, [x0, #0x90]
p331
sg5
L18446743798839735880L
sg6
Nsg23
S'LDR'
p332
sg25
S'0xffffffc0007b7648L'
p333
sg27
Nsba(ibclass
BInstr
p334
(dp335
g2
Nsg17
S'STR             X1, [X29,#arg_20]'
p336
sg19
S'a11b00f9'
p337
sg21
Vstr x1, [x29, #0x30]
p338
sg5
L18446743798839735884L
sg6
Nsg23
S'STR'
p339
sg25
S'0xffffffc0007b764cL'
p340
sg27
Nsba(ibclass
BInstr
p341
(dp342
g2
Nsg17
S'BL              msm_get_iommu_domain'
p343
sg19
S'c3810f94'
p344
sg21
Vbl #0x3e070c
p345
sg5
L18446743798839735888L
sg6
Nsg23
S'BL'
p346
sg25
S'0xffffffc0007b7650L'
p347
sg27
Nsba(ibclass
BInstr
p348
(dp349
g2
Nsg17
S'LDR             X1, [X29,#arg_20]'
p350
sg19
S'a11b40f9'
p351
sg21
Vldr x1, [x29, #0x30]
p352
sg5
L18446743798839735892L
sg6
Nsg23
S'LDR'
p353
sg25
S'0xffffffc0007b7654L'
p354
sg27
Nsba(ibclass
BInstr
p355
(dp356
g2
Nsg17
S'CBNZ            X0, loc_FFFFFFC0007B7670'
p357
sg19
S'c00000b5'
p358
sg21
Vcbnz x0, #0x18
p359
sg5
L18446743798839735896L
sg6
Nsg23
S'CBNZ'
p360
sg25
S'0xffffffc0007b7658L'
p361
sg27
Nsbasg63
(lp362
S'LDR reg, mem'
p363
aS'SMADDL reg, reg9, reg1, reg'
p364
aS'LDR reg, mem'
p365
aS'LDR reg, mem'
p366
aS'STR reg, mem'
p367
aS'BL msm_get_iommu_domain'
p368
aS'LDR reg, mem'
p369
aS'CBNZ reg, func'
p370
asg71
Nsg5
S'0xffffffc0007b763cL'
p371
sg73
(lp372
S'0xffffffc0007b7660L'
p373
asg6
Nsg75
(lp374
S'0xffffffc0007b765cL'
p375
aS'0xffffffc0007b7670L'
p376
asg79
Nsg80
Nsg81
S'2c145b41efa0baad2b43a65cd033c782'
p377
sg83
S'd928ae9d2b1d42637d01e460e5824a84'
p378
sg85
(lp379
g311
ag318
ag325
ag332
ag339
ag346
ag353
ag360
asg87
Nsba(ibclass
BBasicBlock
p380
(dp381
g12
Nsg13
(lp382
(ibclass
BInstr
p383
(dp384
g2
Nsg17
S'ADD             W19, W19, #1'
p385
sg19
S'73060011'
p386
sg21
Vadd w19, w19, #1
p387
sg5
L18446743798839735900L
sg6
Nsg23
S'ADD'
p388
sg25
S'0xffffffc0007b765cL'
p389
sg27
Nsbasg63
(lp390
S'ADD reg9, reg9, #1'
p391
asg71
Nsg5
S'0xffffffc0007b765cL'
p392
sg73
(lp393
S'0xffffffc0007b763cL'
p394
aS'0xffffffc0007b7670L'
p395
aS'0xffffffc0007b7674L'
p396
asg6
Nsg75
(lp397
S'0xffffffc0007b7660L'
p398
asg79
Nsg80
Nsg81
S'9eeb52badb613229884838847294b90d'
p399
sg83
S'f1df75fedebc328ba884e40b8b549da2'
p400
sg85
(lp401
g388
asg87
Nsba(ibclass
BBasicBlock
p402
(dp403
g12
Nsg13
(lp404
(ibclass
BInstr
p405
(dp406
g2
Nsg17
S'LDR             W0, [X20,#0x50]'
p407
sg19
S'805240b9'
p408
sg21
Vldr w0, [x20, #0x50]
p409
sg5
L18446743798839735904L
sg6
Nsg23
S'LDR'
p410
sg25
S'0xffffffc0007b7660L'
p411
sg27
Nsba(ibclass
BInstr
p412
(dp413
g2
Nsg17
S'CMP             W19, W0'
p414
sg19
S'7f02006b'
p415
sg21
Vcmp w19, w0
p416
sg5
L18446743798839735908L
sg6
Nsg23
S'CMP'
p417
sg25
S'0xffffffc0007b7664L'
p418
sg27
Nsba(ibclass
BInstr
p419
(dp420
g2
Nsg17
S'B.CC            loc_FFFFFFC0007B763C'
p421
sg19
S'a3feff54'
p422
sg21
Vb.lo #0xffffffffffffffd4
p423
sg5
L18446743798839735912L
sg6
Nsg23
g139
sg25
S'0xffffffc0007b7668L'
p424
sg27
Nsbasg63
(lp425
S'LDR reg, mem'
p426
aS'CMP reg9, reg'
p427
aS'B.CC func'
p428
asg71
Nsg5
S'0xffffffc0007b7660L'
p429
sg73
(lp430
S'0xffffffc0007b75f8L'
p431
aS'0xffffffc0007b765cL'
p432
asg6
Nsg75
(lp433
S'0xffffffc0007b763cL'
p434
aS'0xffffffc0007b766cL'
p435
asg79
Nsg80
Nsg81
S'fa4df767a85c49648339e2dc5c6807f6'
p436
sg83
S'35e95cea6bd9b7d1b38172841baa5ba6'
p437
sg85
(lp438
g410
ag417
ag139
asg87
Nsba(ibclass
BBasicBlock
p439
(dp440
g12
Nsg13
(lp441
(ibclass
BInstr
p442
(dp443
g2
Nsg17
S'B               loc_FFFFFFC0007B767C'
p444
sg19
S'04000014'
p445
sg21
Vb #0x10
p446
sg5
L18446743798839735916L
sg6
Nsg23
g139
sg25
S'0xffffffc0007b766cL'
p447
sg27
Nsbasg63
(lp448
S'B func'
p449
asg71
Nsg5
S'0xffffffc0007b766cL'
p450
sg73
(lp451
S'0xffffffc0007b7660L'
p452
asg6
Nsg75
(lp453
S'0xffffffc0007b767cL'
p454
asg79
Nsg80
Nsg81
S'9d5ed678fe57bcca610140957afab571'
p455
sg83
S'071b057c420e304c628380fd3541c021'
p456
sg85
(lp457
g139
asg87
Nsba(ibclass
BBasicBlock
p458
(dp459
g12
Nsg13
(lp460
(ibclass
BInstr
p461
(dp462
g2
Nsg17
S'CBZ             X1, loc_FFFFFFC0007B765C'
p463
sg19
S'61ffffb4'
p464
sg21
Vcbz x1, #0xffffffffffffffec
p465
sg5
L18446743798839735920L
sg6
Nsg23
S'CBZ'
p466
sg25
S'0xffffffc0007b7670L'
p467
sg27
Nsbasg63
(lp468
S'CBZ reg, func'
p469
asg71
Nsg5
S'0xffffffc0007b7670L'
p470
sg73
(lp471
S'0xffffffc0007b763cL'
p472
asg6
Nsg75
(lp473
S'0xffffffc0007b765cL'
p474
aS'0xffffffc0007b7674L'
p475
asg79
Nsg80
Nsg81
S'de8e361453cf9f764a4abe9d486f8fbe'
p476
sg83
S'1f44e7b7d6ea8c93b4632bf8395c86c6'
p477
sg85
(lp478
g466
asg87
Nsba(ibclass
BBasicBlock
p479
(dp480
g12
Nsg13
(lp481
(ibclass
BInstr
p482
(dp483
g2
Nsg17
S'BL              iommu_detach_group'
p484
sg19
S'777e0f94'
p485
sg21
Vbl #0x3df9dc
p486
sg5
L18446743798839735924L
sg6
Nsg23
S'BL'
p487
sg25
S'0xffffffc0007b7674L'
p488
sg27
Nsba(ibclass
BInstr
p489
(dp490
g2
Nsg17
S'B               loc_FFFFFFC0007B765C'
p491
sg19
S'f9ffff17'
p492
sg21
Vb #0xffffffffffffffe4
p493
sg5
L18446743798839735928L
sg6
Nsg23
g139
sg25
S'0xffffffc0007b7678L'
p494
sg27
Nsbasg63
(lp495
S'BL iommu_detach_group'
p496
aS'B func'
p497
asg71
Nsg5
S'0xffffffc0007b7674L'
p498
sg73
(lp499
S'0xffffffc0007b7670L'
p500
asg6
Nsg75
(lp501
S'0xffffffc0007b765cL'
p502
asg79
Nsg80
Nsg81
S'be97a5cc528a44f4f1daeedd1e2f20e2'
p503
sg83
S'd0c30f79797e76f888f2728cbc44c4d6'
p504
sg85
(lp505
g487
ag139
asg87
Nsba(ibclass
BBasicBlock
p506
(dp507
g12
Nsg13
(lp508
(ibclass
BInstr
p509
(dp510
g2
Nsg17
S'LDP             X19, X20, [SP,#0x30+var_20]'
p511
sg19
S'f35341a9'
p512
sg21
Vldp x19, x20, [sp, #0x10]
p513
sg5
L18446743798839735932L
sg6
Nsg23
S'LDP'
p514
sg25
S'0xffffffc0007b767cL'
p515
sg27
Nsba(ibclass
BInstr
p516
(dp517
g2
Nsg17
S'LDR             X21, [SP,#0x30+var_10]'
p518
sg19
S'f51340f9'
p519
sg21
Vldr x21, [sp, #0x20]
p520
sg5
L18446743798839735936L
sg6
Nsg23
S'LDR'
p521
sg25
S'0xffffffc0007b7680L'
p522
sg27
Nsba(ibclass
BInstr
p523
(dp524
g2
Nsg17
S'LDP             X29, X30, [SP+0x30+var_30],#0x40'
p525
sg19
S'fd7bc4a8'
p526
sg21
Vldp x29, x30, [sp], #0x40
p527
sg5
L18446743798839735940L
sg6
Nsg23
S'LDP'
p528
sg25
S'0xffffffc0007b7684L'
p529
sg27
Nsba(ibclass
BInstr
p530
(dp531
g2
Nsg17
S'RET'
p532
sg19
S'c0035fd6'
p533
sg21
Vret 
p534
sg5
L18446743798839735944L
sg6
Nsg23
S'RET'
p535
sg25
S'0xffffffc0007b7688L'
p536
sg27
Nsbasg63
(lp537
S'LDP reg9, reg0, mem'
p538
aS'LDR reg1, mem'
p539
aS'LDP reg9, reg0, mem,#0x40'
p540
ag532
asg71
Nsg5
S'0xffffffc0007b767cL'
p541
sg73
(lp542
S'0xffffffc0007b7604L'
p543
aS'0xffffffc0007b7614L'
p544
aS'0xffffffc0007b7624L'
p545
aS'0xffffffc0007b766cL'
p546
asg6
Nsg75
(lp547
sg79
Nsg80
Nsg81
S'b128167488f61fa9efc4b75f88cc16c9'
p548
sg83
S'7f6a0911baff82d816961441d8301e3b'
p549
sg85
(lp550
g514
ag521
ag528
ag535
asg87
Nsbasb.