(ibclass
BFunc
p0
(dp1
S'hash'
p2
NsS'name'
p3
S'venus_hfi_load_fw'
p4
sS'start_address'
p5
L18446743798839736240L
sS'flag'
p6
NsS'program'
p7
NsS'bbs'
p8
(lp9
(ibclass
BBasicBlock
p10
(dp11
S'function'
p12
NsS'binstrs'
p13
(lp14
(ibclass
BInstr
p15
(dp16
g2
NsS'disasm'
p17
S'STP             X29, X30, [SP,#-0x10+var_50]!'
p18
sS'bytes'
p19
S'fd7bbaa9'
p20
sS'disasm_striped'
p21
Vstp x29, x30, [sp, #-0x60]!
p22
sg5
L18446743798839736240L
sg6
NsS'mnem'
p23
S'STP'
p24
sS'address'
p25
S'0xffffffc0007b77b0L'
p26
sS'basicblock'
p27
Nsba(ibclass
BInstr
p28
(dp29
g2
Nsg17
S'MOV             X29, SP'
p30
sg19
S'fd030091'
p31
sg21
Vmov x29, sp
p32
sg5
L18446743798839736244L
sg6
Nsg23
S'MOV'
p33
sg25
S'0xffffffc0007b77b4L'
p34
sg27
Nsba(ibclass
BInstr
p35
(dp36
g2
Nsg17
S'STP             X19, X20, [SP,#0x50+var_40]'
p37
sg19
S'f35301a9'
p38
sg21
Vstp x19, x20, [sp, #0x10]
p39
sg5
L18446743798839736248L
sg6
Nsg23
S'STP'
p40
sg25
S'0xffffffc0007b77b8L'
p41
sg27
Nsba(ibclass
BInstr
p42
(dp43
g2
Nsg17
S'STP             X21, X22, [SP,#0x50+var_30]'
p44
sg19
S'f55b02a9'
p45
sg21
Vstp x21, x22, [sp, #0x20]
p46
sg5
L18446743798839736252L
sg6
Nsg23
S'STP'
p47
sg25
S'0xffffffc0007b77bcL'
p48
sg27
Nsba(ibclass
BInstr
p49
(dp50
g2
Nsg17
S'STP             X23, X24, [SP,#0x50+var_20]'
p51
sg19
S'f76303a9'
p52
sg21
Vstp x23, x24, [sp, #0x30]
p53
sg5
L18446743798839736256L
sg6
Nsg23
S'STP'
p54
sg25
S'0xffffffc0007b77c0L'
p55
sg27
Nsba(ibclass
BInstr
p56
(dp57
g2
Nsg17
S'STP             X25, X26, [SP,#0x50+var_10]'
p58
sg19
S'f96b04a9'
p59
sg21
Vstp x25, x26, [sp, #0x40]
p60
sg5
L18446743798839736260L
sg6
Nsg23
S'STP'
p61
sg25
S'0xffffffc0007b77c4L'
p62
sg27
Nsba(ibclass
BInstr
p63
(dp64
g2
Nsg17
S'STP             X27, X28, [SP,#0x50+var_s0]'
p65
sg19
S'fb7305a9'
p66
sg21
Vstp x27, x28, [sp, #0x50]
p67
sg5
L18446743798839736264L
sg6
Nsg23
S'STP'
p68
sg25
S'0xffffffc0007b77c8L'
p69
sg27
Nsba(ibclass
BInstr
p70
(dp71
g2
Nsg17
S'MOV             X19, X0'
p72
sg19
S'f30300aa'
p73
sg21
Vmov x19, x0
p74
sg5
L18446743798839736268L
sg6
Nsg23
S'MOV'
p75
sg25
S'0xffffffc0007b77ccL'
p76
sg27
Nsba(ibclass
BInstr
p77
(dp78
g2
Nsg17
S'CBNZ            X0, loc_FFFFFFC0007B7820'
p79
sg19
S'800200b5'
p80
sg21
Vcbnz x0, #0x50
p81
sg5
L18446743798839736272L
sg6
Nsg23
S'CBNZ'
p82
sg25
S'0xffffffc0007b77d0L'
p83
sg27
NsbasS'disasm_list'
p84
(lp85
S'STP reg9, reg0, mem!'
p86
aS'MOV reg9, SP'
p87
aS'STP reg9, reg0, mem'
p88
aS'STP reg1, reg2, mem'
p89
aS'STP reg3, reg4, mem'
p90
aS'STP reg5, reg6, mem'
p91
aS'STP reg7, reg8, mem'
p92
aS'MOV reg9, reg'
p93
aS'CBNZ reg, func'
p94
asS'end_address'
p95
Nsg5
S'0xffffffc0007b77b0L'
p96
sS'preds'
p97
(lp98
sg6
NsS'succs'
p99
(lp100
S'0xffffffc0007b77d4L'
p101
aS'0xffffffc0007b7820L'
p102
asS'hash_v3'
p103
NsS'flag_v2'
p104
NsS'hash_v1'
p105
S'1efdf6b8cac55575c2fd0c56e0293609'
p106
sS'hash_v2'
p107
S'89d4cfe2998347bbbc25ad461c3b97bd'
p108
sS'mnen_list'
p109
(lp110
g24
ag33
ag40
ag47
ag54
ag61
ag68
ag75
ag82
asS'neighbour_disasm_list'
p111
Nsba(ibclass
BBasicBlock
p112
(dp113
g12
Nsg13
(lp114
(ibclass
BInstr
p115
(dp116
g2
Nsg17
S'ADRP            X0, #qword_FFFFFFC000E458A0@PAGE'
p117
sg19
S'603400d0'
p118
sg21
Vadrp x0, #0x68e000
p119
sg5
L18446743798839736276L
sg6
Nsg23
S'ADRP'
p120
sg25
S'0xffffffc0007b77d4L'
p121
sg27
Nsba(ibclass
BInstr
p122
(dp123
g2
Nsg17
S'LDR             X0, [X0,#qword_FFFFFFC000E458A0@PAGEOFF]'
p124
sg19
S'005044f9'
p125
sg21
Vldr x0, [x0, #0x8a0]
p126
sg5
L18446743798839736280L
sg6
Nsg23
S'LDR'
p127
sg25
S'0xffffffc0007b77d8L'
p128
sg27
Nsba(ibclass
BInstr
p129
(dp130
g2
Nsg17
S'LDR             W0, [X0]'
p131
sg19
S'000040b9'
p132
sg21
Vldr w0, [x0]
p133
sg5
L18446743798839736284L
sg6
Nsg23
S'LDR'
p134
sg25
S'0xffffffc0007b77dcL'
p135
sg27
Nsba(ibclass
BInstr
p136
(dp137
g2
Nsg17
S'TBZ             W0, #0, loc_FFFFFFC0007B7DBC'
p138
sg19
S'e02e0036'
p139
sg21
Vtbz w0, #0, #0x5dc
p140
sg5
L18446743798839736288L
sg6
Nsg23
S'TBZ'
p141
sg25
S'0xffffffc0007b77e0L'
p142
sg27
Nsbasg84
(lp143
S'ADRP reg, #func@PAGE'
p144
aS'LDR reg, mem'
p145
aS'LDR reg, mem'
p146
aS'TBZ reg, #0, func'
p147
asg95
Nsg5
S'0xffffffc0007b77d4L'
p148
sg97
(lp149
S'0xffffffc0007b77b0L'
p150
asg6
Nsg99
(lp151
S'0xffffffc0007b77e4L'
p152
aS'0xffffffc0007b7dbcL'
p153
asg103
Nsg104
Nsg105
S'2de94c9e326481f2f467f11acce8dcc9'
p154
sg107
S'f9f7225e2bae36aff04e5d93bafe5e1d'
p155
sg109
(lp156
g120
ag127
ag134
ag141
asg111
Nsba(ibclass
BBasicBlock
p157
(dp158
g12
Nsg13
(lp159
(ibclass
BInstr
p160
(dp161
g2
Nsg17
S'ADRP            X0, #qword_FFFFFFC000E43D48@PAGE'
p162
sg19
S'60340090'
p163
sg21
Vadrp x0, #0x68c000
p164
sg5
L18446743798839736292L
sg6
Nsg23
S'ADRP'
p165
sg25
S'0xffffffc0007b77e4L'
p166
sg27
Nsba(ibclass
BInstr
p167
(dp168
g2
Nsg17
S'LDR             X0, [X0,#qword_FFFFFFC000E43D48@PAGEOFF]'
p169
sg19
S'00a446f9'
p170
sg21
Vldr x0, [x0, #0xd48]
p171
sg5
L18446743798839736296L
sg6
Nsg23
S'LDR'
p172
sg25
S'0xffffffc0007b77e8L'
p173
sg27
Nsba(ibclass
BInstr
p174
(dp175
g2
Nsg17
S'MOV             W20, #0xFFFFFFEA'
p176
sg19
S'b4028012'
p177
sg21
Vmovn w20, #0x15
p178
sg5
L18446743798839736300L
sg6
Nsg23
S'MOV'
p179
sg25
S'0xffffffc0007b77ecL'
p180
sg27
Nsba(ibclass
BInstr
p181
(dp182
g2
Nsg17
S'LDR             W0, [X0]'
p183
sg19
S'000040b9'
p184
sg21
Vldr w0, [x0]
p185
sg5
L18446743798839736304L
sg6
Nsg23
S'LDR'
p186
sg25
S'0xffffffc0007b77f0L'
p187
sg27
Nsba(ibclass
BInstr
p188
(dp189
g2
Nsg17
S'CBNZ            W0, loc_FFFFFFC0007B7F20'
p190
sg19
S'60390035'
p191
sg21
Vcbnz w0, #0x72c
p192
sg5
L18446743798839736308L
sg6
Nsg23
S'CBNZ'
p193
sg25
S'0xffffffc0007b77f4L'
p194
sg27
Nsbasg84
(lp195
S'ADRP reg, #func@PAGE'
p196
aS'LDR reg, mem'
p197
aS'MOV reg0, #0xFFFFFFEA'
p198
aS'LDR reg, mem'
p199
aS'CBNZ reg, func'
p200
asg95
Nsg5
S'0xffffffc0007b77e4L'
p201
sg97
(lp202
S'0xffffffc0007b77d4L'
p203
asg6
Nsg99
(lp204
S'0xffffffc0007b77f8L'
p205
aS'0xffffffc0007b7f20L'
p206
asg103
Nsg104
Nsg105
S'd80cc6d531f24a5b2d60307977d236c7'
p207
sg107
S'aeb30c42a5eaa4a016930da3733155ca'
p208
sg109
(lp209
g165
ag172
ag179
ag186
ag193
asg111
Nsba(ibclass
BBasicBlock
p210
(dp211
g12
Nsg13
(lp212
(ibclass
BInstr
p213
(dp214
g2
Nsg17
S'ADRP            X2, #__func__.33986@PAGE; "venus_hfi_suspend"'
p215
sg19
S'824400f0'
p216
sg21
Vadrp x2, #0x893000
p217
sg5
L18446743798839736312L
sg6
Nsg23
S'ADRP'
p218
sg25
S'0xffffffc0007b77f8L'
p219
sg27
Nsba(ibclass
BInstr
p220
(dp221
g2
Nsg17
S'ADRP            X0, #unk_FFFFFFC0013BF13E@PAGE'
p222
sg19
S'40600090'
p223
sg21
Vadrp x0, #0xc08000
p224
sg5
L18446743798839736316L
sg6
Nsg23
S'ADRP'
p225
sg25
S'0xffffffc0007b77fcL'
p226
sg27
Nsba(ibclass
BInstr
p227
(dp228
g2
Nsg17
S'ADRP            X1, #(aQcomMdssDsi_17+0x1B)@PAGE; "err"'
p229
sg19
S'c15b0090'
p230
sg21
Vadrp x1, #0xb78000
p231
sg5
L18446743798839736320L
sg6
Nsg23
S'ADRP'
p232
sg25
S'0xffffffc0007b7800L'
p233
sg27
Nsba(ibclass
BInstr
p234
(dp235
g2
Nsg17
S'ADD             X2, X2, #__func__.33986@PAGEOFF; "venus_hfi_suspend"'
p236
sg19
S'42201991'
p237
sg21
Vadd x2, x2, #0x648
p238
sg5
L18446743798839736324L
sg6
Nsg23
S'ADD'
p239
sg25
S'0xffffffc0007b7804L'
p240
sg27
Nsba(ibclass
BInstr
p241
(dp242
g2
Nsg17
S'ADD             X1, X1, #(aQcomMdssDsi_17+0x1B)@PAGEOFF; "err"'
p243
sg19
S'21800091'
p244
sg21
Vadd x1, x1, #0x20
p245
sg5
L18446743798839736328L
sg6
Nsg23
S'ADD'
p246
sg25
S'0xffffffc0007b7808L'
p247
sg27
Nsba(ibclass
BInstr
p248
(dp249
g2
Nsg17
S'ADD             X2, X2, #0x80'
p250
sg19
S'42000291'
p251
sg21
Vadd x2, x2, #0x80
p252
sg5
L18446743798839736332L
sg6
Nsg23
S'ADD'
p253
sg25
S'0xffffffc0007b780cL'
p254
sg27
Nsba(ibclass
BInstr
p255
(dp256
g2
Nsg17
S'MOV             X3, X19'
p257
sg19
S'e30313aa'
p258
sg21
Vmov x3, x19
p259
sg5
L18446743798839736336L
sg6
Nsg23
S'MOV'
p260
sg25
S'0xffffffc0007b7810L'
p261
sg27
Nsba(ibclass
BInstr
p262
(dp263
g2
Nsg17
S'ADD             X0, X0, #unk_FFFFFFC0013BF13E@PAGEOFF'
p264
sg19
S'00f80491'
p265
sg21
Vadd x0, x0, #0x13e
p266
sg5
L18446743798839736340L
sg6
Nsg23
S'ADD'
p267
sg25
S'0xffffffc0007b7814L'
p268
sg27
Nsba(ibclass
BInstr
p269
(dp270
g2
Nsg17
S'BL              printk'
p271
sg19
S'94dc1994'
p272
sg21
Vbl #0x677250
p273
sg5
L18446743798839736344L
sg6
Nsg23
S'BL'
p274
sg25
S'0xffffffc0007b7818L'
p275
sg27
Nsba(ibclass
BInstr
p276
(dp277
g2
Nsg17
S'B               loc_FFFFFFC0007B7F20'
p278
sg19
S'c1010014'
p279
sg21
Vb #0x704
p280
sg5
L18446743798839736348L
sg6
Nsg23
S'B'
p281
sg25
S'0xffffffc0007b781cL'
p282
sg27
Nsbasg84
(lp283
S'ADRP reg, #__func__.33986@PAGE'
p284
aS'ADRP reg, #func@PAGE'
p285
aS'ADRP reg, #(aQcomMdssDsi_17+0x1B)@PAGE'
p286
aS'ADD reg, reg, #__func__.33986@PAGEOFF'
p287
aS'ADD reg, reg, #(aQcomMdssDsi_17+0x1B)@PAGEOFF'
p288
aS'ADD reg, reg, #0x80'
p289
aS'MOV reg, reg9'
p290
aS'ADD reg, reg, #func@PAGEOFF'
p291
aS'BL printk'
p292
aS'B func'
p293
asg95
Nsg5
S'0xffffffc0007b77f8L'
p294
sg97
(lp295
S'0xffffffc0007b77e4L'
p296
asg6
Nsg99
(lp297
S'0xffffffc0007b7f20L'
p298
asg103
Nsg104
Nsg105
S'7e3e61d7f8547903d75fbbc718c41713'
p299
sg107
S'f4ce9f717718ad006f8bcfe87a7711f0'
p300
sg109
(lp301
g218
ag225
ag232
ag239
ag246
ag253
ag260
ag267
ag274
ag281
asg111
Nsba(ibclass
BBasicBlock
p302
(dp303
g12
Nsg13
(lp304
(ibclass
BInstr
p305
(dp306
g2
Nsg17
S'ADRP            X0, #qword_FFFFFFC000E46BA0@PAGE'
p307
sg19
S'603400f0'
p308
sg21
Vadrp x0, #0x68f000
p309
sg5
L18446743798839736352L
sg6
Nsg23
S'ADRP'
p310
sg25
S'0xffffffc0007b7820L'
p311
sg27
Nsba(ibclass
BInstr
p312
(dp313
g2
Nsg17
S'LDR             X1, [X0,#qword_FFFFFFC000E46BA0@PAGEOFF]'
p314
sg19
S'01d045f9'
p315
sg21
Vldr x1, [x0, #0xba0]
p316
sg5
L18446743798839736356L
sg6
Nsg23
S'LDR'
p317
sg25
S'0xffffffc0007b7824L'
p318
sg27
Nsba(ibclass
BInstr
p319
(dp320
g2
Nsg17
S'LDR             W2, [X1,#8]'
p321
sg19
S'220840b9'
p322
sg21
Vldr w2, [x1, #8]
p323
sg5
L18446743798839736360L
sg6
Nsg23
S'LDR'
p324
sg25
S'0xffffffc0007b7828L'
p325
sg27
Nsba(ibclass
BInstr
p326
(dp327
g2
Nsg17
S'MOV             X1, X0'
p328
sg19
S'e10300aa'
p329
sg21
Vmov x1, x0
p330
sg5
L18446743798839736364L
sg6
Nsg23
S'MOV'
p331
sg25
S'0xffffffc0007b782cL'
p332
sg27
Nsba(ibclass
BInstr
p333
(dp334
g2
Nsg17
S'CBZ             W2, loc_FFFFFFC0007B789C'
p335
sg19
S'62030034'
p336
sg21
Vcbz w2, #0x6c
p337
sg5
L18446743798839736368L
sg6
Nsg23
S'CBZ'
p338
sg25
S'0xffffffc0007b7830L'
p339
sg27
Nsbasg84
(lp340
S'ADRP reg, #func@PAGE'
p341
aS'LDR reg, mem'
p342
aS'LDR reg, mem'
p343
aS'MOV reg, reg'
p344
aS'CBZ reg, func'
p345
asg95
Nsg5
S'0xffffffc0007b7820L'
p346
sg97
(lp347
S'0xffffffc0007b77b0L'
p348
asg6
Nsg99
(lp349
S'0xffffffc0007b7834L'
p350
aS'0xffffffc0007b789cL'
p351
asg103
Nsg104
Nsg105
S'035a29e270946bb0185210eaaed17497'
p352
sg107
S'a9e53a08de38a44669999560b88ca80e'
p353
sg109
(lp354
g310
ag317
ag324
ag331
ag338
asg111
Nsba(ibclass
BBasicBlock
p355
(dp356
g12
Nsg13
(lp357
(ibclass
BInstr
p358
(dp359
g2
Nsg17
S'MOV             X2, SP'
p360
sg19
S'e2030091'
p361
sg21
Vmov x2, sp
p362
sg5
L18446743798839736372L
sg6
Nsg23
S'MOV'
p363
sg25
S'0xffffffc0007b7834L'
p364
sg27
Nsba(ibclass
BInstr
p365
(dp366
g2
Nsg17
S'AND             X0, X2, #0xFFFFFFFFFFFFC000'
p367
sg19
S'40c47292'
p368
sg21
Vand x0, x2, #0xffffffffffffc000
p369
sg5
L18446743798839736376L
sg6
Nsg23
S'AND'
p370
sg25
S'0xffffffc0007b7838L'
p371
sg27
Nsba(ibclass
BInstr
p372
(dp373
g2
Nsg17
S'LDR             W2, [X0,#0x50]'
p374
sg19
S'025040b9'
p375
sg21
Vldr w2, [x0, #0x50]
p376
sg5
L18446743798839736380L
sg6
Nsg23
S'LDR'
p377
sg25
S'0xffffffc0007b783cL'
p378
sg27
Nsba(ibclass
BInstr
p379
(dp380
g2
Nsg17
S'ADD             W2, W2, #1'
p381
sg19
S'42040011'
p382
sg21
Vadd w2, w2, #1
p383
sg5
L18446743798839736384L
sg6
Nsg23
S'ADD'
p384
sg25
S'0xffffffc0007b7840L'
p385
sg27
Nsba(ibclass
BInstr
p386
(dp387
g2
Nsg17
S'STR             W2, [X0,#0x50]'
p388
sg19
S'025000b9'
p389
sg21
Vstr w2, [x0, #0x50]
p390
sg5
L18446743798839736388L
sg6
Nsg23
S'STR'
p391
sg25
S'0xffffffc0007b7844L'
p392
sg27
Nsba(ibclass
BInstr
p393
(dp394
g2
Nsg17
S'LDR             X0, [X1,#(qword_FFFFFFC000E46BA0 - 0xFFFFFFC000E46000)]'
p395
sg19
S'20d045f9'
p396
sg21
Vldr x0, [x1, #0xba0]
p397
sg5
L18446743798839736392L
sg6
Nsg23
S'LDR'
p398
sg25
S'0xffffffc0007b7848L'
p399
sg27
Nsba(ibclass
BInstr
p400
(dp401
g2
Nsg17
S'LDR             X20, [X0,#0x20]'
p402
sg19
S'141040f9'
p403
sg21
Vldr x20, [x0, #0x20]
p404
sg5
L18446743798839736396L
sg6
Nsg23
S'LDR'
p405
sg25
S'0xffffffc0007b784cL'
p406
sg27
Nsba(ibclass
BInstr
p407
(dp408
g2
Nsg17
S'MOV             X0, SP'
p409
sg19
S'e0030091'
p410
sg21
Vmov x0, sp
p411
sg5
L18446743798839736400L
sg6
Nsg23
S'MOV'
p412
sg25
S'0xffffffc0007b7850L'
p413
sg27
Nsba(ibclass
BInstr
p414
(dp415
g2
Nsg17
S'AND             X21, X0, #0xFFFFFFFFFFFFC000'
p416
sg19
S'15c47292'
p417
sg21
Vand x21, x0, #0xffffffffffffc000
p418
sg5
L18446743798839736404L
sg6
Nsg23
S'AND'
p419
sg25
S'0xffffffc0007b7854L'
p420
sg27
Nsba(ibclass
BInstr
p421
(dp422
g2
Nsg17
S'CBZ             X20, loc_FFFFFFC0007B787C'
p423
sg19
S'340100b4'
p424
sg21
Vcbz x20, #0x24
p425
sg5
L18446743798839736408L
sg6
Nsg23
S'CBZ'
p426
sg25
S'0xffffffc0007b7858L'
p427
sg27
Nsbasg84
(lp428
S'MOV reg, SP'
p429
aS'AND reg, reg, #0xFFFFFFFFFFFFC000'
p430
aS'LDR reg, mem'
p431
aS'ADD reg, reg, #1'
p432
aS'STR reg, mem'
p433
aS'LDR reg, mem'
p434
aS'LDR reg0, mem'
p435
aS'MOV reg, SP'
p436
aS'AND reg1, reg, #0xFFFFFFFFFFFFC000'
p437
aS'CBZ reg0, func'
p438
asg95
Nsg5
S'0xffffffc0007b7834L'
p439
sg97
(lp440
S'0xffffffc0007b7820L'
p441
asg6
Nsg99
(lp442
S'0xffffffc0007b785cL'
p443
aS'0xffffffc0007b787cL'
p444
asg103
Nsg104
Nsg105
S'17565935db79b1349000da327327877e'
p445
sg107
S'c18316fb6292d41084bf481918743128'
p446
sg109
(lp447
g363
ag370
ag377
ag384
ag391
ag398
ag405
ag412
ag419
ag426
asg111
Nsba(ibclass
BBasicBlock
p448
(dp449
g12
Nsg13
(lp450
(ibclass
BInstr
p451
(dp452
g2
Nsg17
S'ADRP            X22, #aMsm_v4l2_vidcV@PAGE; "msm_v4l2_vidc venus_fw load start"'
p453
sg19
S'56600090'
p454
sg21
Vadrp x22, #0xc08000
p455
sg5
L18446743798839736412L
sg6
Nsg23
S'ADRP'
p456
sg25
S'0xffffffc0007b785cL'
p457
sg27
Nsba(ibclass
BInstr
p458
(dp459
g2
Nsg17
S'ADD             X22, X22, #aMsm_v4l2_vidcV@PAGEOFF; "msm_v4l2_vidc venus_fw load start"'
p460
sg19
S'd6a20591'
p461
sg21
Vadd x22, x22, #0x168
p462
sg5
L18446743798839736416L
sg6
Nsg23
S'ADD'
p463
sg25
S'0xffffffc0007b7860L'
p464
sg27
Nsbasg84
(lp465
S'ADRP reg2, #aMsm_v4l2_vidcV@PAGE'
p466
aS'ADD reg2, reg2, #aMsm_v4l2_vidcV@PAGEOFF'
p467
asg95
Nsg5
S'0xffffffc0007b785cL'
p468
sg97
(lp469
S'0xffffffc0007b7834L'
p470
asg6
Nsg99
(lp471
S'0xffffffc0007b7864L'
p472
asg103
Nsg104
Nsg105
S'4c330fd47d9d30794e360f434bcba16f'
p473
sg107
S'df00e324aca6194aa24c872a2dcc3291'
p474
sg109
(lp475
g456
ag463
asg111
Nsba(ibclass
BBasicBlock
p476
(dp477
g12
Nsg13
(lp478
(ibclass
BInstr
p479
(dp480
g2
Nsg17
S'LDR             X2, [X20]'
p481
sg19
S'820240f9'
p482
sg21
Vldr x2, [x20]
p483
sg5
L18446743798839736420L
sg6
Nsg23
S'LDR'
p484
sg25
S'0xffffffc0007b7864L'
p485
sg27
Nsba(ibclass
BInstr
p486
(dp487
g2
Nsg17
S'LDR             X0, [X20,#8]'
p488
sg19
S'800640f9'
p489
sg21
Vldr x0, [x20, #8]
p490
sg5
L18446743798839736424L
sg6
Nsg23
S'LDR'
p491
sg25
S'0xffffffc0007b7868L'
p492
sg27
Nsba(ibclass
BInstr
p493
(dp494
g2
Nsg17
S'MOV             X1, X22'
p495
sg19
S'e10316aa'
p496
sg21
Vmov x1, x22
p497
sg5
L18446743798839736428L
sg6
Nsg23
S'MOV'
p498
sg25
S'0xffffffc0007b786cL'
p499
sg27
Nsba(ibclass
BInstr
p500
(dp501
g2
Nsg17
S'BLR             X2'
p502
sg19
S'40003fd6'
p503
sg21
Vblr x2
p504
sg5
L18446743798839736432L
sg6
Nsg23
S'BLR'
p505
sg25
S'0xffffffc0007b7870L'
p506
sg27
Nsba(ibclass
BInstr
p507
(dp508
g2
Nsg17
S'LDR             X0, [X20,#0x10]!'
p509
sg19
S'800e41f8'
p510
sg21
Vldr x0, [x20, #0x10]!
p511
sg5
L18446743798839736436L
sg6
Nsg23
S'LDR'
p512
sg25
S'0xffffffc0007b7874L'
p513
sg27
Nsba(ibclass
BInstr
p514
(dp515
g2
Nsg17
S'CBNZ            X0, loc_FFFFFFC0007B7864'
p516
sg19
S'60ffffb5'
p517
sg21
Vcbnz x0, #0xffffffffffffffec
p518
sg5
L18446743798839736440L
sg6
Nsg23
S'CBNZ'
p519
sg25
S'0xffffffc0007b7878L'
p520
sg27
Nsbasg84
(lp521
S'LDR reg, mem'
p522
aS'LDR reg, mem'
p523
aS'MOV reg, reg2'
p524
aS'BLR reg'
p525
aS'LDR reg, mem!'
p526
aS'CBNZ reg, func'
p527
asg95
Nsg5
S'0xffffffc0007b7864L'
p528
sg97
(lp529
S'0xffffffc0007b785cL'
p530
aS'0xffffffc0007b7864L'
p531
asg6
Nsg99
(lp532
S'0xffffffc0007b787cL'
p533
aS'0xffffffc0007b7864L'
p534
asg103
Nsg104
Nsg105
S'6f4700400ea687c0354cc9bbd60667ec'
p535
sg107
S'4b584cdc2bc2ef44d019a07a8d8b0c90'
p536
sg109
(lp537
g484
ag491
ag498
ag505
ag512
ag519
asg111
Nsba(ibclass
BBasicBlock
p538
(dp539
g12
Nsg13
(lp540
(ibclass
BInstr
p541
(dp542
g2
Nsg17
S'LDR             W0, [X21,#0x50]'
p543
sg19
S'a05240b9'
p544
sg21
Vldr w0, [x21, #0x50]
p545
sg5
L18446743798839736444L
sg6
Nsg23
S'LDR'
p546
sg25
S'0xffffffc0007b787cL'
p547
sg27
Nsba(ibclass
BInstr
p548
(dp549
g2
Nsg17
S'SUB             W0, W0, #1'
p550
sg19
S'00040051'
p551
sg21
Vsub w0, w0, #1
p552
sg5
L18446743798839736448L
sg6
Nsg23
S'SUB'
p553
sg25
S'0xffffffc0007b7880L'
p554
sg27
Nsba(ibclass
BInstr
p555
(dp556
g2
Nsg17
S'STR             W0, [X21,#0x50]'
p557
sg19
S'a05200b9'
p558
sg21
Vstr w0, [x21, #0x50]
p559
sg5
L18446743798839736452L
sg6
Nsg23
S'STR'
p560
sg25
S'0xffffffc0007b7884L'
p561
sg27
Nsba(ibclass
BInstr
p562
(dp563
g2
Nsg17
S'MOV             X2, SP'
p564
sg19
S'e2030091'
p565
sg21
Vmov x2, sp
p566
sg5
L18446743798839736456L
sg6
Nsg23
S'MOV'
p567
sg25
S'0xffffffc0007b7888L'
p568
sg27
Nsba(ibclass
BInstr
p569
(dp570
g2
Nsg17
S'AND             X0, X2, #0xFFFFFFFFFFFFC000'
p571
sg19
S'40c47292'
p572
sg21
Vand x0, x2, #0xffffffffffffc000
p573
sg5
L18446743798839736460L
sg6
Nsg23
S'AND'
p574
sg25
S'0xffffffc0007b788cL'
p575
sg27
Nsba(ibclass
BInstr
p576
(dp577
g2
Nsg17
S'LDR             X0, [X0]'
p578
sg19
S'000040f9'
p579
sg21
Vldr x0, [x0]
p580
sg5
L18446743798839736464L
sg6
Nsg23
S'LDR'
p581
sg25
S'0xffffffc0007b7890L'
p582
sg27
Nsba(ibclass
BInstr
p583
(dp584
g2
Nsg17
S'TBZ             W0, #1, loc_FFFFFFC0007B789C'
p585
sg19
S'40000836'
p586
sg21
Vtbz w0, #1, #8
p587
sg5
L18446743798839736468L
sg6
Nsg23
S'TBZ'
p588
sg25
S'0xffffffc0007b7894L'
p589
sg27
Nsbasg84
(lp590
S'LDR reg, mem'
p591
aS'SUB reg, reg, #1'
p592
aS'STR reg, mem'
p593
aS'MOV reg, SP'
p594
aS'AND reg, reg, #0xFFFFFFFFFFFFC000'
p595
aS'LDR reg, mem'
p596
aS'TBZ reg, #1, func'
p597
asg95
Nsg5
S'0xffffffc0007b787cL'
p598
sg97
(lp599
S'0xffffffc0007b7834L'
p600
aS'0xffffffc0007b7864L'
p601
asg6
Nsg99
(lp602
S'0xffffffc0007b7898L'
p603
aS'0xffffffc0007b789cL'
p604
asg103
Nsg104
Nsg105
S'3720064751a364c91ffbeb0560410e63'
p605
sg107
S'37582c0faffe5543c0f071979b371e8c'
p606
sg109
(lp607
g546
ag553
ag560
ag567
ag574
ag581
ag588
asg111
Nsba(ibclass
BBasicBlock
p608
(dp609
g12
Nsg13
(lp610
(ibclass
BInstr
p611
(dp612
g2
Nsg17
S'BL              preempt_schedule'
p613
sg19
S'0c131a94'
p614
sg21
Vbl #0x684c30
p615
sg5
L18446743798839736472L
sg6
Nsg23
S'BL'
p616
sg25
S'0xffffffc0007b7898L'
p617
sg27
Nsbasg84
(lp618
S'BL preempt_schedule'
p619
asg95
Nsg5
S'0xffffffc0007b7898L'
p620
sg97
(lp621
S'0xffffffc0007b787cL'
p622
asg6
Nsg99
(lp623
S'0xffffffc0007b789cL'
p624
asg103
Nsg104
Nsg105
S'a6f5350f5a2b25a96d66757f761ce65c'
p625
sg107
S'abf5f2d6f93e306e960abf1c303135c2'
p626
sg109
(lp627
g616
asg111
Nsba(ibclass
BBasicBlock
p628
(dp629
g12
Nsg13
(lp630
(ibclass
BInstr
p631
(dp632
g2
Nsg17
S'LDR             X1, [X19,#0x38]'
p633
sg19
S'611e40f9'
p634
sg21
Vldr x1, [x19, #0x38]
p635
sg5
L18446743798839736476L
sg6
Nsg23
S'LDR'
p636
sg25
S'0xffffffc0007b789cL'
p637
sg27
Nsba(ibclass
BInstr
p638
(dp639
g2
Nsg17
S'LDR             W2, [X19,#0x40]'
p640
sg19
S'624240b9'
p641
sg21
Vldr w2, [x19, #0x40]
p642
sg5
L18446743798839736480L
sg6
Nsg23
S'LDR'
p643
sg25
S'0xffffffc0007b78a0L'
p644
sg27
Nsba(ibclass
BInstr
p645
(dp646
g2
Nsg17
S'MOV             X0, X19'
p647
sg19
S'e00313aa'
p648
sg21
Vmov x0, x19
p649
sg5
L18446743798839736484L
sg6
Nsg23
S'MOV'
p650
sg25
S'0xffffffc0007b78a4L'
p651
sg27
Nsba(ibclass
BInstr
p652
(dp653
g2
Nsg17
S'BL              venus_hfi_vote_buses'
p654
sg19
S'3afeff97'
p655
sg21
Vbl #0xfffffffffffff8e8
p656
sg5
L18446743798839736488L
sg6
Nsg23
S'BL'
p657
sg25
S'0xffffffc0007b78a8L'
p658
sg27
Nsba(ibclass
BInstr
p659
(dp660
g2
Nsg17
S'MOV             W20, W0'
p661
sg19
S'f403002a'
p662
sg21
Vmov w20, w0
p663
sg5
L18446743798839736492L
sg6
Nsg23
S'MOV'
p664
sg25
S'0xffffffc0007b78acL'
p665
sg27
Nsba(ibclass
BInstr
p666
(dp667
g2
Nsg17
S'CBZ             W0, loc_FFFFFFC0007B78F0'
p668
sg19
S'00020034'
p669
sg21
Vcbz w0, #0x40
p670
sg5
L18446743798839736496L
sg6
Nsg23
S'CBZ'
p671
sg25
S'0xffffffc0007b78b0L'
p672
sg27
Nsbasg84
(lp673
S'LDR reg, mem'
p674
aS'LDR reg, mem'
p675
aS'MOV reg, reg9'
p676
aS'BL venus_hfi_vote_buses'
p677
aS'MOV reg0, reg'
p678
aS'CBZ reg, func'
p679
asg95
Nsg5
S'0xffffffc0007b789cL'
p680
sg97
(lp681
S'0xffffffc0007b7820L'
p682
aS'0xffffffc0007b787cL'
p683
aS'0xffffffc0007b7898L'
p684
asg6
Nsg99
(lp685
S'0xffffffc0007b78b4L'
p686
aS'0xffffffc0007b78f0L'
p687
asg103
Nsg104
Nsg105
S'2f2b7852ba6e6e65992cc9de9b26cf3e'
p688
sg107
S'dedfdcf4e286c31521ff0e2a097988e5'
p689
sg109
(lp690
g636
ag643
ag650
ag657
ag664
ag671
asg111
Nsba(ibclass
BBasicBlock
p691
(dp692
g12
Nsg13
(lp693
(ibclass
BInstr
p694
(dp695
g2
Nsg17
S'ADRP            X0, #qword_FFFFFFC000E458A0@PAGE'
p696
sg19
S'603400d0'
p697
sg21
Vadrp x0, #0x68e000
p698
sg5
L18446743798839736500L
sg6
Nsg23
S'ADRP'
p699
sg25
S'0xffffffc0007b78b4L'
p700
sg27
Nsba(ibclass
BInstr
p701
(dp702
g2
Nsg17
S'LDR             X0, [X0,#qword_FFFFFFC000E458A0@PAGEOFF]'
p703
sg19
S'005044f9'
p704
sg21
Vldr x0, [x0, #0x8a0]
p705
sg5
L18446743798839736504L
sg6
Nsg23
S'LDR'
p706
sg25
S'0xffffffc0007b78b8L'
p707
sg27
Nsba(ibclass
BInstr
p708
(dp709
g2
Nsg17
S'LDR             W0, [X0]'
p710
sg19
S'000040b9'
p711
sg21
Vldr w0, [x0]
p712
sg5
L18446743798839736508L
sg6
Nsg23
S'LDR'
p713
sg25
S'0xffffffc0007b78bcL'
p714
sg27
Nsba(ibclass
BInstr
p715
(dp716
g2
Nsg17
S'TBZ             W0, #0, loc_FFFFFFC0007B7DA4'
p717
sg19
S'20270036'
p718
sg21
Vtbz w0, #0, #0x4e4
p719
sg5
L18446743798839736512L
sg6
Nsg23
S'TBZ'
p720
sg25
S'0xffffffc0007b78c0L'
p721
sg27
Nsbasg84
(lp722
S'ADRP reg, #func@PAGE'
p723
aS'LDR reg, mem'
p724
aS'LDR reg, mem'
p725
aS'TBZ reg, #0, func'
p726
asg95
Nsg5
S'0xffffffc0007b78b4L'
p727
sg97
(lp728
S'0xffffffc0007b789cL'
p729
asg6
Nsg99
(lp730
S'0xffffffc0007b78c4L'
p731
aS'0xffffffc0007b7da4L'
p732
asg103
Nsg104
Nsg105
S'2de94c9e326481f2f467f11acce8dcc9'
p733
sg107
S'f9f7225e2bae36aff04e5d93bafe5e1d'
p734
sg109
(lp735
g699
ag706
ag713
ag720
asg111
Nsba(ibclass
BBasicBlock
p736
(dp737
g12
Nsg13
(lp738
(ibclass
BInstr
p739
(dp740
g2
Nsg17
S'ADRP            X0, #qword_FFFFFFC000E43D48@PAGE'
p741
sg19
S'60340090'
p742
sg21
Vadrp x0, #0x68c000
p743
sg5
L18446743798839736516L
sg6
Nsg23
S'ADRP'
p744
sg25
S'0xffffffc0007b78c4L'
p745
sg27
Nsba(ibclass
BInstr
p746
(dp747
g2
Nsg17
S'LDR             X0, [X0,#qword_FFFFFFC000E43D48@PAGEOFF]'
p748
sg19
S'00a446f9'
p749
sg21
Vldr x0, [x0, #0xd48]
p750
sg5
L18446743798839736520L
sg6
Nsg23
S'LDR'
p751
sg25
S'0xffffffc0007b78c8L'
p752
sg27
Nsba(ibclass
BInstr
p753
(dp754
g2
Nsg17
S'LDR             W0, [X0]'
p755
sg19
S'000040b9'
p756
sg21
Vldr w0, [x0]
p757
sg5
L18446743798839736524L
sg6
Nsg23
S'LDR'
p758
sg25
S'0xffffffc0007b78ccL'
p759
sg27
Nsba(ibclass
BInstr
p760
(dp761
g2
Nsg17
S'CBNZ            W0, loc_FFFFFFC0007B7DA4'
p762
sg19
S'a0260035'
p763
sg21
Vcbnz w0, #0x4d4
p764
sg5
L18446743798839736528L
sg6
Nsg23
S'CBNZ'
p765
sg25
S'0xffffffc0007b78d0L'
p766
sg27
Nsbasg84
(lp767
S'ADRP reg, #func@PAGE'
p768
aS'LDR reg, mem'
p769
aS'LDR reg, mem'
p770
aS'CBNZ reg, func'
p771
asg95
Nsg5
S'0xffffffc0007b78c4L'
p772
sg97
(lp773
S'0xffffffc0007b78b4L'
p774
asg6
Nsg99
(lp775
S'0xffffffc0007b78d4L'
p776
aS'0xffffffc0007b7da4L'
p777
asg103
Nsg104
Nsg105
S'9c97521b8b0f280d47a50ec9a5e4f86f'
p778
sg107
S'bd26f8893557dc5fa132ff2490be0ebf'
p779
sg109
(lp780
g744
ag751
ag758
ag765
asg111
Nsba(ibclass
BBasicBlock
p781
(dp782
g12
Nsg13
(lp783
(ibclass
BInstr
p784
(dp785
g2
Nsg17
S'ADRP            X0, #unk_FFFFFFC0013BF18A@PAGE'
p786
sg19
S'40600090'
p787
sg21
Vadrp x0, #0xc08000
p788
sg5
L18446743798839736532L
sg6
Nsg23
S'ADRP'
p789
sg25
S'0xffffffc0007b78d4L'
p790
sg27
Nsba(ibclass
BInstr
p791
(dp792
g2
Nsg17
S'ADRP            X1, #(aQcomMdssDsi_17+0x1B)@PAGE; "err"'
p793
sg19
S'c15b0090'
p794
sg21
Vadrp x1, #0xb78000
p795
sg5
L18446743798839736536L
sg6
Nsg23
S'ADRP'
p796
sg25
S'0xffffffc0007b78d8L'
p797
sg27
Nsba(ibclass
BInstr
p798
(dp799
g2
Nsg17
S'ADD             X1, X1, #(aQcomMdssDsi_17+0x1B)@PAGEOFF; "err"'
p800
sg19
S'21800091'
p801
sg21
Vadd x1, x1, #0x20
p802
sg5
L18446743798839736540L
sg6
Nsg23
S'ADD'
p803
sg25
S'0xffffffc0007b78dcL'
p804
sg27
Nsba(ibclass
BInstr
p805
(dp806
g2
Nsg17
S'MOV             W2, W20'
p807
sg19
S'e203142a'
p808
sg21
Vmov w2, w20
p809
sg5
L18446743798839736544L
sg6
Nsg23
S'MOV'
p810
sg25
S'0xffffffc0007b78e0L'
p811
sg27
Nsba(ibclass
BInstr
p812
(dp813
g2
Nsg17
S'ADD             X0, X0, #unk_FFFFFFC0013BF18A@PAGEOFF'
p814
sg19
S'00280691'
p815
sg21
Vadd x0, x0, #0x18a
p816
sg5
L18446743798839736548L
sg6
Nsg23
S'ADD'
p817
sg25
S'0xffffffc0007b78e4L'
p818
sg27
Nsba(ibclass
BInstr
p819
(dp820
g2
Nsg17
S'BL              printk'
p821
sg19
S'60dc1994'
p822
sg21
Vbl #0x677180
p823
sg5
L18446743798839736552L
sg6
Nsg23
S'BL'
p824
sg25
S'0xffffffc0007b78e8L'
p825
sg27
Nsba(ibclass
BInstr
p826
(dp827
g2
Nsg17
S'B               loc_FFFFFFC0007B7DA4'
p828
sg19
S'2e010014'
p829
sg21
Vb #0x4b8
p830
sg5
L18446743798839736556L
sg6
Nsg23
g281
sg25
S'0xffffffc0007b78ecL'
p831
sg27
Nsbasg84
(lp832
S'ADRP reg, #func@PAGE'
p833
aS'ADRP reg, #(aQcomMdssDsi_17+0x1B)@PAGE'
p834
aS'ADD reg, reg, #(aQcomMdssDsi_17+0x1B)@PAGEOFF'
p835
aS'MOV reg, reg0'
p836
aS'ADD reg, reg, #func@PAGEOFF'
p837
aS'BL printk'
p838
aS'B func'
p839
asg95
Nsg5
S'0xffffffc0007b78d4L'
p840
sg97
(lp841
S'0xffffffc0007b78c4L'
p842
asg6
Nsg99
(lp843
S'0xffffffc0007b7da4L'
p844
asg103
Nsg104
Nsg105
S'ff7f44466e74267aa9d96fda41da35ba'
p845
sg107
S'f8f7a04f18efeaf03a61c7ca3fcf4ead'
p846
sg109
(lp847
g789
ag796
ag803
ag810
ag817
ag824
ag281
asg111
Nsba(ibclass
BBasicBlock
p848
(dp849
g12
Nsg13
(lp850
(ibclass
BInstr
p851
(dp852
g2
Nsg17
S'ADD             X23, X19, #0x248'
p853
sg19
S'77220991'
p854
sg21
Vadd x23, x19, #0x248
p855
sg5
L18446743798839736560L
sg6
Nsg23
S'ADD'
p856
sg25
S'0xffffffc0007b78f0L'
p857
sg27
Nsba(ibclass
BInstr
p858
(dp859
g2
Nsg17
S'MOV             X0, X23'
p860
sg19
S'e00317aa'
p861
sg21
Vmov x0, x23
p862
sg5
L18446743798839736564L
sg6
Nsg23
S'MOV'
p863
sg25
S'0xffffffc0007b78f4L'
p864
sg27
Nsba(ibclass
BInstr
p865
(dp866
g2
Nsg17
S'BL              venus_hfi_enable_regulators.isra.10'
p867
sg19
S'60feff97'
p868
sg21
Vbl #0xfffffffffffff980
p869
sg5
L18446743798839736568L
sg6
Nsg23
S'BL'
p870
sg25
S'0xffffffc0007b78f8L'
p871
sg27
Nsba(ibclass
BInstr
p872
(dp873
g2
Nsg17
S'MOV             W20, W0'
p874
sg19
S'f403002a'
p875
sg21
Vmov w20, w0
p876
sg5
L18446743798839736572L
sg6
Nsg23
S'MOV'
p877
sg25
S'0xffffffc0007b78fcL'
p878
sg27
Nsba(ibclass
BInstr
p879
(dp880
g2
Nsg17
S'CBZ             W0, loc_FFFFFFC0007B794C'
p881
sg19
S'60020034'
p882
sg21
Vcbz w0, #0x4c
p883
sg5
L18446743798839736576L
sg6
Nsg23
S'CBZ'
p884
sg25
S'0xffffffc0007b7900L'
p885
sg27
Nsbasg84
(lp886
S'ADD reg3, reg9, #0x248'
p887
aS'MOV reg, reg3'
p888
aS'BL venus_hfi_enable_regulators.isra.10'
p889
aS'MOV reg0, reg'
p890
aS'CBZ reg, func'
p891
asg95
Nsg5
S'0xffffffc0007b78f0L'
p892
sg97
(lp893
S'0xffffffc0007b789cL'
p894
asg6
Nsg99
(lp895
S'0xffffffc0007b7904L'
p896
aS'0xffffffc0007b794cL'
p897
asg103
Nsg104
Nsg105
S'798fa01b6692a87862a632cba87a74c3'
p898
sg107
S'20c910124b2c74bcdcc5d5743744c070'
p899
sg109
(lp900
g856
ag863
ag870
ag877
ag884
asg111
Nsba(ibclass
BBasicBlock
p901
(dp902
g12
Nsg13
(lp903
(ibclass
BInstr
p904
(dp905
g2
Nsg17
S'ADRP            X0, #qword_FFFFFFC000E458A0@PAGE'
p906
sg19
S'603400d0'
p907
sg21
Vadrp x0, #0x68e000
p908
sg5
L18446743798839736580L
sg6
Nsg23
S'ADRP'
p909
sg25
S'0xffffffc0007b7904L'
p910
sg27
Nsba(ibclass
BInstr
p911
(dp912
g2
Nsg17
S'LDR             X0, [X0,#qword_FFFFFFC000E458A0@PAGEOFF]'
p913
sg19
S'005044f9'
p914
sg21
Vldr x0, [x0, #0x8a0]
p915
sg5
L18446743798839736584L
sg6
Nsg23
S'LDR'
p916
sg25
S'0xffffffc0007b7908L'
p917
sg27
Nsba(ibclass
BInstr
p918
(dp919
g2
Nsg17
S'LDR             W0, [X0]'
p920
sg19
S'000040b9'
p921
sg21
Vldr w0, [x0]
p922
sg5
L18446743798839736588L
sg6
Nsg23
S'LDR'
p923
sg25
S'0xffffffc0007b790cL'
p924
sg27
Nsba(ibclass
BInstr
p925
(dp926
g2
Nsg17
S'TBZ             W0, #0, loc_FFFFFFC0007B7D9C'
p927
sg19
S'60240036'
p928
sg21
Vtbz w0, #0, #0x48c
p929
sg5
L18446743798839736592L
sg6
Nsg23
S'TBZ'
p930
sg25
S'0xffffffc0007b7910L'
p931
sg27
Nsbasg84
(lp932
S'ADRP reg, #func@PAGE'
p933
aS'LDR reg, mem'
p934
aS'LDR reg, mem'
p935
aS'TBZ reg, #0, func'
p936
asg95
Nsg5
S'0xffffffc0007b7904L'
p937
sg97
(lp938
S'0xffffffc0007b78f0L'
p939
asg6
Nsg99
(lp940
S'0xffffffc0007b7914L'
p941
aS'0xffffffc0007b7d9cL'
p942
asg103
Nsg104
Nsg105
S'2de94c9e326481f2f467f11acce8dcc9'
p943
sg107
S'f9f7225e2bae36aff04e5d93bafe5e1d'
p944
sg109
(lp945
g909
ag916
ag923
ag930
asg111
Nsba(ibclass
BBasicBlock
p946
(dp947
g12
Nsg13
(lp948
(ibclass
BInstr
p949
(dp950
g2
Nsg17
S'ADRP            X0, #qword_FFFFFFC000E43D48@PAGE'
p951
sg19
S'60340090'
p952
sg21
Vadrp x0, #0x68c000
p953
sg5
L18446743798839736596L
sg6
Nsg23
S'ADRP'
p954
sg25
S'0xffffffc0007b7914L'
p955
sg27
Nsba(ibclass
BInstr
p956
(dp957
g2
Nsg17
S'LDR             X0, [X0,#qword_FFFFFFC000E43D48@PAGEOFF]'
p958
sg19
S'00a446f9'
p959
sg21
Vldr x0, [x0, #0xd48]
p960
sg5
L18446743798839736600L
sg6
Nsg23
S'LDR'
p961
sg25
S'0xffffffc0007b7918L'
p962
sg27
Nsba(ibclass
BInstr
p963
(dp964
g2
Nsg17
S'LDR             W0, [X0]'
p965
sg19
S'000040b9'
p966
sg21
Vldr w0, [x0]
p967
sg5
L18446743798839736604L
sg6
Nsg23
S'LDR'
p968
sg25
S'0xffffffc0007b791cL'
p969
sg27
Nsba(ibclass
BInstr
p970
(dp971
g2
Nsg17
S'CBNZ            W0, loc_FFFFFFC0007B7D9C'
p972
sg19
S'e0230035'
p973
sg21
Vcbnz w0, #0x47c
p974
sg5
L18446743798839736608L
sg6
Nsg23
S'CBNZ'
p975
sg25
S'0xffffffc0007b7920L'
p976
sg27
Nsbasg84
(lp977
S'ADRP reg, #func@PAGE'
p978
aS'LDR reg, mem'
p979
aS'LDR reg, mem'
p980
aS'CBNZ reg, func'
p981
asg95
Nsg5
S'0xffffffc0007b7914L'
p982
sg97
(lp983
S'0xffffffc0007b7904L'
p984
asg6
Nsg99
(lp985
S'0xffffffc0007b7924L'
p986
aS'0xffffffc0007b7d9cL'
p987
asg103
Nsg104
Nsg105
S'9c97521b8b0f280d47a50ec9a5e4f86f'
p988
sg107
S'bd26f8893557dc5fa132ff2490be0ebf'
p989
sg109
(lp990
g954
ag961
ag968
ag975
asg111
Nsba(ibclass
BBasicBlock
p991
(dp992
g12
Nsg13
(lp993
(ibclass
BInstr
p994
(dp995
g2
Nsg17
S'ADRP            X2, #__func__.33986@PAGE; "venus_hfi_suspend"'
p996
sg19
S'824400f0'
p997
sg21
Vadrp x2, #0x893000
p998
sg5
L18446743798839736612L
sg6
Nsg23
S'ADRP'
p999
sg25
S'0xffffffc0007b7924L'
p1000
sg27
Nsba(ibclass
BInstr
p1001
(dp1002
g2
Nsg17
S'ADRP            X0, #unk_FFFFFFC0013BF1CB@PAGE'
p1003
sg19
S'40600090'
p1004
sg21
Vadrp x0, #0xc08000
p1005
sg5
L18446743798839736616L
sg6
Nsg23
S'ADRP'
p1006
sg25
S'0xffffffc0007b7928L'
p1007
sg27
Nsba(ibclass
BInstr
p1008
(dp1009
g2
Nsg17
S'ADRP            X1, #(aQcomMdssDsi_17+0x1B)@PAGE; "err"'
p1010
sg19
S'c15b0090'
p1011
sg21
Vadrp x1, #0xb78000
p1012
sg5
L18446743798839736620L
sg6
Nsg23
S'ADRP'
p1013
sg25
S'0xffffffc0007b792cL'
p1014
sg27
Nsba(ibclass
BInstr
p1015
(dp1016
g2
Nsg17
S'ADD             X2, X2, #__func__.33986@PAGEOFF; "venus_hfi_suspend"'
p1017
sg19
S'42201991'
p1018
sg21
Vadd x2, x2, #0x648
p1019
sg5
L18446743798839736624L
sg6
Nsg23
S'ADD'
p1020
sg25
S'0xffffffc0007b7930L'
p1021
sg27
Nsba(ibclass
BInstr
p1022
(dp1023
g2
Nsg17
S'ADD             X1, X1, #(aQcomMdssDsi_17+0x1B)@PAGEOFF; "err"'
p1024
sg19
S'21800091'
p1025
sg21
Vadd x1, x1, #0x20
p1026
sg5
L18446743798839736628L
sg6
Nsg23
S'ADD'
p1027
sg25
S'0xffffffc0007b7934L'
p1028
sg27
Nsba(ibclass
BInstr
p1029
(dp1030
g2
Nsg17
S'ADD             X2, X2, #0x80'
p1031
sg19
S'42000291'
p1032
sg21
Vadd x2, x2, #0x80
p1033
sg5
L18446743798839736632L
sg6
Nsg23
S'ADD'
p1034
sg25
S'0xffffffc0007b7938L'
p1035
sg27
Nsba(ibclass
BInstr
p1036
(dp1037
g2
Nsg17
S'MOV             W3, W20'
p1038
sg19
S'e303142a'
p1039
sg21
Vmov w3, w20
p1040
sg5
L18446743798839736636L
sg6
Nsg23
S'MOV'
p1041
sg25
S'0xffffffc0007b793cL'
p1042
sg27
Nsba(ibclass
BInstr
p1043
(dp1044
g2
Nsg17
S'ADD             X0, X0, #unk_FFFFFFC0013BF1CB@PAGEOFF'
p1045
sg19
S'002c0791'
p1046
sg21
Vadd x0, x0, #0x1cb
p1047
sg5
L18446743798839736640L
sg6
Nsg23
S'ADD'
p1048
sg25
S'0xffffffc0007b7940L'
p1049
sg27
Nsba(ibclass
BInstr
p1050
(dp1051
g2
Nsg17
S'BL              printk'
p1052
sg19
S'49dc1994'
p1053
sg21
Vbl #0x677124
p1054
sg5
L18446743798839736644L
sg6
Nsg23
S'BL'
p1055
sg25
S'0xffffffc0007b7944L'
p1056
sg27
Nsba(ibclass
BInstr
p1057
(dp1058
g2
Nsg17
S'B               loc_FFFFFFC0007B7D9C'
p1059
sg19
S'15010014'
p1060
sg21
Vb #0x454
p1061
sg5
L18446743798839736648L
sg6
Nsg23
g281
sg25
S'0xffffffc0007b7948L'
p1062
sg27
Nsbasg84
(lp1063
S'ADRP reg, #__func__.33986@PAGE'
p1064
aS'ADRP reg, #func@PAGE'
p1065
aS'ADRP reg, #(aQcomMdssDsi_17+0x1B)@PAGE'
p1066
aS'ADD reg, reg, #__func__.33986@PAGEOFF'
p1067
aS'ADD reg, reg, #(aQcomMdssDsi_17+0x1B)@PAGEOFF'
p1068
aS'ADD reg, reg, #0x80'
p1069
aS'MOV reg, reg0'
p1070
aS'ADD reg, reg, #func@PAGEOFF'
p1071
aS'BL printk'
p1072
aS'B func'
p1073
asg95
Nsg5
S'0xffffffc0007b7924L'
p1074
sg97
(lp1075
S'0xffffffc0007b7914L'
p1076
asg6
Nsg99
(lp1077
S'0xffffffc0007b7d9cL'
p1078
asg103
Nsg104
Nsg105
S'7e3e61d7f8547903d75fbbc718c41713'
p1079
sg107
S'5f077a2aebf1b634b7e3210f107ab322'
p1080
sg109
(lp1081
g999
ag1006
ag1013
ag1020
ag1027
ag1034
ag1041
ag1048
ag1055
ag281
asg111
Nsba(ibclass
BBasicBlock
p1082
(dp1083
g12
Nsg13
(lp1084
(ibclass
BInstr
p1085
(dp1086
g2
Nsg17
S'LDR             W0, [X19,#0x48]'
p1087
sg19
S'604a40b9'
p1088
sg21
Vldr w0, [x19, #0x48]
p1089
sg5
L18446743798839736652L
sg6
Nsg23
S'LDR'
p1090
sg25
S'0xffffffc0007b794cL'
p1091
sg27
Nsba(ibclass
BInstr
p1092
(dp1093
g2
Nsg17
S'CMP             W0, #1'
p1094
sg19
S'1f040071'
p1095
sg21
Vcmp w0, #1
p1096
sg5
L18446743798839736656L
sg6
Nsg23
S'CMP'
p1097
sg25
S'0xffffffc0007b7950L'
p1098
sg27
Nsba(ibclass
BInstr
p1099
(dp1100
g2
Nsg17
S'B.NE            loc_FFFFFFC0007B7990'
p1101
sg19
S'e1010054'
p1102
sg21
Vb.ne #0x3c
p1103
sg5
L18446743798839736660L
sg6
Nsg23
g281
sg25
S'0xffffffc0007b7954L'
p1104
sg27
Nsbasg84
(lp1105
S'LDR reg, mem'
p1106
aS'CMP reg, #1'
p1107
aS'B.NE func'
p1108
asg95
Nsg5
S'0xffffffc0007b794cL'
p1109
sg97
(lp1110
S'0xffffffc0007b78f0L'
p1111
asg6
Nsg99
(lp1112
S'0xffffffc0007b7958L'
p1113
aS'0xffffffc0007b7990L'
p1114
asg103
Nsg104
Nsg105
S'fa4df767a85c49648339e2dc5c6807f6'
p1115
sg107
S'04ce3bae805a9d6b00ff1d28044742ab'
p1116
sg109
(lp1117
g1090
ag1097
ag281
asg111
Nsba(ibclass
BBasicBlock
p1118
(dp1119
g12
Nsg13
(lp1120
(ibclass
BInstr
p1121
(dp1122
g2
Nsg17
S'ADRP            X0, #qword_FFFFFFC000E458A0@PAGE'
p1123
sg19
S'603400d0'
p1124
sg21
Vadrp x0, #0x68e000
p1125
sg5
L18446743798839736664L
sg6
Nsg23
S'ADRP'
p1126
sg25
S'0xffffffc0007b7958L'
p1127
sg27
Nsba(ibclass
BInstr
p1128
(dp1129
g2
Nsg17
S'LDR             X0, [X0,#qword_FFFFFFC000E458A0@PAGEOFF]'
p1130
sg19
S'005044f9'
p1131
sg21
Vldr x0, [x0, #0x8a0]
p1132
sg5
L18446743798839736668L
sg6
Nsg23
S'LDR'
p1133
sg25
S'0xffffffc0007b795cL'
p1134
sg27
Nsba(ibclass
BInstr
p1135
(dp1136
g2
Nsg17
S'LDR             W0, [X0]'
p1137
sg19
S'000040b9'
p1138
sg21
Vldr w0, [x0]
p1139
sg5
L18446743798839736672L
sg6
Nsg23
S'LDR'
p1140
sg25
S'0xffffffc0007b7960L'
p1141
sg27
Nsba(ibclass
BInstr
p1142
(dp1143
g2
Nsg17
S'TBZ             W0, #3, loc_FFFFFFC0007B7A2C'
p1144
sg19
S'40061836'
p1145
sg21
Vtbz w0, #3, #0xc8
p1146
sg5
L18446743798839736676L
sg6
Nsg23
S'TBZ'
p1147
sg25
S'0xffffffc0007b7964L'
p1148
sg27
Nsbasg84
(lp1149
S'ADRP reg, #func@PAGE'
p1150
aS'LDR reg, mem'
p1151
aS'LDR reg, mem'
p1152
aS'TBZ reg, #3, func'
p1153
asg95
Nsg5
S'0xffffffc0007b7958L'
p1154
sg97
(lp1155
S'0xffffffc0007b794cL'
p1156
asg6
Nsg99
(lp1157
S'0xffffffc0007b7968L'
p1158
aS'0xffffffc0007b7a2cL'
p1159
asg103
Nsg104
Nsg105
S'2de94c9e326481f2f467f11acce8dcc9'
p1160
sg107
S'c40f6366bfed7a84cc2d4708a220ac5e'
p1161
sg109
(lp1162
g1126
ag1133
ag1140
ag1147
asg111
Nsba(ibclass
BBasicBlock
p1163
(dp1164
g12
Nsg13
(lp1165
(ibclass
BInstr
p1166
(dp1167
g2
Nsg17
S'ADRP            X0, #qword_FFFFFFC000E43D48@PAGE'
p1168
sg19
S'60340090'
p1169
sg21
Vadrp x0, #0x68c000
p1170
sg5
L18446743798839736680L
sg6
Nsg23
S'ADRP'
p1171
sg25
S'0xffffffc0007b7968L'
p1172
sg27
Nsba(ibclass
BInstr
p1173
(dp1174
g2
Nsg17
S'LDR             X0, [X0,#qword_FFFFFFC000E43D48@PAGEOFF]'
p1175
sg19
S'00a446f9'
p1176
sg21
Vldr x0, [x0, #0xd48]
p1177
sg5
L18446743798839736684L
sg6
Nsg23
S'LDR'
p1178
sg25
S'0xffffffc0007b796cL'
p1179
sg27
Nsba(ibclass
BInstr
p1180
(dp1181
g2
Nsg17
S'LDR             W0, [X0]'
p1182
sg19
S'000040b9'
p1183
sg21
Vldr w0, [x0]
p1184
sg5
L18446743798839736688L
sg6
Nsg23
S'LDR'
p1185
sg25
S'0xffffffc0007b7970L'
p1186
sg27
Nsba(ibclass
BInstr
p1187
(dp1188
g2
Nsg17
S'CBNZ            W0, loc_FFFFFFC0007B7A2C'
p1189
sg19
S'c0050035'
p1190
sg21
Vcbnz w0, #0xb8
p1191
sg5
L18446743798839736692L
sg6
Nsg23
S'CBNZ'
p1192
sg25
S'0xffffffc0007b7974L'
p1193
sg27
Nsbasg84
(lp1194
S'ADRP reg, #func@PAGE'
p1195
aS'LDR reg, mem'
p1196
aS'LDR reg, mem'
p1197
aS'CBNZ reg, func'
p1198
asg95
Nsg5
S'0xffffffc0007b7968L'
p1199
sg97
(lp1200
S'0xffffffc0007b7958L'
p1201
asg6
Nsg99
(lp1202
S'0xffffffc0007b7978L'
p1203
aS'0xffffffc0007b7a2cL'
p1204
asg103
Nsg104
Nsg105
S'9c97521b8b0f280d47a50ec9a5e4f86f'
p1205
sg107
S'bd26f8893557dc5fa132ff2490be0ebf'
p1206
sg109
(lp1207
g1171
ag1178
ag1185
ag1192
asg111
Nsba(ibclass
BBasicBlock
p1208
(dp1209
g12
Nsg13
(lp1210
(ibclass
BInstr
p1211
(dp1212
g2
Nsg17
S'ADRP            X0, #unk_FFFFFFC0013BF202@PAGE'
p1213
sg19
S'40600090'
p1214
sg21
Vadrp x0, #0xc08000
p1215
sg5
L18446743798839736696L
sg6
Nsg23
S'ADRP'
p1216
sg25
S'0xffffffc0007b7978L'
p1217
sg27
Nsba(ibclass
BInstr
p1218
(dp1219
g2
Nsg17
S'ADRP            X1, #(aRulesDbg+6)@PAGE; "dbg"'
p1220
sg19
S'216700d0'
p1221
sg21
Vadrp x1, #0xce6000
p1222
sg5
L18446743798839736700L
sg6
Nsg23
S'ADRP'
p1223
sg25
S'0xffffffc0007b797cL'
p1224
sg27
Nsba(ibclass
BInstr
p1225
(dp1226
g2
Nsg17
S'ADD             X1, X1, #(aRulesDbg+6)@PAGEOFF; "dbg"'
p1227
sg19
S'21e00291'
p1228
sg21
Vadd x1, x1, #0xb8
p1229
sg5
L18446743798839736704L
sg6
Nsg23
S'ADD'
p1230
sg25
S'0xffffffc0007b7980L'
p1231
sg27
Nsba(ibclass
BInstr
p1232
(dp1233
g2
Nsg17
S'ADD             X0, X0, #unk_FFFFFFC0013BF202@PAGEOFF'
p1234
sg19
S'00080891'
p1235
sg21
Vadd x0, x0, #0x202
p1236
sg5
L18446743798839736708L
sg6
Nsg23
S'ADD'
p1237
sg25
S'0xffffffc0007b7984L'
p1238
sg27
Nsba(ibclass
BInstr
p1239
(dp1240
g2
Nsg17
S'BL              printk'
p1241
sg19
S'38dc1994'
p1242
sg21
Vbl #0x6770e0
p1243
sg5
L18446743798839736712L
sg6
Nsg23
S'BL'
p1244
sg25
S'0xffffffc0007b7988L'
p1245
sg27
Nsba(ibclass
BInstr
p1246
(dp1247
g2
Nsg17
S'B               loc_FFFFFFC0007B7A2C'
p1248
sg19
S'28000014'
p1249
sg21
Vb #0xa0
p1250
sg5
L18446743798839736716L
sg6
Nsg23
g281
sg25
S'0xffffffc0007b798cL'
p1251
sg27
Nsbasg84
(lp1252
S'ADRP reg, #func@PAGE'
p1253
aS'ADRP reg, #(aRulesDbg+6)@PAGE'
p1254
aS'ADD reg, reg, #(aRulesDbg+6)@PAGEOFF'
p1255
aS'ADD reg, reg, #func@PAGEOFF'
p1256
aS'BL printk'
p1257
aS'B func'
p1258
asg95
Nsg5
S'0xffffffc0007b7978L'
p1259
sg97
(lp1260
S'0xffffffc0007b7968L'
p1261
asg6
Nsg99
(lp1262
S'0xffffffc0007b7a2cL'
p1263
asg103
Nsg104
Nsg105
S'b2a3927201f2643e37e238d870ced3c2'
p1264
sg107
S'71e213dc095186f330343c1ff3e0219e'
p1265
sg109
(lp1266
g1216
ag1223
ag1230
ag1237
ag1244
ag281
asg111
Nsba(ibclass
BBasicBlock
p1267
(dp1268
g12
Nsg13
(lp1269
(ibclass
BInstr
p1270
(dp1271
g2
Nsg17
S'LDR             X0, [X19,#0x248]'
p1272
sg19
S'602641f9'
p1273
sg21
Vldr x0, [x19, #0x248]
p1274
sg5
L18446743798839736720L
sg6
Nsg23
S'LDR'
p1275
sg25
S'0xffffffc0007b7990L'
p1276
sg27
Nsba(ibclass
BInstr
p1277
(dp1278
g2
Nsg17
S'ADRP            X27, #unk_FFFFFFC0013BF262@PAGE'
p1279
sg19
S'5b600090'
p1280
sg21
Vadrp x27, #0xc08000
p1281
sg5
L18446743798839736724L
sg6
Nsg23
S'ADRP'
p1282
sg25
S'0xffffffc0007b7994L'
p1283
sg27
Nsba(ibclass
BInstr
p1284
(dp1285
g2
Nsg17
S'ADRP            X28, #(aRulesDbg+6)@PAGE; "dbg"'
p1286
sg19
S'3c6700d0'
p1287
sg21
Vadrp x28, #0xce6000
p1288
sg5
L18446743798839736728L
sg6
Nsg23
S'ADRP'
p1289
sg25
S'0xffffffc0007b7998L'
p1290
sg27
Nsba(ibclass
BInstr
p1291
(dp1292
g2
Nsg17
S'LDR             X21, [X0,#0x88]'
p1293
sg19
S'154440f9'
p1294
sg21
Vldr x21, [x0, #0x88]
p1295
sg5
L18446743798839736732L
sg6
Nsg23
S'LDR'
p1296
sg25
S'0xffffffc0007b799cL'
p1297
sg27
Nsba(ibclass
BInstr
p1298
(dp1299
g2
Nsg17
S'ADRP            X25, #qword_FFFFFFC000E458A0@PAGE'
p1300
sg19
S'793400d0'
p1301
sg21
Vadrp x25, #0x68e000
p1302
sg5
L18446743798839736736L
sg6
Nsg23
S'ADRP'
p1303
sg25
S'0xffffffc0007b79a0L'
p1304
sg27
Nsba(ibclass
BInstr
p1305
(dp1306
g2
Nsg17
S'ADRP            X26, #qword_FFFFFFC000E43D48@PAGE'
p1307
sg19
S'7a340090'
p1308
sg21
Vadrp x26, #0x68c000
p1309
sg5
L18446743798839736740L
sg6
Nsg23
S'ADRP'
p1310
sg25
S'0xffffffc0007b79a4L'
p1311
sg27
Nsba(ibclass
BInstr
p1312
(dp1313
g2
Nsg17
S'ADD             X27, X27, #unk_FFFFFFC0013BF262@PAGEOFF'
p1314
sg19
S'7b8b0991'
p1315
sg21
Vadd x27, x27, #0x262
p1316
sg5
L18446743798839736744L
sg6
Nsg23
S'ADD'
p1317
sg25
S'0xffffffc0007b79a8L'
p1318
sg27
Nsba(ibclass
BInstr
p1319
(dp1320
g2
Nsg17
S'ADD             X28, X28, #(aRulesDbg+6)@PAGEOFF; "dbg"'
p1321
sg19
S'9ce30291'
p1322
sg21
Vadd x28, x28, #0xb8
p1323
sg5
L18446743798839736748L
sg6
Nsg23
S'ADD'
p1324
sg25
S'0xffffffc0007b79acL'
p1325
sg27
Nsbasg84
(lp1326
S'LDR reg, mem'
p1327
aS'ADRP reg7, #func@PAGE'
p1328
aS'ADRP reg8, #(aRulesDbg+6)@PAGE'
p1329
aS'LDR reg1, mem'
p1330
aS'ADRP reg5, #func@PAGE'
p1331
aS'ADRP reg6, #func@PAGE'
p1332
aS'ADD reg7, reg7, #func@PAGEOFF'
p1333
aS'ADD reg8, reg8, #(aRulesDbg+6)@PAGEOFF'
p1334
asg95
Nsg5
S'0xffffffc0007b7990L'
p1335
sg97
(lp1336
S'0xffffffc0007b794cL'
p1337
asg6
Nsg99
(lp1338
S'0xffffffc0007b79b0L'
p1339
asg103
Nsg104
Nsg105
S'f8b51ff2cd767254dcebaf1c795b4ea4'
p1340
sg107
S'4f98addc2353f8bf3989a52f2527556f'
p1341
sg109
(lp1342
g1275
ag1282
ag1289
ag1296
ag1303
ag1310
ag1317
ag1324
asg111
Nsba(ibclass
BBasicBlock
p1343
(dp1344
g12
Nsg13
(lp1345
(ibclass
BInstr
p1346
(dp1347
g2
Nsg17
S'LDR             X0, [X19,#0x248]'
p1348
sg19
S'602641f9'
p1349
sg21
Vldr x0, [x19, #0x248]
p1350
sg5
L18446743798839736752L
sg6
Nsg23
S'LDR'
p1351
sg25
S'0xffffffc0007b79b0L'
p1352
sg27
Nsba(ibclass
BInstr
p1353
(dp1354
g2
Nsg17
S'LDR             W1, [X0,#0x90]'
p1355
sg19
S'019040b9'
p1356
sg21
Vldr w1, [x0, #0x90]
p1357
sg5
L18446743798839736756L
sg6
Nsg23
S'LDR'
p1358
sg25
S'0xffffffc0007b79b4L'
p1359
sg27
Nsba(ibclass
BInstr
p1360
(dp1361
g2
Nsg17
S'LDR             X0, [X0,#0x88]'
p1362
sg19
S'004440f9'
p1363
sg21
Vldr x0, [x0, #0x88]
p1364
sg5
L18446743798839736760L
sg6
Nsg23
S'LDR'
p1365
sg25
S'0xffffffc0007b79b8L'
p1366
sg27
Nsba(ibclass
BInstr
p1367
(dp1368
g2
Nsg17
S'ADD             X0, X0, X1,LSL#5'
p1369
sg19
S'0014018b'
p1370
sg21
Vadd x0, x0, x1, lsl #5
p1371
sg5
L18446743798839736764L
sg6
Nsg23
S'ADD'
p1372
sg25
S'0xffffffc0007b79bcL'
p1373
sg27
Nsba(ibclass
BInstr
p1374
(dp1375
g2
Nsg17
S'CMP             X21, X0'
p1376
sg19
S'bf0200eb'
p1377
sg21
Vcmp x21, x0
p1378
sg5
L18446743798839736768L
sg6
Nsg23
S'CMP'
p1379
sg25
S'0xffffffc0007b79c0L'
p1380
sg27
Nsba(ibclass
BInstr
p1381
(dp1382
g2
Nsg17
S'B.CS            loc_FFFFFFC0007B79FC'
p1383
sg19
S'c2010054'
p1384
sg21
Vb.hs #0x38
p1385
sg5
L18446743798839736772L
sg6
Nsg23
g281
sg25
S'0xffffffc0007b79c4L'
p1386
sg27
Nsbasg84
(lp1387
S'LDR reg, mem'
p1388
aS'LDR reg, mem'
p1389
aS'LDR reg, mem'
p1390
aS'ADD reg, reg, reg,LSL#5'
p1391
aS'CMP reg1, reg'
p1392
aS'B.CS func'
p1393
asg95
Nsg5
S'0xffffffc0007b79b0L'
p1394
sg97
(lp1395
S'0xffffffc0007b7990L'
p1396
aS'0xffffffc0007b7decL'
p1397
asg6
Nsg99
(lp1398
S'0xffffffc0007b79c8L'
p1399
aS'0xffffffc0007b79fcL'
p1400
asg103
Nsg104
Nsg105
S'680bbbfb58623e66c37f168833c14155'
p1401
sg107
S'a04147e31c1fdabd99fca5af490d5aff'
p1402
sg109
(lp1403
g1351
ag1358
ag1365
ag1372
ag1379
ag281
asg111
Nsba(ibclass
BBasicBlock
p1404
(dp1405
g12
Nsg13
(lp1406
(ibclass
BInstr
p1407
(dp1408
g2
Nsg17
S'LDR             X22, [X21,#8]'
p1409
sg19
S'b60640f9'
p1410
sg21
Vldr x22, [x21, #8]
p1411
sg5
L18446743798839736776L
sg6
Nsg23
S'LDR'
p1412
sg25
S'0xffffffc0007b79c8L'
p1413
sg27
Nsba(ibclass
BInstr
p1414
(dp1415
g2
Nsg17
S'ADRP            X24, #0xFFFFFFC000E45000'
p1416
sg19
S'783400d0'
p1417
sg21
Vadrp x24, #0x68e000
p1418
sg5
L18446743798839736780L
sg6
Nsg23
S'ADRP'
p1419
sg25
S'0xffffffc0007b79ccL'
p1420
sg27
Nsba(ibclass
BInstr
p1421
(dp1422
g2
Nsg17
S'MOV             X0, X22'
p1423
sg19
S'e00316aa'
p1424
sg21
Vmov x0, x22
p1425
sg5
L18446743798839736784L
sg6
Nsg23
S'MOV'
p1426
sg25
S'0xffffffc0007b79d0L'
p1427
sg27
Nsba(ibclass
BInstr
p1428
(dp1429
g2
Nsg17
S'BL              clk_prepare'
p1430
sg19
S'9c020f94'
p1431
sg21
Vbl #0x3c0a70
p1432
sg5
L18446743798839736788L
sg6
Nsg23
S'BL'
p1433
sg25
S'0xffffffc0007b79d4L'
p1434
sg27
Nsba(ibclass
BInstr
p1435
(dp1436
g2
Nsg17
S'MOV             W20, W0'
p1437
sg19
S'f403002a'
p1438
sg21
Vmov w20, w0
p1439
sg5
L18446743798839736792L
sg6
Nsg23
S'MOV'
p1440
sg25
S'0xffffffc0007b79d8L'
p1441
sg27
Nsba(ibclass
BInstr
p1442
(dp1443
g2
Nsg17
S'CBNZ            W0, loc_FFFFFFC0007B7D18'
p1444
sg19
S'e0190035'
p1445
sg21
Vcbnz w0, #0x33c
p1446
sg5
L18446743798839736796L
sg6
Nsg23
S'CBNZ'
p1447
sg25
S'0xffffffc0007b79dcL'
p1448
sg27
Nsbasg84
(lp1449
S'LDR reg2, mem'
p1450
aS'ADRP reg4, #0xFFFFFFC000E45000'
p1451
aS'MOV reg, reg2'
p1452
aS'BL clk_prepare'
p1453
aS'MOV reg0, reg'
p1454
aS'CBNZ reg, func'
p1455
asg95
Nsg5
S'0xffffffc0007b79c8L'
p1456
sg97
(lp1457
S'0xffffffc0007b79b0L'
p1458
asg6
Nsg99
(lp1459
S'0xffffffc0007b79e0L'
p1460
aS'0xffffffc0007b7d18L'
p1461
asg103
Nsg104
Nsg105
S'c08736f1c3426c44c502695c07c9e1d1'
p1462
sg107
S'c8d4c2c8918c0858f5fbaffcea665f34'
p1463
sg109
(lp1464
g1412
ag1419
ag1426
ag1433
ag1440
ag1447
asg111
Nsba(ibclass
BBasicBlock
p1465
(dp1466
g12
Nsg13
(lp1467
(ibclass
BInstr
p1468
(dp1469
g2
Nsg17
S'MOV             X0, X22'
p1470
sg19
S'e00316aa'
p1471
sg21
Vmov x0, x22
p1472
sg5
L18446743798839736800L
sg6
Nsg23
S'MOV'
p1473
sg25
S'0xffffffc0007b79e0L'
p1474
sg27
Nsba(ibclass
BInstr
p1475
(dp1476
g2
Nsg17
S'BL              clk_enable'
p1477
sg19
S'e9010f94'
p1478
sg21
Vbl #0x3c07a4
p1479
sg5
L18446743798839736804L
sg6
Nsg23
S'BL'
p1480
sg25
S'0xffffffc0007b79e4L'
p1481
sg27
Nsba(ibclass
BInstr
p1482
(dp1483
g2
Nsg17
S'MOV             W20, W0'
p1484
sg19
S'f403002a'
p1485
sg21
Vmov w20, w0
p1486
sg5
L18446743798839736808L
sg6
Nsg23
S'MOV'
p1487
sg25
S'0xffffffc0007b79e8L'
p1488
sg27
Nsba(ibclass
BInstr
p1489
(dp1490
g2
Nsg17
S'CBZ             W0, loc_FFFFFFC0007B7DC4'
p1491
sg19
S'c01e0034'
p1492
sg21
Vcbz w0, #0x3d8
p1493
sg5
L18446743798839736812L
sg6
Nsg23
S'CBZ'
p1494
sg25
S'0xffffffc0007b79ecL'
p1495
sg27
Nsbasg84
(lp1496
S'MOV reg, reg2'
p1497
aS'BL clk_enable'
p1498
aS'MOV reg0, reg'
p1499
aS'CBZ reg, func'
p1500
asg95
Nsg5
S'0xffffffc0007b79e0L'
p1501
sg97
(lp1502
S'0xffffffc0007b79c8L'
p1503
asg6
Nsg99
(lp1504
S'0xffffffc0007b79f0L'
p1505
aS'0xffffffc0007b7dc4L'
p1506
asg103
Nsg104
Nsg105
S'f5246e006a605030327646fe1b99d696'
p1507
sg107
S'51aeebb42a151dc7ed16b50210848cc3'
p1508
sg109
(lp1509
g1473
ag1480
ag1487
ag1494
asg111
Nsba(ibclass
BBasicBlock
p1510
(dp1511
g12
Nsg13
(lp1512
(ibclass
BInstr
p1513
(dp1514
g2
Nsg17
S'MOV             X0, X22'
p1515
sg19
S'e00316aa'
p1516
sg21
Vmov x0, x22
p1517
sg5
L18446743798839736816L
sg6
Nsg23
S'MOV'
p1518
sg25
S'0xffffffc0007b79f0L'
p1519
sg27
Nsba(ibclass
BInstr
p1520
(dp1521
g2
Nsg17
S'BL              clk_unprepare'
p1522
sg19
S'48020f94'
p1523
sg21
Vbl #0x3c0920
p1524
sg5
L18446743798839736820L
sg6
Nsg23
S'BL'
p1525
sg25
S'0xffffffc0007b79f4L'
p1526
sg27
Nsba(ibclass
BInstr
p1527
(dp1528
g2
Nsg17
S'B               loc_FFFFFFC0007B7D18'
p1529
sg19
S'c8000014'
p1530
sg21
Vb #0x320
p1531
sg5
L18446743798839736824L
sg6
Nsg23
g281
sg25
S'0xffffffc0007b79f8L'
p1532
sg27
Nsbasg84
(lp1533
S'MOV reg, reg2'
p1534
aS'BL clk_unprepare'
p1535
aS'B func'
p1536
asg95
Nsg5
S'0xffffffc0007b79f0L'
p1537
sg97
(lp1538
S'0xffffffc0007b79e0L'
p1539
asg6
Nsg99
(lp1540
S'0xffffffc0007b7d18L'
p1541
asg103
Nsg104
Nsg105
S'f3f645dfcfe38b34211b70b425c07bfe'
p1542
sg107
S'efc28fab616ec3a520621406dceead9b'
p1543
sg109
(lp1544
g1518
ag1525
ag281
asg111
Nsba(ibclass
BBasicBlock
p1545
(dp1546
g12
Nsg13
(lp1547
(ibclass
BInstr
p1548
(dp1549
g2
Nsg17
S'MOV             W0, #1'
p1550
sg19
S'20008052'
p1551
sg21
Vmovz w0, #0x1
p1552
sg5
L18446743798839736828L
sg6
Nsg23
S'MOV'
p1553
sg25
S'0xffffffc0007b79fcL'
p1554
sg27
Nsba(ibclass
BInstr
p1555
(dp1556
g2
Nsg17
S'MOV             W1, #4'
p1557
sg19
S'81008052'
p1558
sg21
Vmovz w1, #0x4
p1559
sg5
L18446743798839736832L
sg6
Nsg23
S'MOV'
p1560
sg25
S'0xffffffc0007b7a00L'
p1561
sg27
Nsba(ibclass
BInstr
p1562
(dp1563
g2
Nsg17
S'STR             W0, [X19,#0x48]'
p1564
sg19
S'604a00b9'
p1565
sg21
Vstr w0, [x19, #0x48]
p1566
sg5
L18446743798839736836L
sg6
Nsg23
S'STR'
p1567
sg25
S'0xffffffc0007b7a04L'
p1568
sg27
Nsba(ibclass
BInstr
p1569
(dp1570
g2
Nsg17
S'MOVK            W1, #0xE,LSL#16'
p1571
sg19
S'c101a072'
p1572
sg21
Vmovk w1, #0xe, lsl #16
p1573
sg5
L18446743798839736840L
sg6
Nsg23
S'MOVK'
p1574
sg25
S'0xffffffc0007b7a08L'
p1575
sg27
Nsba(ibclass
BInstr
p1576
(dp1577
g2
Nsg17
S'MOV             X0, X19'
p1578
sg19
S'e00313aa'
p1579
sg21
Vmov x0, x19
p1580
sg5
L18446743798839736844L
sg6
Nsg23
S'MOV'
p1581
sg25
S'0xffffffc0007b7a0cL'
p1582
sg27
Nsba(ibclass
BInstr
p1583
(dp1584
g2
Nsg17
S'MOV             W2, #0'
p1585
sg19
S'02008052'
p1586
sg21
Vmovz w2, #0
p1587
sg5
L18446743798839736848L
sg6
Nsg23
S'MOV'
p1588
sg25
S'0xffffffc0007b7a10L'
p1589
sg27
Nsba(ibclass
BInstr
p1590
(dp1591
g2
Nsg17
S'BL              venus_hfi_write_register'
p1592
sg19
S'1effff97'
p1593
sg21
Vbl #0xfffffffffffffc78
p1594
sg5
L18446743798839736852L
sg6
Nsg23
S'BL'
p1595
sg25
S'0xffffffc0007b7a14L'
p1596
sg27
Nsba(ibclass
BInstr
p1597
(dp1598
g2
Nsg17
S'MOV             W1, #0x2000'
p1599
sg19
S'01008452'
p1600
sg21
Vmovz w1, #0x2000
p1601
sg5
L18446743798839736856L
sg6
Nsg23
S'MOV'
p1602
sg25
S'0xffffffc0007b7a18L'
p1603
sg27
Nsba(ibclass
BInstr
p1604
(dp1605
g2
Nsg17
S'MOV             X0, X19'
p1606
sg19
S'e00313aa'
p1607
sg21
Vmov x0, x19
p1608
sg5
L18446743798839736860L
sg6
Nsg23
S'MOV'
p1609
sg25
S'0xffffffc0007b7a1cL'
p1610
sg27
Nsba(ibclass
BInstr
p1611
(dp1612
g2
Nsg17
S'MOVK            W1, #0xE,LSL#16'
p1613
sg19
S'c101a072'
p1614
sg21
Vmovk w1, #0xe, lsl #16
p1615
sg5
L18446743798839736864L
sg6
Nsg23
S'MOVK'
p1616
sg25
S'0xffffffc0007b7a20L'
p1617
sg27
Nsba(ibclass
BInstr
p1618
(dp1619
g2
Nsg17
S'MOV             W2, #0'
p1620
sg19
S'02008052'
p1621
sg21
Vmovz w2, #0
p1622
sg5
L18446743798839736868L
sg6
Nsg23
S'MOV'
p1623
sg25
S'0xffffffc0007b7a24L'
p1624
sg27
Nsba(ibclass
BInstr
p1625
(dp1626
g2
Nsg17
S'BL              venus_hfi_write_register'
p1627
sg19
S'19ffff97'
p1628
sg21
Vbl #0xfffffffffffffc64
p1629
sg5
L18446743798839736872L
sg6
Nsg23
S'BL'
p1630
sg25
S'0xffffffc0007b7a28L'
p1631
sg27
Nsbasg84
(lp1632
S'MOV reg, #1'
p1633
aS'MOV reg, #4'
p1634
aS'STR reg, mem'
p1635
aS'MOVK reg, #0xE,LSL#16'
p1636
aS'MOV reg, reg9'
p1637
aS'MOV reg, #0'
p1638
aS'BL venus_hfi_write_register'
p1639
aS'MOV reg, #0x2000'
p1640
aS'MOV reg, reg9'
p1641
aS'MOVK reg, #0xE,LSL#16'
p1642
aS'MOV reg, #0'
p1643
aS'BL venus_hfi_write_register'
p1644
asg95
Nsg5
S'0xffffffc0007b79fcL'
p1645
sg97
(lp1646
S'0xffffffc0007b79b0L'
p1647
asg6
Nsg99
(lp1648
S'0xffffffc0007b7a2cL'
p1649
asg103
Nsg104
Nsg105
S'7407dd36476f44ecb6fdabd41c96d0d5'
p1650
sg107
S'db66878781017a2bbde3595d7c883b80'
p1651
sg109
(lp1652
g1553
ag1560
ag1567
ag1574
ag1581
ag1588
ag1595
ag1602
ag1609
ag1616
ag1623
ag1630
asg111
Nsba(ibclass
BBasicBlock
p1653
(dp1654
g12
Nsg13
(lp1655
(ibclass
BInstr
p1656
(dp1657
g2
Nsg17
S'MOV             X0, X19'
p1658
sg19
S'e00313aa'
p1659
sg21
Vmov x0, x19
p1660
sg5
L18446743798839736876L
sg6
Nsg23
S'MOV'
p1661
sg25
S'0xffffffc0007b7a2cL'
p1662
sg27
Nsba(ibclass
BInstr
p1663
(dp1664
g2
Nsg17
S'BL              venus_hfi_iommu_attach'
p1665
sg19
S'09f9ff97'
p1666
sg21
Vbl #0xffffffffffffe424
p1667
sg5
L18446743798839736880L
sg6
Nsg23
S'BL'
p1668
sg25
S'0xffffffc0007b7a30L'
p1669
sg27
Nsba(ibclass
BInstr
p1670
(dp1671
g2
Nsg17
S'MOV             W20, W0'
p1672
sg19
S'f403002a'
p1673
sg21
Vmov w20, w0
p1674
sg5
L18446743798839736884L
sg6
Nsg23
S'MOV'
p1675
sg25
S'0xffffffc0007b7a34L'
p1676
sg27
Nsba(ibclass
BInstr
p1677
(dp1678
g2
Nsg17
S'CBZ             W0, loc_FFFFFFC0007B7A74'
p1679
sg19
S'e0010034'
p1680
sg21
Vcbz w0, #0x3c
p1681
sg5
L18446743798839736888L
sg6
Nsg23
S'CBZ'
p1682
sg25
S'0xffffffc0007b7a38L'
p1683
sg27
Nsbasg84
(lp1684
S'MOV reg, reg9'
p1685
aS'BL venus_hfi_iommu_attach'
p1686
aS'MOV reg0, reg'
p1687
aS'CBZ reg, func'
p1688
asg95
Nsg5
S'0xffffffc0007b7a2cL'
p1689
sg97
(lp1690
S'0xffffffc0007b7958L'
p1691
aS'0xffffffc0007b7968L'
p1692
aS'0xffffffc0007b7978L'
p1693
aS'0xffffffc0007b79fcL'
p1694
asg6
Nsg99
(lp1695
S'0xffffffc0007b7a3cL'
p1696
aS'0xffffffc0007b7a74L'
p1697
asg103
Nsg104
Nsg105
S'f5246e006a605030327646fe1b99d696'
p1698
sg107
S'fb142a5e1b3e91cd39efb6912a315723'
p1699
sg109
(lp1700
g1661
ag1668
ag1675
ag1682
asg111
Nsba(ibclass
BBasicBlock
p1701
(dp1702
g12
Nsg13
(lp1703
(ibclass
BInstr
p1704
(dp1705
g2
Nsg17
S'ADRP            X0, #qword_FFFFFFC000E458A0@PAGE'
p1706
sg19
S'603400d0'
p1707
sg21
Vadrp x0, #0x68e000
p1708
sg5
L18446743798839736892L
sg6
Nsg23
S'ADRP'
p1709
sg25
S'0xffffffc0007b7a3cL'
p1710
sg27
Nsba(ibclass
BInstr
p1711
(dp1712
g2
Nsg17
S'LDR             X0, [X0,#qword_FFFFFFC000E458A0@PAGEOFF]'
p1713
sg19
S'005044f9'
p1714
sg21
Vldr x0, [x0, #0x8a0]
p1715
sg5
L18446743798839736896L
sg6
Nsg23
S'LDR'
p1716
sg25
S'0xffffffc0007b7a40L'
p1717
sg27
Nsba(ibclass
BInstr
p1718
(dp1719
g2
Nsg17
S'LDR             W0, [X0]'
p1720
sg19
S'000040b9'
p1721
sg21
Vldr w0, [x0]
p1722
sg5
L18446743798839736900L
sg6
Nsg23
S'LDR'
p1723
sg25
S'0xffffffc0007b7a44L'
p1724
sg27
Nsba(ibclass
BInstr
p1725
(dp1726
g2
Nsg17
S'TBZ             W0, #0, loc_FFFFFFC0007B7C4C'
p1727
sg19
S'20100036'
p1728
sg21
Vtbz w0, #0, #0x204
p1729
sg5
L18446743798839736904L
sg6
Nsg23
S'TBZ'
p1730
sg25
S'0xffffffc0007b7a48L'
p1731
sg27
Nsbasg84
(lp1732
S'ADRP reg, #func@PAGE'
p1733
aS'LDR reg, mem'
p1734
aS'LDR reg, mem'
p1735
aS'TBZ reg, #0, func'
p1736
asg95
Nsg5
S'0xffffffc0007b7a3cL'
p1737
sg97
(lp1738
S'0xffffffc0007b7a2cL'
p1739
asg6
Nsg99
(lp1740
S'0xffffffc0007b7a4cL'
p1741
aS'0xffffffc0007b7c4cL'
p1742
asg103
Nsg104
Nsg105
S'2de94c9e326481f2f467f11acce8dcc9'
p1743
sg107
S'f9f7225e2bae36aff04e5d93bafe5e1d'
p1744
sg109
(lp1745
g1709
ag1716
ag1723
ag1730
asg111
Nsba(ibclass
BBasicBlock
p1746
(dp1747
g12
Nsg13
(lp1748
(ibclass
BInstr
p1749
(dp1750
g2
Nsg17
S'ADRP            X0, #qword_FFFFFFC000E43D48@PAGE'
p1751
sg19
S'60340090'
p1752
sg21
Vadrp x0, #0x68c000
p1753
sg5
L18446743798839736908L
sg6
Nsg23
S'ADRP'
p1754
sg25
S'0xffffffc0007b7a4cL'
p1755
sg27
Nsba(ibclass
BInstr
p1756
(dp1757
g2
Nsg17
S'LDR             X0, [X0,#qword_FFFFFFC000E43D48@PAGEOFF]'
p1758
sg19
S'00a446f9'
p1759
sg21
Vldr x0, [x0, #0xd48]
p1760
sg5
L18446743798839736912L
sg6
Nsg23
S'LDR'
p1761
sg25
S'0xffffffc0007b7a50L'
p1762
sg27
Nsba(ibclass
BInstr
p1763
(dp1764
g2
Nsg17
S'LDR             W0, [X0]'
p1765
sg19
S'000040b9'
p1766
sg21
Vldr w0, [x0]
p1767
sg5
L18446743798839736916L
sg6
Nsg23
S'LDR'
p1768
sg25
S'0xffffffc0007b7a54L'
p1769
sg27
Nsba(ibclass
BInstr
p1770
(dp1771
g2
Nsg17
S'CBNZ            W0, loc_FFFFFFC0007B7C4C'
p1772
sg19
S'a00f0035'
p1773
sg21
Vcbnz w0, #0x1f4
p1774
sg5
L18446743798839736920L
sg6
Nsg23
S'CBNZ'
p1775
sg25
S'0xffffffc0007b7a58L'
p1776
sg27
Nsbasg84
(lp1777
S'ADRP reg, #func@PAGE'
p1778
aS'LDR reg, mem'
p1779
aS'LDR reg, mem'
p1780
aS'CBNZ reg, func'
p1781
asg95
Nsg5
S'0xffffffc0007b7a4cL'
p1782
sg97
(lp1783
S'0xffffffc0007b7a3cL'
p1784
asg6
Nsg99
(lp1785
S'0xffffffc0007b7a5cL'
p1786
aS'0xffffffc0007b7c4cL'
p1787
asg103
Nsg104
Nsg105
S'9c97521b8b0f280d47a50ec9a5e4f86f'
p1788
sg107
S'bd26f8893557dc5fa132ff2490be0ebf'
p1789
sg109
(lp1790
g1754
ag1761
ag1768
ag1775
asg111
Nsba(ibclass
BBasicBlock
p1791
(dp1792
g12
Nsg13
(lp1793
(ibclass
BInstr
p1794
(dp1795
g2
Nsg17
S'ADRP            X0, #unk_FFFFFFC0013BF2F3@PAGE'
p1796
sg19
S'40600090'
p1797
sg21
Vadrp x0, #0xc08000
p1798
sg5
L18446743798839736924L
sg6
Nsg23
S'ADRP'
p1799
sg25
S'0xffffffc0007b7a5cL'
p1800
sg27
Nsba(ibclass
BInstr
p1801
(dp1802
g2
Nsg17
S'ADRP            X1, #(aQcomMdssDsi_17+0x1B)@PAGE; "err"'
p1803
sg19
S'c15b0090'
p1804
sg21
Vadrp x1, #0xb78000
p1805
sg5
L18446743798839736928L
sg6
Nsg23
S'ADRP'
p1806
sg25
S'0xffffffc0007b7a60L'
p1807
sg27
Nsba(ibclass
BInstr
p1808
(dp1809
g2
Nsg17
S'ADD             X1, X1, #(aQcomMdssDsi_17+0x1B)@PAGEOFF; "err"'
p1810
sg19
S'21800091'
p1811
sg21
Vadd x1, x1, #0x20
p1812
sg5
L18446743798839736932L
sg6
Nsg23
S'ADD'
p1813
sg25
S'0xffffffc0007b7a64L'
p1814
sg27
Nsba(ibclass
BInstr
p1815
(dp1816
g2
Nsg17
S'ADD             X0, X0, #unk_FFFFFFC0013BF2F3@PAGEOFF'
p1817
sg19
S'00cc0b91'
p1818
sg21
Vadd x0, x0, #0x2f3
p1819
sg5
L18446743798839736936L
sg6
Nsg23
S'ADD'
p1820
sg25
S'0xffffffc0007b7a68L'
p1821
sg27
Nsba(ibclass
BInstr
p1822
(dp1823
g2
Nsg17
S'BL              printk'
p1824
sg19
S'ffdb1994'
p1825
sg21
Vbl #0x676ffc
p1826
sg5
L18446743798839736940L
sg6
Nsg23
S'BL'
p1827
sg25
S'0xffffffc0007b7a6cL'
p1828
sg27
Nsba(ibclass
BInstr
p1829
(dp1830
g2
Nsg17
S'B               loc_FFFFFFC0007B7C4C'
p1831
sg19
S'77000014'
p1832
sg21
Vb #0x1dc
p1833
sg5
L18446743798839736944L
sg6
Nsg23
g281
sg25
S'0xffffffc0007b7a70L'
p1834
sg27
Nsbasg84
(lp1835
S'ADRP reg, #func@PAGE'
p1836
aS'ADRP reg, #(aQcomMdssDsi_17+0x1B)@PAGE'
p1837
aS'ADD reg, reg, #(aQcomMdssDsi_17+0x1B)@PAGEOFF'
p1838
aS'ADD reg, reg, #func@PAGEOFF'
p1839
aS'BL printk'
p1840
aS'B func'
p1841
asg95
Nsg5
S'0xffffffc0007b7a5cL'
p1842
sg97
(lp1843
S'0xffffffc0007b7a4cL'
p1844
asg6
Nsg99
(lp1845
S'0xffffffc0007b7c4cL'
p1846
asg103
Nsg104
Nsg105
S'b2a3927201f2643e37e238d870ced3c2'
p1847
sg107
S'3e167cdac8f124cfbacea29ee5c30eb0'
p1848
sg109
(lp1849
g1799
ag1806
ag1813
ag1820
ag1827
ag281
asg111
Nsba(ibclass
BBasicBlock
p1850
(dp1851
g12
Nsg13
(lp1852
(ibclass
BInstr
p1853
(dp1854
g2
Nsg17
S'LDR             X0, [X19,#0x248]'
p1855
sg19
S'602641f9'
p1856
sg21
Vldr x0, [x19, #0x248]
p1857
sg5
L18446743798839736948L
sg6
Nsg23
S'LDR'
p1858
sg25
S'0xffffffc0007b7a74L'
p1859
sg27
Nsba(ibclass
BInstr
p1860
(dp1861
g2
Nsg17
S'LDRB            W1, [X0,#0xA9]'
p1862
sg19
S'01a44239'
p1863
sg21
Vldrb w1, [x0, #0xa9]
p1864
sg5
L18446743798839736952L
sg6
Nsg23
S'LDR'
p1865
sg25
S'0xffffffc0007b7a78L'
p1866
sg27
Nsba(ibclass
BInstr
p1867
(dp1868
g2
Nsg17
S'CBNZ            W1, loc_FFFFFFC0007B7A88'
p1869
sg19
S'61000035'
p1870
sg21
Vcbnz w1, #0xc
p1871
sg5
L18446743798839736956L
sg6
Nsg23
S'CBNZ'
p1872
sg25
S'0xffffffc0007b7a7cL'
p1873
sg27
Nsbasg84
(lp1874
S'LDR reg, mem'
p1875
aS'LDRB reg, mem'
p1876
aS'CBNZ reg, func'
p1877
asg95
Nsg5
S'0xffffffc0007b7a74L'
p1878
sg97
(lp1879
S'0xffffffc0007b7a2cL'
p1880
asg6
Nsg99
(lp1881
S'0xffffffc0007b7a80L'
p1882
aS'0xffffffc0007b7a88L'
p1883
asg103
Nsg104
Nsg105
S'f99d4c26198b49c08607b4e65321097b'
p1884
sg107
S'7bb75e5deffa28f18458f77e629fad50'
p1885
sg109
(lp1886
g1858
ag1865
ag1872
asg111
Nsba(ibclass
BBasicBlock
p1887
(dp1888
g12
Nsg13
(lp1889
(ibclass
BInstr
p1890
(dp1891
g2
Nsg17
S'LDR             X0, [X0]'
p1892
sg19
S'000040f9'
p1893
sg21
Vldr x0, [x0]
p1894
sg5
L18446743798839736960L
sg6
Nsg23
S'LDR'
p1895
sg25
S'0xffffffc0007b7a80L'
p1896
sg27
Nsba(ibclass
BInstr
p1897
(dp1898
g2
Nsg17
S'CBNZ            X0, loc_FFFFFFC0007B7AB0'
p1899
sg19
S'600100b5'
p1900
sg21
Vcbnz x0, #0x2c
p1901
sg5
L18446743798839736964L
sg6
Nsg23
S'CBNZ'
p1902
sg25
S'0xffffffc0007b7a84L'
p1903
sg27
Nsbasg84
(lp1904
S'LDR reg, mem'
p1905
aS'CBNZ reg, func'
p1906
asg95
Nsg5
S'0xffffffc0007b7a80L'
p1907
sg97
(lp1908
S'0xffffffc0007b7a74L'
p1909
asg6
Nsg99
(lp1910
S'0xffffffc0007b7a88L'
p1911
aS'0xffffffc0007b7ab0L'
p1912
asg103
Nsg104
Nsg105
S'5522ad3e8b25e3a8f9013bb9571723e7'
p1913
sg107
S'7604765c3c810c2510cc031abcc4f1e2'
p1914
sg109
(lp1915
g1895
ag1902
asg111
Nsba(ibclass
BBasicBlock
p1916
(dp1917
g12
Nsg13
(lp1918
(ibclass
BInstr
p1919
(dp1920
g2
Nsg17
S'LDR             X0, [X19,#0x218]'
p1921
sg19
S'600e41f9'
p1922
sg21
Vldr x0, [x19, #0x218]
p1923
sg5
L18446743798839736968L
sg6
Nsg23
S'LDR'
p1924
sg25
S'0xffffffc0007b7a88L'
p1925
sg27
Nsba(ibclass
BInstr
p1926
(dp1927
g2
Nsg17
S'CBNZ            X0, loc_FFFFFFC0007B7AA0'
p1928
sg19
S'a00000b5'
p1929
sg21
Vcbnz x0, #0x14
p1930
sg5
L18446743798839736972L
sg6
Nsg23
S'CBNZ'
p1931
sg25
S'0xffffffc0007b7a8cL'
p1932
sg27
Nsbasg84
(lp1933
S'LDR reg, mem'
p1934
aS'CBNZ reg, func'
p1935
asg95
Nsg5
S'0xffffffc0007b7a88L'
p1936
sg97
(lp1937
S'0xffffffc0007b7a74L'
p1938
aS'0xffffffc0007b7a80L'
p1939
asg6
Nsg99
(lp1940
S'0xffffffc0007b7a90L'
p1941
aS'0xffffffc0007b7aa0L'
p1942
asg103
Nsg104
Nsg105
S'5522ad3e8b25e3a8f9013bb9571723e7'
p1943
sg107
S'7604765c3c810c2510cc031abcc4f1e2'
p1944
sg109
(lp1945
g1924
ag1931
asg111
Nsba(ibclass
BBasicBlock
p1946
(dp1947
g12
Nsg13
(lp1948
(ibclass
BInstr
p1949
(dp1950
g2
Nsg17
S'ADRP            X0, #aVenus@PAGE; "venus"'
p1951
sg19
S'60600090'
p1952
sg21
Vadrp x0, #0xc0c000
p1953
sg5
L18446743798839736976L
sg6
Nsg23
S'ADRP'
p1954
sg25
S'0xffffffc0007b7a90L'
p1955
sg27
Nsba(ibclass
BInstr
p1956
(dp1957
g2
Nsg17
S'ADD             X0, X0, #aVenus@PAGEOFF; "venus"'
p1958
sg19
S'00241a91'
p1959
sg21
Vadd x0, x0, #0x689
p1960
sg5
L18446743798839736980L
sg6
Nsg23
S'ADD'
p1961
sg25
S'0xffffffc0007b7a94L'
p1962
sg27
Nsba(ibclass
BInstr
p1963
(dp1964
g2
Nsg17
S'BL              subsystem_get'
p1965
sg19
S'0b91f597'
p1966
sg21
Vbl #0xffffffffffd6442c
p1967
sg5
L18446743798839736984L
sg6
Nsg23
S'BL'
p1968
sg25
S'0xffffffc0007b7a98L'
p1969
sg27
Nsba(ibclass
BInstr
p1970
(dp1971
g2
Nsg17
S'STR             X0, [X19,#0x218]'
p1972
sg19
S'600e01f9'
p1973
sg21
Vstr x0, [x19, #0x218]
p1974
sg5
L18446743798839736988L
sg6
Nsg23
S'STR'
p1975
sg25
S'0xffffffc0007b7a9cL'
p1976
sg27
Nsbasg84
(lp1977
S'ADRP reg, #aVenus@PAGE'
p1978
aS'ADD reg, reg, #aVenus@PAGEOFF'
p1979
aS'BL subsystem_get'
p1980
aS'STR reg, mem'
p1981
asg95
Nsg5
S'0xffffffc0007b7a90L'
p1982
sg97
(lp1983
S'0xffffffc0007b7a88L'
p1984
asg6
Nsg99
(lp1985
S'0xffffffc0007b7aa0L'
p1986
asg103
Nsg104
Nsg105
S'944b83b4293391437fdad5909e164787'
p1987
sg107
S'8272acb42623a72c7216c0e21e04b19d'
p1988
sg109
(lp1989
g1954
ag1961
ag1968
ag1975
asg111
Nsba(ibclass
BBasicBlock
p1990
(dp1991
g12
Nsg13
(lp1992
(ibclass
BInstr
p1993
(dp1994
g2
Nsg17
S'LDR             X0, [X19,#0x218]'
p1995
sg19
S'600e41f9'
p1996
sg21
Vldr x0, [x19, #0x218]
p1997
sg5
L18446743798839736992L
sg6
Nsg23
S'LDR'
p1998
sg25
S'0xffffffc0007b7aa0L'
p1999
sg27
Nsba(ibclass
BInstr
p2000
(dp2001
g2
Nsg17
S'CBZ             X0, loc_FFFFFFC0007B7E70'
p2002
sg19
S'601e00b4'
p2003
sg21
Vcbz x0, #0x3cc
p2004
sg5
L18446743798839736996L
sg6
Nsg23
S'CBZ'
p2005
sg25
S'0xffffffc0007b7aa4L'
p2006
sg27
Nsbasg84
(lp2007
S'LDR reg, mem'
p2008
aS'CBZ reg, func'
p2009
asg95
Nsg5
S'0xffffffc0007b7aa0L'
p2010
sg97
(lp2011
S'0xffffffc0007b7a88L'
p2012
aS'0xffffffc0007b7a90L'
p2013
asg6
Nsg99
(lp2014
S'0xffffffc0007b7aa8L'
p2015
aS'0xffffffc0007b7e70L'
p2016
asg103
Nsg104
Nsg105
S'a0c488049ab653dbdfa1dc805bb83f13'
p2017
sg107
S'33abe016da9abbebb8608f035d51762d'
p2018
sg109
(lp2019
g1998
ag2005
asg111
Nsba(ibclass
BBasicBlock
p2020
(dp2021
g12
Nsg13
(lp2022
(ibclass
BInstr
p2023
(dp2024
g2
Nsg17
S'CMN             X0, #1,LSL#12'
p2025
sg19
S'1f0440b1'
p2026
sg21
Vcmn x0, #1, lsl #12
p2027
sg5
L18446743798839737000L
sg6
Nsg23
S'CMN'
p2028
sg25
S'0xffffffc0007b7aa8L'
p2029
sg27
Nsba(ibclass
BInstr
p2030
(dp2031
g2
Nsg17
S'B.HI            loc_FFFFFFC0007B7E70'
p2032
sg19
S'281e0054'
p2033
sg21
Vb.hi #0x3c4
p2034
sg5
L18446743798839737004L
sg6
Nsg23
g281
sg25
S'0xffffffc0007b7aacL'
p2035
sg27
Nsbasg84
(lp2036
S'CMN reg, #1,LSL#12'
p2037
aS'B.HI func'
p2038
asg95
Nsg5
S'0xffffffc0007b7aa8L'
p2039
sg97
(lp2040
S'0xffffffc0007b7aa0L'
p2041
asg6
Nsg99
(lp2042
S'0xffffffc0007b7ab0L'
p2043
aS'0xffffffc0007b7e70L'
p2044
asg103
Nsg104
Nsg105
S'0efc94ace390d98fde13a1d606963ba2'
p2045
sg107
S'827418e6edaa1b32d60f0c522e97af2f'
p2046
sg109
(lp2047
g2028
ag281
asg111
Nsba(ibclass
BBasicBlock
p2048
(dp2049
g12
Nsg13
(lp2050
(ibclass
BInstr
p2051
(dp2052
g2
Nsg17
S'MOV             W0, #1'
p2053
sg19
S'20008052'
p2054
sg21
Vmovz w0, #0x1
p2055
sg5
L18446743798839737008L
sg6
Nsg23
S'MOV'
p2056
sg25
S'0xffffffc0007b7ab0L'
p2057
sg27
Nsba(ibclass
BInstr
p2058
(dp2059
g2
Nsg17
S'STRB            W0, [X19,#0x4C]'
p2060
sg19
S'60320139'
p2061
sg21
Vstrb w0, [x19, #0x4c]
p2062
sg5
L18446743798839737012L
sg6
Nsg23
S'STR'
p2063
sg25
S'0xffffffc0007b7ab4L'
p2064
sg27
Nsba(ibclass
BInstr
p2065
(dp2066
g2
Nsg17
S'ADRP            X0, #qword_FFFFFFC000E47568@PAGE'
p2067
sg19
S'80340090'
p2068
sg21
Vadrp x0, #0x690000
p2069
sg5
L18446743798839737016L
sg6
Nsg23
S'ADRP'
p2070
sg25
S'0xffffffc0007b7ab8L'
p2071
sg27
Nsba(ibclass
BInstr
p2072
(dp2073
g2
Nsg17
S'LDR             X0, [X0,#qword_FFFFFFC000E47568@PAGEOFF]'
p2074
sg19
S'00b442f9'
p2075
sg21
Vldr x0, [x0, #0x568]
p2076
sg5
L18446743798839737020L
sg6
Nsg23
S'LDR'
p2077
sg25
S'0xffffffc0007b7abcL'
p2078
sg27
Nsba(ibclass
BInstr
p2079
(dp2080
g2
Nsg17
S'LDR             W0, [X0]'
p2081
sg19
S'000040b9'
p2082
sg21
Vldr w0, [x0]
p2083
sg5
L18446743798839737024L
sg6
Nsg23
S'LDR'
p2084
sg25
S'0xffffffc0007b7ac0L'
p2085
sg27
Nsba(ibclass
BInstr
p2086
(dp2087
g2
Nsg17
S'CBNZ            W0, loc_FFFFFFC0007B7B00'
p2088
sg19
S'e0010035'
p2089
sg21
Vcbnz w0, #0x3c
p2090
sg5
L18446743798839737028L
sg6
Nsg23
S'CBNZ'
p2091
sg25
S'0xffffffc0007b7ac4L'
p2092
sg27
Nsbasg84
(lp2093
S'MOV reg, #1'
p2094
aS'STRB reg, mem'
p2095
aS'ADRP reg, #func@PAGE'
p2096
aS'LDR reg, mem'
p2097
aS'LDR reg, mem'
p2098
aS'CBNZ reg, func'
p2099
asg95
Nsg5
S'0xffffffc0007b7ab0L'
p2100
sg97
(lp2101
S'0xffffffc0007b7a80L'
p2102
aS'0xffffffc0007b7aa8L'
p2103
asg6
Nsg99
(lp2104
S'0xffffffc0007b7ac8L'
p2105
aS'0xffffffc0007b7b00L'
p2106
asg103
Nsg104
Nsg105
S'72bb91200bcb61cbbbeed6cb2b3993c0'
p2107
sg107
S'9f796d59f64efd94ddd2ac7fbc6b05dd'
p2108
sg109
(lp2109
g2056
ag2063
ag2070
ag2077
ag2084
ag2091
asg111
Nsba(ibclass
BBasicBlock
p2110
(dp2111
g12
Nsg13
(lp2112
(ibclass
BInstr
p2113
(dp2114
g2
Nsg17
S'ADRP            X0, #qword_FFFFFFC000E458A0@PAGE'
p2115
sg19
S'603400d0'
p2116
sg21
Vadrp x0, #0x68e000
p2117
sg5
L18446743798839737032L
sg6
Nsg23
S'ADRP'
p2118
sg25
S'0xffffffc0007b7ac8L'
p2119
sg27
Nsba(ibclass
BInstr
p2120
(dp2121
g2
Nsg17
S'LDR             X0, [X0,#qword_FFFFFFC000E458A0@PAGEOFF]'
p2122
sg19
S'005044f9'
p2123
sg21
Vldr x0, [x0, #0x8a0]
p2124
sg5
L18446743798839737036L
sg6
Nsg23
S'LDR'
p2125
sg25
S'0xffffffc0007b7accL'
p2126
sg27
Nsba(ibclass
BInstr
p2127
(dp2128
g2
Nsg17
S'LDR             W0, [X0]'
p2129
sg19
S'000040b9'
p2130
sg21
Vldr w0, [x0]
p2131
sg5
L18446743798839737040L
sg6
Nsg23
S'LDR'
p2132
sg25
S'0xffffffc0007b7ad0L'
p2133
sg27
Nsba(ibclass
BInstr
p2134
(dp2135
g2
Nsg17
S'TBZ             W0, #3, loc_FFFFFFC0007B7B50'
p2136
sg19
S'e0031836'
p2137
sg21
Vtbz w0, #3, #0x7c
p2138
sg5
L18446743798839737044L
sg6
Nsg23
S'TBZ'
p2139
sg25
S'0xffffffc0007b7ad4L'
p2140
sg27
Nsbasg84
(lp2141
S'ADRP reg, #func@PAGE'
p2142
aS'LDR reg, mem'
p2143
aS'LDR reg, mem'
p2144
aS'TBZ reg, #3, func'
p2145
asg95
Nsg5
S'0xffffffc0007b7ac8L'
p2146
sg97
(lp2147
S'0xffffffc0007b7ab0L'
p2148
asg6
Nsg99
(lp2149
S'0xffffffc0007b7ad8L'
p2150
aS'0xffffffc0007b7b50L'
p2151
asg103
Nsg104
Nsg105
S'2de94c9e326481f2f467f11acce8dcc9'
p2152
sg107
S'c40f6366bfed7a84cc2d4708a220ac5e'
p2153
sg109
(lp2154
g2118
ag2125
ag2132
ag2139
asg111
Nsba(ibclass
BBasicBlock
p2155
(dp2156
g12
Nsg13
(lp2157
(ibclass
BInstr
p2158
(dp2159
g2
Nsg17
S'ADRP            X0, #qword_FFFFFFC000E43D48@PAGE'
p2160
sg19
S'60340090'
p2161
sg21
Vadrp x0, #0x68c000
p2162
sg5
L18446743798839737048L
sg6
Nsg23
S'ADRP'
p2163
sg25
S'0xffffffc0007b7ad8L'
p2164
sg27
Nsba(ibclass
BInstr
p2165
(dp2166
g2
Nsg17
S'LDR             X0, [X0,#qword_FFFFFFC000E43D48@PAGEOFF]'
p2167
sg19
S'00a446f9'
p2168
sg21
Vldr x0, [x0, #0xd48]
p2169
sg5
L18446743798839737052L
sg6
Nsg23
S'LDR'
p2170
sg25
S'0xffffffc0007b7adcL'
p2171
sg27
Nsba(ibclass
BInstr
p2172
(dp2173
g2
Nsg17
S'LDR             W0, [X0]'
p2174
sg19
S'000040b9'
p2175
sg21
Vldr w0, [x0]
p2176
sg5
L18446743798839737056L
sg6
Nsg23
S'LDR'
p2177
sg25
S'0xffffffc0007b7ae0L'
p2178
sg27
Nsba(ibclass
BInstr
p2179
(dp2180
g2
Nsg17
S'CBNZ            W0, loc_FFFFFFC0007B7B50'
p2181
sg19
S'60030035'
p2182
sg21
Vcbnz w0, #0x6c
p2183
sg5
L18446743798839737060L
sg6
Nsg23
S'CBNZ'
p2184
sg25
S'0xffffffc0007b7ae4L'
p2185
sg27
Nsbasg84
(lp2186
S'ADRP reg, #func@PAGE'
p2187
aS'LDR reg, mem'
p2188
aS'LDR reg, mem'
p2189
aS'CBNZ reg, func'
p2190
asg95
Nsg5
S'0xffffffc0007b7ad8L'
p2191
sg97
(lp2192
S'0xffffffc0007b7ac8L'
p2193
asg6
Nsg99
(lp2194
S'0xffffffc0007b7ae8L'
p2195
aS'0xffffffc0007b7b50L'
p2196
asg103
Nsg104
Nsg105
S'9c97521b8b0f280d47a50ec9a5e4f86f'
p2197
sg107
S'bd26f8893557dc5fa132ff2490be0ebf'
p2198
sg109
(lp2199
g2163
ag2170
ag2177
ag2184
asg111
Nsba(ibclass
BBasicBlock
p2200
(dp2201
g12
Nsg13
(lp2202
(ibclass
BInstr
p2203
(dp2204
g2
Nsg17
S'ADRP            X0, #unk_FFFFFFC0013BF34A@PAGE'
p2205
sg19
S'40600090'
p2206
sg21
Vadrp x0, #0xc08000
p2207
sg5
L18446743798839737064L
sg6
Nsg23
S'ADRP'
p2208
sg25
S'0xffffffc0007b7ae8L'
p2209
sg27
Nsba(ibclass
BInstr
p2210
(dp2211
g2
Nsg17
S'ADRP            X1, #(aRulesDbg+6)@PAGE; "dbg"'
p2212
sg19
S'216700d0'
p2213
sg21
Vadrp x1, #0xce6000
p2214
sg5
L18446743798839737068L
sg6
Nsg23
S'ADRP'
p2215
sg25
S'0xffffffc0007b7aecL'
p2216
sg27
Nsba(ibclass
BInstr
p2217
(dp2218
g2
Nsg17
S'ADD             X1, X1, #(aRulesDbg+6)@PAGEOFF; "dbg"'
p2219
sg19
S'21e00291'
p2220
sg21
Vadd x1, x1, #0xb8
p2221
sg5
L18446743798839737072L
sg6
Nsg23
S'ADD'
p2222
sg25
S'0xffffffc0007b7af0L'
p2223
sg27
Nsba(ibclass
BInstr
p2224
(dp2225
g2
Nsg17
S'ADD             X0, X0, #unk_FFFFFFC0013BF34A@PAGEOFF'
p2226
sg19
S'00280d91'
p2227
sg21
Vadd x0, x0, #0x34a
p2228
sg5
L18446743798839737076L
sg6
Nsg23
S'ADD'
p2229
sg25
S'0xffffffc0007b7af4L'
p2230
sg27
Nsba(ibclass
BInstr
p2231
(dp2232
g2
Nsg17
S'BL              printk'
p2233
sg19
S'dcdb1994'
p2234
sg21
Vbl #0x676f70
p2235
sg5
L18446743798839737080L
sg6
Nsg23
S'BL'
p2236
sg25
S'0xffffffc0007b7af8L'
p2237
sg27
Nsba(ibclass
BInstr
p2238
(dp2239
g2
Nsg17
S'B               loc_FFFFFFC0007B7B50'
p2240
sg19
S'15000014'
p2241
sg21
Vb #0x54
p2242
sg5
L18446743798839737084L
sg6
Nsg23
g281
sg25
S'0xffffffc0007b7afcL'
p2243
sg27
Nsbasg84
(lp2244
S'ADRP reg, #func@PAGE'
p2245
aS'ADRP reg, #(aRulesDbg+6)@PAGE'
p2246
aS'ADD reg, reg, #(aRulesDbg+6)@PAGEOFF'
p2247
aS'ADD reg, reg, #func@PAGEOFF'
p2248
aS'BL printk'
p2249
aS'B func'
p2250
asg95
Nsg5
S'0xffffffc0007b7ae8L'
p2251
sg97
(lp2252
S'0xffffffc0007b7ad8L'
p2253
asg6
Nsg99
(lp2254
S'0xffffffc0007b7b50L'
p2255
asg103
Nsg104
Nsg105
S'b2a3927201f2643e37e238d870ced3c2'
p2256
sg107
S'71e213dc095186f330343c1ff3e0219e'
p2257
sg109
(lp2258
g2208
ag2215
ag2222
ag2229
ag2236
ag281
asg111
Nsba(ibclass
BBasicBlock
p2259
(dp2260
g12
Nsg13
(lp2261
(ibclass
BInstr
p2262
(dp2263
g2
Nsg17
S'MOV             X0, X23'
p2264
sg19
S'e00317aa'
p2265
sg21
Vmov x0, x23
p2266
sg5
L18446743798839737088L
sg6
Nsg23
S'MOV'
p2267
sg25
S'0xffffffc0007b7b00L'
p2268
sg27
Nsba(ibclass
BInstr
p2269
(dp2270
g2
Nsg17
S'BL              venus_hfi_hand_off_regulators.isra.12'
p2271
sg19
S'61feff97'
p2272
sg21
Vbl #0xfffffffffffff984
p2273
sg5
L18446743798839737092L
sg6
Nsg23
S'BL'
p2274
sg25
S'0xffffffc0007b7b04L'
p2275
sg27
Nsba(ibclass
BInstr
p2276
(dp2277
g2
Nsg17
S'MOV             W3, W0'
p2278
sg19
S'e303002a'
p2279
sg21
Vmov w3, w0
p2280
sg5
L18446743798839737096L
sg6
Nsg23
S'MOV'
p2281
sg25
S'0xffffffc0007b7b08L'
p2282
sg27
Nsba(ibclass
BInstr
p2283
(dp2284
g2
Nsg17
S'CBZ             W0, loc_FFFFFFC0007B7B50'
p2285
sg19
S'20020034'
p2286
sg21
Vcbz w0, #0x44
p2287
sg5
L18446743798839737100L
sg6
Nsg23
S'CBZ'
p2288
sg25
S'0xffffffc0007b7b0cL'
p2289
sg27
Nsbasg84
(lp2290
S'MOV reg, reg3'
p2291
aS'BL venus_hfi_hand_off_regulators.isra.12'
p2292
aS'MOV reg, reg'
p2293
aS'CBZ reg, func'
p2294
asg95
Nsg5
S'0xffffffc0007b7b00L'
p2295
sg97
(lp2296
S'0xffffffc0007b7ab0L'
p2297
asg6
Nsg99
(lp2298
S'0xffffffc0007b7b10L'
p2299
aS'0xffffffc0007b7b50L'
p2300
asg103
Nsg104
Nsg105
S'f5246e006a605030327646fe1b99d696'
p2301
sg107
S'4210983b5f4367c16772133445214bde'
p2302
sg109
(lp2303
g2267
ag2274
ag2281
ag2288
asg111
Nsba(ibclass
BBasicBlock
p2304
(dp2305
g12
Nsg13
(lp2306
(ibclass
BInstr
p2307
(dp2308
g2
Nsg17
S'ADRP            X0, #qword_FFFFFFC000E458A0@PAGE'
p2309
sg19
S'603400d0'
p2310
sg21
Vadrp x0, #0x68e000
p2311
sg5
L18446743798839737104L
sg6
Nsg23
S'ADRP'
p2312
sg25
S'0xffffffc0007b7b10L'
p2313
sg27
Nsba(ibclass
BInstr
p2314
(dp2315
g2
Nsg17
S'LDR             X0, [X0,#qword_FFFFFFC000E458A0@PAGEOFF]'
p2316
sg19
S'005044f9'
p2317
sg21
Vldr x0, [x0, #0x8a0]
p2318
sg5
L18446743798839737108L
sg6
Nsg23
S'LDR'
p2319
sg25
S'0xffffffc0007b7b14L'
p2320
sg27
Nsba(ibclass
BInstr
p2321
(dp2322
g2
Nsg17
S'LDR             W0, [X0]'
p2323
sg19
S'000040b9'
p2324
sg21
Vldr w0, [x0]
p2325
sg5
L18446743798839737112L
sg6
Nsg23
S'LDR'
p2326
sg25
S'0xffffffc0007b7b18L'
p2327
sg27
Nsba(ibclass
BInstr
p2328
(dp2329
g2
Nsg17
S'TBZ             W0, #1, loc_FFFFFFC0007B7B50'
p2330
sg19
S'a0010836'
p2331
sg21
Vtbz w0, #1, #0x34
p2332
sg5
L18446743798839737116L
sg6
Nsg23
S'TBZ'
p2333
sg25
S'0xffffffc0007b7b1cL'
p2334
sg27
Nsbasg84
(lp2335
S'ADRP reg, #func@PAGE'
p2336
aS'LDR reg, mem'
p2337
aS'LDR reg, mem'
p2338
aS'TBZ reg, #1, func'
p2339
asg95
Nsg5
S'0xffffffc0007b7b10L'
p2340
sg97
(lp2341
S'0xffffffc0007b7b00L'
p2342
asg6
Nsg99
(lp2343
S'0xffffffc0007b7b20L'
p2344
aS'0xffffffc0007b7b50L'
p2345
asg103
Nsg104
Nsg105
S'2de94c9e326481f2f467f11acce8dcc9'
p2346
sg107
S'5a2df7748023b4b74960a558be39a089'
p2347
sg109
(lp2348
g2312
ag2319
ag2326
ag2333
asg111
Nsba(ibclass
BBasicBlock
p2349
(dp2350
g12
Nsg13
(lp2351
(ibclass
BInstr
p2352
(dp2353
g2
Nsg17
S'ADRP            X0, #qword_FFFFFFC000E43D48@PAGE'
p2354
sg19
S'60340090'
p2355
sg21
Vadrp x0, #0x68c000
p2356
sg5
L18446743798839737120L
sg6
Nsg23
S'ADRP'
p2357
sg25
S'0xffffffc0007b7b20L'
p2358
sg27
Nsba(ibclass
BInstr
p2359
(dp2360
g2
Nsg17
S'LDR             X0, [X0,#qword_FFFFFFC000E43D48@PAGEOFF]'
p2361
sg19
S'00a446f9'
p2362
sg21
Vldr x0, [x0, #0xd48]
p2363
sg5
L18446743798839737124L
sg6
Nsg23
S'LDR'
p2364
sg25
S'0xffffffc0007b7b24L'
p2365
sg27
Nsba(ibclass
BInstr
p2366
(dp2367
g2
Nsg17
S'LDR             W0, [X0]'
p2368
sg19
S'000040b9'
p2369
sg21
Vldr w0, [x0]
p2370
sg5
L18446743798839737128L
sg6
Nsg23
S'LDR'
p2371
sg25
S'0xffffffc0007b7b28L'
p2372
sg27
Nsba(ibclass
BInstr
p2373
(dp2374
g2
Nsg17
S'CBNZ            W0, loc_FFFFFFC0007B7B50'
p2375
sg19
S'20010035'
p2376
sg21
Vcbnz w0, #0x24
p2377
sg5
L18446743798839737132L
sg6
Nsg23
S'CBNZ'
p2378
sg25
S'0xffffffc0007b7b2cL'
p2379
sg27
Nsbasg84
(lp2380
S'ADRP reg, #func@PAGE'
p2381
aS'LDR reg, mem'
p2382
aS'LDR reg, mem'
p2383
aS'CBNZ reg, func'
p2384
asg95
Nsg5
S'0xffffffc0007b7b20L'
p2385
sg97
(lp2386
S'0xffffffc0007b7b10L'
p2387
asg6
Nsg99
(lp2388
S'0xffffffc0007b7b30L'
p2389
aS'0xffffffc0007b7b50L'
p2390
asg103
Nsg104
Nsg105
S'9c97521b8b0f280d47a50ec9a5e4f86f'
p2391
sg107
S'bd26f8893557dc5fa132ff2490be0ebf'
p2392
sg109
(lp2393
g2357
ag2364
ag2371
ag2378
asg111
Nsba(ibclass
BBasicBlock
p2394
(dp2395
g12
Nsg13
(lp2396
(ibclass
BInstr
p2397
(dp2398
g2
Nsg17
S'ADRP            X2, #__func__.33986@PAGE; "venus_hfi_suspend"'
p2399
sg19
S'824400f0'
p2400
sg21
Vadrp x2, #0x893000
p2401
sg5
L18446743798839737136L
sg6
Nsg23
S'ADRP'
p2402
sg25
S'0xffffffc0007b7b30L'
p2403
sg27
Nsba(ibclass
BInstr
p2404
(dp2405
g2
Nsg17
S'ADRP            X0, #unk_FFFFFFC0013BF381@PAGE'
p2406
sg19
S'40600090'
p2407
sg21
Vadrp x0, #0xc08000
p2408
sg5
L18446743798839737140L
sg6
Nsg23
S'ADRP'
p2409
sg25
S'0xffffffc0007b7b34L'
p2410
sg27
Nsba(ibclass
BInstr
p2411
(dp2412
g2
Nsg17
S'ADRP            X1, #aWarn@PAGE; "warn"'
p2413
sg19
S'e15f00d0'
p2414
sg21
Vadrp x1, #0xbfe000
p2415
sg5
L18446743798839737144L
sg6
Nsg23
S'ADRP'
p2416
sg25
S'0xffffffc0007b7b38L'
p2417
sg27
Nsba(ibclass
BInstr
p2418
(dp2419
g2
Nsg17
S'ADD             X2, X2, #__func__.33986@PAGEOFF; "venus_hfi_suspend"'
p2420
sg19
S'42201991'
p2421
sg21
Vadd x2, x2, #0x648
p2422
sg5
L18446743798839737148L
sg6
Nsg23
S'ADD'
p2423
sg25
S'0xffffffc0007b7b3cL'
p2424
sg27
Nsba(ibclass
BInstr
p2425
(dp2426
g2
Nsg17
S'ADD             X0, X0, #unk_FFFFFFC0013BF381@PAGEOFF'
p2427
sg19
S'00040e91'
p2428
sg21
Vadd x0, x0, #0x381
p2429
sg5
L18446743798839737152L
sg6
Nsg23
S'ADD'
p2430
sg25
S'0xffffffc0007b7b40L'
p2431
sg27
Nsba(ibclass
BInstr
p2432
(dp2433
g2
Nsg17
S'ADD             X1, X1, #aWarn@PAGEOFF; "warn"'
p2434
sg19
S'21281691'
p2435
sg21
Vadd x1, x1, #0x58a
p2436
sg5
L18446743798839737156L
sg6
Nsg23
S'ADD'
p2437
sg25
S'0xffffffc0007b7b44L'
p2438
sg27
Nsba(ibclass
BInstr
p2439
(dp2440
g2
Nsg17
S'ADD             X2, X2, #0x98'
p2441
sg19
S'42600291'
p2442
sg21
Vadd x2, x2, #0x98
p2443
sg5
L18446743798839737160L
sg6
Nsg23
S'ADD'
p2444
sg25
S'0xffffffc0007b7b48L'
p2445
sg27
Nsba(ibclass
BInstr
p2446
(dp2447
g2
Nsg17
S'BL              printk'
p2448
sg19
S'c7db1994'
p2449
sg21
Vbl #0x676f1c
p2450
sg5
L18446743798839737164L
sg6
Nsg23
S'BL'
p2451
sg25
S'0xffffffc0007b7b4cL'
p2452
sg27
Nsbasg84
(lp2453
S'ADRP reg, #__func__.33986@PAGE'
p2454
aS'ADRP reg, #func@PAGE'
p2455
aS'ADRP reg, #aWarn@PAGE'
p2456
aS'ADD reg, reg, #__func__.33986@PAGEOFF'
p2457
aS'ADD reg, reg, #func@PAGEOFF'
p2458
aS'ADD reg, reg, #aWarn@PAGEOFF'
p2459
aS'ADD reg, reg, #0x98'
p2460
aS'BL printk'
p2461
asg95
Nsg5
S'0xffffffc0007b7b30L'
p2462
sg97
(lp2463
S'0xffffffc0007b7b20L'
p2464
asg6
Nsg99
(lp2465
S'0xffffffc0007b7b50L'
p2466
asg103
Nsg104
Nsg105
S'99acf08af43df42f68f68c3b9bebdce7'
p2467
sg107
S'de074b93764366762fb73dd0b4a902c9'
p2468
sg109
(lp2469
g2402
ag2409
ag2416
ag2423
ag2430
ag2437
ag2444
ag2451
asg111
Nsba(ibclass
BBasicBlock
p2470
(dp2471
g12
Nsg13
(lp2472
(ibclass
BInstr
p2473
(dp2474
g2
Nsg17
S'LDR             X0, [X19,#0x248]'
p2475
sg19
S'602641f9'
p2476
sg21
Vldr x0, [x19, #0x248]
p2477
sg5
L18446743798839737168L
sg6
Nsg23
S'LDR'
p2478
sg25
S'0xffffffc0007b7b50L'
p2479
sg27
Nsba(ibclass
BInstr
p2480
(dp2481
g2
Nsg17
S'LDRB            W1, [X0,#0xA9]'
p2482
sg19
S'01a44239'
p2483
sg21
Vldrb w1, [x0, #0xa9]
p2484
sg5
L18446743798839737172L
sg6
Nsg23
S'LDR'
p2485
sg25
S'0xffffffc0007b7b54L'
p2486
sg27
Nsba(ibclass
BInstr
p2487
(dp2488
g2
Nsg17
S'CBNZ            W1, loc_FFFFFFC0007B7BAC'
p2489
sg19
S'a1020035'
p2490
sg21
Vcbnz w1, #0x54
p2491
sg5
L18446743798839737176L
sg6
Nsg23
S'CBNZ'
p2492
sg25
S'0xffffffc0007b7b58L'
p2493
sg27
Nsbasg84
(lp2494
S'LDR reg, mem'
p2495
aS'LDRB reg, mem'
p2496
aS'CBNZ reg, func'
p2497
asg95
Nsg5
S'0xffffffc0007b7b50L'
p2498
sg97
(lp2499
S'0xffffffc0007b7ac8L'
p2500
aS'0xffffffc0007b7ad8L'
p2501
aS'0xffffffc0007b7ae8L'
p2502
aS'0xffffffc0007b7b00L'
p2503
aS'0xffffffc0007b7b10L'
p2504
aS'0xffffffc0007b7b20L'
p2505
aS'0xffffffc0007b7b30L'
p2506
asg6
Nsg99
(lp2507
S'0xffffffc0007b7b5cL'
p2508
aS'0xffffffc0007b7bacL'
p2509
asg103
Nsg104
Nsg105
S'f99d4c26198b49c08607b4e65321097b'
p2510
sg107
S'7bb75e5deffa28f18458f77e629fad50'
p2511
sg109
(lp2512
g2478
ag2485
ag2492
asg111
Nsba(ibclass
BBasicBlock
p2513
(dp2514
g12
Nsg13
(lp2515
(ibclass
BInstr
p2516
(dp2517
g2
Nsg17
S'LDR             X0, [X0]'
p2518
sg19
S'000040f9'
p2519
sg21
Vldr x0, [x0]
p2520
sg5
L18446743798839737180L
sg6
Nsg23
S'LDR'
p2521
sg25
S'0xffffffc0007b7b5cL'
p2522
sg27
Nsba(ibclass
BInstr
p2523
(dp2524
g2
Nsg17
S'CBNZ            X0, loc_FFFFFFC0007B7BAC'
p2525
sg19
S'600200b5'
p2526
sg21
Vcbnz x0, #0x4c
p2527
sg5
L18446743798839737184L
sg6
Nsg23
S'CBNZ'
p2528
sg25
S'0xffffffc0007b7b60L'
p2529
sg27
Nsbasg84
(lp2530
S'LDR reg, mem'
p2531
aS'CBNZ reg, func'
p2532
asg95
Nsg5
S'0xffffffc0007b7b5cL'
p2533
sg97
(lp2534
S'0xffffffc0007b7b50L'
p2535
asg6
Nsg99
(lp2536
S'0xffffffc0007b7b64L'
p2537
aS'0xffffffc0007b7bacL'
p2538
asg103
Nsg104
Nsg105
S'5522ad3e8b25e3a8f9013bb9571723e7'
p2539
sg107
S'7604765c3c810c2510cc031abcc4f1e2'
p2540
sg109
(lp2541
g2521
ag2528
asg111
Nsba(ibclass
BBasicBlock
p2542
(dp2543
g12
Nsg13
(lp2544
(ibclass
BInstr
p2545
(dp2546
g2
Nsg17
S'MOV             X0, X19'
p2547
sg19
S'e00313aa'
p2548
sg21
Vmov x0, x19
p2549
sg5
L18446743798839737188L
sg6
Nsg23
S'MOV'
p2550
sg25
S'0xffffffc0007b7b64L'
p2551
sg27
Nsba(ibclass
BInstr
p2552
(dp2553
g2
Nsg17
S'BL              protect_cp_mem'
p2554
sg19
S'45faff97'
p2555
sg21
Vbl #0xffffffffffffe914
p2556
sg5
L18446743798839737192L
sg6
Nsg23
S'BL'
p2557
sg25
S'0xffffffc0007b7b68L'
p2558
sg27
Nsba(ibclass
BInstr
p2559
(dp2560
g2
Nsg17
S'MOV             W20, W0'
p2561
sg19
S'f403002a'
p2562
sg21
Vmov w20, w0
p2563
sg5
L18446743798839737196L
sg6
Nsg23
S'MOV'
p2564
sg25
S'0xffffffc0007b7b6cL'
p2565
sg27
Nsba(ibclass
BInstr
p2566
(dp2567
g2
Nsg17
S'CBZ             W0, loc_FFFFFFC0007B7BAC'
p2568
sg19
S'e0010034'
p2569
sg21
Vcbz w0, #0x3c
p2570
sg5
L18446743798839737200L
sg6
Nsg23
S'CBZ'
p2571
sg25
S'0xffffffc0007b7b70L'
p2572
sg27
Nsbasg84
(lp2573
S'MOV reg, reg9'
p2574
aS'BL protect_cp_mem'
p2575
aS'MOV reg0, reg'
p2576
aS'CBZ reg, func'
p2577
asg95
Nsg5
S'0xffffffc0007b7b64L'
p2578
sg97
(lp2579
S'0xffffffc0007b7b5cL'
p2580
asg6
Nsg99
(lp2581
S'0xffffffc0007b7b74L'
p2582
aS'0xffffffc0007b7bacL'
p2583
asg103
Nsg104
Nsg105
S'f5246e006a605030327646fe1b99d696'
p2584
sg107
S'fbf87a2c5c93e838e05200cceb22d07a'
p2585
sg109
(lp2586
g2550
ag2557
ag2564
ag2571
asg111
Nsba(ibclass
BBasicBlock
p2587
(dp2588
g12
Nsg13
(lp2589
(ibclass
BInstr
p2590
(dp2591
g2
Nsg17
S'ADRP            X0, #qword_FFFFFFC000E458A0@PAGE'
p2592
sg19
S'603400d0'
p2593
sg21
Vadrp x0, #0x68e000
p2594
sg5
L18446743798839737204L
sg6
Nsg23
S'ADRP'
p2595
sg25
S'0xffffffc0007b7b74L'
p2596
sg27
Nsba(ibclass
BInstr
p2597
(dp2598
g2
Nsg17
S'LDR             X0, [X0,#qword_FFFFFFC000E458A0@PAGEOFF]'
p2599
sg19
S'005044f9'
p2600
sg21
Vldr x0, [x0, #0x8a0]
p2601
sg5
L18446743798839737208L
sg6
Nsg23
S'LDR'
p2602
sg25
S'0xffffffc0007b7b78L'
p2603
sg27
Nsba(ibclass
BInstr
p2604
(dp2605
g2
Nsg17
S'LDR             W0, [X0]'
p2606
sg19
S'000040b9'
p2607
sg21
Vldr w0, [x0]
p2608
sg5
L18446743798839737212L
sg6
Nsg23
S'LDR'
p2609
sg25
S'0xffffffc0007b7b7cL'
p2610
sg27
Nsba(ibclass
BInstr
p2611
(dp2612
g2
Nsg17
S'TBZ             W0, #0, loc_FFFFFFC0007B7C30'
p2613
sg19
S'80050036'
p2614
sg21
Vtbz w0, #0, #0xb0
p2615
sg5
L18446743798839737216L
sg6
Nsg23
S'TBZ'
p2616
sg25
S'0xffffffc0007b7b80L'
p2617
sg27
Nsbasg84
(lp2618
S'ADRP reg, #func@PAGE'
p2619
aS'LDR reg, mem'
p2620
aS'LDR reg, mem'
p2621
aS'TBZ reg, #0, func'
p2622
asg95
Nsg5
S'0xffffffc0007b7b74L'
p2623
sg97
(lp2624
S'0xffffffc0007b7b64L'
p2625
asg6
Nsg99
(lp2626
S'0xffffffc0007b7b84L'
p2627
aS'0xffffffc0007b7c30L'
p2628
asg103
Nsg104
Nsg105
S'2de94c9e326481f2f467f11acce8dcc9'
p2629
sg107
S'f9f7225e2bae36aff04e5d93bafe5e1d'
p2630
sg109
(lp2631
g2595
ag2602
ag2609
ag2616
asg111
Nsba(ibclass
BBasicBlock
p2632
(dp2633
g12
Nsg13
(lp2634
(ibclass
BInstr
p2635
(dp2636
g2
Nsg17
S'ADRP            X0, #qword_FFFFFFC000E43D48@PAGE'
p2637
sg19
S'60340090'
p2638
sg21
Vadrp x0, #0x68c000
p2639
sg5
L18446743798839737220L
sg6
Nsg23
S'ADRP'
p2640
sg25
S'0xffffffc0007b7b84L'
p2641
sg27
Nsba(ibclass
BInstr
p2642
(dp2643
g2
Nsg17
S'LDR             X0, [X0,#qword_FFFFFFC000E43D48@PAGEOFF]'
p2644
sg19
S'00a446f9'
p2645
sg21
Vldr x0, [x0, #0xd48]
p2646
sg5
L18446743798839737224L
sg6
Nsg23
S'LDR'
p2647
sg25
S'0xffffffc0007b7b88L'
p2648
sg27
Nsba(ibclass
BInstr
p2649
(dp2650
g2
Nsg17
S'LDR             W0, [X0]'
p2651
sg19
S'000040b9'
p2652
sg21
Vldr w0, [x0]
p2653
sg5
L18446743798839737228L
sg6
Nsg23
S'LDR'
p2654
sg25
S'0xffffffc0007b7b8cL'
p2655
sg27
Nsba(ibclass
BInstr
p2656
(dp2657
g2
Nsg17
S'CBNZ            W0, loc_FFFFFFC0007B7C30'
p2658
sg19
S'00050035'
p2659
sg21
Vcbnz w0, #0xa0
p2660
sg5
L18446743798839737232L
sg6
Nsg23
S'CBNZ'
p2661
sg25
S'0xffffffc0007b7b90L'
p2662
sg27
Nsbasg84
(lp2663
S'ADRP reg, #func@PAGE'
p2664
aS'LDR reg, mem'
p2665
aS'LDR reg, mem'
p2666
aS'CBNZ reg, func'
p2667
asg95
Nsg5
S'0xffffffc0007b7b84L'
p2668
sg97
(lp2669
S'0xffffffc0007b7b74L'
p2670
asg6
Nsg99
(lp2671
S'0xffffffc0007b7b94L'
p2672
aS'0xffffffc0007b7c30L'
p2673
asg103
Nsg104
Nsg105
S'9c97521b8b0f280d47a50ec9a5e4f86f'
p2674
sg107
S'bd26f8893557dc5fa132ff2490be0ebf'
p2675
sg109
(lp2676
g2640
ag2647
ag2654
ag2661
asg111
Nsba(ibclass
BBasicBlock
p2677
(dp2678
g12
Nsg13
(lp2679
(ibclass
BInstr
p2680
(dp2681
g2
Nsg17
S'ADRP            X0, #unk_FFFFFFC0013BF3BE@PAGE'
p2682
sg19
S'40600090'
p2683
sg21
Vadrp x0, #0xc08000
p2684
sg5
L18446743798839737236L
sg6
Nsg23
S'ADRP'
p2685
sg25
S'0xffffffc0007b7b94L'
p2686
sg27
Nsba(ibclass
BInstr
p2687
(dp2688
g2
Nsg17
S'ADRP            X1, #(aQcomMdssDsi_17+0x1B)@PAGE; "err"'
p2689
sg19
S'c15b0090'
p2690
sg21
Vadrp x1, #0xb78000
p2691
sg5
L18446743798839737240L
sg6
Nsg23
S'ADRP'
p2692
sg25
S'0xffffffc0007b7b98L'
p2693
sg27
Nsba(ibclass
BInstr
p2694
(dp2695
g2
Nsg17
S'ADD             X1, X1, #(aQcomMdssDsi_17+0x1B)@PAGEOFF; "err"'
p2696
sg19
S'21800091'
p2697
sg21
Vadd x1, x1, #0x20
p2698
sg5
L18446743798839737244L
sg6
Nsg23
S'ADD'
p2699
sg25
S'0xffffffc0007b7b9cL'
p2700
sg27
Nsba(ibclass
BInstr
p2701
(dp2702
g2
Nsg17
S'ADD             X0, X0, #unk_FFFFFFC0013BF3BE@PAGEOFF'
p2703
sg19
S'00f80e91'
p2704
sg21
Vadd x0, x0, #0x3be
p2705
sg5
L18446743798839737248L
sg6
Nsg23
S'ADD'
p2706
sg25
S'0xffffffc0007b7ba0L'
p2707
sg27
Nsba(ibclass
BInstr
p2708
(dp2709
g2
Nsg17
S'BL              printk'
p2710
sg19
S'b1db1994'
p2711
sg21
Vbl #0x676ec4
p2712
sg5
L18446743798839737252L
sg6
Nsg23
S'BL'
p2713
sg25
S'0xffffffc0007b7ba4L'
p2714
sg27
Nsba(ibclass
BInstr
p2715
(dp2716
g2
Nsg17
S'B               loc_FFFFFFC0007B7C30'
p2717
sg19
S'22000014'
p2718
sg21
Vb #0x88
p2719
sg5
L18446743798839737256L
sg6
Nsg23
g281
sg25
S'0xffffffc0007b7ba8L'
p2720
sg27
Nsbasg84
(lp2721
S'ADRP reg, #func@PAGE'
p2722
aS'ADRP reg, #(aQcomMdssDsi_17+0x1B)@PAGE'
p2723
aS'ADD reg, reg, #(aQcomMdssDsi_17+0x1B)@PAGEOFF'
p2724
aS'ADD reg, reg, #func@PAGEOFF'
p2725
aS'BL printk'
p2726
aS'B func'
p2727
asg95
Nsg5
S'0xffffffc0007b7b94L'
p2728
sg97
(lp2729
S'0xffffffc0007b7b84L'
p2730
asg6
Nsg99
(lp2731
S'0xffffffc0007b7c30L'
p2732
asg103
Nsg104
Nsg105
S'b2a3927201f2643e37e238d870ced3c2'
p2733
sg107
S'3e167cdac8f124cfbacea29ee5c30eb0'
p2734
sg109
(lp2735
g2685
ag2692
ag2699
ag2706
ag2713
ag281
asg111
Nsba(ibclass
BBasicBlock
p2736
(dp2737
g12
Nsg13
(lp2738
(ibclass
BInstr
p2739
(dp2740
g2
Nsg17
S'ADRP            X0, #qword_FFFFFFC000E486F0@PAGE'
p2741
sg19
S'803400b0'
p2742
sg21
Vadrp x0, #0x691000
p2743
sg5
L18446743798839737260L
sg6
Nsg23
S'ADRP'
p2744
sg25
S'0xffffffc0007b7bacL'
p2745
sg27
Nsba(ibclass
BInstr
p2746
(dp2747
g2
Nsg17
S'LDR             X1, [X0,#qword_FFFFFFC000E486F0@PAGEOFF]'
p2748
sg19
S'017843f9'
p2749
sg21
Vldr x1, [x0, #0x6f0]
p2750
sg5
L18446743798839737264L
sg6
Nsg23
S'LDR'
p2751
sg25
S'0xffffffc0007b7bb0L'
p2752
sg27
Nsba(ibclass
BInstr
p2753
(dp2754
g2
Nsg17
S'LDR             W2, [X1,#8]'
p2755
sg19
S'220840b9'
p2756
sg21
Vldr w2, [x1, #8]
p2757
sg5
L18446743798839737268L
sg6
Nsg23
S'LDR'
p2758
sg25
S'0xffffffc0007b7bb4L'
p2759
sg27
Nsba(ibclass
BInstr
p2760
(dp2761
g2
Nsg17
S'MOV             X1, X0'
p2762
sg19
S'e10300aa'
p2763
sg21
Vmov x1, x0
p2764
sg5
L18446743798839737272L
sg6
Nsg23
S'MOV'
p2765
sg25
S'0xffffffc0007b7bb8L'
p2766
sg27
Nsba(ibclass
BInstr
p2767
(dp2768
g2
Nsg17
S'CBZ             W2, loc_FFFFFFC0007B7C28'
p2769
sg19
S'62030034'
p2770
sg21
Vcbz w2, #0x6c
p2771
sg5
L18446743798839737276L
sg6
Nsg23
S'CBZ'
p2772
sg25
S'0xffffffc0007b7bbcL'
p2773
sg27
Nsbasg84
(lp2774
S'ADRP reg, #func@PAGE'
p2775
aS'LDR reg, mem'
p2776
aS'LDR reg, mem'
p2777
aS'MOV reg, reg'
p2778
aS'CBZ reg, func'
p2779
asg95
Nsg5
S'0xffffffc0007b7bacL'
p2780
sg97
(lp2781
S'0xffffffc0007b7b50L'
p2782
aS'0xffffffc0007b7b5cL'
p2783
aS'0xffffffc0007b7b64L'
p2784
asg6
Nsg99
(lp2785
S'0xffffffc0007b7bc0L'
p2786
aS'0xffffffc0007b7c28L'
p2787
asg103
Nsg104
Nsg105
S'035a29e270946bb0185210eaaed17497'
p2788
sg107
S'a9e53a08de38a44669999560b88ca80e'
p2789
sg109
(lp2790
g2744
ag2751
ag2758
ag2765
ag2772
asg111
Nsba(ibclass
BBasicBlock
p2791
(dp2792
g12
Nsg13
(lp2793
(ibclass
BInstr
p2794
(dp2795
g2
Nsg17
S'MOV             X2, SP'
p2796
sg19
S'e2030091'
p2797
sg21
Vmov x2, sp
p2798
sg5
L18446743798839737280L
sg6
Nsg23
S'MOV'
p2799
sg25
S'0xffffffc0007b7bc0L'
p2800
sg27
Nsba(ibclass
BInstr
p2801
(dp2802
g2
Nsg17
S'AND             X0, X2, #0xFFFFFFFFFFFFC000'
p2803
sg19
S'40c47292'
p2804
sg21
Vand x0, x2, #0xffffffffffffc000
p2805
sg5
L18446743798839737284L
sg6
Nsg23
S'AND'
p2806
sg25
S'0xffffffc0007b7bc4L'
p2807
sg27
Nsba(ibclass
BInstr
p2808
(dp2809
g2
Nsg17
S'LDR             W2, [X0,#0x50]'
p2810
sg19
S'025040b9'
p2811
sg21
Vldr w2, [x0, #0x50]
p2812
sg5
L18446743798839737288L
sg6
Nsg23
S'LDR'
p2813
sg25
S'0xffffffc0007b7bc8L'
p2814
sg27
Nsba(ibclass
BInstr
p2815
(dp2816
g2
Nsg17
S'ADD             W2, W2, #1'
p2817
sg19
S'42040011'
p2818
sg21
Vadd w2, w2, #1
p2819
sg5
L18446743798839737292L
sg6
Nsg23
S'ADD'
p2820
sg25
S'0xffffffc0007b7bccL'
p2821
sg27
Nsba(ibclass
BInstr
p2822
(dp2823
g2
Nsg17
S'STR             W2, [X0,#0x50]'
p2824
sg19
S'025000b9'
p2825
sg21
Vstr w2, [x0, #0x50]
p2826
sg5
L18446743798839737296L
sg6
Nsg23
S'STR'
p2827
sg25
S'0xffffffc0007b7bd0L'
p2828
sg27
Nsba(ibclass
BInstr
p2829
(dp2830
g2
Nsg17
S'LDR             X0, [X1,#(qword_FFFFFFC000E486F0 - 0xFFFFFFC000E48000)]'
p2831
sg19
S'207843f9'
p2832
sg21
Vldr x0, [x1, #0x6f0]
p2833
sg5
L18446743798839737300L
sg6
Nsg23
S'LDR'
p2834
sg25
S'0xffffffc0007b7bd4L'
p2835
sg27
Nsba(ibclass
BInstr
p2836
(dp2837
g2
Nsg17
S'LDR             X19, [X0,#0x20]'
p2838
sg19
S'131040f9'
p2839
sg21
Vldr x19, [x0, #0x20]
p2840
sg5
L18446743798839737304L
sg6
Nsg23
S'LDR'
p2841
sg25
S'0xffffffc0007b7bd8L'
p2842
sg27
Nsba(ibclass
BInstr
p2843
(dp2844
g2
Nsg17
S'MOV             X0, SP'
p2845
sg19
S'e0030091'
p2846
sg21
Vmov x0, sp
p2847
sg5
L18446743798839737308L
sg6
Nsg23
S'MOV'
p2848
sg25
S'0xffffffc0007b7bdcL'
p2849
sg27
Nsba(ibclass
BInstr
p2850
(dp2851
g2
Nsg17
S'AND             X20, X0, #0xFFFFFFFFFFFFC000'
p2852
sg19
S'14c47292'
p2853
sg21
Vand x20, x0, #0xffffffffffffc000
p2854
sg5
L18446743798839737312L
sg6
Nsg23
S'AND'
p2855
sg25
S'0xffffffc0007b7be0L'
p2856
sg27
Nsba(ibclass
BInstr
p2857
(dp2858
g2
Nsg17
S'CBZ             X19, loc_FFFFFFC0007B7C08'
p2859
sg19
S'330100b4'
p2860
sg21
Vcbz x19, #0x24
p2861
sg5
L18446743798839737316L
sg6
Nsg23
S'CBZ'
p2862
sg25
S'0xffffffc0007b7be4L'
p2863
sg27
Nsbasg84
(lp2864
S'MOV reg, SP'
p2865
aS'AND reg, reg, #0xFFFFFFFFFFFFC000'
p2866
aS'LDR reg, mem'
p2867
aS'ADD reg, reg, #1'
p2868
aS'STR reg, mem'
p2869
aS'LDR reg, mem'
p2870
aS'LDR reg9, mem'
p2871
aS'MOV reg, SP'
p2872
aS'AND reg0, reg, #0xFFFFFFFFFFFFC000'
p2873
aS'CBZ reg9, func'
p2874
asg95
Nsg5
S'0xffffffc0007b7bc0L'
p2875
sg97
(lp2876
S'0xffffffc0007b7bacL'
p2877
asg6
Nsg99
(lp2878
S'0xffffffc0007b7be8L'
p2879
aS'0xffffffc0007b7c08L'
p2880
asg103
Nsg104
Nsg105
S'17565935db79b1349000da327327877e'
p2881
sg107
S'f711232f864bafed2ea85464a4bc8bc9'
p2882
sg109
(lp2883
g2799
ag2806
ag2813
ag2820
ag2827
ag2834
ag2841
ag2848
ag2855
ag2862
asg111
Nsba(ibclass
BBasicBlock
p2884
(dp2885
g12
Nsg13
(lp2886
(ibclass
BInstr
p2887
(dp2888
g2
Nsg17
S'ADRP            X21, #aMsm_v4l2_vid_0@PAGE; "msm_v4l2_vidc venus_fw load end"'
p2889
sg19
S'55600090'
p2890
sg21
Vadrp x21, #0xc08000
p2891
sg5
L18446743798839737320L
sg6
Nsg23
S'ADRP'
p2892
sg25
S'0xffffffc0007b7be8L'
p2893
sg27
Nsba(ibclass
BInstr
p2894
(dp2895
g2
Nsg17
S'ADD             X21, X21, #aMsm_v4l2_vid_0@PAGEOFF; "msm_v4l2_vidc venus_fw load end"'
p2896
sg19
S'b5a60f91'
p2897
sg21
Vadd x21, x21, #0x3e9
p2898
sg5
L18446743798839737324L
sg6
Nsg23
S'ADD'
p2899
sg25
S'0xffffffc0007b7becL'
p2900
sg27
Nsbasg84
(lp2901
S'ADRP reg1, #aMsm_v4l2_vid_0@PAGE'
p2902
aS'ADD reg1, reg1, #aMsm_v4l2_vid_0@PAGEOFF'
p2903
asg95
Nsg5
S'0xffffffc0007b7be8L'
p2904
sg97
(lp2905
S'0xffffffc0007b7bc0L'
p2906
asg6
Nsg99
(lp2907
S'0xffffffc0007b7bf0L'
p2908
asg103
Nsg104
Nsg105
S'4c330fd47d9d30794e360f434bcba16f'
p2909
sg107
S'e695ff5bdd72f5030dad6f1a9fc30a40'
p2910
sg109
(lp2911
g2892
ag2899
asg111
Nsba(ibclass
BBasicBlock
p2912
(dp2913
g12
Nsg13
(lp2914
(ibclass
BInstr
p2915
(dp2916
g2
Nsg17
S'LDR             X2, [X19]'
p2917
sg19
S'620240f9'
p2918
sg21
Vldr x2, [x19]
p2919
sg5
L18446743798839737328L
sg6
Nsg23
S'LDR'
p2920
sg25
S'0xffffffc0007b7bf0L'
p2921
sg27
Nsba(ibclass
BInstr
p2922
(dp2923
g2
Nsg17
S'LDR             X0, [X19,#8]'
p2924
sg19
S'600640f9'
p2925
sg21
Vldr x0, [x19, #8]
p2926
sg5
L18446743798839737332L
sg6
Nsg23
S'LDR'
p2927
sg25
S'0xffffffc0007b7bf4L'
p2928
sg27
Nsba(ibclass
BInstr
p2929
(dp2930
g2
Nsg17
S'MOV             X1, X21'
p2931
sg19
S'e10315aa'
p2932
sg21
Vmov x1, x21
p2933
sg5
L18446743798839737336L
sg6
Nsg23
S'MOV'
p2934
sg25
S'0xffffffc0007b7bf8L'
p2935
sg27
Nsba(ibclass
BInstr
p2936
(dp2937
g2
Nsg17
S'BLR             X2'
p2938
sg19
S'40003fd6'
p2939
sg21
Vblr x2
p2940
sg5
L18446743798839737340L
sg6
Nsg23
S'BLR'
p2941
sg25
S'0xffffffc0007b7bfcL'
p2942
sg27
Nsba(ibclass
BInstr
p2943
(dp2944
g2
Nsg17
S'LDR             X0, [X19,#0x10]!'
p2945
sg19
S'600e41f8'
p2946
sg21
Vldr x0, [x19, #0x10]!
p2947
sg5
L18446743798839737344L
sg6
Nsg23
S'LDR'
p2948
sg25
S'0xffffffc0007b7c00L'
p2949
sg27
Nsba(ibclass
BInstr
p2950
(dp2951
g2
Nsg17
S'CBNZ            X0, loc_FFFFFFC0007B7BF0'
p2952
sg19
S'60ffffb5'
p2953
sg21
Vcbnz x0, #0xffffffffffffffec
p2954
sg5
L18446743798839737348L
sg6
Nsg23
S'CBNZ'
p2955
sg25
S'0xffffffc0007b7c04L'
p2956
sg27
Nsbasg84
(lp2957
S'LDR reg, mem'
p2958
aS'LDR reg, mem'
p2959
aS'MOV reg, reg1'
p2960
aS'BLR reg'
p2961
aS'LDR reg, mem!'
p2962
aS'CBNZ reg, func'
p2963
asg95
Nsg5
S'0xffffffc0007b7bf0L'
p2964
sg97
(lp2965
S'0xffffffc0007b7be8L'
p2966
aS'0xffffffc0007b7bf0L'
p2967
asg6
Nsg99
(lp2968
S'0xffffffc0007b7c08L'
p2969
aS'0xffffffc0007b7bf0L'
p2970
asg103
Nsg104
Nsg105
S'6f4700400ea687c0354cc9bbd60667ec'
p2971
sg107
S'48f442808fa2bfa5bbb5f3a4ec453e76'
p2972
sg109
(lp2973
g2920
ag2927
ag2934
ag2941
ag2948
ag2955
asg111
Nsba(ibclass
BBasicBlock
p2974
(dp2975
g12
Nsg13
(lp2976
(ibclass
BInstr
p2977
(dp2978
g2
Nsg17
S'LDR             W0, [X20,#0x50]'
p2979
sg19
S'805240b9'
p2980
sg21
Vldr w0, [x20, #0x50]
p2981
sg5
L18446743798839737352L
sg6
Nsg23
S'LDR'
p2982
sg25
S'0xffffffc0007b7c08L'
p2983
sg27
Nsba(ibclass
BInstr
p2984
(dp2985
g2
Nsg17
S'SUB             W0, W0, #1'
p2986
sg19
S'00040051'
p2987
sg21
Vsub w0, w0, #1
p2988
sg5
L18446743798839737356L
sg6
Nsg23
S'SUB'
p2989
sg25
S'0xffffffc0007b7c0cL'
p2990
sg27
Nsba(ibclass
BInstr
p2991
(dp2992
g2
Nsg17
S'STR             W0, [X20,#0x50]'
p2993
sg19
S'805200b9'
p2994
sg21
Vstr w0, [x20, #0x50]
p2995
sg5
L18446743798839737360L
sg6
Nsg23
S'STR'
p2996
sg25
S'0xffffffc0007b7c10L'
p2997
sg27
Nsba(ibclass
BInstr
p2998
(dp2999
g2
Nsg17
S'MOV             X1, SP'
p3000
sg19
S'e1030091'
p3001
sg21
Vmov x1, sp
p3002
sg5
L18446743798839737364L
sg6
Nsg23
S'MOV'
p3003
sg25
S'0xffffffc0007b7c14L'
p3004
sg27
Nsba(ibclass
BInstr
p3005
(dp3006
g2
Nsg17
S'AND             X0, X1, #0xFFFFFFFFFFFFC000'
p3007
sg19
S'20c47292'
p3008
sg21
Vand x0, x1, #0xffffffffffffc000
p3009
sg5
L18446743798839737368L
sg6
Nsg23
S'AND'
p3010
sg25
S'0xffffffc0007b7c18L'
p3011
sg27
Nsba(ibclass
BInstr
p3012
(dp3013
g2
Nsg17
S'LDR             X0, [X0]'
p3014
sg19
S'000040f9'
p3015
sg21
Vldr x0, [x0]
p3016
sg5
L18446743798839737372L
sg6
Nsg23
S'LDR'
p3017
sg25
S'0xffffffc0007b7c1cL'
p3018
sg27
Nsba(ibclass
BInstr
p3019
(dp3020
g2
Nsg17
S'TBZ             W0, #1, loc_FFFFFFC0007B7C28'
p3021
sg19
S'40000836'
p3022
sg21
Vtbz w0, #1, #8
p3023
sg5
L18446743798839737376L
sg6
Nsg23
S'TBZ'
p3024
sg25
S'0xffffffc0007b7c20L'
p3025
sg27
Nsbasg84
(lp3026
S'LDR reg, mem'
p3027
aS'SUB reg, reg, #1'
p3028
aS'STR reg, mem'
p3029
aS'MOV reg, SP'
p3030
aS'AND reg, reg, #0xFFFFFFFFFFFFC000'
p3031
aS'LDR reg, mem'
p3032
aS'TBZ reg, #1, func'
p3033
asg95
Nsg5
S'0xffffffc0007b7c08L'
p3034
sg97
(lp3035
S'0xffffffc0007b7bc0L'
p3036
aS'0xffffffc0007b7bf0L'
p3037
asg6
Nsg99
(lp3038
S'0xffffffc0007b7c24L'
p3039
aS'0xffffffc0007b7c28L'
p3040
asg103
Nsg104
Nsg105
S'3720064751a364c91ffbeb0560410e63'
p3041
sg107
S'37582c0faffe5543c0f071979b371e8c'
p3042
sg109
(lp3043
g2982
ag2989
ag2996
ag3003
ag3010
ag3017
ag3024
asg111
Nsba(ibclass
BBasicBlock
p3044
(dp3045
g12
Nsg13
(lp3046
(ibclass
BInstr
p3047
(dp3048
g2
Nsg17
S'BL              preempt_schedule'
p3049
sg19
S'29121a94'
p3050
sg21
Vbl #0x6848a4
p3051
sg5
L18446743798839737380L
sg6
Nsg23
S'BL'
p3052
sg25
S'0xffffffc0007b7c24L'
p3053
sg27
Nsbasg84
(lp3054
S'BL preempt_schedule'
p3055
asg95
Nsg5
S'0xffffffc0007b7c24L'
p3056
sg97
(lp3057
S'0xffffffc0007b7c08L'
p3058
asg6
Nsg99
(lp3059
S'0xffffffc0007b7c28L'
p3060
asg103
Nsg104
Nsg105
S'a6f5350f5a2b25a96d66757f761ce65c'
p3061
sg107
S'abf5f2d6f93e306e960abf1c303135c2'
p3062
sg109
(lp3063
g3052
asg111
Nsba(ibclass
BBasicBlock
p3064
(dp3065
g12
Nsg13
(lp3066
(ibclass
BInstr
p3067
(dp3068
g2
Nsg17
S'MOV             W20, #0'
p3069
sg19
S'14008052'
p3070
sg21
Vmovz w20, #0
p3071
sg5
L18446743798839737384L
sg6
Nsg23
S'MOV'
p3072
sg25
S'0xffffffc0007b7c28L'
p3073
sg27
Nsba(ibclass
BInstr
p3074
(dp3075
g2
Nsg17
S'B               loc_FFFFFFC0007B7F20'
p3076
sg19
S'bd000014'
p3077
sg21
Vb #0x2f4
p3078
sg5
L18446743798839737388L
sg6
Nsg23
g281
sg25
S'0xffffffc0007b7c2cL'
p3079
sg27
Nsbasg84
(lp3080
S'MOV reg0, #0'
p3081
aS'B func'
p3082
asg95
Nsg5
S'0xffffffc0007b7c28L'
p3083
sg97
(lp3084
S'0xffffffc0007b7bacL'
p3085
aS'0xffffffc0007b7c08L'
p3086
aS'0xffffffc0007b7c24L'
p3087
asg6
Nsg99
(lp3088
S'0xffffffc0007b7f20L'
p3089
asg103
Nsg104
Nsg105
S'b6c4e95ccfe77a95e4cf2019dd3d5574'
p3090
sg107
S'817c453f1cf7b583cc9ae8e413663636'
p3091
sg109
(lp3092
g3072
ag281
asg111
Nsba(ibclass
BBasicBlock
p3093
(dp3094
g12
Nsg13
(lp3095
(ibclass
BInstr
p3096
(dp3097
g2
Nsg17
S'LDR             X0, [X19,#0x218]'
p3098
sg19
S'600e41f9'
p3099
sg21
Vldr x0, [x19, #0x218]
p3100
sg5
L18446743798839737392L
sg6
Nsg23
S'LDR'
p3101
sg25
S'0xffffffc0007b7c30L'
p3102
sg27
Nsba(ibclass
BInstr
p3103
(dp3104
g2
Nsg17
S'STRB            WZR, [X19,#0x4C]'
p3105
sg19
S'7f320139'
p3106
sg21
Vstrb wzr, [x19, #0x4c]
p3107
sg5
L18446743798839737396L
sg6
Nsg23
S'STR'
p3108
sg25
S'0xffffffc0007b7c34L'
p3109
sg27
Nsba(ibclass
BInstr
p3110
(dp3111
g2
Nsg17
S'CBZ             X0, loc_FFFFFFC0007B7C40'
p3112
sg19
S'400000b4'
p3113
sg21
Vcbz x0, #8
p3114
sg5
L18446743798839737400L
sg6
Nsg23
S'CBZ'
p3115
sg25
S'0xffffffc0007b7c38L'
p3116
sg27
Nsbasg84
(lp3117
S'LDR reg, mem'
p3118
aS'STRB WZR, mem'
p3119
aS'CBZ reg, func'
p3120
asg95
Nsg5
S'0xffffffc0007b7c30L'
p3121
sg97
(lp3122
S'0xffffffc0007b7b74L'
p3123
aS'0xffffffc0007b7b84L'
p3124
aS'0xffffffc0007b7b94L'
p3125
asg6
Nsg99
(lp3126
S'0xffffffc0007b7c3cL'
p3127
aS'0xffffffc0007b7c40L'
p3128
asg103
Nsg104
Nsg105
S'605ebca0f059e7b265deb9f1e5e6f620'
p3129
sg107
S'a8015b161cdcc485b2a36ebe4a7f9488'
p3130
sg109
(lp3131
g3101
ag3108
ag3115
asg111
Nsba(ibclass
BBasicBlock
p3132
(dp3133
g12
Nsg13
(lp3134
(ibclass
BInstr
p3135
(dp3136
g2
Nsg17
S'BL              subsystem_put'
p3137
sg19
S'c68ff597'
p3138
sg21
Vbl #0xffffffffffd63f18
p3139
sg5
L18446743798839737404L
sg6
Nsg23
S'BL'
p3140
sg25
S'0xffffffc0007b7c3cL'
p3141
sg27
Nsbasg84
(lp3142
S'BL subsystem_put'
p3143
asg95
Nsg5
S'0xffffffc0007b7c3cL'
p3144
sg97
(lp3145
S'0xffffffc0007b7c30L'
p3146
asg6
Nsg99
(lp3147
S'0xffffffc0007b7c40L'
p3148
asg103
Nsg104
Nsg105
S'a6f5350f5a2b25a96d66757f761ce65c'
p3149
sg107
S'c2c704fca84fcd059db9e9396662464d'
p3150
sg109
(lp3151
g3140
asg111
Nsba(ibclass
BBasicBlock
p3152
(dp3153
g12
Nsg13
(lp3154
(ibclass
BInstr
p3155
(dp3156
g2
Nsg17
S'STR             XZR, [X19,#0x218]'
p3157
sg19
S'7f0e01f9'
p3158
sg21
Vstr xzr, [x19, #0x218]
p3159
sg5
L18446743798839737408L
sg6
Nsg23
S'STR'
p3160
sg25
S'0xffffffc0007b7c40L'
p3161
sg27
Nsbasg84
(lp3162
S'STR XZR, mem'
p3163
asg95
Nsg5
S'0xffffffc0007b7c40L'
p3164
sg97
(lp3165
S'0xffffffc0007b7c30L'
p3166
aS'0xffffffc0007b7c3cL'
p3167
asg6
Nsg99
(lp3168
S'0xffffffc0007b7c44L'
p3169
asg103
Nsg104
Nsg105
S'3fe0dfff438296bb525e0e8642586c2d'
p3170
sg107
S'e0cc12af87c52f6615a3e2d9424da1fb'
p3171
sg109
(lp3172
g3160
asg111
Nsba(ibclass
BBasicBlock
p3173
(dp3174
g12
Nsg13
(lp3175
(ibclass
BInstr
p3176
(dp3177
g2
Nsg17
S'MOV             X0, X19'
p3178
sg19
S'e00313aa'
p3179
sg21
Vmov x0, x19
p3180
sg5
L18446743798839737412L
sg6
Nsg23
S'MOV'
p3181
sg25
S'0xffffffc0007b7c44L'
p3182
sg27
Nsba(ibclass
BInstr
p3183
(dp3184
g2
Nsg17
S'BL              venus_hfi_iommu_detach'
p3185
sg19
S'64feff97'
p3186
sg21
Vbl #0xfffffffffffff990
p3187
sg5
L18446743798839737416L
sg6
Nsg23
S'BL'
p3188
sg25
S'0xffffffc0007b7c48L'
p3189
sg27
Nsbasg84
(lp3190
S'MOV reg, reg9'
p3191
aS'BL venus_hfi_iommu_detach'
p3192
asg95
Nsg5
S'0xffffffc0007b7c44L'
p3193
sg97
(lp3194
S'0xffffffc0007b7c40L'
p3195
aS'0xffffffc0007b7e70L'
p3196
aS'0xffffffc0007b7e84L'
p3197
aS'0xffffffc0007b7e98L'
p3198
asg6
Nsg99
(lp3199
S'0xffffffc0007b7c4cL'
p3200
asg103
Nsg104
Nsg105
S'd358f8b13c87ca08ba6d4b865203703e'
p3201
sg107
S'0ce37729fb409c47d4d07543227ba764'
p3202
sg109
(lp3203
g3181
ag3188
asg111
Nsba(ibclass
BBasicBlock
p3204
(dp3205
g12
Nsg13
(lp3206
(ibclass
BInstr
p3207
(dp3208
g2
Nsg17
S'LDR             W0, [X19,#0x48]'
p3209
sg19
S'604a40b9'
p3210
sg21
Vldr w0, [x19, #0x48]
p3211
sg5
L18446743798839737420L
sg6
Nsg23
S'LDR'
p3212
sg25
S'0xffffffc0007b7c4cL'
p3213
sg27
Nsba(ibclass
BInstr
p3214
(dp3215
g2
Nsg17
S'CBNZ            W0, loc_FFFFFFC0007B7C8C'
p3216
sg19
S'e0010035'
p3217
sg21
Vcbnz w0, #0x3c
p3218
sg5
L18446743798839737424L
sg6
Nsg23
S'CBNZ'
p3219
sg25
S'0xffffffc0007b7c50L'
p3220
sg27
Nsbasg84
(lp3221
S'LDR reg, mem'
p3222
aS'CBNZ reg, func'
p3223
asg95
Nsg5
S'0xffffffc0007b7c4cL'
p3224
sg97
(lp3225
S'0xffffffc0007b7a3cL'
p3226
aS'0xffffffc0007b7a4cL'
p3227
aS'0xffffffc0007b7a5cL'
p3228
aS'0xffffffc0007b7c44L'
p3229
asg6
Nsg99
(lp3230
S'0xffffffc0007b7c54L'
p3231
aS'0xffffffc0007b7c8cL'
p3232
asg103
Nsg104
Nsg105
S'5522ad3e8b25e3a8f9013bb9571723e7'
p3233
sg107
S'7604765c3c810c2510cc031abcc4f1e2'
p3234
sg109
(lp3235
g3212
ag3219
asg111
Nsba(ibclass
BBasicBlock
p3236
(dp3237
g12
Nsg13
(lp3238
(ibclass
BInstr
p3239
(dp3240
g2
Nsg17
S'ADRP            X0, #qword_FFFFFFC000E458A0@PAGE'
p3241
sg19
S'603400d0'
p3242
sg21
Vadrp x0, #0x68e000
p3243
sg5
L18446743798839737428L
sg6
Nsg23
S'ADRP'
p3244
sg25
S'0xffffffc0007b7c54L'
p3245
sg27
Nsba(ibclass
BInstr
p3246
(dp3247
g2
Nsg17
S'LDR             X0, [X0,#qword_FFFFFFC000E458A0@PAGEOFF]'
p3248
sg19
S'005044f9'
p3249
sg21
Vldr x0, [x0, #0x8a0]
p3250
sg5
L18446743798839737432L
sg6
Nsg23
S'LDR'
p3251
sg25
S'0xffffffc0007b7c58L'
p3252
sg27
Nsba(ibclass
BInstr
p3253
(dp3254
g2
Nsg17
S'LDR             W0, [X0]'
p3255
sg19
S'000040b9'
p3256
sg21
Vldr w0, [x0]
p3257
sg5
L18446743798839737436L
sg6
Nsg23
S'LDR'
p3258
sg25
S'0xffffffc0007b7c5cL'
p3259
sg27
Nsba(ibclass
BInstr
p3260
(dp3261
g2
Nsg17
S'TBZ             W0, #3, loc_FFFFFFC0007B7D94'
p3262
sg19
S'a0091836'
p3263
sg21
Vtbz w0, #3, #0x134
p3264
sg5
L18446743798839737440L
sg6
Nsg23
S'TBZ'
p3265
sg25
S'0xffffffc0007b7c60L'
p3266
sg27
Nsbasg84
(lp3267
S'ADRP reg, #func@PAGE'
p3268
aS'LDR reg, mem'
p3269
aS'LDR reg, mem'
p3270
aS'TBZ reg, #3, func'
p3271
asg95
Nsg5
S'0xffffffc0007b7c54L'
p3272
sg97
(lp3273
S'0xffffffc0007b7c4cL'
p3274
asg6
Nsg99
(lp3275
S'0xffffffc0007b7c64L'
p3276
aS'0xffffffc0007b7d94L'
p3277
asg103
Nsg104
Nsg105
S'2de94c9e326481f2f467f11acce8dcc9'
p3278
sg107
S'c40f6366bfed7a84cc2d4708a220ac5e'
p3279
sg109
(lp3280
g3244
ag3251
ag3258
ag3265
asg111
Nsba(ibclass
BBasicBlock
p3281
(dp3282
g12
Nsg13
(lp3283
(ibclass
BInstr
p3284
(dp3285
g2
Nsg17
S'ADRP            X0, #qword_FFFFFFC000E43D48@PAGE'
p3286
sg19
S'60340090'
p3287
sg21
Vadrp x0, #0x68c000
p3288
sg5
L18446743798839737444L
sg6
Nsg23
S'ADRP'
p3289
sg25
S'0xffffffc0007b7c64L'
p3290
sg27
Nsba(ibclass
BInstr
p3291
(dp3292
g2
Nsg17
S'LDR             X0, [X0,#qword_FFFFFFC000E43D48@PAGEOFF]'
p3293
sg19
S'00a446f9'
p3294
sg21
Vldr x0, [x0, #0xd48]
p3295
sg5
L18446743798839737448L
sg6
Nsg23
S'LDR'
p3296
sg25
S'0xffffffc0007b7c68L'
p3297
sg27
Nsba(ibclass
BInstr
p3298
(dp3299
g2
Nsg17
S'LDR             W0, [X0]'
p3300
sg19
S'000040b9'
p3301
sg21
Vldr w0, [x0]
p3302
sg5
L18446743798839737452L
sg6
Nsg23
S'LDR'
p3303
sg25
S'0xffffffc0007b7c6cL'
p3304
sg27
Nsba(ibclass
BInstr
p3305
(dp3306
g2
Nsg17
S'CBNZ            W0, loc_FFFFFFC0007B7D94'
p3307
sg19
S'20090035'
p3308
sg21
Vcbnz w0, #0x124
p3309
sg5
L18446743798839737456L
sg6
Nsg23
S'CBNZ'
p3310
sg25
S'0xffffffc0007b7c70L'
p3311
sg27
Nsbasg84
(lp3312
S'ADRP reg, #func@PAGE'
p3313
aS'LDR reg, mem'
p3314
aS'LDR reg, mem'
p3315
aS'CBNZ reg, func'
p3316
asg95
Nsg5
S'0xffffffc0007b7c64L'
p3317
sg97
(lp3318
S'0xffffffc0007b7c54L'
p3319
asg6
Nsg99
(lp3320
S'0xffffffc0007b7c74L'
p3321
aS'0xffffffc0007b7d94L'
p3322
asg103
Nsg104
Nsg105
S'9c97521b8b0f280d47a50ec9a5e4f86f'
p3323
sg107
S'bd26f8893557dc5fa132ff2490be0ebf'
p3324
sg109
(lp3325
g3289
ag3296
ag3303
ag3310
asg111
Nsba(ibclass
BBasicBlock
p3326
(dp3327
g12
Nsg13
(lp3328
(ibclass
BInstr
p3329
(dp3330
g2
Nsg17
S'ADRP            X0, #unk_FFFFFFC0013BF409@PAGE'
p3331
sg19
S'40600090'
p3332
sg21
Vadrp x0, #0xc08000
p3333
sg5
L18446743798839737460L
sg6
Nsg23
S'ADRP'
p3334
sg25
S'0xffffffc0007b7c74L'
p3335
sg27
Nsba(ibclass
BInstr
p3336
(dp3337
g2
Nsg17
S'ADRP            X1, #(aRulesDbg+6)@PAGE; "dbg"'
p3338
sg19
S'216700d0'
p3339
sg21
Vadrp x1, #0xce6000
p3340
sg5
L18446743798839737464L
sg6
Nsg23
S'ADRP'
p3341
sg25
S'0xffffffc0007b7c78L'
p3342
sg27
Nsba(ibclass
BInstr
p3343
(dp3344
g2
Nsg17
S'ADD             X1, X1, #(aRulesDbg+6)@PAGEOFF; "dbg"'
p3345
sg19
S'21e00291'
p3346
sg21
Vadd x1, x1, #0xb8
p3347
sg5
L18446743798839737468L
sg6
Nsg23
S'ADD'
p3348
sg25
S'0xffffffc0007b7c7cL'
p3349
sg27
Nsba(ibclass
BInstr
p3350
(dp3351
g2
Nsg17
S'ADD             X0, X0, #unk_FFFFFFC0013BF409@PAGEOFF'
p3352
sg19
S'00241091'
p3353
sg21
Vadd x0, x0, #0x409
p3354
sg5
L18446743798839737472L
sg6
Nsg23
S'ADD'
p3355
sg25
S'0xffffffc0007b7c80L'
p3356
sg27
Nsba(ibclass
BInstr
p3357
(dp3358
g2
Nsg17
S'BL              printk'
p3359
sg19
S'79db1994'
p3360
sg21
Vbl #0x676de4
p3361
sg5
L18446743798839737476L
sg6
Nsg23
S'BL'
p3362
sg25
S'0xffffffc0007b7c84L'
p3363
sg27
Nsba(ibclass
BInstr
p3364
(dp3365
g2
Nsg17
S'B               loc_FFFFFFC0007B7D94'
p3366
sg19
S'43000014'
p3367
sg21
Vb #0x10c
p3368
sg5
L18446743798839737480L
sg6
Nsg23
g281
sg25
S'0xffffffc0007b7c88L'
p3369
sg27
Nsbasg84
(lp3370
S'ADRP reg, #func@PAGE'
p3371
aS'ADRP reg, #(aRulesDbg+6)@PAGE'
p3372
aS'ADD reg, reg, #(aRulesDbg+6)@PAGEOFF'
p3373
aS'ADD reg, reg, #func@PAGEOFF'
p3374
aS'BL printk'
p3375
aS'B func'
p3376
asg95
Nsg5
S'0xffffffc0007b7c74L'
p3377
sg97
(lp3378
S'0xffffffc0007b7c64L'
p3379
asg6
Nsg99
(lp3380
S'0xffffffc0007b7d94L'
p3381
asg103
Nsg104
Nsg105
S'b2a3927201f2643e37e238d870ced3c2'
p3382
sg107
S'71e213dc095186f330343c1ff3e0219e'
p3383
sg109
(lp3384
g3334
ag3341
ag3348
ag3355
ag3362
ag281
asg111
Nsba(ibclass
BBasicBlock
p3385
(dp3386
g12
Nsg13
(lp3387
(ibclass
BInstr
p3388
(dp3389
g2
Nsg17
S'LDR             X0, [X19,#0x248]'
p3390
sg19
S'602641f9'
p3391
sg21
Vldr x0, [x19, #0x248]
p3392
sg5
L18446743798839737484L
sg6
Nsg23
S'LDR'
p3393
sg25
S'0xffffffc0007b7c8cL'
p3394
sg27
Nsba(ibclass
BInstr
p3395
(dp3396
g2
Nsg17
S'STR             WZR, [X19,#0x48]'
p3397
sg19
S'7f4a00b9'
p3398
sg21
Vstr wzr, [x19, #0x48]
p3399
sg5
L18446743798839737488L
sg6
Nsg23
S'STR'
p3400
sg25
S'0xffffffc0007b7c90L'
p3401
sg27
Nsba(ibclass
BInstr
p3402
(dp3403
g2
Nsg17
S'ADRP            X26, #unk_FFFFFFC0013BF293@PAGE'
p3404
sg19
S'5a600090'
p3405
sg21
Vadrp x26, #0xc08000
p3406
sg5
L18446743798839737492L
sg6
Nsg23
S'ADRP'
p3407
sg25
S'0xffffffc0007b7c94L'
p3408
sg27
Nsba(ibclass
BInstr
p3409
(dp3410
g2
Nsg17
S'ADRP            X27, #(aRulesDbg+6)@PAGE; "dbg"'
p3411
sg19
S'3b6700d0'
p3412
sg21
Vadrp x27, #0xce6000
p3413
sg5
L18446743798839737496L
sg6
Nsg23
S'ADRP'
p3414
sg25
S'0xffffffc0007b7c98L'
p3415
sg27
Nsba(ibclass
BInstr
p3416
(dp3417
g2
Nsg17
S'LDR             X21, [X0,#0x88]'
p3418
sg19
S'154440f9'
p3419
sg21
Vldr x21, [x0, #0x88]
p3420
sg5
L18446743798839737500L
sg6
Nsg23
S'LDR'
p3421
sg25
S'0xffffffc0007b7c9cL'
p3422
sg27
Nsba(ibclass
BInstr
p3423
(dp3424
g2
Nsg17
S'ADRP            X24, #qword_FFFFFFC000E458A0@PAGE'
p3425
sg19
S'783400d0'
p3426
sg21
Vadrp x24, #0x68e000
p3427
sg5
L18446743798839737504L
sg6
Nsg23
S'ADRP'
p3428
sg25
S'0xffffffc0007b7ca0L'
p3429
sg27
Nsba(ibclass
BInstr
p3430
(dp3431
g2
Nsg17
S'ADRP            X25, #qword_FFFFFFC000E43D48@PAGE'
p3432
sg19
S'79340090'
p3433
sg21
Vadrp x25, #0x68c000
p3434
sg5
L18446743798839737508L
sg6
Nsg23
S'ADRP'
p3435
sg25
S'0xffffffc0007b7ca4L'
p3436
sg27
Nsba(ibclass
BInstr
p3437
(dp3438
g2
Nsg17
S'ADD             X26, X26, #unk_FFFFFFC0013BF293@PAGEOFF'
p3439
sg19
S'5a4f0a91'
p3440
sg21
Vadd x26, x26, #0x293
p3441
sg5
L18446743798839737512L
sg6
Nsg23
S'ADD'
p3442
sg25
S'0xffffffc0007b7ca8L'
p3443
sg27
Nsba(ibclass
BInstr
p3444
(dp3445
g2
Nsg17
S'ADD             X27, X27, #(aRulesDbg+6)@PAGEOFF; "dbg"'
p3446
sg19
S'7be30291'
p3447
sg21
Vadd x27, x27, #0xb8
p3448
sg5
L18446743798839737516L
sg6
Nsg23
S'ADD'
p3449
sg25
S'0xffffffc0007b7cacL'
p3450
sg27
Nsbasg84
(lp3451
S'LDR reg, mem'
p3452
aS'STR WZR, mem'
p3453
aS'ADRP reg6, #func@PAGE'
p3454
aS'ADRP reg7, #(aRulesDbg+6)@PAGE'
p3455
aS'LDR reg1, mem'
p3456
aS'ADRP reg4, #func@PAGE'
p3457
aS'ADRP reg5, #func@PAGE'
p3458
aS'ADD reg6, reg6, #func@PAGEOFF'
p3459
aS'ADD reg7, reg7, #(aRulesDbg+6)@PAGEOFF'
p3460
asg95
Nsg5
S'0xffffffc0007b7c8cL'
p3461
sg97
(lp3462
S'0xffffffc0007b7c4cL'
p3463
asg6
Nsg99
(lp3464
S'0xffffffc0007b7cb0L'
p3465
asg103
Nsg104
Nsg105
S'0996b85ce17cfd4d6b4bc80e2fd84c27'
p3466
sg107
S'9ab5b0bd55da15da44704ed8c327c9bf'
p3467
sg109
(lp3468
g3393
ag3400
ag3407
ag3414
ag3421
ag3428
ag3435
ag3442
ag3449
asg111
Nsba(ibclass
BBasicBlock
p3469
(dp3470
g12
Nsg13
(lp3471
(ibclass
BInstr
p3472
(dp3473
g2
Nsg17
S'LDR             X2, [X19,#0x248]'
p3474
sg19
S'622641f9'
p3475
sg21
Vldr x2, [x19, #0x248]
p3476
sg5
L18446743798839737520L
sg6
Nsg23
S'LDR'
p3477
sg25
S'0xffffffc0007b7cb0L'
p3478
sg27
Nsba(ibclass
BInstr
p3479
(dp3480
g2
Nsg17
S'LDR             W1, [X2,#0x90]'
p3481
sg19
S'419040b9'
p3482
sg21
Vldr w1, [x2, #0x90]
p3483
sg5
L18446743798839737524L
sg6
Nsg23
S'LDR'
p3484
sg25
S'0xffffffc0007b7cb4L'
p3485
sg27
Nsba(ibclass
BInstr
p3486
(dp3487
g2
Nsg17
S'LDR             X0, [X2,#0x88]'
p3488
sg19
S'404440f9'
p3489
sg21
Vldr x0, [x2, #0x88]
p3490
sg5
L18446743798839737528L
sg6
Nsg23
S'LDR'
p3491
sg25
S'0xffffffc0007b7cb8L'
p3492
sg27
Nsba(ibclass
BInstr
p3493
(dp3494
g2
Nsg17
S'ADD             X0, X0, X1,LSL#5'
p3495
sg19
S'0014018b'
p3496
sg21
Vadd x0, x0, x1, lsl #5
p3497
sg5
L18446743798839737532L
sg6
Nsg23
S'ADD'
p3498
sg25
S'0xffffffc0007b7cbcL'
p3499
sg27
Nsba(ibclass
BInstr
p3500
(dp3501
g2
Nsg17
S'CMP             X21, X0'
p3502
sg19
S'bf0200eb'
p3503
sg21
Vcmp x21, x0
p3504
sg5
L18446743798839737536L
sg6
Nsg23
S'CMP'
p3505
sg25
S'0xffffffc0007b7cc0L'
p3506
sg27
Nsba(ibclass
BInstr
p3507
(dp3508
g2
Nsg17
S'B.CS            loc_FFFFFFC0007B7D94'
p3509
sg19
S'82060054'
p3510
sg21
Vb.hs #0xd0
p3511
sg5
L18446743798839737540L
sg6
Nsg23
g281
sg25
S'0xffffffc0007b7cc4L'
p3512
sg27
Nsbasg84
(lp3513
S'LDR reg, mem'
p3514
aS'LDR reg, mem'
p3515
aS'LDR reg, mem'
p3516
aS'ADD reg, reg, reg,LSL#5'
p3517
aS'CMP reg1, reg'
p3518
aS'B.CS func'
p3519
asg95
Nsg5
S'0xffffffc0007b7cb0L'
p3520
sg97
(lp3521
S'0xffffffc0007b7c8cL'
p3522
aS'0xffffffc0007b7cfcL'
p3523
asg6
Nsg99
(lp3524
S'0xffffffc0007b7cc8L'
p3525
aS'0xffffffc0007b7d94L'
p3526
asg103
Nsg104
Nsg105
S'680bbbfb58623e66c37f168833c14155'
p3527
sg107
S'a04147e31c1fdabd99fca5af490d5aff'
p3528
sg109
(lp3529
g3477
ag3484
ag3491
ag3498
ag3505
ag281
asg111
Nsba(ibclass
BBasicBlock
p3530
(dp3531
g12
Nsg13
(lp3532
(ibclass
BInstr
p3533
(dp3534
g2
Nsg17
S'MOV             X0, #0x64'
p3535
sg19
S'800c80d2'
p3536
sg21
Vmovz x0, #0x64
p3537
sg5
L18446743798839737544L
sg6
Nsg23
S'MOV'
p3538
sg25
S'0xffffffc0007b7cc8L'
p3539
sg27
Nsba(ibclass
BInstr
p3540
(dp3541
g2
Nsg17
S'MOV             X1, X0'
p3542
sg19
S'e10300aa'
p3543
sg21
Vmov x1, x0
p3544
sg5
L18446743798839737548L
sg6
Nsg23
S'MOV'
p3545
sg25
S'0xffffffc0007b7cccL'
p3546
sg27
Nsba(ibclass
BInstr
p3547
(dp3548
g2
Nsg17
S'BL              usleep_range'
p3549
sg19
S'2bd0e997'
p3550
sg21
Vbl #0xffffffffffa740ac
p3551
sg5
L18446743798839737552L
sg6
Nsg23
S'BL'
p3552
sg25
S'0xffffffc0007b7cd0L'
p3553
sg27
Nsba(ibclass
BInstr
p3554
(dp3555
g2
Nsg17
S'LDR             X0, [X24,#qword_FFFFFFC000E458A0@PAGEOFF]'
p3556
sg19
S'005344f9'
p3557
sg21
Vldr x0, [x24, #0x8a0]
p3558
sg5
L18446743798839737556L
sg6
Nsg23
S'LDR'
p3559
sg25
S'0xffffffc0007b7cd4L'
p3560
sg27
Nsba(ibclass
BInstr
p3561
(dp3562
g2
Nsg17
S'LDR             W0, [X0]'
p3563
sg19
S'000040b9'
p3564
sg21
Vldr w0, [x0]
p3565
sg5
L18446743798839737560L
sg6
Nsg23
S'LDR'
p3566
sg25
S'0xffffffc0007b7cd8L'
p3567
sg27
Nsba(ibclass
BInstr
p3568
(dp3569
g2
Nsg17
S'TBZ             W0, #3, loc_FFFFFFC0007B7CFC'
p3570
sg19
S'00011836'
p3571
sg21
Vtbz w0, #3, #0x20
p3572
sg5
L18446743798839737564L
sg6
Nsg23
S'TBZ'
p3573
sg25
S'0xffffffc0007b7cdcL'
p3574
sg27
Nsbasg84
(lp3575
S'MOV reg, #0x64'
p3576
aS'MOV reg, reg'
p3577
aS'BL usleep_range'
p3578
aS'LDR reg, mem'
p3579
aS'LDR reg, mem'
p3580
aS'TBZ reg, #3, func'
p3581
asg95
Nsg5
S'0xffffffc0007b7cc8L'
p3582
sg97
(lp3583
S'0xffffffc0007b7cb0L'
p3584
asg6
Nsg99
(lp3585
S'0xffffffc0007b7ce0L'
p3586
aS'0xffffffc0007b7cfcL'
p3587
asg103
Nsg104
Nsg105
S'69d252b59da1741acbff13c80faf874a'
p3588
sg107
S'f3e1cae252db5564d1cb37e1930ba55a'
p3589
sg109
(lp3590
g3538
ag3545
ag3552
ag3559
ag3566
ag3573
asg111
Nsba(ibclass
BBasicBlock
p3591
(dp3592
g12
Nsg13
(lp3593
(ibclass
BInstr
p3594
(dp3595
g2
Nsg17
S'LDR             X0, [X25,#qword_FFFFFFC000E43D48@PAGEOFF]'
p3596
sg19
S'20a746f9'
p3597
sg21
Vldr x0, [x25, #0xd48]
p3598
sg5
L18446743798839737568L
sg6
Nsg23
S'LDR'
p3599
sg25
S'0xffffffc0007b7ce0L'
p3600
sg27
Nsba(ibclass
BInstr
p3601
(dp3602
g2
Nsg17
S'LDR             W0, [X0]'
p3603
sg19
S'000040b9'
p3604
sg21
Vldr w0, [x0]
p3605
sg5
L18446743798839737572L
sg6
Nsg23
S'LDR'
p3606
sg25
S'0xffffffc0007b7ce4L'
p3607
sg27
Nsba(ibclass
BInstr
p3608
(dp3609
g2
Nsg17
S'CBNZ            W0, loc_FFFFFFC0007B7CFC'
p3610
sg19
S'a0000035'
p3611
sg21
Vcbnz w0, #0x14
p3612
sg5
L18446743798839737576L
sg6
Nsg23
S'CBNZ'
p3613
sg25
S'0xffffffc0007b7ce8L'
p3614
sg27
Nsbasg84
(lp3615
S'LDR reg, mem'
p3616
aS'LDR reg, mem'
p3617
aS'CBNZ reg, func'
p3618
asg95
Nsg5
S'0xffffffc0007b7ce0L'
p3619
sg97
(lp3620
S'0xffffffc0007b7cc8L'
p3621
asg6
Nsg99
(lp3622
S'0xffffffc0007b7cecL'
p3623
aS'0xffffffc0007b7cfcL'
p3624
asg103
Nsg104
Nsg105
S'f99d4c26198b49c08607b4e65321097b'
p3625
sg107
S'153317dd053ff09ae8062c0ea8ae7ec2'
p3626
sg109
(lp3627
g3599
ag3606
ag3613
asg111
Nsba(ibclass
BBasicBlock
p3628
(dp3629
g12
Nsg13
(lp3630
(ibclass
BInstr
p3631
(dp3632
g2
Nsg17
S'LDR             X2, [X21]'
p3633
sg19
S'a20240f9'
p3634
sg21
Vldr x2, [x21]
p3635
sg5
L18446743798839737580L
sg6
Nsg23
S'LDR'
p3636
sg25
S'0xffffffc0007b7cecL'
p3637
sg27
Nsba(ibclass
BInstr
p3638
(dp3639
g2
Nsg17
S'MOV             X0, X26'
p3640
sg19
S'e0031aaa'
p3641
sg21
Vmov x0, x26
p3642
sg5
L18446743798839737584L
sg6
Nsg23
S'MOV'
p3643
sg25
S'0xffffffc0007b7cf0L'
p3644
sg27
Nsba(ibclass
BInstr
p3645
(dp3646
g2
Nsg17
S'MOV             X1, X27'
p3647
sg19
S'e1031baa'
p3648
sg21
Vmov x1, x27
p3649
sg5
L18446743798839737588L
sg6
Nsg23
S'MOV'
p3650
sg25
S'0xffffffc0007b7cf4L'
p3651
sg27
Nsba(ibclass
BInstr
p3652
(dp3653
g2
Nsg17
S'BL              printk'
p3654
sg19
S'5cdb1994'
p3655
sg21
Vbl #0x676d70
p3656
sg5
L18446743798839737592L
sg6
Nsg23
S'BL'
p3657
sg25
S'0xffffffc0007b7cf8L'
p3658
sg27
Nsbasg84
(lp3659
S'LDR reg, mem'
p3660
aS'MOV reg, reg6'
p3661
aS'MOV reg, reg7'
p3662
aS'BL printk'
p3663
asg95
Nsg5
S'0xffffffc0007b7cecL'
p3664
sg97
(lp3665
S'0xffffffc0007b7ce0L'
p3666
asg6
Nsg99
(lp3667
S'0xffffffc0007b7cfcL'
p3668
asg103
Nsg104
Nsg105
S'a3751ff821fd0a209cae1e9c858c143f'
p3669
sg107
S'08c651e332f76fd474303596f01c502f'
p3670
sg109
(lp3671
g3636
ag3643
ag3650
ag3657
asg111
Nsba(ibclass
BBasicBlock
p3672
(dp3673
g12
Nsg13
(lp3674
(ibclass
BInstr
p3675
(dp3676
g2
Nsg17
S'LDR             X22, [X21,#8]'
p3677
sg19
S'b60640f9'
p3678
sg21
Vldr x22, [x21, #8]
p3679
sg5
L18446743798839737596L
sg6
Nsg23
S'LDR'
p3680
sg25
S'0xffffffc0007b7cfcL'
p3681
sg27
Nsba(ibclass
BInstr
p3682
(dp3683
g2
Nsg17
S'ADD             X21, X21, #0x20'
p3684
sg19
S'b5820091'
p3685
sg21
Vadd x21, x21, #0x20
p3686
sg5
L18446743798839737600L
sg6
Nsg23
S'ADD'
p3687
sg25
S'0xffffffc0007b7d00L'
p3688
sg27
Nsba(ibclass
BInstr
p3689
(dp3690
g2
Nsg17
S'MOV             X0, X22'
p3691
sg19
S'e00316aa'
p3692
sg21
Vmov x0, x22
p3693
sg5
L18446743798839737604L
sg6
Nsg23
S'MOV'
p3694
sg25
S'0xffffffc0007b7d04L'
p3695
sg27
Nsba(ibclass
BInstr
p3696
(dp3697
g2
Nsg17
S'BL              clk_disable'
p3698
sg19
S'c3000f94'
p3699
sg21
Vbl #0x3c030c
p3700
sg5
L18446743798839737608L
sg6
Nsg23
S'BL'
p3701
sg25
S'0xffffffc0007b7d08L'
p3702
sg27
Nsba(ibclass
BInstr
p3703
(dp3704
g2
Nsg17
S'MOV             X0, X22'
p3705
sg19
S'e00316aa'
p3706
sg21
Vmov x0, x22
p3707
sg5
L18446743798839737612L
sg6
Nsg23
S'MOV'
p3708
sg25
S'0xffffffc0007b7d0cL'
p3709
sg27
Nsba(ibclass
BInstr
p3710
(dp3711
g2
Nsg17
S'BL              clk_unprepare'
p3712
sg19
S'81010f94'
p3713
sg21
Vbl #0x3c0604
p3714
sg5
L18446743798839737616L
sg6
Nsg23
S'BL'
p3715
sg25
S'0xffffffc0007b7d10L'
p3716
sg27
Nsba(ibclass
BInstr
p3717
(dp3718
g2
Nsg17
S'B               loc_FFFFFFC0007B7CB0'
p3719
sg19
S'e7ffff17'
p3720
sg21
Vb #0xffffffffffffff9c
p3721
sg5
L18446743798839737620L
sg6
Nsg23
g281
sg25
S'0xffffffc0007b7d14L'
p3722
sg27
Nsbasg84
(lp3723
S'LDR reg2, mem'
p3724
aS'ADD reg1, reg1, #0x20'
p3725
aS'MOV reg, reg2'
p3726
aS'BL clk_disable'
p3727
aS'MOV reg, reg2'
p3728
aS'BL clk_unprepare'
p3729
aS'B func'
p3730
asg95
Nsg5
S'0xffffffc0007b7cfcL'
p3731
sg97
(lp3732
S'0xffffffc0007b7cc8L'
p3733
aS'0xffffffc0007b7ce0L'
p3734
aS'0xffffffc0007b7cecL'
p3735
asg6
Nsg99
(lp3736
S'0xffffffc0007b7cb0L'
p3737
asg103
Nsg104
Nsg105
S'956f7237fc79d1638294916d3d3e26e8'
p3738
sg107
S'178712ecc04a644ec3bd4e141ed976ea'
p3739
sg109
(lp3740
g3680
ag3687
ag3694
ag3701
ag3708
ag3715
ag281
asg111
Nsba(ibclass
BBasicBlock
p3741
(dp3742
g12
Nsg13
(lp3743
(ibclass
BInstr
p3744
(dp3745
g2
Nsg17
S'LDR             X0, [X24,#0x8A0]'
p3746
sg19
S'005344f9'
p3747
sg21
Vldr x0, [x24, #0x8a0]
p3748
sg5
L18446743798839737624L
sg6
Nsg23
S'LDR'
p3749
sg25
S'0xffffffc0007b7d18L'
p3750
sg27
Nsba(ibclass
BInstr
p3751
(dp3752
g2
Nsg17
S'LDR             W0, [X0]'
p3753
sg19
S'000040b9'
p3754
sg21
Vldr w0, [x0]
p3755
sg5
L18446743798839737628L
sg6
Nsg23
S'LDR'
p3756
sg25
S'0xffffffc0007b7d1cL'
p3757
sg27
Nsba(ibclass
BInstr
p3758
(dp3759
g2
Nsg17
S'TBZ             W0, #0, loc_FFFFFFC0007B7D48'
p3760
sg19
S'40010036'
p3761
sg21
Vtbz w0, #0, #0x28
p3762
sg5
L18446743798839737632L
sg6
Nsg23
S'TBZ'
p3763
sg25
S'0xffffffc0007b7d20L'
p3764
sg27
Nsbasg84
(lp3765
S'LDR reg, mem'
p3766
aS'LDR reg, mem'
p3767
aS'TBZ reg, #0, func'
p3768
asg95
Nsg5
S'0xffffffc0007b7d18L'
p3769
sg97
(lp3770
S'0xffffffc0007b79c8L'
p3771
aS'0xffffffc0007b79f0L'
p3772
asg6
Nsg99
(lp3773
S'0xffffffc0007b7d24L'
p3774
aS'0xffffffc0007b7d48L'
p3775
asg103
Nsg104
Nsg105
S'ac18b97d3a767be1a0530f85211830b6'
p3776
sg107
S'cfb0ff94d456b2f240c58b5e12918539'
p3777
sg109
(lp3778
g3749
ag3756
ag3763
asg111
Nsba(ibclass
BBasicBlock
p3779
(dp3780
g12
Nsg13
(lp3781
(ibclass
BInstr
p3782
(dp3783
g2
Nsg17
S'ADRP            X0, #qword_FFFFFFC000E43D48@PAGE'
p3784
sg19
S'60340090'
p3785
sg21
Vadrp x0, #0x68c000
p3786
sg5
L18446743798839737636L
sg6
Nsg23
S'ADRP'
p3787
sg25
S'0xffffffc0007b7d24L'
p3788
sg27
Nsba(ibclass
BInstr
p3789
(dp3790
g2
Nsg17
S'LDR             X0, [X0,#qword_FFFFFFC000E43D48@PAGEOFF]'
p3791
sg19
S'00a446f9'
p3792
sg21
Vldr x0, [x0, #0xd48]
p3793
sg5
L18446743798839737640L
sg6
Nsg23
S'LDR'
p3794
sg25
S'0xffffffc0007b7d28L'
p3795
sg27
Nsba(ibclass
BInstr
p3796
(dp3797
g2
Nsg17
S'LDR             W0, [X0]'
p3798
sg19
S'000040b9'
p3799
sg21
Vldr w0, [x0]
p3800
sg5
L18446743798839737644L
sg6
Nsg23
S'LDR'
p3801
sg25
S'0xffffffc0007b7d2cL'
p3802
sg27
Nsba(ibclass
BInstr
p3803
(dp3804
g2
Nsg17
S'CBNZ            W0, loc_FFFFFFC0007B7D48'
p3805
sg19
S'c0000035'
p3806
sg21
Vcbnz w0, #0x18
p3807
sg5
L18446743798839737648L
sg6
Nsg23
S'CBNZ'
p3808
sg25
S'0xffffffc0007b7d30L'
p3809
sg27
Nsbasg84
(lp3810
S'ADRP reg, #func@PAGE'
p3811
aS'LDR reg, mem'
p3812
aS'LDR reg, mem'
p3813
aS'CBNZ reg, func'
p3814
asg95
Nsg5
S'0xffffffc0007b7d24L'
p3815
sg97
(lp3816
S'0xffffffc0007b7d18L'
p3817
asg6
Nsg99
(lp3818
S'0xffffffc0007b7d34L'
p3819
aS'0xffffffc0007b7d48L'
p3820
asg103
Nsg104
Nsg105
S'9c97521b8b0f280d47a50ec9a5e4f86f'
p3821
sg107
S'bd26f8893557dc5fa132ff2490be0ebf'
p3822
sg109
(lp3823
g3787
ag3794
ag3801
ag3808
asg111
Nsba(ibclass
BBasicBlock
p3824
(dp3825
g12
Nsg13
(lp3826
(ibclass
BInstr
p3827
(dp3828
g2
Nsg17
S'ADRP            X0, #unk_FFFFFFC0013BF238@PAGE'
p3829
sg19
S'40600090'
p3830
sg21
Vadrp x0, #0xc08000
p3831
sg5
L18446743798839737652L
sg6
Nsg23
S'ADRP'
p3832
sg25
S'0xffffffc0007b7d34L'
p3833
sg27
Nsba(ibclass
BInstr
p3834
(dp3835
g2
Nsg17
S'ADRP            X1, #(aQcomMdssDsi_17+0x1B)@PAGE; "err"'
p3836
sg19
S'c15b0090'
p3837
sg21
Vadrp x1, #0xb78000
p3838
sg5
L18446743798839737656L
sg6
Nsg23
S'ADRP'
p3839
sg25
S'0xffffffc0007b7d38L'
p3840
sg27
Nsba(ibclass
BInstr
p3841
(dp3842
g2
Nsg17
S'ADD             X0, X0, #unk_FFFFFFC0013BF238@PAGEOFF'
p3843
sg19
S'00e00891'
p3844
sg21
Vadd x0, x0, #0x238
p3845
sg5
L18446743798839737660L
sg6
Nsg23
S'ADD'
p3846
sg25
S'0xffffffc0007b7d3cL'
p3847
sg27
Nsba(ibclass
BInstr
p3848
(dp3849
g2
Nsg17
S'ADD             X1, X1, #(aQcomMdssDsi_17+0x1B)@PAGEOFF; "err"'
p3850
sg19
S'21800091'
p3851
sg21
Vadd x1, x1, #0x20
p3852
sg5
L18446743798839737664L
sg6
Nsg23
S'ADD'
p3853
sg25
S'0xffffffc0007b7d40L'
p3854
sg27
Nsba(ibclass
BInstr
p3855
(dp3856
g2
Nsg17
S'BL              printk'
p3857
sg19
S'49db1994'
p3858
sg21
Vbl #0x676d24
p3859
sg5
L18446743798839737668L
sg6
Nsg23
S'BL'
p3860
sg25
S'0xffffffc0007b7d44L'
p3861
sg27
Nsbasg84
(lp3862
S'ADRP reg, #func@PAGE'
p3863
aS'ADRP reg, #(aQcomMdssDsi_17+0x1B)@PAGE'
p3864
aS'ADD reg, reg, #func@PAGEOFF'
p3865
aS'ADD reg, reg, #(aQcomMdssDsi_17+0x1B)@PAGEOFF'
p3866
aS'BL printk'
p3867
asg95
Nsg5
S'0xffffffc0007b7d34L'
p3868
sg97
(lp3869
S'0xffffffc0007b7d24L'
p3870
asg6
Nsg99
(lp3871
S'0xffffffc0007b7d48L'
p3872
asg103
Nsg104
Nsg105
S'4bb3c333f0963e9d264d92b454a1960d'
p3873
sg107
S'dfc7b5984a675b3239ed3585bd2eb73a'
p3874
sg109
(lp3875
g3832
ag3839
ag3846
ag3853
ag3860
asg111
Nsba(ibclass
BBasicBlock
p3876
(dp3877
g12
Nsg13
(lp3878
(ibclass
BInstr
p3879
(dp3880
g2
Nsg17
S'LDR             X0, [X19,#0x248]'
p3881
sg19
S'602641f9'
p3882
sg21
Vldr x0, [x19, #0x248]
p3883
sg5
L18446743798839737672L
sg6
Nsg23
S'LDR'
p3884
sg25
S'0xffffffc0007b7d48L'
p3885
sg27
Nsba(ibclass
BInstr
p3886
(dp3887
g2
Nsg17
S'ADRP            X27, #unk_FFFFFFC0013BF293@PAGE'
p3888
sg19
S'5b600090'
p3889
sg21
Vadrp x27, #0xc08000
p3890
sg5
L18446743798839737676L
sg6
Nsg23
S'ADRP'
p3891
sg25
S'0xffffffc0007b7d4cL'
p3892
sg27
Nsba(ibclass
BInstr
p3893
(dp3894
g2
Nsg17
S'ADRP            X28, #(aQcomMdssDsi_17+0x1B)@PAGE; "err"'
p3895
sg19
S'dc5b0090'
p3896
sg21
Vadrp x28, #0xb78000
p3897
sg5
L18446743798839737680L
sg6
Nsg23
S'ADRP'
p3898
sg25
S'0xffffffc0007b7d50L'
p3899
sg27
Nsba(ibclass
BInstr
p3900
(dp3901
g2
Nsg17
S'LDR             X22, [X0,#0x88]'
p3902
sg19
S'164440f9'
p3903
sg21
Vldr x22, [x0, #0x88]
p3904
sg5
L18446743798839737684L
sg6
Nsg23
S'LDR'
p3905
sg25
S'0xffffffc0007b7d54L'
p3906
sg27
Nsba(ibclass
BInstr
p3907
(dp3908
g2
Nsg17
S'ADRP            X26, #qword_FFFFFFC000E43D48@PAGE'
p3909
sg19
S'7a340090'
p3910
sg21
Vadrp x26, #0x68c000
p3911
sg5
L18446743798839737688L
sg6
Nsg23
S'ADRP'
p3912
sg25
S'0xffffffc0007b7d58L'
p3913
sg27
Nsba(ibclass
BInstr
p3914
(dp3915
g2
Nsg17
S'ADD             X27, X27, #unk_FFFFFFC0013BF293@PAGEOFF'
p3916
sg19
S'7b4f0a91'
p3917
sg21
Vadd x27, x27, #0x293
p3918
sg5
L18446743798839737692L
sg6
Nsg23
S'ADD'
p3919
sg25
S'0xffffffc0007b7d5cL'
p3920
sg27
Nsba(ibclass
BInstr
p3921
(dp3922
g2
Nsg17
S'ADD             X28, X28, #(aQcomMdssDsi_17+0x1B)@PAGEOFF; "err"'
p3923
sg19
S'9c830091'
p3924
sg21
Vadd x28, x28, #0x20
p3925
sg5
L18446743798839737696L
sg6
Nsg23
S'ADD'
p3926
sg25
S'0xffffffc0007b7d60L'
p3927
sg27
Nsbasg84
(lp3928
S'LDR reg, mem'
p3929
aS'ADRP reg7, #func@PAGE'
p3930
aS'ADRP reg8, #(aQcomMdssDsi_17+0x1B)@PAGE'
p3931
aS'LDR reg2, mem'
p3932
aS'ADRP reg6, #func@PAGE'
p3933
aS'ADD reg7, reg7, #func@PAGEOFF'
p3934
aS'ADD reg8, reg8, #(aQcomMdssDsi_17+0x1B)@PAGEOFF'
p3935
asg95
Nsg5
S'0xffffffc0007b7d48L'
p3936
sg97
(lp3937
S'0xffffffc0007b7d18L'
p3938
aS'0xffffffc0007b7d24L'
p3939
aS'0xffffffc0007b7d34L'
p3940
asg6
Nsg99
(lp3941
S'0xffffffc0007b7d64L'
p3942
asg103
Nsg104
Nsg105
S'0fd9ac1191aa7056e0eaa84d3d2d1fb4'
p3943
sg107
S'ed1ed9d5b352e38b89cde95baedfffd5'
p3944
sg109
(lp3945
g3884
ag3891
ag3898
ag3905
ag3912
ag3919
ag3926
asg111
Nsba(ibclass
BBasicBlock
p3946
(dp3947
g12
Nsg13
(lp3948
(ibclass
BInstr
p3949
(dp3950
g2
Nsg17
S'LDR             X0, [X19,#0x248]'
p3951
sg19
S'602641f9'
p3952
sg21
Vldr x0, [x19, #0x248]
p3953
sg5
L18446743798839737700L
sg6
Nsg23
S'LDR'
p3954
sg25
S'0xffffffc0007b7d64L'
p3955
sg27
Nsba(ibclass
BInstr
p3956
(dp3957
g2
Nsg17
S'LDR             W1, [X0,#0x90]'
p3958
sg19
S'019040b9'
p3959
sg21
Vldr w1, [x0, #0x90]
p3960
sg5
L18446743798839737704L
sg6
Nsg23
S'LDR'
p3961
sg25
S'0xffffffc0007b7d68L'
p3962
sg27
Nsba(ibclass
BInstr
p3963
(dp3964
g2
Nsg17
S'LDR             X0, [X0,#0x88]'
p3965
sg19
S'004440f9'
p3966
sg21
Vldr x0, [x0, #0x88]
p3967
sg5
L18446743798839737708L
sg6
Nsg23
S'LDR'
p3968
sg25
S'0xffffffc0007b7d6cL'
p3969
sg27
Nsba(ibclass
BInstr
p3970
(dp3971
g2
Nsg17
S'ADD             X0, X0, X1,LSL#5'
p3972
sg19
S'0014018b'
p3973
sg21
Vadd x0, x0, x1, lsl #5
p3974
sg5
L18446743798839737712L
sg6
Nsg23
S'ADD'
p3975
sg25
S'0xffffffc0007b7d70L'
p3976
sg27
Nsba(ibclass
BInstr
p3977
(dp3978
g2
Nsg17
S'CMP             X22, X0'
p3979
sg19
S'df0200eb'
p3980
sg21
Vcmp x22, x0
p3981
sg5
L18446743798839737716L
sg6
Nsg23
S'CMP'
p3982
sg25
S'0xffffffc0007b7d74L'
p3983
sg27
Nsba(ibclass
BInstr
p3984
(dp3985
g2
Nsg17
S'B.CS            loc_FFFFFFC0007B7D84'
p3986
sg19
S'62000054'
p3987
sg21
Vb.hs #0xc
p3988
sg5
L18446743798839737720L
sg6
Nsg23
g281
sg25
S'0xffffffc0007b7d78L'
p3989
sg27
Nsbasg84
(lp3990
S'LDR reg, mem'
p3991
aS'LDR reg, mem'
p3992
aS'LDR reg, mem'
p3993
aS'ADD reg, reg, reg,LSL#5'
p3994
aS'CMP reg2, reg'
p3995
aS'B.CS func'
p3996
asg95
Nsg5
S'0xffffffc0007b7d64L'
p3997
sg97
(lp3998
S'0xffffffc0007b7d48L'
p3999
aS'0xffffffc0007b7e28L'
p4000
asg6
Nsg99
(lp4001
S'0xffffffc0007b7d7cL'
p4002
aS'0xffffffc0007b7d84L'
p4003
asg103
Nsg104
Nsg105
S'680bbbfb58623e66c37f168833c14155'
p4004
sg107
S'c3cd632d3a28115e057c0a1610bba06f'
p4005
sg109
(lp4006
g3954
ag3961
ag3968
ag3975
ag3982
ag281
asg111
Nsba(ibclass
BBasicBlock
p4007
(dp4008
g12
Nsg13
(lp4009
(ibclass
BInstr
p4010
(dp4011
g2
Nsg17
S'CMP             X21, X22'
p4012
sg19
S'bf0216eb'
p4013
sg21
Vcmp x21, x22
p4014
sg5
L18446743798839737724L
sg6
Nsg23
S'CMP'
p4015
sg25
S'0xffffffc0007b7d7cL'
p4016
sg27
Nsba(ibclass
BInstr
p4017
(dp4018
g2
Nsg17
S'B.NE            loc_FFFFFFC0007B7DF4'
p4019
sg19
S'a1030054'
p4020
sg21
Vb.ne #0x74
p4021
sg5
L18446743798839737728L
sg6
Nsg23
g281
sg25
S'0xffffffc0007b7d80L'
p4022
sg27
Nsbasg84
(lp4023
S'CMP reg1, reg2'
p4024
aS'B.NE func'
p4025
asg95
Nsg5
S'0xffffffc0007b7d7cL'
p4026
sg97
(lp4027
S'0xffffffc0007b7d64L'
p4028
asg6
Nsg99
(lp4029
S'0xffffffc0007b7d84L'
p4030
aS'0xffffffc0007b7df4L'
p4031
asg103
Nsg104
Nsg105
S'c78fd620a449e3c979d3f3ec12d4ee88'
p4032
sg107
S'635888daed7a99bc3e61c878e39c057d'
p4033
sg109
(lp4034
g4015
ag281
asg111
Nsba(ibclass
BBasicBlock
p4035
(dp4036
g12
Nsg13
(lp4037
(ibclass
BInstr
p4038
(dp4039
g2
Nsg17
S'STR             WZR, [X19,#0x48]'
p4040
sg19
S'7f4a00b9'
p4041
sg21
Vstr wzr, [x19, #0x48]
p4042
sg5
L18446743798839737732L
sg6
Nsg23
S'STR'
p4043
sg25
S'0xffffffc0007b7d84L'
p4044
sg27
Nsba(ibclass
BInstr
p4045
(dp4046
g2
Nsg17
S'LDR             X24, [X24,#0x8A0]'
p4047
sg19
S'185344f9'
p4048
sg21
Vldr x24, [x24, #0x8a0]
p4049
sg5
L18446743798839737736L
sg6
Nsg23
S'LDR'
p4050
sg25
S'0xffffffc0007b7d88L'
p4051
sg27
Nsba(ibclass
BInstr
p4052
(dp4053
g2
Nsg17
S'LDR             W0, [X24]'
p4054
sg19
S'000340b9'
p4055
sg21
Vldr w0, [x24]
p4056
sg5
L18446743798839737740L
sg6
Nsg23
S'LDR'
p4057
sg25
S'0xffffffc0007b7d8cL'
p4058
sg27
Nsba(ibclass
BInstr
p4059
(dp4060
g2
Nsg17
S'TBNZ            W0, #0, loc_FFFFFFC0007B7E44'
p4061
sg19
S'a0050037'
p4062
sg21
Vtbnz w0, #0, #0xb4
p4063
sg5
L18446743798839737744L
sg6
Nsg23
S'TBNZ'
p4064
sg25
S'0xffffffc0007b7d90L'
p4065
sg27
Nsbasg84
(lp4066
S'STR WZR, mem'
p4067
aS'LDR reg4, mem'
p4068
aS'LDR reg, mem'
p4069
aS'TBNZ reg, #0, func'
p4070
asg95
Nsg5
S'0xffffffc0007b7d84L'
p4071
sg97
(lp4072
S'0xffffffc0007b7d64L'
p4073
aS'0xffffffc0007b7d7cL'
p4074
asg6
Nsg99
(lp4075
S'0xffffffc0007b7d94L'
p4076
aS'0xffffffc0007b7e44L'
p4077
asg103
Nsg104
Nsg105
S'b3b3d1cb47dd8eb2c94976d519db82ab'
p4078
sg107
S'a6348380740d93466e691f986b44e221'
p4079
sg109
(lp4080
g4043
ag4050
ag4057
ag4064
asg111
Nsba(ibclass
BBasicBlock
p4081
(dp4082
g12
Nsg13
(lp4083
(ibclass
BInstr
p4084
(dp4085
g2
Nsg17
S'MOV             X0, X23'
p4086
sg19
S'e00317aa'
p4087
sg21
Vmov x0, x23
p4088
sg5
L18446743798839737748L
sg6
Nsg23
S'MOV'
p4089
sg25
S'0xffffffc0007b7d94L'
p4090
sg27
Nsba(ibclass
BInstr
p4091
(dp4092
g2
Nsg17
S'BL              venus_hfi_disable_regulators.isra.11'
p4093
sg19
S'97fdff97'
p4094
sg21
Vbl #0xfffffffffffff65c
p4095
sg5
L18446743798839737752L
sg6
Nsg23
S'BL'
p4096
sg25
S'0xffffffc0007b7d98L'
p4097
sg27
Nsbasg84
(lp4098
S'MOV reg, reg3'
p4099
aS'BL venus_hfi_disable_regulators.isra.11'
p4100
asg95
Nsg5
S'0xffffffc0007b7d94L'
p4101
sg97
(lp4102
S'0xffffffc0007b7c54L'
p4103
aS'0xffffffc0007b7c64L'
p4104
aS'0xffffffc0007b7c74L'
p4105
aS'0xffffffc0007b7cb0L'
p4106
aS'0xffffffc0007b7d84L'
p4107
aS'0xffffffc0007b7e44L'
p4108
aS'0xffffffc0007b7e54L'
p4109
asg6
Nsg99
(lp4110
S'0xffffffc0007b7d9cL'
p4111
asg103
Nsg104
Nsg105
S'd358f8b13c87ca08ba6d4b865203703e'
p4112
sg107
S'7966c732fe94ef63992d4d0156843a89'
p4113
sg109
(lp4114
g4089
ag4096
asg111
Nsba(ibclass
BBasicBlock
p4115
(dp4116
g12
Nsg13
(lp4117
(ibclass
BInstr
p4118
(dp4119
g2
Nsg17
S'MOV             X0, X19'
p4120
sg19
S'e00313aa'
p4121
sg21
Vmov x0, x19
p4122
sg5
L18446743798839737756L
sg6
Nsg23
S'MOV'
p4123
sg25
S'0xffffffc0007b7d9cL'
p4124
sg27
Nsba(ibclass
BInstr
p4125
(dp4126
g2
Nsg17
S'BL              venus_hfi_unvote_buses'
p4127
sg19
S'd6fbff97'
p4128
sg21
Vbl #0xffffffffffffef58
p4129
sg5
L18446743798839737760L
sg6
Nsg23
S'BL'
p4130
sg25
S'0xffffffc0007b7da0L'
p4131
sg27
Nsbasg84
(lp4132
S'MOV reg, reg9'
p4133
aS'BL venus_hfi_unvote_buses'
p4134
asg95
Nsg5
S'0xffffffc0007b7d9cL'
p4135
sg97
(lp4136
S'0xffffffc0007b7904L'
p4137
aS'0xffffffc0007b7914L'
p4138
aS'0xffffffc0007b7924L'
p4139
aS'0xffffffc0007b7d94L'
p4140
asg6
Nsg99
(lp4141
S'0xffffffc0007b7da4L'
p4142
asg103
Nsg104
Nsg105
S'd358f8b13c87ca08ba6d4b865203703e'
p4143
sg107
S'fc2002cc622315c595ff59a4240c68e3'
p4144
sg109
(lp4145
g4123
ag4130
asg111
Nsba(ibclass
BBasicBlock
p4146
(dp4147
g12
Nsg13
(lp4148
(ibclass
BInstr
p4149
(dp4150
g2
Nsg17
S'ADRP            X0, #qword_FFFFFFC000E486F0@PAGE'
p4151
sg19
S'803400b0'
p4152
sg21
Vadrp x0, #0x691000
p4153
sg5
L18446743798839737764L
sg6
Nsg23
S'ADRP'
p4154
sg25
S'0xffffffc0007b7da4L'
p4155
sg27
Nsba(ibclass
BInstr
p4156
(dp4157
g2
Nsg17
S'LDR             X1, [X0,#qword_FFFFFFC000E486F0@PAGEOFF]'
p4158
sg19
S'017843f9'
p4159
sg21
Vldr x1, [x0, #0x6f0]
p4160
sg5
L18446743798839737768L
sg6
Nsg23
S'LDR'
p4161
sg25
S'0xffffffc0007b7da8L'
p4162
sg27
Nsba(ibclass
BInstr
p4163
(dp4164
g2
Nsg17
S'LDR             W2, [X1,#8]'
p4165
sg19
S'220840b9'
p4166
sg21
Vldr w2, [x1, #8]
p4167
sg5
L18446743798839737772L
sg6
Nsg23
S'LDR'
p4168
sg25
S'0xffffffc0007b7dacL'
p4169
sg27
Nsba(ibclass
BInstr
p4170
(dp4171
g2
Nsg17
S'MOV             X1, X0'
p4172
sg19
S'e10300aa'
p4173
sg21
Vmov x1, x0
p4174
sg5
L18446743798839737776L
sg6
Nsg23
S'MOV'
p4175
sg25
S'0xffffffc0007b7db0L'
p4176
sg27
Nsba(ibclass
BInstr
p4177
(dp4178
g2
Nsg17
S'CBZ             W2, loc_FFFFFFC0007B7F20'
p4179
sg19
S'620b0034'
p4180
sg21
Vcbz w2, #0x16c
p4181
sg5
L18446743798839737780L
sg6
Nsg23
S'CBZ'
p4182
sg25
S'0xffffffc0007b7db4L'
p4183
sg27
Nsbasg84
(lp4184
S'ADRP reg, #func@PAGE'
p4185
aS'LDR reg, mem'
p4186
aS'LDR reg, mem'
p4187
aS'MOV reg, reg'
p4188
aS'CBZ reg, func'
p4189
asg95
Nsg5
S'0xffffffc0007b7da4L'
p4190
sg97
(lp4191
S'0xffffffc0007b78b4L'
p4192
aS'0xffffffc0007b78c4L'
p4193
aS'0xffffffc0007b78d4L'
p4194
aS'0xffffffc0007b7d9cL'
p4195
asg6
Nsg99
(lp4196
S'0xffffffc0007b7db8L'
p4197
aS'0xffffffc0007b7f20L'
p4198
asg103
Nsg104
Nsg105
S'035a29e270946bb0185210eaaed17497'
p4199
sg107
S'a9e53a08de38a44669999560b88ca80e'
p4200
sg109
(lp4201
g4154
ag4161
ag4168
ag4175
ag4182
asg111
Nsba(ibclass
BBasicBlock
p4202
(dp4203
g12
Nsg13
(lp4204
(ibclass
BInstr
p4205
(dp4206
g2
Nsg17
S'B               loc_FFFFFFC0007B7EB0'
p4207
sg19
S'3e000014'
p4208
sg21
Vb #0xf8
p4209
sg5
L18446743798839737784L
sg6
Nsg23
g281
sg25
S'0xffffffc0007b7db8L'
p4210
sg27
Nsbasg84
(lp4211
S'B func'
p4212
asg95
Nsg5
S'0xffffffc0007b7db8L'
p4213
sg97
(lp4214
S'0xffffffc0007b7da4L'
p4215
asg6
Nsg99
(lp4216
S'0xffffffc0007b7eb0L'
p4217
asg103
Nsg104
Nsg105
S'9d5ed678fe57bcca610140957afab571'
p4218
sg107
S'071b057c420e304c628380fd3541c021'
p4219
sg109
(lp4220
g281
asg111
Nsba(ibclass
BBasicBlock
p4221
(dp4222
g12
Nsg13
(lp4223
(ibclass
BInstr
p4224
(dp4225
g2
Nsg17
S'MOV             W20, #0xFFFFFFEA'
p4226
sg19
S'b4028012'
p4227
sg21
Vmovn w20, #0x15
p4228
sg5
L18446743798839737788L
sg6
Nsg23
S'MOV'
p4229
sg25
S'0xffffffc0007b7dbcL'
p4230
sg27
Nsba(ibclass
BInstr
p4231
(dp4232
g2
Nsg17
S'B               loc_FFFFFFC0007B7F20'
p4233
sg19
S'58000014'
p4234
sg21
Vb #0x160
p4235
sg5
L18446743798839737792L
sg6
Nsg23
g281
sg25
S'0xffffffc0007b7dc0L'
p4236
sg27
Nsbasg84
(lp4237
S'MOV reg0, #0xFFFFFFEA'
p4238
aS'B func'
p4239
asg95
Nsg5
S'0xffffffc0007b7dbcL'
p4240
sg97
(lp4241
S'0xffffffc0007b77d4L'
p4242
asg6
Nsg99
(lp4243
S'0xffffffc0007b7f20L'
p4244
asg103
Nsg104
Nsg105
S'b6c4e95ccfe77a95e4cf2019dd3d5574'
p4245
sg107
S'45fce98b590fb7d9470d63b15f4568c4'
p4246
sg109
(lp4247
g4229
ag281
asg111
Nsba(ibclass
BBasicBlock
p4248
(dp4249
g12
Nsg13
(lp4250
(ibclass
BInstr
p4251
(dp4252
g2
Nsg17
S'LDR             X0, [X25,#qword_FFFFFFC000E458A0@PAGEOFF]'
p4253
sg19
S'205344f9'
p4254
sg21
Vldr x0, [x25, #0x8a0]
p4255
sg5
L18446743798839737796L
sg6
Nsg23
S'LDR'
p4256
sg25
S'0xffffffc0007b7dc4L'
p4257
sg27
Nsba(ibclass
BInstr
p4258
(dp4259
g2
Nsg17
S'LDR             W0, [X0]'
p4260
sg19
S'000040b9'
p4261
sg21
Vldr w0, [x0]
p4262
sg5
L18446743798839737800L
sg6
Nsg23
S'LDR'
p4263
sg25
S'0xffffffc0007b7dc8L'
p4264
sg27
Nsba(ibclass
BInstr
p4265
(dp4266
g2
Nsg17
S'TBZ             W0, #3, loc_FFFFFFC0007B7DEC'
p4267
sg19
S'00011836'
p4268
sg21
Vtbz w0, #3, #0x20
p4269
sg5
L18446743798839737804L
sg6
Nsg23
S'TBZ'
p4270
sg25
S'0xffffffc0007b7dccL'
p4271
sg27
Nsbasg84
(lp4272
S'LDR reg, mem'
p4273
aS'LDR reg, mem'
p4274
aS'TBZ reg, #3, func'
p4275
asg95
Nsg5
S'0xffffffc0007b7dc4L'
p4276
sg97
(lp4277
S'0xffffffc0007b79e0L'
p4278
asg6
Nsg99
(lp4279
S'0xffffffc0007b7dd0L'
p4280
aS'0xffffffc0007b7decL'
p4281
asg103
Nsg104
Nsg105
S'ac18b97d3a767be1a0530f85211830b6'
p4282
sg107
S'b1146fe23cec63f1a8ccc474229ea6eb'
p4283
sg109
(lp4284
g4256
ag4263
ag4270
asg111
Nsba(ibclass
BBasicBlock
p4285
(dp4286
g12
Nsg13
(lp4287
(ibclass
BInstr
p4288
(dp4289
g2
Nsg17
S'LDR             X0, [X26,#qword_FFFFFFC000E43D48@PAGEOFF]'
p4290
sg19
S'40a746f9'
p4291
sg21
Vldr x0, [x26, #0xd48]
p4292
sg5
L18446743798839737808L
sg6
Nsg23
S'LDR'
p4293
sg25
S'0xffffffc0007b7dd0L'
p4294
sg27
Nsba(ibclass
BInstr
p4295
(dp4296
g2
Nsg17
S'LDR             W0, [X0]'
p4297
sg19
S'000040b9'
p4298
sg21
Vldr w0, [x0]
p4299
sg5
L18446743798839737812L
sg6
Nsg23
S'LDR'
p4300
sg25
S'0xffffffc0007b7dd4L'
p4301
sg27
Nsba(ibclass
BInstr
p4302
(dp4303
g2
Nsg17
S'CBNZ            W0, loc_FFFFFFC0007B7DEC'
p4304
sg19
S'a0000035'
p4305
sg21
Vcbnz w0, #0x14
p4306
sg5
L18446743798839737816L
sg6
Nsg23
S'CBNZ'
p4307
sg25
S'0xffffffc0007b7dd8L'
p4308
sg27
Nsbasg84
(lp4309
S'LDR reg, mem'
p4310
aS'LDR reg, mem'
p4311
aS'CBNZ reg, func'
p4312
asg95
Nsg5
S'0xffffffc0007b7dd0L'
p4313
sg97
(lp4314
S'0xffffffc0007b7dc4L'
p4315
asg6
Nsg99
(lp4316
S'0xffffffc0007b7ddcL'
p4317
aS'0xffffffc0007b7decL'
p4318
asg103
Nsg104
Nsg105
S'f99d4c26198b49c08607b4e65321097b'
p4319
sg107
S'153317dd053ff09ae8062c0ea8ae7ec2'
p4320
sg109
(lp4321
g4293
ag4300
ag4307
asg111
Nsba(ibclass
BBasicBlock
p4322
(dp4323
g12
Nsg13
(lp4324
(ibclass
BInstr
p4325
(dp4326
g2
Nsg17
S'LDR             X2, [X21]'
p4327
sg19
S'a20240f9'
p4328
sg21
Vldr x2, [x21]
p4329
sg5
L18446743798839737820L
sg6
Nsg23
S'LDR'
p4330
sg25
S'0xffffffc0007b7ddcL'
p4331
sg27
Nsba(ibclass
BInstr
p4332
(dp4333
g2
Nsg17
S'MOV             X0, X27'
p4334
sg19
S'e0031baa'
p4335
sg21
Vmov x0, x27
p4336
sg5
L18446743798839737824L
sg6
Nsg23
S'MOV'
p4337
sg25
S'0xffffffc0007b7de0L'
p4338
sg27
Nsba(ibclass
BInstr
p4339
(dp4340
g2
Nsg17
S'MOV             X1, X28'
p4341
sg19
S'e1031caa'
p4342
sg21
Vmov x1, x28
p4343
sg5
L18446743798839737828L
sg6
Nsg23
S'MOV'
p4344
sg25
S'0xffffffc0007b7de4L'
p4345
sg27
Nsba(ibclass
BInstr
p4346
(dp4347
g2
Nsg17
S'BL              printk'
p4348
sg19
S'20db1994'
p4349
sg21
Vbl #0x676c80
p4350
sg5
L18446743798839737832L
sg6
Nsg23
S'BL'
p4351
sg25
S'0xffffffc0007b7de8L'
p4352
sg27
Nsbasg84
(lp4353
S'LDR reg, mem'
p4354
aS'MOV reg, reg7'
p4355
aS'MOV reg, reg8'
p4356
aS'BL printk'
p4357
asg95
Nsg5
S'0xffffffc0007b7ddcL'
p4358
sg97
(lp4359
S'0xffffffc0007b7dd0L'
p4360
asg6
Nsg99
(lp4361
S'0xffffffc0007b7decL'
p4362
asg103
Nsg104
Nsg105
S'a3751ff821fd0a209cae1e9c858c143f'
p4363
sg107
S'5e625f2b1ca512ecc46bd6832ab7a44b'
p4364
sg109
(lp4365
g4330
ag4337
ag4344
ag4351
asg111
Nsba(ibclass
BBasicBlock
p4366
(dp4367
g12
Nsg13
(lp4368
(ibclass
BInstr
p4369
(dp4370
g2
Nsg17
S'ADD             X21, X21, #0x20'
p4371
sg19
S'b5820091'
p4372
sg21
Vadd x21, x21, #0x20
p4373
sg5
L18446743798839737836L
sg6
Nsg23
S'ADD'
p4374
sg25
S'0xffffffc0007b7decL'
p4375
sg27
Nsba(ibclass
BInstr
p4376
(dp4377
g2
Nsg17
S'B               loc_FFFFFFC0007B79B0'
p4378
sg19
S'f0feff17'
p4379
sg21
Vb #0xfffffffffffffbc0
p4380
sg5
L18446743798839737840L
sg6
Nsg23
g281
sg25
S'0xffffffc0007b7df0L'
p4381
sg27
Nsbasg84
(lp4382
S'ADD reg1, reg1, #0x20'
p4383
aS'B func'
p4384
asg95
Nsg5
S'0xffffffc0007b7decL'
p4385
sg97
(lp4386
S'0xffffffc0007b7dc4L'
p4387
aS'0xffffffc0007b7dd0L'
p4388
aS'0xffffffc0007b7ddcL'
p4389
asg6
Nsg99
(lp4390
S'0xffffffc0007b79b0L'
p4391
asg103
Nsg104
Nsg105
S'f59ed0fb4617df9a98cc94b1d7075f92'
p4392
sg107
S'8897d6e883c49d31457868518ba1c066'
p4393
sg109
(lp4394
g4374
ag281
asg111
Nsba(ibclass
BBasicBlock
p4395
(dp4396
g12
Nsg13
(lp4397
(ibclass
BInstr
p4398
(dp4399
g2
Nsg17
S'MOV             X0, #0x64'
p4400
sg19
S'800c80d2'
p4401
sg21
Vmovz x0, #0x64
p4402
sg5
L18446743798839737844L
sg6
Nsg23
S'MOV'
p4403
sg25
S'0xffffffc0007b7df4L'
p4404
sg27
Nsba(ibclass
BInstr
p4405
(dp4406
g2
Nsg17
S'MOV             X1, X0'
p4407
sg19
S'e10300aa'
p4408
sg21
Vmov x1, x0
p4409
sg5
L18446743798839737848L
sg6
Nsg23
S'MOV'
p4410
sg25
S'0xffffffc0007b7df8L'
p4411
sg27
Nsba(ibclass
BInstr
p4412
(dp4413
g2
Nsg17
S'BL              usleep_range'
p4414
sg19
S'e0cfe997'
p4415
sg21
Vbl #0xffffffffffa73f80
p4416
sg5
L18446743798839737852L
sg6
Nsg23
S'BL'
p4417
sg25
S'0xffffffc0007b7dfcL'
p4418
sg27
Nsba(ibclass
BInstr
p4419
(dp4420
g2
Nsg17
S'LDR             X0, [X24,#0x8A0]'
p4421
sg19
S'005344f9'
p4422
sg21
Vldr x0, [x24, #0x8a0]
p4423
sg5
L18446743798839737856L
sg6
Nsg23
S'LDR'
p4424
sg25
S'0xffffffc0007b7e00L'
p4425
sg27
Nsba(ibclass
BInstr
p4426
(dp4427
g2
Nsg17
S'LDR             W0, [X0]'
p4428
sg19
S'000040b9'
p4429
sg21
Vldr w0, [x0]
p4430
sg5
L18446743798839737860L
sg6
Nsg23
S'LDR'
p4431
sg25
S'0xffffffc0007b7e04L'
p4432
sg27
Nsba(ibclass
BInstr
p4433
(dp4434
g2
Nsg17
S'TBZ             W0, #0, loc_FFFFFFC0007B7E28'
p4435
sg19
S'00010036'
p4436
sg21
Vtbz w0, #0, #0x20
p4437
sg5
L18446743798839737864L
sg6
Nsg23
S'TBZ'
p4438
sg25
S'0xffffffc0007b7e08L'
p4439
sg27
Nsbasg84
(lp4440
S'MOV reg, #0x64'
p4441
aS'MOV reg, reg'
p4442
aS'BL usleep_range'
p4443
aS'LDR reg, mem'
p4444
aS'LDR reg, mem'
p4445
aS'TBZ reg, #0, func'
p4446
asg95
Nsg5
S'0xffffffc0007b7df4L'
p4447
sg97
(lp4448
S'0xffffffc0007b7d7cL'
p4449
asg6
Nsg99
(lp4450
S'0xffffffc0007b7e0cL'
p4451
aS'0xffffffc0007b7e28L'
p4452
asg103
Nsg104
Nsg105
S'69d252b59da1741acbff13c80faf874a'
p4453
sg107
S'2c89136dcbaecb4bfd693dd93b0440c3'
p4454
sg109
(lp4455
g4403
ag4410
ag4417
ag4424
ag4431
ag4438
asg111
Nsba(ibclass
BBasicBlock
p4456
(dp4457
g12
Nsg13
(lp4458
(ibclass
BInstr
p4459
(dp4460
g2
Nsg17
S'LDR             X0, [X26,#qword_FFFFFFC000E43D48@PAGEOFF]'
p4461
sg19
S'40a746f9'
p4462
sg21
Vldr x0, [x26, #0xd48]
p4463
sg5
L18446743798839737868L
sg6
Nsg23
S'LDR'
p4464
sg25
S'0xffffffc0007b7e0cL'
p4465
sg27
Nsba(ibclass
BInstr
p4466
(dp4467
g2
Nsg17
S'LDR             W0, [X0]'
p4468
sg19
S'000040b9'
p4469
sg21
Vldr w0, [x0]
p4470
sg5
L18446743798839737872L
sg6
Nsg23
S'LDR'
p4471
sg25
S'0xffffffc0007b7e10L'
p4472
sg27
Nsba(ibclass
BInstr
p4473
(dp4474
g2
Nsg17
S'CBNZ            W0, loc_FFFFFFC0007B7E28'
p4475
sg19
S'a0000035'
p4476
sg21
Vcbnz w0, #0x14
p4477
sg5
L18446743798839737876L
sg6
Nsg23
S'CBNZ'
p4478
sg25
S'0xffffffc0007b7e14L'
p4479
sg27
Nsbasg84
(lp4480
S'LDR reg, mem'
p4481
aS'LDR reg, mem'
p4482
aS'CBNZ reg, func'
p4483
asg95
Nsg5
S'0xffffffc0007b7e0cL'
p4484
sg97
(lp4485
S'0xffffffc0007b7df4L'
p4486
asg6
Nsg99
(lp4487
S'0xffffffc0007b7e18L'
p4488
aS'0xffffffc0007b7e28L'
p4489
asg103
Nsg104
Nsg105
S'f99d4c26198b49c08607b4e65321097b'
p4490
sg107
S'153317dd053ff09ae8062c0ea8ae7ec2'
p4491
sg109
(lp4492
g4464
ag4471
ag4478
asg111
Nsba(ibclass
BBasicBlock
p4493
(dp4494
g12
Nsg13
(lp4495
(ibclass
BInstr
p4496
(dp4497
g2
Nsg17
S'LDR             X2, [X22]'
p4498
sg19
S'c20240f9'
p4499
sg21
Vldr x2, [x22]
p4500
sg5
L18446743798839737880L
sg6
Nsg23
S'LDR'
p4501
sg25
S'0xffffffc0007b7e18L'
p4502
sg27
Nsba(ibclass
BInstr
p4503
(dp4504
g2
Nsg17
S'MOV             X0, X27'
p4505
sg19
S'e0031baa'
p4506
sg21
Vmov x0, x27
p4507
sg5
L18446743798839737884L
sg6
Nsg23
S'MOV'
p4508
sg25
S'0xffffffc0007b7e1cL'
p4509
sg27
Nsba(ibclass
BInstr
p4510
(dp4511
g2
Nsg17
S'MOV             X1, X28'
p4512
sg19
S'e1031caa'
p4513
sg21
Vmov x1, x28
p4514
sg5
L18446743798839737888L
sg6
Nsg23
S'MOV'
p4515
sg25
S'0xffffffc0007b7e20L'
p4516
sg27
Nsba(ibclass
BInstr
p4517
(dp4518
g2
Nsg17
S'BL              printk'
p4519
sg19
S'11db1994'
p4520
sg21
Vbl #0x676c44
p4521
sg5
L18446743798839737892L
sg6
Nsg23
S'BL'
p4522
sg25
S'0xffffffc0007b7e24L'
p4523
sg27
Nsbasg84
(lp4524
S'LDR reg, mem'
p4525
aS'MOV reg, reg7'
p4526
aS'MOV reg, reg8'
p4527
aS'BL printk'
p4528
asg95
Nsg5
S'0xffffffc0007b7e18L'
p4529
sg97
(lp4530
S'0xffffffc0007b7e0cL'
p4531
asg6
Nsg99
(lp4532
S'0xffffffc0007b7e28L'
p4533
asg103
Nsg104
Nsg105
S'a3751ff821fd0a209cae1e9c858c143f'
p4534
sg107
S'5e625f2b1ca512ecc46bd6832ab7a44b'
p4535
sg109
(lp4536
g4501
ag4508
ag4515
ag4522
asg111
Nsba(ibclass
BBasicBlock
p4537
(dp4538
g12
Nsg13
(lp4539
(ibclass
BInstr
p4540
(dp4541
g2
Nsg17
S'LDR             X25, [X22,#8]'
p4542
sg19
S'd90640f9'
p4543
sg21
Vldr x25, [x22, #8]
p4544
sg5
L18446743798839737896L
sg6
Nsg23
S'LDR'
p4545
sg25
S'0xffffffc0007b7e28L'
p4546
sg27
Nsba(ibclass
BInstr
p4547
(dp4548
g2
Nsg17
S'ADD             X22, X22, #0x20'
p4549
sg19
S'd6820091'
p4550
sg21
Vadd x22, x22, #0x20
p4551
sg5
L18446743798839737900L
sg6
Nsg23
S'ADD'
p4552
sg25
S'0xffffffc0007b7e2cL'
p4553
sg27
Nsba(ibclass
BInstr
p4554
(dp4555
g2
Nsg17
S'MOV             X0, X25'
p4556
sg19
S'e00319aa'
p4557
sg21
Vmov x0, x25
p4558
sg5
L18446743798839737904L
sg6
Nsg23
S'MOV'
p4559
sg25
S'0xffffffc0007b7e30L'
p4560
sg27
Nsba(ibclass
BInstr
p4561
(dp4562
g2
Nsg17
S'BL              clk_disable'
p4563
sg19
S'78000f94'
p4564
sg21
Vbl #0x3c01e0
p4565
sg5
L18446743798839737908L
sg6
Nsg23
S'BL'
p4566
sg25
S'0xffffffc0007b7e34L'
p4567
sg27
Nsba(ibclass
BInstr
p4568
(dp4569
g2
Nsg17
S'MOV             X0, X25'
p4570
sg19
S'e00319aa'
p4571
sg21
Vmov x0, x25
p4572
sg5
L18446743798839737912L
sg6
Nsg23
S'MOV'
p4573
sg25
S'0xffffffc0007b7e38L'
p4574
sg27
Nsba(ibclass
BInstr
p4575
(dp4576
g2
Nsg17
S'BL              clk_unprepare'
p4577
sg19
S'36010f94'
p4578
sg21
Vbl #0x3c04d8
p4579
sg5
L18446743798839737916L
sg6
Nsg23
S'BL'
p4580
sg25
S'0xffffffc0007b7e3cL'
p4581
sg27
Nsba(ibclass
BInstr
p4582
(dp4583
g2
Nsg17
S'B               loc_FFFFFFC0007B7D64'
p4584
sg19
S'c9ffff17'
p4585
sg21
Vb #0xffffffffffffff24
p4586
sg5
L18446743798839737920L
sg6
Nsg23
g281
sg25
S'0xffffffc0007b7e40L'
p4587
sg27
Nsbasg84
(lp4588
S'LDR reg5, mem'
p4589
aS'ADD reg2, reg2, #0x20'
p4590
aS'MOV reg, reg5'
p4591
aS'BL clk_disable'
p4592
aS'MOV reg, reg5'
p4593
aS'BL clk_unprepare'
p4594
aS'B func'
p4595
asg95
Nsg5
S'0xffffffc0007b7e28L'
p4596
sg97
(lp4597
S'0xffffffc0007b7df4L'
p4598
aS'0xffffffc0007b7e0cL'
p4599
aS'0xffffffc0007b7e18L'
p4600
asg6
Nsg99
(lp4601
S'0xffffffc0007b7d64L'
p4602
asg103
Nsg104
Nsg105
S'956f7237fc79d1638294916d3d3e26e8'
p4603
sg107
S'718c5e4b6b9f482f3cae5b29a6d558fc'
p4604
sg109
(lp4605
g4545
ag4552
ag4559
ag4566
ag4573
ag4580
ag281
asg111
Nsba(ibclass
BBasicBlock
p4606
(dp4607
g12
Nsg13
(lp4608
(ibclass
BInstr
p4609
(dp4610
g2
Nsg17
S'ADRP            X0, #qword_FFFFFFC000E43D48@PAGE'
p4611
sg19
S'60340090'
p4612
sg21
Vadrp x0, #0x68c000
p4613
sg5
L18446743798839737924L
sg6
Nsg23
S'ADRP'
p4614
sg25
S'0xffffffc0007b7e44L'
p4615
sg27
Nsba(ibclass
BInstr
p4616
(dp4617
g2
Nsg17
S'LDR             X0, [X0,#qword_FFFFFFC000E43D48@PAGEOFF]'
p4618
sg19
S'00a446f9'
p4619
sg21
Vldr x0, [x0, #0xd48]
p4620
sg5
L18446743798839737928L
sg6
Nsg23
S'LDR'
p4621
sg25
S'0xffffffc0007b7e48L'
p4622
sg27
Nsba(ibclass
BInstr
p4623
(dp4624
g2
Nsg17
S'LDR             W0, [X0]'
p4625
sg19
S'000040b9'
p4626
sg21
Vldr w0, [x0]
p4627
sg5
L18446743798839737932L
sg6
Nsg23
S'LDR'
p4628
sg25
S'0xffffffc0007b7e4cL'
p4629
sg27
Nsba(ibclass
BInstr
p4630
(dp4631
g2
Nsg17
S'CBNZ            W0, loc_FFFFFFC0007B7D94'
p4632
sg19
S'20faff35'
p4633
sg21
Vcbnz w0, #0xffffffffffffff44
p4634
sg5
L18446743798839737936L
sg6
Nsg23
S'CBNZ'
p4635
sg25
S'0xffffffc0007b7e50L'
p4636
sg27
Nsbasg84
(lp4637
S'ADRP reg, #func@PAGE'
p4638
aS'LDR reg, mem'
p4639
aS'LDR reg, mem'
p4640
aS'CBNZ reg, func'
p4641
asg95
Nsg5
S'0xffffffc0007b7e44L'
p4642
sg97
(lp4643
S'0xffffffc0007b7d84L'
p4644
asg6
Nsg99
(lp4645
S'0xffffffc0007b7d94L'
p4646
aS'0xffffffc0007b7e54L'
p4647
asg103
Nsg104
Nsg105
S'9c97521b8b0f280d47a50ec9a5e4f86f'
p4648
sg107
S'bd26f8893557dc5fa132ff2490be0ebf'
p4649
sg109
(lp4650
g4614
ag4621
ag4628
ag4635
asg111
Nsba(ibclass
BBasicBlock
p4651
(dp4652
g12
Nsg13
(lp4653
(ibclass
BInstr
p4654
(dp4655
g2
Nsg17
S'ADRP            X0, #unk_FFFFFFC0013BF2C5@PAGE'
p4656
sg19
S'40600090'
p4657
sg21
Vadrp x0, #0xc08000
p4658
sg5
L18446743798839737940L
sg6
Nsg23
S'ADRP'
p4659
sg25
S'0xffffffc0007b7e54L'
p4660
sg27
Nsba(ibclass
BInstr
p4661
(dp4662
g2
Nsg17
S'ADRP            X1, #(aQcomMdssDsi_17+0x1B)@PAGE; "err"'
p4663
sg19
S'c15b0090'
p4664
sg21
Vadrp x1, #0xb78000
p4665
sg5
L18446743798839737944L
sg6
Nsg23
S'ADRP'
p4666
sg25
S'0xffffffc0007b7e58L'
p4667
sg27
Nsba(ibclass
BInstr
p4668
(dp4669
g2
Nsg17
S'ADD             X1, X1, #(aQcomMdssDsi_17+0x1B)@PAGEOFF; "err"'
p4670
sg19
S'21800091'
p4671
sg21
Vadd x1, x1, #0x20
p4672
sg5
L18446743798839737948L
sg6
Nsg23
S'ADD'
p4673
sg25
S'0xffffffc0007b7e5cL'
p4674
sg27
Nsba(ibclass
BInstr
p4675
(dp4676
g2
Nsg17
S'MOV             W2, W20'
p4677
sg19
S'e203142a'
p4678
sg21
Vmov w2, w20
p4679
sg5
L18446743798839737952L
sg6
Nsg23
S'MOV'
p4680
sg25
S'0xffffffc0007b7e60L'
p4681
sg27
Nsba(ibclass
BInstr
p4682
(dp4683
g2
Nsg17
S'ADD             X0, X0, #unk_FFFFFFC0013BF2C5@PAGEOFF'
p4684
sg19
S'00140b91'
p4685
sg21
Vadd x0, x0, #0x2c5
p4686
sg5
L18446743798839737956L
sg6
Nsg23
S'ADD'
p4687
sg25
S'0xffffffc0007b7e64L'
p4688
sg27
Nsba(ibclass
BInstr
p4689
(dp4690
g2
Nsg17
S'BL              printk'
p4691
sg19
S'00db1994'
p4692
sg21
Vbl #0x676c00
p4693
sg5
L18446743798839737960L
sg6
Nsg23
S'BL'
p4694
sg25
S'0xffffffc0007b7e68L'
p4695
sg27
Nsba(ibclass
BInstr
p4696
(dp4697
g2
Nsg17
S'B               loc_FFFFFFC0007B7D94'
p4698
sg19
S'caffff17'
p4699
sg21
Vb #0xffffffffffffff28
p4700
sg5
L18446743798839737964L
sg6
Nsg23
g281
sg25
S'0xffffffc0007b7e6cL'
p4701
sg27
Nsbasg84
(lp4702
S'ADRP reg, #func@PAGE'
p4703
aS'ADRP reg, #(aQcomMdssDsi_17+0x1B)@PAGE'
p4704
aS'ADD reg, reg, #(aQcomMdssDsi_17+0x1B)@PAGEOFF'
p4705
aS'MOV reg, reg0'
p4706
aS'ADD reg, reg, #func@PAGEOFF'
p4707
aS'BL printk'
p4708
aS'B func'
p4709
asg95
Nsg5
S'0xffffffc0007b7e54L'
p4710
sg97
(lp4711
S'0xffffffc0007b7e44L'
p4712
asg6
Nsg99
(lp4713
S'0xffffffc0007b7d94L'
p4714
asg103
Nsg104
Nsg105
S'ff7f44466e74267aa9d96fda41da35ba'
p4715
sg107
S'f8f7a04f18efeaf03a61c7ca3fcf4ead'
p4716
sg109
(lp4717
g4659
ag4666
ag4673
ag4680
ag4687
ag4694
ag281
asg111
Nsba(ibclass
BBasicBlock
p4718
(dp4719
g12
Nsg13
(lp4720
(ibclass
BInstr
p4721
(dp4722
g2
Nsg17
S'ADRP            X0, #qword_FFFFFFC000E458A0@PAGE'
p4723
sg19
S'603400d0'
p4724
sg21
Vadrp x0, #0x68e000
p4725
sg5
L18446743798839737968L
sg6
Nsg23
S'ADRP'
p4726
sg25
S'0xffffffc0007b7e70L'
p4727
sg27
Nsba(ibclass
BInstr
p4728
(dp4729
g2
Nsg17
S'LDR             X0, [X0,#qword_FFFFFFC000E458A0@PAGEOFF]'
p4730
sg19
S'005044f9'
p4731
sg21
Vldr x0, [x0, #0x8a0]
p4732
sg5
L18446743798839737972L
sg6
Nsg23
S'LDR'
p4733
sg25
S'0xffffffc0007b7e74L'
p4734
sg27
Nsba(ibclass
BInstr
p4735
(dp4736
g2
Nsg17
S'MOV             W20, #0xFFFFFFF4'
p4737
sg19
S'74018012'
p4738
sg21
Vmovn w20, #0xb
p4739
sg5
L18446743798839737976L
sg6
Nsg23
S'MOV'
p4740
sg25
S'0xffffffc0007b7e78L'
p4741
sg27
Nsba(ibclass
BInstr
p4742
(dp4743
g2
Nsg17
S'LDR             W0, [X0]'
p4744
sg19
S'000040b9'
p4745
sg21
Vldr w0, [x0]
p4746
sg5
L18446743798839737980L
sg6
Nsg23
S'LDR'
p4747
sg25
S'0xffffffc0007b7e7cL'
p4748
sg27
Nsba(ibclass
BInstr
p4749
(dp4750
g2
Nsg17
S'TBZ             W0, #0, loc_FFFFFFC0007B7C44'
p4751
sg19
S'20ee0736'
p4752
sg21
Vtbz w0, #0, #0xfffffffffffffdc4
p4753
sg5
L18446743798839737984L
sg6
Nsg23
S'TBZ'
p4754
sg25
S'0xffffffc0007b7e80L'
p4755
sg27
Nsbasg84
(lp4756
S'ADRP reg, #func@PAGE'
p4757
aS'LDR reg, mem'
p4758
aS'MOV reg0, #0xFFFFFFF4'
p4759
aS'LDR reg, mem'
p4760
aS'TBZ reg, #0, func'
p4761
asg95
Nsg5
S'0xffffffc0007b7e70L'
p4762
sg97
(lp4763
S'0xffffffc0007b7aa0L'
p4764
aS'0xffffffc0007b7aa8L'
p4765
asg6
Nsg99
(lp4766
S'0xffffffc0007b7c44L'
p4767
aS'0xffffffc0007b7e84L'
p4768
asg103
Nsg104
Nsg105
S'fb7c64e200fb6e0b1c15ec663b8ca287'
p4769
sg107
S'656df5e734caa075f4268e2b9920e662'
p4770
sg109
(lp4771
g4726
ag4733
ag4740
ag4747
ag4754
asg111
Nsba(ibclass
BBasicBlock
p4772
(dp4773
g12
Nsg13
(lp4774
(ibclass
BInstr
p4775
(dp4776
g2
Nsg17
S'ADRP            X0, #qword_FFFFFFC000E43D48@PAGE'
p4777
sg19
S'60340090'
p4778
sg21
Vadrp x0, #0x68c000
p4779
sg5
L18446743798839737988L
sg6
Nsg23
S'ADRP'
p4780
sg25
S'0xffffffc0007b7e84L'
p4781
sg27
Nsba(ibclass
BInstr
p4782
(dp4783
g2
Nsg17
S'LDR             X0, [X0,#qword_FFFFFFC000E43D48@PAGEOFF]'
p4784
sg19
S'00a446f9'
p4785
sg21
Vldr x0, [x0, #0xd48]
p4786
sg5
L18446743798839737992L
sg6
Nsg23
S'LDR'
p4787
sg25
S'0xffffffc0007b7e88L'
p4788
sg27
Nsba(ibclass
BInstr
p4789
(dp4790
g2
Nsg17
S'MOV             W20, #0xFFFFFFF4'
p4791
sg19
S'74018012'
p4792
sg21
Vmovn w20, #0xb
p4793
sg5
L18446743798839737996L
sg6
Nsg23
S'MOV'
p4794
sg25
S'0xffffffc0007b7e8cL'
p4795
sg27
Nsba(ibclass
BInstr
p4796
(dp4797
g2
Nsg17
S'LDR             W0, [X0]'
p4798
sg19
S'000040b9'
p4799
sg21
Vldr w0, [x0]
p4800
sg5
L18446743798839738000L
sg6
Nsg23
S'LDR'
p4801
sg25
S'0xffffffc0007b7e90L'
p4802
sg27
Nsba(ibclass
BInstr
p4803
(dp4804
g2
Nsg17
S'CBNZ            W0, loc_FFFFFFC0007B7C44'
p4805
sg19
S'80edff35'
p4806
sg21
Vcbnz w0, #0xfffffffffffffdb0
p4807
sg5
L18446743798839738004L
sg6
Nsg23
S'CBNZ'
p4808
sg25
S'0xffffffc0007b7e94L'
p4809
sg27
Nsbasg84
(lp4810
S'ADRP reg, #func@PAGE'
p4811
aS'LDR reg, mem'
p4812
aS'MOV reg0, #0xFFFFFFF4'
p4813
aS'LDR reg, mem'
p4814
aS'CBNZ reg, func'
p4815
asg95
Nsg5
S'0xffffffc0007b7e84L'
p4816
sg97
(lp4817
S'0xffffffc0007b7e70L'
p4818
asg6
Nsg99
(lp4819
S'0xffffffc0007b7c44L'
p4820
aS'0xffffffc0007b7e98L'
p4821
asg103
Nsg104
Nsg105
S'd80cc6d531f24a5b2d60307977d236c7'
p4822
sg107
S'ee5da8bad4ef7498b2c177035aaa4efc'
p4823
sg109
(lp4824
g4780
ag4787
ag4794
ag4801
ag4808
asg111
Nsba(ibclass
BBasicBlock
p4825
(dp4826
g12
Nsg13
(lp4827
(ibclass
BInstr
p4828
(dp4829
g2
Nsg17
S'ADRP            X0, #unk_FFFFFFC0013BF31C@PAGE'
p4830
sg19
S'40600090'
p4831
sg21
Vadrp x0, #0xc08000
p4832
sg5
L18446743798839738008L
sg6
Nsg23
S'ADRP'
p4833
sg25
S'0xffffffc0007b7e98L'
p4834
sg27
Nsba(ibclass
BInstr
p4835
(dp4836
g2
Nsg17
S'ADRP            X1, #(aQcomMdssDsi_17+0x1B)@PAGE; "err"'
p4837
sg19
S'c15b0090'
p4838
sg21
Vadrp x1, #0xb78000
p4839
sg5
L18446743798839738012L
sg6
Nsg23
S'ADRP'
p4840
sg25
S'0xffffffc0007b7e9cL'
p4841
sg27
Nsba(ibclass
BInstr
p4842
(dp4843
g2
Nsg17
S'ADD             X1, X1, #(aQcomMdssDsi_17+0x1B)@PAGEOFF; "err"'
p4844
sg19
S'21800091'
p4845
sg21
Vadd x1, x1, #0x20
p4846
sg5
L18446743798839738016L
sg6
Nsg23
S'ADD'
p4847
sg25
S'0xffffffc0007b7ea0L'
p4848
sg27
Nsba(ibclass
BInstr
p4849
(dp4850
g2
Nsg17
S'ADD             X0, X0, #unk_FFFFFFC0013BF31C@PAGEOFF'
p4851
sg19
S'00700c91'
p4852
sg21
Vadd x0, x0, #0x31c
p4853
sg5
L18446743798839738020L
sg6
Nsg23
S'ADD'
p4854
sg25
S'0xffffffc0007b7ea4L'
p4855
sg27
Nsba(ibclass
BInstr
p4856
(dp4857
g2
Nsg17
S'BL              printk'
p4858
sg19
S'f0da1994'
p4859
sg21
Vbl #0x676bc0
p4860
sg5
L18446743798839738024L
sg6
Nsg23
S'BL'
p4861
sg25
S'0xffffffc0007b7ea8L'
p4862
sg27
Nsba(ibclass
BInstr
p4863
(dp4864
g2
Nsg17
S'B               loc_FFFFFFC0007B7C44'
p4865
sg19
S'66ffff17'
p4866
sg21
Vb #0xfffffffffffffd98
p4867
sg5
L18446743798839738028L
sg6
Nsg23
g281
sg25
S'0xffffffc0007b7eacL'
p4868
sg27
Nsbasg84
(lp4869
S'ADRP reg, #func@PAGE'
p4870
aS'ADRP reg, #(aQcomMdssDsi_17+0x1B)@PAGE'
p4871
aS'ADD reg, reg, #(aQcomMdssDsi_17+0x1B)@PAGEOFF'
p4872
aS'ADD reg, reg, #func@PAGEOFF'
p4873
aS'BL printk'
p4874
aS'B func'
p4875
asg95
Nsg5
S'0xffffffc0007b7e98L'
p4876
sg97
(lp4877
S'0xffffffc0007b7e84L'
p4878
asg6
Nsg99
(lp4879
S'0xffffffc0007b7c44L'
p4880
asg103
Nsg104
Nsg105
S'b2a3927201f2643e37e238d870ced3c2'
p4881
sg107
S'3e167cdac8f124cfbacea29ee5c30eb0'
p4882
sg109
(lp4883
g4833
ag4840
ag4847
ag4854
ag4861
ag281
asg111
Nsba(ibclass
BBasicBlock
p4884
(dp4885
g12
Nsg13
(lp4886
(ibclass
BInstr
p4887
(dp4888
g2
Nsg17
S'MOV             X2, SP'
p4889
sg19
S'e2030091'
p4890
sg21
Vmov x2, sp
p4891
sg5
L18446743798839738032L
sg6
Nsg23
S'MOV'
p4892
sg25
S'0xffffffc0007b7eb0L'
p4893
sg27
Nsba(ibclass
BInstr
p4894
(dp4895
g2
Nsg17
S'AND             X0, X2, #0xFFFFFFFFFFFFC000'
p4896
sg19
S'40c47292'
p4897
sg21
Vand x0, x2, #0xffffffffffffc000
p4898
sg5
L18446743798839738036L
sg6
Nsg23
S'AND'
p4899
sg25
S'0xffffffc0007b7eb4L'
p4900
sg27
Nsba(ibclass
BInstr
p4901
(dp4902
g2
Nsg17
S'LDR             W2, [X0,#0x50]'
p4903
sg19
S'025040b9'
p4904
sg21
Vldr w2, [x0, #0x50]
p4905
sg5
L18446743798839738040L
sg6
Nsg23
S'LDR'
p4906
sg25
S'0xffffffc0007b7eb8L'
p4907
sg27
Nsba(ibclass
BInstr
p4908
(dp4909
g2
Nsg17
S'ADD             W2, W2, #1'
p4910
sg19
S'42040011'
p4911
sg21
Vadd w2, w2, #1
p4912
sg5
L18446743798839738044L
sg6
Nsg23
S'ADD'
p4913
sg25
S'0xffffffc0007b7ebcL'
p4914
sg27
Nsba(ibclass
BInstr
p4915
(dp4916
g2
Nsg17
S'STR             W2, [X0,#0x50]'
p4917
sg19
S'025000b9'
p4918
sg21
Vstr w2, [x0, #0x50]
p4919
sg5
L18446743798839738048L
sg6
Nsg23
S'STR'
p4920
sg25
S'0xffffffc0007b7ec0L'
p4921
sg27
Nsba(ibclass
BInstr
p4922
(dp4923
g2
Nsg17
S'LDR             X0, [X1,#(qword_FFFFFFC000E486F0 - 0xFFFFFFC000E48000)]'
p4924
sg19
S'207843f9'
p4925
sg21
Vldr x0, [x1, #0x6f0]
p4926
sg5
L18446743798839738052L
sg6
Nsg23
S'LDR'
p4927
sg25
S'0xffffffc0007b7ec4L'
p4928
sg27
Nsba(ibclass
BInstr
p4929
(dp4930
g2
Nsg17
S'LDR             X19, [X0,#0x20]'
p4931
sg19
S'131040f9'
p4932
sg21
Vldr x19, [x0, #0x20]
p4933
sg5
L18446743798839738056L
sg6
Nsg23
S'LDR'
p4934
sg25
S'0xffffffc0007b7ec8L'
p4935
sg27
Nsba(ibclass
BInstr
p4936
(dp4937
g2
Nsg17
S'MOV             X0, SP'
p4938
sg19
S'e0030091'
p4939
sg21
Vmov x0, sp
p4940
sg5
L18446743798839738060L
sg6
Nsg23
S'MOV'
p4941
sg25
S'0xffffffc0007b7eccL'
p4942
sg27
Nsba(ibclass
BInstr
p4943
(dp4944
g2
Nsg17
S'AND             X21, X0, #0xFFFFFFFFFFFFC000'
p4945
sg19
S'15c47292'
p4946
sg21
Vand x21, x0, #0xffffffffffffc000
p4947
sg5
L18446743798839738064L
sg6
Nsg23
S'AND'
p4948
sg25
S'0xffffffc0007b7ed0L'
p4949
sg27
Nsba(ibclass
BInstr
p4950
(dp4951
g2
Nsg17
S'CBNZ            X19, loc_FFFFFFC0007B7EFC'
p4952
sg19
S'530100b5'
p4953
sg21
Vcbnz x19, #0x28
p4954
sg5
L18446743798839738068L
sg6
Nsg23
S'CBNZ'
p4955
sg25
S'0xffffffc0007b7ed4L'
p4956
sg27
Nsbasg84
(lp4957
S'MOV reg, SP'
p4958
aS'AND reg, reg, #0xFFFFFFFFFFFFC000'
p4959
aS'LDR reg, mem'
p4960
aS'ADD reg, reg, #1'
p4961
aS'STR reg, mem'
p4962
aS'LDR reg, mem'
p4963
aS'LDR reg9, mem'
p4964
aS'MOV reg, SP'
p4965
aS'AND reg1, reg, #0xFFFFFFFFFFFFC000'
p4966
aS'CBNZ reg9, func'
p4967
asg95
Nsg5
S'0xffffffc0007b7eb0L'
p4968
sg97
(lp4969
S'0xffffffc0007b7db8L'
p4970
asg6
Nsg99
(lp4971
S'0xffffffc0007b7ed8L'
p4972
aS'0xffffffc0007b7efcL'
p4973
asg103
Nsg104
Nsg105
S'854bcb6628c0122bdcf1f2410e0a8f91'
p4974
sg107
S'c5a9b40217d78a08320e687e1bcad036'
p4975
sg109
(lp4976
g4892
ag4899
ag4906
ag4913
ag4920
ag4927
ag4934
ag4941
ag4948
ag4955
asg111
Nsba(ibclass
BBasicBlock
p4977
(dp4978
g12
Nsg13
(lp4979
(ibclass
BInstr
p4980
(dp4981
g2
Nsg17
S'LDR             W0, [X21,#0x50]'
p4982
sg19
S'a05240b9'
p4983
sg21
Vldr w0, [x21, #0x50]
p4984
sg5
L18446743798839738072L
sg6
Nsg23
S'LDR'
p4985
sg25
S'0xffffffc0007b7ed8L'
p4986
sg27
Nsba(ibclass
BInstr
p4987
(dp4988
g2
Nsg17
S'SUB             W0, W0, #1'
p4989
sg19
S'00040051'
p4990
sg21
Vsub w0, w0, #1
p4991
sg5
L18446743798839738076L
sg6
Nsg23
S'SUB'
p4992
sg25
S'0xffffffc0007b7edcL'
p4993
sg27
Nsba(ibclass
BInstr
p4994
(dp4995
g2
Nsg17
S'STR             W0, [X21,#0x50]'
p4996
sg19
S'a05200b9'
p4997
sg21
Vstr w0, [x21, #0x50]
p4998
sg5
L18446743798839738080L
sg6
Nsg23
S'STR'
p4999
sg25
S'0xffffffc0007b7ee0L'
p5000
sg27
Nsba(ibclass
BInstr
p5001
(dp5002
g2
Nsg17
S'MOV             X1, SP'
p5003
sg19
S'e1030091'
p5004
sg21
Vmov x1, sp
p5005
sg5
L18446743798839738084L
sg6
Nsg23
S'MOV'
p5006
sg25
S'0xffffffc0007b7ee4L'
p5007
sg27
Nsba(ibclass
BInstr
p5008
(dp5009
g2
Nsg17
S'AND             X0, X1, #0xFFFFFFFFFFFFC000'
p5010
sg19
S'20c47292'
p5011
sg21
Vand x0, x1, #0xffffffffffffc000
p5012
sg5
L18446743798839738088L
sg6
Nsg23
S'AND'
p5013
sg25
S'0xffffffc0007b7ee8L'
p5014
sg27
Nsba(ibclass
BInstr
p5015
(dp5016
g2
Nsg17
S'LDR             X0, [X0]'
p5017
sg19
S'000040f9'
p5018
sg21
Vldr x0, [x0]
p5019
sg5
L18446743798839738092L
sg6
Nsg23
S'LDR'
p5020
sg25
S'0xffffffc0007b7eecL'
p5021
sg27
Nsba(ibclass
BInstr
p5022
(dp5023
g2
Nsg17
S'TBZ             W0, #1, loc_FFFFFFC0007B7F20'
p5024
sg19
S'80010836'
p5025
sg21
Vtbz w0, #1, #0x30
p5026
sg5
L18446743798839738096L
sg6
Nsg23
S'TBZ'
p5027
sg25
S'0xffffffc0007b7ef0L'
p5028
sg27
Nsbasg84
(lp5029
S'LDR reg, mem'
p5030
aS'SUB reg, reg, #1'
p5031
aS'STR reg, mem'
p5032
aS'MOV reg, SP'
p5033
aS'AND reg, reg, #0xFFFFFFFFFFFFC000'
p5034
aS'LDR reg, mem'
p5035
aS'TBZ reg, #1, func'
p5036
asg95
Nsg5
S'0xffffffc0007b7ed8L'
p5037
sg97
(lp5038
S'0xffffffc0007b7eb0L'
p5039
aS'0xffffffc0007b7f1cL'
p5040
asg6
Nsg99
(lp5041
S'0xffffffc0007b7ef4L'
p5042
aS'0xffffffc0007b7f20L'
p5043
asg103
Nsg104
Nsg105
S'3720064751a364c91ffbeb0560410e63'
p5044
sg107
S'37582c0faffe5543c0f071979b371e8c'
p5045
sg109
(lp5046
g4985
ag4992
ag4999
ag5006
ag5013
ag5020
ag5027
asg111
Nsba(ibclass
BBasicBlock
p5047
(dp5048
g12
Nsg13
(lp5049
(ibclass
BInstr
p5050
(dp5051
g2
Nsg17
S'BL              preempt_schedule'
p5052
sg19
S'75111a94'
p5053
sg21
Vbl #0x6845d4
p5054
sg5
L18446743798839738100L
sg6
Nsg23
S'BL'
p5055
sg25
S'0xffffffc0007b7ef4L'
p5056
sg27
Nsba(ibclass
BInstr
p5057
(dp5058
g2
Nsg17
S'B               loc_FFFFFFC0007B7F20'
p5059
sg19
S'0a000014'
p5060
sg21
Vb #0x28
p5061
sg5
L18446743798839738104L
sg6
Nsg23
g281
sg25
S'0xffffffc0007b7ef8L'
p5062
sg27
Nsbasg84
(lp5063
S'BL preempt_schedule'
p5064
aS'B func'
p5065
asg95
Nsg5
S'0xffffffc0007b7ef4L'
p5066
sg97
(lp5067
S'0xffffffc0007b7ed8L'
p5068
asg6
Nsg99
(lp5069
S'0xffffffc0007b7f20L'
p5070
asg103
Nsg104
Nsg105
S'be97a5cc528a44f4f1daeedd1e2f20e2'
p5071
sg107
S'2289b238398d7be2e507b065341139df'
p5072
sg109
(lp5073
g5055
ag281
asg111
Nsba(ibclass
BBasicBlock
p5074
(dp5075
g12
Nsg13
(lp5076
(ibclass
BInstr
p5077
(dp5078
g2
Nsg17
S'ADRP            X22, #aMsm_v4l2_vid_0@PAGE; "msm_v4l2_vidc venus_fw load end"'
p5079
sg19
S'56600090'
p5080
sg21
Vadrp x22, #0xc08000
p5081
sg5
L18446743798839738108L
sg6
Nsg23
S'ADRP'
p5082
sg25
S'0xffffffc0007b7efcL'
p5083
sg27
Nsba(ibclass
BInstr
p5084
(dp5085
g2
Nsg17
S'ADD             X22, X22, #aMsm_v4l2_vid_0@PAGEOFF; "msm_v4l2_vidc venus_fw load end"'
p5086
sg19
S'd6a60f91'
p5087
sg21
Vadd x22, x22, #0x3e9
p5088
sg5
L18446743798839738112L
sg6
Nsg23
S'ADD'
p5089
sg25
S'0xffffffc0007b7f00L'
p5090
sg27
Nsbasg84
(lp5091
S'ADRP reg2, #aMsm_v4l2_vid_0@PAGE'
p5092
aS'ADD reg2, reg2, #aMsm_v4l2_vid_0@PAGEOFF'
p5093
asg95
Nsg5
S'0xffffffc0007b7efcL'
p5094
sg97
(lp5095
S'0xffffffc0007b7eb0L'
p5096
asg6
Nsg99
(lp5097
S'0xffffffc0007b7f04L'
p5098
asg103
Nsg104
Nsg105
S'4c330fd47d9d30794e360f434bcba16f'
p5099
sg107
S'0fc5ffb3d61b8b9f0f801a30eb1d8a17'
p5100
sg109
(lp5101
g5082
ag5089
asg111
Nsba(ibclass
BBasicBlock
p5102
(dp5103
g12
Nsg13
(lp5104
(ibclass
BInstr
p5105
(dp5106
g2
Nsg17
S'LDR             X2, [X19]'
p5107
sg19
S'620240f9'
p5108
sg21
Vldr x2, [x19]
p5109
sg5
L18446743798839738116L
sg6
Nsg23
S'LDR'
p5110
sg25
S'0xffffffc0007b7f04L'
p5111
sg27
Nsba(ibclass
BInstr
p5112
(dp5113
g2
Nsg17
S'LDR             X0, [X19,#8]'
p5114
sg19
S'600640f9'
p5115
sg21
Vldr x0, [x19, #8]
p5116
sg5
L18446743798839738120L
sg6
Nsg23
S'LDR'
p5117
sg25
S'0xffffffc0007b7f08L'
p5118
sg27
Nsba(ibclass
BInstr
p5119
(dp5120
g2
Nsg17
S'MOV             X1, X22'
p5121
sg19
S'e10316aa'
p5122
sg21
Vmov x1, x22
p5123
sg5
L18446743798839738124L
sg6
Nsg23
S'MOV'
p5124
sg25
S'0xffffffc0007b7f0cL'
p5125
sg27
Nsba(ibclass
BInstr
p5126
(dp5127
g2
Nsg17
S'BLR             X2'
p5128
sg19
S'40003fd6'
p5129
sg21
Vblr x2
p5130
sg5
L18446743798839738128L
sg6
Nsg23
S'BLR'
p5131
sg25
S'0xffffffc0007b7f10L'
p5132
sg27
Nsba(ibclass
BInstr
p5133
(dp5134
g2
Nsg17
S'LDR             X0, [X19,#0x10]!'
p5135
sg19
S'600e41f8'
p5136
sg21
Vldr x0, [x19, #0x10]!
p5137
sg5
L18446743798839738132L
sg6
Nsg23
S'LDR'
p5138
sg25
S'0xffffffc0007b7f14L'
p5139
sg27
Nsba(ibclass
BInstr
p5140
(dp5141
g2
Nsg17
S'CBNZ            X0, loc_FFFFFFC0007B7F04'
p5142
sg19
S'60ffffb5'
p5143
sg21
Vcbnz x0, #0xffffffffffffffec
p5144
sg5
L18446743798839738136L
sg6
Nsg23
S'CBNZ'
p5145
sg25
S'0xffffffc0007b7f18L'
p5146
sg27
Nsbasg84
(lp5147
S'LDR reg, mem'
p5148
aS'LDR reg, mem'
p5149
aS'MOV reg, reg2'
p5150
aS'BLR reg'
p5151
aS'LDR reg, mem!'
p5152
aS'CBNZ reg, func'
p5153
asg95
Nsg5
S'0xffffffc0007b7f04L'
p5154
sg97
(lp5155
S'0xffffffc0007b7efcL'
p5156
aS'0xffffffc0007b7f04L'
p5157
asg6
Nsg99
(lp5158
S'0xffffffc0007b7f1cL'
p5159
aS'0xffffffc0007b7f04L'
p5160
asg103
Nsg104
Nsg105
S'6f4700400ea687c0354cc9bbd60667ec'
p5161
sg107
S'4b584cdc2bc2ef44d019a07a8d8b0c90'
p5162
sg109
(lp5163
g5110
ag5117
ag5124
ag5131
ag5138
ag5145
asg111
Nsba(ibclass
BBasicBlock
p5164
(dp5165
g12
Nsg13
(lp5166
(ibclass
BInstr
p5167
(dp5168
g2
Nsg17
S'B               loc_FFFFFFC0007B7ED8'
p5169
sg19
S'efffff17'
p5170
sg21
Vb #0xffffffffffffffbc
p5171
sg5
L18446743798839738140L
sg6
Nsg23
g281
sg25
S'0xffffffc0007b7f1cL'
p5172
sg27
Nsbasg84
(lp5173
S'B func'
p5174
asg95
Nsg5
S'0xffffffc0007b7f1cL'
p5175
sg97
(lp5176
S'0xffffffc0007b7f04L'
p5177
asg6
Nsg99
(lp5178
S'0xffffffc0007b7ed8L'
p5179
asg103
Nsg104
Nsg105
S'9d5ed678fe57bcca610140957afab571'
p5180
sg107
S'071b057c420e304c628380fd3541c021'
p5181
sg109
(lp5182
g281
asg111
Nsba(ibclass
BBasicBlock
p5183
(dp5184
g12
Nsg13
(lp5185
(ibclass
BInstr
p5186
(dp5187
g2
Nsg17
S'MOV             W0, W20'
p5188
sg19
S'e003142a'
p5189
sg21
Vmov w0, w20
p5190
sg5
L18446743798839738144L
sg6
Nsg23
S'MOV'
p5191
sg25
S'0xffffffc0007b7f20L'
p5192
sg27
Nsba(ibclass
BInstr
p5193
(dp5194
g2
Nsg17
S'LDP             X21, X22, [SP,#0x50+var_30]'
p5195
sg19
S'f55b42a9'
p5196
sg21
Vldp x21, x22, [sp, #0x20]
p5197
sg5
L18446743798839738148L
sg6
Nsg23
S'LDP'
p5198
sg25
S'0xffffffc0007b7f24L'
p5199
sg27
Nsba(ibclass
BInstr
p5200
(dp5201
g2
Nsg17
S'LDP             X19, X20, [SP,#0x50+var_40]'
p5202
sg19
S'f35341a9'
p5203
sg21
Vldp x19, x20, [sp, #0x10]
p5204
sg5
L18446743798839738152L
sg6
Nsg23
S'LDP'
p5205
sg25
S'0xffffffc0007b7f28L'
p5206
sg27
Nsba(ibclass
BInstr
p5207
(dp5208
g2
Nsg17
S'LDP             X23, X24, [SP,#0x50+var_20]'
p5209
sg19
S'f76343a9'
p5210
sg21
Vldp x23, x24, [sp, #0x30]
p5211
sg5
L18446743798839738156L
sg6
Nsg23
S'LDP'
p5212
sg25
S'0xffffffc0007b7f2cL'
p5213
sg27
Nsba(ibclass
BInstr
p5214
(dp5215
g2
Nsg17
S'LDP             X25, X26, [SP,#0x50+var_10]'
p5216
sg19
S'f96b44a9'
p5217
sg21
Vldp x25, x26, [sp, #0x40]
p5218
sg5
L18446743798839738160L
sg6
Nsg23
S'LDP'
p5219
sg25
S'0xffffffc0007b7f30L'
p5220
sg27
Nsba(ibclass
BInstr
p5221
(dp5222
g2
Nsg17
S'LDP             X27, X28, [SP,#0x50+var_s0]'
p5223
sg19
S'fb7345a9'
p5224
sg21
Vldp x27, x28, [sp, #0x50]
p5225
sg5
L18446743798839738164L
sg6
Nsg23
S'LDP'
p5226
sg25
S'0xffffffc0007b7f34L'
p5227
sg27
Nsba(ibclass
BInstr
p5228
(dp5229
g2
Nsg17
S'LDP             X29, X30, [SP+0x50+var_50],#0x60'
p5230
sg19
S'fd7bc6a8'
p5231
sg21
Vldp x29, x30, [sp], #0x60
p5232
sg5
L18446743798839738168L
sg6
Nsg23
S'LDP'
p5233
sg25
S'0xffffffc0007b7f38L'
p5234
sg27
Nsba(ibclass
BInstr
p5235
(dp5236
g2
Nsg17
S'RET'
p5237
sg19
S'c0035fd6'
p5238
sg21
Vret 
p5239
sg5
L18446743798839738172L
sg6
Nsg23
S'RET'
p5240
sg25
S'0xffffffc0007b7f3cL'
p5241
sg27
Nsbasg84
(lp5242
S'MOV reg, reg0'
p5243
aS'LDP reg1, reg2, mem'
p5244
aS'LDP reg9, reg0, mem'
p5245
aS'LDP reg3, reg4, mem'
p5246
aS'LDP reg5, reg6, mem'
p5247
aS'LDP reg7, reg8, mem'
p5248
aS'LDP reg9, reg0, mem,#0x60'
p5249
ag5237
asg95
Nsg5
S'0xffffffc0007b7f20L'
p5250
sg97
(lp5251
S'0xffffffc0007b77e4L'
p5252
aS'0xffffffc0007b77f8L'
p5253
aS'0xffffffc0007b7c28L'
p5254
aS'0xffffffc0007b7da4L'
p5255
aS'0xffffffc0007b7dbcL'
p5256
aS'0xffffffc0007b7ed8L'
p5257
aS'0xffffffc0007b7ef4L'
p5258
asg6
Nsg99
(lp5259
sg103
Nsg104
Nsg105
S'fb51b4f49e207839e4541c8a63536464'
p5260
sg107
S'8c269be18714d34e6eff477151004752'
p5261
sg109
(lp5262
g5191
ag5198
ag5205
ag5212
ag5219
ag5226
ag5233
ag5240
asg111
Nsbasb.