(ibclass
BFunc
p0
(dp1
S'hash'
p2
NsS'name'
p3
S'EVP_EncryptUpdate'
p4
sS'start_address'
p5
L135502869L
sS'flag'
p6
NsS'program'
p7
NsS'bbs'
p8
(lp9
(ibclass
BBasicBlock
p10
(dp11
S'function'
p12
NsS'binstrs'
p13
(lp14
(ibclass
BInstr
p15
(dp16
g2
NsS'disasm'
p17
S'push    ebp'
p18
sS'bytes'
p19
S'55'
p20
sS'disasm_striped'
p21
Vpush ebp
p22
sg5
L135502869L
sg6
NsS'mnem'
p23
S'push'
p24
sS'address'
p25
S'0x8139c15L'
p26
sS'basicblock'
p27
Nsba(ibclass
BInstr
p28
(dp29
g2
Nsg17
S'mov     ebp, esp'
p30
sg19
S'89e5'
p31
sg21
Vmov ebp, esp
p32
sg5
L135502870L
sg6
Nsg23
S'mov'
p33
sg25
S'0x8139c16L'
p34
sg27
Nsba(ibclass
BInstr
p35
(dp36
g2
Nsg17
S'sub     esp, 28h'
p37
sg19
S'83ec28'
p38
sg21
Vsub esp, 0x28
p39
sg5
L135502872L
sg6
Nsg23
S'sub'
p40
sg25
S'0x8139c18L'
p41
sg27
Nsba(ibclass
BInstr
p42
(dp43
g2
Nsg17
S'mov     eax, [ebp+ctx]'
p44
sg19
S'8b4508'
p45
sg21
Vmov eax, dword ptr [ebp + 8]
p46
sg5
L135502875L
sg6
Nsg23
S'mov'
p47
sg25
S'0x8139c1bL'
p48
sg27
Nsba(ibclass
BInstr
p49
(dp50
g2
Nsg17
S'mov     eax, [eax]'
p51
sg19
S'8b00'
p52
sg21
Vmov eax, dword ptr [eax]
p53
sg5
L135502878L
sg6
Nsg23
S'mov'
p54
sg25
S'0x8139c1eL'
p55
sg27
Nsba(ibclass
BInstr
p56
(dp57
g2
Nsg17
S'mov     eax, [eax+10h]'
p58
sg19
S'8b4010'
p59
sg21
Vmov eax, dword ptr [eax + 0x10]
p60
sg5
L135502880L
sg6
Nsg23
S'mov'
p61
sg25
S'0x8139c20L'
p62
sg27
Nsba(ibclass
BInstr
p63
(dp64
g2
Nsg17
S'and     eax, 100000h'
p65
sg19
S'2500001000'
p66
sg21
Vand eax, 0x100000
p67
sg5
L135502883L
sg6
Nsg23
S'and'
p68
sg25
S'0x8139c23L'
p69
sg27
Nsba(ibclass
BInstr
p70
(dp71
g2
Nsg17
S'test    eax, eax'
p72
sg19
S'85c0'
p73
sg21
Vtest eax, eax
p74
sg5
L135502888L
sg6
Nsg23
S'test'
p75
sg25
S'0x8139c28L'
p76
sg27
Nsba(ibclass
BInstr
p77
(dp78
g2
Nsg17
S'jz      short loc_8139C76'
p79
sg19
S'744a'
p80
sg21
Vje 0x4c
p81
sg5
L135502890L
sg6
Nsg23
S'jz'
p82
sg25
S'0x8139c2aL'
p83
sg27
NsbasS'disasm_list'
p84
(lp85
g22
ag32
aVsub esp, address
p86
aVmov eax, mem
p87
aVmov eax, mem
p88
aVmov eax, mem
p89
aVand eax, address
p90
ag74
aVje address
p91
asS'end_address'
p92
Nsg5
S'0x8139c15L'
p93
sS'preds'
p94
(lp95
sg6
NsS'succs'
p96
(lp97
S'0x8139c2cL'
p98
aS'0x8139c76L'
p99
asS'hash_v3'
p100
NsS'flag_v2'
p101
NsS'hash_v1'
p102
S'cf00fc67f73485ffa0c8fad79af4e119'
p103
sS'hash_v2'
p104
S'4d3b545150e64d13630f117feba6a2b7'
p105
sS'mnen_list'
p106
(lp107
g24
ag33
ag40
ag47
ag54
ag61
ag68
ag75
ag82
asS'neighbour_disasm_list'
p108
Nsba(ibclass
BBasicBlock
p109
(dp110
g12
Nsg13
(lp111
(ibclass
BInstr
p112
(dp113
g2
Nsg17
S'mov     eax, [ebp+ctx]'
p114
sg19
S'8b4508'
p115
sg21
Vmov eax, dword ptr [ebp + 8]
p116
sg5
L135502892L
sg6
Nsg23
S'mov'
p117
sg25
S'0x8139c2cL'
p118
sg27
Nsba(ibclass
BInstr
p119
(dp120
g2
Nsg17
S'mov     eax, [eax]'
p121
sg19
S'8b00'
p122
sg21
Vmov eax, dword ptr [eax]
p123
sg5
L135502895L
sg6
Nsg23
S'mov'
p124
sg25
S'0x8139c2fL'
p125
sg27
Nsba(ibclass
BInstr
p126
(dp127
g2
Nsg17
S'mov     eax, [eax+18h]'
p128
sg19
S'8b4018'
p129
sg21
Vmov eax, dword ptr [eax + 0x18]
p130
sg5
L135502897L
sg6
Nsg23
S'mov'
p131
sg25
S'0x8139c31L'
p132
sg27
Nsba(ibclass
BInstr
p133
(dp134
g2
Nsg17
S'mov     edx, [ebp+inl]'
p135
sg19
S'8b5518'
p136
sg21
Vmov edx, dword ptr [ebp + 0x18]
p137
sg5
L135502900L
sg6
Nsg23
S'mov'
p138
sg25
S'0x8139c34L'
p139
sg27
Nsba(ibclass
BInstr
p140
(dp141
g2
Nsg17
S'mov     [esp+0Ch], edx'
p142
sg19
S'8954240c'
p143
sg21
Vmov dword ptr [esp + 0xc], edx
p144
sg5
L135502903L
sg6
Nsg23
S'mov'
p145
sg25
S'0x8139c37L'
p146
sg27
Nsba(ibclass
BInstr
p147
(dp148
g2
Nsg17
S'mov     edx, [ebp+in]'
p149
sg19
S'8b5514'
p150
sg21
Vmov edx, dword ptr [ebp + 0x14]
p151
sg5
L135502907L
sg6
Nsg23
S'mov'
p152
sg25
S'0x8139c3bL'
p153
sg27
Nsba(ibclass
BInstr
p154
(dp155
g2
Nsg17
S'mov     [esp+8], edx'
p156
sg19
S'89542408'
p157
sg21
Vmov dword ptr [esp + 8], edx
p158
sg5
L135502910L
sg6
Nsg23
S'mov'
p159
sg25
S'0x8139c3eL'
p160
sg27
Nsba(ibclass
BInstr
p161
(dp162
g2
Nsg17
S'mov     edx, [ebp+out]'
p163
sg19
S'8b550c'
p164
sg21
Vmov edx, dword ptr [ebp + 0xc]
p165
sg5
L135502914L
sg6
Nsg23
S'mov'
p166
sg25
S'0x8139c42L'
p167
sg27
Nsba(ibclass
BInstr
p168
(dp169
g2
Nsg17
S'mov     [esp+4], edx'
p170
sg19
S'89542404'
p171
sg21
Vmov dword ptr [esp + 4], edx
p172
sg5
L135502917L
sg6
Nsg23
S'mov'
p173
sg25
S'0x8139c45L'
p174
sg27
Nsba(ibclass
BInstr
p175
(dp176
g2
Nsg17
S'mov     edx, [ebp+ctx]'
p177
sg19
S'8b5508'
p178
sg21
Vmov edx, dword ptr [ebp + 8]
p179
sg5
L135502921L
sg6
Nsg23
S'mov'
p180
sg25
S'0x8139c49L'
p181
sg27
Nsba(ibclass
BInstr
p182
(dp183
g2
Nsg17
S'mov     [esp], edx'
p184
sg19
S'891424'
p185
sg21
Vmov dword ptr [esp], edx
p186
sg5
L135502924L
sg6
Nsg23
S'mov'
p187
sg25
S'0x8139c4cL'
p188
sg27
Nsba(ibclass
BInstr
p189
(dp190
g2
Nsg17
S'call    eax'
p191
sg19
S'ffd0'
p192
sg21
Vcall eax
p193
sg5
L135502927L
sg6
Nsg23
S'call'
p194
sg25
S'0x8139c4fL'
p195
sg27
Nsba(ibclass
BInstr
p196
(dp197
g2
Nsg17
S'mov     [ebp+i], eax'
p198
sg19
S'8945ec'
p199
sg21
Vmov dword ptr [ebp - 0x14], eax
p200
sg5
L135502929L
sg6
Nsg23
S'mov'
p201
sg25
S'0x8139c51L'
p202
sg27
Nsba(ibclass
BInstr
p203
(dp204
g2
Nsg17
S'cmp     [ebp+i], 0'
p205
sg19
S'837dec00'
p206
sg21
Vcmp dword ptr [ebp - 0x14], 0
p207
sg5
L135502932L
sg6
Nsg23
S'cmp'
p208
sg25
S'0x8139c54L'
p209
sg27
Nsba(ibclass
BInstr
p210
(dp211
g2
Nsg17
S'jns     short loc_8139C64'
p212
sg19
S'790a'
p213
sg21
Vjns 0xc
p214
sg5
L135502936L
sg6
Nsg23
S'jns'
p215
sg25
S'0x8139c58L'
p216
sg27
Nsbasg84
(lp217
Vmov eax, mem
p218
aVmov eax, mem
p219
aVmov eax, mem
p220
aVmov edx, mem
p221
aVmov mem, edx
p222
aVmov edx, mem
p223
aVmov mem, edx
p224
aVmov edx, mem
p225
aVmov mem, edx
p226
aVmov edx, mem
p227
aVmov mem, edx
p228
ag193
aVmov mem, eax
p229
aVcmp mem, 0
p230
aVjns address
p231
asg92
Nsg5
S'0x8139c2cL'
p232
sg94
(lp233
S'0x8139c15L'
p234
asg6
Nsg96
(lp235
S'0x8139c5aL'
p236
aS'0x8139c64L'
p237
asg100
Nsg101
Nsg102
S'5cf79474275ef7ebfffb850d3619cb6f'
p238
sg104
S'd2932b48e25a1fd255b3ff0e830d8811'
p239
sg106
(lp240
g117
ag124
ag131
ag138
ag145
ag152
ag159
ag166
ag173
ag180
ag187
ag194
ag201
ag208
ag215
asg108
Nsba(ibclass
BBasicBlock
p241
(dp242
g12
Nsg13
(lp243
(ibclass
BInstr
p244
(dp245
g2
Nsg17
S'mov     eax, 0'
p246
sg19
S'b800000000'
p247
sg21
Vmov eax, 0
p248
sg5
L135502938L
sg6
Nsg23
S'mov'
p249
sg25
S'0x8139c5aL'
p250
sg27
Nsba(ibclass
BInstr
p251
(dp252
g2
Nsg17
S'jmp     locret_8139EA0'
p253
sg19
S'e93c020000'
p254
sg21
Vjmp 0x241
p255
sg5
L135502943L
sg6
Nsg23
S'jmp'
p256
sg25
S'0x8139c5fL'
p257
sg27
Nsbasg84
(lp258
g248
aVjmp address
p259
asg92
Nsg5
S'0x8139c5aL'
p260
sg94
(lp261
S'0x8139c2cL'
p262
asg6
Nsg96
(lp263
S'0x8139ea0L'
p264
asg100
Nsg101
Nsg102
S'8b9a0d40e062be2b9b2d9885108fb196'
p265
sg104
S'bfbe752dd865c9a89011ba470eab331d'
p266
sg106
(lp267
g249
ag256
asg108
Nsba(ibclass
BBasicBlock
p268
(dp269
g12
Nsg13
(lp270
(ibclass
BInstr
p271
(dp272
g2
Nsg17
S'mov     eax, [ebp+outl]'
p273
sg19
S'8b4510'
p274
sg21
Vmov eax, dword ptr [ebp + 0x10]
p275
sg5
L135502948L
sg6
Nsg23
S'mov'
p276
sg25
S'0x8139c64L'
p277
sg27
Nsba(ibclass
BInstr
p278
(dp279
g2
Nsg17
S'mov     edx, [ebp+i]'
p280
sg19
S'8b55ec'
p281
sg21
Vmov edx, dword ptr [ebp - 0x14]
p282
sg5
L135502951L
sg6
Nsg23
S'mov'
p283
sg25
S'0x8139c67L'
p284
sg27
Nsba(ibclass
BInstr
p285
(dp286
g2
Nsg17
S'mov     [eax], edx'
p287
sg19
S'8910'
p288
sg21
Vmov dword ptr [eax], edx
p289
sg5
L135502954L
sg6
Nsg23
S'mov'
p290
sg25
S'0x8139c6aL'
p291
sg27
Nsba(ibclass
BInstr
p292
(dp293
g2
Nsg17
S'mov     eax, 1'
p294
sg19
S'b801000000'
p295
sg21
Vmov eax, 1
p296
sg5
L135502956L
sg6
Nsg23
S'mov'
p297
sg25
S'0x8139c6cL'
p298
sg27
Nsba(ibclass
BInstr
p299
(dp300
g2
Nsg17
S'jmp     locret_8139EA0'
p301
sg19
S'e92a020000'
p302
sg21
Vjmp 0x22f
p303
sg5
L135502961L
sg6
Nsg23
S'jmp'
p304
sg25
S'0x8139c71L'
p305
sg27
Nsbasg84
(lp306
Vmov eax, mem
p307
aVmov edx, mem
p308
aVmov mem, edx
p309
ag296
aVjmp address
p310
asg92
Nsg5
S'0x8139c64L'
p311
sg94
(lp312
S'0x8139c2cL'
p313
asg6
Nsg96
(lp314
S'0x8139ea0L'
p315
asg100
Nsg101
Nsg102
S'7217f719f009b7b2e7686b68917fe7aa'
p316
sg104
S'c62e7e727cefcc276070c0e9dbf326fa'
p317
sg106
(lp318
g276
ag283
ag290
ag297
ag304
asg108
Nsba(ibclass
BBasicBlock
p319
(dp320
g12
Nsg13
(lp321
(ibclass
BInstr
p322
(dp323
g2
Nsg17
S'cmp     [ebp+inl], 0'
p324
sg19
S'837d1800'
p325
sg21
Vcmp dword ptr [ebp + 0x18], 0
p326
sg5
L135502966L
sg6
Nsg23
S'cmp'
p327
sg25
S'0x8139c76L'
p328
sg27
Nsba(ibclass
BInstr
p329
(dp330
g2
Nsg17
S'jg      short loc_8139C96'
p331
sg19
S'7f1a'
p332
sg21
Vjg 0x1c
p333
sg5
L135502970L
sg6
Nsg23
S'jg'
p334
sg25
S'0x8139c7aL'
p335
sg27
Nsbasg84
(lp336
Vcmp mem, 0
p337
aVjg address
p338
asg92
Nsg5
S'0x8139c76L'
p339
sg94
(lp340
S'0x8139c15L'
p341
asg6
Nsg96
(lp342
S'0x8139c7cL'
p343
aS'0x8139c96L'
p344
asg100
Nsg101
Nsg102
S'b356acbc0cbaf5ebf0a35cc7bcc98784'
p345
sg104
S'd3c4f930fa078cc3ed140fba0f5ab431'
p346
sg106
(lp347
g327
ag334
asg108
Nsba(ibclass
BBasicBlock
p348
(dp349
g12
Nsg13
(lp350
(ibclass
BInstr
p351
(dp352
g2
Nsg17
S'mov     eax, [ebp+outl]'
p353
sg19
S'8b4510'
p354
sg21
Vmov eax, dword ptr [ebp + 0x10]
p355
sg5
L135502972L
sg6
Nsg23
S'mov'
p356
sg25
S'0x8139c7cL'
p357
sg27
Nsba(ibclass
BInstr
p358
(dp359
g2
Nsg17
S'mov     dword ptr [eax], 0'
p360
sg19
S'c70000000000'
p361
sg21
Vmov dword ptr [eax], 0
p362
sg5
L135502975L
sg6
Nsg23
S'mov'
p363
sg25
S'0x8139c7fL'
p364
sg27
Nsba(ibclass
BInstr
p365
(dp366
g2
Nsg17
S'cmp     [ebp+inl], 0'
p367
sg19
S'837d1800'
p368
sg21
Vcmp dword ptr [ebp + 0x18], 0
p369
sg5
L135502981L
sg6
Nsg23
S'cmp'
p370
sg25
S'0x8139c85L'
p371
sg27
Nsba(ibclass
BInstr
p372
(dp373
g2
Nsg17
S'setz    al'
p374
sg19
S'0f94c0'
p375
sg21
Vsete al
p376
sg5
L135502985L
sg6
Nsg23
S'setz'
p377
sg25
S'0x8139c89L'
p378
sg27
Nsba(ibclass
BInstr
p379
(dp380
g2
Nsg17
S'and     eax, 0FFh'
p381
sg19
S'25ff000000'
p382
sg21
Vand eax, 0xff
p383
sg5
L135502988L
sg6
Nsg23
S'and'
p384
sg25
S'0x8139c8cL'
p385
sg27
Nsba(ibclass
BInstr
p386
(dp387
g2
Nsg17
S'jmp     locret_8139EA0'
p388
sg19
S'e90a020000'
p389
sg21
Vjmp 0x20f
p390
sg5
L135502993L
sg6
Nsg23
S'jmp'
p391
sg25
S'0x8139c91L'
p392
sg27
Nsbasg84
(lp393
Vmov eax, mem
p394
aVmov mem, 0
p395
aVcmp mem, 0
p396
ag376
aVand eax, address
p397
aVjmp address
p398
asg92
Nsg5
S'0x8139c7cL'
p399
sg94
(lp400
S'0x8139c76L'
p401
asg6
Nsg96
(lp402
S'0x8139ea0L'
p403
asg100
Nsg101
Nsg102
S'3c15b562ef9503c6a252a577cfc2ed5f'
p404
sg104
S'bcc0b12b14afd1cb3b1d4b1f22f19ada'
p405
sg106
(lp406
g356
ag363
ag370
ag377
ag384
ag391
asg108
Nsba(ibclass
BBasicBlock
p407
(dp408
g12
Nsg13
(lp409
(ibclass
BInstr
p410
(dp411
g2
Nsg17
S'mov     eax, [ebp+ctx]'
p412
sg19
S'8b4508'
p413
sg21
Vmov eax, dword ptr [ebp + 8]
p414
sg5
L135502998L
sg6
Nsg23
S'mov'
p415
sg25
S'0x8139c96L'
p416
sg27
Nsba(ibclass
BInstr
p417
(dp418
g2
Nsg17
S'mov     eax, [eax+0Ch]'
p419
sg19
S'8b400c'
p420
sg21
Vmov eax, dword ptr [eax + 0xc]
p421
sg5
L135503001L
sg6
Nsg23
S'mov'
p422
sg25
S'0x8139c99L'
p423
sg27
Nsba(ibclass
BInstr
p424
(dp425
g2
Nsg17
S'test    eax, eax'
p426
sg19
S'85c0'
p427
sg21
Vtest eax, eax
p428
sg5
L135503004L
sg6
Nsg23
S'test'
p429
sg25
S'0x8139c9cL'
p430
sg27
Nsba(ibclass
BInstr
p431
(dp432
g2
Nsg17
S'jnz     short loc_8139CFB'
p433
sg19
S'755b'
p434
sg21
Vjne 0x5d
p435
sg5
L135503006L
sg6
Nsg23
S'jnz'
p436
sg25
S'0x8139c9eL'
p437
sg27
Nsbasg84
(lp438
Vmov eax, mem
p439
aVmov eax, mem
p440
ag428
aVjne address
p441
asg92
Nsg5
S'0x8139c96L'
p442
sg94
(lp443
S'0x8139c76L'
p444
asg6
Nsg96
(lp445
S'0x8139ca0L'
p446
aS'0x8139cfbL'
p447
asg100
Nsg101
Nsg102
S'c659dbb3567582fe193bedd2c7eccb80'
p448
sg104
S'bf49e6fb415bfa3724765cd6082e6314'
p449
sg106
(lp450
g415
ag422
ag429
ag436
asg108
Nsba(ibclass
BBasicBlock
p451
(dp452
g12
Nsg13
(lp453
(ibclass
BInstr
p454
(dp455
g2
Nsg17
S'mov     eax, [ebp+ctx]'
p456
sg19
S'8b4508'
p457
sg21
Vmov eax, dword ptr [ebp + 8]
p458
sg5
L135503008L
sg6
Nsg23
S'mov'
p459
sg25
S'0x8139ca0L'
p460
sg27
Nsba(ibclass
BInstr
p461
(dp462
g2
Nsg17
S'mov     eax, [eax+68h]'
p463
sg19
S'8b4068'
p464
sg21
Vmov eax, dword ptr [eax + 0x68]
p465
sg5
L135503011L
sg6
Nsg23
S'mov'
p466
sg25
S'0x8139ca3L'
p467
sg27
Nsba(ibclass
BInstr
p468
(dp469
g2
Nsg17
S'and     eax, [ebp+inl]'
p470
sg19
S'234518'
p471
sg21
Vand eax, dword ptr [ebp + 0x18]
p472
sg5
L135503014L
sg6
Nsg23
S'and'
p473
sg25
S'0x8139ca6L'
p474
sg27
Nsba(ibclass
BInstr
p475
(dp476
g2
Nsg17
S'test    eax, eax'
p477
sg19
S'85c0'
p478
sg21
Vtest eax, eax
p479
sg5
L135503017L
sg6
Nsg23
S'test'
p480
sg25
S'0x8139ca9L'
p481
sg27
Nsba(ibclass
BInstr
p482
(dp483
g2
Nsg17
S'jnz     short loc_8139CFB'
p484
sg19
S'754e'
p485
sg21
Vjne 0x50
p486
sg5
L135503019L
sg6
Nsg23
S'jnz'
p487
sg25
S'0x8139cabL'
p488
sg27
Nsbasg84
(lp489
Vmov eax, mem
p490
aVmov eax, mem
p491
aVand eax, mem
p492
ag479
aVjne address
p493
asg92
Nsg5
S'0x8139ca0L'
p494
sg94
(lp495
S'0x8139c96L'
p496
asg6
Nsg96
(lp497
S'0x8139cadL'
p498
aS'0x8139cfbL'
p499
asg100
Nsg101
Nsg102
S'fe77119e0ecc4ec4d34e9ca05ee3b9d9'
p500
sg104
S'a80e4edefd2e2746ed0a9afb3be8cd1f'
p501
sg106
(lp502
g459
ag466
ag473
ag480
ag487
asg108
Nsba(ibclass
BBasicBlock
p503
(dp504
g12
Nsg13
(lp505
(ibclass
BInstr
p506
(dp507
g2
Nsg17
S'mov     eax, [ebp+ctx]'
p508
sg19
S'8b4508'
p509
sg21
Vmov eax, dword ptr [ebp + 8]
p510
sg5
L135503021L
sg6
Nsg23
S'mov'
p511
sg25
S'0x8139cadL'
p512
sg27
Nsba(ibclass
BInstr
p513
(dp514
g2
Nsg17
S'mov     eax, [eax]'
p515
sg19
S'8b00'
p516
sg21
Vmov eax, dword ptr [eax]
p517
sg5
L135503024L
sg6
Nsg23
S'mov'
p518
sg25
S'0x8139cb0L'
p519
sg27
Nsba(ibclass
BInstr
p520
(dp521
g2
Nsg17
S'mov     eax, [eax+18h]'
p522
sg19
S'8b4018'
p523
sg21
Vmov eax, dword ptr [eax + 0x18]
p524
sg5
L135503026L
sg6
Nsg23
S'mov'
p525
sg25
S'0x8139cb2L'
p526
sg27
Nsba(ibclass
BInstr
p527
(dp528
g2
Nsg17
S'mov     edx, [ebp+inl]'
p529
sg19
S'8b5518'
p530
sg21
Vmov edx, dword ptr [ebp + 0x18]
p531
sg5
L135503029L
sg6
Nsg23
S'mov'
p532
sg25
S'0x8139cb5L'
p533
sg27
Nsba(ibclass
BInstr
p534
(dp535
g2
Nsg17
S'mov     [esp+0Ch], edx'
p536
sg19
S'8954240c'
p537
sg21
Vmov dword ptr [esp + 0xc], edx
p538
sg5
L135503032L
sg6
Nsg23
S'mov'
p539
sg25
S'0x8139cb8L'
p540
sg27
Nsba(ibclass
BInstr
p541
(dp542
g2
Nsg17
S'mov     edx, [ebp+in]'
p543
sg19
S'8b5514'
p544
sg21
Vmov edx, dword ptr [ebp + 0x14]
p545
sg5
L135503036L
sg6
Nsg23
S'mov'
p546
sg25
S'0x8139cbcL'
p547
sg27
Nsba(ibclass
BInstr
p548
(dp549
g2
Nsg17
S'mov     [esp+8], edx'
p550
sg19
S'89542408'
p551
sg21
Vmov dword ptr [esp + 8], edx
p552
sg5
L135503039L
sg6
Nsg23
S'mov'
p553
sg25
S'0x8139cbfL'
p554
sg27
Nsba(ibclass
BInstr
p555
(dp556
g2
Nsg17
S'mov     edx, [ebp+out]'
p557
sg19
S'8b550c'
p558
sg21
Vmov edx, dword ptr [ebp + 0xc]
p559
sg5
L135503043L
sg6
Nsg23
S'mov'
p560
sg25
S'0x8139cc3L'
p561
sg27
Nsba(ibclass
BInstr
p562
(dp563
g2
Nsg17
S'mov     [esp+4], edx'
p564
sg19
S'89542404'
p565
sg21
Vmov dword ptr [esp + 4], edx
p566
sg5
L135503046L
sg6
Nsg23
S'mov'
p567
sg25
S'0x8139cc6L'
p568
sg27
Nsba(ibclass
BInstr
p569
(dp570
g2
Nsg17
S'mov     edx, [ebp+ctx]'
p571
sg19
S'8b5508'
p572
sg21
Vmov edx, dword ptr [ebp + 8]
p573
sg5
L135503050L
sg6
Nsg23
S'mov'
p574
sg25
S'0x8139ccaL'
p575
sg27
Nsba(ibclass
BInstr
p576
(dp577
g2
Nsg17
S'mov     [esp], edx'
p578
sg19
S'891424'
p579
sg21
Vmov dword ptr [esp], edx
p580
sg5
L135503053L
sg6
Nsg23
S'mov'
p581
sg25
S'0x8139ccdL'
p582
sg27
Nsba(ibclass
BInstr
p583
(dp584
g2
Nsg17
S'call    eax'
p585
sg19
S'ffd0'
p586
sg21
Vcall eax
p587
sg5
L135503056L
sg6
Nsg23
S'call'
p588
sg25
S'0x8139cd0L'
p589
sg27
Nsba(ibclass
BInstr
p590
(dp591
g2
Nsg17
S'test    eax, eax'
p592
sg19
S'85c0'
p593
sg21
Vtest eax, eax
p594
sg5
L135503058L
sg6
Nsg23
S'test'
p595
sg25
S'0x8139cd2L'
p596
sg27
Nsba(ibclass
BInstr
p597
(dp598
g2
Nsg17
S'jz      short loc_8139CE8'
p599
sg19
S'7412'
p600
sg21
Vje 0x14
p601
sg5
L135503060L
sg6
Nsg23
S'jz'
p602
sg25
S'0x8139cd4L'
p603
sg27
Nsbasg84
(lp604
Vmov eax, mem
p605
aVmov eax, mem
p606
aVmov eax, mem
p607
aVmov edx, mem
p608
aVmov mem, edx
p609
aVmov edx, mem
p610
aVmov mem, edx
p611
aVmov edx, mem
p612
aVmov mem, edx
p613
aVmov edx, mem
p614
aVmov mem, edx
p615
ag587
ag594
aVje address
p616
asg92
Nsg5
S'0x8139cadL'
p617
sg94
(lp618
S'0x8139ca0L'
p619
asg6
Nsg96
(lp620
S'0x8139cd6L'
p621
aS'0x8139ce8L'
p622
asg100
Nsg101
Nsg102
S'dd1e085d6bb79e33b7f61196dffdfe26'
p623
sg104
S'795382dfbf65e92b3999bf18791f1f4b'
p624
sg106
(lp625
g511
ag518
ag525
ag532
ag539
ag546
ag553
ag560
ag567
ag574
ag581
ag588
ag595
ag602
asg108
Nsba(ibclass
BBasicBlock
p626
(dp627
g12
Nsg13
(lp628
(ibclass
BInstr
p629
(dp630
g2
Nsg17
S'mov     eax, [ebp+outl]'
p631
sg19
S'8b4510'
p632
sg21
Vmov eax, dword ptr [ebp + 0x10]
p633
sg5
L135503062L
sg6
Nsg23
S'mov'
p634
sg25
S'0x8139cd6L'
p635
sg27
Nsba(ibclass
BInstr
p636
(dp637
g2
Nsg17
S'mov     edx, [ebp+inl]'
p638
sg19
S'8b5518'
p639
sg21
Vmov edx, dword ptr [ebp + 0x18]
p640
sg5
L135503065L
sg6
Nsg23
S'mov'
p641
sg25
S'0x8139cd9L'
p642
sg27
Nsba(ibclass
BInstr
p643
(dp644
g2
Nsg17
S'mov     [eax], edx'
p645
sg19
S'8910'
p646
sg21
Vmov dword ptr [eax], edx
p647
sg5
L135503068L
sg6
Nsg23
S'mov'
p648
sg25
S'0x8139cdcL'
p649
sg27
Nsba(ibclass
BInstr
p650
(dp651
g2
Nsg17
S'mov     eax, 1'
p652
sg19
S'b801000000'
p653
sg21
Vmov eax, 1
p654
sg5
L135503070L
sg6
Nsg23
S'mov'
p655
sg25
S'0x8139cdeL'
p656
sg27
Nsba(ibclass
BInstr
p657
(dp658
g2
Nsg17
S'jmp     locret_8139EA0'
p659
sg19
S'e9b8010000'
p660
sg21
Vjmp 0x1bd
p661
sg5
L135503075L
sg6
Nsg23
S'jmp'
p662
sg25
S'0x8139ce3L'
p663
sg27
Nsbasg84
(lp664
Vmov eax, mem
p665
aVmov edx, mem
p666
aVmov mem, edx
p667
ag654
aVjmp address
p668
asg92
Nsg5
S'0x8139cd6L'
p669
sg94
(lp670
S'0x8139cadL'
p671
asg6
Nsg96
(lp672
S'0x8139ea0L'
p673
asg100
Nsg101
Nsg102
S'7217f719f009b7b2e7686b68917fe7aa'
p674
sg104
S'c62e7e727cefcc276070c0e9dbf326fa'
p675
sg106
(lp676
g634
ag641
ag648
ag655
ag662
asg108
Nsba(ibclass
BBasicBlock
p677
(dp678
g12
Nsg13
(lp679
(ibclass
BInstr
p680
(dp681
g2
Nsg17
S'mov     eax, [ebp+outl]'
p682
sg19
S'8b4510'
p683
sg21
Vmov eax, dword ptr [ebp + 0x10]
p684
sg5
L135503080L
sg6
Nsg23
S'mov'
p685
sg25
S'0x8139ce8L'
p686
sg27
Nsba(ibclass
BInstr
p687
(dp688
g2
Nsg17
S'mov     dword ptr [eax], 0'
p689
sg19
S'c70000000000'
p690
sg21
Vmov dword ptr [eax], 0
p691
sg5
L135503083L
sg6
Nsg23
S'mov'
p692
sg25
S'0x8139cebL'
p693
sg27
Nsba(ibclass
BInstr
p694
(dp695
g2
Nsg17
S'mov     eax, 0'
p696
sg19
S'b800000000'
p697
sg21
Vmov eax, 0
p698
sg5
L135503089L
sg6
Nsg23
S'mov'
p699
sg25
S'0x8139cf1L'
p700
sg27
Nsba(ibclass
BInstr
p701
(dp702
g2
Nsg17
S'jmp     locret_8139EA0'
p703
sg19
S'e9a5010000'
p704
sg21
Vjmp 0x1aa
p705
sg5
L135503094L
sg6
Nsg23
S'jmp'
p706
sg25
S'0x8139cf6L'
p707
sg27
Nsbasg84
(lp708
Vmov eax, mem
p709
aVmov mem, 0
p710
ag698
aVjmp address
p711
asg92
Nsg5
S'0x8139ce8L'
p712
sg94
(lp713
S'0x8139cadL'
p714
asg6
Nsg96
(lp715
S'0x8139ea0L'
p716
asg100
Nsg101
Nsg102
S'040fce6d72bb8b206d60fbb015935e24'
p717
sg104
S'40de1b17235da765d662e5b7a2fb7c75'
p718
sg106
(lp719
g685
ag692
ag699
ag706
asg108
Nsba(ibclass
BBasicBlock
p720
(dp721
g12
Nsg13
(lp722
(ibclass
BInstr
p723
(dp724
g2
Nsg17
S'mov     eax, [ebp+ctx]'
p725
sg19
S'8b4508'
p726
sg21
Vmov eax, dword ptr [ebp + 8]
p727
sg5
L135503099L
sg6
Nsg23
S'mov'
p728
sg25
S'0x8139cfbL'
p729
sg27
Nsba(ibclass
BInstr
p730
(dp731
g2
Nsg17
S'mov     eax, [eax+0Ch]'
p732
sg19
S'8b400c'
p733
sg21
Vmov eax, dword ptr [eax + 0xc]
p734
sg5
L135503102L
sg6
Nsg23
S'mov'
p735
sg25
S'0x8139cfeL'
p736
sg27
Nsba(ibclass
BInstr
p737
(dp738
g2
Nsg17
S'mov     [ebp+i], eax'
p739
sg19
S'8945ec'
p740
sg21
Vmov dword ptr [ebp - 0x14], eax
p741
sg5
L135503105L
sg6
Nsg23
S'mov'
p742
sg25
S'0x8139d01L'
p743
sg27
Nsba(ibclass
BInstr
p744
(dp745
g2
Nsg17
S'mov     eax, [ebp+ctx]'
p746
sg19
S'8b4508'
p747
sg21
Vmov eax, dword ptr [ebp + 8]
p748
sg5
L135503108L
sg6
Nsg23
S'mov'
p749
sg25
S'0x8139d04L'
p750
sg27
Nsba(ibclass
BInstr
p751
(dp752
g2
Nsg17
S'mov     eax, [eax]'
p753
sg19
S'8b00'
p754
sg21
Vmov eax, dword ptr [eax]
p755
sg5
L135503111L
sg6
Nsg23
S'mov'
p756
sg25
S'0x8139d07L'
p757
sg27
Nsba(ibclass
BInstr
p758
(dp759
g2
Nsg17
S'mov     eax, [eax+4]'
p760
sg19
S'8b4004'
p761
sg21
Vmov eax, dword ptr [eax + 4]
p762
sg5
L135503113L
sg6
Nsg23
S'mov'
p763
sg25
S'0x8139d09L'
p764
sg27
Nsba(ibclass
BInstr
p765
(dp766
g2
Nsg17
S'mov     [ebp+bl_0], eax'
p767
sg19
S'8945f0'
p768
sg21
Vmov dword ptr [ebp - 0x10], eax
p769
sg5
L135503116L
sg6
Nsg23
S'mov'
p770
sg25
S'0x8139d0cL'
p771
sg27
Nsba(ibclass
BInstr
p772
(dp773
g2
Nsg17
S'cmp     [ebp+bl_0], 20h'
p774
sg19
S'837df020'
p775
sg21
Vcmp dword ptr [ebp - 0x10], 0x20
p776
sg5
L135503119L
sg6
Nsg23
S'cmp'
p777
sg25
S'0x8139d0fL'
p778
sg27
Nsba(ibclass
BInstr
p779
(dp780
g2
Nsg17
S'jle     short loc_8139D31'
p781
sg19
S'7e1c'
p782
sg21
Vjle 0x1e
p783
sg5
L135503123L
sg6
Nsg23
S'jle'
p784
sg25
S'0x8139d13L'
p785
sg27
Nsbasg84
(lp786
Vmov eax, mem
p787
aVmov eax, mem
p788
aVmov mem, eax
p789
aVmov eax, mem
p790
aVmov eax, mem
p791
aVmov eax, mem
p792
aVmov mem, eax
p793
aVcmp mem, address
p794
aVjle address
p795
asg92
Nsg5
S'0x8139cfbL'
p796
sg94
(lp797
S'0x8139c96L'
p798
aS'0x8139ca0L'
p799
asg6
Nsg96
(lp800
S'0x8139d15L'
p801
aS'0x8139d31L'
p802
asg100
Nsg101
Nsg102
S'94cd6ca0b68e4ae5010dc5b7904da17b'
p803
sg104
S'd044f1f1a15672f4ee5bb3e2d010f68b'
p804
sg106
(lp805
g728
ag735
ag742
ag749
ag756
ag763
ag770
ag777
ag784
asg108
Nsba(ibclass
BBasicBlock
p806
(dp807
g12
Nsg13
(lp808
(ibclass
BInstr
p809
(dp810
g2
Nsg17
S'mov     dword ptr [esp+8], offset aBlIntSizeofCtx; "bl <= (int)sizeof(ctx->buf)"'
p811
sg19
S'c7442408002a2308'
p812
sg21
Vmov dword ptr [esp + 8], 0x8232a00
p813
sg5
L135503125L
sg6
Nsg23
S'mov'
p814
sg25
S'0x8139d15L'
p815
sg27
Nsba(ibclass
BInstr
p816
(dp817
g2
Nsg17
S'mov     dword ptr [esp+4], 157h; line'
p818
sg19
S'c744240457010000'
p819
sg21
Vmov dword ptr [esp + 4], 0x157
p820
sg5
L135503133L
sg6
Nsg23
S'mov'
p821
sg25
S'0x8139d1dL'
p822
sg27
Nsba(ibclass
BInstr
p823
(dp824
g2
Nsg17
S'mov     dword ptr [esp], offset aEvp_enc_c; "evp_enc.c"'
p825
sg19
S'c7042446292308'
p826
sg21
Vmov dword ptr [esp], 0x8232946
p827
sg5
L135503141L
sg6
Nsg23
S'mov'
p828
sg25
S'0x8139d25L'
p829
sg27
Nsba(ibclass
BInstr
p830
(dp831
g2
Nsg17
S'call    OpenSSLDie'
p832
sg19
S'e82386faff'
p833
sg21
Vcall 0xfffa8628
p834
sg5
L135503148L
sg6
Nsg23
S'call'
p835
sg25
S'0x8139d2cL'
p836
sg27
Nsbasg84
(lp837
Vmov mem, address
p838
aVmov mem, address
p839
aVmov mem, address
p840
aVcall address
p841
asg92
Nsg5
S'0x8139d15L'
p842
sg94
(lp843
S'0x8139cfbL'
p844
asg6
Nsg96
(lp845
sg100
Nsg101
Nsg102
S'e233a80004971487a8cda28e21c9f5ef'
p846
sg104
S'a81f9f89c42ecbd3bdc0ac7f0538f04a'
p847
sg106
(lp848
g814
ag821
ag828
ag835
asg108
Nsba(ibclass
BBasicBlock
p849
(dp850
g12
Nsg13
(lp851
(ibclass
BInstr
p852
(dp853
g2
Nsg17
S'cmp     [ebp+i], 0'
p854
sg19
S'837dec00'
p855
sg21
Vcmp dword ptr [ebp - 0x14], 0
p856
sg5
L135503153L
sg6
Nsg23
S'cmp'
p857
sg25
S'0x8139d31L'
p858
sg27
Nsba(ibclass
BInstr
p859
(dp860
g2
Nsg17
S'jz      loc_8139E0D'
p861
sg19
S'0f84d2000000'
p862
sg21
Vje 0xd8
p863
sg5
L135503157L
sg6
Nsg23
S'jz'
p864
sg25
S'0x8139d35L'
p865
sg27
Nsbasg84
(lp866
Vcmp mem, 0
p867
aVje address
p868
asg92
Nsg5
S'0x8139d31L'
p869
sg94
(lp870
S'0x8139cfbL'
p871
asg6
Nsg96
(lp872
S'0x8139d3bL'
p873
aS'0x8139e0dL'
p874
asg100
Nsg101
Nsg102
S'613dbc2b0cb9d6264d802b24d709daea'
p875
sg104
S'bdc7ec577d63971d81398660f533a2e0'
p876
sg106
(lp877
g857
ag864
asg108
Nsba(ibclass
BBasicBlock
p878
(dp879
g12
Nsg13
(lp880
(ibclass
BInstr
p881
(dp882
g2
Nsg17
S'mov     eax, [ebp+inl]'
p883
sg19
S'8b4518'
p884
sg21
Vmov eax, dword ptr [ebp + 0x18]
p885
sg5
L135503163L
sg6
Nsg23
S'mov'
p886
sg25
S'0x8139d3bL'
p887
sg27
Nsba(ibclass
BInstr
p888
(dp889
g2
Nsg17
S'mov     edx, [ebp+i]'
p890
sg19
S'8b55ec'
p891
sg21
Vmov edx, dword ptr [ebp - 0x14]
p892
sg5
L135503166L
sg6
Nsg23
S'mov'
p893
sg25
S'0x8139d3eL'
p894
sg27
Nsba(ibclass
BInstr
p895
(dp896
g2
Nsg17
S'add     eax, edx'
p897
sg19
S'01d0'
p898
sg21
Vadd eax, edx
p899
sg5
L135503169L
sg6
Nsg23
S'add'
p900
sg25
S'0x8139d41L'
p901
sg27
Nsba(ibclass
BInstr
p902
(dp903
g2
Nsg17
S'cmp     eax, [ebp+bl_0]'
p904
sg19
S'3b45f0'
p905
sg21
Vcmp eax, dword ptr [ebp - 0x10]
p906
sg5
L135503171L
sg6
Nsg23
S'cmp'
p907
sg25
S'0x8139d43L'
p908
sg27
Nsba(ibclass
BInstr
p909
(dp910
g2
Nsg17
S'jge     short loc_8139D8D'
p911
sg19
S'7d45'
p912
sg21
Vjge 0x47
p913
sg5
L135503174L
sg6
Nsg23
S'jge'
p914
sg25
S'0x8139d46L'
p915
sg27
Nsbasg84
(lp916
Vmov eax, mem
p917
aVmov edx, mem
p918
ag899
aVcmp eax, mem
p919
aVjge address
p920
asg92
Nsg5
S'0x8139d3bL'
p921
sg94
(lp922
S'0x8139d31L'
p923
asg6
Nsg96
(lp924
S'0x8139d48L'
p925
aS'0x8139d8dL'
p926
asg100
Nsg101
Nsg102
S'db7db5a321a655c26a7731776482129b'
p927
sg104
S'c9eb6062a1d6757d1607ce34029c1d0b'
p928
sg106
(lp929
g886
ag893
ag900
ag907
ag914
asg108
Nsba(ibclass
BBasicBlock
p930
(dp931
g12
Nsg13
(lp932
(ibclass
BInstr
p933
(dp934
g2
Nsg17
S'mov     eax, [ebp+inl]'
p935
sg19
S'8b4518'
p936
sg21
Vmov eax, dword ptr [ebp + 0x18]
p937
sg5
L135503176L
sg6
Nsg23
S'mov'
p938
sg25
S'0x8139d48L'
p939
sg27
Nsba(ibclass
BInstr
p940
(dp941
g2
Nsg17
S'mov     edx, [ebp+i]'
p942
sg19
S'8b55ec'
p943
sg21
Vmov edx, dword ptr [ebp - 0x14]
p944
sg5
L135503179L
sg6
Nsg23
S'mov'
p945
sg25
S'0x8139d4bL'
p946
sg27
Nsba(ibclass
BInstr
p947
(dp948
g2
Nsg17
S'lea     ecx, [edx+30h]'
p949
sg19
S'8d4a30'
p950
sg21
Vlea ecx, [edx + 0x30]
p951
sg5
L135503182L
sg6
Nsg23
S'lea'
p952
sg25
S'0x8139d4eL'
p953
sg27
Nsba(ibclass
BInstr
p954
(dp955
g2
Nsg17
S'mov     edx, [ebp+ctx]'
p956
sg19
S'8b5508'
p957
sg21
Vmov edx, dword ptr [ebp + 8]
p958
sg5
L135503185L
sg6
Nsg23
S'mov'
p959
sg25
S'0x8139d51L'
p960
sg27
Nsba(ibclass
BInstr
p961
(dp962
g2
Nsg17
S'add     edx, ecx'
p963
sg19
S'01ca'
p964
sg21
Vadd edx, ecx
p965
sg5
L135503188L
sg6
Nsg23
S'add'
p966
sg25
S'0x8139d54L'
p967
sg27
Nsba(ibclass
BInstr
p968
(dp969
g2
Nsg17
S'mov     [esp+8], eax    ; n'
p970
sg19
S'89442408'
p971
sg21
Vmov dword ptr [esp + 8], eax
p972
sg5
L135503190L
sg6
Nsg23
S'mov'
p973
sg25
S'0x8139d56L'
p974
sg27
Nsba(ibclass
BInstr
p975
(dp976
g2
Nsg17
S'mov     eax, [ebp+in]'
p977
sg19
S'8b4514'
p978
sg21
Vmov eax, dword ptr [ebp + 0x14]
p979
sg5
L135503194L
sg6
Nsg23
S'mov'
p980
sg25
S'0x8139d5aL'
p981
sg27
Nsba(ibclass
BInstr
p982
(dp983
g2
Nsg17
S'mov     [esp+4], eax    ; src'
p984
sg19
S'89442404'
p985
sg21
Vmov dword ptr [esp + 4], eax
p986
sg5
L135503197L
sg6
Nsg23
S'mov'
p987
sg25
S'0x8139d5dL'
p988
sg27
Nsba(ibclass
BInstr
p989
(dp990
g2
Nsg17
S'mov     [esp], edx      ; dest'
p991
sg19
S'891424'
p992
sg21
Vmov dword ptr [esp], edx
p993
sg5
L135503201L
sg6
Nsg23
S'mov'
p994
sg25
S'0x8139d61L'
p995
sg27
Nsba(ibclass
BInstr
p996
(dp997
g2
Nsg17
S'call    _memcpy'
p998
sg19
S'e8d7f7f0ff'
p999
sg21
Vcall 0xfff0f7dc
p1000
sg5
L135503204L
sg6
Nsg23
S'call'
p1001
sg25
S'0x8139d64L'
p1002
sg27
Nsba(ibclass
BInstr
p1003
(dp1004
g2
Nsg17
S'mov     eax, [ebp+ctx]'
p1005
sg19
S'8b4508'
p1006
sg21
Vmov eax, dword ptr [ebp + 8]
p1007
sg5
L135503209L
sg6
Nsg23
S'mov'
p1008
sg25
S'0x8139d69L'
p1009
sg27
Nsba(ibclass
BInstr
p1010
(dp1011
g2
Nsg17
S'mov     edx, [eax+0Ch]'
p1012
sg19
S'8b500c'
p1013
sg21
Vmov edx, dword ptr [eax + 0xc]
p1014
sg5
L135503212L
sg6
Nsg23
S'mov'
p1015
sg25
S'0x8139d6cL'
p1016
sg27
Nsba(ibclass
BInstr
p1017
(dp1018
g2
Nsg17
S'mov     eax, [ebp+inl]'
p1019
sg19
S'8b4518'
p1020
sg21
Vmov eax, dword ptr [ebp + 0x18]
p1021
sg5
L135503215L
sg6
Nsg23
S'mov'
p1022
sg25
S'0x8139d6fL'
p1023
sg27
Nsba(ibclass
BInstr
p1024
(dp1025
g2
Nsg17
S'add     edx, eax'
p1026
sg19
S'01c2'
p1027
sg21
Vadd edx, eax
p1028
sg5
L135503218L
sg6
Nsg23
S'add'
p1029
sg25
S'0x8139d72L'
p1030
sg27
Nsba(ibclass
BInstr
p1031
(dp1032
g2
Nsg17
S'mov     eax, [ebp+ctx]'
p1033
sg19
S'8b4508'
p1034
sg21
Vmov eax, dword ptr [ebp + 8]
p1035
sg5
L135503220L
sg6
Nsg23
S'mov'
p1036
sg25
S'0x8139d74L'
p1037
sg27
Nsba(ibclass
BInstr
p1038
(dp1039
g2
Nsg17
S'mov     [eax+0Ch], edx'
p1040
sg19
S'89500c'
p1041
sg21
Vmov dword ptr [eax + 0xc], edx
p1042
sg5
L135503223L
sg6
Nsg23
S'mov'
p1043
sg25
S'0x8139d77L'
p1044
sg27
Nsba(ibclass
BInstr
p1045
(dp1046
g2
Nsg17
S'mov     eax, [ebp+outl]'
p1047
sg19
S'8b4510'
p1048
sg21
Vmov eax, dword ptr [ebp + 0x10]
p1049
sg5
L135503226L
sg6
Nsg23
S'mov'
p1050
sg25
S'0x8139d7aL'
p1051
sg27
Nsba(ibclass
BInstr
p1052
(dp1053
g2
Nsg17
S'mov     dword ptr [eax], 0'
p1054
sg19
S'c70000000000'
p1055
sg21
Vmov dword ptr [eax], 0
p1056
sg5
L135503229L
sg6
Nsg23
S'mov'
p1057
sg25
S'0x8139d7dL'
p1058
sg27
Nsba(ibclass
BInstr
p1059
(dp1060
g2
Nsg17
S'mov     eax, 1'
p1061
sg19
S'b801000000'
p1062
sg21
Vmov eax, 1
p1063
sg5
L135503235L
sg6
Nsg23
S'mov'
p1064
sg25
S'0x8139d83L'
p1065
sg27
Nsba(ibclass
BInstr
p1066
(dp1067
g2
Nsg17
S'jmp     locret_8139EA0'
p1068
sg19
S'e913010000'
p1069
sg21
Vjmp 0x118
p1070
sg5
L135503240L
sg6
Nsg23
S'jmp'
p1071
sg25
S'0x8139d88L'
p1072
sg27
Nsbasg84
(lp1073
Vmov eax, mem
p1074
aVmov edx, mem
p1075
aVlea ecx, mem
p1076
aVmov edx, mem
p1077
ag965
aVmov mem, eax
p1078
aVmov eax, mem
p1079
aVmov mem, eax
p1080
aVmov mem, edx
p1081
aVcall address
p1082
aVmov eax, mem
p1083
aVmov edx, mem
p1084
aVmov eax, mem
p1085
ag1028
aVmov eax, mem
p1086
aVmov mem, edx
p1087
aVmov eax, mem
p1088
aVmov mem, 0
p1089
ag1063
aVjmp address
p1090
asg92
Nsg5
S'0x8139d48L'
p1091
sg94
(lp1092
S'0x8139d3bL'
p1093
asg6
Nsg96
(lp1094
S'0x8139ea0L'
p1095
asg100
Nsg101
Nsg102
S'f7d917254cf8d9a4ce85a729f2ad318c'
p1096
sg104
S'0f02dc82f51e7cc07df08d0189185976'
p1097
sg106
(lp1098
g938
ag945
ag952
ag959
ag966
ag973
ag980
ag987
ag994
ag1001
ag1008
ag1015
ag1022
ag1029
ag1036
ag1043
ag1050
ag1057
ag1064
ag1071
asg108
Nsba(ibclass
BBasicBlock
p1099
(dp1100
g12
Nsg13
(lp1101
(ibclass
BInstr
p1102
(dp1103
g2
Nsg17
S'mov     eax, [ebp+i]'
p1104
sg19
S'8b45ec'
p1105
sg21
Vmov eax, dword ptr [ebp - 0x14]
p1106
sg5
L135503245L
sg6
Nsg23
S'mov'
p1107
sg25
S'0x8139d8dL'
p1108
sg27
Nsba(ibclass
BInstr
p1109
(dp1110
g2
Nsg17
S'mov     edx, [ebp+bl_0]'
p1111
sg19
S'8b55f0'
p1112
sg21
Vmov edx, dword ptr [ebp - 0x10]
p1113
sg5
L135503248L
sg6
Nsg23
S'mov'
p1114
sg25
S'0x8139d90L'
p1115
sg27
Nsba(ibclass
BInstr
p1116
(dp1117
g2
Nsg17
S'sub     edx, eax'
p1118
sg19
S'29c2'
p1119
sg21
Vsub edx, eax
p1120
sg5
L135503251L
sg6
Nsg23
S'sub'
p1121
sg25
S'0x8139d93L'
p1122
sg27
Nsba(ibclass
BInstr
p1123
(dp1124
g2
Nsg17
S'mov     eax, edx'
p1125
sg19
S'89d0'
p1126
sg21
Vmov eax, edx
p1127
sg5
L135503253L
sg6
Nsg23
S'mov'
p1128
sg25
S'0x8139d95L'
p1129
sg27
Nsba(ibclass
BInstr
p1130
(dp1131
g2
Nsg17
S'mov     [ebp+j], eax'
p1132
sg19
S'8945f4'
p1133
sg21
Vmov dword ptr [ebp - 0xc], eax
p1134
sg5
L135503255L
sg6
Nsg23
S'mov'
p1135
sg25
S'0x8139d97L'
p1136
sg27
Nsba(ibclass
BInstr
p1137
(dp1138
g2
Nsg17
S'mov     eax, [ebp+j]'
p1139
sg19
S'8b45f4'
p1140
sg21
Vmov eax, dword ptr [ebp - 0xc]
p1141
sg5
L135503258L
sg6
Nsg23
S'mov'
p1142
sg25
S'0x8139d9aL'
p1143
sg27
Nsba(ibclass
BInstr
p1144
(dp1145
g2
Nsg17
S'mov     edx, [ebp+i]'
p1146
sg19
S'8b55ec'
p1147
sg21
Vmov edx, dword ptr [ebp - 0x14]
p1148
sg5
L135503261L
sg6
Nsg23
S'mov'
p1149
sg25
S'0x8139d9dL'
p1150
sg27
Nsba(ibclass
BInstr
p1151
(dp1152
g2
Nsg17
S'lea     ecx, [edx+30h]'
p1153
sg19
S'8d4a30'
p1154
sg21
Vlea ecx, [edx + 0x30]
p1155
sg5
L135503264L
sg6
Nsg23
S'lea'
p1156
sg25
S'0x8139da0L'
p1157
sg27
Nsba(ibclass
BInstr
p1158
(dp1159
g2
Nsg17
S'mov     edx, [ebp+ctx]'
p1160
sg19
S'8b5508'
p1161
sg21
Vmov edx, dword ptr [ebp + 8]
p1162
sg5
L135503267L
sg6
Nsg23
S'mov'
p1163
sg25
S'0x8139da3L'
p1164
sg27
Nsba(ibclass
BInstr
p1165
(dp1166
g2
Nsg17
S'add     edx, ecx'
p1167
sg19
S'01ca'
p1168
sg21
Vadd edx, ecx
p1169
sg5
L135503270L
sg6
Nsg23
S'add'
p1170
sg25
S'0x8139da6L'
p1171
sg27
Nsba(ibclass
BInstr
p1172
(dp1173
g2
Nsg17
S'mov     [esp+8], eax    ; n'
p1174
sg19
S'89442408'
p1175
sg21
Vmov dword ptr [esp + 8], eax
p1176
sg5
L135503272L
sg6
Nsg23
S'mov'
p1177
sg25
S'0x8139da8L'
p1178
sg27
Nsba(ibclass
BInstr
p1179
(dp1180
g2
Nsg17
S'mov     eax, [ebp+in]'
p1181
sg19
S'8b4514'
p1182
sg21
Vmov eax, dword ptr [ebp + 0x14]
p1183
sg5
L135503276L
sg6
Nsg23
S'mov'
p1184
sg25
S'0x8139dacL'
p1185
sg27
Nsba(ibclass
BInstr
p1186
(dp1187
g2
Nsg17
S'mov     [esp+4], eax    ; src'
p1188
sg19
S'89442404'
p1189
sg21
Vmov dword ptr [esp + 4], eax
p1190
sg5
L135503279L
sg6
Nsg23
S'mov'
p1191
sg25
S'0x8139dafL'
p1192
sg27
Nsba(ibclass
BInstr
p1193
(dp1194
g2
Nsg17
S'mov     [esp], edx      ; dest'
p1195
sg19
S'891424'
p1196
sg21
Vmov dword ptr [esp], edx
p1197
sg5
L135503283L
sg6
Nsg23
S'mov'
p1198
sg25
S'0x8139db3L'
p1199
sg27
Nsba(ibclass
BInstr
p1200
(dp1201
g2
Nsg17
S'call    _memcpy'
p1202
sg19
S'e885f7f0ff'
p1203
sg21
Vcall 0xfff0f78a
p1204
sg5
L135503286L
sg6
Nsg23
S'call'
p1205
sg25
S'0x8139db6L'
p1206
sg27
Nsba(ibclass
BInstr
p1207
(dp1208
g2
Nsg17
S'mov     eax, [ebp+ctx]'
p1209
sg19
S'8b4508'
p1210
sg21
Vmov eax, dword ptr [ebp + 8]
p1211
sg5
L135503291L
sg6
Nsg23
S'mov'
p1212
sg25
S'0x8139dbbL'
p1213
sg27
Nsba(ibclass
BInstr
p1214
(dp1215
g2
Nsg17
S'mov     eax, [eax]'
p1216
sg19
S'8b00'
p1217
sg21
Vmov eax, dword ptr [eax]
p1218
sg5
L135503294L
sg6
Nsg23
S'mov'
p1219
sg25
S'0x8139dbeL'
p1220
sg27
Nsba(ibclass
BInstr
p1221
(dp1222
g2
Nsg17
S'mov     eax, [eax+18h]'
p1223
sg19
S'8b4018'
p1224
sg21
Vmov eax, dword ptr [eax + 0x18]
p1225
sg5
L135503296L
sg6
Nsg23
S'mov'
p1226
sg25
S'0x8139dc0L'
p1227
sg27
Nsba(ibclass
BInstr
p1228
(dp1229
g2
Nsg17
S'mov     edx, [ebp+bl_0]'
p1230
sg19
S'8b55f0'
p1231
sg21
Vmov edx, dword ptr [ebp - 0x10]
p1232
sg5
L135503299L
sg6
Nsg23
S'mov'
p1233
sg25
S'0x8139dc3L'
p1234
sg27
Nsba(ibclass
BInstr
p1235
(dp1236
g2
Nsg17
S'mov     ecx, [ebp+ctx]'
p1237
sg19
S'8b4d08'
p1238
sg21
Vmov ecx, dword ptr [ebp + 8]
p1239
sg5
L135503302L
sg6
Nsg23
S'mov'
p1240
sg25
S'0x8139dc6L'
p1241
sg27
Nsba(ibclass
BInstr
p1242
(dp1243
g2
Nsg17
S'add     ecx, 30h'
p1244
sg19
S'83c130'
p1245
sg21
Vadd ecx, 0x30
p1246
sg5
L135503305L
sg6
Nsg23
S'add'
p1247
sg25
S'0x8139dc9L'
p1248
sg27
Nsba(ibclass
BInstr
p1249
(dp1250
g2
Nsg17
S'mov     [esp+0Ch], edx'
p1251
sg19
S'8954240c'
p1252
sg21
Vmov dword ptr [esp + 0xc], edx
p1253
sg5
L135503308L
sg6
Nsg23
S'mov'
p1254
sg25
S'0x8139dccL'
p1255
sg27
Nsba(ibclass
BInstr
p1256
(dp1257
g2
Nsg17
S'mov     [esp+8], ecx'
p1258
sg19
S'894c2408'
p1259
sg21
Vmov dword ptr [esp + 8], ecx
p1260
sg5
L135503312L
sg6
Nsg23
S'mov'
p1261
sg25
S'0x8139dd0L'
p1262
sg27
Nsba(ibclass
BInstr
p1263
(dp1264
g2
Nsg17
S'mov     edx, [ebp+out]'
p1265
sg19
S'8b550c'
p1266
sg21
Vmov edx, dword ptr [ebp + 0xc]
p1267
sg5
L135503316L
sg6
Nsg23
S'mov'
p1268
sg25
S'0x8139dd4L'
p1269
sg27
Nsba(ibclass
BInstr
p1270
(dp1271
g2
Nsg17
S'mov     [esp+4], edx'
p1272
sg19
S'89542404'
p1273
sg21
Vmov dword ptr [esp + 4], edx
p1274
sg5
L135503319L
sg6
Nsg23
S'mov'
p1275
sg25
S'0x8139dd7L'
p1276
sg27
Nsba(ibclass
BInstr
p1277
(dp1278
g2
Nsg17
S'mov     edx, [ebp+ctx]'
p1279
sg19
S'8b5508'
p1280
sg21
Vmov edx, dword ptr [ebp + 8]
p1281
sg5
L135503323L
sg6
Nsg23
S'mov'
p1282
sg25
S'0x8139ddbL'
p1283
sg27
Nsba(ibclass
BInstr
p1284
(dp1285
g2
Nsg17
S'mov     [esp], edx'
p1286
sg19
S'891424'
p1287
sg21
Vmov dword ptr [esp], edx
p1288
sg5
L135503326L
sg6
Nsg23
S'mov'
p1289
sg25
S'0x8139ddeL'
p1290
sg27
Nsba(ibclass
BInstr
p1291
(dp1292
g2
Nsg17
S'call    eax'
p1293
sg19
S'ffd0'
p1294
sg21
Vcall eax
p1295
sg5
L135503329L
sg6
Nsg23
S'call'
p1296
sg25
S'0x8139de1L'
p1297
sg27
Nsba(ibclass
BInstr
p1298
(dp1299
g2
Nsg17
S'test    eax, eax'
p1300
sg19
S'85c0'
p1301
sg21
Vtest eax, eax
p1302
sg5
L135503331L
sg6
Nsg23
S'test'
p1303
sg25
S'0x8139de3L'
p1304
sg27
Nsba(ibclass
BInstr
p1305
(dp1306
g2
Nsg17
S'jnz     short loc_8139DF1'
p1307
sg19
S'750a'
p1308
sg21
Vjne 0xc
p1309
sg5
L135503333L
sg6
Nsg23
S'jnz'
p1310
sg25
S'0x8139de5L'
p1311
sg27
Nsbasg84
(lp1312
Vmov eax, mem
p1313
aVmov edx, mem
p1314
ag1120
ag1127
aVmov mem, eax
p1315
aVmov eax, mem
p1316
aVmov edx, mem
p1317
aVlea ecx, mem
p1318
aVmov edx, mem
p1319
ag1169
aVmov mem, eax
p1320
aVmov eax, mem
p1321
aVmov mem, eax
p1322
aVmov mem, edx
p1323
aVcall address
p1324
aVmov eax, mem
p1325
aVmov eax, mem
p1326
aVmov eax, mem
p1327
aVmov edx, mem
p1328
aVmov ecx, mem
p1329
aVadd ecx, address
p1330
aVmov mem, edx
p1331
aVmov mem, ecx
p1332
aVmov edx, mem
p1333
aVmov mem, edx
p1334
aVmov edx, mem
p1335
aVmov mem, edx
p1336
ag1295
ag1302
aVjne address
p1337
asg92
Nsg5
S'0x8139d8dL'
p1338
sg94
(lp1339
S'0x8139d3bL'
p1340
asg6
Nsg96
(lp1341
S'0x8139de7L'
p1342
aS'0x8139df1L'
p1343
asg100
Nsg101
Nsg102
S'fa59e99f942a633bd836834e13391eac'
p1344
sg104
S'b0ca650e9add13e96a6dcf834ce4c8e5'
p1345
sg106
(lp1346
g1107
ag1114
ag1121
ag1128
ag1135
ag1142
ag1149
ag1156
ag1163
ag1170
ag1177
ag1184
ag1191
ag1198
ag1205
ag1212
ag1219
ag1226
ag1233
ag1240
ag1247
ag1254
ag1261
ag1268
ag1275
ag1282
ag1289
ag1296
ag1303
ag1310
asg108
Nsba(ibclass
BBasicBlock
p1347
(dp1348
g12
Nsg13
(lp1349
(ibclass
BInstr
p1350
(dp1351
g2
Nsg17
S'mov     eax, 0'
p1352
sg19
S'b800000000'
p1353
sg21
Vmov eax, 0
p1354
sg5
L135503335L
sg6
Nsg23
S'mov'
p1355
sg25
S'0x8139de7L'
p1356
sg27
Nsba(ibclass
BInstr
p1357
(dp1358
g2
Nsg17
S'jmp     locret_8139EA0'
p1359
sg19
S'e9af000000'
p1360
sg21
Vjmp 0xb4
p1361
sg5
L135503340L
sg6
Nsg23
S'jmp'
p1362
sg25
S'0x8139decL'
p1363
sg27
Nsbasg84
(lp1364
g1354
aVjmp address
p1365
asg92
Nsg5
S'0x8139de7L'
p1366
sg94
(lp1367
S'0x8139d8dL'
p1368
asg6
Nsg96
(lp1369
S'0x8139ea0L'
p1370
asg100
Nsg101
Nsg102
S'8b9a0d40e062be2b9b2d9885108fb196'
p1371
sg104
S'bfbe752dd865c9a89011ba470eab331d'
p1372
sg106
(lp1373
g1355
ag1362
asg108
Nsba(ibclass
BBasicBlock
p1374
(dp1375
g12
Nsg13
(lp1376
(ibclass
BInstr
p1377
(dp1378
g2
Nsg17
S'mov     eax, [ebp+j]'
p1379
sg19
S'8b45f4'
p1380
sg21
Vmov eax, dword ptr [ebp - 0xc]
p1381
sg5
L135503345L
sg6
Nsg23
S'mov'
p1382
sg25
S'0x8139df1L'
p1383
sg27
Nsba(ibclass
BInstr
p1384
(dp1385
g2
Nsg17
S'sub     [ebp+inl], eax'
p1386
sg19
S'294518'
p1387
sg21
Vsub dword ptr [ebp + 0x18], eax
p1388
sg5
L135503348L
sg6
Nsg23
S'sub'
p1389
sg25
S'0x8139df4L'
p1390
sg27
Nsba(ibclass
BInstr
p1391
(dp1392
g2
Nsg17
S'mov     eax, [ebp+j]'
p1393
sg19
S'8b45f4'
p1394
sg21
Vmov eax, dword ptr [ebp - 0xc]
p1395
sg5
L135503351L
sg6
Nsg23
S'mov'
p1396
sg25
S'0x8139df7L'
p1397
sg27
Nsba(ibclass
BInstr
p1398
(dp1399
g2
Nsg17
S'add     [ebp+in], eax'
p1400
sg19
S'014514'
p1401
sg21
Vadd dword ptr [ebp + 0x14], eax
p1402
sg5
L135503354L
sg6
Nsg23
S'add'
p1403
sg25
S'0x8139dfaL'
p1404
sg27
Nsba(ibclass
BInstr
p1405
(dp1406
g2
Nsg17
S'mov     eax, [ebp+bl_0]'
p1407
sg19
S'8b45f0'
p1408
sg21
Vmov eax, dword ptr [ebp - 0x10]
p1409
sg5
L135503357L
sg6
Nsg23
S'mov'
p1410
sg25
S'0x8139dfdL'
p1411
sg27
Nsba(ibclass
BInstr
p1412
(dp1413
g2
Nsg17
S'add     [ebp+out], eax'
p1414
sg19
S'01450c'
p1415
sg21
Vadd dword ptr [ebp + 0xc], eax
p1416
sg5
L135503360L
sg6
Nsg23
S'add'
p1417
sg25
S'0x8139e00L'
p1418
sg27
Nsba(ibclass
BInstr
p1419
(dp1420
g2
Nsg17
S'mov     eax, [ebp+outl]'
p1421
sg19
S'8b4510'
p1422
sg21
Vmov eax, dword ptr [ebp + 0x10]
p1423
sg5
L135503363L
sg6
Nsg23
S'mov'
p1424
sg25
S'0x8139e03L'
p1425
sg27
Nsba(ibclass
BInstr
p1426
(dp1427
g2
Nsg17
S'mov     edx, [ebp+bl_0]'
p1428
sg19
S'8b55f0'
p1429
sg21
Vmov edx, dword ptr [ebp - 0x10]
p1430
sg5
L135503366L
sg6
Nsg23
S'mov'
p1431
sg25
S'0x8139e06L'
p1432
sg27
Nsba(ibclass
BInstr
p1433
(dp1434
g2
Nsg17
S'mov     [eax], edx'
p1435
sg19
S'8910'
p1436
sg21
Vmov dword ptr [eax], edx
p1437
sg5
L135503369L
sg6
Nsg23
S'mov'
p1438
sg25
S'0x8139e09L'
p1439
sg27
Nsba(ibclass
BInstr
p1440
(dp1441
g2
Nsg17
S'jmp     short loc_8139E16'
p1442
sg19
S'eb09'
p1443
sg21
Vjmp 0xb
p1444
sg5
L135503371L
sg6
Nsg23
S'jmp'
p1445
sg25
S'0x8139e0bL'
p1446
sg27
Nsbasg84
(lp1447
Vmov eax, mem
p1448
aVsub mem, eax
p1449
aVmov eax, mem
p1450
aVadd mem, eax
p1451
aVmov eax, mem
p1452
aVadd mem, eax
p1453
aVmov eax, mem
p1454
aVmov edx, mem
p1455
aVmov mem, edx
p1456
aVjmp address
p1457
asg92
Nsg5
S'0x8139df1L'
p1458
sg94
(lp1459
S'0x8139d8dL'
p1460
asg6
Nsg96
(lp1461
S'0x8139e16L'
p1462
asg100
Nsg101
Nsg102
S'4fbd9c3ab71bb77e53fe96b6197120d7'
p1463
sg104
S'64c6bb379af2e60b6b46c9ed38b520db'
p1464
sg106
(lp1465
g1382
ag1389
ag1396
ag1403
ag1410
ag1417
ag1424
ag1431
ag1438
ag1445
asg108
Nsba(ibclass
BBasicBlock
p1466
(dp1467
g12
Nsg13
(lp1468
(ibclass
BInstr
p1469
(dp1470
g2
Nsg17
S'mov     eax, [ebp+outl]'
p1471
sg19
S'8b4510'
p1472
sg21
Vmov eax, dword ptr [ebp + 0x10]
p1473
sg5
L135503373L
sg6
Nsg23
S'mov'
p1474
sg25
S'0x8139e0dL'
p1475
sg27
Nsba(ibclass
BInstr
p1476
(dp1477
g2
Nsg17
S'mov     dword ptr [eax], 0'
p1478
sg19
S'c70000000000'
p1479
sg21
Vmov dword ptr [eax], 0
p1480
sg5
L135503376L
sg6
Nsg23
S'mov'
p1481
sg25
S'0x8139e10L'
p1482
sg27
Nsbasg84
(lp1483
Vmov eax, mem
p1484
aVmov mem, 0
p1485
asg92
Nsg5
S'0x8139e0dL'
p1486
sg94
(lp1487
S'0x8139d31L'
p1488
asg6
Nsg96
(lp1489
S'0x8139e16L'
p1490
asg100
Nsg101
Nsg102
S'70939fd8153af5d63d1bcbdb14592b28'
p1491
sg104
S'f1f03bab98e43de52828469353bd807b'
p1492
sg106
(lp1493
g1474
ag1481
asg108
Nsba(ibclass
BBasicBlock
p1494
(dp1495
g12
Nsg13
(lp1496
(ibclass
BInstr
p1497
(dp1498
g2
Nsg17
S'mov     eax, [ebp+bl_0]'
p1499
sg19
S'8b45f0'
p1500
sg21
Vmov eax, dword ptr [ebp - 0x10]
p1501
sg5
L135503382L
sg6
Nsg23
S'mov'
p1502
sg25
S'0x8139e16L'
p1503
sg27
Nsba(ibclass
BInstr
p1504
(dp1505
g2
Nsg17
S'dec     eax'
p1506
sg19
S'48'
p1507
sg21
Vdec eax
p1508
sg5
L135503385L
sg6
Nsg23
S'dec'
p1509
sg25
S'0x8139e19L'
p1510
sg27
Nsba(ibclass
BInstr
p1511
(dp1512
g2
Nsg17
S'and     eax, [ebp+inl]'
p1513
sg19
S'234518'
p1514
sg21
Vand eax, dword ptr [ebp + 0x18]
p1515
sg5
L135503386L
sg6
Nsg23
S'and'
p1516
sg25
S'0x8139e1aL'
p1517
sg27
Nsba(ibclass
BInstr
p1518
(dp1519
g2
Nsg17
S'mov     [ebp+i], eax'
p1520
sg19
S'8945ec'
p1521
sg21
Vmov dword ptr [ebp - 0x14], eax
p1522
sg5
L135503389L
sg6
Nsg23
S'mov'
p1523
sg25
S'0x8139e1dL'
p1524
sg27
Nsba(ibclass
BInstr
p1525
(dp1526
g2
Nsg17
S'mov     eax, [ebp+i]'
p1527
sg19
S'8b45ec'
p1528
sg21
Vmov eax, dword ptr [ebp - 0x14]
p1529
sg5
L135503392L
sg6
Nsg23
S'mov'
p1530
sg25
S'0x8139e20L'
p1531
sg27
Nsba(ibclass
BInstr
p1532
(dp1533
g2
Nsg17
S'sub     [ebp+inl], eax'
p1534
sg19
S'294518'
p1535
sg21
Vsub dword ptr [ebp + 0x18], eax
p1536
sg5
L135503395L
sg6
Nsg23
S'sub'
p1537
sg25
S'0x8139e23L'
p1538
sg27
Nsba(ibclass
BInstr
p1539
(dp1540
g2
Nsg17
S'cmp     [ebp+inl], 0'
p1541
sg19
S'837d1800'
p1542
sg21
Vcmp dword ptr [ebp + 0x18], 0
p1543
sg5
L135503398L
sg6
Nsg23
S'cmp'
p1544
sg25
S'0x8139e26L'
p1545
sg27
Nsba(ibclass
BInstr
p1546
(dp1547
g2
Nsg17
S'jle     short loc_8139E6B'
p1548
sg19
S'7e3f'
p1549
sg21
Vjle 0x41
p1550
sg5
L135503402L
sg6
Nsg23
S'jle'
p1551
sg25
S'0x8139e2aL'
p1552
sg27
Nsbasg84
(lp1553
Vmov eax, mem
p1554
ag1508
aVand eax, mem
p1555
aVmov mem, eax
p1556
aVmov eax, mem
p1557
aVsub mem, eax
p1558
aVcmp mem, 0
p1559
aVjle address
p1560
asg92
Nsg5
S'0x8139e16L'
p1561
sg94
(lp1562
S'0x8139df1L'
p1563
aS'0x8139e0dL'
p1564
asg6
Nsg96
(lp1565
S'0x8139e2cL'
p1566
aS'0x8139e6bL'
p1567
asg100
Nsg101
Nsg102
S'0023ad2810f2f0255e0a855cb590a546'
p1568
sg104
S'5f984f2093823a19c98fe039c1d52680'
p1569
sg106
(lp1570
g1502
ag1509
ag1516
ag1523
ag1530
ag1537
ag1544
ag1551
asg108
Nsba(ibclass
BBasicBlock
p1571
(dp1572
g12
Nsg13
(lp1573
(ibclass
BInstr
p1574
(dp1575
g2
Nsg17
S'mov     eax, [ebp+ctx]'
p1576
sg19
S'8b4508'
p1577
sg21
Vmov eax, dword ptr [ebp + 8]
p1578
sg5
L135503404L
sg6
Nsg23
S'mov'
p1579
sg25
S'0x8139e2cL'
p1580
sg27
Nsba(ibclass
BInstr
p1581
(dp1582
g2
Nsg17
S'mov     eax, [eax]'
p1583
sg19
S'8b00'
p1584
sg21
Vmov eax, dword ptr [eax]
p1585
sg5
L135503407L
sg6
Nsg23
S'mov'
p1586
sg25
S'0x8139e2fL'
p1587
sg27
Nsba(ibclass
BInstr
p1588
(dp1589
g2
Nsg17
S'mov     eax, [eax+18h]'
p1590
sg19
S'8b4018'
p1591
sg21
Vmov eax, dword ptr [eax + 0x18]
p1592
sg5
L135503409L
sg6
Nsg23
S'mov'
p1593
sg25
S'0x8139e31L'
p1594
sg27
Nsba(ibclass
BInstr
p1595
(dp1596
g2
Nsg17
S'mov     edx, [ebp+inl]'
p1597
sg19
S'8b5518'
p1598
sg21
Vmov edx, dword ptr [ebp + 0x18]
p1599
sg5
L135503412L
sg6
Nsg23
S'mov'
p1600
sg25
S'0x8139e34L'
p1601
sg27
Nsba(ibclass
BInstr
p1602
(dp1603
g2
Nsg17
S'mov     [esp+0Ch], edx'
p1604
sg19
S'8954240c'
p1605
sg21
Vmov dword ptr [esp + 0xc], edx
p1606
sg5
L135503415L
sg6
Nsg23
S'mov'
p1607
sg25
S'0x8139e37L'
p1608
sg27
Nsba(ibclass
BInstr
p1609
(dp1610
g2
Nsg17
S'mov     edx, [ebp+in]'
p1611
sg19
S'8b5514'
p1612
sg21
Vmov edx, dword ptr [ebp + 0x14]
p1613
sg5
L135503419L
sg6
Nsg23
S'mov'
p1614
sg25
S'0x8139e3bL'
p1615
sg27
Nsba(ibclass
BInstr
p1616
(dp1617
g2
Nsg17
S'mov     [esp+8], edx'
p1618
sg19
S'89542408'
p1619
sg21
Vmov dword ptr [esp + 8], edx
p1620
sg5
L135503422L
sg6
Nsg23
S'mov'
p1621
sg25
S'0x8139e3eL'
p1622
sg27
Nsba(ibclass
BInstr
p1623
(dp1624
g2
Nsg17
S'mov     edx, [ebp+out]'
p1625
sg19
S'8b550c'
p1626
sg21
Vmov edx, dword ptr [ebp + 0xc]
p1627
sg5
L135503426L
sg6
Nsg23
S'mov'
p1628
sg25
S'0x8139e42L'
p1629
sg27
Nsba(ibclass
BInstr
p1630
(dp1631
g2
Nsg17
S'mov     [esp+4], edx'
p1632
sg19
S'89542404'
p1633
sg21
Vmov dword ptr [esp + 4], edx
p1634
sg5
L135503429L
sg6
Nsg23
S'mov'
p1635
sg25
S'0x8139e45L'
p1636
sg27
Nsba(ibclass
BInstr
p1637
(dp1638
g2
Nsg17
S'mov     edx, [ebp+ctx]'
p1639
sg19
S'8b5508'
p1640
sg21
Vmov edx, dword ptr [ebp + 8]
p1641
sg5
L135503433L
sg6
Nsg23
S'mov'
p1642
sg25
S'0x8139e49L'
p1643
sg27
Nsba(ibclass
BInstr
p1644
(dp1645
g2
Nsg17
S'mov     [esp], edx'
p1646
sg19
S'891424'
p1647
sg21
Vmov dword ptr [esp], edx
p1648
sg5
L135503436L
sg6
Nsg23
S'mov'
p1649
sg25
S'0x8139e4cL'
p1650
sg27
Nsba(ibclass
BInstr
p1651
(dp1652
g2
Nsg17
S'call    eax'
p1653
sg19
S'ffd0'
p1654
sg21
Vcall eax
p1655
sg5
L135503439L
sg6
Nsg23
S'call'
p1656
sg25
S'0x8139e4fL'
p1657
sg27
Nsba(ibclass
BInstr
p1658
(dp1659
g2
Nsg17
S'test    eax, eax'
p1660
sg19
S'85c0'
p1661
sg21
Vtest eax, eax
p1662
sg5
L135503441L
sg6
Nsg23
S'test'
p1663
sg25
S'0x8139e51L'
p1664
sg27
Nsba(ibclass
BInstr
p1665
(dp1666
g2
Nsg17
S'jnz     short loc_8139E5C'
p1667
sg19
S'7507'
p1668
sg21
Vjne 9
p1669
sg5
L135503443L
sg6
Nsg23
S'jnz'
p1670
sg25
S'0x8139e53L'
p1671
sg27
Nsbasg84
(lp1672
Vmov eax, mem
p1673
aVmov eax, mem
p1674
aVmov eax, mem
p1675
aVmov edx, mem
p1676
aVmov mem, edx
p1677
aVmov edx, mem
p1678
aVmov mem, edx
p1679
aVmov edx, mem
p1680
aVmov mem, edx
p1681
aVmov edx, mem
p1682
aVmov mem, edx
p1683
ag1655
ag1662
ag1669
asg92
Nsg5
S'0x8139e2cL'
p1684
sg94
(lp1685
S'0x8139e16L'
p1686
asg6
Nsg96
(lp1687
S'0x8139e55L'
p1688
aS'0x8139e5cL'
p1689
asg100
Nsg101
Nsg102
S'f3d34e34a7d815f09156da2249bb6d29'
p1690
sg104
S'692e1b0a03b8de9d04ebe87cbca20a43'
p1691
sg106
(lp1692
g1579
ag1586
ag1593
ag1600
ag1607
ag1614
ag1621
ag1628
ag1635
ag1642
ag1649
ag1656
ag1663
ag1670
asg108
Nsba(ibclass
BBasicBlock
p1693
(dp1694
g12
Nsg13
(lp1695
(ibclass
BInstr
p1696
(dp1697
g2
Nsg17
S'mov     eax, 0'
p1698
sg19
S'b800000000'
p1699
sg21
Vmov eax, 0
p1700
sg5
L135503445L
sg6
Nsg23
S'mov'
p1701
sg25
S'0x8139e55L'
p1702
sg27
Nsba(ibclass
BInstr
p1703
(dp1704
g2
Nsg17
S'jmp     short locret_8139EA0'
p1705
sg19
S'eb44'
p1706
sg21
Vjmp 0x46
p1707
sg5
L135503450L
sg6
Nsg23
S'jmp'
p1708
sg25
S'0x8139e5aL'
p1709
sg27
Nsbasg84
(lp1710
g1700
aVjmp address
p1711
asg92
Nsg5
S'0x8139e55L'
p1712
sg94
(lp1713
S'0x8139e2cL'
p1714
asg6
Nsg96
(lp1715
S'0x8139ea0L'
p1716
asg100
Nsg101
Nsg102
S'8b9a0d40e062be2b9b2d9885108fb196'
p1717
sg104
S'bfbe752dd865c9a89011ba470eab331d'
p1718
sg106
(lp1719
g1701
ag1708
asg108
Nsba(ibclass
BBasicBlock
p1720
(dp1721
g12
Nsg13
(lp1722
(ibclass
BInstr
p1723
(dp1724
g2
Nsg17
S'mov     eax, [ebp+outl]'
p1725
sg19
S'8b4510'
p1726
sg21
Vmov eax, dword ptr [ebp + 0x10]
p1727
sg5
L135503452L
sg6
Nsg23
S'mov'
p1728
sg25
S'0x8139e5cL'
p1729
sg27
Nsba(ibclass
BInstr
p1730
(dp1731
g2
Nsg17
S'mov     edx, [eax]'
p1732
sg19
S'8b10'
p1733
sg21
Vmov edx, dword ptr [eax]
p1734
sg5
L135503455L
sg6
Nsg23
S'mov'
p1735
sg25
S'0x8139e5fL'
p1736
sg27
Nsba(ibclass
BInstr
p1737
(dp1738
g2
Nsg17
S'mov     eax, [ebp+inl]'
p1739
sg19
S'8b4518'
p1740
sg21
Vmov eax, dword ptr [ebp + 0x18]
p1741
sg5
L135503457L
sg6
Nsg23
S'mov'
p1742
sg25
S'0x8139e61L'
p1743
sg27
Nsba(ibclass
BInstr
p1744
(dp1745
g2
Nsg17
S'add     edx, eax'
p1746
sg19
S'01c2'
p1747
sg21
Vadd edx, eax
p1748
sg5
L135503460L
sg6
Nsg23
S'add'
p1749
sg25
S'0x8139e64L'
p1750
sg27
Nsba(ibclass
BInstr
p1751
(dp1752
g2
Nsg17
S'mov     eax, [ebp+outl]'
p1753
sg19
S'8b4510'
p1754
sg21
Vmov eax, dword ptr [ebp + 0x10]
p1755
sg5
L135503462L
sg6
Nsg23
S'mov'
p1756
sg25
S'0x8139e66L'
p1757
sg27
Nsba(ibclass
BInstr
p1758
(dp1759
g2
Nsg17
S'mov     [eax], edx'
p1760
sg19
S'8910'
p1761
sg21
Vmov dword ptr [eax], edx
p1762
sg5
L135503465L
sg6
Nsg23
S'mov'
p1763
sg25
S'0x8139e69L'
p1764
sg27
Nsbasg84
(lp1765
Vmov eax, mem
p1766
aVmov edx, mem
p1767
aVmov eax, mem
p1768
ag1748
aVmov eax, mem
p1769
aVmov mem, edx
p1770
asg92
Nsg5
S'0x8139e5cL'
p1771
sg94
(lp1772
S'0x8139e2cL'
p1773
asg6
Nsg96
(lp1774
S'0x8139e6bL'
p1775
asg100
Nsg101
Nsg102
S'8349b127ee53b6f151eaf7e780304f3c'
p1776
sg104
S'dbb10a958a15bc35d98e70e2f908c608'
p1777
sg106
(lp1778
g1728
ag1735
ag1742
ag1749
ag1756
ag1763
asg108
Nsba(ibclass
BBasicBlock
p1779
(dp1780
g12
Nsg13
(lp1781
(ibclass
BInstr
p1782
(dp1783
g2
Nsg17
S'cmp     [ebp+i], 0'
p1784
sg19
S'837dec00'
p1785
sg21
Vcmp dword ptr [ebp - 0x14], 0
p1786
sg5
L135503467L
sg6
Nsg23
S'cmp'
p1787
sg25
S'0x8139e6bL'
p1788
sg27
Nsba(ibclass
BInstr
p1789
(dp1790
g2
Nsg17
S'jz      short loc_8139E92'
p1791
sg19
S'7421'
p1792
sg21
Vje 0x23
p1793
sg5
L135503471L
sg6
Nsg23
S'jz'
p1794
sg25
S'0x8139e6fL'
p1795
sg27
Nsbasg84
(lp1796
Vcmp mem, 0
p1797
aVje address
p1798
asg92
Nsg5
S'0x8139e6bL'
p1799
sg94
(lp1800
S'0x8139e16L'
p1801
aS'0x8139e5cL'
p1802
asg6
Nsg96
(lp1803
S'0x8139e71L'
p1804
aS'0x8139e92L'
p1805
asg100
Nsg101
Nsg102
S'613dbc2b0cb9d6264d802b24d709daea'
p1806
sg104
S'bdc7ec577d63971d81398660f533a2e0'
p1807
sg106
(lp1808
g1787
ag1794
asg108
Nsba(ibclass
BBasicBlock
p1809
(dp1810
g12
Nsg13
(lp1811
(ibclass
BInstr
p1812
(dp1813
g2
Nsg17
S'mov     eax, [ebp+i]'
p1814
sg19
S'8b45ec'
p1815
sg21
Vmov eax, dword ptr [ebp - 0x14]
p1816
sg5
L135503473L
sg6
Nsg23
S'mov'
p1817
sg25
S'0x8139e71L'
p1818
sg27
Nsba(ibclass
BInstr
p1819
(dp1820
g2
Nsg17
S'mov     ecx, [ebp+inl]'
p1821
sg19
S'8b4d18'
p1822
sg21
Vmov ecx, dword ptr [ebp + 0x18]
p1823
sg5
L135503476L
sg6
Nsg23
S'mov'
p1824
sg25
S'0x8139e74L'
p1825
sg27
Nsba(ibclass
BInstr
p1826
(dp1827
g2
Nsg17
S'mov     edx, [ebp+in]'
p1828
sg19
S'8b5514'
p1829
sg21
Vmov edx, dword ptr [ebp + 0x14]
p1830
sg5
L135503479L
sg6
Nsg23
S'mov'
p1831
sg25
S'0x8139e77L'
p1832
sg27
Nsba(ibclass
BInstr
p1833
(dp1834
g2
Nsg17
S'add     ecx, edx'
p1835
sg19
S'01d1'
p1836
sg21
Vadd ecx, edx
p1837
sg5
L135503482L
sg6
Nsg23
S'add'
p1838
sg25
S'0x8139e7aL'
p1839
sg27
Nsba(ibclass
BInstr
p1840
(dp1841
g2
Nsg17
S'mov     edx, [ebp+ctx]'
p1842
sg19
S'8b5508'
p1843
sg21
Vmov edx, dword ptr [ebp + 8]
p1844
sg5
L135503484L
sg6
Nsg23
S'mov'
p1845
sg25
S'0x8139e7cL'
p1846
sg27
Nsba(ibclass
BInstr
p1847
(dp1848
g2
Nsg17
S'add     edx, 30h'
p1849
sg19
S'83c230'
p1850
sg21
Vadd edx, 0x30
p1851
sg5
L135503487L
sg6
Nsg23
S'add'
p1852
sg25
S'0x8139e7fL'
p1853
sg27
Nsba(ibclass
BInstr
p1854
(dp1855
g2
Nsg17
S'mov     [esp+8], eax    ; n'
p1856
sg19
S'89442408'
p1857
sg21
Vmov dword ptr [esp + 8], eax
p1858
sg5
L135503490L
sg6
Nsg23
S'mov'
p1859
sg25
S'0x8139e82L'
p1860
sg27
Nsba(ibclass
BInstr
p1861
(dp1862
g2
Nsg17
S'mov     [esp+4], ecx    ; src'
p1863
sg19
S'894c2404'
p1864
sg21
Vmov dword ptr [esp + 4], ecx
p1865
sg5
L135503494L
sg6
Nsg23
S'mov'
p1866
sg25
S'0x8139e86L'
p1867
sg27
Nsba(ibclass
BInstr
p1868
(dp1869
g2
Nsg17
S'mov     [esp], edx      ; dest'
p1870
sg19
S'891424'
p1871
sg21
Vmov dword ptr [esp], edx
p1872
sg5
L135503498L
sg6
Nsg23
S'mov'
p1873
sg25
S'0x8139e8aL'
p1874
sg27
Nsba(ibclass
BInstr
p1875
(dp1876
g2
Nsg17
S'call    _memcpy'
p1877
sg19
S'e8aef6f0ff'
p1878
sg21
Vcall 0xfff0f6b3
p1879
sg5
L135503501L
sg6
Nsg23
S'call'
p1880
sg25
S'0x8139e8dL'
p1881
sg27
Nsbasg84
(lp1882
Vmov eax, mem
p1883
aVmov ecx, mem
p1884
aVmov edx, mem
p1885
ag1837
aVmov edx, mem
p1886
aVadd edx, address
p1887
aVmov mem, eax
p1888
aVmov mem, ecx
p1889
aVmov mem, edx
p1890
aVcall address
p1891
asg92
Nsg5
S'0x8139e71L'
p1892
sg94
(lp1893
S'0x8139e6bL'
p1894
asg6
Nsg96
(lp1895
S'0x8139e92L'
p1896
asg100
Nsg101
Nsg102
S'7468dda7cdb4a3c72c117b93b51b5f53'
p1897
sg104
S'ce4f80c1d5d709ebf2d63a52286ee134'
p1898
sg106
(lp1899
g1817
ag1824
ag1831
ag1838
ag1845
ag1852
ag1859
ag1866
ag1873
ag1880
asg108
Nsba(ibclass
BBasicBlock
p1900
(dp1901
g12
Nsg13
(lp1902
(ibclass
BInstr
p1903
(dp1904
g2
Nsg17
S'mov     eax, [ebp+ctx]'
p1905
sg19
S'8b4508'
p1906
sg21
Vmov eax, dword ptr [ebp + 8]
p1907
sg5
L135503506L
sg6
Nsg23
S'mov'
p1908
sg25
S'0x8139e92L'
p1909
sg27
Nsba(ibclass
BInstr
p1910
(dp1911
g2
Nsg17
S'mov     edx, [ebp+i]'
p1912
sg19
S'8b55ec'
p1913
sg21
Vmov edx, dword ptr [ebp - 0x14]
p1914
sg5
L135503509L
sg6
Nsg23
S'mov'
p1915
sg25
S'0x8139e95L'
p1916
sg27
Nsba(ibclass
BInstr
p1917
(dp1918
g2
Nsg17
S'mov     [eax+0Ch], edx'
p1919
sg19
S'89500c'
p1920
sg21
Vmov dword ptr [eax + 0xc], edx
p1921
sg5
L135503512L
sg6
Nsg23
S'mov'
p1922
sg25
S'0x8139e98L'
p1923
sg27
Nsba(ibclass
BInstr
p1924
(dp1925
g2
Nsg17
S'mov     eax, 1'
p1926
sg19
S'b801000000'
p1927
sg21
Vmov eax, 1
p1928
sg5
L135503515L
sg6
Nsg23
S'mov'
p1929
sg25
S'0x8139e9bL'
p1930
sg27
Nsbasg84
(lp1931
Vmov eax, mem
p1932
aVmov edx, mem
p1933
aVmov mem, edx
p1934
ag1928
asg92
Nsg5
S'0x8139e92L'
p1935
sg94
(lp1936
S'0x8139e6bL'
p1937
aS'0x8139e71L'
p1938
asg6
Nsg96
(lp1939
S'0x8139ea0L'
p1940
asg100
Nsg101
Nsg102
S'a7ed50a6d28be8041222ce9aca64dd18'
p1941
sg104
S'f44d8b3f78bb3830636995ad17fbe7b4'
p1942
sg106
(lp1943
g1908
ag1915
ag1922
ag1929
asg108
Nsba(ibclass
BBasicBlock
p1944
(dp1945
g12
Nsg13
(lp1946
(ibclass
BInstr
p1947
(dp1948
g2
Nsg17
S'leave'
p1949
sg19
S'c9'
p1950
sg21
Vleave 
p1951
sg5
L135503520L
sg6
Nsg23
S'leave'
p1952
sg25
S'0x8139ea0L'
p1953
sg27
Nsba(ibclass
BInstr
p1954
(dp1955
g2
Nsg17
S'retn'
p1956
sg19
S'c3'
p1957
sg21
Vret 
p1958
sg5
L135503521L
sg6
Nsg23
S'retn'
p1959
sg25
S'0x8139ea1L'
p1960
sg27
Nsbasg84
(lp1961
Vleave
p1962
aVret
p1963
asg92
Nsg5
S'0x8139ea0L'
p1964
sg94
(lp1965
S'0x8139c5aL'
p1966
aS'0x8139c64L'
p1967
aS'0x8139c7cL'
p1968
aS'0x8139cd6L'
p1969
aS'0x8139ce8L'
p1970
aS'0x8139d48L'
p1971
aS'0x8139de7L'
p1972
aS'0x8139e55L'
p1973
aS'0x8139e92L'
p1974
asg6
Nsg96
(lp1975
sg100
Nsg101
Nsg102
S'08c78f73a6f87c85da88b2982f54ce2a'
p1976
sg104
S'393fee3c9fb1d26424d4b7704918e387'
p1977
sg106
(lp1978
g1952
ag1959
asg108
Nsbasb.