(ibclass
BFunc
p0
(dp1
S'hash'
p2
NsS'name'
p3
S'ssl23_get_client_method'
p4
sS'start_address'
p5
L134971495L
sS'flag'
p6
NsS'program'
p7
NsS'bbs'
p8
(lp9
(ibclass
BBasicBlock
p10
(dp11
S'function'
p12
NsS'binstrs'
p13
(lp14
(ibclass
BInstr
p15
(dp16
g2
NsS'disasm'
p17
S'push    ebp'
p18
sS'bytes'
p19
S'55'
p20
sS'disasm_striped'
p21
Vpush ebp
p22
sg5
L134971495L
sg6
NsS'mnem'
p23
S'push'
p24
sS'address'
p25
S'0x80b8067L'
p26
sS'basicblock'
p27
Nsba(ibclass
BInstr
p28
(dp29
g2
Nsg17
S'mov     ebp, esp'
p30
sg19
S'89e5'
p31
sg21
Vmov ebp, esp
p32
sg5
L134971496L
sg6
Nsg23
S'mov'
p33
sg25
S'0x80b8068L'
p34
sg27
Nsba(ibclass
BInstr
p35
(dp36
g2
Nsg17
S'sub     esp, 8'
p37
sg19
S'83ec08'
p38
sg21
Vsub esp, 8
p39
sg5
L134971498L
sg6
Nsg23
S'sub'
p40
sg25
S'0x80b806aL'
p41
sg27
Nsba(ibclass
BInstr
p42
(dp43
g2
Nsg17
S'cmp     [ebp+ver], 2'
p44
sg19
S'837d0802'
p45
sg21
Vcmp dword ptr [ebp + 8], 2
p46
sg5
L134971501L
sg6
Nsg23
S'cmp'
p47
sg25
S'0x80b806dL'
p48
sg27
Nsba(ibclass
BInstr
p49
(dp50
g2
Nsg17
S'jnz     short loc_80B807A'
p51
sg19
S'7507'
p52
sg21
Vjne 9
p53
sg5
L134971505L
sg6
Nsg23
S'jnz'
p54
sg25
S'0x80b8071L'
p55
sg27
NsbasS'disasm_list'
p56
(lp57
g22
ag32
ag39
aVcmp mem, 2
p58
ag53
asS'end_address'
p59
Nsg5
S'0x80b8067L'
p60
sS'preds'
p61
(lp62
sg6
NsS'succs'
p63
(lp64
S'0x80b8073L'
p65
aS'0x80b807aL'
p66
asS'hash_v3'
p67
NsS'flag_v2'
p68
NsS'hash_v1'
p69
S'210a37928dd2097087c285e2bbd4b5b4'
p70
sS'hash_v2'
p71
S'6b44d617ea15eed2d2689e54700486de'
p72
sS'mnen_list'
p73
(lp74
g24
ag33
ag40
ag47
ag54
asS'neighbour_disasm_list'
p75
Nsba(ibclass
BBasicBlock
p76
(dp77
g12
Nsg13
(lp78
(ibclass
BInstr
p79
(dp80
g2
Nsg17
S'call    SSLv2_client_method'
p81
sg19
S'e85949feff'
p82
sg21
Vcall 0xfffe495e
p83
sg5
L134971507L
sg6
Nsg23
S'call'
p84
sg25
S'0x80b8073L'
p85
sg27
Nsba(ibclass
BInstr
p86
(dp87
g2
Nsg17
S'jmp     short locret_80B80BF'
p88
sg19
S'eb45'
p89
sg21
Vjmp 0x47
p90
sg5
L134971512L
sg6
Nsg23
S'jmp'
p91
sg25
S'0x80b8078L'
p92
sg27
Nsbasg56
(lp93
Vcall address
p94
aVjmp address
p95
asg59
Nsg5
S'0x80b8073L'
p96
sg61
(lp97
S'0x80b8067L'
p98
asg6
Nsg63
(lp99
S'0x80b80bfL'
p100
asg67
Nsg68
Nsg69
S'613570bbd53754a6e5d3ef36c9a5f5bd'
p101
sg71
S'04e04627a52db9d1a57df7d335b1f2e5'
p102
sg73
(lp103
g84
ag91
asg75
Nsba(ibclass
BBasicBlock
p104
(dp105
g12
Nsg13
(lp106
(ibclass
BInstr
p107
(dp108
g2
Nsg17
S'cmp     [ebp+ver], 300h'
p109
sg19
S'817d0800030000'
p110
sg21
Vcmp dword ptr [ebp + 8], 0x300
p111
sg5
L134971514L
sg6
Nsg23
S'cmp'
p112
sg25
S'0x80b807aL'
p113
sg27
Nsba(ibclass
BInstr
p114
(dp115
g2
Nsg17
S'jnz     short loc_80B808A'
p116
sg19
S'7507'
p117
sg21
Vjne 9
p118
sg5
L134971521L
sg6
Nsg23
S'jnz'
p119
sg25
S'0x80b8081L'
p120
sg27
Nsbasg56
(lp121
Vcmp mem, address
p122
ag118
asg59
Nsg5
S'0x80b807aL'
p123
sg61
(lp124
S'0x80b8067L'
p125
asg6
Nsg63
(lp126
S'0x80b8083L'
p127
aS'0x80b808aL'
p128
asg67
Nsg68
Nsg69
S'30cb3d6f6a174adfabcde507f6944a52'
p129
sg71
S'eef9b169dfa885b9bd865248f86a0b13'
p130
sg73
(lp131
g112
ag119
asg75
Nsba(ibclass
BBasicBlock
p132
(dp133
g12
Nsg13
(lp134
(ibclass
BInstr
p135
(dp136
g2
Nsg17
S'call    SSLv3_client_method'
p137
sg19
S'e806fffeff'
p138
sg21
Vcall 0xfffeff0b
p139
sg5
L134971523L
sg6
Nsg23
S'call'
p140
sg25
S'0x80b8083L'
p141
sg27
Nsba(ibclass
BInstr
p142
(dp143
g2
Nsg17
S'jmp     short locret_80B80BF'
p144
sg19
S'eb35'
p145
sg21
Vjmp 0x37
p146
sg5
L134971528L
sg6
Nsg23
S'jmp'
p147
sg25
S'0x80b8088L'
p148
sg27
Nsbasg56
(lp149
Vcall address
p150
aVjmp address
p151
asg59
Nsg5
S'0x80b8083L'
p152
sg61
(lp153
S'0x80b807aL'
p154
asg6
Nsg63
(lp155
S'0x80b80bfL'
p156
asg67
Nsg68
Nsg69
S'613570bbd53754a6e5d3ef36c9a5f5bd'
p157
sg71
S'04e04627a52db9d1a57df7d335b1f2e5'
p158
sg73
(lp159
g140
ag147
asg75
Nsba(ibclass
BBasicBlock
p160
(dp161
g12
Nsg13
(lp162
(ibclass
BInstr
p163
(dp164
g2
Nsg17
S'cmp     [ebp+ver], 301h'
p165
sg19
S'817d0801030000'
p166
sg21
Vcmp dword ptr [ebp + 8], 0x301
p167
sg5
L134971530L
sg6
Nsg23
S'cmp'
p168
sg25
S'0x80b808aL'
p169
sg27
Nsba(ibclass
BInstr
p170
(dp171
g2
Nsg17
S'jnz     short loc_80B809A'
p172
sg19
S'7507'
p173
sg21
Vjne 9
p174
sg5
L134971537L
sg6
Nsg23
S'jnz'
p175
sg25
S'0x80b8091L'
p176
sg27
Nsbasg56
(lp177
Vcmp mem, address
p178
ag174
asg59
Nsg5
S'0x80b808aL'
p179
sg61
(lp180
S'0x80b807aL'
p181
asg6
Nsg63
(lp182
S'0x80b8093L'
p183
aS'0x80b809aL'
p184
asg67
Nsg68
Nsg69
S'30cb3d6f6a174adfabcde507f6944a52'
p185
sg71
S'eef9b169dfa885b9bd865248f86a0b13'
p186
sg73
(lp187
g168
ag175
asg75
Nsba(ibclass
BBasicBlock
p188
(dp189
g12
Nsg13
(lp190
(ibclass
BInstr
p191
(dp192
g2
Nsg17
S'call    TLSv1_client_method'
p193
sg19
S'e80a180000'
p194
sg21
Vcall 0x180f
p195
sg5
L134971539L
sg6
Nsg23
S'call'
p196
sg25
S'0x80b8093L'
p197
sg27
Nsba(ibclass
BInstr
p198
(dp199
g2
Nsg17
S'jmp     short locret_80B80BF'
p200
sg19
S'eb25'
p201
sg21
Vjmp 0x27
p202
sg5
L134971544L
sg6
Nsg23
S'jmp'
p203
sg25
S'0x80b8098L'
p204
sg27
Nsbasg56
(lp205
Vcall address
p206
aVjmp address
p207
asg59
Nsg5
S'0x80b8093L'
p208
sg61
(lp209
S'0x80b808aL'
p210
asg6
Nsg63
(lp211
S'0x80b80bfL'
p212
asg67
Nsg68
Nsg69
S'613570bbd53754a6e5d3ef36c9a5f5bd'
p213
sg71
S'04e04627a52db9d1a57df7d335b1f2e5'
p214
sg73
(lp215
g196
ag203
asg75
Nsba(ibclass
BBasicBlock
p216
(dp217
g12
Nsg13
(lp218
(ibclass
BInstr
p219
(dp220
g2
Nsg17
S'cmp     [ebp+ver], 302h'
p221
sg19
S'817d0802030000'
p222
sg21
Vcmp dword ptr [ebp + 8], 0x302
p223
sg5
L134971546L
sg6
Nsg23
S'cmp'
p224
sg25
S'0x80b809aL'
p225
sg27
Nsba(ibclass
BInstr
p226
(dp227
g2
Nsg17
S'jnz     short loc_80B80AA'
p228
sg19
S'7507'
p229
sg21
Vjne 9
p230
sg5
L134971553L
sg6
Nsg23
S'jnz'
p231
sg25
S'0x80b80a1L'
p232
sg27
Nsbasg56
(lp233
Vcmp mem, address
p234
ag230
asg59
Nsg5
S'0x80b809aL'
p235
sg61
(lp236
S'0x80b808aL'
p237
asg6
Nsg63
(lp238
S'0x80b80a3L'
p239
aS'0x80b80aaL'
p240
asg67
Nsg68
Nsg69
S'30cb3d6f6a174adfabcde507f6944a52'
p241
sg71
S'eef9b169dfa885b9bd865248f86a0b13'
p242
sg73
(lp243
g224
ag231
asg75
Nsba(ibclass
BBasicBlock
p244
(dp245
g12
Nsg13
(lp246
(ibclass
BInstr
p247
(dp248
g2
Nsg17
S'call    TLSv1_1_client_method'
p249
sg19
S'e8f0170000'
p250
sg21
Vcall 0x17f5
p251
sg5
L134971555L
sg6
Nsg23
S'call'
p252
sg25
S'0x80b80a3L'
p253
sg27
Nsba(ibclass
BInstr
p254
(dp255
g2
Nsg17
S'jmp     short locret_80B80BF'
p256
sg19
S'eb15'
p257
sg21
Vjmp 0x17
p258
sg5
L134971560L
sg6
Nsg23
S'jmp'
p259
sg25
S'0x80b80a8L'
p260
sg27
Nsbasg56
(lp261
Vcall address
p262
aVjmp address
p263
asg59
Nsg5
S'0x80b80a3L'
p264
sg61
(lp265
S'0x80b809aL'
p266
asg6
Nsg63
(lp267
S'0x80b80bfL'
p268
asg67
Nsg68
Nsg69
S'613570bbd53754a6e5d3ef36c9a5f5bd'
p269
sg71
S'04e04627a52db9d1a57df7d335b1f2e5'
p270
sg73
(lp271
g252
ag259
asg75
Nsba(ibclass
BBasicBlock
p272
(dp273
g12
Nsg13
(lp274
(ibclass
BInstr
p275
(dp276
g2
Nsg17
S'cmp     [ebp+ver], 303h'
p277
sg19
S'817d0803030000'
p278
sg21
Vcmp dword ptr [ebp + 8], 0x303
p279
sg5
L134971562L
sg6
Nsg23
S'cmp'
p280
sg25
S'0x80b80aaL'
p281
sg27
Nsba(ibclass
BInstr
p282
(dp283
g2
Nsg17
S'jnz     short loc_80B80BA'
p284
sg19
S'7507'
p285
sg21
Vjne 9
p286
sg5
L134971569L
sg6
Nsg23
S'jnz'
p287
sg25
S'0x80b80b1L'
p288
sg27
Nsbasg56
(lp289
Vcmp mem, address
p290
ag286
asg59
Nsg5
S'0x80b80aaL'
p291
sg61
(lp292
S'0x80b809aL'
p293
asg6
Nsg63
(lp294
S'0x80b80b3L'
p295
aS'0x80b80baL'
p296
asg67
Nsg68
Nsg69
S'30cb3d6f6a174adfabcde507f6944a52'
p297
sg71
S'eef9b169dfa885b9bd865248f86a0b13'
p298
sg73
(lp299
g280
ag287
asg75
Nsba(ibclass
BBasicBlock
p300
(dp301
g12
Nsg13
(lp302
(ibclass
BInstr
p303
(dp304
g2
Nsg17
S'call    TLSv1_2_client_method'
p305
sg19
S'e8d6170000'
p306
sg21
Vcall 0x17db
p307
sg5
L134971571L
sg6
Nsg23
S'call'
p308
sg25
S'0x80b80b3L'
p309
sg27
Nsba(ibclass
BInstr
p310
(dp311
g2
Nsg17
S'jmp     short locret_80B80BF'
p312
sg19
S'eb05'
p313
sg21
Vjmp 7
p314
sg5
L134971576L
sg6
Nsg23
S'jmp'
p315
sg25
S'0x80b80b8L'
p316
sg27
Nsbasg56
(lp317
Vcall address
p318
ag314
asg59
Nsg5
S'0x80b80b3L'
p319
sg61
(lp320
S'0x80b80aaL'
p321
asg6
Nsg63
(lp322
S'0x80b80bfL'
p323
asg67
Nsg68
Nsg69
S'613570bbd53754a6e5d3ef36c9a5f5bd'
p324
sg71
S'bda9de502604ff6eaa6d559c6ca2602f'
p325
sg73
(lp326
g308
ag315
asg75
Nsba(ibclass
BBasicBlock
p327
(dp328
g12
Nsg13
(lp329
(ibclass
BInstr
p330
(dp331
g2
Nsg17
S'mov     eax, 0'
p332
sg19
S'b800000000'
p333
sg21
Vmov eax, 0
p334
sg5
L134971578L
sg6
Nsg23
S'mov'
p335
sg25
S'0x80b80baL'
p336
sg27
Nsbasg56
(lp337
g334
asg59
Nsg5
S'0x80b80baL'
p338
sg61
(lp339
S'0x80b80aaL'
p340
asg6
Nsg63
(lp341
S'0x80b80bfL'
p342
asg67
Nsg68
Nsg69
S'96a4a0e6e9ac88756a0fcba989d0a844'
p343
sg71
S'4cfc99738161f190e0def2f4916ada38'
p344
sg73
(lp345
g335
asg75
Nsba(ibclass
BBasicBlock
p346
(dp347
g12
Nsg13
(lp348
(ibclass
BInstr
p349
(dp350
g2
Nsg17
S'leave'
p351
sg19
S'c9'
p352
sg21
Vleave 
p353
sg5
L134971583L
sg6
Nsg23
S'leave'
p354
sg25
S'0x80b80bfL'
p355
sg27
Nsba(ibclass
BInstr
p356
(dp357
g2
Nsg17
S'retn'
p358
sg19
S'c3'
p359
sg21
Vret 
p360
sg5
L134971584L
sg6
Nsg23
S'retn'
p361
sg25
S'0x80b80c0L'
p362
sg27
Nsbasg56
(lp363
Vleave
p364
aVret
p365
asg59
Nsg5
S'0x80b80bfL'
p366
sg61
(lp367
S'0x80b8073L'
p368
aS'0x80b8083L'
p369
aS'0x80b8093L'
p370
aS'0x80b80a3L'
p371
aS'0x80b80b3L'
p372
aS'0x80b80baL'
p373
asg6
Nsg63
(lp374
sg67
Nsg68
Nsg69
S'08c78f73a6f87c85da88b2982f54ce2a'
p375
sg71
S'393fee3c9fb1d26424d4b7704918e387'
p376
sg73
(lp377
g354
ag361
asg75
Nsbasb.