(ibclass
BFunc
p0
(dp1
S'hash'
p2
NsS'name'
p3
S'do_free_upto'
p4
sS'start_address'
p5
L135878075L
sS'flag'
p6
NsS'program'
p7
NsS'bbs'
p8
(lp9
(ibclass
BBasicBlock
p10
(dp11
S'function'
p12
NsS'binstrs'
p13
(lp14
(ibclass
BInstr
p15
(dp16
g2
NsS'disasm'
p17
S'push    ebp'
p18
sS'bytes'
p19
S'55'
p20
sS'disasm_striped'
p21
Vpush ebp
p22
sg5
L135878075L
sg6
NsS'mnem'
p23
S'push'
p24
sS'address'
p25
S'0x81955bbL'
p26
sS'basicblock'
p27
Nsba(ibclass
BInstr
p28
(dp29
g2
Nsg17
S'mov     ebp, esp'
p30
sg19
S'89e5'
p31
sg21
Vmov ebp, esp
p32
sg5
L135878076L
sg6
Nsg23
S'mov'
p33
sg25
S'0x81955bcL'
p34
sg27
Nsba(ibclass
BInstr
p35
(dp36
g2
Nsg17
S'sub     esp, 28h'
p37
sg19
S'83ec28'
p38
sg21
Vsub esp, 0x28
p39
sg5
L135878078L
sg6
Nsg23
S'sub'
p40
sg25
S'0x81955beL'
p41
sg27
Nsba(ibclass
BInstr
p42
(dp43
g2
Nsg17
S'cmp     [ebp+upto], 0'
p44
sg19
S'837d0c00'
p45
sg21
Vcmp dword ptr [ebp + 0xc], 0
p46
sg5
L135878081L
sg6
Nsg23
S'cmp'
p47
sg25
S'0x81955c1L'
p48
sg27
Nsba(ibclass
BInstr
p49
(dp50
g2
Nsg17
S'jz      short loc_81955F0'
p51
sg19
S'7429'
p52
sg21
Vje 0x2b
p53
sg5
L135878085L
sg6
Nsg23
S'jz'
p54
sg25
S'0x81955c5L'
p55
sg27
NsbasS'disasm_list'
p56
(lp57
g22
ag32
aVsub esp, address
p58
aVcmp mem, 0
p59
aVje address
p60
asS'end_address'
p61
Nsg5
S'0x81955bbL'
p62
sS'preds'
p63
(lp64
sg6
NsS'succs'
p65
(lp66
S'0x81955c7L'
p67
aS'0x81955f0L'
p68
asS'hash_v3'
p69
NsS'flag_v2'
p70
NsS'hash_v1'
p71
S'b23b69e41ad2d7a78e3f9f49a4f33ec4'
p72
sS'hash_v2'
p73
S'fc948aa983d79ba3740b88ca4abd3cfc'
p74
sS'mnen_list'
p75
(lp76
g24
ag33
ag40
ag47
ag54
asS'neighbour_disasm_list'
p77
Nsba(ibclass
BBasicBlock
p78
(dp79
g12
Nsg13
(lp80
(ibclass
BInstr
p81
(dp82
g2
Nsg17
S'mov     eax, [ebp+f]'
p83
sg19
S'8b4508'
p84
sg21
Vmov eax, dword ptr [ebp + 8]
p85
sg5
L135878087L
sg6
Nsg23
S'mov'
p86
sg25
S'0x81955c7L'
p87
sg27
Nsba(ibclass
BInstr
p88
(dp89
g2
Nsg17
S'mov     [esp], eax      ; b'
p90
sg19
S'890424'
p91
sg21
Vmov dword ptr [esp], eax
p92
sg5
L135878090L
sg6
Nsg23
S'mov'
p93
sg25
S'0x81955caL'
p94
sg27
Nsba(ibclass
BInstr
p95
(dp96
g2
Nsg17
S'call    BIO_pop'
p97
sg19
S'e81675f9ff'
p98
sg21
Vcall 0xfff9751b
p99
sg5
L135878093L
sg6
Nsg23
S'call'
p100
sg25
S'0x81955cdL'
p101
sg27
Nsba(ibclass
BInstr
p102
(dp103
g2
Nsg17
S'mov     [ebp+tbio], eax'
p104
sg19
S'8945f4'
p105
sg21
Vmov dword ptr [ebp - 0xc], eax
p106
sg5
L135878098L
sg6
Nsg23
S'mov'
p107
sg25
S'0x81955d2L'
p108
sg27
Nsba(ibclass
BInstr
p109
(dp110
g2
Nsg17
S'mov     eax, [ebp+f]'
p111
sg19
S'8b4508'
p112
sg21
Vmov eax, dword ptr [ebp + 8]
p113
sg5
L135878101L
sg6
Nsg23
S'mov'
p114
sg25
S'0x81955d5L'
p115
sg27
Nsba(ibclass
BInstr
p116
(dp117
g2
Nsg17
S'mov     [esp], eax      ; a'
p118
sg19
S'890424'
p119
sg21
Vmov dword ptr [esp], eax
p120
sg5
L135878104L
sg6
Nsg23
S'mov'
p121
sg25
S'0x81955d8L'
p122
sg27
Nsba(ibclass
BInstr
p123
(dp124
g2
Nsg17
S'call    BIO_free'
p125
sg19
S'e83f6af9ff'
p126
sg21
Vcall 0xfff96a44
p127
sg5
L135878107L
sg6
Nsg23
S'call'
p128
sg25
S'0x81955dbL'
p129
sg27
Nsba(ibclass
BInstr
p130
(dp131
g2
Nsg17
S'mov     eax, [ebp+tbio]'
p132
sg19
S'8b45f4'
p133
sg21
Vmov eax, dword ptr [ebp - 0xc]
p134
sg5
L135878112L
sg6
Nsg23
S'mov'
p135
sg25
S'0x81955e0L'
p136
sg27
Nsba(ibclass
BInstr
p137
(dp138
g2
Nsg17
S'mov     [ebp+f], eax'
p139
sg19
S'894508'
p140
sg21
Vmov dword ptr [ebp + 8], eax
p141
sg5
L135878115L
sg6
Nsg23
S'mov'
p142
sg25
S'0x81955e3L'
p143
sg27
Nsba(ibclass
BInstr
p144
(dp145
g2
Nsg17
S'mov     eax, [ebp+f]'
p146
sg19
S'8b4508'
p147
sg21
Vmov eax, dword ptr [ebp + 8]
p148
sg5
L135878118L
sg6
Nsg23
S'mov'
p149
sg25
S'0x81955e6L'
p150
sg27
Nsba(ibclass
BInstr
p151
(dp152
g2
Nsg17
S'cmp     eax, [ebp+upto]'
p153
sg19
S'3b450c'
p154
sg21
Vcmp eax, dword ptr [ebp + 0xc]
p155
sg5
L135878121L
sg6
Nsg23
S'cmp'
p156
sg25
S'0x81955e9L'
p157
sg27
Nsba(ibclass
BInstr
p158
(dp159
g2
Nsg17
S'jnz     short loc_81955C7'
p160
sg19
S'75d9'
p161
sg21
Vjne 0xffffffdb
p162
sg5
L135878124L
sg6
Nsg23
S'jnz'
p163
sg25
S'0x81955ecL'
p164
sg27
Nsbasg56
(lp165
Vmov eax, mem
p166
aVmov mem, eax
p167
aVcall address
p168
aVmov mem, eax
p169
aVmov eax, mem
p170
aVmov mem, eax
p171
aVcall address
p172
aVmov eax, mem
p173
aVmov mem, eax
p174
aVmov eax, mem
p175
aVcmp eax, mem
p176
aVjne address
p177
asg61
Nsg5
S'0x81955c7L'
p178
sg63
(lp179
S'0x81955bbL'
p180
aS'0x81955c7L'
p181
asg6
Nsg65
(lp182
S'0x81955eeL'
p183
aS'0x81955c7L'
p184
asg69
Nsg70
Nsg71
S'09d08bf4871a208a7b63ffe3ac45fa47'
p185
sg73
S'eb92e4d69df2cfd82b353e0afaa45a57'
p186
sg75
(lp187
g86
ag93
ag100
ag107
ag114
ag121
ag128
ag135
ag142
ag149
ag156
ag163
asg77
Nsba(ibclass
BBasicBlock
p188
(dp189
g12
Nsg13
(lp190
(ibclass
BInstr
p191
(dp192
g2
Nsg17
S'jmp     short locret_81955FB'
p193
sg19
S'eb0b'
p194
sg21
Vjmp 0xd
p195
sg5
L135878126L
sg6
Nsg23
S'jmp'
p196
sg25
S'0x81955eeL'
p197
sg27
Nsbasg56
(lp198
Vjmp address
p199
asg61
Nsg5
S'0x81955eeL'
p200
sg63
(lp201
S'0x81955c7L'
p202
asg6
Nsg65
(lp203
S'0x81955fbL'
p204
asg69
Nsg70
Nsg71
S'0ef6cf926f2f394b0cc8e11be8022625'
p205
sg73
S'd4372e4caa7348928655251605aa7329'
p206
sg75
(lp207
g196
asg77
Nsba(ibclass
BBasicBlock
p208
(dp209
g12
Nsg13
(lp210
(ibclass
BInstr
p211
(dp212
g2
Nsg17
S'mov     eax, [ebp+f]'
p213
sg19
S'8b4508'
p214
sg21
Vmov eax, dword ptr [ebp + 8]
p215
sg5
L135878128L
sg6
Nsg23
S'mov'
p216
sg25
S'0x81955f0L'
p217
sg27
Nsba(ibclass
BInstr
p218
(dp219
g2
Nsg17
S'mov     [esp], eax      ; bio'
p220
sg19
S'890424'
p221
sg21
Vmov dword ptr [esp], eax
p222
sg5
L135878131L
sg6
Nsg23
S'mov'
p223
sg25
S'0x81955f3L'
p224
sg27
Nsba(ibclass
BInstr
p225
(dp226
g2
Nsg17
S'call    BIO_free_all'
p227
sg19
S'e85e76f9ff'
p228
sg21
Vcall 0xfff97663
p229
sg5
L135878134L
sg6
Nsg23
S'call'
p230
sg25
S'0x81955f6L'
p231
sg27
Nsbasg56
(lp232
Vmov eax, mem
p233
aVmov mem, eax
p234
aVcall address
p235
asg61
Nsg5
S'0x81955f0L'
p236
sg63
(lp237
S'0x81955bbL'
p238
asg6
Nsg65
(lp239
S'0x81955fbL'
p240
asg69
Nsg70
Nsg71
S'0bf1a79a6a1155c5085c1c85d6d83d05'
p241
sg73
S'5af7f5bfd15310706e43fa164fed7a71'
p242
sg75
(lp243
g216
ag223
ag230
asg77
Nsba(ibclass
BBasicBlock
p244
(dp245
g12
Nsg13
(lp246
(ibclass
BInstr
p247
(dp248
g2
Nsg17
S'leave'
p249
sg19
S'c9'
p250
sg21
Vleave 
p251
sg5
L135878139L
sg6
Nsg23
S'leave'
p252
sg25
S'0x81955fbL'
p253
sg27
Nsba(ibclass
BInstr
p254
(dp255
g2
Nsg17
S'retn'
p256
sg19
S'c3'
p257
sg21
Vret 
p258
sg5
L135878140L
sg6
Nsg23
S'retn'
p259
sg25
S'0x81955fcL'
p260
sg27
Nsbasg56
(lp261
Vleave
p262
aVret
p263
asg61
Nsg5
S'0x81955fbL'
p264
sg63
(lp265
S'0x81955eeL'
p266
aS'0x81955f0L'
p267
asg6
Nsg65
(lp268
sg69
Nsg70
Nsg71
S'08c78f73a6f87c85da88b2982f54ce2a'
p269
sg73
S'393fee3c9fb1d26424d4b7704918e387'
p270
sg75
(lp271
g252
ag259
asg77
Nsbasb.