(ibclass
BFunc
p0
(dp1
S'hash'
p2
NsS'name'
p3
S'dtls1_process_record'
p4
sS'start_address'
p5
L135034520L
sS'flag'
p6
NsS'program'
p7
NsS'bbs'
p8
(lp9
(ibclass
BBasicBlock
p10
(dp11
S'function'
p12
NsS'binstrs'
p13
(lp14
(ibclass
BInstr
p15
(dp16
g2
NsS'disasm'
p17
S'push    ebp'
p18
sS'bytes'
p19
S'55'
p20
sS'disasm_striped'
p21
Vpush ebp
p22
sg5
L135034520L
sg6
NsS'mnem'
p23
S'push'
p24
sS'address'
p25
S'0x80c7698L'
p26
sS'basicblock'
p27
Nsba(ibclass
BInstr
p28
(dp29
g2
Nsg17
S'mov     ebp, esp'
p30
sg19
S'89e5'
p31
sg21
Vmov ebp, esp
p32
sg5
L135034521L
sg6
Nsg23
S'mov'
p33
sg25
S'0x80c7699L'
p34
sg27
Nsba(ibclass
BInstr
p35
(dp36
g2
Nsg17
S'sub     esp, 98h'
p37
sg19
S'81ec98000000'
p38
sg21
Vsub esp, 0x98
p39
sg5
L135034523L
sg6
Nsg23
S'sub'
p40
sg25
S'0x80c769bL'
p41
sg27
Nsba(ibclass
BInstr
p42
(dp43
g2
Nsg17
S'mov     eax, [ebp+arg_0]'
p44
sg19
S'8b4508'
p45
sg21
Vmov eax, dword ptr [ebp + 8]
p46
sg5
L135034529L
sg6
Nsg23
S'mov'
p47
sg25
S'0x80c76a1L'
p48
sg27
Nsba(ibclass
BInstr
p49
(dp50
g2
Nsg17
S'mov     [ebp+s], eax'
p51
sg19
S'894584'
p52
sg21
Vmov dword ptr [ebp - 0x7c], eax
p53
sg5
L135034532L
sg6
Nsg23
S'mov'
p54
sg25
S'0x80c76a4L'
p55
sg27
Nsba(ibclass
BInstr
p56
(dp57
g2
Nsg17
S'mov     eax, large gs:14h'
p58
sg19
S'65a114000000'
p59
sg21
Vmov eax, dword ptr gs:[0x14]
p60
sg5
L135034535L
sg6
Nsg23
S'mov'
p61
sg25
S'0x80c76a7L'
p62
sg27
Nsba(ibclass
BInstr
p63
(dp64
g2
Nsg17
S'mov     [ebp+var_C], eax'
p65
sg19
S'8945f4'
p66
sg21
Vmov dword ptr [ebp - 0xc], eax
p67
sg5
L135034541L
sg6
Nsg23
S'mov'
p68
sg25
S'0x80c76adL'
p69
sg27
Nsba(ibclass
BInstr
p70
(dp71
g2
Nsg17
S'xor     eax, eax'
p72
sg19
S'31c0'
p73
sg21
Vxor eax, eax
p74
sg5
L135034544L
sg6
Nsg23
S'xor'
p75
sg25
S'0x80c76b0L'
p76
sg27
Nsba(ibclass
BInstr
p77
(dp78
g2
Nsg17
S'mov     [ebp+clear], 0'
p79
sg19
S'c7459000000000'
p80
sg21
Vmov dword ptr [ebp - 0x70], 0
p81
sg5
L135034546L
sg6
Nsg23
S'mov'
p82
sg25
S'0x80c76b2L'
p83
sg27
Nsba(ibclass
BInstr
p84
(dp85
g2
Nsg17
S'mov     [ebp+decryption_failed_or_bad_record_mac], 0'
p86
sg19
S'c7459400000000'
p87
sg21
Vmov dword ptr [ebp - 0x6c], 0
p88
sg5
L135034553L
sg6
Nsg23
S'mov'
p89
sg25
S'0x80c76b9L'
p90
sg27
Nsba(ibclass
BInstr
p91
(dp92
g2
Nsg17
S'mov     [ebp+mac], 0'
p93
sg19
S'c7459800000000'
p94
sg21
Vmov dword ptr [ebp - 0x68], 0
p95
sg5
L135034560L
sg6
Nsg23
S'mov'
p96
sg25
S'0x80c76c0L'
p97
sg27
Nsba(ibclass
BInstr
p98
(dp99
g2
Nsg17
S'mov     eax, [ebp+s]'
p100
sg19
S'8b4584'
p101
sg21
Vmov eax, dword ptr [ebp - 0x7c]
p102
sg5
L135034567L
sg6
Nsg23
S'mov'
p103
sg25
S'0x80c76c7L'
p104
sg27
Nsba(ibclass
BInstr
p105
(dp106
g2
Nsg17
S'mov     eax, [eax+58h]'
p107
sg19
S'8b4058'
p108
sg21
Vmov eax, dword ptr [eax + 0x58]
p109
sg5
L135034570L
sg6
Nsg23
S'mov'
p110
sg25
S'0x80c76caL'
p111
sg27
Nsba(ibclass
BInstr
p112
(dp113
g2
Nsg17
S'add     eax, 10Ch'
p114
sg19
S'050c010000'
p115
sg21
Vadd eax, 0x10c
p116
sg5
L135034573L
sg6
Nsg23
S'add'
p117
sg25
S'0x80c76cdL'
p118
sg27
Nsba(ibclass
BInstr
p119
(dp120
g2
Nsg17
S'mov     [ebp+rr], eax'
p121
sg19
S'89459c'
p122
sg21
Vmov dword ptr [ebp - 0x64], eax
p123
sg5
L135034578L
sg6
Nsg23
S'mov'
p124
sg25
S'0x80c76d2L'
p125
sg27
Nsba(ibclass
BInstr
p126
(dp127
g2
Nsg17
S'mov     eax, [ebp+s]'
p128
sg19
S'8b4584'
p129
sg21
Vmov eax, dword ptr [ebp - 0x7c]
p130
sg5
L135034581L
sg6
Nsg23
S'mov'
p131
sg25
S'0x80c76d5L'
p132
sg27
Nsba(ibclass
BInstr
p133
(dp134
g2
Nsg17
S'mov     eax, [eax+0C0h]'
p135
sg19
S'8b80c0000000'
p136
sg21
Vmov eax, dword ptr [eax + 0xc0]
p137
sg5
L135034584L
sg6
Nsg23
S'mov'
p138
sg25
S'0x80c76d8L'
p139
sg27
Nsba(ibclass
BInstr
p140
(dp141
g2
Nsg17
S'mov     [ebp+sess], eax'
p142
sg19
S'8945a0'
p143
sg21
Vmov dword ptr [ebp - 0x60], eax
p144
sg5
L135034590L
sg6
Nsg23
S'mov'
p145
sg25
S'0x80c76deL'
p146
sg27
Nsba(ibclass
BInstr
p147
(dp148
g2
Nsg17
S'mov     eax, [ebp+s]'
p149
sg19
S'8b4584'
p150
sg21
Vmov eax, dword ptr [ebp - 0x7c]
p151
sg5
L135034593L
sg6
Nsg23
S'mov'
p152
sg25
S'0x80c76e1L'
p153
sg27
Nsba(ibclass
BInstr
p154
(dp155
g2
Nsg17
S'mov     eax, [eax+4Ch]'
p156
sg19
S'8b404c'
p157
sg21
Vmov eax, dword ptr [eax + 0x4c]
p158
sg5
L135034596L
sg6
Nsg23
S'mov'
p159
sg25
S'0x80c76e4L'
p160
sg27
Nsba(ibclass
BInstr
p161
(dp162
g2
Nsg17
S'lea     edx, [eax+0Dh]'
p163
sg19
S'8d500d'
p164
sg21
Vlea edx, [eax + 0xd]
p165
sg5
L135034599L
sg6
Nsg23
S'lea'
p166
sg25
S'0x80c76e7L'
p167
sg27
Nsba(ibclass
BInstr
p168
(dp169
g2
Nsg17
S'mov     eax, [ebp+rr]'
p170
sg19
S'8b459c'
p171
sg21
Vmov eax, dword ptr [ebp - 0x64]
p172
sg5
L135034602L
sg6
Nsg23
S'mov'
p173
sg25
S'0x80c76eaL'
p174
sg27
Nsba(ibclass
BInstr
p175
(dp176
g2
Nsg17
S'mov     [eax+10h], edx'
p177
sg19
S'895010'
p178
sg21
Vmov dword ptr [eax + 0x10], edx
p179
sg5
L135034605L
sg6
Nsg23
S'mov'
p180
sg25
S'0x80c76edL'
p181
sg27
Nsba(ibclass
BInstr
p182
(dp183
g2
Nsg17
S'mov     eax, [ebp+rr]'
p184
sg19
S'8b459c'
p185
sg21
Vmov eax, dword ptr [ebp - 0x64]
p186
sg5
L135034608L
sg6
Nsg23
S'mov'
p187
sg25
S'0x80c76f0L'
p188
sg27
Nsba(ibclass
BInstr
p189
(dp190
g2
Nsg17
S'mov     eax, [eax+4]'
p191
sg19
S'8b4004'
p192
sg21
Vmov eax, dword ptr [eax + 4]
p193
sg5
L135034611L
sg6
Nsg23
S'mov'
p194
sg25
S'0x80c76f3L'
p195
sg27
Nsba(ibclass
BInstr
p196
(dp197
g2
Nsg17
S'cmp     eax, 4540h'
p198
sg19
S'3d40450000'
p199
sg21
Vcmp eax, 0x4540
p200
sg5
L135034614L
sg6
Nsg23
S'cmp'
p201
sg25
S'0x80c76f6L'
p202
sg27
Nsba(ibclass
BInstr
p203
(dp204
g2
Nsg17
S'jbe     short loc_80C7735'
p205
sg19
S'7638'
p206
sg21
Vjbe 0x3a
p207
sg5
L135034619L
sg6
Nsg23
S'jbe'
p208
sg25
S'0x80c76fbL'
p209
sg27
NsbasS'disasm_list'
p210
(lp211
g22
ag32
aVsub esp, address
p212
aVmov eax, mem
p213
aVmov mem, eax
p214
aVmov eax, gs:mem
p215
aVmov mem, eax
p216
ag74
aVmov mem, 0
p217
aVmov mem, 0
p218
aVmov mem, 0
p219
aVmov eax, mem
p220
aVmov eax, mem
p221
aVadd eax, address
p222
aVmov mem, eax
p223
aVmov eax, mem
p224
aVmov eax, mem
p225
aVmov mem, eax
p226
aVmov eax, mem
p227
aVmov eax, mem
p228
aVlea edx, mem
p229
aVmov eax, mem
p230
aVmov mem, edx
p231
aVmov eax, mem
p232
aVmov eax, mem
p233
aVcmp eax, address
p234
aVjbe address
p235
asS'end_address'
p236
Nsg5
S'0x80c7698L'
p237
sS'preds'
p238
(lp239
sg6
NsS'succs'
p240
(lp241
S'0x80c76fdL'
p242
aS'0x80c7735L'
p243
asS'hash_v3'
p244
NsS'flag_v2'
p245
NsS'hash_v1'
p246
S'eb68862a23978d255a8f164643c24c62'
p247
sS'hash_v2'
p248
S'781de21fcea9548510671f6845e5dbaa'
p249
sS'mnen_list'
p250
(lp251
g24
ag33
ag40
ag47
ag54
ag61
ag68
ag75
ag82
ag89
ag96
ag103
ag110
ag117
ag124
ag131
ag138
ag145
ag152
ag159
ag166
ag173
ag180
ag187
ag194
ag201
ag208
asS'neighbour_disasm_list'
p252
Nsba(ibclass
BBasicBlock
p253
(dp254
g12
Nsg13
(lp255
(ibclass
BInstr
p256
(dp257
g2
Nsg17
S'mov     [ebp+al_0], 16h'
p258
sg19
S'c7458c16000000'
p259
sg21
Vmov dword ptr [ebp - 0x74], 0x16
p260
sg5
L135034621L
sg6
Nsg23
S'mov'
p261
sg25
S'0x80c76fdL'
p262
sg27
Nsba(ibclass
BInstr
p263
(dp264
g2
Nsg17
S'mov     dword ptr [esp+10h], 19Bh; line'
p265
sg19
S'c74424109b010000'
p266
sg21
Vmov dword ptr [esp + 0x10], 0x19b
p267
sg5
L135034628L
sg6
Nsg23
S'mov'
p268
sg25
S'0x80c7704L'
p269
sg27
Nsba(ibclass
BInstr
p270
(dp271
g2
Nsg17
S'mov     dword ptr [esp+0Ch], offset aD1_pkt_c; "d1_pkt.c"'
p272
sg19
S'c744240cd4fe2008'
p273
sg21
Vmov dword ptr [esp + 0xc], 0x820fed4
p274
sg5
L135034636L
sg6
Nsg23
S'mov'
p275
sg25
S'0x80c770cL'
p276
sg27
Nsba(ibclass
BInstr
p277
(dp278
g2
Nsg17
S'mov     dword ptr [esp+8], 96h; reason'
p279
sg19
S'c744240896000000'
p280
sg21
Vmov dword ptr [esp + 8], 0x96
p281
sg5
L135034644L
sg6
Nsg23
S'mov'
p282
sg25
S'0x80c7714L'
p283
sg27
Nsba(ibclass
BInstr
p284
(dp285
g2
Nsg17
S'mov     dword ptr [esp+4], 101h; func'
p286
sg19
S'c744240401010000'
p287
sg21
Vmov dword ptr [esp + 4], 0x101
p288
sg5
L135034652L
sg6
Nsg23
S'mov'
p289
sg25
S'0x80c771cL'
p290
sg27
Nsba(ibclass
BInstr
p291
(dp292
g2
Nsg17
S'mov     dword ptr [esp], 14h; lib'
p293
sg19
S'c7042414000000'
p294
sg21
Vmov dword ptr [esp], 0x14
p295
sg5
L135034660L
sg6
Nsg23
S'mov'
p296
sg25
S'0x80c7724L'
p297
sg27
Nsba(ibclass
BInstr
p298
(dp299
g2
Nsg17
S'call    ERR_put_error'
p300
sg19
S'e801040700'
p301
sg21
Vcall 0x70406
p302
sg5
L135034667L
sg6
Nsg23
S'call'
p303
sg25
S'0x80c772bL'
p304
sg27
Nsba(ibclass
BInstr
p305
(dp306
g2
Nsg17
S'jmp     f_err'
p307
sg19
S'e985020000'
p308
sg21
Vjmp 0x28a
p309
sg5
L135034672L
sg6
Nsg23
S'jmp'
p310
sg25
S'0x80c7730L'
p311
sg27
Nsbasg210
(lp312
Vmov mem, address
p313
aVmov mem, address
p314
aVmov mem, address
p315
aVmov mem, address
p316
aVmov mem, address
p317
aVmov mem, address
p318
aVcall address
p319
aVjmp address
p320
asg236
Nsg5
S'0x80c76fdL'
p321
sg238
(lp322
S'0x80c7698L'
p323
asg6
Nsg240
(lp324
S'0x80c79baL'
p325
asg244
Nsg245
Nsg246
S'66a94b87b6be599163286cd5d033acb0'
p326
sg248
S'9ae564c3ff50b0b8b3b6c36a987dd05d'
p327
sg250
(lp328
g261
ag268
ag275
ag282
ag289
ag296
ag303
ag310
asg252
Nsba(ibclass
BBasicBlock
p329
(dp330
g12
Nsg13
(lp331
(ibclass
BInstr
p332
(dp333
g2
Nsg17
S'mov     eax, [ebp+rr]'
p334
sg19
S'8b459c'
p335
sg21
Vmov eax, dword ptr [ebp - 0x64]
p336
sg5
L135034677L
sg6
Nsg23
S'mov'
p337
sg25
S'0x80c7735L'
p338
sg27
Nsba(ibclass
BInstr
p339
(dp340
g2
Nsg17
S'mov     edx, [eax+10h]'
p341
sg19
S'8b5010'
p342
sg21
Vmov edx, dword ptr [eax + 0x10]
p343
sg5
L135034680L
sg6
Nsg23
S'mov'
p344
sg25
S'0x80c7738L'
p345
sg27
Nsba(ibclass
BInstr
p346
(dp347
g2
Nsg17
S'mov     eax, [ebp+rr]'
p348
sg19
S'8b459c'
p349
sg21
Vmov eax, dword ptr [ebp - 0x64]
p350
sg5
L135034683L
sg6
Nsg23
S'mov'
p351
sg25
S'0x80c773bL'
p352
sg27
Nsba(ibclass
BInstr
p353
(dp354
g2
Nsg17
S'mov     [eax+0Ch], edx'
p355
sg19
S'89500c'
p356
sg21
Vmov dword ptr [eax + 0xc], edx
p357
sg5
L135034686L
sg6
Nsg23
S'mov'
p358
sg25
S'0x80c773eL'
p359
sg27
Nsba(ibclass
BInstr
p360
(dp361
g2
Nsg17
S'mov     eax, [ebp+s]'
p362
sg19
S'8b4584'
p363
sg21
Vmov eax, dword ptr [ebp - 0x7c]
p364
sg5
L135034689L
sg6
Nsg23
S'mov'
p365
sg25
S'0x80c7741L'
p366
sg27
Nsba(ibclass
BInstr
p367
(dp368
g2
Nsg17
S'mov     eax, [eax+8]'
p369
sg19
S'8b4008'
p370
sg21
Vmov eax, dword ptr [eax + 8]
p371
sg5
L135034692L
sg6
Nsg23
S'mov'
p372
sg25
S'0x80c7744L'
p373
sg27
Nsba(ibclass
BInstr
p374
(dp375
g2
Nsg17
S'mov     eax, [eax+64h]'
p376
sg19
S'8b4064'
p377
sg21
Vmov eax, dword ptr [eax + 0x64]
p378
sg5
L135034695L
sg6
Nsg23
S'mov'
p379
sg25
S'0x80c7747L'
p380
sg27
Nsba(ibclass
BInstr
p381
(dp382
g2
Nsg17
S'mov     eax, [eax]'
p383
sg19
S'8b00'
p384
sg21
Vmov eax, dword ptr [eax]
p385
sg5
L135034698L
sg6
Nsg23
S'mov'
p386
sg25
S'0x80c774aL'
p387
sg27
Nsba(ibclass
BInstr
p388
(dp389
g2
Nsg17
S'mov     dword ptr [esp+4], 0'
p390
sg19
S'c744240400000000'
p391
sg21
Vmov dword ptr [esp + 4], 0
p392
sg5
L135034700L
sg6
Nsg23
S'mov'
p393
sg25
S'0x80c774cL'
p394
sg27
Nsba(ibclass
BInstr
p395
(dp396
g2
Nsg17
S'mov     edx, [ebp+s]'
p397
sg19
S'8b5584'
p398
sg21
Vmov edx, dword ptr [ebp - 0x7c]
p399
sg5
L135034708L
sg6
Nsg23
S'mov'
p400
sg25
S'0x80c7754L'
p401
sg27
Nsba(ibclass
BInstr
p402
(dp403
g2
Nsg17
S'mov     [esp], edx'
p404
sg19
S'891424'
p405
sg21
Vmov dword ptr [esp], edx
p406
sg5
L135034711L
sg6
Nsg23
S'mov'
p407
sg25
S'0x80c7757L'
p408
sg27
Nsba(ibclass
BInstr
p409
(dp410
g2
Nsg17
S'call    eax'
p411
sg19
S'ffd0'
p412
sg21
Vcall eax
p413
sg5
L135034714L
sg6
Nsg23
S'call'
p414
sg25
S'0x80c775aL'
p415
sg27
Nsba(ibclass
BInstr
p416
(dp417
g2
Nsg17
S'mov     [ebp+enc_err], eax'
p418
sg19
S'8945a4'
p419
sg21
Vmov dword ptr [ebp - 0x5c], eax
p420
sg5
L135034716L
sg6
Nsg23
S'mov'
p421
sg25
S'0x80c775cL'
p422
sg27
Nsba(ibclass
BInstr
p423
(dp424
g2
Nsg17
S'cmp     [ebp+enc_err], 0'
p425
sg19
S'837da400'
p426
sg21
Vcmp dword ptr [ebp - 0x5c], 0
p427
sg5
L135034719L
sg6
Nsg23
S'cmp'
p428
sg25
S'0x80c775fL'
p429
sg27
Nsba(ibclass
BInstr
p430
(dp431
g2
Nsg17
S'jg      short loc_80C776C'
p432
sg19
S'7f07'
p433
sg21
Vjg 9
p434
sg5
L135034723L
sg6
Nsg23
S'jg'
p435
sg25
S'0x80c7763L'
p436
sg27
Nsbasg210
(lp437
Vmov eax, mem
p438
aVmov edx, mem
p439
aVmov eax, mem
p440
aVmov mem, edx
p441
aVmov eax, mem
p442
aVmov eax, mem
p443
aVmov eax, mem
p444
aVmov eax, mem
p445
aVmov mem, 0
p446
aVmov edx, mem
p447
aVmov mem, edx
p448
ag413
aVmov mem, eax
p449
aVcmp mem, 0
p450
ag434
asg236
Nsg5
S'0x80c7735L'
p451
sg238
(lp452
S'0x80c7698L'
p453
asg6
Nsg240
(lp454
S'0x80c7765L'
p455
aS'0x80c776cL'
p456
asg244
Nsg245
Nsg246
S'eefbf930df9765caea0dac064a88841b'
p457
sg248
S'b58fa77e4c40c3ed1ce34f0f1fc7be80'
p458
sg250
(lp459
g337
ag344
ag351
ag358
ag365
ag372
ag379
ag386
ag393
ag400
ag407
ag414
ag421
ag428
ag435
asg252
Nsba(ibclass
BBasicBlock
p460
(dp461
g12
Nsg13
(lp462
(ibclass
BInstr
p463
(dp464
g2
Nsg17
S'mov     [ebp+decryption_failed_or_bad_record_mac], 1'
p465
sg19
S'c7459401000000'
p466
sg21
Vmov dword ptr [ebp - 0x6c], 1
p467
sg5
L135034725L
sg6
Nsg23
S'mov'
p468
sg25
S'0x80c7765L'
p469
sg27
Nsbasg210
(lp470
Vmov mem, 1
p471
asg236
Nsg5
S'0x80c7765L'
p472
sg238
(lp473
S'0x80c7735L'
p474
asg6
Nsg240
(lp475
S'0x80c776cL'
p476
asg244
Nsg245
Nsg246
S'96a4a0e6e9ac88756a0fcba989d0a844'
p477
sg248
S'a73a0656263a7f36d05ccf97729fa60b'
p478
sg250
(lp479
g468
asg252
Nsba(ibclass
BBasicBlock
p480
(dp481
g12
Nsg13
(lp482
(ibclass
BInstr
p483
(dp484
g2
Nsg17
S'cmp     [ebp+sess], 0'
p485
sg19
S'837da000'
p486
sg21
Vcmp dword ptr [ebp - 0x60], 0
p487
sg5
L135034732L
sg6
Nsg23
S'cmp'
p488
sg25
S'0x80c776cL'
p489
sg27
Nsba(ibclass
BInstr
p490
(dp491
g2
Nsg17
S'jz      short loc_80C778C'
p492
sg19
S'741a'
p493
sg21
Vje 0x1c
p494
sg5
L135034736L
sg6
Nsg23
S'jz'
p495
sg25
S'0x80c7770L'
p496
sg27
Nsbasg210
(lp497
Vcmp mem, 0
p498
aVje address
p499
asg236
Nsg5
S'0x80c776cL'
p500
sg238
(lp501
S'0x80c7735L'
p502
aS'0x80c7765L'
p503
asg6
Nsg240
(lp504
S'0x80c7772L'
p505
aS'0x80c778cL'
p506
asg244
Nsg245
Nsg246
S'613dbc2b0cb9d6264d802b24d709daea'
p507
sg248
S'bdc7ec577d63971d81398660f533a2e0'
p508
sg250
(lp509
g488
ag495
asg252
Nsba(ibclass
BBasicBlock
p510
(dp511
g12
Nsg13
(lp512
(ibclass
BInstr
p513
(dp514
g2
Nsg17
S'mov     eax, [ebp+s]'
p515
sg19
S'8b4584'
p516
sg21
Vmov eax, dword ptr [ebp - 0x7c]
p517
sg5
L135034738L
sg6
Nsg23
S'mov'
p518
sg25
S'0x80c7772L'
p519
sg27
Nsba(ibclass
BInstr
p520
(dp521
g2
Nsg17
S'mov     eax, [eax+80h]'
p522
sg19
S'8b8080000000'
p523
sg21
Vmov eax, dword ptr [eax + 0x80]
p524
sg5
L135034741L
sg6
Nsg23
S'mov'
p525
sg25
S'0x80c7775L'
p526
sg27
Nsba(ibclass
BInstr
p527
(dp528
g2
Nsg17
S'test    eax, eax'
p529
sg19
S'85c0'
p530
sg21
Vtest eax, eax
p531
sg5
L135034747L
sg6
Nsg23
S'test'
p532
sg25
S'0x80c777bL'
p533
sg27
Nsba(ibclass
BInstr
p534
(dp535
g2
Nsg17
S'jz      short loc_80C778C'
p536
sg19
S'740d'
p537
sg21
Vje 0xf
p538
sg5
L135034749L
sg6
Nsg23
S'jz'
p539
sg25
S'0x80c777dL'
p540
sg27
Nsbasg210
(lp541
Vmov eax, mem
p542
aVmov eax, mem
p543
ag531
aVje address
p544
asg236
Nsg5
S'0x80c7772L'
p545
sg238
(lp546
S'0x80c776cL'
p547
asg6
Nsg240
(lp548
S'0x80c777fL'
p549
aS'0x80c778cL'
p550
asg244
Nsg245
Nsg246
S'ea5d08c7dcc07640d42787f826218f11'
p551
sg248
S'103b924e2a82731ce51d187b2e41af3a'
p552
sg250
(lp553
g518
ag525
ag532
ag539
asg252
Nsba(ibclass
BBasicBlock
p554
(dp555
g12
Nsg13
(lp556
(ibclass
BInstr
p557
(dp558
g2
Nsg17
S'mov     eax, [ebp+s]'
p559
sg19
S'8b4584'
p560
sg21
Vmov eax, dword ptr [ebp - 0x7c]
p561
sg5
L135034751L
sg6
Nsg23
S'mov'
p562
sg25
S'0x80c777fL'
p563
sg27
Nsba(ibclass
BInstr
p564
(dp565
g2
Nsg17
S'mov     eax, [eax+84h]'
p566
sg19
S'8b8084000000'
p567
sg21
Vmov eax, dword ptr [eax + 0x84]
p568
sg5
L135034754L
sg6
Nsg23
S'mov'
p569
sg25
S'0x80c7782L'
p570
sg27
Nsba(ibclass
BInstr
p571
(dp572
g2
Nsg17
S'test    eax, eax'
p573
sg19
S'85c0'
p574
sg21
Vtest eax, eax
p575
sg5
L135034760L
sg6
Nsg23
S'test'
p576
sg25
S'0x80c7788L'
p577
sg27
Nsba(ibclass
BInstr
p578
(dp579
g2
Nsg17
S'jnz     short loc_80C7793'
p580
sg19
S'7507'
p581
sg21
Vjne 9
p582
sg5
L135034762L
sg6
Nsg23
S'jnz'
p583
sg25
S'0x80c778aL'
p584
sg27
Nsbasg210
(lp585
Vmov eax, mem
p586
aVmov eax, mem
p587
ag575
ag582
asg236
Nsg5
S'0x80c777fL'
p588
sg238
(lp589
S'0x80c7772L'
p590
asg6
Nsg240
(lp591
S'0x80c778cL'
p592
aS'0x80c7793L'
p593
asg244
Nsg245
Nsg246
S'c659dbb3567582fe193bedd2c7eccb80'
p594
sg248
S'b8b61ada3f042cbfd338d989a2f97fa6'
p595
sg250
(lp596
g562
ag569
ag576
ag583
asg252
Nsba(ibclass
BBasicBlock
p597
(dp598
g12
Nsg13
(lp599
(ibclass
BInstr
p600
(dp601
g2
Nsg17
S'mov     [ebp+clear], 1'
p602
sg19
S'c7459001000000'
p603
sg21
Vmov dword ptr [ebp - 0x70], 1
p604
sg5
L135034764L
sg6
Nsg23
S'mov'
p605
sg25
S'0x80c778cL'
p606
sg27
Nsbasg210
(lp607
Vmov mem, 1
p608
asg236
Nsg5
S'0x80c778cL'
p609
sg238
(lp610
S'0x80c776cL'
p611
aS'0x80c7772L'
p612
aS'0x80c777fL'
p613
asg6
Nsg240
(lp614
S'0x80c7793L'
p615
asg244
Nsg245
Nsg246
S'96a4a0e6e9ac88756a0fcba989d0a844'
p616
sg248
S'a73a0656263a7f36d05ccf97729fa60b'
p617
sg250
(lp618
g605
asg252
Nsba(ibclass
BBasicBlock
p619
(dp620
g12
Nsg13
(lp621
(ibclass
BInstr
p622
(dp623
g2
Nsg17
S'cmp     [ebp+clear], 0'
p624
sg19
S'837d9000'
p625
sg21
Vcmp dword ptr [ebp - 0x70], 0
p626
sg5
L135034771L
sg6
Nsg23
S'cmp'
p627
sg25
S'0x80c7793L'
p628
sg27
Nsba(ibclass
BInstr
p629
(dp630
g2
Nsg17
S'jnz     loc_80C788A'
p631
sg19
S'0f85ed000000'
p632
sg21
Vjne 0xf3
p633
sg5
L135034775L
sg6
Nsg23
S'jnz'
p634
sg25
S'0x80c7797L'
p635
sg27
Nsbasg210
(lp636
Vcmp mem, 0
p637
aVjne address
p638
asg236
Nsg5
S'0x80c7793L'
p639
sg238
(lp640
S'0x80c777fL'
p641
aS'0x80c778cL'
p642
asg6
Nsg240
(lp643
S'0x80c779dL'
p644
aS'0x80c788aL'
p645
asg244
Nsg245
Nsg246
S'30cb3d6f6a174adfabcde507f6944a52'
p646
sg248
S'ac6a5deb49a2d2e7162632941da7e135'
p647
sg250
(lp648
g627
ag634
asg252
Nsba(ibclass
BBasicBlock
p649
(dp650
g12
Nsg13
(lp651
(ibclass
BInstr
p652
(dp653
g2
Nsg17
S'mov     eax, [ebp+s]'
p654
sg19
S'8b4584'
p655
sg21
Vmov eax, dword ptr [ebp - 0x7c]
p656
sg5
L135034781L
sg6
Nsg23
S'mov'
p657
sg25
S'0x80c779dL'
p658
sg27
Nsba(ibclass
BInstr
p659
(dp660
g2
Nsg17
S'mov     eax, [eax+84h]'
p661
sg19
S'8b8084000000'
p662
sg21
Vmov eax, dword ptr [eax + 0x84]
p663
sg5
L135034784L
sg6
Nsg23
S'mov'
p664
sg25
S'0x80c77a0L'
p665
sg27
Nsba(ibclass
BInstr
p666
(dp667
g2
Nsg17
S'mov     [esp], eax      ; ctx'
p668
sg19
S'890424'
p669
sg21
Vmov dword ptr [esp], eax
p670
sg5
L135034790L
sg6
Nsg23
S'mov'
p671
sg25
S'0x80c77a6L'
p672
sg27
Nsba(ibclass
BInstr
p673
(dp674
g2
Nsg17
S'call    EVP_MD_CTX_md'
p675
sg19
S'e8b9c60700'
p676
sg21
Vcall 0x7c6be
p677
sg5
L135034793L
sg6
Nsg23
S'call'
p678
sg25
S'0x80c77a9L'
p679
sg27
Nsba(ibclass
BInstr
p680
(dp681
g2
Nsg17
S'mov     [esp], eax      ; md'
p682
sg19
S'890424'
p683
sg21
Vmov dword ptr [esp], eax
p684
sg5
L135034798L
sg6
Nsg23
S'mov'
p685
sg25
S'0x80c77aeL'
p686
sg27
Nsba(ibclass
BInstr
p687
(dp688
g2
Nsg17
S'call    EVP_MD_size'
p689
sg19
S'e85fc60700'
p690
sg21
Vcall 0x7c664
p691
sg5
L135034801L
sg6
Nsg23
S'call'
p692
sg25
S'0x80c77b1L'
p693
sg27
Nsba(ibclass
BInstr
p694
(dp695
g2
Nsg17
S'mov     [ebp+t], eax'
p696
sg19
S'8945a8'
p697
sg21
Vmov dword ptr [ebp - 0x58], eax
p698
sg5
L135034806L
sg6
Nsg23
S'mov'
p699
sg25
S'0x80c77b6L'
p700
sg27
Nsba(ibclass
BInstr
p701
(dp702
g2
Nsg17
S'cmp     [ebp+t], 0'
p703
sg19
S'837da800'
p704
sg21
Vcmp dword ptr [ebp - 0x58], 0
p705
sg5
L135034809L
sg6
Nsg23
S'cmp'
p706
sg25
S'0x80c77b9L'
p707
sg27
Nsba(ibclass
BInstr
p708
(dp709
g2
Nsg17
S'jns     short loc_80C77DB'
p710
sg19
S'791c'
p711
sg21
Vjns 0x1e
p712
sg5
L135034813L
sg6
Nsg23
S'jns'
p713
sg25
S'0x80c77bdL'
p714
sg27
Nsbasg210
(lp715
Vmov eax, mem
p716
aVmov eax, mem
p717
aVmov mem, eax
p718
aVcall address
p719
aVmov mem, eax
p720
aVcall address
p721
aVmov mem, eax
p722
aVcmp mem, 0
p723
aVjns address
p724
asg236
Nsg5
S'0x80c779dL'
p725
sg238
(lp726
S'0x80c7793L'
p727
asg6
Nsg240
(lp728
S'0x80c77bfL'
p729
aS'0x80c77dbL'
p730
asg244
Nsg245
Nsg246
S'825f0f7508237a5ea923ce9309596797'
p731
sg248
S'06a84b733d3267af928a77aae4c7cdab'
p732
sg250
(lp733
g657
ag664
ag671
ag678
ag685
ag692
ag699
ag706
ag713
asg252
Nsba(ibclass
BBasicBlock
p734
(dp735
g12
Nsg13
(lp736
(ibclass
BInstr
p737
(dp738
g2
Nsg17
S'mov     dword ptr [esp+8], offset aT0_1; "t >= 0"'
p739
sg19
S'c7442408ddfe2008'
p740
sg21
Vmov dword ptr [esp + 8], 0x820fedd
p741
sg5
L135034815L
sg6
Nsg23
S'mov'
p742
sg25
S'0x80c77bfL'
p743
sg27
Nsba(ibclass
BInstr
p744
(dp745
g2
Nsg17
S'mov     dword ptr [esp+4], 1BCh; line'
p746
sg19
S'c7442404bc010000'
p747
sg21
Vmov dword ptr [esp + 4], 0x1bc
p748
sg5
L135034823L
sg6
Nsg23
S'mov'
p749
sg25
S'0x80c77c7L'
p750
sg27
Nsba(ibclass
BInstr
p751
(dp752
g2
Nsg17
S'mov     dword ptr [esp], offset aD1_pkt_c; "d1_pkt.c"'
p753
sg19
S'c70424d4fe2008'
p754
sg21
Vmov dword ptr [esp], 0x820fed4
p755
sg5
L135034831L
sg6
Nsg23
S'mov'
p756
sg25
S'0x80c77cfL'
p757
sg27
Nsba(ibclass
BInstr
p758
(dp759
g2
Nsg17
S'call    OpenSSLDie'
p760
sg19
S'e8f6ab0100'
p761
sg21
Vcall 0x1abfb
p762
sg5
L135034838L
sg6
Nsg23
S'call'
p763
sg25
S'0x80c77d6L'
p764
sg27
Nsbasg210
(lp765
Vmov mem, address
p766
aVmov mem, address
p767
aVmov mem, address
p768
aVcall address
p769
asg236
Nsg5
S'0x80c77bfL'
p770
sg238
(lp771
S'0x80c779dL'
p772
asg6
Nsg240
(lp773
sg244
Nsg245
Nsg246
S'e233a80004971487a8cda28e21c9f5ef'
p774
sg248
S'a81f9f89c42ecbd3bdc0ac7f0538f04a'
p775
sg250
(lp776
g742
ag749
ag756
ag763
asg252
Nsba(ibclass
BBasicBlock
p777
(dp778
g12
Nsg13
(lp779
(ibclass
BInstr
p780
(dp781
g2
Nsg17
S'mov     eax, [ebp+t]'
p782
sg19
S'8b45a8'
p783
sg21
Vmov eax, dword ptr [ebp - 0x58]
p784
sg5
L135034843L
sg6
Nsg23
S'mov'
p785
sg25
S'0x80c77dbL'
p786
sg27
Nsba(ibclass
BInstr
p787
(dp788
g2
Nsg17
S'mov     [ebp+mac_size], eax'
p789
sg19
S'8945ac'
p790
sg21
Vmov dword ptr [ebp - 0x54], eax
p791
sg5
L135034846L
sg6
Nsg23
S'mov'
p792
sg25
S'0x80c77deL'
p793
sg27
Nsba(ibclass
BInstr
p794
(dp795
g2
Nsg17
S'mov     eax, [ebp+rr]'
p796
sg19
S'8b459c'
p797
sg21
Vmov eax, dword ptr [ebp - 0x64]
p798
sg5
L135034849L
sg6
Nsg23
S'mov'
p799
sg25
S'0x80c77e1L'
p800
sg27
Nsba(ibclass
BInstr
p801
(dp802
g2
Nsg17
S'mov     eax, [eax+4]'
p803
sg19
S'8b4004'
p804
sg21
Vmov eax, dword ptr [eax + 4]
p805
sg5
L135034852L
sg6
Nsg23
S'mov'
p806
sg25
S'0x80c77e4L'
p807
sg27
Nsba(ibclass
BInstr
p808
(dp809
g2
Nsg17
S'mov     edx, [ebp+mac_size]'
p810
sg19
S'8b55ac'
p811
sg21
Vmov edx, dword ptr [ebp - 0x54]
p812
sg5
L135034855L
sg6
Nsg23
S'mov'
p813
sg25
S'0x80c77e7L'
p814
sg27
Nsba(ibclass
BInstr
p815
(dp816
g2
Nsg17
S'add     edx, 4400h'
p817
sg19
S'81c200440000'
p818
sg21
Vadd edx, 0x4400
p819
sg5
L135034858L
sg6
Nsg23
S'add'
p820
sg25
S'0x80c77eaL'
p821
sg27
Nsba(ibclass
BInstr
p822
(dp823
g2
Nsg17
S'cmp     eax, edx'
p824
sg19
S'39d0'
p825
sg21
Vcmp eax, edx
p826
sg5
L135034864L
sg6
Nsg23
S'cmp'
p827
sg25
S'0x80c77f0L'
p828
sg27
Nsba(ibclass
BInstr
p829
(dp830
g2
Nsg17
S'jbe     short loc_80C77FB'
p831
sg19
S'7607'
p832
sg21
Vjbe 9
p833
sg5
L135034866L
sg6
Nsg23
S'jbe'
p834
sg25
S'0x80c77f2L'
p835
sg27
Nsbasg210
(lp836
Vmov eax, mem
p837
aVmov mem, eax
p838
aVmov eax, mem
p839
aVmov eax, mem
p840
aVmov edx, mem
p841
aVadd edx, address
p842
ag826
ag833
asg236
Nsg5
S'0x80c77dbL'
p843
sg238
(lp844
S'0x80c779dL'
p845
asg6
Nsg240
(lp846
S'0x80c77f4L'
p847
aS'0x80c77fbL'
p848
asg244
Nsg245
Nsg246
S'78df0e5eab4528dab7f098ba894382d2'
p849
sg248
S'95cc7208617fc7db1fb8073765c2cc6f'
p850
sg250
(lp851
g785
ag792
ag799
ag806
ag813
ag820
ag827
ag834
asg252
Nsba(ibclass
BBasicBlock
p852
(dp853
g12
Nsg13
(lp854
(ibclass
BInstr
p855
(dp856
g2
Nsg17
S'mov     [ebp+decryption_failed_or_bad_record_mac], 1'
p857
sg19
S'c7459401000000'
p858
sg21
Vmov dword ptr [ebp - 0x6c], 1
p859
sg5
L135034868L
sg6
Nsg23
S'mov'
p860
sg25
S'0x80c77f4L'
p861
sg27
Nsbasg210
(lp862
Vmov mem, 1
p863
asg236
Nsg5
S'0x80c77f4L'
p864
sg238
(lp865
S'0x80c77dbL'
p866
asg6
Nsg240
(lp867
S'0x80c77fbL'
p868
asg244
Nsg245
Nsg246
S'96a4a0e6e9ac88756a0fcba989d0a844'
p869
sg248
S'a73a0656263a7f36d05ccf97729fa60b'
p870
sg250
(lp871
g860
asg252
Nsba(ibclass
BBasicBlock
p872
(dp873
g12
Nsg13
(lp874
(ibclass
BInstr
p875
(dp876
g2
Nsg17
S'mov     eax, [ebp+rr]'
p877
sg19
S'8b459c'
p878
sg21
Vmov eax, dword ptr [ebp - 0x64]
p879
sg5
L135034875L
sg6
Nsg23
S'mov'
p880
sg25
S'0x80c77fbL'
p881
sg27
Nsba(ibclass
BInstr
p882
(dp883
g2
Nsg17
S'mov     eax, [eax+4]'
p884
sg19
S'8b4004'
p885
sg21
Vmov eax, dword ptr [eax + 4]
p886
sg5
L135034878L
sg6
Nsg23
S'mov'
p887
sg25
S'0x80c77feL'
p888
sg27
Nsba(ibclass
BInstr
p889
(dp890
g2
Nsg17
S'cmp     eax, [ebp+mac_size]'
p891
sg19
S'3b45ac'
p892
sg21
Vcmp eax, dword ptr [ebp - 0x54]
p893
sg5
L135034881L
sg6
Nsg23
S'cmp'
p894
sg25
S'0x80c7801L'
p895
sg27
Nsba(ibclass
BInstr
p896
(dp897
g2
Nsg17
S'jb      short loc_80C782A'
p898
sg19
S'7224'
p899
sg21
Vjb 0x26
p900
sg5
L135034884L
sg6
Nsg23
S'jb'
p901
sg25
S'0x80c7804L'
p902
sg27
Nsbasg210
(lp903
Vmov eax, mem
p904
aVmov eax, mem
p905
aVcmp eax, mem
p906
aVjb address
p907
asg236
Nsg5
S'0x80c77fbL'
p908
sg238
(lp909
S'0x80c77dbL'
p910
aS'0x80c77f4L'
p911
asg6
Nsg240
(lp912
S'0x80c7806L'
p913
aS'0x80c782aL'
p914
asg244
Nsg245
Nsg246
S'6cf5c17b3011788e95bf5fc4fa2b423e'
p915
sg248
S'096dd6e5b21501e194340a13a23b2ea8'
p916
sg250
(lp917
g880
ag887
ag894
ag901
asg252
Nsba(ibclass
BBasicBlock
p918
(dp919
g12
Nsg13
(lp920
(ibclass
BInstr
p921
(dp922
g2
Nsg17
S'mov     eax, [ebp+rr]'
p923
sg19
S'8b459c'
p924
sg21
Vmov eax, dword ptr [ebp - 0x64]
p925
sg5
L135034886L
sg6
Nsg23
S'mov'
p926
sg25
S'0x80c7806L'
p927
sg27
Nsba(ibclass
BInstr
p928
(dp929
g2
Nsg17
S'mov     eax, [eax+4]'
p930
sg19
S'8b4004'
p931
sg21
Vmov eax, dword ptr [eax + 4]
p932
sg5
L135034889L
sg6
Nsg23
S'mov'
p933
sg25
S'0x80c7809L'
p934
sg27
Nsba(ibclass
BInstr
p935
(dp936
g2
Nsg17
S'sub     eax, [ebp+mac_size]'
p937
sg19
S'2b45ac'
p938
sg21
Vsub eax, dword ptr [ebp - 0x54]
p939
sg5
L135034892L
sg6
Nsg23
S'sub'
p940
sg25
S'0x80c780cL'
p941
sg27
Nsba(ibclass
BInstr
p942
(dp943
g2
Nsg17
S'mov     edx, eax'
p944
sg19
S'89c2'
p945
sg21
Vmov edx, eax
p946
sg5
L135034895L
sg6
Nsg23
S'mov'
p947
sg25
S'0x80c780fL'
p948
sg27
Nsba(ibclass
BInstr
p949
(dp950
g2
Nsg17
S'mov     eax, [ebp+rr]'
p951
sg19
S'8b459c'
p952
sg21
Vmov eax, dword ptr [ebp - 0x64]
p953
sg5
L135034897L
sg6
Nsg23
S'mov'
p954
sg25
S'0x80c7811L'
p955
sg27
Nsba(ibclass
BInstr
p956
(dp957
g2
Nsg17
S'mov     [eax+4], edx'
p958
sg19
S'895004'
p959
sg21
Vmov dword ptr [eax + 4], edx
p960
sg5
L135034900L
sg6
Nsg23
S'mov'
p961
sg25
S'0x80c7814L'
p962
sg27
Nsba(ibclass
BInstr
p963
(dp964
g2
Nsg17
S'mov     eax, [ebp+rr]'
p965
sg19
S'8b459c'
p966
sg21
Vmov eax, dword ptr [ebp - 0x64]
p967
sg5
L135034903L
sg6
Nsg23
S'mov'
p968
sg25
S'0x80c7817L'
p969
sg27
Nsba(ibclass
BInstr
p970
(dp971
g2
Nsg17
S'mov     edx, [eax+0Ch]'
p972
sg19
S'8b500c'
p973
sg21
Vmov edx, dword ptr [eax + 0xc]
p974
sg5
L135034906L
sg6
Nsg23
S'mov'
p975
sg25
S'0x80c781aL'
p976
sg27
Nsba(ibclass
BInstr
p977
(dp978
g2
Nsg17
S'mov     eax, [ebp+rr]'
p979
sg19
S'8b459c'
p980
sg21
Vmov eax, dword ptr [ebp - 0x64]
p981
sg5
L135034909L
sg6
Nsg23
S'mov'
p982
sg25
S'0x80c781dL'
p983
sg27
Nsba(ibclass
BInstr
p984
(dp985
g2
Nsg17
S'mov     eax, [eax+4]'
p986
sg19
S'8b4004'
p987
sg21
Vmov eax, dword ptr [eax + 4]
p988
sg5
L135034912L
sg6
Nsg23
S'mov'
p989
sg25
S'0x80c7820L'
p990
sg27
Nsba(ibclass
BInstr
p991
(dp992
g2
Nsg17
S'add     eax, edx'
p993
sg19
S'01d0'
p994
sg21
Vadd eax, edx
p995
sg5
L135034915L
sg6
Nsg23
S'add'
p996
sg25
S'0x80c7823L'
p997
sg27
Nsba(ibclass
BInstr
p998
(dp999
g2
Nsg17
S'mov     [ebp+mac], eax'
p1000
sg19
S'894598'
p1001
sg21
Vmov dword ptr [ebp - 0x68], eax
p1002
sg5
L135034917L
sg6
Nsg23
S'mov'
p1003
sg25
S'0x80c7825L'
p1004
sg27
Nsba(ibclass
BInstr
p1005
(dp1006
g2
Nsg17
S'jmp     short loc_80C7834'
p1007
sg19
S'eb0a'
p1008
sg21
Vjmp 0xc
p1009
sg5
L135034920L
sg6
Nsg23
S'jmp'
p1010
sg25
S'0x80c7828L'
p1011
sg27
Nsbasg210
(lp1012
Vmov eax, mem
p1013
aVmov eax, mem
p1014
aVsub eax, mem
p1015
ag946
aVmov eax, mem
p1016
aVmov mem, edx
p1017
aVmov eax, mem
p1018
aVmov edx, mem
p1019
aVmov eax, mem
p1020
aVmov eax, mem
p1021
ag995
aVmov mem, eax
p1022
aVjmp address
p1023
asg236
Nsg5
S'0x80c7806L'
p1024
sg238
(lp1025
S'0x80c77fbL'
p1026
asg6
Nsg240
(lp1027
S'0x80c7834L'
p1028
asg244
Nsg245
Nsg246
S'061a372a30ea74d663cf7f67d288830f'
p1029
sg248
S'c19be62c1cbbd7da0dc2a31dc3d598d9'
p1030
sg250
(lp1031
g926
ag933
ag940
ag947
ag954
ag961
ag968
ag975
ag982
ag989
ag996
ag1003
ag1010
asg252
Nsba(ibclass
BBasicBlock
p1032
(dp1033
g12
Nsg13
(lp1034
(ibclass
BInstr
p1035
(dp1036
g2
Nsg17
S'mov     eax, [ebp+rr]'
p1037
sg19
S'8b459c'
p1038
sg21
Vmov eax, dword ptr [ebp - 0x64]
p1039
sg5
L135034922L
sg6
Nsg23
S'mov'
p1040
sg25
S'0x80c782aL'
p1041
sg27
Nsba(ibclass
BInstr
p1042
(dp1043
g2
Nsg17
S'mov     dword ptr [eax+4], 0'
p1044
sg19
S'c7400400000000'
p1045
sg21
Vmov dword ptr [eax + 4], 0
p1046
sg5
L135034925L
sg6
Nsg23
S'mov'
p1047
sg25
S'0x80c782dL'
p1048
sg27
Nsbasg210
(lp1049
Vmov eax, mem
p1050
aVmov mem, 0
p1051
asg236
Nsg5
S'0x80c782aL'
p1052
sg238
(lp1053
S'0x80c77fbL'
p1054
asg6
Nsg240
(lp1055
S'0x80c7834L'
p1056
asg244
Nsg245
Nsg246
S'70939fd8153af5d63d1bcbdb14592b28'
p1057
sg248
S'f1f03bab98e43de52828469353bd807b'
p1058
sg250
(lp1059
g1040
ag1047
asg252
Nsba(ibclass
BBasicBlock
p1060
(dp1061
g12
Nsg13
(lp1062
(ibclass
BInstr
p1063
(dp1064
g2
Nsg17
S'mov     eax, [ebp+s]'
p1065
sg19
S'8b4584'
p1066
sg21
Vmov eax, dword ptr [ebp - 0x7c]
p1067
sg5
L135034932L
sg6
Nsg23
S'mov'
p1068
sg25
S'0x80c7834L'
p1069
sg27
Nsba(ibclass
BInstr
p1070
(dp1071
g2
Nsg17
S'mov     eax, [eax+8]'
p1072
sg19
S'8b4008'
p1073
sg21
Vmov eax, dword ptr [eax + 8]
p1074
sg5
L135034935L
sg6
Nsg23
S'mov'
p1075
sg25
S'0x80c7837L'
p1076
sg27
Nsba(ibclass
BInstr
p1077
(dp1078
g2
Nsg17
S'mov     eax, [eax+64h]'
p1079
sg19
S'8b4064'
p1080
sg21
Vmov eax, dword ptr [eax + 0x64]
p1081
sg5
L135034938L
sg6
Nsg23
S'mov'
p1082
sg25
S'0x80c783aL'
p1083
sg27
Nsba(ibclass
BInstr
p1084
(dp1085
g2
Nsg17
S'mov     eax, [eax+4]'
p1086
sg19
S'8b4004'
p1087
sg21
Vmov eax, dword ptr [eax + 4]
p1088
sg5
L135034941L
sg6
Nsg23
S'mov'
p1089
sg25
S'0x80c783dL'
p1090
sg27
Nsba(ibclass
BInstr
p1091
(dp1092
g2
Nsg17
S'mov     dword ptr [esp+8], 0'
p1093
sg19
S'c744240800000000'
p1094
sg21
Vmov dword ptr [esp + 8], 0
p1095
sg5
L135034944L
sg6
Nsg23
S'mov'
p1096
sg25
S'0x80c7840L'
p1097
sg27
Nsba(ibclass
BInstr
p1098
(dp1099
g2
Nsg17
S'lea     edx, [ebp+md]'
p1100
sg19
S'8d55b4'
p1101
sg21
Vlea edx, [ebp - 0x4c]
p1102
sg5
L135034952L
sg6
Nsg23
S'lea'
p1103
sg25
S'0x80c7848L'
p1104
sg27
Nsba(ibclass
BInstr
p1105
(dp1106
g2
Nsg17
S'mov     [esp+4], edx'
p1107
sg19
S'89542404'
p1108
sg21
Vmov dword ptr [esp + 4], edx
p1109
sg5
L135034955L
sg6
Nsg23
S'mov'
p1110
sg25
S'0x80c784bL'
p1111
sg27
Nsba(ibclass
BInstr
p1112
(dp1113
g2
Nsg17
S'mov     edx, [ebp+s]'
p1114
sg19
S'8b5584'
p1115
sg21
Vmov edx, dword ptr [ebp - 0x7c]
p1116
sg5
L135034959L
sg6
Nsg23
S'mov'
p1117
sg25
S'0x80c784fL'
p1118
sg27
Nsba(ibclass
BInstr
p1119
(dp1120
g2
Nsg17
S'mov     [esp], edx'
p1121
sg19
S'891424'
p1122
sg21
Vmov dword ptr [esp], edx
p1123
sg5
L135034962L
sg6
Nsg23
S'mov'
p1124
sg25
S'0x80c7852L'
p1125
sg27
Nsba(ibclass
BInstr
p1126
(dp1127
g2
Nsg17
S'call    eax'
p1128
sg19
S'ffd0'
p1129
sg21
Vcall eax
p1130
sg5
L135034965L
sg6
Nsg23
S'call'
p1131
sg25
S'0x80c7855L'
p1132
sg27
Nsba(ibclass
BInstr
p1133
(dp1134
g2
Nsg17
S'mov     [ebp+i], eax'
p1135
sg19
S'8945b0'
p1136
sg21
Vmov dword ptr [ebp - 0x50], eax
p1137
sg5
L135034967L
sg6
Nsg23
S'mov'
p1138
sg25
S'0x80c7857L'
p1139
sg27
Nsba(ibclass
BInstr
p1140
(dp1141
g2
Nsg17
S'cmp     [ebp+i], 0'
p1142
sg19
S'837db000'
p1143
sg21
Vcmp dword ptr [ebp - 0x50], 0
p1144
sg5
L135034970L
sg6
Nsg23
S'cmp'
p1145
sg25
S'0x80c785aL'
p1146
sg27
Nsba(ibclass
BInstr
p1147
(dp1148
g2
Nsg17
S'js      short loc_80C7883'
p1149
sg19
S'7823'
p1150
sg21
Vjs 0x25
p1151
sg5
L135034974L
sg6
Nsg23
S'js'
p1152
sg25
S'0x80c785eL'
p1153
sg27
Nsbasg210
(lp1154
Vmov eax, mem
p1155
aVmov eax, mem
p1156
aVmov eax, mem
p1157
aVmov eax, mem
p1158
aVmov mem, 0
p1159
aVlea edx, mem
p1160
aVmov mem, edx
p1161
aVmov edx, mem
p1162
aVmov mem, edx
p1163
ag1130
aVmov mem, eax
p1164
aVcmp mem, 0
p1165
aVjs address
p1166
asg236
Nsg5
S'0x80c7834L'
p1167
sg238
(lp1168
S'0x80c7806L'
p1169
aS'0x80c782aL'
p1170
asg6
Nsg240
(lp1171
S'0x80c7860L'
p1172
aS'0x80c7883L'
p1173
asg244
Nsg245
Nsg246
S'17a24f0b67ee25b6009acf088e008616'
p1174
sg248
S'01b7ec516f98ab001fe693a138bb0df5'
p1175
sg250
(lp1176
g1068
ag1075
ag1082
ag1089
ag1096
ag1103
ag1110
ag1117
ag1124
ag1131
ag1138
ag1145
ag1152
asg252
Nsba(ibclass
BBasicBlock
p1177
(dp1178
g12
Nsg13
(lp1179
(ibclass
BInstr
p1180
(dp1181
g2
Nsg17
S'cmp     [ebp+mac], 0'
p1182
sg19
S'837d9800'
p1183
sg21
Vcmp dword ptr [ebp - 0x68], 0
p1184
sg5
L135034976L
sg6
Nsg23
S'cmp'
p1185
sg25
S'0x80c7860L'
p1186
sg27
Nsba(ibclass
BInstr
p1187
(dp1188
g2
Nsg17
S'jz      short loc_80C7883'
p1189
sg19
S'741d'
p1190
sg21
Vje 0x1f
p1191
sg5
L135034980L
sg6
Nsg23
S'jz'
p1192
sg25
S'0x80c7864L'
p1193
sg27
Nsbasg210
(lp1194
Vcmp mem, 0
p1195
aVje address
p1196
asg236
Nsg5
S'0x80c7860L'
p1197
sg238
(lp1198
S'0x80c7834L'
p1199
asg6
Nsg240
(lp1200
S'0x80c7866L'
p1201
aS'0x80c7883L'
p1202
asg244
Nsg245
Nsg246
S'613dbc2b0cb9d6264d802b24d709daea'
p1203
sg248
S'bdc7ec577d63971d81398660f533a2e0'
p1204
sg250
(lp1205
g1185
ag1192
asg252
Nsba(ibclass
BBasicBlock
p1206
(dp1207
g12
Nsg13
(lp1208
(ibclass
BInstr
p1209
(dp1210
g2
Nsg17
S'mov     eax, [ebp+mac_size]'
p1211
sg19
S'8b45ac'
p1212
sg21
Vmov eax, dword ptr [ebp - 0x54]
p1213
sg5
L135034982L
sg6
Nsg23
S'mov'
p1214
sg25
S'0x80c7866L'
p1215
sg27
Nsba(ibclass
BInstr
p1216
(dp1217
g2
Nsg17
S'mov     [esp+8], eax    ; n'
p1218
sg19
S'89442408'
p1219
sg21
Vmov dword ptr [esp + 8], eax
p1220
sg5
L135034985L
sg6
Nsg23
S'mov'
p1221
sg25
S'0x80c7869L'
p1222
sg27
Nsba(ibclass
BInstr
p1223
(dp1224
g2
Nsg17
S'mov     eax, [ebp+mac]'
p1225
sg19
S'8b4598'
p1226
sg21
Vmov eax, dword ptr [ebp - 0x68]
p1227
sg5
L135034989L
sg6
Nsg23
S'mov'
p1228
sg25
S'0x80c786dL'
p1229
sg27
Nsba(ibclass
BInstr
p1230
(dp1231
g2
Nsg17
S'mov     [esp+4], eax    ; s2'
p1232
sg19
S'89442404'
p1233
sg21
Vmov dword ptr [esp + 4], eax
p1234
sg5
L135034992L
sg6
Nsg23
S'mov'
p1235
sg25
S'0x80c7870L'
p1236
sg27
Nsba(ibclass
BInstr
p1237
(dp1238
g2
Nsg17
S'lea     eax, [ebp+md]'
p1239
sg19
S'8d45b4'
p1240
sg21
Vlea eax, [ebp - 0x4c]
p1241
sg5
L135034996L
sg6
Nsg23
S'lea'
p1242
sg25
S'0x80c7874L'
p1243
sg27
Nsba(ibclass
BInstr
p1244
(dp1245
g2
Nsg17
S'mov     [esp], eax      ; s1'
p1246
sg19
S'890424'
p1247
sg21
Vmov dword ptr [esp], eax
p1248
sg5
L135034999L
sg6
Nsg23
S'mov'
p1249
sg25
S'0x80c7877L'
p1250
sg27
Nsba(ibclass
BInstr
p1251
(dp1252
g2
Nsg17
S'call    _memcmp'
p1253
sg19
S'e8511df8ff'
p1254
sg21
Vcall 0xfff81d56
p1255
sg5
L135035002L
sg6
Nsg23
S'call'
p1256
sg25
S'0x80c787aL'
p1257
sg27
Nsba(ibclass
BInstr
p1258
(dp1259
g2
Nsg17
S'test    eax, eax'
p1260
sg19
S'85c0'
p1261
sg21
Vtest eax, eax
p1262
sg5
L135035007L
sg6
Nsg23
S'test'
p1263
sg25
S'0x80c787fL'
p1264
sg27
Nsba(ibclass
BInstr
p1265
(dp1266
g2
Nsg17
S'jz      short loc_80C788A'
p1267
sg19
S'7407'
p1268
sg21
Vje 9
p1269
sg5
L135035009L
sg6
Nsg23
S'jz'
p1270
sg25
S'0x80c7881L'
p1271
sg27
Nsbasg210
(lp1272
Vmov eax, mem
p1273
aVmov mem, eax
p1274
aVmov eax, mem
p1275
aVmov mem, eax
p1276
aVlea eax, mem
p1277
aVmov mem, eax
p1278
aVcall address
p1279
ag1262
ag1269
asg236
Nsg5
S'0x80c7866L'
p1280
sg238
(lp1281
S'0x80c7860L'
p1282
asg6
Nsg240
(lp1283
S'0x80c7883L'
p1284
aS'0x80c788aL'
p1285
asg244
Nsg245
Nsg246
S'5372474ebc32266a5d1f3bd952744638'
p1286
sg248
S'7746a3e1eafff1f3daff614d5540a560'
p1287
sg250
(lp1288
g1214
ag1221
ag1228
ag1235
ag1242
ag1249
ag1256
ag1263
ag1270
asg252
Nsba(ibclass
BBasicBlock
p1289
(dp1290
g12
Nsg13
(lp1291
(ibclass
BInstr
p1292
(dp1293
g2
Nsg17
S'mov     [ebp+decryption_failed_or_bad_record_mac], 1'
p1294
sg19
S'c7459401000000'
p1295
sg21
Vmov dword ptr [ebp - 0x6c], 1
p1296
sg5
L135035011L
sg6
Nsg23
S'mov'
p1297
sg25
S'0x80c7883L'
p1298
sg27
Nsbasg210
(lp1299
Vmov mem, 1
p1300
asg236
Nsg5
S'0x80c7883L'
p1301
sg238
(lp1302
S'0x80c7834L'
p1303
aS'0x80c7860L'
p1304
aS'0x80c7866L'
p1305
asg6
Nsg240
(lp1306
S'0x80c788aL'
p1307
asg244
Nsg245
Nsg246
S'96a4a0e6e9ac88756a0fcba989d0a844'
p1308
sg248
S'a73a0656263a7f36d05ccf97729fa60b'
p1309
sg250
(lp1310
g1297
asg252
Nsba(ibclass
BBasicBlock
p1311
(dp1312
g12
Nsg13
(lp1313
(ibclass
BInstr
p1314
(dp1315
g2
Nsg17
S'cmp     [ebp+decryption_failed_or_bad_record_mac], 0'
p1316
sg19
S'837d9400'
p1317
sg21
Vcmp dword ptr [ebp - 0x6c], 0
p1318
sg5
L135035018L
sg6
Nsg23
S'cmp'
p1319
sg25
S'0x80c788aL'
p1320
sg27
Nsba(ibclass
BInstr
p1321
(dp1322
g2
Nsg17
S'jz      short loc_80C78A9'
p1323
sg19
S'7419'
p1324
sg21
Vje 0x1b
p1325
sg5
L135035022L
sg6
Nsg23
S'jz'
p1326
sg25
S'0x80c788eL'
p1327
sg27
Nsbasg210
(lp1328
Vcmp mem, 0
p1329
aVje address
p1330
asg236
Nsg5
S'0x80c788aL'
p1331
sg238
(lp1332
S'0x80c7793L'
p1333
aS'0x80c7866L'
p1334
aS'0x80c7883L'
p1335
asg6
Nsg240
(lp1336
S'0x80c7890L'
p1337
aS'0x80c78a9L'
p1338
asg244
Nsg245
Nsg246
S'613dbc2b0cb9d6264d802b24d709daea'
p1339
sg248
S'bdc7ec577d63971d81398660f533a2e0'
p1340
sg250
(lp1341
g1319
ag1326
asg252
Nsba(ibclass
BBasicBlock
p1342
(dp1343
g12
Nsg13
(lp1344
(ibclass
BInstr
p1345
(dp1346
g2
Nsg17
S'mov     eax, [ebp+rr]'
p1347
sg19
S'8b459c'
p1348
sg21
Vmov eax, dword ptr [ebp - 0x64]
p1349
sg5
L135035024L
sg6
Nsg23
S'mov'
p1350
sg25
S'0x80c7890L'
p1351
sg27
Nsba(ibclass
BInstr
p1352
(dp1353
g2
Nsg17
S'mov     dword ptr [eax+4], 0'
p1354
sg19
S'c7400400000000'
p1355
sg21
Vmov dword ptr [eax + 4], 0
p1356
sg5
L135035027L
sg6
Nsg23
S'mov'
p1357
sg25
S'0x80c7893L'
p1358
sg27
Nsba(ibclass
BInstr
p1359
(dp1360
g2
Nsg17
S'mov     eax, [ebp+s]'
p1361
sg19
S'8b4584'
p1362
sg21
Vmov eax, dword ptr [ebp - 0x7c]
p1363
sg5
L135035034L
sg6
Nsg23
S'mov'
p1364
sg25
S'0x80c789aL'
p1365
sg27
Nsba(ibclass
BInstr
p1366
(dp1367
g2
Nsg17
S'mov     dword ptr [eax+50h], 0'
p1368
sg19
S'c7405000000000'
p1369
sg21
Vmov dword ptr [eax + 0x50], 0
p1370
sg5
L135035037L
sg6
Nsg23
S'mov'
p1371
sg25
S'0x80c789dL'
p1372
sg27
Nsba(ibclass
BInstr
p1373
(dp1374
g2
Nsg17
S'jmp     err'
p1375
sg19
S'e92b010000'
p1376
sg21
Vjmp 0x130
p1377
sg5
L135035044L
sg6
Nsg23
S'jmp'
p1378
sg25
S'0x80c78a4L'
p1379
sg27
Nsbasg210
(lp1380
Vmov eax, mem
p1381
aVmov mem, 0
p1382
aVmov eax, mem
p1383
aVmov mem, 0
p1384
aVjmp address
p1385
asg236
Nsg5
S'0x80c7890L'
p1386
sg238
(lp1387
S'0x80c788aL'
p1388
asg6
Nsg240
(lp1389
S'0x80c79d4L'
p1390
asg244
Nsg245
Nsg246
S'7217f719f009b7b2e7686b68917fe7aa'
p1391
sg248
S'3ede3e29d66c94e4e81a3c610036ba6f'
p1392
sg250
(lp1393
g1350
ag1357
ag1364
ag1371
ag1378
asg252
Nsba(ibclass
BBasicBlock
p1394
(dp1395
g12
Nsg13
(lp1396
(ibclass
BInstr
p1397
(dp1398
g2
Nsg17
S'mov     eax, [ebp+s]'
p1399
sg19
S'8b4584'
p1400
sg21
Vmov eax, dword ptr [ebp - 0x7c]
p1401
sg5
L135035049L
sg6
Nsg23
S'mov'
p1402
sg25
S'0x80c78a9L'
p1403
sg27
Nsba(ibclass
BInstr
p1404
(dp1405
g2
Nsg17
S'mov     eax, [eax+88h]'
p1406
sg19
S'8b8088000000'
p1407
sg21
Vmov eax, dword ptr [eax + 0x88]
p1408
sg5
L135035052L
sg6
Nsg23
S'mov'
p1409
sg25
S'0x80c78acL'
p1410
sg27
Nsba(ibclass
BInstr
p1411
(dp1412
g2
Nsg17
S'test    eax, eax'
p1413
sg19
S'85c0'
p1414
sg21
Vtest eax, eax
p1415
sg5
L135035058L
sg6
Nsg23
S'test'
p1416
sg25
S'0x80c78b2L'
p1417
sg27
Nsba(ibclass
BInstr
p1418
(dp1419
g2
Nsg17
S'jz      loc_80C7943'
p1420
sg19
S'0f8489000000'
p1421
sg21
Vje 0x8f
p1422
sg5
L135035060L
sg6
Nsg23
S'jz'
p1423
sg25
S'0x80c78b4L'
p1424
sg27
Nsbasg210
(lp1425
Vmov eax, mem
p1426
aVmov eax, mem
p1427
ag1415
aVje address
p1428
asg236
Nsg5
S'0x80c78a9L'
p1429
sg238
(lp1430
S'0x80c788aL'
p1431
asg6
Nsg240
(lp1432
S'0x80c78baL'
p1433
aS'0x80c7943L'
p1434
asg244
Nsg245
Nsg246
S'ea5d08c7dcc07640d42787f826218f11'
p1435
sg248
S'103b924e2a82731ce51d187b2e41af3a'
p1436
sg250
(lp1437
g1402
ag1409
ag1416
ag1423
asg252
Nsba(ibclass
BBasicBlock
p1438
(dp1439
g12
Nsg13
(lp1440
(ibclass
BInstr
p1441
(dp1442
g2
Nsg17
S'mov     eax, [ebp+rr]'
p1443
sg19
S'8b459c'
p1444
sg21
Vmov eax, dword ptr [ebp - 0x64]
p1445
sg5
L135035066L
sg6
Nsg23
S'mov'
p1446
sg25
S'0x80c78baL'
p1447
sg27
Nsba(ibclass
BInstr
p1448
(dp1449
g2
Nsg17
S'mov     eax, [eax+4]'
p1450
sg19
S'8b4004'
p1451
sg21
Vmov eax, dword ptr [eax + 4]
p1452
sg5
L135035069L
sg6
Nsg23
S'mov'
p1453
sg25
S'0x80c78bdL'
p1454
sg27
Nsba(ibclass
BInstr
p1455
(dp1456
g2
Nsg17
S'cmp     eax, 4400h'
p1457
sg19
S'3d00440000'
p1458
sg21
Vcmp eax, 0x4400
p1459
sg5
L135035072L
sg6
Nsg23
S'cmp'
p1460
sg25
S'0x80c78c0L'
p1461
sg27
Nsba(ibclass
BInstr
p1462
(dp1463
g2
Nsg17
S'jbe     short loc_80C78FF'
p1464
sg19
S'7638'
p1465
sg21
Vjbe 0x3a
p1466
sg5
L135035077L
sg6
Nsg23
S'jbe'
p1467
sg25
S'0x80c78c5L'
p1468
sg27
Nsbasg210
(lp1469
Vmov eax, mem
p1470
aVmov eax, mem
p1471
aVcmp eax, address
p1472
aVjbe address
p1473
asg236
Nsg5
S'0x80c78baL'
p1474
sg238
(lp1475
S'0x80c78a9L'
p1476
asg6
Nsg240
(lp1477
S'0x80c78c7L'
p1478
aS'0x80c78ffL'
p1479
asg244
Nsg245
Nsg246
S'4663f486660a49e0967f0dc3f248a0e5'
p1480
sg248
S'bcf818524c3e5ffdd5162dd01200380f'
p1481
sg250
(lp1482
g1446
ag1453
ag1460
ag1467
asg252
Nsba(ibclass
BBasicBlock
p1483
(dp1484
g12
Nsg13
(lp1485
(ibclass
BInstr
p1486
(dp1487
g2
Nsg17
S'mov     [ebp+al_0], 16h'
p1488
sg19
S'c7458c16000000'
p1489
sg21
Vmov dword ptr [ebp - 0x74], 0x16
p1490
sg5
L135035079L
sg6
Nsg23
S'mov'
p1491
sg25
S'0x80c78c7L'
p1492
sg27
Nsba(ibclass
BInstr
p1493
(dp1494
g2
Nsg17
S'mov     dword ptr [esp+10h], 1E6h; line'
p1495
sg19
S'c7442410e6010000'
p1496
sg21
Vmov dword ptr [esp + 0x10], 0x1e6
p1497
sg5
L135035086L
sg6
Nsg23
S'mov'
p1498
sg25
S'0x80c78ceL'
p1499
sg27
Nsba(ibclass
BInstr
p1500
(dp1501
g2
Nsg17
S'mov     dword ptr [esp+0Ch], offset aD1_pkt_c; "d1_pkt.c"'
p1502
sg19
S'c744240cd4fe2008'
p1503
sg21
Vmov dword ptr [esp + 0xc], 0x820fed4
p1504
sg5
L135035094L
sg6
Nsg23
S'mov'
p1505
sg25
S'0x80c78d6L'
p1506
sg27
Nsba(ibclass
BInstr
p1507
(dp1508
g2
Nsg17
S'mov     dword ptr [esp+8], 8Ch; reason'
p1509
sg19
S'c74424088c000000'
p1510
sg21
Vmov dword ptr [esp + 8], 0x8c
p1511
sg5
L135035102L
sg6
Nsg23
S'mov'
p1512
sg25
S'0x80c78deL'
p1513
sg27
Nsba(ibclass
BInstr
p1514
(dp1515
g2
Nsg17
S'mov     dword ptr [esp+4], 101h; func'
p1516
sg19
S'c744240401010000'
p1517
sg21
Vmov dword ptr [esp + 4], 0x101
p1518
sg5
L135035110L
sg6
Nsg23
S'mov'
p1519
sg25
S'0x80c78e6L'
p1520
sg27
Nsba(ibclass
BInstr
p1521
(dp1522
g2
Nsg17
S'mov     dword ptr [esp], 14h; lib'
p1523
sg19
S'c7042414000000'
p1524
sg21
Vmov dword ptr [esp], 0x14
p1525
sg5
L135035118L
sg6
Nsg23
S'mov'
p1526
sg25
S'0x80c78eeL'
p1527
sg27
Nsba(ibclass
BInstr
p1528
(dp1529
g2
Nsg17
S'call    ERR_put_error'
p1530
sg19
S'e837020700'
p1531
sg21
Vcall 0x7023c
p1532
sg5
L135035125L
sg6
Nsg23
S'call'
p1533
sg25
S'0x80c78f5L'
p1534
sg27
Nsba(ibclass
BInstr
p1535
(dp1536
g2
Nsg17
S'jmp     f_err'
p1537
sg19
S'e9bb000000'
p1538
sg21
Vjmp 0xc0
p1539
sg5
L135035130L
sg6
Nsg23
S'jmp'
p1540
sg25
S'0x80c78faL'
p1541
sg27
Nsbasg210
(lp1542
Vmov mem, address
p1543
aVmov mem, address
p1544
aVmov mem, address
p1545
aVmov mem, address
p1546
aVmov mem, address
p1547
aVmov mem, address
p1548
aVcall address
p1549
aVjmp address
p1550
asg236
Nsg5
S'0x80c78c7L'
p1551
sg238
(lp1552
S'0x80c78baL'
p1553
asg6
Nsg240
(lp1554
S'0x80c79baL'
p1555
asg244
Nsg245
Nsg246
S'66a94b87b6be599163286cd5d033acb0'
p1556
sg248
S'9ae564c3ff50b0b8b3b6c36a987dd05d'
p1557
sg250
(lp1558
g1491
ag1498
ag1505
ag1512
ag1519
ag1526
ag1533
ag1540
asg252
Nsba(ibclass
BBasicBlock
p1559
(dp1560
g12
Nsg13
(lp1561
(ibclass
BInstr
p1562
(dp1563
g2
Nsg17
S'mov     eax, [ebp+s]'
p1564
sg19
S'8b4584'
p1565
sg21
Vmov eax, dword ptr [ebp - 0x7c]
p1566
sg5
L135035135L
sg6
Nsg23
S'mov'
p1567
sg25
S'0x80c78ffL'
p1568
sg27
Nsba(ibclass
BInstr
p1569
(dp1570
g2
Nsg17
S'mov     [esp], eax      ; ssl'
p1571
sg19
S'890424'
p1572
sg21
Vmov dword ptr [esp], eax
p1573
sg5
L135035138L
sg6
Nsg23
S'mov'
p1574
sg25
S'0x80c7902L'
p1575
sg27
Nsba(ibclass
BInstr
p1576
(dp1577
g2
Nsg17
S'call    ssl3_do_uncompress'
p1578
sg19
S'e8f1c5feff'
p1579
sg21
Vcall 0xfffec5f6
p1580
sg5
L135035141L
sg6
Nsg23
S'call'
p1581
sg25
S'0x80c7905L'
p1582
sg27
Nsba(ibclass
BInstr
p1583
(dp1584
g2
Nsg17
S'test    eax, eax'
p1585
sg19
S'85c0'
p1586
sg21
Vtest eax, eax
p1587
sg5
L135035146L
sg6
Nsg23
S'test'
p1588
sg25
S'0x80c790aL'
p1589
sg27
Nsba(ibclass
BInstr
p1590
(dp1591
g2
Nsg17
S'jnz     short loc_80C7943'
p1592
sg19
S'7535'
p1593
sg21
Vjne 0x37
p1594
sg5
L135035148L
sg6
Nsg23
S'jnz'
p1595
sg25
S'0x80c790cL'
p1596
sg27
Nsbasg210
(lp1597
Vmov eax, mem
p1598
aVmov mem, eax
p1599
aVcall address
p1600
ag1587
aVjne address
p1601
asg236
Nsg5
S'0x80c78ffL'
p1602
sg238
(lp1603
S'0x80c78baL'
p1604
asg6
Nsg240
(lp1605
S'0x80c790eL'
p1606
aS'0x80c7943L'
p1607
asg244
Nsg245
Nsg246
S'8aa47bafac27863733b9d38d97a948f4'
p1608
sg248
S'96dd1ea4abddd61fd92c87afb229fae1'
p1609
sg250
(lp1610
g1567
ag1574
ag1581
ag1588
ag1595
asg252
Nsba(ibclass
BBasicBlock
p1611
(dp1612
g12
Nsg13
(lp1613
(ibclass
BInstr
p1614
(dp1615
g2
Nsg17
S'mov     [ebp+al_0], 1Eh'
p1616
sg19
S'c7458c1e000000'
p1617
sg21
Vmov dword ptr [ebp - 0x74], 0x1e
p1618
sg5
L135035150L
sg6
Nsg23
S'mov'
p1619
sg25
S'0x80c790eL'
p1620
sg27
Nsba(ibclass
BInstr
p1621
(dp1622
g2
Nsg17
S'mov     dword ptr [esp+10h], 1ECh; line'
p1623
sg19
S'c7442410ec010000'
p1624
sg21
Vmov dword ptr [esp + 0x10], 0x1ec
p1625
sg5
L135035157L
sg6
Nsg23
S'mov'
p1626
sg25
S'0x80c7915L'
p1627
sg27
Nsba(ibclass
BInstr
p1628
(dp1629
g2
Nsg17
S'mov     dword ptr [esp+0Ch], offset aD1_pkt_c; "d1_pkt.c"'
p1630
sg19
S'c744240cd4fe2008'
p1631
sg21
Vmov dword ptr [esp + 0xc], 0x820fed4
p1632
sg5
L135035165L
sg6
Nsg23
S'mov'
p1633
sg25
S'0x80c791dL'
p1634
sg27
Nsba(ibclass
BInstr
p1635
(dp1636
g2
Nsg17
S'mov     dword ptr [esp+8], 6Bh; reason'
p1637
sg19
S'c74424086b000000'
p1638
sg21
Vmov dword ptr [esp + 8], 0x6b
p1639
sg5
L135035173L
sg6
Nsg23
S'mov'
p1640
sg25
S'0x80c7925L'
p1641
sg27
Nsba(ibclass
BInstr
p1642
(dp1643
g2
Nsg17
S'mov     dword ptr [esp+4], 101h; func'
p1644
sg19
S'c744240401010000'
p1645
sg21
Vmov dword ptr [esp + 4], 0x101
p1646
sg5
L135035181L
sg6
Nsg23
S'mov'
p1647
sg25
S'0x80c792dL'
p1648
sg27
Nsba(ibclass
BInstr
p1649
(dp1650
g2
Nsg17
S'mov     dword ptr [esp], 14h; lib'
p1651
sg19
S'c7042414000000'
p1652
sg21
Vmov dword ptr [esp], 0x14
p1653
sg5
L135035189L
sg6
Nsg23
S'mov'
p1654
sg25
S'0x80c7935L'
p1655
sg27
Nsba(ibclass
BInstr
p1656
(dp1657
g2
Nsg17
S'call    ERR_put_error'
p1658
sg19
S'e8f0010700'
p1659
sg21
Vcall 0x701f5
p1660
sg5
L135035196L
sg6
Nsg23
S'call'
p1661
sg25
S'0x80c793cL'
p1662
sg27
Nsba(ibclass
BInstr
p1663
(dp1664
g2
Nsg17
S'jmp     short f_err'
p1665
sg19
S'eb77'
p1666
sg21
Vjmp 0x79
p1667
sg5
L135035201L
sg6
Nsg23
S'jmp'
p1668
sg25
S'0x80c7941L'
p1669
sg27
Nsbasg210
(lp1670
Vmov mem, address
p1671
aVmov mem, address
p1672
aVmov mem, address
p1673
aVmov mem, address
p1674
aVmov mem, address
p1675
aVmov mem, address
p1676
aVcall address
p1677
aVjmp address
p1678
asg236
Nsg5
S'0x80c790eL'
p1679
sg238
(lp1680
S'0x80c78ffL'
p1681
asg6
Nsg240
(lp1682
S'0x80c79baL'
p1683
asg244
Nsg245
Nsg246
S'66a94b87b6be599163286cd5d033acb0'
p1684
sg248
S'9ae564c3ff50b0b8b3b6c36a987dd05d'
p1685
sg250
(lp1686
g1619
ag1626
ag1633
ag1640
ag1647
ag1654
ag1661
ag1668
asg252
Nsba(ibclass
BBasicBlock
p1687
(dp1688
g12
Nsg13
(lp1689
(ibclass
BInstr
p1690
(dp1691
g2
Nsg17
S'mov     eax, [ebp+rr]'
p1692
sg19
S'8b459c'
p1693
sg21
Vmov eax, dword ptr [ebp - 0x64]
p1694
sg5
L135035203L
sg6
Nsg23
S'mov'
p1695
sg25
S'0x80c7943L'
p1696
sg27
Nsba(ibclass
BInstr
p1697
(dp1698
g2
Nsg17
S'mov     eax, [eax+4]'
p1699
sg19
S'8b4004'
p1700
sg21
Vmov eax, dword ptr [eax + 4]
p1701
sg5
L135035206L
sg6
Nsg23
S'mov'
p1702
sg25
S'0x80c7946L'
p1703
sg27
Nsba(ibclass
BInstr
p1704
(dp1705
g2
Nsg17
S'cmp     eax, 4000h'
p1706
sg19
S'3d00400000'
p1707
sg21
Vcmp eax, 0x4000
p1708
sg5
L135035209L
sg6
Nsg23
S'cmp'
p1709
sg25
S'0x80c7949L'
p1710
sg27
Nsba(ibclass
BInstr
p1711
(dp1712
g2
Nsg17
S'jbe     short loc_80C7985'
p1713
sg19
S'7635'
p1714
sg21
Vjbe 0x37
p1715
sg5
L135035214L
sg6
Nsg23
S'jbe'
p1716
sg25
S'0x80c794eL'
p1717
sg27
Nsbasg210
(lp1718
Vmov eax, mem
p1719
aVmov eax, mem
p1720
aVcmp eax, address
p1721
aVjbe address
p1722
asg236
Nsg5
S'0x80c7943L'
p1723
sg238
(lp1724
S'0x80c78a9L'
p1725
aS'0x80c78ffL'
p1726
asg6
Nsg240
(lp1727
S'0x80c7950L'
p1728
aS'0x80c7985L'
p1729
asg244
Nsg245
Nsg246
S'4663f486660a49e0967f0dc3f248a0e5'
p1730
sg248
S'bcf818524c3e5ffdd5162dd01200380f'
p1731
sg250
(lp1732
g1695
ag1702
ag1709
ag1716
asg252
Nsba(ibclass
BBasicBlock
p1733
(dp1734
g12
Nsg13
(lp1735
(ibclass
BInstr
p1736
(dp1737
g2
Nsg17
S'mov     [ebp+al_0], 16h'
p1738
sg19
S'c7458c16000000'
p1739
sg21
Vmov dword ptr [ebp - 0x74], 0x16
p1740
sg5
L135035216L
sg6
Nsg23
S'mov'
p1741
sg25
S'0x80c7950L'
p1742
sg27
Nsba(ibclass
BInstr
p1743
(dp1744
g2
Nsg17
S'mov     dword ptr [esp+10h], 1F4h; line'
p1745
sg19
S'c7442410f4010000'
p1746
sg21
Vmov dword ptr [esp + 0x10], 0x1f4
p1747
sg5
L135035223L
sg6
Nsg23
S'mov'
p1748
sg25
S'0x80c7957L'
p1749
sg27
Nsba(ibclass
BInstr
p1750
(dp1751
g2
Nsg17
S'mov     dword ptr [esp+0Ch], offset aD1_pkt_c; "d1_pkt.c"'
p1752
sg19
S'c744240cd4fe2008'
p1753
sg21
Vmov dword ptr [esp + 0xc], 0x820fed4
p1754
sg5
L135035231L
sg6
Nsg23
S'mov'
p1755
sg25
S'0x80c795fL'
p1756
sg27
Nsba(ibclass
BInstr
p1757
(dp1758
g2
Nsg17
S'mov     dword ptr [esp+8], 92h; reason'
p1759
sg19
S'c744240892000000'
p1760
sg21
Vmov dword ptr [esp + 8], 0x92
p1761
sg5
L135035239L
sg6
Nsg23
S'mov'
p1762
sg25
S'0x80c7967L'
p1763
sg27
Nsba(ibclass
BInstr
p1764
(dp1765
g2
Nsg17
S'mov     dword ptr [esp+4], 101h; func'
p1766
sg19
S'c744240401010000'
p1767
sg21
Vmov dword ptr [esp + 4], 0x101
p1768
sg5
L135035247L
sg6
Nsg23
S'mov'
p1769
sg25
S'0x80c796fL'
p1770
sg27
Nsba(ibclass
BInstr
p1771
(dp1772
g2
Nsg17
S'mov     dword ptr [esp], 14h; lib'
p1773
sg19
S'c7042414000000'
p1774
sg21
Vmov dword ptr [esp], 0x14
p1775
sg5
L135035255L
sg6
Nsg23
S'mov'
p1776
sg25
S'0x80c7977L'
p1777
sg27
Nsba(ibclass
BInstr
p1778
(dp1779
g2
Nsg17
S'call    ERR_put_error'
p1780
sg19
S'e8ae010700'
p1781
sg21
Vcall 0x701b3
p1782
sg5
L135035262L
sg6
Nsg23
S'call'
p1783
sg25
S'0x80c797eL'
p1784
sg27
Nsba(ibclass
BInstr
p1785
(dp1786
g2
Nsg17
S'jmp     short f_err'
p1787
sg19
S'eb35'
p1788
sg21
Vjmp 0x37
p1789
sg5
L135035267L
sg6
Nsg23
S'jmp'
p1790
sg25
S'0x80c7983L'
p1791
sg27
Nsbasg210
(lp1792
Vmov mem, address
p1793
aVmov mem, address
p1794
aVmov mem, address
p1795
aVmov mem, address
p1796
aVmov mem, address
p1797
aVmov mem, address
p1798
aVcall address
p1799
aVjmp address
p1800
asg236
Nsg5
S'0x80c7950L'
p1801
sg238
(lp1802
S'0x80c7943L'
p1803
asg6
Nsg240
(lp1804
S'0x80c79baL'
p1805
asg244
Nsg245
Nsg246
S'66a94b87b6be599163286cd5d033acb0'
p1806
sg248
S'9ae564c3ff50b0b8b3b6c36a987dd05d'
p1807
sg250
(lp1808
g1741
ag1748
ag1755
ag1762
ag1769
ag1776
ag1783
ag1790
asg252
Nsba(ibclass
BBasicBlock
p1809
(dp1810
g12
Nsg13
(lp1811
(ibclass
BInstr
p1812
(dp1813
g2
Nsg17
S'mov     eax, [ebp+rr]'
p1814
sg19
S'8b459c'
p1815
sg21
Vmov eax, dword ptr [ebp - 0x64]
p1816
sg5
L135035269L
sg6
Nsg23
S'mov'
p1817
sg25
S'0x80c7985L'
p1818
sg27
Nsba(ibclass
BInstr
p1819
(dp1820
g2
Nsg17
S'mov     dword ptr [eax+8], 0'
p1821
sg19
S'c7400800000000'
p1822
sg21
Vmov dword ptr [eax + 8], 0
p1823
sg5
L135035272L
sg6
Nsg23
S'mov'
p1824
sg25
S'0x80c7988L'
p1825
sg27
Nsba(ibclass
BInstr
p1826
(dp1827
g2
Nsg17
S'mov     eax, [ebp+s]'
p1828
sg19
S'8b4584'
p1829
sg21
Vmov eax, dword ptr [ebp - 0x7c]
p1830
sg5
L135035279L
sg6
Nsg23
S'mov'
p1831
sg25
S'0x80c798fL'
p1832
sg27
Nsba(ibclass
BInstr
p1833
(dp1834
g2
Nsg17
S'mov     dword ptr [eax+50h], 0'
p1835
sg19
S'c7405000000000'
p1836
sg21
Vmov dword ptr [eax + 0x50], 0
p1837
sg5
L135035282L
sg6
Nsg23
S'mov'
p1838
sg25
S'0x80c7992L'
p1839
sg27
Nsba(ibclass
BInstr
p1840
(dp1841
g2
Nsg17
S'mov     eax, [ebp+s]'
p1842
sg19
S'8b4584'
p1843
sg21
Vmov eax, dword ptr [ebp - 0x7c]
p1844
sg5
L135035289L
sg6
Nsg23
S'mov'
p1845
sg25
S'0x80c7999L'
p1846
sg27
Nsba(ibclass
BInstr
p1847
(dp1848
g2
Nsg17
S'mov     eax, [eax+5Ch]'
p1849
sg19
S'8b405c'
p1850
sg21
Vmov eax, dword ptr [eax + 0x5c]
p1851
sg5
L135035292L
sg6
Nsg23
S'mov'
p1852
sg25
S'0x80c799cL'
p1853
sg27
Nsba(ibclass
BInstr
p1854
(dp1855
g2
Nsg17
S'add     eax, 20Ch'
p1856
sg19
S'050c020000'
p1857
sg21
Vadd eax, 0x20c
p1858
sg5
L135035295L
sg6
Nsg23
S'add'
p1859
sg25
S'0x80c799fL'
p1860
sg27
Nsba(ibclass
BInstr
p1861
(dp1862
g2
Nsg17
S'mov     [esp+4], eax    ; bitmap'
p1863
sg19
S'89442404'
p1864
sg21
Vmov dword ptr [esp + 4], eax
p1865
sg5
L135035300L
sg6
Nsg23
S'mov'
p1866
sg25
S'0x80c79a4L'
p1867
sg27
Nsba(ibclass
BInstr
p1868
(dp1869
g2
Nsg17
S'mov     eax, [ebp+s]'
p1870
sg19
S'8b4584'
p1871
sg21
Vmov eax, dword ptr [ebp - 0x7c]
p1872
sg5
L135035304L
sg6
Nsg23
S'mov'
p1873
sg25
S'0x80c79a8L'
p1874
sg27
Nsba(ibclass
BInstr
p1875
(dp1876
g2
Nsg17
S'mov     [esp], eax      ; s'
p1877
sg19
S'890424'
p1878
sg21
Vmov dword ptr [esp], eax
p1879
sg5
L135035307L
sg6
Nsg23
S'mov'
p1880
sg25
S'0x80c79abL'
p1881
sg27
Nsba(ibclass
BInstr
p1882
(dp1883
g2
Nsg17
S'call    dtls1_record_bitmap_update'
p1884
sg19
S'e87b1c0000'
p1885
sg21
Vcall 0x1c80
p1886
sg5
L135035310L
sg6
Nsg23
S'call'
p1887
sg25
S'0x80c79aeL'
p1888
sg27
Nsba(ibclass
BInstr
p1889
(dp1890
g2
Nsg17
S'mov     eax, 1'
p1891
sg19
S'b801000000'
p1892
sg21
Vmov eax, 1
p1893
sg5
L135035315L
sg6
Nsg23
S'mov'
p1894
sg25
S'0x80c79b3L'
p1895
sg27
Nsba(ibclass
BInstr
p1896
(dp1897
g2
Nsg17
S'jmp     short loc_80C79D9'
p1898
sg19
S'eb1f'
p1899
sg21
Vjmp 0x21
p1900
sg5
L135035320L
sg6
Nsg23
S'jmp'
p1901
sg25
S'0x80c79b8L'
p1902
sg27
Nsbasg210
(lp1903
Vmov eax, mem
p1904
aVmov mem, 0
p1905
aVmov eax, mem
p1906
aVmov mem, 0
p1907
aVmov eax, mem
p1908
aVmov eax, mem
p1909
aVadd eax, address
p1910
aVmov mem, eax
p1911
aVmov eax, mem
p1912
aVmov mem, eax
p1913
aVcall address
p1914
ag1893
aVjmp address
p1915
asg236
Nsg5
S'0x80c7985L'
p1916
sg238
(lp1917
S'0x80c7943L'
p1918
asg6
Nsg240
(lp1919
S'0x80c79d9L'
p1920
asg244
Nsg245
Nsg246
S'237d358729d53f486dd0df44c5544084'
p1921
sg248
S'd2434b976375d2d9c412b790c831b01b'
p1922
sg250
(lp1923
g1817
ag1824
ag1831
ag1838
ag1845
ag1852
ag1859
ag1866
ag1873
ag1880
ag1887
ag1894
ag1901
asg252
Nsba(ibclass
BBasicBlock
p1924
(dp1925
g12
Nsg13
(lp1926
(ibclass
BInstr
p1927
(dp1928
g2
Nsg17
S'mov     eax, [ebp+al_0]'
p1929
sg19
S'8b458c'
p1930
sg21
Vmov eax, dword ptr [ebp - 0x74]
p1931
sg5
L135035322L
sg6
Nsg23
S'mov'
p1932
sg25
S'0x80c79baL'
p1933
sg27
Nsba(ibclass
BInstr
p1934
(dp1935
g2
Nsg17
S'mov     [esp+8], eax    ; desc'
p1936
sg19
S'89442408'
p1937
sg21
Vmov dword ptr [esp + 8], eax
p1938
sg5
L135035325L
sg6
Nsg23
S'mov'
p1939
sg25
S'0x80c79bdL'
p1940
sg27
Nsba(ibclass
BInstr
p1941
(dp1942
g2
Nsg17
S'mov     dword ptr [esp+4], 2; level'
p1943
sg19
S'c744240402000000'
p1944
sg21
Vmov dword ptr [esp + 4], 2
p1945
sg5
L135035329L
sg6
Nsg23
S'mov'
p1946
sg25
S'0x80c79c1L'
p1947
sg27
Nsba(ibclass
BInstr
p1948
(dp1949
g2
Nsg17
S'mov     eax, [ebp+s]'
p1950
sg19
S'8b4584'
p1951
sg21
Vmov eax, dword ptr [ebp - 0x7c]
p1952
sg5
L135035337L
sg6
Nsg23
S'mov'
p1953
sg25
S'0x80c79c9L'
p1954
sg27
Nsba(ibclass
BInstr
p1955
(dp1956
g2
Nsg17
S'mov     [esp], eax      ; s'
p1957
sg19
S'890424'
p1958
sg21
Vmov dword ptr [esp], eax
p1959
sg5
L135035340L
sg6
Nsg23
S'mov'
p1960
sg25
S'0x80c79ccL'
p1961
sg27
Nsba(ibclass
BInstr
p1962
(dp1963
g2
Nsg17
S'call    ssl3_send_alert'
p1964
sg19
S'e86fdffeff'
p1965
sg21
Vcall 0xfffedf74
p1966
sg5
L135035343L
sg6
Nsg23
S'call'
p1967
sg25
S'0x80c79cfL'
p1968
sg27
Nsbasg210
(lp1969
Vmov eax, mem
p1970
aVmov mem, eax
p1971
aVmov mem, 2
p1972
aVmov eax, mem
p1973
aVmov mem, eax
p1974
aVcall address
p1975
asg236
Nsg5
S'0x80c79baL'
p1976
sg238
(lp1977
S'0x80c76fdL'
p1978
aS'0x80c78c7L'
p1979
aS'0x80c790eL'
p1980
aS'0x80c7950L'
p1981
asg6
Nsg240
(lp1982
S'0x80c79d4L'
p1983
asg244
Nsg245
Nsg246
S'5c7cd3072e5b949035c0b8088cd4278d'
p1984
sg248
S'9703c08597711c98db7781842b12776e'
p1985
sg250
(lp1986
g1932
ag1939
ag1946
ag1953
ag1960
ag1967
asg252
Nsba(ibclass
BBasicBlock
p1987
(dp1988
g12
Nsg13
(lp1989
(ibclass
BInstr
p1990
(dp1991
g2
Nsg17
S'mov     eax, 0'
p1992
sg19
S'b800000000'
p1993
sg21
Vmov eax, 0
p1994
sg5
L135035348L
sg6
Nsg23
S'mov'
p1995
sg25
S'0x80c79d4L'
p1996
sg27
Nsbasg210
(lp1997
g1994
asg236
Nsg5
S'0x80c79d4L'
p1998
sg238
(lp1999
S'0x80c7890L'
p2000
aS'0x80c79baL'
p2001
asg6
Nsg240
(lp2002
S'0x80c79d9L'
p2003
asg244
Nsg245
Nsg246
S'96a4a0e6e9ac88756a0fcba989d0a844'
p2004
sg248
S'4cfc99738161f190e0def2f4916ada38'
p2005
sg250
(lp2006
g1995
asg252
Nsba(ibclass
BBasicBlock
p2007
(dp2008
g12
Nsg13
(lp2009
(ibclass
BInstr
p2010
(dp2011
g2
Nsg17
S'mov     ecx, [ebp+var_C]'
p2012
sg19
S'8b4df4'
p2013
sg21
Vmov ecx, dword ptr [ebp - 0xc]
p2014
sg5
L135035353L
sg6
Nsg23
S'mov'
p2015
sg25
S'0x80c79d9L'
p2016
sg27
Nsba(ibclass
BInstr
p2017
(dp2018
g2
Nsg17
S'xor     ecx, large gs:14h'
p2019
sg19
S'65330d14000000'
p2020
sg21
Vxor ecx, dword ptr gs:[0x14]
p2021
sg5
L135035356L
sg6
Nsg23
S'xor'
p2022
sg25
S'0x80c79dcL'
p2023
sg27
Nsba(ibclass
BInstr
p2024
(dp2025
g2
Nsg17
S'jz      short locret_80C79EA'
p2026
sg19
S'7405'
p2027
sg21
Vje 7
p2028
sg5
L135035363L
sg6
Nsg23
S'jz'
p2029
sg25
S'0x80c79e3L'
p2030
sg27
Nsbasg210
(lp2031
Vmov ecx, mem
p2032
aVxor ecx, gs:mem
p2033
ag2028
asg236
Nsg5
S'0x80c79d9L'
p2034
sg238
(lp2035
S'0x80c7985L'
p2036
aS'0x80c79d4L'
p2037
asg6
Nsg240
(lp2038
S'0x80c79e5L'
p2039
aS'0x80c79eaL'
p2040
asg244
Nsg245
Nsg246
S'81354ac238b6424b069ead35b2072afc'
p2041
sg248
S'ef43ae426fdfa90a3b78bdfa42234cf8'
p2042
sg250
(lp2043
g2015
ag2022
ag2029
asg252
Nsba(ibclass
BBasicBlock
p2044
(dp2045
g12
Nsg13
(lp2046
(ibclass
BInstr
p2047
(dp2048
g2
Nsg17
S'call    ___stack_chk_fail'
p2049
sg19
S'e8561cf8ff'
p2050
sg21
Vcall 0xfff81c5b
p2051
sg5
L135035365L
sg6
Nsg23
S'call'
p2052
sg25
S'0x80c79e5L'
p2053
sg27
Nsbasg210
(lp2054
Vcall address
p2055
asg236
Nsg5
S'0x80c79e5L'
p2056
sg238
(lp2057
S'0x80c79d9L'
p2058
asg6
Nsg240
(lp2059
sg244
Nsg245
Nsg246
S'53b9e9679a8ea25880376080b76f98ad'
p2060
sg248
S'5c3539e46d089242d4a47b64016c87be'
p2061
sg250
(lp2062
g2052
asg252
Nsba(ibclass
BBasicBlock
p2063
(dp2064
g12
Nsg13
(lp2065
(ibclass
BInstr
p2066
(dp2067
g2
Nsg17
S'leave'
p2068
sg19
S'c9'
p2069
sg21
Vleave 
p2070
sg5
L135035370L
sg6
Nsg23
S'leave'
p2071
sg25
S'0x80c79eaL'
p2072
sg27
Nsba(ibclass
BInstr
p2073
(dp2074
g2
Nsg17
S'retn'
p2075
sg19
S'c3'
p2076
sg21
Vret 
p2077
sg5
L135035371L
sg6
Nsg23
S'retn'
p2078
sg25
S'0x80c79ebL'
p2079
sg27
Nsbasg210
(lp2080
Vleave
p2081
aVret
p2082
asg236
Nsg5
S'0x80c79eaL'
p2083
sg238
(lp2084
S'0x80c79d9L'
p2085
asg6
Nsg240
(lp2086
sg244
Nsg245
Nsg246
S'08c78f73a6f87c85da88b2982f54ce2a'
p2087
sg248
S'393fee3c9fb1d26424d4b7704918e387'
p2088
sg250
(lp2089
g2071
ag2078
asg252
Nsbasb.