(ibclass
BFunc
p0
(dp1
S'hash'
p2
NsS'name'
p3
S'PKCS7_set_digest'
p4
sS'start_address'
p5
L135810771L
sS'flag'
p6
NsS'program'
p7
NsS'bbs'
p8
(lp9
(ibclass
BBasicBlock
p10
(dp11
S'function'
p12
NsS'binstrs'
p13
(lp14
(ibclass
BInstr
p15
(dp16
g2
NsS'disasm'
p17
S'push    ebp'
p18
sS'bytes'
p19
S'55'
p20
sS'disasm_striped'
p21
Vpush ebp
p22
sg5
L135810771L
sg6
NsS'mnem'
p23
S'push'
p24
sS'address'
p25
S'0x8184ed3L'
p26
sS'basicblock'
p27
Nsba(ibclass
BInstr
p28
(dp29
g2
Nsg17
S'mov     ebp, esp'
p30
sg19
S'89e5'
p31
sg21
Vmov ebp, esp
p32
sg5
L135810772L
sg6
Nsg23
S'mov'
p33
sg25
S'0x8184ed4L'
p34
sg27
Nsba(ibclass
BInstr
p35
(dp36
g2
Nsg17
S'push    ebx'
p37
sg19
S'53'
p38
sg21
Vpush ebx
p39
sg5
L135810774L
sg6
Nsg23
S'push'
p40
sg25
S'0x8184ed6L'
p41
sg27
Nsba(ibclass
BInstr
p42
(dp43
g2
Nsg17
S'sub     esp, 24h'
p44
sg19
S'83ec24'
p45
sg21
Vsub esp, 0x24
p46
sg5
L135810775L
sg6
Nsg23
S'sub'
p47
sg25
S'0x8184ed7L'
p48
sg27
Nsba(ibclass
BInstr
p49
(dp50
g2
Nsg17
S'mov     eax, [ebp+p7]'
p51
sg19
S'8b4508'
p52
sg21
Vmov eax, dword ptr [ebp + 8]
p53
sg5
L135810778L
sg6
Nsg23
S'mov'
p54
sg25
S'0x8184edaL'
p55
sg27
Nsba(ibclass
BInstr
p56
(dp57
g2
Nsg17
S'mov     eax, [eax+10h]'
p58
sg19
S'8b4010'
p59
sg21
Vmov eax, dword ptr [eax + 0x10]
p60
sg5
L135810781L
sg6
Nsg23
S'mov'
p61
sg25
S'0x8184eddL'
p62
sg27
Nsba(ibclass
BInstr
p63
(dp64
g2
Nsg17
S'mov     [esp], eax      ; a'
p65
sg19
S'890424'
p66
sg21
Vmov dword ptr [esp], eax
p67
sg5
L135810784L
sg6
Nsg23
S'mov'
p68
sg25
S'0x8184ee0L'
p69
sg27
Nsba(ibclass
BInstr
p70
(dp71
g2
Nsg17
S'call    OBJ_obj2nid'
p72
sg19
S'e83617f6ff'
p73
sg21
Vcall 0xfff6173b
p74
sg5
L135810787L
sg6
Nsg23
S'call'
p75
sg25
S'0x8184ee3L'
p76
sg27
Nsba(ibclass
BInstr
p77
(dp78
g2
Nsg17
S'cmp     eax, 19h'
p79
sg19
S'83f819'
p80
sg21
Vcmp eax, 0x19
p81
sg5
L135810792L
sg6
Nsg23
S'cmp'
p82
sg25
S'0x8184ee8L'
p83
sg27
Nsba(ibclass
BInstr
p84
(dp85
g2
Nsg17
S'jnz     loc_8184F73'
p86
sg19
S'0f8582000000'
p87
sg21
Vjne 0x88
p88
sg5
L135810795L
sg6
Nsg23
S'jnz'
p89
sg25
S'0x8184eebL'
p90
sg27
NsbasS'disasm_list'
p91
(lp92
g22
ag32
ag39
aVsub esp, address
p93
aVmov eax, mem
p94
aVmov eax, mem
p95
aVmov mem, eax
p96
aVcall address
p97
aVcmp eax, address
p98
aVjne address
p99
asS'end_address'
p100
Nsg5
S'0x8184ed3L'
p101
sS'preds'
p102
(lp103
sg6
NsS'succs'
p104
(lp105
S'0x8184ef1L'
p106
aS'0x8184f73L'
p107
asS'hash_v3'
p108
NsS'flag_v2'
p109
NsS'hash_v1'
p110
S'e8e46fe58ff12a772a27ea4b0a58017d'
p111
sS'hash_v2'
p112
S'2ec6478b0a603ca1832a6c1d4134cc06'
p113
sS'mnen_list'
p114
(lp115
g24
ag33
ag40
ag47
ag54
ag61
ag68
ag75
ag82
ag89
asS'neighbour_disasm_list'
p116
Nsba(ibclass
BBasicBlock
p117
(dp118
g12
Nsg13
(lp119
(ibclass
BInstr
p120
(dp121
g2
Nsg17
S'mov     eax, [ebp+p7]'
p122
sg19
S'8b4508'
p123
sg21
Vmov eax, dword ptr [ebp + 8]
p124
sg5
L135810801L
sg6
Nsg23
S'mov'
p125
sg25
S'0x8184ef1L'
p126
sg27
Nsba(ibclass
BInstr
p127
(dp128
g2
Nsg17
S'mov     eax, [eax+14h]'
p129
sg19
S'8b4014'
p130
sg21
Vmov eax, dword ptr [eax + 0x14]
p131
sg5
L135810804L
sg6
Nsg23
S'mov'
p132
sg25
S'0x8184ef4L'
p133
sg27
Nsba(ibclass
BInstr
p134
(dp135
g2
Nsg17
S'mov     ebx, [eax+4]'
p136
sg19
S'8b5804'
p137
sg21
Vmov ebx, dword ptr [eax + 4]
p138
sg5
L135810807L
sg6
Nsg23
S'mov'
p139
sg25
S'0x8184ef7L'
p140
sg27
Nsba(ibclass
BInstr
p141
(dp142
g2
Nsg17
S'call    ASN1_TYPE_new'
p143
sg19
S'e8f333fdff'
p144
sg21
Vcall 0xfffd33f8
p145
sg5
L135810810L
sg6
Nsg23
S'call'
p146
sg25
S'0x8184efaL'
p147
sg27
Nsba(ibclass
BInstr
p148
(dp149
g2
Nsg17
S'mov     [ebx+4], eax'
p150
sg19
S'894304'
p151
sg21
Vmov dword ptr [ebx + 4], eax
p152
sg5
L135810815L
sg6
Nsg23
S'mov'
p153
sg25
S'0x8184effL'
p154
sg27
Nsba(ibclass
BInstr
p155
(dp156
g2
Nsg17
S'mov     eax, [ebx+4]'
p157
sg19
S'8b4304'
p158
sg21
Vmov eax, dword ptr [ebx + 4]
p159
sg5
L135810818L
sg6
Nsg23
S'mov'
p160
sg25
S'0x8184f02L'
p161
sg27
Nsba(ibclass
BInstr
p162
(dp163
g2
Nsg17
S'test    eax, eax'
p164
sg19
S'85c0'
p165
sg21
Vtest eax, eax
p166
sg5
L135810821L
sg6
Nsg23
S'test'
p167
sg25
S'0x8184f05L'
p168
sg27
Nsba(ibclass
BInstr
p169
(dp170
g2
Nsg17
S'jnz     short loc_8184F3C'
p171
sg19
S'7533'
p172
sg21
Vjne 0x35
p173
sg5
L135810823L
sg6
Nsg23
S'jnz'
p174
sg25
S'0x8184f07L'
p175
sg27
Nsbasg91
(lp176
Vmov eax, mem
p177
aVmov eax, mem
p178
aVmov ebx, mem
p179
aVcall address
p180
aVmov mem, eax
p181
aVmov eax, mem
p182
ag166
aVjne address
p183
asg100
Nsg5
S'0x8184ef1L'
p184
sg102
(lp185
S'0x8184ed3L'
p186
asg6
Nsg104
(lp187
S'0x8184f09L'
p188
aS'0x8184f3cL'
p189
asg108
Nsg109
Nsg110
S'9a90eb03c7c1990438e74db668a81252'
p190
sg112
S'60bbe4097eddd5cb3456f88dd04705c5'
p191
sg114
(lp192
g125
ag132
ag139
ag146
ag153
ag160
ag167
ag174
asg116
Nsba(ibclass
BBasicBlock
p193
(dp194
g12
Nsg13
(lp195
(ibclass
BInstr
p196
(dp197
g2
Nsg17
S'mov     dword ptr [esp+10h], 1C0h; line'
p198
sg19
S'c7442410c0010000'
p199
sg21
Vmov dword ptr [esp + 0x10], 0x1c0
p200
sg5
L135810825L
sg6
Nsg23
S'mov'
p201
sg25
S'0x8184f09L'
p202
sg27
Nsba(ibclass
BInstr
p203
(dp204
g2
Nsg17
S'mov     dword ptr [esp+0Ch], offset aPk7_lib_c; "pk7_lib.c"'
p205
sg19
S'c744240c94ef2308'
p206
sg21
Vmov dword ptr [esp + 0xc], 0x823ef94
p207
sg5
L135810833L
sg6
Nsg23
S'mov'
p208
sg25
S'0x8184f11L'
p209
sg27
Nsba(ibclass
BInstr
p210
(dp211
g2
Nsg17
S'mov     dword ptr [esp+8], 41h; reason'
p212
sg19
S'c744240841000000'
p213
sg21
Vmov dword ptr [esp + 8], 0x41
p214
sg5
L135810841L
sg6
Nsg23
S'mov'
p215
sg25
S'0x8184f19L'
p216
sg27
Nsba(ibclass
BInstr
p217
(dp218
g2
Nsg17
S'mov     dword ptr [esp+4], 7Eh; func'
p219
sg19
S'c74424047e000000'
p220
sg21
Vmov dword ptr [esp + 4], 0x7e
p221
sg5
L135810849L
sg6
Nsg23
S'mov'
p222
sg25
S'0x8184f21L'
p223
sg27
Nsba(ibclass
BInstr
p224
(dp225
g2
Nsg17
S'mov     dword ptr [esp], 21h; lib'
p226
sg19
S'c7042421000000'
p227
sg21
Vmov dword ptr [esp], 0x21
p228
sg5
L135810857L
sg6
Nsg23
S'mov'
p229
sg25
S'0x8184f29L'
p230
sg27
Nsba(ibclass
BInstr
p231
(dp232
g2
Nsg17
S'call    ERR_put_error'
p233
sg19
S'e8fc2bfbff'
p234
sg21
Vcall 0xfffb2c01
p235
sg5
L135810864L
sg6
Nsg23
S'call'
p236
sg25
S'0x8184f30L'
p237
sg27
Nsba(ibclass
BInstr
p238
(dp239
g2
Nsg17
S'mov     eax, 0'
p240
sg19
S'b800000000'
p241
sg21
Vmov eax, 0
p242
sg5
L135810869L
sg6
Nsg23
S'mov'
p243
sg25
S'0x8184f35L'
p244
sg27
Nsba(ibclass
BInstr
p245
(dp246
g2
Nsg17
S'jmp     short loc_8184FA4'
p247
sg19
S'eb68'
p248
sg21
Vjmp 0x6a
p249
sg5
L135810874L
sg6
Nsg23
S'jmp'
p250
sg25
S'0x8184f3aL'
p251
sg27
Nsbasg91
(lp252
Vmov mem, address
p253
aVmov mem, address
p254
aVmov mem, address
p255
aVmov mem, address
p256
aVmov mem, address
p257
aVcall address
p258
ag242
aVjmp address
p259
asg100
Nsg5
S'0x8184f09L'
p260
sg102
(lp261
S'0x8184ef1L'
p262
asg6
Nsg104
(lp263
S'0x8184fa4L'
p264
asg108
Nsg109
Nsg110
S'd29cf940acec75fa9c4bd8a1e6665750'
p265
sg112
S'd96abadfc4f9ccdbf665e0cc7d4ee561'
p266
sg114
(lp267
g201
ag208
ag215
ag222
ag229
ag236
ag243
ag250
asg116
Nsba(ibclass
BBasicBlock
p268
(dp269
g12
Nsg13
(lp270
(ibclass
BInstr
p271
(dp272
g2
Nsg17
S'mov     eax, [ebp+p7]'
p273
sg19
S'8b4508'
p274
sg21
Vmov eax, dword ptr [ebp + 8]
p275
sg5
L135810876L
sg6
Nsg23
S'mov'
p276
sg25
S'0x8184f3cL'
p277
sg27
Nsba(ibclass
BInstr
p278
(dp279
g2
Nsg17
S'mov     eax, [eax+14h]'
p280
sg19
S'8b4014'
p281
sg21
Vmov eax, dword ptr [eax + 0x14]
p282
sg5
L135810879L
sg6
Nsg23
S'mov'
p283
sg25
S'0x8184f3fL'
p284
sg27
Nsba(ibclass
BInstr
p285
(dp286
g2
Nsg17
S'mov     eax, [eax+4]'
p287
sg19
S'8b4004'
p288
sg21
Vmov eax, dword ptr [eax + 4]
p289
sg5
L135810882L
sg6
Nsg23
S'mov'
p290
sg25
S'0x8184f42L'
p291
sg27
Nsba(ibclass
BInstr
p292
(dp293
g2
Nsg17
S'mov     eax, [eax+4]'
p294
sg19
S'8b4004'
p295
sg21
Vmov eax, dword ptr [eax + 4]
p296
sg5
L135810885L
sg6
Nsg23
S'mov'
p297
sg25
S'0x8184f45L'
p298
sg27
Nsba(ibclass
BInstr
p299
(dp300
g2
Nsg17
S'mov     dword ptr [eax], 5'
p301
sg19
S'c70005000000'
p302
sg21
Vmov dword ptr [eax], 5
p303
sg5
L135810888L
sg6
Nsg23
S'mov'
p304
sg25
S'0x8184f48L'
p305
sg27
Nsba(ibclass
BInstr
p306
(dp307
g2
Nsg17
S'mov     eax, [ebp+p7]'
p308
sg19
S'8b4508'
p309
sg21
Vmov eax, dword ptr [ebp + 8]
p310
sg5
L135810894L
sg6
Nsg23
S'mov'
p311
sg25
S'0x8184f4eL'
p312
sg27
Nsba(ibclass
BInstr
p313
(dp314
g2
Nsg17
S'mov     eax, [eax+14h]'
p315
sg19
S'8b4014'
p316
sg21
Vmov eax, dword ptr [eax + 0x14]
p317
sg5
L135810897L
sg6
Nsg23
S'mov'
p318
sg25
S'0x8184f51L'
p319
sg27
Nsba(ibclass
BInstr
p320
(dp321
g2
Nsg17
S'mov     ebx, [eax+4]'
p322
sg19
S'8b5804'
p323
sg21
Vmov ebx, dword ptr [eax + 4]
p324
sg5
L135810900L
sg6
Nsg23
S'mov'
p325
sg25
S'0x8184f54L'
p326
sg27
Nsba(ibclass
BInstr
p327
(dp328
g2
Nsg17
S'mov     eax, [ebp+md]'
p329
sg19
S'8b450c'
p330
sg21
Vmov eax, dword ptr [ebp + 0xc]
p331
sg5
L135810903L
sg6
Nsg23
S'mov'
p332
sg25
S'0x8184f57L'
p333
sg27
Nsba(ibclass
BInstr
p334
(dp335
g2
Nsg17
S'mov     [esp], eax      ; md'
p336
sg19
S'890424'
p337
sg21
Vmov dword ptr [esp], eax
p338
sg5
L135810906L
sg6
Nsg23
S'mov'
p339
sg25
S'0x8184f5aL'
p340
sg27
Nsba(ibclass
BInstr
p341
(dp342
g2
Nsg17
S'call    EVP_MD_type'
p343
sg19
S'e89eeefbff'
p344
sg21
Vcall 0xfffbeea3
p345
sg5
L135810909L
sg6
Nsg23
S'call'
p346
sg25
S'0x8184f5dL'
p347
sg27
Nsba(ibclass
BInstr
p348
(dp349
g2
Nsg17
S'mov     [esp], eax      ; n'
p350
sg19
S'890424'
p351
sg21
Vmov dword ptr [esp], eax
p352
sg5
L135810914L
sg6
Nsg23
S'mov'
p353
sg25
S'0x8184f62L'
p354
sg27
Nsba(ibclass
BInstr
p355
(dp356
g2
Nsg17
S'call    OBJ_nid2obj'
p357
sg19
S'e80613f6ff'
p358
sg21
Vcall 0xfff6130b
p359
sg5
L135810917L
sg6
Nsg23
S'call'
p360
sg25
S'0x8184f65L'
p361
sg27
Nsba(ibclass
BInstr
p362
(dp363
g2
Nsg17
S'mov     [ebx], eax'
p364
sg19
S'8903'
p365
sg21
Vmov dword ptr [ebx], eax
p366
sg5
L135810922L
sg6
Nsg23
S'mov'
p367
sg25
S'0x8184f6aL'
p368
sg27
Nsba(ibclass
BInstr
p369
(dp370
g2
Nsg17
S'mov     eax, 1'
p371
sg19
S'b801000000'
p372
sg21
Vmov eax, 1
p373
sg5
L135810924L
sg6
Nsg23
S'mov'
p374
sg25
S'0x8184f6cL'
p375
sg27
Nsba(ibclass
BInstr
p376
(dp377
g2
Nsg17
S'jmp     short loc_8184FA4'
p378
sg19
S'eb31'
p379
sg21
Vjmp 0x33
p380
sg5
L135810929L
sg6
Nsg23
S'jmp'
p381
sg25
S'0x8184f71L'
p382
sg27
Nsbasg91
(lp383
Vmov eax, mem
p384
aVmov eax, mem
p385
aVmov eax, mem
p386
aVmov eax, mem
p387
aVmov mem, 5
p388
aVmov eax, mem
p389
aVmov eax, mem
p390
aVmov ebx, mem
p391
aVmov eax, mem
p392
aVmov mem, eax
p393
aVcall address
p394
aVmov mem, eax
p395
aVcall address
p396
aVmov mem, eax
p397
ag373
aVjmp address
p398
asg100
Nsg5
S'0x8184f3cL'
p399
sg102
(lp400
S'0x8184ef1L'
p401
asg6
Nsg104
(lp402
S'0x8184fa4L'
p403
asg108
Nsg109
Nsg110
S'779126d6413eea9538be68d5fbf76ab9'
p404
sg112
S'51afc84f7dec314698ef96e9497f6068'
p405
sg114
(lp406
g276
ag283
ag290
ag297
ag304
ag311
ag318
ag325
ag332
ag339
ag346
ag353
ag360
ag367
ag374
ag381
asg116
Nsba(ibclass
BBasicBlock
p407
(dp408
g12
Nsg13
(lp409
(ibclass
BInstr
p410
(dp411
g2
Nsg17
S'mov     dword ptr [esp+10h], 1C8h; line'
p412
sg19
S'c7442410c8010000'
p413
sg21
Vmov dword ptr [esp + 0x10], 0x1c8
p414
sg5
L135810931L
sg6
Nsg23
S'mov'
p415
sg25
S'0x8184f73L'
p416
sg27
Nsba(ibclass
BInstr
p417
(dp418
g2
Nsg17
S'mov     dword ptr [esp+0Ch], offset aPk7_lib_c; "pk7_lib.c"'
p419
sg19
S'c744240c94ef2308'
p420
sg21
Vmov dword ptr [esp + 0xc], 0x823ef94
p421
sg5
L135810939L
sg6
Nsg23
S'mov'
p422
sg25
S'0x8184f7bL'
p423
sg27
Nsba(ibclass
BInstr
p424
(dp425
g2
Nsg17
S'mov     dword ptr [esp+8], 71h; reason'
p426
sg19
S'c744240871000000'
p427
sg21
Vmov dword ptr [esp + 8], 0x71
p428
sg5
L135810947L
sg6
Nsg23
S'mov'
p429
sg25
S'0x8184f83L'
p430
sg27
Nsba(ibclass
BInstr
p431
(dp432
g2
Nsg17
S'mov     dword ptr [esp+4], 7Eh; func'
p433
sg19
S'c74424047e000000'
p434
sg21
Vmov dword ptr [esp + 4], 0x7e
p435
sg5
L135810955L
sg6
Nsg23
S'mov'
p436
sg25
S'0x8184f8bL'
p437
sg27
Nsba(ibclass
BInstr
p438
(dp439
g2
Nsg17
S'mov     dword ptr [esp], 21h; lib'
p440
sg19
S'c7042421000000'
p441
sg21
Vmov dword ptr [esp], 0x21
p442
sg5
L135810963L
sg6
Nsg23
S'mov'
p443
sg25
S'0x8184f93L'
p444
sg27
Nsba(ibclass
BInstr
p445
(dp446
g2
Nsg17
S'call    ERR_put_error'
p447
sg19
S'e8922bfbff'
p448
sg21
Vcall 0xfffb2b97
p449
sg5
L135810970L
sg6
Nsg23
S'call'
p450
sg25
S'0x8184f9aL'
p451
sg27
Nsba(ibclass
BInstr
p452
(dp453
g2
Nsg17
S'mov     eax, 1'
p454
sg19
S'b801000000'
p455
sg21
Vmov eax, 1
p456
sg5
L135810975L
sg6
Nsg23
S'mov'
p457
sg25
S'0x8184f9fL'
p458
sg27
Nsbasg91
(lp459
Vmov mem, address
p460
aVmov mem, address
p461
aVmov mem, address
p462
aVmov mem, address
p463
aVmov mem, address
p464
aVcall address
p465
ag456
asg100
Nsg5
S'0x8184f73L'
p466
sg102
(lp467
S'0x8184ed3L'
p468
asg6
Nsg104
(lp469
S'0x8184fa4L'
p470
asg108
Nsg109
Nsg110
S'edce754990a112d5c612361ff95c2420'
p471
sg112
S'08c472b58d7f46fd0c6356ddeba8515b'
p472
sg114
(lp473
g415
ag422
ag429
ag436
ag443
ag450
ag457
asg116
Nsba(ibclass
BBasicBlock
p474
(dp475
g12
Nsg13
(lp476
(ibclass
BInstr
p477
(dp478
g2
Nsg17
S'add     esp, 24h'
p479
sg19
S'83c424'
p480
sg21
Vadd esp, 0x24
p481
sg5
L135810980L
sg6
Nsg23
S'add'
p482
sg25
S'0x8184fa4L'
p483
sg27
Nsba(ibclass
BInstr
p484
(dp485
g2
Nsg17
S'pop     ebx'
p486
sg19
S'5b'
p487
sg21
Vpop ebx
p488
sg5
L135810983L
sg6
Nsg23
S'pop'
p489
sg25
S'0x8184fa7L'
p490
sg27
Nsba(ibclass
BInstr
p491
(dp492
g2
Nsg17
S'pop     ebp'
p493
sg19
S'5d'
p494
sg21
Vpop ebp
p495
sg5
L135810984L
sg6
Nsg23
S'pop'
p496
sg25
S'0x8184fa8L'
p497
sg27
Nsba(ibclass
BInstr
p498
(dp499
g2
Nsg17
S'retn'
p500
sg19
S'c3'
p501
sg21
Vret 
p502
sg5
L135810985L
sg6
Nsg23
S'retn'
p503
sg25
S'0x8184fa9L'
p504
sg27
Nsbasg91
(lp505
Vadd esp, address
p506
ag488
ag495
aVret
p507
asg100
Nsg5
S'0x8184fa4L'
p508
sg102
(lp509
S'0x8184f09L'
p510
aS'0x8184f3cL'
p511
aS'0x8184f73L'
p512
asg6
Nsg104
(lp513
sg108
Nsg109
Nsg110
S'4d1981a678d0c70281d5161c3174b44c'
p514
sg112
S'd4189a9002395f50ce2cc84f459d3b62'
p515
sg114
(lp516
g482
ag489
ag496
ag503
asg116
Nsbasb.