(ibclass
BFunc
p0
(dp1
S'hash'
p2
NsS'name'
p3
S'TS_OBJ_print_bio'
p4
sS'start_address'
p5
L135926198L
sS'flag'
p6
NsS'program'
p7
NsS'bbs'
p8
(lp9
(ibclass
BBasicBlock
p10
(dp11
S'function'
p12
NsS'binstrs'
p13
(lp14
(ibclass
BInstr
p15
(dp16
g2
NsS'disasm'
p17
S'push    ebp'
p18
sS'bytes'
p19
S'55'
p20
sS'disasm_striped'
p21
Vpush ebp
p22
sg5
L135926198L
sg6
NsS'mnem'
p23
S'push'
p24
sS'address'
p25
S'0x81a11b6L'
p26
sS'basicblock'
p27
Nsba(ibclass
BInstr
p28
(dp29
g2
Nsg17
S'mov     ebp, esp'
p30
sg19
S'89e5'
p31
sg21
Vmov ebp, esp
p32
sg5
L135926199L
sg6
Nsg23
S'mov'
p33
sg25
S'0x81a11b7L'
p34
sg27
Nsba(ibclass
BInstr
p35
(dp36
g2
Nsg17
S'sub     esp, 0B8h'
p37
sg19
S'81ecb8000000'
p38
sg21
Vsub esp, 0xb8
p39
sg5
L135926201L
sg6
Nsg23
S'sub'
p40
sg25
S'0x81a11b9L'
p41
sg27
Nsba(ibclass
BInstr
p42
(dp43
g2
Nsg17
S'mov     eax, [ebp+arg_0]'
p44
sg19
S'8b4508'
p45
sg21
Vmov eax, dword ptr [ebp + 8]
p46
sg5
L135926207L
sg6
Nsg23
S'mov'
p47
sg25
S'0x81a11bfL'
p48
sg27
Nsba(ibclass
BInstr
p49
(dp50
g2
Nsg17
S'mov     [ebp+bio], eax'
p51
sg19
S'898564ffffff'
p52
sg21
Vmov dword ptr [ebp - 0x9c], eax
p53
sg5
L135926210L
sg6
Nsg23
S'mov'
p54
sg25
S'0x81a11c2L'
p55
sg27
Nsba(ibclass
BInstr
p56
(dp57
g2
Nsg17
S'mov     eax, [ebp+arg_4]'
p58
sg19
S'8b450c'
p59
sg21
Vmov eax, dword ptr [ebp + 0xc]
p60
sg5
L135926216L
sg6
Nsg23
S'mov'
p61
sg25
S'0x81a11c8L'
p62
sg27
Nsba(ibclass
BInstr
p63
(dp64
g2
Nsg17
S'mov     [ebp+obj], eax'
p65
sg19
S'898560ffffff'
p66
sg21
Vmov dword ptr [ebp - 0xa0], eax
p67
sg5
L135926219L
sg6
Nsg23
S'mov'
p68
sg25
S'0x81a11cbL'
p69
sg27
Nsba(ibclass
BInstr
p70
(dp71
g2
Nsg17
S'mov     eax, large gs:14h'
p72
sg19
S'65a114000000'
p73
sg21
Vmov eax, dword ptr gs:[0x14]
p74
sg5
L135926225L
sg6
Nsg23
S'mov'
p75
sg25
S'0x81a11d1L'
p76
sg27
Nsba(ibclass
BInstr
p77
(dp78
g2
Nsg17
S'mov     [ebp+var_C], eax'
p79
sg19
S'8945f4'
p80
sg21
Vmov dword ptr [ebp - 0xc], eax
p81
sg5
L135926231L
sg6
Nsg23
S'mov'
p82
sg25
S'0x81a11d7L'
p83
sg27
Nsba(ibclass
BInstr
p84
(dp85
g2
Nsg17
S'xor     eax, eax'
p86
sg19
S'31c0'
p87
sg21
Vxor eax, eax
p88
sg5
L135926234L
sg6
Nsg23
S'xor'
p89
sg25
S'0x81a11daL'
p90
sg27
Nsba(ibclass
BInstr
p91
(dp92
g2
Nsg17
S'mov     dword ptr [esp+0Ch], 0; no_name'
p93
sg19
S'c744240c00000000'
p94
sg21
Vmov dword ptr [esp + 0xc], 0
p95
sg5
L135926236L
sg6
Nsg23
S'mov'
p96
sg25
S'0x81a11dcL'
p97
sg27
Nsba(ibclass
BInstr
p98
(dp99
g2
Nsg17
S'mov     eax, [ebp+obj]'
p100
sg19
S'8b8560ffffff'
p101
sg21
Vmov eax, dword ptr [ebp - 0xa0]
p102
sg5
L135926244L
sg6
Nsg23
S'mov'
p103
sg25
S'0x81a11e4L'
p104
sg27
Nsba(ibclass
BInstr
p105
(dp106
g2
Nsg17
S'mov     [esp+8], eax    ; a'
p107
sg19
S'89442408'
p108
sg21
Vmov dword ptr [esp + 8], eax
p109
sg5
L135926250L
sg6
Nsg23
S'mov'
p110
sg25
S'0x81a11eaL'
p111
sg27
Nsba(ibclass
BInstr
p112
(dp113
g2
Nsg17
S'mov     dword ptr [esp+4], 80h; buf_len'
p114
sg19
S'c744240480000000'
p115
sg21
Vmov dword ptr [esp + 4], 0x80
p116
sg5
L135926254L
sg6
Nsg23
S'mov'
p117
sg25
S'0x81a11eeL'
p118
sg27
Nsba(ibclass
BInstr
p119
(dp120
g2
Nsg17
S'lea     eax, [ebp+obj_txt]'
p121
sg19
S'8d8574ffffff'
p122
sg21
Vlea eax, [ebp - 0x8c]
p123
sg5
L135926262L
sg6
Nsg23
S'lea'
p124
sg25
S'0x81a11f6L'
p125
sg27
Nsba(ibclass
BInstr
p126
(dp127
g2
Nsg17
S'mov     [esp], eax      ; buf'
p128
sg19
S'890424'
p129
sg21
Vmov dword ptr [esp], eax
p130
sg5
L135926268L
sg6
Nsg23
S'mov'
p131
sg25
S'0x81a11fcL'
p132
sg27
Nsba(ibclass
BInstr
p133
(dp134
g2
Nsg17
S'call    OBJ_obj2txt'
p135
sg19
S'e84c56f4ff'
p136
sg21
Vcall 0xfff45651
p137
sg5
L135926271L
sg6
Nsg23
S'call'
p138
sg25
S'0x81a11ffL'
p139
sg27
Nsba(ibclass
BInstr
p140
(dp141
g2
Nsg17
S'mov     [ebp+len], eax'
p142
sg19
S'898570ffffff'
p143
sg21
Vmov dword ptr [ebp - 0x90], eax
p144
sg5
L135926276L
sg6
Nsg23
S'mov'
p145
sg25
S'0x81a1204L'
p146
sg27
Nsba(ibclass
BInstr
p147
(dp148
g2
Nsg17
S'mov     eax, [ebp+len]'
p149
sg19
S'8b8570ffffff'
p150
sg21
Vmov eax, dword ptr [ebp - 0x90]
p151
sg5
L135926282L
sg6
Nsg23
S'mov'
p152
sg25
S'0x81a120aL'
p153
sg27
Nsba(ibclass
BInstr
p154
(dp155
g2
Nsg17
S'mov     [esp+8], eax    ; inl'
p156
sg19
S'89442408'
p157
sg21
Vmov dword ptr [esp + 8], eax
p158
sg5
L135926288L
sg6
Nsg23
S'mov'
p159
sg25
S'0x81a1210L'
p160
sg27
Nsba(ibclass
BInstr
p161
(dp162
g2
Nsg17
S'lea     eax, [ebp+obj_txt]'
p163
sg19
S'8d8574ffffff'
p164
sg21
Vlea eax, [ebp - 0x8c]
p165
sg5
L135926292L
sg6
Nsg23
S'lea'
p166
sg25
S'0x81a1214L'
p167
sg27
Nsba(ibclass
BInstr
p168
(dp169
g2
Nsg17
S'mov     [esp+4], eax    ; in'
p170
sg19
S'89442404'
p171
sg21
Vmov dword ptr [esp + 4], eax
p172
sg5
L135926298L
sg6
Nsg23
S'mov'
p173
sg25
S'0x81a121aL'
p174
sg27
Nsba(ibclass
BInstr
p175
(dp176
g2
Nsg17
S'mov     eax, [ebp+bio]'
p177
sg19
S'8b8564ffffff'
p178
sg21
Vmov eax, dword ptr [ebp - 0x9c]
p179
sg5
L135926302L
sg6
Nsg23
S'mov'
p180
sg25
S'0x81a121eL'
p181
sg27
Nsba(ibclass
BInstr
p182
(dp183
g2
Nsg17
S'mov     [esp], eax      ; b'
p184
sg19
S'890424'
p185
sg21
Vmov dword ptr [esp], eax
p186
sg5
L135926308L
sg6
Nsg23
S'mov'
p187
sg25
S'0x81a1224L'
p188
sg27
Nsba(ibclass
BInstr
p189
(dp190
g2
Nsg17
S'call    BIO_write'
p191
sg19
S'e858b1f8ff'
p192
sg21
Vcall 0xfff8b15d
p193
sg5
L135926311L
sg6
Nsg23
S'call'
p194
sg25
S'0x81a1227L'
p195
sg27
Nsba(ibclass
BInstr
p196
(dp197
g2
Nsg17
S'mov     dword ptr [esp+8], 1; inl'
p198
sg19
S'c744240801000000'
p199
sg21
Vmov dword ptr [esp + 8], 1
p200
sg5
L135926316L
sg6
Nsg23
S'mov'
p201
sg25
S'0x81a122cL'
p202
sg27
Nsba(ibclass
BInstr
p203
(dp204
g2
Nsg17
S'mov     dword ptr [esp+4], offset asc_824476A; "\\n"'
p205
sg19
S'c74424046a472408'
p206
sg21
Vmov dword ptr [esp + 4], 0x824476a
p207
sg5
L135926324L
sg6
Nsg23
S'mov'
p208
sg25
S'0x81a1234L'
p209
sg27
Nsba(ibclass
BInstr
p210
(dp211
g2
Nsg17
S'mov     eax, [ebp+bio]'
p212
sg19
S'8b8564ffffff'
p213
sg21
Vmov eax, dword ptr [ebp - 0x9c]
p214
sg5
L135926332L
sg6
Nsg23
S'mov'
p215
sg25
S'0x81a123cL'
p216
sg27
Nsba(ibclass
BInstr
p217
(dp218
g2
Nsg17
S'mov     [esp], eax      ; b'
p219
sg19
S'890424'
p220
sg21
Vmov dword ptr [esp], eax
p221
sg5
L135926338L
sg6
Nsg23
S'mov'
p222
sg25
S'0x81a1242L'
p223
sg27
Nsba(ibclass
BInstr
p224
(dp225
g2
Nsg17
S'call    BIO_write'
p226
sg19
S'e83ab1f8ff'
p227
sg21
Vcall 0xfff8b13f
p228
sg5
L135926341L
sg6
Nsg23
S'call'
p229
sg25
S'0x81a1245L'
p230
sg27
Nsba(ibclass
BInstr
p231
(dp232
g2
Nsg17
S'mov     eax, 1'
p233
sg19
S'b801000000'
p234
sg21
Vmov eax, 1
p235
sg5
L135926346L
sg6
Nsg23
S'mov'
p236
sg25
S'0x81a124aL'
p237
sg27
Nsba(ibclass
BInstr
p238
(dp239
g2
Nsg17
S'mov     edx, [ebp+var_C]'
p240
sg19
S'8b55f4'
p241
sg21
Vmov edx, dword ptr [ebp - 0xc]
p242
sg5
L135926351L
sg6
Nsg23
S'mov'
p243
sg25
S'0x81a124fL'
p244
sg27
Nsba(ibclass
BInstr
p245
(dp246
g2
Nsg17
S'xor     edx, large gs:14h'
p247
sg19
S'65331514000000'
p248
sg21
Vxor edx, dword ptr gs:[0x14]
p249
sg5
L135926354L
sg6
Nsg23
S'xor'
p250
sg25
S'0x81a1252L'
p251
sg27
Nsba(ibclass
BInstr
p252
(dp253
g2
Nsg17
S'jz      short locret_81A1260'
p254
sg19
S'7405'
p255
sg21
Vje 7
p256
sg5
L135926361L
sg6
Nsg23
S'jz'
p257
sg25
S'0x81a1259L'
p258
sg27
NsbasS'disasm_list'
p259
(lp260
g22
ag32
aVsub esp, address
p261
aVmov eax, mem
p262
aVmov mem, eax
p263
aVmov eax, mem
p264
aVmov mem, eax
p265
aVmov eax, gs:mem
p266
aVmov mem, eax
p267
ag88
aVmov mem, 0
p268
aVmov eax, mem
p269
aVmov mem, eax
p270
aVmov mem, address
p271
aVlea eax, mem
p272
aVmov mem, eax
p273
aVcall address
p274
aVmov mem, eax
p275
aVmov eax, mem
p276
aVmov mem, eax
p277
aVlea eax, mem
p278
aVmov mem, eax
p279
aVmov eax, mem
p280
aVmov mem, eax
p281
aVcall address
p282
aVmov mem, 1
p283
aVmov mem, address
p284
aVmov eax, mem
p285
aVmov mem, eax
p286
aVcall address
p287
ag235
aVmov edx, mem
p288
aVxor edx, gs:mem
p289
ag256
asS'end_address'
p290
Nsg5
S'0x81a11b6L'
p291
sS'preds'
p292
(lp293
sg6
NsS'succs'
p294
(lp295
S'0x81a125bL'
p296
aS'0x81a1260L'
p297
asS'hash_v3'
p298
NsS'flag_v2'
p299
NsS'hash_v1'
p300
S'032ee5017b1c913afa859fe21c38e7fc'
p301
sS'hash_v2'
p302
S'060360c869ce2d29104a37b1f7f056ea'
p303
sS'mnen_list'
p304
(lp305
g24
ag33
ag40
ag47
ag54
ag61
ag68
ag75
ag82
ag89
ag96
ag103
ag110
ag117
ag124
ag131
ag138
ag145
ag152
ag159
ag166
ag173
ag180
ag187
ag194
ag201
ag208
ag215
ag222
ag229
ag236
ag243
ag250
ag257
asS'neighbour_disasm_list'
p306
Nsba(ibclass
BBasicBlock
p307
(dp308
g12
Nsg13
(lp309
(ibclass
BInstr
p310
(dp311
g2
Nsg17
S'call    ___stack_chk_fail'
p312
sg19
S'e8e083eaff'
p313
sg21
Vcall 0xffea83e5
p314
sg5
L135926363L
sg6
Nsg23
S'call'
p315
sg25
S'0x81a125bL'
p316
sg27
Nsbasg259
(lp317
Vcall address
p318
asg290
Nsg5
S'0x81a125bL'
p319
sg292
(lp320
S'0x81a11b6L'
p321
asg6
Nsg294
(lp322
sg298
Nsg299
Nsg300
S'53b9e9679a8ea25880376080b76f98ad'
p323
sg302
S'5c3539e46d089242d4a47b64016c87be'
p324
sg304
(lp325
g315
asg306
Nsba(ibclass
BBasicBlock
p326
(dp327
g12
Nsg13
(lp328
(ibclass
BInstr
p329
(dp330
g2
Nsg17
S'leave'
p331
sg19
S'c9'
p332
sg21
Vleave 
p333
sg5
L135926368L
sg6
Nsg23
S'leave'
p334
sg25
S'0x81a1260L'
p335
sg27
Nsba(ibclass
BInstr
p336
(dp337
g2
Nsg17
S'retn'
p338
sg19
S'c3'
p339
sg21
Vret 
p340
sg5
L135926369L
sg6
Nsg23
S'retn'
p341
sg25
S'0x81a1261L'
p342
sg27
Nsbasg259
(lp343
Vleave
p344
aVret
p345
asg290
Nsg5
S'0x81a1260L'
p346
sg292
(lp347
S'0x81a11b6L'
p348
asg6
Nsg294
(lp349
sg298
Nsg299
Nsg300
S'08c78f73a6f87c85da88b2982f54ce2a'
p350
sg302
S'393fee3c9fb1d26424d4b7704918e387'
p351
sg304
(lp352
g334
ag341
asg306
Nsbasb.