(ibclass
BFunc
p0
(dp1
S'hash'
p2
NsS'name'
p3
S'BN_to_ASN1_INTEGER'
p4
sS'start_address'
p5
L135572778L
sS'flag'
p6
NsS'program'
p7
NsS'bbs'
p8
(lp9
(ibclass
BBasicBlock
p10
(dp11
S'function'
p12
NsS'binstrs'
p13
(lp14
(ibclass
BInstr
p15
(dp16
g2
NsS'disasm'
p17
S'push    ebp'
p18
sS'bytes'
p19
S'55'
p20
sS'disasm_striped'
p21
Vpush ebp
p22
sg5
L135572778L
sg6
NsS'mnem'
p23
S'push'
p24
sS'address'
p25
S'0x814ad2aL'
p26
sS'basicblock'
p27
Nsba(ibclass
BInstr
p28
(dp29
g2
Nsg17
S'mov     ebp, esp'
p30
sg19
S'89e5'
p31
sg21
Vmov ebp, esp
p32
sg5
L135572779L
sg6
Nsg23
S'mov'
p33
sg25
S'0x814ad2bL'
p34
sg27
Nsba(ibclass
BInstr
p35
(dp36
g2
Nsg17
S'sub     esp, 38h'
p37
sg19
S'83ec38'
p38
sg21
Vsub esp, 0x38
p39
sg5
L135572781L
sg6
Nsg23
S'sub'
p40
sg25
S'0x814ad2dL'
p41
sg27
Nsba(ibclass
BInstr
p42
(dp43
g2
Nsg17
S'cmp     [ebp+ai], 0'
p44
sg19
S'837d0c00'
p45
sg21
Vcmp dword ptr [ebp + 0xc], 0
p46
sg5
L135572784L
sg6
Nsg23
S'cmp'
p47
sg25
S'0x814ad30L'
p48
sg27
Nsba(ibclass
BInstr
p49
(dp50
g2
Nsg17
S'jnz     short loc_814AD47'
p51
sg19
S'7511'
p52
sg21
Vjne 0x13
p53
sg5
L135572788L
sg6
Nsg23
S'jnz'
p54
sg25
S'0x814ad34L'
p55
sg27
NsbasS'disasm_list'
p56
(lp57
g22
ag32
aVsub esp, address
p58
aVcmp mem, 0
p59
aVjne address
p60
asS'end_address'
p61
Nsg5
S'0x814ad2aL'
p62
sS'preds'
p63
(lp64
sg6
NsS'succs'
p65
(lp66
S'0x814ad36L'
p67
aS'0x814ad47L'
p68
asS'hash_v3'
p69
NsS'flag_v2'
p70
NsS'hash_v1'
p71
S'210a37928dd2097087c285e2bbd4b5b4'
p72
sS'hash_v2'
p73
S'0e40077d930511e9164bcfa466d38cd2'
p74
sS'mnen_list'
p75
(lp76
g24
ag33
ag40
ag47
ag54
asS'neighbour_disasm_list'
p77
Nsba(ibclass
BBasicBlock
p78
(dp79
g12
Nsg13
(lp80
(ibclass
BInstr
p81
(dp82
g2
Nsg17
S'mov     dword ptr [esp], 2; type'
p83
sg19
S'c7042402000000'
p84
sg21
Vmov dword ptr [esp], 2
p85
sg5
L135572790L
sg6
Nsg23
S'mov'
p86
sg25
S'0x814ad36L'
p87
sg27
Nsba(ibclass
BInstr
p88
(dp89
g2
Nsg17
S'call    ASN1_STRING_type_new'
p90
sg19
S'e87a230100'
p91
sg21
Vcall 0x1237f
p92
sg5
L135572797L
sg6
Nsg23
S'call'
p93
sg25
S'0x814ad3dL'
p94
sg27
Nsba(ibclass
BInstr
p95
(dp96
g2
Nsg17
S'mov     [ebp+ret], eax'
p97
sg19
S'8945e8'
p98
sg21
Vmov dword ptr [ebp - 0x18], eax
p99
sg5
L135572802L
sg6
Nsg23
S'mov'
p100
sg25
S'0x814ad42L'
p101
sg27
Nsba(ibclass
BInstr
p102
(dp103
g2
Nsg17
S'jmp     short loc_814AD4D'
p104
sg19
S'eb06'
p105
sg21
Vjmp 8
p106
sg5
L135572805L
sg6
Nsg23
S'jmp'
p107
sg25
S'0x814ad45L'
p108
sg27
Nsbasg56
(lp109
Vmov mem, 2
p110
aVcall address
p111
aVmov mem, eax
p112
ag106
asg61
Nsg5
S'0x814ad36L'
p113
sg63
(lp114
S'0x814ad2aL'
p115
asg6
Nsg65
(lp116
S'0x814ad4dL'
p117
asg69
Nsg70
Nsg71
S'9e315c5c78a8925ee1678d5873370548'
p118
sg73
S'117bd2954aa380384120bcc683b0a7bc'
p119
sg75
(lp120
g86
ag93
ag100
ag107
asg77
Nsba(ibclass
BBasicBlock
p121
(dp122
g12
Nsg13
(lp123
(ibclass
BInstr
p124
(dp125
g2
Nsg17
S'mov     eax, [ebp+ai]'
p126
sg19
S'8b450c'
p127
sg21
Vmov eax, dword ptr [ebp + 0xc]
p128
sg5
L135572807L
sg6
Nsg23
S'mov'
p129
sg25
S'0x814ad47L'
p130
sg27
Nsba(ibclass
BInstr
p131
(dp132
g2
Nsg17
S'mov     [ebp+ret], eax'
p133
sg19
S'8945e8'
p134
sg21
Vmov dword ptr [ebp - 0x18], eax
p135
sg5
L135572810L
sg6
Nsg23
S'mov'
p136
sg25
S'0x814ad4aL'
p137
sg27
Nsbasg56
(lp138
Vmov eax, mem
p139
aVmov mem, eax
p140
asg61
Nsg5
S'0x814ad47L'
p141
sg63
(lp142
S'0x814ad2aL'
p143
asg6
Nsg65
(lp144
S'0x814ad4dL'
p145
asg69
Nsg70
Nsg71
S'70939fd8153af5d63d1bcbdb14592b28'
p146
sg73
S'd88242b01c09e28f3fcbb05103855f98'
p147
sg75
(lp148
g129
ag136
asg77
Nsba(ibclass
BBasicBlock
p149
(dp150
g12
Nsg13
(lp151
(ibclass
BInstr
p152
(dp153
g2
Nsg17
S'cmp     [ebp+ret], 0'
p154
sg19
S'837de800'
p155
sg21
Vcmp dword ptr [ebp - 0x18], 0
p156
sg5
L135572813L
sg6
Nsg23
S'cmp'
p157
sg25
S'0x814ad4dL'
p158
sg27
Nsba(ibclass
BInstr
p159
(dp160
g2
Nsg17
S'jnz     short loc_814AD84'
p161
sg19
S'7531'
p162
sg21
Vjne 0x33
p163
sg5
L135572817L
sg6
Nsg23
S'jnz'
p164
sg25
S'0x814ad51L'
p165
sg27
Nsbasg56
(lp166
Vcmp mem, 0
p167
aVjne address
p168
asg61
Nsg5
S'0x814ad4dL'
p169
sg63
(lp170
S'0x814ad36L'
p171
aS'0x814ad47L'
p172
asg6
Nsg65
(lp173
S'0x814ad53L'
p174
aS'0x814ad84L'
p175
asg69
Nsg70
Nsg71
S'30cb3d6f6a174adfabcde507f6944a52'
p176
sg73
S'ac6a5deb49a2d2e7162632941da7e135'
p177
sg75
(lp178
g157
ag164
asg77
Nsba(ibclass
BBasicBlock
p179
(dp180
g12
Nsg13
(lp181
(ibclass
BInstr
p182
(dp183
g2
Nsg17
S'mov     dword ptr [esp+10h], 19Fh; line'
p184
sg19
S'c74424109f010000'
p185
sg21
Vmov dword ptr [esp + 0x10], 0x19f
p186
sg5
L135572819L
sg6
Nsg23
S'mov'
p187
sg25
S'0x814ad53L'
p188
sg27
Nsba(ibclass
BInstr
p189
(dp190
g2
Nsg17
S'mov     dword ptr [esp+0Ch], offset aA_int_c; "a_int.c"'
p191
sg19
S'c744240c1b612308'
p192
sg21
Vmov dword ptr [esp + 0xc], 0x823611b
p193
sg5
L135572827L
sg6
Nsg23
S'mov'
p194
sg25
S'0x814ad5bL'
p195
sg27
Nsba(ibclass
BInstr
p196
(dp197
g2
Nsg17
S'mov     dword ptr [esp+8], 3Ah; reason'
p198
sg19
S'c74424083a000000'
p199
sg21
Vmov dword ptr [esp + 8], 0x3a
p200
sg5
L135572835L
sg6
Nsg23
S'mov'
p201
sg25
S'0x814ad63L'
p202
sg27
Nsba(ibclass
BInstr
p203
(dp204
g2
Nsg17
S'mov     dword ptr [esp+4], 8Bh; func'
p205
sg19
S'c74424048b000000'
p206
sg21
Vmov dword ptr [esp + 4], 0x8b
p207
sg5
L135572843L
sg6
Nsg23
S'mov'
p208
sg25
S'0x814ad6bL'
p209
sg27
Nsba(ibclass
BInstr
p210
(dp211
g2
Nsg17
S'mov     dword ptr [esp], 0Dh; lib'
p212
sg19
S'c704240d000000'
p213
sg21
Vmov dword ptr [esp], 0xd
p214
sg5
L135572851L
sg6
Nsg23
S'mov'
p215
sg25
S'0x814ad73L'
p216
sg27
Nsba(ibclass
BInstr
p217
(dp218
g2
Nsg17
S'call    ERR_put_error'
p219
sg19
S'e832cefeff'
p220
sg21
Vcall 0xfffece37
p221
sg5
L135572858L
sg6
Nsg23
S'call'
p222
sg25
S'0x814ad7aL'
p223
sg27
Nsba(ibclass
BInstr
p224
(dp225
g2
Nsg17
S'jmp     err'
p226
sg19
S'e9fd000000'
p227
sg21
Vjmp 0x102
p228
sg5
L135572863L
sg6
Nsg23
S'jmp'
p229
sg25
S'0x814ad7fL'
p230
sg27
Nsbasg56
(lp231
Vmov mem, address
p232
aVmov mem, address
p233
aVmov mem, address
p234
aVmov mem, address
p235
aVmov mem, address
p236
aVcall address
p237
aVjmp address
p238
asg61
Nsg5
S'0x814ad53L'
p239
sg63
(lp240
S'0x814ad4dL'
p241
asg6
Nsg65
(lp242
S'0x814ae81L'
p243
asg69
Nsg70
Nsg71
S'a76a0a3b827ea6cd402bf72e182d1d25'
p244
sg73
S'5c79c7459a4742ab4e6fe5fb7b7e4c8d'
p245
sg75
(lp246
g187
ag194
ag201
ag208
ag215
ag222
ag229
asg77
Nsba(ibclass
BBasicBlock
p247
(dp248
g12
Nsg13
(lp249
(ibclass
BInstr
p250
(dp251
g2
Nsg17
S'mov     eax, [ebp+bn]'
p252
sg19
S'8b4508'
p253
sg21
Vmov eax, dword ptr [ebp + 8]
p254
sg5
L135572868L
sg6
Nsg23
S'mov'
p255
sg25
S'0x814ad84L'
p256
sg27
Nsba(ibclass
BInstr
p257
(dp258
g2
Nsg17
S'mov     eax, [eax+0Ch]'
p259
sg19
S'8b400c'
p260
sg21
Vmov eax, dword ptr [eax + 0xc]
p261
sg5
L135572871L
sg6
Nsg23
S'mov'
p262
sg25
S'0x814ad87L'
p263
sg27
Nsba(ibclass
BInstr
p264
(dp265
g2
Nsg17
S'test    eax, eax'
p266
sg19
S'85c0'
p267
sg21
Vtest eax, eax
p268
sg5
L135572874L
sg6
Nsg23
S'test'
p269
sg25
S'0x814ad8aL'
p270
sg27
Nsba(ibclass
BInstr
p271
(dp272
g2
Nsg17
S'jz      short loc_814AD9A'
p273
sg19
S'740c'
p274
sg21
Vje 0xe
p275
sg5
L135572876L
sg6
Nsg23
S'jz'
p276
sg25
S'0x814ad8cL'
p277
sg27
Nsbasg56
(lp278
Vmov eax, mem
p279
aVmov eax, mem
p280
ag268
aVje address
p281
asg61
Nsg5
S'0x814ad84L'
p282
sg63
(lp283
S'0x814ad4dL'
p284
asg6
Nsg65
(lp285
S'0x814ad8eL'
p286
aS'0x814ad9aL'
p287
asg69
Nsg70
Nsg71
S'ea5d08c7dcc07640d42787f826218f11'
p288
sg73
S'103b924e2a82731ce51d187b2e41af3a'
p289
sg75
(lp290
g255
ag262
ag269
ag276
asg77
Nsba(ibclass
BBasicBlock
p291
(dp292
g12
Nsg13
(lp293
(ibclass
BInstr
p294
(dp295
g2
Nsg17
S'mov     eax, [ebp+ret]'
p296
sg19
S'8b45e8'
p297
sg21
Vmov eax, dword ptr [ebp - 0x18]
p298
sg5
L135572878L
sg6
Nsg23
S'mov'
p299
sg25
S'0x814ad8eL'
p300
sg27
Nsba(ibclass
BInstr
p301
(dp302
g2
Nsg17
S'mov     dword ptr [eax+4], 102h'
p303
sg19
S'c7400402010000'
p304
sg21
Vmov dword ptr [eax + 4], 0x102
p305
sg5
L135572881L
sg6
Nsg23
S'mov'
p306
sg25
S'0x814ad91L'
p307
sg27
Nsba(ibclass
BInstr
p308
(dp309
g2
Nsg17
S'jmp     short loc_814ADA4'
p310
sg19
S'eb0a'
p311
sg21
Vjmp 0xc
p312
sg5
L135572888L
sg6
Nsg23
S'jmp'
p313
sg25
S'0x814ad98L'
p314
sg27
Nsbasg56
(lp315
Vmov eax, mem
p316
aVmov mem, address
p317
aVjmp address
p318
asg61
Nsg5
S'0x814ad8eL'
p319
sg63
(lp320
S'0x814ad84L'
p321
asg6
Nsg65
(lp322
S'0x814ada4L'
p323
asg69
Nsg70
Nsg71
S'20cd1770826306b20d13fbc820a22512'
p324
sg73
S'efd24252697680b1b6986131f6e00a2f'
p325
sg75
(lp326
g299
ag306
ag313
asg77
Nsba(ibclass
BBasicBlock
p327
(dp328
g12
Nsg13
(lp329
(ibclass
BInstr
p330
(dp331
g2
Nsg17
S'mov     eax, [ebp+ret]'
p332
sg19
S'8b45e8'
p333
sg21
Vmov eax, dword ptr [ebp - 0x18]
p334
sg5
L135572890L
sg6
Nsg23
S'mov'
p335
sg25
S'0x814ad9aL'
p336
sg27
Nsba(ibclass
BInstr
p337
(dp338
g2
Nsg17
S'mov     dword ptr [eax+4], 2'
p339
sg19
S'c7400402000000'
p340
sg21
Vmov dword ptr [eax + 4], 2
p341
sg5
L135572893L
sg6
Nsg23
S'mov'
p342
sg25
S'0x814ad9dL'
p343
sg27
Nsbasg56
(lp344
Vmov eax, mem
p345
aVmov mem, 2
p346
asg61
Nsg5
S'0x814ad9aL'
p347
sg63
(lp348
S'0x814ad84L'
p349
asg6
Nsg65
(lp350
S'0x814ada4L'
p351
asg69
Nsg70
Nsg71
S'70939fd8153af5d63d1bcbdb14592b28'
p352
sg73
S'73b9d13be43c5113f89d86a05dc44dea'
p353
sg75
(lp354
g335
ag342
asg77
Nsba(ibclass
BBasicBlock
p355
(dp356
g12
Nsg13
(lp357
(ibclass
BInstr
p358
(dp359
g2
Nsg17
S'mov     eax, [ebp+bn]'
p360
sg19
S'8b4508'
p361
sg21
Vmov eax, dword ptr [ebp + 8]
p362
sg5
L135572900L
sg6
Nsg23
S'mov'
p363
sg25
S'0x814ada4L'
p364
sg27
Nsba(ibclass
BInstr
p365
(dp366
g2
Nsg17
S'mov     [esp], eax      ; a'
p367
sg19
S'890424'
p368
sg21
Vmov dword ptr [esp], eax
p369
sg5
L135572903L
sg6
Nsg23
S'mov'
p370
sg25
S'0x814ada7L'
p371
sg27
Nsba(ibclass
BInstr
p372
(dp373
g2
Nsg17
S'call    BN_num_bits'
p374
sg19
S'e876a0fbff'
p375
sg21
Vcall 0xfffba07b
p376
sg5
L135572906L
sg6
Nsg23
S'call'
p377
sg25
S'0x814adaaL'
p378
sg27
Nsba(ibclass
BInstr
p379
(dp380
g2
Nsg17
S'mov     [ebp+j], eax'
p381
sg19
S'8945ec'
p382
sg21
Vmov dword ptr [ebp - 0x14], eax
p383
sg5
L135572911L
sg6
Nsg23
S'mov'
p384
sg25
S'0x814adafL'
p385
sg27
Nsba(ibclass
BInstr
p386
(dp387
g2
Nsg17
S'cmp     [ebp+j], 0'
p388
sg19
S'837dec00'
p389
sg21
Vcmp dword ptr [ebp - 0x14], 0
p390
sg5
L135572914L
sg6
Nsg23
S'cmp'
p391
sg25
S'0x814adb2L'
p392
sg27
Nsba(ibclass
BInstr
p393
(dp394
g2
Nsg17
S'jz      short loc_814ADC8'
p395
sg19
S'7410'
p396
sg21
Vje 0x12
p397
sg5
L135572918L
sg6
Nsg23
S'jz'
p398
sg25
S'0x814adb6L'
p399
sg27
Nsbasg56
(lp400
Vmov eax, mem
p401
aVmov mem, eax
p402
aVcall address
p403
aVmov mem, eax
p404
aVcmp mem, 0
p405
aVje address
p406
asg61
Nsg5
S'0x814ada4L'
p407
sg63
(lp408
S'0x814ad8eL'
p409
aS'0x814ad9aL'
p410
asg6
Nsg65
(lp411
S'0x814adb8L'
p412
aS'0x814adc8L'
p413
asg69
Nsg70
Nsg71
S'2893a48ca686d52a2339ece017f28350'
p414
sg73
S'85d030c5418f48c0bc42f37950c76bb2'
p415
sg75
(lp416
g363
ag370
ag377
ag384
ag391
ag398
asg77
Nsba(ibclass
BBasicBlock
p417
(dp418
g12
Nsg13
(lp419
(ibclass
BInstr
p420
(dp421
g2
Nsg17
S'mov     eax, [ebp+j]'
p422
sg19
S'8b45ec'
p423
sg21
Vmov eax, dword ptr [ebp - 0x14]
p424
sg5
L135572920L
sg6
Nsg23
S'mov'
p425
sg25
S'0x814adb8L'
p426
sg27
Nsba(ibclass
BInstr
p427
(dp428
g2
Nsg17
S'test    eax, eax'
p429
sg19
S'85c0'
p430
sg21
Vtest eax, eax
p431
sg5
L135572923L
sg6
Nsg23
S'test'
p432
sg25
S'0x814adbbL'
p433
sg27
Nsba(ibclass
BInstr
p434
(dp435
g2
Nsg17
S'jns     short loc_814ADC2'
p436
sg19
S'7903'
p437
sg21
Vjns 5
p438
sg5
L135572925L
sg6
Nsg23
S'jns'
p439
sg25
S'0x814adbdL'
p440
sg27
Nsbasg56
(lp441
Vmov eax, mem
p442
ag431
ag438
asg61
Nsg5
S'0x814adb8L'
p443
sg63
(lp444
S'0x814ada4L'
p445
asg6
Nsg65
(lp446
S'0x814adbfL'
p447
aS'0x814adc2L'
p448
asg69
Nsg70
Nsg71
S'6a9e32165a338a1bf0e5443903f1daa9'
p449
sg73
S'b3a3e7211c7092b36d99cc8711ead416'
p450
sg75
(lp451
g425
ag432
ag439
asg77
Nsba(ibclass
BBasicBlock
p452
(dp453
g12
Nsg13
(lp454
(ibclass
BInstr
p455
(dp456
g2
Nsg17
S'add     eax, 7'
p457
sg19
S'83c007'
p458
sg21
Vadd eax, 7
p459
sg5
L135572927L
sg6
Nsg23
S'add'
p460
sg25
S'0x814adbfL'
p461
sg27
Nsbasg56
(lp462
g459
asg61
Nsg5
S'0x814adbfL'
p463
sg63
(lp464
S'0x814adb8L'
p465
asg6
Nsg65
(lp466
S'0x814adc2L'
p467
asg69
Nsg70
Nsg71
S'34ec78fcc91ffb1e54cd85e4a0924332'
p468
sg73
S'9c593e6e55f1701921abf8342f95ed0c'
p469
sg75
(lp470
g460
asg77
Nsba(ibclass
BBasicBlock
p471
(dp472
g12
Nsg13
(lp473
(ibclass
BInstr
p474
(dp475
g2
Nsg17
S'sar     eax, 3'
p476
sg19
S'c1f803'
p477
sg21
Vsar eax, 3
p478
sg5
L135572930L
sg6
Nsg23
S'sar'
p479
sg25
S'0x814adc2L'
p480
sg27
Nsba(ibclass
BInstr
p481
(dp482
g2
Nsg17
S'inc     eax'
p483
sg19
S'40'
p484
sg21
Vinc eax
p485
sg5
L135572933L
sg6
Nsg23
S'inc'
p486
sg25
S'0x814adc5L'
p487
sg27
Nsba(ibclass
BInstr
p488
(dp489
g2
Nsg17
S'jmp     short loc_814ADCD'
p490
sg19
S'eb05'
p491
sg21
Vjmp 7
p492
sg5
L135572934L
sg6
Nsg23
S'jmp'
p493
sg25
S'0x814adc6L'
p494
sg27
Nsbasg56
(lp495
g478
ag485
ag492
asg61
Nsg5
S'0x814adc2L'
p496
sg63
(lp497
S'0x814adb8L'
p498
aS'0x814adbfL'
p499
asg6
Nsg65
(lp500
S'0x814adcdL'
p501
asg69
Nsg70
Nsg71
S'52c93575b764b57598496a466307d17a'
p502
sg73
S'd536f93441739b2a18e2367b39c1f3fa'
p503
sg75
(lp504
g479
ag486
ag493
asg77
Nsba(ibclass
BBasicBlock
p505
(dp506
g12
Nsg13
(lp507
(ibclass
BInstr
p508
(dp509
g2
Nsg17
S'mov     eax, 0'
p510
sg19
S'b800000000'
p511
sg21
Vmov eax, 0
p512
sg5
L135572936L
sg6
Nsg23
S'mov'
p513
sg25
S'0x814adc8L'
p514
sg27
Nsbasg56
(lp515
g512
asg61
Nsg5
S'0x814adc8L'
p516
sg63
(lp517
S'0x814ada4L'
p518
asg6
Nsg65
(lp519
S'0x814adcdL'
p520
asg69
Nsg70
Nsg71
S'96a4a0e6e9ac88756a0fcba989d0a844'
p521
sg73
S'4cfc99738161f190e0def2f4916ada38'
p522
sg75
(lp523
g513
asg77
Nsba(ibclass
BBasicBlock
p524
(dp525
g12
Nsg13
(lp526
(ibclass
BInstr
p527
(dp528
g2
Nsg17
S'mov     [ebp+len], eax'
p529
sg19
S'8945f0'
p530
sg21
Vmov dword ptr [ebp - 0x10], eax
p531
sg5
L135572941L
sg6
Nsg23
S'mov'
p532
sg25
S'0x814adcdL'
p533
sg27
Nsba(ibclass
BInstr
p534
(dp535
g2
Nsg17
S'mov     eax, [ebp+ret]'
p536
sg19
S'8b45e8'
p537
sg21
Vmov eax, dword ptr [ebp - 0x18]
p538
sg5
L135572944L
sg6
Nsg23
S'mov'
p539
sg25
S'0x814add0L'
p540
sg27
Nsba(ibclass
BInstr
p541
(dp542
g2
Nsg17
S'mov     eax, [eax]'
p543
sg19
S'8b00'
p544
sg21
Vmov eax, dword ptr [eax]
p545
sg5
L135572947L
sg6
Nsg23
S'mov'
p546
sg25
S'0x814add3L'
p547
sg27
Nsba(ibclass
BInstr
p548
(dp549
g2
Nsg17
S'mov     edx, [ebp+len]'
p550
sg19
S'8b55f0'
p551
sg21
Vmov edx, dword ptr [ebp - 0x10]
p552
sg5
L135572949L
sg6
Nsg23
S'mov'
p553
sg25
S'0x814add5L'
p554
sg27
Nsba(ibclass
BInstr
p555
(dp556
g2
Nsg17
S'add     edx, 4'
p557
sg19
S'83c204'
p558
sg21
Vadd edx, 4
p559
sg5
L135572952L
sg6
Nsg23
S'add'
p560
sg25
S'0x814add8L'
p561
sg27
Nsba(ibclass
BInstr
p562
(dp563
g2
Nsg17
S'cmp     eax, edx'
p564
sg19
S'39d0'
p565
sg21
Vcmp eax, edx
p566
sg5
L135572955L
sg6
Nsg23
S'cmp'
p567
sg25
S'0x814addbL'
p568
sg27
Nsba(ibclass
BInstr
p569
(dp570
g2
Nsg17
S'jge     short loc_814AE47'
p571
sg19
S'7d68'
p572
sg21
Vjge 0x6a
p573
sg5
L135572957L
sg6
Nsg23
S'jge'
p574
sg25
S'0x814adddL'
p575
sg27
Nsbasg56
(lp576
Vmov mem, eax
p577
aVmov eax, mem
p578
aVmov eax, mem
p579
aVmov edx, mem
p580
ag559
ag566
aVjge address
p581
asg61
Nsg5
S'0x814adcdL'
p582
sg63
(lp583
S'0x814adc2L'
p584
aS'0x814adc8L'
p585
asg6
Nsg65
(lp586
S'0x814addfL'
p587
aS'0x814ae47L'
p588
asg69
Nsg70
Nsg71
S'abc605599cffd0ec64e85f56670c4a1a'
p589
sg73
S'552806aeed71495690945a6a1e014577'
p590
sg75
(lp591
g532
ag539
ag546
ag553
ag560
ag567
ag574
asg77
Nsba(ibclass
BBasicBlock
p592
(dp593
g12
Nsg13
(lp594
(ibclass
BInstr
p595
(dp596
g2
Nsg17
S'mov     eax, [ebp+len]'
p597
sg19
S'8b45f0'
p598
sg21
Vmov eax, dword ptr [ebp - 0x10]
p599
sg5
L135572959L
sg6
Nsg23
S'mov'
p600
sg25
S'0x814addfL'
p601
sg27
Nsba(ibclass
BInstr
p602
(dp603
g2
Nsg17
S'lea     edx, [eax+4]'
p604
sg19
S'8d5004'
p605
sg21
Vlea edx, [eax + 4]
p606
sg5
L135572962L
sg6
Nsg23
S'lea'
p607
sg25
S'0x814ade2L'
p608
sg27
Nsba(ibclass
BInstr
p609
(dp610
g2
Nsg17
S'mov     eax, [ebp+ret]'
p611
sg19
S'8b45e8'
p612
sg21
Vmov eax, dword ptr [ebp - 0x18]
p613
sg5
L135572965L
sg6
Nsg23
S'mov'
p614
sg25
S'0x814ade5L'
p615
sg27
Nsba(ibclass
BInstr
p616
(dp617
g2
Nsg17
S'mov     eax, [eax+8]'
p618
sg19
S'8b4008'
p619
sg21
Vmov eax, dword ptr [eax + 8]
p620
sg5
L135572968L
sg6
Nsg23
S'mov'
p621
sg25
S'0x814ade8L'
p622
sg27
Nsba(ibclass
BInstr
p623
(dp624
g2
Nsg17
S'mov     dword ptr [esp+0Ch], 1A9h; line'
p625
sg19
S'c744240ca9010000'
p626
sg21
Vmov dword ptr [esp + 0xc], 0x1a9
p627
sg5
L135572971L
sg6
Nsg23
S'mov'
p628
sg25
S'0x814adebL'
p629
sg27
Nsba(ibclass
BInstr
p630
(dp631
g2
Nsg17
S'mov     dword ptr [esp+8], offset aA_int_c; "a_int.c"'
p632
sg19
S'c74424081b612308'
p633
sg21
Vmov dword ptr [esp + 8], 0x823611b
p634
sg5
L135572979L
sg6
Nsg23
S'mov'
p635
sg25
S'0x814adf3L'
p636
sg27
Nsba(ibclass
BInstr
p637
(dp638
g2
Nsg17
S'mov     [esp+4], edx    ; num'
p639
sg19
S'89542404'
p640
sg21
Vmov dword ptr [esp + 4], edx
p641
sg5
L135572987L
sg6
Nsg23
S'mov'
p642
sg25
S'0x814adfbL'
p643
sg27
Nsba(ibclass
BInstr
p644
(dp645
g2
Nsg17
S'mov     [esp], eax      ; str'
p646
sg19
S'890424'
p647
sg21
Vmov dword ptr [esp], eax
p648
sg5
L135572991L
sg6
Nsg23
S'mov'
p649
sg25
S'0x814adffL'
p650
sg27
Nsba(ibclass
BInstr
p651
(dp652
g2
Nsg17
S'call    CRYPTO_realloc'
p653
sg19
S'e8f17bf9ff'
p654
sg21
Vcall 0xfff97bf6
p655
sg5
L135572994L
sg6
Nsg23
S'call'
p656
sg25
S'0x814ae02L'
p657
sg27
Nsba(ibclass
BInstr
p658
(dp659
g2
Nsg17
S'mov     [ebp+new_data], eax'
p660
sg19
S'8945f4'
p661
sg21
Vmov dword ptr [ebp - 0xc], eax
p662
sg5
L135572999L
sg6
Nsg23
S'mov'
p663
sg25
S'0x814ae07L'
p664
sg27
Nsba(ibclass
BInstr
p665
(dp666
g2
Nsg17
S'cmp     [ebp+new_data], 0'
p667
sg19
S'837df400'
p668
sg21
Vcmp dword ptr [ebp - 0xc], 0
p669
sg5
L135573002L
sg6
Nsg23
S'cmp'
p670
sg25
S'0x814ae0aL'
p671
sg27
Nsba(ibclass
BInstr
p672
(dp673
g2
Nsg17
S'jnz     short loc_814AE3E'
p674
sg19
S'752e'
p675
sg21
Vjne 0x30
p676
sg5
L135573006L
sg6
Nsg23
S'jnz'
p677
sg25
S'0x814ae0eL'
p678
sg27
Nsbasg56
(lp679
Vmov eax, mem
p680
aVlea edx, mem
p681
aVmov eax, mem
p682
aVmov eax, mem
p683
aVmov mem, address
p684
aVmov mem, address
p685
aVmov mem, edx
p686
aVmov mem, eax
p687
aVcall address
p688
aVmov mem, eax
p689
aVcmp mem, 0
p690
aVjne address
p691
asg61
Nsg5
S'0x814addfL'
p692
sg63
(lp693
S'0x814adcdL'
p694
asg6
Nsg65
(lp695
S'0x814ae10L'
p696
aS'0x814ae3eL'
p697
asg69
Nsg70
Nsg71
S'7e9f9edfaaec3a75c5129d36096a8fb4'
p698
sg73
S'27a6d351b1ccd62c9165574e03cd070c'
p699
sg75
(lp700
g600
ag607
ag614
ag621
ag628
ag635
ag642
ag649
ag656
ag663
ag670
ag677
asg77
Nsba(ibclass
BBasicBlock
p701
(dp702
g12
Nsg13
(lp703
(ibclass
BInstr
p704
(dp705
g2
Nsg17
S'mov     dword ptr [esp+10h], 1ACh; line'
p706
sg19
S'c7442410ac010000'
p707
sg21
Vmov dword ptr [esp + 0x10], 0x1ac
p708
sg5
L135573008L
sg6
Nsg23
S'mov'
p709
sg25
S'0x814ae10L'
p710
sg27
Nsba(ibclass
BInstr
p711
(dp712
g2
Nsg17
S'mov     dword ptr [esp+0Ch], offset aA_int_c; "a_int.c"'
p713
sg19
S'c744240c1b612308'
p714
sg21
Vmov dword ptr [esp + 0xc], 0x823611b
p715
sg5
L135573016L
sg6
Nsg23
S'mov'
p716
sg25
S'0x814ae18L'
p717
sg27
Nsba(ibclass
BInstr
p718
(dp719
g2
Nsg17
S'mov     dword ptr [esp+8], 41h; reason'
p720
sg19
S'c744240841000000'
p721
sg21
Vmov dword ptr [esp + 8], 0x41
p722
sg5
L135573024L
sg6
Nsg23
S'mov'
p723
sg25
S'0x814ae20L'
p724
sg27
Nsba(ibclass
BInstr
p725
(dp726
g2
Nsg17
S'mov     dword ptr [esp+4], 8Bh; func'
p727
sg19
S'c74424048b000000'
p728
sg21
Vmov dword ptr [esp + 4], 0x8b
p729
sg5
L135573032L
sg6
Nsg23
S'mov'
p730
sg25
S'0x814ae28L'
p731
sg27
Nsba(ibclass
BInstr
p732
(dp733
g2
Nsg17
S'mov     dword ptr [esp], 0Dh; lib'
p734
sg19
S'c704240d000000'
p735
sg21
Vmov dword ptr [esp], 0xd
p736
sg5
L135573040L
sg6
Nsg23
S'mov'
p737
sg25
S'0x814ae30L'
p738
sg27
Nsba(ibclass
BInstr
p739
(dp740
g2
Nsg17
S'call    ERR_put_error'
p741
sg19
S'e875cdfeff'
p742
sg21
Vcall 0xfffecd7a
p743
sg5
L135573047L
sg6
Nsg23
S'call'
p744
sg25
S'0x814ae37L'
p745
sg27
Nsba(ibclass
BInstr
p746
(dp747
g2
Nsg17
S'jmp     short err'
p748
sg19
S'eb43'
p749
sg21
Vjmp 0x45
p750
sg5
L135573052L
sg6
Nsg23
S'jmp'
p751
sg25
S'0x814ae3cL'
p752
sg27
Nsbasg56
(lp753
Vmov mem, address
p754
aVmov mem, address
p755
aVmov mem, address
p756
aVmov mem, address
p757
aVmov mem, address
p758
aVcall address
p759
aVjmp address
p760
asg61
Nsg5
S'0x814ae10L'
p761
sg63
(lp762
S'0x814addfL'
p763
asg6
Nsg65
(lp764
S'0x814ae81L'
p765
asg69
Nsg70
Nsg71
S'a76a0a3b827ea6cd402bf72e182d1d25'
p766
sg73
S'5c79c7459a4742ab4e6fe5fb7b7e4c8d'
p767
sg75
(lp768
g709
ag716
ag723
ag730
ag737
ag744
ag751
asg77
Nsba(ibclass
BBasicBlock
p769
(dp770
g12
Nsg13
(lp771
(ibclass
BInstr
p772
(dp773
g2
Nsg17
S'mov     eax, [ebp+ret]'
p774
sg19
S'8b45e8'
p775
sg21
Vmov eax, dword ptr [ebp - 0x18]
p776
sg5
L135573054L
sg6
Nsg23
S'mov'
p777
sg25
S'0x814ae3eL'
p778
sg27
Nsba(ibclass
BInstr
p779
(dp780
g2
Nsg17
S'mov     edx, [ebp+new_data]'
p781
sg19
S'8b55f4'
p782
sg21
Vmov edx, dword ptr [ebp - 0xc]
p783
sg5
L135573057L
sg6
Nsg23
S'mov'
p784
sg25
S'0x814ae41L'
p785
sg27
Nsba(ibclass
BInstr
p786
(dp787
g2
Nsg17
S'mov     [eax+8], edx'
p788
sg19
S'895008'
p789
sg21
Vmov dword ptr [eax + 8], edx
p790
sg5
L135573060L
sg6
Nsg23
S'mov'
p791
sg25
S'0x814ae44L'
p792
sg27
Nsbasg56
(lp793
Vmov eax, mem
p794
aVmov edx, mem
p795
aVmov mem, edx
p796
asg61
Nsg5
S'0x814ae3eL'
p797
sg63
(lp798
S'0x814addfL'
p799
asg6
Nsg65
(lp800
S'0x814ae47L'
p801
asg69
Nsg70
Nsg71
S'9eccc8b14ee1489d7c3de99648417ffe'
p802
sg73
S'f189e5330cbced4d0a471366297e8b29'
p803
sg75
(lp804
g777
ag784
ag791
asg77
Nsba(ibclass
BBasicBlock
p805
(dp806
g12
Nsg13
(lp807
(ibclass
BInstr
p808
(dp809
g2
Nsg17
S'mov     eax, [ebp+ret]'
p810
sg19
S'8b45e8'
p811
sg21
Vmov eax, dword ptr [ebp - 0x18]
p812
sg5
L135573063L
sg6
Nsg23
S'mov'
p813
sg25
S'0x814ae47L'
p814
sg27
Nsba(ibclass
BInstr
p815
(dp816
g2
Nsg17
S'mov     eax, [eax+8]'
p817
sg19
S'8b4008'
p818
sg21
Vmov eax, dword ptr [eax + 8]
p819
sg5
L135573066L
sg6
Nsg23
S'mov'
p820
sg25
S'0x814ae4aL'
p821
sg27
Nsba(ibclass
BInstr
p822
(dp823
g2
Nsg17
S'mov     [esp+4], eax    ; to'
p824
sg19
S'89442404'
p825
sg21
Vmov dword ptr [esp + 4], eax
p826
sg5
L135573069L
sg6
Nsg23
S'mov'
p827
sg25
S'0x814ae4dL'
p828
sg27
Nsba(ibclass
BInstr
p829
(dp830
g2
Nsg17
S'mov     eax, [ebp+bn]'
p831
sg19
S'8b4508'
p832
sg21
Vmov eax, dword ptr [ebp + 8]
p833
sg5
L135573073L
sg6
Nsg23
S'mov'
p834
sg25
S'0x814ae51L'
p835
sg27
Nsba(ibclass
BInstr
p836
(dp837
g2
Nsg17
S'mov     [esp], eax      ; a'
p838
sg19
S'890424'
p839
sg21
Vmov dword ptr [esp], eax
p840
sg5
L135573076L
sg6
Nsg23
S'mov'
p841
sg25
S'0x814ae54L'
p842
sg27
Nsba(ibclass
BInstr
p843
(dp844
g2
Nsg17
S'call    BN_bn2bin'
p845
sg19
S'e845b0fbff'
p846
sg21
Vcall 0xfffbb04a
p847
sg5
L135573079L
sg6
Nsg23
S'call'
p848
sg25
S'0x814ae57L'
p849
sg27
Nsba(ibclass
BInstr
p850
(dp851
g2
Nsg17
S'mov     edx, [ebp+ret]'
p852
sg19
S'8b55e8'
p853
sg21
Vmov edx, dword ptr [ebp - 0x18]
p854
sg5
L135573084L
sg6
Nsg23
S'mov'
p855
sg25
S'0x814ae5cL'
p856
sg27
Nsba(ibclass
BInstr
p857
(dp858
g2
Nsg17
S'mov     [edx], eax'
p859
sg19
S'8902'
p860
sg21
Vmov dword ptr [edx], eax
p861
sg5
L135573087L
sg6
Nsg23
S'mov'
p862
sg25
S'0x814ae5fL'
p863
sg27
Nsba(ibclass
BInstr
p864
(dp865
g2
Nsg17
S'mov     eax, [ebp+ret]'
p866
sg19
S'8b45e8'
p867
sg21
Vmov eax, dword ptr [ebp - 0x18]
p868
sg5
L135573089L
sg6
Nsg23
S'mov'
p869
sg25
S'0x814ae61L'
p870
sg27
Nsba(ibclass
BInstr
p871
(dp872
g2
Nsg17
S'mov     eax, [eax]'
p873
sg19
S'8b00'
p874
sg21
Vmov eax, dword ptr [eax]
p875
sg5
L135573092L
sg6
Nsg23
S'mov'
p876
sg25
S'0x814ae64L'
p877
sg27
Nsba(ibclass
BInstr
p878
(dp879
g2
Nsg17
S'test    eax, eax'
p880
sg19
S'85c0'
p881
sg21
Vtest eax, eax
p882
sg5
L135573094L
sg6
Nsg23
S'test'
p883
sg25
S'0x814ae66L'
p884
sg27
Nsba(ibclass
BInstr
p885
(dp886
g2
Nsg17
S'jnz     short loc_814AE7C'
p887
sg19
S'7512'
p888
sg21
Vjne 0x14
p889
sg5
L135573096L
sg6
Nsg23
S'jnz'
p890
sg25
S'0x814ae68L'
p891
sg27
Nsbasg56
(lp892
Vmov eax, mem
p893
aVmov eax, mem
p894
aVmov mem, eax
p895
aVmov eax, mem
p896
aVmov mem, eax
p897
aVcall address
p898
aVmov edx, mem
p899
aVmov mem, eax
p900
aVmov eax, mem
p901
aVmov eax, mem
p902
ag882
aVjne address
p903
asg61
Nsg5
S'0x814ae47L'
p904
sg63
(lp905
S'0x814adcdL'
p906
aS'0x814ae3eL'
p907
asg6
Nsg65
(lp908
S'0x814ae6aL'
p909
aS'0x814ae7cL'
p910
asg69
Nsg70
Nsg71
S'5b16edea0e103db58971f90914399503'
p911
sg73
S'5d9a5f78de143c1f2ebf531e777f70a4'
p912
sg75
(lp913
g813
ag820
ag827
ag834
ag841
ag848
ag855
ag862
ag869
ag876
ag883
ag890
asg77
Nsba(ibclass
BBasicBlock
p914
(dp915
g12
Nsg13
(lp916
(ibclass
BInstr
p917
(dp918
g2
Nsg17
S'mov     eax, [ebp+ret]'
p919
sg19
S'8b45e8'
p920
sg21
Vmov eax, dword ptr [ebp - 0x18]
p921
sg5
L135573098L
sg6
Nsg23
S'mov'
p922
sg25
S'0x814ae6aL'
p923
sg27
Nsba(ibclass
BInstr
p924
(dp925
g2
Nsg17
S'mov     eax, [eax+8]'
p926
sg19
S'8b4008'
p927
sg21
Vmov eax, dword ptr [eax + 8]
p928
sg5
L135573101L
sg6
Nsg23
S'mov'
p929
sg25
S'0x814ae6dL'
p930
sg27
Nsba(ibclass
BInstr
p931
(dp932
g2
Nsg17
S'mov     byte ptr [eax], 0'
p933
sg19
S'c60000'
p934
sg21
Vmov byte ptr [eax], 0
p935
sg5
L135573104L
sg6
Nsg23
S'mov'
p936
sg25
S'0x814ae70L'
p937
sg27
Nsba(ibclass
BInstr
p938
(dp939
g2
Nsg17
S'mov     eax, [ebp+ret]'
p940
sg19
S'8b45e8'
p941
sg21
Vmov eax, dword ptr [ebp - 0x18]
p942
sg5
L135573107L
sg6
Nsg23
S'mov'
p943
sg25
S'0x814ae73L'
p944
sg27
Nsba(ibclass
BInstr
p945
(dp946
g2
Nsg17
S'mov     dword ptr [eax], 1'
p947
sg19
S'c70001000000'
p948
sg21
Vmov dword ptr [eax], 1
p949
sg5
L135573110L
sg6
Nsg23
S'mov'
p950
sg25
S'0x814ae76L'
p951
sg27
Nsbasg56
(lp952
Vmov eax, mem
p953
aVmov eax, mem
p954
aVmov mem, 0
p955
aVmov eax, mem
p956
aVmov mem, 1
p957
asg61
Nsg5
S'0x814ae6aL'
p958
sg63
(lp959
S'0x814ae47L'
p960
asg6
Nsg65
(lp961
S'0x814ae7cL'
p962
asg69
Nsg70
Nsg71
S'ae5a3c1ff54dddd4f521c777c2633e70'
p963
sg73
S'6205b88014958637f5decd020c1309e5'
p964
sg75
(lp965
g922
ag929
ag936
ag943
ag950
asg77
Nsba(ibclass
BBasicBlock
p966
(dp967
g12
Nsg13
(lp968
(ibclass
BInstr
p969
(dp970
g2
Nsg17
S'mov     eax, [ebp+ret]'
p971
sg19
S'8b45e8'
p972
sg21
Vmov eax, dword ptr [ebp - 0x18]
p973
sg5
L135573116L
sg6
Nsg23
S'mov'
p974
sg25
S'0x814ae7cL'
p975
sg27
Nsba(ibclass
BInstr
p976
(dp977
g2
Nsg17
S'jmp     short locret_814AE99'
p978
sg19
S'eb18'
p979
sg21
Vjmp 0x1a
p980
sg5
L135573119L
sg6
Nsg23
S'jmp'
p981
sg25
S'0x814ae7fL'
p982
sg27
Nsbasg56
(lp983
Vmov eax, mem
p984
aVjmp address
p985
asg61
Nsg5
S'0x814ae7cL'
p986
sg63
(lp987
S'0x814ae47L'
p988
aS'0x814ae6aL'
p989
asg6
Nsg65
(lp990
S'0x814ae99L'
p991
asg69
Nsg70
Nsg71
S'8b9a0d40e062be2b9b2d9885108fb196'
p992
sg73
S'5a5b261ba52a671a369af6372509eb2f'
p993
sg75
(lp994
g974
ag981
asg77
Nsba(ibclass
BBasicBlock
p995
(dp996
g12
Nsg13
(lp997
(ibclass
BInstr
p998
(dp999
g2
Nsg17
S'mov     eax, [ebp+ret]'
p1000
sg19
S'8b45e8'
p1001
sg21
Vmov eax, dword ptr [ebp - 0x18]
p1002
sg5
L135573121L
sg6
Nsg23
S'mov'
p1003
sg25
S'0x814ae81L'
p1004
sg27
Nsba(ibclass
BInstr
p1005
(dp1006
g2
Nsg17
S'cmp     eax, [ebp+ai]'
p1007
sg19
S'3b450c'
p1008
sg21
Vcmp eax, dword ptr [ebp + 0xc]
p1009
sg5
L135573124L
sg6
Nsg23
S'cmp'
p1010
sg25
S'0x814ae84L'
p1011
sg27
Nsba(ibclass
BInstr
p1012
(dp1013
g2
Nsg17
S'jz      short loc_814AE94'
p1014
sg19
S'740b'
p1015
sg21
Vje 0xd
p1016
sg5
L135573127L
sg6
Nsg23
S'jz'
p1017
sg25
S'0x814ae87L'
p1018
sg27
Nsbasg56
(lp1019
Vmov eax, mem
p1020
aVcmp eax, mem
p1021
aVje address
p1022
asg61
Nsg5
S'0x814ae81L'
p1023
sg63
(lp1024
S'0x814ad53L'
p1025
aS'0x814ae10L'
p1026
asg6
Nsg65
(lp1027
S'0x814ae89L'
p1028
aS'0x814ae94L'
p1029
asg69
Nsg70
Nsg71
S'a243777572b9e90dbac56dca0e7de7ec'
p1030
sg73
S'3d266e2a95c4df4213c5f058e4ac0617'
p1031
sg75
(lp1032
g1003
ag1010
ag1017
asg77
Nsba(ibclass
BBasicBlock
p1033
(dp1034
g12
Nsg13
(lp1035
(ibclass
BInstr
p1036
(dp1037
g2
Nsg17
S'mov     eax, [ebp+ret]'
p1038
sg19
S'8b45e8'
p1039
sg21
Vmov eax, dword ptr [ebp - 0x18]
p1040
sg5
L135573129L
sg6
Nsg23
S'mov'
p1041
sg25
S'0x814ae89L'
p1042
sg27
Nsba(ibclass
BInstr
p1043
(dp1044
g2
Nsg17
S'mov     [esp], eax      ; a'
p1045
sg19
S'890424'
p1046
sg21
Vmov dword ptr [esp], eax
p1047
sg5
L135573132L
sg6
Nsg23
S'mov'
p1048
sg25
S'0x814ae8cL'
p1049
sg27
Nsba(ibclass
BInstr
p1050
(dp1051
g2
Nsg17
S'call    ASN1_STRING_free'
p1052
sg19
S'e8b1220100'
p1053
sg21
Vcall 0x122b6
p1054
sg5
L135573135L
sg6
Nsg23
S'call'
p1055
sg25
S'0x814ae8fL'
p1056
sg27
Nsbasg56
(lp1057
Vmov eax, mem
p1058
aVmov mem, eax
p1059
aVcall address
p1060
asg61
Nsg5
S'0x814ae89L'
p1061
sg63
(lp1062
S'0x814ae81L'
p1063
asg6
Nsg65
(lp1064
S'0x814ae94L'
p1065
asg69
Nsg70
Nsg71
S'0bf1a79a6a1155c5085c1c85d6d83d05'
p1066
sg73
S'5af7f5bfd15310706e43fa164fed7a71'
p1067
sg75
(lp1068
g1041
ag1048
ag1055
asg77
Nsba(ibclass
BBasicBlock
p1069
(dp1070
g12
Nsg13
(lp1071
(ibclass
BInstr
p1072
(dp1073
g2
Nsg17
S'mov     eax, 0'
p1074
sg19
S'b800000000'
p1075
sg21
Vmov eax, 0
p1076
sg5
L135573140L
sg6
Nsg23
S'mov'
p1077
sg25
S'0x814ae94L'
p1078
sg27
Nsbasg56
(lp1079
g1076
asg61
Nsg5
S'0x814ae94L'
p1080
sg63
(lp1081
S'0x814ae81L'
p1082
aS'0x814ae89L'
p1083
asg6
Nsg65
(lp1084
S'0x814ae99L'
p1085
asg69
Nsg70
Nsg71
S'96a4a0e6e9ac88756a0fcba989d0a844'
p1086
sg73
S'4cfc99738161f190e0def2f4916ada38'
p1087
sg75
(lp1088
g1077
asg77
Nsba(ibclass
BBasicBlock
p1089
(dp1090
g12
Nsg13
(lp1091
(ibclass
BInstr
p1092
(dp1093
g2
Nsg17
S'leave'
p1094
sg19
S'c9'
p1095
sg21
Vleave 
p1096
sg5
L135573145L
sg6
Nsg23
S'leave'
p1097
sg25
S'0x814ae99L'
p1098
sg27
Nsba(ibclass
BInstr
p1099
(dp1100
g2
Nsg17
S'retn'
p1101
sg19
S'c3'
p1102
sg21
Vret 
p1103
sg5
L135573146L
sg6
Nsg23
S'retn'
p1104
sg25
S'0x814ae9aL'
p1105
sg27
Nsbasg56
(lp1106
Vleave
p1107
aVret
p1108
asg61
Nsg5
S'0x814ae99L'
p1109
sg63
(lp1110
S'0x814ae7cL'
p1111
aS'0x814ae94L'
p1112
asg6
Nsg65
(lp1113
sg69
Nsg70
Nsg71
S'08c78f73a6f87c85da88b2982f54ce2a'
p1114
sg73
S'393fee3c9fb1d26424d4b7704918e387'
p1115
sg75
(lp1116
g1097
ag1104
asg77
Nsbasb.