(ibclass
BFunc
p0
(dp1
S'hash'
p2
NsS'name'
p3
S'rsa_pss_decode'
p4
sS'start_address'
p5
L136117927L
sS'flag'
p6
NsS'program'
p7
NsS'bbs'
p8
(lp9
(ibclass
BBasicBlock
p10
(dp11
S'function'
p12
NsS'binstrs'
p13
(lp14
(ibclass
BInstr
p15
(dp16
g2
NsS'disasm'
p17
S'push    ebp'
p18
sS'bytes'
p19
S'55'
p20
sS'disasm_striped'
p21
Vpush ebp
p22
sg5
L136117927L
sg6
NsS'mnem'
p23
S'push'
p24
sS'address'
p25
S'0x81cfea7L'
p26
sS'basicblock'
p27
Nsba(ibclass
BInstr
p28
(dp29
g2
Nsg17
S'mov     ebp, esp'
p30
sg19
S'89e5'
p31
sg21
Vmov ebp, esp
p32
sg5
L136117928L
sg6
Nsg23
S'mov'
p33
sg25
S'0x81cfea8L'
p34
sg27
Nsba(ibclass
BInstr
p35
(dp36
g2
Nsg17
S'sub     esp, 28h'
p37
sg19
S'83ec28'
p38
sg21
Vsub esp, 0x28
p39
sg5
L136117930L
sg6
Nsg23
S'sub'
p40
sg25
S'0x81cfeaaL'
p41
sg27
Nsba(ibclass
BInstr
p42
(dp43
g2
Nsg17
S'mov     eax, [ebp+pmaskHash]'
p44
sg19
S'8b450c'
p45
sg21
Vmov eax, dword ptr [ebp + 0xc]
p46
sg5
L136117933L
sg6
Nsg23
S'mov'
p47
sg25
S'0x81cfeadL'
p48
sg27
Nsba(ibclass
BInstr
p49
(dp50
g2
Nsg17
S'mov     dword ptr [eax], 0'
p51
sg19
S'c70000000000'
p52
sg21
Vmov dword ptr [eax], 0
p53
sg5
L136117936L
sg6
Nsg23
S'mov'
p54
sg25
S'0x81cfeb0L'
p55
sg27
Nsba(ibclass
BInstr
p56
(dp57
g2
Nsg17
S'mov     eax, [ebp+alg]'
p58
sg19
S'8b4508'
p59
sg21
Vmov eax, dword ptr [ebp + 8]
p60
sg5
L136117942L
sg6
Nsg23
S'mov'
p61
sg25
S'0x81cfeb6L'
p62
sg27
Nsba(ibclass
BInstr
p63
(dp64
g2
Nsg17
S'mov     eax, [eax+4]'
p65
sg19
S'8b4004'
p66
sg21
Vmov eax, dword ptr [eax + 4]
p67
sg5
L136117945L
sg6
Nsg23
S'mov'
p68
sg25
S'0x81cfeb9L'
p69
sg27
Nsba(ibclass
BInstr
p70
(dp71
g2
Nsg17
S'test    eax, eax'
p72
sg19
S'85c0'
p73
sg21
Vtest eax, eax
p74
sg5
L136117948L
sg6
Nsg23
S'test'
p75
sg25
S'0x81cfebcL'
p76
sg27
Nsba(ibclass
BInstr
p77
(dp78
g2
Nsg17
S'jz      short loc_81CFECD'
p79
sg19
S'740d'
p80
sg21
Vje 0xf
p81
sg5
L136117950L
sg6
Nsg23
S'jz'
p82
sg25
S'0x81cfebeL'
p83
sg27
NsbasS'disasm_list'
p84
(lp85
g22
ag32
aVsub esp, address
p86
aVmov eax, mem
p87
aVmov mem, 0
p88
aVmov eax, mem
p89
aVmov eax, mem
p90
ag74
aVje address
p91
asS'end_address'
p92
Nsg5
S'0x81cfea7L'
p93
sS'preds'
p94
(lp95
sg6
NsS'succs'
p96
(lp97
S'0x81cfec0L'
p98
aS'0x81cfecdL'
p99
asS'hash_v3'
p100
NsS'flag_v2'
p101
NsS'hash_v1'
p102
S'cc20f52173a45ffcd11fe72953f15bab'
p103
sS'hash_v2'
p104
S'72d743b61455296db33a2d23431d4c80'
p105
sS'mnen_list'
p106
(lp107
g24
ag33
ag40
ag47
ag54
ag61
ag68
ag75
ag82
asS'neighbour_disasm_list'
p108
Nsba(ibclass
BBasicBlock
p109
(dp110
g12
Nsg13
(lp111
(ibclass
BInstr
p112
(dp113
g2
Nsg17
S'mov     eax, [ebp+alg]'
p114
sg19
S'8b4508'
p115
sg21
Vmov eax, dword ptr [ebp + 8]
p116
sg5
L136117952L
sg6
Nsg23
S'mov'
p117
sg25
S'0x81cfec0L'
p118
sg27
Nsba(ibclass
BInstr
p119
(dp120
g2
Nsg17
S'mov     eax, [eax+4]'
p121
sg19
S'8b4004'
p122
sg21
Vmov eax, dword ptr [eax + 4]
p123
sg5
L136117955L
sg6
Nsg23
S'mov'
p124
sg25
S'0x81cfec3L'
p125
sg27
Nsba(ibclass
BInstr
p126
(dp127
g2
Nsg17
S'mov     eax, [eax]'
p128
sg19
S'8b00'
p129
sg21
Vmov eax, dword ptr [eax]
p130
sg5
L136117958L
sg6
Nsg23
S'mov'
p131
sg25
S'0x81cfec6L'
p132
sg27
Nsba(ibclass
BInstr
p133
(dp134
g2
Nsg17
S'cmp     eax, 10h'
p135
sg19
S'83f810'
p136
sg21
Vcmp eax, 0x10
p137
sg5
L136117960L
sg6
Nsg23
S'cmp'
p138
sg25
S'0x81cfec8L'
p139
sg27
Nsba(ibclass
BInstr
p140
(dp141
g2
Nsg17
S'jz      short loc_81CFED7'
p142
sg19
S'740a'
p143
sg21
Vje 0xc
p144
sg5
L136117963L
sg6
Nsg23
S'jz'
p145
sg25
S'0x81cfecbL'
p146
sg27
Nsbasg84
(lp147
Vmov eax, mem
p148
aVmov eax, mem
p149
aVmov eax, mem
p150
aVcmp eax, address
p151
aVje address
p152
asg92
Nsg5
S'0x81cfec0L'
p153
sg94
(lp154
S'0x81cfea7L'
p155
asg6
Nsg96
(lp156
S'0x81cfecdL'
p157
aS'0x81cfed7L'
p158
asg100
Nsg101
Nsg102
S'33ba948cc50e6b726fe618f931567f22'
p159
sg104
S'5f456442b02793f5dd5c360fb7bc432c'
p160
sg106
(lp161
g117
ag124
ag131
ag138
ag145
asg108
Nsba(ibclass
BBasicBlock
p162
(dp163
g12
Nsg13
(lp164
(ibclass
BInstr
p165
(dp166
g2
Nsg17
S'mov     eax, 0'
p167
sg19
S'b800000000'
p168
sg21
Vmov eax, 0
p169
sg5
L136117965L
sg6
Nsg23
S'mov'
p170
sg25
S'0x81cfecdL'
p171
sg27
Nsba(ibclass
BInstr
p172
(dp173
g2
Nsg17
S'jmp     locret_81CFF8E'
p174
sg19
S'e9b7000000'
p175
sg21
Vjmp 0xbc
p176
sg5
L136117970L
sg6
Nsg23
S'jmp'
p177
sg25
S'0x81cfed2L'
p178
sg27
Nsbasg84
(lp179
g169
aVjmp address
p180
asg92
Nsg5
S'0x81cfecdL'
p181
sg94
(lp182
S'0x81cfea7L'
p183
aS'0x81cfec0L'
p184
asg6
Nsg96
(lp185
S'0x81cff8eL'
p186
asg100
Nsg101
Nsg102
S'8b9a0d40e062be2b9b2d9885108fb196'
p187
sg104
S'bfbe752dd865c9a89011ba470eab331d'
p188
sg106
(lp189
g170
ag177
asg108
Nsba(ibclass
BBasicBlock
p190
(dp191
g12
Nsg13
(lp192
(ibclass
BInstr
p193
(dp194
g2
Nsg17
S'mov     eax, [ebp+alg]'
p195
sg19
S'8b4508'
p196
sg21
Vmov eax, dword ptr [ebp + 8]
p197
sg5
L136117975L
sg6
Nsg23
S'mov'
p198
sg25
S'0x81cfed7L'
p199
sg27
Nsba(ibclass
BInstr
p200
(dp201
g2
Nsg17
S'mov     eax, [eax+4]'
p202
sg19
S'8b4004'
p203
sg21
Vmov eax, dword ptr [eax + 4]
p204
sg5
L136117978L
sg6
Nsg23
S'mov'
p205
sg25
S'0x81cfedaL'
p206
sg27
Nsba(ibclass
BInstr
p207
(dp208
g2
Nsg17
S'mov     eax, [eax+4]'
p209
sg19
S'8b4004'
p210
sg21
Vmov eax, dword ptr [eax + 4]
p211
sg5
L136117981L
sg6
Nsg23
S'mov'
p212
sg25
S'0x81cfeddL'
p213
sg27
Nsba(ibclass
BInstr
p214
(dp215
g2
Nsg17
S'mov     eax, [eax+8]'
p216
sg19
S'8b4008'
p217
sg21
Vmov eax, dword ptr [eax + 8]
p218
sg5
L136117984L
sg6
Nsg23
S'mov'
p219
sg25
S'0x81cfee0L'
p220
sg27
Nsba(ibclass
BInstr
p221
(dp222
g2
Nsg17
S'mov     [ebp+p], eax'
p223
sg19
S'8945e8'
p224
sg21
Vmov dword ptr [ebp - 0x18], eax
p225
sg5
L136117987L
sg6
Nsg23
S'mov'
p226
sg25
S'0x81cfee3L'
p227
sg27
Nsba(ibclass
BInstr
p228
(dp229
g2
Nsg17
S'mov     eax, [ebp+alg]'
p230
sg19
S'8b4508'
p231
sg21
Vmov eax, dword ptr [ebp + 8]
p232
sg5
L136117990L
sg6
Nsg23
S'mov'
p233
sg25
S'0x81cfee6L'
p234
sg27
Nsba(ibclass
BInstr
p235
(dp236
g2
Nsg17
S'mov     eax, [eax+4]'
p237
sg19
S'8b4004'
p238
sg21
Vmov eax, dword ptr [eax + 4]
p239
sg5
L136117993L
sg6
Nsg23
S'mov'
p240
sg25
S'0x81cfee9L'
p241
sg27
Nsba(ibclass
BInstr
p242
(dp243
g2
Nsg17
S'mov     eax, [eax+4]'
p244
sg19
S'8b4004'
p245
sg21
Vmov eax, dword ptr [eax + 4]
p246
sg5
L136117996L
sg6
Nsg23
S'mov'
p247
sg25
S'0x81cfeecL'
p248
sg27
Nsba(ibclass
BInstr
p249
(dp250
g2
Nsg17
S'mov     eax, [eax]'
p251
sg19
S'8b00'
p252
sg21
Vmov eax, dword ptr [eax]
p253
sg5
L136117999L
sg6
Nsg23
S'mov'
p254
sg25
S'0x81cfeefL'
p255
sg27
Nsba(ibclass
BInstr
p256
(dp257
g2
Nsg17
S'mov     [ebp+plen], eax'
p258
sg19
S'8945ec'
p259
sg21
Vmov dword ptr [ebp - 0x14], eax
p260
sg5
L136118001L
sg6
Nsg23
S'mov'
p261
sg25
S'0x81cfef1L'
p262
sg27
Nsba(ibclass
BInstr
p263
(dp264
g2
Nsg17
S'mov     eax, [ebp+plen]'
p265
sg19
S'8b45ec'
p266
sg21
Vmov eax, dword ptr [ebp - 0x14]
p267
sg5
L136118004L
sg6
Nsg23
S'mov'
p268
sg25
S'0x81cfef4L'
p269
sg27
Nsba(ibclass
BInstr
p270
(dp271
g2
Nsg17
S'mov     [esp+8], eax    ; len'
p272
sg19
S'89442408'
p273
sg21
Vmov dword ptr [esp + 8], eax
p274
sg5
L136118007L
sg6
Nsg23
S'mov'
p275
sg25
S'0x81cfef7L'
p276
sg27
Nsba(ibclass
BInstr
p277
(dp278
g2
Nsg17
S'lea     eax, [ebp+p]'
p279
sg19
S'8d45e8'
p280
sg21
Vlea eax, [ebp - 0x18]
p281
sg5
L136118011L
sg6
Nsg23
S'lea'
p282
sg25
S'0x81cfefbL'
p283
sg27
Nsba(ibclass
BInstr
p284
(dp285
g2
Nsg17
S'mov     [esp+4], eax    ; in'
p286
sg19
S'89442404'
p287
sg21
Vmov dword ptr [esp + 4], eax
p288
sg5
L136118014L
sg6
Nsg23
S'mov'
p289
sg25
S'0x81cfefeL'
p290
sg27
Nsba(ibclass
BInstr
p291
(dp292
g2
Nsg17
S'mov     dword ptr [esp], 0; a'
p293
sg19
S'c7042400000000'
p294
sg21
Vmov dword ptr [esp], 0
p295
sg5
L136118018L
sg6
Nsg23
S'mov'
p296
sg25
S'0x81cff02L'
p297
sg27
Nsba(ibclass
BInstr
p298
(dp299
g2
Nsg17
S'call    d2i_RSA_PSS_PARAMS'
p300
sg19
S'e8bb1ef5ff'
p301
sg21
Vcall 0xfff51ec0
p302
sg5
L136118025L
sg6
Nsg23
S'call'
p303
sg25
S'0x81cff09L'
p304
sg27
Nsba(ibclass
BInstr
p305
(dp306
g2
Nsg17
S'mov     [ebp+pss], eax'
p307
sg19
S'8945f0'
p308
sg21
Vmov dword ptr [ebp - 0x10], eax
p309
sg5
L136118030L
sg6
Nsg23
S'mov'
p310
sg25
S'0x81cff0eL'
p311
sg27
Nsba(ibclass
BInstr
p312
(dp313
g2
Nsg17
S'cmp     [ebp+pss], 0'
p314
sg19
S'837df000'
p315
sg21
Vcmp dword ptr [ebp - 0x10], 0
p316
sg5
L136118033L
sg6
Nsg23
S'cmp'
p317
sg25
S'0x81cff11L'
p318
sg27
Nsba(ibclass
BInstr
p319
(dp320
g2
Nsg17
S'jnz     short loc_81CFF1E'
p321
sg19
S'7507'
p322
sg21
Vjne 9
p323
sg5
L136118037L
sg6
Nsg23
S'jnz'
p324
sg25
S'0x81cff15L'
p325
sg27
Nsbasg84
(lp326
Vmov eax, mem
p327
aVmov eax, mem
p328
aVmov eax, mem
p329
aVmov eax, mem
p330
aVmov mem, eax
p331
aVmov eax, mem
p332
aVmov eax, mem
p333
aVmov eax, mem
p334
aVmov eax, mem
p335
aVmov mem, eax
p336
aVmov eax, mem
p337
aVmov mem, eax
p338
aVlea eax, mem
p339
aVmov mem, eax
p340
aVmov mem, 0
p341
aVcall address
p342
aVmov mem, eax
p343
aVcmp mem, 0
p344
ag323
asg92
Nsg5
S'0x81cfed7L'
p345
sg94
(lp346
S'0x81cfec0L'
p347
asg6
Nsg96
(lp348
S'0x81cff17L'
p349
aS'0x81cff1eL'
p350
asg100
Nsg101
Nsg102
S'e6b99e64c640c978b05405fd46d63f68'
p351
sg104
S'a39c45c7579d407cf6698353129b81dc'
p352
sg106
(lp353
g198
ag205
ag212
ag219
ag226
ag233
ag240
ag247
ag254
ag261
ag268
ag275
ag282
ag289
ag296
ag303
ag310
ag317
ag324
asg108
Nsba(ibclass
BBasicBlock
p354
(dp355
g12
Nsg13
(lp356
(ibclass
BInstr
p357
(dp358
g2
Nsg17
S'mov     eax, 0'
p359
sg19
S'b800000000'
p360
sg21
Vmov eax, 0
p361
sg5
L136118039L
sg6
Nsg23
S'mov'
p362
sg25
S'0x81cff17L'
p363
sg27
Nsba(ibclass
BInstr
p364
(dp365
g2
Nsg17
S'jmp     short locret_81CFF8E'
p366
sg19
S'eb70'
p367
sg21
Vjmp 0x72
p368
sg5
L136118044L
sg6
Nsg23
S'jmp'
p369
sg25
S'0x81cff1cL'
p370
sg27
Nsbasg84
(lp371
g361
aVjmp address
p372
asg92
Nsg5
S'0x81cff17L'
p373
sg94
(lp374
S'0x81cfed7L'
p375
asg6
Nsg96
(lp376
S'0x81cff8eL'
p377
asg100
Nsg101
Nsg102
S'8b9a0d40e062be2b9b2d9885108fb196'
p378
sg104
S'bfbe752dd865c9a89011ba470eab331d'
p379
sg106
(lp380
g362
ag369
asg108
Nsba(ibclass
BBasicBlock
p381
(dp382
g12
Nsg13
(lp383
(ibclass
BInstr
p384
(dp385
g2
Nsg17
S'mov     eax, [ebp+pss]'
p386
sg19
S'8b45f0'
p387
sg21
Vmov eax, dword ptr [ebp - 0x10]
p388
sg5
L136118046L
sg6
Nsg23
S'mov'
p389
sg25
S'0x81cff1eL'
p390
sg27
Nsba(ibclass
BInstr
p391
(dp392
g2
Nsg17
S'mov     eax, [eax+4]'
p393
sg19
S'8b4004'
p394
sg21
Vmov eax, dword ptr [eax + 4]
p395
sg5
L136118049L
sg6
Nsg23
S'mov'
p396
sg25
S'0x81cff21L'
p397
sg27
Nsba(ibclass
BInstr
p398
(dp399
g2
Nsg17
S'test    eax, eax'
p400
sg19
S'85c0'
p401
sg21
Vtest eax, eax
p402
sg5
L136118052L
sg6
Nsg23
S'test'
p403
sg25
S'0x81cff24L'
p404
sg27
Nsba(ibclass
BInstr
p405
(dp406
g2
Nsg17
S'jz      short loc_81CFF8B'
p407
sg19
S'7463'
p408
sg21
Vje 0x65
p409
sg5
L136118054L
sg6
Nsg23
S'jz'
p410
sg25
S'0x81cff26L'
p411
sg27
Nsbasg84
(lp412
Vmov eax, mem
p413
aVmov eax, mem
p414
ag402
aVje address
p415
asg92
Nsg5
S'0x81cff1eL'
p416
sg94
(lp417
S'0x81cfed7L'
p418
asg6
Nsg96
(lp419
S'0x81cff28L'
p420
aS'0x81cff8bL'
p421
asg100
Nsg101
Nsg102
S'ea5d08c7dcc07640d42787f826218f11'
p422
sg104
S'103b924e2a82731ce51d187b2e41af3a'
p423
sg106
(lp424
g389
ag396
ag403
ag410
asg108
Nsba(ibclass
BBasicBlock
p425
(dp426
g12
Nsg13
(lp427
(ibclass
BInstr
p428
(dp429
g2
Nsg17
S'mov     eax, [ebp+pss]'
p430
sg19
S'8b45f0'
p431
sg21
Vmov eax, dword ptr [ebp - 0x10]
p432
sg5
L136118056L
sg6
Nsg23
S'mov'
p433
sg25
S'0x81cff28L'
p434
sg27
Nsba(ibclass
BInstr
p435
(dp436
g2
Nsg17
S'mov     eax, [eax+4]'
p437
sg19
S'8b4004'
p438
sg21
Vmov eax, dword ptr [eax + 4]
p439
sg5
L136118059L
sg6
Nsg23
S'mov'
p440
sg25
S'0x81cff2bL'
p441
sg27
Nsba(ibclass
BInstr
p442
(dp443
g2
Nsg17
S'mov     eax, [eax+4]'
p444
sg19
S'8b4004'
p445
sg21
Vmov eax, dword ptr [eax + 4]
p446
sg5
L136118062L
sg6
Nsg23
S'mov'
p447
sg25
S'0x81cff2eL'
p448
sg27
Nsba(ibclass
BInstr
p449
(dp450
g2
Nsg17
S'mov     [ebp+param], eax'
p451
sg19
S'8945f4'
p452
sg21
Vmov dword ptr [ebp - 0xc], eax
p453
sg5
L136118065L
sg6
Nsg23
S'mov'
p454
sg25
S'0x81cff31L'
p455
sg27
Nsba(ibclass
BInstr
p456
(dp457
g2
Nsg17
S'mov     eax, [ebp+pss]'
p458
sg19
S'8b45f0'
p459
sg21
Vmov eax, dword ptr [ebp - 0x10]
p460
sg5
L136118068L
sg6
Nsg23
S'mov'
p461
sg25
S'0x81cff34L'
p462
sg27
Nsba(ibclass
BInstr
p463
(dp464
g2
Nsg17
S'mov     eax, [eax+4]'
p465
sg19
S'8b4004'
p466
sg21
Vmov eax, dword ptr [eax + 4]
p467
sg5
L136118071L
sg6
Nsg23
S'mov'
p468
sg25
S'0x81cff37L'
p469
sg27
Nsba(ibclass
BInstr
p470
(dp471
g2
Nsg17
S'mov     eax, [eax]'
p472
sg19
S'8b00'
p473
sg21
Vmov eax, dword ptr [eax]
p474
sg5
L136118074L
sg6
Nsg23
S'mov'
p475
sg25
S'0x81cff3aL'
p476
sg27
Nsba(ibclass
BInstr
p477
(dp478
g2
Nsg17
S'mov     [esp], eax      ; a'
p479
sg19
S'890424'
p480
sg21
Vmov dword ptr [esp], eax
p481
sg5
L136118076L
sg6
Nsg23
S'mov'
p482
sg25
S'0x81cff3cL'
p483
sg27
Nsba(ibclass
BInstr
p484
(dp485
g2
Nsg17
S'call    OBJ_obj2nid'
p486
sg19
S'e82a67f1ff'
p487
sg21
Vcall 0xfff1672f
p488
sg5
L136118079L
sg6
Nsg23
S'call'
p489
sg25
S'0x81cff3fL'
p490
sg27
Nsba(ibclass
BInstr
p491
(dp492
g2
Nsg17
S'cmp     eax, 38Fh'
p493
sg19
S'3d8f030000'
p494
sg21
Vcmp eax, 0x38f
p495
sg5
L136118084L
sg6
Nsg23
S'cmp'
p496
sg25
S'0x81cff44L'
p497
sg27
Nsba(ibclass
BInstr
p498
(dp499
g2
Nsg17
S'jnz     short loc_81CFF8B'
p500
sg19
S'7540'
p501
sg21
Vjne 0x42
p502
sg5
L136118089L
sg6
Nsg23
S'jnz'
p503
sg25
S'0x81cff49L'
p504
sg27
Nsbasg84
(lp505
Vmov eax, mem
p506
aVmov eax, mem
p507
aVmov eax, mem
p508
aVmov mem, eax
p509
aVmov eax, mem
p510
aVmov eax, mem
p511
aVmov eax, mem
p512
aVmov mem, eax
p513
aVcall address
p514
aVcmp eax, address
p515
aVjne address
p516
asg92
Nsg5
S'0x81cff28L'
p517
sg94
(lp518
S'0x81cff1eL'
p519
asg6
Nsg96
(lp520
S'0x81cff4bL'
p521
aS'0x81cff8bL'
p522
asg100
Nsg101
Nsg102
S'2fb50496dab9223b1dc218091cb4923c'
p523
sg104
S'd9a67e67fafdadad3bf380166dca0712'
p524
sg106
(lp525
g433
ag440
ag447
ag454
ag461
ag468
ag475
ag482
ag489
ag496
ag503
asg108
Nsba(ibclass
BBasicBlock
p526
(dp527
g12
Nsg13
(lp528
(ibclass
BInstr
p529
(dp530
g2
Nsg17
S'mov     eax, [ebp+param]'
p531
sg19
S'8b45f4'
p532
sg21
Vmov eax, dword ptr [ebp - 0xc]
p533
sg5
L136118091L
sg6
Nsg23
S'mov'
p534
sg25
S'0x81cff4bL'
p535
sg27
Nsba(ibclass
BInstr
p536
(dp537
g2
Nsg17
S'mov     eax, [eax]'
p538
sg19
S'8b00'
p539
sg21
Vmov eax, dword ptr [eax]
p540
sg5
L136118094L
sg6
Nsg23
S'mov'
p541
sg25
S'0x81cff4eL'
p542
sg27
Nsba(ibclass
BInstr
p543
(dp544
g2
Nsg17
S'cmp     eax, 10h'
p545
sg19
S'83f810'
p546
sg21
Vcmp eax, 0x10
p547
sg5
L136118096L
sg6
Nsg23
S'cmp'
p548
sg25
S'0x81cff50L'
p549
sg27
Nsba(ibclass
BInstr
p550
(dp551
g2
Nsg17
S'jnz     short loc_81CFF8B'
p552
sg19
S'7536'
p553
sg21
Vjne 0x38
p554
sg5
L136118099L
sg6
Nsg23
S'jnz'
p555
sg25
S'0x81cff53L'
p556
sg27
Nsbasg84
(lp557
Vmov eax, mem
p558
aVmov eax, mem
p559
aVcmp eax, address
p560
aVjne address
p561
asg92
Nsg5
S'0x81cff4bL'
p562
sg94
(lp563
S'0x81cff28L'
p564
asg6
Nsg96
(lp565
S'0x81cff55L'
p566
aS'0x81cff8bL'
p567
asg100
Nsg101
Nsg102
S'a19a851724661b9339243c65cfd318e3'
p568
sg104
S'25a063ee277ab8c9b0b7060fa4111963'
p569
sg106
(lp570
g534
ag541
ag548
ag555
asg108
Nsba(ibclass
BBasicBlock
p571
(dp572
g12
Nsg13
(lp573
(ibclass
BInstr
p574
(dp575
g2
Nsg17
S'mov     eax, [ebp+param]'
p576
sg19
S'8b45f4'
p577
sg21
Vmov eax, dword ptr [ebp - 0xc]
p578
sg5
L136118101L
sg6
Nsg23
S'mov'
p579
sg25
S'0x81cff55L'
p580
sg27
Nsba(ibclass
BInstr
p581
(dp582
g2
Nsg17
S'mov     eax, [eax+4]'
p583
sg19
S'8b4004'
p584
sg21
Vmov eax, dword ptr [eax + 4]
p585
sg5
L136118104L
sg6
Nsg23
S'mov'
p586
sg25
S'0x81cff58L'
p587
sg27
Nsba(ibclass
BInstr
p588
(dp589
g2
Nsg17
S'mov     eax, [eax+8]'
p590
sg19
S'8b4008'
p591
sg21
Vmov eax, dword ptr [eax + 8]
p592
sg5
L136118107L
sg6
Nsg23
S'mov'
p593
sg25
S'0x81cff5bL'
p594
sg27
Nsba(ibclass
BInstr
p595
(dp596
g2
Nsg17
S'mov     [ebp+p], eax'
p597
sg19
S'8945e8'
p598
sg21
Vmov dword ptr [ebp - 0x18], eax
p599
sg5
L136118110L
sg6
Nsg23
S'mov'
p600
sg25
S'0x81cff5eL'
p601
sg27
Nsba(ibclass
BInstr
p602
(dp603
g2
Nsg17
S'mov     eax, [ebp+param]'
p604
sg19
S'8b45f4'
p605
sg21
Vmov eax, dword ptr [ebp - 0xc]
p606
sg5
L136118113L
sg6
Nsg23
S'mov'
p607
sg25
S'0x81cff61L'
p608
sg27
Nsba(ibclass
BInstr
p609
(dp610
g2
Nsg17
S'mov     eax, [eax+4]'
p611
sg19
S'8b4004'
p612
sg21
Vmov eax, dword ptr [eax + 4]
p613
sg5
L136118116L
sg6
Nsg23
S'mov'
p614
sg25
S'0x81cff64L'
p615
sg27
Nsba(ibclass
BInstr
p616
(dp617
g2
Nsg17
S'mov     eax, [eax]'
p618
sg19
S'8b00'
p619
sg21
Vmov eax, dword ptr [eax]
p620
sg5
L136118119L
sg6
Nsg23
S'mov'
p621
sg25
S'0x81cff67L'
p622
sg27
Nsba(ibclass
BInstr
p623
(dp624
g2
Nsg17
S'mov     [ebp+plen], eax'
p625
sg19
S'8945ec'
p626
sg21
Vmov dword ptr [ebp - 0x14], eax
p627
sg5
L136118121L
sg6
Nsg23
S'mov'
p628
sg25
S'0x81cff69L'
p629
sg27
Nsba(ibclass
BInstr
p630
(dp631
g2
Nsg17
S'mov     eax, [ebp+plen]'
p632
sg19
S'8b45ec'
p633
sg21
Vmov eax, dword ptr [ebp - 0x14]
p634
sg5
L136118124L
sg6
Nsg23
S'mov'
p635
sg25
S'0x81cff6cL'
p636
sg27
Nsba(ibclass
BInstr
p637
(dp638
g2
Nsg17
S'mov     [esp+8], eax    ; len'
p639
sg19
S'89442408'
p640
sg21
Vmov dword ptr [esp + 8], eax
p641
sg5
L136118127L
sg6
Nsg23
S'mov'
p642
sg25
S'0x81cff6fL'
p643
sg27
Nsba(ibclass
BInstr
p644
(dp645
g2
Nsg17
S'lea     eax, [ebp+p]'
p646
sg19
S'8d45e8'
p647
sg21
Vlea eax, [ebp - 0x18]
p648
sg5
L136118131L
sg6
Nsg23
S'lea'
p649
sg25
S'0x81cff73L'
p650
sg27
Nsba(ibclass
BInstr
p651
(dp652
g2
Nsg17
S'mov     [esp+4], eax    ; in'
p653
sg19
S'89442404'
p654
sg21
Vmov dword ptr [esp + 4], eax
p655
sg5
L136118134L
sg6
Nsg23
S'mov'
p656
sg25
S'0x81cff76L'
p657
sg27
Nsba(ibclass
BInstr
p658
(dp659
g2
Nsg17
S'mov     dword ptr [esp], 0; a'
p660
sg19
S'c7042400000000'
p661
sg21
Vmov dword ptr [esp], 0
p662
sg5
L136118138L
sg6
Nsg23
S'mov'
p663
sg25
S'0x81cff7aL'
p664
sg27
Nsba(ibclass
BInstr
p665
(dp666
g2
Nsg17
S'call    d2i_X509_ALGOR'
p667
sg19
S'e810d4f7ff'
p668
sg21
Vcall 0xfff7d415
p669
sg5
L136118145L
sg6
Nsg23
S'call'
p670
sg25
S'0x81cff81L'
p671
sg27
Nsba(ibclass
BInstr
p672
(dp673
g2
Nsg17
S'mov     edx, [ebp+pmaskHash]'
p674
sg19
S'8b550c'
p675
sg21
Vmov edx, dword ptr [ebp + 0xc]
p676
sg5
L136118150L
sg6
Nsg23
S'mov'
p677
sg25
S'0x81cff86L'
p678
sg27
Nsba(ibclass
BInstr
p679
(dp680
g2
Nsg17
S'mov     [edx], eax'
p681
sg19
S'8902'
p682
sg21
Vmov dword ptr [edx], eax
p683
sg5
L136118153L
sg6
Nsg23
S'mov'
p684
sg25
S'0x81cff89L'
p685
sg27
Nsbasg84
(lp686
Vmov eax, mem
p687
aVmov eax, mem
p688
aVmov eax, mem
p689
aVmov mem, eax
p690
aVmov eax, mem
p691
aVmov eax, mem
p692
aVmov eax, mem
p693
aVmov mem, eax
p694
aVmov eax, mem
p695
aVmov mem, eax
p696
aVlea eax, mem
p697
aVmov mem, eax
p698
aVmov mem, 0
p699
aVcall address
p700
aVmov edx, mem
p701
aVmov mem, eax
p702
asg92
Nsg5
S'0x81cff55L'
p703
sg94
(lp704
S'0x81cff4bL'
p705
asg6
Nsg96
(lp706
S'0x81cff8bL'
p707
asg100
Nsg101
Nsg102
S'0823a8175c81c7568b91b8cc5fc4f24e'
p708
sg104
S'56379755e46f28783b61d047293dd22a'
p709
sg106
(lp710
g579
ag586
ag593
ag600
ag607
ag614
ag621
ag628
ag635
ag642
ag649
ag656
ag663
ag670
ag677
ag684
asg108
Nsba(ibclass
BBasicBlock
p711
(dp712
g12
Nsg13
(lp713
(ibclass
BInstr
p714
(dp715
g2
Nsg17
S'mov     eax, [ebp+pss]'
p716
sg19
S'8b45f0'
p717
sg21
Vmov eax, dword ptr [ebp - 0x10]
p718
sg5
L136118155L
sg6
Nsg23
S'mov'
p719
sg25
S'0x81cff8bL'
p720
sg27
Nsbasg84
(lp721
Vmov eax, mem
p722
asg92
Nsg5
S'0x81cff8bL'
p723
sg94
(lp724
S'0x81cff1eL'
p725
aS'0x81cff28L'
p726
aS'0x81cff4bL'
p727
aS'0x81cff55L'
p728
asg6
Nsg96
(lp729
S'0x81cff8eL'
p730
asg100
Nsg101
Nsg102
S'96a4a0e6e9ac88756a0fcba989d0a844'
p731
sg104
S'da3a10212e6b688447f8e74c20e21f06'
p732
sg106
(lp733
g719
asg108
Nsba(ibclass
BBasicBlock
p734
(dp735
g12
Nsg13
(lp736
(ibclass
BInstr
p737
(dp738
g2
Nsg17
S'leave'
p739
sg19
S'c9'
p740
sg21
Vleave 
p741
sg5
L136118158L
sg6
Nsg23
S'leave'
p742
sg25
S'0x81cff8eL'
p743
sg27
Nsba(ibclass
BInstr
p744
(dp745
g2
Nsg17
S'retn'
p746
sg19
S'c3'
p747
sg21
Vret 
p748
sg5
L136118159L
sg6
Nsg23
S'retn'
p749
sg25
S'0x81cff8fL'
p750
sg27
Nsbasg84
(lp751
Vleave
p752
aVret
p753
asg92
Nsg5
S'0x81cff8eL'
p754
sg94
(lp755
S'0x81cfecdL'
p756
aS'0x81cff17L'
p757
aS'0x81cff8bL'
p758
asg6
Nsg96
(lp759
sg100
Nsg101
Nsg102
S'08c78f73a6f87c85da88b2982f54ce2a'
p760
sg104
S'393fee3c9fb1d26424d4b7704918e387'
p761
sg106
(lp762
g742
ag749
asg108
Nsbasb.