(ibclass
BFunc
p0
(dp1
S'hash'
p2
NsS'name'
p3
S'ERR_load_SSL_strings'
p4
sS'start_address'
p5
L135142718L
sS'flag'
p6
NsS'program'
p7
NsS'bbs'
p8
(lp9
(ibclass
BBasicBlock
p10
(dp11
S'function'
p12
NsS'binstrs'
p13
(lp14
(ibclass
BInstr
p15
(dp16
g2
NsS'disasm'
p17
S'push    ebp'
p18
sS'bytes'
p19
S'55'
p20
sS'disasm_striped'
p21
Vpush ebp
p22
sg5
L135142718L
sg6
NsS'mnem'
p23
S'push'
p24
sS'address'
p25
S'0x80e1d3eL'
p26
sS'basicblock'
p27
Nsba(ibclass
BInstr
p28
(dp29
g2
Nsg17
S'mov     ebp, esp'
p30
sg19
S'89e5'
p31
sg21
Vmov ebp, esp
p32
sg5
L135142719L
sg6
Nsg23
S'mov'
p33
sg25
S'0x80e1d3fL'
p34
sg27
Nsba(ibclass
BInstr
p35
(dp36
g2
Nsg17
S'sub     esp, 18h'
p37
sg19
S'83ec18'
p38
sg21
Vsub esp, 0x18
p39
sg5
L135142721L
sg6
Nsg23
S'sub'
p40
sg25
S'0x80e1d41L'
p41
sg27
Nsba(ibclass
BInstr
p42
(dp43
g2
Nsg17
S'mov     eax, SSL_str_functs.error'
p44
sg19
S'a140352908'
p45
sg21
Vmov eax, dword ptr [0x8293540]
p46
sg5
L135142724L
sg6
Nsg23
S'mov'
p47
sg25
S'0x80e1d44L'
p48
sg27
Nsba(ibclass
BInstr
p49
(dp50
g2
Nsg17
S'mov     [esp], eax      ; e'
p51
sg19
S'890424'
p52
sg21
Vmov dword ptr [esp], eax
p53
sg5
L135142729L
sg6
Nsg23
S'mov'
p54
sg25
S'0x80e1d49L'
p55
sg27
Nsba(ibclass
BInstr
p56
(dp57
g2
Nsg17
S'call    ERR_func_error_string'
p58
sg19
S'e8cfc10500'
p59
sg21
Vcall 0x5c1d4
p60
sg5
L135142732L
sg6
Nsg23
S'call'
p61
sg25
S'0x80e1d4cL'
p62
sg27
Nsba(ibclass
BInstr
p63
(dp64
g2
Nsg17
S'test    eax, eax'
p65
sg19
S'85c0'
p66
sg21
Vtest eax, eax
p67
sg5
L135142737L
sg6
Nsg23
S'test'
p68
sg25
S'0x80e1d51L'
p69
sg27
Nsba(ibclass
BInstr
p70
(dp71
g2
Nsg17
S'jnz     short locret_80E1D7D'
p72
sg19
S'7528'
p73
sg21
Vjne 0x2a
p74
sg5
L135142739L
sg6
Nsg23
S'jnz'
p75
sg25
S'0x80e1d53L'
p76
sg27
NsbasS'disasm_list'
p77
(lp78
g22
ag32
aVsub esp, address
p79
aVmov eax, mem
p80
aVmov mem, eax
p81
aVcall address
p82
ag67
aVjne address
p83
asS'end_address'
p84
Nsg5
S'0x80e1d3eL'
p85
sS'preds'
p86
(lp87
sg6
NsS'succs'
p88
(lp89
S'0x80e1d55L'
p90
aS'0x80e1d7dL'
p91
asS'hash_v3'
p92
NsS'flag_v2'
p93
NsS'hash_v1'
p94
S'15a223a75b67061d7f908f630ae82717'
p95
sS'hash_v2'
p96
S'c2a29065fcd2f716653be672e6f7b1d9'
p97
sS'mnen_list'
p98
(lp99
g24
ag33
ag40
ag47
ag54
ag61
ag68
ag75
asS'neighbour_disasm_list'
p100
Nsba(ibclass
BBasicBlock
p101
(dp102
g12
Nsg13
(lp103
(ibclass
BInstr
p104
(dp105
g2
Nsg17
S'mov     dword ptr [esp+4], offset SSL_str_functs; str'
p106
sg19
S'c744240440352908'
p107
sg21
Vmov dword ptr [esp + 4], 0x8293540
p108
sg5
L135142741L
sg6
Nsg23
S'mov'
p109
sg25
S'0x80e1d55L'
p110
sg27
Nsba(ibclass
BInstr
p111
(dp112
g2
Nsg17
S'mov     dword ptr [esp], 0; lib'
p113
sg19
S'c7042400000000'
p114
sg21
Vmov dword ptr [esp], 0
p115
sg5
L135142749L
sg6
Nsg23
S'mov'
p116
sg25
S'0x80e1d5dL'
p117
sg27
Nsba(ibclass
BInstr
p118
(dp119
g2
Nsg17
S'call    ERR_load_strings'
p120
sg19
S'e8b7b70500'
p121
sg21
Vcall 0x5b7bc
p122
sg5
L135142756L
sg6
Nsg23
S'call'
p123
sg25
S'0x80e1d64L'
p124
sg27
Nsba(ibclass
BInstr
p125
(dp126
g2
Nsg17
S'mov     dword ptr [esp+4], offset SSL_str_reasons; str'
p127
sg19
S'c7442404203c2908'
p128
sg21
Vmov dword ptr [esp + 4], 0x8293c20
p129
sg5
L135142761L
sg6
Nsg23
S'mov'
p130
sg25
S'0x80e1d69L'
p131
sg27
Nsba(ibclass
BInstr
p132
(dp133
g2
Nsg17
S'mov     dword ptr [esp], 0; lib'
p134
sg19
S'c7042400000000'
p135
sg21
Vmov dword ptr [esp], 0
p136
sg5
L135142769L
sg6
Nsg23
S'mov'
p137
sg25
S'0x80e1d71L'
p138
sg27
Nsba(ibclass
BInstr
p139
(dp140
g2
Nsg17
S'call    ERR_load_strings'
p141
sg19
S'e8a3b70500'
p142
sg21
Vcall 0x5b7a8
p143
sg5
L135142776L
sg6
Nsg23
S'call'
p144
sg25
S'0x80e1d78L'
p145
sg27
Nsbasg77
(lp146
Vmov mem, address
p147
aVmov mem, 0
p148
aVcall address
p149
aVmov mem, address
p150
aVmov mem, 0
p151
aVcall address
p152
asg84
Nsg5
S'0x80e1d55L'
p153
sg86
(lp154
S'0x80e1d3eL'
p155
asg6
Nsg88
(lp156
S'0x80e1d7dL'
p157
asg92
Nsg93
Nsg94
S'cad24a8299a2e7dae392cb080f4633bd'
p158
sg96
S'052a8663ce432ce3544c8219a1d92c0a'
p159
sg98
(lp160
g109
ag116
ag123
ag130
ag137
ag144
asg100
Nsba(ibclass
BBasicBlock
p161
(dp162
g12
Nsg13
(lp163
(ibclass
BInstr
p164
(dp165
g2
Nsg17
S'leave'
p166
sg19
S'c9'
p167
sg21
Vleave 
p168
sg5
L135142781L
sg6
Nsg23
S'leave'
p169
sg25
S'0x80e1d7dL'
p170
sg27
Nsba(ibclass
BInstr
p171
(dp172
g2
Nsg17
S'retn'
p173
sg19
S'c3'
p174
sg21
Vret 
p175
sg5
L135142782L
sg6
Nsg23
S'retn'
p176
sg25
S'0x80e1d7eL'
p177
sg27
Nsbasg77
(lp178
Vleave
p179
aVret
p180
asg84
Nsg5
S'0x80e1d7dL'
p181
sg86
(lp182
S'0x80e1d3eL'
p183
aS'0x80e1d55L'
p184
asg6
Nsg88
(lp185
sg92
Nsg93
Nsg94
S'08c78f73a6f87c85da88b2982f54ce2a'
p186
sg96
S'393fee3c9fb1d26424d4b7704918e387'
p187
sg98
(lp188
g169
ag176
asg100
Nsbasb.