(ibclass
BFunc
p0
(dp1
S'hash'
p2
NsS'name'
p3
S'MDC2_Update'
p4
sS'start_address'
p5
L136035479L
sS'flag'
p6
NsS'program'
p7
NsS'bbs'
p8
(lp9
(ibclass
BBasicBlock
p10
(dp11
S'function'
p12
NsS'binstrs'
p13
(lp14
(ibclass
BInstr
p15
(dp16
g2
NsS'disasm'
p17
S'push    ebp'
p18
sS'bytes'
p19
S'55'
p20
sS'disasm_striped'
p21
Vpush ebp
p22
sg5
L136035479L
sg6
NsS'mnem'
p23
S'push'
p24
sS'address'
p25
S'0x81bbc97L'
p26
sS'basicblock'
p27
Nsba(ibclass
BInstr
p28
(dp29
g2
Nsg17
S'mov     ebp, esp'
p30
sg19
S'89e5'
p31
sg21
Vmov ebp, esp
p32
sg5
L136035480L
sg6
Nsg23
S'mov'
p33
sg25
S'0x81bbc98L'
p34
sg27
Nsba(ibclass
BInstr
p35
(dp36
g2
Nsg17
S'sub     esp, 28h'
p37
sg19
S'83ec28'
p38
sg21
Vsub esp, 0x28
p39
sg5
L136035482L
sg6
Nsg23
S'sub'
p40
sg25
S'0x81bbc9aL'
p41
sg27
Nsba(ibclass
BInstr
p42
(dp43
g2
Nsg17
S'mov     eax, [ebp+c]'
p44
sg19
S'8b4508'
p45
sg21
Vmov eax, dword ptr [ebp + 8]
p46
sg5
L136035485L
sg6
Nsg23
S'mov'
p47
sg25
S'0x81bbc9dL'
p48
sg27
Nsba(ibclass
BInstr
p49
(dp50
g2
Nsg17
S'mov     eax, [eax]'
p51
sg19
S'8b00'
p52
sg21
Vmov eax, dword ptr [eax]
p53
sg5
L136035488L
sg6
Nsg23
S'mov'
p54
sg25
S'0x81bbca0L'
p55
sg27
Nsba(ibclass
BInstr
p56
(dp57
g2
Nsg17
S'mov     [ebp+i], eax'
p58
sg19
S'8945f0'
p59
sg21
Vmov dword ptr [ebp - 0x10], eax
p60
sg5
L136035490L
sg6
Nsg23
S'mov'
p61
sg25
S'0x81bbca2L'
p62
sg27
Nsba(ibclass
BInstr
p63
(dp64
g2
Nsg17
S'cmp     [ebp+i], 0'
p65
sg19
S'837df000'
p66
sg21
Vcmp dword ptr [ebp - 0x10], 0
p67
sg5
L136035493L
sg6
Nsg23
S'cmp'
p68
sg25
S'0x81bbca5L'
p69
sg27
Nsba(ibclass
BInstr
p70
(dp71
g2
Nsg17
S'jz      loc_81BBD54'
p72
sg19
S'0f84a5000000'
p73
sg21
Vje 0xab
p74
sg5
L136035497L
sg6
Nsg23
S'jz'
p75
sg25
S'0x81bbca9L'
p76
sg27
NsbasS'disasm_list'
p77
(lp78
g22
ag32
aVsub esp, address
p79
aVmov eax, mem
p80
aVmov eax, mem
p81
aVmov mem, eax
p82
aVcmp mem, 0
p83
aVje address
p84
asS'end_address'
p85
Nsg5
S'0x81bbc97L'
p86
sS'preds'
p87
(lp88
sg6
NsS'succs'
p89
(lp90
S'0x81bbcafL'
p91
aS'0x81bbd54L'
p92
asS'hash_v3'
p93
NsS'flag_v2'
p94
NsS'hash_v1'
p95
S'5e0d9e04d51d2bbf795aef1bb6a73128'
p96
sS'hash_v2'
p97
S'2281d1334f351f60ab77e28d0f37bfe2'
p98
sS'mnen_list'
p99
(lp100
g24
ag33
ag40
ag47
ag54
ag61
ag68
ag75
asS'neighbour_disasm_list'
p101
Nsba(ibclass
BBasicBlock
p102
(dp103
g12
Nsg13
(lp104
(ibclass
BInstr
p105
(dp106
g2
Nsg17
S'mov     eax, [ebp+len]'
p107
sg19
S'8b4510'
p108
sg21
Vmov eax, dword ptr [ebp + 0x10]
p109
sg5
L136035503L
sg6
Nsg23
S'mov'
p110
sg25
S'0x81bbcafL'
p111
sg27
Nsba(ibclass
BInstr
p112
(dp113
g2
Nsg17
S'mov     edx, [ebp+i]'
p114
sg19
S'8b55f0'
p115
sg21
Vmov edx, dword ptr [ebp - 0x10]
p116
sg5
L136035506L
sg6
Nsg23
S'mov'
p117
sg25
S'0x81bbcb2L'
p118
sg27
Nsba(ibclass
BInstr
p119
(dp120
g2
Nsg17
S'add     eax, edx'
p121
sg19
S'01d0'
p122
sg21
Vadd eax, edx
p123
sg5
L136035509L
sg6
Nsg23
S'add'
p124
sg25
S'0x81bbcb5L'
p125
sg27
Nsba(ibclass
BInstr
p126
(dp127
g2
Nsg17
S'cmp     eax, 7'
p128
sg19
S'83f807'
p129
sg21
Vcmp eax, 7
p130
sg5
L136035511L
sg6
Nsg23
S'cmp'
p131
sg25
S'0x81bbcb7L'
p132
sg27
Nsba(ibclass
BInstr
p133
(dp134
g2
Nsg17
S'ja      short loc_81BBCF6'
p135
sg19
S'773a'
p136
sg21
Vja 0x3c
p137
sg5
L136035514L
sg6
Nsg23
S'ja'
p138
sg25
S'0x81bbcbaL'
p139
sg27
Nsbasg77
(lp140
Vmov eax, mem
p141
aVmov edx, mem
p142
ag123
ag130
aVja address
p143
asg85
Nsg5
S'0x81bbcafL'
p144
sg87
(lp145
S'0x81bbc97L'
p146
asg6
Nsg89
(lp147
S'0x81bbcbcL'
p148
aS'0x81bbcf6L'
p149
asg93
Nsg94
Nsg95
S'914ea66c958eb994aff66c9dd120226b'
p150
sg97
S'321075bbe87f287bde5b4b22104a0021'
p151
sg99
(lp152
g110
ag117
ag124
ag131
ag138
asg101
Nsba(ibclass
BBasicBlock
p153
(dp154
g12
Nsg13
(lp155
(ibclass
BInstr
p156
(dp157
g2
Nsg17
S'mov     eax, [ebp+i]'
p158
sg19
S'8b45f0'
p159
sg21
Vmov eax, dword ptr [ebp - 0x10]
p160
sg5
L136035516L
sg6
Nsg23
S'mov'
p161
sg25
S'0x81bbcbcL'
p162
sg27
Nsba(ibclass
BInstr
p163
(dp164
g2
Nsg17
S'mov     edx, [ebp+c]'
p165
sg19
S'8b5508'
p166
sg21
Vmov edx, dword ptr [ebp + 8]
p167
sg5
L136035519L
sg6
Nsg23
S'mov'
p168
sg25
S'0x81bbcbfL'
p169
sg27
Nsba(ibclass
BInstr
p170
(dp171
g2
Nsg17
S'add     eax, edx'
p172
sg19
S'01d0'
p173
sg21
Vadd eax, edx
p174
sg5
L136035522L
sg6
Nsg23
S'add'
p175
sg25
S'0x81bbcc2L'
p176
sg27
Nsba(ibclass
BInstr
p177
(dp178
g2
Nsg17
S'lea     edx, [eax+4]'
p179
sg19
S'8d5004'
p180
sg21
Vlea edx, [eax + 4]
p181
sg5
L136035524L
sg6
Nsg23
S'lea'
p182
sg25
S'0x81bbcc4L'
p183
sg27
Nsba(ibclass
BInstr
p184
(dp185
g2
Nsg17
S'mov     eax, [ebp+len]'
p186
sg19
S'8b4510'
p187
sg21
Vmov eax, dword ptr [ebp + 0x10]
p188
sg5
L136035527L
sg6
Nsg23
S'mov'
p189
sg25
S'0x81bbcc7L'
p190
sg27
Nsba(ibclass
BInstr
p191
(dp192
g2
Nsg17
S'mov     [esp+8], eax    ; n'
p193
sg19
S'89442408'
p194
sg21
Vmov dword ptr [esp + 8], eax
p195
sg5
L136035530L
sg6
Nsg23
S'mov'
p196
sg25
S'0x81bbccaL'
p197
sg27
Nsba(ibclass
BInstr
p198
(dp199
g2
Nsg17
S'mov     eax, [ebp+in]'
p200
sg19
S'8b450c'
p201
sg21
Vmov eax, dword ptr [ebp + 0xc]
p202
sg5
L136035534L
sg6
Nsg23
S'mov'
p203
sg25
S'0x81bbcceL'
p204
sg27
Nsba(ibclass
BInstr
p205
(dp206
g2
Nsg17
S'mov     [esp+4], eax    ; src'
p207
sg19
S'89442404'
p208
sg21
Vmov dword ptr [esp + 4], eax
p209
sg5
L136035537L
sg6
Nsg23
S'mov'
p210
sg25
S'0x81bbcd1L'
p211
sg27
Nsba(ibclass
BInstr
p212
(dp213
g2
Nsg17
S'mov     [esp], edx      ; dest'
p214
sg19
S'891424'
p215
sg21
Vmov dword ptr [esp], edx
p216
sg5
L136035541L
sg6
Nsg23
S'mov'
p217
sg25
S'0x81bbcd5L'
p218
sg27
Nsba(ibclass
BInstr
p219
(dp220
g2
Nsg17
S'call    _memcpy'
p221
sg19
S'e863d8e8ff'
p222
sg21
Vcall 0xffe8d868
p223
sg5
L136035544L
sg6
Nsg23
S'call'
p224
sg25
S'0x81bbcd8L'
p225
sg27
Nsba(ibclass
BInstr
p226
(dp227
g2
Nsg17
S'mov     eax, [ebp+c]'
p228
sg19
S'8b4508'
p229
sg21
Vmov eax, dword ptr [ebp + 8]
p230
sg5
L136035549L
sg6
Nsg23
S'mov'
p231
sg25
S'0x81bbcddL'
p232
sg27
Nsba(ibclass
BInstr
p233
(dp234
g2
Nsg17
S'mov     edx, [eax]'
p235
sg19
S'8b10'
p236
sg21
Vmov edx, dword ptr [eax]
p237
sg5
L136035552L
sg6
Nsg23
S'mov'
p238
sg25
S'0x81bbce0L'
p239
sg27
Nsba(ibclass
BInstr
p240
(dp241
g2
Nsg17
S'mov     eax, [ebp+len]'
p242
sg19
S'8b4510'
p243
sg21
Vmov eax, dword ptr [ebp + 0x10]
p244
sg5
L136035554L
sg6
Nsg23
S'mov'
p245
sg25
S'0x81bbce2L'
p246
sg27
Nsba(ibclass
BInstr
p247
(dp248
g2
Nsg17
S'add     edx, eax'
p249
sg19
S'01c2'
p250
sg21
Vadd edx, eax
p251
sg5
L136035557L
sg6
Nsg23
S'add'
p252
sg25
S'0x81bbce5L'
p253
sg27
Nsba(ibclass
BInstr
p254
(dp255
g2
Nsg17
S'mov     eax, [ebp+c]'
p256
sg19
S'8b4508'
p257
sg21
Vmov eax, dword ptr [ebp + 8]
p258
sg5
L136035559L
sg6
Nsg23
S'mov'
p259
sg25
S'0x81bbce7L'
p260
sg27
Nsba(ibclass
BInstr
p261
(dp262
g2
Nsg17
S'mov     [eax], edx'
p263
sg19
S'8910'
p264
sg21
Vmov dword ptr [eax], edx
p265
sg5
L136035562L
sg6
Nsg23
S'mov'
p266
sg25
S'0x81bbceaL'
p267
sg27
Nsba(ibclass
BInstr
p268
(dp269
g2
Nsg17
S'mov     eax, 1'
p270
sg19
S'b801000000'
p271
sg21
Vmov eax, 1
p272
sg5
L136035564L
sg6
Nsg23
S'mov'
p273
sg25
S'0x81bbcecL'
p274
sg27
Nsba(ibclass
BInstr
p275
(dp276
g2
Nsg17
S'jmp     locret_81BBDBE'
p277
sg19
S'e9c8000000'
p278
sg21
Vjmp 0xcd
p279
sg5
L136035569L
sg6
Nsg23
S'jmp'
p280
sg25
S'0x81bbcf1L'
p281
sg27
Nsbasg77
(lp282
Vmov eax, mem
p283
aVmov edx, mem
p284
ag174
aVlea edx, mem
p285
aVmov eax, mem
p286
aVmov mem, eax
p287
aVmov eax, mem
p288
aVmov mem, eax
p289
aVmov mem, edx
p290
aVcall address
p291
aVmov eax, mem
p292
aVmov edx, mem
p293
aVmov eax, mem
p294
ag251
aVmov eax, mem
p295
aVmov mem, edx
p296
ag272
aVjmp address
p297
asg85
Nsg5
S'0x81bbcbcL'
p298
sg87
(lp299
S'0x81bbcafL'
p300
asg6
Nsg89
(lp301
S'0x81bbdbeL'
p302
asg93
Nsg94
Nsg95
S'b5fd0bb386efedf06e5c9919f0d5251a'
p303
sg97
S'cbd76310a53399de43e964790908146d'
p304
sg99
(lp305
g161
ag168
ag175
ag182
ag189
ag196
ag203
ag210
ag217
ag224
ag231
ag238
ag245
ag252
ag259
ag266
ag273
ag280
asg101
Nsba(ibclass
BBasicBlock
p306
(dp307
g12
Nsg13
(lp308
(ibclass
BInstr
p309
(dp310
g2
Nsg17
S'mov     eax, 8'
p311
sg19
S'b808000000'
p312
sg21
Vmov eax, 8
p313
sg5
L136035574L
sg6
Nsg23
S'mov'
p314
sg25
S'0x81bbcf6L'
p315
sg27
Nsba(ibclass
BInstr
p316
(dp317
g2
Nsg17
S'sub     eax, [ebp+i]'
p318
sg19
S'2b45f0'
p319
sg21
Vsub eax, dword ptr [ebp - 0x10]
p320
sg5
L136035579L
sg6
Nsg23
S'sub'
p321
sg25
S'0x81bbcfbL'
p322
sg27
Nsba(ibclass
BInstr
p323
(dp324
g2
Nsg17
S'mov     [ebp+j], eax'
p325
sg19
S'8945f4'
p326
sg21
Vmov dword ptr [ebp - 0xc], eax
p327
sg5
L136035582L
sg6
Nsg23
S'mov'
p328
sg25
S'0x81bbcfeL'
p329
sg27
Nsba(ibclass
BInstr
p330
(dp331
g2
Nsg17
S'mov     eax, [ebp+i]'
p332
sg19
S'8b45f0'
p333
sg21
Vmov eax, dword ptr [ebp - 0x10]
p334
sg5
L136035585L
sg6
Nsg23
S'mov'
p335
sg25
S'0x81bbd01L'
p336
sg27
Nsba(ibclass
BInstr
p337
(dp338
g2
Nsg17
S'mov     edx, [ebp+c]'
p339
sg19
S'8b5508'
p340
sg21
Vmov edx, dword ptr [ebp + 8]
p341
sg5
L136035588L
sg6
Nsg23
S'mov'
p342
sg25
S'0x81bbd04L'
p343
sg27
Nsba(ibclass
BInstr
p344
(dp345
g2
Nsg17
S'add     eax, edx'
p346
sg19
S'01d0'
p347
sg21
Vadd eax, edx
p348
sg5
L136035591L
sg6
Nsg23
S'add'
p349
sg25
S'0x81bbd07L'
p350
sg27
Nsba(ibclass
BInstr
p351
(dp352
g2
Nsg17
S'lea     edx, [eax+4]'
p353
sg19
S'8d5004'
p354
sg21
Vlea edx, [eax + 4]
p355
sg5
L136035593L
sg6
Nsg23
S'lea'
p356
sg25
S'0x81bbd09L'
p357
sg27
Nsba(ibclass
BInstr
p358
(dp359
g2
Nsg17
S'mov     eax, [ebp+j]'
p360
sg19
S'8b45f4'
p361
sg21
Vmov eax, dword ptr [ebp - 0xc]
p362
sg5
L136035596L
sg6
Nsg23
S'mov'
p363
sg25
S'0x81bbd0cL'
p364
sg27
Nsba(ibclass
BInstr
p365
(dp366
g2
Nsg17
S'mov     [esp+8], eax    ; n'
p367
sg19
S'89442408'
p368
sg21
Vmov dword ptr [esp + 8], eax
p369
sg5
L136035599L
sg6
Nsg23
S'mov'
p370
sg25
S'0x81bbd0fL'
p371
sg27
Nsba(ibclass
BInstr
p372
(dp373
g2
Nsg17
S'mov     eax, [ebp+in]'
p374
sg19
S'8b450c'
p375
sg21
Vmov eax, dword ptr [ebp + 0xc]
p376
sg5
L136035603L
sg6
Nsg23
S'mov'
p377
sg25
S'0x81bbd13L'
p378
sg27
Nsba(ibclass
BInstr
p379
(dp380
g2
Nsg17
S'mov     [esp+4], eax    ; src'
p381
sg19
S'89442404'
p382
sg21
Vmov dword ptr [esp + 4], eax
p383
sg5
L136035606L
sg6
Nsg23
S'mov'
p384
sg25
S'0x81bbd16L'
p385
sg27
Nsba(ibclass
BInstr
p386
(dp387
g2
Nsg17
S'mov     [esp], edx      ; dest'
p388
sg19
S'891424'
p389
sg21
Vmov dword ptr [esp], edx
p390
sg5
L136035610L
sg6
Nsg23
S'mov'
p391
sg25
S'0x81bbd1aL'
p392
sg27
Nsba(ibclass
BInstr
p393
(dp394
g2
Nsg17
S'call    _memcpy'
p395
sg19
S'e81ed8e8ff'
p396
sg21
Vcall 0xffe8d823
p397
sg5
L136035613L
sg6
Nsg23
S'call'
p398
sg25
S'0x81bbd1dL'
p399
sg27
Nsba(ibclass
BInstr
p400
(dp401
g2
Nsg17
S'mov     eax, [ebp+j]'
p402
sg19
S'8b45f4'
p403
sg21
Vmov eax, dword ptr [ebp - 0xc]
p404
sg5
L136035618L
sg6
Nsg23
S'mov'
p405
sg25
S'0x81bbd22L'
p406
sg27
Nsba(ibclass
BInstr
p407
(dp408
g2
Nsg17
S'sub     [ebp+len], eax'
p409
sg19
S'294510'
p410
sg21
Vsub dword ptr [ebp + 0x10], eax
p411
sg5
L136035621L
sg6
Nsg23
S'sub'
p412
sg25
S'0x81bbd25L'
p413
sg27
Nsba(ibclass
BInstr
p414
(dp415
g2
Nsg17
S'mov     eax, [ebp+j]'
p416
sg19
S'8b45f4'
p417
sg21
Vmov eax, dword ptr [ebp - 0xc]
p418
sg5
L136035624L
sg6
Nsg23
S'mov'
p419
sg25
S'0x81bbd28L'
p420
sg27
Nsba(ibclass
BInstr
p421
(dp422
g2
Nsg17
S'add     [ebp+in], eax'
p423
sg19
S'01450c'
p424
sg21
Vadd dword ptr [ebp + 0xc], eax
p425
sg5
L136035627L
sg6
Nsg23
S'add'
p426
sg25
S'0x81bbd2bL'
p427
sg27
Nsba(ibclass
BInstr
p428
(dp429
g2
Nsg17
S'mov     eax, [ebp+c]'
p430
sg19
S'8b4508'
p431
sg21
Vmov eax, dword ptr [ebp + 8]
p432
sg5
L136035630L
sg6
Nsg23
S'mov'
p433
sg25
S'0x81bbd2eL'
p434
sg27
Nsba(ibclass
BInstr
p435
(dp436
g2
Nsg17
S'mov     dword ptr [eax], 0'
p437
sg19
S'c70000000000'
p438
sg21
Vmov dword ptr [eax], 0
p439
sg5
L136035633L
sg6
Nsg23
S'mov'
p440
sg25
S'0x81bbd31L'
p441
sg27
Nsba(ibclass
BInstr
p442
(dp443
g2
Nsg17
S'mov     eax, [ebp+c]'
p444
sg19
S'8b4508'
p445
sg21
Vmov eax, dword ptr [ebp + 8]
p446
sg5
L136035639L
sg6
Nsg23
S'mov'
p447
sg25
S'0x81bbd37L'
p448
sg27
Nsba(ibclass
BInstr
p449
(dp450
g2
Nsg17
S'add     eax, 4'
p451
sg19
S'83c004'
p452
sg21
Vadd eax, 4
p453
sg5
L136035642L
sg6
Nsg23
S'add'
p454
sg25
S'0x81bbd3aL'
p455
sg27
Nsba(ibclass
BInstr
p456
(dp457
g2
Nsg17
S'mov     dword ptr [esp+8], 8; len'
p458
sg19
S'c744240808000000'
p459
sg21
Vmov dword ptr [esp + 8], 8
p460
sg5
L136035645L
sg6
Nsg23
S'mov'
p461
sg25
S'0x81bbd3dL'
p462
sg27
Nsba(ibclass
BInstr
p463
(dp464
g2
Nsg17
S'mov     [esp+4], eax    ; in'
p465
sg19
S'89442404'
p466
sg21
Vmov dword ptr [esp + 4], eax
p467
sg5
L136035653L
sg6
Nsg23
S'mov'
p468
sg25
S'0x81bbd45L'
p469
sg27
Nsba(ibclass
BInstr
p470
(dp471
g2
Nsg17
S'mov     eax, [ebp+c]'
p472
sg19
S'8b4508'
p473
sg21
Vmov eax, dword ptr [ebp + 8]
p474
sg5
L136035657L
sg6
Nsg23
S'mov'
p475
sg25
S'0x81bbd49L'
p476
sg27
Nsba(ibclass
BInstr
p477
(dp478
g2
Nsg17
S'mov     [esp], eax      ; c'
p479
sg19
S'890424'
p480
sg21
Vmov dword ptr [esp], eax
p481
sg5
L136035660L
sg6
Nsg23
S'mov'
p482
sg25
S'0x81bbd4cL'
p483
sg27
Nsba(ibclass
BInstr
p484
(dp485
g2
Nsg17
S'call    mdc2_body'
p486
sg19
S'e86c000000'
p487
sg21
Vcall 0x71
p488
sg5
L136035663L
sg6
Nsg23
S'call'
p489
sg25
S'0x81bbd4fL'
p490
sg27
Nsbasg77
(lp491
g313
aVsub eax, mem
p492
aVmov mem, eax
p493
aVmov eax, mem
p494
aVmov edx, mem
p495
ag348
aVlea edx, mem
p496
aVmov eax, mem
p497
aVmov mem, eax
p498
aVmov eax, mem
p499
aVmov mem, eax
p500
aVmov mem, edx
p501
aVcall address
p502
aVmov eax, mem
p503
aVsub mem, eax
p504
aVmov eax, mem
p505
aVadd mem, eax
p506
aVmov eax, mem
p507
aVmov mem, 0
p508
aVmov eax, mem
p509
ag453
aVmov mem, 8
p510
aVmov mem, eax
p511
aVmov eax, mem
p512
aVmov mem, eax
p513
aVcall address
p514
asg85
Nsg5
S'0x81bbcf6L'
p515
sg87
(lp516
S'0x81bbcafL'
p517
asg6
Nsg89
(lp518
S'0x81bbd54L'
p519
asg93
Nsg94
Nsg95
S'e46d01dd6303bd99cbd492439ea34f3f'
p520
sg97
S'79f33a851e97efdeba28e13c37cf49e2'
p521
sg99
(lp522
g314
ag321
ag328
ag335
ag342
ag349
ag356
ag363
ag370
ag377
ag384
ag391
ag398
ag405
ag412
ag419
ag426
ag433
ag440
ag447
ag454
ag461
ag468
ag475
ag482
ag489
asg101
Nsba(ibclass
BBasicBlock
p523
(dp524
g12
Nsg13
(lp525
(ibclass
BInstr
p526
(dp527
g2
Nsg17
S'mov     eax, [ebp+len]'
p528
sg19
S'8b4510'
p529
sg21
Vmov eax, dword ptr [ebp + 0x10]
p530
sg5
L136035668L
sg6
Nsg23
S'mov'
p531
sg25
S'0x81bbd54L'
p532
sg27
Nsba(ibclass
BInstr
p533
(dp534
g2
Nsg17
S'and     eax, 0FFFFFFF8h'
p535
sg19
S'83e0f8'
p536
sg21
Vand eax, 0xfffffff8
p537
sg5
L136035671L
sg6
Nsg23
S'and'
p538
sg25
S'0x81bbd57L'
p539
sg27
Nsba(ibclass
BInstr
p540
(dp541
g2
Nsg17
S'mov     [ebp+i], eax'
p542
sg19
S'8945f0'
p543
sg21
Vmov dword ptr [ebp - 0x10], eax
p544
sg5
L136035674L
sg6
Nsg23
S'mov'
p545
sg25
S'0x81bbd5aL'
p546
sg27
Nsba(ibclass
BInstr
p547
(dp548
g2
Nsg17
S'cmp     [ebp+i], 0'
p549
sg19
S'837df000'
p550
sg21
Vcmp dword ptr [ebp - 0x10], 0
p551
sg5
L136035677L
sg6
Nsg23
S'cmp'
p552
sg25
S'0x81bbd5dL'
p553
sg27
Nsba(ibclass
BInstr
p554
(dp555
g2
Nsg17
S'jz      short loc_81BBD7C'
p556
sg19
S'7419'
p557
sg21
Vje 0x1b
p558
sg5
L136035681L
sg6
Nsg23
S'jz'
p559
sg25
S'0x81bbd61L'
p560
sg27
Nsbasg77
(lp561
Vmov eax, mem
p562
aVand eax, address
p563
aVmov mem, eax
p564
aVcmp mem, 0
p565
aVje address
p566
asg85
Nsg5
S'0x81bbd54L'
p567
sg87
(lp568
S'0x81bbc97L'
p569
aS'0x81bbcf6L'
p570
asg6
Nsg89
(lp571
S'0x81bbd63L'
p572
aS'0x81bbd7cL'
p573
asg93
Nsg94
Nsg95
S'b5022537584dd453615fb55b28696aad'
p574
sg97
S'6d15fe429f0b0db6fada1f679a89d705'
p575
sg99
(lp576
g531
ag538
ag545
ag552
ag559
asg101
Nsba(ibclass
BBasicBlock
p577
(dp578
g12
Nsg13
(lp579
(ibclass
BInstr
p580
(dp581
g2
Nsg17
S'mov     eax, [ebp+i]'
p582
sg19
S'8b45f0'
p583
sg21
Vmov eax, dword ptr [ebp - 0x10]
p584
sg5
L136035683L
sg6
Nsg23
S'mov'
p585
sg25
S'0x81bbd63L'
p586
sg27
Nsba(ibclass
BInstr
p587
(dp588
g2
Nsg17
S'mov     [esp+8], eax    ; len'
p589
sg19
S'89442408'
p590
sg21
Vmov dword ptr [esp + 8], eax
p591
sg5
L136035686L
sg6
Nsg23
S'mov'
p592
sg25
S'0x81bbd66L'
p593
sg27
Nsba(ibclass
BInstr
p594
(dp595
g2
Nsg17
S'mov     eax, [ebp+in]'
p596
sg19
S'8b450c'
p597
sg21
Vmov eax, dword ptr [ebp + 0xc]
p598
sg5
L136035690L
sg6
Nsg23
S'mov'
p599
sg25
S'0x81bbd6aL'
p600
sg27
Nsba(ibclass
BInstr
p601
(dp602
g2
Nsg17
S'mov     [esp+4], eax    ; in'
p603
sg19
S'89442404'
p604
sg21
Vmov dword ptr [esp + 4], eax
p605
sg5
L136035693L
sg6
Nsg23
S'mov'
p606
sg25
S'0x81bbd6dL'
p607
sg27
Nsba(ibclass
BInstr
p608
(dp609
g2
Nsg17
S'mov     eax, [ebp+c]'
p610
sg19
S'8b4508'
p611
sg21
Vmov eax, dword ptr [ebp + 8]
p612
sg5
L136035697L
sg6
Nsg23
S'mov'
p613
sg25
S'0x81bbd71L'
p614
sg27
Nsba(ibclass
BInstr
p615
(dp616
g2
Nsg17
S'mov     [esp], eax      ; c'
p617
sg19
S'890424'
p618
sg21
Vmov dword ptr [esp], eax
p619
sg5
L136035700L
sg6
Nsg23
S'mov'
p620
sg25
S'0x81bbd74L'
p621
sg27
Nsba(ibclass
BInstr
p622
(dp623
g2
Nsg17
S'call    mdc2_body'
p624
sg19
S'e844000000'
p625
sg21
Vcall 0x49
p626
sg5
L136035703L
sg6
Nsg23
S'call'
p627
sg25
S'0x81bbd77L'
p628
sg27
Nsbasg77
(lp629
Vmov eax, mem
p630
aVmov mem, eax
p631
aVmov eax, mem
p632
aVmov mem, eax
p633
aVmov eax, mem
p634
aVmov mem, eax
p635
aVcall address
p636
asg85
Nsg5
S'0x81bbd63L'
p637
sg87
(lp638
S'0x81bbd54L'
p639
asg6
Nsg89
(lp640
S'0x81bbd7cL'
p641
asg93
Nsg94
Nsg95
S'92fe82bd7fc01e77c28a2a6247da06b1'
p642
sg97
S'80b23f4df69e00fe2a4711498c436839'
p643
sg99
(lp644
g585
ag592
ag599
ag606
ag613
ag620
ag627
asg101
Nsba(ibclass
BBasicBlock
p645
(dp646
g12
Nsg13
(lp647
(ibclass
BInstr
p648
(dp649
g2
Nsg17
S'mov     eax, [ebp+i]'
p650
sg19
S'8b45f0'
p651
sg21
Vmov eax, dword ptr [ebp - 0x10]
p652
sg5
L136035708L
sg6
Nsg23
S'mov'
p653
sg25
S'0x81bbd7cL'
p654
sg27
Nsba(ibclass
BInstr
p655
(dp656
g2
Nsg17
S'mov     edx, [ebp+len]'
p657
sg19
S'8b5510'
p658
sg21
Vmov edx, dword ptr [ebp + 0x10]
p659
sg5
L136035711L
sg6
Nsg23
S'mov'
p660
sg25
S'0x81bbd7fL'
p661
sg27
Nsba(ibclass
BInstr
p662
(dp663
g2
Nsg17
S'sub     edx, eax'
p664
sg19
S'29c2'
p665
sg21
Vsub edx, eax
p666
sg5
L136035714L
sg6
Nsg23
S'sub'
p667
sg25
S'0x81bbd82L'
p668
sg27
Nsba(ibclass
BInstr
p669
(dp670
g2
Nsg17
S'mov     eax, edx'
p671
sg19
S'89d0'
p672
sg21
Vmov eax, edx
p673
sg5
L136035716L
sg6
Nsg23
S'mov'
p674
sg25
S'0x81bbd84L'
p675
sg27
Nsba(ibclass
BInstr
p676
(dp677
g2
Nsg17
S'mov     [ebp+j], eax'
p678
sg19
S'8945f4'
p679
sg21
Vmov dword ptr [ebp - 0xc], eax
p680
sg5
L136035718L
sg6
Nsg23
S'mov'
p681
sg25
S'0x81bbd86L'
p682
sg27
Nsba(ibclass
BInstr
p683
(dp684
g2
Nsg17
S'cmp     [ebp+j], 0'
p685
sg19
S'837df400'
p686
sg21
Vcmp dword ptr [ebp - 0xc], 0
p687
sg5
L136035721L
sg6
Nsg23
S'cmp'
p688
sg25
S'0x81bbd89L'
p689
sg27
Nsba(ibclass
BInstr
p690
(dp691
g2
Nsg17
S'jz      short loc_81BBDB9'
p692
sg19
S'742a'
p693
sg21
Vje 0x2c
p694
sg5
L136035725L
sg6
Nsg23
S'jz'
p695
sg25
S'0x81bbd8dL'
p696
sg27
Nsbasg77
(lp697
Vmov eax, mem
p698
aVmov edx, mem
p699
ag666
ag673
aVmov mem, eax
p700
aVcmp mem, 0
p701
aVje address
p702
asg85
Nsg5
S'0x81bbd7cL'
p703
sg87
(lp704
S'0x81bbd54L'
p705
aS'0x81bbd63L'
p706
asg6
Nsg89
(lp707
S'0x81bbd8fL'
p708
aS'0x81bbdb9L'
p709
asg93
Nsg94
Nsg95
S'eae03d6f7916f842d58e32578a9b55b2'
p710
sg97
S'80e147833106bafb821237ad3cbb5ffc'
p711
sg99
(lp712
g653
ag660
ag667
ag674
ag681
ag688
ag695
asg101
Nsba(ibclass
BBasicBlock
p713
(dp714
g12
Nsg13
(lp715
(ibclass
BInstr
p716
(dp717
g2
Nsg17
S'mov     eax, [ebp+i]'
p718
sg19
S'8b45f0'
p719
sg21
Vmov eax, dword ptr [ebp - 0x10]
p720
sg5
L136035727L
sg6
Nsg23
S'mov'
p721
sg25
S'0x81bbd8fL'
p722
sg27
Nsba(ibclass
BInstr
p723
(dp724
g2
Nsg17
S'mov     edx, [ebp+in]'
p725
sg19
S'8b550c'
p726
sg21
Vmov edx, dword ptr [ebp + 0xc]
p727
sg5
L136035730L
sg6
Nsg23
S'mov'
p728
sg25
S'0x81bbd92L'
p729
sg27
Nsba(ibclass
BInstr
p730
(dp731
g2
Nsg17
S'lea     ecx, [edx+eax]'
p732
sg19
S'8d0c02'
p733
sg21
Vlea ecx, [edx + eax]
p734
sg5
L136035733L
sg6
Nsg23
S'lea'
p735
sg25
S'0x81bbd95L'
p736
sg27
Nsba(ibclass
BInstr
p737
(dp738
g2
Nsg17
S'mov     eax, [ebp+c]'
p739
sg19
S'8b4508'
p740
sg21
Vmov eax, dword ptr [ebp + 8]
p741
sg5
L136035736L
sg6
Nsg23
S'mov'
p742
sg25
S'0x81bbd98L'
p743
sg27
Nsba(ibclass
BInstr
p744
(dp745
g2
Nsg17
S'lea     edx, [eax+4]'
p746
sg19
S'8d5004'
p747
sg21
Vlea edx, [eax + 4]
p748
sg5
L136035739L
sg6
Nsg23
S'lea'
p749
sg25
S'0x81bbd9bL'
p750
sg27
Nsba(ibclass
BInstr
p751
(dp752
g2
Nsg17
S'mov     eax, [ebp+j]'
p753
sg19
S'8b45f4'
p754
sg21
Vmov eax, dword ptr [ebp - 0xc]
p755
sg5
L136035742L
sg6
Nsg23
S'mov'
p756
sg25
S'0x81bbd9eL'
p757
sg27
Nsba(ibclass
BInstr
p758
(dp759
g2
Nsg17
S'mov     [esp+8], eax    ; n'
p760
sg19
S'89442408'
p761
sg21
Vmov dword ptr [esp + 8], eax
p762
sg5
L136035745L
sg6
Nsg23
S'mov'
p763
sg25
S'0x81bbda1L'
p764
sg27
Nsba(ibclass
BInstr
p765
(dp766
g2
Nsg17
S'mov     [esp+4], ecx    ; src'
p767
sg19
S'894c2404'
p768
sg21
Vmov dword ptr [esp + 4], ecx
p769
sg5
L136035749L
sg6
Nsg23
S'mov'
p770
sg25
S'0x81bbda5L'
p771
sg27
Nsba(ibclass
BInstr
p772
(dp773
g2
Nsg17
S'mov     [esp], edx      ; dest'
p774
sg19
S'891424'
p775
sg21
Vmov dword ptr [esp], edx
p776
sg5
L136035753L
sg6
Nsg23
S'mov'
p777
sg25
S'0x81bbda9L'
p778
sg27
Nsba(ibclass
BInstr
p779
(dp780
g2
Nsg17
S'call    _memcpy'
p781
sg19
S'e88fd7e8ff'
p782
sg21
Vcall 0xffe8d794
p783
sg5
L136035756L
sg6
Nsg23
S'call'
p784
sg25
S'0x81bbdacL'
p785
sg27
Nsba(ibclass
BInstr
p786
(dp787
g2
Nsg17
S'mov     eax, [ebp+c]'
p788
sg19
S'8b4508'
p789
sg21
Vmov eax, dword ptr [ebp + 8]
p790
sg5
L136035761L
sg6
Nsg23
S'mov'
p791
sg25
S'0x81bbdb1L'
p792
sg27
Nsba(ibclass
BInstr
p793
(dp794
g2
Nsg17
S'mov     edx, [ebp+j]'
p795
sg19
S'8b55f4'
p796
sg21
Vmov edx, dword ptr [ebp - 0xc]
p797
sg5
L136035764L
sg6
Nsg23
S'mov'
p798
sg25
S'0x81bbdb4L'
p799
sg27
Nsba(ibclass
BInstr
p800
(dp801
g2
Nsg17
S'mov     [eax], edx'
p802
sg19
S'8910'
p803
sg21
Vmov dword ptr [eax], edx
p804
sg5
L136035767L
sg6
Nsg23
S'mov'
p805
sg25
S'0x81bbdb7L'
p806
sg27
Nsbasg77
(lp807
Vmov eax, mem
p808
aVmov edx, mem
p809
aVlea ecx, mem
p810
aVmov eax, mem
p811
aVlea edx, mem
p812
aVmov eax, mem
p813
aVmov mem, eax
p814
aVmov mem, ecx
p815
aVmov mem, edx
p816
aVcall address
p817
aVmov eax, mem
p818
aVmov edx, mem
p819
aVmov mem, edx
p820
asg85
Nsg5
S'0x81bbd8fL'
p821
sg87
(lp822
S'0x81bbd7cL'
p823
asg6
Nsg89
(lp824
S'0x81bbdb9L'
p825
asg93
Nsg94
Nsg95
S'b20be5b8f1fb0835a274ddb94971ceb2'
p826
sg97
S'13c72baacde03cb78681a40cf5b5e626'
p827
sg99
(lp828
g721
ag728
ag735
ag742
ag749
ag756
ag763
ag770
ag777
ag784
ag791
ag798
ag805
asg101
Nsba(ibclass
BBasicBlock
p829
(dp830
g12
Nsg13
(lp831
(ibclass
BInstr
p832
(dp833
g2
Nsg17
S'mov     eax, 1'
p834
sg19
S'b801000000'
p835
sg21
Vmov eax, 1
p836
sg5
L136035769L
sg6
Nsg23
S'mov'
p837
sg25
S'0x81bbdb9L'
p838
sg27
Nsbasg77
(lp839
g836
asg85
Nsg5
S'0x81bbdb9L'
p840
sg87
(lp841
S'0x81bbd7cL'
p842
aS'0x81bbd8fL'
p843
asg6
Nsg89
(lp844
S'0x81bbdbeL'
p845
asg93
Nsg94
Nsg95
S'96a4a0e6e9ac88756a0fcba989d0a844'
p846
sg97
S'b405d25c7a1e3356c7afc46210b93772'
p847
sg99
(lp848
g837
asg101
Nsba(ibclass
BBasicBlock
p849
(dp850
g12
Nsg13
(lp851
(ibclass
BInstr
p852
(dp853
g2
Nsg17
S'leave'
p854
sg19
S'c9'
p855
sg21
Vleave 
p856
sg5
L136035774L
sg6
Nsg23
S'leave'
p857
sg25
S'0x81bbdbeL'
p858
sg27
Nsba(ibclass
BInstr
p859
(dp860
g2
Nsg17
S'retn'
p861
sg19
S'c3'
p862
sg21
Vret 
p863
sg5
L136035775L
sg6
Nsg23
S'retn'
p864
sg25
S'0x81bbdbfL'
p865
sg27
Nsbasg77
(lp866
Vleave
p867
aVret
p868
asg85
Nsg5
S'0x81bbdbeL'
p869
sg87
(lp870
S'0x81bbcbcL'
p871
aS'0x81bbdb9L'
p872
asg6
Nsg89
(lp873
sg93
Nsg94
Nsg95
S'08c78f73a6f87c85da88b2982f54ce2a'
p874
sg97
S'393fee3c9fb1d26424d4b7704918e387'
p875
sg99
(lp876
g857
ag864
asg101
Nsbasb.