(ibclass
BFunc
p0
(dp1
S'hash'
p2
NsS'name'
p3
S'ssl_get_algorithm2'
p4
sS'start_address'
p5
L134945247L
sS'flag'
p6
NsS'program'
p7
NsS'bbs'
p8
(lp9
(ibclass
BBasicBlock
p10
(dp11
S'function'
p12
NsS'binstrs'
p13
(lp14
(ibclass
BInstr
p15
(dp16
g2
NsS'disasm'
p17
S'push    ebp'
p18
sS'bytes'
p19
S'55'
p20
sS'disasm_striped'
p21
Vpush ebp
p22
sg5
L134945247L
sg6
NsS'mnem'
p23
S'push'
p24
sS'address'
p25
S'0x80b19dfL'
p26
sS'basicblock'
p27
Nsba(ibclass
BInstr
p28
(dp29
g2
Nsg17
S'mov     ebp, esp'
p30
sg19
S'89e5'
p31
sg21
Vmov ebp, esp
p32
sg5
L134945248L
sg6
Nsg23
S'mov'
p33
sg25
S'0x80b19e0L'
p34
sg27
Nsba(ibclass
BInstr
p35
(dp36
g2
Nsg17
S'sub     esp, 10h'
p37
sg19
S'83ec10'
p38
sg21
Vsub esp, 0x10
p39
sg5
L134945250L
sg6
Nsg23
S'sub'
p40
sg25
S'0x80b19e2L'
p41
sg27
Nsba(ibclass
BInstr
p42
(dp43
g2
Nsg17
S'mov     eax, [ebp+s]'
p44
sg19
S'8b4508'
p45
sg21
Vmov eax, dword ptr [ebp + 8]
p46
sg5
L134945253L
sg6
Nsg23
S'mov'
p47
sg25
S'0x80b19e5L'
p48
sg27
Nsba(ibclass
BInstr
p49
(dp50
g2
Nsg17
S'mov     eax, [eax+58h]'
p51
sg19
S'8b4058'
p52
sg21
Vmov eax, dword ptr [eax + 0x58]
p53
sg5
L134945256L
sg6
Nsg23
S'mov'
p54
sg25
S'0x80b19e8L'
p55
sg27
Nsba(ibclass
BInstr
p56
(dp57
g2
Nsg17
S'mov     eax, [eax+344h]'
p58
sg19
S'8b8044030000'
p59
sg21
Vmov eax, dword ptr [eax + 0x344]
p60
sg5
L134945259L
sg6
Nsg23
S'mov'
p61
sg25
S'0x80b19ebL'
p62
sg27
Nsba(ibclass
BInstr
p63
(dp64
g2
Nsg17
S'mov     eax, [eax+24h]'
p65
sg19
S'8b4024'
p66
sg21
Vmov eax, dword ptr [eax + 0x24]
p67
sg5
L134945265L
sg6
Nsg23
S'mov'
p68
sg25
S'0x80b19f1L'
p69
sg27
Nsba(ibclass
BInstr
p70
(dp71
g2
Nsg17
S'mov     [ebp+alg2], eax'
p72
sg19
S'8945fc'
p73
sg21
Vmov dword ptr [ebp - 4], eax
p74
sg5
L134945268L
sg6
Nsg23
S'mov'
p75
sg25
S'0x80b19f4L'
p76
sg27
Nsba(ibclass
BInstr
p77
(dp78
g2
Nsg17
S'mov     eax, [ebp+s]'
p79
sg19
S'8b4508'
p80
sg21
Vmov eax, dword ptr [ebp + 8]
p81
sg5
L134945271L
sg6
Nsg23
S'mov'
p82
sg25
S'0x80b19f7L'
p83
sg27
Nsba(ibclass
BInstr
p84
(dp85
g2
Nsg17
S'mov     eax, [eax]'
p86
sg19
S'8b00'
p87
sg21
Vmov eax, dword ptr [eax]
p88
sg5
L134945274L
sg6
Nsg23
S'mov'
p89
sg25
S'0x80b19faL'
p90
sg27
Nsba(ibclass
BInstr
p91
(dp92
g2
Nsg17
S'sar     eax, 8'
p93
sg19
S'c1f808'
p94
sg21
Vsar eax, 8
p95
sg5
L134945276L
sg6
Nsg23
S'sar'
p96
sg25
S'0x80b19fcL'
p97
sg27
Nsba(ibclass
BInstr
p98
(dp99
g2
Nsg17
S'cmp     eax, 3'
p100
sg19
S'83f803'
p101
sg21
Vcmp eax, 3
p102
sg5
L134945279L
sg6
Nsg23
S'cmp'
p103
sg25
S'0x80b19ffL'
p104
sg27
Nsba(ibclass
BInstr
p105
(dp106
g2
Nsg17
S'jnz     short loc_80B1A20'
p107
sg19
S'751c'
p108
sg21
Vjne 0x1e
p109
sg5
L134945282L
sg6
Nsg23
S'jnz'
p110
sg25
S'0x80b1a02L'
p111
sg27
NsbasS'disasm_list'
p112
(lp113
g22
ag32
aVsub esp, address
p114
aVmov eax, mem
p115
aVmov eax, mem
p116
aVmov eax, mem
p117
aVmov eax, mem
p118
aVmov mem, eax
p119
aVmov eax, mem
p120
aVmov eax, mem
p121
ag95
ag102
aVjne address
p122
asS'end_address'
p123
Nsg5
S'0x80b19dfL'
p124
sS'preds'
p125
(lp126
sg6
NsS'succs'
p127
(lp128
S'0x80b1a04L'
p129
aS'0x80b1a20L'
p130
asS'hash_v3'
p131
NsS'flag_v2'
p132
NsS'hash_v1'
p133
S'daa913cf9e7ceddae330079187d5323d'
p134
sS'hash_v2'
p135
S'c46e74b4a1878392805dea449556b418'
p136
sS'mnen_list'
p137
(lp138
g24
ag33
ag40
ag47
ag54
ag61
ag68
ag75
ag82
ag89
ag96
ag103
ag110
asS'neighbour_disasm_list'
p139
Nsba(ibclass
BBasicBlock
p140
(dp141
g12
Nsg13
(lp142
(ibclass
BInstr
p143
(dp144
g2
Nsg17
S'mov     eax, [ebp+s]'
p145
sg19
S'8b4508'
p146
sg21
Vmov eax, dword ptr [ebp + 8]
p147
sg5
L134945284L
sg6
Nsg23
S'mov'
p148
sg25
S'0x80b1a04L'
p149
sg27
Nsba(ibclass
BInstr
p150
(dp151
g2
Nsg17
S'mov     eax, [eax]'
p152
sg19
S'8b00'
p153
sg21
Vmov eax, dword ptr [eax]
p154
sg5
L134945287L
sg6
Nsg23
S'mov'
p155
sg25
S'0x80b1a07L'
p156
sg27
Nsba(ibclass
BInstr
p157
(dp158
g2
Nsg17
S'cmp     eax, 302h'
p159
sg19
S'3d02030000'
p160
sg21
Vcmp eax, 0x302
p161
sg5
L134945289L
sg6
Nsg23
S'cmp'
p162
sg25
S'0x80b1a09L'
p163
sg27
Nsba(ibclass
BInstr
p164
(dp165
g2
Nsg17
S'jle     short loc_80B1A20'
p166
sg19
S'7e10'
p167
sg21
Vjle 0x12
p168
sg5
L134945294L
sg6
Nsg23
S'jle'
p169
sg25
S'0x80b1a0eL'
p170
sg27
Nsbasg112
(lp171
Vmov eax, mem
p172
aVmov eax, mem
p173
aVcmp eax, address
p174
aVjle address
p175
asg123
Nsg5
S'0x80b1a04L'
p176
sg125
(lp177
S'0x80b19dfL'
p178
asg6
Nsg127
(lp179
S'0x80b1a10L'
p180
aS'0x80b1a20L'
p181
asg131
Nsg132
Nsg133
S'8515616f0a4833daab2113317e86edbc'
p182
sg135
S'1f485dc7e72f95e0948cbc9125884835'
p183
sg137
(lp184
g148
ag155
ag162
ag169
asg139
Nsba(ibclass
BBasicBlock
p185
(dp186
g12
Nsg13
(lp187
(ibclass
BInstr
p188
(dp189
g2
Nsg17
S'cmp     [ebp+alg2], 0C030h'
p190
sg19
S'817dfc30c00000'
p191
sg21
Vcmp dword ptr [ebp - 4], 0xc030
p192
sg5
L134945296L
sg6
Nsg23
S'cmp'
p193
sg25
S'0x80b1a10L'
p194
sg27
Nsba(ibclass
BInstr
p195
(dp196
g2
Nsg17
S'jnz     short loc_80B1A20'
p197
sg19
S'7507'
p198
sg21
Vjne 9
p199
sg5
L134945303L
sg6
Nsg23
S'jnz'
p200
sg25
S'0x80b1a17L'
p201
sg27
Nsbasg112
(lp202
Vcmp mem, address
p203
ag199
asg123
Nsg5
S'0x80b1a10L'
p204
sg125
(lp205
S'0x80b1a04L'
p206
asg6
Nsg127
(lp207
S'0x80b1a19L'
p208
aS'0x80b1a20L'
p209
asg131
Nsg132
Nsg133
S'30cb3d6f6a174adfabcde507f6944a52'
p210
sg135
S'eef9b169dfa885b9bd865248f86a0b13'
p211
sg137
(lp212
g193
ag200
asg139
Nsba(ibclass
BBasicBlock
p213
(dp214
g12
Nsg13
(lp215
(ibclass
BInstr
p216
(dp217
g2
Nsg17
S'mov     eax, 20080h'
p218
sg19
S'b880000200'
p219
sg21
Vmov eax, 0x20080
p220
sg5
L134945305L
sg6
Nsg23
S'mov'
p221
sg25
S'0x80b1a19L'
p222
sg27
Nsba(ibclass
BInstr
p223
(dp224
g2
Nsg17
S'jmp     short locret_80B1A23'
p225
sg19
S'eb03'
p226
sg21
Vjmp 5
p227
sg5
L134945310L
sg6
Nsg23
S'jmp'
p228
sg25
S'0x80b1a1eL'
p229
sg27
Nsbasg112
(lp230
Vmov eax, address
p231
ag227
asg123
Nsg5
S'0x80b1a19L'
p232
sg125
(lp233
S'0x80b1a10L'
p234
asg6
Nsg127
(lp235
S'0x80b1a23L'
p236
asg131
Nsg132
Nsg133
S'8b9a0d40e062be2b9b2d9885108fb196'
p237
sg135
S'2ab4845912a6d4fdb82bf166ef0aeeac'
p238
sg137
(lp239
g221
ag228
asg139
Nsba(ibclass
BBasicBlock
p240
(dp241
g12
Nsg13
(lp242
(ibclass
BInstr
p243
(dp244
g2
Nsg17
S'mov     eax, [ebp+alg2]'
p245
sg19
S'8b45fc'
p246
sg21
Vmov eax, dword ptr [ebp - 4]
p247
sg5
L134945312L
sg6
Nsg23
S'mov'
p248
sg25
S'0x80b1a20L'
p249
sg27
Nsbasg112
(lp250
Vmov eax, mem
p251
asg123
Nsg5
S'0x80b1a20L'
p252
sg125
(lp253
S'0x80b19dfL'
p254
aS'0x80b1a04L'
p255
aS'0x80b1a10L'
p256
asg6
Nsg127
(lp257
S'0x80b1a23L'
p258
asg131
Nsg132
Nsg133
S'96a4a0e6e9ac88756a0fcba989d0a844'
p259
sg135
S'da3a10212e6b688447f8e74c20e21f06'
p260
sg137
(lp261
g248
asg139
Nsba(ibclass
BBasicBlock
p262
(dp263
g12
Nsg13
(lp264
(ibclass
BInstr
p265
(dp266
g2
Nsg17
S'leave'
p267
sg19
S'c9'
p268
sg21
Vleave 
p269
sg5
L134945315L
sg6
Nsg23
S'leave'
p270
sg25
S'0x80b1a23L'
p271
sg27
Nsba(ibclass
BInstr
p272
(dp273
g2
Nsg17
S'retn'
p274
sg19
S'c3'
p275
sg21
Vret 
p276
sg5
L134945316L
sg6
Nsg23
S'retn'
p277
sg25
S'0x80b1a24L'
p278
sg27
Nsbasg112
(lp279
Vleave
p280
aVret
p281
asg123
Nsg5
S'0x80b1a23L'
p282
sg125
(lp283
S'0x80b1a19L'
p284
aS'0x80b1a20L'
p285
asg6
Nsg127
(lp286
sg131
Nsg132
Nsg133
S'08c78f73a6f87c85da88b2982f54ce2a'
p287
sg135
S'393fee3c9fb1d26424d4b7704918e387'
p288
sg137
(lp289
g270
ag277
asg139
Nsbasb.