(ibclass
BFunc
p0
(dp1
S'hash'
p2
NsS'name'
p3
S'ssl3_take_mac'
p4
sS'start_address'
p5
L134964430L
sS'flag'
p6
NsS'program'
p7
NsS'bbs'
p8
(lp9
(ibclass
BBasicBlock
p10
(dp11
S'function'
p12
NsS'binstrs'
p13
(lp14
(ibclass
BInstr
p15
(dp16
g2
NsS'disasm'
p17
S'push    ebp'
p18
sS'bytes'
p19
S'55'
p20
sS'disasm_striped'
p21
Vpush ebp
p22
sg5
L134964430L
sg6
NsS'mnem'
p23
S'push'
p24
sS'address'
p25
S'0x80b64ceL'
p26
sS'basicblock'
p27
Nsba(ibclass
BInstr
p28
(dp29
g2
Nsg17
S'mov     ebp, esp'
p30
sg19
S'89e5'
p31
sg21
Vmov ebp, esp
p32
sg5
L134964431L
sg6
Nsg23
S'mov'
p33
sg25
S'0x80b64cfL'
p34
sg27
Nsba(ibclass
BInstr
p35
(dp36
g2
Nsg17
S'push    ebx'
p37
sg19
S'53'
p38
sg21
Vpush ebx
p39
sg5
L134964433L
sg6
Nsg23
S'push'
p40
sg25
S'0x80b64d1L'
p41
sg27
Nsba(ibclass
BInstr
p42
(dp43
g2
Nsg17
S'sub     esp, 24h'
p44
sg19
S'83ec24'
p45
sg21
Vsub esp, 0x24
p46
sg5
L134964434L
sg6
Nsg23
S'sub'
p47
sg25
S'0x80b64d2L'
p48
sg27
Nsba(ibclass
BInstr
p49
(dp50
g2
Nsg17
S'mov     eax, [ebp+s]'
p51
sg19
S'8b4508'
p52
sg21
Vmov eax, dword ptr [ebp + 8]
p53
sg5
L134964437L
sg6
Nsg23
S'mov'
p54
sg25
S'0x80b64d5L'
p55
sg27
Nsba(ibclass
BInstr
p56
(dp57
g2
Nsg17
S'mov     eax, [eax+34h]'
p58
sg19
S'8b4034'
p59
sg21
Vmov eax, dword ptr [eax + 0x34]
p60
sg5
L134964440L
sg6
Nsg23
S'mov'
p61
sg25
S'0x80b64d8L'
p62
sg27
Nsba(ibclass
BInstr
p63
(dp64
g2
Nsg17
S'and     eax, 1000h'
p65
sg19
S'2500100000'
p66
sg21
Vand eax, 0x1000
p67
sg5
L134964443L
sg6
Nsg23
S'and'
p68
sg25
S'0x80b64dbL'
p69
sg27
Nsba(ibclass
BInstr
p70
(dp71
g2
Nsg17
S'test    eax, eax'
p72
sg19
S'85c0'
p73
sg21
Vtest eax, eax
p74
sg5
L134964448L
sg6
Nsg23
S'test'
p75
sg25
S'0x80b64e0L'
p76
sg27
Nsba(ibclass
BInstr
p77
(dp78
g2
Nsg17
S'jz      short loc_80B6504'
p79
sg19
S'7420'
p80
sg21
Vje 0x22
p81
sg5
L134964450L
sg6
Nsg23
S'jz'
p82
sg25
S'0x80b64e2L'
p83
sg27
NsbasS'disasm_list'
p84
(lp85
g22
ag32
ag39
aVsub esp, address
p86
aVmov eax, mem
p87
aVmov eax, mem
p88
aVand eax, address
p89
ag74
aVje address
p90
asS'end_address'
p91
Nsg5
S'0x80b64ceL'
p92
sS'preds'
p93
(lp94
sg6
NsS'succs'
p95
(lp96
S'0x80b64e4L'
p97
aS'0x80b6504L'
p98
asS'hash_v3'
p99
NsS'flag_v2'
p100
NsS'hash_v1'
p101
S'53be87e2a11611f46ab61c76074917cf'
p102
sS'hash_v2'
p103
S'ecb7ad266131763c8caf64f6b80dd256'
p104
sS'mnen_list'
p105
(lp106
g24
ag33
ag40
ag47
ag54
ag61
ag68
ag75
ag82
asS'neighbour_disasm_list'
p107
Nsba(ibclass
BBasicBlock
p108
(dp109
g12
Nsg13
(lp110
(ibclass
BInstr
p111
(dp112
g2
Nsg17
S'mov     eax, [ebp+s]'
p113
sg19
S'8b4508'
p114
sg21
Vmov eax, dword ptr [ebp + 8]
p115
sg5
L134964452L
sg6
Nsg23
S'mov'
p116
sg25
S'0x80b64e4L'
p117
sg27
Nsba(ibclass
BInstr
p118
(dp119
g2
Nsg17
S'mov     eax, [eax+8]'
p120
sg19
S'8b4008'
p121
sg21
Vmov eax, dword ptr [eax + 8]
p122
sg5
L134964455L
sg6
Nsg23
S'mov'
p123
sg25
S'0x80b64e7L'
p124
sg27
Nsba(ibclass
BInstr
p125
(dp126
g2
Nsg17
S'mov     eax, [eax+64h]'
p127
sg19
S'8b4064'
p128
sg21
Vmov eax, dword ptr [eax + 0x64]
p129
sg5
L134964458L
sg6
Nsg23
S'mov'
p130
sg25
S'0x80b64eaL'
p131
sg27
Nsba(ibclass
BInstr
p132
(dp133
g2
Nsg17
S'mov     eax, [eax+28h]'
p134
sg19
S'8b4028'
p135
sg21
Vmov eax, dword ptr [eax + 0x28]
p136
sg5
L134964461L
sg6
Nsg23
S'mov'
p137
sg25
S'0x80b64edL'
p138
sg27
Nsba(ibclass
BInstr
p139
(dp140
g2
Nsg17
S'mov     [ebp+sender], eax'
p141
sg19
S'8945f0'
p142
sg21
Vmov dword ptr [ebp - 0x10], eax
p143
sg5
L134964464L
sg6
Nsg23
S'mov'
p144
sg25
S'0x80b64f0L'
p145
sg27
Nsba(ibclass
BInstr
p146
(dp147
g2
Nsg17
S'mov     eax, [ebp+s]'
p148
sg19
S'8b4508'
p149
sg21
Vmov eax, dword ptr [ebp + 8]
p150
sg5
L134964467L
sg6
Nsg23
S'mov'
p151
sg25
S'0x80b64f3L'
p152
sg27
Nsba(ibclass
BInstr
p153
(dp154
g2
Nsg17
S'mov     eax, [eax+8]'
p155
sg19
S'8b4008'
p156
sg21
Vmov eax, dword ptr [eax + 8]
p157
sg5
L134964470L
sg6
Nsg23
S'mov'
p158
sg25
S'0x80b64f6L'
p159
sg27
Nsba(ibclass
BInstr
p160
(dp161
g2
Nsg17
S'mov     eax, [eax+64h]'
p162
sg19
S'8b4064'
p163
sg21
Vmov eax, dword ptr [eax + 0x64]
p164
sg5
L134964473L
sg6
Nsg23
S'mov'
p165
sg25
S'0x80b64f9L'
p166
sg27
Nsba(ibclass
BInstr
p167
(dp168
g2
Nsg17
S'mov     eax, [eax+2Ch]'
p169
sg19
S'8b402c'
p170
sg21
Vmov eax, dword ptr [eax + 0x2c]
p171
sg5
L134964476L
sg6
Nsg23
S'mov'
p172
sg25
S'0x80b64fcL'
p173
sg27
Nsba(ibclass
BInstr
p174
(dp175
g2
Nsg17
S'mov     [ebp+slen], eax'
p176
sg19
S'8945f4'
p177
sg21
Vmov dword ptr [ebp - 0xc], eax
p178
sg5
L134964479L
sg6
Nsg23
S'mov'
p179
sg25
S'0x80b64ffL'
p180
sg27
Nsba(ibclass
BInstr
p181
(dp182
g2
Nsg17
S'jmp     short loc_80B6522'
p183
sg19
S'eb1e'
p184
sg21
Vjmp 0x20
p185
sg5
L134964482L
sg6
Nsg23
S'jmp'
p186
sg25
S'0x80b6502L'
p187
sg27
Nsbasg84
(lp188
Vmov eax, mem
p189
aVmov eax, mem
p190
aVmov eax, mem
p191
aVmov eax, mem
p192
aVmov mem, eax
p193
aVmov eax, mem
p194
aVmov eax, mem
p195
aVmov eax, mem
p196
aVmov eax, mem
p197
aVmov mem, eax
p198
aVjmp address
p199
asg91
Nsg5
S'0x80b64e4L'
p200
sg93
(lp201
S'0x80b64ceL'
p202
asg6
Nsg95
(lp203
S'0x80b6522L'
p204
asg99
Nsg100
Nsg101
S'2e1dad1a3974a4b405a0d2cc307624cc'
p205
sg103
S'ee27c0699c384f98ab1eebd36a02b3d0'
p206
sg105
(lp207
g116
ag123
ag130
ag137
ag144
ag151
ag158
ag165
ag172
ag179
ag186
asg107
Nsba(ibclass
BBasicBlock
p208
(dp209
g12
Nsg13
(lp210
(ibclass
BInstr
p211
(dp212
g2
Nsg17
S'mov     eax, [ebp+s]'
p213
sg19
S'8b4508'
p214
sg21
Vmov eax, dword ptr [ebp + 8]
p215
sg5
L134964484L
sg6
Nsg23
S'mov'
p216
sg25
S'0x80b6504L'
p217
sg27
Nsba(ibclass
BInstr
p218
(dp219
g2
Nsg17
S'mov     eax, [eax+8]'
p220
sg19
S'8b4008'
p221
sg21
Vmov eax, dword ptr [eax + 8]
p222
sg5
L134964487L
sg6
Nsg23
S'mov'
p223
sg25
S'0x80b6507L'
p224
sg27
Nsba(ibclass
BInstr
p225
(dp226
g2
Nsg17
S'mov     eax, [eax+64h]'
p227
sg19
S'8b4064'
p228
sg21
Vmov eax, dword ptr [eax + 0x64]
p229
sg5
L134964490L
sg6
Nsg23
S'mov'
p230
sg25
S'0x80b650aL'
p231
sg27
Nsba(ibclass
BInstr
p232
(dp233
g2
Nsg17
S'mov     eax, [eax+20h]'
p234
sg19
S'8b4020'
p235
sg21
Vmov eax, dword ptr [eax + 0x20]
p236
sg5
L134964493L
sg6
Nsg23
S'mov'
p237
sg25
S'0x80b650dL'
p238
sg27
Nsba(ibclass
BInstr
p239
(dp240
g2
Nsg17
S'mov     [ebp+sender], eax'
p241
sg19
S'8945f0'
p242
sg21
Vmov dword ptr [ebp - 0x10], eax
p243
sg5
L134964496L
sg6
Nsg23
S'mov'
p244
sg25
S'0x80b6510L'
p245
sg27
Nsba(ibclass
BInstr
p246
(dp247
g2
Nsg17
S'mov     eax, [ebp+s]'
p248
sg19
S'8b4508'
p249
sg21
Vmov eax, dword ptr [ebp + 8]
p250
sg5
L134964499L
sg6
Nsg23
S'mov'
p251
sg25
S'0x80b6513L'
p252
sg27
Nsba(ibclass
BInstr
p253
(dp254
g2
Nsg17
S'mov     eax, [eax+8]'
p255
sg19
S'8b4008'
p256
sg21
Vmov eax, dword ptr [eax + 8]
p257
sg5
L134964502L
sg6
Nsg23
S'mov'
p258
sg25
S'0x80b6516L'
p259
sg27
Nsba(ibclass
BInstr
p260
(dp261
g2
Nsg17
S'mov     eax, [eax+64h]'
p262
sg19
S'8b4064'
p263
sg21
Vmov eax, dword ptr [eax + 0x64]
p264
sg5
L134964505L
sg6
Nsg23
S'mov'
p265
sg25
S'0x80b6519L'
p266
sg27
Nsba(ibclass
BInstr
p267
(dp268
g2
Nsg17
S'mov     eax, [eax+24h]'
p269
sg19
S'8b4024'
p270
sg21
Vmov eax, dword ptr [eax + 0x24]
p271
sg5
L134964508L
sg6
Nsg23
S'mov'
p272
sg25
S'0x80b651cL'
p273
sg27
Nsba(ibclass
BInstr
p274
(dp275
g2
Nsg17
S'mov     [ebp+slen], eax'
p276
sg19
S'8945f4'
p277
sg21
Vmov dword ptr [ebp - 0xc], eax
p278
sg5
L134964511L
sg6
Nsg23
S'mov'
p279
sg25
S'0x80b651fL'
p280
sg27
Nsbasg84
(lp281
Vmov eax, mem
p282
aVmov eax, mem
p283
aVmov eax, mem
p284
aVmov eax, mem
p285
aVmov mem, eax
p286
aVmov eax, mem
p287
aVmov eax, mem
p288
aVmov eax, mem
p289
aVmov eax, mem
p290
aVmov mem, eax
p291
asg91
Nsg5
S'0x80b6504L'
p292
sg93
(lp293
S'0x80b64ceL'
p294
asg6
Nsg95
(lp295
S'0x80b6522L'
p296
asg99
Nsg100
Nsg101
S'9a4e4ba396addcdcf3383ab71d400961'
p297
sg103
S'94c835b128aacce5aec312e74bd4e594'
p298
sg105
(lp299
g216
ag223
ag230
ag237
ag244
ag251
ag258
ag265
ag272
ag279
asg107
Nsba(ibclass
BBasicBlock
p300
(dp301
g12
Nsg13
(lp302
(ibclass
BInstr
p303
(dp304
g2
Nsg17
S'mov     eax, [ebp+s]'
p305
sg19
S'8b4508'
p306
sg21
Vmov eax, dword ptr [ebp + 8]
p307
sg5
L134964514L
sg6
Nsg23
S'mov'
p308
sg25
S'0x80b6522L'
p309
sg27
Nsba(ibclass
BInstr
p310
(dp311
g2
Nsg17
S'mov     ebx, [eax+58h]'
p312
sg19
S'8b5858'
p313
sg21
Vmov ebx, dword ptr [eax + 0x58]
p314
sg5
L134964517L
sg6
Nsg23
S'mov'
p315
sg25
S'0x80b6525L'
p316
sg27
Nsba(ibclass
BInstr
p317
(dp318
g2
Nsg17
S'mov     eax, [ebp+s]'
p319
sg19
S'8b4508'
p320
sg21
Vmov eax, dword ptr [ebp + 8]
p321
sg5
L134964520L
sg6
Nsg23
S'mov'
p322
sg25
S'0x80b6528L'
p323
sg27
Nsba(ibclass
BInstr
p324
(dp325
g2
Nsg17
S'mov     eax, [eax+8]'
p326
sg19
S'8b4008'
p327
sg21
Vmov eax, dword ptr [eax + 8]
p328
sg5
L134964523L
sg6
Nsg23
S'mov'
p329
sg25
S'0x80b652bL'
p330
sg27
Nsba(ibclass
BInstr
p331
(dp332
g2
Nsg17
S'mov     eax, [eax+64h]'
p333
sg19
S'8b4064'
p334
sg21
Vmov eax, dword ptr [eax + 0x64]
p335
sg5
L134964526L
sg6
Nsg23
S'mov'
p336
sg25
S'0x80b652eL'
p337
sg27
Nsba(ibclass
BInstr
p338
(dp339
g2
Nsg17
S'mov     eax, [eax+14h]'
p340
sg19
S'8b4014'
p341
sg21
Vmov eax, dword ptr [eax + 0x14]
p342
sg5
L134964529L
sg6
Nsg23
S'mov'
p343
sg25
S'0x80b6531L'
p344
sg27
Nsba(ibclass
BInstr
p345
(dp346
g2
Nsg17
S'mov     edx, [ebp+s]'
p347
sg19
S'8b5508'
p348
sg21
Vmov edx, dword ptr [ebp + 8]
p349
sg5
L134964532L
sg6
Nsg23
S'mov'
p350
sg25
S'0x80b6534L'
p351
sg27
Nsba(ibclass
BInstr
p352
(dp353
g2
Nsg17
S'mov     edx, [edx+58h]'
p354
sg19
S'8b5258'
p355
sg21
Vmov edx, dword ptr [edx + 0x58]
p356
sg5
L134964535L
sg6
Nsg23
S'mov'
p357
sg25
S'0x80b6537L'
p358
sg27
Nsba(ibclass
BInstr
p359
(dp360
g2
Nsg17
S'add     edx, 2B8h'
p361
sg19
S'81c2b8020000'
p362
sg21
Vadd edx, 0x2b8
p363
sg5
L134964538L
sg6
Nsg23
S'add'
p364
sg25
S'0x80b653aL'
p365
sg27
Nsba(ibclass
BInstr
p366
(dp367
g2
Nsg17
S'mov     [esp+0Ch], edx'
p368
sg19
S'8954240c'
p369
sg21
Vmov dword ptr [esp + 0xc], edx
p370
sg5
L134964544L
sg6
Nsg23
S'mov'
p371
sg25
S'0x80b6540L'
p372
sg27
Nsba(ibclass
BInstr
p373
(dp374
g2
Nsg17
S'mov     edx, [ebp+slen]'
p375
sg19
S'8b55f4'
p376
sg21
Vmov edx, dword ptr [ebp - 0xc]
p377
sg5
L134964548L
sg6
Nsg23
S'mov'
p378
sg25
S'0x80b6544L'
p379
sg27
Nsba(ibclass
BInstr
p380
(dp381
g2
Nsg17
S'mov     [esp+8], edx'
p382
sg19
S'89542408'
p383
sg21
Vmov dword ptr [esp + 8], edx
p384
sg5
L134964551L
sg6
Nsg23
S'mov'
p385
sg25
S'0x80b6547L'
p386
sg27
Nsba(ibclass
BInstr
p387
(dp388
g2
Nsg17
S'mov     edx, [ebp+sender]'
p389
sg19
S'8b55f0'
p390
sg21
Vmov edx, dword ptr [ebp - 0x10]
p391
sg5
L134964555L
sg6
Nsg23
S'mov'
p392
sg25
S'0x80b654bL'
p393
sg27
Nsba(ibclass
BInstr
p394
(dp395
g2
Nsg17
S'mov     [esp+4], edx'
p396
sg19
S'89542404'
p397
sg21
Vmov dword ptr [esp + 4], edx
p398
sg5
L134964558L
sg6
Nsg23
S'mov'
p399
sg25
S'0x80b654eL'
p400
sg27
Nsba(ibclass
BInstr
p401
(dp402
g2
Nsg17
S'mov     edx, [ebp+s]'
p403
sg19
S'8b5508'
p404
sg21
Vmov edx, dword ptr [ebp + 8]
p405
sg5
L134964562L
sg6
Nsg23
S'mov'
p406
sg25
S'0x80b6552L'
p407
sg27
Nsba(ibclass
BInstr
p408
(dp409
g2
Nsg17
S'mov     [esp], edx'
p410
sg19
S'891424'
p411
sg21
Vmov dword ptr [esp], edx
p412
sg5
L134964565L
sg6
Nsg23
S'mov'
p413
sg25
S'0x80b6555L'
p414
sg27
Nsba(ibclass
BInstr
p415
(dp416
g2
Nsg17
S'call    eax'
p417
sg19
S'ffd0'
p418
sg21
Vcall eax
p419
sg5
L134964568L
sg6
Nsg23
S'call'
p420
sg25
S'0x80b6558L'
p421
sg27
Nsba(ibclass
BInstr
p422
(dp423
g2
Nsg17
S'mov     [ebx+338h], eax'
p424
sg19
S'898338030000'
p425
sg21
Vmov dword ptr [ebx + 0x338], eax
p426
sg5
L134964570L
sg6
Nsg23
S'mov'
p427
sg25
S'0x80b655aL'
p428
sg27
Nsba(ibclass
BInstr
p429
(dp430
g2
Nsg17
S'add     esp, 24h'
p431
sg19
S'83c424'
p432
sg21
Vadd esp, 0x24
p433
sg5
L134964576L
sg6
Nsg23
S'add'
p434
sg25
S'0x80b6560L'
p435
sg27
Nsba(ibclass
BInstr
p436
(dp437
g2
Nsg17
S'pop     ebx'
p438
sg19
S'5b'
p439
sg21
Vpop ebx
p440
sg5
L134964579L
sg6
Nsg23
S'pop'
p441
sg25
S'0x80b6563L'
p442
sg27
Nsba(ibclass
BInstr
p443
(dp444
g2
Nsg17
S'pop     ebp'
p445
sg19
S'5d'
p446
sg21
Vpop ebp
p447
sg5
L134964580L
sg6
Nsg23
S'pop'
p448
sg25
S'0x80b6564L'
p449
sg27
Nsba(ibclass
BInstr
p450
(dp451
g2
Nsg17
S'retn'
p452
sg19
S'c3'
p453
sg21
Vret 
p454
sg5
L134964581L
sg6
Nsg23
S'retn'
p455
sg25
S'0x80b6565L'
p456
sg27
Nsbasg84
(lp457
Vmov eax, mem
p458
aVmov ebx, mem
p459
aVmov eax, mem
p460
aVmov eax, mem
p461
aVmov eax, mem
p462
aVmov eax, mem
p463
aVmov edx, mem
p464
aVmov edx, mem
p465
aVadd edx, address
p466
aVmov mem, edx
p467
aVmov edx, mem
p468
aVmov mem, edx
p469
aVmov edx, mem
p470
aVmov mem, edx
p471
aVmov edx, mem
p472
aVmov mem, edx
p473
ag419
aVmov mem, eax
p474
aVadd esp, address
p475
ag440
ag447
aVret
p476
asg91
Nsg5
S'0x80b6522L'
p477
sg93
(lp478
S'0x80b64e4L'
p479
aS'0x80b6504L'
p480
asg6
Nsg95
(lp481
sg99
Nsg100
Nsg101
S'aee00249a6c88619282f6009450a0b8f'
p482
sg103
S'd5a58bb3e711aab71cba7b08509b4fd8'
p483
sg105
(lp484
g308
ag315
ag322
ag329
ag336
ag343
ag350
ag357
ag364
ag371
ag378
ag385
ag392
ag399
ag406
ag413
ag420
ag427
ag434
ag441
ag448
ag455
asg107
Nsbasb.