(ibclass
BFunc
p0
(dp1
S'hash'
p2
NsS'name'
p3
S'DSA_verify'
p4
sS'start_address'
p5
L135436495L
sS'flag'
p6
NsS'program'
p7
NsS'bbs'
p8
(lp9
(ibclass
BBasicBlock
p10
(dp11
S'function'
p12
NsS'binstrs'
p13
(lp14
(ibclass
BInstr
p15
(dp16
g2
NsS'disasm'
p17
S'push    ebp'
p18
sS'bytes'
p19
S'55'
p20
sS'disasm_striped'
p21
Vpush ebp
p22
sg5
L135436495L
sg6
NsS'mnem'
p23
S'push'
p24
sS'address'
p25
S'0x81298cfL'
p26
sS'basicblock'
p27
Nsba(ibclass
BInstr
p28
(dp29
g2
Nsg17
S'mov     ebp, esp'
p30
sg19
S'89e5'
p31
sg21
Vmov ebp, esp
p32
sg5
L135436496L
sg6
Nsg23
S'mov'
p33
sg25
S'0x81298d0L'
p34
sg27
Nsba(ibclass
BInstr
p35
(dp36
g2
Nsg17
S'sub     esp, 28h'
p37
sg19
S'83ec28'
p38
sg21
Vsub esp, 0x28
p39
sg5
L135436498L
sg6
Nsg23
S'sub'
p40
sg25
S'0x81298d2L'
p41
sg27
Nsba(ibclass
BInstr
p42
(dp43
g2
Nsg17
S'mov     [ebp+ret], 0FFFFFFFFh'
p44
sg19
S'c745f4ffffffff'
p45
sg21
Vmov dword ptr [ebp - 0xc], 0xffffffff
p46
sg5
L135436501L
sg6
Nsg23
S'mov'
p47
sg25
S'0x81298d5L'
p48
sg27
Nsba(ibclass
BInstr
p49
(dp50
g2
Nsg17
S'call    DSA_SIG_new'
p51
sg19
S'e8e4000000'
p52
sg21
Vcall 0xe9
p53
sg5
L135436508L
sg6
Nsg23
S'call'
p54
sg25
S'0x81298dcL'
p55
sg27
Nsba(ibclass
BInstr
p56
(dp57
g2
Nsg17
S'mov     [ebp+s], eax'
p58
sg19
S'8945f0'
p59
sg21
Vmov dword ptr [ebp - 0x10], eax
p60
sg5
L135436513L
sg6
Nsg23
S'mov'
p61
sg25
S'0x81298e1L'
p62
sg27
Nsba(ibclass
BInstr
p63
(dp64
g2
Nsg17
S'mov     eax, [ebp+s]'
p65
sg19
S'8b45f0'
p66
sg21
Vmov eax, dword ptr [ebp - 0x10]
p67
sg5
L135436516L
sg6
Nsg23
S'mov'
p68
sg25
S'0x81298e4L'
p69
sg27
Nsba(ibclass
BInstr
p70
(dp71
g2
Nsg17
S'test    eax, eax'
p72
sg19
S'85c0'
p73
sg21
Vtest eax, eax
p74
sg5
L135436519L
sg6
Nsg23
S'test'
p75
sg25
S'0x81298e7L'
p76
sg27
Nsba(ibclass
BInstr
p77
(dp78
g2
Nsg17
S'jnz     short loc_81298F0'
p79
sg19
S'7505'
p80
sg21
Vjne 7
p81
sg5
L135436521L
sg6
Nsg23
S'jnz'
p82
sg25
S'0x81298e9L'
p83
sg27
NsbasS'disasm_list'
p84
(lp85
g22
ag32
aVsub esp, address
p86
aVmov mem, address
p87
aVcall address
p88
aVmov mem, eax
p89
aVmov eax, mem
p90
ag74
ag81
asS'end_address'
p91
Nsg5
S'0x81298cfL'
p92
sS'preds'
p93
(lp94
sg6
NsS'succs'
p95
(lp96
S'0x81298ebL'
p97
aS'0x81298f0L'
p98
asS'hash_v3'
p99
NsS'flag_v2'
p100
NsS'hash_v1'
p101
S'd1c83ed6d976f0c37b5365441290f3be'
p102
sS'hash_v2'
p103
S'40978e80eb076186222fd7ca05e35bcb'
p104
sS'mnen_list'
p105
(lp106
g24
ag33
ag40
ag47
ag54
ag61
ag68
ag75
ag82
asS'neighbour_disasm_list'
p107
Nsba(ibclass
BBasicBlock
p108
(dp109
g12
Nsg13
(lp110
(ibclass
BInstr
p111
(dp112
g2
Nsg17
S'mov     eax, [ebp+ret]'
p113
sg19
S'8b45f4'
p114
sg21
Vmov eax, dword ptr [ebp - 0xc]
p115
sg5
L135436523L
sg6
Nsg23
S'mov'
p116
sg25
S'0x81298ebL'
p117
sg27
Nsba(ibclass
BInstr
p118
(dp119
g2
Nsg17
S'jmp     short locret_8129940'
p120
sg19
S'eb50'
p121
sg21
Vjmp 0x52
p122
sg5
L135436526L
sg6
Nsg23
S'jmp'
p123
sg25
S'0x81298eeL'
p124
sg27
Nsbasg84
(lp125
Vmov eax, mem
p126
aVjmp address
p127
asg91
Nsg5
S'0x81298ebL'
p128
sg93
(lp129
S'0x81298cfL'
p130
asg6
Nsg95
(lp131
S'0x8129940L'
p132
asg99
Nsg100
Nsg101
S'8b9a0d40e062be2b9b2d9885108fb196'
p133
sg103
S'5a5b261ba52a671a369af6372509eb2f'
p134
sg105
(lp135
g116
ag123
asg107
Nsba(ibclass
BBasicBlock
p136
(dp137
g12
Nsg13
(lp138
(ibclass
BInstr
p139
(dp140
g2
Nsg17
S'mov     eax, [ebp+siglen]'
p141
sg19
S'8b4518'
p142
sg21
Vmov eax, dword ptr [ebp + 0x18]
p143
sg5
L135436528L
sg6
Nsg23
S'mov'
p144
sg25
S'0x81298f0L'
p145
sg27
Nsba(ibclass
BInstr
p146
(dp147
g2
Nsg17
S'mov     [esp+8], eax    ; len'
p148
sg19
S'89442408'
p149
sg21
Vmov dword ptr [esp + 8], eax
p150
sg5
L135436531L
sg6
Nsg23
S'mov'
p151
sg25
S'0x81298f3L'
p152
sg27
Nsba(ibclass
BInstr
p153
(dp154
g2
Nsg17
S'lea     eax, [ebp+sigbuf]'
p155
sg19
S'8d4514'
p156
sg21
Vlea eax, [ebp + 0x14]
p157
sg5
L135436535L
sg6
Nsg23
S'lea'
p158
sg25
S'0x81298f7L'
p159
sg27
Nsba(ibclass
BInstr
p160
(dp161
g2
Nsg17
S'mov     [esp+4], eax    ; in'
p162
sg19
S'89442404'
p163
sg21
Vmov dword ptr [esp + 4], eax
p164
sg5
L135436538L
sg6
Nsg23
S'mov'
p165
sg25
S'0x81298faL'
p166
sg27
Nsba(ibclass
BInstr
p167
(dp168
g2
Nsg17
S'lea     eax, [ebp+s]'
p169
sg19
S'8d45f0'
p170
sg21
Vlea eax, [ebp - 0x10]
p171
sg5
L135436542L
sg6
Nsg23
S'lea'
p172
sg25
S'0x81298feL'
p173
sg27
Nsba(ibclass
BInstr
p174
(dp175
g2
Nsg17
S'mov     [esp], eax      ; a'
p176
sg19
S'890424'
p177
sg21
Vmov dword ptr [esp], eax
p178
sg5
L135436545L
sg6
Nsg23
S'mov'
p179
sg25
S'0x8129901L'
p180
sg27
Nsba(ibclass
BInstr
p181
(dp182
g2
Nsg17
S'call    d2i_DSA_SIG'
p183
sg19
S'e8b3fdffff'
p184
sg21
Vcall 0xfffffdb8
p185
sg5
L135436548L
sg6
Nsg23
S'call'
p186
sg25
S'0x8129904L'
p187
sg27
Nsba(ibclass
BInstr
p188
(dp189
g2
Nsg17
S'test    eax, eax'
p190
sg19
S'85c0'
p191
sg21
Vtest eax, eax
p192
sg5
L135436553L
sg6
Nsg23
S'test'
p193
sg25
S'0x8129909L'
p194
sg27
Nsba(ibclass
BInstr
p195
(dp196
g2
Nsg17
S'jnz     short loc_812990F'
p197
sg19
S'7502'
p198
sg21
Vjne 4
p199
sg5
L135436555L
sg6
Nsg23
S'jnz'
p200
sg25
S'0x812990bL'
p201
sg27
Nsbasg84
(lp202
Vmov eax, mem
p203
aVmov mem, eax
p204
aVlea eax, mem
p205
aVmov mem, eax
p206
aVlea eax, mem
p207
aVmov mem, eax
p208
aVcall address
p209
ag192
ag199
asg91
Nsg5
S'0x81298f0L'
p210
sg93
(lp211
S'0x81298cfL'
p212
asg6
Nsg95
(lp213
S'0x812990dL'
p214
aS'0x812990fL'
p215
asg99
Nsg100
Nsg101
S'08a371bb9682d9317542924077ea0970'
p216
sg103
S'd4e69f87e820b6324b40a98ae484591e'
p217
sg105
(lp218
g144
ag151
ag158
ag165
ag172
ag179
ag186
ag193
ag200
asg107
Nsba(ibclass
BBasicBlock
p219
(dp220
g12
Nsg13
(lp221
(ibclass
BInstr
p222
(dp223
g2
Nsg17
S'jmp     short err'
p224
sg19
S'eb23'
p225
sg21
Vjmp 0x25
p226
sg5
L135436557L
sg6
Nsg23
S'jmp'
p227
sg25
S'0x812990dL'
p228
sg27
Nsbasg84
(lp229
Vjmp address
p230
asg91
Nsg5
S'0x812990dL'
p231
sg93
(lp232
S'0x81298f0L'
p233
asg6
Nsg95
(lp234
S'0x8129932L'
p235
asg99
Nsg100
Nsg101
S'0ef6cf926f2f394b0cc8e11be8022625'
p236
sg103
S'd4372e4caa7348928655251605aa7329'
p237
sg105
(lp238
g227
asg107
Nsba(ibclass
BBasicBlock
p239
(dp240
g12
Nsg13
(lp241
(ibclass
BInstr
p242
(dp243
g2
Nsg17
S'mov     eax, [ebp+s]'
p244
sg19
S'8b45f0'
p245
sg21
Vmov eax, dword ptr [ebp - 0x10]
p246
sg5
L135436559L
sg6
Nsg23
S'mov'
p247
sg25
S'0x812990fL'
p248
sg27
Nsba(ibclass
BInstr
p249
(dp250
g2
Nsg17
S'mov     edx, [ebp+dsa]'
p251
sg19
S'8b551c'
p252
sg21
Vmov edx, dword ptr [ebp + 0x1c]
p253
sg5
L135436562L
sg6
Nsg23
S'mov'
p254
sg25
S'0x8129912L'
p255
sg27
Nsba(ibclass
BInstr
p256
(dp257
g2
Nsg17
S'mov     [esp+0Ch], edx  ; dsa'
p258
sg19
S'8954240c'
p259
sg21
Vmov dword ptr [esp + 0xc], edx
p260
sg5
L135436565L
sg6
Nsg23
S'mov'
p261
sg25
S'0x8129915L'
p262
sg27
Nsba(ibclass
BInstr
p263
(dp264
g2
Nsg17
S'mov     [esp+8], eax    ; sig'
p265
sg19
S'89442408'
p266
sg21
Vmov dword ptr [esp + 8], eax
p267
sg5
L135436569L
sg6
Nsg23
S'mov'
p268
sg25
S'0x8129919L'
p269
sg27
Nsba(ibclass
BInstr
p270
(dp271
g2
Nsg17
S'mov     eax, [ebp+dgst_len]'
p272
sg19
S'8b4510'
p273
sg21
Vmov eax, dword ptr [ebp + 0x10]
p274
sg5
L135436573L
sg6
Nsg23
S'mov'
p275
sg25
S'0x812991dL'
p276
sg27
Nsba(ibclass
BInstr
p277
(dp278
g2
Nsg17
S'mov     [esp+4], eax    ; dgst_len'
p279
sg19
S'89442404'
p280
sg21
Vmov dword ptr [esp + 4], eax
p281
sg5
L135436576L
sg6
Nsg23
S'mov'
p282
sg25
S'0x8129920L'
p283
sg27
Nsba(ibclass
BInstr
p284
(dp285
g2
Nsg17
S'mov     eax, [ebp+dgst]'
p286
sg19
S'8b450c'
p287
sg21
Vmov eax, dword ptr [ebp + 0xc]
p288
sg5
L135436580L
sg6
Nsg23
S'mov'
p289
sg25
S'0x8129924L'
p290
sg27
Nsba(ibclass
BInstr
p291
(dp292
g2
Nsg17
S'mov     [esp], eax      ; dgst'
p293
sg19
S'890424'
p294
sg21
Vmov dword ptr [esp], eax
p295
sg5
L135436583L
sg6
Nsg23
S'mov'
p296
sg25
S'0x8129927L'
p297
sg27
Nsba(ibclass
BInstr
p298
(dp299
g2
Nsg17
S'call    DSA_do_verify'
p300
sg19
S'e813000000'
p301
sg21
Vcall 0x18
p302
sg5
L135436586L
sg6
Nsg23
S'call'
p303
sg25
S'0x812992aL'
p304
sg27
Nsba(ibclass
BInstr
p305
(dp306
g2
Nsg17
S'mov     [ebp+ret], eax'
p307
sg19
S'8945f4'
p308
sg21
Vmov dword ptr [ebp - 0xc], eax
p309
sg5
L135436591L
sg6
Nsg23
S'mov'
p310
sg25
S'0x812992fL'
p311
sg27
Nsbasg84
(lp312
Vmov eax, mem
p313
aVmov edx, mem
p314
aVmov mem, edx
p315
aVmov mem, eax
p316
aVmov eax, mem
p317
aVmov mem, eax
p318
aVmov eax, mem
p319
aVmov mem, eax
p320
aVcall address
p321
aVmov mem, eax
p322
asg91
Nsg5
S'0x812990fL'
p323
sg93
(lp324
S'0x81298f0L'
p325
asg6
Nsg95
(lp326
S'0x8129932L'
p327
asg99
Nsg100
Nsg101
S'5304871f43eb6abe7b383ab9a489fac3'
p328
sg103
S'75ace854285f8df65455c7413ee4f717'
p329
sg105
(lp330
g247
ag254
ag261
ag268
ag275
ag282
ag289
ag296
ag303
ag310
asg107
Nsba(ibclass
BBasicBlock
p331
(dp332
g12
Nsg13
(lp333
(ibclass
BInstr
p334
(dp335
g2
Nsg17
S'mov     eax, [ebp+s]'
p336
sg19
S'8b45f0'
p337
sg21
Vmov eax, dword ptr [ebp - 0x10]
p338
sg5
L135436594L
sg6
Nsg23
S'mov'
p339
sg25
S'0x8129932L'
p340
sg27
Nsba(ibclass
BInstr
p341
(dp342
g2
Nsg17
S'mov     [esp], eax      ; sig'
p343
sg19
S'890424'
p344
sg21
Vmov dword ptr [esp], eax
p345
sg5
L135436597L
sg6
Nsg23
S'mov'
p346
sg25
S'0x8129935L'
p347
sg27
Nsba(ibclass
BInstr
p348
(dp349
g2
Nsg17
S'call    DSA_SIG_free'
p350
sg19
S'e8d2000000'
p351
sg21
Vcall 0xd7
p352
sg5
L135436600L
sg6
Nsg23
S'call'
p353
sg25
S'0x8129938L'
p354
sg27
Nsba(ibclass
BInstr
p355
(dp356
g2
Nsg17
S'mov     eax, [ebp+ret]'
p357
sg19
S'8b45f4'
p358
sg21
Vmov eax, dword ptr [ebp - 0xc]
p359
sg5
L135436605L
sg6
Nsg23
S'mov'
p360
sg25
S'0x812993dL'
p361
sg27
Nsbasg84
(lp362
Vmov eax, mem
p363
aVmov mem, eax
p364
aVcall address
p365
aVmov eax, mem
p366
asg91
Nsg5
S'0x8129932L'
p367
sg93
(lp368
S'0x812990dL'
p369
aS'0x812990fL'
p370
asg6
Nsg95
(lp371
S'0x8129940L'
p372
asg99
Nsg100
Nsg101
S'a6abb5d9994936d83c79ed1f9957ba18'
p373
sg103
S'dc3c10d568df11b0f851ad0e836859d8'
p374
sg105
(lp375
g339
ag346
ag353
ag360
asg107
Nsba(ibclass
BBasicBlock
p376
(dp377
g12
Nsg13
(lp378
(ibclass
BInstr
p379
(dp380
g2
Nsg17
S'leave'
p381
sg19
S'c9'
p382
sg21
Vleave 
p383
sg5
L135436608L
sg6
Nsg23
S'leave'
p384
sg25
S'0x8129940L'
p385
sg27
Nsba(ibclass
BInstr
p386
(dp387
g2
Nsg17
S'retn'
p388
sg19
S'c3'
p389
sg21
Vret 
p390
sg5
L135436609L
sg6
Nsg23
S'retn'
p391
sg25
S'0x8129941L'
p392
sg27
Nsbasg84
(lp393
Vleave
p394
aVret
p395
asg91
Nsg5
S'0x8129940L'
p396
sg93
(lp397
S'0x81298ebL'
p398
aS'0x8129932L'
p399
asg6
Nsg95
(lp400
sg99
Nsg100
Nsg101
S'08c78f73a6f87c85da88b2982f54ce2a'
p401
sg103
S'393fee3c9fb1d26424d4b7704918e387'
p402
sg105
(lp403
g384
ag391
asg107
Nsbasb.