(ibclass
BFunc
p0
(dp1
S'hash'
p2
NsS'name'
p3
S'dtls1_hm_fragment_free'
p4
sS'start_address'
p5
L135051930L
sS'flag'
p6
NsS'program'
p7
NsS'bbs'
p8
(lp9
(ibclass
BBasicBlock
p10
(dp11
S'function'
p12
NsS'binstrs'
p13
(lp14
(ibclass
BInstr
p15
(dp16
g2
NsS'disasm'
p17
S'push    ebp'
p18
sS'bytes'
p19
S'55'
p20
sS'disasm_striped'
p21
Vpush ebp
p22
sg5
L135051930L
sg6
NsS'mnem'
p23
S'push'
p24
sS'address'
p25
S'0x80cba9aL'
p26
sS'basicblock'
p27
Nsba(ibclass
BInstr
p28
(dp29
g2
Nsg17
S'mov     ebp, esp'
p30
sg19
S'89e5'
p31
sg21
Vmov ebp, esp
p32
sg5
L135051931L
sg6
Nsg23
S'mov'
p33
sg25
S'0x80cba9bL'
p34
sg27
Nsba(ibclass
BInstr
p35
(dp36
g2
Nsg17
S'sub     esp, 18h'
p37
sg19
S'83ec18'
p38
sg21
Vsub esp, 0x18
p39
sg5
L135051933L
sg6
Nsg23
S'sub'
p40
sg25
S'0x80cba9dL'
p41
sg27
Nsba(ibclass
BInstr
p42
(dp43
g2
Nsg17
S'mov     eax, [ebp+frag]'
p44
sg19
S'8b4508'
p45
sg21
Vmov eax, dword ptr [ebp + 8]
p46
sg5
L135051936L
sg6
Nsg23
S'mov'
p47
sg25
S'0x80cbaa0L'
p48
sg27
Nsba(ibclass
BInstr
p49
(dp50
g2
Nsg17
S'mov     eax, [eax+2Ch]'
p51
sg19
S'8b402c'
p52
sg21
Vmov eax, dword ptr [eax + 0x2c]
p53
sg5
L135051939L
sg6
Nsg23
S'mov'
p54
sg25
S'0x80cbaa3L'
p55
sg27
Nsba(ibclass
BInstr
p56
(dp57
g2
Nsg17
S'test    eax, eax'
p58
sg19
S'85c0'
p59
sg21
Vtest eax, eax
p60
sg5
L135051942L
sg6
Nsg23
S'test'
p61
sg25
S'0x80cbaa6L'
p62
sg27
Nsba(ibclass
BInstr
p63
(dp64
g2
Nsg17
S'jz      short loc_80CBAB8'
p65
sg19
S'740e'
p66
sg21
Vje 0x10
p67
sg5
L135051944L
sg6
Nsg23
S'jz'
p68
sg25
S'0x80cbaa8L'
p69
sg27
NsbasS'disasm_list'
p70
(lp71
g22
ag32
aVsub esp, address
p72
aVmov eax, mem
p73
aVmov eax, mem
p74
ag60
aVje address
p75
asS'end_address'
p76
Nsg5
S'0x80cba9aL'
p77
sS'preds'
p78
(lp79
sg6
NsS'succs'
p80
(lp81
S'0x80cbaaaL'
p82
aS'0x80cbab8L'
p83
asS'hash_v3'
p84
NsS'flag_v2'
p85
NsS'hash_v1'
p86
S'9d6854eed8612e0f14f1ca0c9da09d75'
p87
sS'hash_v2'
p88
S'2f18d19e599f00fd90a15d02c04d46dd'
p89
sS'mnen_list'
p90
(lp91
g24
ag33
ag40
ag47
ag54
ag61
ag68
asS'neighbour_disasm_list'
p92
Nsba(ibclass
BBasicBlock
p93
(dp94
g12
Nsg13
(lp95
(ibclass
BInstr
p96
(dp97
g2
Nsg17
S'mov     eax, [ebp+frag]'
p98
sg19
S'8b4508'
p99
sg21
Vmov eax, dword ptr [ebp + 8]
p100
sg5
L135051946L
sg6
Nsg23
S'mov'
p101
sg25
S'0x80cbaaaL'
p102
sg27
Nsba(ibclass
BInstr
p103
(dp104
g2
Nsg17
S'mov     eax, [eax+2Ch]'
p105
sg19
S'8b402c'
p106
sg21
Vmov eax, dword ptr [eax + 0x2c]
p107
sg5
L135051949L
sg6
Nsg23
S'mov'
p108
sg25
S'0x80cbaadL'
p109
sg27
Nsba(ibclass
BInstr
p110
(dp111
g2
Nsg17
S'mov     [esp], eax      ; str'
p112
sg19
S'890424'
p113
sg21
Vmov dword ptr [esp], eax
p114
sg5
L135051952L
sg6
Nsg23
S'mov'
p115
sg25
S'0x80cbab0L'
p116
sg27
Nsba(ibclass
BInstr
p117
(dp118
g2
Nsg17
S'call    CRYPTO_free'
p119
sg19
S'e8f78f0100'
p120
sg21
Vcall 0x18ffc
p121
sg5
L135051955L
sg6
Nsg23
S'call'
p122
sg25
S'0x80cbab3L'
p123
sg27
Nsbasg70
(lp124
Vmov eax, mem
p125
aVmov eax, mem
p126
aVmov mem, eax
p127
aVcall address
p128
asg76
Nsg5
S'0x80cbaaaL'
p129
sg78
(lp130
S'0x80cba9aL'
p131
asg6
Nsg80
(lp132
S'0x80cbab8L'
p133
asg84
Nsg85
Nsg86
S'e233a80004971487a8cda28e21c9f5ef'
p134
sg88
S'aa359b6218411f2f012047a2f405e78d'
p135
sg90
(lp136
g101
ag108
ag115
ag122
asg92
Nsba(ibclass
BBasicBlock
p137
(dp138
g12
Nsg13
(lp139
(ibclass
BInstr
p140
(dp141
g2
Nsg17
S'mov     eax, [ebp+frag]'
p142
sg19
S'8b4508'
p143
sg21
Vmov eax, dword ptr [ebp + 8]
p144
sg5
L135051960L
sg6
Nsg23
S'mov'
p145
sg25
S'0x80cbab8L'
p146
sg27
Nsba(ibclass
BInstr
p147
(dp148
g2
Nsg17
S'mov     eax, [eax+30h]'
p149
sg19
S'8b4030'
p150
sg21
Vmov eax, dword ptr [eax + 0x30]
p151
sg5
L135051963L
sg6
Nsg23
S'mov'
p152
sg25
S'0x80cbabbL'
p153
sg27
Nsba(ibclass
BInstr
p154
(dp155
g2
Nsg17
S'test    eax, eax'
p156
sg19
S'85c0'
p157
sg21
Vtest eax, eax
p158
sg5
L135051966L
sg6
Nsg23
S'test'
p159
sg25
S'0x80cbabeL'
p160
sg27
Nsba(ibclass
BInstr
p161
(dp162
g2
Nsg17
S'jz      short loc_80CBAD0'
p163
sg19
S'740e'
p164
sg21
Vje 0x10
p165
sg5
L135051968L
sg6
Nsg23
S'jz'
p166
sg25
S'0x80cbac0L'
p167
sg27
Nsbasg70
(lp168
Vmov eax, mem
p169
aVmov eax, mem
p170
ag158
aVje address
p171
asg76
Nsg5
S'0x80cbab8L'
p172
sg78
(lp173
S'0x80cba9aL'
p174
aS'0x80cbaaaL'
p175
asg6
Nsg80
(lp176
S'0x80cbac2L'
p177
aS'0x80cbad0L'
p178
asg84
Nsg85
Nsg86
S'ea5d08c7dcc07640d42787f826218f11'
p179
sg88
S'103b924e2a82731ce51d187b2e41af3a'
p180
sg90
(lp181
g145
ag152
ag159
ag166
asg92
Nsba(ibclass
BBasicBlock
p182
(dp183
g12
Nsg13
(lp184
(ibclass
BInstr
p185
(dp186
g2
Nsg17
S'mov     eax, [ebp+frag]'
p187
sg19
S'8b4508'
p188
sg21
Vmov eax, dword ptr [ebp + 8]
p189
sg5
L135051970L
sg6
Nsg23
S'mov'
p190
sg25
S'0x80cbac2L'
p191
sg27
Nsba(ibclass
BInstr
p192
(dp193
g2
Nsg17
S'mov     eax, [eax+30h]'
p194
sg19
S'8b4030'
p195
sg21
Vmov eax, dword ptr [eax + 0x30]
p196
sg5
L135051973L
sg6
Nsg23
S'mov'
p197
sg25
S'0x80cbac5L'
p198
sg27
Nsba(ibclass
BInstr
p199
(dp200
g2
Nsg17
S'mov     [esp], eax      ; str'
p201
sg19
S'890424'
p202
sg21
Vmov dword ptr [esp], eax
p203
sg5
L135051976L
sg6
Nsg23
S'mov'
p204
sg25
S'0x80cbac8L'
p205
sg27
Nsba(ibclass
BInstr
p206
(dp207
g2
Nsg17
S'call    CRYPTO_free'
p208
sg19
S'e8df8f0100'
p209
sg21
Vcall 0x18fe4
p210
sg5
L135051979L
sg6
Nsg23
S'call'
p211
sg25
S'0x80cbacbL'
p212
sg27
Nsbasg70
(lp213
Vmov eax, mem
p214
aVmov eax, mem
p215
aVmov mem, eax
p216
aVcall address
p217
asg76
Nsg5
S'0x80cbac2L'
p218
sg78
(lp219
S'0x80cbab8L'
p220
asg6
Nsg80
(lp221
S'0x80cbad0L'
p222
asg84
Nsg85
Nsg86
S'e233a80004971487a8cda28e21c9f5ef'
p223
sg88
S'aa359b6218411f2f012047a2f405e78d'
p224
sg90
(lp225
g190
ag197
ag204
ag211
asg92
Nsba(ibclass
BBasicBlock
p226
(dp227
g12
Nsg13
(lp228
(ibclass
BInstr
p229
(dp230
g2
Nsg17
S'mov     eax, [ebp+frag]'
p231
sg19
S'8b4508'
p232
sg21
Vmov eax, dword ptr [ebp + 8]
p233
sg5
L135051984L
sg6
Nsg23
S'mov'
p234
sg25
S'0x80cbad0L'
p235
sg27
Nsba(ibclass
BInstr
p236
(dp237
g2
Nsg17
S'mov     [esp], eax      ; str'
p238
sg19
S'890424'
p239
sg21
Vmov dword ptr [esp], eax
p240
sg5
L135051987L
sg6
Nsg23
S'mov'
p241
sg25
S'0x80cbad3L'
p242
sg27
Nsba(ibclass
BInstr
p243
(dp244
g2
Nsg17
S'call    CRYPTO_free'
p245
sg19
S'e8d48f0100'
p246
sg21
Vcall 0x18fd9
p247
sg5
L135051990L
sg6
Nsg23
S'call'
p248
sg25
S'0x80cbad6L'
p249
sg27
Nsba(ibclass
BInstr
p250
(dp251
g2
Nsg17
S'leave'
p252
sg19
S'c9'
p253
sg21
Vleave 
p254
sg5
L135051995L
sg6
Nsg23
S'leave'
p255
sg25
S'0x80cbadbL'
p256
sg27
Nsba(ibclass
BInstr
p257
(dp258
g2
Nsg17
S'retn'
p259
sg19
S'c3'
p260
sg21
Vret 
p261
sg5
L135051996L
sg6
Nsg23
S'retn'
p262
sg25
S'0x80cbadcL'
p263
sg27
Nsbasg70
(lp264
Vmov eax, mem
p265
aVmov mem, eax
p266
aVcall address
p267
aVleave
p268
aVret
p269
asg76
Nsg5
S'0x80cbad0L'
p270
sg78
(lp271
S'0x80cbab8L'
p272
aS'0x80cbac2L'
p273
asg6
Nsg80
(lp274
sg84
Nsg85
Nsg86
S'fc32e5a7a8009b8f42537298e03e0562'
p275
sg88
S'c860653715ee77fb52bc444fbd6a5545'
p276
sg90
(lp277
g234
ag241
ag248
ag255
ag262
asg92
Nsbasb.