(ibclass
BFunc
p0
(dp1
S'hash'
p2
NsS'name'
p3
S'ssl_srp_server_param_cb'
p4
sS'start_address'
p5
L134654898L
sS'flag'
p6
NsS'program'
p7
NsS'bbs'
p8
(lp9
(ibclass
BBasicBlock
p10
(dp11
S'function'
p12
NsS'binstrs'
p13
(lp14
(ibclass
BInstr
p15
(dp16
g2
NsS'disasm'
p17
S'push    ebp'
p18
sS'bytes'
p19
S'55'
p20
sS'disasm_striped'
p21
Vpush ebp
p22
sg5
L134654898L
sg6
NsS'mnem'
p23
S'push'
p24
sS'address'
p25
S'0x806abb2L'
p26
sS'basicblock'
p27
Nsba(ibclass
BInstr
p28
(dp29
g2
Nsg17
S'mov     ebp, esp'
p30
sg19
S'89e5'
p31
sg21
Vmov ebp, esp
p32
sg5
L134654899L
sg6
Nsg23
S'mov'
p33
sg25
S'0x806abb3L'
p34
sg27
Nsba(ibclass
BInstr
p35
(dp36
g2
Nsg17
S'push    esi'
p37
sg19
S'56'
p38
sg21
Vpush esi
p39
sg5
L134654901L
sg6
Nsg23
S'push'
p40
sg25
S'0x806abb5L'
p41
sg27
Nsba(ibclass
BInstr
p42
(dp43
g2
Nsg17
S'push    ebx'
p44
sg19
S'53'
p45
sg21
Vpush ebx
p46
sg5
L134654902L
sg6
Nsg23
S'push'
p47
sg25
S'0x806abb6L'
p48
sg27
Nsba(ibclass
BInstr
p49
(dp50
g2
Nsg17
S'sub     esp, 30h'
p51
sg19
S'83ec30'
p52
sg21
Vsub esp, 0x30
p53
sg5
L134654903L
sg6
Nsg23
S'sub'
p54
sg25
S'0x806abb7L'
p55
sg27
Nsba(ibclass
BInstr
p56
(dp57
g2
Nsg17
S'mov     eax, [ebp+arg]'
p58
sg19
S'8b4510'
p59
sg21
Vmov eax, dword ptr [ebp + 0x10]
p60
sg5
L134654906L
sg6
Nsg23
S'mov'
p61
sg25
S'0x806abbaL'
p62
sg27
Nsba(ibclass
BInstr
p63
(dp64
g2
Nsg17
S'mov     [ebp+p], eax'
p65
sg19
S'8945f4'
p66
sg21
Vmov dword ptr [ebp - 0xc], eax
p67
sg5
L134654909L
sg6
Nsg23
S'mov'
p68
sg25
S'0x806abbdL'
p69
sg27
Nsba(ibclass
BInstr
p70
(dp71
g2
Nsg17
S'mov     eax, [ebp+p]'
p72
sg19
S'8b45f4'
p73
sg21
Vmov eax, dword ptr [ebp - 0xc]
p74
sg5
L134654912L
sg6
Nsg23
S'mov'
p75
sg25
S'0x806abc0L'
p76
sg27
Nsba(ibclass
BInstr
p77
(dp78
g2
Nsg17
S'mov     eax, [eax]'
p79
sg19
S'8b00'
p80
sg21
Vmov eax, dword ptr [eax]
p81
sg5
L134654915L
sg6
Nsg23
S'mov'
p82
sg25
S'0x806abc3L'
p83
sg27
Nsba(ibclass
BInstr
p84
(dp85
g2
Nsg17
S'test    eax, eax'
p86
sg19
S'85c0'
p87
sg21
Vtest eax, eax
p88
sg5
L134654917L
sg6
Nsg23
S'test'
p89
sg25
S'0x806abc5L'
p90
sg27
Nsba(ibclass
BInstr
p91
(dp92
g2
Nsg17
S'jnz     short loc_806AC0B'
p93
sg19
S'7542'
p94
sg21
Vjne 0x44
p95
sg5
L134654919L
sg6
Nsg23
S'jnz'
p96
sg25
S'0x806abc7L'
p97
sg27
NsbasS'disasm_list'
p98
(lp99
g22
ag32
ag39
ag46
aVsub esp, address
p100
aVmov eax, mem
p101
aVmov mem, eax
p102
aVmov eax, mem
p103
aVmov eax, mem
p104
ag88
aVjne address
p105
asS'end_address'
p106
Nsg5
S'0x806abb2L'
p107
sS'preds'
p108
(lp109
sg6
NsS'succs'
p110
(lp111
S'0x806abc9L'
p112
aS'0x806ac0bL'
p113
asS'hash_v3'
p114
NsS'flag_v2'
p115
NsS'hash_v1'
p116
S'9395c2e6081b4a97387ad2a54540d704'
p117
sS'hash_v2'
p118
S'c3f7e3cac6c5c7b5bbf6836390834e10'
p119
sS'mnen_list'
p120
(lp121
g24
ag33
ag40
ag47
ag54
ag61
ag68
ag75
ag82
ag89
ag96
asS'neighbour_disasm_list'
p122
Nsba(ibclass
BBasicBlock
p123
(dp124
g12
Nsg13
(lp125
(ibclass
BInstr
p126
(dp127
g2
Nsg17
S'mov     eax, [ebp+p]'
p128
sg19
S'8b45f4'
p129
sg21
Vmov eax, dword ptr [ebp - 0xc]
p130
sg5
L134654921L
sg6
Nsg23
S'mov'
p131
sg25
S'0x806abc9L'
p132
sg27
Nsba(ibclass
BInstr
p133
(dp134
g2
Nsg17
S'mov     eax, [eax+8]'
p135
sg19
S'8b4008'
p136
sg21
Vmov eax, dword ptr [eax + 8]
p137
sg5
L134654924L
sg6
Nsg23
S'mov'
p138
sg25
S'0x806abccL'
p139
sg27
Nsba(ibclass
BInstr
p140
(dp141
g2
Nsg17
S'test    eax, eax'
p142
sg19
S'85c0'
p143
sg21
Vtest eax, eax
p144
sg5
L134654927L
sg6
Nsg23
S'test'
p145
sg25
S'0x806abcfL'
p146
sg27
Nsba(ibclass
BInstr
p147
(dp148
g2
Nsg17
S'jnz     short loc_806AC0B'
p149
sg19
S'7538'
p150
sg21
Vjne 0x3a
p151
sg5
L134654929L
sg6
Nsg23
S'jnz'
p152
sg25
S'0x806abd1L'
p153
sg27
Nsbasg98
(lp154
Vmov eax, mem
p155
aVmov eax, mem
p156
ag144
aVjne address
p157
asg106
Nsg5
S'0x806abc9L'
p158
sg108
(lp159
S'0x806abb2L'
p160
asg6
Nsg110
(lp161
S'0x806abd3L'
p162
aS'0x806ac0bL'
p163
asg114
Nsg115
Nsg116
S'c659dbb3567582fe193bedd2c7eccb80'
p164
sg118
S'bf49e6fb415bfa3724765cd6082e6314'
p165
sg120
(lp166
g131
ag138
ag145
ag152
asg122
Nsba(ibclass
BBasicBlock
p167
(dp168
g12
Nsg13
(lp169
(ibclass
BInstr
p170
(dp171
g2
Nsg17
S'mov     eax, [ebp+s]'
p172
sg19
S'8b4508'
p173
sg21
Vmov eax, dword ptr [ebp + 8]
p174
sg5
L134654931L
sg6
Nsg23
S'mov'
p175
sg25
S'0x806abd3L'
p176
sg27
Nsba(ibclass
BInstr
p177
(dp178
g2
Nsg17
S'mov     [esp], eax      ; s'
p179
sg19
S'890424'
p180
sg21
Vmov dword ptr [esp], eax
p181
sg5
L134654934L
sg6
Nsg23
S'mov'
p182
sg25
S'0x806abd6L'
p183
sg27
Nsba(ibclass
BInstr
p184
(dp185
g2
Nsg17
S'call    SSL_get_srp_username'
p186
sg19
S'e88d840700'
p187
sg21
Vcall 0x78492
p188
sg5
L134654937L
sg6
Nsg23
S'call'
p189
sg25
S'0x806abd9L'
p190
sg27
Nsba(ibclass
BInstr
p191
(dp192
g2
Nsg17
S'mov     edx, [ebp+p]'
p193
sg19
S'8b55f4'
p194
sg21
Vmov edx, dword ptr [ebp - 0xc]
p195
sg5
L134654942L
sg6
Nsg23
S'mov'
p196
sg25
S'0x806abdeL'
p197
sg27
Nsba(ibclass
BInstr
p198
(dp199
g2
Nsg17
S'mov     [edx], eax'
p200
sg19
S'8902'
p201
sg21
Vmov dword ptr [edx], eax
p202
sg5
L134654945L
sg6
Nsg23
S'mov'
p203
sg25
S'0x806abe1L'
p204
sg27
Nsba(ibclass
BInstr
p205
(dp206
g2
Nsg17
S'mov     eax, [ebp+p]'
p207
sg19
S'8b45f4'
p208
sg21
Vmov eax, dword ptr [ebp - 0xc]
p209
sg5
L134654947L
sg6
Nsg23
S'mov'
p210
sg25
S'0x806abe3L'
p211
sg27
Nsba(ibclass
BInstr
p212
(dp213
g2
Nsg17
S'mov     edx, [eax]'
p214
sg19
S'8b10'
p215
sg21
Vmov edx, dword ptr [eax]
p216
sg5
L134654950L
sg6
Nsg23
S'mov'
p217
sg25
S'0x806abe6L'
p218
sg27
Nsba(ibclass
BInstr
p219
(dp220
g2
Nsg17
S'mov     eax, ds:bio_err'
p221
sg19
S'a128bd2908'
p222
sg21
Vmov eax, dword ptr [0x829bd28]
p223
sg5
L134654952L
sg6
Nsg23
S'mov'
p224
sg25
S'0x806abe8L'
p225
sg27
Nsba(ibclass
BInstr
p226
(dp227
g2
Nsg17
S'mov     [esp+8], edx'
p228
sg19
S'89542408'
p229
sg21
Vmov dword ptr [esp + 8], edx
p230
sg5
L134654957L
sg6
Nsg23
S'mov'
p231
sg25
S'0x806abedL'
p232
sg27
Nsba(ibclass
BInstr
p233
(dp234
g2
Nsg17
S'mov     dword ptr [esp+4], offset aSrpUsernameS; "SRP username = \\"%s\\"\\n"'
p235
sg19
S'c7442404dd252008'
p236
sg21
Vmov dword ptr [esp + 4], 0x82025dd
p237
sg5
L134654961L
sg6
Nsg23
S'mov'
p238
sg25
S'0x806abf1L'
p239
sg27
Nsba(ibclass
BInstr
p240
(dp241
g2
Nsg17
S'mov     [esp], eax      ; bio'
p242
sg19
S'890424'
p243
sg21
Vmov dword ptr [esp], eax
p244
sg5
L134654969L
sg6
Nsg23
S'mov'
p245
sg25
S'0x806abf9L'
p246
sg27
Nsba(ibclass
BInstr
p247
(dp248
g2
Nsg17
S'call    BIO_printf'
p249
sg19
S'e844c90c00'
p250
sg21
Vcall 0xcc949
p251
sg5
L134654972L
sg6
Nsg23
S'call'
p252
sg25
S'0x806abfcL'
p253
sg27
Nsba(ibclass
BInstr
p254
(dp255
g2
Nsg17
S'mov     eax, 0FFFFFFFFh'
p256
sg19
S'b8ffffffff'
p257
sg21
Vmov eax, 0xffffffff
p258
sg5
L134654977L
sg6
Nsg23
S'mov'
p259
sg25
S'0x806ac01L'
p260
sg27
Nsba(ibclass
BInstr
p261
(dp262
g2
Nsg17
S'jmp     loc_806ACE0'
p263
sg19
S'e9d5000000'
p264
sg21
Vjmp 0xda
p265
sg5
L134654982L
sg6
Nsg23
S'jmp'
p266
sg25
S'0x806ac06L'
p267
sg27
Nsbasg98
(lp268
Vmov eax, mem
p269
aVmov mem, eax
p270
aVcall address
p271
aVmov edx, mem
p272
aVmov mem, eax
p273
aVmov eax, mem
p274
aVmov edx, mem
p275
aVmov eax, mem
p276
aVmov mem, edx
p277
aVmov mem, address
p278
aVmov mem, eax
p279
aVcall address
p280
aVmov eax, address
p281
aVjmp address
p282
asg106
Nsg5
S'0x806abd3L'
p283
sg108
(lp284
S'0x806abc9L'
p285
asg6
Nsg110
(lp286
S'0x806ace0L'
p287
asg114
Nsg115
Nsg116
S'ed4ea48ddbac1fbf632da412b688b42b'
p288
sg118
S'db3147973728af9805a7cb334b8cd7f2'
p289
sg120
(lp290
g175
ag182
ag189
ag196
ag203
ag210
ag217
ag224
ag231
ag238
ag245
ag252
ag259
ag266
asg122
Nsba(ibclass
BBasicBlock
p291
(dp292
g12
Nsg13
(lp293
(ibclass
BInstr
p294
(dp295
g2
Nsg17
S'mov     eax, [ebp+p]'
p296
sg19
S'8b45f4'
p297
sg21
Vmov eax, dword ptr [ebp - 0xc]
p298
sg5
L134654987L
sg6
Nsg23
S'mov'
p299
sg25
S'0x806ac0bL'
p300
sg27
Nsba(ibclass
BInstr
p301
(dp302
g2
Nsg17
S'mov     eax, [eax+8]'
p303
sg19
S'8b4008'
p304
sg21
Vmov eax, dword ptr [eax + 8]
p305
sg5
L134654990L
sg6
Nsg23
S'mov'
p306
sg25
S'0x806ac0eL'
p307
sg27
Nsba(ibclass
BInstr
p308
(dp309
g2
Nsg17
S'test    eax, eax'
p310
sg19
S'85c0'
p311
sg21
Vtest eax, eax
p312
sg5
L134654993L
sg6
Nsg23
S'test'
p313
sg25
S'0x806ac11L'
p314
sg27
Nsba(ibclass
BInstr
p315
(dp316
g2
Nsg17
S'jnz     short loc_806AC3D'
p317
sg19
S'7528'
p318
sg21
Vjne 0x2a
p319
sg5
L134654995L
sg6
Nsg23
S'jnz'
p320
sg25
S'0x806ac13L'
p321
sg27
Nsbasg98
(lp322
Vmov eax, mem
p323
aVmov eax, mem
p324
ag312
aVjne address
p325
asg106
Nsg5
S'0x806ac0bL'
p326
sg108
(lp327
S'0x806abb2L'
p328
aS'0x806abc9L'
p329
asg6
Nsg110
(lp330
S'0x806ac15L'
p331
aS'0x806ac3dL'
p332
asg114
Nsg115
Nsg116
S'c659dbb3567582fe193bedd2c7eccb80'
p333
sg118
S'bf49e6fb415bfa3724765cd6082e6314'
p334
sg120
(lp335
g299
ag306
ag313
ag320
asg122
Nsba(ibclass
BBasicBlock
p336
(dp337
g12
Nsg13
(lp338
(ibclass
BInstr
p339
(dp340
g2
Nsg17
S'mov     eax, [ebp+p]'
p341
sg19
S'8b45f4'
p342
sg21
Vmov eax, dword ptr [ebp - 0xc]
p343
sg5
L134654997L
sg6
Nsg23
S'mov'
p344
sg25
S'0x806ac15L'
p345
sg27
Nsba(ibclass
BInstr
p346
(dp347
g2
Nsg17
S'mov     edx, [eax]'
p348
sg19
S'8b10'
p349
sg21
Vmov edx, dword ptr [eax]
p350
sg5
L134655000L
sg6
Nsg23
S'mov'
p351
sg25
S'0x806ac18L'
p352
sg27
Nsba(ibclass
BInstr
p353
(dp354
g2
Nsg17
S'mov     eax, ds:bio_err'
p355
sg19
S'a128bd2908'
p356
sg21
Vmov eax, dword ptr [0x829bd28]
p357
sg5
L134655002L
sg6
Nsg23
S'mov'
p358
sg25
S'0x806ac1aL'
p359
sg27
Nsba(ibclass
BInstr
p360
(dp361
g2
Nsg17
S'mov     [esp+8], edx'
p362
sg19
S'89542408'
p363
sg21
Vmov dword ptr [esp + 8], edx
p364
sg5
L134655007L
sg6
Nsg23
S'mov'
p365
sg25
S'0x806ac1fL'
p366
sg27
Nsba(ibclass
BInstr
p367
(dp368
g2
Nsg17
S'mov     dword ptr [esp+4], offset aUserSDoesnTExi; "User %s doesn\'t exist\\n"'
p369
sg19
S'c7442404f2252008'
p370
sg21
Vmov dword ptr [esp + 4], 0x82025f2
p371
sg5
L134655011L
sg6
Nsg23
S'mov'
p372
sg25
S'0x806ac23L'
p373
sg27
Nsba(ibclass
BInstr
p374
(dp375
g2
Nsg17
S'mov     [esp], eax      ; bio'
p376
sg19
S'890424'
p377
sg21
Vmov dword ptr [esp], eax
p378
sg5
L134655019L
sg6
Nsg23
S'mov'
p379
sg25
S'0x806ac2bL'
p380
sg27
Nsba(ibclass
BInstr
p381
(dp382
g2
Nsg17
S'call    BIO_printf'
p383
sg19
S'e812c90c00'
p384
sg21
Vcall 0xcc917
p385
sg5
L134655022L
sg6
Nsg23
S'call'
p386
sg25
S'0x806ac2eL'
p387
sg27
Nsba(ibclass
BInstr
p388
(dp389
g2
Nsg17
S'mov     eax, 2'
p390
sg19
S'b802000000'
p391
sg21
Vmov eax, 2
p392
sg5
L134655027L
sg6
Nsg23
S'mov'
p393
sg25
S'0x806ac33L'
p394
sg27
Nsba(ibclass
BInstr
p395
(dp396
g2
Nsg17
S'jmp     loc_806ACE0'
p397
sg19
S'e9a3000000'
p398
sg21
Vjmp 0xa8
p399
sg5
L134655032L
sg6
Nsg23
S'jmp'
p400
sg25
S'0x806ac38L'
p401
sg27
Nsbasg98
(lp402
Vmov eax, mem
p403
aVmov edx, mem
p404
aVmov eax, mem
p405
aVmov mem, edx
p406
aVmov mem, address
p407
aVmov mem, eax
p408
aVcall address
p409
ag392
aVjmp address
p410
asg106
Nsg5
S'0x806ac15L'
p411
sg108
(lp412
S'0x806ac0bL'
p413
asg6
Nsg110
(lp414
S'0x806ace0L'
p415
asg114
Nsg115
Nsg116
S'318f0461221986797c925397b77eb287'
p416
sg118
S'b0f932d1d815a8f15b4445ec0df83cc9'
p417
sg120
(lp418
g344
ag351
ag358
ag365
ag372
ag379
ag386
ag393
ag400
asg122
Nsba(ibclass
BBasicBlock
p419
(dp420
g12
Nsg13
(lp421
(ibclass
BInstr
p422
(dp423
g2
Nsg17
S'mov     eax, [ebp+p]'
p424
sg19
S'8b45f4'
p425
sg21
Vmov eax, dword ptr [ebp - 0xc]
p426
sg5
L134655037L
sg6
Nsg23
S'mov'
p427
sg25
S'0x806ac3dL'
p428
sg27
Nsba(ibclass
BInstr
p429
(dp430
g2
Nsg17
S'mov     eax, [eax+8]'
p431
sg19
S'8b4008'
p432
sg21
Vmov eax, dword ptr [eax + 8]
p433
sg5
L134655040L
sg6
Nsg23
S'mov'
p434
sg25
S'0x806ac40L'
p435
sg27
Nsba(ibclass
BInstr
p436
(dp437
g2
Nsg17
S'mov     esi, [eax+14h]'
p438
sg19
S'8b7014'
p439
sg21
Vmov esi, dword ptr [eax + 0x14]
p440
sg5
L134655043L
sg6
Nsg23
S'mov'
p441
sg25
S'0x806ac43L'
p442
sg27
Nsba(ibclass
BInstr
p443
(dp444
g2
Nsg17
S'mov     eax, [ebp+p]'
p445
sg19
S'8b45f4'
p446
sg21
Vmov eax, dword ptr [ebp - 0xc]
p447
sg5
L134655046L
sg6
Nsg23
S'mov'
p448
sg25
S'0x806ac46L'
p449
sg27
Nsba(ibclass
BInstr
p450
(dp451
g2
Nsg17
S'mov     eax, [eax+8]'
p452
sg19
S'8b4008'
p453
sg21
Vmov eax, dword ptr [eax + 8]
p454
sg5
L134655049L
sg6
Nsg23
S'mov'
p455
sg25
S'0x806ac49L'
p456
sg27
Nsba(ibclass
BInstr
p457
(dp458
g2
Nsg17
S'mov     ebx, [eax+8]'
p459
sg19
S'8b5808'
p460
sg21
Vmov ebx, dword ptr [eax + 8]
p461
sg5
L134655052L
sg6
Nsg23
S'mov'
p462
sg25
S'0x806ac4cL'
p463
sg27
Nsba(ibclass
BInstr
p464
(dp465
g2
Nsg17
S'mov     eax, [ebp+p]'
p466
sg19
S'8b45f4'
p467
sg21
Vmov eax, dword ptr [ebp - 0xc]
p468
sg5
L134655055L
sg6
Nsg23
S'mov'
p469
sg25
S'0x806ac4fL'
p470
sg27
Nsba(ibclass
BInstr
p471
(dp472
g2
Nsg17
S'mov     eax, [eax+8]'
p473
sg19
S'8b4008'
p474
sg21
Vmov eax, dword ptr [eax + 8]
p475
sg5
L134655058L
sg6
Nsg23
S'mov'
p476
sg25
S'0x806ac52L'
p477
sg27
Nsba(ibclass
BInstr
p478
(dp479
g2
Nsg17
S'mov     ecx, [eax+4]'
p480
sg19
S'8b4804'
p481
sg21
Vmov ecx, dword ptr [eax + 4]
p482
sg5
L134655061L
sg6
Nsg23
S'mov'
p483
sg25
S'0x806ac55L'
p484
sg27
Nsba(ibclass
BInstr
p485
(dp486
g2
Nsg17
S'mov     eax, [ebp+p]'
p487
sg19
S'8b45f4'
p488
sg21
Vmov eax, dword ptr [ebp - 0xc]
p489
sg5
L134655064L
sg6
Nsg23
S'mov'
p490
sg25
S'0x806ac58L'
p491
sg27
Nsba(ibclass
BInstr
p492
(dp493
g2
Nsg17
S'mov     eax, [eax+8]'
p494
sg19
S'8b4008'
p495
sg21
Vmov eax, dword ptr [eax + 8]
p496
sg5
L134655067L
sg6
Nsg23
S'mov'
p497
sg25
S'0x806ac5bL'
p498
sg27
Nsba(ibclass
BInstr
p499
(dp500
g2
Nsg17
S'mov     edx, [eax+0Ch]'
p501
sg19
S'8b500c'
p502
sg21
Vmov edx, dword ptr [eax + 0xc]
p503
sg5
L134655070L
sg6
Nsg23
S'mov'
p504
sg25
S'0x806ac5eL'
p505
sg27
Nsba(ibclass
BInstr
p506
(dp507
g2
Nsg17
S'mov     eax, [ebp+p]'
p508
sg19
S'8b45f4'
p509
sg21
Vmov eax, dword ptr [ebp - 0xc]
p510
sg5
L134655073L
sg6
Nsg23
S'mov'
p511
sg25
S'0x806ac61L'
p512
sg27
Nsba(ibclass
BInstr
p513
(dp514
g2
Nsg17
S'mov     eax, [eax+8]'
p515
sg19
S'8b4008'
p516
sg21
Vmov eax, dword ptr [eax + 8]
p517
sg5
L134655076L
sg6
Nsg23
S'mov'
p518
sg25
S'0x806ac64L'
p519
sg27
Nsba(ibclass
BInstr
p520
(dp521
g2
Nsg17
S'mov     eax, [eax+10h]'
p522
sg19
S'8b4010'
p523
sg21
Vmov eax, dword ptr [eax + 0x10]
p524
sg5
L134655079L
sg6
Nsg23
S'mov'
p525
sg25
S'0x806ac67L'
p526
sg27
Nsba(ibclass
BInstr
p527
(dp528
g2
Nsg17
S'mov     [esp+14h], esi  ; info'
p529
sg19
S'89742414'
p530
sg21
Vmov dword ptr [esp + 0x14], esi
p531
sg5
L134655082L
sg6
Nsg23
S'mov'
p532
sg25
S'0x806ac6aL'
p533
sg27
Nsba(ibclass
BInstr
p534
(dp535
g2
Nsg17
S'mov     [esp+10h], ebx  ; v'
p536
sg19
S'895c2410'
p537
sg21
Vmov dword ptr [esp + 0x10], ebx
p538
sg5
L134655086L
sg6
Nsg23
S'mov'
p539
sg25
S'0x806ac6eL'
p540
sg27
Nsba(ibclass
BInstr
p541
(dp542
g2
Nsg17
S'mov     [esp+0Ch], ecx  ; sa'
p543
sg19
S'894c240c'
p544
sg21
Vmov dword ptr [esp + 0xc], ecx
p545
sg5
L134655090L
sg6
Nsg23
S'mov'
p546
sg25
S'0x806ac72L'
p547
sg27
Nsba(ibclass
BInstr
p548
(dp549
g2
Nsg17
S'mov     [esp+8], edx    ; g'
p550
sg19
S'89542408'
p551
sg21
Vmov dword ptr [esp + 8], edx
p552
sg5
L134655094L
sg6
Nsg23
S'mov'
p553
sg25
S'0x806ac76L'
p554
sg27
Nsba(ibclass
BInstr
p555
(dp556
g2
Nsg17
S'mov     [esp+4], eax    ; N'
p557
sg19
S'89442404'
p558
sg21
Vmov dword ptr [esp + 4], eax
p559
sg5
L134655098L
sg6
Nsg23
S'mov'
p560
sg25
S'0x806ac7aL'
p561
sg27
Nsba(ibclass
BInstr
p562
(dp563
g2
Nsg17
S'mov     eax, [ebp+s]'
p564
sg19
S'8b4508'
p565
sg21
Vmov eax, dword ptr [ebp + 8]
p566
sg5
L134655102L
sg6
Nsg23
S'mov'
p567
sg25
S'0x806ac7eL'
p568
sg27
Nsba(ibclass
BInstr
p569
(dp570
g2
Nsg17
S'mov     [esp], eax      ; s'
p571
sg19
S'890424'
p572
sg21
Vmov dword ptr [esp], eax
p573
sg5
L134655105L
sg6
Nsg23
S'mov'
p574
sg25
S'0x806ac81L'
p575
sg27
Nsba(ibclass
BInstr
p576
(dp577
g2
Nsg17
S'call    SSL_set_srp_server_param'
p578
sg19
S'e8777c0700'
p579
sg21
Vcall 0x77c7c
p580
sg5
L134655108L
sg6
Nsg23
S'call'
p581
sg25
S'0x806ac84L'
p582
sg27
Nsba(ibclass
BInstr
p583
(dp584
g2
Nsg17
S'test    eax, eax'
p585
sg19
S'85c0'
p586
sg21
Vtest eax, eax
p587
sg5
L134655113L
sg6
Nsg23
S'test'
p588
sg25
S'0x806ac89L'
p589
sg27
Nsba(ibclass
BInstr
p590
(dp591
g2
Nsg17
S'jns     short loc_806AC9D'
p592
sg19
S'7910'
p593
sg21
Vjns 0x12
p594
sg5
L134655115L
sg6
Nsg23
S'jns'
p595
sg25
S'0x806ac8bL'
p596
sg27
Nsbasg98
(lp597
Vmov eax, mem
p598
aVmov eax, mem
p599
aVmov esi, mem
p600
aVmov eax, mem
p601
aVmov eax, mem
p602
aVmov ebx, mem
p603
aVmov eax, mem
p604
aVmov eax, mem
p605
aVmov ecx, mem
p606
aVmov eax, mem
p607
aVmov eax, mem
p608
aVmov edx, mem
p609
aVmov eax, mem
p610
aVmov eax, mem
p611
aVmov eax, mem
p612
aVmov mem, esi
p613
aVmov mem, ebx
p614
aVmov mem, ecx
p615
aVmov mem, edx
p616
aVmov mem, eax
p617
aVmov eax, mem
p618
aVmov mem, eax
p619
aVcall address
p620
ag587
aVjns address
p621
asg106
Nsg5
S'0x806ac3dL'
p622
sg108
(lp623
S'0x806ac0bL'
p624
asg6
Nsg110
(lp625
S'0x806ac8dL'
p626
aS'0x806ac9dL'
p627
asg114
Nsg115
Nsg116
S'6c341ab4efa138afe906b23211109710'
p628
sg118
S'684bee51edc0f5978f82a94fb2828399'
p629
sg120
(lp630
g427
ag434
ag441
ag448
ag455
ag462
ag469
ag476
ag483
ag490
ag497
ag504
ag511
ag518
ag525
ag532
ag539
ag546
ag553
ag560
ag567
ag574
ag581
ag588
ag595
asg122
Nsba(ibclass
BBasicBlock
p631
(dp632
g12
Nsg13
(lp633
(ibclass
BInstr
p634
(dp635
g2
Nsg17
S'mov     eax, [ebp+ad]'
p636
sg19
S'8b450c'
p637
sg21
Vmov eax, dword ptr [ebp + 0xc]
p638
sg5
L134655117L
sg6
Nsg23
S'mov'
p639
sg25
S'0x806ac8dL'
p640
sg27
Nsba(ibclass
BInstr
p641
(dp642
g2
Nsg17
S'mov     dword ptr [eax], 50h'
p643
sg19
S'c70050000000'
p644
sg21
Vmov dword ptr [eax], 0x50
p645
sg5
L134655120L
sg6
Nsg23
S'mov'
p646
sg25
S'0x806ac90L'
p647
sg27
Nsba(ibclass
BInstr
p648
(dp649
g2
Nsg17
S'mov     eax, 2'
p650
sg19
S'b802000000'
p651
sg21
Vmov eax, 2
p652
sg5
L134655126L
sg6
Nsg23
S'mov'
p653
sg25
S'0x806ac96L'
p654
sg27
Nsba(ibclass
BInstr
p655
(dp656
g2
Nsg17
S'jmp     short loc_806ACE0'
p657
sg19
S'eb43'
p658
sg21
Vjmp 0x45
p659
sg5
L134655131L
sg6
Nsg23
S'jmp'
p660
sg25
S'0x806ac9bL'
p661
sg27
Nsbasg98
(lp662
Vmov eax, mem
p663
aVmov mem, address
p664
ag652
aVjmp address
p665
asg106
Nsg5
S'0x806ac8dL'
p666
sg108
(lp667
S'0x806ac3dL'
p668
asg6
Nsg110
(lp669
S'0x806ace0L'
p670
asg114
Nsg115
Nsg116
S'040fce6d72bb8b206d60fbb015935e24'
p671
sg118
S'68542802fdeec6ea7eb567369cc189fc'
p672
sg120
(lp673
g639
ag646
ag653
ag660
asg122
Nsba(ibclass
BBasicBlock
p674
(dp675
g12
Nsg13
(lp676
(ibclass
BInstr
p677
(dp678
g2
Nsg17
S'mov     eax, [ebp+p]'
p679
sg19
S'8b45f4'
p680
sg21
Vmov eax, dword ptr [ebp - 0xc]
p681
sg5
L134655133L
sg6
Nsg23
S'mov'
p682
sg25
S'0x806ac9dL'
p683
sg27
Nsba(ibclass
BInstr
p684
(dp685
g2
Nsg17
S'mov     eax, [eax+8]'
p686
sg19
S'8b4008'
p687
sg21
Vmov eax, dword ptr [eax + 8]
p688
sg5
L134655136L
sg6
Nsg23
S'mov'
p689
sg25
S'0x806aca0L'
p690
sg27
Nsba(ibclass
BInstr
p691
(dp692
g2
Nsg17
S'mov     ecx, [eax+14h]'
p693
sg19
S'8b4814'
p694
sg21
Vmov ecx, dword ptr [eax + 0x14]
p695
sg5
L134655139L
sg6
Nsg23
S'mov'
p696
sg25
S'0x806aca3L'
p697
sg27
Nsba(ibclass
BInstr
p698
(dp699
g2
Nsg17
S'mov     eax, [ebp+p]'
p700
sg19
S'8b45f4'
p701
sg21
Vmov eax, dword ptr [ebp - 0xc]
p702
sg5
L134655142L
sg6
Nsg23
S'mov'
p703
sg25
S'0x806aca6L'
p704
sg27
Nsba(ibclass
BInstr
p705
(dp706
g2
Nsg17
S'mov     edx, [eax]'
p707
sg19
S'8b10'
p708
sg21
Vmov edx, dword ptr [eax]
p709
sg5
L134655145L
sg6
Nsg23
S'mov'
p710
sg25
S'0x806aca9L'
p711
sg27
Nsba(ibclass
BInstr
p712
(dp713
g2
Nsg17
S'mov     eax, ds:bio_err'
p714
sg19
S'a128bd2908'
p715
sg21
Vmov eax, dword ptr [0x829bd28]
p716
sg5
L134655147L
sg6
Nsg23
S'mov'
p717
sg25
S'0x806acabL'
p718
sg27
Nsba(ibclass
BInstr
p719
(dp720
g2
Nsg17
S'mov     [esp+0Ch], ecx'
p721
sg19
S'894c240c'
p722
sg21
Vmov dword ptr [esp + 0xc], ecx
p723
sg5
L134655152L
sg6
Nsg23
S'mov'
p724
sg25
S'0x806acb0L'
p725
sg27
Nsba(ibclass
BInstr
p726
(dp727
g2
Nsg17
S'mov     [esp+8], edx'
p728
sg19
S'89542408'
p729
sg21
Vmov dword ptr [esp + 8], edx
p730
sg5
L134655156L
sg6
Nsg23
S'mov'
p731
sg25
S'0x806acb4L'
p732
sg27
Nsba(ibclass
BInstr
p733
(dp734
g2
Nsg17
S'mov     dword ptr [esp+4], offset aSrpParametersS; "SRP parameters set: username = \\"%s\\" i"...'
p735
sg19
S'c74424040c262008'
p736
sg21
Vmov dword ptr [esp + 4], 0x820260c
p737
sg5
L134655160L
sg6
Nsg23
S'mov'
p738
sg25
S'0x806acb8L'
p739
sg27
Nsba(ibclass
BInstr
p740
(dp741
g2
Nsg17
S'mov     [esp], eax      ; bio'
p742
sg19
S'890424'
p743
sg21
Vmov dword ptr [esp], eax
p744
sg5
L134655168L
sg6
Nsg23
S'mov'
p745
sg25
S'0x806acc0L'
p746
sg27
Nsba(ibclass
BInstr
p747
(dp748
g2
Nsg17
S'call    BIO_printf'
p749
sg19
S'e87dc80c00'
p750
sg21
Vcall 0xcc882
p751
sg5
L134655171L
sg6
Nsg23
S'call'
p752
sg25
S'0x806acc3L'
p753
sg27
Nsba(ibclass
BInstr
p754
(dp755
g2
Nsg17
S'mov     eax, [ebp+p]'
p756
sg19
S'8b45f4'
p757
sg21
Vmov eax, dword ptr [ebp - 0xc]
p758
sg5
L134655176L
sg6
Nsg23
S'mov'
p759
sg25
S'0x806acc8L'
p760
sg27
Nsba(ibclass
BInstr
p761
(dp762
g2
Nsg17
S'mov     dword ptr [eax+8], 0'
p763
sg19
S'c7400800000000'
p764
sg21
Vmov dword ptr [eax + 8], 0
p765
sg5
L134655179L
sg6
Nsg23
S'mov'
p766
sg25
S'0x806accbL'
p767
sg27
Nsba(ibclass
BInstr
p768
(dp769
g2
Nsg17
S'mov     eax, [ebp+p]'
p770
sg19
S'8b45f4'
p771
sg21
Vmov eax, dword ptr [ebp - 0xc]
p772
sg5
L134655186L
sg6
Nsg23
S'mov'
p773
sg25
S'0x806acd2L'
p774
sg27
Nsba(ibclass
BInstr
p775
(dp776
g2
Nsg17
S'mov     dword ptr [eax], 0'
p777
sg19
S'c70000000000'
p778
sg21
Vmov dword ptr [eax], 0
p779
sg5
L134655189L
sg6
Nsg23
S'mov'
p780
sg25
S'0x806acd5L'
p781
sg27
Nsba(ibclass
BInstr
p782
(dp783
g2
Nsg17
S'mov     eax, 0'
p784
sg19
S'b800000000'
p785
sg21
Vmov eax, 0
p786
sg5
L134655195L
sg6
Nsg23
S'mov'
p787
sg25
S'0x806acdbL'
p788
sg27
Nsbasg98
(lp789
Vmov eax, mem
p790
aVmov eax, mem
p791
aVmov ecx, mem
p792
aVmov eax, mem
p793
aVmov edx, mem
p794
aVmov eax, mem
p795
aVmov mem, ecx
p796
aVmov mem, edx
p797
aVmov mem, address
p798
aVmov mem, eax
p799
aVcall address
p800
aVmov eax, mem
p801
aVmov mem, 0
p802
aVmov eax, mem
p803
aVmov mem, 0
p804
ag786
asg106
Nsg5
S'0x806ac9dL'
p805
sg108
(lp806
S'0x806ac3dL'
p807
asg6
Nsg110
(lp808
S'0x806ace0L'
p809
asg114
Nsg115
Nsg116
S'1367e2e0811a8f7676cd01f2ecb0c10e'
p810
sg118
S'c47770768516173e9088c03f850f3381'
p811
sg120
(lp812
g682
ag689
ag696
ag703
ag710
ag717
ag724
ag731
ag738
ag745
ag752
ag759
ag766
ag773
ag780
ag787
asg122
Nsba(ibclass
BBasicBlock
p813
(dp814
g12
Nsg13
(lp815
(ibclass
BInstr
p816
(dp817
g2
Nsg17
S'add     esp, 30h'
p818
sg19
S'83c430'
p819
sg21
Vadd esp, 0x30
p820
sg5
L134655200L
sg6
Nsg23
S'add'
p821
sg25
S'0x806ace0L'
p822
sg27
Nsba(ibclass
BInstr
p823
(dp824
g2
Nsg17
S'pop     ebx'
p825
sg19
S'5b'
p826
sg21
Vpop ebx
p827
sg5
L134655203L
sg6
Nsg23
S'pop'
p828
sg25
S'0x806ace3L'
p829
sg27
Nsba(ibclass
BInstr
p830
(dp831
g2
Nsg17
S'pop     esi'
p832
sg19
S'5e'
p833
sg21
Vpop esi
p834
sg5
L134655204L
sg6
Nsg23
S'pop'
p835
sg25
S'0x806ace4L'
p836
sg27
Nsba(ibclass
BInstr
p837
(dp838
g2
Nsg17
S'pop     ebp'
p839
sg19
S'5d'
p840
sg21
Vpop ebp
p841
sg5
L134655205L
sg6
Nsg23
S'pop'
p842
sg25
S'0x806ace5L'
p843
sg27
Nsba(ibclass
BInstr
p844
(dp845
g2
Nsg17
S'retn'
p846
sg19
S'c3'
p847
sg21
Vret 
p848
sg5
L134655206L
sg6
Nsg23
S'retn'
p849
sg25
S'0x806ace6L'
p850
sg27
Nsbasg98
(lp851
Vadd esp, address
p852
ag827
ag834
ag841
aVret
p853
asg106
Nsg5
S'0x806ace0L'
p854
sg108
(lp855
S'0x806abd3L'
p856
aS'0x806ac15L'
p857
aS'0x806ac8dL'
p858
aS'0x806ac9dL'
p859
asg6
Nsg110
(lp860
sg114
Nsg115
Nsg116
S'a3cac886029af1831737c083e97867e2'
p861
sg118
S'f8491214a41ae2d406c7cfafd8bb8138'
p862
sg120
(lp863
g821
ag828
ag835
ag842
ag849
asg122
Nsbasb.