(ibclass
BFunc
p0
(dp1
S'hash'
p2
NsS'name'
p3
S'ssl3_get_new_session_ticket'
p4
sS'start_address'
p5
L134923612L
sS'flag'
p6
NsS'program'
p7
NsS'bbs'
p8
(lp9
(ibclass
BBasicBlock
p10
(dp11
S'function'
p12
NsS'binstrs'
p13
(lp14
(ibclass
BInstr
p15
(dp16
g2
NsS'disasm'
p17
S'push    ebp'
p18
sS'bytes'
p19
S'55'
p20
sS'disasm_striped'
p21
Vpush ebp
p22
sg5
L134923612L
sg6
NsS'mnem'
p23
S'push'
p24
sS'address'
p25
S'0x80ac55cL'
p26
sS'basicblock'
p27
Nsba(ibclass
BInstr
p28
(dp29
g2
Nsg17
S'mov     ebp, esp'
p30
sg19
S'89e5'
p31
sg21
Vmov ebp, esp
p32
sg5
L134923613L
sg6
Nsg23
S'mov'
p33
sg25
S'0x80ac55dL'
p34
sg27
Nsba(ibclass
BInstr
p35
(dp36
g2
Nsg17
S'push    ebx'
p37
sg19
S'53'
p38
sg21
Vpush ebx
p39
sg5
L134923615L
sg6
Nsg23
S'push'
p40
sg25
S'0x80ac55fL'
p41
sg27
Nsba(ibclass
BInstr
p42
(dp43
g2
Nsg17
S'sub     esp, 44h'
p44
sg19
S'83ec44'
p45
sg21
Vsub esp, 0x44
p46
sg5
L134923616L
sg6
Nsg23
S'sub'
p47
sg25
S'0x80ac560L'
p48
sg27
Nsba(ibclass
BInstr
p49
(dp50
g2
Nsg17
S'mov     [ebp+ret], 0'
p51
sg19
S'c745e400000000'
p52
sg21
Vmov dword ptr [ebp - 0x1c], 0
p53
sg5
L134923619L
sg6
Nsg23
S'mov'
p54
sg25
S'0x80ac563L'
p55
sg27
Nsba(ibclass
BInstr
p56
(dp57
g2
Nsg17
S'mov     eax, [ebp+s]'
p58
sg19
S'8b4508'
p59
sg21
Vmov eax, dword ptr [ebp + 8]
p60
sg5
L134923626L
sg6
Nsg23
S'mov'
p61
sg25
S'0x80ac56aL'
p62
sg27
Nsba(ibclass
BInstr
p63
(dp64
g2
Nsg17
S'mov     eax, [eax+8]'
p65
sg19
S'8b4008'
p66
sg21
Vmov eax, dword ptr [eax + 8]
p67
sg5
L134923629L
sg6
Nsg23
S'mov'
p68
sg25
S'0x80ac56dL'
p69
sg27
Nsba(ibclass
BInstr
p70
(dp71
g2
Nsg17
S'mov     eax, [eax+30h]'
p72
sg19
S'8b4030'
p73
sg21
Vmov eax, dword ptr [eax + 0x30]
p74
sg5
L134923632L
sg6
Nsg23
S'mov'
p75
sg25
S'0x80ac570L'
p76
sg27
Nsba(ibclass
BInstr
p77
(dp78
g2
Nsg17
S'lea     edx, [ebp+ok]'
p79
sg19
S'8d55dc'
p80
sg21
Vlea edx, [ebp - 0x24]
p81
sg5
L134923635L
sg6
Nsg23
S'lea'
p82
sg25
S'0x80ac573L'
p83
sg27
Nsba(ibclass
BInstr
p84
(dp85
g2
Nsg17
S'mov     [esp+14h], edx'
p86
sg19
S'89542414'
p87
sg21
Vmov dword ptr [esp + 0x14], edx
p88
sg5
L134923638L
sg6
Nsg23
S'mov'
p89
sg25
S'0x80ac576L'
p90
sg27
Nsba(ibclass
BInstr
p91
(dp92
g2
Nsg17
S'mov     dword ptr [esp+10h], 4000h'
p93
sg19
S'c744241000400000'
p94
sg21
Vmov dword ptr [esp + 0x10], 0x4000
p95
sg5
L134923642L
sg6
Nsg23
S'mov'
p96
sg25
S'0x80ac57aL'
p97
sg27
Nsba(ibclass
BInstr
p98
(dp99
g2
Nsg17
S'mov     dword ptr [esp+0Ch], 0FFFFFFFFh'
p100
sg19
S'c744240cffffffff'
p101
sg21
Vmov dword ptr [esp + 0xc], 0xffffffff
p102
sg5
L134923650L
sg6
Nsg23
S'mov'
p103
sg25
S'0x80ac582L'
p104
sg27
Nsba(ibclass
BInstr
p105
(dp106
g2
Nsg17
S'mov     dword ptr [esp+8], 11E1h'
p107
sg19
S'c7442408e1110000'
p108
sg21
Vmov dword ptr [esp + 8], 0x11e1
p109
sg5
L134923658L
sg6
Nsg23
S'mov'
p110
sg25
S'0x80ac58aL'
p111
sg27
Nsba(ibclass
BInstr
p112
(dp113
g2
Nsg17
S'mov     dword ptr [esp+4], 11E0h'
p114
sg19
S'c7442404e0110000'
p115
sg21
Vmov dword ptr [esp + 4], 0x11e0
p116
sg5
L134923666L
sg6
Nsg23
S'mov'
p117
sg25
S'0x80ac592L'
p118
sg27
Nsba(ibclass
BInstr
p119
(dp120
g2
Nsg17
S'mov     edx, [ebp+s]'
p121
sg19
S'8b5508'
p122
sg21
Vmov edx, dword ptr [ebp + 8]
p123
sg5
L134923674L
sg6
Nsg23
S'mov'
p124
sg25
S'0x80ac59aL'
p125
sg27
Nsba(ibclass
BInstr
p126
(dp127
g2
Nsg17
S'mov     [esp], edx'
p128
sg19
S'891424'
p129
sg21
Vmov dword ptr [esp], edx
p130
sg5
L134923677L
sg6
Nsg23
S'mov'
p131
sg25
S'0x80ac59dL'
p132
sg27
Nsba(ibclass
BInstr
p133
(dp134
g2
Nsg17
S'call    eax'
p135
sg19
S'ffd0'
p136
sg21
Vcall eax
p137
sg5
L134923680L
sg6
Nsg23
S'call'
p138
sg25
S'0x80ac5a0L'
p139
sg27
Nsba(ibclass
BInstr
p140
(dp141
g2
Nsg17
S'mov     [ebp+n], eax'
p142
sg19
S'8945e8'
p143
sg21
Vmov dword ptr [ebp - 0x18], eax
p144
sg5
L134923682L
sg6
Nsg23
S'mov'
p145
sg25
S'0x80ac5a2L'
p146
sg27
Nsba(ibclass
BInstr
p147
(dp148
g2
Nsg17
S'mov     eax, [ebp+ok]'
p149
sg19
S'8b45dc'
p150
sg21
Vmov eax, dword ptr [ebp - 0x24]
p151
sg5
L134923685L
sg6
Nsg23
S'mov'
p152
sg25
S'0x80ac5a5L'
p153
sg27
Nsba(ibclass
BInstr
p154
(dp155
g2
Nsg17
S'test    eax, eax'
p156
sg19
S'85c0'
p157
sg21
Vtest eax, eax
p158
sg5
L134923688L
sg6
Nsg23
S'test'
p159
sg25
S'0x80ac5a8L'
p160
sg27
Nsba(ibclass
BInstr
p161
(dp162
g2
Nsg17
S'jnz     short loc_80AC5B4'
p163
sg19
S'7508'
p164
sg21
Vjne 0xa
p165
sg5
L134923690L
sg6
Nsg23
S'jnz'
p166
sg25
S'0x80ac5aaL'
p167
sg27
NsbasS'disasm_list'
p168
(lp169
g22
ag32
ag39
aVsub esp, address
p170
aVmov mem, 0
p171
aVmov eax, mem
p172
aVmov eax, mem
p173
aVmov eax, mem
p174
aVlea edx, mem
p175
aVmov mem, edx
p176
aVmov mem, address
p177
aVmov mem, address
p178
aVmov mem, address
p179
aVmov mem, address
p180
aVmov edx, mem
p181
aVmov mem, edx
p182
ag137
aVmov mem, eax
p183
aVmov eax, mem
p184
ag158
aVjne address
p185
asS'end_address'
p186
Nsg5
S'0x80ac55cL'
p187
sS'preds'
p188
(lp189
sg6
NsS'succs'
p190
(lp191
S'0x80ac5acL'
p192
aS'0x80ac5b4L'
p193
asS'hash_v3'
p194
NsS'flag_v2'
p195
NsS'hash_v1'
p196
S'31ea6a0cd8acd513741de917c100a443'
p197
sS'hash_v2'
p198
S'a493f39cd10185273c03786dcea7ef8c'
p199
sS'mnen_list'
p200
(lp201
g24
ag33
ag40
ag47
ag54
ag61
ag68
ag75
ag82
ag89
ag96
ag103
ag110
ag117
ag124
ag131
ag138
ag145
ag152
ag159
ag166
asS'neighbour_disasm_list'
p202
Nsba(ibclass
BBasicBlock
p203
(dp204
g12
Nsg13
(lp205
(ibclass
BInstr
p206
(dp207
g2
Nsg17
S'mov     eax, [ebp+n]'
p208
sg19
S'8b45e8'
p209
sg21
Vmov eax, dword ptr [ebp - 0x18]
p210
sg5
L134923692L
sg6
Nsg23
S'mov'
p211
sg25
S'0x80ac5acL'
p212
sg27
Nsba(ibclass
BInstr
p213
(dp214
g2
Nsg17
S'jmp     loc_80AC8E9'
p215
sg19
S'e935030000'
p216
sg21
Vjmp 0x33a
p217
sg5
L134923695L
sg6
Nsg23
S'jmp'
p218
sg25
S'0x80ac5afL'
p219
sg27
Nsbasg168
(lp220
Vmov eax, mem
p221
aVjmp address
p222
asg186
Nsg5
S'0x80ac5acL'
p223
sg188
(lp224
S'0x80ac55cL'
p225
asg6
Nsg190
(lp226
S'0x80ac8e9L'
p227
asg194
Nsg195
Nsg196
S'8b9a0d40e062be2b9b2d9885108fb196'
p228
sg198
S'5a5b261ba52a671a369af6372509eb2f'
p229
sg200
(lp230
g211
ag218
asg202
Nsba(ibclass
BBasicBlock
p231
(dp232
g12
Nsg13
(lp233
(ibclass
BInstr
p234
(dp235
g2
Nsg17
S'mov     eax, [ebp+s]'
p236
sg19
S'8b4508'
p237
sg21
Vmov eax, dword ptr [ebp + 8]
p238
sg5
L134923700L
sg6
Nsg23
S'mov'
p239
sg25
S'0x80ac5b4L'
p240
sg27
Nsba(ibclass
BInstr
p241
(dp242
g2
Nsg17
S'mov     eax, [eax+58h]'
p243
sg19
S'8b4058'
p244
sg21
Vmov eax, dword ptr [eax + 0x58]
p245
sg5
L134923703L
sg6
Nsg23
S'mov'
p246
sg25
S'0x80ac5b7L'
p247
sg27
Nsba(ibclass
BInstr
p248
(dp249
g2
Nsg17
S'mov     eax, [eax+340h]'
p250
sg19
S'8b8040030000'
p251
sg21
Vmov eax, dword ptr [eax + 0x340]
p252
sg5
L134923706L
sg6
Nsg23
S'mov'
p253
sg25
S'0x80ac5baL'
p254
sg27
Nsba(ibclass
BInstr
p255
(dp256
g2
Nsg17
S'cmp     eax, 14h'
p257
sg19
S'83f814'
p258
sg21
Vcmp eax, 0x14
p259
sg5
L134923712L
sg6
Nsg23
S'cmp'
p260
sg25
S'0x80ac5c0L'
p261
sg27
Nsba(ibclass
BInstr
p262
(dp263
g2
Nsg17
S'jnz     short loc_80AC5DF'
p264
sg19
S'751a'
p265
sg21
Vjne 0x1c
p266
sg5
L134923715L
sg6
Nsg23
S'jnz'
p267
sg25
S'0x80ac5c3L'
p268
sg27
Nsbasg168
(lp269
Vmov eax, mem
p270
aVmov eax, mem
p271
aVmov eax, mem
p272
aVcmp eax, address
p273
aVjne address
p274
asg186
Nsg5
S'0x80ac5b4L'
p275
sg188
(lp276
S'0x80ac55cL'
p277
asg6
Nsg190
(lp278
S'0x80ac5c5L'
p279
aS'0x80ac5dfL'
p280
asg194
Nsg195
Nsg196
S'd70352da318c40f997197b49a82bdf5d'
p281
sg198
S'a8f7886e205a7825f9c7971058c5db5c'
p282
sg200
(lp283
g239
ag246
ag253
ag260
ag267
asg202
Nsba(ibclass
BBasicBlock
p284
(dp285
g12
Nsg13
(lp286
(ibclass
BInstr
p287
(dp288
g2
Nsg17
S'mov     eax, [ebp+s]'
p289
sg19
S'8b4508'
p290
sg21
Vmov eax, dword ptr [ebp + 8]
p291
sg5
L134923717L
sg6
Nsg23
S'mov'
p292
sg25
S'0x80ac5c5L'
p293
sg27
Nsba(ibclass
BInstr
p294
(dp295
g2
Nsg17
S'mov     eax, [eax+58h]'
p296
sg19
S'8b4058'
p297
sg21
Vmov eax, dword ptr [eax + 0x58]
p298
sg5
L134923720L
sg6
Nsg23
S'mov'
p299
sg25
S'0x80ac5c8L'
p300
sg27
Nsba(ibclass
BInstr
p301
(dp302
g2
Nsg17
S'mov     dword ptr [eax+354h], 1'
p303
sg19
S'c7805403000001000000'
p304
sg21
Vmov dword ptr [eax + 0x354], 1
p305
sg5
L134923723L
sg6
Nsg23
S'mov'
p306
sg25
S'0x80ac5cbL'
p307
sg27
Nsba(ibclass
BInstr
p308
(dp309
g2
Nsg17
S'mov     eax, 1'
p310
sg19
S'b801000000'
p311
sg21
Vmov eax, 1
p312
sg5
L134923733L
sg6
Nsg23
S'mov'
p313
sg25
S'0x80ac5d5L'
p314
sg27
Nsba(ibclass
BInstr
p315
(dp316
g2
Nsg17
S'jmp     loc_80AC8E9'
p317
sg19
S'e90a030000'
p318
sg21
Vjmp 0x30f
p319
sg5
L134923738L
sg6
Nsg23
S'jmp'
p320
sg25
S'0x80ac5daL'
p321
sg27
Nsbasg168
(lp322
Vmov eax, mem
p323
aVmov eax, mem
p324
aVmov mem, 1
p325
ag312
aVjmp address
p326
asg186
Nsg5
S'0x80ac5c5L'
p327
sg188
(lp328
S'0x80ac5b4L'
p329
asg6
Nsg190
(lp330
S'0x80ac8e9L'
p331
asg194
Nsg195
Nsg196
S'7217f719f009b7b2e7686b68917fe7aa'
p332
sg198
S'28219f0716d61852ccd58a2923fe34cb'
p333
sg200
(lp334
g292
ag299
ag306
ag313
ag320
asg202
Nsba(ibclass
BBasicBlock
p335
(dp336
g12
Nsg13
(lp337
(ibclass
BInstr
p338
(dp339
g2
Nsg17
S'mov     eax, [ebp+s]'
p340
sg19
S'8b4508'
p341
sg21
Vmov eax, dword ptr [ebp + 8]
p342
sg5
L134923743L
sg6
Nsg23
S'mov'
p343
sg25
S'0x80ac5dfL'
p344
sg27
Nsba(ibclass
BInstr
p345
(dp346
g2
Nsg17
S'mov     eax, [eax+58h]'
p347
sg19
S'8b4058'
p348
sg21
Vmov eax, dword ptr [eax + 0x58]
p349
sg5
L134923746L
sg6
Nsg23
S'mov'
p350
sg25
S'0x80ac5e2L'
p351
sg27
Nsba(ibclass
BInstr
p352
(dp353
g2
Nsg17
S'mov     eax, [eax+340h]'
p354
sg19
S'8b8040030000'
p355
sg21
Vmov eax, dword ptr [eax + 0x340]
p356
sg5
L134923749L
sg6
Nsg23
S'mov'
p357
sg25
S'0x80ac5e5L'
p358
sg27
Nsba(ibclass
BInstr
p359
(dp360
g2
Nsg17
S'cmp     eax, 4'
p361
sg19
S'83f804'
p362
sg21
Vcmp eax, 4
p363
sg5
L134923755L
sg6
Nsg23
S'cmp'
p364
sg25
S'0x80ac5ebL'
p365
sg27
Nsba(ibclass
BInstr
p366
(dp367
g2
Nsg17
S'jz      short loc_80AC628'
p368
sg19
S'7438'
p369
sg21
Vje 0x3a
p370
sg5
L134923758L
sg6
Nsg23
S'jz'
p371
sg25
S'0x80ac5eeL'
p372
sg27
Nsbasg168
(lp373
Vmov eax, mem
p374
aVmov eax, mem
p375
aVmov eax, mem
p376
ag363
aVje address
p377
asg186
Nsg5
S'0x80ac5dfL'
p378
sg188
(lp379
S'0x80ac5b4L'
p380
asg6
Nsg190
(lp381
S'0x80ac5f0L'
p382
aS'0x80ac628L'
p383
asg194
Nsg195
Nsg196
S'33ba948cc50e6b726fe618f931567f22'
p384
sg198
S'a370c9515bace09ab116d743178e8a62'
p385
sg200
(lp386
g343
ag350
ag357
ag364
ag371
asg202
Nsba(ibclass
BBasicBlock
p387
(dp388
g12
Nsg13
(lp389
(ibclass
BInstr
p390
(dp391
g2
Nsg17
S'mov     [ebp+al_0], 0Ah'
p392
sg19
S'c745e00a000000'
p393
sg21
Vmov dword ptr [ebp - 0x20], 0xa
p394
sg5
L134923760L
sg6
Nsg23
S'mov'
p395
sg25
S'0x80ac5f0L'
p396
sg27
Nsba(ibclass
BInstr
p397
(dp398
g2
Nsg17
S'mov     dword ptr [esp+10h], 80Bh; line'
p399
sg19
S'c74424100b080000'
p400
sg21
Vmov dword ptr [esp + 0x10], 0x80b
p401
sg5
L134923767L
sg6
Nsg23
S'mov'
p402
sg25
S'0x80ac5f7L'
p403
sg27
Nsba(ibclass
BInstr
p404
(dp405
g2
Nsg17
S'mov     dword ptr [esp+0Ch], offset aS3_clnt_c; "s3_clnt.c"'
p406
sg19
S'c744240cc0062108'
p407
sg21
Vmov dword ptr [esp + 0xc], 0x82106c0
p408
sg5
L134923775L
sg6
Nsg23
S'mov'
p409
sg25
S'0x80ac5ffL'
p410
sg27
Nsba(ibclass
BInstr
p411
(dp412
g2
Nsg17
S'mov     dword ptr [esp+8], 72h; reason'
p413
sg19
S'c744240872000000'
p414
sg21
Vmov dword ptr [esp + 8], 0x72
p415
sg5
L134923783L
sg6
Nsg23
S'mov'
p416
sg25
S'0x80ac607L'
p417
sg27
Nsba(ibclass
BInstr
p418
(dp419
g2
Nsg17
S'mov     dword ptr [esp+4], 11Bh; func'
p420
sg19
S'c74424041b010000'
p421
sg21
Vmov dword ptr [esp + 4], 0x11b
p422
sg5
L134923791L
sg6
Nsg23
S'mov'
p423
sg25
S'0x80ac60fL'
p424
sg27
Nsba(ibclass
BInstr
p425
(dp426
g2
Nsg17
S'mov     dword ptr [esp], 14h; lib'
p427
sg19
S'c7042414000000'
p428
sg21
Vmov dword ptr [esp], 0x14
p429
sg5
L134923799L
sg6
Nsg23
S'mov'
p430
sg25
S'0x80ac617L'
p431
sg27
Nsba(ibclass
BInstr
p432
(dp433
g2
Nsg17
S'call    ERR_put_error'
p434
sg19
S'e877100900'
p435
sg21
Vcall 0x9107c
p436
sg5
L134923806L
sg6
Nsg23
S'call'
p437
sg25
S'0x80ac61eL'
p438
sg27
Nsba(ibclass
BInstr
p439
(dp440
g2
Nsg17
S'jmp     f_err'
p441
sg19
S'e9a2020000'
p442
sg21
Vjmp 0x2a7
p443
sg5
L134923811L
sg6
Nsg23
S'jmp'
p444
sg25
S'0x80ac623L'
p445
sg27
Nsbasg168
(lp446
Vmov mem, address
p447
aVmov mem, address
p448
aVmov mem, address
p449
aVmov mem, address
p450
aVmov mem, address
p451
aVmov mem, address
p452
aVcall address
p453
aVjmp address
p454
asg186
Nsg5
S'0x80ac5f0L'
p455
sg188
(lp456
S'0x80ac5dfL'
p457
asg6
Nsg190
(lp458
S'0x80ac8caL'
p459
asg194
Nsg195
Nsg196
S'66a94b87b6be599163286cd5d033acb0'
p460
sg198
S'9ae564c3ff50b0b8b3b6c36a987dd05d'
p461
sg200
(lp462
g395
ag402
ag409
ag416
ag423
ag430
ag437
ag444
asg202
Nsba(ibclass
BBasicBlock
p463
(dp464
g12
Nsg13
(lp465
(ibclass
BInstr
p466
(dp467
g2
Nsg17
S'cmp     [ebp+n], 5'
p468
sg19
S'837de805'
p469
sg21
Vcmp dword ptr [ebp - 0x18], 5
p470
sg5
L134923816L
sg6
Nsg23
S'cmp'
p471
sg25
S'0x80ac628L'
p472
sg27
Nsba(ibclass
BInstr
p473
(dp474
g2
Nsg17
S'jg      short loc_80AC666'
p475
sg19
S'7f38'
p476
sg21
Vjg 0x3a
p477
sg5
L134923820L
sg6
Nsg23
S'jg'
p478
sg25
S'0x80ac62cL'
p479
sg27
Nsbasg168
(lp480
Vcmp mem, 5
p481
aVjg address
p482
asg186
Nsg5
S'0x80ac628L'
p483
sg188
(lp484
S'0x80ac5dfL'
p485
asg6
Nsg190
(lp486
S'0x80ac62eL'
p487
aS'0x80ac666L'
p488
asg194
Nsg195
Nsg196
S'b356acbc0cbaf5ebf0a35cc7bcc98784'
p489
sg198
S'a31a3ee144181fe4551abfcd0f638c0d'
p490
sg200
(lp491
g471
ag478
asg202
Nsba(ibclass
BBasicBlock
p492
(dp493
g12
Nsg13
(lp494
(ibclass
BInstr
p495
(dp496
g2
Nsg17
S'mov     [ebp+al_0], 32h'
p497
sg19
S'c745e032000000'
p498
sg21
Vmov dword ptr [ebp - 0x20], 0x32
p499
sg5
L134923822L
sg6
Nsg23
S'mov'
p500
sg25
S'0x80ac62eL'
p501
sg27
Nsba(ibclass
BInstr
p502
(dp503
g2
Nsg17
S'mov     dword ptr [esp+10h], 812h; line'
p504
sg19
S'c744241012080000'
p505
sg21
Vmov dword ptr [esp + 0x10], 0x812
p506
sg5
L134923829L
sg6
Nsg23
S'mov'
p507
sg25
S'0x80ac635L'
p508
sg27
Nsba(ibclass
BInstr
p509
(dp510
g2
Nsg17
S'mov     dword ptr [esp+0Ch], offset aS3_clnt_c; "s3_clnt.c"'
p511
sg19
S'c744240cc0062108'
p512
sg21
Vmov dword ptr [esp + 0xc], 0x82106c0
p513
sg5
L134923837L
sg6
Nsg23
S'mov'
p514
sg25
S'0x80ac63dL'
p515
sg27
Nsba(ibclass
BInstr
p516
(dp517
g2
Nsg17
S'mov     dword ptr [esp+8], 9Fh; reason'
p518
sg19
S'c74424089f000000'
p519
sg21
Vmov dword ptr [esp + 8], 0x9f
p520
sg5
L134923845L
sg6
Nsg23
S'mov'
p521
sg25
S'0x80ac645L'
p522
sg27
Nsba(ibclass
BInstr
p523
(dp524
g2
Nsg17
S'mov     dword ptr [esp+4], 11Bh; func'
p525
sg19
S'c74424041b010000'
p526
sg21
Vmov dword ptr [esp + 4], 0x11b
p527
sg5
L134923853L
sg6
Nsg23
S'mov'
p528
sg25
S'0x80ac64dL'
p529
sg27
Nsba(ibclass
BInstr
p530
(dp531
g2
Nsg17
S'mov     dword ptr [esp], 14h; lib'
p532
sg19
S'c7042414000000'
p533
sg21
Vmov dword ptr [esp], 0x14
p534
sg5
L134923861L
sg6
Nsg23
S'mov'
p535
sg25
S'0x80ac655L'
p536
sg27
Nsba(ibclass
BInstr
p537
(dp538
g2
Nsg17
S'call    ERR_put_error'
p539
sg19
S'e839100900'
p540
sg21
Vcall 0x9103e
p541
sg5
L134923868L
sg6
Nsg23
S'call'
p542
sg25
S'0x80ac65cL'
p543
sg27
Nsba(ibclass
BInstr
p544
(dp545
g2
Nsg17
S'jmp     f_err'
p546
sg19
S'e964020000'
p547
sg21
Vjmp 0x269
p548
sg5
L134923873L
sg6
Nsg23
S'jmp'
p549
sg25
S'0x80ac661L'
p550
sg27
Nsbasg168
(lp551
Vmov mem, address
p552
aVmov mem, address
p553
aVmov mem, address
p554
aVmov mem, address
p555
aVmov mem, address
p556
aVmov mem, address
p557
aVcall address
p558
aVjmp address
p559
asg186
Nsg5
S'0x80ac62eL'
p560
sg188
(lp561
S'0x80ac628L'
p562
asg6
Nsg190
(lp563
S'0x80ac8caL'
p564
asg194
Nsg195
Nsg196
S'66a94b87b6be599163286cd5d033acb0'
p565
sg198
S'9ae564c3ff50b0b8b3b6c36a987dd05d'
p566
sg200
(lp567
g500
ag507
ag514
ag521
ag528
ag535
ag542
ag549
asg202
Nsba(ibclass
BBasicBlock
p568
(dp569
g12
Nsg13
(lp570
(ibclass
BInstr
p571
(dp572
g2
Nsg17
S'mov     eax, [ebp+s]'
p573
sg19
S'8b4508'
p574
sg21
Vmov eax, dword ptr [ebp + 8]
p575
sg5
L134923878L
sg6
Nsg23
S'mov'
p576
sg25
S'0x80ac666L'
p577
sg27
Nsba(ibclass
BInstr
p578
(dp579
g2
Nsg17
S'mov     eax, [eax+40h]'
p580
sg19
S'8b4040'
p581
sg21
Vmov eax, dword ptr [eax + 0x40]
p582
sg5
L134923881L
sg6
Nsg23
S'mov'
p583
sg25
S'0x80ac669L'
p584
sg27
Nsba(ibclass
BInstr
p585
(dp586
g2
Nsg17
S'mov     [ebp+d], eax'
p587
sg19
S'8945ec'
p588
sg21
Vmov dword ptr [ebp - 0x14], eax
p589
sg5
L134923884L
sg6
Nsg23
S'mov'
p590
sg25
S'0x80ac66cL'
p591
sg27
Nsba(ibclass
BInstr
p592
(dp593
g2
Nsg17
S'mov     eax, [ebp+d]'
p594
sg19
S'8b45ec'
p595
sg21
Vmov eax, dword ptr [ebp - 0x14]
p596
sg5
L134923887L
sg6
Nsg23
S'mov'
p597
sg25
S'0x80ac66fL'
p598
sg27
Nsba(ibclass
BInstr
p599
(dp600
g2
Nsg17
S'mov     [ebp+p], eax'
p601
sg19
S'8945f0'
p602
sg21
Vmov dword ptr [ebp - 0x10], eax
p603
sg5
L134923890L
sg6
Nsg23
S'mov'
p604
sg25
S'0x80ac672L'
p605
sg27
Nsba(ibclass
BInstr
p606
(dp607
g2
Nsg17
S'mov     eax, [ebp+s]'
p608
sg19
S'8b4508'
p609
sg21
Vmov eax, dword ptr [ebp + 8]
p610
sg5
L134923893L
sg6
Nsg23
S'mov'
p611
sg25
S'0x80ac675L'
p612
sg27
Nsba(ibclass
BInstr
p613
(dp614
g2
Nsg17
S'mov     edx, [eax+0C0h]'
p615
sg19
S'8b90c0000000'
p616
sg21
Vmov edx, dword ptr [eax + 0xc0]
p617
sg5
L134923896L
sg6
Nsg23
S'mov'
p618
sg25
S'0x80ac678L'
p619
sg27
Nsba(ibclass
BInstr
p620
(dp621
g2
Nsg17
S'mov     eax, [ebp+p]'
p622
sg19
S'8b45f0'
p623
sg21
Vmov eax, dword ptr [ebp - 0x10]
p624
sg5
L134923902L
sg6
Nsg23
S'mov'
p625
sg25
S'0x80ac67eL'
p626
sg27
Nsba(ibclass
BInstr
p627
(dp628
g2
Nsg17
S'lea     ecx, [eax+1]'
p629
sg19
S'8d4801'
p630
sg21
Vlea ecx, [eax + 1]
p631
sg5
L134923905L
sg6
Nsg23
S'lea'
p632
sg25
S'0x80ac681L'
p633
sg27
Nsba(ibclass
BInstr
p634
(dp635
g2
Nsg17
S'mov     [ebp+p], ecx'
p636
sg19
S'894df0'
p637
sg21
Vmov dword ptr [ebp - 0x10], ecx
p638
sg5
L134923908L
sg6
Nsg23
S'mov'
p639
sg25
S'0x80ac684L'
p640
sg27
Nsba(ibclass
BInstr
p641
(dp642
g2
Nsg17
S'mov     al, [eax]'
p643
sg19
S'8a00'
p644
sg21
Vmov al, byte ptr [eax]
p645
sg5
L134923911L
sg6
Nsg23
S'mov'
p646
sg25
S'0x80ac687L'
p647
sg27
Nsba(ibclass
BInstr
p648
(dp649
g2
Nsg17
S'and     eax, 0FFh'
p650
sg19
S'25ff000000'
p651
sg21
Vand eax, 0xff
p652
sg5
L134923913L
sg6
Nsg23
S'and'
p653
sg25
S'0x80ac689L'
p654
sg27
Nsba(ibclass
BInstr
p655
(dp656
g2
Nsg17
S'shl     eax, 18h'
p657
sg19
S'c1e018'
p658
sg21
Vshl eax, 0x18
p659
sg5
L134923918L
sg6
Nsg23
S'shl'
p660
sg25
S'0x80ac68eL'
p661
sg27
Nsba(ibclass
BInstr
p662
(dp663
g2
Nsg17
S'mov     [edx+0ECh], eax'
p664
sg19
S'8982ec000000'
p665
sg21
Vmov dword ptr [edx + 0xec], eax
p666
sg5
L134923921L
sg6
Nsg23
S'mov'
p667
sg25
S'0x80ac691L'
p668
sg27
Nsba(ibclass
BInstr
p669
(dp670
g2
Nsg17
S'mov     eax, [ebp+s]'
p671
sg19
S'8b4508'
p672
sg21
Vmov eax, dword ptr [ebp + 8]
p673
sg5
L134923927L
sg6
Nsg23
S'mov'
p674
sg25
S'0x80ac697L'
p675
sg27
Nsba(ibclass
BInstr
p676
(dp677
g2
Nsg17
S'mov     edx, [eax+0C0h]'
p678
sg19
S'8b90c0000000'
p679
sg21
Vmov edx, dword ptr [eax + 0xc0]
p680
sg5
L134923930L
sg6
Nsg23
S'mov'
p681
sg25
S'0x80ac69aL'
p682
sg27
Nsba(ibclass
BInstr
p683
(dp684
g2
Nsg17
S'mov     eax, [ebp+s]'
p685
sg19
S'8b4508'
p686
sg21
Vmov eax, dword ptr [ebp + 8]
p687
sg5
L134923936L
sg6
Nsg23
S'mov'
p688
sg25
S'0x80ac6a0L'
p689
sg27
Nsba(ibclass
BInstr
p690
(dp691
g2
Nsg17
S'mov     eax, [eax+0C0h]'
p692
sg19
S'8b80c0000000'
p693
sg21
Vmov eax, dword ptr [eax + 0xc0]
p694
sg5
L134923939L
sg6
Nsg23
S'mov'
p695
sg25
S'0x80ac6a3L'
p696
sg27
Nsba(ibclass
BInstr
p697
(dp698
g2
Nsg17
S'mov     eax, [eax+0ECh]'
p699
sg19
S'8b80ec000000'
p700
sg21
Vmov eax, dword ptr [eax + 0xec]
p701
sg5
L134923945L
sg6
Nsg23
S'mov'
p702
sg25
S'0x80ac6a9L'
p703
sg27
Nsba(ibclass
BInstr
p704
(dp705
g2
Nsg17
S'mov     ebx, eax'
p706
sg19
S'89c3'
p707
sg21
Vmov ebx, eax
p708
sg5
L134923951L
sg6
Nsg23
S'mov'
p709
sg25
S'0x80ac6afL'
p710
sg27
Nsba(ibclass
BInstr
p711
(dp712
g2
Nsg17
S'mov     eax, [ebp+p]'
p713
sg19
S'8b45f0'
p714
sg21
Vmov eax, dword ptr [ebp - 0x10]
p715
sg5
L134923953L
sg6
Nsg23
S'mov'
p716
sg25
S'0x80ac6b1L'
p717
sg27
Nsba(ibclass
BInstr
p718
(dp719
g2
Nsg17
S'lea     ecx, [eax+1]'
p720
sg19
S'8d4801'
p721
sg21
Vlea ecx, [eax + 1]
p722
sg5
L134923956L
sg6
Nsg23
S'lea'
p723
sg25
S'0x80ac6b4L'
p724
sg27
Nsba(ibclass
BInstr
p725
(dp726
g2
Nsg17
S'mov     [ebp+p], ecx'
p727
sg19
S'894df0'
p728
sg21
Vmov dword ptr [ebp - 0x10], ecx
p729
sg5
L134923959L
sg6
Nsg23
S'mov'
p730
sg25
S'0x80ac6b7L'
p731
sg27
Nsba(ibclass
BInstr
p732
(dp733
g2
Nsg17
S'mov     al, [eax]'
p734
sg19
S'8a00'
p735
sg21
Vmov al, byte ptr [eax]
p736
sg5
L134923962L
sg6
Nsg23
S'mov'
p737
sg25
S'0x80ac6baL'
p738
sg27
Nsba(ibclass
BInstr
p739
(dp740
g2
Nsg17
S'and     eax, 0FFh'
p741
sg19
S'25ff000000'
p742
sg21
Vand eax, 0xff
p743
sg5
L134923964L
sg6
Nsg23
S'and'
p744
sg25
S'0x80ac6bcL'
p745
sg27
Nsba(ibclass
BInstr
p746
(dp747
g2
Nsg17
S'shl     eax, 10h'
p748
sg19
S'c1e010'
p749
sg21
Vshl eax, 0x10
p750
sg5
L134923969L
sg6
Nsg23
S'shl'
p751
sg25
S'0x80ac6c1L'
p752
sg27
Nsba(ibclass
BInstr
p753
(dp754
g2
Nsg17
S'or      eax, ebx'
p755
sg19
S'09d8'
p756
sg21
Vor eax, ebx
p757
sg5
L134923972L
sg6
Nsg23
S'or'
p758
sg25
S'0x80ac6c4L'
p759
sg27
Nsba(ibclass
BInstr
p760
(dp761
g2
Nsg17
S'mov     [edx+0ECh], eax'
p762
sg19
S'8982ec000000'
p763
sg21
Vmov dword ptr [edx + 0xec], eax
p764
sg5
L134923974L
sg6
Nsg23
S'mov'
p765
sg25
S'0x80ac6c6L'
p766
sg27
Nsba(ibclass
BInstr
p767
(dp768
g2
Nsg17
S'mov     eax, [ebp+s]'
p769
sg19
S'8b4508'
p770
sg21
Vmov eax, dword ptr [ebp + 8]
p771
sg5
L134923980L
sg6
Nsg23
S'mov'
p772
sg25
S'0x80ac6ccL'
p773
sg27
Nsba(ibclass
BInstr
p774
(dp775
g2
Nsg17
S'mov     edx, [eax+0C0h]'
p776
sg19
S'8b90c0000000'
p777
sg21
Vmov edx, dword ptr [eax + 0xc0]
p778
sg5
L134923983L
sg6
Nsg23
S'mov'
p779
sg25
S'0x80ac6cfL'
p780
sg27
Nsba(ibclass
BInstr
p781
(dp782
g2
Nsg17
S'mov     eax, [ebp+s]'
p783
sg19
S'8b4508'
p784
sg21
Vmov eax, dword ptr [ebp + 8]
p785
sg5
L134923989L
sg6
Nsg23
S'mov'
p786
sg25
S'0x80ac6d5L'
p787
sg27
Nsba(ibclass
BInstr
p788
(dp789
g2
Nsg17
S'mov     eax, [eax+0C0h]'
p790
sg19
S'8b80c0000000'
p791
sg21
Vmov eax, dword ptr [eax + 0xc0]
p792
sg5
L134923992L
sg6
Nsg23
S'mov'
p793
sg25
S'0x80ac6d8L'
p794
sg27
Nsba(ibclass
BInstr
p795
(dp796
g2
Nsg17
S'mov     eax, [eax+0ECh]'
p797
sg19
S'8b80ec000000'
p798
sg21
Vmov eax, dword ptr [eax + 0xec]
p799
sg5
L134923998L
sg6
Nsg23
S'mov'
p800
sg25
S'0x80ac6deL'
p801
sg27
Nsba(ibclass
BInstr
p802
(dp803
g2
Nsg17
S'mov     ebx, eax'
p804
sg19
S'89c3'
p805
sg21
Vmov ebx, eax
p806
sg5
L134924004L
sg6
Nsg23
S'mov'
p807
sg25
S'0x80ac6e4L'
p808
sg27
Nsba(ibclass
BInstr
p809
(dp810
g2
Nsg17
S'mov     eax, [ebp+p]'
p811
sg19
S'8b45f0'
p812
sg21
Vmov eax, dword ptr [ebp - 0x10]
p813
sg5
L134924006L
sg6
Nsg23
S'mov'
p814
sg25
S'0x80ac6e6L'
p815
sg27
Nsba(ibclass
BInstr
p816
(dp817
g2
Nsg17
S'lea     ecx, [eax+1]'
p818
sg19
S'8d4801'
p819
sg21
Vlea ecx, [eax + 1]
p820
sg5
L134924009L
sg6
Nsg23
S'lea'
p821
sg25
S'0x80ac6e9L'
p822
sg27
Nsba(ibclass
BInstr
p823
(dp824
g2
Nsg17
S'mov     [ebp+p], ecx'
p825
sg19
S'894df0'
p826
sg21
Vmov dword ptr [ebp - 0x10], ecx
p827
sg5
L134924012L
sg6
Nsg23
S'mov'
p828
sg25
S'0x80ac6ecL'
p829
sg27
Nsba(ibclass
BInstr
p830
(dp831
g2
Nsg17
S'mov     al, [eax]'
p832
sg19
S'8a00'
p833
sg21
Vmov al, byte ptr [eax]
p834
sg5
L134924015L
sg6
Nsg23
S'mov'
p835
sg25
S'0x80ac6efL'
p836
sg27
Nsba(ibclass
BInstr
p837
(dp838
g2
Nsg17
S'and     eax, 0FFh'
p839
sg19
S'25ff000000'
p840
sg21
Vand eax, 0xff
p841
sg5
L134924017L
sg6
Nsg23
S'and'
p842
sg25
S'0x80ac6f1L'
p843
sg27
Nsba(ibclass
BInstr
p844
(dp845
g2
Nsg17
S'shl     eax, 8'
p846
sg19
S'c1e008'
p847
sg21
Vshl eax, 8
p848
sg5
L134924022L
sg6
Nsg23
S'shl'
p849
sg25
S'0x80ac6f6L'
p850
sg27
Nsba(ibclass
BInstr
p851
(dp852
g2
Nsg17
S'or      eax, ebx'
p853
sg19
S'09d8'
p854
sg21
Vor eax, ebx
p855
sg5
L134924025L
sg6
Nsg23
S'or'
p856
sg25
S'0x80ac6f9L'
p857
sg27
Nsba(ibclass
BInstr
p858
(dp859
g2
Nsg17
S'mov     [edx+0ECh], eax'
p860
sg19
S'8982ec000000'
p861
sg21
Vmov dword ptr [edx + 0xec], eax
p862
sg5
L134924027L
sg6
Nsg23
S'mov'
p863
sg25
S'0x80ac6fbL'
p864
sg27
Nsba(ibclass
BInstr
p865
(dp866
g2
Nsg17
S'mov     eax, [ebp+s]'
p867
sg19
S'8b4508'
p868
sg21
Vmov eax, dword ptr [ebp + 8]
p869
sg5
L134924033L
sg6
Nsg23
S'mov'
p870
sg25
S'0x80ac701L'
p871
sg27
Nsba(ibclass
BInstr
p872
(dp873
g2
Nsg17
S'mov     edx, [eax+0C0h]'
p874
sg19
S'8b90c0000000'
p875
sg21
Vmov edx, dword ptr [eax + 0xc0]
p876
sg5
L134924036L
sg6
Nsg23
S'mov'
p877
sg25
S'0x80ac704L'
p878
sg27
Nsba(ibclass
BInstr
p879
(dp880
g2
Nsg17
S'mov     eax, [ebp+s]'
p881
sg19
S'8b4508'
p882
sg21
Vmov eax, dword ptr [ebp + 8]
p883
sg5
L134924042L
sg6
Nsg23
S'mov'
p884
sg25
S'0x80ac70aL'
p885
sg27
Nsba(ibclass
BInstr
p886
(dp887
g2
Nsg17
S'mov     eax, [eax+0C0h]'
p888
sg19
S'8b80c0000000'
p889
sg21
Vmov eax, dword ptr [eax + 0xc0]
p890
sg5
L134924045L
sg6
Nsg23
S'mov'
p891
sg25
S'0x80ac70dL'
p892
sg27
Nsba(ibclass
BInstr
p893
(dp894
g2
Nsg17
S'mov     eax, [eax+0ECh]'
p895
sg19
S'8b80ec000000'
p896
sg21
Vmov eax, dword ptr [eax + 0xec]
p897
sg5
L134924051L
sg6
Nsg23
S'mov'
p898
sg25
S'0x80ac713L'
p899
sg27
Nsba(ibclass
BInstr
p900
(dp901
g2
Nsg17
S'mov     ebx, eax'
p902
sg19
S'89c3'
p903
sg21
Vmov ebx, eax
p904
sg5
L134924057L
sg6
Nsg23
S'mov'
p905
sg25
S'0x80ac719L'
p906
sg27
Nsba(ibclass
BInstr
p907
(dp908
g2
Nsg17
S'mov     eax, [ebp+p]'
p909
sg19
S'8b45f0'
p910
sg21
Vmov eax, dword ptr [ebp - 0x10]
p911
sg5
L134924059L
sg6
Nsg23
S'mov'
p912
sg25
S'0x80ac71bL'
p913
sg27
Nsba(ibclass
BInstr
p914
(dp915
g2
Nsg17
S'lea     ecx, [eax+1]'
p916
sg19
S'8d4801'
p917
sg21
Vlea ecx, [eax + 1]
p918
sg5
L134924062L
sg6
Nsg23
S'lea'
p919
sg25
S'0x80ac71eL'
p920
sg27
Nsba(ibclass
BInstr
p921
(dp922
g2
Nsg17
S'mov     [ebp+p], ecx'
p923
sg19
S'894df0'
p924
sg21
Vmov dword ptr [ebp - 0x10], ecx
p925
sg5
L134924065L
sg6
Nsg23
S'mov'
p926
sg25
S'0x80ac721L'
p927
sg27
Nsba(ibclass
BInstr
p928
(dp929
g2
Nsg17
S'mov     al, [eax]'
p930
sg19
S'8a00'
p931
sg21
Vmov al, byte ptr [eax]
p932
sg5
L134924068L
sg6
Nsg23
S'mov'
p933
sg25
S'0x80ac724L'
p934
sg27
Nsba(ibclass
BInstr
p935
(dp936
g2
Nsg17
S'and     eax, 0FFh'
p937
sg19
S'25ff000000'
p938
sg21
Vand eax, 0xff
p939
sg5
L134924070L
sg6
Nsg23
S'and'
p940
sg25
S'0x80ac726L'
p941
sg27
Nsba(ibclass
BInstr
p942
(dp943
g2
Nsg17
S'or      eax, ebx'
p944
sg19
S'09d8'
p945
sg21
Vor eax, ebx
p946
sg5
L134924075L
sg6
Nsg23
S'or'
p947
sg25
S'0x80ac72bL'
p948
sg27
Nsba(ibclass
BInstr
p949
(dp950
g2
Nsg17
S'mov     [edx+0ECh], eax'
p951
sg19
S'8982ec000000'
p952
sg21
Vmov dword ptr [edx + 0xec], eax
p953
sg5
L134924077L
sg6
Nsg23
S'mov'
p954
sg25
S'0x80ac72dL'
p955
sg27
Nsba(ibclass
BInstr
p956
(dp957
g2
Nsg17
S'mov     eax, [ebp+p]'
p958
sg19
S'8b45f0'
p959
sg21
Vmov eax, dword ptr [ebp - 0x10]
p960
sg5
L134924083L
sg6
Nsg23
S'mov'
p961
sg25
S'0x80ac733L'
p962
sg27
Nsba(ibclass
BInstr
p963
(dp964
g2
Nsg17
S'mov     al, [eax]'
p965
sg19
S'8a00'
p966
sg21
Vmov al, byte ptr [eax]
p967
sg5
L134924086L
sg6
Nsg23
S'mov'
p968
sg25
S'0x80ac736L'
p969
sg27
Nsba(ibclass
BInstr
p970
(dp971
g2
Nsg17
S'and     eax, 0FFh'
p972
sg19
S'25ff000000'
p973
sg21
Vand eax, 0xff
p974
sg5
L134924088L
sg6
Nsg23
S'and'
p975
sg25
S'0x80ac738L'
p976
sg27
Nsba(ibclass
BInstr
p977
(dp978
g2
Nsg17
S'shl     eax, 8'
p979
sg19
S'c1e008'
p980
sg21
Vshl eax, 8
p981
sg5
L134924093L
sg6
Nsg23
S'shl'
p982
sg25
S'0x80ac73dL'
p983
sg27
Nsba(ibclass
BInstr
p984
(dp985
g2
Nsg17
S'mov     edx, eax'
p986
sg19
S'89c2'
p987
sg21
Vmov edx, eax
p988
sg5
L134924096L
sg6
Nsg23
S'mov'
p989
sg25
S'0x80ac740L'
p990
sg27
Nsba(ibclass
BInstr
p991
(dp992
g2
Nsg17
S'mov     eax, [ebp+p]'
p993
sg19
S'8b45f0'
p994
sg21
Vmov eax, dword ptr [ebp - 0x10]
p995
sg5
L134924098L
sg6
Nsg23
S'mov'
p996
sg25
S'0x80ac742L'
p997
sg27
Nsba(ibclass
BInstr
p998
(dp999
g2
Nsg17
S'inc     eax'
p1000
sg19
S'40'
p1001
sg21
Vinc eax
p1002
sg5
L134924101L
sg6
Nsg23
S'inc'
p1003
sg25
S'0x80ac745L'
p1004
sg27
Nsba(ibclass
BInstr
p1005
(dp1006
g2
Nsg17
S'mov     al, [eax]'
p1007
sg19
S'8a00'
p1008
sg21
Vmov al, byte ptr [eax]
p1009
sg5
L134924102L
sg6
Nsg23
S'mov'
p1010
sg25
S'0x80ac746L'
p1011
sg27
Nsba(ibclass
BInstr
p1012
(dp1013
g2
Nsg17
S'and     eax, 0FFh'
p1014
sg19
S'25ff000000'
p1015
sg21
Vand eax, 0xff
p1016
sg5
L134924104L
sg6
Nsg23
S'and'
p1017
sg25
S'0x80ac748L'
p1018
sg27
Nsba(ibclass
BInstr
p1019
(dp1020
g2
Nsg17
S'or      eax, edx'
p1021
sg19
S'09d0'
p1022
sg21
Vor eax, edx
p1023
sg5
L134924109L
sg6
Nsg23
S'or'
p1024
sg25
S'0x80ac74dL'
p1025
sg27
Nsba(ibclass
BInstr
p1026
(dp1027
g2
Nsg17
S'mov     [ebp+ticklen], eax'
p1028
sg19
S'8945f4'
p1029
sg21
Vmov dword ptr [ebp - 0xc], eax
p1030
sg5
L134924111L
sg6
Nsg23
S'mov'
p1031
sg25
S'0x80ac74fL'
p1032
sg27
Nsba(ibclass
BInstr
p1033
(dp1034
g2
Nsg17
S'add     [ebp+p], 2'
p1035
sg19
S'8345f002'
p1036
sg21
Vadd dword ptr [ebp - 0x10], 2
p1037
sg5
L134924114L
sg6
Nsg23
S'add'
p1038
sg25
S'0x80ac752L'
p1039
sg27
Nsba(ibclass
BInstr
p1040
(dp1041
g2
Nsg17
S'mov     eax, [ebp+ticklen]'
p1042
sg19
S'8b45f4'
p1043
sg21
Vmov eax, dword ptr [ebp - 0xc]
p1044
sg5
L134924118L
sg6
Nsg23
S'mov'
p1045
sg25
S'0x80ac756L'
p1046
sg27
Nsba(ibclass
BInstr
p1047
(dp1048
g2
Nsg17
S'add     eax, 6'
p1049
sg19
S'83c006'
p1050
sg21
Vadd eax, 6
p1051
sg5
L134924121L
sg6
Nsg23
S'add'
p1052
sg25
S'0x80ac759L'
p1053
sg27
Nsba(ibclass
BInstr
p1054
(dp1055
g2
Nsg17
S'cmp     eax, [ebp+n]'
p1056
sg19
S'3b45e8'
p1057
sg21
Vcmp eax, dword ptr [ebp - 0x18]
p1058
sg5
L134924124L
sg6
Nsg23
S'cmp'
p1059
sg25
S'0x80ac75cL'
p1060
sg27
Nsba(ibclass
BInstr
p1061
(dp1062
g2
Nsg17
S'jz      short loc_80AC799'
p1063
sg19
S'7438'
p1064
sg21
Vje 0x3a
p1065
sg5
L134924127L
sg6
Nsg23
S'jz'
p1066
sg25
S'0x80ac75fL'
p1067
sg27
Nsbasg168
(lp1068
Vmov eax, mem
p1069
aVmov eax, mem
p1070
aVmov mem, eax
p1071
aVmov eax, mem
p1072
aVmov mem, eax
p1073
aVmov eax, mem
p1074
aVmov edx, mem
p1075
aVmov eax, mem
p1076
aVlea ecx, mem
p1077
aVmov mem, ecx
p1078
aVmov al, mem
p1079
aVand eax, address
p1080
aVshl eax, address
p1081
aVmov mem, eax
p1082
aVmov eax, mem
p1083
aVmov edx, mem
p1084
aVmov eax, mem
p1085
aVmov eax, mem
p1086
aVmov eax, mem
p1087
ag708
aVmov eax, mem
p1088
aVlea ecx, mem
p1089
aVmov mem, ecx
p1090
aVmov al, mem
p1091
aVand eax, address
p1092
aVshl eax, address
p1093
ag757
aVmov mem, eax
p1094
aVmov eax, mem
p1095
aVmov edx, mem
p1096
aVmov eax, mem
p1097
aVmov eax, mem
p1098
aVmov eax, mem
p1099
ag806
aVmov eax, mem
p1100
aVlea ecx, mem
p1101
aVmov mem, ecx
p1102
aVmov al, mem
p1103
aVand eax, address
p1104
ag848
ag855
aVmov mem, eax
p1105
aVmov eax, mem
p1106
aVmov edx, mem
p1107
aVmov eax, mem
p1108
aVmov eax, mem
p1109
aVmov eax, mem
p1110
ag904
aVmov eax, mem
p1111
aVlea ecx, mem
p1112
aVmov mem, ecx
p1113
aVmov al, mem
p1114
aVand eax, address
p1115
ag946
aVmov mem, eax
p1116
aVmov eax, mem
p1117
aVmov al, mem
p1118
aVand eax, address
p1119
ag981
ag988
aVmov eax, mem
p1120
ag1002
aVmov al, mem
p1121
aVand eax, address
p1122
ag1023
aVmov mem, eax
p1123
aVadd mem, 2
p1124
aVmov eax, mem
p1125
ag1051
aVcmp eax, mem
p1126
aVje address
p1127
asg186
Nsg5
S'0x80ac666L'
p1128
sg188
(lp1129
S'0x80ac628L'
p1130
asg6
Nsg190
(lp1131
S'0x80ac761L'
p1132
aS'0x80ac799L'
p1133
asg194
Nsg195
Nsg196
S'6deb4598a29d3e9e0d0a07357048b9b0'
p1134
sg198
S'ca8454d9bc1d212b05b8ad672ac937c1'
p1135
sg200
(lp1136
g576
ag583
ag590
ag597
ag604
ag611
ag618
ag625
ag632
ag639
ag646
ag653
ag660
ag667
ag674
ag681
ag688
ag695
ag702
ag709
ag716
ag723
ag730
ag737
ag744
ag751
ag758
ag765
ag772
ag779
ag786
ag793
ag800
ag807
ag814
ag821
ag828
ag835
ag842
ag849
ag856
ag863
ag870
ag877
ag884
ag891
ag898
ag905
ag912
ag919
ag926
ag933
ag940
ag947
ag954
ag961
ag968
ag975
ag982
ag989
ag996
ag1003
ag1010
ag1017
ag1024
ag1031
ag1038
ag1045
ag1052
ag1059
ag1066
asg202
Nsba(ibclass
BBasicBlock
p1137
(dp1138
g12
Nsg13
(lp1139
(ibclass
BInstr
p1140
(dp1141
g2
Nsg17
S'mov     [ebp+al_0], 32h'
p1142
sg19
S'c745e032000000'
p1143
sg21
Vmov dword ptr [ebp - 0x20], 0x32
p1144
sg5
L134924129L
sg6
Nsg23
S'mov'
p1145
sg25
S'0x80ac761L'
p1146
sg27
Nsba(ibclass
BInstr
p1147
(dp1148
g2
Nsg17
S'mov     dword ptr [esp+10h], 81Dh; line'
p1149
sg19
S'c74424101d080000'
p1150
sg21
Vmov dword ptr [esp + 0x10], 0x81d
p1151
sg5
L134924136L
sg6
Nsg23
S'mov'
p1152
sg25
S'0x80ac768L'
p1153
sg27
Nsba(ibclass
BInstr
p1154
(dp1155
g2
Nsg17
S'mov     dword ptr [esp+0Ch], offset aS3_clnt_c; "s3_clnt.c"'
p1156
sg19
S'c744240cc0062108'
p1157
sg21
Vmov dword ptr [esp + 0xc], 0x82106c0
p1158
sg5
L134924144L
sg6
Nsg23
S'mov'
p1159
sg25
S'0x80ac770L'
p1160
sg27
Nsba(ibclass
BInstr
p1161
(dp1162
g2
Nsg17
S'mov     dword ptr [esp+8], 9Fh; reason'
p1163
sg19
S'c74424089f000000'
p1164
sg21
Vmov dword ptr [esp + 8], 0x9f
p1165
sg5
L134924152L
sg6
Nsg23
S'mov'
p1166
sg25
S'0x80ac778L'
p1167
sg27
Nsba(ibclass
BInstr
p1168
(dp1169
g2
Nsg17
S'mov     dword ptr [esp+4], 11Bh; func'
p1170
sg19
S'c74424041b010000'
p1171
sg21
Vmov dword ptr [esp + 4], 0x11b
p1172
sg5
L134924160L
sg6
Nsg23
S'mov'
p1173
sg25
S'0x80ac780L'
p1174
sg27
Nsba(ibclass
BInstr
p1175
(dp1176
g2
Nsg17
S'mov     dword ptr [esp], 14h; lib'
p1177
sg19
S'c7042414000000'
p1178
sg21
Vmov dword ptr [esp], 0x14
p1179
sg5
L134924168L
sg6
Nsg23
S'mov'
p1180
sg25
S'0x80ac788L'
p1181
sg27
Nsba(ibclass
BInstr
p1182
(dp1183
g2
Nsg17
S'call    ERR_put_error'
p1184
sg19
S'e8060f0900'
p1185
sg21
Vcall 0x90f0b
p1186
sg5
L134924175L
sg6
Nsg23
S'call'
p1187
sg25
S'0x80ac78fL'
p1188
sg27
Nsba(ibclass
BInstr
p1189
(dp1190
g2
Nsg17
S'jmp     f_err'
p1191
sg19
S'e931010000'
p1192
sg21
Vjmp 0x136
p1193
sg5
L134924180L
sg6
Nsg23
S'jmp'
p1194
sg25
S'0x80ac794L'
p1195
sg27
Nsbasg168
(lp1196
Vmov mem, address
p1197
aVmov mem, address
p1198
aVmov mem, address
p1199
aVmov mem, address
p1200
aVmov mem, address
p1201
aVmov mem, address
p1202
aVcall address
p1203
aVjmp address
p1204
asg186
Nsg5
S'0x80ac761L'
p1205
sg188
(lp1206
S'0x80ac666L'
p1207
asg6
Nsg190
(lp1208
S'0x80ac8caL'
p1209
asg194
Nsg195
Nsg196
S'66a94b87b6be599163286cd5d033acb0'
p1210
sg198
S'9ae564c3ff50b0b8b3b6c36a987dd05d'
p1211
sg200
(lp1212
g1145
ag1152
ag1159
ag1166
ag1173
ag1180
ag1187
ag1194
asg202
Nsba(ibclass
BBasicBlock
p1213
(dp1214
g12
Nsg13
(lp1215
(ibclass
BInstr
p1216
(dp1217
g2
Nsg17
S'mov     eax, [ebp+s]'
p1218
sg19
S'8b4508'
p1219
sg21
Vmov eax, dword ptr [ebp + 8]
p1220
sg5
L134924185L
sg6
Nsg23
S'mov'
p1221
sg25
S'0x80ac799L'
p1222
sg27
Nsba(ibclass
BInstr
p1223
(dp1224
g2
Nsg17
S'mov     eax, [eax+0C0h]'
p1225
sg19
S'8b80c0000000'
p1226
sg21
Vmov eax, dword ptr [eax + 0xc0]
p1227
sg5
L134924188L
sg6
Nsg23
S'mov'
p1228
sg25
S'0x80ac79cL'
p1229
sg27
Nsba(ibclass
BInstr
p1230
(dp1231
g2
Nsg17
S'mov     eax, [eax+0E4h]'
p1232
sg19
S'8b80e4000000'
p1233
sg21
Vmov eax, dword ptr [eax + 0xe4]
p1234
sg5
L134924194L
sg6
Nsg23
S'mov'
p1235
sg25
S'0x80ac7a2L'
p1236
sg27
Nsba(ibclass
BInstr
p1237
(dp1238
g2
Nsg17
S'test    eax, eax'
p1239
sg19
S'85c0'
p1240
sg21
Vtest eax, eax
p1241
sg5
L134924200L
sg6
Nsg23
S'test'
p1242
sg25
S'0x80ac7a8L'
p1243
sg27
Nsba(ibclass
BInstr
p1244
(dp1245
g2
Nsg17
S'jz      short loc_80AC7D6'
p1246
sg19
S'742a'
p1247
sg21
Vje 0x2c
p1248
sg5
L134924202L
sg6
Nsg23
S'jz'
p1249
sg25
S'0x80ac7aaL'
p1250
sg27
Nsbasg168
(lp1251
Vmov eax, mem
p1252
aVmov eax, mem
p1253
aVmov eax, mem
p1254
ag1241
aVje address
p1255
asg186
Nsg5
S'0x80ac799L'
p1256
sg188
(lp1257
S'0x80ac666L'
p1258
asg6
Nsg190
(lp1259
S'0x80ac7acL'
p1260
aS'0x80ac7d6L'
p1261
asg194
Nsg195
Nsg196
S'3b481658a4cce5e38656536ea99dca20'
p1262
sg198
S'898163da4f2996c9bd80da28a84f3250'
p1263
sg200
(lp1264
g1221
ag1228
ag1235
ag1242
ag1249
asg202
Nsba(ibclass
BBasicBlock
p1265
(dp1266
g12
Nsg13
(lp1267
(ibclass
BInstr
p1268
(dp1269
g2
Nsg17
S'mov     eax, [ebp+s]'
p1270
sg19
S'8b4508'
p1271
sg21
Vmov eax, dword ptr [ebp + 8]
p1272
sg5
L134924204L
sg6
Nsg23
S'mov'
p1273
sg25
S'0x80ac7acL'
p1274
sg27
Nsba(ibclass
BInstr
p1275
(dp1276
g2
Nsg17
S'mov     eax, [eax+0C0h]'
p1277
sg19
S'8b80c0000000'
p1278
sg21
Vmov eax, dword ptr [eax + 0xc0]
p1279
sg5
L134924207L
sg6
Nsg23
S'mov'
p1280
sg25
S'0x80ac7afL'
p1281
sg27
Nsba(ibclass
BInstr
p1282
(dp1283
g2
Nsg17
S'mov     eax, [eax+0E4h]'
p1284
sg19
S'8b80e4000000'
p1285
sg21
Vmov eax, dword ptr [eax + 0xe4]
p1286
sg5
L134924213L
sg6
Nsg23
S'mov'
p1287
sg25
S'0x80ac7b5L'
p1288
sg27
Nsba(ibclass
BInstr
p1289
(dp1290
g2
Nsg17
S'mov     [esp], eax      ; str'
p1291
sg19
S'890424'
p1292
sg21
Vmov dword ptr [esp], eax
p1293
sg5
L134924219L
sg6
Nsg23
S'mov'
p1294
sg25
S'0x80ac7bbL'
p1295
sg27
Nsba(ibclass
BInstr
p1296
(dp1297
g2
Nsg17
S'call    CRYPTO_free'
p1298
sg19
S'e8ec820300'
p1299
sg21
Vcall 0x382f1
p1300
sg5
L134924222L
sg6
Nsg23
S'call'
p1301
sg25
S'0x80ac7beL'
p1302
sg27
Nsba(ibclass
BInstr
p1303
(dp1304
g2
Nsg17
S'mov     eax, [ebp+s]'
p1305
sg19
S'8b4508'
p1306
sg21
Vmov eax, dword ptr [ebp + 8]
p1307
sg5
L134924227L
sg6
Nsg23
S'mov'
p1308
sg25
S'0x80ac7c3L'
p1309
sg27
Nsba(ibclass
BInstr
p1310
(dp1311
g2
Nsg17
S'mov     eax, [eax+0C0h]'
p1312
sg19
S'8b80c0000000'
p1313
sg21
Vmov eax, dword ptr [eax + 0xc0]
p1314
sg5
L134924230L
sg6
Nsg23
S'mov'
p1315
sg25
S'0x80ac7c6L'
p1316
sg27
Nsba(ibclass
BInstr
p1317
(dp1318
g2
Nsg17
S'mov     dword ptr [eax+0E8h], 0'
p1319
sg19
S'c780e800000000000000'
p1320
sg21
Vmov dword ptr [eax + 0xe8], 0
p1321
sg5
L134924236L
sg6
Nsg23
S'mov'
p1322
sg25
S'0x80ac7ccL'
p1323
sg27
Nsbasg168
(lp1324
Vmov eax, mem
p1325
aVmov eax, mem
p1326
aVmov eax, mem
p1327
aVmov mem, eax
p1328
aVcall address
p1329
aVmov eax, mem
p1330
aVmov eax, mem
p1331
aVmov mem, 0
p1332
asg186
Nsg5
S'0x80ac7acL'
p1333
sg188
(lp1334
S'0x80ac799L'
p1335
asg6
Nsg190
(lp1336
S'0x80ac7d6L'
p1337
asg194
Nsg195
Nsg196
S'3348b38e7f1ed73676a152f96d4329ce'
p1338
sg198
S'e7cf8675b846c0978bb84199ee99143e'
p1339
sg200
(lp1340
g1273
ag1280
ag1287
ag1294
ag1301
ag1308
ag1315
ag1322
asg202
Nsba(ibclass
BBasicBlock
p1341
(dp1342
g12
Nsg13
(lp1343
(ibclass
BInstr
p1344
(dp1345
g2
Nsg17
S'mov     eax, [ebp+s]'
p1346
sg19
S'8b4508'
p1347
sg21
Vmov eax, dword ptr [ebp + 8]
p1348
sg5
L134924246L
sg6
Nsg23
S'mov'
p1349
sg25
S'0x80ac7d6L'
p1350
sg27
Nsba(ibclass
BInstr
p1351
(dp1352
g2
Nsg17
S'mov     ebx, [eax+0C0h]'
p1353
sg19
S'8b98c0000000'
p1354
sg21
Vmov ebx, dword ptr [eax + 0xc0]
p1355
sg5
L134924249L
sg6
Nsg23
S'mov'
p1356
sg25
S'0x80ac7d9L'
p1357
sg27
Nsba(ibclass
BInstr
p1358
(dp1359
g2
Nsg17
S'mov     dword ptr [esp+8], 825h; line'
p1360
sg19
S'c744240825080000'
p1361
sg21
Vmov dword ptr [esp + 8], 0x825
p1362
sg5
L134924255L
sg6
Nsg23
S'mov'
p1363
sg25
S'0x80ac7dfL'
p1364
sg27
Nsba(ibclass
BInstr
p1365
(dp1366
g2
Nsg17
S'mov     dword ptr [esp+4], offset aS3_clnt_c; "s3_clnt.c"'
p1367
sg19
S'c7442404c0062108'
p1368
sg21
Vmov dword ptr [esp + 4], 0x82106c0
p1369
sg5
L134924263L
sg6
Nsg23
S'mov'
p1370
sg25
S'0x80ac7e7L'
p1371
sg27
Nsba(ibclass
BInstr
p1372
(dp1373
g2
Nsg17
S'mov     eax, [ebp+ticklen]'
p1374
sg19
S'8b45f4'
p1375
sg21
Vmov eax, dword ptr [ebp - 0xc]
p1376
sg5
L134924271L
sg6
Nsg23
S'mov'
p1377
sg25
S'0x80ac7efL'
p1378
sg27
Nsba(ibclass
BInstr
p1379
(dp1380
g2
Nsg17
S'mov     [esp], eax      ; num'
p1381
sg19
S'890424'
p1382
sg21
Vmov dword ptr [esp], eax
p1383
sg5
L134924274L
sg6
Nsg23
S'mov'
p1384
sg25
S'0x80ac7f2L'
p1385
sg27
Nsba(ibclass
BInstr
p1386
(dp1387
g2
Nsg17
S'call    CRYPTO_malloc'
p1388
sg19
S'e8af7f0300'
p1389
sg21
Vcall 0x37fb4
p1390
sg5
L134924277L
sg6
Nsg23
S'call'
p1391
sg25
S'0x80ac7f5L'
p1392
sg27
Nsba(ibclass
BInstr
p1393
(dp1394
g2
Nsg17
S'mov     [ebx+0E4h], eax'
p1395
sg19
S'8983e4000000'
p1396
sg21
Vmov dword ptr [ebx + 0xe4], eax
p1397
sg5
L134924282L
sg6
Nsg23
S'mov'
p1398
sg25
S'0x80ac7faL'
p1399
sg27
Nsba(ibclass
BInstr
p1400
(dp1401
g2
Nsg17
S'mov     eax, [ebp+s]'
p1402
sg19
S'8b4508'
p1403
sg21
Vmov eax, dword ptr [ebp + 8]
p1404
sg5
L134924288L
sg6
Nsg23
S'mov'
p1405
sg25
S'0x80ac800L'
p1406
sg27
Nsba(ibclass
BInstr
p1407
(dp1408
g2
Nsg17
S'mov     eax, [eax+0C0h]'
p1409
sg19
S'8b80c0000000'
p1410
sg21
Vmov eax, dword ptr [eax + 0xc0]
p1411
sg5
L134924291L
sg6
Nsg23
S'mov'
p1412
sg25
S'0x80ac803L'
p1413
sg27
Nsba(ibclass
BInstr
p1414
(dp1415
g2
Nsg17
S'mov     eax, [eax+0E4h]'
p1416
sg19
S'8b80e4000000'
p1417
sg21
Vmov eax, dword ptr [eax + 0xe4]
p1418
sg5
L134924297L
sg6
Nsg23
S'mov'
p1419
sg25
S'0x80ac809L'
p1420
sg27
Nsba(ibclass
BInstr
p1421
(dp1422
g2
Nsg17
S'test    eax, eax'
p1423
sg19
S'85c0'
p1424
sg21
Vtest eax, eax
p1425
sg5
L134924303L
sg6
Nsg23
S'test'
p1426
sg25
S'0x80ac80fL'
p1427
sg27
Nsba(ibclass
BInstr
p1428
(dp1429
g2
Nsg17
S'jnz     short loc_80AC844'
p1430
sg19
S'7531'
p1431
sg21
Vjne 0x33
p1432
sg5
L134924305L
sg6
Nsg23
S'jnz'
p1433
sg25
S'0x80ac811L'
p1434
sg27
Nsbasg168
(lp1435
Vmov eax, mem
p1436
aVmov ebx, mem
p1437
aVmov mem, address
p1438
aVmov mem, address
p1439
aVmov eax, mem
p1440
aVmov mem, eax
p1441
aVcall address
p1442
aVmov mem, eax
p1443
aVmov eax, mem
p1444
aVmov eax, mem
p1445
aVmov eax, mem
p1446
ag1425
aVjne address
p1447
asg186
Nsg5
S'0x80ac7d6L'
p1448
sg188
(lp1449
S'0x80ac799L'
p1450
aS'0x80ac7acL'
p1451
asg6
Nsg190
(lp1452
S'0x80ac813L'
p1453
aS'0x80ac844L'
p1454
asg194
Nsg195
Nsg196
S'55f1a80973c232d4f385cb404bba19e6'
p1455
sg198
S'52af54f1e01ec170ef0820c9850405c4'
p1456
sg200
(lp1457
g1349
ag1356
ag1363
ag1370
ag1377
ag1384
ag1391
ag1398
ag1405
ag1412
ag1419
ag1426
ag1433
asg202
Nsba(ibclass
BBasicBlock
p1458
(dp1459
g12
Nsg13
(lp1460
(ibclass
BInstr
p1461
(dp1462
g2
Nsg17
S'mov     dword ptr [esp+10h], 828h; line'
p1463
sg19
S'c744241028080000'
p1464
sg21
Vmov dword ptr [esp + 0x10], 0x828
p1465
sg5
L134924307L
sg6
Nsg23
S'mov'
p1466
sg25
S'0x80ac813L'
p1467
sg27
Nsba(ibclass
BInstr
p1468
(dp1469
g2
Nsg17
S'mov     dword ptr [esp+0Ch], offset aS3_clnt_c; "s3_clnt.c"'
p1470
sg19
S'c744240cc0062108'
p1471
sg21
Vmov dword ptr [esp + 0xc], 0x82106c0
p1472
sg5
L134924315L
sg6
Nsg23
S'mov'
p1473
sg25
S'0x80ac81bL'
p1474
sg27
Nsba(ibclass
BInstr
p1475
(dp1476
g2
Nsg17
S'mov     dword ptr [esp+8], 41h; reason'
p1477
sg19
S'c744240841000000'
p1478
sg21
Vmov dword ptr [esp + 8], 0x41
p1479
sg5
L134924323L
sg6
Nsg23
S'mov'
p1480
sg25
S'0x80ac823L'
p1481
sg27
Nsba(ibclass
BInstr
p1482
(dp1483
g2
Nsg17
S'mov     dword ptr [esp+4], 11Bh; func'
p1484
sg19
S'c74424041b010000'
p1485
sg21
Vmov dword ptr [esp + 4], 0x11b
p1486
sg5
L134924331L
sg6
Nsg23
S'mov'
p1487
sg25
S'0x80ac82bL'
p1488
sg27
Nsba(ibclass
BInstr
p1489
(dp1490
g2
Nsg17
S'mov     dword ptr [esp], 14h; lib'
p1491
sg19
S'c7042414000000'
p1492
sg21
Vmov dword ptr [esp], 0x14
p1493
sg5
L134924339L
sg6
Nsg23
S'mov'
p1494
sg25
S'0x80ac833L'
p1495
sg27
Nsba(ibclass
BInstr
p1496
(dp1497
g2
Nsg17
S'call    ERR_put_error'
p1498
sg19
S'e85b0e0900'
p1499
sg21
Vcall 0x90e60
p1500
sg5
L134924346L
sg6
Nsg23
S'call'
p1501
sg25
S'0x80ac83aL'
p1502
sg27
Nsba(ibclass
BInstr
p1503
(dp1504
g2
Nsg17
S'jmp     err'
p1505
sg19
S'e9a0000000'
p1506
sg21
Vjmp 0xa5
p1507
sg5
L134924351L
sg6
Nsg23
S'jmp'
p1508
sg25
S'0x80ac83fL'
p1509
sg27
Nsbasg168
(lp1510
Vmov mem, address
p1511
aVmov mem, address
p1512
aVmov mem, address
p1513
aVmov mem, address
p1514
aVmov mem, address
p1515
aVcall address
p1516
aVjmp address
p1517
asg186
Nsg5
S'0x80ac813L'
p1518
sg188
(lp1519
S'0x80ac7d6L'
p1520
asg6
Nsg190
(lp1521
S'0x80ac8e4L'
p1522
asg194
Nsg195
Nsg196
S'a76a0a3b827ea6cd402bf72e182d1d25'
p1523
sg198
S'5c79c7459a4742ab4e6fe5fb7b7e4c8d'
p1524
sg200
(lp1525
g1466
ag1473
ag1480
ag1487
ag1494
ag1501
ag1508
asg202
Nsba(ibclass
BBasicBlock
p1526
(dp1527
g12
Nsg13
(lp1528
(ibclass
BInstr
p1529
(dp1530
g2
Nsg17
S'mov     edx, [ebp+ticklen]'
p1531
sg19
S'8b55f4'
p1532
sg21
Vmov edx, dword ptr [ebp - 0xc]
p1533
sg5
L134924356L
sg6
Nsg23
S'mov'
p1534
sg25
S'0x80ac844L'
p1535
sg27
Nsba(ibclass
BInstr
p1536
(dp1537
g2
Nsg17
S'mov     eax, [ebp+s]'
p1538
sg19
S'8b4508'
p1539
sg21
Vmov eax, dword ptr [ebp + 8]
p1540
sg5
L134924359L
sg6
Nsg23
S'mov'
p1541
sg25
S'0x80ac847L'
p1542
sg27
Nsba(ibclass
BInstr
p1543
(dp1544
g2
Nsg17
S'mov     eax, [eax+0C0h]'
p1545
sg19
S'8b80c0000000'
p1546
sg21
Vmov eax, dword ptr [eax + 0xc0]
p1547
sg5
L134924362L
sg6
Nsg23
S'mov'
p1548
sg25
S'0x80ac84aL'
p1549
sg27
Nsba(ibclass
BInstr
p1550
(dp1551
g2
Nsg17
S'mov     eax, [eax+0E4h]'
p1552
sg19
S'8b80e4000000'
p1553
sg21
Vmov eax, dword ptr [eax + 0xe4]
p1554
sg5
L134924368L
sg6
Nsg23
S'mov'
p1555
sg25
S'0x80ac850L'
p1556
sg27
Nsba(ibclass
BInstr
p1557
(dp1558
g2
Nsg17
S'mov     [esp+8], edx    ; n'
p1559
sg19
S'89542408'
p1560
sg21
Vmov dword ptr [esp + 8], edx
p1561
sg5
L134924374L
sg6
Nsg23
S'mov'
p1562
sg25
S'0x80ac856L'
p1563
sg27
Nsba(ibclass
BInstr
p1564
(dp1565
g2
Nsg17
S'mov     edx, [ebp+p]'
p1566
sg19
S'8b55f0'
p1567
sg21
Vmov edx, dword ptr [ebp - 0x10]
p1568
sg5
L134924378L
sg6
Nsg23
S'mov'
p1569
sg25
S'0x80ac85aL'
p1570
sg27
Nsba(ibclass
BInstr
p1571
(dp1572
g2
Nsg17
S'mov     [esp+4], edx    ; src'
p1573
sg19
S'89542404'
p1574
sg21
Vmov dword ptr [esp + 4], edx
p1575
sg5
L134924381L
sg6
Nsg23
S'mov'
p1576
sg25
S'0x80ac85dL'
p1577
sg27
Nsba(ibclass
BInstr
p1578
(dp1579
g2
Nsg17
S'mov     [esp], eax      ; dest'
p1580
sg19
S'890424'
p1581
sg21
Vmov dword ptr [esp], eax
p1582
sg5
L134924385L
sg6
Nsg23
S'mov'
p1583
sg25
S'0x80ac861L'
p1584
sg27
Nsba(ibclass
BInstr
p1585
(dp1586
g2
Nsg17
S'call    _memcpy'
p1587
sg19
S'e8d7ccf9ff'
p1588
sg21
Vcall 0xfff9ccdc
p1589
sg5
L134924388L
sg6
Nsg23
S'call'
p1590
sg25
S'0x80ac864L'
p1591
sg27
Nsba(ibclass
BInstr
p1592
(dp1593
g2
Nsg17
S'mov     eax, [ebp+s]'
p1594
sg19
S'8b4508'
p1595
sg21
Vmov eax, dword ptr [ebp + 8]
p1596
sg5
L134924393L
sg6
Nsg23
S'mov'
p1597
sg25
S'0x80ac869L'
p1598
sg27
Nsba(ibclass
BInstr
p1599
(dp1600
g2
Nsg17
S'mov     eax, [eax+0C0h]'
p1601
sg19
S'8b80c0000000'
p1602
sg21
Vmov eax, dword ptr [eax + 0xc0]
p1603
sg5
L134924396L
sg6
Nsg23
S'mov'
p1604
sg25
S'0x80ac86cL'
p1605
sg27
Nsba(ibclass
BInstr
p1606
(dp1607
g2
Nsg17
S'mov     edx, [ebp+ticklen]'
p1608
sg19
S'8b55f4'
p1609
sg21
Vmov edx, dword ptr [ebp - 0xc]
p1610
sg5
L134924402L
sg6
Nsg23
S'mov'
p1611
sg25
S'0x80ac872L'
p1612
sg27
Nsba(ibclass
BInstr
p1613
(dp1614
g2
Nsg17
S'mov     [eax+0E8h], edx'
p1615
sg19
S'8990e8000000'
p1616
sg21
Vmov dword ptr [eax + 0xe8], edx
p1617
sg5
L134924405L
sg6
Nsg23
S'mov'
p1618
sg25
S'0x80ac875L'
p1619
sg27
Nsba(ibclass
BInstr
p1620
(dp1621
g2
Nsg17
S'call    EVP_sha256'
p1622
sg19
S'e8fa900900'
p1623
sg21
Vcall 0x990ff
p1624
sg5
L134924411L
sg6
Nsg23
S'call'
p1625
sg25
S'0x80ac87bL'
p1626
sg27
Nsba(ibclass
BInstr
p1627
(dp1628
g2
Nsg17
S'mov     edx, [ebp+s]'
p1629
sg19
S'8b5508'
p1630
sg21
Vmov edx, dword ptr [ebp + 8]
p1631
sg5
L134924416L
sg6
Nsg23
S'mov'
p1632
sg25
S'0x80ac880L'
p1633
sg27
Nsba(ibclass
BInstr
p1634
(dp1635
g2
Nsg17
S'mov     edx, [edx+0C0h]'
p1636
sg19
S'8b92c0000000'
p1637
sg21
Vmov edx, dword ptr [edx + 0xc0]
p1638
sg5
L134924419L
sg6
Nsg23
S'mov'
p1639
sg25
S'0x80ac883L'
p1640
sg27
Nsba(ibclass
BInstr
p1641
(dp1642
g2
Nsg17
S'lea     ebx, [edx+44h]'
p1643
sg19
S'8d5a44'
p1644
sg21
Vlea ebx, [edx + 0x44]
p1645
sg5
L134924425L
sg6
Nsg23
S'lea'
p1646
sg25
S'0x80ac889L'
p1647
sg27
Nsba(ibclass
BInstr
p1648
(dp1649
g2
Nsg17
S'mov     edx, [ebp+s]'
p1650
sg19
S'8b5508'
p1651
sg21
Vmov edx, dword ptr [ebp + 8]
p1652
sg5
L134924428L
sg6
Nsg23
S'mov'
p1653
sg25
S'0x80ac88cL'
p1654
sg27
Nsba(ibclass
BInstr
p1655
(dp1656
g2
Nsg17
S'mov     edx, [edx+0C0h]'
p1657
sg19
S'8b92c0000000'
p1658
sg21
Vmov edx, dword ptr [edx + 0xc0]
p1659
sg5
L134924431L
sg6
Nsg23
S'mov'
p1660
sg25
S'0x80ac88fL'
p1661
sg27
Nsba(ibclass
BInstr
p1662
(dp1663
g2
Nsg17
S'lea     ecx, [edx+48h]'
p1664
sg19
S'8d4a48'
p1665
sg21
Vlea ecx, [edx + 0x48]
p1666
sg5
L134924437L
sg6
Nsg23
S'lea'
p1667
sg25
S'0x80ac895L'
p1668
sg27
Nsba(ibclass
BInstr
p1669
(dp1670
g2
Nsg17
S'mov     edx, [ebp+ticklen]'
p1671
sg19
S'8b55f4'
p1672
sg21
Vmov edx, dword ptr [ebp - 0xc]
p1673
sg5
L134924440L
sg6
Nsg23
S'mov'
p1674
sg25
S'0x80ac898L'
p1675
sg27
Nsba(ibclass
BInstr
p1676
(dp1677
g2
Nsg17
S'mov     dword ptr [esp+14h], 0; impl'
p1678
sg19
S'c744241400000000'
p1679
sg21
Vmov dword ptr [esp + 0x14], 0
p1680
sg5
L134924443L
sg6
Nsg23
S'mov'
p1681
sg25
S'0x80ac89bL'
p1682
sg27
Nsba(ibclass
BInstr
p1683
(dp1684
g2
Nsg17
S'mov     [esp+10h], eax  ; type'
p1685
sg19
S'89442410'
p1686
sg21
Vmov dword ptr [esp + 0x10], eax
p1687
sg5
L134924451L
sg6
Nsg23
S'mov'
p1688
sg25
S'0x80ac8a3L'
p1689
sg27
Nsba(ibclass
BInstr
p1690
(dp1691
g2
Nsg17
S'mov     [esp+0Ch], ebx  ; size'
p1692
sg19
S'895c240c'
p1693
sg21
Vmov dword ptr [esp + 0xc], ebx
p1694
sg5
L134924455L
sg6
Nsg23
S'mov'
p1695
sg25
S'0x80ac8a7L'
p1696
sg27
Nsba(ibclass
BInstr
p1697
(dp1698
g2
Nsg17
S'mov     [esp+8], ecx    ; md'
p1699
sg19
S'894c2408'
p1700
sg21
Vmov dword ptr [esp + 8], ecx
p1701
sg5
L134924459L
sg6
Nsg23
S'mov'
p1702
sg25
S'0x80ac8abL'
p1703
sg27
Nsba(ibclass
BInstr
p1704
(dp1705
g2
Nsg17
S'mov     [esp+4], edx    ; count'
p1706
sg19
S'89542404'
p1707
sg21
Vmov dword ptr [esp + 4], edx
p1708
sg5
L134924463L
sg6
Nsg23
S'mov'
p1709
sg25
S'0x80ac8afL'
p1710
sg27
Nsba(ibclass
BInstr
p1711
(dp1712
g2
Nsg17
S'mov     eax, [ebp+p]'
p1713
sg19
S'8b45f0'
p1714
sg21
Vmov eax, dword ptr [ebp - 0x10]
p1715
sg5
L134924467L
sg6
Nsg23
S'mov'
p1716
sg25
S'0x80ac8b3L'
p1717
sg27
Nsba(ibclass
BInstr
p1718
(dp1719
g2
Nsg17
S'mov     [esp], eax      ; data'
p1720
sg19
S'890424'
p1721
sg21
Vmov dword ptr [esp], eax
p1722
sg5
L134924470L
sg6
Nsg23
S'mov'
p1723
sg25
S'0x80ac8b6L'
p1724
sg27
Nsba(ibclass
BInstr
p1725
(dp1726
g2
Nsg17
S'call    EVP_Digest'
p1727
sg19
S'e841270900'
p1728
sg21
Vcall 0x92746
p1729
sg5
L134924473L
sg6
Nsg23
S'call'
p1730
sg25
S'0x80ac8b9L'
p1731
sg27
Nsba(ibclass
BInstr
p1732
(dp1733
g2
Nsg17
S'mov     [ebp+ret], 1'
p1734
sg19
S'c745e401000000'
p1735
sg21
Vmov dword ptr [ebp - 0x1c], 1
p1736
sg5
L134924478L
sg6
Nsg23
S'mov'
p1737
sg25
S'0x80ac8beL'
p1738
sg27
Nsba(ibclass
BInstr
p1739
(dp1740
g2
Nsg17
S'mov     eax, [ebp+ret]'
p1741
sg19
S'8b45e4'
p1742
sg21
Vmov eax, dword ptr [ebp - 0x1c]
p1743
sg5
L134924485L
sg6
Nsg23
S'mov'
p1744
sg25
S'0x80ac8c5L'
p1745
sg27
Nsba(ibclass
BInstr
p1746
(dp1747
g2
Nsg17
S'jmp     short loc_80AC8E9'
p1748
sg19
S'eb1f'
p1749
sg21
Vjmp 0x21
p1750
sg5
L134924488L
sg6
Nsg23
S'jmp'
p1751
sg25
S'0x80ac8c8L'
p1752
sg27
Nsbasg168
(lp1753
Vmov edx, mem
p1754
aVmov eax, mem
p1755
aVmov eax, mem
p1756
aVmov eax, mem
p1757
aVmov mem, edx
p1758
aVmov edx, mem
p1759
aVmov mem, edx
p1760
aVmov mem, eax
p1761
aVcall address
p1762
aVmov eax, mem
p1763
aVmov eax, mem
p1764
aVmov edx, mem
p1765
aVmov mem, edx
p1766
aVcall address
p1767
aVmov edx, mem
p1768
aVmov edx, mem
p1769
aVlea ebx, mem
p1770
aVmov edx, mem
p1771
aVmov edx, mem
p1772
aVlea ecx, mem
p1773
aVmov edx, mem
p1774
aVmov mem, 0
p1775
aVmov mem, eax
p1776
aVmov mem, ebx
p1777
aVmov mem, ecx
p1778
aVmov mem, edx
p1779
aVmov eax, mem
p1780
aVmov mem, eax
p1781
aVcall address
p1782
aVmov mem, 1
p1783
aVmov eax, mem
p1784
aVjmp address
p1785
asg186
Nsg5
S'0x80ac844L'
p1786
sg188
(lp1787
S'0x80ac7d6L'
p1788
asg6
Nsg190
(lp1789
S'0x80ac8e9L'
p1790
asg194
Nsg195
Nsg196
S'9b6855e5bc6888fc141f69e557a62c46'
p1791
sg198
S'96dce839350d53da07fc093ddaf123d2'
p1792
sg200
(lp1793
g1534
ag1541
ag1548
ag1555
ag1562
ag1569
ag1576
ag1583
ag1590
ag1597
ag1604
ag1611
ag1618
ag1625
ag1632
ag1639
ag1646
ag1653
ag1660
ag1667
ag1674
ag1681
ag1688
ag1695
ag1702
ag1709
ag1716
ag1723
ag1730
ag1737
ag1744
ag1751
asg202
Nsba(ibclass
BBasicBlock
p1794
(dp1795
g12
Nsg13
(lp1796
(ibclass
BInstr
p1797
(dp1798
g2
Nsg17
S'mov     eax, [ebp+al_0]'
p1799
sg19
S'8b45e0'
p1800
sg21
Vmov eax, dword ptr [ebp - 0x20]
p1801
sg5
L134924490L
sg6
Nsg23
S'mov'
p1802
sg25
S'0x80ac8caL'
p1803
sg27
Nsba(ibclass
BInstr
p1804
(dp1805
g2
Nsg17
S'mov     [esp+8], eax    ; desc'
p1806
sg19
S'89442408'
p1807
sg21
Vmov dword ptr [esp + 8], eax
p1808
sg5
L134924493L
sg6
Nsg23
S'mov'
p1809
sg25
S'0x80ac8cdL'
p1810
sg27
Nsba(ibclass
BInstr
p1811
(dp1812
g2
Nsg17
S'mov     dword ptr [esp+4], 2; level'
p1813
sg19
S'c744240402000000'
p1814
sg21
Vmov dword ptr [esp + 4], 2
p1815
sg5
L134924497L
sg6
Nsg23
S'mov'
p1816
sg25
S'0x80ac8d1L'
p1817
sg27
Nsba(ibclass
BInstr
p1818
(dp1819
g2
Nsg17
S'mov     eax, [ebp+s]'
p1820
sg19
S'8b4508'
p1821
sg21
Vmov eax, dword ptr [ebp + 8]
p1822
sg5
L134924505L
sg6
Nsg23
S'mov'
p1823
sg25
S'0x80ac8d9L'
p1824
sg27
Nsba(ibclass
BInstr
p1825
(dp1826
g2
Nsg17
S'mov     [esp], eax      ; s'
p1827
sg19
S'890424'
p1828
sg21
Vmov dword ptr [esp], eax
p1829
sg5
L134924508L
sg6
Nsg23
S'mov'
p1830
sg25
S'0x80ac8dcL'
p1831
sg27
Nsba(ibclass
BInstr
p1832
(dp1833
g2
Nsg17
S'call    ssl3_send_alert'
p1834
sg19
S'e8c9960000'
p1835
sg21
Vcall 0x96ce
p1836
sg5
L134924511L
sg6
Nsg23
S'call'
p1837
sg25
S'0x80ac8dfL'
p1838
sg27
Nsbasg168
(lp1839
Vmov eax, mem
p1840
aVmov mem, eax
p1841
aVmov mem, 2
p1842
aVmov eax, mem
p1843
aVmov mem, eax
p1844
aVcall address
p1845
asg186
Nsg5
S'0x80ac8caL'
p1846
sg188
(lp1847
S'0x80ac5f0L'
p1848
aS'0x80ac62eL'
p1849
aS'0x80ac761L'
p1850
asg6
Nsg190
(lp1851
S'0x80ac8e4L'
p1852
asg194
Nsg195
Nsg196
S'5c7cd3072e5b949035c0b8088cd4278d'
p1853
sg198
S'9703c08597711c98db7781842b12776e'
p1854
sg200
(lp1855
g1802
ag1809
ag1816
ag1823
ag1830
ag1837
asg202
Nsba(ibclass
BBasicBlock
p1856
(dp1857
g12
Nsg13
(lp1858
(ibclass
BInstr
p1859
(dp1860
g2
Nsg17
S'mov     eax, 0FFFFFFFFh'
p1861
sg19
S'b8ffffffff'
p1862
sg21
Vmov eax, 0xffffffff
p1863
sg5
L134924516L
sg6
Nsg23
S'mov'
p1864
sg25
S'0x80ac8e4L'
p1865
sg27
Nsbasg168
(lp1866
Vmov eax, address
p1867
asg186
Nsg5
S'0x80ac8e4L'
p1868
sg188
(lp1869
S'0x80ac813L'
p1870
aS'0x80ac8caL'
p1871
asg6
Nsg190
(lp1872
S'0x80ac8e9L'
p1873
asg194
Nsg195
Nsg196
S'96a4a0e6e9ac88756a0fcba989d0a844'
p1874
sg198
S'9f50df646683897e817abb208201b969'
p1875
sg200
(lp1876
g1864
asg202
Nsba(ibclass
BBasicBlock
p1877
(dp1878
g12
Nsg13
(lp1879
(ibclass
BInstr
p1880
(dp1881
g2
Nsg17
S'add     esp, 44h'
p1882
sg19
S'83c444'
p1883
sg21
Vadd esp, 0x44
p1884
sg5
L134924521L
sg6
Nsg23
S'add'
p1885
sg25
S'0x80ac8e9L'
p1886
sg27
Nsba(ibclass
BInstr
p1887
(dp1888
g2
Nsg17
S'pop     ebx'
p1889
sg19
S'5b'
p1890
sg21
Vpop ebx
p1891
sg5
L134924524L
sg6
Nsg23
S'pop'
p1892
sg25
S'0x80ac8ecL'
p1893
sg27
Nsba(ibclass
BInstr
p1894
(dp1895
g2
Nsg17
S'pop     ebp'
p1896
sg19
S'5d'
p1897
sg21
Vpop ebp
p1898
sg5
L134924525L
sg6
Nsg23
S'pop'
p1899
sg25
S'0x80ac8edL'
p1900
sg27
Nsba(ibclass
BInstr
p1901
(dp1902
g2
Nsg17
S'retn'
p1903
sg19
S'c3'
p1904
sg21
Vret 
p1905
sg5
L134924526L
sg6
Nsg23
S'retn'
p1906
sg25
S'0x80ac8eeL'
p1907
sg27
Nsbasg168
(lp1908
Vadd esp, address
p1909
ag1891
ag1898
aVret
p1910
asg186
Nsg5
S'0x80ac8e9L'
p1911
sg188
(lp1912
S'0x80ac5acL'
p1913
aS'0x80ac5c5L'
p1914
aS'0x80ac844L'
p1915
aS'0x80ac8e4L'
p1916
asg6
Nsg190
(lp1917
sg194
Nsg195
Nsg196
S'4d1981a678d0c70281d5161c3174b44c'
p1918
sg198
S'd4189a9002395f50ce2cc84f459d3b62'
p1919
sg200
(lp1920
g1885
ag1892
ag1899
ag1906
asg202
Nsbasb.