(ibclass
BFunc
p0
(dp1
S'hash'
p2
NsS'name'
p3
S'ssl_ctx_make_profiles'
p4
sS'start_address'
p5
L135065495L
sS'flag'
p6
NsS'program'
p7
NsS'bbs'
p8
(lp9
(ibclass
BBasicBlock
p10
(dp11
S'function'
p12
NsS'binstrs'
p13
(lp14
(ibclass
BInstr
p15
(dp16
g2
NsS'disasm'
p17
S'push    ebp'
p18
sS'bytes'
p19
S'55'
p20
sS'disasm_striped'
p21
Vpush ebp
p22
sg5
L135065495L
sg6
NsS'mnem'
p23
S'push'
p24
sS'address'
p25
S'0x80cef97L'
p26
sS'basicblock'
p27
Nsba(ibclass
BInstr
p28
(dp29
g2
Nsg17
S'mov     ebp, esp'
p30
sg19
S'89e5'
p31
sg21
Vmov ebp, esp
p32
sg5
L135065496L
sg6
Nsg23
S'mov'
p33
sg25
S'0x80cef98L'
p34
sg27
Nsba(ibclass
BInstr
p35
(dp36
g2
Nsg17
S'sub     esp, 38h'
p37
sg19
S'83ec38'
p38
sg21
Vsub esp, 0x38
p39
sg5
L135065498L
sg6
Nsg23
S'sub'
p40
sg25
S'0x80cef9aL'
p41
sg27
Nsba(ibclass
BInstr
p42
(dp43
g2
Nsg17
S'mov     eax, [ebp+profiles_string]'
p44
sg19
S'8b4508'
p45
sg21
Vmov eax, dword ptr [ebp + 8]
p46
sg5
L135065501L
sg6
Nsg23
S'mov'
p47
sg25
S'0x80cef9dL'
p48
sg27
Nsba(ibclass
BInstr
p49
(dp50
g2
Nsg17
S'mov     [ebp+ptr], eax'
p51
sg19
S'8945ec'
p52
sg21
Vmov dword ptr [ebp - 0x14], eax
p53
sg5
L135065504L
sg6
Nsg23
S'mov'
p54
sg25
S'0x80cefa0L'
p55
sg27
Nsba(ibclass
BInstr
p56
(dp57
g2
Nsg17
S'call    sk_new_null'
p58
sg19
S'e871ba0600'
p59
sg21
Vcall 0x6ba76
p60
sg5
L135065507L
sg6
Nsg23
S'call'
p61
sg25
S'0x80cefa3L'
p62
sg27
Nsba(ibclass
BInstr
p63
(dp64
g2
Nsg17
S'mov     [ebp+profiles], eax'
p65
sg19
S'8945f0'
p66
sg21
Vmov dword ptr [ebp - 0x10], eax
p67
sg5
L135065512L
sg6
Nsg23
S'mov'
p68
sg25
S'0x80cefa8L'
p69
sg27
Nsba(ibclass
BInstr
p70
(dp71
g2
Nsg17
S'cmp     [ebp+profiles], 0'
p72
sg19
S'837df000'
p73
sg21
Vcmp dword ptr [ebp - 0x10], 0
p74
sg5
L135065515L
sg6
Nsg23
S'cmp'
p75
sg25
S'0x80cefabL'
p76
sg27
Nsba(ibclass
BInstr
p77
(dp78
g2
Nsg17
S'jnz     short loc_80CEFE7'
p79
sg19
S'7536'
p80
sg21
Vjne 0x38
p81
sg5
L135065519L
sg6
Nsg23
S'jnz'
p82
sg25
S'0x80cefafL'
p83
sg27
NsbasS'disasm_list'
p84
(lp85
g22
ag32
aVsub esp, address
p86
aVmov eax, mem
p87
aVmov mem, eax
p88
aVcall address
p89
aVmov mem, eax
p90
aVcmp mem, 0
p91
aVjne address
p92
asS'end_address'
p93
Nsg5
S'0x80cef97L'
p94
sS'preds'
p95
(lp96
sg6
NsS'succs'
p97
(lp98
S'0x80cefb1L'
p99
aS'0x80cefe7L'
p100
asS'hash_v3'
p101
NsS'flag_v2'
p102
NsS'hash_v1'
p103
S'94618b99d4b27a8c4b57b68846f576b8'
p104
sS'hash_v2'
p105
S'cded88ea45a9a96407443c8789c33637'
p106
sS'mnen_list'
p107
(lp108
g24
ag33
ag40
ag47
ag54
ag61
ag68
ag75
ag82
asS'neighbour_disasm_list'
p109
Nsba(ibclass
BBasicBlock
p110
(dp111
g12
Nsg13
(lp112
(ibclass
BInstr
p113
(dp114
g2
Nsg17
S'mov     dword ptr [esp+10h], 0C9h; line'
p115
sg19
S'c7442410c9000000'
p116
sg21
Vmov dword ptr [esp + 0x10], 0xc9
p117
sg5
L135065521L
sg6
Nsg23
S'mov'
p118
sg25
S'0x80cefb1L'
p119
sg27
Nsba(ibclass
BInstr
p120
(dp121
g2
Nsg17
S'mov     dword ptr [esp+0Ch], offset aD1_srtp_c; "d1_srtp.c"'
p122
sg19
S'c744240cd0262108'
p123
sg21
Vmov dword ptr [esp + 0xc], 0x82126d0
p124
sg5
L135065529L
sg6
Nsg23
S'mov'
p125
sg25
S'0x80cefb9L'
p126
sg27
Nsba(ibclass
BInstr
p127
(dp128
g2
Nsg17
S'mov     dword ptr [esp+8], 16Ah; reason'
p129
sg19
S'c74424086a010000'
p130
sg21
Vmov dword ptr [esp + 8], 0x16a
p131
sg5
L135065537L
sg6
Nsg23
S'mov'
p132
sg25
S'0x80cefc1L'
p133
sg27
Nsba(ibclass
BInstr
p134
(dp135
g2
Nsg17
S'mov     dword ptr [esp+4], 135h; func'
p136
sg19
S'c744240435010000'
p137
sg21
Vmov dword ptr [esp + 4], 0x135
p138
sg5
L135065545L
sg6
Nsg23
S'mov'
p139
sg25
S'0x80cefc9L'
p140
sg27
Nsba(ibclass
BInstr
p141
(dp142
g2
Nsg17
S'mov     dword ptr [esp], 14h; lib'
p143
sg19
S'c7042414000000'
p144
sg21
Vmov dword ptr [esp], 0x14
p145
sg5
L135065553L
sg6
Nsg23
S'mov'
p146
sg25
S'0x80cefd1L'
p147
sg27
Nsba(ibclass
BInstr
p148
(dp149
g2
Nsg17
S'call    ERR_put_error'
p150
sg19
S'e8bde60600'
p151
sg21
Vcall 0x6e6c2
p152
sg5
L135065560L
sg6
Nsg23
S'call'
p153
sg25
S'0x80cefd8L'
p154
sg27
Nsba(ibclass
BInstr
p155
(dp156
g2
Nsg17
S'mov     eax, 1'
p157
sg19
S'b801000000'
p158
sg21
Vmov eax, 1
p159
sg5
L135065565L
sg6
Nsg23
S'mov'
p160
sg25
S'0x80cefddL'
p161
sg27
Nsba(ibclass
BInstr
p162
(dp163
g2
Nsg17
S'jmp     locret_80CF09F'
p164
sg19
S'e9b8000000'
p165
sg21
Vjmp 0xbd
p166
sg5
L135065570L
sg6
Nsg23
S'jmp'
p167
sg25
S'0x80cefe2L'
p168
sg27
Nsbasg84
(lp169
Vmov mem, address
p170
aVmov mem, address
p171
aVmov mem, address
p172
aVmov mem, address
p173
aVmov mem, address
p174
aVcall address
p175
ag159
aVjmp address
p176
asg93
Nsg5
S'0x80cefb1L'
p177
sg95
(lp178
S'0x80cef97L'
p179
asg6
Nsg97
(lp180
S'0x80cf09fL'
p181
asg101
Nsg102
Nsg103
S'd29cf940acec75fa9c4bd8a1e6665750'
p182
sg105
S'd66df202e96c4b2a19fe0df0f37d843c'
p183
sg107
(lp184
g118
ag125
ag132
ag139
ag146
ag153
ag160
ag167
asg109
Nsba(ibclass
BBasicBlock
p185
(dp186
g12
Nsg13
(lp187
(ibclass
BInstr
p188
(dp189
g2
Nsg17
S'mov     dword ptr [esp+4], 3Ah; c'
p190
sg19
S'c74424043a000000'
p191
sg21
Vmov dword ptr [esp + 4], 0x3a
p192
sg5
L135065575L
sg6
Nsg23
S'mov'
p193
sg25
S'0x80cefe7L'
p194
sg27
Nsba(ibclass
BInstr
p195
(dp196
g2
Nsg17
S'mov     eax, [ebp+ptr]'
p197
sg19
S'8b45ec'
p198
sg21
Vmov eax, dword ptr [ebp - 0x14]
p199
sg5
L135065583L
sg6
Nsg23
S'mov'
p200
sg25
S'0x80cefefL'
p201
sg27
Nsba(ibclass
BInstr
p202
(dp203
g2
Nsg17
S'mov     [esp], eax      ; s'
p204
sg19
S'890424'
p205
sg21
Vmov dword ptr [esp], eax
p206
sg5
L135065586L
sg6
Nsg23
S'mov'
p207
sg25
S'0x80ceff2L'
p208
sg27
Nsba(ibclass
BInstr
p209
(dp210
g2
Nsg17
S'call    _strchr'
p211
sg19
S'e866a8f7ff'
p212
sg21
Vcall 0xfff7a86b
p213
sg5
L135065589L
sg6
Nsg23
S'call'
p214
sg25
S'0x80ceff5L'
p215
sg27
Nsba(ibclass
BInstr
p216
(dp217
g2
Nsg17
S'mov     [ebp+col], eax'
p218
sg19
S'8945f4'
p219
sg21
Vmov dword ptr [ebp - 0xc], eax
p220
sg5
L135065594L
sg6
Nsg23
S'mov'
p221
sg25
S'0x80ceffaL'
p222
sg27
Nsba(ibclass
BInstr
p223
(dp224
g2
Nsg17
S'cmp     [ebp+col], 0'
p225
sg19
S'837df400'
p226
sg21
Vcmp dword ptr [ebp - 0xc], 0
p227
sg5
L135065597L
sg6
Nsg23
S'cmp'
p228
sg25
S'0x80ceffdL'
p229
sg27
Nsba(ibclass
BInstr
p230
(dp231
g2
Nsg17
S'jz      short loc_80CF00F'
p232
sg19
S'740c'
p233
sg21
Vje 0xe
p234
sg5
L135065601L
sg6
Nsg23
S'jz'
p235
sg25
S'0x80cf001L'
p236
sg27
Nsbasg84
(lp237
Vmov mem, address
p238
aVmov eax, mem
p239
aVmov mem, eax
p240
aVcall address
p241
aVmov mem, eax
p242
aVcmp mem, 0
p243
aVje address
p244
asg93
Nsg5
S'0x80cefe7L'
p245
sg95
(lp246
S'0x80cef97L'
p247
aS'0x80cf088L'
p248
asg6
Nsg97
(lp249
S'0x80cf003L'
p250
aS'0x80cf00fL'
p251
asg101
Nsg102
Nsg103
S'bf73f3f83b86ebcc14d72e245ac481d3'
p252
sg105
S'd0144114b318c6f64e0ccd5efd45803b'
p253
sg107
(lp254
g193
ag200
ag207
ag214
ag221
ag228
ag235
asg109
Nsba(ibclass
BBasicBlock
p255
(dp256
g12
Nsg13
(lp257
(ibclass
BInstr
p258
(dp259
g2
Nsg17
S'mov     edx, [ebp+col]'
p260
sg19
S'8b55f4'
p261
sg21
Vmov edx, dword ptr [ebp - 0xc]
p262
sg5
L135065603L
sg6
Nsg23
S'mov'
p263
sg25
S'0x80cf003L'
p264
sg27
Nsba(ibclass
BInstr
p265
(dp266
g2
Nsg17
S'mov     eax, [ebp+ptr]'
p267
sg19
S'8b45ec'
p268
sg21
Vmov eax, dword ptr [ebp - 0x14]
p269
sg5
L135065606L
sg6
Nsg23
S'mov'
p270
sg25
S'0x80cf006L'
p271
sg27
Nsba(ibclass
BInstr
p272
(dp273
g2
Nsg17
S'sub     edx, eax'
p274
sg19
S'29c2'
p275
sg21
Vsub edx, eax
p276
sg5
L135065609L
sg6
Nsg23
S'sub'
p277
sg25
S'0x80cf009L'
p278
sg27
Nsba(ibclass
BInstr
p279
(dp280
g2
Nsg17
S'mov     eax, edx'
p281
sg19
S'89d0'
p282
sg21
Vmov eax, edx
p283
sg5
L135065611L
sg6
Nsg23
S'mov'
p284
sg25
S'0x80cf00bL'
p285
sg27
Nsba(ibclass
BInstr
p286
(dp287
g2
Nsg17
S'jmp     short loc_80CF01A'
p288
sg19
S'eb0b'
p289
sg21
Vjmp 0xd
p290
sg5
L135065613L
sg6
Nsg23
S'jmp'
p291
sg25
S'0x80cf00dL'
p292
sg27
Nsbasg84
(lp293
Vmov edx, mem
p294
aVmov eax, mem
p295
ag276
ag283
aVjmp address
p296
asg93
Nsg5
S'0x80cf003L'
p297
sg95
(lp298
S'0x80cefe7L'
p299
asg6
Nsg97
(lp300
S'0x80cf01aL'
p301
asg101
Nsg102
Nsg103
S'd3fd8db55752e8867413dd627ae7316c'
p302
sg105
S'cf7e6f7528cc35da23375b3e7039f1aa'
p303
sg107
(lp304
g263
ag270
ag277
ag284
ag291
asg109
Nsba(ibclass
BBasicBlock
p305
(dp306
g12
Nsg13
(lp307
(ibclass
BInstr
p308
(dp309
g2
Nsg17
S'mov     eax, [ebp+ptr]'
p310
sg19
S'8b45ec'
p311
sg21
Vmov eax, dword ptr [ebp - 0x14]
p312
sg5
L135065615L
sg6
Nsg23
S'mov'
p313
sg25
S'0x80cf00fL'
p314
sg27
Nsba(ibclass
BInstr
p315
(dp316
g2
Nsg17
S'mov     [esp], eax      ; s'
p317
sg19
S'890424'
p318
sg21
Vmov dword ptr [esp], eax
p319
sg5
L135065618L
sg6
Nsg23
S'mov'
p320
sg25
S'0x80cf012L'
p321
sg27
Nsba(ibclass
BInstr
p322
(dp323
g2
Nsg17
S'call    _strlen'
p324
sg19
S'e856a8f7ff'
p325
sg21
Vcall 0xfff7a85b
p326
sg5
L135065621L
sg6
Nsg23
S'call'
p327
sg25
S'0x80cf015L'
p328
sg27
Nsbasg84
(lp329
Vmov eax, mem
p330
aVmov mem, eax
p331
aVcall address
p332
asg93
Nsg5
S'0x80cf00fL'
p333
sg95
(lp334
S'0x80cefe7L'
p335
asg6
Nsg97
(lp336
S'0x80cf01aL'
p337
asg101
Nsg102
Nsg103
S'0bf1a79a6a1155c5085c1c85d6d83d05'
p338
sg105
S'5af7f5bfd15310706e43fa164fed7a71'
p339
sg107
(lp340
g313
ag320
ag327
asg109
Nsba(ibclass
BBasicBlock
p341
(dp342
g12
Nsg13
(lp343
(ibclass
BInstr
p344
(dp345
g2
Nsg17
S'mov     [esp+8], eax    ; len'
p346
sg19
S'89442408'
p347
sg21
Vmov dword ptr [esp + 8], eax
p348
sg5
L135065626L
sg6
Nsg23
S'mov'
p349
sg25
S'0x80cf01aL'
p350
sg27
Nsba(ibclass
BInstr
p351
(dp352
g2
Nsg17
S'lea     eax, [ebp+p]'
p353
sg19
S'8d45e8'
p354
sg21
Vlea eax, [ebp - 0x18]
p355
sg5
L135065630L
sg6
Nsg23
S'lea'
p356
sg25
S'0x80cf01eL'
p357
sg27
Nsba(ibclass
BInstr
p358
(dp359
g2
Nsg17
S'mov     [esp+4], eax    ; pptr'
p360
sg19
S'89442404'
p361
sg21
Vmov dword ptr [esp + 4], eax
p362
sg5
L135065633L
sg6
Nsg23
S'mov'
p363
sg25
S'0x80cf021L'
p364
sg27
Nsba(ibclass
BInstr
p365
(dp366
g2
Nsg17
S'mov     eax, [ebp+ptr]'
p367
sg19
S'8b45ec'
p368
sg21
Vmov eax, dword ptr [ebp - 0x14]
p369
sg5
L135065637L
sg6
Nsg23
S'mov'
p370
sg25
S'0x80cf025L'
p371
sg27
Nsba(ibclass
BInstr
p372
(dp373
g2
Nsg17
S'mov     [esp], eax      ; profile_name'
p374
sg19
S'890424'
p375
sg21
Vmov dword ptr [esp], eax
p376
sg5
L135065640L
sg6
Nsg23
S'mov'
p377
sg25
S'0x80cf028L'
p378
sg27
Nsba(ibclass
BInstr
p379
(dp380
g2
Nsg17
S'call    find_profile_by_name'
p381
sg19
S'e8c7feffff'
p382
sg21
Vcall 0xfffffecc
p383
sg5
L135065643L
sg6
Nsg23
S'call'
p384
sg25
S'0x80cf02bL'
p385
sg27
Nsba(ibclass
BInstr
p386
(dp387
g2
Nsg17
S'test    eax, eax'
p388
sg19
S'85c0'
p389
sg21
Vtest eax, eax
p390
sg5
L135065648L
sg6
Nsg23
S'test'
p391
sg25
S'0x80cf030L'
p392
sg27
Nsba(ibclass
BInstr
p393
(dp394
g2
Nsg17
S'jnz     short loc_80CF04E'
p395
sg19
S'751a'
p396
sg21
Vjne 0x1c
p397
sg5
L135065650L
sg6
Nsg23
S'jnz'
p398
sg25
S'0x80cf032L'
p399
sg27
Nsbasg84
(lp400
Vmov mem, eax
p401
aVlea eax, mem
p402
aVmov mem, eax
p403
aVmov eax, mem
p404
aVmov mem, eax
p405
aVcall address
p406
ag390
aVjne address
p407
asg93
Nsg5
S'0x80cf01aL'
p408
sg95
(lp409
S'0x80cf003L'
p410
aS'0x80cf00fL'
p411
asg6
Nsg97
(lp412
S'0x80cf034L'
p413
aS'0x80cf04eL'
p414
asg101
Nsg102
Nsg103
S'bd4bdb85eadef65d7e93e4816652fd6b'
p415
sg105
S'924b5f0ccb56dfece850415b5f932ce5'
p416
sg107
(lp417
g349
ag356
ag363
ag370
ag377
ag384
ag391
ag398
asg109
Nsba(ibclass
BBasicBlock
p418
(dp419
g12
Nsg13
(lp420
(ibclass
BInstr
p421
(dp422
g2
Nsg17
S'mov     eax, [ebp+p]'
p423
sg19
S'8b45e8'
p424
sg21
Vmov eax, dword ptr [ebp - 0x18]
p425
sg5
L135065652L
sg6
Nsg23
S'mov'
p426
sg25
S'0x80cf034L'
p427
sg27
Nsba(ibclass
BInstr
p428
(dp429
g2
Nsg17
S'mov     [esp+4], eax    ; data'
p430
sg19
S'89442404'
p431
sg21
Vmov dword ptr [esp + 4], eax
p432
sg5
L135065655L
sg6
Nsg23
S'mov'
p433
sg25
S'0x80cf037L'
p434
sg27
Nsba(ibclass
BInstr
p435
(dp436
g2
Nsg17
S'mov     eax, [ebp+profiles]'
p437
sg19
S'8b45f0'
p438
sg21
Vmov eax, dword ptr [ebp - 0x10]
p439
sg5
L135065659L
sg6
Nsg23
S'mov'
p440
sg25
S'0x80cf03bL'
p441
sg27
Nsba(ibclass
BInstr
p442
(dp443
g2
Nsg17
S'mov     [esp], eax      ; st'
p444
sg19
S'890424'
p445
sg21
Vmov dword ptr [esp], eax
p446
sg5
L135065662L
sg6
Nsg23
S'mov'
p447
sg25
S'0x80cf03eL'
p448
sg27
Nsba(ibclass
BInstr
p449
(dp450
g2
Nsg17
S'call    sk_push'
p451
sg19
S'e8c3bd0600'
p452
sg21
Vcall 0x6bdc8
p453
sg5
L135065665L
sg6
Nsg23
S'call'
p454
sg25
S'0x80cf041L'
p455
sg27
Nsba(ibclass
BInstr
p456
(dp457
g2
Nsg17
S'cmp     [ebp+col], 0'
p458
sg19
S'837df400'
p459
sg21
Vcmp dword ptr [ebp - 0xc], 0
p460
sg5
L135065670L
sg6
Nsg23
S'cmp'
p461
sg25
S'0x80cf046L'
p462
sg27
Nsba(ibclass
BInstr
p463
(dp464
g2
Nsg17
S'jz      short loc_80CF088'
p465
sg19
S'743c'
p466
sg21
Vje 0x3e
p467
sg5
L135065674L
sg6
Nsg23
S'jz'
p468
sg25
S'0x80cf04aL'
p469
sg27
Nsbasg84
(lp470
Vmov eax, mem
p471
aVmov mem, eax
p472
aVmov eax, mem
p473
aVmov mem, eax
p474
aVcall address
p475
aVcmp mem, 0
p476
aVje address
p477
asg93
Nsg5
S'0x80cf034L'
p478
sg95
(lp479
S'0x80cf01aL'
p480
asg6
Nsg97
(lp481
S'0x80cf04cL'
p482
aS'0x80cf088L'
p483
asg101
Nsg102
Nsg103
S'd4c357956e7d6d7796efb66e80735126'
p484
sg105
S'a2fcc7a85f88e9a772619bf4f6e8d1cc'
p485
sg107
(lp486
g426
ag433
ag440
ag447
ag454
ag461
ag468
asg109
Nsba(ibclass
BBasicBlock
p487
(dp488
g12
Nsg13
(lp489
(ibclass
BInstr
p490
(dp491
g2
Nsg17
S'jmp     short loc_80CF081'
p492
sg19
S'eb33'
p493
sg21
Vjmp 0x35
p494
sg5
L135065676L
sg6
Nsg23
S'jmp'
p495
sg25
S'0x80cf04cL'
p496
sg27
Nsbasg84
(lp497
Vjmp address
p498
asg93
Nsg5
S'0x80cf04cL'
p499
sg95
(lp500
S'0x80cf034L'
p501
asg6
Nsg97
(lp502
S'0x80cf081L'
p503
asg101
Nsg102
Nsg103
S'0ef6cf926f2f394b0cc8e11be8022625'
p504
sg105
S'd4372e4caa7348928655251605aa7329'
p505
sg107
(lp506
g495
asg109
Nsba(ibclass
BBasicBlock
p507
(dp508
g12
Nsg13
(lp509
(ibclass
BInstr
p510
(dp511
g2
Nsg17
S'mov     dword ptr [esp+10h], 0D8h; line'
p512
sg19
S'c7442410d8000000'
p513
sg21
Vmov dword ptr [esp + 0x10], 0xd8
p514
sg5
L135065678L
sg6
Nsg23
S'mov'
p515
sg25
S'0x80cf04eL'
p516
sg27
Nsba(ibclass
BInstr
p517
(dp518
g2
Nsg17
S'mov     dword ptr [esp+0Ch], offset aD1_srtp_c; "d1_srtp.c"'
p519
sg19
S'c744240cd0262108'
p520
sg21
Vmov dword ptr [esp + 0xc], 0x82126d0
p521
sg5
L135065686L
sg6
Nsg23
S'mov'
p522
sg25
S'0x80cf056L'
p523
sg27
Nsba(ibclass
BInstr
p524
(dp525
g2
Nsg17
S'mov     dword ptr [esp+8], 16Ch; reason'
p526
sg19
S'c74424086c010000'
p527
sg21
Vmov dword ptr [esp + 8], 0x16c
p528
sg5
L135065694L
sg6
Nsg23
S'mov'
p529
sg25
S'0x80cf05eL'
p530
sg27
Nsba(ibclass
BInstr
p531
(dp532
g2
Nsg17
S'mov     dword ptr [esp+4], 135h; func'
p533
sg19
S'c744240435010000'
p534
sg21
Vmov dword ptr [esp + 4], 0x135
p535
sg5
L135065702L
sg6
Nsg23
S'mov'
p536
sg25
S'0x80cf066L'
p537
sg27
Nsba(ibclass
BInstr
p538
(dp539
g2
Nsg17
S'mov     dword ptr [esp], 14h; lib'
p540
sg19
S'c7042414000000'
p541
sg21
Vmov dword ptr [esp], 0x14
p542
sg5
L135065710L
sg6
Nsg23
S'mov'
p543
sg25
S'0x80cf06eL'
p544
sg27
Nsba(ibclass
BInstr
p545
(dp546
g2
Nsg17
S'call    ERR_put_error'
p547
sg19
S'e820e60600'
p548
sg21
Vcall 0x6e625
p549
sg5
L135065717L
sg6
Nsg23
S'call'
p550
sg25
S'0x80cf075L'
p551
sg27
Nsba(ibclass
BInstr
p552
(dp553
g2
Nsg17
S'mov     eax, 1'
p554
sg19
S'b801000000'
p555
sg21
Vmov eax, 1
p556
sg5
L135065722L
sg6
Nsg23
S'mov'
p557
sg25
S'0x80cf07aL'
p558
sg27
Nsba(ibclass
BInstr
p559
(dp560
g2
Nsg17
S'jmp     short locret_80CF09F'
p561
sg19
S'eb1e'
p562
sg21
Vjmp 0x20
p563
sg5
L135065727L
sg6
Nsg23
S'jmp'
p564
sg25
S'0x80cf07fL'
p565
sg27
Nsbasg84
(lp566
Vmov mem, address
p567
aVmov mem, address
p568
aVmov mem, address
p569
aVmov mem, address
p570
aVmov mem, address
p571
aVcall address
p572
ag556
aVjmp address
p573
asg93
Nsg5
S'0x80cf04eL'
p574
sg95
(lp575
S'0x80cf01aL'
p576
asg6
Nsg97
(lp577
S'0x80cf09fL'
p578
asg101
Nsg102
Nsg103
S'd29cf940acec75fa9c4bd8a1e6665750'
p579
sg105
S'd66df202e96c4b2a19fe0df0f37d843c'
p580
sg107
(lp581
g515
ag522
ag529
ag536
ag543
ag550
ag557
ag564
asg109
Nsba(ibclass
BBasicBlock
p582
(dp583
g12
Nsg13
(lp584
(ibclass
BInstr
p585
(dp586
g2
Nsg17
S'mov     eax, [ebp+col]'
p587
sg19
S'8b45f4'
p588
sg21
Vmov eax, dword ptr [ebp - 0xc]
p589
sg5
L135065729L
sg6
Nsg23
S'mov'
p590
sg25
S'0x80cf081L'
p591
sg27
Nsba(ibclass
BInstr
p592
(dp593
g2
Nsg17
S'inc     eax'
p594
sg19
S'40'
p595
sg21
Vinc eax
p596
sg5
L135065732L
sg6
Nsg23
S'inc'
p597
sg25
S'0x80cf084L'
p598
sg27
Nsba(ibclass
BInstr
p599
(dp600
g2
Nsg17
S'mov     [ebp+ptr], eax'
p601
sg19
S'8945ec'
p602
sg21
Vmov dword ptr [ebp - 0x14], eax
p603
sg5
L135065733L
sg6
Nsg23
S'mov'
p604
sg25
S'0x80cf085L'
p605
sg27
Nsbasg84
(lp606
Vmov eax, mem
p607
ag596
aVmov mem, eax
p608
asg93
Nsg5
S'0x80cf081L'
p609
sg95
(lp610
S'0x80cf04cL'
p611
asg6
Nsg97
(lp612
S'0x80cf088L'
p613
asg101
Nsg102
Nsg103
S'c03093863c939f9b40d95b721c1adbf2'
p614
sg105
S'05a8d0678027938c714b97ab0a1ffa5e'
p615
sg107
(lp616
g590
ag597
ag604
asg109
Nsba(ibclass
BBasicBlock
p617
(dp618
g12
Nsg13
(lp619
(ibclass
BInstr
p620
(dp621
g2
Nsg17
S'cmp     [ebp+col], 0'
p622
sg19
S'837df400'
p623
sg21
Vcmp dword ptr [ebp - 0xc], 0
p624
sg5
L135065736L
sg6
Nsg23
S'cmp'
p625
sg25
S'0x80cf088L'
p626
sg27
Nsba(ibclass
BInstr
p627
(dp628
g2
Nsg17
S'jnz     loc_80CEFE7'
p629
sg19
S'0f8555ffffff'
p630
sg21
Vjne 0xffffff5b
p631
sg5
L135065740L
sg6
Nsg23
S'jnz'
p632
sg25
S'0x80cf08cL'
p633
sg27
Nsbasg84
(lp634
Vcmp mem, 0
p635
aVjne address
p636
asg93
Nsg5
S'0x80cf088L'
p637
sg95
(lp638
S'0x80cf034L'
p639
aS'0x80cf081L'
p640
asg6
Nsg97
(lp641
S'0x80cefe7L'
p642
aS'0x80cf092L'
p643
asg101
Nsg102
Nsg103
S'30cb3d6f6a174adfabcde507f6944a52'
p644
sg105
S'ac6a5deb49a2d2e7162632941da7e135'
p645
sg107
(lp646
g625
ag632
asg109
Nsba(ibclass
BBasicBlock
p647
(dp648
g12
Nsg13
(lp649
(ibclass
BInstr
p650
(dp651
g2
Nsg17
S'mov     eax, [ebp+out]'
p652
sg19
S'8b450c'
p653
sg21
Vmov eax, dword ptr [ebp + 0xc]
p654
sg5
L135065746L
sg6
Nsg23
S'mov'
p655
sg25
S'0x80cf092L'
p656
sg27
Nsba(ibclass
BInstr
p657
(dp658
g2
Nsg17
S'mov     edx, [ebp+profiles]'
p659
sg19
S'8b55f0'
p660
sg21
Vmov edx, dword ptr [ebp - 0x10]
p661
sg5
L135065749L
sg6
Nsg23
S'mov'
p662
sg25
S'0x80cf095L'
p663
sg27
Nsba(ibclass
BInstr
p664
(dp665
g2
Nsg17
S'mov     [eax], edx'
p666
sg19
S'8910'
p667
sg21
Vmov dword ptr [eax], edx
p668
sg5
L135065752L
sg6
Nsg23
S'mov'
p669
sg25
S'0x80cf098L'
p670
sg27
Nsba(ibclass
BInstr
p671
(dp672
g2
Nsg17
S'mov     eax, 0'
p673
sg19
S'b800000000'
p674
sg21
Vmov eax, 0
p675
sg5
L135065754L
sg6
Nsg23
S'mov'
p676
sg25
S'0x80cf09aL'
p677
sg27
Nsbasg84
(lp678
Vmov eax, mem
p679
aVmov edx, mem
p680
aVmov mem, edx
p681
ag675
asg93
Nsg5
S'0x80cf092L'
p682
sg95
(lp683
S'0x80cf088L'
p684
asg6
Nsg97
(lp685
S'0x80cf09fL'
p686
asg101
Nsg102
Nsg103
S'a7ed50a6d28be8041222ce9aca64dd18'
p687
sg105
S'0599ce199d28c47340d6bdf067847840'
p688
sg107
(lp689
g655
ag662
ag669
ag676
asg109
Nsba(ibclass
BBasicBlock
p690
(dp691
g12
Nsg13
(lp692
(ibclass
BInstr
p693
(dp694
g2
Nsg17
S'leave'
p695
sg19
S'c9'
p696
sg21
Vleave 
p697
sg5
L135065759L
sg6
Nsg23
S'leave'
p698
sg25
S'0x80cf09fL'
p699
sg27
Nsba(ibclass
BInstr
p700
(dp701
g2
Nsg17
S'retn'
p702
sg19
S'c3'
p703
sg21
Vret 
p704
sg5
L135065760L
sg6
Nsg23
S'retn'
p705
sg25
S'0x80cf0a0L'
p706
sg27
Nsbasg84
(lp707
Vleave
p708
aVret
p709
asg93
Nsg5
S'0x80cf09fL'
p710
sg95
(lp711
S'0x80cefb1L'
p712
aS'0x80cf04eL'
p713
aS'0x80cf092L'
p714
asg6
Nsg97
(lp715
sg101
Nsg102
Nsg103
S'08c78f73a6f87c85da88b2982f54ce2a'
p716
sg105
S'393fee3c9fb1d26424d4b7704918e387'
p717
sg107
(lp718
g698
ag705
asg109
Nsbasb.