(ibclass
BFunc
p0
(dp1
S'hash'
p2
NsS'name'
p3
S'dtls1_process_buffered_records'
p4
sS'start_address'
p5
L135042926L
sS'flag'
p6
NsS'program'
p7
NsS'bbs'
p8
(lp9
(ibclass
BBasicBlock
p10
(dp11
S'function'
p12
NsS'binstrs'
p13
(lp14
(ibclass
BInstr
p15
(dp16
g2
NsS'disasm'
p17
S'push    ebp'
p18
sS'bytes'
p19
S'55'
p20
sS'disasm_striped'
p21
Vpush ebp
p22
sg5
L135042926L
sg6
NsS'mnem'
p23
S'push'
p24
sS'address'
p25
S'0x80c976eL'
p26
sS'basicblock'
p27
Nsba(ibclass
BInstr
p28
(dp29
g2
Nsg17
S'mov     ebp, esp'
p30
sg19
S'89e5'
p31
sg21
Vmov ebp, esp
p32
sg5
L135042927L
sg6
Nsg23
S'mov'
p33
sg25
S'0x80c976fL'
p34
sg27
Nsba(ibclass
BInstr
p35
(dp36
g2
Nsg17
S'sub     esp, 28h'
p37
sg19
S'83ec28'
p38
sg21
Vsub esp, 0x28
p39
sg5
L135042929L
sg6
Nsg23
S'sub'
p40
sg25
S'0x80c9771L'
p41
sg27
Nsba(ibclass
BInstr
p42
(dp43
g2
Nsg17
S'mov     eax, [ebp+s]'
p44
sg19
S'8b4508'
p45
sg21
Vmov eax, dword ptr [ebp + 8]
p46
sg5
L135042932L
sg6
Nsg23
S'mov'
p47
sg25
S'0x80c9774L'
p48
sg27
Nsba(ibclass
BInstr
p49
(dp50
g2
Nsg17
S'mov     eax, [eax+5Ch]'
p51
sg19
S'8b405c'
p52
sg21
Vmov eax, dword ptr [eax + 0x5c]
p53
sg5
L135042935L
sg6
Nsg23
S'mov'
p54
sg25
S'0x80c9777L'
p55
sg27
Nsba(ibclass
BInstr
p56
(dp57
g2
Nsg17
S'mov     eax, [eax+238h]'
p58
sg19
S'8b8038020000'
p59
sg21
Vmov eax, dword ptr [eax + 0x238]
p60
sg5
L135042938L
sg6
Nsg23
S'mov'
p61
sg25
S'0x80c977aL'
p62
sg27
Nsba(ibclass
BInstr
p63
(dp64
g2
Nsg17
S'mov     [esp], eax      ; pq'
p65
sg19
S'890424'
p66
sg21
Vmov dword ptr [esp], eax
p67
sg5
L135042944L
sg6
Nsg23
S'mov'
p68
sg25
S'0x80c9780L'
p69
sg27
Nsba(ibclass
BInstr
p70
(dp71
g2
Nsg17
S'call    pqueue_peek'
p72
sg19
S'e80c700d00'
p73
sg21
Vcall 0xd7011
p74
sg5
L135042947L
sg6
Nsg23
S'call'
p75
sg25
S'0x80c9783L'
p76
sg27
Nsba(ibclass
BInstr
p77
(dp78
g2
Nsg17
S'mov     [ebp+item], eax'
p79
sg19
S'8945f4'
p80
sg21
Vmov dword ptr [ebp - 0xc], eax
p81
sg5
L135042952L
sg6
Nsg23
S'mov'
p82
sg25
S'0x80c9788L'
p83
sg27
Nsba(ibclass
BInstr
p84
(dp85
g2
Nsg17
S'cmp     [ebp+item], 0'
p86
sg19
S'837df400'
p87
sg21
Vcmp dword ptr [ebp - 0xc], 0
p88
sg5
L135042955L
sg6
Nsg23
S'cmp'
p89
sg25
S'0x80c978bL'
p90
sg27
Nsba(ibclass
BInstr
p91
(dp92
g2
Nsg17
S'jz      loc_80C9830'
p93
sg19
S'0f849b000000'
p94
sg21
Vje 0xa1
p95
sg5
L135042959L
sg6
Nsg23
S'jz'
p96
sg25
S'0x80c978fL'
p97
sg27
NsbasS'disasm_list'
p98
(lp99
g22
ag32
aVsub esp, address
p100
aVmov eax, mem
p101
aVmov eax, mem
p102
aVmov eax, mem
p103
aVmov mem, eax
p104
aVcall address
p105
aVmov mem, eax
p106
aVcmp mem, 0
p107
aVje address
p108
asS'end_address'
p109
Nsg5
S'0x80c976eL'
p110
sS'preds'
p111
(lp112
sg6
NsS'succs'
p113
(lp114
S'0x80c9795L'
p115
aS'0x80c9830L'
p116
asS'hash_v3'
p117
NsS'flag_v2'
p118
NsS'hash_v1'
p119
S'261cd20d06e2dea459793479f5ab24af'
p120
sS'hash_v2'
p121
S'02f5525bfeb8495fd59f23df4e09a11c'
p122
sS'mnen_list'
p123
(lp124
g24
ag33
ag40
ag47
ag54
ag61
ag68
ag75
ag82
ag89
ag96
asS'neighbour_disasm_list'
p125
Nsba(ibclass
BBasicBlock
p126
(dp127
g12
Nsg13
(lp128
(ibclass
BInstr
p129
(dp130
g2
Nsg17
S'mov     eax, [ebp+s]'
p131
sg19
S'8b4508'
p132
sg21
Vmov eax, dword ptr [ebp + 8]
p133
sg5
L135042965L
sg6
Nsg23
S'mov'
p134
sg25
S'0x80c9795L'
p135
sg27
Nsba(ibclass
BInstr
p136
(dp137
g2
Nsg17
S'mov     eax, [eax+5Ch]'
p138
sg19
S'8b405c'
p139
sg21
Vmov eax, dword ptr [eax + 0x5c]
p140
sg5
L135042968L
sg6
Nsg23
S'mov'
p141
sg25
S'0x80c9798L'
p142
sg27
Nsba(ibclass
BInstr
p143
(dp144
g2
Nsg17
S'mov     edx, [eax+234h]'
p145
sg19
S'8b9034020000'
p146
sg21
Vmov edx, dword ptr [eax + 0x234]
p147
sg5
L135042971L
sg6
Nsg23
S'mov'
p148
sg25
S'0x80c979bL'
p149
sg27
Nsba(ibclass
BInstr
p150
(dp151
g2
Nsg17
S'mov     eax, [ebp+s]'
p152
sg19
S'8b4508'
p153
sg21
Vmov eax, dword ptr [ebp + 8]
p154
sg5
L135042977L
sg6
Nsg23
S'mov'
p155
sg25
S'0x80c97a1L'
p156
sg27
Nsba(ibclass
BInstr
p157
(dp158
g2
Nsg17
S'mov     eax, [eax+5Ch]'
p159
sg19
S'8b405c'
p160
sg21
Vmov eax, dword ptr [eax + 0x5c]
p161
sg5
L135042980L
sg6
Nsg23
S'mov'
p162
sg25
S'0x80c97a4L'
p163
sg27
Nsba(ibclass
BInstr
p164
(dp165
g2
Nsg17
S'mov     eax, [eax+208h]'
p166
sg19
S'8b8008020000'
p167
sg21
Vmov eax, dword ptr [eax + 0x208]
p168
sg5
L135042983L
sg6
Nsg23
S'mov'
p169
sg25
S'0x80c97a7L'
p170
sg27
Nsba(ibclass
BInstr
p171
(dp172
g2
Nsg17
S'cmp     dx, ax'
p173
sg19
S'6639c2'
p174
sg21
Vcmp dx, ax
p175
sg5
L135042989L
sg6
Nsg23
S'cmp'
p176
sg25
S'0x80c97adL'
p177
sg27
Nsba(ibclass
BInstr
p178
(dp179
g2
Nsg17
S'jz      short loc_80C97BC'
p180
sg19
S'740a'
p181
sg21
Vje 0xc
p182
sg5
L135042992L
sg6
Nsg23
S'jz'
p183
sg25
S'0x80c97b0L'
p184
sg27
Nsbasg98
(lp185
Vmov eax, mem
p186
aVmov eax, mem
p187
aVmov edx, mem
p188
aVmov eax, mem
p189
aVmov eax, mem
p190
aVmov eax, mem
p191
ag175
aVje address
p192
asg109
Nsg5
S'0x80c9795L'
p193
sg111
(lp194
S'0x80c976eL'
p195
asg6
Nsg113
(lp196
S'0x80c97b2L'
p197
aS'0x80c97bcL'
p198
asg117
Nsg118
Nsg119
S'b4680a8b4a51d3cae4ef142e18eb9449'
p199
sg121
S'4399b9b5e6e42126587df7e38d909057'
p200
sg123
(lp201
g134
ag141
ag148
ag155
ag162
ag169
ag176
ag183
asg125
Nsba(ibclass
BBasicBlock
p202
(dp203
g12
Nsg13
(lp204
(ibclass
BInstr
p205
(dp206
g2
Nsg17
S'mov     eax, 1'
p207
sg19
S'b801000000'
p208
sg21
Vmov eax, 1
p209
sg5
L135042994L
sg6
Nsg23
S'mov'
p210
sg25
S'0x80c97b2L'
p211
sg27
Nsba(ibclass
BInstr
p212
(dp213
g2
Nsg17
S'jmp     locret_80C9868'
p214
sg19
S'e9ac000000'
p215
sg21
Vjmp 0xb1
p216
sg5
L135042999L
sg6
Nsg23
S'jmp'
p217
sg25
S'0x80c97b7L'
p218
sg27
Nsbasg98
(lp219
g209
aVjmp address
p220
asg109
Nsg5
S'0x80c97b2L'
p221
sg111
(lp222
S'0x80c9795L'
p223
asg6
Nsg113
(lp224
S'0x80c9868L'
p225
asg117
Nsg118
Nsg119
S'8b9a0d40e062be2b9b2d9885108fb196'
p226
sg121
S'676f521d4439f5b3a7b4f69705213da3'
p227
sg123
(lp228
g210
ag217
asg125
Nsba(ibclass
BBasicBlock
p229
(dp230
g12
Nsg13
(lp231
(ibclass
BInstr
p232
(dp233
g2
Nsg17
S'jmp     short loc_80C9818'
p234
sg19
S'eb5a'
p235
sg21
Vjmp 0x5c
p236
sg5
L135043004L
sg6
Nsg23
S'jmp'
p237
sg25
S'0x80c97bcL'
p238
sg27
Nsbasg98
(lp239
Vjmp address
p240
asg109
Nsg5
S'0x80c97bcL'
p241
sg111
(lp242
S'0x80c9795L'
p243
asg6
Nsg113
(lp244
S'0x80c9818L'
p245
asg117
Nsg118
Nsg119
S'0ef6cf926f2f394b0cc8e11be8022625'
p246
sg121
S'd4372e4caa7348928655251605aa7329'
p247
sg123
(lp248
g237
asg125
Nsba(ibclass
BBasicBlock
p249
(dp250
g12
Nsg13
(lp251
(ibclass
BInstr
p252
(dp253
g2
Nsg17
S'mov     eax, [ebp+s]'
p254
sg19
S'8b4508'
p255
sg21
Vmov eax, dword ptr [ebp + 8]
p256
sg5
L135043006L
sg6
Nsg23
S'mov'
p257
sg25
S'0x80c97beL'
p258
sg27
Nsba(ibclass
BInstr
p259
(dp260
g2
Nsg17
S'mov     eax, [eax+5Ch]'
p261
sg19
S'8b405c'
p262
sg21
Vmov eax, dword ptr [eax + 0x5c]
p263
sg5
L135043009L
sg6
Nsg23
S'mov'
p264
sg25
S'0x80c97c1L'
p265
sg27
Nsba(ibclass
BInstr
p266
(dp267
g2
Nsg17
S'add     eax, 234h'
p268
sg19
S'0534020000'
p269
sg21
Vadd eax, 0x234
p270
sg5
L135043012L
sg6
Nsg23
S'add'
p271
sg25
S'0x80c97c4L'
p272
sg27
Nsba(ibclass
BInstr
p273
(dp274
g2
Nsg17
S'mov     [esp+4], eax    ; queue'
p275
sg19
S'89442404'
p276
sg21
Vmov dword ptr [esp + 4], eax
p277
sg5
L135043017L
sg6
Nsg23
S'mov'
p278
sg25
S'0x80c97c9L'
p279
sg27
Nsba(ibclass
BInstr
p280
(dp281
g2
Nsg17
S'mov     eax, [ebp+s]'
p282
sg19
S'8b4508'
p283
sg21
Vmov eax, dword ptr [ebp + 8]
p284
sg5
L135043021L
sg6
Nsg23
S'mov'
p285
sg25
S'0x80c97cdL'
p286
sg27
Nsba(ibclass
BInstr
p287
(dp288
g2
Nsg17
S'mov     [esp], eax      ; s'
p289
sg19
S'890424'
p290
sg21
Vmov dword ptr [esp], eax
p291
sg5
L135043024L
sg6
Nsg23
S'mov'
p292
sg25
S'0x80c97d0L'
p293
sg27
Nsba(ibclass
BInstr
p294
(dp295
g2
Nsg17
S'call    dtls1_retrieve_buffered_record'
p296
sg19
S'e840ffffff'
p297
sg21
Vcall 0xffffff45
p298
sg5
L135043027L
sg6
Nsg23
S'call'
p299
sg25
S'0x80c97d3L'
p300
sg27
Nsba(ibclass
BInstr
p301
(dp302
g2
Nsg17
S'mov     eax, [ebp+s]'
p303
sg19
S'8b4508'
p304
sg21
Vmov eax, dword ptr [ebp + 8]
p305
sg5
L135043032L
sg6
Nsg23
S'mov'
p306
sg25
S'0x80c97d8L'
p307
sg27
Nsba(ibclass
BInstr
p308
(dp309
g2
Nsg17
S'mov     [esp], eax      ; s'
p310
sg19
S'890424'
p311
sg21
Vmov dword ptr [esp], eax
p312
sg5
L135043035L
sg6
Nsg23
S'mov'
p313
sg25
S'0x80c97dbL'
p314
sg27
Nsba(ibclass
BInstr
p315
(dp316
g2
Nsg17
S'call    dtls1_process_record'
p317
sg19
S'e887000000'
p318
sg21
Vcall 0x8c
p319
sg5
L135043038L
sg6
Nsg23
S'call'
p320
sg25
S'0x80c97deL'
p321
sg27
Nsba(ibclass
BInstr
p322
(dp323
g2
Nsg17
S'test    eax, eax'
p324
sg19
S'85c0'
p325
sg21
Vtest eax, eax
p326
sg5
L135043043L
sg6
Nsg23
S'test'
p327
sg25
S'0x80c97e3L'
p328
sg27
Nsba(ibclass
BInstr
p329
(dp330
g2
Nsg17
S'jnz     short loc_80C97EE'
p331
sg19
S'7507'
p332
sg21
Vjne 9
p333
sg5
L135043045L
sg6
Nsg23
S'jnz'
p334
sg25
S'0x80c97e5L'
p335
sg27
Nsbasg98
(lp336
Vmov eax, mem
p337
aVmov eax, mem
p338
aVadd eax, address
p339
aVmov mem, eax
p340
aVmov eax, mem
p341
aVmov mem, eax
p342
aVcall address
p343
aVmov eax, mem
p344
aVmov mem, eax
p345
aVcall address
p346
ag326
ag333
asg109
Nsg5
S'0x80c97beL'
p347
sg111
(lp348
S'0x80c9818L'
p349
asg6
Nsg113
(lp350
S'0x80c97e7L'
p351
aS'0x80c97eeL'
p352
asg117
Nsg118
Nsg119
S'982f0317e5defcdf7413f725bf26541f'
p353
sg121
S'4d80d1510e1f13fe516b4905a5e48125'
p354
sg123
(lp355
g257
ag264
ag271
ag278
ag285
ag292
ag299
ag306
ag313
ag320
ag327
ag334
asg125
Nsba(ibclass
BBasicBlock
p356
(dp357
g12
Nsg13
(lp358
(ibclass
BInstr
p359
(dp360
g2
Nsg17
S'mov     eax, 0'
p361
sg19
S'b800000000'
p362
sg21
Vmov eax, 0
p363
sg5
L135043047L
sg6
Nsg23
S'mov'
p364
sg25
S'0x80c97e7L'
p365
sg27
Nsba(ibclass
BInstr
p366
(dp367
g2
Nsg17
S'jmp     short locret_80C9868'
p368
sg19
S'eb7a'
p369
sg21
Vjmp 0x7c
p370
sg5
L135043052L
sg6
Nsg23
S'jmp'
p371
sg25
S'0x80c97ecL'
p372
sg27
Nsbasg98
(lp373
g363
aVjmp address
p374
asg109
Nsg5
S'0x80c97e7L'
p375
sg111
(lp376
S'0x80c97beL'
p377
asg6
Nsg113
(lp378
S'0x80c9868L'
p379
asg117
Nsg118
Nsg119
S'8b9a0d40e062be2b9b2d9885108fb196'
p380
sg121
S'bfbe752dd865c9a89011ba470eab331d'
p381
sg123
(lp382
g364
ag371
asg125
Nsba(ibclass
BBasicBlock
p383
(dp384
g12
Nsg13
(lp385
(ibclass
BInstr
p386
(dp387
g2
Nsg17
S'mov     eax, [ebp+s]'
p388
sg19
S'8b4508'
p389
sg21
Vmov eax, dword ptr [ebp + 8]
p390
sg5
L135043054L
sg6
Nsg23
S'mov'
p391
sg25
S'0x80c97eeL'
p392
sg27
Nsba(ibclass
BInstr
p393
(dp394
g2
Nsg17
S'mov     eax, [eax+58h]'
p395
sg19
S'8b4058'
p396
sg21
Vmov eax, dword ptr [eax + 0x58]
p397
sg5
L135043057L
sg6
Nsg23
S'mov'
p398
sg25
S'0x80c97f1L'
p399
sg27
Nsba(ibclass
BInstr
p400
(dp401
g2
Nsg17
S'lea     edx, [eax+128h]'
p402
sg19
S'8d9028010000'
p403
sg21
Vlea edx, [eax + 0x128]
p404
sg5
L135043060L
sg6
Nsg23
S'lea'
p405
sg25
S'0x80c97f4L'
p406
sg27
Nsba(ibclass
BInstr
p407
(dp408
g2
Nsg17
S'mov     eax, [ebp+s]'
p409
sg19
S'8b4508'
p410
sg21
Vmov eax, dword ptr [ebp + 8]
p411
sg5
L135043066L
sg6
Nsg23
S'mov'
p412
sg25
S'0x80c97faL'
p413
sg27
Nsba(ibclass
BInstr
p414
(dp415
g2
Nsg17
S'mov     eax, [eax+5Ch]'
p416
sg19
S'8b405c'
p417
sg21
Vmov eax, dword ptr [eax + 0x5c]
p418
sg5
L135043069L
sg6
Nsg23
S'mov'
p419
sg25
S'0x80c97fdL'
p420
sg27
Nsba(ibclass
BInstr
p421
(dp422
g2
Nsg17
S'add     eax, 23Ch'
p423
sg19
S'053c020000'
p424
sg21
Vadd eax, 0x23c
p425
sg5
L135043072L
sg6
Nsg23
S'add'
p426
sg25
S'0x80c9800L'
p427
sg27
Nsba(ibclass
BInstr
p428
(dp429
g2
Nsg17
S'mov     [esp+8], edx    ; priority'
p430
sg19
S'89542408'
p431
sg21
Vmov dword ptr [esp + 8], edx
p432
sg5
L135043077L
sg6
Nsg23
S'mov'
p433
sg25
S'0x80c9805L'
p434
sg27
Nsba(ibclass
BInstr
p435
(dp436
g2
Nsg17
S'mov     [esp+4], eax    ; queue'
p437
sg19
S'89442404'
p438
sg21
Vmov dword ptr [esp + 4], eax
p439
sg5
L135043081L
sg6
Nsg23
S'mov'
p440
sg25
S'0x80c9809L'
p441
sg27
Nsba(ibclass
BInstr
p442
(dp443
g2
Nsg17
S'mov     eax, [ebp+s]'
p444
sg19
S'8b4508'
p445
sg21
Vmov eax, dword ptr [ebp + 8]
p446
sg5
L135043085L
sg6
Nsg23
S'mov'
p447
sg25
S'0x80c980dL'
p448
sg27
Nsba(ibclass
BInstr
p449
(dp450
g2
Nsg17
S'mov     [esp], eax      ; s'
p451
sg19
S'890424'
p452
sg21
Vmov dword ptr [esp], eax
p453
sg5
L135043088L
sg6
Nsg23
S'mov'
p454
sg25
S'0x80c9810L'
p455
sg27
Nsba(ibclass
BInstr
p456
(dp457
g2
Nsg17
S'call    dtls1_buffer_record'
p458
sg19
S'e8e7fcffff'
p459
sg21
Vcall 0xfffffcec
p460
sg5
L135043091L
sg6
Nsg23
S'call'
p461
sg25
S'0x80c9813L'
p462
sg27
Nsbasg98
(lp463
Vmov eax, mem
p464
aVmov eax, mem
p465
aVlea edx, mem
p466
aVmov eax, mem
p467
aVmov eax, mem
p468
aVadd eax, address
p469
aVmov mem, edx
p470
aVmov mem, eax
p471
aVmov eax, mem
p472
aVmov mem, eax
p473
aVcall address
p474
asg109
Nsg5
S'0x80c97eeL'
p475
sg111
(lp476
S'0x80c97beL'
p477
asg6
Nsg113
(lp478
S'0x80c9818L'
p479
asg117
Nsg118
Nsg119
S'c1f1cc6017e7f764128484f15726c559'
p480
sg121
S'b3b5ce72a37740541f5debb65dd10334'
p481
sg123
(lp482
g391
ag398
ag405
ag412
ag419
ag426
ag433
ag440
ag447
ag454
ag461
asg125
Nsba(ibclass
BBasicBlock
p483
(dp484
g12
Nsg13
(lp485
(ibclass
BInstr
p486
(dp487
g2
Nsg17
S'mov     eax, [ebp+s]'
p488
sg19
S'8b4508'
p489
sg21
Vmov eax, dword ptr [ebp + 8]
p490
sg5
L135043096L
sg6
Nsg23
S'mov'
p491
sg25
S'0x80c9818L'
p492
sg27
Nsba(ibclass
BInstr
p493
(dp494
g2
Nsg17
S'mov     eax, [eax+5Ch]'
p495
sg19
S'8b405c'
p496
sg21
Vmov eax, dword ptr [eax + 0x5c]
p497
sg5
L135043099L
sg6
Nsg23
S'mov'
p498
sg25
S'0x80c981bL'
p499
sg27
Nsba(ibclass
BInstr
p500
(dp501
g2
Nsg17
S'mov     eax, [eax+238h]'
p502
sg19
S'8b8038020000'
p503
sg21
Vmov eax, dword ptr [eax + 0x238]
p504
sg5
L135043102L
sg6
Nsg23
S'mov'
p505
sg25
S'0x80c981eL'
p506
sg27
Nsba(ibclass
BInstr
p507
(dp508
g2
Nsg17
S'mov     [esp], eax      ; pq'
p509
sg19
S'890424'
p510
sg21
Vmov dword ptr [esp], eax
p511
sg5
L135043108L
sg6
Nsg23
S'mov'
p512
sg25
S'0x80c9824L'
p513
sg27
Nsba(ibclass
BInstr
p514
(dp515
g2
Nsg17
S'call    pqueue_peek'
p516
sg19
S'e8686f0d00'
p517
sg21
Vcall 0xd6f6d
p518
sg5
L135043111L
sg6
Nsg23
S'call'
p519
sg25
S'0x80c9827L'
p520
sg27
Nsba(ibclass
BInstr
p521
(dp522
g2
Nsg17
S'test    eax, eax'
p523
sg19
S'85c0'
p524
sg21
Vtest eax, eax
p525
sg5
L135043116L
sg6
Nsg23
S'test'
p526
sg25
S'0x80c982cL'
p527
sg27
Nsba(ibclass
BInstr
p528
(dp529
g2
Nsg17
S'jnz     short loc_80C97BE'
p530
sg19
S'758e'
p531
sg21
Vjne 0xffffff90
p532
sg5
L135043118L
sg6
Nsg23
S'jnz'
p533
sg25
S'0x80c982eL'
p534
sg27
Nsbasg98
(lp535
Vmov eax, mem
p536
aVmov eax, mem
p537
aVmov eax, mem
p538
aVmov mem, eax
p539
aVcall address
p540
ag525
aVjne address
p541
asg109
Nsg5
S'0x80c9818L'
p542
sg111
(lp543
S'0x80c97bcL'
p544
aS'0x80c97eeL'
p545
asg6
Nsg113
(lp546
S'0x80c97beL'
p547
aS'0x80c9830L'
p548
asg117
Nsg118
Nsg119
S'4fdb5e075c27ab960b936dca7d27c4ac'
p549
sg121
S'cfac38f33126b063577b62c783ebba42'
p550
sg123
(lp551
g491
ag498
ag505
ag512
ag519
ag526
ag533
asg125
Nsba(ibclass
BBasicBlock
p552
(dp553
g12
Nsg13
(lp554
(ibclass
BInstr
p555
(dp556
g2
Nsg17
S'mov     eax, [ebp+s]'
p557
sg19
S'8b4508'
p558
sg21
Vmov eax, dword ptr [ebp + 8]
p559
sg5
L135043120L
sg6
Nsg23
S'mov'
p560
sg25
S'0x80c9830L'
p561
sg27
Nsba(ibclass
BInstr
p562
(dp563
g2
Nsg17
S'mov     edx, [eax+5Ch]'
p564
sg19
S'8b505c'
p565
sg21
Vmov edx, dword ptr [eax + 0x5c]
p566
sg5
L135043123L
sg6
Nsg23
S'mov'
p567
sg25
S'0x80c9833L'
p568
sg27
Nsba(ibclass
BInstr
p569
(dp570
g2
Nsg17
S'mov     eax, [ebp+s]'
p571
sg19
S'8b4508'
p572
sg21
Vmov eax, dword ptr [ebp + 8]
p573
sg5
L135043126L
sg6
Nsg23
S'mov'
p574
sg25
S'0x80c9836L'
p575
sg27
Nsba(ibclass
BInstr
p576
(dp577
g2
Nsg17
S'mov     eax, [eax+5Ch]'
p578
sg19
S'8b405c'
p579
sg21
Vmov eax, dword ptr [eax + 0x5c]
p580
sg5
L135043129L
sg6
Nsg23
S'mov'
p581
sg25
S'0x80c9839L'
p582
sg27
Nsba(ibclass
BInstr
p583
(dp584
g2
Nsg17
S'mov     eax, [eax+208h]'
p585
sg19
S'8b8008020000'
p586
sg21
Vmov eax, dword ptr [eax + 0x208]
p587
sg5
L135043132L
sg6
Nsg23
S'mov'
p588
sg25
S'0x80c983cL'
p589
sg27
Nsba(ibclass
BInstr
p590
(dp591
g2
Nsg17
S'mov     [edx+23Ch], ax'
p592
sg19
S'6689823c020000'
p593
sg21
Vmov word ptr [edx + 0x23c], ax
p594
sg5
L135043138L
sg6
Nsg23
S'mov'
p595
sg25
S'0x80c9842L'
p596
sg27
Nsba(ibclass
BInstr
p597
(dp598
g2
Nsg17
S'mov     eax, [ebp+s]'
p599
sg19
S'8b4508'
p600
sg21
Vmov eax, dword ptr [ebp + 8]
p601
sg5
L135043145L
sg6
Nsg23
S'mov'
p602
sg25
S'0x80c9849L'
p603
sg27
Nsba(ibclass
BInstr
p604
(dp605
g2
Nsg17
S'mov     edx, [eax+5Ch]'
p606
sg19
S'8b505c'
p607
sg21
Vmov edx, dword ptr [eax + 0x5c]
p608
sg5
L135043148L
sg6
Nsg23
S'mov'
p609
sg25
S'0x80c984cL'
p610
sg27
Nsba(ibclass
BInstr
p611
(dp612
g2
Nsg17
S'mov     eax, [ebp+s]'
p613
sg19
S'8b4508'
p614
sg21
Vmov eax, dword ptr [ebp + 8]
p615
sg5
L135043151L
sg6
Nsg23
S'mov'
p616
sg25
S'0x80c984fL'
p617
sg27
Nsba(ibclass
BInstr
p618
(dp619
g2
Nsg17
S'mov     eax, [eax+5Ch]'
p620
sg19
S'8b405c'
p621
sg21
Vmov eax, dword ptr [eax + 0x5c]
p622
sg5
L135043154L
sg6
Nsg23
S'mov'
p623
sg25
S'0x80c9852L'
p624
sg27
Nsba(ibclass
BInstr
p625
(dp626
g2
Nsg17
S'mov     eax, [eax+208h]'
p627
sg19
S'8b8008020000'
p628
sg21
Vmov eax, dword ptr [eax + 0x208]
p629
sg5
L135043157L
sg6
Nsg23
S'mov'
p630
sg25
S'0x80c9855L'
p631
sg27
Nsba(ibclass
BInstr
p632
(dp633
g2
Nsg17
S'inc     eax'
p634
sg19
S'40'
p635
sg21
Vinc eax
p636
sg5
L135043163L
sg6
Nsg23
S'inc'
p637
sg25
S'0x80c985bL'
p638
sg27
Nsba(ibclass
BInstr
p639
(dp640
g2
Nsg17
S'mov     [edx+234h], ax'
p641
sg19
S'66898234020000'
p642
sg21
Vmov word ptr [edx + 0x234], ax
p643
sg5
L135043164L
sg6
Nsg23
S'mov'
p644
sg25
S'0x80c985cL'
p645
sg27
Nsba(ibclass
BInstr
p646
(dp647
g2
Nsg17
S'mov     eax, 1'
p648
sg19
S'b801000000'
p649
sg21
Vmov eax, 1
p650
sg5
L135043171L
sg6
Nsg23
S'mov'
p651
sg25
S'0x80c9863L'
p652
sg27
Nsbasg98
(lp653
Vmov eax, mem
p654
aVmov edx, mem
p655
aVmov eax, mem
p656
aVmov eax, mem
p657
aVmov eax, mem
p658
aVmov mem, ax
p659
aVmov eax, mem
p660
aVmov edx, mem
p661
aVmov eax, mem
p662
aVmov eax, mem
p663
aVmov eax, mem
p664
ag636
aVmov mem, ax
p665
ag650
asg109
Nsg5
S'0x80c9830L'
p666
sg111
(lp667
S'0x80c976eL'
p668
aS'0x80c9818L'
p669
asg6
Nsg113
(lp670
S'0x80c9868L'
p671
asg117
Nsg118
Nsg119
S'8440a167c447e7edc690018c1434df04'
p672
sg121
S'624e77d718d93c6a3cdf5e1a5d7d985f'
p673
sg123
(lp674
g560
ag567
ag574
ag581
ag588
ag595
ag602
ag609
ag616
ag623
ag630
ag637
ag644
ag651
asg125
Nsba(ibclass
BBasicBlock
p675
(dp676
g12
Nsg13
(lp677
(ibclass
BInstr
p678
(dp679
g2
Nsg17
S'leave'
p680
sg19
S'c9'
p681
sg21
Vleave 
p682
sg5
L135043176L
sg6
Nsg23
S'leave'
p683
sg25
S'0x80c9868L'
p684
sg27
Nsba(ibclass
BInstr
p685
(dp686
g2
Nsg17
S'retn'
p687
sg19
S'c3'
p688
sg21
Vret 
p689
sg5
L135043177L
sg6
Nsg23
S'retn'
p690
sg25
S'0x80c9869L'
p691
sg27
Nsbasg98
(lp692
Vleave
p693
aVret
p694
asg109
Nsg5
S'0x80c9868L'
p695
sg111
(lp696
S'0x80c97b2L'
p697
aS'0x80c97e7L'
p698
aS'0x80c9830L'
p699
asg6
Nsg113
(lp700
sg117
Nsg118
Nsg119
S'08c78f73a6f87c85da88b2982f54ce2a'
p701
sg121
S'393fee3c9fb1d26424d4b7704918e387'
p702
sg123
(lp703
g683
ag690
asg125
Nsbasb.