(ibclass
BFunc
p0
(dp1
S'hash'
p2
NsS'name'
p3
S'i2c_ASN1_INTEGER'
p4
sS'start_address'
p5
L135587495L
sS'flag'
p6
NsS'program'
p7
NsS'bbs'
p8
(lp9
(ibclass
BBasicBlock
p10
(dp11
S'function'
p12
NsS'binstrs'
p13
(lp14
(ibclass
BInstr
p15
(dp16
g2
NsS'disasm'
p17
S'push    ebp'
p18
sS'bytes'
p19
S'55'
p20
sS'disasm_striped'
p21
Vpush ebp
p22
sg5
L135587495L
sg6
NsS'mnem'
p23
S'push'
p24
sS'address'
p25
S'0x814e6a7L'
p26
sS'basicblock'
p27
Nsba(ibclass
BInstr
p28
(dp29
g2
Nsg17
S'mov     ebp, esp'
p30
sg19
S'89e5'
p31
sg21
Vmov ebp, esp
p32
sg5
L135587496L
sg6
Nsg23
S'mov'
p33
sg25
S'0x814e6a8L'
p34
sg27
Nsba(ibclass
BInstr
p35
(dp36
g2
Nsg17
S'sub     esp, 38h'
p37
sg19
S'83ec38'
p38
sg21
Vsub esp, 0x38
p39
sg5
L135587498L
sg6
Nsg23
S'sub'
p40
sg25
S'0x814e6aaL'
p41
sg27
Nsba(ibclass
BInstr
p42
(dp43
g2
Nsg17
S'mov     [ebp+pad], 0'
p44
sg19
S'c745e000000000'
p45
sg21
Vmov dword ptr [ebp - 0x20], 0
p46
sg5
L135587501L
sg6
Nsg23
S'mov'
p47
sg25
S'0x814e6adL'
p48
sg27
Nsba(ibclass
BInstr
p49
(dp50
g2
Nsg17
S'mov     [ebp+pb], 0'
p51
sg19
S'c645df00'
p52
sg21
Vmov byte ptr [ebp - 0x21], 0
p53
sg5
L135587508L
sg6
Nsg23
S'mov'
p54
sg25
S'0x814e6b4L'
p55
sg27
Nsba(ibclass
BInstr
p56
(dp57
g2
Nsg17
S'cmp     [ebp+a], 0'
p58
sg19
S'837d0800'
p59
sg21
Vcmp dword ptr [ebp + 8], 0
p60
sg5
L135587512L
sg6
Nsg23
S'cmp'
p61
sg25
S'0x814e6b8L'
p62
sg27
Nsba(ibclass
BInstr
p63
(dp64
g2
Nsg17
S'jnz     short loc_814E6C8'
p65
sg19
S'750a'
p66
sg21
Vjne 0xc
p67
sg5
L135587516L
sg6
Nsg23
S'jnz'
p68
sg25
S'0x814e6bcL'
p69
sg27
NsbasS'disasm_list'
p70
(lp71
g22
ag32
aVsub esp, address
p72
aVmov mem, 0
p73
aVmov mem, 0
p74
aVcmp mem, 0
p75
aVjne address
p76
asS'end_address'
p77
Nsg5
S'0x814e6a7L'
p78
sS'preds'
p79
(lp80
sg6
NsS'succs'
p81
(lp82
S'0x814e6beL'
p83
aS'0x814e6c8L'
p84
asS'hash_v3'
p85
NsS'flag_v2'
p86
NsS'hash_v1'
p87
S'190746cc36f798dfde6210eda659205d'
p88
sS'hash_v2'
p89
S'85dc72e9845a1d4c3e39d75036bca053'
p90
sS'mnen_list'
p91
(lp92
g24
ag33
ag40
ag47
ag54
ag61
ag68
asS'neighbour_disasm_list'
p93
Nsba(ibclass
BBasicBlock
p94
(dp95
g12
Nsg13
(lp96
(ibclass
BInstr
p97
(dp98
g2
Nsg17
S'mov     eax, 0'
p99
sg19
S'b800000000'
p100
sg21
Vmov eax, 0
p101
sg5
L135587518L
sg6
Nsg23
S'mov'
p102
sg25
S'0x814e6beL'
p103
sg27
Nsba(ibclass
BInstr
p104
(dp105
g2
Nsg17
S'jmp     locret_814E876'
p106
sg19
S'e9ae010000'
p107
sg21
Vjmp 0x1b3
p108
sg5
L135587523L
sg6
Nsg23
S'jmp'
p109
sg25
S'0x814e6c3L'
p110
sg27
Nsbasg70
(lp111
g101
aVjmp address
p112
asg77
Nsg5
S'0x814e6beL'
p113
sg79
(lp114
S'0x814e6a7L'
p115
asg6
Nsg81
(lp116
S'0x814e876L'
p117
asg85
Nsg86
Nsg87
S'8b9a0d40e062be2b9b2d9885108fb196'
p118
sg89
S'bfbe752dd865c9a89011ba470eab331d'
p119
sg91
(lp120
g102
ag109
asg93
Nsba(ibclass
BBasicBlock
p121
(dp122
g12
Nsg13
(lp123
(ibclass
BInstr
p124
(dp125
g2
Nsg17
S'mov     eax, [ebp+a]'
p126
sg19
S'8b4508'
p127
sg21
Vmov eax, dword ptr [ebp + 8]
p128
sg5
L135587528L
sg6
Nsg23
S'mov'
p129
sg25
S'0x814e6c8L'
p130
sg27
Nsba(ibclass
BInstr
p131
(dp132
g2
Nsg17
S'mov     eax, [eax+4]'
p133
sg19
S'8b4004'
p134
sg21
Vmov eax, dword ptr [eax + 4]
p135
sg5
L135587531L
sg6
Nsg23
S'mov'
p136
sg25
S'0x814e6cbL'
p137
sg27
Nsba(ibclass
BInstr
p138
(dp139
g2
Nsg17
S'and     eax, 100h'
p140
sg19
S'2500010000'
p141
sg21
Vand eax, 0x100
p142
sg5
L135587534L
sg6
Nsg23
S'and'
p143
sg25
S'0x814e6ceL'
p144
sg27
Nsba(ibclass
BInstr
p145
(dp146
g2
Nsg17
S'mov     [ebp+neg], eax'
p147
sg19
S'8945f4'
p148
sg21
Vmov dword ptr [ebp - 0xc], eax
p149
sg5
L135587539L
sg6
Nsg23
S'mov'
p150
sg25
S'0x814e6d3L'
p151
sg27
Nsba(ibclass
BInstr
p152
(dp153
g2
Nsg17
S'mov     eax, [ebp+a]'
p154
sg19
S'8b4508'
p155
sg21
Vmov eax, dword ptr [ebp + 8]
p156
sg5
L135587542L
sg6
Nsg23
S'mov'
p157
sg25
S'0x814e6d6L'
p158
sg27
Nsba(ibclass
BInstr
p159
(dp160
g2
Nsg17
S'mov     eax, [eax]'
p161
sg19
S'8b00'
p162
sg21
Vmov eax, dword ptr [eax]
p163
sg5
L135587545L
sg6
Nsg23
S'mov'
p164
sg25
S'0x814e6d9L'
p165
sg27
Nsba(ibclass
BInstr
p166
(dp167
g2
Nsg17
S'test    eax, eax'
p168
sg19
S'85c0'
p169
sg21
Vtest eax, eax
p170
sg5
L135587547L
sg6
Nsg23
S'test'
p171
sg25
S'0x814e6dbL'
p172
sg27
Nsba(ibclass
BInstr
p173
(dp174
g2
Nsg17
S'jnz     short loc_814E6EB'
p175
sg19
S'750c'
p176
sg21
Vjne 0xe
p177
sg5
L135587549L
sg6
Nsg23
S'jnz'
p178
sg25
S'0x814e6ddL'
p179
sg27
Nsbasg70
(lp180
Vmov eax, mem
p181
aVmov eax, mem
p182
aVand eax, address
p183
aVmov mem, eax
p184
aVmov eax, mem
p185
aVmov eax, mem
p186
ag170
aVjne address
p187
asg77
Nsg5
S'0x814e6c8L'
p188
sg79
(lp189
S'0x814e6a7L'
p190
asg6
Nsg81
(lp191
S'0x814e6dfL'
p192
aS'0x814e6ebL'
p193
asg85
Nsg86
Nsg87
S'5b7fba86942b9135d2c3075246814c5a'
p194
sg89
S'0bbbdbfa98b2e8ea413520f33c635894'
p195
sg91
(lp196
g129
ag136
ag143
ag150
ag157
ag164
ag171
ag178
asg93
Nsba(ibclass
BBasicBlock
p197
(dp198
g12
Nsg13
(lp199
(ibclass
BInstr
p200
(dp201
g2
Nsg17
S'mov     [ebp+ret], 1'
p202
sg19
S'c745e401000000'
p203
sg21
Vmov dword ptr [ebp - 0x1c], 1
p204
sg5
L135587551L
sg6
Nsg23
S'mov'
p205
sg25
S'0x814e6dfL'
p206
sg27
Nsba(ibclass
BInstr
p207
(dp208
g2
Nsg17
S'jmp     loc_814E77B'
p209
sg19
S'e990000000'
p210
sg21
Vjmp 0x95
p211
sg5
L135587558L
sg6
Nsg23
S'jmp'
p212
sg25
S'0x814e6e6L'
p213
sg27
Nsbasg70
(lp214
Vmov mem, 1
p215
aVjmp address
p216
asg77
Nsg5
S'0x814e6dfL'
p217
sg79
(lp218
S'0x814e6c8L'
p219
asg6
Nsg81
(lp220
S'0x814e77bL'
p221
asg85
Nsg86
Nsg87
S'8b9a0d40e062be2b9b2d9885108fb196'
p222
sg89
S'f312af69049dfec09c806723f579eb15'
p223
sg91
(lp224
g205
ag212
asg93
Nsba(ibclass
BBasicBlock
p225
(dp226
g12
Nsg13
(lp227
(ibclass
BInstr
p228
(dp229
g2
Nsg17
S'mov     eax, [ebp+a]'
p230
sg19
S'8b4508'
p231
sg21
Vmov eax, dword ptr [ebp + 8]
p232
sg5
L135587563L
sg6
Nsg23
S'mov'
p233
sg25
S'0x814e6ebL'
p234
sg27
Nsba(ibclass
BInstr
p235
(dp236
g2
Nsg17
S'mov     eax, [eax]'
p237
sg19
S'8b00'
p238
sg21
Vmov eax, dword ptr [eax]
p239
sg5
L135587566L
sg6
Nsg23
S'mov'
p240
sg25
S'0x814e6eeL'
p241
sg27
Nsba(ibclass
BInstr
p242
(dp243
g2
Nsg17
S'mov     [ebp+ret], eax'
p244
sg19
S'8945e4'
p245
sg21
Vmov dword ptr [ebp - 0x1c], eax
p246
sg5
L135587568L
sg6
Nsg23
S'mov'
p247
sg25
S'0x814e6f0L'
p248
sg27
Nsba(ibclass
BInstr
p249
(dp250
g2
Nsg17
S'mov     eax, [ebp+a]'
p251
sg19
S'8b4508'
p252
sg21
Vmov eax, dword ptr [ebp + 8]
p253
sg5
L135587571L
sg6
Nsg23
S'mov'
p254
sg25
S'0x814e6f3L'
p255
sg27
Nsba(ibclass
BInstr
p256
(dp257
g2
Nsg17
S'mov     eax, [eax+8]'
p258
sg19
S'8b4008'
p259
sg21
Vmov eax, dword ptr [eax + 8]
p260
sg5
L135587574L
sg6
Nsg23
S'mov'
p261
sg25
S'0x814e6f6L'
p262
sg27
Nsba(ibclass
BInstr
p263
(dp264
g2
Nsg17
S'mov     al, [eax]'
p265
sg19
S'8a00'
p266
sg21
Vmov al, byte ptr [eax]
p267
sg5
L135587577L
sg6
Nsg23
S'mov'
p268
sg25
S'0x814e6f9L'
p269
sg27
Nsba(ibclass
BInstr
p270
(dp271
g2
Nsg17
S'and     eax, 0FFh'
p272
sg19
S'25ff000000'
p273
sg21
Vand eax, 0xff
p274
sg5
L135587579L
sg6
Nsg23
S'and'
p275
sg25
S'0x814e6fbL'
p276
sg27
Nsba(ibclass
BInstr
p277
(dp278
g2
Nsg17
S'mov     [ebp+i], eax'
p279
sg19
S'8945e8'
p280
sg21
Vmov dword ptr [ebp - 0x18], eax
p281
sg5
L135587584L
sg6
Nsg23
S'mov'
p282
sg25
S'0x814e700L'
p283
sg27
Nsba(ibclass
BInstr
p284
(dp285
g2
Nsg17
S'cmp     [ebp+neg], 0'
p286
sg19
S'837df400'
p287
sg21
Vcmp dword ptr [ebp - 0xc], 0
p288
sg5
L135587587L
sg6
Nsg23
S'cmp'
p289
sg25
S'0x814e703L'
p290
sg27
Nsba(ibclass
BInstr
p291
(dp292
g2
Nsg17
S'jnz     short loc_814E71C'
p293
sg19
S'7513'
p294
sg21
Vjne 0x15
p295
sg5
L135587591L
sg6
Nsg23
S'jnz'
p296
sg25
S'0x814e707L'
p297
sg27
Nsbasg70
(lp298
Vmov eax, mem
p299
aVmov eax, mem
p300
aVmov mem, eax
p301
aVmov eax, mem
p302
aVmov eax, mem
p303
aVmov al, mem
p304
aVand eax, address
p305
aVmov mem, eax
p306
aVcmp mem, 0
p307
aVjne address
p308
asg77
Nsg5
S'0x814e6ebL'
p309
sg79
(lp310
S'0x814e6c8L'
p311
asg6
Nsg81
(lp312
S'0x814e709L'
p313
aS'0x814e71cL'
p314
asg85
Nsg86
Nsg87
S'7102addd8bcff3202c842ec6da4c8c30'
p315
sg89
S'4973a4d7bef56ae3e8a1fc59ae0917ea'
p316
sg91
(lp317
g233
ag240
ag247
ag254
ag261
ag268
ag275
ag282
ag289
ag296
asg93
Nsba(ibclass
BBasicBlock
p318
(dp319
g12
Nsg13
(lp320
(ibclass
BInstr
p321
(dp322
g2
Nsg17
S'cmp     [ebp+i], 7Fh'
p323
sg19
S'837de87f'
p324
sg21
Vcmp dword ptr [ebp - 0x18], 0x7f
p325
sg5
L135587593L
sg6
Nsg23
S'cmp'
p326
sg25
S'0x814e709L'
p327
sg27
Nsba(ibclass
BInstr
p328
(dp329
g2
Nsg17
S'jle     short loc_814E71C'
p330
sg19
S'7e0d'
p331
sg21
Vjle 0xf
p332
sg5
L135587597L
sg6
Nsg23
S'jle'
p333
sg25
S'0x814e70dL'
p334
sg27
Nsbasg70
(lp335
Vcmp mem, address
p336
aVjle address
p337
asg77
Nsg5
S'0x814e709L'
p338
sg79
(lp339
S'0x814e6ebL'
p340
asg6
Nsg81
(lp341
S'0x814e70fL'
p342
aS'0x814e71cL'
p343
asg85
Nsg86
Nsg87
S'0bc4bf9881c1ed8eb91420cf78755dd7'
p344
sg89
S'63f7f8abf4e8906226c19017c918dca9'
p345
sg91
(lp346
g326
ag333
asg93
Nsba(ibclass
BBasicBlock
p347
(dp348
g12
Nsg13
(lp349
(ibclass
BInstr
p350
(dp351
g2
Nsg17
S'mov     [ebp+pad], 1'
p352
sg19
S'c745e001000000'
p353
sg21
Vmov dword ptr [ebp - 0x20], 1
p354
sg5
L135587599L
sg6
Nsg23
S'mov'
p355
sg25
S'0x814e70fL'
p356
sg27
Nsba(ibclass
BInstr
p357
(dp358
g2
Nsg17
S'mov     [ebp+pb], 0'
p359
sg19
S'c645df00'
p360
sg21
Vmov byte ptr [ebp - 0x21], 0
p361
sg5
L135587606L
sg6
Nsg23
S'mov'
p362
sg25
S'0x814e716L'
p363
sg27
Nsba(ibclass
BInstr
p364
(dp365
g2
Nsg17
S'jmp     short loc_814E775'
p366
sg19
S'eb59'
p367
sg21
Vjmp 0x5b
p368
sg5
L135587610L
sg6
Nsg23
S'jmp'
p369
sg25
S'0x814e71aL'
p370
sg27
Nsbasg70
(lp371
Vmov mem, 1
p372
aVmov mem, 0
p373
aVjmp address
p374
asg77
Nsg5
S'0x814e70fL'
p375
sg79
(lp376
S'0x814e709L'
p377
asg6
Nsg81
(lp378
S'0x814e775L'
p379
asg85
Nsg86
Nsg87
S'20cd1770826306b20d13fbc820a22512'
p380
sg89
S'd29ba08cda9638534b761157045a29a8'
p381
sg91
(lp382
g355
ag362
ag369
asg93
Nsba(ibclass
BBasicBlock
p383
(dp384
g12
Nsg13
(lp385
(ibclass
BInstr
p386
(dp387
g2
Nsg17
S'cmp     [ebp+neg], 0'
p388
sg19
S'837df400'
p389
sg21
Vcmp dword ptr [ebp - 0xc], 0
p390
sg5
L135587612L
sg6
Nsg23
S'cmp'
p391
sg25
S'0x814e71cL'
p392
sg27
Nsba(ibclass
BInstr
p393
(dp394
g2
Nsg17
S'jz      short loc_814E775'
p395
sg19
S'7453'
p396
sg21
Vje 0x55
p397
sg5
L135587616L
sg6
Nsg23
S'jz'
p398
sg25
S'0x814e720L'
p399
sg27
Nsbasg70
(lp400
Vcmp mem, 0
p401
aVje address
p402
asg77
Nsg5
S'0x814e71cL'
p403
sg79
(lp404
S'0x814e6ebL'
p405
aS'0x814e709L'
p406
asg6
Nsg81
(lp407
S'0x814e722L'
p408
aS'0x814e775L'
p409
asg85
Nsg86
Nsg87
S'613dbc2b0cb9d6264d802b24d709daea'
p410
sg89
S'bdc7ec577d63971d81398660f533a2e0'
p411
sg91
(lp412
g391
ag398
asg93
Nsba(ibclass
BBasicBlock
p413
(dp414
g12
Nsg13
(lp415
(ibclass
BInstr
p416
(dp417
g2
Nsg17
S'cmp     [ebp+i], 80h'
p418
sg19
S'817de880000000'
p419
sg21
Vcmp dword ptr [ebp - 0x18], 0x80
p420
sg5
L135587618L
sg6
Nsg23
S'cmp'
p421
sg25
S'0x814e722L'
p422
sg27
Nsba(ibclass
BInstr
p423
(dp424
g2
Nsg17
S'jle     short loc_814E738'
p425
sg19
S'7e0d'
p426
sg21
Vjle 0xf
p427
sg5
L135587625L
sg6
Nsg23
S'jle'
p428
sg25
S'0x814e729L'
p429
sg27
Nsbasg70
(lp430
Vcmp mem, address
p431
aVjle address
p432
asg77
Nsg5
S'0x814e722L'
p433
sg79
(lp434
S'0x814e71cL'
p435
asg6
Nsg81
(lp436
S'0x814e72bL'
p437
aS'0x814e738L'
p438
asg85
Nsg86
Nsg87
S'0bc4bf9881c1ed8eb91420cf78755dd7'
p439
sg89
S'63f7f8abf4e8906226c19017c918dca9'
p440
sg91
(lp441
g421
ag428
asg93
Nsba(ibclass
BBasicBlock
p442
(dp443
g12
Nsg13
(lp444
(ibclass
BInstr
p445
(dp446
g2
Nsg17
S'mov     [ebp+pad], 1'
p447
sg19
S'c745e001000000'
p448
sg21
Vmov dword ptr [ebp - 0x20], 1
p449
sg5
L135587627L
sg6
Nsg23
S'mov'
p450
sg25
S'0x814e72bL'
p451
sg27
Nsba(ibclass
BInstr
p452
(dp453
g2
Nsg17
S'mov     [ebp+pb], 0FFh'
p454
sg19
S'c645dfff'
p455
sg21
Vmov byte ptr [ebp - 0x21], 0xff
p456
sg5
L135587634L
sg6
Nsg23
S'mov'
p457
sg25
S'0x814e732L'
p458
sg27
Nsba(ibclass
BInstr
p459
(dp460
g2
Nsg17
S'jmp     short loc_814E775'
p461
sg19
S'eb3d'
p462
sg21
Vjmp 0x3f
p463
sg5
L135587638L
sg6
Nsg23
S'jmp'
p464
sg25
S'0x814e736L'
p465
sg27
Nsbasg70
(lp466
Vmov mem, 1
p467
aVmov mem, address
p468
aVjmp address
p469
asg77
Nsg5
S'0x814e72bL'
p470
sg79
(lp471
S'0x814e722L'
p472
asg6
Nsg81
(lp473
S'0x814e775L'
p474
asg85
Nsg86
Nsg87
S'20cd1770826306b20d13fbc820a22512'
p475
sg89
S'40cb34b4a24ec2177e1debad359547b8'
p476
sg91
(lp477
g450
ag457
ag464
asg93
Nsba(ibclass
BBasicBlock
p478
(dp479
g12
Nsg13
(lp480
(ibclass
BInstr
p481
(dp482
g2
Nsg17
S'cmp     [ebp+i], 80h'
p483
sg19
S'817de880000000'
p484
sg21
Vcmp dword ptr [ebp - 0x18], 0x80
p485
sg5
L135587640L
sg6
Nsg23
S'cmp'
p486
sg25
S'0x814e738L'
p487
sg27
Nsba(ibclass
BInstr
p488
(dp489
g2
Nsg17
S'jnz     short loc_814E775'
p490
sg19
S'7534'
p491
sg21
Vjne 0x36
p492
sg5
L135587647L
sg6
Nsg23
S'jnz'
p493
sg25
S'0x814e73fL'
p494
sg27
Nsbasg70
(lp495
Vcmp mem, address
p496
aVjne address
p497
asg77
Nsg5
S'0x814e738L'
p498
sg79
(lp499
S'0x814e722L'
p500
asg6
Nsg81
(lp501
S'0x814e741L'
p502
aS'0x814e775L'
p503
asg85
Nsg86
Nsg87
S'30cb3d6f6a174adfabcde507f6944a52'
p504
sg89
S'1628a119ec482a154d53abc1a26badbe'
p505
sg91
(lp506
g486
ag493
asg93
Nsba(ibclass
BBasicBlock
p507
(dp508
g12
Nsg13
(lp509
(ibclass
BInstr
p510
(dp511
g2
Nsg17
S'mov     [ebp+i], 1'
p512
sg19
S'c745e801000000'
p513
sg21
Vmov dword ptr [ebp - 0x18], 1
p514
sg5
L135587649L
sg6
Nsg23
S'mov'
p515
sg25
S'0x814e741L'
p516
sg27
Nsba(ibclass
BInstr
p517
(dp518
g2
Nsg17
S'jmp     short loc_814E76B'
p519
sg19
S'eb21'
p520
sg21
Vjmp 0x23
p521
sg5
L135587656L
sg6
Nsg23
S'jmp'
p522
sg25
S'0x814e748L'
p523
sg27
Nsbasg70
(lp524
Vmov mem, 1
p525
aVjmp address
p526
asg77
Nsg5
S'0x814e741L'
p527
sg79
(lp528
S'0x814e738L'
p529
asg6
Nsg81
(lp530
S'0x814e76bL'
p531
asg85
Nsg86
Nsg87
S'8b9a0d40e062be2b9b2d9885108fb196'
p532
sg89
S'f312af69049dfec09c806723f579eb15'
p533
sg91
(lp534
g515
ag522
asg93
Nsba(ibclass
BBasicBlock
p535
(dp536
g12
Nsg13
(lp537
(ibclass
BInstr
p538
(dp539
g2
Nsg17
S'mov     eax, [ebp+a]'
p540
sg19
S'8b4508'
p541
sg21
Vmov eax, dword ptr [ebp + 8]
p542
sg5
L135587658L
sg6
Nsg23
S'mov'
p543
sg25
S'0x814e74aL'
p544
sg27
Nsba(ibclass
BInstr
p545
(dp546
g2
Nsg17
S'mov     edx, [eax+8]'
p547
sg19
S'8b5008'
p548
sg21
Vmov edx, dword ptr [eax + 8]
p549
sg5
L135587661L
sg6
Nsg23
S'mov'
p550
sg25
S'0x814e74dL'
p551
sg27
Nsba(ibclass
BInstr
p552
(dp553
g2
Nsg17
S'mov     eax, [ebp+i]'
p554
sg19
S'8b45e8'
p555
sg21
Vmov eax, dword ptr [ebp - 0x18]
p556
sg5
L135587664L
sg6
Nsg23
S'mov'
p557
sg25
S'0x814e750L'
p558
sg27
Nsba(ibclass
BInstr
p559
(dp560
g2
Nsg17
S'add     eax, edx'
p561
sg19
S'01d0'
p562
sg21
Vadd eax, edx
p563
sg5
L135587667L
sg6
Nsg23
S'add'
p564
sg25
S'0x814e753L'
p565
sg27
Nsba(ibclass
BInstr
p566
(dp567
g2
Nsg17
S'mov     al, [eax]'
p568
sg19
S'8a00'
p569
sg21
Vmov al, byte ptr [eax]
p570
sg5
L135587669L
sg6
Nsg23
S'mov'
p571
sg25
S'0x814e755L'
p572
sg27
Nsba(ibclass
BInstr
p573
(dp574
g2
Nsg17
S'test    al, al'
p575
sg19
S'84c0'
p576
sg21
Vtest al, al
p577
sg5
L135587671L
sg6
Nsg23
S'test'
p578
sg25
S'0x814e757L'
p579
sg27
Nsba(ibclass
BInstr
p580
(dp581
g2
Nsg17
S'jz      short loc_814E768'
p582
sg19
S'740d'
p583
sg21
Vje 0xf
p584
sg5
L135587673L
sg6
Nsg23
S'jz'
p585
sg25
S'0x814e759L'
p586
sg27
Nsbasg70
(lp587
Vmov eax, mem
p588
aVmov edx, mem
p589
aVmov eax, mem
p590
ag563
aVmov al, mem
p591
ag577
aVje address
p592
asg77
Nsg5
S'0x814e74aL'
p593
sg79
(lp594
S'0x814e76bL'
p595
asg6
Nsg81
(lp596
S'0x814e75bL'
p597
aS'0x814e768L'
p598
asg85
Nsg86
Nsg87
S'2d82c899b45e0d19ef664885d97a6d86'
p599
sg89
S'b52f69da1747c8aec572edeb275f3cd9'
p600
sg91
(lp601
g543
ag550
ag557
ag564
ag571
ag578
ag585
asg93
Nsba(ibclass
BBasicBlock
p602
(dp603
g12
Nsg13
(lp604
(ibclass
BInstr
p605
(dp606
g2
Nsg17
S'mov     [ebp+pad], 1'
p607
sg19
S'c745e001000000'
p608
sg21
Vmov dword ptr [ebp - 0x20], 1
p609
sg5
L135587675L
sg6
Nsg23
S'mov'
p610
sg25
S'0x814e75bL'
p611
sg27
Nsba(ibclass
BInstr
p612
(dp613
g2
Nsg17
S'mov     [ebp+pb], 0FFh'
p614
sg19
S'c645dfff'
p615
sg21
Vmov byte ptr [ebp - 0x21], 0xff
p616
sg5
L135587682L
sg6
Nsg23
S'mov'
p617
sg25
S'0x814e762L'
p618
sg27
Nsba(ibclass
BInstr
p619
(dp620
g2
Nsg17
S'jmp     short loc_814E775'
p621
sg19
S'eb0d'
p622
sg21
Vjmp 0xf
p623
sg5
L135587686L
sg6
Nsg23
S'jmp'
p624
sg25
S'0x814e766L'
p625
sg27
Nsbasg70
(lp626
Vmov mem, 1
p627
aVmov mem, address
p628
aVjmp address
p629
asg77
Nsg5
S'0x814e75bL'
p630
sg79
(lp631
S'0x814e74aL'
p632
asg6
Nsg81
(lp633
S'0x814e775L'
p634
asg85
Nsg86
Nsg87
S'20cd1770826306b20d13fbc820a22512'
p635
sg89
S'40cb34b4a24ec2177e1debad359547b8'
p636
sg91
(lp637
g610
ag617
ag624
asg93
Nsba(ibclass
BBasicBlock
p638
(dp639
g12
Nsg13
(lp640
(ibclass
BInstr
p641
(dp642
g2
Nsg17
S'inc     [ebp+i]'
p643
sg19
S'ff45e8'
p644
sg21
Vinc dword ptr [ebp - 0x18]
p645
sg5
L135587688L
sg6
Nsg23
S'inc'
p646
sg25
S'0x814e768L'
p647
sg27
Nsbasg70
(lp648
Vinc mem
p649
asg77
Nsg5
S'0x814e768L'
p650
sg79
(lp651
S'0x814e74aL'
p652
asg6
Nsg81
(lp653
S'0x814e76bL'
p654
asg85
Nsg86
Nsg87
S'cf9f3fde7326f1d8e64205f0e07a3695'
p655
sg89
S'00359ff2b716311fa3d15c1e358cad94'
p656
sg91
(lp657
g646
asg93
Nsba(ibclass
BBasicBlock
p658
(dp659
g12
Nsg13
(lp660
(ibclass
BInstr
p661
(dp662
g2
Nsg17
S'mov     eax, [ebp+a]'
p663
sg19
S'8b4508'
p664
sg21
Vmov eax, dword ptr [ebp + 8]
p665
sg5
L135587691L
sg6
Nsg23
S'mov'
p666
sg25
S'0x814e76bL'
p667
sg27
Nsba(ibclass
BInstr
p668
(dp669
g2
Nsg17
S'mov     eax, [eax]'
p670
sg19
S'8b00'
p671
sg21
Vmov eax, dword ptr [eax]
p672
sg5
L135587694L
sg6
Nsg23
S'mov'
p673
sg25
S'0x814e76eL'
p674
sg27
Nsba(ibclass
BInstr
p675
(dp676
g2
Nsg17
S'cmp     eax, [ebp+i]'
p677
sg19
S'3b45e8'
p678
sg21
Vcmp eax, dword ptr [ebp - 0x18]
p679
sg5
L135587696L
sg6
Nsg23
S'cmp'
p680
sg25
S'0x814e770L'
p681
sg27
Nsba(ibclass
BInstr
p682
(dp683
g2
Nsg17
S'jg      short loc_814E74A'
p684
sg19
S'7fd5'
p685
sg21
Vjg 0xffffffd7
p686
sg5
L135587699L
sg6
Nsg23
S'jg'
p687
sg25
S'0x814e773L'
p688
sg27
Nsbasg70
(lp689
Vmov eax, mem
p690
aVmov eax, mem
p691
aVcmp eax, mem
p692
aVjg address
p693
asg77
Nsg5
S'0x814e76bL'
p694
sg79
(lp695
S'0x814e741L'
p696
aS'0x814e768L'
p697
asg6
Nsg81
(lp698
S'0x814e74aL'
p699
aS'0x814e775L'
p700
asg85
Nsg86
Nsg87
S'0f052c266aca8b9c74252b813a6a74b5'
p701
sg89
S'f78ec2c5c558b6311f006460989c349b'
p702
sg91
(lp703
g666
ag673
ag680
ag687
asg93
Nsba(ibclass
BBasicBlock
p704
(dp705
g12
Nsg13
(lp706
(ibclass
BInstr
p707
(dp708
g2
Nsg17
S'mov     eax, [ebp+pad]'
p709
sg19
S'8b45e0'
p710
sg21
Vmov eax, dword ptr [ebp - 0x20]
p711
sg5
L135587701L
sg6
Nsg23
S'mov'
p712
sg25
S'0x814e775L'
p713
sg27
Nsba(ibclass
BInstr
p714
(dp715
g2
Nsg17
S'add     [ebp+ret], eax'
p716
sg19
S'0145e4'
p717
sg21
Vadd dword ptr [ebp - 0x1c], eax
p718
sg5
L135587704L
sg6
Nsg23
S'add'
p719
sg25
S'0x814e778L'
p720
sg27
Nsbasg70
(lp721
Vmov eax, mem
p722
aVadd mem, eax
p723
asg77
Nsg5
S'0x814e775L'
p724
sg79
(lp725
S'0x814e70fL'
p726
aS'0x814e71cL'
p727
aS'0x814e72bL'
p728
aS'0x814e738L'
p729
aS'0x814e75bL'
p730
aS'0x814e76bL'
p731
asg6
Nsg81
(lp732
S'0x814e77bL'
p733
asg85
Nsg86
Nsg87
S'7cc31e5486be25615622057316661547'
p734
sg89
S'8ff22167ffb4687dff9b08a0f38c6fda'
p735
sg91
(lp736
g712
ag719
asg93
Nsba(ibclass
BBasicBlock
p737
(dp738
g12
Nsg13
(lp739
(ibclass
BInstr
p740
(dp741
g2
Nsg17
S'cmp     [ebp+pp], 0'
p742
sg19
S'837d0c00'
p743
sg21
Vcmp dword ptr [ebp + 0xc], 0
p744
sg5
L135587707L
sg6
Nsg23
S'cmp'
p745
sg25
S'0x814e77bL'
p746
sg27
Nsba(ibclass
BInstr
p747
(dp748
g2
Nsg17
S'jnz     short loc_814E789'
p749
sg19
S'7508'
p750
sg21
Vjne 0xa
p751
sg5
L135587711L
sg6
Nsg23
S'jnz'
p752
sg25
S'0x814e77fL'
p753
sg27
Nsbasg70
(lp754
Vcmp mem, 0
p755
aVjne address
p756
asg77
Nsg5
S'0x814e77bL'
p757
sg79
(lp758
S'0x814e6dfL'
p759
aS'0x814e775L'
p760
asg6
Nsg81
(lp761
S'0x814e781L'
p762
aS'0x814e789L'
p763
asg85
Nsg86
Nsg87
S'30cb3d6f6a174adfabcde507f6944a52'
p764
sg89
S'ac6a5deb49a2d2e7162632941da7e135'
p765
sg91
(lp766
g745
ag752
asg93
Nsba(ibclass
BBasicBlock
p767
(dp768
g12
Nsg13
(lp769
(ibclass
BInstr
p770
(dp771
g2
Nsg17
S'mov     eax, [ebp+ret]'
p772
sg19
S'8b45e4'
p773
sg21
Vmov eax, dword ptr [ebp - 0x1c]
p774
sg5
L135587713L
sg6
Nsg23
S'mov'
p775
sg25
S'0x814e781L'
p776
sg27
Nsba(ibclass
BInstr
p777
(dp778
g2
Nsg17
S'jmp     locret_814E876'
p779
sg19
S'e9ed000000'
p780
sg21
Vjmp 0xf2
p781
sg5
L135587716L
sg6
Nsg23
S'jmp'
p782
sg25
S'0x814e784L'
p783
sg27
Nsbasg70
(lp784
Vmov eax, mem
p785
aVjmp address
p786
asg77
Nsg5
S'0x814e781L'
p787
sg79
(lp788
S'0x814e77bL'
p789
asg6
Nsg81
(lp790
S'0x814e876L'
p791
asg85
Nsg86
Nsg87
S'8b9a0d40e062be2b9b2d9885108fb196'
p792
sg89
S'5a5b261ba52a671a369af6372509eb2f'
p793
sg91
(lp794
g775
ag782
asg93
Nsba(ibclass
BBasicBlock
p795
(dp796
g12
Nsg13
(lp797
(ibclass
BInstr
p798
(dp799
g2
Nsg17
S'mov     eax, [ebp+pp]'
p800
sg19
S'8b450c'
p801
sg21
Vmov eax, dword ptr [ebp + 0xc]
p802
sg5
L135587721L
sg6
Nsg23
S'mov'
p803
sg25
S'0x814e789L'
p804
sg27
Nsba(ibclass
BInstr
p805
(dp806
g2
Nsg17
S'mov     eax, [eax]'
p807
sg19
S'8b00'
p808
sg21
Vmov eax, dword ptr [eax]
p809
sg5
L135587724L
sg6
Nsg23
S'mov'
p810
sg25
S'0x814e78cL'
p811
sg27
Nsba(ibclass
BInstr
p812
(dp813
g2
Nsg17
S'mov     [ebp+p], eax'
p814
sg19
S'8945ec'
p815
sg21
Vmov dword ptr [ebp - 0x14], eax
p816
sg5
L135587726L
sg6
Nsg23
S'mov'
p817
sg25
S'0x814e78eL'
p818
sg27
Nsba(ibclass
BInstr
p819
(dp820
g2
Nsg17
S'cmp     [ebp+pad], 0'
p821
sg19
S'837de000'
p822
sg21
Vcmp dword ptr [ebp - 0x20], 0
p823
sg5
L135587729L
sg6
Nsg23
S'cmp'
p824
sg25
S'0x814e791L'
p825
sg27
Nsba(ibclass
BInstr
p826
(dp827
g2
Nsg17
S'jz      short loc_814E7A5'
p828
sg19
S'740e'
p829
sg21
Vje 0x10
p830
sg5
L135587733L
sg6
Nsg23
S'jz'
p831
sg25
S'0x814e795L'
p832
sg27
Nsbasg70
(lp833
Vmov eax, mem
p834
aVmov eax, mem
p835
aVmov mem, eax
p836
aVcmp mem, 0
p837
aVje address
p838
asg77
Nsg5
S'0x814e789L'
p839
sg79
(lp840
S'0x814e77bL'
p841
asg6
Nsg81
(lp842
S'0x814e797L'
p843
aS'0x814e7a5L'
p844
asg85
Nsg86
Nsg87
S'33ba948cc50e6b726fe618f931567f22'
p845
sg89
S'9f9f2ae869dc1b44858b00ea270814a2'
p846
sg91
(lp847
g803
ag810
ag817
ag824
ag831
asg93
Nsba(ibclass
BBasicBlock
p848
(dp849
g12
Nsg13
(lp850
(ibclass
BInstr
p851
(dp852
g2
Nsg17
S'mov     eax, [ebp+p]'
p853
sg19
S'8b45ec'
p854
sg21
Vmov eax, dword ptr [ebp - 0x14]
p855
sg5
L135587735L
sg6
Nsg23
S'mov'
p856
sg25
S'0x814e797L'
p857
sg27
Nsba(ibclass
BInstr
p858
(dp859
g2
Nsg17
S'lea     edx, [eax+1]'
p860
sg19
S'8d5001'
p861
sg21
Vlea edx, [eax + 1]
p862
sg5
L135587738L
sg6
Nsg23
S'lea'
p863
sg25
S'0x814e79aL'
p864
sg27
Nsba(ibclass
BInstr
p865
(dp866
g2
Nsg17
S'mov     [ebp+p], edx'
p867
sg19
S'8955ec'
p868
sg21
Vmov dword ptr [ebp - 0x14], edx
p869
sg5
L135587741L
sg6
Nsg23
S'mov'
p870
sg25
S'0x814e79dL'
p871
sg27
Nsba(ibclass
BInstr
p872
(dp873
g2
Nsg17
S'mov     dl, [ebp+pb]'
p874
sg19
S'8a55df'
p875
sg21
Vmov dl, byte ptr [ebp - 0x21]
p876
sg5
L135587744L
sg6
Nsg23
S'mov'
p877
sg25
S'0x814e7a0L'
p878
sg27
Nsba(ibclass
BInstr
p879
(dp880
g2
Nsg17
S'mov     [eax], dl'
p881
sg19
S'8810'
p882
sg21
Vmov byte ptr [eax], dl
p883
sg5
L135587747L
sg6
Nsg23
S'mov'
p884
sg25
S'0x814e7a3L'
p885
sg27
Nsbasg70
(lp886
Vmov eax, mem
p887
aVlea edx, mem
p888
aVmov mem, edx
p889
aVmov dl, mem
p890
aVmov mem, dl
p891
asg77
Nsg5
S'0x814e797L'
p892
sg79
(lp893
S'0x814e789L'
p894
asg6
Nsg81
(lp895
S'0x814e7a5L'
p896
asg85
Nsg86
Nsg87
S'5b4177cb363fc205354c40596b0eef6c'
p897
sg89
S'5eb28e4c4109a460ee2a71388884ef4d'
p898
sg91
(lp899
g856
ag863
ag870
ag877
ag884
asg93
Nsba(ibclass
BBasicBlock
p900
(dp901
g12
Nsg13
(lp902
(ibclass
BInstr
p903
(dp904
g2
Nsg17
S'mov     eax, [ebp+a]'
p905
sg19
S'8b4508'
p906
sg21
Vmov eax, dword ptr [ebp + 8]
p907
sg5
L135587749L
sg6
Nsg23
S'mov'
p908
sg25
S'0x814e7a5L'
p909
sg27
Nsba(ibclass
BInstr
p910
(dp911
g2
Nsg17
S'mov     eax, [eax]'
p912
sg19
S'8b00'
p913
sg21
Vmov eax, dword ptr [eax]
p914
sg5
L135587752L
sg6
Nsg23
S'mov'
p915
sg25
S'0x814e7a8L'
p916
sg27
Nsba(ibclass
BInstr
p917
(dp918
g2
Nsg17
S'test    eax, eax'
p919
sg19
S'85c0'
p920
sg21
Vtest eax, eax
p921
sg5
L135587754L
sg6
Nsg23
S'test'
p922
sg25
S'0x814e7aaL'
p923
sg27
Nsba(ibclass
BInstr
p924
(dp925
g2
Nsg17
S'jnz     short loc_814E7BF'
p926
sg19
S'7511'
p927
sg21
Vjne 0x13
p928
sg5
L135587756L
sg6
Nsg23
S'jnz'
p929
sg25
S'0x814e7acL'
p930
sg27
Nsbasg70
(lp931
Vmov eax, mem
p932
aVmov eax, mem
p933
ag921
aVjne address
p934
asg77
Nsg5
S'0x814e7a5L'
p935
sg79
(lp936
S'0x814e789L'
p937
aS'0x814e797L'
p938
asg6
Nsg81
(lp939
S'0x814e7aeL'
p940
aS'0x814e7bfL'
p941
asg85
Nsg86
Nsg87
S'c659dbb3567582fe193bedd2c7eccb80'
p942
sg89
S'bf49e6fb415bfa3724765cd6082e6314'
p943
sg91
(lp944
g908
ag915
ag922
ag929
asg93
Nsba(ibclass
BBasicBlock
p945
(dp946
g12
Nsg13
(lp947
(ibclass
BInstr
p948
(dp949
g2
Nsg17
S'mov     eax, [ebp+p]'
p950
sg19
S'8b45ec'
p951
sg21
Vmov eax, dword ptr [ebp - 0x14]
p952
sg5
L135587758L
sg6
Nsg23
S'mov'
p953
sg25
S'0x814e7aeL'
p954
sg27
Nsba(ibclass
BInstr
p955
(dp956
g2
Nsg17
S'lea     edx, [eax+1]'
p957
sg19
S'8d5001'
p958
sg21
Vlea edx, [eax + 1]
p959
sg5
L135587761L
sg6
Nsg23
S'lea'
p960
sg25
S'0x814e7b1L'
p961
sg27
Nsba(ibclass
BInstr
p962
(dp963
g2
Nsg17
S'mov     [ebp+p], edx'
p964
sg19
S'8955ec'
p965
sg21
Vmov dword ptr [ebp - 0x14], edx
p966
sg5
L135587764L
sg6
Nsg23
S'mov'
p967
sg25
S'0x814e7b4L'
p968
sg27
Nsba(ibclass
BInstr
p969
(dp970
g2
Nsg17
S'mov     byte ptr [eax], 0'
p971
sg19
S'c60000'
p972
sg21
Vmov byte ptr [eax], 0
p973
sg5
L135587767L
sg6
Nsg23
S'mov'
p974
sg25
S'0x814e7b7L'
p975
sg27
Nsba(ibclass
BInstr
p976
(dp977
g2
Nsg17
S'jmp     loc_814E864'
p978
sg19
S'e9a5000000'
p979
sg21
Vjmp 0xaa
p980
sg5
L135587770L
sg6
Nsg23
S'jmp'
p981
sg25
S'0x814e7baL'
p982
sg27
Nsbasg70
(lp983
Vmov eax, mem
p984
aVlea edx, mem
p985
aVmov mem, edx
p986
aVmov mem, 0
p987
aVjmp address
p988
asg77
Nsg5
S'0x814e7aeL'
p989
sg79
(lp990
S'0x814e7a5L'
p991
asg6
Nsg81
(lp992
S'0x814e864L'
p993
asg85
Nsg86
Nsg87
S'9a0c637413deef9bc7a6c56e07930655'
p994
sg89
S'295a810c90fe800487f6c32defeb12d7'
p995
sg91
(lp996
g953
ag960
ag967
ag974
ag981
asg93
Nsba(ibclass
BBasicBlock
p997
(dp998
g12
Nsg13
(lp999
(ibclass
BInstr
p1000
(dp1001
g2
Nsg17
S'cmp     [ebp+neg], 0'
p1002
sg19
S'837df400'
p1003
sg21
Vcmp dword ptr [ebp - 0xc], 0
p1004
sg5
L135587775L
sg6
Nsg23
S'cmp'
p1005
sg25
S'0x814e7bfL'
p1006
sg27
Nsba(ibclass
BInstr
p1007
(dp1008
g2
Nsg17
S'jnz     short loc_814E7E7'
p1009
sg19
S'7522'
p1010
sg21
Vjne 0x24
p1011
sg5
L135587779L
sg6
Nsg23
S'jnz'
p1012
sg25
S'0x814e7c3L'
p1013
sg27
Nsbasg70
(lp1014
Vcmp mem, 0
p1015
aVjne address
p1016
asg77
Nsg5
S'0x814e7bfL'
p1017
sg79
(lp1018
S'0x814e7a5L'
p1019
asg6
Nsg81
(lp1020
S'0x814e7c5L'
p1021
aS'0x814e7e7L'
p1022
asg85
Nsg86
Nsg87
S'30cb3d6f6a174adfabcde507f6944a52'
p1023
sg89
S'ac6a5deb49a2d2e7162632941da7e135'
p1024
sg91
(lp1025
g1005
ag1012
asg93
Nsba(ibclass
BBasicBlock
p1026
(dp1027
g12
Nsg13
(lp1028
(ibclass
BInstr
p1029
(dp1030
g2
Nsg17
S'mov     eax, [ebp+a]'
p1031
sg19
S'8b4508'
p1032
sg21
Vmov eax, dword ptr [ebp + 8]
p1033
sg5
L135587781L
sg6
Nsg23
S'mov'
p1034
sg25
S'0x814e7c5L'
p1035
sg27
Nsba(ibclass
BInstr
p1036
(dp1037
g2
Nsg17
S'mov     eax, [eax]'
p1038
sg19
S'8b00'
p1039
sg21
Vmov eax, dword ptr [eax]
p1040
sg5
L135587784L
sg6
Nsg23
S'mov'
p1041
sg25
S'0x814e7c8L'
p1042
sg27
Nsba(ibclass
BInstr
p1043
(dp1044
g2
Nsg17
S'mov     edx, eax'
p1045
sg19
S'89c2'
p1046
sg21
Vmov edx, eax
p1047
sg5
L135587786L
sg6
Nsg23
S'mov'
p1048
sg25
S'0x814e7caL'
p1049
sg27
Nsba(ibclass
BInstr
p1050
(dp1051
g2
Nsg17
S'mov     eax, [ebp+a]'
p1052
sg19
S'8b4508'
p1053
sg21
Vmov eax, dword ptr [ebp + 8]
p1054
sg5
L135587788L
sg6
Nsg23
S'mov'
p1055
sg25
S'0x814e7ccL'
p1056
sg27
Nsba(ibclass
BInstr
p1057
(dp1058
g2
Nsg17
S'mov     eax, [eax+8]'
p1059
sg19
S'8b4008'
p1060
sg21
Vmov eax, dword ptr [eax + 8]
p1061
sg5
L135587791L
sg6
Nsg23
S'mov'
p1062
sg25
S'0x814e7cfL'
p1063
sg27
Nsba(ibclass
BInstr
p1064
(dp1065
g2
Nsg17
S'mov     [esp+8], edx    ; n'
p1066
sg19
S'89542408'
p1067
sg21
Vmov dword ptr [esp + 8], edx
p1068
sg5
L135587794L
sg6
Nsg23
S'mov'
p1069
sg25
S'0x814e7d2L'
p1070
sg27
Nsba(ibclass
BInstr
p1071
(dp1072
g2
Nsg17
S'mov     [esp+4], eax    ; src'
p1073
sg19
S'89442404'
p1074
sg21
Vmov dword ptr [esp + 4], eax
p1075
sg5
L135587798L
sg6
Nsg23
S'mov'
p1076
sg25
S'0x814e7d6L'
p1077
sg27
Nsba(ibclass
BInstr
p1078
(dp1079
g2
Nsg17
S'mov     eax, [ebp+p]'
p1080
sg19
S'8b45ec'
p1081
sg21
Vmov eax, dword ptr [ebp - 0x14]
p1082
sg5
L135587802L
sg6
Nsg23
S'mov'
p1083
sg25
S'0x814e7daL'
p1084
sg27
Nsba(ibclass
BInstr
p1085
(dp1086
g2
Nsg17
S'mov     [esp], eax      ; dest'
p1087
sg19
S'890424'
p1088
sg21
Vmov dword ptr [esp], eax
p1089
sg5
L135587805L
sg6
Nsg23
S'mov'
p1090
sg25
S'0x814e7ddL'
p1091
sg27
Nsba(ibclass
BInstr
p1092
(dp1093
g2
Nsg17
S'call    _memcpy'
p1094
sg19
S'e85badefff'
p1095
sg21
Vcall 0xffefad60
p1096
sg5
L135587808L
sg6
Nsg23
S'call'
p1097
sg25
S'0x814e7e0L'
p1098
sg27
Nsba(ibclass
BInstr
p1099
(dp1100
g2
Nsg17
S'jmp     short loc_814E864'
p1101
sg19
S'eb7d'
p1102
sg21
Vjmp 0x7f
p1103
sg5
L135587813L
sg6
Nsg23
S'jmp'
p1104
sg25
S'0x814e7e5L'
p1105
sg27
Nsbasg70
(lp1106
Vmov eax, mem
p1107
aVmov eax, mem
p1108
ag1047
aVmov eax, mem
p1109
aVmov eax, mem
p1110
aVmov mem, edx
p1111
aVmov mem, eax
p1112
aVmov eax, mem
p1113
aVmov mem, eax
p1114
aVcall address
p1115
aVjmp address
p1116
asg77
Nsg5
S'0x814e7c5L'
p1117
sg79
(lp1118
S'0x814e7bfL'
p1119
asg6
Nsg81
(lp1120
S'0x814e864L'
p1121
asg85
Nsg86
Nsg87
S'01978c6ba497dc21f082887269d5db40'
p1122
sg89
S'fb23929a1664ca74159c0e34019b12ea'
p1123
sg91
(lp1124
g1034
ag1041
ag1048
ag1055
ag1062
ag1069
ag1076
ag1083
ag1090
ag1097
ag1104
asg93
Nsba(ibclass
BBasicBlock
p1125
(dp1126
g12
Nsg13
(lp1127
(ibclass
BInstr
p1128
(dp1129
g2
Nsg17
S'mov     eax, [ebp+a]'
p1130
sg19
S'8b4508'
p1131
sg21
Vmov eax, dword ptr [ebp + 8]
p1132
sg5
L135587815L
sg6
Nsg23
S'mov'
p1133
sg25
S'0x814e7e7L'
p1134
sg27
Nsba(ibclass
BInstr
p1135
(dp1136
g2
Nsg17
S'mov     edx, [eax+8]'
p1137
sg19
S'8b5008'
p1138
sg21
Vmov edx, dword ptr [eax + 8]
p1139
sg5
L135587818L
sg6
Nsg23
S'mov'
p1140
sg25
S'0x814e7eaL'
p1141
sg27
Nsba(ibclass
BInstr
p1142
(dp1143
g2
Nsg17
S'mov     eax, [ebp+a]'
p1144
sg19
S'8b4508'
p1145
sg21
Vmov eax, dword ptr [ebp + 8]
p1146
sg5
L135587821L
sg6
Nsg23
S'mov'
p1147
sg25
S'0x814e7edL'
p1148
sg27
Nsba(ibclass
BInstr
p1149
(dp1150
g2
Nsg17
S'mov     eax, [eax]'
p1151
sg19
S'8b00'
p1152
sg21
Vmov eax, dword ptr [eax]
p1153
sg5
L135587824L
sg6
Nsg23
S'mov'
p1154
sg25
S'0x814e7f0L'
p1155
sg27
Nsba(ibclass
BInstr
p1156
(dp1157
g2
Nsg17
S'dec     eax'
p1158
sg19
S'48'
p1159
sg21
Vdec eax
p1160
sg5
L135587826L
sg6
Nsg23
S'dec'
p1161
sg25
S'0x814e7f2L'
p1162
sg27
Nsba(ibclass
BInstr
p1163
(dp1164
g2
Nsg17
S'add     eax, edx'
p1165
sg19
S'01d0'
p1166
sg21
Vadd eax, edx
p1167
sg5
L135587827L
sg6
Nsg23
S'add'
p1168
sg25
S'0x814e7f3L'
p1169
sg27
Nsba(ibclass
BInstr
p1170
(dp1171
g2
Nsg17
S'mov     [ebp+n], eax'
p1172
sg19
S'8945f0'
p1173
sg21
Vmov dword ptr [ebp - 0x10], eax
p1174
sg5
L135587829L
sg6
Nsg23
S'mov'
p1175
sg25
S'0x814e7f5L'
p1176
sg27
Nsba(ibclass
BInstr
p1177
(dp1178
g2
Nsg17
S'mov     eax, [ebp+a]'
p1179
sg19
S'8b4508'
p1180
sg21
Vmov eax, dword ptr [ebp + 8]
p1181
sg5
L135587832L
sg6
Nsg23
S'mov'
p1182
sg25
S'0x814e7f8L'
p1183
sg27
Nsba(ibclass
BInstr
p1184
(dp1185
g2
Nsg17
S'mov     eax, [eax]'
p1186
sg19
S'8b00'
p1187
sg21
Vmov eax, dword ptr [eax]
p1188
sg5
L135587835L
sg6
Nsg23
S'mov'
p1189
sg25
S'0x814e7fbL'
p1190
sg27
Nsba(ibclass
BInstr
p1191
(dp1192
g2
Nsg17
S'dec     eax'
p1193
sg19
S'48'
p1194
sg21
Vdec eax
p1195
sg5
L135587837L
sg6
Nsg23
S'dec'
p1196
sg25
S'0x814e7fdL'
p1197
sg27
Nsba(ibclass
BInstr
p1198
(dp1199
g2
Nsg17
S'add     [ebp+p], eax'
p1200
sg19
S'0145ec'
p1201
sg21
Vadd dword ptr [ebp - 0x14], eax
p1202
sg5
L135587838L
sg6
Nsg23
S'add'
p1203
sg25
S'0x814e7feL'
p1204
sg27
Nsba(ibclass
BInstr
p1205
(dp1206
g2
Nsg17
S'mov     eax, [ebp+a]'
p1207
sg19
S'8b4508'
p1208
sg21
Vmov eax, dword ptr [ebp + 8]
p1209
sg5
L135587841L
sg6
Nsg23
S'mov'
p1210
sg25
S'0x814e801L'
p1211
sg27
Nsba(ibclass
BInstr
p1212
(dp1213
g2
Nsg17
S'mov     eax, [eax]'
p1214
sg19
S'8b00'
p1215
sg21
Vmov eax, dword ptr [eax]
p1216
sg5
L135587844L
sg6
Nsg23
S'mov'
p1217
sg25
S'0x814e804L'
p1218
sg27
Nsba(ibclass
BInstr
p1219
(dp1220
g2
Nsg17
S'mov     [ebp+i], eax'
p1221
sg19
S'8945e8'
p1222
sg21
Vmov dword ptr [ebp - 0x18], eax
p1223
sg5
L135587846L
sg6
Nsg23
S'mov'
p1224
sg25
S'0x814e806L'
p1225
sg27
Nsba(ibclass
BInstr
p1226
(dp1227
g2
Nsg17
S'jmp     short loc_814E81D'
p1228
sg19
S'eb12'
p1229
sg21
Vjmp 0x14
p1230
sg5
L135587849L
sg6
Nsg23
S'jmp'
p1231
sg25
S'0x814e809L'
p1232
sg27
Nsbasg70
(lp1233
Vmov eax, mem
p1234
aVmov edx, mem
p1235
aVmov eax, mem
p1236
aVmov eax, mem
p1237
ag1160
ag1167
aVmov mem, eax
p1238
aVmov eax, mem
p1239
aVmov eax, mem
p1240
ag1195
aVadd mem, eax
p1241
aVmov eax, mem
p1242
aVmov eax, mem
p1243
aVmov mem, eax
p1244
aVjmp address
p1245
asg77
Nsg5
S'0x814e7e7L'
p1246
sg79
(lp1247
S'0x814e7bfL'
p1248
asg6
Nsg81
(lp1249
S'0x814e81dL'
p1250
asg85
Nsg86
Nsg87
S'a67547f53501c90aa7427eb74aaf1674'
p1251
sg89
S'b352456b6542b13cad9a909da4f4598e'
p1252
sg91
(lp1253
g1133
ag1140
ag1147
ag1154
ag1161
ag1168
ag1175
ag1182
ag1189
ag1196
ag1203
ag1210
ag1217
ag1224
ag1231
asg93
Nsba(ibclass
BBasicBlock
p1254
(dp1255
g12
Nsg13
(lp1256
(ibclass
BInstr
p1257
(dp1258
g2
Nsg17
S'mov     eax, [ebp+p]'
p1259
sg19
S'8b45ec'
p1260
sg21
Vmov eax, dword ptr [ebp - 0x14]
p1261
sg5
L135587851L
sg6
Nsg23
S'mov'
p1262
sg25
S'0x814e80bL'
p1263
sg27
Nsba(ibclass
BInstr
p1264
(dp1265
g2
Nsg17
S'lea     edx, [eax-1]'
p1266
sg19
S'8d50ff'
p1267
sg21
Vlea edx, [eax - 1]
p1268
sg5
L135587854L
sg6
Nsg23
S'lea'
p1269
sg25
S'0x814e80eL'
p1270
sg27
Nsba(ibclass
BInstr
p1271
(dp1272
g2
Nsg17
S'mov     [ebp+p], edx'
p1273
sg19
S'8955ec'
p1274
sg21
Vmov dword ptr [ebp - 0x14], edx
p1275
sg5
L135587857L
sg6
Nsg23
S'mov'
p1276
sg25
S'0x814e811L'
p1277
sg27
Nsba(ibclass
BInstr
p1278
(dp1279
g2
Nsg17
S'mov     byte ptr [eax], 0'
p1280
sg19
S'c60000'
p1281
sg21
Vmov byte ptr [eax], 0
p1282
sg5
L135587860L
sg6
Nsg23
S'mov'
p1283
sg25
S'0x814e814L'
p1284
sg27
Nsba(ibclass
BInstr
p1285
(dp1286
g2
Nsg17
S'dec     [ebp+n]'
p1287
sg19
S'ff4df0'
p1288
sg21
Vdec dword ptr [ebp - 0x10]
p1289
sg5
L135587863L
sg6
Nsg23
S'dec'
p1290
sg25
S'0x814e817L'
p1291
sg27
Nsba(ibclass
BInstr
p1292
(dp1293
g2
Nsg17
S'dec     [ebp+i]'
p1294
sg19
S'ff4de8'
p1295
sg21
Vdec dword ptr [ebp - 0x18]
p1296
sg5
L135587866L
sg6
Nsg23
S'dec'
p1297
sg25
S'0x814e81aL'
p1298
sg27
Nsbasg70
(lp1299
Vmov eax, mem
p1300
aVlea edx, mem
p1301
aVmov mem, edx
p1302
aVmov mem, 0
p1303
aVdec mem
p1304
aVdec mem
p1305
asg77
Nsg5
S'0x814e80bL'
p1306
sg79
(lp1307
S'0x814e81dL'
p1308
asg6
Nsg81
(lp1309
S'0x814e81dL'
p1310
asg85
Nsg86
Nsg87
S'dc5ab1171f1de70246c14bb7769f3f18'
p1311
sg89
S'58841c358145c282f59f5a44a09fa211'
p1312
sg91
(lp1313
g1262
ag1269
ag1276
ag1283
ag1290
ag1297
asg93
Nsba(ibclass
BBasicBlock
p1314
(dp1315
g12
Nsg13
(lp1316
(ibclass
BInstr
p1317
(dp1318
g2
Nsg17
S'mov     eax, [ebp+n]'
p1319
sg19
S'8b45f0'
p1320
sg21
Vmov eax, dword ptr [ebp - 0x10]
p1321
sg5
L135587869L
sg6
Nsg23
S'mov'
p1322
sg25
S'0x814e81dL'
p1323
sg27
Nsba(ibclass
BInstr
p1324
(dp1325
g2
Nsg17
S'mov     al, [eax]'
p1326
sg19
S'8a00'
p1327
sg21
Vmov al, byte ptr [eax]
p1328
sg5
L135587872L
sg6
Nsg23
S'mov'
p1329
sg25
S'0x814e820L'
p1330
sg27
Nsba(ibclass
BInstr
p1331
(dp1332
g2
Nsg17
S'test    al, al'
p1333
sg19
S'84c0'
p1334
sg21
Vtest al, al
p1335
sg5
L135587874L
sg6
Nsg23
S'test'
p1336
sg25
S'0x814e822L'
p1337
sg27
Nsba(ibclass
BInstr
p1338
(dp1339
g2
Nsg17
S'jz      short loc_814E80B'
p1340
sg19
S'74e5'
p1341
sg21
Vje 0xffffffe7
p1342
sg5
L135587876L
sg6
Nsg23
S'jz'
p1343
sg25
S'0x814e824L'
p1344
sg27
Nsbasg70
(lp1345
Vmov eax, mem
p1346
aVmov al, mem
p1347
ag1335
aVje address
p1348
asg77
Nsg5
S'0x814e81dL'
p1349
sg79
(lp1350
S'0x814e7e7L'
p1351
aS'0x814e80bL'
p1352
asg6
Nsg81
(lp1353
S'0x814e80bL'
p1354
aS'0x814e826L'
p1355
asg85
Nsg86
Nsg87
S'ea5d08c7dcc07640d42787f826218f11'
p1356
sg89
S'0f53becadd5cc782753a1393fe892363'
p1357
sg91
(lp1358
g1322
ag1329
ag1336
ag1343
asg93
Nsba(ibclass
BBasicBlock
p1359
(dp1360
g12
Nsg13
(lp1361
(ibclass
BInstr
p1362
(dp1363
g2
Nsg17
S'mov     eax, [ebp+p]'
p1364
sg19
S'8b45ec'
p1365
sg21
Vmov eax, dword ptr [ebp - 0x14]
p1366
sg5
L135587878L
sg6
Nsg23
S'mov'
p1367
sg25
S'0x814e826L'
p1368
sg27
Nsba(ibclass
BInstr
p1369
(dp1370
g2
Nsg17
S'lea     edx, [eax-1]'
p1371
sg19
S'8d50ff'
p1372
sg21
Vlea edx, [eax - 1]
p1373
sg5
L135587881L
sg6
Nsg23
S'lea'
p1374
sg25
S'0x814e829L'
p1375
sg27
Nsba(ibclass
BInstr
p1376
(dp1377
g2
Nsg17
S'mov     [ebp+p], edx'
p1378
sg19
S'8955ec'
p1379
sg21
Vmov dword ptr [ebp - 0x14], edx
p1380
sg5
L135587884L
sg6
Nsg23
S'mov'
p1381
sg25
S'0x814e82cL'
p1382
sg27
Nsba(ibclass
BInstr
p1383
(dp1384
g2
Nsg17
S'mov     edx, [ebp+n]'
p1385
sg19
S'8b55f0'
p1386
sg21
Vmov edx, dword ptr [ebp - 0x10]
p1387
sg5
L135587887L
sg6
Nsg23
S'mov'
p1388
sg25
S'0x814e82fL'
p1389
sg27
Nsba(ibclass
BInstr
p1390
(dp1391
g2
Nsg17
S'lea     ecx, [edx-1]'
p1392
sg19
S'8d4aff'
p1393
sg21
Vlea ecx, [edx - 1]
p1394
sg5
L135587890L
sg6
Nsg23
S'lea'
p1395
sg25
S'0x814e832L'
p1396
sg27
Nsba(ibclass
BInstr
p1397
(dp1398
g2
Nsg17
S'mov     [ebp+n], ecx'
p1399
sg19
S'894df0'
p1400
sg21
Vmov dword ptr [ebp - 0x10], ecx
p1401
sg5
L135587893L
sg6
Nsg23
S'mov'
p1402
sg25
S'0x814e835L'
p1403
sg27
Nsba(ibclass
BInstr
p1404
(dp1405
g2
Nsg17
S'mov     dl, [edx]'
p1406
sg19
S'8a12'
p1407
sg21
Vmov dl, byte ptr [edx]
p1408
sg5
L135587896L
sg6
Nsg23
S'mov'
p1409
sg25
S'0x814e838L'
p1410
sg27
Nsba(ibclass
BInstr
p1411
(dp1412
g2
Nsg17
S'neg     edx'
p1413
sg19
S'f7da'
p1414
sg21
Vneg edx
p1415
sg5
L135587898L
sg6
Nsg23
S'neg'
p1416
sg25
S'0x814e83aL'
p1417
sg27
Nsba(ibclass
BInstr
p1418
(dp1419
g2
Nsg17
S'mov     [eax], dl'
p1420
sg19
S'8810'
p1421
sg21
Vmov byte ptr [eax], dl
p1422
sg5
L135587900L
sg6
Nsg23
S'mov'
p1423
sg25
S'0x814e83cL'
p1424
sg27
Nsba(ibclass
BInstr
p1425
(dp1426
g2
Nsg17
S'dec     [ebp+i]'
p1427
sg19
S'ff4de8'
p1428
sg21
Vdec dword ptr [ebp - 0x18]
p1429
sg5
L135587902L
sg6
Nsg23
S'dec'
p1430
sg25
S'0x814e83eL'
p1431
sg27
Nsba(ibclass
BInstr
p1432
(dp1433
g2
Nsg17
S'jmp     short loc_814E85E'
p1434
sg19
S'eb1b'
p1435
sg21
Vjmp 0x1d
p1436
sg5
L135587905L
sg6
Nsg23
S'jmp'
p1437
sg25
S'0x814e841L'
p1438
sg27
Nsbasg70
(lp1439
Vmov eax, mem
p1440
aVlea edx, mem
p1441
aVmov mem, edx
p1442
aVmov edx, mem
p1443
aVlea ecx, mem
p1444
aVmov mem, ecx
p1445
aVmov dl, mem
p1446
ag1415
aVmov mem, dl
p1447
aVdec mem
p1448
aVjmp address
p1449
asg77
Nsg5
S'0x814e826L'
p1450
sg79
(lp1451
S'0x814e81dL'
p1452
asg6
Nsg81
(lp1453
S'0x814e85eL'
p1454
asg85
Nsg86
Nsg87
S'fafebc40467f776bf9176866d38b82a7'
p1455
sg89
S'ce15d8ff4cb01816376ffad8e39e9df1'
p1456
sg91
(lp1457
g1367
ag1374
ag1381
ag1388
ag1395
ag1402
ag1409
ag1416
ag1423
ag1430
ag1437
asg93
Nsba(ibclass
BBasicBlock
p1458
(dp1459
g12
Nsg13
(lp1460
(ibclass
BInstr
p1461
(dp1462
g2
Nsg17
S'mov     eax, [ebp+p]'
p1463
sg19
S'8b45ec'
p1464
sg21
Vmov eax, dword ptr [ebp - 0x14]
p1465
sg5
L135587907L
sg6
Nsg23
S'mov'
p1466
sg25
S'0x814e843L'
p1467
sg27
Nsba(ibclass
BInstr
p1468
(dp1469
g2
Nsg17
S'lea     edx, [eax-1]'
p1470
sg19
S'8d50ff'
p1471
sg21
Vlea edx, [eax - 1]
p1472
sg5
L135587910L
sg6
Nsg23
S'lea'
p1473
sg25
S'0x814e846L'
p1474
sg27
Nsba(ibclass
BInstr
p1475
(dp1476
g2
Nsg17
S'mov     [ebp+p], edx'
p1477
sg19
S'8955ec'
p1478
sg21
Vmov dword ptr [ebp - 0x14], edx
p1479
sg5
L135587913L
sg6
Nsg23
S'mov'
p1480
sg25
S'0x814e849L'
p1481
sg27
Nsba(ibclass
BInstr
p1482
(dp1483
g2
Nsg17
S'mov     edx, [ebp+n]'
p1484
sg19
S'8b55f0'
p1485
sg21
Vmov edx, dword ptr [ebp - 0x10]
p1486
sg5
L135587916L
sg6
Nsg23
S'mov'
p1487
sg25
S'0x814e84cL'
p1488
sg27
Nsba(ibclass
BInstr
p1489
(dp1490
g2
Nsg17
S'lea     ecx, [edx-1]'
p1491
sg19
S'8d4aff'
p1492
sg21
Vlea ecx, [edx - 1]
p1493
sg5
L135587919L
sg6
Nsg23
S'lea'
p1494
sg25
S'0x814e84fL'
p1495
sg27
Nsba(ibclass
BInstr
p1496
(dp1497
g2
Nsg17
S'mov     [ebp+n], ecx'
p1498
sg19
S'894df0'
p1499
sg21
Vmov dword ptr [ebp - 0x10], ecx
p1500
sg5
L135587922L
sg6
Nsg23
S'mov'
p1501
sg25
S'0x814e852L'
p1502
sg27
Nsba(ibclass
BInstr
p1503
(dp1504
g2
Nsg17
S'mov     dl, [edx]'
p1505
sg19
S'8a12'
p1506
sg21
Vmov dl, byte ptr [edx]
p1507
sg5
L135587925L
sg6
Nsg23
S'mov'
p1508
sg25
S'0x814e855L'
p1509
sg27
Nsba(ibclass
BInstr
p1510
(dp1511
g2
Nsg17
S'not     edx'
p1512
sg19
S'f7d2'
p1513
sg21
Vnot edx
p1514
sg5
L135587927L
sg6
Nsg23
S'not'
p1515
sg25
S'0x814e857L'
p1516
sg27
Nsba(ibclass
BInstr
p1517
(dp1518
g2
Nsg17
S'mov     [eax], dl'
p1519
sg19
S'8810'
p1520
sg21
Vmov byte ptr [eax], dl
p1521
sg5
L135587929L
sg6
Nsg23
S'mov'
p1522
sg25
S'0x814e859L'
p1523
sg27
Nsba(ibclass
BInstr
p1524
(dp1525
g2
Nsg17
S'dec     [ebp+i]'
p1526
sg19
S'ff4de8'
p1527
sg21
Vdec dword ptr [ebp - 0x18]
p1528
sg5
L135587931L
sg6
Nsg23
S'dec'
p1529
sg25
S'0x814e85bL'
p1530
sg27
Nsbasg70
(lp1531
Vmov eax, mem
p1532
aVlea edx, mem
p1533
aVmov mem, edx
p1534
aVmov edx, mem
p1535
aVlea ecx, mem
p1536
aVmov mem, ecx
p1537
aVmov dl, mem
p1538
ag1514
aVmov mem, dl
p1539
aVdec mem
p1540
asg77
Nsg5
S'0x814e843L'
p1541
sg79
(lp1542
S'0x814e85eL'
p1543
asg6
Nsg81
(lp1544
S'0x814e85eL'
p1545
asg85
Nsg86
Nsg87
S'98858f2e8175815aadd8bc0123382000'
p1546
sg89
S'28cbdb905cc72631bdfbad02def86c82'
p1547
sg91
(lp1548
g1466
ag1473
ag1480
ag1487
ag1494
ag1501
ag1508
ag1515
ag1522
ag1529
asg93
Nsba(ibclass
BBasicBlock
p1549
(dp1550
g12
Nsg13
(lp1551
(ibclass
BInstr
p1552
(dp1553
g2
Nsg17
S'cmp     [ebp+i], 0'
p1554
sg19
S'837de800'
p1555
sg21
Vcmp dword ptr [ebp - 0x18], 0
p1556
sg5
L135587934L
sg6
Nsg23
S'cmp'
p1557
sg25
S'0x814e85eL'
p1558
sg27
Nsba(ibclass
BInstr
p1559
(dp1560
g2
Nsg17
S'jg      short loc_814E843'
p1561
sg19
S'7fdf'
p1562
sg21
Vjg 0xffffffe1
p1563
sg5
L135587938L
sg6
Nsg23
S'jg'
p1564
sg25
S'0x814e862L'
p1565
sg27
Nsbasg70
(lp1566
Vcmp mem, 0
p1567
aVjg address
p1568
asg77
Nsg5
S'0x814e85eL'
p1569
sg79
(lp1570
S'0x814e826L'
p1571
aS'0x814e843L'
p1572
asg6
Nsg81
(lp1573
S'0x814e843L'
p1574
aS'0x814e864L'
p1575
asg85
Nsg86
Nsg87
S'b356acbc0cbaf5ebf0a35cc7bcc98784'
p1576
sg89
S'd3c4f930fa078cc3ed140fba0f5ab431'
p1577
sg91
(lp1578
g1557
ag1564
asg93
Nsba(ibclass
BBasicBlock
p1579
(dp1580
g12
Nsg13
(lp1581
(ibclass
BInstr
p1582
(dp1583
g2
Nsg17
S'mov     eax, [ebp+pp]'
p1584
sg19
S'8b450c'
p1585
sg21
Vmov eax, dword ptr [ebp + 0xc]
p1586
sg5
L135587940L
sg6
Nsg23
S'mov'
p1587
sg25
S'0x814e864L'
p1588
sg27
Nsba(ibclass
BInstr
p1589
(dp1590
g2
Nsg17
S'mov     edx, [eax]'
p1591
sg19
S'8b10'
p1592
sg21
Vmov edx, dword ptr [eax]
p1593
sg5
L135587943L
sg6
Nsg23
S'mov'
p1594
sg25
S'0x814e867L'
p1595
sg27
Nsba(ibclass
BInstr
p1596
(dp1597
g2
Nsg17
S'mov     eax, [ebp+ret]'
p1598
sg19
S'8b45e4'
p1599
sg21
Vmov eax, dword ptr [ebp - 0x1c]
p1600
sg5
L135587945L
sg6
Nsg23
S'mov'
p1601
sg25
S'0x814e869L'
p1602
sg27
Nsba(ibclass
BInstr
p1603
(dp1604
g2
Nsg17
S'add     edx, eax'
p1605
sg19
S'01c2'
p1606
sg21
Vadd edx, eax
p1607
sg5
L135587948L
sg6
Nsg23
S'add'
p1608
sg25
S'0x814e86cL'
p1609
sg27
Nsba(ibclass
BInstr
p1610
(dp1611
g2
Nsg17
S'mov     eax, [ebp+pp]'
p1612
sg19
S'8b450c'
p1613
sg21
Vmov eax, dword ptr [ebp + 0xc]
p1614
sg5
L135587950L
sg6
Nsg23
S'mov'
p1615
sg25
S'0x814e86eL'
p1616
sg27
Nsba(ibclass
BInstr
p1617
(dp1618
g2
Nsg17
S'mov     [eax], edx'
p1619
sg19
S'8910'
p1620
sg21
Vmov dword ptr [eax], edx
p1621
sg5
L135587953L
sg6
Nsg23
S'mov'
p1622
sg25
S'0x814e871L'
p1623
sg27
Nsba(ibclass
BInstr
p1624
(dp1625
g2
Nsg17
S'mov     eax, [ebp+ret]'
p1626
sg19
S'8b45e4'
p1627
sg21
Vmov eax, dword ptr [ebp - 0x1c]
p1628
sg5
L135587955L
sg6
Nsg23
S'mov'
p1629
sg25
S'0x814e873L'
p1630
sg27
Nsbasg70
(lp1631
Vmov eax, mem
p1632
aVmov edx, mem
p1633
aVmov eax, mem
p1634
ag1607
aVmov eax, mem
p1635
aVmov mem, edx
p1636
aVmov eax, mem
p1637
asg77
Nsg5
S'0x814e864L'
p1638
sg79
(lp1639
S'0x814e7aeL'
p1640
aS'0x814e7c5L'
p1641
aS'0x814e85eL'
p1642
asg6
Nsg81
(lp1643
S'0x814e876L'
p1644
asg85
Nsg86
Nsg87
S'7c90f166a0525500a8270b78e2d2db55'
p1645
sg89
S'31b24d6236b95e45242ba4f845269881'
p1646
sg91
(lp1647
g1587
ag1594
ag1601
ag1608
ag1615
ag1622
ag1629
asg93
Nsba(ibclass
BBasicBlock
p1648
(dp1649
g12
Nsg13
(lp1650
(ibclass
BInstr
p1651
(dp1652
g2
Nsg17
S'leave'
p1653
sg19
S'c9'
p1654
sg21
Vleave 
p1655
sg5
L135587958L
sg6
Nsg23
S'leave'
p1656
sg25
S'0x814e876L'
p1657
sg27
Nsba(ibclass
BInstr
p1658
(dp1659
g2
Nsg17
S'retn'
p1660
sg19
S'c3'
p1661
sg21
Vret 
p1662
sg5
L135587959L
sg6
Nsg23
S'retn'
p1663
sg25
S'0x814e877L'
p1664
sg27
Nsbasg70
(lp1665
Vleave
p1666
aVret
p1667
asg77
Nsg5
S'0x814e876L'
p1668
sg79
(lp1669
S'0x814e6beL'
p1670
aS'0x814e781L'
p1671
aS'0x814e864L'
p1672
asg6
Nsg81
(lp1673
sg85
Nsg86
Nsg87
S'08c78f73a6f87c85da88b2982f54ce2a'
p1674
sg89
S'393fee3c9fb1d26424d4b7704918e387'
p1675
sg91
(lp1676
g1656
ag1663
asg93
Nsbasb.