(ibclass
BFunc
p0
(dp1
S'hash'
p2
NsS'name'
p3
S'tls_decrypt_ticket'
p4
sS'start_address'
p5
L135001117L
sS'flag'
p6
NsS'program'
p7
NsS'bbs'
p8
(lp9
(ibclass
BBasicBlock
p10
(dp11
S'function'
p12
NsS'binstrs'
p13
(lp14
(ibclass
BInstr
p15
(dp16
g2
NsS'disasm'
p17
S'push    ebp'
p18
sS'bytes'
p19
S'55'
p20
sS'disasm_striped'
p21
Vpush ebp
p22
sg5
L135001117L
sg6
NsS'mnem'
p23
S'push'
p24
sS'address'
p25
S'0x80bf41dL'
p26
sS'basicblock'
p27
Nsba(ibclass
BInstr
p28
(dp29
g2
Nsg17
S'mov     ebp, esp'
p30
sg19
S'89e5'
p31
sg21
Vmov ebp, esp
p32
sg5
L135001118L
sg6
Nsg23
S'mov'
p33
sg25
S'0x80bf41eL'
p34
sg27
Nsba(ibclass
BInstr
p35
(dp36
g2
Nsg17
S'push    edi'
p37
sg19
S'57'
p38
sg21
Vpush edi
p39
sg5
L135001120L
sg6
Nsg23
S'push'
p40
sg25
S'0x80bf420L'
p41
sg27
Nsba(ibclass
BInstr
p42
(dp43
g2
Nsg17
S'push    esi'
p44
sg19
S'56'
p45
sg21
Vpush esi
p46
sg5
L135001121L
sg6
Nsg23
S'push'
p47
sg25
S'0x80bf421L'
p48
sg27
Nsba(ibclass
BInstr
p49
(dp50
g2
Nsg17
S'push    ebx'
p51
sg19
S'53'
p52
sg21
Vpush ebx
p53
sg5
L135001122L
sg6
Nsg23
S'push'
p54
sg25
S'0x80bf422L'
p55
sg27
Nsba(ibclass
BInstr
p56
(dp57
g2
Nsg17
S'sub     esp, 20Ch'
p58
sg19
S'81ec0c020000'
p59
sg21
Vsub esp, 0x20c
p60
sg5
L135001123L
sg6
Nsg23
S'sub'
p61
sg25
S'0x80bf423L'
p62
sg27
Nsba(ibclass
BInstr
p63
(dp64
g2
Nsg17
S'mov     eax, [ebp+arg_0]'
p65
sg19
S'8b4508'
p66
sg21
Vmov eax, dword ptr [ebp + 8]
p67
sg5
L135001129L
sg6
Nsg23
S'mov'
p68
sg25
S'0x80bf429L'
p69
sg27
Nsba(ibclass
BInstr
p70
(dp71
g2
Nsg17
S'mov     [ebp+s], eax'
p72
sg19
S'898514feffff'
p73
sg21
Vmov dword ptr [ebp - 0x1ec], eax
p74
sg5
L135001132L
sg6
Nsg23
S'mov'
p75
sg25
S'0x80bf42cL'
p76
sg27
Nsba(ibclass
BInstr
p77
(dp78
g2
Nsg17
S'mov     eax, [ebp+arg_4]'
p79
sg19
S'8b450c'
p80
sg21
Vmov eax, dword ptr [ebp + 0xc]
p81
sg5
L135001138L
sg6
Nsg23
S'mov'
p82
sg25
S'0x80bf432L'
p83
sg27
Nsba(ibclass
BInstr
p84
(dp85
g2
Nsg17
S'mov     [ebp+etick], eax'
p86
sg19
S'898510feffff'
p87
sg21
Vmov dword ptr [ebp - 0x1f0], eax
p88
sg5
L135001141L
sg6
Nsg23
S'mov'
p89
sg25
S'0x80bf435L'
p90
sg27
Nsba(ibclass
BInstr
p91
(dp92
g2
Nsg17
S'mov     eax, [ebp+arg_C]'
p93
sg19
S'8b4514'
p94
sg21
Vmov eax, dword ptr [ebp + 0x14]
p95
sg5
L135001147L
sg6
Nsg23
S'mov'
p96
sg25
S'0x80bf43bL'
p97
sg27
Nsba(ibclass
BInstr
p98
(dp99
g2
Nsg17
S'mov     [ebp+sess_id], eax'
p100
sg19
S'89850cfeffff'
p101
sg21
Vmov dword ptr [ebp - 0x1f4], eax
p102
sg5
L135001150L
sg6
Nsg23
S'mov'
p103
sg25
S'0x80bf43eL'
p104
sg27
Nsba(ibclass
BInstr
p105
(dp106
g2
Nsg17
S'mov     eax, [ebp+arg_14]'
p107
sg19
S'8b451c'
p108
sg21
Vmov eax, dword ptr [ebp + 0x1c]
p109
sg5
L135001156L
sg6
Nsg23
S'mov'
p110
sg25
S'0x80bf444L'
p111
sg27
Nsba(ibclass
BInstr
p112
(dp113
g2
Nsg17
S'mov     [ebp+psess], eax'
p114
sg19
S'898508feffff'
p115
sg21
Vmov dword ptr [ebp - 0x1f8], eax
p116
sg5
L135001159L
sg6
Nsg23
S'mov'
p117
sg25
S'0x80bf447L'
p118
sg27
Nsba(ibclass
BInstr
p119
(dp120
g2
Nsg17
S'mov     eax, large gs:14h'
p121
sg19
S'65a114000000'
p122
sg21
Vmov eax, dword ptr gs:[0x14]
p123
sg5
L135001165L
sg6
Nsg23
S'mov'
p124
sg25
S'0x80bf44dL'
p125
sg27
Nsba(ibclass
BInstr
p126
(dp127
g2
Nsg17
S'mov     [ebp+var_1C], eax'
p128
sg19
S'8945e4'
p129
sg21
Vmov dword ptr [ebp - 0x1c], eax
p130
sg5
L135001171L
sg6
Nsg23
S'mov'
p131
sg25
S'0x80bf453L'
p132
sg27
Nsba(ibclass
BInstr
p133
(dp134
g2
Nsg17
S'xor     eax, eax'
p135
sg19
S'31c0'
p136
sg21
Vxor eax, eax
p137
sg5
L135001174L
sg6
Nsg23
S'xor'
p138
sg25
S'0x80bf456L'
p139
sg27
Nsba(ibclass
BInstr
p140
(dp141
g2
Nsg17
S'mov     [ebp+renew_ticket], 0'
p142
sg19
S'c78530feffff00000000'
p143
sg21
Vmov dword ptr [ebp - 0x1d0], 0
p144
sg5
L135001176L
sg6
Nsg23
S'mov'
p145
sg25
S'0x80bf458L'
p146
sg27
Nsba(ibclass
BInstr
p147
(dp148
g2
Nsg17
S'mov     eax, [ebp+s]'
p149
sg19
S'8b8514feffff'
p150
sg21
Vmov eax, dword ptr [ebp - 0x1ec]
p151
sg5
L135001186L
sg6
Nsg23
S'mov'
p152
sg25
S'0x80bf462L'
p153
sg27
Nsba(ibclass
BInstr
p154
(dp155
g2
Nsg17
S'mov     eax, [eax+170h]'
p156
sg19
S'8b8070010000'
p157
sg21
Vmov eax, dword ptr [eax + 0x170]
p158
sg5
L135001192L
sg6
Nsg23
S'mov'
p159
sg25
S'0x80bf468L'
p160
sg27
Nsba(ibclass
BInstr
p161
(dp162
g2
Nsg17
S'mov     [ebp+tctx], eax'
p163
sg19
S'898534feffff'
p164
sg21
Vmov dword ptr [ebp - 0x1cc], eax
p165
sg5
L135001198L
sg6
Nsg23
S'mov'
p166
sg25
S'0x80bf46eL'
p167
sg27
Nsba(ibclass
BInstr
p168
(dp169
g2
Nsg17
S'cmp     [ebp+eticklen], 2Fh'
p170
sg19
S'837d102f'
p171
sg21
Vcmp dword ptr [ebp + 0x10], 0x2f
p172
sg5
L135001204L
sg6
Nsg23
S'cmp'
p173
sg25
S'0x80bf474L'
p174
sg27
Nsba(ibclass
BInstr
p175
(dp176
g2
Nsg17
S'jg      short loc_80BF484'
p177
sg19
S'7f0a'
p178
sg21
Vjg 0xc
p179
sg5
L135001208L
sg6
Nsg23
S'jg'
p180
sg25
S'0x80bf478L'
p181
sg27
NsbasS'disasm_list'
p182
(lp183
g22
ag32
ag39
ag46
ag53
aVsub esp, address
p184
aVmov eax, mem
p185
aVmov mem, eax
p186
aVmov eax, mem
p187
aVmov mem, eax
p188
aVmov eax, mem
p189
aVmov mem, eax
p190
aVmov eax, mem
p191
aVmov mem, eax
p192
aVmov eax, gs:mem
p193
aVmov mem, eax
p194
ag137
aVmov mem, 0
p195
aVmov eax, mem
p196
aVmov eax, mem
p197
aVmov mem, eax
p198
aVcmp mem, address
p199
aVjg address
p200
asS'end_address'
p201
Nsg5
S'0x80bf41dL'
p202
sS'preds'
p203
(lp204
sg6
NsS'succs'
p205
(lp206
S'0x80bf47aL'
p207
aS'0x80bf484L'
p208
asS'hash_v3'
p209
NsS'flag_v2'
p210
NsS'hash_v1'
p211
S'ab3f048441363b07f792ab2029dfd2be'
p212
sS'hash_v2'
p213
S'c8f2170aa3dd06d0356ce4acd8709327'
p214
sS'mnen_list'
p215
(lp216
g24
ag33
ag40
ag47
ag54
ag61
ag68
ag75
ag82
ag89
ag96
ag103
ag110
ag117
ag124
ag131
ag138
ag145
ag152
ag159
ag166
ag173
ag180
asS'neighbour_disasm_list'
p217
Nsba(ibclass
BBasicBlock
p218
(dp219
g12
Nsg13
(lp220
(ibclass
BInstr
p221
(dp222
g2
Nsg17
S'mov     eax, 2'
p223
sg19
S'b802000000'
p224
sg21
Vmov eax, 2
p225
sg5
L135001210L
sg6
Nsg23
S'mov'
p226
sg25
S'0x80bf47aL'
p227
sg27
Nsba(ibclass
BInstr
p228
(dp229
g2
Nsg17
S'jmp     loc_80BF870'
p230
sg19
S'e9ec030000'
p231
sg21
Vjmp 0x3f1
p232
sg5
L135001215L
sg6
Nsg23
S'jmp'
p233
sg25
S'0x80bf47fL'
p234
sg27
Nsbasg182
(lp235
g225
aVjmp address
p236
asg201
Nsg5
S'0x80bf47aL'
p237
sg203
(lp238
S'0x80bf41dL'
p239
asg6
Nsg205
(lp240
S'0x80bf870L'
p241
asg209
Nsg210
Nsg211
S'8b9a0d40e062be2b9b2d9885108fb196'
p242
sg213
S'7282f82a6c8726594dd819847969733b'
p243
sg215
(lp244
g226
ag233
asg217
Nsba(ibclass
BBasicBlock
p245
(dp246
g12
Nsg13
(lp247
(ibclass
BInstr
p248
(dp249
g2
Nsg17
S'lea     eax, [ebp+hctx]'
p250
sg19
S'8d8514ffffff'
p251
sg21
Vlea eax, [ebp - 0xec]
p252
sg5
L135001220L
sg6
Nsg23
S'lea'
p253
sg25
S'0x80bf484L'
p254
sg27
Nsba(ibclass
BInstr
p255
(dp256
g2
Nsg17
S'mov     [esp], eax      ; ctx'
p257
sg19
S'890424'
p258
sg21
Vmov dword ptr [esp], eax
p259
sg5
L135001226L
sg6
Nsg23
S'mov'
p260
sg25
S'0x80bf48aL'
p261
sg27
Nsba(ibclass
BInstr
p262
(dp263
g2
Nsg17
S'call    HMAC_CTX_init'
p264
sg19
S'e880080300'
p265
sg21
Vcall 0x30885
p266
sg5
L135001229L
sg6
Nsg23
S'call'
p267
sg25
S'0x80bf48dL'
p268
sg27
Nsba(ibclass
BInstr
p269
(dp270
g2
Nsg17
S'lea     eax, [ebp+ctx]'
p271
sg19
S'8d8588feffff'
p272
sg21
Vlea eax, [ebp - 0x178]
p273
sg5
L135001234L
sg6
Nsg23
S'lea'
p274
sg25
S'0x80bf492L'
p275
sg27
Nsba(ibclass
BInstr
p276
(dp277
g2
Nsg17
S'mov     [esp], eax      ; ctx'
p278
sg19
S'890424'
p279
sg21
Vmov dword ptr [esp], eax
p280
sg5
L135001240L
sg6
Nsg23
S'mov'
p281
sg25
S'0x80bf498L'
p282
sg27
Nsba(ibclass
BInstr
p283
(dp284
g2
Nsg17
S'call    EVP_CIPHER_CTX_init'
p285
sg19
S'e8bfe20700'
p286
sg21
Vcall 0x7e2c4
p287
sg5
L135001243L
sg6
Nsg23
S'call'
p288
sg25
S'0x80bf49bL'
p289
sg27
Nsba(ibclass
BInstr
p290
(dp291
g2
Nsg17
S'mov     eax, [ebp+tctx]'
p292
sg19
S'8b8534feffff'
p293
sg21
Vmov eax, dword ptr [ebp - 0x1cc]
p294
sg5
L135001248L
sg6
Nsg23
S'mov'
p295
sg25
S'0x80bf4a0L'
p296
sg27
Nsba(ibclass
BInstr
p297
(dp298
g2
Nsg17
S'mov     eax, [eax+138h]'
p299
sg19
S'8b8038010000'
p300
sg21
Vmov eax, dword ptr [eax + 0x138]
p301
sg5
L135001254L
sg6
Nsg23
S'mov'
p302
sg25
S'0x80bf4a6L'
p303
sg27
Nsba(ibclass
BInstr
p304
(dp305
g2
Nsg17
S'test    eax, eax'
p306
sg19
S'85c0'
p307
sg21
Vtest eax, eax
p308
sg5
L135001260L
sg6
Nsg23
S'test'
p309
sg25
S'0x80bf4acL'
p310
sg27
Nsba(ibclass
BInstr
p311
(dp312
g2
Nsg17
S'jz      loc_80BF553'
p313
sg19
S'0f849f000000'
p314
sg21
Vje 0xa5
p315
sg5
L135001262L
sg6
Nsg23
S'jz'
p316
sg25
S'0x80bf4aeL'
p317
sg27
Nsbasg182
(lp318
Vlea eax, mem
p319
aVmov mem, eax
p320
aVcall address
p321
aVlea eax, mem
p322
aVmov mem, eax
p323
aVcall address
p324
aVmov eax, mem
p325
aVmov eax, mem
p326
ag308
aVje address
p327
asg201
Nsg5
S'0x80bf484L'
p328
sg203
(lp329
S'0x80bf41dL'
p330
asg6
Nsg205
(lp331
S'0x80bf4b4L'
p332
aS'0x80bf553L'
p333
asg209
Nsg210
Nsg211
S'f5a72dadb7d0a0e3e4cc10930a469a72'
p334
sg213
S'c9659fbd1b95172f622bb62ac4e7d0ab'
p335
sg215
(lp336
g253
ag260
ag267
ag274
ag281
ag288
ag295
ag302
ag309
ag316
asg217
Nsba(ibclass
BBasicBlock
p337
(dp338
g12
Nsg13
(lp339
(ibclass
BInstr
p340
(dp341
g2
Nsg17
S'mov     eax, [ebp+etick]'
p342
sg19
S'8b8510feffff'
p343
sg21
Vmov eax, dword ptr [ebp - 0x1f0]
p344
sg5
L135001268L
sg6
Nsg23
S'mov'
p345
sg25
S'0x80bf4b4L'
p346
sg27
Nsba(ibclass
BInstr
p347
(dp348
g2
Nsg17
S'mov     [ebp+nctick], eax'
p349
sg19
S'898538feffff'
p350
sg21
Vmov dword ptr [ebp - 0x1c8], eax
p351
sg5
L135001274L
sg6
Nsg23
S'mov'
p352
sg25
S'0x80bf4baL'
p353
sg27
Nsba(ibclass
BInstr
p354
(dp355
g2
Nsg17
S'mov     eax, [ebp+tctx]'
p356
sg19
S'8b8534feffff'
p357
sg21
Vmov eax, dword ptr [ebp - 0x1cc]
p358
sg5
L135001280L
sg6
Nsg23
S'mov'
p359
sg25
S'0x80bf4c0L'
p360
sg27
Nsba(ibclass
BInstr
p361
(dp362
g2
Nsg17
S'mov     eax, [eax+138h]'
p363
sg19
S'8b8038010000'
p364
sg21
Vmov eax, dword ptr [eax + 0x138]
p365
sg5
L135001286L
sg6
Nsg23
S'mov'
p366
sg25
S'0x80bf4c6L'
p367
sg27
Nsba(ibclass
BInstr
p368
(dp369
g2
Nsg17
S'mov     edx, [ebp+nctick]'
p370
sg19
S'8b9538feffff'
p371
sg21
Vmov edx, dword ptr [ebp - 0x1c8]
p372
sg5
L135001292L
sg6
Nsg23
S'mov'
p373
sg25
S'0x80bf4ccL'
p374
sg27
Nsba(ibclass
BInstr
p375
(dp376
g2
Nsg17
S'lea     ecx, [edx+10h]'
p377
sg19
S'8d4a10'
p378
sg21
Vlea ecx, [edx + 0x10]
p379
sg5
L135001298L
sg6
Nsg23
S'lea'
p380
sg25
S'0x80bf4d2L'
p381
sg27
Nsba(ibclass
BInstr
p382
(dp383
g2
Nsg17
S'mov     dword ptr [esp+14h], 0'
p384
sg19
S'c744241400000000'
p385
sg21
Vmov dword ptr [esp + 0x14], 0
p386
sg5
L135001301L
sg6
Nsg23
S'mov'
p387
sg25
S'0x80bf4d5L'
p388
sg27
Nsba(ibclass
BInstr
p389
(dp390
g2
Nsg17
S'lea     edx, [ebp+hctx]'
p391
sg19
S'8d9514ffffff'
p392
sg21
Vlea edx, [ebp - 0xec]
p393
sg5
L135001309L
sg6
Nsg23
S'lea'
p394
sg25
S'0x80bf4ddL'
p395
sg27
Nsba(ibclass
BInstr
p396
(dp397
g2
Nsg17
S'mov     [esp+10h], edx'
p398
sg19
S'89542410'
p399
sg21
Vmov dword ptr [esp + 0x10], edx
p400
sg5
L135001315L
sg6
Nsg23
S'mov'
p401
sg25
S'0x80bf4e3L'
p402
sg27
Nsba(ibclass
BInstr
p403
(dp404
g2
Nsg17
S'lea     edx, [ebp+ctx]'
p405
sg19
S'8d9588feffff'
p406
sg21
Vlea edx, [ebp - 0x178]
p407
sg5
L135001319L
sg6
Nsg23
S'lea'
p408
sg25
S'0x80bf4e7L'
p409
sg27
Nsba(ibclass
BInstr
p410
(dp411
g2
Nsg17
S'mov     [esp+0Ch], edx'
p412
sg19
S'8954240c'
p413
sg21
Vmov dword ptr [esp + 0xc], edx
p414
sg5
L135001325L
sg6
Nsg23
S'mov'
p415
sg25
S'0x80bf4edL'
p416
sg27
Nsba(ibclass
BInstr
p417
(dp418
g2
Nsg17
S'mov     [esp+8], ecx'
p419
sg19
S'894c2408'
p420
sg21
Vmov dword ptr [esp + 8], ecx
p421
sg5
L135001329L
sg6
Nsg23
S'mov'
p422
sg25
S'0x80bf4f1L'
p423
sg27
Nsba(ibclass
BInstr
p424
(dp425
g2
Nsg17
S'mov     edx, [ebp+nctick]'
p426
sg19
S'8b9538feffff'
p427
sg21
Vmov edx, dword ptr [ebp - 0x1c8]
p428
sg5
L135001333L
sg6
Nsg23
S'mov'
p429
sg25
S'0x80bf4f5L'
p430
sg27
Nsba(ibclass
BInstr
p431
(dp432
g2
Nsg17
S'mov     [esp+4], edx'
p433
sg19
S'89542404'
p434
sg21
Vmov dword ptr [esp + 4], edx
p435
sg5
L135001339L
sg6
Nsg23
S'mov'
p436
sg25
S'0x80bf4fbL'
p437
sg27
Nsba(ibclass
BInstr
p438
(dp439
g2
Nsg17
S'mov     edx, [ebp+s]'
p440
sg19
S'8b9514feffff'
p441
sg21
Vmov edx, dword ptr [ebp - 0x1ec]
p442
sg5
L135001343L
sg6
Nsg23
S'mov'
p443
sg25
S'0x80bf4ffL'
p444
sg27
Nsba(ibclass
BInstr
p445
(dp446
g2
Nsg17
S'mov     [esp], edx'
p447
sg19
S'891424'
p448
sg21
Vmov dword ptr [esp], edx
p449
sg5
L135001349L
sg6
Nsg23
S'mov'
p450
sg25
S'0x80bf505L'
p451
sg27
Nsba(ibclass
BInstr
p452
(dp453
g2
Nsg17
S'call    eax'
p454
sg19
S'ffd0'
p455
sg21
Vcall eax
p456
sg5
L135001352L
sg6
Nsg23
S'call'
p457
sg25
S'0x80bf508L'
p458
sg27
Nsba(ibclass
BInstr
p459
(dp460
g2
Nsg17
S'mov     [ebp+rv], eax'
p461
sg19
S'89853cfeffff'
p462
sg21
Vmov dword ptr [ebp - 0x1c4], eax
p463
sg5
L135001354L
sg6
Nsg23
S'mov'
p464
sg25
S'0x80bf50aL'
p465
sg27
Nsba(ibclass
BInstr
p466
(dp467
g2
Nsg17
S'cmp     [ebp+rv], 0'
p468
sg19
S'83bd3cfeffff00'
p469
sg21
Vcmp dword ptr [ebp - 0x1c4], 0
p470
sg5
L135001360L
sg6
Nsg23
S'cmp'
p471
sg25
S'0x80bf510L'
p472
sg27
Nsba(ibclass
BInstr
p473
(dp474
g2
Nsg17
S'jns     short loc_80BF523'
p475
sg19
S'790a'
p476
sg21
Vjns 0xc
p477
sg5
L135001367L
sg6
Nsg23
S'jns'
p478
sg25
S'0x80bf517L'
p479
sg27
Nsbasg182
(lp480
Vmov eax, mem
p481
aVmov mem, eax
p482
aVmov eax, mem
p483
aVmov eax, mem
p484
aVmov edx, mem
p485
aVlea ecx, mem
p486
aVmov mem, 0
p487
aVlea edx, mem
p488
aVmov mem, edx
p489
aVlea edx, mem
p490
aVmov mem, edx
p491
aVmov mem, ecx
p492
aVmov edx, mem
p493
aVmov mem, edx
p494
aVmov edx, mem
p495
aVmov mem, edx
p496
ag456
aVmov mem, eax
p497
aVcmp mem, 0
p498
aVjns address
p499
asg201
Nsg5
S'0x80bf4b4L'
p500
sg203
(lp501
S'0x80bf484L'
p502
asg6
Nsg205
(lp503
S'0x80bf519L'
p504
aS'0x80bf523L'
p505
asg209
Nsg210
Nsg211
S'6d0057f467e1ed10c70ad302e56d6d43'
p506
sg213
S'0682b333c385cd57933cbcb02c19d0d8'
p507
sg215
(lp508
g345
ag352
ag359
ag366
ag373
ag380
ag387
ag394
ag401
ag408
ag415
ag422
ag429
ag436
ag443
ag450
ag457
ag464
ag471
ag478
asg217
Nsba(ibclass
BBasicBlock
p509
(dp510
g12
Nsg13
(lp511
(ibclass
BInstr
p512
(dp513
g2
Nsg17
S'mov     eax, 0FFFFFFFFh'
p514
sg19
S'b8ffffffff'
p515
sg21
Vmov eax, 0xffffffff
p516
sg5
L135001369L
sg6
Nsg23
S'mov'
p517
sg25
S'0x80bf519L'
p518
sg27
Nsba(ibclass
BInstr
p519
(dp520
g2
Nsg17
S'jmp     loc_80BF870'
p521
sg19
S'e94d030000'
p522
sg21
Vjmp 0x352
p523
sg5
L135001374L
sg6
Nsg23
S'jmp'
p524
sg25
S'0x80bf51eL'
p525
sg27
Nsbasg182
(lp526
Vmov eax, address
p527
aVjmp address
p528
asg201
Nsg5
S'0x80bf519L'
p529
sg203
(lp530
S'0x80bf4b4L'
p531
asg6
Nsg205
(lp532
S'0x80bf870L'
p533
asg209
Nsg210
Nsg211
S'8b9a0d40e062be2b9b2d9885108fb196'
p534
sg213
S'926f437691f480d6543b7a7101724292'
p535
sg215
(lp536
g517
ag524
asg217
Nsba(ibclass
BBasicBlock
p537
(dp538
g12
Nsg13
(lp539
(ibclass
BInstr
p540
(dp541
g2
Nsg17
S'cmp     [ebp+rv], 0'
p542
sg19
S'83bd3cfeffff00'
p543
sg21
Vcmp dword ptr [ebp - 0x1c4], 0
p544
sg5
L135001379L
sg6
Nsg23
S'cmp'
p545
sg25
S'0x80bf523L'
p546
sg27
Nsba(ibclass
BInstr
p547
(dp548
g2
Nsg17
S'jnz     short loc_80BF536'
p549
sg19
S'750a'
p550
sg21
Vjne 0xc
p551
sg5
L135001386L
sg6
Nsg23
S'jnz'
p552
sg25
S'0x80bf52aL'
p553
sg27
Nsbasg182
(lp554
Vcmp mem, 0
p555
aVjne address
p556
asg201
Nsg5
S'0x80bf523L'
p557
sg203
(lp558
S'0x80bf4b4L'
p559
asg6
Nsg205
(lp560
S'0x80bf52cL'
p561
aS'0x80bf536L'
p562
asg209
Nsg210
Nsg211
S'30cb3d6f6a174adfabcde507f6944a52'
p563
sg213
S'ac6a5deb49a2d2e7162632941da7e135'
p564
sg215
(lp565
g545
ag552
asg217
Nsba(ibclass
BBasicBlock
p566
(dp567
g12
Nsg13
(lp568
(ibclass
BInstr
p569
(dp570
g2
Nsg17
S'mov     eax, 2'
p571
sg19
S'b802000000'
p572
sg21
Vmov eax, 2
p573
sg5
L135001388L
sg6
Nsg23
S'mov'
p574
sg25
S'0x80bf52cL'
p575
sg27
Nsba(ibclass
BInstr
p576
(dp577
g2
Nsg17
S'jmp     loc_80BF870'
p578
sg19
S'e93a030000'
p579
sg21
Vjmp 0x33f
p580
sg5
L135001393L
sg6
Nsg23
S'jmp'
p581
sg25
S'0x80bf531L'
p582
sg27
Nsbasg182
(lp583
g573
aVjmp address
p584
asg201
Nsg5
S'0x80bf52cL'
p585
sg203
(lp586
S'0x80bf523L'
p587
asg6
Nsg205
(lp588
S'0x80bf870L'
p589
asg209
Nsg210
Nsg211
S'8b9a0d40e062be2b9b2d9885108fb196'
p590
sg213
S'7282f82a6c8726594dd819847969733b'
p591
sg215
(lp592
g574
ag581
asg217
Nsba(ibclass
BBasicBlock
p593
(dp594
g12
Nsg13
(lp595
(ibclass
BInstr
p596
(dp597
g2
Nsg17
S'cmp     [ebp+rv], 2'
p598
sg19
S'83bd3cfeffff02'
p599
sg21
Vcmp dword ptr [ebp - 0x1c4], 2
p600
sg5
L135001398L
sg6
Nsg23
S'cmp'
p601
sg25
S'0x80bf536L'
p602
sg27
Nsba(ibclass
BInstr
p603
(dp604
g2
Nsg17
S'jnz     short loc_80BF54E'
p605
sg19
S'750f'
p606
sg21
Vjne 0x11
p607
sg5
L135001405L
sg6
Nsg23
S'jnz'
p608
sg25
S'0x80bf53dL'
p609
sg27
Nsbasg182
(lp610
Vcmp mem, 2
p611
aVjne address
p612
asg201
Nsg5
S'0x80bf536L'
p613
sg203
(lp614
S'0x80bf523L'
p615
asg6
Nsg205
(lp616
S'0x80bf53fL'
p617
aS'0x80bf54eL'
p618
asg209
Nsg210
Nsg211
S'30cb3d6f6a174adfabcde507f6944a52'
p619
sg213
S'8ee4188fb4191bf2310da94062956346'
p620
sg215
(lp621
g601
ag608
asg217
Nsba(ibclass
BBasicBlock
p622
(dp623
g12
Nsg13
(lp624
(ibclass
BInstr
p625
(dp626
g2
Nsg17
S'mov     [ebp+renew_ticket], 1'
p627
sg19
S'c78530feffff01000000'
p628
sg21
Vmov dword ptr [ebp - 0x1d0], 1
p629
sg5
L135001407L
sg6
Nsg23
S'mov'
p630
sg25
S'0x80bf53fL'
p631
sg27
Nsba(ibclass
BInstr
p632
(dp633
g2
Nsg17
S'jmp     loc_80BF5F9'
p634
sg19
S'e9ab000000'
p635
sg21
Vjmp 0xb0
p636
sg5
L135001417L
sg6
Nsg23
S'jmp'
p637
sg25
S'0x80bf549L'
p638
sg27
Nsbasg182
(lp639
Vmov mem, 1
p640
aVjmp address
p641
asg201
Nsg5
S'0x80bf53fL'
p642
sg203
(lp643
S'0x80bf536L'
p644
asg6
Nsg205
(lp645
S'0x80bf5f9L'
p646
asg209
Nsg210
Nsg211
S'8b9a0d40e062be2b9b2d9885108fb196'
p647
sg213
S'f312af69049dfec09c806723f579eb15'
p648
sg215
(lp649
g630
ag637
asg217
Nsba(ibclass
BBasicBlock
p650
(dp651
g12
Nsg13
(lp652
(ibclass
BInstr
p653
(dp654
g2
Nsg17
S'jmp     loc_80BF5F9'
p655
sg19
S'e9a6000000'
p656
sg21
Vjmp 0xab
p657
sg5
L135001422L
sg6
Nsg23
S'jmp'
p658
sg25
S'0x80bf54eL'
p659
sg27
Nsbasg182
(lp660
Vjmp address
p661
asg201
Nsg5
S'0x80bf54eL'
p662
sg203
(lp663
S'0x80bf536L'
p664
asg6
Nsg205
(lp665
S'0x80bf5f9L'
p666
asg209
Nsg210
Nsg211
S'0ef6cf926f2f394b0cc8e11be8022625'
p667
sg213
S'd4372e4caa7348928655251605aa7329'
p668
sg215
(lp669
g658
asg217
Nsba(ibclass
BBasicBlock
p670
(dp671
g12
Nsg13
(lp672
(ibclass
BInstr
p673
(dp674
g2
Nsg17
S'mov     eax, [ebp+tctx]'
p675
sg19
S'8b8534feffff'
p676
sg21
Vmov eax, dword ptr [ebp - 0x1cc]
p677
sg5
L135001427L
sg6
Nsg23
S'mov'
p678
sg25
S'0x80bf553L'
p679
sg27
Nsba(ibclass
BInstr
p680
(dp681
g2
Nsg17
S'add     eax, 108h'
p682
sg19
S'0508010000'
p683
sg21
Vadd eax, 0x108
p684
sg5
L135001433L
sg6
Nsg23
S'add'
p685
sg25
S'0x80bf559L'
p686
sg27
Nsba(ibclass
BInstr
p687
(dp688
g2
Nsg17
S'mov     dword ptr [esp+8], 10h; n'
p689
sg19
S'c744240810000000'
p690
sg21
Vmov dword ptr [esp + 8], 0x10
p691
sg5
L135001438L
sg6
Nsg23
S'mov'
p692
sg25
S'0x80bf55eL'
p693
sg27
Nsba(ibclass
BInstr
p694
(dp695
g2
Nsg17
S'mov     [esp+4], eax    ; s2'
p696
sg19
S'89442404'
p697
sg21
Vmov dword ptr [esp + 4], eax
p698
sg5
L135001446L
sg6
Nsg23
S'mov'
p699
sg25
S'0x80bf566L'
p700
sg27
Nsba(ibclass
BInstr
p701
(dp702
g2
Nsg17
S'mov     eax, [ebp+etick]'
p703
sg19
S'8b8510feffff'
p704
sg21
Vmov eax, dword ptr [ebp - 0x1f0]
p705
sg5
L135001450L
sg6
Nsg23
S'mov'
p706
sg25
S'0x80bf56aL'
p707
sg27
Nsba(ibclass
BInstr
p708
(dp709
g2
Nsg17
S'mov     [esp], eax      ; s1'
p710
sg19
S'890424'
p711
sg21
Vmov dword ptr [esp], eax
p712
sg5
L135001456L
sg6
Nsg23
S'mov'
p713
sg25
S'0x80bf570L'
p714
sg27
Nsba(ibclass
BInstr
p715
(dp716
g2
Nsg17
S'call    _memcmp'
p717
sg19
S'e858a0f8ff'
p718
sg21
Vcall 0xfff8a05d
p719
sg5
L135001459L
sg6
Nsg23
S'call'
p720
sg25
S'0x80bf573L'
p721
sg27
Nsba(ibclass
BInstr
p722
(dp723
g2
Nsg17
S'test    eax, eax'
p724
sg19
S'85c0'
p725
sg21
Vtest eax, eax
p726
sg5
L135001464L
sg6
Nsg23
S'test'
p727
sg25
S'0x80bf578L'
p728
sg27
Nsba(ibclass
BInstr
p729
(dp730
g2
Nsg17
S'jz      short loc_80BF586'
p731
sg19
S'740a'
p732
sg21
Vje 0xc
p733
sg5
L135001466L
sg6
Nsg23
S'jz'
p734
sg25
S'0x80bf57aL'
p735
sg27
Nsbasg182
(lp736
Vmov eax, mem
p737
aVadd eax, address
p738
aVmov mem, address
p739
aVmov mem, eax
p740
aVmov eax, mem
p741
aVmov mem, eax
p742
aVcall address
p743
ag726
aVje address
p744
asg201
Nsg5
S'0x80bf553L'
p745
sg203
(lp746
S'0x80bf484L'
p747
asg6
Nsg205
(lp748
S'0x80bf57cL'
p749
aS'0x80bf586L'
p750
asg209
Nsg210
Nsg211
S'3d191b697d51576517801bf01b6ee703'
p751
sg213
S'8ae052396da1a4bdefe8a75f9b51b801'
p752
sg215
(lp753
g678
ag685
ag692
ag699
ag706
ag713
ag720
ag727
ag734
asg217
Nsba(ibclass
BBasicBlock
p754
(dp755
g12
Nsg13
(lp756
(ibclass
BInstr
p757
(dp758
g2
Nsg17
S'mov     eax, 2'
p759
sg19
S'b802000000'
p760
sg21
Vmov eax, 2
p761
sg5
L135001468L
sg6
Nsg23
S'mov'
p762
sg25
S'0x80bf57cL'
p763
sg27
Nsba(ibclass
BInstr
p764
(dp765
g2
Nsg17
S'jmp     loc_80BF870'
p766
sg19
S'e9ea020000'
p767
sg21
Vjmp 0x2ef
p768
sg5
L135001473L
sg6
Nsg23
S'jmp'
p769
sg25
S'0x80bf581L'
p770
sg27
Nsbasg182
(lp771
g761
aVjmp address
p772
asg201
Nsg5
S'0x80bf57cL'
p773
sg203
(lp774
S'0x80bf553L'
p775
asg6
Nsg205
(lp776
S'0x80bf870L'
p777
asg209
Nsg210
Nsg211
S'8b9a0d40e062be2b9b2d9885108fb196'
p778
sg213
S'7282f82a6c8726594dd819847969733b'
p779
sg215
(lp780
g762
ag769
asg217
Nsba(ibclass
BBasicBlock
p781
(dp782
g12
Nsg13
(lp783
(ibclass
BInstr
p784
(dp785
g2
Nsg17
S'call    EVP_sha256'
p786
sg19
S'e8a9490800'
p787
sg21
Vcall 0x849ae
p788
sg5
L135001478L
sg6
Nsg23
S'call'
p789
sg25
S'0x80bf586L'
p790
sg27
Nsba(ibclass
BInstr
p791
(dp792
g2
Nsg17
S'mov     edx, [ebp+tctx]'
p793
sg19
S'8b9534feffff'
p794
sg21
Vmov edx, dword ptr [ebp - 0x1cc]
p795
sg5
L135001483L
sg6
Nsg23
S'mov'
p796
sg25
S'0x80bf58bL'
p797
sg27
Nsba(ibclass
BInstr
p798
(dp799
g2
Nsg17
S'add     edx, 118h'
p800
sg19
S'81c218010000'
p801
sg21
Vadd edx, 0x118
p802
sg5
L135001489L
sg6
Nsg23
S'add'
p803
sg25
S'0x80bf591L'
p804
sg27
Nsba(ibclass
BInstr
p805
(dp806
g2
Nsg17
S'mov     dword ptr [esp+10h], 0; impl'
p807
sg19
S'c744241000000000'
p808
sg21
Vmov dword ptr [esp + 0x10], 0
p809
sg5
L135001495L
sg6
Nsg23
S'mov'
p810
sg25
S'0x80bf597L'
p811
sg27
Nsba(ibclass
BInstr
p812
(dp813
g2
Nsg17
S'mov     [esp+0Ch], eax  ; md'
p814
sg19
S'8944240c'
p815
sg21
Vmov dword ptr [esp + 0xc], eax
p816
sg5
L135001503L
sg6
Nsg23
S'mov'
p817
sg25
S'0x80bf59fL'
p818
sg27
Nsba(ibclass
BInstr
p819
(dp820
g2
Nsg17
S'mov     dword ptr [esp+8], 10h; len'
p821
sg19
S'c744240810000000'
p822
sg21
Vmov dword ptr [esp + 8], 0x10
p823
sg5
L135001507L
sg6
Nsg23
S'mov'
p824
sg25
S'0x80bf5a3L'
p825
sg27
Nsba(ibclass
BInstr
p826
(dp827
g2
Nsg17
S'mov     [esp+4], edx    ; key'
p828
sg19
S'89542404'
p829
sg21
Vmov dword ptr [esp + 4], edx
p830
sg5
L135001515L
sg6
Nsg23
S'mov'
p831
sg25
S'0x80bf5abL'
p832
sg27
Nsba(ibclass
BInstr
p833
(dp834
g2
Nsg17
S'lea     eax, [ebp+hctx]'
p835
sg19
S'8d8514ffffff'
p836
sg21
Vlea eax, [ebp - 0xec]
p837
sg5
L135001519L
sg6
Nsg23
S'lea'
p838
sg25
S'0x80bf5afL'
p839
sg27
Nsba(ibclass
BInstr
p840
(dp841
g2
Nsg17
S'mov     [esp], eax      ; ctx'
p842
sg19
S'890424'
p843
sg21
Vmov dword ptr [esp], eax
p844
sg5
L135001525L
sg6
Nsg23
S'mov'
p845
sg25
S'0x80bf5b5L'
p846
sg27
Nsba(ibclass
BInstr
p847
(dp848
g2
Nsg17
S'call    HMAC_Init_ex'
p849
sg19
S'e885020300'
p850
sg21
Vcall 0x3028a
p851
sg5
L135001528L
sg6
Nsg23
S'call'
p852
sg25
S'0x80bf5b8L'
p853
sg27
Nsba(ibclass
BInstr
p854
(dp855
g2
Nsg17
S'mov     eax, [ebp+etick]'
p856
sg19
S'8b8510feffff'
p857
sg21
Vmov eax, dword ptr [ebp - 0x1f0]
p858
sg5
L135001533L
sg6
Nsg23
S'mov'
p859
sg25
S'0x80bf5bdL'
p860
sg27
Nsba(ibclass
BInstr
p861
(dp862
g2
Nsg17
S'lea     esi, [eax+10h]'
p863
sg19
S'8d7010'
p864
sg21
Vlea esi, [eax + 0x10]
p865
sg5
L135001539L
sg6
Nsg23
S'lea'
p866
sg25
S'0x80bf5c3L'
p867
sg27
Nsba(ibclass
BInstr
p868
(dp869
g2
Nsg17
S'mov     eax, [ebp+tctx]'
p870
sg19
S'8b8534feffff'
p871
sg21
Vmov eax, dword ptr [ebp - 0x1cc]
p872
sg5
L135001542L
sg6
Nsg23
S'mov'
p873
sg25
S'0x80bf5c6L'
p874
sg27
Nsba(ibclass
BInstr
p875
(dp876
g2
Nsg17
S'lea     ebx, [eax+128h]'
p877
sg19
S'8d9828010000'
p878
sg21
Vlea ebx, [eax + 0x128]
p879
sg5
L135001548L
sg6
Nsg23
S'lea'
p880
sg25
S'0x80bf5ccL'
p881
sg27
Nsba(ibclass
BInstr
p882
(dp883
g2
Nsg17
S'call    EVP_aes_128_cbc'
p884
sg19
S'e85b220800'
p885
sg21
Vcall 0x82260
p886
sg5
L135001554L
sg6
Nsg23
S'call'
p887
sg25
S'0x80bf5d2L'
p888
sg27
Nsba(ibclass
BInstr
p889
(dp890
g2
Nsg17
S'mov     [esp+10h], esi  ; iv'
p891
sg19
S'89742410'
p892
sg21
Vmov dword ptr [esp + 0x10], esi
p893
sg5
L135001559L
sg6
Nsg23
S'mov'
p894
sg25
S'0x80bf5d7L'
p895
sg27
Nsba(ibclass
BInstr
p896
(dp897
g2
Nsg17
S'mov     [esp+0Ch], ebx  ; key'
p898
sg19
S'895c240c'
p899
sg21
Vmov dword ptr [esp + 0xc], ebx
p900
sg5
L135001563L
sg6
Nsg23
S'mov'
p901
sg25
S'0x80bf5dbL'
p902
sg27
Nsba(ibclass
BInstr
p903
(dp904
g2
Nsg17
S'mov     dword ptr [esp+8], 0; impl'
p905
sg19
S'c744240800000000'
p906
sg21
Vmov dword ptr [esp + 8], 0
p907
sg5
L135001567L
sg6
Nsg23
S'mov'
p908
sg25
S'0x80bf5dfL'
p909
sg27
Nsba(ibclass
BInstr
p910
(dp911
g2
Nsg17
S'mov     [esp+4], eax    ; cipher'
p912
sg19
S'89442404'
p913
sg21
Vmov dword ptr [esp + 4], eax
p914
sg5
L135001575L
sg6
Nsg23
S'mov'
p915
sg25
S'0x80bf5e7L'
p916
sg27
Nsba(ibclass
BInstr
p917
(dp918
g2
Nsg17
S'lea     eax, [ebp+ctx]'
p919
sg19
S'8d8588feffff'
p920
sg21
Vlea eax, [ebp - 0x178]
p921
sg5
L135001579L
sg6
Nsg23
S'lea'
p922
sg25
S'0x80bf5ebL'
p923
sg27
Nsba(ibclass
BInstr
p924
(dp925
g2
Nsg17
S'mov     [esp], eax      ; ctx'
p926
sg19
S'890424'
p927
sg21
Vmov dword ptr [esp], eax
p928
sg5
L135001585L
sg6
Nsg23
S'mov'
p929
sg25
S'0x80bf5f1L'
p930
sg27
Nsba(ibclass
BInstr
p931
(dp932
g2
Nsg17
S'call    EVP_DecryptInit_ex'
p933
sg19
S'e8fbe70700'
p934
sg21
Vcall 0x7e800
p935
sg5
L135001588L
sg6
Nsg23
S'call'
p936
sg25
S'0x80bf5f4L'
p937
sg27
Nsbasg182
(lp938
Vcall address
p939
aVmov edx, mem
p940
aVadd edx, address
p941
aVmov mem, 0
p942
aVmov mem, eax
p943
aVmov mem, address
p944
aVmov mem, edx
p945
aVlea eax, mem
p946
aVmov mem, eax
p947
aVcall address
p948
aVmov eax, mem
p949
aVlea esi, mem
p950
aVmov eax, mem
p951
aVlea ebx, mem
p952
aVcall address
p953
aVmov mem, esi
p954
aVmov mem, ebx
p955
aVmov mem, 0
p956
aVmov mem, eax
p957
aVlea eax, mem
p958
aVmov mem, eax
p959
aVcall address
p960
asg201
Nsg5
S'0x80bf586L'
p961
sg203
(lp962
S'0x80bf553L'
p963
asg6
Nsg205
(lp964
S'0x80bf5f9L'
p965
asg209
Nsg210
Nsg211
S'639b31b5d8b0a57250d5464c2d40e549'
p966
sg213
S'f2915d5d684867c827d9447ea3b66cc8'
p967
sg215
(lp968
g789
ag796
ag803
ag810
ag817
ag824
ag831
ag838
ag845
ag852
ag859
ag866
ag873
ag880
ag887
ag894
ag901
ag908
ag915
ag922
ag929
ag936
asg217
Nsba(ibclass
BBasicBlock
p969
(dp970
g12
Nsg13
(lp971
(ibclass
BInstr
p972
(dp973
g2
Nsg17
S'mov     eax, [ebp+hctx.md]'
p974
sg19
S'8b8514ffffff'
p975
sg21
Vmov eax, dword ptr [ebp - 0xec]
p976
sg5
L135001593L
sg6
Nsg23
S'mov'
p977
sg25
S'0x80bf5f9L'
p978
sg27
Nsba(ibclass
BInstr
p979
(dp980
g2
Nsg17
S'mov     [esp], eax      ; md'
p981
sg19
S'890424'
p982
sg21
Vmov dword ptr [esp], eax
p983
sg5
L135001599L
sg6
Nsg23
S'mov'
p984
sg25
S'0x80bf5ffL'
p985
sg27
Nsba(ibclass
BInstr
p986
(dp987
g2
Nsg17
S'call    EVP_MD_size'
p988
sg19
S'e83a890800'
p989
sg21
Vcall 0x8893f
p990
sg5
L135001602L
sg6
Nsg23
S'call'
p991
sg25
S'0x80bf602L'
p992
sg27
Nsba(ibclass
BInstr
p993
(dp994
g2
Nsg17
S'mov     [ebp+mlen], eax'
p995
sg19
S'89852cfeffff'
p996
sg21
Vmov dword ptr [ebp - 0x1d4], eax
p997
sg5
L135001607L
sg6
Nsg23
S'mov'
p998
sg25
S'0x80bf607L'
p999
sg27
Nsba(ibclass
BInstr
p1000
(dp1001
g2
Nsg17
S'mov     eax, [ebp+mlen]'
p1002
sg19
S'8b852cfeffff'
p1003
sg21
Vmov eax, dword ptr [ebp - 0x1d4]
p1004
sg5
L135001613L
sg6
Nsg23
S'mov'
p1005
sg25
S'0x80bf60dL'
p1006
sg27
Nsba(ibclass
BInstr
p1007
(dp1008
g2
Nsg17
S'test    eax, eax'
p1009
sg19
S'85c0'
p1010
sg21
Vtest eax, eax
p1011
sg5
L135001619L
sg6
Nsg23
S'test'
p1012
sg25
S'0x80bf613L'
p1013
sg27
Nsba(ibclass
BInstr
p1014
(dp1015
g2
Nsg17
S'jns     short loc_80BF62F'
p1016
sg19
S'7918'
p1017
sg21
Vjns 0x1a
p1018
sg5
L135001621L
sg6
Nsg23
S'jns'
p1019
sg25
S'0x80bf615L'
p1020
sg27
Nsbasg182
(lp1021
Vmov eax, mem
p1022
aVmov mem, eax
p1023
aVcall address
p1024
aVmov mem, eax
p1025
aVmov eax, mem
p1026
ag1011
aVjns address
p1027
asg201
Nsg5
S'0x80bf5f9L'
p1028
sg203
(lp1029
S'0x80bf53fL'
p1030
aS'0x80bf54eL'
p1031
aS'0x80bf586L'
p1032
asg6
Nsg205
(lp1033
S'0x80bf617L'
p1034
aS'0x80bf62fL'
p1035
asg209
Nsg210
Nsg211
S'd9700e6e078811229eeaaeb4cfa3115e'
p1036
sg213
S'e18c403adc44d0f091483c8568ee0270'
p1037
sg215
(lp1038
g977
ag984
ag991
ag998
ag1005
ag1012
ag1019
asg217
Nsba(ibclass
BBasicBlock
p1039
(dp1040
g12
Nsg13
(lp1041
(ibclass
BInstr
p1042
(dp1043
g2
Nsg17
S'lea     eax, [ebp+ctx]'
p1044
sg19
S'8d8588feffff'
p1045
sg21
Vlea eax, [ebp - 0x178]
p1046
sg5
L135001623L
sg6
Nsg23
S'lea'
p1047
sg25
S'0x80bf617L'
p1048
sg27
Nsba(ibclass
BInstr
p1049
(dp1050
g2
Nsg17
S'mov     [esp], eax      ; c'
p1051
sg19
S'890424'
p1052
sg21
Vmov dword ptr [esp], eax
p1053
sg5
L135001629L
sg6
Nsg23
S'mov'
p1054
sg25
S'0x80bf61dL'
p1055
sg27
Nsba(ibclass
BInstr
p1056
(dp1057
g2
Nsg17
S'call    EVP_CIPHER_CTX_cleanup'
p1058
sg19
S'e8b6f00700'
p1059
sg21
Vcall 0x7f0bb
p1060
sg5
L135001632L
sg6
Nsg23
S'call'
p1061
sg25
S'0x80bf620L'
p1062
sg27
Nsba(ibclass
BInstr
p1063
(dp1064
g2
Nsg17
S'mov     eax, 0FFFFFFFFh'
p1065
sg19
S'b8ffffffff'
p1066
sg21
Vmov eax, 0xffffffff
p1067
sg5
L135001637L
sg6
Nsg23
S'mov'
p1068
sg25
S'0x80bf625L'
p1069
sg27
Nsba(ibclass
BInstr
p1070
(dp1071
g2
Nsg17
S'jmp     loc_80BF870'
p1072
sg19
S'e941020000'
p1073
sg21
Vjmp 0x246
p1074
sg5
L135001642L
sg6
Nsg23
S'jmp'
p1075
sg25
S'0x80bf62aL'
p1076
sg27
Nsbasg182
(lp1077
Vlea eax, mem
p1078
aVmov mem, eax
p1079
aVcall address
p1080
aVmov eax, address
p1081
aVjmp address
p1082
asg201
Nsg5
S'0x80bf617L'
p1083
sg203
(lp1084
S'0x80bf5f9L'
p1085
asg6
Nsg205
(lp1086
S'0x80bf870L'
p1087
asg209
Nsg210
Nsg211
S'e45bc3a683c8500723876ba3073ee408'
p1088
sg213
S'ed73cdfbe2c42b6afa47a3b732d3aabe'
p1089
sg215
(lp1090
g1047
ag1054
ag1061
ag1068
ag1075
asg217
Nsba(ibclass
BBasicBlock
p1091
(dp1092
g12
Nsg13
(lp1093
(ibclass
BInstr
p1094
(dp1095
g2
Nsg17
S'mov     eax, [ebp+mlen]'
p1096
sg19
S'8b852cfeffff'
p1097
sg21
Vmov eax, dword ptr [ebp - 0x1d4]
p1098
sg5
L135001647L
sg6
Nsg23
S'mov'
p1099
sg25
S'0x80bf62fL'
p1100
sg27
Nsba(ibclass
BInstr
p1101
(dp1102
g2
Nsg17
S'sub     [ebp+eticklen], eax'
p1103
sg19
S'294510'
p1104
sg21
Vsub dword ptr [ebp + 0x10], eax
p1105
sg5
L135001653L
sg6
Nsg23
S'sub'
p1106
sg25
S'0x80bf635L'
p1107
sg27
Nsba(ibclass
BInstr
p1108
(dp1109
g2
Nsg17
S'mov     eax, [ebp+eticklen]'
p1110
sg19
S'8b4510'
p1111
sg21
Vmov eax, dword ptr [ebp + 0x10]
p1112
sg5
L135001656L
sg6
Nsg23
S'mov'
p1113
sg25
S'0x80bf638L'
p1114
sg27
Nsba(ibclass
BInstr
p1115
(dp1116
g2
Nsg17
S'mov     [esp+8], eax    ; len'
p1117
sg19
S'89442408'
p1118
sg21
Vmov dword ptr [esp + 8], eax
p1119
sg5
L135001659L
sg6
Nsg23
S'mov'
p1120
sg25
S'0x80bf63bL'
p1121
sg27
Nsba(ibclass
BInstr
p1122
(dp1123
g2
Nsg17
S'mov     eax, [ebp+etick]'
p1124
sg19
S'8b8510feffff'
p1125
sg21
Vmov eax, dword ptr [ebp - 0x1f0]
p1126
sg5
L135001663L
sg6
Nsg23
S'mov'
p1127
sg25
S'0x80bf63fL'
p1128
sg27
Nsba(ibclass
BInstr
p1129
(dp1130
g2
Nsg17
S'mov     [esp+4], eax    ; data'
p1131
sg19
S'89442404'
p1132
sg21
Vmov dword ptr [esp + 4], eax
p1133
sg5
L135001669L
sg6
Nsg23
S'mov'
p1134
sg25
S'0x80bf645L'
p1135
sg27
Nsba(ibclass
BInstr
p1136
(dp1137
g2
Nsg17
S'lea     eax, [ebp+hctx]'
p1138
sg19
S'8d8514ffffff'
p1139
sg21
Vlea eax, [ebp - 0xec]
p1140
sg5
L135001673L
sg6
Nsg23
S'lea'
p1141
sg25
S'0x80bf649L'
p1142
sg27
Nsba(ibclass
BInstr
p1143
(dp1144
g2
Nsg17
S'mov     [esp], eax      ; ctx'
p1145
sg19
S'890424'
p1146
sg21
Vmov dword ptr [esp], eax
p1147
sg5
L135001679L
sg6
Nsg23
S'mov'
p1148
sg25
S'0x80bf64fL'
p1149
sg27
Nsba(ibclass
BInstr
p1150
(dp1151
g2
Nsg17
S'call    HMAC_Update'
p1152
sg19
S'e8d1050300'
p1153
sg21
Vcall 0x305d6
p1154
sg5
L135001682L
sg6
Nsg23
S'call'
p1155
sg25
S'0x80bf652L'
p1156
sg27
Nsba(ibclass
BInstr
p1157
(dp1158
g2
Nsg17
S'mov     dword ptr [esp+8], 0; len'
p1159
sg19
S'c744240800000000'
p1160
sg21
Vmov dword ptr [esp + 8], 0
p1161
sg5
L135001687L
sg6
Nsg23
S'mov'
p1162
sg25
S'0x80bf657L'
p1163
sg27
Nsba(ibclass
BInstr
p1164
(dp1165
g2
Nsg17
S'lea     eax, [ebp+tick_hmac]'
p1166
sg19
S'8d8548feffff'
p1167
sg21
Vlea eax, [ebp - 0x1b8]
p1168
sg5
L135001695L
sg6
Nsg23
S'lea'
p1169
sg25
S'0x80bf65fL'
p1170
sg27
Nsba(ibclass
BInstr
p1171
(dp1172
g2
Nsg17
S'mov     [esp+4], eax    ; md'
p1173
sg19
S'89442404'
p1174
sg21
Vmov dword ptr [esp + 4], eax
p1175
sg5
L135001701L
sg6
Nsg23
S'mov'
p1176
sg25
S'0x80bf665L'
p1177
sg27
Nsba(ibclass
BInstr
p1178
(dp1179
g2
Nsg17
S'lea     eax, [ebp+hctx]'
p1180
sg19
S'8d8514ffffff'
p1181
sg21
Vlea eax, [ebp - 0xec]
p1182
sg5
L135001705L
sg6
Nsg23
S'lea'
p1183
sg25
S'0x80bf669L'
p1184
sg27
Nsba(ibclass
BInstr
p1185
(dp1186
g2
Nsg17
S'mov     [esp], eax      ; ctx'
p1187
sg19
S'890424'
p1188
sg21
Vmov dword ptr [esp], eax
p1189
sg5
L135001711L
sg6
Nsg23
S'mov'
p1190
sg25
S'0x80bf66fL'
p1191
sg27
Nsba(ibclass
BInstr
p1192
(dp1193
g2
Nsg17
S'call    HMAC_Final'
p1194
sg19
S'e8d5050300'
p1195
sg21
Vcall 0x305da
p1196
sg5
L135001714L
sg6
Nsg23
S'call'
p1197
sg25
S'0x80bf672L'
p1198
sg27
Nsba(ibclass
BInstr
p1199
(dp1200
g2
Nsg17
S'lea     eax, [ebp+hctx]'
p1201
sg19
S'8d8514ffffff'
p1202
sg21
Vlea eax, [ebp - 0xec]
p1203
sg5
L135001719L
sg6
Nsg23
S'lea'
p1204
sg25
S'0x80bf677L'
p1205
sg27
Nsba(ibclass
BInstr
p1206
(dp1207
g2
Nsg17
S'mov     [esp], eax      ; ctx'
p1208
sg19
S'890424'
p1209
sg21
Vmov dword ptr [esp], eax
p1210
sg5
L135001725L
sg6
Nsg23
S'mov'
p1211
sg25
S'0x80bf67dL'
p1212
sg27
Nsba(ibclass
BInstr
p1213
(dp1214
g2
Nsg17
S'call    HMAC_CTX_cleanup'
p1215
sg19
S'e863070300'
p1216
sg21
Vcall 0x30768
p1217
sg5
L135001728L
sg6
Nsg23
S'call'
p1218
sg25
S'0x80bf680L'
p1219
sg27
Nsba(ibclass
BInstr
p1220
(dp1221
g2
Nsg17
S'mov     eax, [ebp+mlen]'
p1222
sg19
S'8b852cfeffff'
p1223
sg21
Vmov eax, dword ptr [ebp - 0x1d4]
p1224
sg5
L135001733L
sg6
Nsg23
S'mov'
p1225
sg25
S'0x80bf685L'
p1226
sg27
Nsba(ibclass
BInstr
p1227
(dp1228
g2
Nsg17
S'mov     ecx, [ebp+eticklen]'
p1229
sg19
S'8b4d10'
p1230
sg21
Vmov ecx, dword ptr [ebp + 0x10]
p1231
sg5
L135001739L
sg6
Nsg23
S'mov'
p1232
sg25
S'0x80bf68bL'
p1233
sg27
Nsba(ibclass
BInstr
p1234
(dp1235
g2
Nsg17
S'mov     edx, [ebp+etick]'
p1236
sg19
S'8b9510feffff'
p1237
sg21
Vmov edx, dword ptr [ebp - 0x1f0]
p1238
sg5
L135001742L
sg6
Nsg23
S'mov'
p1239
sg25
S'0x80bf68eL'
p1240
sg27
Nsba(ibclass
BInstr
p1241
(dp1242
g2
Nsg17
S'add     edx, ecx'
p1243
sg19
S'01ca'
p1244
sg21
Vadd edx, ecx
p1245
sg5
L135001748L
sg6
Nsg23
S'add'
p1246
sg25
S'0x80bf694L'
p1247
sg27
Nsba(ibclass
BInstr
p1248
(dp1249
g2
Nsg17
S'mov     [esp+8], eax    ; len'
p1250
sg19
S'89442408'
p1251
sg21
Vmov dword ptr [esp + 8], eax
p1252
sg5
L135001750L
sg6
Nsg23
S'mov'
p1253
sg25
S'0x80bf696L'
p1254
sg27
Nsba(ibclass
BInstr
p1255
(dp1256
g2
Nsg17
S'mov     [esp+4], edx    ; in_b'
p1257
sg19
S'89542404'
p1258
sg21
Vmov dword ptr [esp + 4], edx
p1259
sg5
L135001754L
sg6
Nsg23
S'mov'
p1260
sg25
S'0x80bf69aL'
p1261
sg27
Nsba(ibclass
BInstr
p1262
(dp1263
g2
Nsg17
S'lea     eax, [ebp+tick_hmac]'
p1264
sg19
S'8d8548feffff'
p1265
sg21
Vlea eax, [ebp - 0x1b8]
p1266
sg5
L135001758L
sg6
Nsg23
S'lea'
p1267
sg25
S'0x80bf69eL'
p1268
sg27
Nsba(ibclass
BInstr
p1269
(dp1270
g2
Nsg17
S'mov     [esp], eax      ; in_a'
p1271
sg19
S'890424'
p1272
sg21
Vmov dword ptr [esp], eax
p1273
sg5
L135001764L
sg6
Nsg23
S'mov'
p1274
sg25
S'0x80bf6a4L'
p1275
sg27
Nsba(ibclass
BInstr
p1276
(dp1277
g2
Nsg17
S'call    CRYPTO_memcmp'
p1278
sg19
S'e8bd500200'
p1279
sg21
Vcall 0x250c2
p1280
sg5
L135001767L
sg6
Nsg23
S'call'
p1281
sg25
S'0x80bf6a7L'
p1282
sg27
Nsba(ibclass
BInstr
p1283
(dp1284
g2
Nsg17
S'test    eax, eax'
p1285
sg19
S'85c0'
p1286
sg21
Vtest eax, eax
p1287
sg5
L135001772L
sg6
Nsg23
S'test'
p1288
sg25
S'0x80bf6acL'
p1289
sg27
Nsba(ibclass
BInstr
p1290
(dp1291
g2
Nsg17
S'jz      short loc_80BF6BA'
p1292
sg19
S'740a'
p1293
sg21
Vje 0xc
p1294
sg5
L135001774L
sg6
Nsg23
S'jz'
p1295
sg25
S'0x80bf6aeL'
p1296
sg27
Nsbasg182
(lp1297
Vmov eax, mem
p1298
aVsub mem, eax
p1299
aVmov eax, mem
p1300
aVmov mem, eax
p1301
aVmov eax, mem
p1302
aVmov mem, eax
p1303
aVlea eax, mem
p1304
aVmov mem, eax
p1305
aVcall address
p1306
aVmov mem, 0
p1307
aVlea eax, mem
p1308
aVmov mem, eax
p1309
aVlea eax, mem
p1310
aVmov mem, eax
p1311
aVcall address
p1312
aVlea eax, mem
p1313
aVmov mem, eax
p1314
aVcall address
p1315
aVmov eax, mem
p1316
aVmov ecx, mem
p1317
aVmov edx, mem
p1318
ag1245
aVmov mem, eax
p1319
aVmov mem, edx
p1320
aVlea eax, mem
p1321
aVmov mem, eax
p1322
aVcall address
p1323
ag1287
aVje address
p1324
asg201
Nsg5
S'0x80bf62fL'
p1325
sg203
(lp1326
S'0x80bf5f9L'
p1327
asg6
Nsg205
(lp1328
S'0x80bf6b0L'
p1329
aS'0x80bf6baL'
p1330
asg209
Nsg210
Nsg211
S'764163fd1a37d302796b9d9050c9ba45'
p1331
sg213
S'97a748b58fc59605090c7dc9248ead1f'
p1332
sg215
(lp1333
g1099
ag1106
ag1113
ag1120
ag1127
ag1134
ag1141
ag1148
ag1155
ag1162
ag1169
ag1176
ag1183
ag1190
ag1197
ag1204
ag1211
ag1218
ag1225
ag1232
ag1239
ag1246
ag1253
ag1260
ag1267
ag1274
ag1281
ag1288
ag1295
asg217
Nsba(ibclass
BBasicBlock
p1334
(dp1335
g12
Nsg13
(lp1336
(ibclass
BInstr
p1337
(dp1338
g2
Nsg17
S'mov     eax, 2'
p1339
sg19
S'b802000000'
p1340
sg21
Vmov eax, 2
p1341
sg5
L135001776L
sg6
Nsg23
S'mov'
p1342
sg25
S'0x80bf6b0L'
p1343
sg27
Nsba(ibclass
BInstr
p1344
(dp1345
g2
Nsg17
S'jmp     loc_80BF870'
p1346
sg19
S'e9b6010000'
p1347
sg21
Vjmp 0x1bb
p1348
sg5
L135001781L
sg6
Nsg23
S'jmp'
p1349
sg25
S'0x80bf6b5L'
p1350
sg27
Nsbasg182
(lp1351
g1341
aVjmp address
p1352
asg201
Nsg5
S'0x80bf6b0L'
p1353
sg203
(lp1354
S'0x80bf62fL'
p1355
asg6
Nsg205
(lp1356
S'0x80bf870L'
p1357
asg209
Nsg210
Nsg211
S'8b9a0d40e062be2b9b2d9885108fb196'
p1358
sg213
S'7282f82a6c8726594dd819847969733b'
p1359
sg215
(lp1360
g1342
ag1349
asg217
Nsba(ibclass
BBasicBlock
p1361
(dp1362
g12
Nsg13
(lp1363
(ibclass
BInstr
p1364
(dp1365
g2
Nsg17
S'lea     eax, [ebp+ctx]'
p1366
sg19
S'8d8588feffff'
p1367
sg21
Vlea eax, [ebp - 0x178]
p1368
sg5
L135001786L
sg6
Nsg23
S'lea'
p1369
sg25
S'0x80bf6baL'
p1370
sg27
Nsba(ibclass
BInstr
p1371
(dp1372
g2
Nsg17
S'mov     [esp], eax      ; ctx'
p1373
sg19
S'890424'
p1374
sg21
Vmov dword ptr [esp], eax
p1375
sg5
L135001792L
sg6
Nsg23
S'mov'
p1376
sg25
S'0x80bf6c0L'
p1377
sg27
Nsba(ibclass
BInstr
p1378
(dp1379
g2
Nsg17
S'call    EVP_CIPHER_CTX_iv_length'
p1380
sg19
S'e820880800'
p1381
sg21
Vcall 0x88825
p1382
sg5
L135001795L
sg6
Nsg23
S'call'
p1383
sg25
S'0x80bf6c3L'
p1384
sg27
Nsba(ibclass
BInstr
p1385
(dp1386
g2
Nsg17
S'lea     edx, [eax+10h]'
p1387
sg19
S'8d5010'
p1388
sg21
Vlea edx, [eax + 0x10]
p1389
sg5
L135001800L
sg6
Nsg23
S'lea'
p1390
sg25
S'0x80bf6c8L'
p1391
sg27
Nsba(ibclass
BInstr
p1392
(dp1393
g2
Nsg17
S'mov     eax, [ebp+etick]'
p1394
sg19
S'8b8510feffff'
p1395
sg21
Vmov eax, dword ptr [ebp - 0x1f0]
p1396
sg5
L135001803L
sg6
Nsg23
S'mov'
p1397
sg25
S'0x80bf6cbL'
p1398
sg27
Nsba(ibclass
BInstr
p1399
(dp1400
g2
Nsg17
S'add     eax, edx'
p1401
sg19
S'01d0'
p1402
sg21
Vadd eax, edx
p1403
sg5
L135001809L
sg6
Nsg23
S'add'
p1404
sg25
S'0x80bf6d1L'
p1405
sg27
Nsba(ibclass
BInstr
p1406
(dp1407
g2
Nsg17
S'mov     [ebp+p], eax'
p1408
sg19
S'898524feffff'
p1409
sg21
Vmov dword ptr [ebp - 0x1dc], eax
p1410
sg5
L135001811L
sg6
Nsg23
S'mov'
p1411
sg25
S'0x80bf6d3L'
p1412
sg27
Nsba(ibclass
BInstr
p1413
(dp1414
g2
Nsg17
S'lea     eax, [ebp+ctx]'
p1415
sg19
S'8d8588feffff'
p1416
sg21
Vlea eax, [ebp - 0x178]
p1417
sg5
L135001817L
sg6
Nsg23
S'lea'
p1418
sg25
S'0x80bf6d9L'
p1419
sg27
Nsba(ibclass
BInstr
p1420
(dp1421
g2
Nsg17
S'mov     [esp], eax      ; ctx'
p1422
sg19
S'890424'
p1423
sg21
Vmov dword ptr [esp], eax
p1424
sg5
L135001823L
sg6
Nsg23
S'mov'
p1425
sg25
S'0x80bf6dfL'
p1426
sg27
Nsba(ibclass
BInstr
p1427
(dp1428
g2
Nsg17
S'call    EVP_CIPHER_CTX_iv_length'
p1429
sg19
S'e801880800'
p1430
sg21
Vcall 0x88806
p1431
sg5
L135001826L
sg6
Nsg23
S'call'
p1432
sg25
S'0x80bf6e2L'
p1433
sg27
Nsba(ibclass
BInstr
p1434
(dp1435
g2
Nsg17
S'mov     edx, 0FFFFFFF0h'
p1436
sg19
S'baf0ffffff'
p1437
sg21
Vmov edx, 0xfffffff0
p1438
sg5
L135001831L
sg6
Nsg23
S'mov'
p1439
sg25
S'0x80bf6e7L'
p1440
sg27
Nsba(ibclass
BInstr
p1441
(dp1442
g2
Nsg17
S'sub     edx, eax'
p1443
sg19
S'29c2'
p1444
sg21
Vsub edx, eax
p1445
sg5
L135001836L
sg6
Nsg23
S'sub'
p1446
sg25
S'0x80bf6ecL'
p1447
sg27
Nsba(ibclass
BInstr
p1448
(dp1449
g2
Nsg17
S'mov     eax, edx'
p1450
sg19
S'89d0'
p1451
sg21
Vmov eax, edx
p1452
sg5
L135001838L
sg6
Nsg23
S'mov'
p1453
sg25
S'0x80bf6eeL'
p1454
sg27
Nsba(ibclass
BInstr
p1455
(dp1456
g2
Nsg17
S'add     [ebp+eticklen], eax'
p1457
sg19
S'014510'
p1458
sg21
Vadd dword ptr [ebp + 0x10], eax
p1459
sg5
L135001840L
sg6
Nsg23
S'add'
p1460
sg25
S'0x80bf6f0L'
p1461
sg27
Nsba(ibclass
BInstr
p1462
(dp1463
g2
Nsg17
S'mov     dword ptr [esp+8], 931h; line'
p1464
sg19
S'c744240831090000'
p1465
sg21
Vmov dword ptr [esp + 8], 0x931
p1466
sg5
L135001843L
sg6
Nsg23
S'mov'
p1467
sg25
S'0x80bf6f3L'
p1468
sg27
Nsba(ibclass
BInstr
p1469
(dp1470
g2
Nsg17
S'mov     dword ptr [esp+4], offset aT1_lib_c; "t1_lib.c"'
p1471
sg19
S'c7442404a82b2108'
p1472
sg21
Vmov dword ptr [esp + 4], 0x8212ba8
p1473
sg5
L135001851L
sg6
Nsg23
S'mov'
p1474
sg25
S'0x80bf6fbL'
p1475
sg27
Nsba(ibclass
BInstr
p1476
(dp1477
g2
Nsg17
S'mov     eax, [ebp+eticklen]'
p1478
sg19
S'8b4510'
p1479
sg21
Vmov eax, dword ptr [ebp + 0x10]
p1480
sg5
L135001859L
sg6
Nsg23
S'mov'
p1481
sg25
S'0x80bf703L'
p1482
sg27
Nsba(ibclass
BInstr
p1483
(dp1484
g2
Nsg17
S'mov     [esp], eax      ; num'
p1485
sg19
S'890424'
p1486
sg21
Vmov dword ptr [esp], eax
p1487
sg5
L135001862L
sg6
Nsg23
S'mov'
p1488
sg25
S'0x80bf706L'
p1489
sg27
Nsba(ibclass
BInstr
p1490
(dp1491
g2
Nsg17
S'call    CRYPTO_malloc'
p1492
sg19
S'e851550200'
p1493
sg21
Vcall 0x25556
p1494
sg5
L135001865L
sg6
Nsg23
S'call'
p1495
sg25
S'0x80bf709L'
p1496
sg27
Nsba(ibclass
BInstr
p1497
(dp1498
g2
Nsg17
S'mov     [ebp+sdec], eax'
p1499
sg19
S'898540feffff'
p1500
sg21
Vmov dword ptr [ebp - 0x1c0], eax
p1501
sg5
L135001870L
sg6
Nsg23
S'mov'
p1502
sg25
S'0x80bf70eL'
p1503
sg27
Nsba(ibclass
BInstr
p1504
(dp1505
g2
Nsg17
S'cmp     [ebp+sdec], 0'
p1506
sg19
S'83bd40feffff00'
p1507
sg21
Vcmp dword ptr [ebp - 0x1c0], 0
p1508
sg5
L135001876L
sg6
Nsg23
S'cmp'
p1509
sg25
S'0x80bf714L'
p1510
sg27
Nsba(ibclass
BInstr
p1511
(dp1512
g2
Nsg17
S'jnz     short loc_80BF735'
p1513
sg19
S'7518'
p1514
sg21
Vjne 0x1a
p1515
sg5
L135001883L
sg6
Nsg23
S'jnz'
p1516
sg25
S'0x80bf71bL'
p1517
sg27
Nsbasg182
(lp1518
Vlea eax, mem
p1519
aVmov mem, eax
p1520
aVcall address
p1521
aVlea edx, mem
p1522
aVmov eax, mem
p1523
ag1403
aVmov mem, eax
p1524
aVlea eax, mem
p1525
aVmov mem, eax
p1526
aVcall address
p1527
aVmov edx, address
p1528
ag1445
ag1452
aVadd mem, eax
p1529
aVmov mem, address
p1530
aVmov mem, address
p1531
aVmov eax, mem
p1532
aVmov mem, eax
p1533
aVcall address
p1534
aVmov mem, eax
p1535
aVcmp mem, 0
p1536
aVjne address
p1537
asg201
Nsg5
S'0x80bf6baL'
p1538
sg203
(lp1539
S'0x80bf62fL'
p1540
asg6
Nsg205
(lp1541
S'0x80bf71dL'
p1542
aS'0x80bf735L'
p1543
asg209
Nsg210
Nsg211
S'30144e687a8588205cddc9480c0a7d1c'
p1544
sg213
S'c5efe60abbd18aeb6dc261653051feba'
p1545
sg215
(lp1546
g1369
ag1376
ag1383
ag1390
ag1397
ag1404
ag1411
ag1418
ag1425
ag1432
ag1439
ag1446
ag1453
ag1460
ag1467
ag1474
ag1481
ag1488
ag1495
ag1502
ag1509
ag1516
asg217
Nsba(ibclass
BBasicBlock
p1547
(dp1548
g12
Nsg13
(lp1549
(ibclass
BInstr
p1550
(dp1551
g2
Nsg17
S'lea     eax, [ebp+ctx]'
p1552
sg19
S'8d8588feffff'
p1553
sg21
Vlea eax, [ebp - 0x178]
p1554
sg5
L135001885L
sg6
Nsg23
S'lea'
p1555
sg25
S'0x80bf71dL'
p1556
sg27
Nsba(ibclass
BInstr
p1557
(dp1558
g2
Nsg17
S'mov     [esp], eax      ; c'
p1559
sg19
S'890424'
p1560
sg21
Vmov dword ptr [esp], eax
p1561
sg5
L135001891L
sg6
Nsg23
S'mov'
p1562
sg25
S'0x80bf723L'
p1563
sg27
Nsba(ibclass
BInstr
p1564
(dp1565
g2
Nsg17
S'call    EVP_CIPHER_CTX_cleanup'
p1566
sg19
S'e8b0ef0700'
p1567
sg21
Vcall 0x7efb5
p1568
sg5
L135001894L
sg6
Nsg23
S'call'
p1569
sg25
S'0x80bf726L'
p1570
sg27
Nsba(ibclass
BInstr
p1571
(dp1572
g2
Nsg17
S'mov     eax, 0FFFFFFFFh'
p1573
sg19
S'b8ffffffff'
p1574
sg21
Vmov eax, 0xffffffff
p1575
sg5
L135001899L
sg6
Nsg23
S'mov'
p1576
sg25
S'0x80bf72bL'
p1577
sg27
Nsba(ibclass
BInstr
p1578
(dp1579
g2
Nsg17
S'jmp     loc_80BF870'
p1580
sg19
S'e93b010000'
p1581
sg21
Vjmp 0x140
p1582
sg5
L135001904L
sg6
Nsg23
S'jmp'
p1583
sg25
S'0x80bf730L'
p1584
sg27
Nsbasg182
(lp1585
Vlea eax, mem
p1586
aVmov mem, eax
p1587
aVcall address
p1588
aVmov eax, address
p1589
aVjmp address
p1590
asg201
Nsg5
S'0x80bf71dL'
p1591
sg203
(lp1592
S'0x80bf6baL'
p1593
asg6
Nsg205
(lp1594
S'0x80bf870L'
p1595
asg209
Nsg210
Nsg211
S'e45bc3a683c8500723876ba3073ee408'
p1596
sg213
S'ed73cdfbe2c42b6afa47a3b732d3aabe'
p1597
sg215
(lp1598
g1555
ag1562
ag1569
ag1576
ag1583
asg217
Nsba(ibclass
BBasicBlock
p1599
(dp1600
g12
Nsg13
(lp1601
(ibclass
BInstr
p1602
(dp1603
g2
Nsg17
S'mov     eax, [ebp+p]'
p1604
sg19
S'8b8524feffff'
p1605
sg21
Vmov eax, dword ptr [ebp - 0x1dc]
p1606
sg5
L135001909L
sg6
Nsg23
S'mov'
p1607
sg25
S'0x80bf735L'
p1608
sg27
Nsba(ibclass
BInstr
p1609
(dp1610
g2
Nsg17
S'mov     edx, [ebp+eticklen]'
p1611
sg19
S'8b5510'
p1612
sg21
Vmov edx, dword ptr [ebp + 0x10]
p1613
sg5
L135001915L
sg6
Nsg23
S'mov'
p1614
sg25
S'0x80bf73bL'
p1615
sg27
Nsba(ibclass
BInstr
p1616
(dp1617
g2
Nsg17
S'mov     [esp+10h], edx  ; inl'
p1618
sg19
S'89542410'
p1619
sg21
Vmov dword ptr [esp + 0x10], edx
p1620
sg5
L135001918L
sg6
Nsg23
S'mov'
p1621
sg25
S'0x80bf73eL'
p1622
sg27
Nsba(ibclass
BInstr
p1623
(dp1624
g2
Nsg17
S'mov     [esp+0Ch], eax  ; in'
p1625
sg19
S'8944240c'
p1626
sg21
Vmov dword ptr [esp + 0xc], eax
p1627
sg5
L135001922L
sg6
Nsg23
S'mov'
p1628
sg25
S'0x80bf742L'
p1629
sg27
Nsba(ibclass
BInstr
p1630
(dp1631
g2
Nsg17
S'lea     eax, [ebp+slen]'
p1632
sg19
S'8d8528feffff'
p1633
sg21
Vlea eax, [ebp - 0x1d8]
p1634
sg5
L135001926L
sg6
Nsg23
S'lea'
p1635
sg25
S'0x80bf746L'
p1636
sg27
Nsba(ibclass
BInstr
p1637
(dp1638
g2
Nsg17
S'mov     [esp+8], eax    ; outl'
p1639
sg19
S'89442408'
p1640
sg21
Vmov dword ptr [esp + 8], eax
p1641
sg5
L135001932L
sg6
Nsg23
S'mov'
p1642
sg25
S'0x80bf74cL'
p1643
sg27
Nsba(ibclass
BInstr
p1644
(dp1645
g2
Nsg17
S'mov     eax, [ebp+sdec]'
p1646
sg19
S'8b8540feffff'
p1647
sg21
Vmov eax, dword ptr [ebp - 0x1c0]
p1648
sg5
L135001936L
sg6
Nsg23
S'mov'
p1649
sg25
S'0x80bf750L'
p1650
sg27
Nsba(ibclass
BInstr
p1651
(dp1652
g2
Nsg17
S'mov     [esp+4], eax    ; out'
p1653
sg19
S'89442404'
p1654
sg21
Vmov dword ptr [esp + 4], eax
p1655
sg5
L135001942L
sg6
Nsg23
S'mov'
p1656
sg25
S'0x80bf756L'
p1657
sg27
Nsba(ibclass
BInstr
p1658
(dp1659
g2
Nsg17
S'lea     eax, [ebp+ctx]'
p1660
sg19
S'8d8588feffff'
p1661
sg21
Vlea eax, [ebp - 0x178]
p1662
sg5
L135001946L
sg6
Nsg23
S'lea'
p1663
sg25
S'0x80bf75aL'
p1664
sg27
Nsba(ibclass
BInstr
p1665
(dp1666
g2
Nsg17
S'mov     [esp], eax      ; ctx'
p1667
sg19
S'890424'
p1668
sg21
Vmov dword ptr [esp], eax
p1669
sg5
L135001952L
sg6
Nsg23
S'mov'
p1670
sg25
S'0x80bf760L'
p1671
sg27
Nsba(ibclass
BInstr
p1672
(dp1673
g2
Nsg17
S'call    EVP_DecryptUpdate'
p1674
sg19
S'e8efea0700'
p1675
sg21
Vcall 0x7eaf4
p1676
sg5
L135001955L
sg6
Nsg23
S'call'
p1677
sg25
S'0x80bf763L'
p1678
sg27
Nsba(ibclass
BInstr
p1679
(dp1680
g2
Nsg17
S'mov     eax, [ebp+slen]'
p1681
sg19
S'8b8528feffff'
p1682
sg21
Vmov eax, dword ptr [ebp - 0x1d8]
p1683
sg5
L135001960L
sg6
Nsg23
S'mov'
p1684
sg25
S'0x80bf768L'
p1685
sg27
Nsba(ibclass
BInstr
p1686
(dp1687
g2
Nsg17
S'mov     edx, eax'
p1688
sg19
S'89c2'
p1689
sg21
Vmov edx, eax
p1690
sg5
L135001966L
sg6
Nsg23
S'mov'
p1691
sg25
S'0x80bf76eL'
p1692
sg27
Nsba(ibclass
BInstr
p1693
(dp1694
g2
Nsg17
S'mov     eax, [ebp+sdec]'
p1695
sg19
S'8b8540feffff'
p1696
sg21
Vmov eax, dword ptr [ebp - 0x1c0]
p1697
sg5
L135001968L
sg6
Nsg23
S'mov'
p1698
sg25
S'0x80bf770L'
p1699
sg27
Nsba(ibclass
BInstr
p1700
(dp1701
g2
Nsg17
S'add     edx, eax'
p1702
sg19
S'01c2'
p1703
sg21
Vadd edx, eax
p1704
sg5
L135001974L
sg6
Nsg23
S'add'
p1705
sg25
S'0x80bf776L'
p1706
sg27
Nsba(ibclass
BInstr
p1707
(dp1708
g2
Nsg17
S'lea     eax, [ebp+mlen]'
p1709
sg19
S'8d852cfeffff'
p1710
sg21
Vlea eax, [ebp - 0x1d4]
p1711
sg5
L135001976L
sg6
Nsg23
S'lea'
p1712
sg25
S'0x80bf778L'
p1713
sg27
Nsba(ibclass
BInstr
p1714
(dp1715
g2
Nsg17
S'mov     [esp+8], eax    ; outl'
p1716
sg19
S'89442408'
p1717
sg21
Vmov dword ptr [esp + 8], eax
p1718
sg5
L135001982L
sg6
Nsg23
S'mov'
p1719
sg25
S'0x80bf77eL'
p1720
sg27
Nsba(ibclass
BInstr
p1721
(dp1722
g2
Nsg17
S'mov     [esp+4], edx    ; out'
p1723
sg19
S'89542404'
p1724
sg21
Vmov dword ptr [esp + 4], edx
p1725
sg5
L135001986L
sg6
Nsg23
S'mov'
p1726
sg25
S'0x80bf782L'
p1727
sg27
Nsba(ibclass
BInstr
p1728
(dp1729
g2
Nsg17
S'lea     eax, [ebp+ctx]'
p1730
sg19
S'8d8588feffff'
p1731
sg21
Vlea eax, [ebp - 0x178]
p1732
sg5
L135001990L
sg6
Nsg23
S'lea'
p1733
sg25
S'0x80bf786L'
p1734
sg27
Nsba(ibclass
BInstr
p1735
(dp1736
g2
Nsg17
S'mov     [esp], eax      ; ctx'
p1737
sg19
S'890424'
p1738
sg21
Vmov dword ptr [esp], eax
p1739
sg5
L135001996L
sg6
Nsg23
S'mov'
p1740
sg25
S'0x80bf78cL'
p1741
sg27
Nsba(ibclass
BInstr
p1742
(dp1743
g2
Nsg17
S'call    EVP_DecryptFinal'
p1744
sg19
S'e89eec0700'
p1745
sg21
Vcall 0x7eca3
p1746
sg5
L135001999L
sg6
Nsg23
S'call'
p1747
sg25
S'0x80bf78fL'
p1748
sg27
Nsba(ibclass
BInstr
p1749
(dp1750
g2
Nsg17
S'test    eax, eax'
p1751
sg19
S'85c0'
p1752
sg21
Vtest eax, eax
p1753
sg5
L135002004L
sg6
Nsg23
S'test'
p1754
sg25
S'0x80bf794L'
p1755
sg27
Nsba(ibclass
BInstr
p1756
(dp1757
g2
Nsg17
S'jg      short loc_80BF7A2'
p1758
sg19
S'7f0a'
p1759
sg21
Vjg 0xc
p1760
sg5
L135002006L
sg6
Nsg23
S'jg'
p1761
sg25
S'0x80bf796L'
p1762
sg27
Nsbasg182
(lp1763
Vmov eax, mem
p1764
aVmov edx, mem
p1765
aVmov mem, edx
p1766
aVmov mem, eax
p1767
aVlea eax, mem
p1768
aVmov mem, eax
p1769
aVmov eax, mem
p1770
aVmov mem, eax
p1771
aVlea eax, mem
p1772
aVmov mem, eax
p1773
aVcall address
p1774
aVmov eax, mem
p1775
ag1690
aVmov eax, mem
p1776
ag1704
aVlea eax, mem
p1777
aVmov mem, eax
p1778
aVmov mem, edx
p1779
aVlea eax, mem
p1780
aVmov mem, eax
p1781
aVcall address
p1782
ag1753
aVjg address
p1783
asg201
Nsg5
S'0x80bf735L'
p1784
sg203
(lp1785
S'0x80bf6baL'
p1786
asg6
Nsg205
(lp1787
S'0x80bf798L'
p1788
aS'0x80bf7a2L'
p1789
asg209
Nsg210
Nsg211
S'd365ac15911160202021ea4dddd56918'
p1790
sg213
S'e628c320b3eca5d227ef2c0215c986c6'
p1791
sg215
(lp1792
g1607
ag1614
ag1621
ag1628
ag1635
ag1642
ag1649
ag1656
ag1663
ag1670
ag1677
ag1684
ag1691
ag1698
ag1705
ag1712
ag1719
ag1726
ag1733
ag1740
ag1747
ag1754
ag1761
asg217
Nsba(ibclass
BBasicBlock
p1793
(dp1794
g12
Nsg13
(lp1795
(ibclass
BInstr
p1796
(dp1797
g2
Nsg17
S'mov     eax, 2'
p1798
sg19
S'b802000000'
p1799
sg21
Vmov eax, 2
p1800
sg5
L135002008L
sg6
Nsg23
S'mov'
p1801
sg25
S'0x80bf798L'
p1802
sg27
Nsba(ibclass
BInstr
p1803
(dp1804
g2
Nsg17
S'jmp     loc_80BF870'
p1805
sg19
S'e9ce000000'
p1806
sg21
Vjmp 0xd3
p1807
sg5
L135002013L
sg6
Nsg23
S'jmp'
p1808
sg25
S'0x80bf79dL'
p1809
sg27
Nsbasg182
(lp1810
g1800
aVjmp address
p1811
asg201
Nsg5
S'0x80bf798L'
p1812
sg203
(lp1813
S'0x80bf735L'
p1814
asg6
Nsg205
(lp1815
S'0x80bf870L'
p1816
asg209
Nsg210
Nsg211
S'8b9a0d40e062be2b9b2d9885108fb196'
p1817
sg213
S'7282f82a6c8726594dd819847969733b'
p1818
sg215
(lp1819
g1801
ag1808
asg217
Nsba(ibclass
BBasicBlock
p1820
(dp1821
g12
Nsg13
(lp1822
(ibclass
BInstr
p1823
(dp1824
g2
Nsg17
S'mov     edx, [ebp+slen]'
p1825
sg19
S'8b9528feffff'
p1826
sg21
Vmov edx, dword ptr [ebp - 0x1d8]
p1827
sg5
L135002018L
sg6
Nsg23
S'mov'
p1828
sg25
S'0x80bf7a2L'
p1829
sg27
Nsba(ibclass
BInstr
p1830
(dp1831
g2
Nsg17
S'mov     eax, [ebp+mlen]'
p1832
sg19
S'8b852cfeffff'
p1833
sg21
Vmov eax, dword ptr [ebp - 0x1d4]
p1834
sg5
L135002024L
sg6
Nsg23
S'mov'
p1835
sg25
S'0x80bf7a8L'
p1836
sg27
Nsba(ibclass
BInstr
p1837
(dp1838
g2
Nsg17
S'add     eax, edx'
p1839
sg19
S'01d0'
p1840
sg21
Vadd eax, edx
p1841
sg5
L135002030L
sg6
Nsg23
S'add'
p1842
sg25
S'0x80bf7aeL'
p1843
sg27
Nsba(ibclass
BInstr
p1844
(dp1845
g2
Nsg17
S'mov     [ebp+slen], eax'
p1846
sg19
S'898528feffff'
p1847
sg21
Vmov dword ptr [ebp - 0x1d8], eax
p1848
sg5
L135002032L
sg6
Nsg23
S'mov'
p1849
sg25
S'0x80bf7b0L'
p1850
sg27
Nsba(ibclass
BInstr
p1851
(dp1852
g2
Nsg17
S'lea     eax, [ebp+ctx]'
p1853
sg19
S'8d8588feffff'
p1854
sg21
Vlea eax, [ebp - 0x178]
p1855
sg5
L135002038L
sg6
Nsg23
S'lea'
p1856
sg25
S'0x80bf7b6L'
p1857
sg27
Nsba(ibclass
BInstr
p1858
(dp1859
g2
Nsg17
S'mov     [esp], eax      ; c'
p1860
sg19
S'890424'
p1861
sg21
Vmov dword ptr [esp], eax
p1862
sg5
L135002044L
sg6
Nsg23
S'mov'
p1863
sg25
S'0x80bf7bcL'
p1864
sg27
Nsba(ibclass
BInstr
p1865
(dp1866
g2
Nsg17
S'call    EVP_CIPHER_CTX_cleanup'
p1867
sg19
S'e817ef0700'
p1868
sg21
Vcall 0x7ef1c
p1869
sg5
L135002047L
sg6
Nsg23
S'call'
p1870
sg25
S'0x80bf7bfL'
p1871
sg27
Nsba(ibclass
BInstr
p1872
(dp1873
g2
Nsg17
S'mov     eax, [ebp+sdec]'
p1874
sg19
S'8b8540feffff'
p1875
sg21
Vmov eax, dword ptr [ebp - 0x1c0]
p1876
sg5
L135002052L
sg6
Nsg23
S'mov'
p1877
sg25
S'0x80bf7c4L'
p1878
sg27
Nsba(ibclass
BInstr
p1879
(dp1880
g2
Nsg17
S'mov     [ebp+p], eax'
p1881
sg19
S'898524feffff'
p1882
sg21
Vmov dword ptr [ebp - 0x1dc], eax
p1883
sg5
L135002058L
sg6
Nsg23
S'mov'
p1884
sg25
S'0x80bf7caL'
p1885
sg27
Nsba(ibclass
BInstr
p1886
(dp1887
g2
Nsg17
S'mov     eax, [ebp+slen]'
p1888
sg19
S'8b8528feffff'
p1889
sg21
Vmov eax, dword ptr [ebp - 0x1d8]
p1890
sg5
L135002064L
sg6
Nsg23
S'mov'
p1891
sg25
S'0x80bf7d0L'
p1892
sg27
Nsba(ibclass
BInstr
p1893
(dp1894
g2
Nsg17
S'mov     [esp+8], eax    ; int'
p1895
sg19
S'89442408'
p1896
sg21
Vmov dword ptr [esp + 8], eax
p1897
sg5
L135002070L
sg6
Nsg23
S'mov'
p1898
sg25
S'0x80bf7d6L'
p1899
sg27
Nsba(ibclass
BInstr
p1900
(dp1901
g2
Nsg17
S'lea     eax, [ebp+p]'
p1902
sg19
S'8d8524feffff'
p1903
sg21
Vlea eax, [ebp - 0x1dc]
p1904
sg5
L135002074L
sg6
Nsg23
S'lea'
p1905
sg25
S'0x80bf7daL'
p1906
sg27
Nsba(ibclass
BInstr
p1907
(dp1908
g2
Nsg17
S'mov     [esp+4], eax    ; unsigned __int8 **'
p1909
sg19
S'89442404'
p1910
sg21
Vmov dword ptr [esp + 4], eax
p1911
sg5
L135002080L
sg6
Nsg23
S'mov'
p1912
sg25
S'0x80bf7e0L'
p1913
sg27
Nsba(ibclass
BInstr
p1914
(dp1915
g2
Nsg17
S'mov     dword ptr [esp], 0; void **'
p1916
sg19
S'c7042400000000'
p1917
sg21
Vmov dword ptr [esp], 0
p1918
sg5
L135002084L
sg6
Nsg23
S'mov'
p1919
sg25
S'0x80bf7e4L'
p1920
sg27
Nsba(ibclass
BInstr
p1921
(dp1922
g2
Nsg17
S'call    d2i_SSL_SESSION'
p1923
sg19
S'e838fc0100'
p1924
sg21
Vcall 0x1fc3d
p1925
sg5
L135002091L
sg6
Nsg23
S'call'
p1926
sg25
S'0x80bf7ebL'
p1927
sg27
Nsba(ibclass
BInstr
p1928
(dp1929
g2
Nsg17
S'mov     [ebp+sess], eax'
p1930
sg19
S'898544feffff'
p1931
sg21
Vmov dword ptr [ebp - 0x1bc], eax
p1932
sg5
L135002096L
sg6
Nsg23
S'mov'
p1933
sg25
S'0x80bf7f0L'
p1934
sg27
Nsba(ibclass
BInstr
p1935
(dp1936
g2
Nsg17
S'mov     eax, [ebp+sdec]'
p1937
sg19
S'8b8540feffff'
p1938
sg21
Vmov eax, dword ptr [ebp - 0x1c0]
p1939
sg5
L135002102L
sg6
Nsg23
S'mov'
p1940
sg25
S'0x80bf7f6L'
p1941
sg27
Nsba(ibclass
BInstr
p1942
(dp1943
g2
Nsg17
S'mov     [esp], eax      ; str'
p1944
sg19
S'890424'
p1945
sg21
Vmov dword ptr [esp], eax
p1946
sg5
L135002108L
sg6
Nsg23
S'mov'
p1947
sg25
S'0x80bf7fcL'
p1948
sg27
Nsba(ibclass
BInstr
p1949
(dp1950
g2
Nsg17
S'call    CRYPTO_free'
p1951
sg19
S'e861570200'
p1952
sg21
Vcall 0x25766
p1953
sg5
L135002111L
sg6
Nsg23
S'call'
p1954
sg25
S'0x80bf7ffL'
p1955
sg27
Nsba(ibclass
BInstr
p1956
(dp1957
g2
Nsg17
S'cmp     [ebp+sess], 0'
p1958
sg19
S'83bd44feffff00'
p1959
sg21
Vcmp dword ptr [ebp - 0x1bc], 0
p1960
sg5
L135002116L
sg6
Nsg23
S'cmp'
p1961
sg25
S'0x80bf804L'
p1962
sg27
Nsba(ibclass
BInstr
p1963
(dp1964
g2
Nsg17
S'jz      short loc_80BF866'
p1965
sg19
S'7459'
p1966
sg21
Vje 0x5b
p1967
sg5
L135002123L
sg6
Nsg23
S'jz'
p1968
sg25
S'0x80bf80bL'
p1969
sg27
Nsbasg182
(lp1970
Vmov edx, mem
p1971
aVmov eax, mem
p1972
ag1841
aVmov mem, eax
p1973
aVlea eax, mem
p1974
aVmov mem, eax
p1975
aVcall address
p1976
aVmov eax, mem
p1977
aVmov mem, eax
p1978
aVmov eax, mem
p1979
aVmov mem, eax
p1980
aVlea eax, mem
p1981
aVmov mem, eax
p1982
aVmov mem, 0
p1983
aVcall address
p1984
aVmov mem, eax
p1985
aVmov eax, mem
p1986
aVmov mem, eax
p1987
aVcall address
p1988
aVcmp mem, 0
p1989
aVje address
p1990
asg201
Nsg5
S'0x80bf7a2L'
p1991
sg203
(lp1992
S'0x80bf735L'
p1993
asg6
Nsg205
(lp1994
S'0x80bf80dL'
p1995
aS'0x80bf866L'
p1996
asg209
Nsg210
Nsg211
S'6cf08886a37141966f0931920798e410'
p1997
sg213
S'883ede41a37fb27de66777eb88e54886'
p1998
sg215
(lp1999
g1828
ag1835
ag1842
ag1849
ag1856
ag1863
ag1870
ag1877
ag1884
ag1891
ag1898
ag1905
ag1912
ag1919
ag1926
ag1933
ag1940
ag1947
ag1954
ag1961
ag1968
asg217
Nsba(ibclass
BBasicBlock
p2000
(dp2001
g12
Nsg13
(lp2002
(ibclass
BInstr
p2003
(dp2004
g2
Nsg17
S'cmp     [ebp+sesslen], 0'
p2005
sg19
S'837d1800'
p2006
sg21
Vcmp dword ptr [ebp + 0x18], 0
p2007
sg5
L135002125L
sg6
Nsg23
S'cmp'
p2008
sg25
S'0x80bf80dL'
p2009
sg27
Nsba(ibclass
BInstr
p2010
(dp2011
g2
Nsg17
S'jz      short loc_80BF835'
p2012
sg19
S'7422'
p2013
sg21
Vje 0x24
p2014
sg5
L135002129L
sg6
Nsg23
S'jz'
p2015
sg25
S'0x80bf811L'
p2016
sg27
Nsbasg182
(lp2017
Vcmp mem, 0
p2018
aVje address
p2019
asg201
Nsg5
S'0x80bf80dL'
p2020
sg203
(lp2021
S'0x80bf7a2L'
p2022
asg6
Nsg205
(lp2023
S'0x80bf813L'
p2024
aS'0x80bf835L'
p2025
asg209
Nsg210
Nsg211
S'613dbc2b0cb9d6264d802b24d709daea'
p2026
sg213
S'bdc7ec577d63971d81398660f533a2e0'
p2027
sg215
(lp2028
g2008
ag2015
asg217
Nsba(ibclass
BBasicBlock
p2029
(dp2030
g12
Nsg13
(lp2031
(ibclass
BInstr
p2032
(dp2033
g2
Nsg17
S'mov     eax, [ebp+sesslen]'
p2034
sg19
S'8b4518'
p2035
sg21
Vmov eax, dword ptr [ebp + 0x18]
p2036
sg5
L135002131L
sg6
Nsg23
S'mov'
p2037
sg25
S'0x80bf813L'
p2038
sg27
Nsba(ibclass
BInstr
p2039
(dp2040
g2
Nsg17
S'mov     edx, [ebp+sess]'
p2041
sg19
S'8b9544feffff'
p2042
sg21
Vmov edx, dword ptr [ebp - 0x1bc]
p2043
sg5
L135002134L
sg6
Nsg23
S'mov'
p2044
sg25
S'0x80bf816L'
p2045
sg27
Nsba(ibclass
BInstr
p2046
(dp2047
g2
Nsg17
S'add     edx, 48h'
p2048
sg19
S'83c248'
p2049
sg21
Vadd edx, 0x48
p2050
sg5
L135002140L
sg6
Nsg23
S'add'
p2051
sg25
S'0x80bf81cL'
p2052
sg27
Nsba(ibclass
BInstr
p2053
(dp2054
g2
Nsg17
S'mov     [esp+8], eax    ; n'
p2055
sg19
S'89442408'
p2056
sg21
Vmov dword ptr [esp + 8], eax
p2057
sg5
L135002143L
sg6
Nsg23
S'mov'
p2058
sg25
S'0x80bf81fL'
p2059
sg27
Nsba(ibclass
BInstr
p2060
(dp2061
g2
Nsg17
S'mov     eax, [ebp+sess_id]'
p2062
sg19
S'8b850cfeffff'
p2063
sg21
Vmov eax, dword ptr [ebp - 0x1f4]
p2064
sg5
L135002147L
sg6
Nsg23
S'mov'
p2065
sg25
S'0x80bf823L'
p2066
sg27
Nsba(ibclass
BInstr
p2067
(dp2068
g2
Nsg17
S'mov     [esp+4], eax    ; src'
p2069
sg19
S'89442404'
p2070
sg21
Vmov dword ptr [esp + 4], eax
p2071
sg5
L135002153L
sg6
Nsg23
S'mov'
p2072
sg25
S'0x80bf829L'
p2073
sg27
Nsba(ibclass
BInstr
p2074
(dp2075
g2
Nsg17
S'mov     [esp], edx      ; dest'
p2076
sg19
S'891424'
p2077
sg21
Vmov dword ptr [esp], edx
p2078
sg5
L135002157L
sg6
Nsg23
S'mov'
p2079
sg25
S'0x80bf82dL'
p2080
sg27
Nsba(ibclass
BInstr
p2081
(dp2082
g2
Nsg17
S'call    _memcpy'
p2083
sg19
S'e80b9df8ff'
p2084
sg21
Vcall 0xfff89d10
p2085
sg5
L135002160L
sg6
Nsg23
S'call'
p2086
sg25
S'0x80bf830L'
p2087
sg27
Nsbasg182
(lp2088
Vmov eax, mem
p2089
aVmov edx, mem
p2090
aVadd edx, address
p2091
aVmov mem, eax
p2092
aVmov eax, mem
p2093
aVmov mem, eax
p2094
aVmov mem, edx
p2095
aVcall address
p2096
asg201
Nsg5
S'0x80bf813L'
p2097
sg203
(lp2098
S'0x80bf80dL'
p2099
asg6
Nsg205
(lp2100
S'0x80bf835L'
p2101
asg209
Nsg210
Nsg211
S'f96d278c8ffcb9d6716c2fd6b10759a8'
p2102
sg213
S'7a57c8a558c5206b158adbbf940fa002'
p2103
sg215
(lp2104
g2037
ag2044
ag2051
ag2058
ag2065
ag2072
ag2079
ag2086
asg217
Nsba(ibclass
BBasicBlock
p2105
(dp2106
g12
Nsg13
(lp2107
(ibclass
BInstr
p2108
(dp2109
g2
Nsg17
S'mov     edx, [ebp+sesslen]'
p2110
sg19
S'8b5518'
p2111
sg21
Vmov edx, dword ptr [ebp + 0x18]
p2112
sg5
L135002165L
sg6
Nsg23
S'mov'
p2113
sg25
S'0x80bf835L'
p2114
sg27
Nsba(ibclass
BInstr
p2115
(dp2116
g2
Nsg17
S'mov     eax, [ebp+sess]'
p2117
sg19
S'8b8544feffff'
p2118
sg21
Vmov eax, dword ptr [ebp - 0x1bc]
p2119
sg5
L135002168L
sg6
Nsg23
S'mov'
p2120
sg25
S'0x80bf838L'
p2121
sg27
Nsba(ibclass
BInstr
p2122
(dp2123
g2
Nsg17
S'mov     [eax+44h], edx'
p2124
sg19
S'895044'
p2125
sg21
Vmov dword ptr [eax + 0x44], edx
p2126
sg5
L135002174L
sg6
Nsg23
S'mov'
p2127
sg25
S'0x80bf83eL'
p2128
sg27
Nsba(ibclass
BInstr
p2129
(dp2130
g2
Nsg17
S'mov     eax, [ebp+psess]'
p2131
sg19
S'8b8508feffff'
p2132
sg21
Vmov eax, dword ptr [ebp - 0x1f8]
p2133
sg5
L135002177L
sg6
Nsg23
S'mov'
p2134
sg25
S'0x80bf841L'
p2135
sg27
Nsba(ibclass
BInstr
p2136
(dp2137
g2
Nsg17
S'mov     edx, [ebp+sess]'
p2138
sg19
S'8b9544feffff'
p2139
sg21
Vmov edx, dword ptr [ebp - 0x1bc]
p2140
sg5
L135002183L
sg6
Nsg23
S'mov'
p2141
sg25
S'0x80bf847L'
p2142
sg27
Nsba(ibclass
BInstr
p2143
(dp2144
g2
Nsg17
S'mov     [eax], edx'
p2145
sg19
S'8910'
p2146
sg21
Vmov dword ptr [eax], edx
p2147
sg5
L135002189L
sg6
Nsg23
S'mov'
p2148
sg25
S'0x80bf84dL'
p2149
sg27
Nsba(ibclass
BInstr
p2150
(dp2151
g2
Nsg17
S'cmp     [ebp+renew_ticket], 0'
p2152
sg19
S'83bd30feffff00'
p2153
sg21
Vcmp dword ptr [ebp - 0x1d0], 0
p2154
sg5
L135002191L
sg6
Nsg23
S'cmp'
p2155
sg25
S'0x80bf84fL'
p2156
sg27
Nsba(ibclass
BInstr
p2157
(dp2158
g2
Nsg17
S'jz      short loc_80BF85F'
p2159
sg19
S'7407'
p2160
sg21
Vje 9
p2161
sg5
L135002198L
sg6
Nsg23
S'jz'
p2162
sg25
S'0x80bf856L'
p2163
sg27
Nsbasg182
(lp2164
Vmov edx, mem
p2165
aVmov eax, mem
p2166
aVmov mem, edx
p2167
aVmov eax, mem
p2168
aVmov edx, mem
p2169
aVmov mem, edx
p2170
aVcmp mem, 0
p2171
ag2161
asg201
Nsg5
S'0x80bf835L'
p2172
sg203
(lp2173
S'0x80bf80dL'
p2174
aS'0x80bf813L'
p2175
asg6
Nsg205
(lp2176
S'0x80bf858L'
p2177
aS'0x80bf85fL'
p2178
asg209
Nsg210
Nsg211
S'b4680a8b4a51d3cae4ef142e18eb9449'
p2179
sg213
S'29f609dd00d2a860f6a814961a00c749'
p2180
sg215
(lp2181
g2113
ag2120
ag2127
ag2134
ag2141
ag2148
ag2155
ag2162
asg217
Nsba(ibclass
BBasicBlock
p2182
(dp2183
g12
Nsg13
(lp2184
(ibclass
BInstr
p2185
(dp2186
g2
Nsg17
S'mov     eax, 4'
p2187
sg19
S'b804000000'
p2188
sg21
Vmov eax, 4
p2189
sg5
L135002200L
sg6
Nsg23
S'mov'
p2190
sg25
S'0x80bf858L'
p2191
sg27
Nsba(ibclass
BInstr
p2192
(dp2193
g2
Nsg17
S'jmp     short loc_80BF870'
p2194
sg19
S'eb11'
p2195
sg21
Vjmp 0x13
p2196
sg5
L135002205L
sg6
Nsg23
S'jmp'
p2197
sg25
S'0x80bf85dL'
p2198
sg27
Nsbasg182
(lp2199
g2189
aVjmp address
p2200
asg201
Nsg5
S'0x80bf858L'
p2201
sg203
(lp2202
S'0x80bf835L'
p2203
asg6
Nsg205
(lp2204
S'0x80bf870L'
p2205
asg209
Nsg210
Nsg211
S'8b9a0d40e062be2b9b2d9885108fb196'
p2206
sg213
S'd9a13f4aac3d5f65e8319cbedf8a61fc'
p2207
sg215
(lp2208
g2190
ag2197
asg217
Nsba(ibclass
BBasicBlock
p2209
(dp2210
g12
Nsg13
(lp2211
(ibclass
BInstr
p2212
(dp2213
g2
Nsg17
S'mov     eax, 3'
p2214
sg19
S'b803000000'
p2215
sg21
Vmov eax, 3
p2216
sg5
L135002207L
sg6
Nsg23
S'mov'
p2217
sg25
S'0x80bf85fL'
p2218
sg27
Nsba(ibclass
BInstr
p2219
(dp2220
g2
Nsg17
S'jmp     short loc_80BF870'
p2221
sg19
S'eb0a'
p2222
sg21
Vjmp 0xc
p2223
sg5
L135002212L
sg6
Nsg23
S'jmp'
p2224
sg25
S'0x80bf864L'
p2225
sg27
Nsbasg182
(lp2226
g2216
aVjmp address
p2227
asg201
Nsg5
S'0x80bf85fL'
p2228
sg203
(lp2229
S'0x80bf835L'
p2230
asg6
Nsg205
(lp2231
S'0x80bf870L'
p2232
asg209
Nsg210
Nsg211
S'8b9a0d40e062be2b9b2d9885108fb196'
p2233
sg213
S'0f8da23cfc864d33af78e0b69c5de849'
p2234
sg215
(lp2235
g2217
ag2224
asg217
Nsba(ibclass
BBasicBlock
p2236
(dp2237
g12
Nsg13
(lp2238
(ibclass
BInstr
p2239
(dp2240
g2
Nsg17
S'call    ERR_clear_error'
p2241
sg19
S'e83ac50700'
p2242
sg21
Vcall 0x7c53f
p2243
sg5
L135002214L
sg6
Nsg23
S'call'
p2244
sg25
S'0x80bf866L'
p2245
sg27
Nsba(ibclass
BInstr
p2246
(dp2247
g2
Nsg17
S'mov     eax, 2'
p2248
sg19
S'b802000000'
p2249
sg21
Vmov eax, 2
p2250
sg5
L135002219L
sg6
Nsg23
S'mov'
p2251
sg25
S'0x80bf86bL'
p2252
sg27
Nsbasg182
(lp2253
Vcall address
p2254
ag2250
asg201
Nsg5
S'0x80bf866L'
p2255
sg203
(lp2256
S'0x80bf7a2L'
p2257
asg6
Nsg205
(lp2258
S'0x80bf870L'
p2259
asg209
Nsg210
Nsg211
S'ad9840622df3e7b678180e2769bafcde'
p2260
sg213
S'236deead43195448d03acc4cbd495bca'
p2261
sg215
(lp2262
g2244
ag2251
asg217
Nsba(ibclass
BBasicBlock
p2263
(dp2264
g12
Nsg13
(lp2265
(ibclass
BInstr
p2266
(dp2267
g2
Nsg17
S'mov     edi, [ebp+var_1C]'
p2268
sg19
S'8b7de4'
p2269
sg21
Vmov edi, dword ptr [ebp - 0x1c]
p2270
sg5
L135002224L
sg6
Nsg23
S'mov'
p2271
sg25
S'0x80bf870L'
p2272
sg27
Nsba(ibclass
BInstr
p2273
(dp2274
g2
Nsg17
S'xor     edi, large gs:14h'
p2275
sg19
S'65333d14000000'
p2276
sg21
Vxor edi, dword ptr gs:[0x14]
p2277
sg5
L135002227L
sg6
Nsg23
S'xor'
p2278
sg25
S'0x80bf873L'
p2279
sg27
Nsba(ibclass
BInstr
p2280
(dp2281
g2
Nsg17
S'jz      short loc_80BF881'
p2282
sg19
S'7405'
p2283
sg21
Vje 7
p2284
sg5
L135002234L
sg6
Nsg23
S'jz'
p2285
sg25
S'0x80bf87aL'
p2286
sg27
Nsbasg182
(lp2287
Vmov edi, mem
p2288
aVxor edi, gs:mem
p2289
ag2284
asg201
Nsg5
S'0x80bf870L'
p2290
sg203
(lp2291
S'0x80bf47aL'
p2292
aS'0x80bf519L'
p2293
aS'0x80bf52cL'
p2294
aS'0x80bf57cL'
p2295
aS'0x80bf617L'
p2296
aS'0x80bf6b0L'
p2297
aS'0x80bf71dL'
p2298
aS'0x80bf798L'
p2299
aS'0x80bf858L'
p2300
aS'0x80bf85fL'
p2301
aS'0x80bf866L'
p2302
asg6
Nsg205
(lp2303
S'0x80bf87cL'
p2304
aS'0x80bf881L'
p2305
asg209
Nsg210
Nsg211
S'81354ac238b6424b069ead35b2072afc'
p2306
sg213
S'b2355ecbaedfc7568fdafe97f2ab3ec3'
p2307
sg215
(lp2308
g2271
ag2278
ag2285
asg217
Nsba(ibclass
BBasicBlock
p2309
(dp2310
g12
Nsg13
(lp2311
(ibclass
BInstr
p2312
(dp2313
g2
Nsg17
S'call    ___stack_chk_fail'
p2314
sg19
S'e8bf9df8ff'
p2315
sg21
Vcall 0xfff89dc4
p2316
sg5
L135002236L
sg6
Nsg23
S'call'
p2317
sg25
S'0x80bf87cL'
p2318
sg27
Nsbasg182
(lp2319
Vcall address
p2320
asg201
Nsg5
S'0x80bf87cL'
p2321
sg203
(lp2322
S'0x80bf870L'
p2323
asg6
Nsg205
(lp2324
sg209
Nsg210
Nsg211
S'53b9e9679a8ea25880376080b76f98ad'
p2325
sg213
S'5c3539e46d089242d4a47b64016c87be'
p2326
sg215
(lp2327
g2317
asg217
Nsba(ibclass
BBasicBlock
p2328
(dp2329
g12
Nsg13
(lp2330
(ibclass
BInstr
p2331
(dp2332
g2
Nsg17
S'add     esp, 20Ch'
p2333
sg19
S'81c40c020000'
p2334
sg21
Vadd esp, 0x20c
p2335
sg5
L135002241L
sg6
Nsg23
S'add'
p2336
sg25
S'0x80bf881L'
p2337
sg27
Nsba(ibclass
BInstr
p2338
(dp2339
g2
Nsg17
S'pop     ebx'
p2340
sg19
S'5b'
p2341
sg21
Vpop ebx
p2342
sg5
L135002247L
sg6
Nsg23
S'pop'
p2343
sg25
S'0x80bf887L'
p2344
sg27
Nsba(ibclass
BInstr
p2345
(dp2346
g2
Nsg17
S'pop     esi'
p2347
sg19
S'5e'
p2348
sg21
Vpop esi
p2349
sg5
L135002248L
sg6
Nsg23
S'pop'
p2350
sg25
S'0x80bf888L'
p2351
sg27
Nsba(ibclass
BInstr
p2352
(dp2353
g2
Nsg17
S'pop     edi'
p2354
sg19
S'5f'
p2355
sg21
Vpop edi
p2356
sg5
L135002249L
sg6
Nsg23
S'pop'
p2357
sg25
S'0x80bf889L'
p2358
sg27
Nsba(ibclass
BInstr
p2359
(dp2360
g2
Nsg17
S'pop     ebp'
p2361
sg19
S'5d'
p2362
sg21
Vpop ebp
p2363
sg5
L135002250L
sg6
Nsg23
S'pop'
p2364
sg25
S'0x80bf88aL'
p2365
sg27
Nsba(ibclass
BInstr
p2366
(dp2367
g2
Nsg17
S'retn'
p2368
sg19
S'c3'
p2369
sg21
Vret 
p2370
sg5
L135002251L
sg6
Nsg23
S'retn'
p2371
sg25
S'0x80bf88bL'
p2372
sg27
Nsbasg182
(lp2373
Vadd esp, address
p2374
ag2342
ag2349
ag2356
ag2363
aVret
p2375
asg201
Nsg5
S'0x80bf881L'
p2376
sg203
(lp2377
S'0x80bf870L'
p2378
asg6
Nsg205
(lp2379
sg209
Nsg210
Nsg211
S'7a46ba7788f44e209b8b551ffa63b4a8'
p2380
sg213
S'76f7d631bef3ca0ac464408e48fd4cb2'
p2381
sg215
(lp2382
g2336
ag2343
ag2350
ag2357
ag2364
ag2371
asg217
Nsbasb.