(ibclass
BFunc
p0
(dp1
S'hash'
p2
NsS'name'
p3
S'X509_verify'
p4
sS'start_address'
p5
L135737545L
sS'flag'
p6
NsS'program'
p7
NsS'bbs'
p8
(lp9
(ibclass
BBasicBlock
p10
(dp11
S'function'
p12
NsS'binstrs'
p13
(lp14
(ibclass
BInstr
p15
(dp16
g2
NsS'disasm'
p17
S'push    ebp'
p18
sS'bytes'
p19
S'55'
p20
sS'disasm_striped'
p21
Vpush ebp
p22
sg5
L135737545L
sg6
NsS'mnem'
p23
S'push'
p24
sS'address'
p25
S'0x81730c9L'
p26
sS'basicblock'
p27
Nsba(ibclass
BInstr
p28
(dp29
g2
Nsg17
S'mov     ebp, esp'
p30
sg19
S'89e5'
p31
sg21
Vmov ebp, esp
p32
sg5
L135737546L
sg6
Nsg23
S'mov'
p33
sg25
S'0x81730caL'
p34
sg27
Nsba(ibclass
BInstr
p35
(dp36
g2
Nsg17
S'push    ebx'
p37
sg19
S'53'
p38
sg21
Vpush ebx
p39
sg5
L135737548L
sg6
Nsg23
S'push'
p40
sg25
S'0x81730ccL'
p41
sg27
Nsba(ibclass
BInstr
p42
(dp43
g2
Nsg17
S'sub     esp, 24h'
p44
sg19
S'83ec24'
p45
sg21
Vsub esp, 0x24
p46
sg5
L135737549L
sg6
Nsg23
S'sub'
p47
sg25
S'0x81730cdL'
p48
sg27
Nsba(ibclass
BInstr
p49
(dp50
g2
Nsg17
S'mov     eax, [ebp+a]'
p51
sg19
S'8b4508'
p52
sg21
Vmov eax, dword ptr [ebp + 8]
p53
sg5
L135737552L
sg6
Nsg23
S'mov'
p54
sg25
S'0x81730d0L'
p55
sg27
Nsba(ibclass
BInstr
p56
(dp57
g2
Nsg17
S'mov     ecx, [eax]'
p58
sg19
S'8b08'
p59
sg21
Vmov ecx, dword ptr [eax]
p60
sg5
L135737555L
sg6
Nsg23
S'mov'
p61
sg25
S'0x81730d3L'
p62
sg27
Nsba(ibclass
BInstr
p63
(dp64
g2
Nsg17
S'mov     eax, [ebp+a]'
p65
sg19
S'8b4508'
p66
sg21
Vmov eax, dword ptr [ebp + 8]
p67
sg5
L135737557L
sg6
Nsg23
S'mov'
p68
sg25
S'0x81730d5L'
p69
sg27
Nsba(ibclass
BInstr
p70
(dp71
g2
Nsg17
S'mov     edx, [eax+8]'
p72
sg19
S'8b5008'
p73
sg21
Vmov edx, dword ptr [eax + 8]
p74
sg5
L135737560L
sg6
Nsg23
S'mov'
p75
sg25
S'0x81730d8L'
p76
sg27
Nsba(ibclass
BInstr
p77
(dp78
g2
Nsg17
S'mov     eax, [ebp+a]'
p79
sg19
S'8b4508'
p80
sg21
Vmov eax, dword ptr [ebp + 8]
p81
sg5
L135737563L
sg6
Nsg23
S'mov'
p82
sg25
S'0x81730dbL'
p83
sg27
Nsba(ibclass
BInstr
p84
(dp85
g2
Nsg17
S'mov     eax, [eax+4]'
p86
sg19
S'8b4004'
p87
sg21
Vmov eax, dword ptr [eax + 4]
p88
sg5
L135737566L
sg6
Nsg23
S'mov'
p89
sg25
S'0x81730deL'
p90
sg27
Nsba(ibclass
BInstr
p91
(dp92
g2
Nsg17
S'mov     ebx, [ebp+r]'
p93
sg19
S'8b5d0c'
p94
sg21
Vmov ebx, dword ptr [ebp + 0xc]
p95
sg5
L135737569L
sg6
Nsg23
S'mov'
p96
sg25
S'0x81730e1L'
p97
sg27
Nsba(ibclass
BInstr
p98
(dp99
g2
Nsg17
S'mov     [esp+10h], ebx  ; pkey'
p100
sg19
S'895c2410'
p101
sg21
Vmov dword ptr [esp + 0x10], ebx
p102
sg5
L135737572L
sg6
Nsg23
S'mov'
p103
sg25
S'0x81730e4L'
p104
sg27
Nsba(ibclass
BInstr
p105
(dp106
g2
Nsg17
S'mov     [esp+0Ch], ecx  ; asn'
p107
sg19
S'894c240c'
p108
sg21
Vmov dword ptr [esp + 0xc], ecx
p109
sg5
L135737576L
sg6
Nsg23
S'mov'
p110
sg25
S'0x81730e8L'
p111
sg27
Nsba(ibclass
BInstr
p112
(dp113
g2
Nsg17
S'mov     [esp+8], edx    ; signature'
p114
sg19
S'89542408'
p115
sg21
Vmov dword ptr [esp + 8], edx
p116
sg5
L135737580L
sg6
Nsg23
S'mov'
p117
sg25
S'0x81730ecL'
p118
sg27
Nsba(ibclass
BInstr
p119
(dp120
g2
Nsg17
S'mov     [esp+4], eax    ; a'
p121
sg19
S'89442404'
p122
sg21
Vmov dword ptr [esp + 4], eax
p123
sg5
L135737584L
sg6
Nsg23
S'mov'
p124
sg25
S'0x81730f0L'
p125
sg27
Nsba(ibclass
BInstr
p126
(dp127
g2
Nsg17
S'mov     dword ptr [esp], offset X509_CINF_it; it'
p128
sg19
S'c70424549c2308'
p129
sg21
Vmov dword ptr [esp], 0x8239c54
p130
sg5
L135737588L
sg6
Nsg23
S'mov'
p131
sg25
S'0x81730f4L'
p132
sg27
Nsba(ibclass
BInstr
p133
(dp134
g2
Nsg17
S'call    ASN1_item_verify'
p135
sg19
S'e8ae7a0600'
p136
sg21
Vcall 0x67ab3
p137
sg5
L135737595L
sg6
Nsg23
S'call'
p138
sg25
S'0x81730fbL'
p139
sg27
Nsba(ibclass
BInstr
p140
(dp141
g2
Nsg17
S'add     esp, 24h'
p142
sg19
S'83c424'
p143
sg21
Vadd esp, 0x24
p144
sg5
L135737600L
sg6
Nsg23
S'add'
p145
sg25
S'0x8173100L'
p146
sg27
Nsba(ibclass
BInstr
p147
(dp148
g2
Nsg17
S'pop     ebx'
p149
sg19
S'5b'
p150
sg21
Vpop ebx
p151
sg5
L135737603L
sg6
Nsg23
S'pop'
p152
sg25
S'0x8173103L'
p153
sg27
Nsba(ibclass
BInstr
p154
(dp155
g2
Nsg17
S'pop     ebp'
p156
sg19
S'5d'
p157
sg21
Vpop ebp
p158
sg5
L135737604L
sg6
Nsg23
S'pop'
p159
sg25
S'0x8173104L'
p160
sg27
Nsba(ibclass
BInstr
p161
(dp162
g2
Nsg17
S'retn'
p163
sg19
S'c3'
p164
sg21
Vret 
p165
sg5
L135737605L
sg6
Nsg23
S'retn'
p166
sg25
S'0x8173105L'
p167
sg27
NsbasS'disasm_list'
p168
(lp169
g22
ag32
ag39
aVsub esp, address
p170
aVmov eax, mem
p171
aVmov ecx, mem
p172
aVmov eax, mem
p173
aVmov edx, mem
p174
aVmov eax, mem
p175
aVmov eax, mem
p176
aVmov ebx, mem
p177
aVmov mem, ebx
p178
aVmov mem, ecx
p179
aVmov mem, edx
p180
aVmov mem, eax
p181
aVmov mem, address
p182
aVcall address
p183
aVadd esp, address
p184
ag151
ag158
aVret
p185
asS'end_address'
p186
Nsg5
S'0x81730c9L'
p187
sS'preds'
p188
(lp189
sg6
NsS'succs'
p190
(lp191
sS'hash_v3'
p192
NsS'flag_v2'
p193
NsS'hash_v1'
p194
S'7529aa8b1556569dbb68cdee16d725bd'
p195
sS'hash_v2'
p196
S'8c00895d5929dc8208e23f8e10a99c18'
p197
sS'mnen_list'
p198
(lp199
g24
ag33
ag40
ag47
ag54
ag61
ag68
ag75
ag82
ag89
ag96
ag103
ag110
ag117
ag124
ag131
ag138
ag145
ag152
ag159
ag166
asS'neighbour_disasm_list'
p200
Nsbasb.