(ibclass
BFunc
p0
(dp1
S'hash'
p2
NsS'name'
p3
S'X509_to_X509_REQ'
p4
sS'start_address'
p5
L135706181L
sS'flag'
p6
NsS'program'
p7
NsS'bbs'
p8
(lp9
(ibclass
BBasicBlock
p10
(dp11
S'function'
p12
NsS'binstrs'
p13
(lp14
(ibclass
BInstr
p15
(dp16
g2
NsS'disasm'
p17
S'push    ebp'
p18
sS'bytes'
p19
S'55'
p20
sS'disasm_striped'
p21
Vpush ebp
p22
sg5
L135706181L
sg6
NsS'mnem'
p23
S'push'
p24
sS'address'
p25
S'0x816b645L'
p26
sS'basicblock'
p27
Nsba(ibclass
BInstr
p28
(dp29
g2
Nsg17
S'mov     ebp, esp'
p30
sg19
S'89e5'
p31
sg21
Vmov ebp, esp
p32
sg5
L135706182L
sg6
Nsg23
S'mov'
p33
sg25
S'0x816b646L'
p34
sg27
Nsba(ibclass
BInstr
p35
(dp36
g2
Nsg17
S'push    ebx'
p37
sg19
S'53'
p38
sg21
Vpush ebx
p39
sg5
L135706184L
sg6
Nsg23
S'push'
p40
sg25
S'0x816b648L'
p41
sg27
Nsba(ibclass
BInstr
p42
(dp43
g2
Nsg17
S'sub     esp, 34h'
p44
sg19
S'83ec34'
p45
sg21
Vsub esp, 0x34
p46
sg5
L135706185L
sg6
Nsg23
S'sub'
p47
sg25
S'0x816b649L'
p48
sg27
Nsba(ibclass
BInstr
p49
(dp50
g2
Nsg17
S'call    X509_REQ_new'
p51
sg19
S'e8ae6bfeff'
p52
sg21
Vcall 0xfffe6bb3
p53
sg5
L135706188L
sg6
Nsg23
S'call'
p54
sg25
S'0x816b64cL'
p55
sg27
Nsba(ibclass
BInstr
p56
(dp57
g2
Nsg17
S'mov     [ebp+ret], eax'
p58
sg19
S'8945e8'
p59
sg21
Vmov dword ptr [ebp - 0x18], eax
p60
sg5
L135706193L
sg6
Nsg23
S'mov'
p61
sg25
S'0x816b651L'
p62
sg27
Nsba(ibclass
BInstr
p63
(dp64
g2
Nsg17
S'cmp     [ebp+ret], 0'
p65
sg19
S'837de800'
p66
sg21
Vcmp dword ptr [ebp - 0x18], 0
p67
sg5
L135706196L
sg6
Nsg23
S'cmp'
p68
sg25
S'0x816b654L'
p69
sg27
Nsba(ibclass
BInstr
p70
(dp71
g2
Nsg17
S'jnz     short loc_816B68B'
p72
sg19
S'7531'
p73
sg21
Vjne 0x33
p74
sg5
L135706200L
sg6
Nsg23
S'jnz'
p75
sg25
S'0x816b658L'
p76
sg27
NsbasS'disasm_list'
p77
(lp78
g22
ag32
ag39
aVsub esp, address
p79
aVcall address
p80
aVmov mem, eax
p81
aVcmp mem, 0
p82
aVjne address
p83
asS'end_address'
p84
Nsg5
S'0x816b645L'
p85
sS'preds'
p86
(lp87
sg6
NsS'succs'
p88
(lp89
S'0x816b65aL'
p90
aS'0x816b68bL'
p91
asS'hash_v3'
p92
NsS'flag_v2'
p93
NsS'hash_v1'
p94
S'd2b88449785b2a9286937ff59dffb355'
p95
sS'hash_v2'
p96
S'8cd6415785b83273581823156bc47617'
p97
sS'mnen_list'
p98
(lp99
g24
ag33
ag40
ag47
ag54
ag61
ag68
ag75
asS'neighbour_disasm_list'
p100
Nsba(ibclass
BBasicBlock
p101
(dp102
g12
Nsg13
(lp103
(ibclass
BInstr
p104
(dp105
g2
Nsg17
S'mov     dword ptr [esp+10h], 50h; line'
p106
sg19
S'c744241050000000'
p107
sg21
Vmov dword ptr [esp + 0x10], 0x50
p108
sg5
L135706202L
sg6
Nsg23
S'mov'
p109
sg25
S'0x816b65aL'
p110
sg27
Nsba(ibclass
BInstr
p111
(dp112
g2
Nsg17
S'mov     dword ptr [esp+0Ch], offset aX509_req_c; "x509_req.c"'
p113
sg19
S'c744240c9ad82308'
p114
sg21
Vmov dword ptr [esp + 0xc], 0x823d89a
p115
sg5
L135706210L
sg6
Nsg23
S'mov'
p116
sg25
S'0x816b662L'
p117
sg27
Nsba(ibclass
BInstr
p118
(dp119
g2
Nsg17
S'mov     dword ptr [esp+8], 41h; reason'
p120
sg19
S'c744240841000000'
p121
sg21
Vmov dword ptr [esp + 8], 0x41
p122
sg5
L135706218L
sg6
Nsg23
S'mov'
p123
sg25
S'0x816b66aL'
p124
sg27
Nsba(ibclass
BInstr
p125
(dp126
g2
Nsg17
S'mov     dword ptr [esp+4], 7Eh; func'
p127
sg19
S'c74424047e000000'
p128
sg21
Vmov dword ptr [esp + 4], 0x7e
p129
sg5
L135706226L
sg6
Nsg23
S'mov'
p130
sg25
S'0x816b672L'
p131
sg27
Nsba(ibclass
BInstr
p132
(dp133
g2
Nsg17
S'mov     dword ptr [esp], 0Bh; lib'
p134
sg19
S'c704240b000000'
p135
sg21
Vmov dword ptr [esp], 0xb
p136
sg5
L135706234L
sg6
Nsg23
S'mov'
p137
sg25
S'0x816b67aL'
p138
sg27
Nsba(ibclass
BInstr
p139
(dp140
g2
Nsg17
S'call    ERR_put_error'
p141
sg19
S'e8c205fdff'
p142
sg21
Vcall 0xfffd05c7
p143
sg5
L135706241L
sg6
Nsg23
S'call'
p144
sg25
S'0x816b681L'
p145
sg27
Nsba(ibclass
BInstr
p146
(dp147
g2
Nsg17
S'jmp     err'
p148
sg19
S'e9d7000000'
p149
sg21
Vjmp 0xdc
p150
sg5
L135706246L
sg6
Nsg23
S'jmp'
p151
sg25
S'0x816b686L'
p152
sg27
Nsbasg77
(lp153
Vmov mem, address
p154
aVmov mem, address
p155
aVmov mem, address
p156
aVmov mem, address
p157
aVmov mem, address
p158
aVcall address
p159
aVjmp address
p160
asg84
Nsg5
S'0x816b65aL'
p161
sg86
(lp162
S'0x816b645L'
p163
asg6
Nsg88
(lp164
S'0x816b762L'
p165
asg92
Nsg93
Nsg94
S'a76a0a3b827ea6cd402bf72e182d1d25'
p166
sg96
S'5c79c7459a4742ab4e6fe5fb7b7e4c8d'
p167
sg98
(lp168
g109
ag116
ag123
ag130
ag137
ag144
ag151
asg100
Nsba(ibclass
BBasicBlock
p169
(dp170
g12
Nsg13
(lp171
(ibclass
BInstr
p172
(dp173
g2
Nsg17
S'mov     eax, [ebp+ret]'
p174
sg19
S'8b45e8'
p175
sg21
Vmov eax, dword ptr [ebp - 0x18]
p176
sg5
L135706251L
sg6
Nsg23
S'mov'
p177
sg25
S'0x816b68bL'
p178
sg27
Nsba(ibclass
BInstr
p179
(dp180
g2
Nsg17
S'mov     eax, [eax]'
p181
sg19
S'8b00'
p182
sg21
Vmov eax, dword ptr [eax]
p183
sg5
L135706254L
sg6
Nsg23
S'mov'
p184
sg25
S'0x816b68eL'
p185
sg27
Nsba(ibclass
BInstr
p186
(dp187
g2
Nsg17
S'mov     [ebp+ri], eax'
p188
sg19
S'8945ec'
p189
sg21
Vmov dword ptr [ebp - 0x14], eax
p190
sg5
L135706256L
sg6
Nsg23
S'mov'
p191
sg25
S'0x816b690L'
p192
sg27
Nsba(ibclass
BInstr
p193
(dp194
g2
Nsg17
S'mov     eax, [ebp+ri]'
p195
sg19
S'8b45ec'
p196
sg21
Vmov eax, dword ptr [ebp - 0x14]
p197
sg5
L135706259L
sg6
Nsg23
S'mov'
p198
sg25
S'0x816b693L'
p199
sg27
Nsba(ibclass
BInstr
p200
(dp201
g2
Nsg17
S'mov     eax, [eax+0Ch]'
p202
sg19
S'8b400c'
p203
sg21
Vmov eax, dword ptr [eax + 0xc]
p204
sg5
L135706262L
sg6
Nsg23
S'mov'
p205
sg25
S'0x816b696L'
p206
sg27
Nsba(ibclass
BInstr
p207
(dp208
g2
Nsg17
S'mov     dword ptr [eax], 1'
p209
sg19
S'c70001000000'
p210
sg21
Vmov dword ptr [eax], 1
p211
sg5
L135706265L
sg6
Nsg23
S'mov'
p212
sg25
S'0x816b699L'
p213
sg27
Nsba(ibclass
BInstr
p214
(dp215
g2
Nsg17
S'mov     eax, [ebp+ri]'
p216
sg19
S'8b45ec'
p217
sg21
Vmov eax, dword ptr [ebp - 0x14]
p218
sg5
L135706271L
sg6
Nsg23
S'mov'
p219
sg25
S'0x816b69fL'
p220
sg27
Nsba(ibclass
BInstr
p221
(dp222
g2
Nsg17
S'mov     ebx, [eax+0Ch]'
p223
sg19
S'8b580c'
p224
sg21
Vmov ebx, dword ptr [eax + 0xc]
p225
sg5
L135706274L
sg6
Nsg23
S'mov'
p226
sg25
S'0x816b6a2L'
p227
sg27
Nsba(ibclass
BInstr
p228
(dp229
g2
Nsg17
S'mov     dword ptr [esp+8], 57h; line'
p230
sg19
S'c744240857000000'
p231
sg21
Vmov dword ptr [esp + 8], 0x57
p232
sg5
L135706277L
sg6
Nsg23
S'mov'
p233
sg25
S'0x816b6a5L'
p234
sg27
Nsba(ibclass
BInstr
p235
(dp236
g2
Nsg17
S'mov     dword ptr [esp+4], offset aX509_req_c; "x509_req.c"'
p237
sg19
S'c74424049ad82308'
p238
sg21
Vmov dword ptr [esp + 4], 0x823d89a
p239
sg5
L135706285L
sg6
Nsg23
S'mov'
p240
sg25
S'0x816b6adL'
p241
sg27
Nsba(ibclass
BInstr
p242
(dp243
g2
Nsg17
S'mov     dword ptr [esp], 1; num'
p244
sg19
S'c7042401000000'
p245
sg21
Vmov dword ptr [esp], 1
p246
sg5
L135706293L
sg6
Nsg23
S'mov'
p247
sg25
S'0x816b6b5L'
p248
sg27
Nsba(ibclass
BInstr
p249
(dp250
g2
Nsg17
S'call    CRYPTO_malloc'
p251
sg19
S'e89e95f7ff'
p252
sg21
Vcall 0xfff795a3
p253
sg5
L135706300L
sg6
Nsg23
S'call'
p254
sg25
S'0x816b6bcL'
p255
sg27
Nsba(ibclass
BInstr
p256
(dp257
g2
Nsg17
S'mov     [ebx+8], eax'
p258
sg19
S'894308'
p259
sg21
Vmov dword ptr [ebx + 8], eax
p260
sg5
L135706305L
sg6
Nsg23
S'mov'
p261
sg25
S'0x816b6c1L'
p262
sg27
Nsba(ibclass
BInstr
p263
(dp264
g2
Nsg17
S'mov     eax, [ebp+ri]'
p265
sg19
S'8b45ec'
p266
sg21
Vmov eax, dword ptr [ebp - 0x14]
p267
sg5
L135706308L
sg6
Nsg23
S'mov'
p268
sg25
S'0x816b6c4L'
p269
sg27
Nsba(ibclass
BInstr
p270
(dp271
g2
Nsg17
S'mov     eax, [eax+0Ch]'
p272
sg19
S'8b400c'
p273
sg21
Vmov eax, dword ptr [eax + 0xc]
p274
sg5
L135706311L
sg6
Nsg23
S'mov'
p275
sg25
S'0x816b6c7L'
p276
sg27
Nsba(ibclass
BInstr
p277
(dp278
g2
Nsg17
S'mov     eax, [eax+8]'
p279
sg19
S'8b4008'
p280
sg21
Vmov eax, dword ptr [eax + 8]
p281
sg5
L135706314L
sg6
Nsg23
S'mov'
p282
sg25
S'0x816b6caL'
p283
sg27
Nsba(ibclass
BInstr
p284
(dp285
g2
Nsg17
S'test    eax, eax'
p286
sg19
S'85c0'
p287
sg21
Vtest eax, eax
p288
sg5
L135706317L
sg6
Nsg23
S'test'
p289
sg25
S'0x816b6cdL'
p290
sg27
Nsba(ibclass
BInstr
p291
(dp292
g2
Nsg17
S'jnz     short loc_816B6D6'
p293
sg19
S'7505'
p294
sg21
Vjne 7
p295
sg5
L135706319L
sg6
Nsg23
S'jnz'
p296
sg25
S'0x816b6cfL'
p297
sg27
Nsbasg77
(lp298
Vmov eax, mem
p299
aVmov eax, mem
p300
aVmov mem, eax
p301
aVmov eax, mem
p302
aVmov eax, mem
p303
aVmov mem, 1
p304
aVmov eax, mem
p305
aVmov ebx, mem
p306
aVmov mem, address
p307
aVmov mem, address
p308
aVmov mem, 1
p309
aVcall address
p310
aVmov mem, eax
p311
aVmov eax, mem
p312
aVmov eax, mem
p313
aVmov eax, mem
p314
ag288
ag295
asg84
Nsg5
S'0x816b68bL'
p315
sg86
(lp316
S'0x816b645L'
p317
asg6
Nsg88
(lp318
S'0x816b6d1L'
p319
aS'0x816b6d6L'
p320
asg92
Nsg93
Nsg94
S'bce92f090a39795e58bd68a067a8d1e2'
p321
sg96
S'c4ff42352a2b91babdee6e851ba34a2a'
p322
sg98
(lp323
g177
ag184
ag191
ag198
ag205
ag212
ag219
ag226
ag233
ag240
ag247
ag254
ag261
ag268
ag275
ag282
ag289
ag296
asg100
Nsba(ibclass
BBasicBlock
p324
(dp325
g12
Nsg13
(lp326
(ibclass
BInstr
p327
(dp328
g2
Nsg17
S'jmp     err'
p329
sg19
S'e98c000000'
p330
sg21
Vjmp 0x91
p331
sg5
L135706321L
sg6
Nsg23
S'jmp'
p332
sg25
S'0x816b6d1L'
p333
sg27
Nsbasg77
(lp334
Vjmp address
p335
asg84
Nsg5
S'0x816b6d1L'
p336
sg86
(lp337
S'0x816b68bL'
p338
asg6
Nsg88
(lp339
S'0x816b762L'
p340
asg92
Nsg93
Nsg94
S'0ef6cf926f2f394b0cc8e11be8022625'
p341
sg96
S'd4372e4caa7348928655251605aa7329'
p342
sg98
(lp343
g332
asg100
Nsba(ibclass
BBasicBlock
p344
(dp345
g12
Nsg13
(lp346
(ibclass
BInstr
p347
(dp348
g2
Nsg17
S'mov     eax, [ebp+ri]'
p349
sg19
S'8b45ec'
p350
sg21
Vmov eax, dword ptr [ebp - 0x14]
p351
sg5
L135706326L
sg6
Nsg23
S'mov'
p352
sg25
S'0x816b6d6L'
p353
sg27
Nsba(ibclass
BInstr
p354
(dp355
g2
Nsg17
S'mov     eax, [eax+0Ch]'
p356
sg19
S'8b400c'
p357
sg21
Vmov eax, dword ptr [eax + 0xc]
p358
sg5
L135706329L
sg6
Nsg23
S'mov'
p359
sg25
S'0x816b6d9L'
p360
sg27
Nsba(ibclass
BInstr
p361
(dp362
g2
Nsg17
S'mov     eax, [eax+8]'
p363
sg19
S'8b4008'
p364
sg21
Vmov eax, dword ptr [eax + 8]
p365
sg5
L135706332L
sg6
Nsg23
S'mov'
p366
sg25
S'0x816b6dcL'
p367
sg27
Nsba(ibclass
BInstr
p368
(dp369
g2
Nsg17
S'mov     byte ptr [eax], 0'
p370
sg19
S'c60000'
p371
sg21
Vmov byte ptr [eax], 0
p372
sg5
L135706335L
sg6
Nsg23
S'mov'
p373
sg25
S'0x816b6dfL'
p374
sg27
Nsba(ibclass
BInstr
p375
(dp376
g2
Nsg17
S'mov     eax, [ebp+x]'
p377
sg19
S'8b4508'
p378
sg21
Vmov eax, dword ptr [ebp + 8]
p379
sg5
L135706338L
sg6
Nsg23
S'mov'
p380
sg25
S'0x816b6e2L'
p381
sg27
Nsba(ibclass
BInstr
p382
(dp383
g2
Nsg17
S'mov     [esp], eax      ; a'
p384
sg19
S'890424'
p385
sg21
Vmov dword ptr [esp], eax
p386
sg5
L135706341L
sg6
Nsg23
S'mov'
p387
sg25
S'0x816b6e5L'
p388
sg27
Nsba(ibclass
BInstr
p389
(dp390
g2
Nsg17
S'call    X509_get_subject_name'
p391
sg19
S'e8f8f3ffff'
p392
sg21
Vcall 0xfffff3fd
p393
sg5
L135706344L
sg6
Nsg23
S'call'
p394
sg25
S'0x816b6e8L'
p395
sg27
Nsba(ibclass
BInstr
p396
(dp397
g2
Nsg17
S'mov     [esp+4], eax    ; name'
p398
sg19
S'89442404'
p399
sg21
Vmov dword ptr [esp + 4], eax
p400
sg5
L135706349L
sg6
Nsg23
S'mov'
p401
sg25
S'0x816b6edL'
p402
sg27
Nsba(ibclass
BInstr
p403
(dp404
g2
Nsg17
S'mov     eax, [ebp+ret]'
p405
sg19
S'8b45e8'
p406
sg21
Vmov eax, dword ptr [ebp - 0x18]
p407
sg5
L135706353L
sg6
Nsg23
S'mov'
p408
sg25
S'0x816b6f1L'
p409
sg27
Nsba(ibclass
BInstr
p410
(dp411
g2
Nsg17
S'mov     [esp], eax      ; x'
p412
sg19
S'890424'
p413
sg21
Vmov dword ptr [esp], eax
p414
sg5
L135706356L
sg6
Nsg23
S'mov'
p415
sg25
S'0x816b6f4L'
p416
sg27
Nsba(ibclass
BInstr
p417
(dp418
g2
Nsg17
S'call    X509_REQ_set_subject_name'
p419
sg19
S'e80d460000'
p420
sg21
Vcall 0x4612
p421
sg5
L135706359L
sg6
Nsg23
S'call'
p422
sg25
S'0x816b6f7L'
p423
sg27
Nsba(ibclass
BInstr
p424
(dp425
g2
Nsg17
S'test    eax, eax'
p426
sg19
S'85c0'
p427
sg21
Vtest eax, eax
p428
sg5
L135706364L
sg6
Nsg23
S'test'
p429
sg25
S'0x816b6fcL'
p430
sg27
Nsba(ibclass
BInstr
p431
(dp432
g2
Nsg17
S'jnz     short loc_816B702'
p433
sg19
S'7502'
p434
sg21
Vjne 4
p435
sg5
L135706366L
sg6
Nsg23
S'jnz'
p436
sg25
S'0x816b6feL'
p437
sg27
Nsbasg77
(lp438
Vmov eax, mem
p439
aVmov eax, mem
p440
aVmov eax, mem
p441
aVmov mem, 0
p442
aVmov eax, mem
p443
aVmov mem, eax
p444
aVcall address
p445
aVmov mem, eax
p446
aVmov eax, mem
p447
aVmov mem, eax
p448
aVcall address
p449
ag428
ag435
asg84
Nsg5
S'0x816b6d6L'
p450
sg86
(lp451
S'0x816b68bL'
p452
asg6
Nsg88
(lp453
S'0x816b700L'
p454
aS'0x816b702L'
p455
asg92
Nsg93
Nsg94
S'821b194e5fab7ad8fbbb4fdc551906c5'
p456
sg96
S'4ea2a7da691502f7884a2b31f7dcbc9c'
p457
sg98
(lp458
g352
ag359
ag366
ag373
ag380
ag387
ag394
ag401
ag408
ag415
ag422
ag429
ag436
asg100
Nsba(ibclass
BBasicBlock
p459
(dp460
g12
Nsg13
(lp461
(ibclass
BInstr
p462
(dp463
g2
Nsg17
S'jmp     short err'
p464
sg19
S'eb60'
p465
sg21
Vjmp 0x62
p466
sg5
L135706368L
sg6
Nsg23
S'jmp'
p467
sg25
S'0x816b700L'
p468
sg27
Nsbasg77
(lp469
Vjmp address
p470
asg84
Nsg5
S'0x816b700L'
p471
sg86
(lp472
S'0x816b6d6L'
p473
asg6
Nsg88
(lp474
S'0x816b762L'
p475
asg92
Nsg93
Nsg94
S'0ef6cf926f2f394b0cc8e11be8022625'
p476
sg96
S'd4372e4caa7348928655251605aa7329'
p477
sg98
(lp478
g467
asg100
Nsba(ibclass
BBasicBlock
p479
(dp480
g12
Nsg13
(lp481
(ibclass
BInstr
p482
(dp483
g2
Nsg17
S'mov     eax, [ebp+x]'
p484
sg19
S'8b4508'
p485
sg21
Vmov eax, dword ptr [ebp + 8]
p486
sg5
L135706370L
sg6
Nsg23
S'mov'
p487
sg25
S'0x816b702L'
p488
sg27
Nsba(ibclass
BInstr
p489
(dp490
g2
Nsg17
S'mov     [esp], eax      ; x'
p491
sg19
S'890424'
p492
sg21
Vmov dword ptr [esp], eax
p493
sg5
L135706373L
sg6
Nsg23
S'mov'
p494
sg25
S'0x816b705L'
p495
sg27
Nsba(ibclass
BInstr
p496
(dp497
g2
Nsg17
S'call    X509_get_pubkey'
p498
sg19
S'e84ef8ffff'
p499
sg21
Vcall 0xfffff853
p500
sg5
L135706376L
sg6
Nsg23
S'call'
p501
sg25
S'0x816b708L'
p502
sg27
Nsba(ibclass
BInstr
p503
(dp504
g2
Nsg17
S'mov     [ebp+pktmp], eax'
p505
sg19
S'8945f0'
p506
sg21
Vmov dword ptr [ebp - 0x10], eax
p507
sg5
L135706381L
sg6
Nsg23
S'mov'
p508
sg25
S'0x816b70dL'
p509
sg27
Nsba(ibclass
BInstr
p510
(dp511
g2
Nsg17
S'mov     eax, [ebp+pktmp]'
p512
sg19
S'8b45f0'
p513
sg21
Vmov eax, dword ptr [ebp - 0x10]
p514
sg5
L135706384L
sg6
Nsg23
S'mov'
p515
sg25
S'0x816b710L'
p516
sg27
Nsba(ibclass
BInstr
p517
(dp518
g2
Nsg17
S'mov     [esp+4], eax    ; pkey'
p519
sg19
S'89442404'
p520
sg21
Vmov dword ptr [esp + 4], eax
p521
sg5
L135706387L
sg6
Nsg23
S'mov'
p522
sg25
S'0x816b713L'
p523
sg27
Nsba(ibclass
BInstr
p524
(dp525
g2
Nsg17
S'mov     eax, [ebp+ret]'
p526
sg19
S'8b45e8'
p527
sg21
Vmov eax, dword ptr [ebp - 0x18]
p528
sg5
L135706391L
sg6
Nsg23
S'mov'
p529
sg25
S'0x816b717L'
p530
sg27
Nsba(ibclass
BInstr
p531
(dp532
g2
Nsg17
S'mov     [esp], eax      ; x'
p533
sg19
S'890424'
p534
sg21
Vmov dword ptr [esp], eax
p535
sg5
L135706394L
sg6
Nsg23
S'mov'
p536
sg25
S'0x816b71aL'
p537
sg27
Nsba(ibclass
BInstr
p538
(dp539
g2
Nsg17
S'call    X509_REQ_set_pubkey'
p540
sg19
S'e81c460000'
p541
sg21
Vcall 0x4621
p542
sg5
L135706397L
sg6
Nsg23
S'call'
p543
sg25
S'0x816b71dL'
p544
sg27
Nsba(ibclass
BInstr
p545
(dp546
g2
Nsg17
S'mov     [ebp+i], eax'
p547
sg19
S'8945f4'
p548
sg21
Vmov dword ptr [ebp - 0xc], eax
p549
sg5
L135706402L
sg6
Nsg23
S'mov'
p550
sg25
S'0x816b722L'
p551
sg27
Nsba(ibclass
BInstr
p552
(dp553
g2
Nsg17
S'mov     eax, [ebp+pktmp]'
p554
sg19
S'8b45f0'
p555
sg21
Vmov eax, dword ptr [ebp - 0x10]
p556
sg5
L135706405L
sg6
Nsg23
S'mov'
p557
sg25
S'0x816b725L'
p558
sg27
Nsba(ibclass
BInstr
p559
(dp560
g2
Nsg17
S'mov     [esp], eax      ; x'
p561
sg19
S'890424'
p562
sg21
Vmov dword ptr [esp], eax
p563
sg5
L135706408L
sg6
Nsg23
S'mov'
p564
sg25
S'0x816b728L'
p565
sg27
Nsba(ibclass
BInstr
p566
(dp567
g2
Nsg17
S'call    EVP_PKEY_free'
p568
sg19
S'e80a97fdff'
p569
sg21
Vcall 0xfffd970f
p570
sg5
L135706411L
sg6
Nsg23
S'call'
p571
sg25
S'0x816b72bL'
p572
sg27
Nsba(ibclass
BInstr
p573
(dp574
g2
Nsg17
S'cmp     [ebp+i], 0'
p575
sg19
S'837df400'
p576
sg21
Vcmp dword ptr [ebp - 0xc], 0
p577
sg5
L135706416L
sg6
Nsg23
S'cmp'
p578
sg25
S'0x816b730L'
p579
sg27
Nsba(ibclass
BInstr
p580
(dp581
g2
Nsg17
S'jnz     short loc_816B738'
p582
sg19
S'7502'
p583
sg21
Vjne 4
p584
sg5
L135706420L
sg6
Nsg23
S'jnz'
p585
sg25
S'0x816b734L'
p586
sg27
Nsbasg77
(lp587
Vmov eax, mem
p588
aVmov mem, eax
p589
aVcall address
p590
aVmov mem, eax
p591
aVmov eax, mem
p592
aVmov mem, eax
p593
aVmov eax, mem
p594
aVmov mem, eax
p595
aVcall address
p596
aVmov mem, eax
p597
aVmov eax, mem
p598
aVmov mem, eax
p599
aVcall address
p600
aVcmp mem, 0
p601
ag584
asg84
Nsg5
S'0x816b702L'
p602
sg86
(lp603
S'0x816b6d6L'
p604
asg6
Nsg88
(lp605
S'0x816b736L'
p606
aS'0x816b738L'
p607
asg92
Nsg93
Nsg94
S'412c7b31603de7b28c77097391dfe24d'
p608
sg96
S'5423aae18d697e379ffc75494870abd1'
p609
sg98
(lp610
g487
ag494
ag501
ag508
ag515
ag522
ag529
ag536
ag543
ag550
ag557
ag564
ag571
ag578
ag585
asg100
Nsba(ibclass
BBasicBlock
p611
(dp612
g12
Nsg13
(lp613
(ibclass
BInstr
p614
(dp615
g2
Nsg17
S'jmp     short err'
p616
sg19
S'eb2a'
p617
sg21
Vjmp 0x2c
p618
sg5
L135706422L
sg6
Nsg23
S'jmp'
p619
sg25
S'0x816b736L'
p620
sg27
Nsbasg77
(lp621
Vjmp address
p622
asg84
Nsg5
S'0x816b736L'
p623
sg86
(lp624
S'0x816b702L'
p625
asg6
Nsg88
(lp626
S'0x816b762L'
p627
asg92
Nsg93
Nsg94
S'0ef6cf926f2f394b0cc8e11be8022625'
p628
sg96
S'd4372e4caa7348928655251605aa7329'
p629
sg98
(lp630
g619
asg100
Nsba(ibclass
BBasicBlock
p631
(dp632
g12
Nsg13
(lp633
(ibclass
BInstr
p634
(dp635
g2
Nsg17
S'cmp     [ebp+pkey], 0'
p636
sg19
S'837d0c00'
p637
sg21
Vcmp dword ptr [ebp + 0xc], 0
p638
sg5
L135706424L
sg6
Nsg23
S'cmp'
p639
sg25
S'0x816b738L'
p640
sg27
Nsba(ibclass
BInstr
p641
(dp642
g2
Nsg17
S'jz      short loc_816B75D'
p643
sg19
S'741f'
p644
sg21
Vje 0x21
p645
sg5
L135706428L
sg6
Nsg23
S'jz'
p646
sg25
S'0x816b73cL'
p647
sg27
Nsbasg77
(lp648
Vcmp mem, 0
p649
aVje address
p650
asg84
Nsg5
S'0x816b738L'
p651
sg86
(lp652
S'0x816b702L'
p653
asg6
Nsg88
(lp654
S'0x816b73eL'
p655
aS'0x816b75dL'
p656
asg92
Nsg93
Nsg94
S'613dbc2b0cb9d6264d802b24d709daea'
p657
sg96
S'bdc7ec577d63971d81398660f533a2e0'
p658
sg98
(lp659
g639
ag646
asg100
Nsba(ibclass
BBasicBlock
p660
(dp661
g12
Nsg13
(lp662
(ibclass
BInstr
p663
(dp664
g2
Nsg17
S'mov     eax, [ebp+md]'
p665
sg19
S'8b4510'
p666
sg21
Vmov eax, dword ptr [ebp + 0x10]
p667
sg5
L135706430L
sg6
Nsg23
S'mov'
p668
sg25
S'0x816b73eL'
p669
sg27
Nsba(ibclass
BInstr
p670
(dp671
g2
Nsg17
S'mov     [esp+8], eax    ; md'
p672
sg19
S'89442408'
p673
sg21
Vmov dword ptr [esp + 8], eax
p674
sg5
L135706433L
sg6
Nsg23
S'mov'
p675
sg25
S'0x816b741L'
p676
sg27
Nsba(ibclass
BInstr
p677
(dp678
g2
Nsg17
S'mov     eax, [ebp+pkey]'
p679
sg19
S'8b450c'
p680
sg21
Vmov eax, dword ptr [ebp + 0xc]
p681
sg5
L135706437L
sg6
Nsg23
S'mov'
p682
sg25
S'0x816b745L'
p683
sg27
Nsba(ibclass
BInstr
p684
(dp685
g2
Nsg17
S'mov     [esp+4], eax    ; pkey'
p686
sg19
S'89442404'
p687
sg21
Vmov dword ptr [esp + 4], eax
p688
sg5
L135706440L
sg6
Nsg23
S'mov'
p689
sg25
S'0x816b748L'
p690
sg27
Nsba(ibclass
BInstr
p691
(dp692
g2
Nsg17
S'mov     eax, [ebp+ret]'
p693
sg19
S'8b45e8'
p694
sg21
Vmov eax, dword ptr [ebp - 0x18]
p695
sg5
L135706444L
sg6
Nsg23
S'mov'
p696
sg25
S'0x816b74cL'
p697
sg27
Nsba(ibclass
BInstr
p698
(dp699
g2
Nsg17
S'mov     [esp], eax      ; x'
p700
sg19
S'890424'
p701
sg21
Vmov dword ptr [esp], eax
p702
sg5
L135706447L
sg6
Nsg23
S'mov'
p703
sg25
S'0x816b74fL'
p704
sg27
Nsba(ibclass
BInstr
p705
(dp706
g2
Nsg17
S'call    X509_REQ_sign'
p707
sg19
S'e8de7a0000'
p708
sg21
Vcall 0x7ae3
p709
sg5
L135706450L
sg6
Nsg23
S'call'
p710
sg25
S'0x816b752L'
p711
sg27
Nsba(ibclass
BInstr
p712
(dp713
g2
Nsg17
S'test    eax, eax'
p714
sg19
S'85c0'
p715
sg21
Vtest eax, eax
p716
sg5
L135706455L
sg6
Nsg23
S'test'
p717
sg25
S'0x816b757L'
p718
sg27
Nsba(ibclass
BInstr
p719
(dp720
g2
Nsg17
S'jnz     short loc_816B75D'
p721
sg19
S'7502'
p722
sg21
Vjne 4
p723
sg5
L135706457L
sg6
Nsg23
S'jnz'
p724
sg25
S'0x816b759L'
p725
sg27
Nsbasg77
(lp726
Vmov eax, mem
p727
aVmov mem, eax
p728
aVmov eax, mem
p729
aVmov mem, eax
p730
aVmov eax, mem
p731
aVmov mem, eax
p732
aVcall address
p733
ag716
ag723
asg84
Nsg5
S'0x816b73eL'
p734
sg86
(lp735
S'0x816b738L'
p736
asg6
Nsg88
(lp737
S'0x816b75bL'
p738
aS'0x816b75dL'
p739
asg92
Nsg93
Nsg94
S'379cb55b5a4edf7dd29b5971ca4e0dd7'
p740
sg96
S'19663b86dbcbd6d497528dc9e395cde8'
p741
sg98
(lp742
g668
ag675
ag682
ag689
ag696
ag703
ag710
ag717
ag724
asg100
Nsba(ibclass
BBasicBlock
p743
(dp744
g12
Nsg13
(lp745
(ibclass
BInstr
p746
(dp747
g2
Nsg17
S'jmp     short err'
p748
sg19
S'eb05'
p749
sg21
Vjmp 7
p750
sg5
L135706459L
sg6
Nsg23
S'jmp'
p751
sg25
S'0x816b75bL'
p752
sg27
Nsbasg77
(lp753
g750
asg84
Nsg5
S'0x816b75bL'
p754
sg86
(lp755
S'0x816b73eL'
p756
asg6
Nsg88
(lp757
S'0x816b762L'
p758
asg92
Nsg93
Nsg94
S'0ef6cf926f2f394b0cc8e11be8022625'
p759
sg96
S'438a6bd8676aa79a9fdfae111ab77250'
p760
sg98
(lp761
g751
asg100
Nsba(ibclass
BBasicBlock
p762
(dp763
g12
Nsg13
(lp764
(ibclass
BInstr
p765
(dp766
g2
Nsg17
S'mov     eax, [ebp+ret]'
p767
sg19
S'8b45e8'
p768
sg21
Vmov eax, dword ptr [ebp - 0x18]
p769
sg5
L135706461L
sg6
Nsg23
S'mov'
p770
sg25
S'0x816b75dL'
p771
sg27
Nsba(ibclass
BInstr
p772
(dp773
g2
Nsg17
S'jmp     short loc_816B772'
p774
sg19
S'eb10'
p775
sg21
Vjmp 0x12
p776
sg5
L135706464L
sg6
Nsg23
S'jmp'
p777
sg25
S'0x816b760L'
p778
sg27
Nsbasg77
(lp779
Vmov eax, mem
p780
aVjmp address
p781
asg84
Nsg5
S'0x816b75dL'
p782
sg86
(lp783
S'0x816b738L'
p784
aS'0x816b73eL'
p785
asg6
Nsg88
(lp786
S'0x816b772L'
p787
asg92
Nsg93
Nsg94
S'8b9a0d40e062be2b9b2d9885108fb196'
p788
sg96
S'5a5b261ba52a671a369af6372509eb2f'
p789
sg98
(lp790
g770
ag777
asg100
Nsba(ibclass
BBasicBlock
p791
(dp792
g12
Nsg13
(lp793
(ibclass
BInstr
p794
(dp795
g2
Nsg17
S'mov     eax, [ebp+ret]'
p796
sg19
S'8b45e8'
p797
sg21
Vmov eax, dword ptr [ebp - 0x18]
p798
sg5
L135706466L
sg6
Nsg23
S'mov'
p799
sg25
S'0x816b762L'
p800
sg27
Nsba(ibclass
BInstr
p801
(dp802
g2
Nsg17
S'mov     [esp], eax      ; a'
p803
sg19
S'890424'
p804
sg21
Vmov dword ptr [esp], eax
p805
sg5
L135706469L
sg6
Nsg23
S'mov'
p806
sg25
S'0x816b765L'
p807
sg27
Nsba(ibclass
BInstr
p808
(dp809
g2
Nsg17
S'call    X509_REQ_free'
p810
sg19
S'e8a66afeff'
p811
sg21
Vcall 0xfffe6aab
p812
sg5
L135706472L
sg6
Nsg23
S'call'
p813
sg25
S'0x816b768L'
p814
sg27
Nsba(ibclass
BInstr
p815
(dp816
g2
Nsg17
S'mov     eax, 0'
p817
sg19
S'b800000000'
p818
sg21
Vmov eax, 0
p819
sg5
L135706477L
sg6
Nsg23
S'mov'
p820
sg25
S'0x816b76dL'
p821
sg27
Nsbasg77
(lp822
Vmov eax, mem
p823
aVmov mem, eax
p824
aVcall address
p825
ag819
asg84
Nsg5
S'0x816b762L'
p826
sg86
(lp827
S'0x816b65aL'
p828
aS'0x816b6d1L'
p829
aS'0x816b700L'
p830
aS'0x816b736L'
p831
aS'0x816b75bL'
p832
asg6
Nsg88
(lp833
S'0x816b772L'
p834
asg92
Nsg93
Nsg94
S'a6abb5d9994936d83c79ed1f9957ba18'
p835
sg96
S'7e9aaa9eea49cef865e7d8e93de6f187'
p836
sg98
(lp837
g799
ag806
ag813
ag820
asg100
Nsba(ibclass
BBasicBlock
p838
(dp839
g12
Nsg13
(lp840
(ibclass
BInstr
p841
(dp842
g2
Nsg17
S'add     esp, 34h'
p843
sg19
S'83c434'
p844
sg21
Vadd esp, 0x34
p845
sg5
L135706482L
sg6
Nsg23
S'add'
p846
sg25
S'0x816b772L'
p847
sg27
Nsba(ibclass
BInstr
p848
(dp849
g2
Nsg17
S'pop     ebx'
p850
sg19
S'5b'
p851
sg21
Vpop ebx
p852
sg5
L135706485L
sg6
Nsg23
S'pop'
p853
sg25
S'0x816b775L'
p854
sg27
Nsba(ibclass
BInstr
p855
(dp856
g2
Nsg17
S'pop     ebp'
p857
sg19
S'5d'
p858
sg21
Vpop ebp
p859
sg5
L135706486L
sg6
Nsg23
S'pop'
p860
sg25
S'0x816b776L'
p861
sg27
Nsba(ibclass
BInstr
p862
(dp863
g2
Nsg17
S'retn'
p864
sg19
S'c3'
p865
sg21
Vret 
p866
sg5
L135706487L
sg6
Nsg23
S'retn'
p867
sg25
S'0x816b777L'
p868
sg27
Nsbasg77
(lp869
Vadd esp, address
p870
ag852
ag859
aVret
p871
asg84
Nsg5
S'0x816b772L'
p872
sg86
(lp873
S'0x816b75dL'
p874
aS'0x816b762L'
p875
asg6
Nsg88
(lp876
sg92
Nsg93
Nsg94
S'4d1981a678d0c70281d5161c3174b44c'
p877
sg96
S'd4189a9002395f50ce2cc84f459d3b62'
p878
sg98
(lp879
g846
ag853
ag860
ag867
asg100
Nsbasb.