(ibclass
BFunc
p0
(dp1
S'hash'
p2
NsS'name'
p3
S'ssl3_take_mac'
p4
sS'start_address'
p5
L134965482L
sS'flag'
p6
NsS'program'
p7
NsS'bbs'
p8
(lp9
(ibclass
BBasicBlock
p10
(dp11
S'function'
p12
NsS'binstrs'
p13
(lp14
(ibclass
BInstr
p15
(dp16
g2
NsS'disasm'
p17
S'push    ebp'
p18
sS'bytes'
p19
S'55'
p20
sS'disasm_striped'
p21
Vpush ebp
p22
sg5
L134965482L
sg6
NsS'mnem'
p23
S'push'
p24
sS'address'
p25
S'0x80b68eaL'
p26
sS'basicblock'
p27
Nsba(ibclass
BInstr
p28
(dp29
g2
Nsg17
S'mov     ebp, esp'
p30
sg19
S'89e5'
p31
sg21
Vmov ebp, esp
p32
sg5
L134965483L
sg6
Nsg23
S'mov'
p33
sg25
S'0x80b68ebL'
p34
sg27
Nsba(ibclass
BInstr
p35
(dp36
g2
Nsg17
S'push    ebx'
p37
sg19
S'53'
p38
sg21
Vpush ebx
p39
sg5
L134965485L
sg6
Nsg23
S'push'
p40
sg25
S'0x80b68edL'
p41
sg27
Nsba(ibclass
BInstr
p42
(dp43
g2
Nsg17
S'sub     esp, 24h'
p44
sg19
S'83ec24'
p45
sg21
Vsub esp, 0x24
p46
sg5
L134965486L
sg6
Nsg23
S'sub'
p47
sg25
S'0x80b68eeL'
p48
sg27
Nsba(ibclass
BInstr
p49
(dp50
g2
Nsg17
S'mov     eax, [ebp+s]'
p51
sg19
S'8b4508'
p52
sg21
Vmov eax, dword ptr [ebp + 8]
p53
sg5
L134965489L
sg6
Nsg23
S'mov'
p54
sg25
S'0x80b68f1L'
p55
sg27
Nsba(ibclass
BInstr
p56
(dp57
g2
Nsg17
S'mov     eax, [eax+58h]'
p58
sg19
S'8b4058'
p59
sg21
Vmov eax, dword ptr [eax + 0x58]
p60
sg5
L134965492L
sg6
Nsg23
S'mov'
p61
sg25
S'0x80b68f4L'
p62
sg27
Nsba(ibclass
BInstr
p63
(dp64
g2
Nsg17
S'mov     eax, [eax+344h]'
p65
sg19
S'8b8044030000'
p66
sg21
Vmov eax, dword ptr [eax + 0x344]
p67
sg5
L134965495L
sg6
Nsg23
S'mov'
p68
sg25
S'0x80b68f7L'
p69
sg27
Nsba(ibclass
BInstr
p70
(dp71
g2
Nsg17
S'test    eax, eax'
p72
sg19
S'85c0'
p73
sg21
Vtest eax, eax
p74
sg5
L134965501L
sg6
Nsg23
S'test'
p75
sg25
S'0x80b68fdL'
p76
sg27
Nsba(ibclass
BInstr
p77
(dp78
g2
Nsg17
S'jnz     short loc_80B6906'
p79
sg19
S'7505'
p80
sg21
Vjne 7
p81
sg5
L134965503L
sg6
Nsg23
S'jnz'
p82
sg25
S'0x80b68ffL'
p83
sg27
NsbasS'disasm_list'
p84
(lp85
g22
ag32
ag39
aVsub esp, address
p86
aVmov eax, mem
p87
aVmov eax, mem
p88
aVmov eax, mem
p89
ag74
ag81
asS'end_address'
p90
Nsg5
S'0x80b68eaL'
p91
sS'preds'
p92
(lp93
sg6
NsS'succs'
p94
(lp95
S'0x80b6901L'
p96
aS'0x80b6906L'
p97
asS'hash_v3'
p98
NsS'flag_v2'
p99
NsS'hash_v1'
p100
S'622fe043c71fd567901f45d500088b86'
p101
sS'hash_v2'
p102
S'265b7d9616dee8bf940905ae93783f03'
p103
sS'mnen_list'
p104
(lp105
g24
ag33
ag40
ag47
ag54
ag61
ag68
ag75
ag82
asS'neighbour_disasm_list'
p106
Nsba(ibclass
BBasicBlock
p107
(dp108
g12
Nsg13
(lp109
(ibclass
BInstr
p110
(dp111
g2
Nsg17
S'jmp     loc_80B6991'
p112
sg19
S'e98b000000'
p113
sg21
Vjmp 0x90
p114
sg5
L134965505L
sg6
Nsg23
S'jmp'
p115
sg25
S'0x80b6901L'
p116
sg27
Nsbasg84
(lp117
Vjmp address
p118
asg90
Nsg5
S'0x80b6901L'
p119
sg92
(lp120
S'0x80b68eaL'
p121
asg6
Nsg94
(lp122
S'0x80b6991L'
p123
asg98
Nsg99
Nsg100
S'0ef6cf926f2f394b0cc8e11be8022625'
p124
sg102
S'd4372e4caa7348928655251605aa7329'
p125
sg104
(lp126
g115
asg106
Nsba(ibclass
BBasicBlock
p127
(dp128
g12
Nsg13
(lp129
(ibclass
BInstr
p130
(dp131
g2
Nsg17
S'mov     eax, [ebp+s]'
p132
sg19
S'8b4508'
p133
sg21
Vmov eax, dword ptr [ebp + 8]
p134
sg5
L134965510L
sg6
Nsg23
S'mov'
p135
sg25
S'0x80b6906L'
p136
sg27
Nsba(ibclass
BInstr
p137
(dp138
g2
Nsg17
S'mov     eax, [eax+34h]'
p139
sg19
S'8b4034'
p140
sg21
Vmov eax, dword ptr [eax + 0x34]
p141
sg5
L134965513L
sg6
Nsg23
S'mov'
p142
sg25
S'0x80b6909L'
p143
sg27
Nsba(ibclass
BInstr
p144
(dp145
g2
Nsg17
S'and     eax, 1000h'
p146
sg19
S'2500100000'
p147
sg21
Vand eax, 0x1000
p148
sg5
L134965516L
sg6
Nsg23
S'and'
p149
sg25
S'0x80b690cL'
p150
sg27
Nsba(ibclass
BInstr
p151
(dp152
g2
Nsg17
S'test    eax, eax'
p153
sg19
S'85c0'
p154
sg21
Vtest eax, eax
p155
sg5
L134965521L
sg6
Nsg23
S'test'
p156
sg25
S'0x80b6911L'
p157
sg27
Nsba(ibclass
BInstr
p158
(dp159
g2
Nsg17
S'jz      short loc_80B6935'
p160
sg19
S'7420'
p161
sg21
Vje 0x22
p162
sg5
L134965523L
sg6
Nsg23
S'jz'
p163
sg25
S'0x80b6913L'
p164
sg27
Nsbasg84
(lp165
Vmov eax, mem
p166
aVmov eax, mem
p167
aVand eax, address
p168
ag155
aVje address
p169
asg90
Nsg5
S'0x80b6906L'
p170
sg92
(lp171
S'0x80b68eaL'
p172
asg6
Nsg94
(lp173
S'0x80b6915L'
p174
aS'0x80b6935L'
p175
asg98
Nsg99
Nsg100
S'f7f1722576cc4fe08ef64a8368f11a63'
p176
sg102
S'8fd3a6adf2b34ad87f5d77c66faefd0e'
p177
sg104
(lp178
g135
ag142
ag149
ag156
ag163
asg106
Nsba(ibclass
BBasicBlock
p179
(dp180
g12
Nsg13
(lp181
(ibclass
BInstr
p182
(dp183
g2
Nsg17
S'mov     eax, [ebp+s]'
p184
sg19
S'8b4508'
p185
sg21
Vmov eax, dword ptr [ebp + 8]
p186
sg5
L134965525L
sg6
Nsg23
S'mov'
p187
sg25
S'0x80b6915L'
p188
sg27
Nsba(ibclass
BInstr
p189
(dp190
g2
Nsg17
S'mov     eax, [eax+8]'
p191
sg19
S'8b4008'
p192
sg21
Vmov eax, dword ptr [eax + 8]
p193
sg5
L134965528L
sg6
Nsg23
S'mov'
p194
sg25
S'0x80b6918L'
p195
sg27
Nsba(ibclass
BInstr
p196
(dp197
g2
Nsg17
S'mov     eax, [eax+64h]'
p198
sg19
S'8b4064'
p199
sg21
Vmov eax, dword ptr [eax + 0x64]
p200
sg5
L134965531L
sg6
Nsg23
S'mov'
p201
sg25
S'0x80b691bL'
p202
sg27
Nsba(ibclass
BInstr
p203
(dp204
g2
Nsg17
S'mov     eax, [eax+28h]'
p205
sg19
S'8b4028'
p206
sg21
Vmov eax, dword ptr [eax + 0x28]
p207
sg5
L134965534L
sg6
Nsg23
S'mov'
p208
sg25
S'0x80b691eL'
p209
sg27
Nsba(ibclass
BInstr
p210
(dp211
g2
Nsg17
S'mov     [ebp+sender], eax'
p212
sg19
S'8945f0'
p213
sg21
Vmov dword ptr [ebp - 0x10], eax
p214
sg5
L134965537L
sg6
Nsg23
S'mov'
p215
sg25
S'0x80b6921L'
p216
sg27
Nsba(ibclass
BInstr
p217
(dp218
g2
Nsg17
S'mov     eax, [ebp+s]'
p219
sg19
S'8b4508'
p220
sg21
Vmov eax, dword ptr [ebp + 8]
p221
sg5
L134965540L
sg6
Nsg23
S'mov'
p222
sg25
S'0x80b6924L'
p223
sg27
Nsba(ibclass
BInstr
p224
(dp225
g2
Nsg17
S'mov     eax, [eax+8]'
p226
sg19
S'8b4008'
p227
sg21
Vmov eax, dword ptr [eax + 8]
p228
sg5
L134965543L
sg6
Nsg23
S'mov'
p229
sg25
S'0x80b6927L'
p230
sg27
Nsba(ibclass
BInstr
p231
(dp232
g2
Nsg17
S'mov     eax, [eax+64h]'
p233
sg19
S'8b4064'
p234
sg21
Vmov eax, dword ptr [eax + 0x64]
p235
sg5
L134965546L
sg6
Nsg23
S'mov'
p236
sg25
S'0x80b692aL'
p237
sg27
Nsba(ibclass
BInstr
p238
(dp239
g2
Nsg17
S'mov     eax, [eax+2Ch]'
p240
sg19
S'8b402c'
p241
sg21
Vmov eax, dword ptr [eax + 0x2c]
p242
sg5
L134965549L
sg6
Nsg23
S'mov'
p243
sg25
S'0x80b692dL'
p244
sg27
Nsba(ibclass
BInstr
p245
(dp246
g2
Nsg17
S'mov     [ebp+slen], eax'
p247
sg19
S'8945f4'
p248
sg21
Vmov dword ptr [ebp - 0xc], eax
p249
sg5
L134965552L
sg6
Nsg23
S'mov'
p250
sg25
S'0x80b6930L'
p251
sg27
Nsba(ibclass
BInstr
p252
(dp253
g2
Nsg17
S'jmp     short loc_80B6953'
p254
sg19
S'eb1e'
p255
sg21
Vjmp 0x20
p256
sg5
L134965555L
sg6
Nsg23
S'jmp'
p257
sg25
S'0x80b6933L'
p258
sg27
Nsbasg84
(lp259
Vmov eax, mem
p260
aVmov eax, mem
p261
aVmov eax, mem
p262
aVmov eax, mem
p263
aVmov mem, eax
p264
aVmov eax, mem
p265
aVmov eax, mem
p266
aVmov eax, mem
p267
aVmov eax, mem
p268
aVmov mem, eax
p269
aVjmp address
p270
asg90
Nsg5
S'0x80b6915L'
p271
sg92
(lp272
S'0x80b6906L'
p273
asg6
Nsg94
(lp274
S'0x80b6953L'
p275
asg98
Nsg99
Nsg100
S'2e1dad1a3974a4b405a0d2cc307624cc'
p276
sg102
S'ee27c0699c384f98ab1eebd36a02b3d0'
p277
sg104
(lp278
g187
ag194
ag201
ag208
ag215
ag222
ag229
ag236
ag243
ag250
ag257
asg106
Nsba(ibclass
BBasicBlock
p279
(dp280
g12
Nsg13
(lp281
(ibclass
BInstr
p282
(dp283
g2
Nsg17
S'mov     eax, [ebp+s]'
p284
sg19
S'8b4508'
p285
sg21
Vmov eax, dword ptr [ebp + 8]
p286
sg5
L134965557L
sg6
Nsg23
S'mov'
p287
sg25
S'0x80b6935L'
p288
sg27
Nsba(ibclass
BInstr
p289
(dp290
g2
Nsg17
S'mov     eax, [eax+8]'
p291
sg19
S'8b4008'
p292
sg21
Vmov eax, dword ptr [eax + 8]
p293
sg5
L134965560L
sg6
Nsg23
S'mov'
p294
sg25
S'0x80b6938L'
p295
sg27
Nsba(ibclass
BInstr
p296
(dp297
g2
Nsg17
S'mov     eax, [eax+64h]'
p298
sg19
S'8b4064'
p299
sg21
Vmov eax, dword ptr [eax + 0x64]
p300
sg5
L134965563L
sg6
Nsg23
S'mov'
p301
sg25
S'0x80b693bL'
p302
sg27
Nsba(ibclass
BInstr
p303
(dp304
g2
Nsg17
S'mov     eax, [eax+20h]'
p305
sg19
S'8b4020'
p306
sg21
Vmov eax, dword ptr [eax + 0x20]
p307
sg5
L134965566L
sg6
Nsg23
S'mov'
p308
sg25
S'0x80b693eL'
p309
sg27
Nsba(ibclass
BInstr
p310
(dp311
g2
Nsg17
S'mov     [ebp+sender], eax'
p312
sg19
S'8945f0'
p313
sg21
Vmov dword ptr [ebp - 0x10], eax
p314
sg5
L134965569L
sg6
Nsg23
S'mov'
p315
sg25
S'0x80b6941L'
p316
sg27
Nsba(ibclass
BInstr
p317
(dp318
g2
Nsg17
S'mov     eax, [ebp+s]'
p319
sg19
S'8b4508'
p320
sg21
Vmov eax, dword ptr [ebp + 8]
p321
sg5
L134965572L
sg6
Nsg23
S'mov'
p322
sg25
S'0x80b6944L'
p323
sg27
Nsba(ibclass
BInstr
p324
(dp325
g2
Nsg17
S'mov     eax, [eax+8]'
p326
sg19
S'8b4008'
p327
sg21
Vmov eax, dword ptr [eax + 8]
p328
sg5
L134965575L
sg6
Nsg23
S'mov'
p329
sg25
S'0x80b6947L'
p330
sg27
Nsba(ibclass
BInstr
p331
(dp332
g2
Nsg17
S'mov     eax, [eax+64h]'
p333
sg19
S'8b4064'
p334
sg21
Vmov eax, dword ptr [eax + 0x64]
p335
sg5
L134965578L
sg6
Nsg23
S'mov'
p336
sg25
S'0x80b694aL'
p337
sg27
Nsba(ibclass
BInstr
p338
(dp339
g2
Nsg17
S'mov     eax, [eax+24h]'
p340
sg19
S'8b4024'
p341
sg21
Vmov eax, dword ptr [eax + 0x24]
p342
sg5
L134965581L
sg6
Nsg23
S'mov'
p343
sg25
S'0x80b694dL'
p344
sg27
Nsba(ibclass
BInstr
p345
(dp346
g2
Nsg17
S'mov     [ebp+slen], eax'
p347
sg19
S'8945f4'
p348
sg21
Vmov dword ptr [ebp - 0xc], eax
p349
sg5
L134965584L
sg6
Nsg23
S'mov'
p350
sg25
S'0x80b6950L'
p351
sg27
Nsbasg84
(lp352
Vmov eax, mem
p353
aVmov eax, mem
p354
aVmov eax, mem
p355
aVmov eax, mem
p356
aVmov mem, eax
p357
aVmov eax, mem
p358
aVmov eax, mem
p359
aVmov eax, mem
p360
aVmov eax, mem
p361
aVmov mem, eax
p362
asg90
Nsg5
S'0x80b6935L'
p363
sg92
(lp364
S'0x80b6906L'
p365
asg6
Nsg94
(lp366
S'0x80b6953L'
p367
asg98
Nsg99
Nsg100
S'9a4e4ba396addcdcf3383ab71d400961'
p368
sg102
S'94c835b128aacce5aec312e74bd4e594'
p369
sg104
(lp370
g287
ag294
ag301
ag308
ag315
ag322
ag329
ag336
ag343
ag350
asg106
Nsba(ibclass
BBasicBlock
p371
(dp372
g12
Nsg13
(lp373
(ibclass
BInstr
p374
(dp375
g2
Nsg17
S'mov     eax, [ebp+s]'
p376
sg19
S'8b4508'
p377
sg21
Vmov eax, dword ptr [ebp + 8]
p378
sg5
L134965587L
sg6
Nsg23
S'mov'
p379
sg25
S'0x80b6953L'
p380
sg27
Nsba(ibclass
BInstr
p381
(dp382
g2
Nsg17
S'mov     ebx, [eax+58h]'
p383
sg19
S'8b5858'
p384
sg21
Vmov ebx, dword ptr [eax + 0x58]
p385
sg5
L134965590L
sg6
Nsg23
S'mov'
p386
sg25
S'0x80b6956L'
p387
sg27
Nsba(ibclass
BInstr
p388
(dp389
g2
Nsg17
S'mov     eax, [ebp+s]'
p390
sg19
S'8b4508'
p391
sg21
Vmov eax, dword ptr [ebp + 8]
p392
sg5
L134965593L
sg6
Nsg23
S'mov'
p393
sg25
S'0x80b6959L'
p394
sg27
Nsba(ibclass
BInstr
p395
(dp396
g2
Nsg17
S'mov     eax, [eax+8]'
p397
sg19
S'8b4008'
p398
sg21
Vmov eax, dword ptr [eax + 8]
p399
sg5
L134965596L
sg6
Nsg23
S'mov'
p400
sg25
S'0x80b695cL'
p401
sg27
Nsba(ibclass
BInstr
p402
(dp403
g2
Nsg17
S'mov     eax, [eax+64h]'
p404
sg19
S'8b4064'
p405
sg21
Vmov eax, dword ptr [eax + 0x64]
p406
sg5
L134965599L
sg6
Nsg23
S'mov'
p407
sg25
S'0x80b695fL'
p408
sg27
Nsba(ibclass
BInstr
p409
(dp410
g2
Nsg17
S'mov     eax, [eax+14h]'
p411
sg19
S'8b4014'
p412
sg21
Vmov eax, dword ptr [eax + 0x14]
p413
sg5
L134965602L
sg6
Nsg23
S'mov'
p414
sg25
S'0x80b6962L'
p415
sg27
Nsba(ibclass
BInstr
p416
(dp417
g2
Nsg17
S'mov     edx, [ebp+s]'
p418
sg19
S'8b5508'
p419
sg21
Vmov edx, dword ptr [ebp + 8]
p420
sg5
L134965605L
sg6
Nsg23
S'mov'
p421
sg25
S'0x80b6965L'
p422
sg27
Nsba(ibclass
BInstr
p423
(dp424
g2
Nsg17
S'mov     edx, [edx+58h]'
p425
sg19
S'8b5258'
p426
sg21
Vmov edx, dword ptr [edx + 0x58]
p427
sg5
L134965608L
sg6
Nsg23
S'mov'
p428
sg25
S'0x80b6968L'
p429
sg27
Nsba(ibclass
BInstr
p430
(dp431
g2
Nsg17
S'add     edx, 2B8h'
p432
sg19
S'81c2b8020000'
p433
sg21
Vadd edx, 0x2b8
p434
sg5
L134965611L
sg6
Nsg23
S'add'
p435
sg25
S'0x80b696bL'
p436
sg27
Nsba(ibclass
BInstr
p437
(dp438
g2
Nsg17
S'mov     [esp+0Ch], edx'
p439
sg19
S'8954240c'
p440
sg21
Vmov dword ptr [esp + 0xc], edx
p441
sg5
L134965617L
sg6
Nsg23
S'mov'
p442
sg25
S'0x80b6971L'
p443
sg27
Nsba(ibclass
BInstr
p444
(dp445
g2
Nsg17
S'mov     edx, [ebp+slen]'
p446
sg19
S'8b55f4'
p447
sg21
Vmov edx, dword ptr [ebp - 0xc]
p448
sg5
L134965621L
sg6
Nsg23
S'mov'
p449
sg25
S'0x80b6975L'
p450
sg27
Nsba(ibclass
BInstr
p451
(dp452
g2
Nsg17
S'mov     [esp+8], edx'
p453
sg19
S'89542408'
p454
sg21
Vmov dword ptr [esp + 8], edx
p455
sg5
L134965624L
sg6
Nsg23
S'mov'
p456
sg25
S'0x80b6978L'
p457
sg27
Nsba(ibclass
BInstr
p458
(dp459
g2
Nsg17
S'mov     edx, [ebp+sender]'
p460
sg19
S'8b55f0'
p461
sg21
Vmov edx, dword ptr [ebp - 0x10]
p462
sg5
L134965628L
sg6
Nsg23
S'mov'
p463
sg25
S'0x80b697cL'
p464
sg27
Nsba(ibclass
BInstr
p465
(dp466
g2
Nsg17
S'mov     [esp+4], edx'
p467
sg19
S'89542404'
p468
sg21
Vmov dword ptr [esp + 4], edx
p469
sg5
L134965631L
sg6
Nsg23
S'mov'
p470
sg25
S'0x80b697fL'
p471
sg27
Nsba(ibclass
BInstr
p472
(dp473
g2
Nsg17
S'mov     edx, [ebp+s]'
p474
sg19
S'8b5508'
p475
sg21
Vmov edx, dword ptr [ebp + 8]
p476
sg5
L134965635L
sg6
Nsg23
S'mov'
p477
sg25
S'0x80b6983L'
p478
sg27
Nsba(ibclass
BInstr
p479
(dp480
g2
Nsg17
S'mov     [esp], edx'
p481
sg19
S'891424'
p482
sg21
Vmov dword ptr [esp], edx
p483
sg5
L134965638L
sg6
Nsg23
S'mov'
p484
sg25
S'0x80b6986L'
p485
sg27
Nsba(ibclass
BInstr
p486
(dp487
g2
Nsg17
S'call    eax'
p488
sg19
S'ffd0'
p489
sg21
Vcall eax
p490
sg5
L134965641L
sg6
Nsg23
S'call'
p491
sg25
S'0x80b6989L'
p492
sg27
Nsba(ibclass
BInstr
p493
(dp494
g2
Nsg17
S'mov     [ebx+338h], eax'
p495
sg19
S'898338030000'
p496
sg21
Vmov dword ptr [ebx + 0x338], eax
p497
sg5
L134965643L
sg6
Nsg23
S'mov'
p498
sg25
S'0x80b698bL'
p499
sg27
Nsbasg84
(lp500
Vmov eax, mem
p501
aVmov ebx, mem
p502
aVmov eax, mem
p503
aVmov eax, mem
p504
aVmov eax, mem
p505
aVmov eax, mem
p506
aVmov edx, mem
p507
aVmov edx, mem
p508
aVadd edx, address
p509
aVmov mem, edx
p510
aVmov edx, mem
p511
aVmov mem, edx
p512
aVmov edx, mem
p513
aVmov mem, edx
p514
aVmov edx, mem
p515
aVmov mem, edx
p516
ag490
aVmov mem, eax
p517
asg90
Nsg5
S'0x80b6953L'
p518
sg92
(lp519
S'0x80b6915L'
p520
aS'0x80b6935L'
p521
asg6
Nsg94
(lp522
S'0x80b6991L'
p523
asg98
Nsg99
Nsg100
S'56b5afc5e55eb3cbd84b4c9d40d27d7a'
p524
sg102
S'95b6af2a78b12869beed1ca28b6cc702'
p525
sg104
(lp526
g379
ag386
ag393
ag400
ag407
ag414
ag421
ag428
ag435
ag442
ag449
ag456
ag463
ag470
ag477
ag484
ag491
ag498
asg106
Nsba(ibclass
BBasicBlock
p527
(dp528
g12
Nsg13
(lp529
(ibclass
BInstr
p530
(dp531
g2
Nsg17
S'add     esp, 24h'
p532
sg19
S'83c424'
p533
sg21
Vadd esp, 0x24
p534
sg5
L134965649L
sg6
Nsg23
S'add'
p535
sg25
S'0x80b6991L'
p536
sg27
Nsba(ibclass
BInstr
p537
(dp538
g2
Nsg17
S'pop     ebx'
p539
sg19
S'5b'
p540
sg21
Vpop ebx
p541
sg5
L134965652L
sg6
Nsg23
S'pop'
p542
sg25
S'0x80b6994L'
p543
sg27
Nsba(ibclass
BInstr
p544
(dp545
g2
Nsg17
S'pop     ebp'
p546
sg19
S'5d'
p547
sg21
Vpop ebp
p548
sg5
L134965653L
sg6
Nsg23
S'pop'
p549
sg25
S'0x80b6995L'
p550
sg27
Nsba(ibclass
BInstr
p551
(dp552
g2
Nsg17
S'retn'
p553
sg19
S'c3'
p554
sg21
Vret 
p555
sg5
L134965654L
sg6
Nsg23
S'retn'
p556
sg25
S'0x80b6996L'
p557
sg27
Nsbasg84
(lp558
Vadd esp, address
p559
ag541
ag548
aVret
p560
asg90
Nsg5
S'0x80b6991L'
p561
sg92
(lp562
S'0x80b6901L'
p563
aS'0x80b6953L'
p564
asg6
Nsg94
(lp565
sg98
Nsg99
Nsg100
S'4d1981a678d0c70281d5161c3174b44c'
p566
sg102
S'd4189a9002395f50ce2cc84f459d3b62'
p567
sg104
(lp568
g535
ag542
ag549
ag556
asg106
Nsbasb.