(ibclass
BFunc
p0
(dp1
S'hash'
p2
NsS'name'
p3
S'dtls1_hm_fragment_free'
p4
sS'start_address'
p5
L135057916L
sS'flag'
p6
NsS'program'
p7
NsS'bbs'
p8
(lp9
(ibclass
BBasicBlock
p10
(dp11
S'function'
p12
NsS'binstrs'
p13
(lp14
(ibclass
BInstr
p15
(dp16
g2
NsS'disasm'
p17
S'push    ebp'
p18
sS'bytes'
p19
S'55'
p20
sS'disasm_striped'
p21
Vpush ebp
p22
sg5
L135057916L
sg6
NsS'mnem'
p23
S'push'
p24
sS'address'
p25
S'0x80cd1fcL'
p26
sS'basicblock'
p27
Nsba(ibclass
BInstr
p28
(dp29
g2
Nsg17
S'mov     ebp, esp'
p30
sg19
S'89e5'
p31
sg21
Vmov ebp, esp
p32
sg5
L135057917L
sg6
Nsg23
S'mov'
p33
sg25
S'0x80cd1fdL'
p34
sg27
Nsba(ibclass
BInstr
p35
(dp36
g2
Nsg17
S'sub     esp, 18h'
p37
sg19
S'83ec18'
p38
sg21
Vsub esp, 0x18
p39
sg5
L135057919L
sg6
Nsg23
S'sub'
p40
sg25
S'0x80cd1ffL'
p41
sg27
Nsba(ibclass
BInstr
p42
(dp43
g2
Nsg17
S'mov     eax, [ebp+frag]'
p44
sg19
S'8b4508'
p45
sg21
Vmov eax, dword ptr [ebp + 8]
p46
sg5
L135057922L
sg6
Nsg23
S'mov'
p47
sg25
S'0x80cd202L'
p48
sg27
Nsba(ibclass
BInstr
p49
(dp50
g2
Nsg17
S'mov     eax, [eax+14h]'
p51
sg19
S'8b4014'
p52
sg21
Vmov eax, dword ptr [eax + 0x14]
p53
sg5
L135057925L
sg6
Nsg23
S'mov'
p54
sg25
S'0x80cd205L'
p55
sg27
Nsba(ibclass
BInstr
p56
(dp57
g2
Nsg17
S'test    eax, eax'
p58
sg19
S'85c0'
p59
sg21
Vtest eax, eax
p60
sg5
L135057928L
sg6
Nsg23
S'test'
p61
sg25
S'0x80cd208L'
p62
sg27
Nsba(ibclass
BInstr
p63
(dp64
g2
Nsg17
S'jz      short loc_80CD228'
p65
sg19
S'741c'
p66
sg21
Vje 0x1e
p67
sg5
L135057930L
sg6
Nsg23
S'jz'
p68
sg25
S'0x80cd20aL'
p69
sg27
NsbasS'disasm_list'
p70
(lp71
g22
ag32
aVsub esp, address
p72
aVmov eax, mem
p73
aVmov eax, mem
p74
ag60
aVje address
p75
asS'end_address'
p76
Nsg5
S'0x80cd1fcL'
p77
sS'preds'
p78
(lp79
sg6
NsS'succs'
p80
(lp81
S'0x80cd20cL'
p82
aS'0x80cd228L'
p83
asS'hash_v3'
p84
NsS'flag_v2'
p85
NsS'hash_v1'
p86
S'9d6854eed8612e0f14f1ca0c9da09d75'
p87
sS'hash_v2'
p88
S'2f18d19e599f00fd90a15d02c04d46dd'
p89
sS'mnen_list'
p90
(lp91
g24
ag33
ag40
ag47
ag54
ag61
ag68
asS'neighbour_disasm_list'
p92
Nsba(ibclass
BBasicBlock
p93
(dp94
g12
Nsg13
(lp95
(ibclass
BInstr
p96
(dp97
g2
Nsg17
S'mov     eax, [ebp+frag]'
p98
sg19
S'8b4508'
p99
sg21
Vmov eax, dword ptr [ebp + 8]
p100
sg5
L135057932L
sg6
Nsg23
S'mov'
p101
sg25
S'0x80cd20cL'
p102
sg27
Nsba(ibclass
BInstr
p103
(dp104
g2
Nsg17
S'mov     eax, [eax+18h]'
p105
sg19
S'8b4018'
p106
sg21
Vmov eax, dword ptr [eax + 0x18]
p107
sg5
L135057935L
sg6
Nsg23
S'mov'
p108
sg25
S'0x80cd20fL'
p109
sg27
Nsba(ibclass
BInstr
p110
(dp111
g2
Nsg17
S'mov     [esp], eax      ; ctx'
p112
sg19
S'890424'
p113
sg21
Vmov dword ptr [esp], eax
p114
sg5
L135057938L
sg6
Nsg23
S'mov'
p115
sg25
S'0x80cd212L'
p116
sg27
Nsba(ibclass
BInstr
p117
(dp118
g2
Nsg17
S'call    EVP_CIPHER_CTX_free'
p119
sg19
S'e80f310700'
p120
sg21
Vcall 0x73114
p121
sg5
L135057941L
sg6
Nsg23
S'call'
p122
sg25
S'0x80cd215L'
p123
sg27
Nsba(ibclass
BInstr
p124
(dp125
g2
Nsg17
S'mov     eax, [ebp+frag]'
p126
sg19
S'8b4508'
p127
sg21
Vmov eax, dword ptr [ebp + 8]
p128
sg5
L135057946L
sg6
Nsg23
S'mov'
p129
sg25
S'0x80cd21aL'
p130
sg27
Nsba(ibclass
BInstr
p131
(dp132
g2
Nsg17
S'mov     eax, [eax+1Ch]'
p133
sg19
S'8b401c'
p134
sg21
Vmov eax, dword ptr [eax + 0x1c]
p135
sg5
L135057949L
sg6
Nsg23
S'mov'
p136
sg25
S'0x80cd21dL'
p137
sg27
Nsba(ibclass
BInstr
p138
(dp139
g2
Nsg17
S'mov     [esp], eax      ; ctx'
p140
sg19
S'890424'
p141
sg21
Vmov dword ptr [esp], eax
p142
sg5
L135057952L
sg6
Nsg23
S'mov'
p143
sg25
S'0x80cd220L'
p144
sg27
Nsba(ibclass
BInstr
p145
(dp146
g2
Nsg17
S'call    EVP_MD_CTX_destroy'
p147
sg19
S'e8151f0700'
p148
sg21
Vcall 0x71f1a
p149
sg5
L135057955L
sg6
Nsg23
S'call'
p150
sg25
S'0x80cd223L'
p151
sg27
Nsbasg70
(lp152
Vmov eax, mem
p153
aVmov eax, mem
p154
aVmov mem, eax
p155
aVcall address
p156
aVmov eax, mem
p157
aVmov eax, mem
p158
aVmov mem, eax
p159
aVcall address
p160
asg76
Nsg5
S'0x80cd20cL'
p161
sg78
(lp162
S'0x80cd1fcL'
p163
asg6
Nsg80
(lp164
S'0x80cd228L'
p165
asg84
Nsg85
Nsg86
S'080147f11a9309466745ebba4289918c'
p166
sg88
S'82094f2fd3aaf1a270226539c0b01e94'
p167
sg90
(lp168
g101
ag108
ag115
ag122
ag129
ag136
ag143
ag150
asg92
Nsba(ibclass
BBasicBlock
p169
(dp170
g12
Nsg13
(lp171
(ibclass
BInstr
p172
(dp173
g2
Nsg17
S'mov     eax, [ebp+frag]'
p174
sg19
S'8b4508'
p175
sg21
Vmov eax, dword ptr [ebp + 8]
p176
sg5
L135057960L
sg6
Nsg23
S'mov'
p177
sg25
S'0x80cd228L'
p178
sg27
Nsba(ibclass
BInstr
p179
(dp180
g2
Nsg17
S'mov     eax, [eax+2Ch]'
p181
sg19
S'8b402c'
p182
sg21
Vmov eax, dword ptr [eax + 0x2c]
p183
sg5
L135057963L
sg6
Nsg23
S'mov'
p184
sg25
S'0x80cd22bL'
p185
sg27
Nsba(ibclass
BInstr
p186
(dp187
g2
Nsg17
S'test    eax, eax'
p188
sg19
S'85c0'
p189
sg21
Vtest eax, eax
p190
sg5
L135057966L
sg6
Nsg23
S'test'
p191
sg25
S'0x80cd22eL'
p192
sg27
Nsba(ibclass
BInstr
p193
(dp194
g2
Nsg17
S'jz      short loc_80CD240'
p195
sg19
S'740e'
p196
sg21
Vje 0x10
p197
sg5
L135057968L
sg6
Nsg23
S'jz'
p198
sg25
S'0x80cd230L'
p199
sg27
Nsbasg70
(lp200
Vmov eax, mem
p201
aVmov eax, mem
p202
ag190
aVje address
p203
asg76
Nsg5
S'0x80cd228L'
p204
sg78
(lp205
S'0x80cd1fcL'
p206
aS'0x80cd20cL'
p207
asg6
Nsg80
(lp208
S'0x80cd232L'
p209
aS'0x80cd240L'
p210
asg84
Nsg85
Nsg86
S'ea5d08c7dcc07640d42787f826218f11'
p211
sg88
S'103b924e2a82731ce51d187b2e41af3a'
p212
sg90
(lp213
g177
ag184
ag191
ag198
asg92
Nsba(ibclass
BBasicBlock
p214
(dp215
g12
Nsg13
(lp216
(ibclass
BInstr
p217
(dp218
g2
Nsg17
S'mov     eax, [ebp+frag]'
p219
sg19
S'8b4508'
p220
sg21
Vmov eax, dword ptr [ebp + 8]
p221
sg5
L135057970L
sg6
Nsg23
S'mov'
p222
sg25
S'0x80cd232L'
p223
sg27
Nsba(ibclass
BInstr
p224
(dp225
g2
Nsg17
S'mov     eax, [eax+2Ch]'
p226
sg19
S'8b402c'
p227
sg21
Vmov eax, dword ptr [eax + 0x2c]
p228
sg5
L135057973L
sg6
Nsg23
S'mov'
p229
sg25
S'0x80cd235L'
p230
sg27
Nsba(ibclass
BInstr
p231
(dp232
g2
Nsg17
S'mov     [esp], eax      ; str'
p233
sg19
S'890424'
p234
sg21
Vmov dword ptr [esp], eax
p235
sg5
L135057976L
sg6
Nsg23
S'mov'
p236
sg25
S'0x80cd238L'
p237
sg27
Nsba(ibclass
BInstr
p238
(dp239
g2
Nsg17
S'call    CRYPTO_free'
p240
sg19
S'e899920100'
p241
sg21
Vcall 0x1929e
p242
sg5
L135057979L
sg6
Nsg23
S'call'
p243
sg25
S'0x80cd23bL'
p244
sg27
Nsbasg70
(lp245
Vmov eax, mem
p246
aVmov eax, mem
p247
aVmov mem, eax
p248
aVcall address
p249
asg76
Nsg5
S'0x80cd232L'
p250
sg78
(lp251
S'0x80cd228L'
p252
asg6
Nsg80
(lp253
S'0x80cd240L'
p254
asg84
Nsg85
Nsg86
S'e233a80004971487a8cda28e21c9f5ef'
p255
sg88
S'aa359b6218411f2f012047a2f405e78d'
p256
sg90
(lp257
g222
ag229
ag236
ag243
asg92
Nsba(ibclass
BBasicBlock
p258
(dp259
g12
Nsg13
(lp260
(ibclass
BInstr
p261
(dp262
g2
Nsg17
S'mov     eax, [ebp+frag]'
p263
sg19
S'8b4508'
p264
sg21
Vmov eax, dword ptr [ebp + 8]
p265
sg5
L135057984L
sg6
Nsg23
S'mov'
p266
sg25
S'0x80cd240L'
p267
sg27
Nsba(ibclass
BInstr
p268
(dp269
g2
Nsg17
S'mov     eax, [eax+30h]'
p270
sg19
S'8b4030'
p271
sg21
Vmov eax, dword ptr [eax + 0x30]
p272
sg5
L135057987L
sg6
Nsg23
S'mov'
p273
sg25
S'0x80cd243L'
p274
sg27
Nsba(ibclass
BInstr
p275
(dp276
g2
Nsg17
S'test    eax, eax'
p277
sg19
S'85c0'
p278
sg21
Vtest eax, eax
p279
sg5
L135057990L
sg6
Nsg23
S'test'
p280
sg25
S'0x80cd246L'
p281
sg27
Nsba(ibclass
BInstr
p282
(dp283
g2
Nsg17
S'jz      short loc_80CD258'
p284
sg19
S'740e'
p285
sg21
Vje 0x10
p286
sg5
L135057992L
sg6
Nsg23
S'jz'
p287
sg25
S'0x80cd248L'
p288
sg27
Nsbasg70
(lp289
Vmov eax, mem
p290
aVmov eax, mem
p291
ag279
aVje address
p292
asg76
Nsg5
S'0x80cd240L'
p293
sg78
(lp294
S'0x80cd228L'
p295
aS'0x80cd232L'
p296
asg6
Nsg80
(lp297
S'0x80cd24aL'
p298
aS'0x80cd258L'
p299
asg84
Nsg85
Nsg86
S'ea5d08c7dcc07640d42787f826218f11'
p300
sg88
S'103b924e2a82731ce51d187b2e41af3a'
p301
sg90
(lp302
g266
ag273
ag280
ag287
asg92
Nsba(ibclass
BBasicBlock
p303
(dp304
g12
Nsg13
(lp305
(ibclass
BInstr
p306
(dp307
g2
Nsg17
S'mov     eax, [ebp+frag]'
p308
sg19
S'8b4508'
p309
sg21
Vmov eax, dword ptr [ebp + 8]
p310
sg5
L135057994L
sg6
Nsg23
S'mov'
p311
sg25
S'0x80cd24aL'
p312
sg27
Nsba(ibclass
BInstr
p313
(dp314
g2
Nsg17
S'mov     eax, [eax+30h]'
p315
sg19
S'8b4030'
p316
sg21
Vmov eax, dword ptr [eax + 0x30]
p317
sg5
L135057997L
sg6
Nsg23
S'mov'
p318
sg25
S'0x80cd24dL'
p319
sg27
Nsba(ibclass
BInstr
p320
(dp321
g2
Nsg17
S'mov     [esp], eax      ; str'
p322
sg19
S'890424'
p323
sg21
Vmov dword ptr [esp], eax
p324
sg5
L135058000L
sg6
Nsg23
S'mov'
p325
sg25
S'0x80cd250L'
p326
sg27
Nsba(ibclass
BInstr
p327
(dp328
g2
Nsg17
S'call    CRYPTO_free'
p329
sg19
S'e881920100'
p330
sg21
Vcall 0x19286
p331
sg5
L135058003L
sg6
Nsg23
S'call'
p332
sg25
S'0x80cd253L'
p333
sg27
Nsbasg70
(lp334
Vmov eax, mem
p335
aVmov eax, mem
p336
aVmov mem, eax
p337
aVcall address
p338
asg76
Nsg5
S'0x80cd24aL'
p339
sg78
(lp340
S'0x80cd240L'
p341
asg6
Nsg80
(lp342
S'0x80cd258L'
p343
asg84
Nsg85
Nsg86
S'e233a80004971487a8cda28e21c9f5ef'
p344
sg88
S'aa359b6218411f2f012047a2f405e78d'
p345
sg90
(lp346
g311
ag318
ag325
ag332
asg92
Nsba(ibclass
BBasicBlock
p347
(dp348
g12
Nsg13
(lp349
(ibclass
BInstr
p350
(dp351
g2
Nsg17
S'mov     eax, [ebp+frag]'
p352
sg19
S'8b4508'
p353
sg21
Vmov eax, dword ptr [ebp + 8]
p354
sg5
L135058008L
sg6
Nsg23
S'mov'
p355
sg25
S'0x80cd258L'
p356
sg27
Nsba(ibclass
BInstr
p357
(dp358
g2
Nsg17
S'mov     [esp], eax      ; str'
p359
sg19
S'890424'
p360
sg21
Vmov dword ptr [esp], eax
p361
sg5
L135058011L
sg6
Nsg23
S'mov'
p362
sg25
S'0x80cd25bL'
p363
sg27
Nsba(ibclass
BInstr
p364
(dp365
g2
Nsg17
S'call    CRYPTO_free'
p366
sg19
S'e876920100'
p367
sg21
Vcall 0x1927b
p368
sg5
L135058014L
sg6
Nsg23
S'call'
p369
sg25
S'0x80cd25eL'
p370
sg27
Nsba(ibclass
BInstr
p371
(dp372
g2
Nsg17
S'leave'
p373
sg19
S'c9'
p374
sg21
Vleave 
p375
sg5
L135058019L
sg6
Nsg23
S'leave'
p376
sg25
S'0x80cd263L'
p377
sg27
Nsba(ibclass
BInstr
p378
(dp379
g2
Nsg17
S'retn'
p380
sg19
S'c3'
p381
sg21
Vret 
p382
sg5
L135058020L
sg6
Nsg23
S'retn'
p383
sg25
S'0x80cd264L'
p384
sg27
Nsbasg70
(lp385
Vmov eax, mem
p386
aVmov mem, eax
p387
aVcall address
p388
aVleave
p389
aVret
p390
asg76
Nsg5
S'0x80cd258L'
p391
sg78
(lp392
S'0x80cd240L'
p393
aS'0x80cd24aL'
p394
asg6
Nsg80
(lp395
sg84
Nsg85
Nsg86
S'fc32e5a7a8009b8f42537298e03e0562'
p396
sg88
S'c860653715ee77fb52bc444fbd6a5545'
p397
sg90
(lp398
g355
ag362
ag369
ag376
ag383
asg92
Nsbasb.