(ibclass
BFunc
p0
(dp1
S'hash'
p2
NsS'name'
p3
S'dtls1_max_handshake_message_len'
p4
sS'start_address'
p5
L135061153L
sS'flag'
p6
NsS'program'
p7
NsS'bbs'
p8
(lp9
(ibclass
BBasicBlock
p10
(dp11
S'function'
p12
NsS'binstrs'
p13
(lp14
(ibclass
BInstr
p15
(dp16
g2
NsS'disasm'
p17
S'push    ebp'
p18
sS'bytes'
p19
S'55'
p20
sS'disasm_striped'
p21
Vpush ebp
p22
sg5
L135061153L
sg6
NsS'mnem'
p23
S'push'
p24
sS'address'
p25
S'0x80cdea1L'
p26
sS'basicblock'
p27
Nsba(ibclass
BInstr
p28
(dp29
g2
Nsg17
S'mov     ebp, esp'
p30
sg19
S'89e5'
p31
sg21
Vmov ebp, esp
p32
sg5
L135061154L
sg6
Nsg23
S'mov'
p33
sg25
S'0x80cdea2L'
p34
sg27
Nsba(ibclass
BInstr
p35
(dp36
g2
Nsg17
S'sub     esp, 10h'
p37
sg19
S'83ec10'
p38
sg21
Vsub esp, 0x10
p39
sg5
L135061156L
sg6
Nsg23
S'sub'
p40
sg25
S'0x80cdea4L'
p41
sg27
Nsba(ibclass
BInstr
p42
(dp43
g2
Nsg17
S'mov     [ebp+max_len], 454Ch'
p44
sg19
S'c745fc4c450000'
p45
sg21
Vmov dword ptr [ebp - 4], 0x454c
p46
sg5
L135061159L
sg6
Nsg23
S'mov'
p47
sg25
S'0x80cdea7L'
p48
sg27
Nsba(ibclass
BInstr
p49
(dp50
g2
Nsg17
S'mov     eax, [ebp+s]'
p51
sg19
S'8b4508'
p52
sg21
Vmov eax, dword ptr [ebp + 8]
p53
sg5
L135061166L
sg6
Nsg23
S'mov'
p54
sg25
S'0x80cdeaeL'
p55
sg27
Nsba(ibclass
BInstr
p56
(dp57
g2
Nsg17
S'mov     eax, [eax+108h]'
p58
sg19
S'8b8008010000'
p59
sg21
Vmov eax, dword ptr [eax + 0x108]
p60
sg5
L135061169L
sg6
Nsg23
S'mov'
p61
sg25
S'0x80cdeb1L'
p62
sg27
Nsba(ibclass
BInstr
p63
(dp64
g2
Nsg17
S'cmp     eax, [ebp+max_len]'
p65
sg19
S'3b45fc'
p66
sg21
Vcmp eax, dword ptr [ebp - 4]
p67
sg5
L135061175L
sg6
Nsg23
S'cmp'
p68
sg25
S'0x80cdeb7L'
p69
sg27
Nsba(ibclass
BInstr
p70
(dp71
g2
Nsg17
S'jbe     short loc_80CDEC7'
p72
sg19
S'760b'
p73
sg21
Vjbe 0xd
p74
sg5
L135061178L
sg6
Nsg23
S'jbe'
p75
sg25
S'0x80cdebaL'
p76
sg27
NsbasS'disasm_list'
p77
(lp78
g22
ag32
aVsub esp, address
p79
aVmov mem, address
p80
aVmov eax, mem
p81
aVmov eax, mem
p82
aVcmp eax, mem
p83
aVjbe address
p84
asS'end_address'
p85
Nsg5
S'0x80cdea1L'
p86
sS'preds'
p87
(lp88
sg6
NsS'succs'
p89
(lp90
S'0x80cdebcL'
p91
aS'0x80cdec7L'
p92
asS'hash_v3'
p93
NsS'flag_v2'
p94
NsS'hash_v1'
p95
S'410bd539c1f7b57ae4afffdefb6e1e26'
p96
sS'hash_v2'
p97
S'21bc26d3d1a61df9292dfbb3c06536d4'
p98
sS'mnen_list'
p99
(lp100
g24
ag33
ag40
ag47
ag54
ag61
ag68
ag75
asS'neighbour_disasm_list'
p101
Nsba(ibclass
BBasicBlock
p102
(dp103
g12
Nsg13
(lp104
(ibclass
BInstr
p105
(dp106
g2
Nsg17
S'mov     eax, [ebp+s]'
p107
sg19
S'8b4508'
p108
sg21
Vmov eax, dword ptr [ebp + 8]
p109
sg5
L135061180L
sg6
Nsg23
S'mov'
p110
sg25
S'0x80cdebcL'
p111
sg27
Nsba(ibclass
BInstr
p112
(dp113
g2
Nsg17
S'mov     eax, [eax+108h]'
p114
sg19
S'8b8008010000'
p115
sg21
Vmov eax, dword ptr [eax + 0x108]
p116
sg5
L135061183L
sg6
Nsg23
S'mov'
p117
sg25
S'0x80cdebfL'
p118
sg27
Nsba(ibclass
BInstr
p119
(dp120
g2
Nsg17
S'jmp     short locret_80CDECA'
p121
sg19
S'eb03'
p122
sg21
Vjmp 5
p123
sg5
L135061189L
sg6
Nsg23
S'jmp'
p124
sg25
S'0x80cdec5L'
p125
sg27
Nsbasg77
(lp126
Vmov eax, mem
p127
aVmov eax, mem
p128
ag123
asg85
Nsg5
S'0x80cdebcL'
p129
sg87
(lp130
S'0x80cdea1L'
p131
asg6
Nsg89
(lp132
S'0x80cdecaL'
p133
asg93
Nsg94
Nsg95
S'20cd1770826306b20d13fbc820a22512'
p134
sg97
S'5792902695791de88aae464e1200fc7d'
p135
sg99
(lp136
g110
ag117
ag124
asg101
Nsba(ibclass
BBasicBlock
p137
(dp138
g12
Nsg13
(lp139
(ibclass
BInstr
p140
(dp141
g2
Nsg17
S'mov     eax, [ebp+max_len]'
p142
sg19
S'8b45fc'
p143
sg21
Vmov eax, dword ptr [ebp - 4]
p144
sg5
L135061191L
sg6
Nsg23
S'mov'
p145
sg25
S'0x80cdec7L'
p146
sg27
Nsbasg77
(lp147
Vmov eax, mem
p148
asg85
Nsg5
S'0x80cdec7L'
p149
sg87
(lp150
S'0x80cdea1L'
p151
asg6
Nsg89
(lp152
S'0x80cdecaL'
p153
asg93
Nsg94
Nsg95
S'96a4a0e6e9ac88756a0fcba989d0a844'
p154
sg97
S'da3a10212e6b688447f8e74c20e21f06'
p155
sg99
(lp156
g145
asg101
Nsba(ibclass
BBasicBlock
p157
(dp158
g12
Nsg13
(lp159
(ibclass
BInstr
p160
(dp161
g2
Nsg17
S'leave'
p162
sg19
S'c9'
p163
sg21
Vleave 
p164
sg5
L135061194L
sg6
Nsg23
S'leave'
p165
sg25
S'0x80cdecaL'
p166
sg27
Nsba(ibclass
BInstr
p167
(dp168
g2
Nsg17
S'retn'
p169
sg19
S'c3'
p170
sg21
Vret 
p171
sg5
L135061195L
sg6
Nsg23
S'retn'
p172
sg25
S'0x80cdecbL'
p173
sg27
Nsbasg77
(lp174
Vleave
p175
aVret
p176
asg85
Nsg5
S'0x80cdecaL'
p177
sg87
(lp178
S'0x80cdebcL'
p179
aS'0x80cdec7L'
p180
asg6
Nsg89
(lp181
sg93
Nsg94
Nsg95
S'08c78f73a6f87c85da88b2982f54ce2a'
p182
sg97
S'393fee3c9fb1d26424d4b7704918e387'
p183
sg99
(lp184
g165
ag172
asg101
Nsbasb.