(ibclass
BFunc
p0
(dp1
S'hash'
p2
NsS'name'
p3
S'ASN1_TYPE_cmp'
p4
sS'start_address'
p5
L135599730L
sS'flag'
p6
NsS'program'
p7
NsS'bbs'
p8
(lp9
(ibclass
BBasicBlock
p10
(dp11
S'function'
p12
NsS'binstrs'
p13
(lp14
(ibclass
BInstr
p15
(dp16
g2
NsS'disasm'
p17
S'push    ebp'
p18
sS'bytes'
p19
S'55'
p20
sS'disasm_striped'
p21
Vpush ebp
p22
sg5
L135599730L
sg6
NsS'mnem'
p23
S'push'
p24
sS'address'
p25
S'0x8151672L'
p26
sS'basicblock'
p27
Nsba(ibclass
BInstr
p28
(dp29
g2
Nsg17
S'mov     ebp, esp'
p30
sg19
S'89e5'
p31
sg21
Vmov ebp, esp
p32
sg5
L135599731L
sg6
Nsg23
S'mov'
p33
sg25
S'0x8151673L'
p34
sg27
Nsba(ibclass
BInstr
p35
(dp36
g2
Nsg17
S'sub     esp, 28h'
p37
sg19
S'83ec28'
p38
sg21
Vsub esp, 0x28
p39
sg5
L135599733L
sg6
Nsg23
S'sub'
p40
sg25
S'0x8151675L'
p41
sg27
Nsba(ibclass
BInstr
p42
(dp43
g2
Nsg17
S'mov     [ebp+result], 0FFFFFFFFh'
p44
sg19
S'c745f4ffffffff'
p45
sg21
Vmov dword ptr [ebp - 0xc], 0xffffffff
p46
sg5
L135599736L
sg6
Nsg23
S'mov'
p47
sg25
S'0x8151678L'
p48
sg27
Nsba(ibclass
BInstr
p49
(dp50
g2
Nsg17
S'cmp     [ebp+a], 0'
p51
sg19
S'837d0800'
p52
sg21
Vcmp dword ptr [ebp + 8], 0
p53
sg5
L135599743L
sg6
Nsg23
S'cmp'
p54
sg25
S'0x815167fL'
p55
sg27
Nsba(ibclass
BInstr
p56
(dp57
g2
Nsg17
S'jz      short loc_8151699'
p58
sg19
S'7414'
p59
sg21
Vje 0x16
p60
sg5
L135599747L
sg6
Nsg23
S'jz'
p61
sg25
S'0x8151683L'
p62
sg27
NsbasS'disasm_list'
p63
(lp64
g22
ag32
aVsub esp, address
p65
aVmov mem, address
p66
aVcmp mem, 0
p67
aVje address
p68
asS'end_address'
p69
Nsg5
S'0x8151672L'
p70
sS'preds'
p71
(lp72
sg6
NsS'succs'
p73
(lp74
S'0x8151685L'
p75
aS'0x8151699L'
p76
asS'hash_v3'
p77
NsS'flag_v2'
p78
NsS'hash_v1'
p79
S'18ba0d7a59287f8ea0a8f0f3de6ed894'
p80
sS'hash_v2'
p81
S'05614b9c9255bff0bc450ae40d3385f4'
p82
sS'mnen_list'
p83
(lp84
g24
ag33
ag40
ag47
ag54
ag61
asS'neighbour_disasm_list'
p85
Nsba(ibclass
BBasicBlock
p86
(dp87
g12
Nsg13
(lp88
(ibclass
BInstr
p89
(dp90
g2
Nsg17
S'cmp     [ebp+b], 0'
p91
sg19
S'837d0c00'
p92
sg21
Vcmp dword ptr [ebp + 0xc], 0
p93
sg5
L135599749L
sg6
Nsg23
S'cmp'
p94
sg25
S'0x8151685L'
p95
sg27
Nsba(ibclass
BInstr
p96
(dp97
g2
Nsg17
S'jz      short loc_8151699'
p98
sg19
S'740e'
p99
sg21
Vje 0x10
p100
sg5
L135599753L
sg6
Nsg23
S'jz'
p101
sg25
S'0x8151689L'
p102
sg27
Nsbasg63
(lp103
Vcmp mem, 0
p104
aVje address
p105
asg69
Nsg5
S'0x8151685L'
p106
sg71
(lp107
S'0x8151672L'
p108
asg6
Nsg73
(lp109
S'0x815168bL'
p110
aS'0x8151699L'
p111
asg77
Nsg78
Nsg79
S'613dbc2b0cb9d6264d802b24d709daea'
p112
sg81
S'bdc7ec577d63971d81398660f533a2e0'
p113
sg83
(lp114
g94
ag101
asg85
Nsba(ibclass
BBasicBlock
p115
(dp116
g12
Nsg13
(lp117
(ibclass
BInstr
p118
(dp119
g2
Nsg17
S'mov     eax, [ebp+a]'
p120
sg19
S'8b4508'
p121
sg21
Vmov eax, dword ptr [ebp + 8]
p122
sg5
L135599755L
sg6
Nsg23
S'mov'
p123
sg25
S'0x815168bL'
p124
sg27
Nsba(ibclass
BInstr
p125
(dp126
g2
Nsg17
S'mov     edx, [eax]'
p127
sg19
S'8b10'
p128
sg21
Vmov edx, dword ptr [eax]
p129
sg5
L135599758L
sg6
Nsg23
S'mov'
p130
sg25
S'0x815168eL'
p131
sg27
Nsba(ibclass
BInstr
p132
(dp133
g2
Nsg17
S'mov     eax, [ebp+b]'
p134
sg19
S'8b450c'
p135
sg21
Vmov eax, dword ptr [ebp + 0xc]
p136
sg5
L135599760L
sg6
Nsg23
S'mov'
p137
sg25
S'0x8151690L'
p138
sg27
Nsba(ibclass
BInstr
p139
(dp140
g2
Nsg17
S'mov     eax, [eax]'
p141
sg19
S'8b00'
p142
sg21
Vmov eax, dword ptr [eax]
p143
sg5
L135599763L
sg6
Nsg23
S'mov'
p144
sg25
S'0x8151693L'
p145
sg27
Nsba(ibclass
BInstr
p146
(dp147
g2
Nsg17
S'cmp     edx, eax'
p148
sg19
S'39c2'
p149
sg21
Vcmp edx, eax
p150
sg5
L135599765L
sg6
Nsg23
S'cmp'
p151
sg25
S'0x8151695L'
p152
sg27
Nsba(ibclass
BInstr
p153
(dp154
g2
Nsg17
S'jz      short loc_81516A0'
p155
sg19
S'7407'
p156
sg21
Vje 9
p157
sg5
L135599767L
sg6
Nsg23
S'jz'
p158
sg25
S'0x8151697L'
p159
sg27
Nsbasg63
(lp160
Vmov eax, mem
p161
aVmov edx, mem
p162
aVmov eax, mem
p163
aVmov eax, mem
p164
ag150
ag157
asg69
Nsg5
S'0x815168bL'
p165
sg71
(lp166
S'0x8151685L'
p167
asg6
Nsg73
(lp168
S'0x8151699L'
p169
aS'0x81516a0L'
p170
asg77
Nsg78
Nsg79
S'dce3f9856ba3a5e0148d88810ed6ccab'
p171
sg81
S'dab23c1ede5beab2f7d030437fa79887'
p172
sg83
(lp173
g123
ag130
ag137
ag144
ag151
ag158
asg85
Nsba(ibclass
BBasicBlock
p174
(dp175
g12
Nsg13
(lp176
(ibclass
BInstr
p177
(dp178
g2
Nsg17
S'mov     eax, 0FFFFFFFFh'
p179
sg19
S'b8ffffffff'
p180
sg21
Vmov eax, 0xffffffff
p181
sg5
L135599769L
sg6
Nsg23
S'mov'
p182
sg25
S'0x8151699L'
p183
sg27
Nsba(ibclass
BInstr
p184
(dp185
g2
Nsg17
S'jmp     short locret_81516F4'
p186
sg19
S'eb54'
p187
sg21
Vjmp 0x56
p188
sg5
L135599774L
sg6
Nsg23
S'jmp'
p189
sg25
S'0x815169eL'
p190
sg27
Nsbasg63
(lp191
Vmov eax, address
p192
aVjmp address
p193
asg69
Nsg5
S'0x8151699L'
p194
sg71
(lp195
S'0x8151672L'
p196
aS'0x8151685L'
p197
aS'0x815168bL'
p198
asg6
Nsg73
(lp199
S'0x81516f4L'
p200
asg77
Nsg78
Nsg79
S'8b9a0d40e062be2b9b2d9885108fb196'
p201
sg81
S'926f437691f480d6543b7a7101724292'
p202
sg83
(lp203
g182
ag189
asg85
Nsba(ibclass
BBasicBlock
p204
(dp205
g12
Nsg13
(lp206
(ibclass
BInstr
p207
(dp208
g2
Nsg17
S'mov     eax, [ebp+a]'
p209
sg19
S'8b4508'
p210
sg21
Vmov eax, dword ptr [ebp + 8]
p211
sg5
L135599776L
sg6
Nsg23
S'mov'
p212
sg25
S'0x81516a0L'
p213
sg27
Nsba(ibclass
BInstr
p214
(dp215
g2
Nsg17
S'mov     eax, [eax]'
p216
sg19
S'8b00'
p217
sg21
Vmov eax, dword ptr [eax]
p218
sg5
L135599779L
sg6
Nsg23
S'mov'
p219
sg25
S'0x81516a3L'
p220
sg27
Nsba(ibclass
BInstr
p221
(dp222
g2
Nsg17
S'cmp     eax, 5'
p223
sg19
S'83f805'
p224
sg21
Vcmp eax, 5
p225
sg5
L135599781L
sg6
Nsg23
S'cmp'
p226
sg25
S'0x81516a5L'
p227
sg27
Nsba(ibclass
BInstr
p228
(dp229
g2
Nsg17
S'jz      short loc_81516CC'
p230
sg19
S'7422'
p231
sg21
Vje 0x24
p232
sg5
L135599784L
sg6
Nsg23
S'jz'
p233
sg25
S'0x81516a8L'
p234
sg27
Nsbasg63
(lp235
Vmov eax, mem
p236
aVmov eax, mem
p237
ag225
aVje address
p238
asg69
Nsg5
S'0x81516a0L'
p239
sg71
(lp240
S'0x815168bL'
p241
asg6
Nsg73
(lp242
S'0x81516aaL'
p243
aS'0x81516ccL'
p244
asg77
Nsg78
Nsg79
S'db7f0dec7b6480d765a2fb1483cb9e16'
p245
sg81
S'21cf786f507f247fc841f0762fa4a5b9'
p246
sg83
(lp247
g212
ag219
ag226
ag233
asg85
Nsba(ibclass
BBasicBlock
p248
(dp249
g12
Nsg13
(lp250
(ibclass
BInstr
p251
(dp252
g2
Nsg17
S'cmp     eax, 6'
p253
sg19
S'83f806'
p254
sg21
Vcmp eax, 6
p255
sg5
L135599786L
sg6
Nsg23
S'cmp'
p256
sg25
S'0x81516aaL'
p257
sg27
Nsba(ibclass
BInstr
p258
(dp259
g2
Nsg17
S'jnz     short loc_81516D5'
p260
sg19
S'7526'
p261
sg21
Vjne 0x28
p262
sg5
L135599789L
sg6
Nsg23
S'jnz'
p263
sg25
S'0x81516adL'
p264
sg27
Nsbasg63
(lp265
g255
aVjne address
p266
asg69
Nsg5
S'0x81516aaL'
p267
sg71
(lp268
S'0x81516a0L'
p269
asg6
Nsg73
(lp270
S'0x81516afL'
p271
aS'0x81516d5L'
p272
asg77
Nsg78
Nsg79
S'30cb3d6f6a174adfabcde507f6944a52'
p273
sg81
S'7edfd323c380344dc27e01292c14aa36'
p274
sg83
(lp275
g256
ag263
asg85
Nsba(ibclass
BBasicBlock
p276
(dp277
g12
Nsg13
(lp278
(ibclass
BInstr
p279
(dp280
g2
Nsg17
S'mov     eax, [ebp+b]'
p281
sg19
S'8b450c'
p282
sg21
Vmov eax, dword ptr [ebp + 0xc]
p283
sg5
L135599791L
sg6
Nsg23
S'mov'
p284
sg25
S'0x81516afL'
p285
sg27
Nsba(ibclass
BInstr
p286
(dp287
g2
Nsg17
S'mov     edx, [eax+4]'
p288
sg19
S'8b5004'
p289
sg21
Vmov edx, dword ptr [eax + 4]
p290
sg5
L135599794L
sg6
Nsg23
S'mov'
p291
sg25
S'0x81516b2L'
p292
sg27
Nsba(ibclass
BInstr
p293
(dp294
g2
Nsg17
S'mov     eax, [ebp+a]'
p295
sg19
S'8b4508'
p296
sg21
Vmov eax, dword ptr [ebp + 8]
p297
sg5
L135599797L
sg6
Nsg23
S'mov'
p298
sg25
S'0x81516b5L'
p299
sg27
Nsba(ibclass
BInstr
p300
(dp301
g2
Nsg17
S'mov     eax, [eax+4]'
p302
sg19
S'8b4004'
p303
sg21
Vmov eax, dword ptr [eax + 4]
p304
sg5
L135599800L
sg6
Nsg23
S'mov'
p305
sg25
S'0x81516b8L'
p306
sg27
Nsba(ibclass
BInstr
p307
(dp308
g2
Nsg17
S'mov     [esp+4], edx    ; b'
p309
sg19
S'89542404'
p310
sg21
Vmov dword ptr [esp + 4], edx
p311
sg5
L135599803L
sg6
Nsg23
S'mov'
p312
sg25
S'0x81516bbL'
p313
sg27
Nsba(ibclass
BInstr
p314
(dp315
g2
Nsg17
S'mov     [esp], eax      ; a'
p316
sg19
S'890424'
p317
sg21
Vmov dword ptr [esp], eax
p318
sg5
L135599807L
sg6
Nsg23
S'mov'
p319
sg25
S'0x81516bfL'
p320
sg27
Nsba(ibclass
BInstr
p321
(dp322
g2
Nsg17
S'call    OBJ_cmp'
p323
sg19
S'e8d79af9ff'
p324
sg21
Vcall 0xfff99adc
p325
sg5
L135599810L
sg6
Nsg23
S'call'
p326
sg25
S'0x81516c2L'
p327
sg27
Nsba(ibclass
BInstr
p328
(dp329
g2
Nsg17
S'mov     [ebp+result], eax'
p330
sg19
S'8945f4'
p331
sg21
Vmov dword ptr [ebp - 0xc], eax
p332
sg5
L135599815L
sg6
Nsg23
S'mov'
p333
sg25
S'0x81516c7L'
p334
sg27
Nsba(ibclass
BInstr
p335
(dp336
g2
Nsg17
S'jmp     short loc_81516F1'
p337
sg19
S'eb25'
p338
sg21
Vjmp 0x27
p339
sg5
L135599818L
sg6
Nsg23
S'jmp'
p340
sg25
S'0x81516caL'
p341
sg27
Nsbasg63
(lp342
Vmov eax, mem
p343
aVmov edx, mem
p344
aVmov eax, mem
p345
aVmov eax, mem
p346
aVmov mem, edx
p347
aVmov mem, eax
p348
aVcall address
p349
aVmov mem, eax
p350
aVjmp address
p351
asg69
Nsg5
S'0x81516afL'
p352
sg71
(lp353
S'0x81516aaL'
p354
asg6
Nsg73
(lp355
S'0x81516f1L'
p356
asg77
Nsg78
Nsg79
S'318f0461221986797c925397b77eb287'
p357
sg81
S'1a786e48f55dbc6f5b801815a13b8762'
p358
sg83
(lp359
g284
ag291
ag298
ag305
ag312
ag319
ag326
ag333
ag340
asg85
Nsba(ibclass
BBasicBlock
p360
(dp361
g12
Nsg13
(lp362
(ibclass
BInstr
p363
(dp364
g2
Nsg17
S'mov     [ebp+result], 0'
p365
sg19
S'c745f400000000'
p366
sg21
Vmov dword ptr [ebp - 0xc], 0
p367
sg5
L135599820L
sg6
Nsg23
S'mov'
p368
sg25
S'0x81516ccL'
p369
sg27
Nsba(ibclass
BInstr
p370
(dp371
g2
Nsg17
S'jmp     short loc_81516F1'
p372
sg19
S'eb1c'
p373
sg21
Vjmp 0x1e
p374
sg5
L135599827L
sg6
Nsg23
S'jmp'
p375
sg25
S'0x81516d3L'
p376
sg27
Nsbasg63
(lp377
Vmov mem, 0
p378
aVjmp address
p379
asg69
Nsg5
S'0x81516ccL'
p380
sg71
(lp381
S'0x81516a0L'
p382
asg6
Nsg73
(lp383
S'0x81516f1L'
p384
asg77
Nsg78
Nsg79
S'8b9a0d40e062be2b9b2d9885108fb196'
p385
sg81
S'f299da28b698e6b26e771c23d7997a23'
p386
sg83
(lp387
g368
ag375
asg85
Nsba(ibclass
BBasicBlock
p388
(dp389
g12
Nsg13
(lp390
(ibclass
BInstr
p391
(dp392
g2
Nsg17
S'mov     eax, [ebp+b]'
p393
sg19
S'8b450c'
p394
sg21
Vmov eax, dword ptr [ebp + 0xc]
p395
sg5
L135599829L
sg6
Nsg23
S'mov'
p396
sg25
S'0x81516d5L'
p397
sg27
Nsba(ibclass
BInstr
p398
(dp399
g2
Nsg17
S'mov     edx, [eax+4]'
p400
sg19
S'8b5004'
p401
sg21
Vmov edx, dword ptr [eax + 4]
p402
sg5
L135599832L
sg6
Nsg23
S'mov'
p403
sg25
S'0x81516d8L'
p404
sg27
Nsba(ibclass
BInstr
p405
(dp406
g2
Nsg17
S'mov     eax, [ebp+a]'
p407
sg19
S'8b4508'
p408
sg21
Vmov eax, dword ptr [ebp + 8]
p409
sg5
L135599835L
sg6
Nsg23
S'mov'
p410
sg25
S'0x81516dbL'
p411
sg27
Nsba(ibclass
BInstr
p412
(dp413
g2
Nsg17
S'mov     eax, [eax+4]'
p414
sg19
S'8b4004'
p415
sg21
Vmov eax, dword ptr [eax + 4]
p416
sg5
L135599838L
sg6
Nsg23
S'mov'
p417
sg25
S'0x81516deL'
p418
sg27
Nsba(ibclass
BInstr
p419
(dp420
g2
Nsg17
S'mov     [esp+4], edx    ; b'
p421
sg19
S'89542404'
p422
sg21
Vmov dword ptr [esp + 4], edx
p423
sg5
L135599841L
sg6
Nsg23
S'mov'
p424
sg25
S'0x81516e1L'
p425
sg27
Nsba(ibclass
BInstr
p426
(dp427
g2
Nsg17
S'mov     [esp], eax      ; a'
p428
sg19
S'890424'
p429
sg21
Vmov dword ptr [esp], eax
p430
sg5
L135599845L
sg6
Nsg23
S'mov'
p431
sg25
S'0x81516e5L'
p432
sg27
Nsba(ibclass
BInstr
p433
(dp434
g2
Nsg17
S'call    ASN1_STRING_cmp'
p435
sg19
S'e8c01f0100'
p436
sg21
Vcall 0x11fc5
p437
sg5
L135599848L
sg6
Nsg23
S'call'
p438
sg25
S'0x81516e8L'
p439
sg27
Nsba(ibclass
BInstr
p440
(dp441
g2
Nsg17
S'mov     [ebp+result], eax'
p442
sg19
S'8945f4'
p443
sg21
Vmov dword ptr [ebp - 0xc], eax
p444
sg5
L135599853L
sg6
Nsg23
S'mov'
p445
sg25
S'0x81516edL'
p446
sg27
Nsba(ibclass
BInstr
p447
(dp448
g2
Nsg17
S'nop'
p449
sg19
S'90'
p450
sg21
Vnop 
p451
sg5
L135599856L
sg6
Nsg23
S'nop'
p452
sg25
S'0x81516f0L'
p453
sg27
Nsbasg63
(lp454
Vmov eax, mem
p455
aVmov edx, mem
p456
aVmov eax, mem
p457
aVmov eax, mem
p458
aVmov mem, edx
p459
aVmov mem, eax
p460
aVcall address
p461
aVmov mem, eax
p462
aVnop
p463
asg69
Nsg5
S'0x81516d5L'
p464
sg71
(lp465
S'0x81516aaL'
p466
asg6
Nsg73
(lp467
S'0x81516f1L'
p468
asg77
Nsg78
Nsg79
S'277a965186ab277393036ec68ccd1dbc'
p469
sg81
S'9a8926cbe4d822ecd7e6c309099697cd'
p470
sg83
(lp471
g396
ag403
ag410
ag417
ag424
ag431
ag438
ag445
ag452
asg85
Nsba(ibclass
BBasicBlock
p472
(dp473
g12
Nsg13
(lp474
(ibclass
BInstr
p475
(dp476
g2
Nsg17
S'mov     eax, [ebp+result]'
p477
sg19
S'8b45f4'
p478
sg21
Vmov eax, dword ptr [ebp - 0xc]
p479
sg5
L135599857L
sg6
Nsg23
S'mov'
p480
sg25
S'0x81516f1L'
p481
sg27
Nsbasg63
(lp482
Vmov eax, mem
p483
asg69
Nsg5
S'0x81516f1L'
p484
sg71
(lp485
S'0x81516afL'
p486
aS'0x81516ccL'
p487
aS'0x81516d5L'
p488
asg6
Nsg73
(lp489
S'0x81516f4L'
p490
asg77
Nsg78
Nsg79
S'96a4a0e6e9ac88756a0fcba989d0a844'
p491
sg81
S'da3a10212e6b688447f8e74c20e21f06'
p492
sg83
(lp493
g480
asg85
Nsba(ibclass
BBasicBlock
p494
(dp495
g12
Nsg13
(lp496
(ibclass
BInstr
p497
(dp498
g2
Nsg17
S'leave'
p499
sg19
S'c9'
p500
sg21
Vleave 
p501
sg5
L135599860L
sg6
Nsg23
S'leave'
p502
sg25
S'0x81516f4L'
p503
sg27
Nsba(ibclass
BInstr
p504
(dp505
g2
Nsg17
S'retn'
p506
sg19
S'c3'
p507
sg21
Vret 
p508
sg5
L135599861L
sg6
Nsg23
S'retn'
p509
sg25
S'0x81516f5L'
p510
sg27
Nsbasg63
(lp511
Vleave
p512
aVret
p513
asg69
Nsg5
S'0x81516f4L'
p514
sg71
(lp515
S'0x8151699L'
p516
aS'0x81516f1L'
p517
asg6
Nsg73
(lp518
sg77
Nsg78
Nsg79
S'08c78f73a6f87c85da88b2982f54ce2a'
p519
sg81
S'393fee3c9fb1d26424d4b7704918e387'
p520
sg83
(lp521
g502
ag509
asg85
Nsbasb.