(ibclass
BFunc
p0
(dp1
S'hash'
p2
NsS'name'
p3
S'dtls1_get_message_fragment'
p4
sS'start_address'
p5
L135065973L
sS'flag'
p6
NsS'program'
p7
NsS'bbs'
p8
(lp9
(ibclass
BBasicBlock
p10
(dp11
S'function'
p12
NsS'binstrs'
p13
(lp14
(ibclass
BInstr
p15
(dp16
g2
NsS'disasm'
p17
S'push    ebp'
p18
sS'bytes'
p19
S'55'
p20
sS'disasm_striped'
p21
Vpush ebp
p22
sg5
L135065973L
sg6
NsS'mnem'
p23
S'push'
p24
sS'address'
p25
S'0x80cf175L'
p26
sS'basicblock'
p27
Nsba(ibclass
BInstr
p28
(dp29
g2
Nsg17
S'mov     ebp, esp'
p30
sg19
S'89e5'
p31
sg21
Vmov ebp, esp
p32
sg5
L135065974L
sg6
Nsg23
S'mov'
p33
sg25
S'0x80cf176L'
p34
sg27
Nsba(ibclass
BInstr
p35
(dp36
g2
Nsg17
S'push    esi'
p37
sg19
S'56'
p38
sg21
Vpush esi
p39
sg5
L135065976L
sg6
Nsg23
S'push'
p40
sg25
S'0x80cf178L'
p41
sg27
Nsba(ibclass
BInstr
p42
(dp43
g2
Nsg17
S'push    ebx'
p44
sg19
S'53'
p45
sg21
Vpush ebx
p46
sg5
L135065977L
sg6
Nsg23
S'push'
p47
sg25
S'0x80cf179L'
p48
sg27
Nsba(ibclass
BInstr
p49
(dp50
g2
Nsg17
S'sub     esp, 90h'
p51
sg19
S'81ec90000000'
p52
sg21
Vsub esp, 0x90
p53
sg5
L135065978L
sg6
Nsg23
S'sub'
p54
sg25
S'0x80cf17aL'
p55
sg27
Nsba(ibclass
BInstr
p56
(dp57
g2
Nsg17
S'mov     eax, [ebp+arg_0]'
p58
sg19
S'8b4508'
p59
sg21
Vmov eax, dword ptr [ebp + 8]
p60
sg5
L135065984L
sg6
Nsg23
S'mov'
p61
sg25
S'0x80cf180L'
p62
sg27
Nsba(ibclass
BInstr
p63
(dp64
g2
Nsg17
S'mov     [ebp+s], eax'
p65
sg19
S'894594'
p66
sg21
Vmov dword ptr [ebp - 0x6c], eax
p67
sg5
L135065987L
sg6
Nsg23
S'mov'
p68
sg25
S'0x80cf183L'
p69
sg27
Nsba(ibclass
BInstr
p70
(dp71
g2
Nsg17
S'mov     eax, [ebp+arg_10]'
p72
sg19
S'8b4518'
p73
sg21
Vmov eax, dword ptr [ebp + 0x18]
p74
sg5
L135065990L
sg6
Nsg23
S'mov'
p75
sg25
S'0x80cf186L'
p76
sg27
Nsba(ibclass
BInstr
p77
(dp78
g2
Nsg17
S'mov     [ebp+ok], eax'
p79
sg19
S'894590'
p80
sg21
Vmov dword ptr [ebp - 0x70], eax
p81
sg5
L135065993L
sg6
Nsg23
S'mov'
p82
sg25
S'0x80cf189L'
p83
sg27
Nsba(ibclass
BInstr
p84
(dp85
g2
Nsg17
S'mov     eax, large gs:14h'
p86
sg19
S'65a114000000'
p87
sg21
Vmov eax, dword ptr gs:[0x14]
p88
sg5
L135065996L
sg6
Nsg23
S'mov'
p89
sg25
S'0x80cf18cL'
p90
sg27
Nsba(ibclass
BInstr
p91
(dp92
g2
Nsg17
S'mov     [ebp+var_C], eax'
p93
sg19
S'8945f4'
p94
sg21
Vmov dword ptr [ebp - 0xc], eax
p95
sg5
L135066002L
sg6
Nsg23
S'mov'
p96
sg25
S'0x80cf192L'
p97
sg27
Nsba(ibclass
BInstr
p98
(dp99
g2
Nsg17
S'xor     eax, eax'
p100
sg19
S'31c0'
p101
sg21
Vxor eax, eax
p102
sg5
L135066005L
sg6
Nsg23
S'xor'
p103
sg25
S'0x80cf195L'
p104
sg27
NsbasS'disasm_list'
p105
(lp106
g22
ag32
ag39
ag46
aVsub esp, address
p107
aVmov eax, mem
p108
aVmov mem, eax
p109
aVmov eax, mem
p110
aVmov mem, eax
p111
aVmov eax, gs:mem
p112
aVmov mem, eax
p113
ag102
asS'end_address'
p114
Nsg5
S'0x80cf175L'
p115
sS'preds'
p116
(lp117
sg6
NsS'succs'
p118
(lp119
S'0x80cf197L'
p120
asS'hash_v3'
p121
NsS'flag_v2'
p122
NsS'hash_v1'
p123
S'40ea9ab3764997ef186d525527b7cf39'
p124
sS'hash_v2'
p125
S'7ca1e2684cadc219934f3ddaad5c46d8'
p126
sS'mnen_list'
p127
(lp128
g24
ag33
ag40
ag47
ag54
ag61
ag68
ag75
ag82
ag89
ag96
ag103
asS'neighbour_disasm_list'
p129
Nsba(ibclass
BBasicBlock
p130
(dp131
g12
Nsg13
(lp132
(ibclass
BInstr
p133
(dp134
g2
Nsg17
S'mov     eax, [ebp+ok]'
p135
sg19
S'8b4590'
p136
sg21
Vmov eax, dword ptr [ebp - 0x70]
p137
sg5
L135066007L
sg6
Nsg23
S'mov'
p138
sg25
S'0x80cf197L'
p139
sg27
Nsba(ibclass
BInstr
p140
(dp141
g2
Nsg17
S'mov     [esp+8], eax    ; ok'
p142
sg19
S'89442408'
p143
sg21
Vmov dword ptr [esp + 8], eax
p144
sg5
L135066010L
sg6
Nsg23
S'mov'
p145
sg25
S'0x80cf19aL'
p146
sg27
Nsba(ibclass
BInstr
p147
(dp148
g2
Nsg17
S'mov     eax, [ebp+max]'
p149
sg19
S'8b4514'
p150
sg21
Vmov eax, dword ptr [ebp + 0x14]
p151
sg5
L135066014L
sg6
Nsg23
S'mov'
p152
sg25
S'0x80cf19eL'
p153
sg27
Nsba(ibclass
BInstr
p154
(dp155
g2
Nsg17
S'mov     [esp+4], eax    ; max'
p156
sg19
S'89442404'
p157
sg21
Vmov dword ptr [esp + 4], eax
p158
sg5
L135066017L
sg6
Nsg23
S'mov'
p159
sg25
S'0x80cf1a1L'
p160
sg27
Nsba(ibclass
BInstr
p161
(dp162
g2
Nsg17
S'mov     eax, [ebp+s]'
p163
sg19
S'8b4594'
p164
sg21
Vmov eax, dword ptr [ebp - 0x6c]
p165
sg5
L135066021L
sg6
Nsg23
S'mov'
p166
sg25
S'0x80cf1a5L'
p167
sg27
Nsba(ibclass
BInstr
p168
(dp169
g2
Nsg17
S'mov     [esp], eax      ; s'
p170
sg19
S'890424'
p171
sg21
Vmov dword ptr [esp], eax
p172
sg5
L135066024L
sg6
Nsg23
S'mov'
p173
sg25
S'0x80cf1a8L'
p174
sg27
Nsba(ibclass
BInstr
p175
(dp176
g2
Nsg17
S'call    dtls1_retrieve_buffered_fragment'
p177
sg19
S'e866f4ffff'
p178
sg21
Vcall 0xfffff46b
p179
sg5
L135066027L
sg6
Nsg23
S'call'
p180
sg25
S'0x80cf1abL'
p181
sg27
Nsba(ibclass
BInstr
p182
(dp183
g2
Nsg17
S'mov     [ebp+frag_len], eax'
p184
sg19
S'8945ac'
p185
sg21
Vmov dword ptr [ebp - 0x54], eax
p186
sg5
L135066032L
sg6
Nsg23
S'mov'
p187
sg25
S'0x80cf1b0L'
p188
sg27
Nsba(ibclass
BInstr
p189
(dp190
g2
Nsg17
S'cmp     [ebp+frag_len], 0'
p191
sg19
S'837dac00'
p192
sg21
Vcmp dword ptr [ebp - 0x54], 0
p193
sg5
L135066035L
sg6
Nsg23
S'cmp'
p194
sg25
S'0x80cf1b3L'
p195
sg27
Nsba(ibclass
BInstr
p196
(dp197
g2
Nsg17
S'jnz     short loc_80CF1C2'
p198
sg19
S'7509'
p199
sg21
Vjne 0xb
p200
sg5
L135066039L
sg6
Nsg23
S'jnz'
p201
sg25
S'0x80cf1b7L'
p202
sg27
Nsbasg105
(lp203
Vmov eax, mem
p204
aVmov mem, eax
p205
aVmov eax, mem
p206
aVmov mem, eax
p207
aVmov eax, mem
p208
aVmov mem, eax
p209
aVcall address
p210
aVmov mem, eax
p211
aVcmp mem, 0
p212
aVjne address
p213
asg114
Nsg5
S'0x80cf197L'
p214
sg116
(lp215
S'0x80cf175L'
p216
aS'0x80cf395L'
p217
asg6
Nsg118
(lp218
S'0x80cf1b9L'
p219
aS'0x80cf1c2L'
p220
asg121
Nsg122
Nsg123
S'15e400576aeb0cbb3d14491599786a83'
p221
sg125
S'2c6da12182a43c1a32ee3806682f4f92'
p222
sg127
(lp223
g138
ag145
ag152
ag159
ag166
ag173
ag180
ag187
ag194
ag201
asg129
Nsba(ibclass
BBasicBlock
p224
(dp225
g12
Nsg13
(lp226
(ibclass
BInstr
p227
(dp228
g2
Nsg17
S'mov     eax, [ebp+ok]'
p229
sg19
S'8b4590'
p230
sg21
Vmov eax, dword ptr [ebp - 0x70]
p231
sg5
L135066041L
sg6
Nsg23
S'mov'
p232
sg25
S'0x80cf1b9L'
p233
sg27
Nsba(ibclass
BInstr
p234
(dp235
g2
Nsg17
S'mov     eax, [eax]'
p236
sg19
S'8b00'
p237
sg21
Vmov eax, dword ptr [eax]
p238
sg5
L135066044L
sg6
Nsg23
S'mov'
p239
sg25
S'0x80cf1bcL'
p240
sg27
Nsba(ibclass
BInstr
p241
(dp242
g2
Nsg17
S'test    eax, eax'
p243
sg19
S'85c0'
p244
sg21
Vtest eax, eax
p245
sg5
L135066046L
sg6
Nsg23
S'test'
p246
sg25
S'0x80cf1beL'
p247
sg27
Nsba(ibclass
BInstr
p248
(dp249
g2
Nsg17
S'jz      short loc_80CF1DC'
p250
sg19
S'741a'
p251
sg21
Vje 0x1c
p252
sg5
L135066048L
sg6
Nsg23
S'jz'
p253
sg25
S'0x80cf1c0L'
p254
sg27
Nsbasg105
(lp255
Vmov eax, mem
p256
aVmov eax, mem
p257
ag245
aVje address
p258
asg114
Nsg5
S'0x80cf1b9L'
p259
sg116
(lp260
S'0x80cf197L'
p261
asg6
Nsg118
(lp262
S'0x80cf1c2L'
p263
aS'0x80cf1dcL'
p264
asg121
Nsg122
Nsg123
S'ea5d08c7dcc07640d42787f826218f11'
p265
sg125
S'103b924e2a82731ce51d187b2e41af3a'
p266
sg127
(lp267
g232
ag239
ag246
ag253
asg129
Nsba(ibclass
BBasicBlock
p268
(dp269
g12
Nsg13
(lp270
(ibclass
BInstr
p271
(dp272
g2
Nsg17
S'mov     eax, [ebp+ok]'
p273
sg19
S'8b4590'
p274
sg21
Vmov eax, dword ptr [ebp - 0x70]
p275
sg5
L135066050L
sg6
Nsg23
S'mov'
p276
sg25
S'0x80cf1c2L'
p277
sg27
Nsba(ibclass
BInstr
p278
(dp279
g2
Nsg17
S'mov     eax, [eax]'
p280
sg19
S'8b00'
p281
sg21
Vmov eax, dword ptr [eax]
p282
sg5
L135066053L
sg6
Nsg23
S'mov'
p283
sg25
S'0x80cf1c5L'
p284
sg27
Nsba(ibclass
BInstr
p285
(dp286
g2
Nsg17
S'test    eax, eax'
p287
sg19
S'85c0'
p288
sg21
Vtest eax, eax
p289
sg5
L135066055L
sg6
Nsg23
S'test'
p290
sg25
S'0x80cf1c7L'
p291
sg27
Nsba(ibclass
BInstr
p292
(dp293
g2
Nsg17
S'jz      short loc_80CF1D4'
p294
sg19
S'7409'
p295
sg21
Vje 0xb
p296
sg5
L135066057L
sg6
Nsg23
S'jz'
p297
sg25
S'0x80cf1c9L'
p298
sg27
Nsbasg105
(lp299
Vmov eax, mem
p300
aVmov eax, mem
p301
ag289
aVje address
p302
asg114
Nsg5
S'0x80cf1c2L'
p303
sg116
(lp304
S'0x80cf197L'
p305
aS'0x80cf1b9L'
p306
asg6
Nsg118
(lp307
S'0x80cf1cbL'
p308
aS'0x80cf1d4L'
p309
asg121
Nsg122
Nsg123
S'ea5d08c7dcc07640d42787f826218f11'
p310
sg125
S'103b924e2a82731ce51d187b2e41af3a'
p311
sg127
(lp312
g276
ag283
ag290
ag297
asg129
Nsba(ibclass
BBasicBlock
p313
(dp314
g12
Nsg13
(lp315
(ibclass
BInstr
p316
(dp317
g2
Nsg17
S'mov     edx, [ebp+frag_len]'
p318
sg19
S'8b55ac'
p319
sg21
Vmov edx, dword ptr [ebp - 0x54]
p320
sg5
L135066059L
sg6
Nsg23
S'mov'
p321
sg25
S'0x80cf1cbL'
p322
sg27
Nsba(ibclass
BInstr
p323
(dp324
g2
Nsg17
S'mov     eax, [ebp+s]'
p325
sg19
S'8b4594'
p326
sg21
Vmov eax, dword ptr [ebp - 0x6c]
p327
sg5
L135066062L
sg6
Nsg23
S'mov'
p328
sg25
S'0x80cf1ceL'
p329
sg27
Nsba(ibclass
BInstr
p330
(dp331
g2
Nsg17
S'mov     [eax+44h], edx'
p332
sg19
S'895044'
p333
sg21
Vmov dword ptr [eax + 0x44], edx
p334
sg5
L135066065L
sg6
Nsg23
S'mov'
p335
sg25
S'0x80cf1d1L'
p336
sg27
Nsbasg105
(lp337
Vmov edx, mem
p338
aVmov eax, mem
p339
aVmov mem, edx
p340
asg114
Nsg5
S'0x80cf1cbL'
p341
sg116
(lp342
S'0x80cf1c2L'
p343
asg6
Nsg118
(lp344
S'0x80cf1d4L'
p345
asg121
Nsg122
Nsg123
S'9eccc8b14ee1489d7c3de99648417ffe'
p346
sg125
S'24af67ccd15b6e8e90640f033880e0d2'
p347
sg127
(lp348
g321
ag328
ag335
asg129
Nsba(ibclass
BBasicBlock
p349
(dp350
g12
Nsg13
(lp351
(ibclass
BInstr
p352
(dp353
g2
Nsg17
S'mov     eax, [ebp+frag_len]'
p354
sg19
S'8b45ac'
p355
sg21
Vmov eax, dword ptr [ebp - 0x54]
p356
sg5
L135066068L
sg6
Nsg23
S'mov'
p357
sg25
S'0x80cf1d4L'
p358
sg27
Nsba(ibclass
BInstr
p359
(dp360
g2
Nsg17
S'jmp     loc_80CF508'
p361
sg19
S'e92c030000'
p362
sg21
Vjmp 0x331
p363
sg5
L135066071L
sg6
Nsg23
S'jmp'
p364
sg25
S'0x80cf1d7L'
p365
sg27
Nsbasg105
(lp366
Vmov eax, mem
p367
aVjmp address
p368
asg114
Nsg5
S'0x80cf1d4L'
p369
sg116
(lp370
S'0x80cf1c2L'
p371
aS'0x80cf1cbL'
p372
asg6
Nsg118
(lp373
S'0x80cf508L'
p374
asg121
Nsg122
Nsg123
S'8b9a0d40e062be2b9b2d9885108fb196'
p375
sg125
S'5a5b261ba52a671a369af6372509eb2f'
p376
sg127
(lp377
g357
ag364
asg129
Nsba(ibclass
BBasicBlock
p378
(dp379
g12
Nsg13
(lp380
(ibclass
BInstr
p381
(dp382
g2
Nsg17
S'mov     eax, [ebp+s]'
p383
sg19
S'8b4594'
p384
sg21
Vmov eax, dword ptr [ebp - 0x6c]
p385
sg5
L135066076L
sg6
Nsg23
S'mov'
p386
sg25
S'0x80cf1dcL'
p387
sg27
Nsba(ibclass
BInstr
p388
(dp389
g2
Nsg17
S'mov     eax, [eax+8]'
p390
sg19
S'8b4008'
p391
sg21
Vmov eax, dword ptr [eax + 8]
p392
sg5
L135066079L
sg6
Nsg23
S'mov'
p393
sg25
S'0x80cf1dfL'
p394
sg27
Nsba(ibclass
BInstr
p395
(dp396
g2
Nsg17
S'mov     eax, [eax+34h]'
p397
sg19
S'8b4034'
p398
sg21
Vmov eax, dword ptr [eax + 0x34]
p399
sg5
L135066082L
sg6
Nsg23
S'mov'
p400
sg25
S'0x80cf1e2L'
p401
sg27
Nsba(ibclass
BInstr
p402
(dp403
g2
Nsg17
S'mov     dword ptr [esp+10h], 0'
p404
sg19
S'c744241000000000'
p405
sg21
Vmov dword ptr [esp + 0x10], 0
p406
sg5
L135066085L
sg6
Nsg23
S'mov'
p407
sg25
S'0x80cf1e5L'
p408
sg27
Nsba(ibclass
BInstr
p409
(dp410
g2
Nsg17
S'mov     dword ptr [esp+0Ch], 0Ch'
p411
sg19
S'c744240c0c000000'
p412
sg21
Vmov dword ptr [esp + 0xc], 0xc
p413
sg5
L135066093L
sg6
Nsg23
S'mov'
p414
sg25
S'0x80cf1edL'
p415
sg27
Nsba(ibclass
BInstr
p416
(dp417
g2
Nsg17
S'lea     edx, [ebp+wire]'
p418
sg19
S'8d55e8'
p419
sg21
Vlea edx, [ebp - 0x18]
p420
sg5
L135066101L
sg6
Nsg23
S'lea'
p421
sg25
S'0x80cf1f5L'
p422
sg27
Nsba(ibclass
BInstr
p423
(dp424
g2
Nsg17
S'mov     [esp+8], edx'
p425
sg19
S'89542408'
p426
sg21
Vmov dword ptr [esp + 8], edx
p427
sg5
L135066104L
sg6
Nsg23
S'mov'
p428
sg25
S'0x80cf1f8L'
p429
sg27
Nsba(ibclass
BInstr
p430
(dp431
g2
Nsg17
S'mov     dword ptr [esp+4], 16h'
p432
sg19
S'c744240416000000'
p433
sg21
Vmov dword ptr [esp + 4], 0x16
p434
sg5
L135066108L
sg6
Nsg23
S'mov'
p435
sg25
S'0x80cf1fcL'
p436
sg27
Nsba(ibclass
BInstr
p437
(dp438
g2
Nsg17
S'mov     edx, [ebp+s]'
p439
sg19
S'8b5594'
p440
sg21
Vmov edx, dword ptr [ebp - 0x6c]
p441
sg5
L135066116L
sg6
Nsg23
S'mov'
p442
sg25
S'0x80cf204L'
p443
sg27
Nsba(ibclass
BInstr
p444
(dp445
g2
Nsg17
S'mov     [esp], edx'
p446
sg19
S'891424'
p447
sg21
Vmov dword ptr [esp], edx
p448
sg5
L135066119L
sg6
Nsg23
S'mov'
p449
sg25
S'0x80cf207L'
p450
sg27
Nsba(ibclass
BInstr
p451
(dp452
g2
Nsg17
S'call    eax'
p453
sg19
S'ffd0'
p454
sg21
Vcall eax
p455
sg5
L135066122L
sg6
Nsg23
S'call'
p456
sg25
S'0x80cf20aL'
p457
sg27
Nsba(ibclass
BInstr
p458
(dp459
g2
Nsg17
S'mov     [ebp+i], eax'
p460
sg19
S'8945a4'
p461
sg21
Vmov dword ptr [ebp - 0x5c], eax
p462
sg5
L135066124L
sg6
Nsg23
S'mov'
p463
sg25
S'0x80cf20cL'
p464
sg27
Nsba(ibclass
BInstr
p465
(dp466
g2
Nsg17
S'cmp     [ebp+i], 0'
p467
sg19
S'837da400'
p468
sg21
Vcmp dword ptr [ebp - 0x5c], 0
p469
sg5
L135066127L
sg6
Nsg23
S'cmp'
p470
sg25
S'0x80cf20fL'
p471
sg27
Nsba(ibclass
BInstr
p472
(dp473
g2
Nsg17
S'jg      short loc_80CF230'
p474
sg19
S'7f1b'
p475
sg21
Vjg 0x1d
p476
sg5
L135066131L
sg6
Nsg23
S'jg'
p477
sg25
S'0x80cf213L'
p478
sg27
Nsbasg105
(lp479
Vmov eax, mem
p480
aVmov eax, mem
p481
aVmov eax, mem
p482
aVmov mem, 0
p483
aVmov mem, address
p484
aVlea edx, mem
p485
aVmov mem, edx
p486
aVmov mem, address
p487
aVmov edx, mem
p488
aVmov mem, edx
p489
ag455
aVmov mem, eax
p490
aVcmp mem, 0
p491
aVjg address
p492
asg114
Nsg5
S'0x80cf1dcL'
p493
sg116
(lp494
S'0x80cf1b9L'
p495
asg6
Nsg118
(lp496
S'0x80cf215L'
p497
aS'0x80cf230L'
p498
asg121
Nsg122
Nsg123
S'559dcb575d0282955f48cbe35efda04c'
p499
sg125
S'b9cf1d222644546f98e9b45c954d54cb'
p500
sg127
(lp501
g386
ag393
ag400
ag407
ag414
ag421
ag428
ag435
ag442
ag449
ag456
ag463
ag470
ag477
asg129
Nsba(ibclass
BBasicBlock
p502
(dp503
g12
Nsg13
(lp504
(ibclass
BInstr
p505
(dp506
g2
Nsg17
S'mov     eax, [ebp+s]'
p507
sg19
S'8b4594'
p508
sg21
Vmov eax, dword ptr [ebp - 0x6c]
p509
sg5
L135066133L
sg6
Nsg23
S'mov'
p510
sg25
S'0x80cf215L'
p511
sg27
Nsba(ibclass
BInstr
p512
(dp513
g2
Nsg17
S'mov     dword ptr [eax+18h], 3'
p514
sg19
S'c7401803000000'
p515
sg21
Vmov dword ptr [eax + 0x18], 3
p516
sg5
L135066136L
sg6
Nsg23
S'mov'
p517
sg25
S'0x80cf218L'
p518
sg27
Nsba(ibclass
BInstr
p519
(dp520
g2
Nsg17
S'mov     eax, [ebp+ok]'
p521
sg19
S'8b4590'
p522
sg21
Vmov eax, dword ptr [ebp - 0x70]
p523
sg5
L135066143L
sg6
Nsg23
S'mov'
p524
sg25
S'0x80cf21fL'
p525
sg27
Nsba(ibclass
BInstr
p526
(dp527
g2
Nsg17
S'mov     dword ptr [eax], 0'
p528
sg19
S'c70000000000'
p529
sg21
Vmov dword ptr [eax], 0
p530
sg5
L135066146L
sg6
Nsg23
S'mov'
p531
sg25
S'0x80cf222L'
p532
sg27
Nsba(ibclass
BInstr
p533
(dp534
g2
Nsg17
S'mov     eax, [ebp+i]'
p535
sg19
S'8b45a4'
p536
sg21
Vmov eax, dword ptr [ebp - 0x5c]
p537
sg5
L135066152L
sg6
Nsg23
S'mov'
p538
sg25
S'0x80cf228L'
p539
sg27
Nsba(ibclass
BInstr
p540
(dp541
g2
Nsg17
S'jmp     loc_80CF508'
p542
sg19
S'e9d8020000'
p543
sg21
Vjmp 0x2dd
p544
sg5
L135066155L
sg6
Nsg23
S'jmp'
p545
sg25
S'0x80cf22bL'
p546
sg27
Nsbasg105
(lp547
Vmov eax, mem
p548
aVmov mem, 3
p549
aVmov eax, mem
p550
aVmov mem, 0
p551
aVmov eax, mem
p552
aVjmp address
p553
asg114
Nsg5
S'0x80cf215L'
p554
sg116
(lp555
S'0x80cf1dcL'
p556
asg6
Nsg118
(lp557
S'0x80cf508L'
p558
asg121
Nsg122
Nsg123
S'0463370f36822ef7fc7bb62bfe9c1679'
p559
sg125
S'5d1ad94194431a0ffac988da207eb71c'
p560
sg127
(lp561
g510
ag517
ag524
ag531
ag538
ag545
asg129
Nsba(ibclass
BBasicBlock
p562
(dp563
g12
Nsg13
(lp564
(ibclass
BInstr
p565
(dp566
g2
Nsg17
S'cmp     [ebp+i], 0Ch'
p567
sg19
S'837da40c'
p568
sg21
Vcmp dword ptr [ebp - 0x5c], 0xc
p569
sg5
L135066160L
sg6
Nsg23
S'cmp'
p570
sg25
S'0x80cf230L'
p571
sg27
Nsba(ibclass
BInstr
p572
(dp573
g2
Nsg17
S'jz      short loc_80CF26E'
p574
sg19
S'7438'
p575
sg21
Vje 0x3a
p576
sg5
L135066164L
sg6
Nsg23
S'jz'
p577
sg25
S'0x80cf234L'
p578
sg27
Nsbasg105
(lp579
Vcmp mem, address
p580
aVje address
p581
asg114
Nsg5
S'0x80cf230L'
p582
sg116
(lp583
S'0x80cf1dcL'
p584
asg6
Nsg118
(lp585
S'0x80cf236L'
p586
aS'0x80cf26eL'
p587
asg121
Nsg122
Nsg123
S'613dbc2b0cb9d6264d802b24d709daea'
p588
sg125
S'a71dad44334cf4f99131d54b8242967c'
p589
sg127
(lp590
g570
ag577
asg129
Nsba(ibclass
BBasicBlock
p591
(dp592
g12
Nsg13
(lp593
(ibclass
BInstr
p594
(dp595
g2
Nsg17
S'mov     [ebp+al_0], 0Ah'
p596
sg19
S'c745a80a000000'
p597
sg21
Vmov dword ptr [ebp - 0x58], 0xa
p598
sg5
L135066166L
sg6
Nsg23
S'mov'
p599
sg25
S'0x80cf236L'
p600
sg27
Nsba(ibclass
BInstr
p601
(dp602
g2
Nsg17
S'mov     dword ptr [esp+10h], 361h; line'
p603
sg19
S'c744241061030000'
p604
sg21
Vmov dword ptr [esp + 0x10], 0x361
p605
sg5
L135066173L
sg6
Nsg23
S'mov'
p606
sg25
S'0x80cf23dL'
p607
sg27
Nsba(ibclass
BInstr
p608
(dp609
g2
Nsg17
S'mov     dword ptr [esp+0Ch], offset aD1_both_c; "d1_both.c"'
p610
sg19
S'c744240c00692108'
p611
sg21
Vmov dword ptr [esp + 0xc], 0x8216900
p612
sg5
L135066181L
sg6
Nsg23
S'mov'
p613
sg25
S'0x80cf245L'
p614
sg27
Nsba(ibclass
BInstr
p615
(dp616
g2
Nsg17
S'mov     dword ptr [esp+8], 0F4h; reason'
p617
sg19
S'c7442408f4000000'
p618
sg21
Vmov dword ptr [esp + 8], 0xf4
p619
sg5
L135066189L
sg6
Nsg23
S'mov'
p620
sg25
S'0x80cf24dL'
p621
sg27
Nsba(ibclass
BInstr
p622
(dp623
g2
Nsg17
S'mov     dword ptr [esp+4], 0FDh; func'
p624
sg19
S'c7442404fd000000'
p625
sg21
Vmov dword ptr [esp + 4], 0xfd
p626
sg5
L135066197L
sg6
Nsg23
S'mov'
p627
sg25
S'0x80cf255L'
p628
sg27
Nsba(ibclass
BInstr
p629
(dp630
g2
Nsg17
S'mov     dword ptr [esp], 14h; lib'
p631
sg19
S'c7042414000000'
p632
sg21
Vmov dword ptr [esp], 0x14
p633
sg5
L135066205L
sg6
Nsg23
S'mov'
p634
sg25
S'0x80cf25dL'
p635
sg27
Nsba(ibclass
BInstr
p636
(dp637
g2
Nsg17
S'call    ERR_put_error'
p638
sg19
S'e864ef0600'
p639
sg21
Vcall 0x6ef69
p640
sg5
L135066212L
sg6
Nsg23
S'call'
p641
sg25
S'0x80cf264L'
p642
sg27
Nsba(ibclass
BInstr
p643
(dp644
g2
Nsg17
S'jmp     f_err'
p645
sg19
S'e968020000'
p646
sg21
Vjmp 0x26d
p647
sg5
L135066217L
sg6
Nsg23
S'jmp'
p648
sg25
S'0x80cf269L'
p649
sg27
Nsbasg105
(lp650
Vmov mem, address
p651
aVmov mem, address
p652
aVmov mem, address
p653
aVmov mem, address
p654
aVmov mem, address
p655
aVmov mem, address
p656
aVcall address
p657
aVjmp address
p658
asg114
Nsg5
S'0x80cf236L'
p659
sg116
(lp660
S'0x80cf230L'
p661
asg6
Nsg118
(lp662
S'0x80cf4d6L'
p663
asg121
Nsg122
Nsg123
S'66a94b87b6be599163286cd5d033acb0'
p664
sg125
S'9ae564c3ff50b0b8b3b6c36a987dd05d'
p665
sg127
(lp666
g599
ag606
ag613
ag620
ag627
ag634
ag641
ag648
asg129
Nsba(ibclass
BBasicBlock
p667
(dp668
g12
Nsg13
(lp669
(ibclass
BInstr
p670
(dp671
g2
Nsg17
S'lea     eax, [ebp+msg_hdr]'
p672
sg19
S'8d45bc'
p673
sg21
Vlea eax, [ebp - 0x44]
p674
sg5
L135066222L
sg6
Nsg23
S'lea'
p675
sg25
S'0x80cf26eL'
p676
sg27
Nsba(ibclass
BInstr
p677
(dp678
g2
Nsg17
S'mov     [esp+4], eax    ; msg_hdr'
p679
sg19
S'89442404'
p680
sg21
Vmov dword ptr [esp + 4], eax
p681
sg5
L135066225L
sg6
Nsg23
S'mov'
p682
sg25
S'0x80cf271L'
p683
sg27
Nsba(ibclass
BInstr
p684
(dp685
g2
Nsg17
S'lea     eax, [ebp+wire]'
p686
sg19
S'8d45e8'
p687
sg21
Vlea eax, [ebp - 0x18]
p688
sg5
L135066229L
sg6
Nsg23
S'lea'
p689
sg25
S'0x80cf275L'
p690
sg27
Nsba(ibclass
BInstr
p691
(dp692
g2
Nsg17
S'mov     [esp], eax      ; data'
p693
sg19
S'890424'
p694
sg21
Vmov dword ptr [esp], eax
p695
sg5
L135066232L
sg6
Nsg23
S'mov'
p696
sg25
S'0x80cf278L'
p697
sg27
Nsba(ibclass
BInstr
p698
(dp699
g2
Nsg17
S'call    dtls1_get_message_header'
p700
sg19
S'e876130000'
p701
sg21
Vcall 0x137b
p702
sg5
L135066235L
sg6
Nsg23
S'call'
p703
sg25
S'0x80cf27bL'
p704
sg27
Nsba(ibclass
BInstr
p705
(dp706
g2
Nsg17
S'mov     edx, dword ptr [ebp+msg_hdr.seq]'
p707
sg19
S'8b55c4'
p708
sg21
Vmov edx, dword ptr [ebp - 0x3c]
p709
sg5
L135066240L
sg6
Nsg23
S'mov'
p710
sg25
S'0x80cf280L'
p711
sg27
Nsba(ibclass
BInstr
p712
(dp713
g2
Nsg17
S'mov     eax, [ebp+s]'
p714
sg19
S'8b4594'
p715
sg21
Vmov eax, dword ptr [ebp - 0x6c]
p716
sg5
L135066243L
sg6
Nsg23
S'mov'
p717
sg25
S'0x80cf283L'
p718
sg27
Nsba(ibclass
BInstr
p719
(dp720
g2
Nsg17
S'mov     eax, [eax+5Ch]'
p721
sg19
S'8b405c'
p722
sg21
Vmov eax, dword ptr [eax + 0x5c]
p723
sg5
L135066246L
sg6
Nsg23
S'mov'
p724
sg25
S'0x80cf286L'
p725
sg27
Nsba(ibclass
BInstr
p726
(dp727
g2
Nsg17
S'mov     eax, [eax+228h]'
p728
sg19
S'8b8028020000'
p729
sg21
Vmov eax, dword ptr [eax + 0x228]
p730
sg5
L135066249L
sg6
Nsg23
S'mov'
p731
sg25
S'0x80cf289L'
p732
sg27
Nsba(ibclass
BInstr
p733
(dp734
g2
Nsg17
S'cmp     dx, ax'
p735
sg19
S'6639c2'
p736
sg21
Vcmp dx, ax
p737
sg5
L135066255L
sg6
Nsg23
S'cmp'
p738
sg25
S'0x80cf28fL'
p739
sg27
Nsba(ibclass
BInstr
p740
(dp741
g2
Nsg17
S'jz      short loc_80CF2CB'
p742
sg19
S'7437'
p743
sg21
Vje 0x39
p744
sg5
L135066258L
sg6
Nsg23
S'jz'
p745
sg25
S'0x80cf292L'
p746
sg27
Nsbasg105
(lp747
Vlea eax, mem
p748
aVmov mem, eax
p749
aVlea eax, mem
p750
aVmov mem, eax
p751
aVcall address
p752
aVmov edx, mem
p753
aVmov eax, mem
p754
aVmov eax, mem
p755
aVmov eax, mem
p756
ag737
aVje address
p757
asg114
Nsg5
S'0x80cf26eL'
p758
sg116
(lp759
S'0x80cf230L'
p760
asg6
Nsg118
(lp761
S'0x80cf294L'
p762
aS'0x80cf2cbL'
p763
asg121
Nsg122
Nsg123
S'7f8daaf0b0e09dd43bb03a6e4612f1d5'
p764
sg125
S'b6317cc0455263fccda99a0cedba5c47'
p765
sg127
(lp766
g675
ag682
ag689
ag696
ag703
ag710
ag717
ag724
ag731
ag738
ag745
asg129
Nsba(ibclass
BBasicBlock
p767
(dp768
g12
Nsg13
(lp769
(ibclass
BInstr
p770
(dp771
g2
Nsg17
S'mov     eax, [ebp+s]'
p772
sg19
S'8b4594'
p773
sg21
Vmov eax, dword ptr [ebp - 0x6c]
p774
sg5
L135066260L
sg6
Nsg23
S'mov'
p775
sg25
S'0x80cf294L'
p776
sg27
Nsba(ibclass
BInstr
p777
(dp778
g2
Nsg17
S'mov     eax, [eax+5Ch]'
p779
sg19
S'8b405c'
p780
sg21
Vmov eax, dword ptr [eax + 0x5c]
p781
sg5
L135066263L
sg6
Nsg23
S'mov'
p782
sg25
S'0x80cf297L'
p783
sg27
Nsba(ibclass
BInstr
p784
(dp785
g2
Nsg17
S'mov     eax, [eax+254h]'
p786
sg19
S'8b8054020000'
p787
sg21
Vmov eax, dword ptr [eax + 0x254]
p788
sg5
L135066266L
sg6
Nsg23
S'mov'
p789
sg25
S'0x80cf29aL'
p790
sg27
Nsba(ibclass
BInstr
p791
(dp792
g2
Nsg17
S'test    eax, eax'
p793
sg19
S'85c0'
p794
sg21
Vtest eax, eax
p795
sg5
L135066272L
sg6
Nsg23
S'test'
p796
sg25
S'0x80cf2a0L'
p797
sg27
Nsba(ibclass
BInstr
p798
(dp799
g2
Nsg17
S'jz      short loc_80CF2AD'
p800
sg19
S'7409'
p801
sg21
Vje 0xb
p802
sg5
L135066274L
sg6
Nsg23
S'jz'
p803
sg25
S'0x80cf2a2L'
p804
sg27
Nsbasg105
(lp805
Vmov eax, mem
p806
aVmov eax, mem
p807
aVmov eax, mem
p808
ag795
aVje address
p809
asg114
Nsg5
S'0x80cf294L'
p810
sg116
(lp811
S'0x80cf26eL'
p812
asg6
Nsg118
(lp813
S'0x80cf2a4L'
p814
aS'0x80cf2adL'
p815
asg121
Nsg122
Nsg123
S'3b481658a4cce5e38656536ea99dca20'
p816
sg125
S'898163da4f2996c9bd80da28a84f3250'
p817
sg127
(lp818
g775
ag782
ag789
ag796
ag803
asg129
Nsba(ibclass
BBasicBlock
p819
(dp820
g12
Nsg13
(lp821
(ibclass
BInstr
p822
(dp823
g2
Nsg17
S'mov     eax, dword ptr [ebp+msg_hdr.seq]'
p824
sg19
S'8b45c4'
p825
sg21
Vmov eax, dword ptr [ebp - 0x3c]
p826
sg5
L135066276L
sg6
Nsg23
S'mov'
p827
sg25
S'0x80cf2a4L'
p828
sg27
Nsba(ibclass
BInstr
p829
(dp830
g2
Nsg17
S'cmp     ax, 1'
p831
sg19
S'6683f801'
p832
sg21
Vcmp ax, 1
p833
sg5
L135066279L
sg6
Nsg23
S'cmp'
p834
sg25
S'0x80cf2a7L'
p835
sg27
Nsba(ibclass
BInstr
p836
(dp837
g2
Nsg17
S'jz      short loc_80CF2CB'
p838
sg19
S'741e'
p839
sg21
Vje 0x20
p840
sg5
L135066283L
sg6
Nsg23
S'jz'
p841
sg25
S'0x80cf2abL'
p842
sg27
Nsbasg105
(lp843
Vmov eax, mem
p844
ag833
aVje address
p845
asg114
Nsg5
S'0x80cf2a4L'
p846
sg116
(lp847
S'0x80cf294L'
p848
asg6
Nsg118
(lp849
S'0x80cf2adL'
p850
aS'0x80cf2cbL'
p851
asg121
Nsg122
Nsg123
S'a243777572b9e90dbac56dca0e7de7ec'
p852
sg125
S'89df55794eb8ce32e3f23f7fd4674a68'
p853
sg127
(lp854
g827
ag834
ag841
asg129
Nsba(ibclass
BBasicBlock
p855
(dp856
g12
Nsg13
(lp857
(ibclass
BInstr
p858
(dp859
g2
Nsg17
S'mov     eax, [ebp+ok]'
p860
sg19
S'8b4590'
p861
sg21
Vmov eax, dword ptr [ebp - 0x70]
p862
sg5
L135066285L
sg6
Nsg23
S'mov'
p863
sg25
S'0x80cf2adL'
p864
sg27
Nsba(ibclass
BInstr
p865
(dp866
g2
Nsg17
S'mov     [esp+8], eax    ; ok'
p867
sg19
S'89442408'
p868
sg21
Vmov dword ptr [esp + 8], eax
p869
sg5
L135066288L
sg6
Nsg23
S'mov'
p870
sg25
S'0x80cf2b0L'
p871
sg27
Nsba(ibclass
BInstr
p872
(dp873
g2
Nsg17
S'lea     eax, [ebp+msg_hdr]'
p874
sg19
S'8d45bc'
p875
sg21
Vlea eax, [ebp - 0x44]
p876
sg5
L135066292L
sg6
Nsg23
S'lea'
p877
sg25
S'0x80cf2b4L'
p878
sg27
Nsba(ibclass
BInstr
p879
(dp880
g2
Nsg17
S'mov     [esp+4], eax    ; msg_hdr'
p881
sg19
S'89442404'
p882
sg21
Vmov dword ptr [esp + 4], eax
p883
sg5
L135066295L
sg6
Nsg23
S'mov'
p884
sg25
S'0x80cf2b7L'
p885
sg27
Nsba(ibclass
BInstr
p886
(dp887
g2
Nsg17
S'mov     eax, [ebp+s]'
p888
sg19
S'8b4594'
p889
sg21
Vmov eax, dword ptr [ebp - 0x6c]
p890
sg5
L135066299L
sg6
Nsg23
S'mov'
p891
sg25
S'0x80cf2bbL'
p892
sg27
Nsba(ibclass
BInstr
p893
(dp894
g2
Nsg17
S'mov     [esp], eax      ; s'
p895
sg19
S'890424'
p896
sg21
Vmov dword ptr [esp], eax
p897
sg5
L135066302L
sg6
Nsg23
S'mov'
p898
sg25
S'0x80cf2beL'
p899
sg27
Nsba(ibclass
BInstr
p900
(dp901
g2
Nsg17
S'call    dtls1_process_out_of_seq_message'
p902
sg19
S'e8e6faffff'
p903
sg21
Vcall 0xfffffaeb
p904
sg5
L135066305L
sg6
Nsg23
S'call'
p905
sg25
S'0x80cf2c1L'
p906
sg27
Nsba(ibclass
BInstr
p907
(dp908
g2
Nsg17
S'jmp     loc_80CF508'
p909
sg19
S'e93d020000'
p910
sg21
Vjmp 0x242
p911
sg5
L135066310L
sg6
Nsg23
S'jmp'
p912
sg25
S'0x80cf2c6L'
p913
sg27
Nsbasg105
(lp914
Vmov eax, mem
p915
aVmov mem, eax
p916
aVlea eax, mem
p917
aVmov mem, eax
p918
aVmov eax, mem
p919
aVmov mem, eax
p920
aVcall address
p921
aVjmp address
p922
asg114
Nsg5
S'0x80cf2adL'
p923
sg116
(lp924
S'0x80cf294L'
p925
aS'0x80cf2a4L'
p926
asg6
Nsg118
(lp927
S'0x80cf508L'
p928
asg121
Nsg122
Nsg123
S'7688a321880d20c6e0c9f1292361b7ec'
p929
sg125
S'3f27fcfdf400a0b9603edc36733cfc5d'
p930
sg127
(lp931
g863
ag870
ag877
ag884
ag891
ag898
ag905
ag912
asg129
Nsba(ibclass
BBasicBlock
p932
(dp933
g12
Nsg13
(lp934
(ibclass
BInstr
p935
(dp936
g2
Nsg17
S'mov     eax, [ebp+msg_hdr.msg_len]'
p937
sg19
S'8b45c0'
p938
sg21
Vmov eax, dword ptr [ebp - 0x40]
p939
sg5
L135066315L
sg6
Nsg23
S'mov'
p940
sg25
S'0x80cf2cbL'
p941
sg27
Nsba(ibclass
BInstr
p942
(dp943
g2
Nsg17
S'mov     [ebp+len], eax'
p944
sg19
S'8945b0'
p945
sg21
Vmov dword ptr [ebp - 0x50], eax
p946
sg5
L135066318L
sg6
Nsg23
S'mov'
p947
sg25
S'0x80cf2ceL'
p948
sg27
Nsba(ibclass
BInstr
p949
(dp950
g2
Nsg17
S'mov     eax, [ebp+msg_hdr.frag_off]'
p951
sg19
S'8b45c8'
p952
sg21
Vmov eax, dword ptr [ebp - 0x38]
p953
sg5
L135066321L
sg6
Nsg23
S'mov'
p954
sg25
S'0x80cf2d1L'
p955
sg27
Nsba(ibclass
BInstr
p956
(dp957
g2
Nsg17
S'mov     [ebp+frag_off], eax'
p958
sg19
S'8945b4'
p959
sg21
Vmov dword ptr [ebp - 0x4c], eax
p960
sg5
L135066324L
sg6
Nsg23
S'mov'
p961
sg25
S'0x80cf2d4L'
p962
sg27
Nsba(ibclass
BInstr
p963
(dp964
g2
Nsg17
S'mov     eax, [ebp+msg_hdr.frag_len]'
p965
sg19
S'8b45cc'
p966
sg21
Vmov eax, dword ptr [ebp - 0x34]
p967
sg5
L135066327L
sg6
Nsg23
S'mov'
p968
sg25
S'0x80cf2d7L'
p969
sg27
Nsba(ibclass
BInstr
p970
(dp971
g2
Nsg17
S'mov     [ebp+frag_len], eax'
p972
sg19
S'8945ac'
p973
sg21
Vmov dword ptr [ebp - 0x54], eax
p974
sg5
L135066330L
sg6
Nsg23
S'mov'
p975
sg25
S'0x80cf2daL'
p976
sg27
Nsba(ibclass
BInstr
p977
(dp978
g2
Nsg17
S'cmp     [ebp+frag_len], 0'
p979
sg19
S'837dac00'
p980
sg21
Vcmp dword ptr [ebp - 0x54], 0
p981
sg5
L135066333L
sg6
Nsg23
S'cmp'
p982
sg25
S'0x80cf2ddL'
p983
sg27
Nsba(ibclass
BInstr
p984
(dp985
g2
Nsg17
S'jz      short loc_80CF309'
p986
sg19
S'7426'
p987
sg21
Vje 0x28
p988
sg5
L135066337L
sg6
Nsg23
S'jz'
p989
sg25
S'0x80cf2e1L'
p990
sg27
Nsbasg105
(lp991
Vmov eax, mem
p992
aVmov mem, eax
p993
aVmov eax, mem
p994
aVmov mem, eax
p995
aVmov eax, mem
p996
aVmov mem, eax
p997
aVcmp mem, 0
p998
aVje address
p999
asg114
Nsg5
S'0x80cf2cbL'
p1000
sg116
(lp1001
S'0x80cf26eL'
p1002
aS'0x80cf2a4L'
p1003
asg6
Nsg118
(lp1004
S'0x80cf2e3L'
p1005
aS'0x80cf309L'
p1006
asg121
Nsg122
Nsg123
S'b4680a8b4a51d3cae4ef142e18eb9449'
p1007
sg125
S'09532e36f003f631d22a990625ccaea6'
p1008
sg127
(lp1009
g940
ag947
ag954
ag961
ag968
ag975
ag982
ag989
asg129
Nsba(ibclass
BBasicBlock
p1010
(dp1011
g12
Nsg13
(lp1012
(ibclass
BInstr
p1013
(dp1014
g2
Nsg17
S'mov     eax, [ebp+frag_len]'
p1015
sg19
S'8b45ac'
p1016
sg21
Vmov eax, dword ptr [ebp - 0x54]
p1017
sg5
L135066339L
sg6
Nsg23
S'mov'
p1018
sg25
S'0x80cf2e3L'
p1019
sg27
Nsba(ibclass
BInstr
p1020
(dp1021
g2
Nsg17
S'cmp     eax, [ebp+len]'
p1022
sg19
S'3b45b0'
p1023
sg21
Vcmp eax, dword ptr [ebp - 0x50]
p1024
sg5
L135066342L
sg6
Nsg23
S'cmp'
p1025
sg25
S'0x80cf2e6L'
p1026
sg27
Nsba(ibclass
BInstr
p1027
(dp1028
g2
Nsg17
S'jnb     short loc_80CF309'
p1029
sg19
S'731e'
p1030
sg21
Vjae 0x20
p1031
sg5
L135066345L
sg6
Nsg23
S'jnb'
p1032
sg25
S'0x80cf2e9L'
p1033
sg27
Nsbasg105
(lp1034
Vmov eax, mem
p1035
aVcmp eax, mem
p1036
aVjae address
p1037
asg114
Nsg5
S'0x80cf2e3L'
p1038
sg116
(lp1039
S'0x80cf2cbL'
p1040
asg6
Nsg118
(lp1041
S'0x80cf2ebL'
p1042
aS'0x80cf309L'
p1043
asg121
Nsg122
Nsg123
S'47bef658ef5b239fdcd9752a9c8b0fce'
p1044
sg125
S'ce7c62babba416a094b0b6ff02530680'
p1045
sg127
(lp1046
g1018
ag1025
ag1032
asg129
Nsba(ibclass
BBasicBlock
p1047
(dp1048
g12
Nsg13
(lp1049
(ibclass
BInstr
p1050
(dp1051
g2
Nsg17
S'mov     eax, [ebp+ok]'
p1052
sg19
S'8b4590'
p1053
sg21
Vmov eax, dword ptr [ebp - 0x70]
p1054
sg5
L135066347L
sg6
Nsg23
S'mov'
p1055
sg25
S'0x80cf2ebL'
p1056
sg27
Nsba(ibclass
BInstr
p1057
(dp1058
g2
Nsg17
S'mov     [esp+8], eax    ; ok'
p1059
sg19
S'89442408'
p1060
sg21
Vmov dword ptr [esp + 8], eax
p1061
sg5
L135066350L
sg6
Nsg23
S'mov'
p1062
sg25
S'0x80cf2eeL'
p1063
sg27
Nsba(ibclass
BInstr
p1064
(dp1065
g2
Nsg17
S'lea     eax, [ebp+msg_hdr]'
p1066
sg19
S'8d45bc'
p1067
sg21
Vlea eax, [ebp - 0x44]
p1068
sg5
L135066354L
sg6
Nsg23
S'lea'
p1069
sg25
S'0x80cf2f2L'
p1070
sg27
Nsba(ibclass
BInstr
p1071
(dp1072
g2
Nsg17
S'mov     [esp+4], eax    ; msg_hdr'
p1073
sg19
S'89442404'
p1074
sg21
Vmov dword ptr [esp + 4], eax
p1075
sg5
L135066357L
sg6
Nsg23
S'mov'
p1076
sg25
S'0x80cf2f5L'
p1077
sg27
Nsba(ibclass
BInstr
p1078
(dp1079
g2
Nsg17
S'mov     eax, [ebp+s]'
p1080
sg19
S'8b4594'
p1081
sg21
Vmov eax, dword ptr [ebp - 0x6c]
p1082
sg5
L135066361L
sg6
Nsg23
S'mov'
p1083
sg25
S'0x80cf2f9L'
p1084
sg27
Nsba(ibclass
BInstr
p1085
(dp1086
g2
Nsg17
S'mov     [esp], eax      ; s'
p1087
sg19
S'890424'
p1088
sg21
Vmov dword ptr [esp], eax
p1089
sg5
L135066364L
sg6
Nsg23
S'mov'
p1090
sg25
S'0x80cf2fcL'
p1091
sg27
Nsba(ibclass
BInstr
p1092
(dp1093
g2
Nsg17
S'call    dtls1_reassemble_fragment'
p1094
sg19
S'e88af4ffff'
p1095
sg21
Vcall 0xfffff48f
p1096
sg5
L135066367L
sg6
Nsg23
S'call'
p1097
sg25
S'0x80cf2ffL'
p1098
sg27
Nsba(ibclass
BInstr
p1099
(dp1100
g2
Nsg17
S'jmp     loc_80CF508'
p1101
sg19
S'e9ff010000'
p1102
sg21
Vjmp 0x204
p1103
sg5
L135066372L
sg6
Nsg23
S'jmp'
p1104
sg25
S'0x80cf304L'
p1105
sg27
Nsbasg105
(lp1106
Vmov eax, mem
p1107
aVmov mem, eax
p1108
aVlea eax, mem
p1109
aVmov mem, eax
p1110
aVmov eax, mem
p1111
aVmov mem, eax
p1112
aVcall address
p1113
aVjmp address
p1114
asg114
Nsg5
S'0x80cf2ebL'
p1115
sg116
(lp1116
S'0x80cf2e3L'
p1117
asg6
Nsg118
(lp1118
S'0x80cf508L'
p1119
asg121
Nsg122
Nsg123
S'7688a321880d20c6e0c9f1292361b7ec'
p1120
sg125
S'3f27fcfdf400a0b9603edc36733cfc5d'
p1121
sg127
(lp1122
g1055
ag1062
ag1069
ag1076
ag1083
ag1090
ag1097
ag1104
asg129
Nsba(ibclass
BBasicBlock
p1123
(dp1124
g12
Nsg13
(lp1125
(ibclass
BInstr
p1126
(dp1127
g2
Nsg17
S'mov     eax, [ebp+s]'
p1128
sg19
S'8b4594'
p1129
sg21
Vmov eax, dword ptr [ebp - 0x6c]
p1130
sg5
L135066377L
sg6
Nsg23
S'mov'
p1131
sg25
S'0x80cf309L'
p1132
sg27
Nsba(ibclass
BInstr
p1133
(dp1134
g2
Nsg17
S'mov     eax, [eax+24h]'
p1135
sg19
S'8b4024'
p1136
sg21
Vmov eax, dword ptr [eax + 0x24]
p1137
sg5
L135066380L
sg6
Nsg23
S'mov'
p1138
sg25
S'0x80cf30cL'
p1139
sg27
Nsba(ibclass
BInstr
p1140
(dp1141
g2
Nsg17
S'test    eax, eax'
p1142
sg19
S'85c0'
p1143
sg21
Vtest eax, eax
p1144
sg5
L135066383L
sg6
Nsg23
S'test'
p1145
sg25
S'0x80cf30fL'
p1146
sg27
Nsba(ibclass
BInstr
p1147
(dp1148
g2
Nsg17
S'jnz     loc_80CF3DC'
p1149
sg19
S'0f85c5000000'
p1150
sg21
Vjne 0xcb
p1151
sg5
L135066385L
sg6
Nsg23
S'jnz'
p1152
sg25
S'0x80cf311L'
p1153
sg27
Nsbasg105
(lp1154
Vmov eax, mem
p1155
aVmov eax, mem
p1156
ag1144
aVjne address
p1157
asg114
Nsg5
S'0x80cf309L'
p1158
sg116
(lp1159
S'0x80cf2cbL'
p1160
aS'0x80cf2e3L'
p1161
asg6
Nsg118
(lp1162
S'0x80cf317L'
p1163
aS'0x80cf3dcL'
p1164
asg121
Nsg122
Nsg123
S'c659dbb3567582fe193bedd2c7eccb80'
p1165
sg125
S'bf49e6fb415bfa3724765cd6082e6314'
p1166
sg127
(lp1167
g1131
ag1138
ag1145
ag1152
asg129
Nsba(ibclass
BBasicBlock
p1168
(dp1169
g12
Nsg13
(lp1170
(ibclass
BInstr
p1171
(dp1172
g2
Nsg17
S'mov     eax, [ebp+s]'
p1173
sg19
S'8b4594'
p1174
sg21
Vmov eax, dword ptr [ebp - 0x6c]
p1175
sg5
L135066391L
sg6
Nsg23
S'mov'
p1176
sg25
S'0x80cf317L'
p1177
sg27
Nsba(ibclass
BInstr
p1178
(dp1179
g2
Nsg17
S'mov     eax, [eax+5Ch]'
p1180
sg19
S'8b405c'
p1181
sg21
Vmov eax, dword ptr [eax + 0x5c]
p1182
sg5
L135066394L
sg6
Nsg23
S'mov'
p1183
sg25
S'0x80cf31aL'
p1184
sg27
Nsba(ibclass
BInstr
p1185
(dp1186
g2
Nsg17
S'mov     eax, [eax+298h]'
p1187
sg19
S'8b8098020000'
p1188
sg21
Vmov eax, dword ptr [eax + 0x298]
p1189
sg5
L135066397L
sg6
Nsg23
S'mov'
p1190
sg25
S'0x80cf31dL'
p1191
sg27
Nsba(ibclass
BInstr
p1192
(dp1193
g2
Nsg17
S'test    eax, eax'
p1194
sg19
S'85c0'
p1195
sg21
Vtest eax, eax
p1196
sg5
L135066403L
sg6
Nsg23
S'test'
p1197
sg25
S'0x80cf323L'
p1198
sg27
Nsba(ibclass
BInstr
p1199
(dp1200
g2
Nsg17
S'jnz     loc_80CF3DC'
p1201
sg19
S'0f85b1000000'
p1202
sg21
Vjne 0xb7
p1203
sg5
L135066405L
sg6
Nsg23
S'jnz'
p1204
sg25
S'0x80cf325L'
p1205
sg27
Nsbasg105
(lp1206
Vmov eax, mem
p1207
aVmov eax, mem
p1208
aVmov eax, mem
p1209
ag1196
aVjne address
p1210
asg114
Nsg5
S'0x80cf317L'
p1211
sg116
(lp1212
S'0x80cf309L'
p1213
asg6
Nsg118
(lp1214
S'0x80cf32bL'
p1215
aS'0x80cf3dcL'
p1216
asg121
Nsg122
Nsg123
S'2689ee3066a6dd038e1106929329c4c8'
p1217
sg125
S'ec1f34505072678a0af6720f719c527c'
p1218
sg127
(lp1219
g1176
ag1183
ag1190
ag1197
ag1204
asg129
Nsba(ibclass
BBasicBlock
p1220
(dp1221
g12
Nsg13
(lp1222
(ibclass
BInstr
p1223
(dp1224
g2
Nsg17
S'mov     al, [ebp+wire]'
p1225
sg19
S'8a45e8'
p1226
sg21
Vmov al, byte ptr [ebp - 0x18]
p1227
sg5
L135066411L
sg6
Nsg23
S'mov'
p1228
sg25
S'0x80cf32bL'
p1229
sg27
Nsba(ibclass
BInstr
p1230
(dp1231
g2
Nsg17
S'test    al, al'
p1232
sg19
S'84c0'
p1233
sg21
Vtest al, al
p1234
sg5
L135066414L
sg6
Nsg23
S'test'
p1235
sg25
S'0x80cf32eL'
p1236
sg27
Nsba(ibclass
BInstr
p1237
(dp1238
g2
Nsg17
S'jnz     loc_80CF3DC'
p1239
sg19
S'0f85a6000000'
p1240
sg21
Vjne 0xac
p1241
sg5
L135066416L
sg6
Nsg23
S'jnz'
p1242
sg25
S'0x80cf330L'
p1243
sg27
Nsbasg105
(lp1244
Vmov al, mem
p1245
ag1234
aVjne address
p1246
asg114
Nsg5
S'0x80cf32bL'
p1247
sg116
(lp1248
S'0x80cf317L'
p1249
asg6
Nsg118
(lp1250
S'0x80cf336L'
p1251
aS'0x80cf3dcL'
p1252
asg121
Nsg122
Nsg123
S'a6d8ad6ec923c77b5487e3deac08e465'
p1253
sg125
S'2304562f173f65a8e7416b3eb17ad4a2'
p1254
sg127
(lp1255
g1228
ag1235
ag1242
asg129
Nsba(ibclass
BBasicBlock
p1256
(dp1257
g12
Nsg13
(lp1258
(ibclass
BInstr
p1259
(dp1260
g2
Nsg17
S'mov     al, [ebp+wire+1]'
p1261
sg19
S'8a45e9'
p1262
sg21
Vmov al, byte ptr [ebp - 0x17]
p1263
sg5
L135066422L
sg6
Nsg23
S'mov'
p1264
sg25
S'0x80cf336L'
p1265
sg27
Nsba(ibclass
BInstr
p1266
(dp1267
g2
Nsg17
S'test    al, al'
p1268
sg19
S'84c0'
p1269
sg21
Vtest al, al
p1270
sg5
L135066425L
sg6
Nsg23
S'test'
p1271
sg25
S'0x80cf339L'
p1272
sg27
Nsba(ibclass
BInstr
p1273
(dp1274
g2
Nsg17
S'jnz     short loc_80CF3A4'
p1275
sg19
S'7567'
p1276
sg21
Vjne 0x69
p1277
sg5
L135066427L
sg6
Nsg23
S'jnz'
p1278
sg25
S'0x80cf33bL'
p1279
sg27
Nsbasg105
(lp1280
Vmov al, mem
p1281
ag1270
aVjne address
p1282
asg114
Nsg5
S'0x80cf336L'
p1283
sg116
(lp1284
S'0x80cf32bL'
p1285
asg6
Nsg118
(lp1286
S'0x80cf33dL'
p1287
aS'0x80cf3a4L'
p1288
asg121
Nsg122
Nsg123
S'a6d8ad6ec923c77b5487e3deac08e465'
p1289
sg125
S'2304562f173f65a8e7416b3eb17ad4a2'
p1290
sg127
(lp1291
g1264
ag1271
ag1278
asg129
Nsba(ibclass
BBasicBlock
p1292
(dp1293
g12
Nsg13
(lp1294
(ibclass
BInstr
p1295
(dp1296
g2
Nsg17
S'mov     al, [ebp+wire+2]'
p1297
sg19
S'8a45ea'
p1298
sg21
Vmov al, byte ptr [ebp - 0x16]
p1299
sg5
L135066429L
sg6
Nsg23
S'mov'
p1300
sg25
S'0x80cf33dL'
p1301
sg27
Nsba(ibclass
BInstr
p1302
(dp1303
g2
Nsg17
S'test    al, al'
p1304
sg19
S'84c0'
p1305
sg21
Vtest al, al
p1306
sg5
L135066432L
sg6
Nsg23
S'test'
p1307
sg25
S'0x80cf340L'
p1308
sg27
Nsba(ibclass
BInstr
p1309
(dp1310
g2
Nsg17
S'jnz     short loc_80CF3A4'
p1311
sg19
S'7560'
p1312
sg21
Vjne 0x62
p1313
sg5
L135066434L
sg6
Nsg23
S'jnz'
p1314
sg25
S'0x80cf342L'
p1315
sg27
Nsbasg105
(lp1316
Vmov al, mem
p1317
ag1306
aVjne address
p1318
asg114
Nsg5
S'0x80cf33dL'
p1319
sg116
(lp1320
S'0x80cf336L'
p1321
asg6
Nsg118
(lp1322
S'0x80cf344L'
p1323
aS'0x80cf3a4L'
p1324
asg121
Nsg122
Nsg123
S'a6d8ad6ec923c77b5487e3deac08e465'
p1325
sg125
S'2304562f173f65a8e7416b3eb17ad4a2'
p1326
sg127
(lp1327
g1300
ag1307
ag1314
asg129
Nsba(ibclass
BBasicBlock
p1328
(dp1329
g12
Nsg13
(lp1330
(ibclass
BInstr
p1331
(dp1332
g2
Nsg17
S'mov     al, [ebp+wire+3]'
p1333
sg19
S'8a45eb'
p1334
sg21
Vmov al, byte ptr [ebp - 0x15]
p1335
sg5
L135066436L
sg6
Nsg23
S'mov'
p1336
sg25
S'0x80cf344L'
p1337
sg27
Nsba(ibclass
BInstr
p1338
(dp1339
g2
Nsg17
S'test    al, al'
p1340
sg19
S'84c0'
p1341
sg21
Vtest al, al
p1342
sg5
L135066439L
sg6
Nsg23
S'test'
p1343
sg25
S'0x80cf347L'
p1344
sg27
Nsba(ibclass
BInstr
p1345
(dp1346
g2
Nsg17
S'jnz     short loc_80CF3A4'
p1347
sg19
S'7559'
p1348
sg21
Vjne 0x5b
p1349
sg5
L135066441L
sg6
Nsg23
S'jnz'
p1350
sg25
S'0x80cf349L'
p1351
sg27
Nsbasg105
(lp1352
Vmov al, mem
p1353
ag1342
aVjne address
p1354
asg114
Nsg5
S'0x80cf344L'
p1355
sg116
(lp1356
S'0x80cf33dL'
p1357
asg6
Nsg118
(lp1358
S'0x80cf34bL'
p1359
aS'0x80cf3a4L'
p1360
asg121
Nsg122
Nsg123
S'a6d8ad6ec923c77b5487e3deac08e465'
p1361
sg125
S'2304562f173f65a8e7416b3eb17ad4a2'
p1362
sg127
(lp1363
g1336
ag1343
ag1350
asg129
Nsba(ibclass
BBasicBlock
p1364
(dp1365
g12
Nsg13
(lp1366
(ibclass
BInstr
p1367
(dp1368
g2
Nsg17
S'mov     eax, [ebp+s]'
p1369
sg19
S'8b4594'
p1370
sg21
Vmov eax, dword ptr [ebp - 0x6c]
p1371
sg5
L135066443L
sg6
Nsg23
S'mov'
p1372
sg25
S'0x80cf34bL'
p1373
sg27
Nsba(ibclass
BInstr
p1374
(dp1375
g2
Nsg17
S'mov     eax, [eax+64h]'
p1376
sg19
S'8b4064'
p1377
sg21
Vmov eax, dword ptr [eax + 0x64]
p1378
sg5
L135066446L
sg6
Nsg23
S'mov'
p1379
sg25
S'0x80cf34eL'
p1380
sg27
Nsba(ibclass
BInstr
p1381
(dp1382
g2
Nsg17
S'test    eax, eax'
p1383
sg19
S'85c0'
p1384
sg21
Vtest eax, eax
p1385
sg5
L135066449L
sg6
Nsg23
S'test'
p1386
sg25
S'0x80cf351L'
p1387
sg27
Nsba(ibclass
BInstr
p1388
(dp1389
g2
Nsg17
S'jz      short loc_80CF395'
p1390
sg19
S'7440'
p1391
sg21
Vje 0x42
p1392
sg5
L135066451L
sg6
Nsg23
S'jz'
p1393
sg25
S'0x80cf353L'
p1394
sg27
Nsbasg105
(lp1395
Vmov eax, mem
p1396
aVmov eax, mem
p1397
ag1385
aVje address
p1398
asg114
Nsg5
S'0x80cf34bL'
p1399
sg116
(lp1400
S'0x80cf344L'
p1401
asg6
Nsg118
(lp1402
S'0x80cf355L'
p1403
aS'0x80cf395L'
p1404
asg121
Nsg122
Nsg123
S'ea5d08c7dcc07640d42787f826218f11'
p1405
sg125
S'103b924e2a82731ce51d187b2e41af3a'
p1406
sg127
(lp1407
g1372
ag1379
ag1386
ag1393
asg129
Nsba(ibclass
BBasicBlock
p1408
(dp1409
g12
Nsg13
(lp1410
(ibclass
BInstr
p1411
(dp1412
g2
Nsg17
S'mov     eax, [ebp+s]'
p1413
sg19
S'8b4594'
p1414
sg21
Vmov eax, dword ptr [ebp - 0x6c]
p1415
sg5
L135066453L
sg6
Nsg23
S'mov'
p1416
sg25
S'0x80cf355L'
p1417
sg27
Nsba(ibclass
BInstr
p1418
(dp1419
g2
Nsg17
S'mov     eax, [eax+64h]'
p1420
sg19
S'8b4064'
p1421
sg21
Vmov eax, dword ptr [eax + 0x64]
p1422
sg5
L135066456L
sg6
Nsg23
S'mov'
p1423
sg25
S'0x80cf358L'
p1424
sg27
Nsba(ibclass
BInstr
p1425
(dp1426
g2
Nsg17
S'mov     edx, [ebp+s]'
p1427
sg19
S'8b5594'
p1428
sg21
Vmov edx, dword ptr [ebp - 0x6c]
p1429
sg5
L135066459L
sg6
Nsg23
S'mov'
p1430
sg25
S'0x80cf35bL'
p1431
sg27
Nsba(ibclass
BInstr
p1432
(dp1433
g2
Nsg17
S'mov     ecx, [edx+68h]'
p1434
sg19
S'8b4a68'
p1435
sg21
Vmov ecx, dword ptr [edx + 0x68]
p1436
sg5
L135066462L
sg6
Nsg23
S'mov'
p1437
sg25
S'0x80cf35eL'
p1438
sg27
Nsba(ibclass
BInstr
p1439
(dp1440
g2
Nsg17
S'mov     edx, [ebp+s]'
p1441
sg19
S'8b5594'
p1442
sg21
Vmov edx, dword ptr [ebp - 0x6c]
p1443
sg5
L135066465L
sg6
Nsg23
S'mov'
p1444
sg25
S'0x80cf361L'
p1445
sg27
Nsba(ibclass
BInstr
p1446
(dp1447
g2
Nsg17
S'mov     edx, [edx]'
p1448
sg19
S'8b12'
p1449
sg21
Vmov edx, dword ptr [edx]
p1450
sg5
L135066468L
sg6
Nsg23
S'mov'
p1451
sg25
S'0x80cf364L'
p1452
sg27
Nsba(ibclass
BInstr
p1453
(dp1454
g2
Nsg17
S'mov     [esp+18h], ecx'
p1455
sg19
S'894c2418'
p1456
sg21
Vmov dword ptr [esp + 0x18], ecx
p1457
sg5
L135066470L
sg6
Nsg23
S'mov'
p1458
sg25
S'0x80cf366L'
p1459
sg27
Nsba(ibclass
BInstr
p1460
(dp1461
g2
Nsg17
S'mov     ecx, [ebp+s]'
p1462
sg19
S'8b4d94'
p1463
sg21
Vmov ecx, dword ptr [ebp - 0x6c]
p1464
sg5
L135066474L
sg6
Nsg23
S'mov'
p1465
sg25
S'0x80cf36aL'
p1466
sg27
Nsba(ibclass
BInstr
p1467
(dp1468
g2
Nsg17
S'mov     [esp+14h], ecx'
p1469
sg19
S'894c2414'
p1470
sg21
Vmov dword ptr [esp + 0x14], ecx
p1471
sg5
L135066477L
sg6
Nsg23
S'mov'
p1472
sg25
S'0x80cf36dL'
p1473
sg27
Nsba(ibclass
BInstr
p1474
(dp1475
g2
Nsg17
S'mov     dword ptr [esp+10h], 0Ch'
p1476
sg19
S'c74424100c000000'
p1477
sg21
Vmov dword ptr [esp + 0x10], 0xc
p1478
sg5
L135066481L
sg6
Nsg23
S'mov'
p1479
sg25
S'0x80cf371L'
p1480
sg27
Nsba(ibclass
BInstr
p1481
(dp1482
g2
Nsg17
S'lea     ecx, [ebp+wire]'
p1483
sg19
S'8d4de8'
p1484
sg21
Vlea ecx, [ebp - 0x18]
p1485
sg5
L135066489L
sg6
Nsg23
S'lea'
p1486
sg25
S'0x80cf379L'
p1487
sg27
Nsba(ibclass
BInstr
p1488
(dp1489
g2
Nsg17
S'mov     [esp+0Ch], ecx'
p1490
sg19
S'894c240c'
p1491
sg21
Vmov dword ptr [esp + 0xc], ecx
p1492
sg5
L135066492L
sg6
Nsg23
S'mov'
p1493
sg25
S'0x80cf37cL'
p1494
sg27
Nsba(ibclass
BInstr
p1495
(dp1496
g2
Nsg17
S'mov     dword ptr [esp+8], 16h'
p1497
sg19
S'c744240816000000'
p1498
sg21
Vmov dword ptr [esp + 8], 0x16
p1499
sg5
L135066496L
sg6
Nsg23
S'mov'
p1500
sg25
S'0x80cf380L'
p1501
sg27
Nsba(ibclass
BInstr
p1502
(dp1503
g2
Nsg17
S'mov     [esp+4], edx'
p1504
sg19
S'89542404'
p1505
sg21
Vmov dword ptr [esp + 4], edx
p1506
sg5
L135066504L
sg6
Nsg23
S'mov'
p1507
sg25
S'0x80cf388L'
p1508
sg27
Nsba(ibclass
BInstr
p1509
(dp1510
g2
Nsg17
S'mov     dword ptr [esp], 0'
p1511
sg19
S'c7042400000000'
p1512
sg21
Vmov dword ptr [esp], 0
p1513
sg5
L135066508L
sg6
Nsg23
S'mov'
p1514
sg25
S'0x80cf38cL'
p1515
sg27
Nsba(ibclass
BInstr
p1516
(dp1517
g2
Nsg17
S'call    eax'
p1518
sg19
S'ffd0'
p1519
sg21
Vcall eax
p1520
sg5
L135066515L
sg6
Nsg23
S'call'
p1521
sg25
S'0x80cf393L'
p1522
sg27
Nsbasg105
(lp1523
Vmov eax, mem
p1524
aVmov eax, mem
p1525
aVmov edx, mem
p1526
aVmov ecx, mem
p1527
aVmov edx, mem
p1528
aVmov edx, mem
p1529
aVmov mem, ecx
p1530
aVmov ecx, mem
p1531
aVmov mem, ecx
p1532
aVmov mem, address
p1533
aVlea ecx, mem
p1534
aVmov mem, ecx
p1535
aVmov mem, address
p1536
aVmov mem, edx
p1537
aVmov mem, 0
p1538
ag1520
asg114
Nsg5
S'0x80cf355L'
p1539
sg116
(lp1540
S'0x80cf34bL'
p1541
asg6
Nsg118
(lp1542
S'0x80cf395L'
p1543
asg121
Nsg122
Nsg123
S'5b51744f28b4107491445986c14415b9'
p1544
sg125
S'355156d1eada17f4c14ad69d253d8f69'
p1545
sg127
(lp1546
g1416
ag1423
ag1430
ag1437
ag1444
ag1451
ag1458
ag1465
ag1472
ag1479
ag1486
ag1493
ag1500
ag1507
ag1514
ag1521
asg129
Nsba(ibclass
BBasicBlock
p1547
(dp1548
g12
Nsg13
(lp1549
(ibclass
BInstr
p1550
(dp1551
g2
Nsg17
S'mov     eax, [ebp+s]'
p1552
sg19
S'8b4594'
p1553
sg21
Vmov eax, dword ptr [ebp - 0x6c]
p1554
sg5
L135066517L
sg6
Nsg23
S'mov'
p1555
sg25
S'0x80cf395L'
p1556
sg27
Nsba(ibclass
BInstr
p1557
(dp1558
g2
Nsg17
S'mov     dword ptr [eax+44h], 0'
p1559
sg19
S'c7404400000000'
p1560
sg21
Vmov dword ptr [eax + 0x44], 0
p1561
sg5
L135066520L
sg6
Nsg23
S'mov'
p1562
sg25
S'0x80cf398L'
p1563
sg27
Nsba(ibclass
BInstr
p1564
(dp1565
g2
Nsg17
S'jmp     redo'
p1566
sg19
S'e9f3fdffff'
p1567
sg21
Vjmp 0xfffffdf8
p1568
sg5
L135066527L
sg6
Nsg23
S'jmp'
p1569
sg25
S'0x80cf39fL'
p1570
sg27
Nsbasg105
(lp1571
Vmov eax, mem
p1572
aVmov mem, 0
p1573
aVjmp address
p1574
asg114
Nsg5
S'0x80cf395L'
p1575
sg116
(lp1576
S'0x80cf34bL'
p1577
aS'0x80cf355L'
p1578
asg6
Nsg118
(lp1579
S'0x80cf197L'
p1580
asg121
Nsg122
Nsg123
S'20cd1770826306b20d13fbc820a22512'
p1581
sg125
S'805d06cbdb85bea40075b1b7068185a4'
p1582
sg127
(lp1583
g1555
ag1562
ag1569
asg129
Nsba(ibclass
BBasicBlock
p1584
(dp1585
g12
Nsg13
(lp1586
(ibclass
BInstr
p1587
(dp1588
g2
Nsg17
S'mov     [ebp+al_0], 0Ah'
p1589
sg19
S'c745a80a000000'
p1590
sg21
Vmov dword ptr [ebp - 0x58], 0xa
p1591
sg5
L135066532L
sg6
Nsg23
S'mov'
p1592
sg25
S'0x80cf3a4L'
p1593
sg27
Nsba(ibclass
BInstr
p1594
(dp1595
g2
Nsg17
S'mov     dword ptr [esp+10h], 38Ch; line'
p1596
sg19
S'c74424108c030000'
p1597
sg21
Vmov dword ptr [esp + 0x10], 0x38c
p1598
sg5
L135066539L
sg6
Nsg23
S'mov'
p1599
sg25
S'0x80cf3abL'
p1600
sg27
Nsba(ibclass
BInstr
p1601
(dp1602
g2
Nsg17
S'mov     dword ptr [esp+0Ch], offset aD1_both_c; "d1_both.c"'
p1603
sg19
S'c744240c00692108'
p1604
sg21
Vmov dword ptr [esp + 0xc], 0x8216900
p1605
sg5
L135066547L
sg6
Nsg23
S'mov'
p1606
sg25
S'0x80cf3b3L'
p1607
sg27
Nsba(ibclass
BInstr
p1608
(dp1609
g2
Nsg17
S'mov     dword ptr [esp+8], 0F4h; reason'
p1610
sg19
S'c7442408f4000000'
p1611
sg21
Vmov dword ptr [esp + 8], 0xf4
p1612
sg5
L135066555L
sg6
Nsg23
S'mov'
p1613
sg25
S'0x80cf3bbL'
p1614
sg27
Nsba(ibclass
BInstr
p1615
(dp1616
g2
Nsg17
S'mov     dword ptr [esp+4], 0FDh; func'
p1617
sg19
S'c7442404fd000000'
p1618
sg21
Vmov dword ptr [esp + 4], 0xfd
p1619
sg5
L135066563L
sg6
Nsg23
S'mov'
p1620
sg25
S'0x80cf3c3L'
p1621
sg27
Nsba(ibclass
BInstr
p1622
(dp1623
g2
Nsg17
S'mov     dword ptr [esp], 14h; lib'
p1624
sg19
S'c7042414000000'
p1625
sg21
Vmov dword ptr [esp], 0x14
p1626
sg5
L135066571L
sg6
Nsg23
S'mov'
p1627
sg25
S'0x80cf3cbL'
p1628
sg27
Nsba(ibclass
BInstr
p1629
(dp1630
g2
Nsg17
S'call    ERR_put_error'
p1631
sg19
S'e8f6ed0600'
p1632
sg21
Vcall 0x6edfb
p1633
sg5
L135066578L
sg6
Nsg23
S'call'
p1634
sg25
S'0x80cf3d2L'
p1635
sg27
Nsba(ibclass
BInstr
p1636
(dp1637
g2
Nsg17
S'jmp     f_err'
p1638
sg19
S'e9fa000000'
p1639
sg21
Vjmp 0xff
p1640
sg5
L135066583L
sg6
Nsg23
S'jmp'
p1641
sg25
S'0x80cf3d7L'
p1642
sg27
Nsbasg105
(lp1643
Vmov mem, address
p1644
aVmov mem, address
p1645
aVmov mem, address
p1646
aVmov mem, address
p1647
aVmov mem, address
p1648
aVmov mem, address
p1649
aVcall address
p1650
aVjmp address
p1651
asg114
Nsg5
S'0x80cf3a4L'
p1652
sg116
(lp1653
S'0x80cf336L'
p1654
aS'0x80cf33dL'
p1655
aS'0x80cf344L'
p1656
asg6
Nsg118
(lp1657
S'0x80cf4d6L'
p1658
asg121
Nsg122
Nsg123
S'66a94b87b6be599163286cd5d033acb0'
p1659
sg125
S'9ae564c3ff50b0b8b3b6c36a987dd05d'
p1660
sg127
(lp1661
g1592
ag1599
ag1606
ag1613
ag1620
ag1627
ag1634
ag1641
asg129
Nsba(ibclass
BBasicBlock
p1662
(dp1663
g12
Nsg13
(lp1664
(ibclass
BInstr
p1665
(dp1666
g2
Nsg17
S'mov     eax, [ebp+max]'
p1667
sg19
S'8b4514'
p1668
sg21
Vmov eax, dword ptr [ebp + 0x14]
p1669
sg5
L135066588L
sg6
Nsg23
S'mov'
p1670
sg25
S'0x80cf3dcL'
p1671
sg27
Nsba(ibclass
BInstr
p1672
(dp1673
g2
Nsg17
S'mov     [esp+8], eax    ; max'
p1674
sg19
S'89442408'
p1675
sg21
Vmov dword ptr [esp + 8], eax
p1676
sg5
L135066591L
sg6
Nsg23
S'mov'
p1677
sg25
S'0x80cf3dfL'
p1678
sg27
Nsba(ibclass
BInstr
p1679
(dp1680
g2
Nsg17
S'lea     eax, [ebp+msg_hdr]'
p1681
sg19
S'8d45bc'
p1682
sg21
Vlea eax, [ebp - 0x44]
p1683
sg5
L135066595L
sg6
Nsg23
S'lea'
p1684
sg25
S'0x80cf3e3L'
p1685
sg27
Nsba(ibclass
BInstr
p1686
(dp1687
g2
Nsg17
S'mov     [esp+4], eax    ; msg_hdr'
p1688
sg19
S'89442404'
p1689
sg21
Vmov dword ptr [esp + 4], eax
p1690
sg5
L135066598L
sg6
Nsg23
S'mov'
p1691
sg25
S'0x80cf3e6L'
p1692
sg27
Nsba(ibclass
BInstr
p1693
(dp1694
g2
Nsg17
S'mov     eax, [ebp+s]'
p1695
sg19
S'8b4594'
p1696
sg21
Vmov eax, dword ptr [ebp - 0x6c]
p1697
sg5
L135066602L
sg6
Nsg23
S'mov'
p1698
sg25
S'0x80cf3eaL'
p1699
sg27
Nsba(ibclass
BInstr
p1700
(dp1701
g2
Nsg17
S'mov     [esp], eax      ; s'
p1702
sg19
S'890424'
p1703
sg21
Vmov dword ptr [esp], eax
p1704
sg5
L135066605L
sg6
Nsg23
S'mov'
p1705
sg25
S'0x80cf3edL'
p1706
sg27
Nsba(ibclass
BInstr
p1707
(dp1708
g2
Nsg17
S'call    dtls1_preprocess_fragment'
p1709
sg19
S'e86df0ffff'
p1710
sg21
Vcall 0xfffff072
p1711
sg5
L135066608L
sg6
Nsg23
S'call'
p1712
sg25
S'0x80cf3f0L'
p1713
sg27
Nsba(ibclass
BInstr
p1714
(dp1715
g2
Nsg17
S'mov     [ebp+al_0], eax'
p1716
sg19
S'8945a8'
p1717
sg21
Vmov dword ptr [ebp - 0x58], eax
p1718
sg5
L135066613L
sg6
Nsg23
S'mov'
p1719
sg25
S'0x80cf3f5L'
p1720
sg27
Nsba(ibclass
BInstr
p1721
(dp1722
g2
Nsg17
S'cmp     [ebp+al_0], 0'
p1723
sg19
S'837da800'
p1724
sg21
Vcmp dword ptr [ebp - 0x58], 0
p1725
sg5
L135066616L
sg6
Nsg23
S'cmp'
p1726
sg25
S'0x80cf3f8L'
p1727
sg27
Nsba(ibclass
BInstr
p1728
(dp1729
g2
Nsg17
S'jz      short loc_80CF403'
p1730
sg19
S'7405'
p1731
sg21
Vje 7
p1732
sg5
L135066620L
sg6
Nsg23
S'jz'
p1733
sg25
S'0x80cf3fcL'
p1734
sg27
Nsbasg105
(lp1735
Vmov eax, mem
p1736
aVmov mem, eax
p1737
aVlea eax, mem
p1738
aVmov mem, eax
p1739
aVmov eax, mem
p1740
aVmov mem, eax
p1741
aVcall address
p1742
aVmov mem, eax
p1743
aVcmp mem, 0
p1744
ag1732
asg114
Nsg5
S'0x80cf3dcL'
p1745
sg116
(lp1746
S'0x80cf309L'
p1747
aS'0x80cf317L'
p1748
aS'0x80cf32bL'
p1749
asg6
Nsg118
(lp1750
S'0x80cf3feL'
p1751
aS'0x80cf403L'
p1752
asg121
Nsg122
Nsg123
S'b5a4037fd11951a84499addfba3ddfb7'
p1753
sg125
S'e610c5c75f49f27ff81e53c8f9e2aa0d'
p1754
sg127
(lp1755
g1670
ag1677
ag1684
ag1691
ag1698
ag1705
ag1712
ag1719
ag1726
ag1733
asg129
Nsba(ibclass
BBasicBlock
p1756
(dp1757
g12
Nsg13
(lp1758
(ibclass
BInstr
p1759
(dp1760
g2
Nsg17
S'jmp     f_err'
p1761
sg19
S'e9d3000000'
p1762
sg21
Vjmp 0xd8
p1763
sg5
L135066622L
sg6
Nsg23
S'jmp'
p1764
sg25
S'0x80cf3feL'
p1765
sg27
Nsbasg105
(lp1766
Vjmp address
p1767
asg114
Nsg5
S'0x80cf3feL'
p1768
sg116
(lp1769
S'0x80cf3dcL'
p1770
asg6
Nsg118
(lp1771
S'0x80cf4d6L'
p1772
asg121
Nsg122
Nsg123
S'0ef6cf926f2f394b0cc8e11be8022625'
p1773
sg125
S'd4372e4caa7348928655251605aa7329'
p1774
sg127
(lp1775
g1764
asg129
Nsba(ibclass
BBasicBlock
p1776
(dp1777
g12
Nsg13
(lp1778
(ibclass
BInstr
p1779
(dp1780
g2
Nsg17
S'mov     eax, [ebp+s]'
p1781
sg19
S'8b4594'
p1782
sg21
Vmov eax, dword ptr [ebp - 0x6c]
p1783
sg5
L135066627L
sg6
Nsg23
S'mov'
p1784
sg25
S'0x80cf403L'
p1785
sg27
Nsba(ibclass
BInstr
p1786
(dp1787
g2
Nsg17
S'mov     edx, [ebp+stn]'
p1788
sg19
S'8b5510'
p1789
sg21
Vmov edx, dword ptr [ebp + 0x10]
p1790
sg5
L135066630L
sg6
Nsg23
S'mov'
p1791
sg25
S'0x80cf406L'
p1792
sg27
Nsba(ibclass
BInstr
p1793
(dp1794
g2
Nsg17
S'mov     [eax+34h], edx'
p1795
sg19
S'895034'
p1796
sg21
Vmov dword ptr [eax + 0x34], edx
p1797
sg5
L135066633L
sg6
Nsg23
S'mov'
p1798
sg25
S'0x80cf409L'
p1799
sg27
Nsba(ibclass
BInstr
p1800
(dp1801
g2
Nsg17
S'cmp     [ebp+frag_len], 0'
p1802
sg19
S'837dac00'
p1803
sg21
Vcmp dword ptr [ebp - 0x54], 0
p1804
sg5
L135066636L
sg6
Nsg23
S'cmp'
p1805
sg25
S'0x80cf40cL'
p1806
sg27
Nsba(ibclass
BInstr
p1807
(dp1808
g2
Nsg17
S'jz      short loc_80CF47B'
p1809
sg19
S'7469'
p1810
sg21
Vje 0x6b
p1811
sg5
L135066640L
sg6
Nsg23
S'jz'
p1812
sg25
S'0x80cf410L'
p1813
sg27
Nsbasg105
(lp1814
Vmov eax, mem
p1815
aVmov edx, mem
p1816
aVmov mem, edx
p1817
aVcmp mem, 0
p1818
aVje address
p1819
asg114
Nsg5
S'0x80cf403L'
p1820
sg116
(lp1821
S'0x80cf3dcL'
p1822
asg6
Nsg118
(lp1823
S'0x80cf412L'
p1824
aS'0x80cf47bL'
p1825
asg121
Nsg122
Nsg123
S'33ba948cc50e6b726fe618f931567f22'
p1826
sg125
S'0e6784a4c9b28b337c200945202e1215'
p1827
sg127
(lp1828
g1784
ag1791
ag1798
ag1805
ag1812
asg129
Nsba(ibclass
BBasicBlock
p1829
(dp1830
g12
Nsg13
(lp1831
(ibclass
BInstr
p1832
(dp1833
g2
Nsg17
S'mov     eax, [ebp+s]'
p1834
sg19
S'8b4594'
p1835
sg21
Vmov eax, dword ptr [ebp - 0x6c]
p1836
sg5
L135066642L
sg6
Nsg23
S'mov'
p1837
sg25
S'0x80cf412L'
p1838
sg27
Nsba(ibclass
BInstr
p1839
(dp1840
g2
Nsg17
S'mov     eax, [eax+3Ch]'
p1841
sg19
S'8b403c'
p1842
sg21
Vmov eax, dword ptr [eax + 0x3c]
p1843
sg5
L135066645L
sg6
Nsg23
S'mov'
p1844
sg25
S'0x80cf415L'
p1845
sg27
Nsba(ibclass
BInstr
p1846
(dp1847
g2
Nsg17
S'mov     eax, [eax+4]'
p1848
sg19
S'8b4004'
p1849
sg21
Vmov eax, dword ptr [eax + 4]
p1850
sg5
L135066648L
sg6
Nsg23
S'mov'
p1851
sg25
S'0x80cf418L'
p1852
sg27
Nsba(ibclass
BInstr
p1853
(dp1854
g2
Nsg17
S'add     eax, 0Ch'
p1855
sg19
S'83c00c'
p1856
sg21
Vadd eax, 0xc
p1857
sg5
L135066651L
sg6
Nsg23
S'add'
p1858
sg25
S'0x80cf41bL'
p1859
sg27
Nsba(ibclass
BInstr
p1860
(dp1861
g2
Nsg17
S'mov     [ebp+p], eax'
p1862
sg19
S'8945b8'
p1863
sg21
Vmov dword ptr [ebp - 0x48], eax
p1864
sg5
L135066654L
sg6
Nsg23
S'mov'
p1865
sg25
S'0x80cf41eL'
p1866
sg27
Nsba(ibclass
BInstr
p1867
(dp1868
g2
Nsg17
S'mov     eax, [ebp+s]'
p1869
sg19
S'8b4594'
p1870
sg21
Vmov eax, dword ptr [ebp - 0x6c]
p1871
sg5
L135066657L
sg6
Nsg23
S'mov'
p1872
sg25
S'0x80cf421L'
p1873
sg27
Nsba(ibclass
BInstr
p1874
(dp1875
g2
Nsg17
S'mov     eax, [eax+8]'
p1876
sg19
S'8b4008'
p1877
sg21
Vmov eax, dword ptr [eax + 8]
p1878
sg5
L135066660L
sg6
Nsg23
S'mov'
p1879
sg25
S'0x80cf424L'
p1880
sg27
Nsba(ibclass
BInstr
p1881
(dp1882
g2
Nsg17
S'mov     eax, [eax+34h]'
p1883
sg19
S'8b4034'
p1884
sg21
Vmov eax, dword ptr [eax + 0x34]
p1885
sg5
L135066663L
sg6
Nsg23
S'mov'
p1886
sg25
S'0x80cf427L'
p1887
sg27
Nsba(ibclass
BInstr
p1888
(dp1889
g2
Nsg17
S'mov     edx, [ebp+frag_len]'
p1890
sg19
S'8b55ac'
p1891
sg21
Vmov edx, dword ptr [ebp - 0x54]
p1892
sg5
L135066666L
sg6
Nsg23
S'mov'
p1893
sg25
S'0x80cf42aL'
p1894
sg27
Nsba(ibclass
BInstr
p1895
(dp1896
g2
Nsg17
S'mov     ecx, [ebp+frag_off]'
p1897
sg19
S'8b4db4'
p1898
sg21
Vmov ecx, dword ptr [ebp - 0x4c]
p1899
sg5
L135066669L
sg6
Nsg23
S'mov'
p1900
sg25
S'0x80cf42dL'
p1901
sg27
Nsba(ibclass
BInstr
p1902
(dp1903
g2
Nsg17
S'mov     ebx, [ebp+p]'
p1904
sg19
S'8b5db8'
p1905
sg21
Vmov ebx, dword ptr [ebp - 0x48]
p1906
sg5
L135066672L
sg6
Nsg23
S'mov'
p1907
sg25
S'0x80cf430L'
p1908
sg27
Nsba(ibclass
BInstr
p1909
(dp1910
g2
Nsg17
S'add     ecx, ebx'
p1911
sg19
S'01d9'
p1912
sg21
Vadd ecx, ebx
p1913
sg5
L135066675L
sg6
Nsg23
S'add'
p1914
sg25
S'0x80cf433L'
p1915
sg27
Nsba(ibclass
BInstr
p1916
(dp1917
g2
Nsg17
S'mov     dword ptr [esp+10h], 0'
p1918
sg19
S'c744241000000000'
p1919
sg21
Vmov dword ptr [esp + 0x10], 0
p1920
sg5
L135066677L
sg6
Nsg23
S'mov'
p1921
sg25
S'0x80cf435L'
p1922
sg27
Nsba(ibclass
BInstr
p1923
(dp1924
g2
Nsg17
S'mov     [esp+0Ch], edx'
p1925
sg19
S'8954240c'
p1926
sg21
Vmov dword ptr [esp + 0xc], edx
p1927
sg5
L135066685L
sg6
Nsg23
S'mov'
p1928
sg25
S'0x80cf43dL'
p1929
sg27
Nsba(ibclass
BInstr
p1930
(dp1931
g2
Nsg17
S'mov     [esp+8], ecx'
p1932
sg19
S'894c2408'
p1933
sg21
Vmov dword ptr [esp + 8], ecx
p1934
sg5
L135066689L
sg6
Nsg23
S'mov'
p1935
sg25
S'0x80cf441L'
p1936
sg27
Nsba(ibclass
BInstr
p1937
(dp1938
g2
Nsg17
S'mov     dword ptr [esp+4], 16h'
p1939
sg19
S'c744240416000000'
p1940
sg21
Vmov dword ptr [esp + 4], 0x16
p1941
sg5
L135066693L
sg6
Nsg23
S'mov'
p1942
sg25
S'0x80cf445L'
p1943
sg27
Nsba(ibclass
BInstr
p1944
(dp1945
g2
Nsg17
S'mov     edx, [ebp+s]'
p1946
sg19
S'8b5594'
p1947
sg21
Vmov edx, dword ptr [ebp - 0x6c]
p1948
sg5
L135066701L
sg6
Nsg23
S'mov'
p1949
sg25
S'0x80cf44dL'
p1950
sg27
Nsba(ibclass
BInstr
p1951
(dp1952
g2
Nsg17
S'mov     [esp], edx'
p1953
sg19
S'891424'
p1954
sg21
Vmov dword ptr [esp], edx
p1955
sg5
L135066704L
sg6
Nsg23
S'mov'
p1956
sg25
S'0x80cf450L'
p1957
sg27
Nsba(ibclass
BInstr
p1958
(dp1959
g2
Nsg17
S'call    eax'
p1960
sg19
S'ffd0'
p1961
sg21
Vcall eax
p1962
sg5
L135066707L
sg6
Nsg23
S'call'
p1963
sg25
S'0x80cf453L'
p1964
sg27
Nsba(ibclass
BInstr
p1965
(dp1966
g2
Nsg17
S'mov     [ebp+i], eax'
p1967
sg19
S'8945a4'
p1968
sg21
Vmov dword ptr [ebp - 0x5c], eax
p1969
sg5
L135066709L
sg6
Nsg23
S'mov'
p1970
sg25
S'0x80cf455L'
p1971
sg27
Nsba(ibclass
BInstr
p1972
(dp1973
g2
Nsg17
S'cmp     [ebp+i], 0'
p1974
sg19
S'837da400'
p1975
sg21
Vcmp dword ptr [ebp - 0x5c], 0
p1976
sg5
L135066712L
sg6
Nsg23
S'cmp'
p1977
sg25
S'0x80cf458L'
p1978
sg27
Nsba(ibclass
BInstr
p1979
(dp1980
g2
Nsg17
S'jg      short loc_80CF479'
p1981
sg19
S'7f1b'
p1982
sg21
Vjg 0x1d
p1983
sg5
L135066716L
sg6
Nsg23
S'jg'
p1984
sg25
S'0x80cf45cL'
p1985
sg27
Nsbasg105
(lp1986
Vmov eax, mem
p1987
aVmov eax, mem
p1988
aVmov eax, mem
p1989
aVadd eax, address
p1990
aVmov mem, eax
p1991
aVmov eax, mem
p1992
aVmov eax, mem
p1993
aVmov eax, mem
p1994
aVmov edx, mem
p1995
aVmov ecx, mem
p1996
aVmov ebx, mem
p1997
ag1913
aVmov mem, 0
p1998
aVmov mem, edx
p1999
aVmov mem, ecx
p2000
aVmov mem, address
p2001
aVmov edx, mem
p2002
aVmov mem, edx
p2003
ag1962
aVmov mem, eax
p2004
aVcmp mem, 0
p2005
aVjg address
p2006
asg114
Nsg5
S'0x80cf412L'
p2007
sg116
(lp2008
S'0x80cf403L'
p2009
asg6
Nsg118
(lp2010
S'0x80cf45eL'
p2011
aS'0x80cf479L'
p2012
asg121
Nsg122
Nsg123
S'236cd537724d2a4e05b82d72b14184bf'
p2013
sg125
S'770efa5c9b059c6d3d2520e97dae0afc'
p2014
sg127
(lp2015
g1837
ag1844
ag1851
ag1858
ag1865
ag1872
ag1879
ag1886
ag1893
ag1900
ag1907
ag1914
ag1921
ag1928
ag1935
ag1942
ag1949
ag1956
ag1963
ag1970
ag1977
ag1984
asg129
Nsba(ibclass
BBasicBlock
p2016
(dp2017
g12
Nsg13
(lp2018
(ibclass
BInstr
p2019
(dp2020
g2
Nsg17
S'mov     eax, [ebp+s]'
p2021
sg19
S'8b4594'
p2022
sg21
Vmov eax, dword ptr [ebp - 0x6c]
p2023
sg5
L135066718L
sg6
Nsg23
S'mov'
p2024
sg25
S'0x80cf45eL'
p2025
sg27
Nsba(ibclass
BInstr
p2026
(dp2027
g2
Nsg17
S'mov     dword ptr [eax+18h], 3'
p2028
sg19
S'c7401803000000'
p2029
sg21
Vmov dword ptr [eax + 0x18], 3
p2030
sg5
L135066721L
sg6
Nsg23
S'mov'
p2031
sg25
S'0x80cf461L'
p2032
sg27
Nsba(ibclass
BInstr
p2033
(dp2034
g2
Nsg17
S'mov     eax, [ebp+ok]'
p2035
sg19
S'8b4590'
p2036
sg21
Vmov eax, dword ptr [ebp - 0x70]
p2037
sg5
L135066728L
sg6
Nsg23
S'mov'
p2038
sg25
S'0x80cf468L'
p2039
sg27
Nsba(ibclass
BInstr
p2040
(dp2041
g2
Nsg17
S'mov     dword ptr [eax], 0'
p2042
sg19
S'c70000000000'
p2043
sg21
Vmov dword ptr [eax], 0
p2044
sg5
L135066731L
sg6
Nsg23
S'mov'
p2045
sg25
S'0x80cf46bL'
p2046
sg27
Nsba(ibclass
BInstr
p2047
(dp2048
g2
Nsg17
S'mov     eax, [ebp+i]'
p2049
sg19
S'8b45a4'
p2050
sg21
Vmov eax, dword ptr [ebp - 0x5c]
p2051
sg5
L135066737L
sg6
Nsg23
S'mov'
p2052
sg25
S'0x80cf471L'
p2053
sg27
Nsba(ibclass
BInstr
p2054
(dp2055
g2
Nsg17
S'jmp     loc_80CF508'
p2056
sg19
S'e98f000000'
p2057
sg21
Vjmp 0x94
p2058
sg5
L135066740L
sg6
Nsg23
S'jmp'
p2059
sg25
S'0x80cf474L'
p2060
sg27
Nsbasg105
(lp2061
Vmov eax, mem
p2062
aVmov mem, 3
p2063
aVmov eax, mem
p2064
aVmov mem, 0
p2065
aVmov eax, mem
p2066
aVjmp address
p2067
asg114
Nsg5
S'0x80cf45eL'
p2068
sg116
(lp2069
S'0x80cf412L'
p2070
asg6
Nsg118
(lp2071
S'0x80cf508L'
p2072
asg121
Nsg122
Nsg123
S'0463370f36822ef7fc7bb62bfe9c1679'
p2073
sg125
S'5d1ad94194431a0ffac988da207eb71c'
p2074
sg127
(lp2075
g2024
ag2031
ag2038
ag2045
ag2052
ag2059
asg129
Nsba(ibclass
BBasicBlock
p2076
(dp2077
g12
Nsg13
(lp2078
(ibclass
BInstr
p2079
(dp2080
g2
Nsg17
S'jmp     short loc_80CF482'
p2081
sg19
S'eb07'
p2082
sg21
Vjmp 9
p2083
sg5
L135066745L
sg6
Nsg23
S'jmp'
p2084
sg25
S'0x80cf479L'
p2085
sg27
Nsbasg105
(lp2086
g2083
asg114
Nsg5
S'0x80cf479L'
p2087
sg116
(lp2088
S'0x80cf412L'
p2089
asg6
Nsg118
(lp2090
S'0x80cf482L'
p2091
asg121
Nsg122
Nsg123
S'0ef6cf926f2f394b0cc8e11be8022625'
p2092
sg125
S'f923baa2b670417372d15e168e1fd055'
p2093
sg127
(lp2094
g2084
asg129
Nsba(ibclass
BBasicBlock
p2095
(dp2096
g12
Nsg13
(lp2097
(ibclass
BInstr
p2098
(dp2099
g2
Nsg17
S'mov     [ebp+i], 0'
p2100
sg19
S'c745a400000000'
p2101
sg21
Vmov dword ptr [ebp - 0x5c], 0
p2102
sg5
L135066747L
sg6
Nsg23
S'mov'
p2103
sg25
S'0x80cf47bL'
p2104
sg27
Nsbasg105
(lp2105
Vmov mem, 0
p2106
asg114
Nsg5
S'0x80cf47bL'
p2107
sg116
(lp2108
S'0x80cf403L'
p2109
asg6
Nsg118
(lp2110
S'0x80cf482L'
p2111
asg121
Nsg122
Nsg123
S'96a4a0e6e9ac88756a0fcba989d0a844'
p2112
sg125
S'de0bb209f421163e523f24128b669bdf'
p2113
sg127
(lp2114
g2103
asg129
Nsba(ibclass
BBasicBlock
p2115
(dp2116
g12
Nsg13
(lp2117
(ibclass
BInstr
p2118
(dp2119
g2
Nsg17
S'mov     eax, [ebp+frag_len]'
p2120
sg19
S'8b45ac'
p2121
sg21
Vmov eax, dword ptr [ebp - 0x54]
p2122
sg5
L135066754L
sg6
Nsg23
S'mov'
p2123
sg25
S'0x80cf482L'
p2124
sg27
Nsba(ibclass
BInstr
p2125
(dp2126
g2
Nsg17
S'cmp     eax, [ebp+i]'
p2127
sg19
S'3b45a4'
p2128
sg21
Vcmp eax, dword ptr [ebp - 0x5c]
p2129
sg5
L135066757L
sg6
Nsg23
S'cmp'
p2130
sg25
S'0x80cf485L'
p2131
sg27
Nsba(ibclass
BInstr
p2132
(dp2133
g2
Nsg17
S'jz      short loc_80CF4BF'
p2134
sg19
S'7435'
p2135
sg21
Vje 0x37
p2136
sg5
L135066760L
sg6
Nsg23
S'jz'
p2137
sg25
S'0x80cf488L'
p2138
sg27
Nsbasg105
(lp2139
Vmov eax, mem
p2140
aVcmp eax, mem
p2141
aVje address
p2142
asg114
Nsg5
S'0x80cf482L'
p2143
sg116
(lp2144
S'0x80cf479L'
p2145
aS'0x80cf47bL'
p2146
asg6
Nsg118
(lp2147
S'0x80cf48aL'
p2148
aS'0x80cf4bfL'
p2149
asg121
Nsg122
Nsg123
S'a243777572b9e90dbac56dca0e7de7ec'
p2150
sg125
S'3d266e2a95c4df4213c5f058e4ac0617'
p2151
sg127
(lp2152
g2123
ag2130
ag2137
asg129
Nsba(ibclass
BBasicBlock
p2153
(dp2154
g12
Nsg13
(lp2155
(ibclass
BInstr
p2156
(dp2157
g2
Nsg17
S'mov     [ebp+al_0], 2Fh'
p2158
sg19
S'c745a82f000000'
p2159
sg21
Vmov dword ptr [ebp - 0x58], 0x2f
p2160
sg5
L135066762L
sg6
Nsg23
S'mov'
p2161
sg25
S'0x80cf48aL'
p2162
sg27
Nsba(ibclass
BInstr
p2163
(dp2164
g2
Nsg17
S'mov     dword ptr [esp+10h], 3AEh; line'
p2165
sg19
S'c7442410ae030000'
p2166
sg21
Vmov dword ptr [esp + 0x10], 0x3ae
p2167
sg5
L135066769L
sg6
Nsg23
S'mov'
p2168
sg25
S'0x80cf491L'
p2169
sg27
Nsba(ibclass
BInstr
p2170
(dp2171
g2
Nsg17
S'mov     dword ptr [esp+0Ch], offset aD1_both_c; "d1_both.c"'
p2172
sg19
S'c744240c00692108'
p2173
sg21
Vmov dword ptr [esp + 0xc], 0x8216900
p2174
sg5
L135066777L
sg6
Nsg23
S'mov'
p2175
sg25
S'0x80cf499L'
p2176
sg27
Nsba(ibclass
BInstr
p2177
(dp2178
g2
Nsg17
S'mov     dword ptr [esp+8], 2Fh; reason'
p2179
sg19
S'c74424082f000000'
p2180
sg21
Vmov dword ptr [esp + 8], 0x2f
p2181
sg5
L135066785L
sg6
Nsg23
S'mov'
p2182
sg25
S'0x80cf4a1L'
p2183
sg27
Nsba(ibclass
BInstr
p2184
(dp2185
g2
Nsg17
S'mov     dword ptr [esp+4], 0FDh; func'
p2186
sg19
S'c7442404fd000000'
p2187
sg21
Vmov dword ptr [esp + 4], 0xfd
p2188
sg5
L135066793L
sg6
Nsg23
S'mov'
p2189
sg25
S'0x80cf4a9L'
p2190
sg27
Nsba(ibclass
BInstr
p2191
(dp2192
g2
Nsg17
S'mov     dword ptr [esp], 14h; lib'
p2193
sg19
S'c7042414000000'
p2194
sg21
Vmov dword ptr [esp], 0x14
p2195
sg5
L135066801L
sg6
Nsg23
S'mov'
p2196
sg25
S'0x80cf4b1L'
p2197
sg27
Nsba(ibclass
BInstr
p2198
(dp2199
g2
Nsg17
S'call    ERR_put_error'
p2200
sg19
S'e810ed0600'
p2201
sg21
Vcall 0x6ed15
p2202
sg5
L135066808L
sg6
Nsg23
S'call'
p2203
sg25
S'0x80cf4b8L'
p2204
sg27
Nsba(ibclass
BInstr
p2205
(dp2206
g2
Nsg17
S'jmp     short f_err'
p2207
sg19
S'eb17'
p2208
sg21
Vjmp 0x19
p2209
sg5
L135066813L
sg6
Nsg23
S'jmp'
p2210
sg25
S'0x80cf4bdL'
p2211
sg27
Nsbasg105
(lp2212
Vmov mem, address
p2213
aVmov mem, address
p2214
aVmov mem, address
p2215
aVmov mem, address
p2216
aVmov mem, address
p2217
aVmov mem, address
p2218
aVcall address
p2219
aVjmp address
p2220
asg114
Nsg5
S'0x80cf48aL'
p2221
sg116
(lp2222
S'0x80cf482L'
p2223
asg6
Nsg118
(lp2224
S'0x80cf4d6L'
p2225
asg121
Nsg122
Nsg123
S'66a94b87b6be599163286cd5d033acb0'
p2226
sg125
S'9ae564c3ff50b0b8b3b6c36a987dd05d'
p2227
sg127
(lp2228
g2161
ag2168
ag2175
ag2182
ag2189
ag2196
ag2203
ag2210
asg129
Nsba(ibclass
BBasicBlock
p2229
(dp2230
g12
Nsg13
(lp2231
(ibclass
BInstr
p2232
(dp2233
g2
Nsg17
S'mov     eax, [ebp+ok]'
p2234
sg19
S'8b4590'
p2235
sg21
Vmov eax, dword ptr [ebp - 0x70]
p2236
sg5
L135066815L
sg6
Nsg23
S'mov'
p2237
sg25
S'0x80cf4bfL'
p2238
sg27
Nsba(ibclass
BInstr
p2239
(dp2240
g2
Nsg17
S'mov     dword ptr [eax], 1'
p2241
sg19
S'c70001000000'
p2242
sg21
Vmov dword ptr [eax], 1
p2243
sg5
L135066818L
sg6
Nsg23
S'mov'
p2244
sg25
S'0x80cf4c2L'
p2245
sg27
Nsba(ibclass
BInstr
p2246
(dp2247
g2
Nsg17
S'mov     edx, [ebp+frag_len]'
p2248
sg19
S'8b55ac'
p2249
sg21
Vmov edx, dword ptr [ebp - 0x54]
p2250
sg5
L135066824L
sg6
Nsg23
S'mov'
p2251
sg25
S'0x80cf4c8L'
p2252
sg27
Nsba(ibclass
BInstr
p2253
(dp2254
g2
Nsg17
S'mov     eax, [ebp+s]'
p2255
sg19
S'8b4594'
p2256
sg21
Vmov eax, dword ptr [ebp - 0x6c]
p2257
sg5
L135066827L
sg6
Nsg23
S'mov'
p2258
sg25
S'0x80cf4cbL'
p2259
sg27
Nsba(ibclass
BInstr
p2260
(dp2261
g2
Nsg17
S'mov     [eax+44h], edx'
p2262
sg19
S'895044'
p2263
sg21
Vmov dword ptr [eax + 0x44], edx
p2264
sg5
L135066830L
sg6
Nsg23
S'mov'
p2265
sg25
S'0x80cf4ceL'
p2266
sg27
Nsba(ibclass
BInstr
p2267
(dp2268
g2
Nsg17
S'mov     eax, [ebp+frag_len]'
p2269
sg19
S'8b45ac'
p2270
sg21
Vmov eax, dword ptr [ebp - 0x54]
p2271
sg5
L135066833L
sg6
Nsg23
S'mov'
p2272
sg25
S'0x80cf4d1L'
p2273
sg27
Nsba(ibclass
BInstr
p2274
(dp2275
g2
Nsg17
S'jmp     short loc_80CF508'
p2276
sg19
S'eb32'
p2277
sg21
Vjmp 0x34
p2278
sg5
L135066836L
sg6
Nsg23
S'jmp'
p2279
sg25
S'0x80cf4d4L'
p2280
sg27
Nsbasg105
(lp2281
Vmov eax, mem
p2282
aVmov mem, 1
p2283
aVmov edx, mem
p2284
aVmov eax, mem
p2285
aVmov mem, edx
p2286
aVmov eax, mem
p2287
aVjmp address
p2288
asg114
Nsg5
S'0x80cf4bfL'
p2289
sg116
(lp2290
S'0x80cf482L'
p2291
asg6
Nsg118
(lp2292
S'0x80cf508L'
p2293
asg121
Nsg122
Nsg123
S'1a9cbceb7fd1cce61a09bffd9f9d1912'
p2294
sg125
S'a3cba71b83fe565bf50253947febd615'
p2295
sg127
(lp2296
g2237
ag2244
ag2251
ag2258
ag2265
ag2272
ag2279
asg129
Nsba(ibclass
BBasicBlock
p2297
(dp2298
g12
Nsg13
(lp2299
(ibclass
BInstr
p2300
(dp2301
g2
Nsg17
S'mov     eax, [ebp+al_0]'
p2302
sg19
S'8b45a8'
p2303
sg21
Vmov eax, dword ptr [ebp - 0x58]
p2304
sg5
L135066838L
sg6
Nsg23
S'mov'
p2305
sg25
S'0x80cf4d6L'
p2306
sg27
Nsba(ibclass
BInstr
p2307
(dp2308
g2
Nsg17
S'mov     [esp+8], eax    ; desc'
p2309
sg19
S'89442408'
p2310
sg21
Vmov dword ptr [esp + 8], eax
p2311
sg5
L135066841L
sg6
Nsg23
S'mov'
p2312
sg25
S'0x80cf4d9L'
p2313
sg27
Nsba(ibclass
BInstr
p2314
(dp2315
g2
Nsg17
S'mov     dword ptr [esp+4], 2; level'
p2316
sg19
S'c744240402000000'
p2317
sg21
Vmov dword ptr [esp + 4], 2
p2318
sg5
L135066845L
sg6
Nsg23
S'mov'
p2319
sg25
S'0x80cf4ddL'
p2320
sg27
Nsba(ibclass
BInstr
p2321
(dp2322
g2
Nsg17
S'mov     eax, [ebp+s]'
p2323
sg19
S'8b4594'
p2324
sg21
Vmov eax, dword ptr [ebp - 0x6c]
p2325
sg5
L135066853L
sg6
Nsg23
S'mov'
p2326
sg25
S'0x80cf4e5L'
p2327
sg27
Nsba(ibclass
BInstr
p2328
(dp2329
g2
Nsg17
S'mov     [esp], eax      ; s'
p2330
sg19
S'890424'
p2331
sg21
Vmov dword ptr [esp], eax
p2332
sg5
L135066856L
sg6
Nsg23
S'mov'
p2333
sg25
S'0x80cf4e8L'
p2334
sg27
Nsba(ibclass
BInstr
p2335
(dp2336
g2
Nsg17
S'call    ssl3_send_alert'
p2337
sg19
S'e8547dfeff'
p2338
sg21
Vcall 0xfffe7d59
p2339
sg5
L135066859L
sg6
Nsg23
S'call'
p2340
sg25
S'0x80cf4ebL'
p2341
sg27
Nsba(ibclass
BInstr
p2342
(dp2343
g2
Nsg17
S'mov     eax, [ebp+s]'
p2344
sg19
S'8b4594'
p2345
sg21
Vmov eax, dword ptr [ebp - 0x6c]
p2346
sg5
L135066864L
sg6
Nsg23
S'mov'
p2347
sg25
S'0x80cf4f0L'
p2348
sg27
Nsba(ibclass
BInstr
p2349
(dp2350
g2
Nsg17
S'mov     dword ptr [eax+44h], 0'
p2351
sg19
S'c7404400000000'
p2352
sg21
Vmov dword ptr [eax + 0x44], 0
p2353
sg5
L135066867L
sg6
Nsg23
S'mov'
p2354
sg25
S'0x80cf4f3L'
p2355
sg27
Nsba(ibclass
BInstr
p2356
(dp2357
g2
Nsg17
S'mov     eax, [ebp+ok]'
p2358
sg19
S'8b4590'
p2359
sg21
Vmov eax, dword ptr [ebp - 0x70]
p2360
sg5
L135066874L
sg6
Nsg23
S'mov'
p2361
sg25
S'0x80cf4faL'
p2362
sg27
Nsba(ibclass
BInstr
p2363
(dp2364
g2
Nsg17
S'mov     dword ptr [eax], 0'
p2365
sg19
S'c70000000000'
p2366
sg21
Vmov dword ptr [eax], 0
p2367
sg5
L135066877L
sg6
Nsg23
S'mov'
p2368
sg25
S'0x80cf4fdL'
p2369
sg27
Nsba(ibclass
BInstr
p2370
(dp2371
g2
Nsg17
S'mov     eax, 0FFFFFFFFh'
p2372
sg19
S'b8ffffffff'
p2373
sg21
Vmov eax, 0xffffffff
p2374
sg5
L135066883L
sg6
Nsg23
S'mov'
p2375
sg25
S'0x80cf503L'
p2376
sg27
Nsbasg105
(lp2377
Vmov eax, mem
p2378
aVmov mem, eax
p2379
aVmov mem, 2
p2380
aVmov eax, mem
p2381
aVmov mem, eax
p2382
aVcall address
p2383
aVmov eax, mem
p2384
aVmov mem, 0
p2385
aVmov eax, mem
p2386
aVmov mem, 0
p2387
aVmov eax, address
p2388
asg114
Nsg5
S'0x80cf4d6L'
p2389
sg116
(lp2390
S'0x80cf236L'
p2391
aS'0x80cf3a4L'
p2392
aS'0x80cf3feL'
p2393
aS'0x80cf48aL'
p2394
asg6
Nsg118
(lp2395
S'0x80cf508L'
p2396
asg121
Nsg122
Nsg123
S'18aee991adff0b7ba80991bd2939d9df'
p2397
sg125
S'8081c03fc1040c9a15e939797095d3f6'
p2398
sg127
(lp2399
g2305
ag2312
ag2319
ag2326
ag2333
ag2340
ag2347
ag2354
ag2361
ag2368
ag2375
asg129
Nsba(ibclass
BBasicBlock
p2400
(dp2401
g12
Nsg13
(lp2402
(ibclass
BInstr
p2403
(dp2404
g2
Nsg17
S'mov     esi, [ebp+var_C]'
p2405
sg19
S'8b75f4'
p2406
sg21
Vmov esi, dword ptr [ebp - 0xc]
p2407
sg5
L135066888L
sg6
Nsg23
S'mov'
p2408
sg25
S'0x80cf508L'
p2409
sg27
Nsba(ibclass
BInstr
p2410
(dp2411
g2
Nsg17
S'xor     esi, large gs:14h'
p2412
sg19
S'65333514000000'
p2413
sg21
Vxor esi, dword ptr gs:[0x14]
p2414
sg5
L135066891L
sg6
Nsg23
S'xor'
p2415
sg25
S'0x80cf50bL'
p2416
sg27
Nsba(ibclass
BInstr
p2417
(dp2418
g2
Nsg17
S'jz      short loc_80CF519'
p2419
sg19
S'7405'
p2420
sg21
Vje 7
p2421
sg5
L135066898L
sg6
Nsg23
S'jz'
p2422
sg25
S'0x80cf512L'
p2423
sg27
Nsbasg105
(lp2424
Vmov esi, mem
p2425
aVxor esi, gs:mem
p2426
ag2421
asg114
Nsg5
S'0x80cf508L'
p2427
sg116
(lp2428
S'0x80cf1d4L'
p2429
aS'0x80cf215L'
p2430
aS'0x80cf2adL'
p2431
aS'0x80cf2ebL'
p2432
aS'0x80cf45eL'
p2433
aS'0x80cf4bfL'
p2434
aS'0x80cf4d6L'
p2435
asg6
Nsg118
(lp2436
S'0x80cf514L'
p2437
aS'0x80cf519L'
p2438
asg121
Nsg122
Nsg123
S'81354ac238b6424b069ead35b2072afc'
p2439
sg125
S'493862a46375653fd2018897b4637717'
p2440
sg127
(lp2441
g2408
ag2415
ag2422
asg129
Nsba(ibclass
BBasicBlock
p2442
(dp2443
g12
Nsg13
(lp2444
(ibclass
BInstr
p2445
(dp2446
g2
Nsg17
S'call    ___stack_chk_fail'
p2447
sg19
S'e867a1f7ff'
p2448
sg21
Vcall 0xfff7a16c
p2449
sg5
L135066900L
sg6
Nsg23
S'call'
p2450
sg25
S'0x80cf514L'
p2451
sg27
Nsbasg105
(lp2452
Vcall address
p2453
asg114
Nsg5
S'0x80cf514L'
p2454
sg116
(lp2455
S'0x80cf508L'
p2456
asg6
Nsg118
(lp2457
sg121
Nsg122
Nsg123
S'53b9e9679a8ea25880376080b76f98ad'
p2458
sg125
S'5c3539e46d089242d4a47b64016c87be'
p2459
sg127
(lp2460
g2450
asg129
Nsba(ibclass
BBasicBlock
p2461
(dp2462
g12
Nsg13
(lp2463
(ibclass
BInstr
p2464
(dp2465
g2
Nsg17
S'add     esp, 90h'
p2466
sg19
S'81c490000000'
p2467
sg21
Vadd esp, 0x90
p2468
sg5
L135066905L
sg6
Nsg23
S'add'
p2469
sg25
S'0x80cf519L'
p2470
sg27
Nsba(ibclass
BInstr
p2471
(dp2472
g2
Nsg17
S'pop     ebx'
p2473
sg19
S'5b'
p2474
sg21
Vpop ebx
p2475
sg5
L135066911L
sg6
Nsg23
S'pop'
p2476
sg25
S'0x80cf51fL'
p2477
sg27
Nsba(ibclass
BInstr
p2478
(dp2479
g2
Nsg17
S'pop     esi'
p2480
sg19
S'5e'
p2481
sg21
Vpop esi
p2482
sg5
L135066912L
sg6
Nsg23
S'pop'
p2483
sg25
S'0x80cf520L'
p2484
sg27
Nsba(ibclass
BInstr
p2485
(dp2486
g2
Nsg17
S'pop     ebp'
p2487
sg19
S'5d'
p2488
sg21
Vpop ebp
p2489
sg5
L135066913L
sg6
Nsg23
S'pop'
p2490
sg25
S'0x80cf521L'
p2491
sg27
Nsba(ibclass
BInstr
p2492
(dp2493
g2
Nsg17
S'retn'
p2494
sg19
S'c3'
p2495
sg21
Vret 
p2496
sg5
L135066914L
sg6
Nsg23
S'retn'
p2497
sg25
S'0x80cf522L'
p2498
sg27
Nsbasg105
(lp2499
Vadd esp, address
p2500
ag2475
ag2482
ag2489
aVret
p2501
asg114
Nsg5
S'0x80cf519L'
p2502
sg116
(lp2503
S'0x80cf508L'
p2504
asg6
Nsg118
(lp2505
sg121
Nsg122
Nsg123
S'a3cac886029af1831737c083e97867e2'
p2506
sg125
S'f8491214a41ae2d406c7cfafd8bb8138'
p2507
sg127
(lp2508
g2469
ag2476
ag2483
ag2490
ag2497
asg129
Nsbasb.