(ibclass
BFunc
p0
(dp1
S'hash'
p2
NsS'name'
p3
S'SRP_Calc_u'
p4
sS'start_address'
p5
L135962443L
sS'flag'
p6
NsS'program'
p7
NsS'bbs'
p8
(lp9
(ibclass
BBasicBlock
p10
(dp11
S'function'
p12
NsS'binstrs'
p13
(lp14
(ibclass
BInstr
p15
(dp16
g2
NsS'disasm'
p17
S'push    ebp'
p18
sS'bytes'
p19
S'55'
p20
sS'disasm_striped'
p21
Vpush ebp
p22
sg5
L135962443L
sg6
NsS'mnem'
p23
S'push'
p24
sS'address'
p25
S'0x81a9f4bL'
p26
sS'basicblock'
p27
Nsba(ibclass
BInstr
p28
(dp29
g2
Nsg17
S'mov     ebp, esp'
p30
sg19
S'89e5'
p31
sg21
Vmov ebp, esp
p32
sg5
L135962444L
sg6
Nsg23
S'mov'
p33
sg25
S'0x81a9f4cL'
p34
sg27
Nsba(ibclass
BInstr
p35
(dp36
g2
Nsg17
S'push    ebx'
p37
sg19
S'53'
p38
sg21
Vpush ebx
p39
sg5
L135962446L
sg6
Nsg23
S'push'
p40
sg25
S'0x81a9f4eL'
p41
sg27
Nsba(ibclass
BInstr
p42
(dp43
g2
Nsg17
S'sub     esp, 64h'
p44
sg19
S'83ec64'
p45
sg21
Vsub esp, 0x64
p46
sg5
L135962447L
sg6
Nsg23
S'sub'
p47
sg25
S'0x81a9f4fL'
p48
sg27
Nsba(ibclass
BInstr
p49
(dp50
g2
Nsg17
S'mov     eax, [ebp+arg_0]'
p51
sg19
S'8b4508'
p52
sg21
Vmov eax, dword ptr [ebp + 8]
p53
sg5
L135962450L
sg6
Nsg23
S'mov'
p54
sg25
S'0x81a9f52L'
p55
sg27
Nsba(ibclass
BInstr
p56
(dp57
g2
Nsg17
S'mov     [ebp+A], eax'
p58
sg19
S'8945b4'
p59
sg21
Vmov dword ptr [ebp - 0x4c], eax
p60
sg5
L135962453L
sg6
Nsg23
S'mov'
p61
sg25
S'0x81a9f55L'
p62
sg27
Nsba(ibclass
BInstr
p63
(dp64
g2
Nsg17
S'mov     eax, [ebp+arg_4]'
p65
sg19
S'8b450c'
p66
sg21
Vmov eax, dword ptr [ebp + 0xc]
p67
sg5
L135962456L
sg6
Nsg23
S'mov'
p68
sg25
S'0x81a9f58L'
p69
sg27
Nsba(ibclass
BInstr
p70
(dp71
g2
Nsg17
S'mov     [ebp+B], eax'
p72
sg19
S'8945b0'
p73
sg21
Vmov dword ptr [ebp - 0x50], eax
p74
sg5
L135962459L
sg6
Nsg23
S'mov'
p75
sg25
S'0x81a9f5bL'
p76
sg27
Nsba(ibclass
BInstr
p77
(dp78
g2
Nsg17
S'mov     eax, [ebp+arg_8]'
p79
sg19
S'8b4510'
p80
sg21
Vmov eax, dword ptr [ebp + 0x10]
p81
sg5
L135962462L
sg6
Nsg23
S'mov'
p82
sg25
S'0x81a9f5eL'
p83
sg27
Nsba(ibclass
BInstr
p84
(dp85
g2
Nsg17
S'mov     [ebp+N], eax'
p86
sg19
S'8945ac'
p87
sg21
Vmov dword ptr [ebp - 0x54], eax
p88
sg5
L135962465L
sg6
Nsg23
S'mov'
p89
sg25
S'0x81a9f61L'
p90
sg27
Nsba(ibclass
BInstr
p91
(dp92
g2
Nsg17
S'mov     eax, large gs:14h'
p93
sg19
S'65a114000000'
p94
sg21
Vmov eax, dword ptr gs:[0x14]
p95
sg5
L135962468L
sg6
Nsg23
S'mov'
p96
sg25
S'0x81a9f64L'
p97
sg27
Nsba(ibclass
BInstr
p98
(dp99
g2
Nsg17
S'mov     [ebp+var_C], eax'
p100
sg19
S'8945f4'
p101
sg21
Vmov dword ptr [ebp - 0xc], eax
p102
sg5
L135962474L
sg6
Nsg23
S'mov'
p103
sg25
S'0x81a9f6aL'
p104
sg27
Nsba(ibclass
BInstr
p105
(dp106
g2
Nsg17
S'xor     eax, eax'
p107
sg19
S'31c0'
p108
sg21
Vxor eax, eax
p109
sg5
L135962477L
sg6
Nsg23
S'xor'
p110
sg25
S'0x81a9f6dL'
p111
sg27
Nsba(ibclass
BInstr
p112
(dp113
g2
Nsg17
S'cmp     [ebp+A], 0'
p114
sg19
S'837db400'
p115
sg21
Vcmp dword ptr [ebp - 0x4c], 0
p116
sg5
L135962479L
sg6
Nsg23
S'cmp'
p117
sg25
S'0x81a9f6fL'
p118
sg27
Nsba(ibclass
BInstr
p119
(dp120
g2
Nsg17
S'jz      short loc_81A9F81'
p121
sg19
S'740c'
p122
sg21
Vje 0xe
p123
sg5
L135962483L
sg6
Nsg23
S'jz'
p124
sg25
S'0x81a9f73L'
p125
sg27
NsbasS'disasm_list'
p126
(lp127
g22
ag32
ag39
aVsub esp, address
p128
aVmov eax, mem
p129
aVmov mem, eax
p130
aVmov eax, mem
p131
aVmov mem, eax
p132
aVmov eax, mem
p133
aVmov mem, eax
p134
aVmov eax, gs:mem
p135
aVmov mem, eax
p136
ag109
aVcmp mem, 0
p137
aVje address
p138
asS'end_address'
p139
Nsg5
S'0x81a9f4bL'
p140
sS'preds'
p141
(lp142
sg6
NsS'succs'
p143
(lp144
S'0x81a9f75L'
p145
aS'0x81a9f81L'
p146
asS'hash_v3'
p147
NsS'flag_v2'
p148
NsS'hash_v1'
p149
S'dfccff438a7f7328c38134e52c132daa'
p150
sS'hash_v2'
p151
S'0fe271e0c3c452c8e5af4b8eea606dd6'
p152
sS'mnen_list'
p153
(lp154
g24
ag33
ag40
ag47
ag54
ag61
ag68
ag75
ag82
ag89
ag96
ag103
ag110
ag117
ag124
asS'neighbour_disasm_list'
p155
Nsba(ibclass
BBasicBlock
p156
(dp157
g12
Nsg13
(lp158
(ibclass
BInstr
p159
(dp160
g2
Nsg17
S'cmp     [ebp+B], 0'
p161
sg19
S'837db000'
p162
sg21
Vcmp dword ptr [ebp - 0x50], 0
p163
sg5
L135962485L
sg6
Nsg23
S'cmp'
p164
sg25
S'0x81a9f75L'
p165
sg27
Nsba(ibclass
BInstr
p166
(dp167
g2
Nsg17
S'jz      short loc_81A9F81'
p168
sg19
S'7406'
p169
sg21
Vje 8
p170
sg5
L135962489L
sg6
Nsg23
S'jz'
p171
sg25
S'0x81a9f79L'
p172
sg27
Nsbasg126
(lp173
Vcmp mem, 0
p174
ag170
asg139
Nsg5
S'0x81a9f75L'
p175
sg141
(lp176
S'0x81a9f4bL'
p177
asg6
Nsg143
(lp178
S'0x81a9f7bL'
p179
aS'0x81a9f81L'
p180
asg147
Nsg148
Nsg149
S'613dbc2b0cb9d6264d802b24d709daea'
p181
sg151
S'cb99a072425fc3d38240a958a1da5161'
p182
sg153
(lp183
g164
ag171
asg155
Nsba(ibclass
BBasicBlock
p184
(dp185
g12
Nsg13
(lp186
(ibclass
BInstr
p187
(dp188
g2
Nsg17
S'cmp     [ebp+N], 0'
p189
sg19
S'837dac00'
p190
sg21
Vcmp dword ptr [ebp - 0x54], 0
p191
sg5
L135962491L
sg6
Nsg23
S'cmp'
p192
sg25
S'0x81a9f7bL'
p193
sg27
Nsba(ibclass
BInstr
p194
(dp195
g2
Nsg17
S'jnz     short loc_81A9F8B'
p196
sg19
S'750a'
p197
sg21
Vjne 0xc
p198
sg5
L135962495L
sg6
Nsg23
S'jnz'
p199
sg25
S'0x81a9f7fL'
p200
sg27
Nsbasg126
(lp201
Vcmp mem, 0
p202
aVjne address
p203
asg139
Nsg5
S'0x81a9f7bL'
p204
sg141
(lp205
S'0x81a9f75L'
p206
asg6
Nsg143
(lp207
S'0x81a9f81L'
p208
aS'0x81a9f8bL'
p209
asg147
Nsg148
Nsg149
S'30cb3d6f6a174adfabcde507f6944a52'
p210
sg151
S'ac6a5deb49a2d2e7162632941da7e135'
p211
sg153
(lp212
g192
ag199
asg155
Nsba(ibclass
BBasicBlock
p213
(dp214
g12
Nsg13
(lp215
(ibclass
BInstr
p216
(dp217
g2
Nsg17
S'mov     eax, 0'
p218
sg19
S'b800000000'
p219
sg21
Vmov eax, 0
p220
sg5
L135962497L
sg6
Nsg23
S'mov'
p221
sg25
S'0x81a9f81L'
p222
sg27
Nsba(ibclass
BInstr
p223
(dp224
g2
Nsg17
S'jmp     loc_81AA12F'
p225
sg19
S'e9a4010000'
p226
sg21
Vjmp 0x1a9
p227
sg5
L135962502L
sg6
Nsg23
S'jmp'
p228
sg25
S'0x81a9f86L'
p229
sg27
Nsbasg126
(lp230
g220
aVjmp address
p231
asg139
Nsg5
S'0x81a9f81L'
p232
sg141
(lp233
S'0x81a9f4bL'
p234
aS'0x81a9f75L'
p235
aS'0x81a9f7bL'
p236
asg6
Nsg143
(lp237
S'0x81aa12fL'
p238
asg147
Nsg148
Nsg149
S'8b9a0d40e062be2b9b2d9885108fb196'
p239
sg151
S'bfbe752dd865c9a89011ba470eab331d'
p240
sg153
(lp241
g221
ag228
asg155
Nsba(ibclass
BBasicBlock
p242
(dp243
g12
Nsg13
(lp244
(ibclass
BInstr
p245
(dp246
g2
Nsg17
S'mov     eax, [ebp+N]'
p247
sg19
S'8b45ac'
p248
sg21
Vmov eax, dword ptr [ebp - 0x54]
p249
sg5
L135962507L
sg6
Nsg23
S'mov'
p250
sg25
S'0x81a9f8bL'
p251
sg27
Nsba(ibclass
BInstr
p252
(dp253
g2
Nsg17
S'mov     [esp+4], eax    ; b'
p254
sg19
S'89442404'
p255
sg21
Vmov dword ptr [esp + 4], eax
p256
sg5
L135962510L
sg6
Nsg23
S'mov'
p257
sg25
S'0x81a9f8eL'
p258
sg27
Nsba(ibclass
BInstr
p259
(dp260
g2
Nsg17
S'mov     eax, [ebp+A]'
p261
sg19
S'8b45b4'
p262
sg21
Vmov eax, dword ptr [ebp - 0x4c]
p263
sg5
L135962514L
sg6
Nsg23
S'mov'
p264
sg25
S'0x81a9f92L'
p265
sg27
Nsba(ibclass
BInstr
p266
(dp267
g2
Nsg17
S'mov     [esp], eax      ; a'
p268
sg19
S'890424'
p269
sg21
Vmov dword ptr [esp], eax
p270
sg5
L135962517L
sg6
Nsg23
S'mov'
p271
sg25
S'0x81a9f95L'
p272
sg27
Nsba(ibclass
BInstr
p273
(dp274
g2
Nsg17
S'call    BN_ucmp'
p275
sg19
S'e81d3ef6ff'
p276
sg21
Vcall 0xfff63e22
p277
sg5
L135962520L
sg6
Nsg23
S'call'
p278
sg25
S'0x81a9f98L'
p279
sg27
Nsba(ibclass
BInstr
p280
(dp281
g2
Nsg17
S'test    eax, eax'
p282
sg19
S'85c0'
p283
sg21
Vtest eax, eax
p284
sg5
L135962525L
sg6
Nsg23
S'test'
p285
sg25
S'0x81a9f9dL'
p286
sg27
Nsba(ibclass
BInstr
p287
(dp288
g2
Nsg17
S'jns     short loc_81A9FB7'
p289
sg19
S'7916'
p290
sg21
Vjns 0x18
p291
sg5
L135962527L
sg6
Nsg23
S'jns'
p292
sg25
S'0x81a9f9fL'
p293
sg27
Nsbasg126
(lp294
Vmov eax, mem
p295
aVmov mem, eax
p296
aVmov eax, mem
p297
aVmov mem, eax
p298
aVcall address
p299
ag284
aVjns address
p300
asg139
Nsg5
S'0x81a9f8bL'
p301
sg141
(lp302
S'0x81a9f7bL'
p303
asg6
Nsg143
(lp304
S'0x81a9fa1L'
p305
aS'0x81a9fb7L'
p306
asg147
Nsg148
Nsg149
S'9d2f5d93b1551fe36b905918e28ec478'
p307
sg151
S'5ff576a53c6d7250cbbba5594960268b'
p308
sg153
(lp309
g250
ag257
ag264
ag271
ag278
ag285
ag292
asg155
Nsba(ibclass
BBasicBlock
p310
(dp311
g12
Nsg13
(lp312
(ibclass
BInstr
p313
(dp314
g2
Nsg17
S'mov     eax, [ebp+N]'
p315
sg19
S'8b45ac'
p316
sg21
Vmov eax, dword ptr [ebp - 0x54]
p317
sg5
L135962529L
sg6
Nsg23
S'mov'
p318
sg25
S'0x81a9fa1L'
p319
sg27
Nsba(ibclass
BInstr
p320
(dp321
g2
Nsg17
S'mov     [esp+4], eax    ; b'
p322
sg19
S'89442404'
p323
sg21
Vmov dword ptr [esp + 4], eax
p324
sg5
L135962532L
sg6
Nsg23
S'mov'
p325
sg25
S'0x81a9fa4L'
p326
sg27
Nsba(ibclass
BInstr
p327
(dp328
g2
Nsg17
S'mov     eax, [ebp+B]'
p329
sg19
S'8b45b0'
p330
sg21
Vmov eax, dword ptr [ebp - 0x50]
p331
sg5
L135962536L
sg6
Nsg23
S'mov'
p332
sg25
S'0x81a9fa8L'
p333
sg27
Nsba(ibclass
BInstr
p334
(dp335
g2
Nsg17
S'mov     [esp], eax      ; a'
p336
sg19
S'890424'
p337
sg21
Vmov dword ptr [esp], eax
p338
sg5
L135962539L
sg6
Nsg23
S'mov'
p339
sg25
S'0x81a9fabL'
p340
sg27
Nsba(ibclass
BInstr
p341
(dp342
g2
Nsg17
S'call    BN_ucmp'
p343
sg19
S'e8073ef6ff'
p344
sg21
Vcall 0xfff63e0c
p345
sg5
L135962542L
sg6
Nsg23
S'call'
p346
sg25
S'0x81a9faeL'
p347
sg27
Nsba(ibclass
BInstr
p348
(dp349
g2
Nsg17
S'test    eax, eax'
p350
sg19
S'85c0'
p351
sg21
Vtest eax, eax
p352
sg5
L135962547L
sg6
Nsg23
S'test'
p353
sg25
S'0x81a9fb3L'
p354
sg27
Nsba(ibclass
BInstr
p355
(dp356
g2
Nsg17
S'js      short loc_81A9FC1'
p357
sg19
S'780a'
p358
sg21
Vjs 0xc
p359
sg5
L135962549L
sg6
Nsg23
S'js'
p360
sg25
S'0x81a9fb5L'
p361
sg27
Nsbasg126
(lp362
Vmov eax, mem
p363
aVmov mem, eax
p364
aVmov eax, mem
p365
aVmov mem, eax
p366
aVcall address
p367
ag352
aVjs address
p368
asg139
Nsg5
S'0x81a9fa1L'
p369
sg141
(lp370
S'0x81a9f8bL'
p371
asg6
Nsg143
(lp372
S'0x81a9fb7L'
p373
aS'0x81a9fc1L'
p374
asg147
Nsg148
Nsg149
S'38b9ae33f89d09a3a944f92c0f402819'
p375
sg151
S'97ba39e22b793d1619bf6275ed8c5cd1'
p376
sg153
(lp377
g318
ag325
ag332
ag339
ag346
ag353
ag360
asg155
Nsba(ibclass
BBasicBlock
p378
(dp379
g12
Nsg13
(lp380
(ibclass
BInstr
p381
(dp382
g2
Nsg17
S'mov     eax, 0'
p383
sg19
S'b800000000'
p384
sg21
Vmov eax, 0
p385
sg5
L135962551L
sg6
Nsg23
S'mov'
p386
sg25
S'0x81a9fb7L'
p387
sg27
Nsba(ibclass
BInstr
p388
(dp389
g2
Nsg17
S'jmp     loc_81AA12F'
p390
sg19
S'e96e010000'
p391
sg21
Vjmp 0x173
p392
sg5
L135962556L
sg6
Nsg23
S'jmp'
p393
sg25
S'0x81a9fbcL'
p394
sg27
Nsbasg126
(lp395
g385
aVjmp address
p396
asg139
Nsg5
S'0x81a9fb7L'
p397
sg141
(lp398
S'0x81a9f8bL'
p399
aS'0x81a9fa1L'
p400
asg6
Nsg143
(lp401
S'0x81aa12fL'
p402
asg147
Nsg148
Nsg149
S'8b9a0d40e062be2b9b2d9885108fb196'
p403
sg151
S'bfbe752dd865c9a89011ba470eab331d'
p404
sg153
(lp405
g386
ag393
asg155
Nsba(ibclass
BBasicBlock
p406
(dp407
g12
Nsg13
(lp408
(ibclass
BInstr
p409
(dp410
g2
Nsg17
S'mov     eax, [ebp+N]'
p411
sg19
S'8b45ac'
p412
sg21
Vmov eax, dword ptr [ebp - 0x54]
p413
sg5
L135962561L
sg6
Nsg23
S'mov'
p414
sg25
S'0x81a9fc1L'
p415
sg27
Nsba(ibclass
BInstr
p416
(dp417
g2
Nsg17
S'mov     [esp], eax      ; a'
p418
sg19
S'890424'
p419
sg21
Vmov dword ptr [esp], eax
p420
sg5
L135962564L
sg6
Nsg23
S'mov'
p421
sg25
S'0x81a9fc4L'
p422
sg27
Nsba(ibclass
BInstr
p423
(dp424
g2
Nsg17
S'call    BN_num_bits'
p425
sg19
S'e8992cf6ff'
p426
sg21
Vcall 0xfff62c9e
p427
sg5
L135962567L
sg6
Nsg23
S'call'
p428
sg25
S'0x81a9fc7L'
p429
sg27
Nsba(ibclass
BInstr
p430
(dp431
g2
Nsg17
S'add     eax, 7'
p432
sg19
S'83c007'
p433
sg21
Vadd eax, 7
p434
sg5
L135962572L
sg6
Nsg23
S'add'
p435
sg25
S'0x81a9fccL'
p436
sg27
Nsba(ibclass
BInstr
p437
(dp438
g2
Nsg17
S'test    eax, eax'
p439
sg19
S'85c0'
p440
sg21
Vtest eax, eax
p441
sg5
L135962575L
sg6
Nsg23
S'test'
p442
sg25
S'0x81a9fcfL'
p443
sg27
Nsba(ibclass
BInstr
p444
(dp445
g2
Nsg17
S'jns     short loc_81A9FD6'
p446
sg19
S'7903'
p447
sg21
Vjns 5
p448
sg5
L135962577L
sg6
Nsg23
S'jns'
p449
sg25
S'0x81a9fd1L'
p450
sg27
Nsbasg126
(lp451
Vmov eax, mem
p452
aVmov mem, eax
p453
aVcall address
p454
ag434
ag441
ag448
asg139
Nsg5
S'0x81a9fc1L'
p455
sg141
(lp456
S'0x81a9fa1L'
p457
asg6
Nsg143
(lp458
S'0x81a9fd3L'
p459
aS'0x81a9fd6L'
p460
asg147
Nsg148
Nsg149
S'15c503a4fcd65d914d4fc8fa2cde35d9'
p461
sg151
S'b1eb0fa0e3af2450cdeb918443661c27'
p462
sg153
(lp463
g414
ag421
ag428
ag435
ag442
ag449
asg155
Nsba(ibclass
BBasicBlock
p464
(dp465
g12
Nsg13
(lp466
(ibclass
BInstr
p467
(dp468
g2
Nsg17
S'add     eax, 7'
p469
sg19
S'83c007'
p470
sg21
Vadd eax, 7
p471
sg5
L135962579L
sg6
Nsg23
S'add'
p472
sg25
S'0x81a9fd3L'
p473
sg27
Nsbasg126
(lp474
g471
asg139
Nsg5
S'0x81a9fd3L'
p475
sg141
(lp476
S'0x81a9fc1L'
p477
asg6
Nsg143
(lp478
S'0x81a9fd6L'
p479
asg147
Nsg148
Nsg149
S'34ec78fcc91ffb1e54cd85e4a0924332'
p480
sg151
S'9c593e6e55f1701921abf8342f95ed0c'
p481
sg153
(lp482
g472
asg155
Nsba(ibclass
BBasicBlock
p483
(dp484
g12
Nsg13
(lp485
(ibclass
BInstr
p486
(dp487
g2
Nsg17
S'sar     eax, 3'
p488
sg19
S'c1f803'
p489
sg21
Vsar eax, 3
p490
sg5
L135962582L
sg6
Nsg23
S'sar'
p491
sg25
S'0x81a9fd6L'
p492
sg27
Nsba(ibclass
BInstr
p493
(dp494
g2
Nsg17
S'mov     [ebp+longN], eax'
p495
sg19
S'8945bc'
p496
sg21
Vmov dword ptr [ebp - 0x44], eax
p497
sg5
L135962585L
sg6
Nsg23
S'mov'
p498
sg25
S'0x81a9fd9L'
p499
sg27
Nsba(ibclass
BInstr
p500
(dp501
g2
Nsg17
S'mov     eax, [ebp+longN]'
p502
sg19
S'8b45bc'
p503
sg21
Vmov eax, dword ptr [ebp - 0x44]
p504
sg5
L135962588L
sg6
Nsg23
S'mov'
p505
sg25
S'0x81a9fdcL'
p506
sg27
Nsba(ibclass
BInstr
p507
(dp508
g2
Nsg17
S'add     eax, eax'
p509
sg19
S'01c0'
p510
sg21
Vadd eax, eax
p511
sg5
L135962591L
sg6
Nsg23
S'add'
p512
sg25
S'0x81a9fdfL'
p513
sg27
Nsba(ibclass
BInstr
p514
(dp515
g2
Nsg17
S'mov     dword ptr [esp+8], 84h; line'
p516
sg19
S'c744240884000000'
p517
sg21
Vmov dword ptr [esp + 8], 0x84
p518
sg5
L135962593L
sg6
Nsg23
S'mov'
p519
sg25
S'0x81a9fe1L'
p520
sg27
Nsba(ibclass
BInstr
p521
(dp522
g2
Nsg17
S'mov     dword ptr [esp+4], offset aSrp_lib_c; "srp_lib.c"'
p523
sg19
S'c7442404fbbc2408'
p524
sg21
Vmov dword ptr [esp + 4], 0x824bcfb
p525
sg5
L135962601L
sg6
Nsg23
S'mov'
p526
sg25
S'0x81a9fe9L'
p527
sg27
Nsba(ibclass
BInstr
p528
(dp529
g2
Nsg17
S'mov     [esp], eax      ; num'
p530
sg19
S'890424'
p531
sg21
Vmov dword ptr [esp], eax
p532
sg5
L135962609L
sg6
Nsg23
S'mov'
p533
sg25
S'0x81a9ff1L'
p534
sg27
Nsba(ibclass
BInstr
p535
(dp536
g2
Nsg17
S'call    CRYPTO_malloc'
p537
sg19
S'e8f3caf3ff'
p538
sg21
Vcall 0xfff3caf8
p539
sg5
L135962612L
sg6
Nsg23
S'call'
p540
sg25
S'0x81a9ff4L'
p541
sg27
Nsba(ibclass
BInstr
p542
(dp543
g2
Nsg17
S'mov     [ebp+cAB], eax'
p544
sg19
S'8945c0'
p545
sg21
Vmov dword ptr [ebp - 0x40], eax
p546
sg5
L135962617L
sg6
Nsg23
S'mov'
p547
sg25
S'0x81a9ff9L'
p548
sg27
Nsba(ibclass
BInstr
p549
(dp550
g2
Nsg17
S'cmp     [ebp+cAB], 0'
p551
sg19
S'837dc000'
p552
sg21
Vcmp dword ptr [ebp - 0x40], 0
p553
sg5
L135962620L
sg6
Nsg23
S'cmp'
p554
sg25
S'0x81a9ffcL'
p555
sg27
Nsba(ibclass
BInstr
p556
(dp557
g2
Nsg17
S'jnz     short loc_81AA00C'
p558
sg19
S'750a'
p559
sg21
Vjne 0xc
p560
sg5
L135962624L
sg6
Nsg23
S'jnz'
p561
sg25
S'0x81aa000L'
p562
sg27
Nsbasg126
(lp563
g490
aVmov mem, eax
p564
aVmov eax, mem
p565
ag511
aVmov mem, address
p566
aVmov mem, address
p567
aVmov mem, eax
p568
aVcall address
p569
aVmov mem, eax
p570
aVcmp mem, 0
p571
aVjne address
p572
asg139
Nsg5
S'0x81a9fd6L'
p573
sg141
(lp574
S'0x81a9fc1L'
p575
aS'0x81a9fd3L'
p576
asg6
Nsg143
(lp577
S'0x81aa002L'
p578
aS'0x81aa00cL'
p579
asg147
Nsg148
Nsg149
S'0ac2d2eb8a8bf539e23e9d74da30eb8f'
p580
sg151
S'93ebb7d453d4289e7fdc10c0a24e3877'
p581
sg153
(lp582
g491
ag498
ag505
ag512
ag519
ag526
ag533
ag540
ag547
ag554
ag561
asg155
Nsba(ibclass
BBasicBlock
p583
(dp584
g12
Nsg13
(lp585
(ibclass
BInstr
p586
(dp587
g2
Nsg17
S'mov     eax, 0'
p588
sg19
S'b800000000'
p589
sg21
Vmov eax, 0
p590
sg5
L135962626L
sg6
Nsg23
S'mov'
p591
sg25
S'0x81aa002L'
p592
sg27
Nsba(ibclass
BInstr
p593
(dp594
g2
Nsg17
S'jmp     loc_81AA12F'
p595
sg19
S'e923010000'
p596
sg21
Vjmp 0x128
p597
sg5
L135962631L
sg6
Nsg23
S'jmp'
p598
sg25
S'0x81aa007L'
p599
sg27
Nsbasg126
(lp600
g590
aVjmp address
p601
asg139
Nsg5
S'0x81aa002L'
p602
sg141
(lp603
S'0x81a9fd6L'
p604
asg6
Nsg143
(lp605
S'0x81aa12fL'
p606
asg147
Nsg148
Nsg149
S'8b9a0d40e062be2b9b2d9885108fb196'
p607
sg151
S'bfbe752dd865c9a89011ba470eab331d'
p608
sg153
(lp609
g591
ag598
asg155
Nsba(ibclass
BBasicBlock
p610
(dp611
g12
Nsg13
(lp612
(ibclass
BInstr
p613
(dp614
g2
Nsg17
S'mov     eax, [ebp+longN]'
p615
sg19
S'8b45bc'
p616
sg21
Vmov eax, dword ptr [ebp - 0x44]
p617
sg5
L135962636L
sg6
Nsg23
S'mov'
p618
sg25
S'0x81aa00cL'
p619
sg27
Nsba(ibclass
BInstr
p620
(dp621
g2
Nsg17
S'mov     [esp+8], eax    ; n'
p622
sg19
S'89442408'
p623
sg21
Vmov dword ptr [esp + 8], eax
p624
sg5
L135962639L
sg6
Nsg23
S'mov'
p625
sg25
S'0x81aa00fL'
p626
sg27
Nsba(ibclass
BInstr
p627
(dp628
g2
Nsg17
S'mov     dword ptr [esp+4], 0; c'
p629
sg19
S'c744240400000000'
p630
sg21
Vmov dword ptr [esp + 4], 0
p631
sg5
L135962643L
sg6
Nsg23
S'mov'
p632
sg25
S'0x81aa013L'
p633
sg27
Nsba(ibclass
BInstr
p634
(dp635
g2
Nsg17
S'mov     eax, [ebp+cAB]'
p636
sg19
S'8b45c0'
p637
sg21
Vmov eax, dword ptr [ebp - 0x40]
p638
sg5
L135962651L
sg6
Nsg23
S'mov'
p639
sg25
S'0x81aa01bL'
p640
sg27
Nsba(ibclass
BInstr
p641
(dp642
g2
Nsg17
S'mov     [esp], eax      ; s'
p643
sg19
S'890424'
p644
sg21
Vmov dword ptr [esp], eax
p645
sg5
L135962654L
sg6
Nsg23
S'mov'
p646
sg25
S'0x81aa01eL'
p647
sg27
Nsba(ibclass
BInstr
p648
(dp649
g2
Nsg17
S'call    _memset'
p650
sg19
S'e87af9e9ff'
p651
sg21
Vcall 0xffe9f97f
p652
sg5
L135962657L
sg6
Nsg23
S'call'
p653
sg25
S'0x81aa021L'
p654
sg27
Nsba(ibclass
BInstr
p655
(dp656
g2
Nsg17
S'lea     eax, [ebp+ctxt]'
p657
sg19
S'8d45c8'
p658
sg21
Vlea eax, [ebp - 0x38]
p659
sg5
L135962662L
sg6
Nsg23
S'lea'
p660
sg25
S'0x81aa026L'
p661
sg27
Nsba(ibclass
BInstr
p662
(dp663
g2
Nsg17
S'mov     [esp], eax      ; ctx'
p664
sg19
S'890424'
p665
sg21
Vmov dword ptr [esp], eax
p666
sg5
L135962665L
sg6
Nsg23
S'mov'
p667
sg25
S'0x81aa029L'
p668
sg27
Nsba(ibclass
BInstr
p669
(dp670
g2
Nsg17
S'call    EVP_MD_CTX_init'
p671
sg19
S'e85a54f9ff'
p672
sg21
Vcall 0xfff9545f
p673
sg5
L135962668L
sg6
Nsg23
S'call'
p674
sg25
S'0x81aa02cL'
p675
sg27
Nsba(ibclass
BInstr
p676
(dp677
g2
Nsg17
S'call    EVP_sha1'
p678
sg19
S'e8bdc5f9ff'
p679
sg21
Vcall 0xfff9c5c2
p680
sg5
L135962673L
sg6
Nsg23
S'call'
p681
sg25
S'0x81aa031L'
p682
sg27
Nsba(ibclass
BInstr
p683
(dp684
g2
Nsg17
S'mov     dword ptr [esp+8], 0; impl'
p685
sg19
S'c744240800000000'
p686
sg21
Vmov dword ptr [esp + 8], 0
p687
sg5
L135962678L
sg6
Nsg23
S'mov'
p688
sg25
S'0x81aa036L'
p689
sg27
Nsba(ibclass
BInstr
p690
(dp691
g2
Nsg17
S'mov     [esp+4], eax    ; type'
p692
sg19
S'89442404'
p693
sg21
Vmov dword ptr [esp + 4], eax
p694
sg5
L135962686L
sg6
Nsg23
S'mov'
p695
sg25
S'0x81aa03eL'
p696
sg27
Nsba(ibclass
BInstr
p697
(dp698
g2
Nsg17
S'lea     eax, [ebp+ctxt]'
p699
sg19
S'8d45c8'
p700
sg21
Vlea eax, [ebp - 0x38]
p701
sg5
L135962690L
sg6
Nsg23
S'lea'
p702
sg25
S'0x81aa042L'
p703
sg27
Nsba(ibclass
BInstr
p704
(dp705
g2
Nsg17
S'mov     [esp], eax      ; ctx'
p706
sg19
S'890424'
p707
sg21
Vmov dword ptr [esp], eax
p708
sg5
L135962693L
sg6
Nsg23
S'mov'
p709
sg25
S'0x81aa045L'
p710
sg27
Nsba(ibclass
BInstr
p711
(dp712
g2
Nsg17
S'call    EVP_DigestInit_ex'
p713
sg19
S'e8c954f9ff'
p714
sg21
Vcall 0xfff954ce
p715
sg5
L135962696L
sg6
Nsg23
S'call'
p716
sg25
S'0x81aa048L'
p717
sg27
Nsba(ibclass
BInstr
p718
(dp719
g2
Nsg17
S'mov     ebx, [ebp+longN]'
p720
sg19
S'8b5dbc'
p721
sg21
Vmov ebx, dword ptr [ebp - 0x44]
p722
sg5
L135962701L
sg6
Nsg23
S'mov'
p723
sg25
S'0x81aa04dL'
p724
sg27
Nsba(ibclass
BInstr
p725
(dp726
g2
Nsg17
S'mov     edx, [ebp+longN]'
p727
sg19
S'8b55bc'
p728
sg21
Vmov edx, dword ptr [ebp - 0x44]
p729
sg5
L135962704L
sg6
Nsg23
S'mov'
p730
sg25
S'0x81aa050L'
p731
sg27
Nsba(ibclass
BInstr
p732
(dp733
g2
Nsg17
S'mov     eax, [ebp+cAB]'
p734
sg19
S'8b45c0'
p735
sg21
Vmov eax, dword ptr [ebp - 0x40]
p736
sg5
L135962707L
sg6
Nsg23
S'mov'
p737
sg25
S'0x81aa053L'
p738
sg27
Nsba(ibclass
BInstr
p739
(dp740
g2
Nsg17
S'add     eax, edx'
p741
sg19
S'01d0'
p742
sg21
Vadd eax, edx
p743
sg5
L135962710L
sg6
Nsg23
S'add'
p744
sg25
S'0x81aa056L'
p745
sg27
Nsba(ibclass
BInstr
p746
(dp747
g2
Nsg17
S'mov     [esp+4], eax    ; to'
p748
sg19
S'89442404'
p749
sg21
Vmov dword ptr [esp + 4], eax
p750
sg5
L135962712L
sg6
Nsg23
S'mov'
p751
sg25
S'0x81aa058L'
p752
sg27
Nsba(ibclass
BInstr
p753
(dp754
g2
Nsg17
S'mov     eax, [ebp+A]'
p755
sg19
S'8b45b4'
p756
sg21
Vmov eax, dword ptr [ebp - 0x4c]
p757
sg5
L135962716L
sg6
Nsg23
S'mov'
p758
sg25
S'0x81aa05cL'
p759
sg27
Nsba(ibclass
BInstr
p760
(dp761
g2
Nsg17
S'mov     [esp], eax      ; a'
p762
sg19
S'890424'
p763
sg21
Vmov dword ptr [esp], eax
p764
sg5
L135962719L
sg6
Nsg23
S'mov'
p765
sg25
S'0x81aa05fL'
p766
sg27
Nsba(ibclass
BInstr
p767
(dp768
g2
Nsg17
S'call    BN_bn2bin'
p769
sg19
S'e87a3cf6ff'
p770
sg21
Vcall 0xfff63c7f
p771
sg5
L135962722L
sg6
Nsg23
S'call'
p772
sg25
S'0x81aa062L'
p773
sg27
Nsba(ibclass
BInstr
p774
(dp775
g2
Nsg17
S'mov     edx, eax'
p776
sg19
S'89c2'
p777
sg21
Vmov edx, eax
p778
sg5
L135962727L
sg6
Nsg23
S'mov'
p779
sg25
S'0x81aa067L'
p780
sg27
Nsba(ibclass
BInstr
p781
(dp782
g2
Nsg17
S'mov     eax, [ebp+cAB]'
p783
sg19
S'8b45c0'
p784
sg21
Vmov eax, dword ptr [ebp - 0x40]
p785
sg5
L135962729L
sg6
Nsg23
S'mov'
p786
sg25
S'0x81aa069L'
p787
sg27
Nsba(ibclass
BInstr
p788
(dp789
g2
Nsg17
S'add     eax, edx'
p790
sg19
S'01d0'
p791
sg21
Vadd eax, edx
p792
sg5
L135962732L
sg6
Nsg23
S'add'
p793
sg25
S'0x81aa06cL'
p794
sg27
Nsba(ibclass
BInstr
p795
(dp796
g2
Nsg17
S'mov     [esp+8], ebx    ; count'
p797
sg19
S'895c2408'
p798
sg21
Vmov dword ptr [esp + 8], ebx
p799
sg5
L135962734L
sg6
Nsg23
S'mov'
p800
sg25
S'0x81aa06eL'
p801
sg27
Nsba(ibclass
BInstr
p802
(dp803
g2
Nsg17
S'mov     [esp+4], eax    ; data'
p804
sg19
S'89442404'
p805
sg21
Vmov dword ptr [esp + 4], eax
p806
sg5
L135962738L
sg6
Nsg23
S'mov'
p807
sg25
S'0x81aa072L'
p808
sg27
Nsba(ibclass
BInstr
p809
(dp810
g2
Nsg17
S'lea     eax, [ebp+ctxt]'
p811
sg19
S'8d45c8'
p812
sg21
Vlea eax, [ebp - 0x38]
p813
sg5
L135962742L
sg6
Nsg23
S'lea'
p814
sg25
S'0x81aa076L'
p815
sg27
Nsba(ibclass
BInstr
p816
(dp817
g2
Nsg17
S'mov     [esp], eax      ; ctx'
p818
sg19
S'890424'
p819
sg21
Vmov dword ptr [esp], eax
p820
sg5
L135962745L
sg6
Nsg23
S'mov'
p821
sg25
S'0x81aa079L'
p822
sg27
Nsba(ibclass
BInstr
p823
(dp824
g2
Nsg17
S'call    EVP_DigestUpdate'
p825
sg19
S'e86657f9ff'
p826
sg21
Vcall 0xfff9576b
p827
sg5
L135962748L
sg6
Nsg23
S'call'
p828
sg25
S'0x81aa07cL'
p829
sg27
Nsba(ibclass
BInstr
p830
(dp831
g2
Nsg17
S'mov     ebx, [ebp+longN]'
p832
sg19
S'8b5dbc'
p833
sg21
Vmov ebx, dword ptr [ebp - 0x44]
p834
sg5
L135962753L
sg6
Nsg23
S'mov'
p835
sg25
S'0x81aa081L'
p836
sg27
Nsba(ibclass
BInstr
p837
(dp838
g2
Nsg17
S'mov     edx, [ebp+longN]'
p839
sg19
S'8b55bc'
p840
sg21
Vmov edx, dword ptr [ebp - 0x44]
p841
sg5
L135962756L
sg6
Nsg23
S'mov'
p842
sg25
S'0x81aa084L'
p843
sg27
Nsba(ibclass
BInstr
p844
(dp845
g2
Nsg17
S'mov     eax, [ebp+cAB]'
p846
sg19
S'8b45c0'
p847
sg21
Vmov eax, dword ptr [ebp - 0x40]
p848
sg5
L135962759L
sg6
Nsg23
S'mov'
p849
sg25
S'0x81aa087L'
p850
sg27
Nsba(ibclass
BInstr
p851
(dp852
g2
Nsg17
S'add     eax, edx'
p853
sg19
S'01d0'
p854
sg21
Vadd eax, edx
p855
sg5
L135962762L
sg6
Nsg23
S'add'
p856
sg25
S'0x81aa08aL'
p857
sg27
Nsba(ibclass
BInstr
p858
(dp859
g2
Nsg17
S'mov     [esp+4], eax    ; to'
p860
sg19
S'89442404'
p861
sg21
Vmov dword ptr [esp + 4], eax
p862
sg5
L135962764L
sg6
Nsg23
S'mov'
p863
sg25
S'0x81aa08cL'
p864
sg27
Nsba(ibclass
BInstr
p865
(dp866
g2
Nsg17
S'mov     eax, [ebp+B]'
p867
sg19
S'8b45b0'
p868
sg21
Vmov eax, dword ptr [ebp - 0x50]
p869
sg5
L135962768L
sg6
Nsg23
S'mov'
p870
sg25
S'0x81aa090L'
p871
sg27
Nsba(ibclass
BInstr
p872
(dp873
g2
Nsg17
S'mov     [esp], eax      ; a'
p874
sg19
S'890424'
p875
sg21
Vmov dword ptr [esp], eax
p876
sg5
L135962771L
sg6
Nsg23
S'mov'
p877
sg25
S'0x81aa093L'
p878
sg27
Nsba(ibclass
BInstr
p879
(dp880
g2
Nsg17
S'call    BN_bn2bin'
p881
sg19
S'e8463cf6ff'
p882
sg21
Vcall 0xfff63c4b
p883
sg5
L135962774L
sg6
Nsg23
S'call'
p884
sg25
S'0x81aa096L'
p885
sg27
Nsba(ibclass
BInstr
p886
(dp887
g2
Nsg17
S'mov     edx, eax'
p888
sg19
S'89c2'
p889
sg21
Vmov edx, eax
p890
sg5
L135962779L
sg6
Nsg23
S'mov'
p891
sg25
S'0x81aa09bL'
p892
sg27
Nsba(ibclass
BInstr
p893
(dp894
g2
Nsg17
S'mov     eax, [ebp+cAB]'
p895
sg19
S'8b45c0'
p896
sg21
Vmov eax, dword ptr [ebp - 0x40]
p897
sg5
L135962781L
sg6
Nsg23
S'mov'
p898
sg25
S'0x81aa09dL'
p899
sg27
Nsba(ibclass
BInstr
p900
(dp901
g2
Nsg17
S'add     eax, edx'
p902
sg19
S'01d0'
p903
sg21
Vadd eax, edx
p904
sg5
L135962784L
sg6
Nsg23
S'add'
p905
sg25
S'0x81aa0a0L'
p906
sg27
Nsba(ibclass
BInstr
p907
(dp908
g2
Nsg17
S'mov     [esp+8], ebx    ; count'
p909
sg19
S'895c2408'
p910
sg21
Vmov dword ptr [esp + 8], ebx
p911
sg5
L135962786L
sg6
Nsg23
S'mov'
p912
sg25
S'0x81aa0a2L'
p913
sg27
Nsba(ibclass
BInstr
p914
(dp915
g2
Nsg17
S'mov     [esp+4], eax    ; data'
p916
sg19
S'89442404'
p917
sg21
Vmov dword ptr [esp + 4], eax
p918
sg5
L135962790L
sg6
Nsg23
S'mov'
p919
sg25
S'0x81aa0a6L'
p920
sg27
Nsba(ibclass
BInstr
p921
(dp922
g2
Nsg17
S'lea     eax, [ebp+ctxt]'
p923
sg19
S'8d45c8'
p924
sg21
Vlea eax, [ebp - 0x38]
p925
sg5
L135962794L
sg6
Nsg23
S'lea'
p926
sg25
S'0x81aa0aaL'
p927
sg27
Nsba(ibclass
BInstr
p928
(dp929
g2
Nsg17
S'mov     [esp], eax      ; ctx'
p930
sg19
S'890424'
p931
sg21
Vmov dword ptr [esp], eax
p932
sg5
L135962797L
sg6
Nsg23
S'mov'
p933
sg25
S'0x81aa0adL'
p934
sg27
Nsba(ibclass
BInstr
p935
(dp936
g2
Nsg17
S'call    EVP_DigestUpdate'
p937
sg19
S'e83257f9ff'
p938
sg21
Vcall 0xfff95737
p939
sg5
L135962800L
sg6
Nsg23
S'call'
p940
sg25
S'0x81aa0b0L'
p941
sg27
Nsba(ibclass
BInstr
p942
(dp943
g2
Nsg17
S'mov     eax, [ebp+cAB]'
p944
sg19
S'8b45c0'
p945
sg21
Vmov eax, dword ptr [ebp - 0x40]
p946
sg5
L135962805L
sg6
Nsg23
S'mov'
p947
sg25
S'0x81aa0b5L'
p948
sg27
Nsba(ibclass
BInstr
p949
(dp950
g2
Nsg17
S'mov     [esp], eax      ; str'
p951
sg19
S'890424'
p952
sg21
Vmov dword ptr [esp], eax
p953
sg5
L135962808L
sg6
Nsg23
S'mov'
p954
sg25
S'0x81aa0b8L'
p955
sg27
Nsba(ibclass
BInstr
p956
(dp957
g2
Nsg17
S'call    CRYPTO_free'
p958
sg19
S'e844cdf3ff'
p959
sg21
Vcall 0xfff3cd49
p960
sg5
L135962811L
sg6
Nsg23
S'call'
p961
sg25
S'0x81aa0bbL'
p962
sg27
Nsba(ibclass
BInstr
p963
(dp964
g2
Nsg17
S'mov     dword ptr [esp+8], 0; size'
p965
sg19
S'c744240800000000'
p966
sg21
Vmov dword ptr [esp + 8], 0
p967
sg5
L135962816L
sg6
Nsg23
S'mov'
p968
sg25
S'0x81aa0c0L'
p969
sg27
Nsba(ibclass
BInstr
p970
(dp971
g2
Nsg17
S'lea     eax, [ebp+cu]'
p972
sg19
S'8d45e0'
p973
sg21
Vlea eax, [ebp - 0x20]
p974
sg5
L135962824L
sg6
Nsg23
S'lea'
p975
sg25
S'0x81aa0c8L'
p976
sg27
Nsba(ibclass
BInstr
p977
(dp978
g2
Nsg17
S'mov     [esp+4], eax    ; md'
p979
sg19
S'89442404'
p980
sg21
Vmov dword ptr [esp + 4], eax
p981
sg5
L135962827L
sg6
Nsg23
S'mov'
p982
sg25
S'0x81aa0cbL'
p983
sg27
Nsba(ibclass
BInstr
p984
(dp985
g2
Nsg17
S'lea     eax, [ebp+ctxt]'
p986
sg19
S'8d45c8'
p987
sg21
Vlea eax, [ebp - 0x38]
p988
sg5
L135962831L
sg6
Nsg23
S'lea'
p989
sg25
S'0x81aa0cfL'
p990
sg27
Nsba(ibclass
BInstr
p991
(dp992
g2
Nsg17
S'mov     [esp], eax      ; ctx'
p993
sg19
S'890424'
p994
sg21
Vmov dword ptr [esp], eax
p995
sg5
L135962834L
sg6
Nsg23
S'mov'
p996
sg25
S'0x81aa0d2L'
p997
sg27
Nsba(ibclass
BInstr
p998
(dp999
g2
Nsg17
S'call    EVP_DigestFinal_ex'
p1000
sg19
S'e86357f9ff'
p1001
sg21
Vcall 0xfff95768
p1002
sg5
L135962837L
sg6
Nsg23
S'call'
p1003
sg25
S'0x81aa0d5L'
p1004
sg27
Nsba(ibclass
BInstr
p1005
(dp1006
g2
Nsg17
S'lea     eax, [ebp+ctxt]'
p1007
sg19
S'8d45c8'
p1008
sg21
Vlea eax, [ebp - 0x38]
p1009
sg5
L135962842L
sg6
Nsg23
S'lea'
p1010
sg25
S'0x81aa0daL'
p1011
sg27
Nsba(ibclass
BInstr
p1012
(dp1013
g2
Nsg17
S'mov     [esp], eax      ; ctx'
p1014
sg19
S'890424'
p1015
sg21
Vmov dword ptr [esp], eax
p1016
sg5
L135962845L
sg6
Nsg23
S'mov'
p1017
sg25
S'0x81aa0ddL'
p1018
sg27
Nsba(ibclass
BInstr
p1019
(dp1020
g2
Nsg17
S'call    EVP_MD_CTX_cleanup'
p1021
sg19
S'e8135bf9ff'
p1022
sg21
Vcall 0xfff95b18
p1023
sg5
L135962848L
sg6
Nsg23
S'call'
p1024
sg25
S'0x81aa0e0L'
p1025
sg27
Nsba(ibclass
BInstr
p1026
(dp1027
g2
Nsg17
S'mov     dword ptr [esp+8], 0; ret'
p1028
sg19
S'c744240800000000'
p1029
sg21
Vmov dword ptr [esp + 8], 0
p1030
sg5
L135962853L
sg6
Nsg23
S'mov'
p1031
sg25
S'0x81aa0e5L'
p1032
sg27
Nsba(ibclass
BInstr
p1033
(dp1034
g2
Nsg17
S'mov     dword ptr [esp+4], 14h; len'
p1035
sg19
S'c744240414000000'
p1036
sg21
Vmov dword ptr [esp + 4], 0x14
p1037
sg5
L135962861L
sg6
Nsg23
S'mov'
p1038
sg25
S'0x81aa0edL'
p1039
sg27
Nsba(ibclass
BInstr
p1040
(dp1041
g2
Nsg17
S'lea     eax, [ebp+cu]'
p1042
sg19
S'8d45e0'
p1043
sg21
Vlea eax, [ebp - 0x20]
p1044
sg5
L135962869L
sg6
Nsg23
S'lea'
p1045
sg25
S'0x81aa0f5L'
p1046
sg27
Nsba(ibclass
BInstr
p1047
(dp1048
g2
Nsg17
S'mov     [esp], eax      ; s'
p1049
sg19
S'890424'
p1050
sg21
Vmov dword ptr [esp], eax
p1051
sg5
L135962872L
sg6
Nsg23
S'mov'
p1052
sg25
S'0x81aa0f8L'
p1053
sg27
Nsba(ibclass
BInstr
p1054
(dp1055
g2
Nsg17
S'call    BN_bin2bn'
p1056
sg19
S'e8173af6ff'
p1057
sg21
Vcall 0xfff63a1c
p1058
sg5
L135962875L
sg6
Nsg23
S'call'
p1059
sg25
S'0x81aa0fbL'
p1060
sg27
Nsba(ibclass
BInstr
p1061
(dp1062
g2
Nsg17
S'mov     [ebp+u], eax'
p1063
sg19
S'8945c4'
p1064
sg21
Vmov dword ptr [ebp - 0x3c], eax
p1065
sg5
L135962880L
sg6
Nsg23
S'mov'
p1066
sg25
S'0x81aa100L'
p1067
sg27
Nsba(ibclass
BInstr
p1068
(dp1069
g2
Nsg17
S'cmp     [ebp+u], 0'
p1070
sg19
S'837dc400'
p1071
sg21
Vcmp dword ptr [ebp - 0x3c], 0
p1072
sg5
L135962883L
sg6
Nsg23
S'cmp'
p1073
sg25
S'0x81aa103L'
p1074
sg27
Nsba(ibclass
BInstr
p1075
(dp1076
g2
Nsg17
S'jnz     short loc_81AA110'
p1077
sg19
S'7507'
p1078
sg21
Vjne 9
p1079
sg5
L135962887L
sg6
Nsg23
S'jnz'
p1080
sg25
S'0x81aa107L'
p1081
sg27
Nsbasg126
(lp1082
Vmov eax, mem
p1083
aVmov mem, eax
p1084
aVmov mem, 0
p1085
aVmov eax, mem
p1086
aVmov mem, eax
p1087
aVcall address
p1088
aVlea eax, mem
p1089
aVmov mem, eax
p1090
aVcall address
p1091
aVcall address
p1092
aVmov mem, 0
p1093
aVmov mem, eax
p1094
aVlea eax, mem
p1095
aVmov mem, eax
p1096
aVcall address
p1097
aVmov ebx, mem
p1098
aVmov edx, mem
p1099
aVmov eax, mem
p1100
ag743
aVmov mem, eax
p1101
aVmov eax, mem
p1102
aVmov mem, eax
p1103
aVcall address
p1104
ag778
aVmov eax, mem
p1105
ag792
aVmov mem, ebx
p1106
aVmov mem, eax
p1107
aVlea eax, mem
p1108
aVmov mem, eax
p1109
aVcall address
p1110
aVmov ebx, mem
p1111
aVmov edx, mem
p1112
aVmov eax, mem
p1113
ag855
aVmov mem, eax
p1114
aVmov eax, mem
p1115
aVmov mem, eax
p1116
aVcall address
p1117
ag890
aVmov eax, mem
p1118
ag904
aVmov mem, ebx
p1119
aVmov mem, eax
p1120
aVlea eax, mem
p1121
aVmov mem, eax
p1122
aVcall address
p1123
aVmov eax, mem
p1124
aVmov mem, eax
p1125
aVcall address
p1126
aVmov mem, 0
p1127
aVlea eax, mem
p1128
aVmov mem, eax
p1129
aVlea eax, mem
p1130
aVmov mem, eax
p1131
aVcall address
p1132
aVlea eax, mem
p1133
aVmov mem, eax
p1134
aVcall address
p1135
aVmov mem, 0
p1136
aVmov mem, address
p1137
aVlea eax, mem
p1138
aVmov mem, eax
p1139
aVcall address
p1140
aVmov mem, eax
p1141
aVcmp mem, 0
p1142
ag1079
asg139
Nsg5
S'0x81aa00cL'
p1143
sg141
(lp1144
S'0x81a9fd6L'
p1145
asg6
Nsg143
(lp1146
S'0x81aa109L'
p1147
aS'0x81aa110L'
p1148
asg147
Nsg148
Nsg149
S'13a1f9566bde3b32eef7b6ce586f55e0'
p1149
sg151
S'16185fb7663dd4289bd9e1ab2107c74a'
p1150
sg153
(lp1151
g618
ag625
ag632
ag639
ag646
ag653
ag660
ag667
ag674
ag681
ag688
ag695
ag702
ag709
ag716
ag723
ag730
ag737
ag744
ag751
ag758
ag765
ag772
ag779
ag786
ag793
ag800
ag807
ag814
ag821
ag828
ag835
ag842
ag849
ag856
ag863
ag870
ag877
ag884
ag891
ag898
ag905
ag912
ag919
ag926
ag933
ag940
ag947
ag954
ag961
ag968
ag975
ag982
ag989
ag996
ag1003
ag1010
ag1017
ag1024
ag1031
ag1038
ag1045
ag1052
ag1059
ag1066
ag1073
ag1080
asg155
Nsba(ibclass
BBasicBlock
p1152
(dp1153
g12
Nsg13
(lp1154
(ibclass
BInstr
p1155
(dp1156
g2
Nsg17
S'mov     eax, 0'
p1157
sg19
S'b800000000'
p1158
sg21
Vmov eax, 0
p1159
sg5
L135962889L
sg6
Nsg23
S'mov'
p1160
sg25
S'0x81aa109L'
p1161
sg27
Nsba(ibclass
BInstr
p1162
(dp1163
g2
Nsg17
S'jmp     short loc_81AA12F'
p1164
sg19
S'eb1f'
p1165
sg21
Vjmp 0x21
p1166
sg5
L135962894L
sg6
Nsg23
S'jmp'
p1167
sg25
S'0x81aa10eL'
p1168
sg27
Nsbasg126
(lp1169
g1159
aVjmp address
p1170
asg139
Nsg5
S'0x81aa109L'
p1171
sg141
(lp1172
S'0x81aa00cL'
p1173
asg6
Nsg143
(lp1174
S'0x81aa12fL'
p1175
asg147
Nsg148
Nsg149
S'8b9a0d40e062be2b9b2d9885108fb196'
p1176
sg151
S'bfbe752dd865c9a89011ba470eab331d'
p1177
sg153
(lp1178
g1160
ag1167
asg155
Nsba(ibclass
BBasicBlock
p1179
(dp1180
g12
Nsg13
(lp1181
(ibclass
BInstr
p1182
(dp1183
g2
Nsg17
S'mov     eax, [ebp+u]'
p1184
sg19
S'8b45c4'
p1185
sg21
Vmov eax, dword ptr [ebp - 0x3c]
p1186
sg5
L135962896L
sg6
Nsg23
S'mov'
p1187
sg25
S'0x81aa110L'
p1188
sg27
Nsba(ibclass
BInstr
p1189
(dp1190
g2
Nsg17
S'mov     eax, [eax+4]'
p1191
sg19
S'8b4004'
p1192
sg21
Vmov eax, dword ptr [eax + 4]
p1193
sg5
L135962899L
sg6
Nsg23
S'mov'
p1194
sg25
S'0x81aa113L'
p1195
sg27
Nsba(ibclass
BInstr
p1196
(dp1197
g2
Nsg17
S'test    eax, eax'
p1198
sg19
S'85c0'
p1199
sg21
Vtest eax, eax
p1200
sg5
L135962902L
sg6
Nsg23
S'test'
p1201
sg25
S'0x81aa116L'
p1202
sg27
Nsba(ibclass
BInstr
p1203
(dp1204
g2
Nsg17
S'jz      short loc_81AA11F'
p1205
sg19
S'7405'
p1206
sg21
Vje 7
p1207
sg5
L135962904L
sg6
Nsg23
S'jz'
p1208
sg25
S'0x81aa118L'
p1209
sg27
Nsbasg126
(lp1210
Vmov eax, mem
p1211
aVmov eax, mem
p1212
ag1200
ag1207
asg139
Nsg5
S'0x81aa110L'
p1213
sg141
(lp1214
S'0x81aa00cL'
p1215
asg6
Nsg143
(lp1216
S'0x81aa11aL'
p1217
aS'0x81aa11fL'
p1218
asg147
Nsg148
Nsg149
S'ea5d08c7dcc07640d42787f826218f11'
p1219
sg151
S'af88055e33e05bfb0d08de0b77806da5'
p1220
sg153
(lp1221
g1187
ag1194
ag1201
ag1208
asg155
Nsba(ibclass
BBasicBlock
p1222
(dp1223
g12
Nsg13
(lp1224
(ibclass
BInstr
p1225
(dp1226
g2
Nsg17
S'mov     eax, [ebp+u]'
p1227
sg19
S'8b45c4'
p1228
sg21
Vmov eax, dword ptr [ebp - 0x3c]
p1229
sg5
L135962906L
sg6
Nsg23
S'mov'
p1230
sg25
S'0x81aa11aL'
p1231
sg27
Nsba(ibclass
BInstr
p1232
(dp1233
g2
Nsg17
S'jmp     short loc_81AA12F'
p1234
sg19
S'eb10'
p1235
sg21
Vjmp 0x12
p1236
sg5
L135962909L
sg6
Nsg23
S'jmp'
p1237
sg25
S'0x81aa11dL'
p1238
sg27
Nsbasg126
(lp1239
Vmov eax, mem
p1240
aVjmp address
p1241
asg139
Nsg5
S'0x81aa11aL'
p1242
sg141
(lp1243
S'0x81aa110L'
p1244
asg6
Nsg143
(lp1245
S'0x81aa12fL'
p1246
asg147
Nsg148
Nsg149
S'8b9a0d40e062be2b9b2d9885108fb196'
p1247
sg151
S'5a5b261ba52a671a369af6372509eb2f'
p1248
sg153
(lp1249
g1230
ag1237
asg155
Nsba(ibclass
BBasicBlock
p1250
(dp1251
g12
Nsg13
(lp1252
(ibclass
BInstr
p1253
(dp1254
g2
Nsg17
S'mov     eax, [ebp+u]'
p1255
sg19
S'8b45c4'
p1256
sg21
Vmov eax, dword ptr [ebp - 0x3c]
p1257
sg5
L135962911L
sg6
Nsg23
S'mov'
p1258
sg25
S'0x81aa11fL'
p1259
sg27
Nsba(ibclass
BInstr
p1260
(dp1261
g2
Nsg17
S'mov     [esp], eax      ; a'
p1262
sg19
S'890424'
p1263
sg21
Vmov dword ptr [esp], eax
p1264
sg5
L135962914L
sg6
Nsg23
S'mov'
p1265
sg25
S'0x81aa122L'
p1266
sg27
Nsba(ibclass
BInstr
p1267
(dp1268
g2
Nsg17
S'call    BN_free'
p1269
sg19
S'e8b22cf6ff'
p1270
sg21
Vcall 0xfff62cb7
p1271
sg5
L135962917L
sg6
Nsg23
S'call'
p1272
sg25
S'0x81aa125L'
p1273
sg27
Nsba(ibclass
BInstr
p1274
(dp1275
g2
Nsg17
S'mov     eax, 0'
p1276
sg19
S'b800000000'
p1277
sg21
Vmov eax, 0
p1278
sg5
L135962922L
sg6
Nsg23
S'mov'
p1279
sg25
S'0x81aa12aL'
p1280
sg27
Nsbasg126
(lp1281
Vmov eax, mem
p1282
aVmov mem, eax
p1283
aVcall address
p1284
ag1278
asg139
Nsg5
S'0x81aa11fL'
p1285
sg141
(lp1286
S'0x81aa110L'
p1287
asg6
Nsg143
(lp1288
S'0x81aa12fL'
p1289
asg147
Nsg148
Nsg149
S'a6abb5d9994936d83c79ed1f9957ba18'
p1290
sg151
S'7e9aaa9eea49cef865e7d8e93de6f187'
p1291
sg153
(lp1292
g1258
ag1265
ag1272
ag1279
asg155
Nsba(ibclass
BBasicBlock
p1293
(dp1294
g12
Nsg13
(lp1295
(ibclass
BInstr
p1296
(dp1297
g2
Nsg17
S'mov     ecx, [ebp+var_C]'
p1298
sg19
S'8b4df4'
p1299
sg21
Vmov ecx, dword ptr [ebp - 0xc]
p1300
sg5
L135962927L
sg6
Nsg23
S'mov'
p1301
sg25
S'0x81aa12fL'
p1302
sg27
Nsba(ibclass
BInstr
p1303
(dp1304
g2
Nsg17
S'xor     ecx, large gs:14h'
p1305
sg19
S'65330d14000000'
p1306
sg21
Vxor ecx, dword ptr gs:[0x14]
p1307
sg5
L135962930L
sg6
Nsg23
S'xor'
p1308
sg25
S'0x81aa132L'
p1309
sg27
Nsba(ibclass
BInstr
p1310
(dp1311
g2
Nsg17
S'jz      short loc_81AA140'
p1312
sg19
S'7405'
p1313
sg21
Vje 7
p1314
sg5
L135962937L
sg6
Nsg23
S'jz'
p1315
sg25
S'0x81aa139L'
p1316
sg27
Nsbasg126
(lp1317
Vmov ecx, mem
p1318
aVxor ecx, gs:mem
p1319
ag1314
asg139
Nsg5
S'0x81aa12fL'
p1320
sg141
(lp1321
S'0x81a9f81L'
p1322
aS'0x81a9fb7L'
p1323
aS'0x81aa002L'
p1324
aS'0x81aa109L'
p1325
aS'0x81aa11aL'
p1326
aS'0x81aa11fL'
p1327
asg6
Nsg143
(lp1328
S'0x81aa13bL'
p1329
aS'0x81aa140L'
p1330
asg147
Nsg148
Nsg149
S'81354ac238b6424b069ead35b2072afc'
p1331
sg151
S'ef43ae426fdfa90a3b78bdfa42234cf8'
p1332
sg153
(lp1333
g1301
ag1308
ag1315
asg155
Nsba(ibclass
BBasicBlock
p1334
(dp1335
g12
Nsg13
(lp1336
(ibclass
BInstr
p1337
(dp1338
g2
Nsg17
S'call    ___stack_chk_fail'
p1339
sg19
S'e840f5e9ff'
p1340
sg21
Vcall 0xffe9f545
p1341
sg5
L135962939L
sg6
Nsg23
S'call'
p1342
sg25
S'0x81aa13bL'
p1343
sg27
Nsbasg126
(lp1344
Vcall address
p1345
asg139
Nsg5
S'0x81aa13bL'
p1346
sg141
(lp1347
S'0x81aa12fL'
p1348
asg6
Nsg143
(lp1349
sg147
Nsg148
Nsg149
S'53b9e9679a8ea25880376080b76f98ad'
p1350
sg151
S'5c3539e46d089242d4a47b64016c87be'
p1351
sg153
(lp1352
g1342
asg155
Nsba(ibclass
BBasicBlock
p1353
(dp1354
g12
Nsg13
(lp1355
(ibclass
BInstr
p1356
(dp1357
g2
Nsg17
S'add     esp, 64h'
p1358
sg19
S'83c464'
p1359
sg21
Vadd esp, 0x64
p1360
sg5
L135962944L
sg6
Nsg23
S'add'
p1361
sg25
S'0x81aa140L'
p1362
sg27
Nsba(ibclass
BInstr
p1363
(dp1364
g2
Nsg17
S'pop     ebx'
p1365
sg19
S'5b'
p1366
sg21
Vpop ebx
p1367
sg5
L135962947L
sg6
Nsg23
S'pop'
p1368
sg25
S'0x81aa143L'
p1369
sg27
Nsba(ibclass
BInstr
p1370
(dp1371
g2
Nsg17
S'pop     ebp'
p1372
sg19
S'5d'
p1373
sg21
Vpop ebp
p1374
sg5
L135962948L
sg6
Nsg23
S'pop'
p1375
sg25
S'0x81aa144L'
p1376
sg27
Nsba(ibclass
BInstr
p1377
(dp1378
g2
Nsg17
S'retn'
p1379
sg19
S'c3'
p1380
sg21
Vret 
p1381
sg5
L135962949L
sg6
Nsg23
S'retn'
p1382
sg25
S'0x81aa145L'
p1383
sg27
Nsbasg126
(lp1384
Vadd esp, address
p1385
ag1367
ag1374
aVret
p1386
asg139
Nsg5
S'0x81aa140L'
p1387
sg141
(lp1388
S'0x81aa12fL'
p1389
asg6
Nsg143
(lp1390
sg147
Nsg148
Nsg149
S'4d1981a678d0c70281d5161c3174b44c'
p1391
sg151
S'd4189a9002395f50ce2cc84f459d3b62'
p1392
sg153
(lp1393
g1361
ag1368
ag1375
ag1382
asg155
Nsbasb.