(ibclass
BFunc
p0
(dp1
S'hash'
p2
NsS'name'
p3
S'dtls1_process_heartbeat'
p4
sS'start_address'
p5
L135074646L
sS'flag'
p6
NsS'program'
p7
NsS'bbs'
p8
(lp9
(ibclass
BBasicBlock
p10
(dp11
S'function'
p12
NsS'binstrs'
p13
(lp14
(ibclass
BInstr
p15
(dp16
g2
NsS'disasm'
p17
S'push    ebp'
p18
sS'bytes'
p19
S'55'
p20
sS'disasm_striped'
p21
Vpush ebp
p22
sg5
L135074646L
sg6
NsS'mnem'
p23
S'push'
p24
sS'address'
p25
S'0x80d1356L'
p26
sS'basicblock'
p27
Nsba(ibclass
BInstr
p28
(dp29
g2
Nsg17
S'mov     ebp, esp'
p30
sg19
S'89e5'
p31
sg21
Vmov ebp, esp
p32
sg5
L135074647L
sg6
Nsg23
S'mov'
p33
sg25
S'0x80d1357L'
p34
sg27
Nsba(ibclass
BInstr
p35
(dp36
g2
Nsg17
S'push    esi'
p37
sg19
S'56'
p38
sg21
Vpush esi
p39
sg5
L135074649L
sg6
Nsg23
S'push'
p40
sg25
S'0x80d1359L'
p41
sg27
Nsba(ibclass
BInstr
p42
(dp43
g2
Nsg17
S'push    ebx'
p44
sg19
S'53'
p45
sg21
Vpush ebx
p46
sg5
L135074650L
sg6
Nsg23
S'push'
p47
sg25
S'0x80d135aL'
p48
sg27
Nsba(ibclass
BInstr
p49
(dp50
g2
Nsg17
S'sub     esp, 50h'
p51
sg19
S'83ec50'
p52
sg21
Vsub esp, 0x50
p53
sg5
L135074651L
sg6
Nsg23
S'sub'
p54
sg25
S'0x80d135bL'
p55
sg27
Nsba(ibclass
BInstr
p56
(dp57
g2
Nsg17
S'mov     eax, [ebp+s]'
p58
sg19
S'8b4508'
p59
sg21
Vmov eax, dword ptr [ebp + 8]
p60
sg5
L135074654L
sg6
Nsg23
S'mov'
p61
sg25
S'0x80d135eL'
p62
sg27
Nsba(ibclass
BInstr
p63
(dp64
g2
Nsg17
S'mov     eax, [eax+58h]'
p65
sg19
S'8b4058'
p66
sg21
Vmov eax, dword ptr [eax + 0x58]
p67
sg5
L135074657L
sg6
Nsg23
S'mov'
p68
sg25
S'0x80d1361L'
p69
sg27
Nsba(ibclass
BInstr
p70
(dp71
g2
Nsg17
S'mov     eax, [eax+118h]'
p72
sg19
S'8b8018010000'
p73
sg21
Vmov eax, dword ptr [eax + 0x118]
p74
sg5
L135074660L
sg6
Nsg23
S'mov'
p75
sg25
S'0x80d1364L'
p76
sg27
Nsba(ibclass
BInstr
p77
(dp78
g2
Nsg17
S'mov     [ebp+p], eax'
p79
sg19
S'8945d4'
p80
sg21
Vmov dword ptr [ebp - 0x2c], eax
p81
sg5
L135074666L
sg6
Nsg23
S'mov'
p82
sg25
S'0x80d136aL'
p83
sg27
Nsba(ibclass
BInstr
p84
(dp85
g2
Nsg17
S'mov     [ebp+padding], 10h'
p86
sg19
S'c745d810000000'
p87
sg21
Vmov dword ptr [ebp - 0x28], 0x10
p88
sg5
L135074669L
sg6
Nsg23
S'mov'
p89
sg25
S'0x80d136dL'
p90
sg27
Nsba(ibclass
BInstr
p91
(dp92
g2
Nsg17
S'mov     eax, [ebp+s]'
p93
sg19
S'8b4508'
p94
sg21
Vmov eax, dword ptr [ebp + 8]
p95
sg5
L135074676L
sg6
Nsg23
S'mov'
p96
sg25
S'0x80d1374L'
p97
sg27
Nsba(ibclass
BInstr
p98
(dp99
g2
Nsg17
S'mov     eax, [eax+64h]'
p100
sg19
S'8b4064'
p101
sg21
Vmov eax, dword ptr [eax + 0x64]
p102
sg5
L135074679L
sg6
Nsg23
S'mov'
p103
sg25
S'0x80d1377L'
p104
sg27
Nsba(ibclass
BInstr
p105
(dp106
g2
Nsg17
S'test    eax, eax'
p107
sg19
S'85c0'
p108
sg21
Vtest eax, eax
p109
sg5
L135074682L
sg6
Nsg23
S'test'
p110
sg25
S'0x80d137aL'
p111
sg27
Nsba(ibclass
BInstr
p112
(dp113
g2
Nsg17
S'jz      short loc_80D13CF'
p114
sg19
S'7451'
p115
sg21
Vje 0x53
p116
sg5
L135074684L
sg6
Nsg23
S'jz'
p117
sg25
S'0x80d137cL'
p118
sg27
NsbasS'disasm_list'
p119
(lp120
g22
ag32
ag39
ag46
aVsub esp, address
p121
aVmov eax, mem
p122
aVmov eax, mem
p123
aVmov eax, mem
p124
aVmov mem, eax
p125
aVmov mem, address
p126
aVmov eax, mem
p127
aVmov eax, mem
p128
ag109
aVje address
p129
asS'end_address'
p130
Nsg5
S'0x80d1356L'
p131
sS'preds'
p132
(lp133
sg6
NsS'succs'
p134
(lp135
S'0x80d137eL'
p136
aS'0x80d13cfL'
p137
asS'hash_v3'
p138
NsS'flag_v2'
p139
NsS'hash_v1'
p140
S'c6da881c7aa9b193ec050fb4998c12bd'
p141
sS'hash_v2'
p142
S'15181d40a7c063e55c8d0611969c3327'
p143
sS'mnen_list'
p144
(lp145
g24
ag33
ag40
ag47
ag54
ag61
ag68
ag75
ag82
ag89
ag96
ag103
ag110
ag117
asS'neighbour_disasm_list'
p146
Nsba(ibclass
BBasicBlock
p147
(dp148
g12
Nsg13
(lp149
(ibclass
BInstr
p150
(dp151
g2
Nsg17
S'mov     eax, [ebp+s]'
p152
sg19
S'8b4508'
p153
sg21
Vmov eax, dword ptr [ebp + 8]
p154
sg5
L135074686L
sg6
Nsg23
S'mov'
p155
sg25
S'0x80d137eL'
p156
sg27
Nsba(ibclass
BInstr
p157
(dp158
g2
Nsg17
S'mov     eax, [eax+64h]'
p159
sg19
S'8b4064'
p160
sg21
Vmov eax, dword ptr [eax + 0x64]
p161
sg5
L135074689L
sg6
Nsg23
S'mov'
p162
sg25
S'0x80d1381L'
p163
sg27
Nsba(ibclass
BInstr
p164
(dp165
g2
Nsg17
S'mov     edx, [ebp+s]'
p166
sg19
S'8b5508'
p167
sg21
Vmov edx, dword ptr [ebp + 8]
p168
sg5
L135074692L
sg6
Nsg23
S'mov'
p169
sg25
S'0x80d1384L'
p170
sg27
Nsba(ibclass
BInstr
p171
(dp172
g2
Nsg17
S'mov     esi, [edx+68h]'
p173
sg19
S'8b7268'
p174
sg21
Vmov esi, dword ptr [edx + 0x68]
p175
sg5
L135074695L
sg6
Nsg23
S'mov'
p176
sg25
S'0x80d1387L'
p177
sg27
Nsba(ibclass
BInstr
p178
(dp179
g2
Nsg17
S'mov     edx, [ebp+s]'
p180
sg19
S'8b5508'
p181
sg21
Vmov edx, dword ptr [ebp + 8]
p182
sg5
L135074698L
sg6
Nsg23
S'mov'
p183
sg25
S'0x80d138aL'
p184
sg27
Nsba(ibclass
BInstr
p185
(dp186
g2
Nsg17
S'mov     edx, [edx+58h]'
p187
sg19
S'8b5258'
p188
sg21
Vmov edx, dword ptr [edx + 0x58]
p189
sg5
L135074701L
sg6
Nsg23
S'mov'
p190
sg25
S'0x80d138dL'
p191
sg27
Nsba(ibclass
BInstr
p192
(dp193
g2
Nsg17
S'mov     ebx, [edx+110h]'
p194
sg19
S'8b9a10010000'
p195
sg21
Vmov ebx, dword ptr [edx + 0x110]
p196
sg5
L135074704L
sg6
Nsg23
S'mov'
p197
sg25
S'0x80d1390L'
p198
sg27
Nsba(ibclass
BInstr
p199
(dp200
g2
Nsg17
S'mov     edx, [ebp+s]'
p201
sg19
S'8b5508'
p202
sg21
Vmov edx, dword ptr [ebp + 8]
p203
sg5
L135074710L
sg6
Nsg23
S'mov'
p204
sg25
S'0x80d1396L'
p205
sg27
Nsba(ibclass
BInstr
p206
(dp207
g2
Nsg17
S'mov     edx, [edx+58h]'
p208
sg19
S'8b5258'
p209
sg21
Vmov edx, dword ptr [edx + 0x58]
p210
sg5
L135074713L
sg6
Nsg23
S'mov'
p211
sg25
S'0x80d1399L'
p212
sg27
Nsba(ibclass
BInstr
p213
(dp214
g2
Nsg17
S'mov     ecx, [edx+118h]'
p215
sg19
S'8b8a18010000'
p216
sg21
Vmov ecx, dword ptr [edx + 0x118]
p217
sg5
L135074716L
sg6
Nsg23
S'mov'
p218
sg25
S'0x80d139cL'
p219
sg27
Nsba(ibclass
BInstr
p220
(dp221
g2
Nsg17
S'mov     edx, [ebp+s]'
p222
sg19
S'8b5508'
p223
sg21
Vmov edx, dword ptr [ebp + 8]
p224
sg5
L135074722L
sg6
Nsg23
S'mov'
p225
sg25
S'0x80d13a2L'
p226
sg27
Nsba(ibclass
BInstr
p227
(dp228
g2
Nsg17
S'mov     edx, [edx]'
p229
sg19
S'8b12'
p230
sg21
Vmov edx, dword ptr [edx]
p231
sg5
L135074725L
sg6
Nsg23
S'mov'
p232
sg25
S'0x80d13a5L'
p233
sg27
Nsba(ibclass
BInstr
p234
(dp235
g2
Nsg17
S'mov     [esp+18h], esi'
p236
sg19
S'89742418'
p237
sg21
Vmov dword ptr [esp + 0x18], esi
p238
sg5
L135074727L
sg6
Nsg23
S'mov'
p239
sg25
S'0x80d13a7L'
p240
sg27
Nsba(ibclass
BInstr
p241
(dp242
g2
Nsg17
S'mov     esi, [ebp+s]'
p243
sg19
S'8b7508'
p244
sg21
Vmov esi, dword ptr [ebp + 8]
p245
sg5
L135074731L
sg6
Nsg23
S'mov'
p246
sg25
S'0x80d13abL'
p247
sg27
Nsba(ibclass
BInstr
p248
(dp249
g2
Nsg17
S'mov     [esp+14h], esi'
p250
sg19
S'89742414'
p251
sg21
Vmov dword ptr [esp + 0x14], esi
p252
sg5
L135074734L
sg6
Nsg23
S'mov'
p253
sg25
S'0x80d13aeL'
p254
sg27
Nsba(ibclass
BInstr
p255
(dp256
g2
Nsg17
S'mov     [esp+10h], ebx'
p257
sg19
S'895c2410'
p258
sg21
Vmov dword ptr [esp + 0x10], ebx
p259
sg5
L135074738L
sg6
Nsg23
S'mov'
p260
sg25
S'0x80d13b2L'
p261
sg27
Nsba(ibclass
BInstr
p262
(dp263
g2
Nsg17
S'mov     [esp+0Ch], ecx'
p264
sg19
S'894c240c'
p265
sg21
Vmov dword ptr [esp + 0xc], ecx
p266
sg5
L135074742L
sg6
Nsg23
S'mov'
p267
sg25
S'0x80d13b6L'
p268
sg27
Nsba(ibclass
BInstr
p269
(dp270
g2
Nsg17
S'mov     dword ptr [esp+8], 18h'
p271
sg19
S'c744240818000000'
p272
sg21
Vmov dword ptr [esp + 8], 0x18
p273
sg5
L135074746L
sg6
Nsg23
S'mov'
p274
sg25
S'0x80d13baL'
p275
sg27
Nsba(ibclass
BInstr
p276
(dp277
g2
Nsg17
S'mov     [esp+4], edx'
p278
sg19
S'89542404'
p279
sg21
Vmov dword ptr [esp + 4], edx
p280
sg5
L135074754L
sg6
Nsg23
S'mov'
p281
sg25
S'0x80d13c2L'
p282
sg27
Nsba(ibclass
BInstr
p283
(dp284
g2
Nsg17
S'mov     dword ptr [esp], 0'
p285
sg19
S'c7042400000000'
p286
sg21
Vmov dword ptr [esp], 0
p287
sg5
L135074758L
sg6
Nsg23
S'mov'
p288
sg25
S'0x80d13c6L'
p289
sg27
Nsba(ibclass
BInstr
p290
(dp291
g2
Nsg17
S'call    eax'
p292
sg19
S'ffd0'
p293
sg21
Vcall eax
p294
sg5
L135074765L
sg6
Nsg23
S'call'
p295
sg25
S'0x80d13cdL'
p296
sg27
Nsbasg119
(lp297
Vmov eax, mem
p298
aVmov eax, mem
p299
aVmov edx, mem
p300
aVmov esi, mem
p301
aVmov edx, mem
p302
aVmov edx, mem
p303
aVmov ebx, mem
p304
aVmov edx, mem
p305
aVmov edx, mem
p306
aVmov ecx, mem
p307
aVmov edx, mem
p308
aVmov edx, mem
p309
aVmov mem, esi
p310
aVmov esi, mem
p311
aVmov mem, esi
p312
aVmov mem, ebx
p313
aVmov mem, ecx
p314
aVmov mem, address
p315
aVmov mem, edx
p316
aVmov mem, 0
p317
ag294
asg130
Nsg5
S'0x80d137eL'
p318
sg132
(lp319
S'0x80d1356L'
p320
asg6
Nsg134
(lp321
S'0x80d13cfL'
p322
asg138
Nsg139
Nsg140
S'4b74df788470caadb4e712af2d7d9d18'
p323
sg142
S'e06a2bc756eb1c48fd66c145dc8f8771'
p324
sg144
(lp325
g155
ag162
ag169
ag176
ag183
ag190
ag197
ag204
ag211
ag218
ag225
ag232
ag239
ag246
ag253
ag260
ag267
ag274
ag281
ag288
ag295
asg146
Nsba(ibclass
BBasicBlock
p326
(dp327
g12
Nsg13
(lp328
(ibclass
BInstr
p329
(dp330
g2
Nsg17
S'mov     eax, [ebp+s]'
p331
sg19
S'8b4508'
p332
sg21
Vmov eax, dword ptr [ebp + 8]
p333
sg5
L135074767L
sg6
Nsg23
S'mov'
p334
sg25
S'0x80d13cfL'
p335
sg27
Nsba(ibclass
BInstr
p336
(dp337
g2
Nsg17
S'mov     eax, [eax+58h]'
p338
sg19
S'8b4058'
p339
sg21
Vmov eax, dword ptr [eax + 0x58]
p340
sg5
L135074770L
sg6
Nsg23
S'mov'
p341
sg25
S'0x80d13d2L'
p342
sg27
Nsba(ibclass
BInstr
p343
(dp344
g2
Nsg17
S'mov     eax, [eax+110h]'
p345
sg19
S'8b8010010000'
p346
sg21
Vmov eax, dword ptr [eax + 0x110]
p347
sg5
L135074773L
sg6
Nsg23
S'mov'
p348
sg25
S'0x80d13d5L'
p349
sg27
Nsba(ibclass
BInstr
p350
(dp351
g2
Nsg17
S'cmp     eax, 12h'
p352
sg19
S'83f812'
p353
sg21
Vcmp eax, 0x12
p354
sg5
L135074779L
sg6
Nsg23
S'cmp'
p355
sg25
S'0x80d13dbL'
p356
sg27
Nsba(ibclass
BInstr
p357
(dp358
g2
Nsg17
S'ja      short loc_80D13EA'
p359
sg19
S'770a'
p360
sg21
Vja 0xc
p361
sg5
L135074782L
sg6
Nsg23
S'ja'
p362
sg25
S'0x80d13deL'
p363
sg27
Nsbasg119
(lp364
Vmov eax, mem
p365
aVmov eax, mem
p366
aVmov eax, mem
p367
aVcmp eax, address
p368
aVja address
p369
asg130
Nsg5
S'0x80d13cfL'
p370
sg132
(lp371
S'0x80d1356L'
p372
aS'0x80d137eL'
p373
asg6
Nsg134
(lp374
S'0x80d13e0L'
p375
aS'0x80d13eaL'
p376
asg138
Nsg139
Nsg140
S'af4f25260e490d70cff2cd93f6e3f7b6'
p377
sg142
S'2aee722c8ea49c4772d0a6e6fc9e6301'
p378
sg144
(lp379
g334
ag341
ag348
ag355
ag362
asg146
Nsba(ibclass
BBasicBlock
p380
(dp381
g12
Nsg13
(lp382
(ibclass
BInstr
p383
(dp384
g2
Nsg17
S'mov     eax, 0'
p385
sg19
S'b800000000'
p386
sg21
Vmov eax, 0
p387
sg5
L135074784L
sg6
Nsg23
S'mov'
p388
sg25
S'0x80d13e0L'
p389
sg27
Nsba(ibclass
BInstr
p390
(dp391
g2
Nsg17
S'jmp     loc_80D1621'
p392
sg19
S'e937020000'
p393
sg21
Vjmp 0x23c
p394
sg5
L135074789L
sg6
Nsg23
S'jmp'
p395
sg25
S'0x80d13e5L'
p396
sg27
Nsbasg119
(lp397
g387
aVjmp address
p398
asg130
Nsg5
S'0x80d13e0L'
p399
sg132
(lp400
S'0x80d13cfL'
p401
asg6
Nsg134
(lp402
S'0x80d1621L'
p403
asg138
Nsg139
Nsg140
S'8b9a0d40e062be2b9b2d9885108fb196'
p404
sg142
S'bfbe752dd865c9a89011ba470eab331d'
p405
sg144
(lp406
g388
ag395
asg146
Nsba(ibclass
BBasicBlock
p407
(dp408
g12
Nsg13
(lp409
(ibclass
BInstr
p410
(dp411
g2
Nsg17
S'mov     eax, [ebp+s]'
p412
sg19
S'8b4508'
p413
sg21
Vmov eax, dword ptr [ebp + 8]
p414
sg5
L135074794L
sg6
Nsg23
S'mov'
p415
sg25
S'0x80d13eaL'
p416
sg27
Nsba(ibclass
BInstr
p417
(dp418
g2
Nsg17
S'mov     eax, [eax+58h]'
p419
sg19
S'8b4058'
p420
sg21
Vmov eax, dword ptr [eax + 0x58]
p421
sg5
L135074797L
sg6
Nsg23
S'mov'
p422
sg25
S'0x80d13edL'
p423
sg27
Nsba(ibclass
BInstr
p424
(dp425
g2
Nsg17
S'mov     eax, [eax+110h]'
p426
sg19
S'8b8010010000'
p427
sg21
Vmov eax, dword ptr [eax + 0x110]
p428
sg5
L135074800L
sg6
Nsg23
S'mov'
p429
sg25
S'0x80d13f0L'
p430
sg27
Nsba(ibclass
BInstr
p431
(dp432
g2
Nsg17
S'cmp     eax, 4000h'
p433
sg19
S'3d00400000'
p434
sg21
Vcmp eax, 0x4000
p435
sg5
L135074806L
sg6
Nsg23
S'cmp'
p436
sg25
S'0x80d13f6L'
p437
sg27
Nsba(ibclass
BInstr
p438
(dp439
g2
Nsg17
S'jbe     short loc_80D1407'
p440
sg19
S'760a'
p441
sg21
Vjbe 0xc
p442
sg5
L135074811L
sg6
Nsg23
S'jbe'
p443
sg25
S'0x80d13fbL'
p444
sg27
Nsbasg119
(lp445
Vmov eax, mem
p446
aVmov eax, mem
p447
aVmov eax, mem
p448
aVcmp eax, address
p449
aVjbe address
p450
asg130
Nsg5
S'0x80d13eaL'
p451
sg132
(lp452
S'0x80d13cfL'
p453
asg6
Nsg134
(lp454
S'0x80d13fdL'
p455
aS'0x80d1407L'
p456
asg138
Nsg139
Nsg140
S'765e61775c78ceba0a1ab75870fc8fbc'
p457
sg142
S'19e04bc99bce58ed3e6b501b49aec6f1'
p458
sg144
(lp459
g415
ag422
ag429
ag436
ag443
asg146
Nsba(ibclass
BBasicBlock
p460
(dp461
g12
Nsg13
(lp462
(ibclass
BInstr
p463
(dp464
g2
Nsg17
S'mov     eax, 0'
p465
sg19
S'b800000000'
p466
sg21
Vmov eax, 0
p467
sg5
L135074813L
sg6
Nsg23
S'mov'
p468
sg25
S'0x80d13fdL'
p469
sg27
Nsba(ibclass
BInstr
p470
(dp471
g2
Nsg17
S'jmp     loc_80D1621'
p472
sg19
S'e91a020000'
p473
sg21
Vjmp 0x21f
p474
sg5
L135074818L
sg6
Nsg23
S'jmp'
p475
sg25
S'0x80d1402L'
p476
sg27
Nsbasg119
(lp477
g467
aVjmp address
p478
asg130
Nsg5
S'0x80d13fdL'
p479
sg132
(lp480
S'0x80d13eaL'
p481
asg6
Nsg134
(lp482
S'0x80d1621L'
p483
asg138
Nsg139
Nsg140
S'8b9a0d40e062be2b9b2d9885108fb196'
p484
sg142
S'bfbe752dd865c9a89011ba470eab331d'
p485
sg144
(lp486
g468
ag475
asg146
Nsba(ibclass
BBasicBlock
p487
(dp488
g12
Nsg13
(lp489
(ibclass
BInstr
p490
(dp491
g2
Nsg17
S'mov     eax, [ebp+p]'
p492
sg19
S'8b45d4'
p493
sg21
Vmov eax, dword ptr [ebp - 0x2c]
p494
sg5
L135074823L
sg6
Nsg23
S'mov'
p495
sg25
S'0x80d1407L'
p496
sg27
Nsba(ibclass
BInstr
p497
(dp498
g2
Nsg17
S'lea     edx, [eax+1]'
p499
sg19
S'8d5001'
p500
sg21
Vlea edx, [eax + 1]
p501
sg5
L135074826L
sg6
Nsg23
S'lea'
p502
sg25
S'0x80d140aL'
p503
sg27
Nsba(ibclass
BInstr
p504
(dp505
g2
Nsg17
S'mov     [ebp+p], edx'
p506
sg19
S'8955d4'
p507
sg21
Vmov dword ptr [ebp - 0x2c], edx
p508
sg5
L135074829L
sg6
Nsg23
S'mov'
p509
sg25
S'0x80d140dL'
p510
sg27
Nsba(ibclass
BInstr
p511
(dp512
g2
Nsg17
S'mov     al, [eax]'
p513
sg19
S'8a00'
p514
sg21
Vmov al, byte ptr [eax]
p515
sg5
L135074832L
sg6
Nsg23
S'mov'
p516
sg25
S'0x80d1410L'
p517
sg27
Nsba(ibclass
BInstr
p518
(dp519
g2
Nsg17
S'and     eax, 0FFh'
p520
sg19
S'25ff000000'
p521
sg21
Vand eax, 0xff
p522
sg5
L135074834L
sg6
Nsg23
S'and'
p523
sg25
S'0x80d1412L'
p524
sg27
Nsba(ibclass
BInstr
p525
(dp526
g2
Nsg17
S'mov     [ebp+hbtype], ax'
p527
sg19
S'668945d2'
p528
sg21
Vmov word ptr [ebp - 0x2e], ax
p529
sg5
L135074839L
sg6
Nsg23
S'mov'
p530
sg25
S'0x80d1417L'
p531
sg27
Nsba(ibclass
BInstr
p532
(dp533
g2
Nsg17
S'mov     eax, [ebp+p]'
p534
sg19
S'8b45d4'
p535
sg21
Vmov eax, dword ptr [ebp - 0x2c]
p536
sg5
L135074843L
sg6
Nsg23
S'mov'
p537
sg25
S'0x80d141bL'
p538
sg27
Nsba(ibclass
BInstr
p539
(dp540
g2
Nsg17
S'mov     al, [eax]'
p541
sg19
S'8a00'
p542
sg21
Vmov al, byte ptr [eax]
p543
sg5
L135074846L
sg6
Nsg23
S'mov'
p544
sg25
S'0x80d141eL'
p545
sg27
Nsba(ibclass
BInstr
p546
(dp547
g2
Nsg17
S'and     eax, 0FFh'
p548
sg19
S'25ff000000'
p549
sg21
Vand eax, 0xff
p550
sg5
L135074848L
sg6
Nsg23
S'and'
p551
sg25
S'0x80d1420L'
p552
sg27
Nsba(ibclass
BInstr
p553
(dp554
g2
Nsg17
S'shl     eax, 8'
p555
sg19
S'c1e008'
p556
sg21
Vshl eax, 8
p557
sg5
L135074853L
sg6
Nsg23
S'shl'
p558
sg25
S'0x80d1425L'
p559
sg27
Nsba(ibclass
BInstr
p560
(dp561
g2
Nsg17
S'mov     edx, eax'
p562
sg19
S'89c2'
p563
sg21
Vmov edx, eax
p564
sg5
L135074856L
sg6
Nsg23
S'mov'
p565
sg25
S'0x80d1428L'
p566
sg27
Nsba(ibclass
BInstr
p567
(dp568
g2
Nsg17
S'mov     eax, [ebp+p]'
p569
sg19
S'8b45d4'
p570
sg21
Vmov eax, dword ptr [ebp - 0x2c]
p571
sg5
L135074858L
sg6
Nsg23
S'mov'
p572
sg25
S'0x80d142aL'
p573
sg27
Nsba(ibclass
BInstr
p574
(dp575
g2
Nsg17
S'inc     eax'
p576
sg19
S'40'
p577
sg21
Vinc eax
p578
sg5
L135074861L
sg6
Nsg23
S'inc'
p579
sg25
S'0x80d142dL'
p580
sg27
Nsba(ibclass
BInstr
p581
(dp582
g2
Nsg17
S'mov     al, [eax]'
p583
sg19
S'8a00'
p584
sg21
Vmov al, byte ptr [eax]
p585
sg5
L135074862L
sg6
Nsg23
S'mov'
p586
sg25
S'0x80d142eL'
p587
sg27
Nsba(ibclass
BInstr
p588
(dp589
g2
Nsg17
S'and     eax, 0FFh'
p590
sg19
S'25ff000000'
p591
sg21
Vand eax, 0xff
p592
sg5
L135074864L
sg6
Nsg23
S'and'
p593
sg25
S'0x80d1430L'
p594
sg27
Nsba(ibclass
BInstr
p595
(dp596
g2
Nsg17
S'or      eax, edx'
p597
sg19
S'09d0'
p598
sg21
Vor eax, edx
p599
sg5
L135074869L
sg6
Nsg23
S'or'
p600
sg25
S'0x80d1435L'
p601
sg27
Nsba(ibclass
BInstr
p602
(dp603
g2
Nsg17
S'mov     [ebp+payload], eax'
p604
sg19
S'8945dc'
p605
sg21
Vmov dword ptr [ebp - 0x24], eax
p606
sg5
L135074871L
sg6
Nsg23
S'mov'
p607
sg25
S'0x80d1437L'
p608
sg27
Nsba(ibclass
BInstr
p609
(dp610
g2
Nsg17
S'add     [ebp+p], 2'
p611
sg19
S'8345d402'
p612
sg21
Vadd dword ptr [ebp - 0x2c], 2
p613
sg5
L135074874L
sg6
Nsg23
S'add'
p614
sg25
S'0x80d143aL'
p615
sg27
Nsba(ibclass
BInstr
p616
(dp617
g2
Nsg17
S'mov     eax, [ebp+payload]'
p618
sg19
S'8b45dc'
p619
sg21
Vmov eax, dword ptr [ebp - 0x24]
p620
sg5
L135074878L
sg6
Nsg23
S'mov'
p621
sg25
S'0x80d143eL'
p622
sg27
Nsba(ibclass
BInstr
p623
(dp624
g2
Nsg17
S'lea     edx, [eax+13h]'
p625
sg19
S'8d5013'
p626
sg21
Vlea edx, [eax + 0x13]
p627
sg5
L135074881L
sg6
Nsg23
S'lea'
p628
sg25
S'0x80d1441L'
p629
sg27
Nsba(ibclass
BInstr
p630
(dp631
g2
Nsg17
S'mov     eax, [ebp+s]'
p632
sg19
S'8b4508'
p633
sg21
Vmov eax, dword ptr [ebp + 8]
p634
sg5
L135074884L
sg6
Nsg23
S'mov'
p635
sg25
S'0x80d1444L'
p636
sg27
Nsba(ibclass
BInstr
p637
(dp638
g2
Nsg17
S'mov     eax, [eax+58h]'
p639
sg19
S'8b4058'
p640
sg21
Vmov eax, dword ptr [eax + 0x58]
p641
sg5
L135074887L
sg6
Nsg23
S'mov'
p642
sg25
S'0x80d1447L'
p643
sg27
Nsba(ibclass
BInstr
p644
(dp645
g2
Nsg17
S'mov     eax, [eax+110h]'
p646
sg19
S'8b8010010000'
p647
sg21
Vmov eax, dword ptr [eax + 0x110]
p648
sg5
L135074890L
sg6
Nsg23
S'mov'
p649
sg25
S'0x80d144aL'
p650
sg27
Nsba(ibclass
BInstr
p651
(dp652
g2
Nsg17
S'cmp     edx, eax'
p653
sg19
S'39c2'
p654
sg21
Vcmp edx, eax
p655
sg5
L135074896L
sg6
Nsg23
S'cmp'
p656
sg25
S'0x80d1450L'
p657
sg27
Nsba(ibclass
BInstr
p658
(dp659
g2
Nsg17
S'jbe     short loc_80D145E'
p660
sg19
S'760a'
p661
sg21
Vjbe 0xc
p662
sg5
L135074898L
sg6
Nsg23
S'jbe'
p663
sg25
S'0x80d1452L'
p664
sg27
Nsbasg119
(lp665
Vmov eax, mem
p666
aVlea edx, mem
p667
aVmov mem, edx
p668
aVmov al, mem
p669
aVand eax, address
p670
aVmov mem, ax
p671
aVmov eax, mem
p672
aVmov al, mem
p673
aVand eax, address
p674
ag557
ag564
aVmov eax, mem
p675
ag578
aVmov al, mem
p676
aVand eax, address
p677
ag599
aVmov mem, eax
p678
aVadd mem, 2
p679
aVmov eax, mem
p680
aVlea edx, mem
p681
aVmov eax, mem
p682
aVmov eax, mem
p683
aVmov eax, mem
p684
ag655
aVjbe address
p685
asg130
Nsg5
S'0x80d1407L'
p686
sg132
(lp687
S'0x80d13eaL'
p688
asg6
Nsg134
(lp689
S'0x80d1454L'
p690
aS'0x80d145eL'
p691
asg138
Nsg139
Nsg140
S'a50882447a4f3b306a9a199e82ba3094'
p692
sg142
S'f6c34b12a7a0c9a41579b11add99afd5'
p693
sg144
(lp694
g495
ag502
ag509
ag516
ag523
ag530
ag537
ag544
ag551
ag558
ag565
ag572
ag579
ag586
ag593
ag600
ag607
ag614
ag621
ag628
ag635
ag642
ag649
ag656
ag663
asg146
Nsba(ibclass
BBasicBlock
p695
(dp696
g12
Nsg13
(lp697
(ibclass
BInstr
p698
(dp699
g2
Nsg17
S'mov     eax, 0'
p700
sg19
S'b800000000'
p701
sg21
Vmov eax, 0
p702
sg5
L135074900L
sg6
Nsg23
S'mov'
p703
sg25
S'0x80d1454L'
p704
sg27
Nsba(ibclass
BInstr
p705
(dp706
g2
Nsg17
S'jmp     loc_80D1621'
p707
sg19
S'e9c3010000'
p708
sg21
Vjmp 0x1c8
p709
sg5
L135074905L
sg6
Nsg23
S'jmp'
p710
sg25
S'0x80d1459L'
p711
sg27
Nsbasg119
(lp712
g702
aVjmp address
p713
asg130
Nsg5
S'0x80d1454L'
p714
sg132
(lp715
S'0x80d1407L'
p716
asg6
Nsg134
(lp717
S'0x80d1621L'
p718
asg138
Nsg139
Nsg140
S'8b9a0d40e062be2b9b2d9885108fb196'
p719
sg142
S'bfbe752dd865c9a89011ba470eab331d'
p720
sg144
(lp721
g703
ag710
asg146
Nsba(ibclass
BBasicBlock
p722
(dp723
g12
Nsg13
(lp724
(ibclass
BInstr
p725
(dp726
g2
Nsg17
S'mov     eax, [ebp+p]'
p727
sg19
S'8b45d4'
p728
sg21
Vmov eax, dword ptr [ebp - 0x2c]
p729
sg5
L135074910L
sg6
Nsg23
S'mov'
p730
sg25
S'0x80d145eL'
p731
sg27
Nsba(ibclass
BInstr
p732
(dp733
g2
Nsg17
S'mov     [ebp+pl], eax'
p734
sg19
S'8945e0'
p735
sg21
Vmov dword ptr [ebp - 0x20], eax
p736
sg5
L135074913L
sg6
Nsg23
S'mov'
p737
sg25
S'0x80d1461L'
p738
sg27
Nsba(ibclass
BInstr
p739
(dp740
g2
Nsg17
S'cmp     [ebp+hbtype], 1'
p741
sg19
S'66837dd201'
p742
sg21
Vcmp word ptr [ebp - 0x2e], 1
p743
sg5
L135074916L
sg6
Nsg23
S'cmp'
p744
sg25
S'0x80d1464L'
p745
sg27
Nsba(ibclass
BInstr
p746
(dp747
g2
Nsg17
S'jnz     loc_80D15B1'
p748
sg19
S'0f8542010000'
p749
sg21
Vjne 0x148
p750
sg5
L135074921L
sg6
Nsg23
S'jnz'
p751
sg25
S'0x80d1469L'
p752
sg27
Nsbasg119
(lp753
Vmov eax, mem
p754
aVmov mem, eax
p755
aVcmp mem, 1
p756
aVjne address
p757
asg130
Nsg5
S'0x80d145eL'
p758
sg132
(lp759
S'0x80d1407L'
p760
asg6
Nsg134
(lp761
S'0x80d146fL'
p762
aS'0x80d15b1L'
p763
asg138
Nsg139
Nsg140
S'a19a851724661b9339243c65cfd318e3'
p764
sg142
S'6756db3bc0714d86bc50410012ec0610'
p765
sg144
(lp766
g730
ag737
ag744
ag751
asg146
Nsba(ibclass
BBasicBlock
p767
(dp768
g12
Nsg13
(lp769
(ibclass
BInstr
p770
(dp771
g2
Nsg17
S'mov     eax, [ebp+padding]'
p772
sg19
S'8b45d8'
p773
sg21
Vmov eax, dword ptr [ebp - 0x28]
p774
sg5
L135074927L
sg6
Nsg23
S'mov'
p775
sg25
S'0x80d146fL'
p776
sg27
Nsba(ibclass
BInstr
p777
(dp778
g2
Nsg17
S'mov     edx, [ebp+payload]'
p779
sg19
S'8b55dc'
p780
sg21
Vmov edx, dword ptr [ebp - 0x24]
p781
sg5
L135074930L
sg6
Nsg23
S'mov'
p782
sg25
S'0x80d1472L'
p783
sg27
Nsba(ibclass
BInstr
p784
(dp785
g2
Nsg17
S'add     eax, edx'
p786
sg19
S'01d0'
p787
sg21
Vadd eax, edx
p788
sg5
L135074933L
sg6
Nsg23
S'add'
p789
sg25
S'0x80d1475L'
p790
sg27
Nsba(ibclass
BInstr
p791
(dp792
g2
Nsg17
S'add     eax, 3'
p793
sg19
S'83c003'
p794
sg21
Vadd eax, 3
p795
sg5
L135074935L
sg6
Nsg23
S'add'
p796
sg25
S'0x80d1477L'
p797
sg27
Nsba(ibclass
BInstr
p798
(dp799
g2
Nsg17
S'mov     [ebp+write_length], eax'
p800
sg19
S'8945e4'
p801
sg21
Vmov dword ptr [ebp - 0x1c], eax
p802
sg5
L135074938L
sg6
Nsg23
S'mov'
p803
sg25
S'0x80d147aL'
p804
sg27
Nsba(ibclass
BInstr
p805
(dp806
g2
Nsg17
S'cmp     [ebp+write_length], 4000h'
p807
sg19
S'817de400400000'
p808
sg21
Vcmp dword ptr [ebp - 0x1c], 0x4000
p809
sg5
L135074941L
sg6
Nsg23
S'cmp'
p810
sg25
S'0x80d147dL'
p811
sg27
Nsba(ibclass
BInstr
p812
(dp813
g2
Nsg17
S'jbe     short loc_80D1490'
p814
sg19
S'760a'
p815
sg21
Vjbe 0xc
p816
sg5
L135074948L
sg6
Nsg23
S'jbe'
p817
sg25
S'0x80d1484L'
p818
sg27
Nsbasg119
(lp819
Vmov eax, mem
p820
aVmov edx, mem
p821
ag788
ag795
aVmov mem, eax
p822
aVcmp mem, address
p823
aVjbe address
p824
asg130
Nsg5
S'0x80d146fL'
p825
sg132
(lp826
S'0x80d145eL'
p827
asg6
Nsg134
(lp828
S'0x80d1486L'
p829
aS'0x80d1490L'
p830
asg138
Nsg139
Nsg140
S'70ce2af5f26ba97e2cd0b0664162c17f'
p831
sg142
S'8d551f17f1fa13313131a4da090b5aec'
p832
sg144
(lp833
g775
ag782
ag789
ag796
ag803
ag810
ag817
asg146
Nsba(ibclass
BBasicBlock
p834
(dp835
g12
Nsg13
(lp836
(ibclass
BInstr
p837
(dp838
g2
Nsg17
S'mov     eax, 0'
p839
sg19
S'b800000000'
p840
sg21
Vmov eax, 0
p841
sg5
L135074950L
sg6
Nsg23
S'mov'
p842
sg25
S'0x80d1486L'
p843
sg27
Nsba(ibclass
BInstr
p844
(dp845
g2
Nsg17
S'jmp     loc_80D1621'
p846
sg19
S'e991010000'
p847
sg21
Vjmp 0x196
p848
sg5
L135074955L
sg6
Nsg23
S'jmp'
p849
sg25
S'0x80d148bL'
p850
sg27
Nsbasg119
(lp851
g841
aVjmp address
p852
asg130
Nsg5
S'0x80d1486L'
p853
sg132
(lp854
S'0x80d146fL'
p855
asg6
Nsg134
(lp856
S'0x80d1621L'
p857
asg138
Nsg139
Nsg140
S'8b9a0d40e062be2b9b2d9885108fb196'
p858
sg142
S'bfbe752dd865c9a89011ba470eab331d'
p859
sg144
(lp860
g842
ag849
asg146
Nsba(ibclass
BBasicBlock
p861
(dp862
g12
Nsg13
(lp863
(ibclass
BInstr
p864
(dp865
g2
Nsg17
S'mov     eax, [ebp+write_length]'
p866
sg19
S'8b45e4'
p867
sg21
Vmov eax, dword ptr [ebp - 0x1c]
p868
sg5
L135074960L
sg6
Nsg23
S'mov'
p869
sg25
S'0x80d1490L'
p870
sg27
Nsba(ibclass
BInstr
p871
(dp872
g2
Nsg17
S'mov     dword ptr [esp+8], 60Eh; line'
p873
sg19
S'c74424080e060000'
p874
sg21
Vmov dword ptr [esp + 8], 0x60e
p875
sg5
L135074963L
sg6
Nsg23
S'mov'
p876
sg25
S'0x80d1493L'
p877
sg27
Nsba(ibclass
BInstr
p878
(dp879
g2
Nsg17
S'mov     dword ptr [esp+4], offset aD1_both_c; "d1_both.c"'
p880
sg19
S'c7442404208d2108'
p881
sg21
Vmov dword ptr [esp + 4], 0x8218d20
p882
sg5
L135074971L
sg6
Nsg23
S'mov'
p883
sg25
S'0x80d149bL'
p884
sg27
Nsba(ibclass
BInstr
p885
(dp886
g2
Nsg17
S'mov     [esp], eax      ; num'
p887
sg19
S'890424'
p888
sg21
Vmov dword ptr [esp], eax
p889
sg5
L135074979L
sg6
Nsg23
S'mov'
p890
sg25
S'0x80d14a3L'
p891
sg27
Nsba(ibclass
BInstr
p892
(dp893
g2
Nsg17
S'call    CRYPTO_malloc'
p894
sg19
S'e80c670100'
p895
sg21
Vcall 0x16711
p896
sg5
L135074982L
sg6
Nsg23
S'call'
p897
sg25
S'0x80d14a6L'
p898
sg27
Nsba(ibclass
BInstr
p899
(dp900
g2
Nsg17
S'mov     [ebp+buffer], eax'
p901
sg19
S'8945e8'
p902
sg21
Vmov dword ptr [ebp - 0x18], eax
p903
sg5
L135074987L
sg6
Nsg23
S'mov'
p904
sg25
S'0x80d14abL'
p905
sg27
Nsba(ibclass
BInstr
p906
(dp907
g2
Nsg17
S'mov     eax, [ebp+buffer]'
p908
sg19
S'8b45e8'
p909
sg21
Vmov eax, dword ptr [ebp - 0x18]
p910
sg5
L135074990L
sg6
Nsg23
S'mov'
p911
sg25
S'0x80d14aeL'
p912
sg27
Nsba(ibclass
BInstr
p913
(dp914
g2
Nsg17
S'mov     [ebp+bp_0], eax'
p915
sg19
S'8945ec'
p916
sg21
Vmov dword ptr [ebp - 0x14], eax
p917
sg5
L135074993L
sg6
Nsg23
S'mov'
p918
sg25
S'0x80d14b1L'
p919
sg27
Nsba(ibclass
BInstr
p920
(dp921
g2
Nsg17
S'mov     eax, [ebp+bp_0]'
p922
sg19
S'8b45ec'
p923
sg21
Vmov eax, dword ptr [ebp - 0x14]
p924
sg5
L135074996L
sg6
Nsg23
S'mov'
p925
sg25
S'0x80d14b4L'
p926
sg27
Nsba(ibclass
BInstr
p927
(dp928
g2
Nsg17
S'lea     edx, [eax+1]'
p929
sg19
S'8d5001'
p930
sg21
Vlea edx, [eax + 1]
p931
sg5
L135074999L
sg6
Nsg23
S'lea'
p932
sg25
S'0x80d14b7L'
p933
sg27
Nsba(ibclass
BInstr
p934
(dp935
g2
Nsg17
S'mov     [ebp+bp_0], edx'
p936
sg19
S'8955ec'
p937
sg21
Vmov dword ptr [ebp - 0x14], edx
p938
sg5
L135075002L
sg6
Nsg23
S'mov'
p939
sg25
S'0x80d14baL'
p940
sg27
Nsba(ibclass
BInstr
p941
(dp942
g2
Nsg17
S'mov     byte ptr [eax], 2'
p943
sg19
S'c60002'
p944
sg21
Vmov byte ptr [eax], 2
p945
sg5
L135075005L
sg6
Nsg23
S'mov'
p946
sg25
S'0x80d14bdL'
p947
sg27
Nsba(ibclass
BInstr
p948
(dp949
g2
Nsg17
S'mov     eax, [ebp+payload]'
p950
sg19
S'8b45dc'
p951
sg21
Vmov eax, dword ptr [ebp - 0x24]
p952
sg5
L135075008L
sg6
Nsg23
S'mov'
p953
sg25
S'0x80d14c0L'
p954
sg27
Nsba(ibclass
BInstr
p955
(dp956
g2
Nsg17
S'shr     eax, 8'
p957
sg19
S'c1e808'
p958
sg21
Vshr eax, 8
p959
sg5
L135075011L
sg6
Nsg23
S'shr'
p960
sg25
S'0x80d14c3L'
p961
sg27
Nsba(ibclass
BInstr
p962
(dp963
g2
Nsg17
S'mov     dl, al'
p964
sg19
S'88c2'
p965
sg21
Vmov dl, al
p966
sg5
L135075014L
sg6
Nsg23
S'mov'
p967
sg25
S'0x80d14c6L'
p968
sg27
Nsba(ibclass
BInstr
p969
(dp970
g2
Nsg17
S'mov     eax, [ebp+bp_0]'
p971
sg19
S'8b45ec'
p972
sg21
Vmov eax, dword ptr [ebp - 0x14]
p973
sg5
L135075016L
sg6
Nsg23
S'mov'
p974
sg25
S'0x80d14c8L'
p975
sg27
Nsba(ibclass
BInstr
p976
(dp977
g2
Nsg17
S'mov     [eax], dl'
p978
sg19
S'8810'
p979
sg21
Vmov byte ptr [eax], dl
p980
sg5
L135075019L
sg6
Nsg23
S'mov'
p981
sg25
S'0x80d14cbL'
p982
sg27
Nsba(ibclass
BInstr
p983
(dp984
g2
Nsg17
S'mov     eax, [ebp+bp_0]'
p985
sg19
S'8b45ec'
p986
sg21
Vmov eax, dword ptr [ebp - 0x14]
p987
sg5
L135075021L
sg6
Nsg23
S'mov'
p988
sg25
S'0x80d14cdL'
p989
sg27
Nsba(ibclass
BInstr
p990
(dp991
g2
Nsg17
S'lea     edx, [eax+1]'
p992
sg19
S'8d5001'
p993
sg21
Vlea edx, [eax + 1]
p994
sg5
L135075024L
sg6
Nsg23
S'lea'
p995
sg25
S'0x80d14d0L'
p996
sg27
Nsba(ibclass
BInstr
p997
(dp998
g2
Nsg17
S'mov     eax, [ebp+payload]'
p999
sg19
S'8b45dc'
p1000
sg21
Vmov eax, dword ptr [ebp - 0x24]
p1001
sg5
L135075027L
sg6
Nsg23
S'mov'
p1002
sg25
S'0x80d14d3L'
p1003
sg27
Nsba(ibclass
BInstr
p1004
(dp1005
g2
Nsg17
S'mov     [edx], al'
p1006
sg19
S'8802'
p1007
sg21
Vmov byte ptr [edx], al
p1008
sg5
L135075030L
sg6
Nsg23
S'mov'
p1009
sg25
S'0x80d14d6L'
p1010
sg27
Nsba(ibclass
BInstr
p1011
(dp1012
g2
Nsg17
S'add     [ebp+bp_0], 2'
p1013
sg19
S'8345ec02'
p1014
sg21
Vadd dword ptr [ebp - 0x14], 2
p1015
sg5
L135075032L
sg6
Nsg23
S'add'
p1016
sg25
S'0x80d14d8L'
p1017
sg27
Nsba(ibclass
BInstr
p1018
(dp1019
g2
Nsg17
S'mov     eax, [ebp+payload]'
p1020
sg19
S'8b45dc'
p1021
sg21
Vmov eax, dword ptr [ebp - 0x24]
p1022
sg5
L135075036L
sg6
Nsg23
S'mov'
p1023
sg25
S'0x80d14dcL'
p1024
sg27
Nsba(ibclass
BInstr
p1025
(dp1026
g2
Nsg17
S'mov     [esp+8], eax    ; n'
p1027
sg19
S'89442408'
p1028
sg21
Vmov dword ptr [esp + 8], eax
p1029
sg5
L135075039L
sg6
Nsg23
S'mov'
p1030
sg25
S'0x80d14dfL'
p1031
sg27
Nsba(ibclass
BInstr
p1032
(dp1033
g2
Nsg17
S'mov     eax, [ebp+pl]'
p1034
sg19
S'8b45e0'
p1035
sg21
Vmov eax, dword ptr [ebp - 0x20]
p1036
sg5
L135075043L
sg6
Nsg23
S'mov'
p1037
sg25
S'0x80d14e3L'
p1038
sg27
Nsba(ibclass
BInstr
p1039
(dp1040
g2
Nsg17
S'mov     [esp+4], eax    ; src'
p1041
sg19
S'89442404'
p1042
sg21
Vmov dword ptr [esp + 4], eax
p1043
sg5
L135075046L
sg6
Nsg23
S'mov'
p1044
sg25
S'0x80d14e6L'
p1045
sg27
Nsba(ibclass
BInstr
p1046
(dp1047
g2
Nsg17
S'mov     eax, [ebp+bp_0]'
p1048
sg19
S'8b45ec'
p1049
sg21
Vmov eax, dword ptr [ebp - 0x14]
p1050
sg5
L135075050L
sg6
Nsg23
S'mov'
p1051
sg25
S'0x80d14eaL'
p1052
sg27
Nsba(ibclass
BInstr
p1053
(dp1054
g2
Nsg17
S'mov     [esp], eax      ; dest'
p1055
sg19
S'890424'
p1056
sg21
Vmov dword ptr [esp], eax
p1057
sg5
L135075053L
sg6
Nsg23
S'mov'
p1058
sg25
S'0x80d14edL'
p1059
sg27
Nsba(ibclass
BInstr
p1060
(dp1061
g2
Nsg17
S'call    _memcpy'
p1062
sg19
S'e88b80f7ff'
p1063
sg21
Vcall 0xfff78090
p1064
sg5
L135075056L
sg6
Nsg23
S'call'
p1065
sg25
S'0x80d14f0L'
p1066
sg27
Nsba(ibclass
BInstr
p1067
(dp1068
g2
Nsg17
S'mov     eax, [ebp+payload]'
p1069
sg19
S'8b45dc'
p1070
sg21
Vmov eax, dword ptr [ebp - 0x24]
p1071
sg5
L135075061L
sg6
Nsg23
S'mov'
p1072
sg25
S'0x80d14f5L'
p1073
sg27
Nsba(ibclass
BInstr
p1074
(dp1075
g2
Nsg17
S'add     [ebp+bp_0], eax'
p1076
sg19
S'0145ec'
p1077
sg21
Vadd dword ptr [ebp - 0x14], eax
p1078
sg5
L135075064L
sg6
Nsg23
S'add'
p1079
sg25
S'0x80d14f8L'
p1080
sg27
Nsba(ibclass
BInstr
p1081
(dp1082
g2
Nsg17
S'mov     eax, [ebp+padding]'
p1083
sg19
S'8b45d8'
p1084
sg21
Vmov eax, dword ptr [ebp - 0x28]
p1085
sg5
L135075067L
sg6
Nsg23
S'mov'
p1086
sg25
S'0x80d14fbL'
p1087
sg27
Nsba(ibclass
BInstr
p1088
(dp1089
g2
Nsg17
S'mov     [esp+4], eax    ; num'
p1090
sg19
S'89442404'
p1091
sg21
Vmov dword ptr [esp + 4], eax
p1092
sg5
L135075070L
sg6
Nsg23
S'mov'
p1093
sg25
S'0x80d14feL'
p1094
sg27
Nsba(ibclass
BInstr
p1095
(dp1096
g2
Nsg17
S'mov     eax, [ebp+bp_0]'
p1097
sg19
S'8b45ec'
p1098
sg21
Vmov eax, dword ptr [ebp - 0x14]
p1099
sg5
L135075074L
sg6
Nsg23
S'mov'
p1100
sg25
S'0x80d1502L'
p1101
sg27
Nsba(ibclass
BInstr
p1102
(dp1103
g2
Nsg17
S'mov     [esp], eax      ; buf'
p1104
sg19
S'890424'
p1105
sg21
Vmov dword ptr [esp], eax
p1106
sg5
L135075077L
sg6
Nsg23
S'mov'
p1107
sg25
S'0x80d1505L'
p1108
sg27
Nsba(ibclass
BInstr
p1109
(dp1110
g2
Nsg17
S'call    RAND_pseudo_bytes'
p1111
sg19
S'e85dcf0600'
p1112
sg21
Vcall 0x6cf62
p1113
sg5
L135075080L
sg6
Nsg23
S'call'
p1114
sg25
S'0x80d1508L'
p1115
sg27
Nsba(ibclass
BInstr
p1116
(dp1117
g2
Nsg17
S'test    eax, eax'
p1118
sg19
S'85c0'
p1119
sg21
Vtest eax, eax
p1120
sg5
L135075085L
sg6
Nsg23
S'test'
p1121
sg25
S'0x80d150dL'
p1122
sg27
Nsba(ibclass
BInstr
p1123
(dp1124
g2
Nsg17
S'jns     short loc_80D1526'
p1125
sg19
S'7915'
p1126
sg21
Vjns 0x17
p1127
sg5
L135075087L
sg6
Nsg23
S'jns'
p1128
sg25
S'0x80d150fL'
p1129
sg27
Nsbasg119
(lp1130
Vmov eax, mem
p1131
aVmov mem, address
p1132
aVmov mem, address
p1133
aVmov mem, eax
p1134
aVcall address
p1135
aVmov mem, eax
p1136
aVmov eax, mem
p1137
aVmov mem, eax
p1138
aVmov eax, mem
p1139
aVlea edx, mem
p1140
aVmov mem, edx
p1141
aVmov mem, 2
p1142
aVmov eax, mem
p1143
ag959
ag966
aVmov eax, mem
p1144
aVmov mem, dl
p1145
aVmov eax, mem
p1146
aVlea edx, mem
p1147
aVmov eax, mem
p1148
aVmov mem, al
p1149
aVadd mem, 2
p1150
aVmov eax, mem
p1151
aVmov mem, eax
p1152
aVmov eax, mem
p1153
aVmov mem, eax
p1154
aVmov eax, mem
p1155
aVmov mem, eax
p1156
aVcall address
p1157
aVmov eax, mem
p1158
aVadd mem, eax
p1159
aVmov eax, mem
p1160
aVmov mem, eax
p1161
aVmov eax, mem
p1162
aVmov mem, eax
p1163
aVcall address
p1164
ag1120
aVjns address
p1165
asg130
Nsg5
S'0x80d1490L'
p1166
sg132
(lp1167
S'0x80d146fL'
p1168
asg6
Nsg134
(lp1169
S'0x80d1511L'
p1170
aS'0x80d1526L'
p1171
asg138
Nsg139
Nsg140
S'9a8acf181bc40c077f5f9dbb65a2cf0c'
p1172
sg142
S'4a04789c07ec04d3f8e607dae90e43b9'
p1173
sg144
(lp1174
g869
ag876
ag883
ag890
ag897
ag904
ag911
ag918
ag925
ag932
ag939
ag946
ag953
ag960
ag967
ag974
ag981
ag988
ag995
ag1002
ag1009
ag1016
ag1023
ag1030
ag1037
ag1044
ag1051
ag1058
ag1065
ag1072
ag1079
ag1086
ag1093
ag1100
ag1107
ag1114
ag1121
ag1128
asg146
Nsba(ibclass
BBasicBlock
p1175
(dp1176
g12
Nsg13
(lp1177
(ibclass
BInstr
p1178
(dp1179
g2
Nsg17
S'mov     eax, [ebp+buffer]'
p1180
sg19
S'8b45e8'
p1181
sg21
Vmov eax, dword ptr [ebp - 0x18]
p1182
sg5
L135075089L
sg6
Nsg23
S'mov'
p1183
sg25
S'0x80d1511L'
p1184
sg27
Nsba(ibclass
BInstr
p1185
(dp1186
g2
Nsg17
S'mov     [esp], eax      ; str'
p1187
sg19
S'890424'
p1188
sg21
Vmov dword ptr [esp], eax
p1189
sg5
L135075092L
sg6
Nsg23
S'mov'
p1190
sg25
S'0x80d1514L'
p1191
sg27
Nsba(ibclass
BInstr
p1192
(dp1193
g2
Nsg17
S'call    CRYPTO_free'
p1194
sg19
S'e8c0690100'
p1195
sg21
Vcall 0x169c5
p1196
sg5
L135075095L
sg6
Nsg23
S'call'
p1197
sg25
S'0x80d1517L'
p1198
sg27
Nsba(ibclass
BInstr
p1199
(dp1200
g2
Nsg17
S'mov     eax, 0FFFFFFFFh'
p1201
sg19
S'b8ffffffff'
p1202
sg21
Vmov eax, 0xffffffff
p1203
sg5
L135075100L
sg6
Nsg23
S'mov'
p1204
sg25
S'0x80d151cL'
p1205
sg27
Nsba(ibclass
BInstr
p1206
(dp1207
g2
Nsg17
S'jmp     loc_80D1621'
p1208
sg19
S'e9fb000000'
p1209
sg21
Vjmp 0x100
p1210
sg5
L135075105L
sg6
Nsg23
S'jmp'
p1211
sg25
S'0x80d1521L'
p1212
sg27
Nsbasg119
(lp1213
Vmov eax, mem
p1214
aVmov mem, eax
p1215
aVcall address
p1216
aVmov eax, address
p1217
aVjmp address
p1218
asg130
Nsg5
S'0x80d1511L'
p1219
sg132
(lp1220
S'0x80d1490L'
p1221
asg6
Nsg134
(lp1222
S'0x80d1621L'
p1223
asg138
Nsg139
Nsg140
S'a520f52f5785a217e8fe2f5e8207c873'
p1224
sg142
S'a677da3fb2692bfe567a2910898325ae'
p1225
sg144
(lp1226
g1183
ag1190
ag1197
ag1204
ag1211
asg146
Nsba(ibclass
BBasicBlock
p1227
(dp1228
g12
Nsg13
(lp1229
(ibclass
BInstr
p1230
(dp1231
g2
Nsg17
S'mov     eax, [ebp+write_length]'
p1232
sg19
S'8b45e4'
p1233
sg21
Vmov eax, dword ptr [ebp - 0x1c]
p1234
sg5
L135075110L
sg6
Nsg23
S'mov'
p1235
sg25
S'0x80d1526L'
p1236
sg27
Nsba(ibclass
BInstr
p1237
(dp1238
g2
Nsg17
S'mov     [esp+0Ch], eax  ; len'
p1239
sg19
S'8944240c'
p1240
sg21
Vmov dword ptr [esp + 0xc], eax
p1241
sg5
L135075113L
sg6
Nsg23
S'mov'
p1242
sg25
S'0x80d1529L'
p1243
sg27
Nsba(ibclass
BInstr
p1244
(dp1245
g2
Nsg17
S'mov     eax, [ebp+buffer]'
p1246
sg19
S'8b45e8'
p1247
sg21
Vmov eax, dword ptr [ebp - 0x18]
p1248
sg5
L135075117L
sg6
Nsg23
S'mov'
p1249
sg25
S'0x80d152dL'
p1250
sg27
Nsba(ibclass
BInstr
p1251
(dp1252
g2
Nsg17
S'mov     [esp+8], eax    ; buf'
p1253
sg19
S'89442408'
p1254
sg21
Vmov dword ptr [esp + 8], eax
p1255
sg5
L135075120L
sg6
Nsg23
S'mov'
p1256
sg25
S'0x80d1530L'
p1257
sg27
Nsba(ibclass
BInstr
p1258
(dp1259
g2
Nsg17
S'mov     dword ptr [esp+4], 18h; type'
p1260
sg19
S'c744240418000000'
p1261
sg21
Vmov dword ptr [esp + 4], 0x18
p1262
sg5
L135075124L
sg6
Nsg23
S'mov'
p1263
sg25
S'0x80d1534L'
p1264
sg27
Nsba(ibclass
BInstr
p1265
(dp1266
g2
Nsg17
S'mov     eax, [ebp+s]'
p1267
sg19
S'8b4508'
p1268
sg21
Vmov eax, dword ptr [ebp + 8]
p1269
sg5
L135075132L
sg6
Nsg23
S'mov'
p1270
sg25
S'0x80d153cL'
p1271
sg27
Nsba(ibclass
BInstr
p1272
(dp1273
g2
Nsg17
S'mov     [esp], eax      ; s'
p1274
sg19
S'890424'
p1275
sg21
Vmov dword ptr [esp], eax
p1276
sg5
L135075135L
sg6
Nsg23
S'mov'
p1277
sg25
S'0x80d153fL'
p1278
sg27
Nsba(ibclass
BInstr
p1279
(dp1280
g2
Nsg17
S'call    dtls1_write_bytes'
p1281
sg19
S'e866c5ffff'
p1282
sg21
Vcall 0xffffc56b
p1283
sg5
L135075138L
sg6
Nsg23
S'call'
p1284
sg25
S'0x80d1542L'
p1285
sg27
Nsba(ibclass
BInstr
p1286
(dp1287
g2
Nsg17
S'mov     [ebp+r], eax'
p1288
sg19
S'8945f0'
p1289
sg21
Vmov dword ptr [ebp - 0x10], eax
p1290
sg5
L135075143L
sg6
Nsg23
S'mov'
p1291
sg25
S'0x80d1547L'
p1292
sg27
Nsba(ibclass
BInstr
p1293
(dp1294
g2
Nsg17
S'cmp     [ebp+r], 0'
p1295
sg19
S'837df000'
p1296
sg21
Vcmp dword ptr [ebp - 0x10], 0
p1297
sg5
L135075146L
sg6
Nsg23
S'cmp'
p1298
sg25
S'0x80d154aL'
p1299
sg27
Nsba(ibclass
BInstr
p1300
(dp1301
g2
Nsg17
S'js      short loc_80D1599'
p1302
sg19
S'7849'
p1303
sg21
Vjs 0x4b
p1304
sg5
L135075150L
sg6
Nsg23
S'js'
p1305
sg25
S'0x80d154eL'
p1306
sg27
Nsbasg119
(lp1307
Vmov eax, mem
p1308
aVmov mem, eax
p1309
aVmov eax, mem
p1310
aVmov mem, eax
p1311
aVmov mem, address
p1312
aVmov eax, mem
p1313
aVmov mem, eax
p1314
aVcall address
p1315
aVmov mem, eax
p1316
aVcmp mem, 0
p1317
aVjs address
p1318
asg130
Nsg5
S'0x80d1526L'
p1319
sg132
(lp1320
S'0x80d1490L'
p1321
asg6
Nsg134
(lp1322
S'0x80d1550L'
p1323
aS'0x80d1599L'
p1324
asg138
Nsg139
Nsg140
S'dc9462a7d50bb468393a128ea1204fcc'
p1325
sg142
S'424a54870ad955301ed72f837614c820'
p1326
sg144
(lp1327
g1235
ag1242
ag1249
ag1256
ag1263
ag1270
ag1277
ag1284
ag1291
ag1298
ag1305
asg146
Nsba(ibclass
BBasicBlock
p1328
(dp1329
g12
Nsg13
(lp1330
(ibclass
BInstr
p1331
(dp1332
g2
Nsg17
S'mov     eax, [ebp+s]'
p1333
sg19
S'8b4508'
p1334
sg21
Vmov eax, dword ptr [ebp + 8]
p1335
sg5
L135075152L
sg6
Nsg23
S'mov'
p1336
sg25
S'0x80d1550L'
p1337
sg27
Nsba(ibclass
BInstr
p1338
(dp1339
g2
Nsg17
S'mov     eax, [eax+64h]'
p1340
sg19
S'8b4064'
p1341
sg21
Vmov eax, dword ptr [eax + 0x64]
p1342
sg5
L135075155L
sg6
Nsg23
S'mov'
p1343
sg25
S'0x80d1553L'
p1344
sg27
Nsba(ibclass
BInstr
p1345
(dp1346
g2
Nsg17
S'test    eax, eax'
p1347
sg19
S'85c0'
p1348
sg21
Vtest eax, eax
p1349
sg5
L135075158L
sg6
Nsg23
S'test'
p1350
sg25
S'0x80d1556L'
p1351
sg27
Nsba(ibclass
BInstr
p1352
(dp1353
g2
Nsg17
S'jz      short loc_80D1599'
p1354
sg19
S'743f'
p1355
sg21
Vje 0x41
p1356
sg5
L135075160L
sg6
Nsg23
S'jz'
p1357
sg25
S'0x80d1558L'
p1358
sg27
Nsbasg119
(lp1359
Vmov eax, mem
p1360
aVmov eax, mem
p1361
ag1349
aVje address
p1362
asg130
Nsg5
S'0x80d1550L'
p1363
sg132
(lp1364
S'0x80d1526L'
p1365
asg6
Nsg134
(lp1366
S'0x80d155aL'
p1367
aS'0x80d1599L'
p1368
asg138
Nsg139
Nsg140
S'ea5d08c7dcc07640d42787f826218f11'
p1369
sg142
S'103b924e2a82731ce51d187b2e41af3a'
p1370
sg144
(lp1371
g1336
ag1343
ag1350
ag1357
asg146
Nsba(ibclass
BBasicBlock
p1372
(dp1373
g12
Nsg13
(lp1374
(ibclass
BInstr
p1375
(dp1376
g2
Nsg17
S'mov     eax, [ebp+s]'
p1377
sg19
S'8b4508'
p1378
sg21
Vmov eax, dword ptr [ebp + 8]
p1379
sg5
L135075162L
sg6
Nsg23
S'mov'
p1380
sg25
S'0x80d155aL'
p1381
sg27
Nsba(ibclass
BInstr
p1382
(dp1383
g2
Nsg17
S'mov     eax, [eax+64h]'
p1384
sg19
S'8b4064'
p1385
sg21
Vmov eax, dword ptr [eax + 0x64]
p1386
sg5
L135075165L
sg6
Nsg23
S'mov'
p1387
sg25
S'0x80d155dL'
p1388
sg27
Nsba(ibclass
BInstr
p1389
(dp1390
g2
Nsg17
S'mov     edx, [ebp+s]'
p1391
sg19
S'8b5508'
p1392
sg21
Vmov edx, dword ptr [ebp + 8]
p1393
sg5
L135075168L
sg6
Nsg23
S'mov'
p1394
sg25
S'0x80d1560L'
p1395
sg27
Nsba(ibclass
BInstr
p1396
(dp1397
g2
Nsg17
S'mov     ecx, [edx+68h]'
p1398
sg19
S'8b4a68'
p1399
sg21
Vmov ecx, dword ptr [edx + 0x68]
p1400
sg5
L135075171L
sg6
Nsg23
S'mov'
p1401
sg25
S'0x80d1563L'
p1402
sg27
Nsba(ibclass
BInstr
p1403
(dp1404
g2
Nsg17
S'mov     edx, [ebp+s]'
p1405
sg19
S'8b5508'
p1406
sg21
Vmov edx, dword ptr [ebp + 8]
p1407
sg5
L135075174L
sg6
Nsg23
S'mov'
p1408
sg25
S'0x80d1566L'
p1409
sg27
Nsba(ibclass
BInstr
p1410
(dp1411
g2
Nsg17
S'mov     edx, [edx]'
p1412
sg19
S'8b12'
p1413
sg21
Vmov edx, dword ptr [edx]
p1414
sg5
L135075177L
sg6
Nsg23
S'mov'
p1415
sg25
S'0x80d1569L'
p1416
sg27
Nsba(ibclass
BInstr
p1417
(dp1418
g2
Nsg17
S'mov     [esp+18h], ecx'
p1419
sg19
S'894c2418'
p1420
sg21
Vmov dword ptr [esp + 0x18], ecx
p1421
sg5
L135075179L
sg6
Nsg23
S'mov'
p1422
sg25
S'0x80d156bL'
p1423
sg27
Nsba(ibclass
BInstr
p1424
(dp1425
g2
Nsg17
S'mov     ecx, [ebp+s]'
p1426
sg19
S'8b4d08'
p1427
sg21
Vmov ecx, dword ptr [ebp + 8]
p1428
sg5
L135075183L
sg6
Nsg23
S'mov'
p1429
sg25
S'0x80d156fL'
p1430
sg27
Nsba(ibclass
BInstr
p1431
(dp1432
g2
Nsg17
S'mov     [esp+14h], ecx'
p1433
sg19
S'894c2414'
p1434
sg21
Vmov dword ptr [esp + 0x14], ecx
p1435
sg5
L135075186L
sg6
Nsg23
S'mov'
p1436
sg25
S'0x80d1572L'
p1437
sg27
Nsba(ibclass
BInstr
p1438
(dp1439
g2
Nsg17
S'mov     ecx, [ebp+write_length]'
p1440
sg19
S'8b4de4'
p1441
sg21
Vmov ecx, dword ptr [ebp - 0x1c]
p1442
sg5
L135075190L
sg6
Nsg23
S'mov'
p1443
sg25
S'0x80d1576L'
p1444
sg27
Nsba(ibclass
BInstr
p1445
(dp1446
g2
Nsg17
S'mov     [esp+10h], ecx'
p1447
sg19
S'894c2410'
p1448
sg21
Vmov dword ptr [esp + 0x10], ecx
p1449
sg5
L135075193L
sg6
Nsg23
S'mov'
p1450
sg25
S'0x80d1579L'
p1451
sg27
Nsba(ibclass
BInstr
p1452
(dp1453
g2
Nsg17
S'mov     ecx, [ebp+buffer]'
p1454
sg19
S'8b4de8'
p1455
sg21
Vmov ecx, dword ptr [ebp - 0x18]
p1456
sg5
L135075197L
sg6
Nsg23
S'mov'
p1457
sg25
S'0x80d157dL'
p1458
sg27
Nsba(ibclass
BInstr
p1459
(dp1460
g2
Nsg17
S'mov     [esp+0Ch], ecx'
p1461
sg19
S'894c240c'
p1462
sg21
Vmov dword ptr [esp + 0xc], ecx
p1463
sg5
L135075200L
sg6
Nsg23
S'mov'
p1464
sg25
S'0x80d1580L'
p1465
sg27
Nsba(ibclass
BInstr
p1466
(dp1467
g2
Nsg17
S'mov     dword ptr [esp+8], 18h'
p1468
sg19
S'c744240818000000'
p1469
sg21
Vmov dword ptr [esp + 8], 0x18
p1470
sg5
L135075204L
sg6
Nsg23
S'mov'
p1471
sg25
S'0x80d1584L'
p1472
sg27
Nsba(ibclass
BInstr
p1473
(dp1474
g2
Nsg17
S'mov     [esp+4], edx'
p1475
sg19
S'89542404'
p1476
sg21
Vmov dword ptr [esp + 4], edx
p1477
sg5
L135075212L
sg6
Nsg23
S'mov'
p1478
sg25
S'0x80d158cL'
p1479
sg27
Nsba(ibclass
BInstr
p1480
(dp1481
g2
Nsg17
S'mov     dword ptr [esp], 1'
p1482
sg19
S'c7042401000000'
p1483
sg21
Vmov dword ptr [esp], 1
p1484
sg5
L135075216L
sg6
Nsg23
S'mov'
p1485
sg25
S'0x80d1590L'
p1486
sg27
Nsba(ibclass
BInstr
p1487
(dp1488
g2
Nsg17
S'call    eax'
p1489
sg19
S'ffd0'
p1490
sg21
Vcall eax
p1491
sg5
L135075223L
sg6
Nsg23
S'call'
p1492
sg25
S'0x80d1597L'
p1493
sg27
Nsbasg119
(lp1494
Vmov eax, mem
p1495
aVmov eax, mem
p1496
aVmov edx, mem
p1497
aVmov ecx, mem
p1498
aVmov edx, mem
p1499
aVmov edx, mem
p1500
aVmov mem, ecx
p1501
aVmov ecx, mem
p1502
aVmov mem, ecx
p1503
aVmov ecx, mem
p1504
aVmov mem, ecx
p1505
aVmov ecx, mem
p1506
aVmov mem, ecx
p1507
aVmov mem, address
p1508
aVmov mem, edx
p1509
aVmov mem, 1
p1510
ag1491
asg130
Nsg5
S'0x80d155aL'
p1511
sg132
(lp1512
S'0x80d1550L'
p1513
asg6
Nsg134
(lp1514
S'0x80d1599L'
p1515
asg138
Nsg139
Nsg140
S'8a711c6bb3e0595ef5b484fa61f88979'
p1516
sg142
S'27d364da7b278aeafe8e23383a2df724'
p1517
sg144
(lp1518
g1380
ag1387
ag1394
ag1401
ag1408
ag1415
ag1422
ag1429
ag1436
ag1443
ag1450
ag1457
ag1464
ag1471
ag1478
ag1485
ag1492
asg146
Nsba(ibclass
BBasicBlock
p1519
(dp1520
g12
Nsg13
(lp1521
(ibclass
BInstr
p1522
(dp1523
g2
Nsg17
S'mov     eax, [ebp+buffer]'
p1524
sg19
S'8b45e8'
p1525
sg21
Vmov eax, dword ptr [ebp - 0x18]
p1526
sg5
L135075225L
sg6
Nsg23
S'mov'
p1527
sg25
S'0x80d1599L'
p1528
sg27
Nsba(ibclass
BInstr
p1529
(dp1530
g2
Nsg17
S'mov     [esp], eax      ; str'
p1531
sg19
S'890424'
p1532
sg21
Vmov dword ptr [esp], eax
p1533
sg5
L135075228L
sg6
Nsg23
S'mov'
p1534
sg25
S'0x80d159cL'
p1535
sg27
Nsba(ibclass
BInstr
p1536
(dp1537
g2
Nsg17
S'call    CRYPTO_free'
p1538
sg19
S'e838690100'
p1539
sg21
Vcall 0x1693d
p1540
sg5
L135075231L
sg6
Nsg23
S'call'
p1541
sg25
S'0x80d159fL'
p1542
sg27
Nsba(ibclass
BInstr
p1543
(dp1544
g2
Nsg17
S'cmp     [ebp+r], 0'
p1545
sg19
S'837df000'
p1546
sg21
Vcmp dword ptr [ebp - 0x10], 0
p1547
sg5
L135075236L
sg6
Nsg23
S'cmp'
p1548
sg25
S'0x80d15a4L'
p1549
sg27
Nsba(ibclass
BInstr
p1550
(dp1551
g2
Nsg17
S'jns     short loc_80D15AF'
p1552
sg19
S'7905'
p1553
sg21
Vjns 7
p1554
sg5
L135075240L
sg6
Nsg23
S'jns'
p1555
sg25
S'0x80d15a8L'
p1556
sg27
Nsbasg119
(lp1557
Vmov eax, mem
p1558
aVmov mem, eax
p1559
aVcall address
p1560
aVcmp mem, 0
p1561
ag1554
asg130
Nsg5
S'0x80d1599L'
p1562
sg132
(lp1563
S'0x80d1526L'
p1564
aS'0x80d1550L'
p1565
aS'0x80d155aL'
p1566
asg6
Nsg134
(lp1567
S'0x80d15aaL'
p1568
aS'0x80d15afL'
p1569
asg138
Nsg139
Nsg140
S'260c2f651fb50eef1e34fe5198937f64'
p1570
sg142
S'60c0da11254ea33fda715dd4377f163f'
p1571
sg144
(lp1572
g1527
ag1534
ag1541
ag1548
ag1555
asg146
Nsba(ibclass
BBasicBlock
p1573
(dp1574
g12
Nsg13
(lp1575
(ibclass
BInstr
p1576
(dp1577
g2
Nsg17
S'mov     eax, [ebp+r]'
p1578
sg19
S'8b45f0'
p1579
sg21
Vmov eax, dword ptr [ebp - 0x10]
p1580
sg5
L135075242L
sg6
Nsg23
S'mov'
p1581
sg25
S'0x80d15aaL'
p1582
sg27
Nsba(ibclass
BInstr
p1583
(dp1584
g2
Nsg17
S'jmp     short loc_80D1621'
p1585
sg19
S'eb72'
p1586
sg21
Vjmp 0x74
p1587
sg5
L135075245L
sg6
Nsg23
S'jmp'
p1588
sg25
S'0x80d15adL'
p1589
sg27
Nsbasg119
(lp1590
Vmov eax, mem
p1591
aVjmp address
p1592
asg130
Nsg5
S'0x80d15aaL'
p1593
sg132
(lp1594
S'0x80d1599L'
p1595
asg6
Nsg134
(lp1596
S'0x80d1621L'
p1597
asg138
Nsg139
Nsg140
S'8b9a0d40e062be2b9b2d9885108fb196'
p1598
sg142
S'5a5b261ba52a671a369af6372509eb2f'
p1599
sg144
(lp1600
g1581
ag1588
asg146
Nsba(ibclass
BBasicBlock
p1601
(dp1602
g12
Nsg13
(lp1603
(ibclass
BInstr
p1604
(dp1605
g2
Nsg17
S'jmp     short loc_80D161C'
p1606
sg19
S'eb6b'
p1607
sg21
Vjmp 0x6d
p1608
sg5
L135075247L
sg6
Nsg23
S'jmp'
p1609
sg25
S'0x80d15afL'
p1610
sg27
Nsbasg119
(lp1611
Vjmp address
p1612
asg130
Nsg5
S'0x80d15afL'
p1613
sg132
(lp1614
S'0x80d1599L'
p1615
asg6
Nsg134
(lp1616
S'0x80d161cL'
p1617
asg138
Nsg139
Nsg140
S'0ef6cf926f2f394b0cc8e11be8022625'
p1618
sg142
S'd4372e4caa7348928655251605aa7329'
p1619
sg144
(lp1620
g1609
asg146
Nsba(ibclass
BBasicBlock
p1621
(dp1622
g12
Nsg13
(lp1623
(ibclass
BInstr
p1624
(dp1625
g2
Nsg17
S'cmp     [ebp+hbtype], 2'
p1626
sg19
S'66837dd202'
p1627
sg21
Vcmp word ptr [ebp - 0x2e], 2
p1628
sg5
L135075249L
sg6
Nsg23
S'cmp'
p1629
sg25
S'0x80d15b1L'
p1630
sg27
Nsba(ibclass
BInstr
p1631
(dp1632
g2
Nsg17
S'jnz     short loc_80D161C'
p1633
sg19
S'7564'
p1634
sg21
Vjne 0x66
p1635
sg5
L135075254L
sg6
Nsg23
S'jnz'
p1636
sg25
S'0x80d15b6L'
p1637
sg27
Nsbasg119
(lp1638
Vcmp mem, 2
p1639
aVjne address
p1640
asg130
Nsg5
S'0x80d15b1L'
p1641
sg132
(lp1642
S'0x80d145eL'
p1643
asg6
Nsg134
(lp1644
S'0x80d15b8L'
p1645
aS'0x80d161cL'
p1646
asg138
Nsg139
Nsg140
S'30cb3d6f6a174adfabcde507f6944a52'
p1647
sg142
S'8ee4188fb4191bf2310da94062956346'
p1648
sg144
(lp1649
g1629
ag1636
asg146
Nsba(ibclass
BBasicBlock
p1650
(dp1651
g12
Nsg13
(lp1652
(ibclass
BInstr
p1653
(dp1654
g2
Nsg17
S'mov     eax, [ebp+pl]'
p1655
sg19
S'8b45e0'
p1656
sg21
Vmov eax, dword ptr [ebp - 0x20]
p1657
sg5
L135075256L
sg6
Nsg23
S'mov'
p1658
sg25
S'0x80d15b8L'
p1659
sg27
Nsba(ibclass
BInstr
p1660
(dp1661
g2
Nsg17
S'mov     al, [eax]'
p1662
sg19
S'8a00'
p1663
sg21
Vmov al, byte ptr [eax]
p1664
sg5
L135075259L
sg6
Nsg23
S'mov'
p1665
sg25
S'0x80d15bbL'
p1666
sg27
Nsba(ibclass
BInstr
p1667
(dp1668
g2
Nsg17
S'and     eax, 0FFh'
p1669
sg19
S'25ff000000'
p1670
sg21
Vand eax, 0xff
p1671
sg5
L135075261L
sg6
Nsg23
S'and'
p1672
sg25
S'0x80d15bdL'
p1673
sg27
Nsba(ibclass
BInstr
p1674
(dp1675
g2
Nsg17
S'shl     eax, 8'
p1676
sg19
S'c1e008'
p1677
sg21
Vshl eax, 8
p1678
sg5
L135075266L
sg6
Nsg23
S'shl'
p1679
sg25
S'0x80d15c2L'
p1680
sg27
Nsba(ibclass
BInstr
p1681
(dp1682
g2
Nsg17
S'mov     edx, eax'
p1683
sg19
S'89c2'
p1684
sg21
Vmov edx, eax
p1685
sg5
L135075269L
sg6
Nsg23
S'mov'
p1686
sg25
S'0x80d15c5L'
p1687
sg27
Nsba(ibclass
BInstr
p1688
(dp1689
g2
Nsg17
S'mov     eax, [ebp+pl]'
p1690
sg19
S'8b45e0'
p1691
sg21
Vmov eax, dword ptr [ebp - 0x20]
p1692
sg5
L135075271L
sg6
Nsg23
S'mov'
p1693
sg25
S'0x80d15c7L'
p1694
sg27
Nsba(ibclass
BInstr
p1695
(dp1696
g2
Nsg17
S'inc     eax'
p1697
sg19
S'40'
p1698
sg21
Vinc eax
p1699
sg5
L135075274L
sg6
Nsg23
S'inc'
p1700
sg25
S'0x80d15caL'
p1701
sg27
Nsba(ibclass
BInstr
p1702
(dp1703
g2
Nsg17
S'mov     al, [eax]'
p1704
sg19
S'8a00'
p1705
sg21
Vmov al, byte ptr [eax]
p1706
sg5
L135075275L
sg6
Nsg23
S'mov'
p1707
sg25
S'0x80d15cbL'
p1708
sg27
Nsba(ibclass
BInstr
p1709
(dp1710
g2
Nsg17
S'and     eax, 0FFh'
p1711
sg19
S'25ff000000'
p1712
sg21
Vand eax, 0xff
p1713
sg5
L135075277L
sg6
Nsg23
S'and'
p1714
sg25
S'0x80d15cdL'
p1715
sg27
Nsba(ibclass
BInstr
p1716
(dp1717
g2
Nsg17
S'or      eax, edx'
p1718
sg19
S'09d0'
p1719
sg21
Vor eax, edx
p1720
sg5
L135075282L
sg6
Nsg23
S'or'
p1721
sg25
S'0x80d15d2L'
p1722
sg27
Nsba(ibclass
BInstr
p1723
(dp1724
g2
Nsg17
S'mov     [ebp+seq], eax'
p1725
sg19
S'8945f4'
p1726
sg21
Vmov dword ptr [ebp - 0xc], eax
p1727
sg5
L135075284L
sg6
Nsg23
S'mov'
p1728
sg25
S'0x80d15d4L'
p1729
sg27
Nsba(ibclass
BInstr
p1730
(dp1731
g2
Nsg17
S'add     [ebp+pl], 2'
p1732
sg19
S'8345e002'
p1733
sg21
Vadd dword ptr [ebp - 0x20], 2
p1734
sg5
L135075287L
sg6
Nsg23
S'add'
p1735
sg25
S'0x80d15d7L'
p1736
sg27
Nsba(ibclass
BInstr
p1737
(dp1738
g2
Nsg17
S'cmp     [ebp+payload], 12h'
p1739
sg19
S'837ddc12'
p1740
sg21
Vcmp dword ptr [ebp - 0x24], 0x12
p1741
sg5
L135075291L
sg6
Nsg23
S'cmp'
p1742
sg25
S'0x80d15dbL'
p1743
sg27
Nsba(ibclass
BInstr
p1744
(dp1745
g2
Nsg17
S'jnz     short loc_80D161C'
p1746
sg19
S'753b'
p1747
sg21
Vjne 0x3d
p1748
sg5
L135075295L
sg6
Nsg23
S'jnz'
p1749
sg25
S'0x80d15dfL'
p1750
sg27
Nsbasg119
(lp1751
Vmov eax, mem
p1752
aVmov al, mem
p1753
aVand eax, address
p1754
ag1678
ag1685
aVmov eax, mem
p1755
ag1699
aVmov al, mem
p1756
aVand eax, address
p1757
ag1720
aVmov mem, eax
p1758
aVadd mem, 2
p1759
aVcmp mem, address
p1760
aVjne address
p1761
asg130
Nsg5
S'0x80d15b8L'
p1762
sg132
(lp1763
S'0x80d15b1L'
p1764
asg6
Nsg134
(lp1765
S'0x80d15e1L'
p1766
aS'0x80d161cL'
p1767
asg138
Nsg139
Nsg140
S'214b02e99c46c61450de6d5c19261637'
p1768
sg142
S'882d6ac36a51a4a8581f6458946e1a83'
p1769
sg144
(lp1770
g1658
ag1665
ag1672
ag1679
ag1686
ag1693
ag1700
ag1707
ag1714
ag1721
ag1728
ag1735
ag1742
ag1749
asg146
Nsba(ibclass
BBasicBlock
p1771
(dp1772
g12
Nsg13
(lp1773
(ibclass
BInstr
p1774
(dp1775
g2
Nsg17
S'mov     eax, [ebp+s]'
p1776
sg19
S'8b4508'
p1777
sg21
Vmov eax, dword ptr [ebp + 8]
p1778
sg5
L135075297L
sg6
Nsg23
S'mov'
p1779
sg25
S'0x80d15e1L'
p1780
sg27
Nsba(ibclass
BInstr
p1781
(dp1782
g2
Nsg17
S'mov     eax, [eax+18Ch]'
p1783
sg19
S'8b808c010000'
p1784
sg21
Vmov eax, dword ptr [eax + 0x18c]
p1785
sg5
L135075300L
sg6
Nsg23
S'mov'
p1786
sg25
S'0x80d15e4L'
p1787
sg27
Nsba(ibclass
BInstr
p1788
(dp1789
g2
Nsg17
S'cmp     eax, [ebp+seq]'
p1790
sg19
S'3b45f4'
p1791
sg21
Vcmp eax, dword ptr [ebp - 0xc]
p1792
sg5
L135075306L
sg6
Nsg23
S'cmp'
p1793
sg25
S'0x80d15eaL'
p1794
sg27
Nsba(ibclass
BInstr
p1795
(dp1796
g2
Nsg17
S'jnz     short loc_80D161C'
p1797
sg19
S'752d'
p1798
sg21
Vjne 0x2f
p1799
sg5
L135075309L
sg6
Nsg23
S'jnz'
p1800
sg25
S'0x80d15edL'
p1801
sg27
Nsbasg119
(lp1802
Vmov eax, mem
p1803
aVmov eax, mem
p1804
aVcmp eax, mem
p1805
aVjne address
p1806
asg130
Nsg5
S'0x80d15e1L'
p1807
sg132
(lp1808
S'0x80d15b8L'
p1809
asg6
Nsg134
(lp1810
S'0x80d15efL'
p1811
aS'0x80d161cL'
p1812
asg138
Nsg139
Nsg140
S'a19a851724661b9339243c65cfd318e3'
p1813
sg142
S'51bbc01b1aae594ef38054eb79433910'
p1814
sg144
(lp1815
g1779
ag1786
ag1793
ag1800
asg146
Nsba(ibclass
BBasicBlock
p1816
(dp1817
g12
Nsg13
(lp1818
(ibclass
BInstr
p1819
(dp1820
g2
Nsg17
S'mov     eax, [ebp+s]'
p1821
sg19
S'8b4508'
p1822
sg21
Vmov eax, dword ptr [ebp + 8]
p1823
sg5
L135075311L
sg6
Nsg23
S'mov'
p1824
sg25
S'0x80d15efL'
p1825
sg27
Nsba(ibclass
BInstr
p1826
(dp1827
g2
Nsg17
S'mov     [esp], eax      ; s'
p1828
sg19
S'890424'
p1829
sg21
Vmov dword ptr [esp], eax
p1830
sg5
L135075314L
sg6
Nsg23
S'mov'
p1831
sg25
S'0x80d15f2L'
p1832
sg27
Nsba(ibclass
BInstr
p1833
(dp1834
g2
Nsg17
S'call    dtls1_stop_timer'
p1835
sg19
S'e8d79fffff'
p1836
sg21
Vcall 0xffff9fdc
p1837
sg5
L135075317L
sg6
Nsg23
S'call'
p1838
sg25
S'0x80d15f5L'
p1839
sg27
Nsba(ibclass
BInstr
p1840
(dp1841
g2
Nsg17
S'mov     eax, [ebp+s]'
p1842
sg19
S'8b4508'
p1843
sg21
Vmov eax, dword ptr [ebp + 8]
p1844
sg5
L135075322L
sg6
Nsg23
S'mov'
p1845
sg25
S'0x80d15faL'
p1846
sg27
Nsba(ibclass
BInstr
p1847
(dp1848
g2
Nsg17
S'mov     eax, [eax+18Ch]'
p1849
sg19
S'8b808c010000'
p1850
sg21
Vmov eax, dword ptr [eax + 0x18c]
p1851
sg5
L135075325L
sg6
Nsg23
S'mov'
p1852
sg25
S'0x80d15fdL'
p1853
sg27
Nsba(ibclass
BInstr
p1854
(dp1855
g2
Nsg17
S'lea     edx, [eax+1]'
p1856
sg19
S'8d5001'
p1857
sg21
Vlea edx, [eax + 1]
p1858
sg5
L135075331L
sg6
Nsg23
S'lea'
p1859
sg25
S'0x80d1603L'
p1860
sg27
Nsba(ibclass
BInstr
p1861
(dp1862
g2
Nsg17
S'mov     eax, [ebp+s]'
p1863
sg19
S'8b4508'
p1864
sg21
Vmov eax, dword ptr [ebp + 8]
p1865
sg5
L135075334L
sg6
Nsg23
S'mov'
p1866
sg25
S'0x80d1606L'
p1867
sg27
Nsba(ibclass
BInstr
p1868
(dp1869
g2
Nsg17
S'mov     [eax+18Ch], edx'
p1870
sg19
S'89908c010000'
p1871
sg21
Vmov dword ptr [eax + 0x18c], edx
p1872
sg5
L135075337L
sg6
Nsg23
S'mov'
p1873
sg25
S'0x80d1609L'
p1874
sg27
Nsba(ibclass
BInstr
p1875
(dp1876
g2
Nsg17
S'mov     eax, [ebp+s]'
p1877
sg19
S'8b4508'
p1878
sg21
Vmov eax, dword ptr [ebp + 8]
p1879
sg5
L135075343L
sg6
Nsg23
S'mov'
p1880
sg25
S'0x80d160fL'
p1881
sg27
Nsba(ibclass
BInstr
p1882
(dp1883
g2
Nsg17
S'mov     dword ptr [eax+188h], 0'
p1884
sg19
S'c7808801000000000000'
p1885
sg21
Vmov dword ptr [eax + 0x188], 0
p1886
sg5
L135075346L
sg6
Nsg23
S'mov'
p1887
sg25
S'0x80d1612L'
p1888
sg27
Nsbasg119
(lp1889
Vmov eax, mem
p1890
aVmov mem, eax
p1891
aVcall address
p1892
aVmov eax, mem
p1893
aVmov eax, mem
p1894
aVlea edx, mem
p1895
aVmov eax, mem
p1896
aVmov mem, edx
p1897
aVmov eax, mem
p1898
aVmov mem, 0
p1899
asg130
Nsg5
S'0x80d15efL'
p1900
sg132
(lp1901
S'0x80d15e1L'
p1902
asg6
Nsg134
(lp1903
S'0x80d161cL'
p1904
asg138
Nsg139
Nsg140
S'0a5bc1e95a87c83dcc9956af7b8a0602'
p1905
sg142
S'2cb75f9be59f5a3172ab822cde2342e6'
p1906
sg144
(lp1907
g1824
ag1831
ag1838
ag1845
ag1852
ag1859
ag1866
ag1873
ag1880
ag1887
asg146
Nsba(ibclass
BBasicBlock
p1908
(dp1909
g12
Nsg13
(lp1910
(ibclass
BInstr
p1911
(dp1912
g2
Nsg17
S'mov     eax, 0'
p1913
sg19
S'b800000000'
p1914
sg21
Vmov eax, 0
p1915
sg5
L135075356L
sg6
Nsg23
S'mov'
p1916
sg25
S'0x80d161cL'
p1917
sg27
Nsbasg119
(lp1918
g1915
asg130
Nsg5
S'0x80d161cL'
p1919
sg132
(lp1920
S'0x80d15afL'
p1921
aS'0x80d15b1L'
p1922
aS'0x80d15b8L'
p1923
aS'0x80d15e1L'
p1924
aS'0x80d15efL'
p1925
asg6
Nsg134
(lp1926
S'0x80d1621L'
p1927
asg138
Nsg139
Nsg140
S'96a4a0e6e9ac88756a0fcba989d0a844'
p1928
sg142
S'4cfc99738161f190e0def2f4916ada38'
p1929
sg144
(lp1930
g1916
asg146
Nsba(ibclass
BBasicBlock
p1931
(dp1932
g12
Nsg13
(lp1933
(ibclass
BInstr
p1934
(dp1935
g2
Nsg17
S'add     esp, 50h'
p1936
sg19
S'83c450'
p1937
sg21
Vadd esp, 0x50
p1938
sg5
L135075361L
sg6
Nsg23
S'add'
p1939
sg25
S'0x80d1621L'
p1940
sg27
Nsba(ibclass
BInstr
p1941
(dp1942
g2
Nsg17
S'pop     ebx'
p1943
sg19
S'5b'
p1944
sg21
Vpop ebx
p1945
sg5
L135075364L
sg6
Nsg23
S'pop'
p1946
sg25
S'0x80d1624L'
p1947
sg27
Nsba(ibclass
BInstr
p1948
(dp1949
g2
Nsg17
S'pop     esi'
p1950
sg19
S'5e'
p1951
sg21
Vpop esi
p1952
sg5
L135075365L
sg6
Nsg23
S'pop'
p1953
sg25
S'0x80d1625L'
p1954
sg27
Nsba(ibclass
BInstr
p1955
(dp1956
g2
Nsg17
S'pop     ebp'
p1957
sg19
S'5d'
p1958
sg21
Vpop ebp
p1959
sg5
L135075366L
sg6
Nsg23
S'pop'
p1960
sg25
S'0x80d1626L'
p1961
sg27
Nsba(ibclass
BInstr
p1962
(dp1963
g2
Nsg17
S'retn'
p1964
sg19
S'c3'
p1965
sg21
Vret 
p1966
sg5
L135075367L
sg6
Nsg23
S'retn'
p1967
sg25
S'0x80d1627L'
p1968
sg27
Nsbasg119
(lp1969
Vadd esp, address
p1970
ag1945
ag1952
ag1959
aVret
p1971
asg130
Nsg5
S'0x80d1621L'
p1972
sg132
(lp1973
S'0x80d13e0L'
p1974
aS'0x80d13fdL'
p1975
aS'0x80d1454L'
p1976
aS'0x80d1486L'
p1977
aS'0x80d1511L'
p1978
aS'0x80d15aaL'
p1979
aS'0x80d161cL'
p1980
asg6
Nsg134
(lp1981
sg138
Nsg139
Nsg140
S'a3cac886029af1831737c083e97867e2'
p1982
sg142
S'f8491214a41ae2d406c7cfafd8bb8138'
p1983
sg144
(lp1984
g1939
ag1946
ag1953
ag1960
ag1967
asg146
Nsbasb.