(ibclass
BFunc
p0
(dp1
S'hash'
p2
NsS'name'
p3
S'MOD_EXP_CTIME_COPY_TO_PREBUF'
p4
sS'start_address'
p5
L135317644L
sS'flag'
p6
NsS'program'
p7
NsS'bbs'
p8
(lp9
(ibclass
BBasicBlock
p10
(dp11
S'function'
p12
NsS'binstrs'
p13
(lp14
(ibclass
BInstr
p15
(dp16
g2
NsS'disasm'
p17
S'push    ebp'
p18
sS'bytes'
p19
S'55'
p20
sS'disasm_striped'
p21
Vpush ebp
p22
sg5
L135317644L
sg6
NsS'mnem'
p23
S'push'
p24
sS'address'
p25
S'0x810c88cL'
p26
sS'basicblock'
p27
Nsba(ibclass
BInstr
p28
(dp29
g2
Nsg17
S'mov     ebp, esp'
p30
sg19
S'89e5'
p31
sg21
Vmov ebp, esp
p32
sg5
L135317645L
sg6
Nsg23
S'mov'
p33
sg25
S'0x810c88dL'
p34
sg27
Nsba(ibclass
BInstr
p35
(dp36
g2
Nsg17
S'sub     esp, 10h'
p37
sg19
S'83ec10'
p38
sg21
Vsub esp, 0x10
p39
sg5
L135317647L
sg6
Nsg23
S'sub'
p40
sg25
S'0x810c88fL'
p41
sg27
Nsba(ibclass
BInstr
p42
(dp43
g2
Nsg17
S'mov     eax, [ebp+b]'
p44
sg19
S'8b4508'
p45
sg21
Vmov eax, dword ptr [ebp + 8]
p46
sg5
L135317650L
sg6
Nsg23
S'mov'
p47
sg25
S'0x810c892L'
p48
sg27
Nsba(ibclass
BInstr
p49
(dp50
g2
Nsg17
S'mov     eax, [eax+4]'
p51
sg19
S'8b4004'
p52
sg21
Vmov eax, dword ptr [eax + 4]
p53
sg5
L135317653L
sg6
Nsg23
S'mov'
p54
sg25
S'0x810c895L'
p55
sg27
Nsba(ibclass
BInstr
p56
(dp57
g2
Nsg17
S'cmp     eax, [ebp+top]'
p58
sg19
S'3b450c'
p59
sg21
Vcmp eax, dword ptr [ebp + 0xc]
p60
sg5
L135317656L
sg6
Nsg23
S'cmp'
p61
sg25
S'0x810c898L'
p62
sg27
Nsba(ibclass
BInstr
p63
(dp64
g2
Nsg17
S'jge     short loc_810C8A6'
p65
sg19
S'7d09'
p66
sg21
Vjge 0xb
p67
sg5
L135317659L
sg6
Nsg23
S'jge'
p68
sg25
S'0x810c89bL'
p69
sg27
NsbasS'disasm_list'
p70
(lp71
g22
ag32
aVsub esp, address
p72
aVmov eax, mem
p73
aVmov eax, mem
p74
aVcmp eax, mem
p75
aVjge address
p76
asS'end_address'
p77
Nsg5
S'0x810c88cL'
p78
sS'preds'
p79
(lp80
sg6
NsS'succs'
p81
(lp82
S'0x810c89dL'
p83
aS'0x810c8a6L'
p84
asS'hash_v3'
p85
NsS'flag_v2'
p86
NsS'hash_v1'
p87
S'fdd6b9929cf8a27be180b63a03ad56e4'
p88
sS'hash_v2'
p89
S'9ef1458e654ee399e29102039130e60b'
p90
sS'mnen_list'
p91
(lp92
g24
ag33
ag40
ag47
ag54
ag61
ag68
asS'neighbour_disasm_list'
p93
Nsba(ibclass
BBasicBlock
p94
(dp95
g12
Nsg13
(lp96
(ibclass
BInstr
p97
(dp98
g2
Nsg17
S'mov     eax, [ebp+b]'
p99
sg19
S'8b4508'
p100
sg21
Vmov eax, dword ptr [ebp + 8]
p101
sg5
L135317661L
sg6
Nsg23
S'mov'
p102
sg25
S'0x810c89dL'
p103
sg27
Nsba(ibclass
BInstr
p104
(dp105
g2
Nsg17
S'mov     eax, [eax+4]'
p106
sg19
S'8b4004'
p107
sg21
Vmov eax, dword ptr [eax + 4]
p108
sg5
L135317664L
sg6
Nsg23
S'mov'
p109
sg25
S'0x810c8a0L'
p110
sg27
Nsba(ibclass
BInstr
p111
(dp112
g2
Nsg17
S'mov     [ebp+top], eax'
p113
sg19
S'89450c'
p114
sg21
Vmov dword ptr [ebp + 0xc], eax
p115
sg5
L135317667L
sg6
Nsg23
S'mov'
p116
sg25
S'0x810c8a3L'
p117
sg27
Nsbasg70
(lp118
Vmov eax, mem
p119
aVmov eax, mem
p120
aVmov mem, eax
p121
asg77
Nsg5
S'0x810c89dL'
p122
sg79
(lp123
S'0x810c88cL'
p124
asg6
Nsg81
(lp125
S'0x810c8a6L'
p126
asg85
Nsg86
Nsg87
S'9eccc8b14ee1489d7c3de99648417ffe'
p127
sg89
S'3a2105431602096e5ee53b672fcb6ff0'
p128
sg91
(lp129
g102
ag109
ag116
asg93
Nsba(ibclass
BBasicBlock
p130
(dp131
g12
Nsg13
(lp132
(ibclass
BInstr
p133
(dp134
g2
Nsg17
S'mov     [ebp+i], 0'
p135
sg19
S'c745f800000000'
p136
sg21
Vmov dword ptr [ebp - 8], 0
p137
sg5
L135317670L
sg6
Nsg23
S'mov'
p138
sg25
S'0x810c8a6L'
p139
sg27
Nsba(ibclass
BInstr
p140
(dp141
g2
Nsg17
S'mov     eax, [ebp+idx]'
p142
sg19
S'8b4514'
p143
sg21
Vmov eax, dword ptr [ebp + 0x14]
p144
sg5
L135317677L
sg6
Nsg23
S'mov'
p145
sg25
S'0x810c8adL'
p146
sg27
Nsba(ibclass
BInstr
p147
(dp148
g2
Nsg17
S'mov     [ebp+j], eax'
p149
sg19
S'8945fc'
p150
sg21
Vmov dword ptr [ebp - 4], eax
p151
sg5
L135317680L
sg6
Nsg23
S'mov'
p152
sg25
S'0x810c8b0L'
p153
sg27
Nsba(ibclass
BInstr
p154
(dp155
g2
Nsg17
S'jmp     short loc_810C8D4'
p156
sg19
S'eb1f'
p157
sg21
Vjmp 0x21
p158
sg5
L135317683L
sg6
Nsg23
S'jmp'
p159
sg25
S'0x810c8b3L'
p160
sg27
Nsbasg70
(lp161
Vmov mem, 0
p162
aVmov eax, mem
p163
aVmov mem, eax
p164
aVjmp address
p165
asg77
Nsg5
S'0x810c8a6L'
p166
sg79
(lp167
S'0x810c88cL'
p168
aS'0x810c89dL'
p169
asg6
Nsg81
(lp170
S'0x810c8d4L'
p171
asg85
Nsg86
Nsg87
S'040fce6d72bb8b206d60fbb015935e24'
p172
sg89
S'a230850022baa3c9b4bc2a54dde0445f'
p173
sg91
(lp174
g138
ag145
ag152
ag159
asg93
Nsba(ibclass
BBasicBlock
p175
(dp176
g12
Nsg13
(lp177
(ibclass
BInstr
p178
(dp179
g2
Nsg17
S'mov     eax, [ebp+j]'
p180
sg19
S'8b45fc'
p181
sg21
Vmov eax, dword ptr [ebp - 4]
p182
sg5
L135317685L
sg6
Nsg23
S'mov'
p183
sg25
S'0x810c8b5L'
p184
sg27
Nsba(ibclass
BInstr
p185
(dp186
g2
Nsg17
S'mov     edx, [ebp+buf]'
p187
sg19
S'8b5510'
p188
sg21
Vmov edx, dword ptr [ebp + 0x10]
p189
sg5
L135317688L
sg6
Nsg23
S'mov'
p190
sg25
S'0x810c8b8L'
p191
sg27
Nsba(ibclass
BInstr
p192
(dp193
g2
Nsg17
S'add     edx, eax'
p194
sg19
S'01c2'
p195
sg21
Vadd edx, eax
p196
sg5
L135317691L
sg6
Nsg23
S'add'
p197
sg25
S'0x810c8bbL'
p198
sg27
Nsba(ibclass
BInstr
p199
(dp200
g2
Nsg17
S'mov     eax, [ebp+b]'
p201
sg19
S'8b4508'
p202
sg21
Vmov eax, dword ptr [ebp + 8]
p203
sg5
L135317693L
sg6
Nsg23
S'mov'
p204
sg25
S'0x810c8bdL'
p205
sg27
Nsba(ibclass
BInstr
p206
(dp207
g2
Nsg17
S'mov     ecx, [eax]'
p208
sg19
S'8b08'
p209
sg21
Vmov ecx, dword ptr [eax]
p210
sg5
L135317696L
sg6
Nsg23
S'mov'
p211
sg25
S'0x810c8c0L'
p212
sg27
Nsba(ibclass
BInstr
p213
(dp214
g2
Nsg17
S'mov     eax, [ebp+i]'
p215
sg19
S'8b45f8'
p216
sg21
Vmov eax, dword ptr [ebp - 8]
p217
sg5
L135317698L
sg6
Nsg23
S'mov'
p218
sg25
S'0x810c8c2L'
p219
sg27
Nsba(ibclass
BInstr
p220
(dp221
g2
Nsg17
S'add     eax, ecx'
p222
sg19
S'01c8'
p223
sg21
Vadd eax, ecx
p224
sg5
L135317701L
sg6
Nsg23
S'add'
p225
sg25
S'0x810c8c5L'
p226
sg27
Nsba(ibclass
BInstr
p227
(dp228
g2
Nsg17
S'mov     al, [eax]'
p229
sg19
S'8a00'
p230
sg21
Vmov al, byte ptr [eax]
p231
sg5
L135317703L
sg6
Nsg23
S'mov'
p232
sg25
S'0x810c8c7L'
p233
sg27
Nsba(ibclass
BInstr
p234
(dp235
g2
Nsg17
S'mov     [edx], al'
p236
sg19
S'8802'
p237
sg21
Vmov byte ptr [edx], al
p238
sg5
L135317705L
sg6
Nsg23
S'mov'
p239
sg25
S'0x810c8c9L'
p240
sg27
Nsba(ibclass
BInstr
p241
(dp242
g2
Nsg17
S'inc     [ebp+i]'
p243
sg19
S'ff45f8'
p244
sg21
Vinc dword ptr [ebp - 8]
p245
sg5
L135317707L
sg6
Nsg23
S'inc'
p246
sg25
S'0x810c8cbL'
p247
sg27
Nsba(ibclass
BInstr
p248
(dp249
g2
Nsg17
S'mov     eax, [ebp+width]'
p250
sg19
S'8b4518'
p251
sg21
Vmov eax, dword ptr [ebp + 0x18]
p252
sg5
L135317710L
sg6
Nsg23
S'mov'
p253
sg25
S'0x810c8ceL'
p254
sg27
Nsba(ibclass
BInstr
p255
(dp256
g2
Nsg17
S'add     [ebp+j], eax'
p257
sg19
S'0145fc'
p258
sg21
Vadd dword ptr [ebp - 4], eax
p259
sg5
L135317713L
sg6
Nsg23
S'add'
p260
sg25
S'0x810c8d1L'
p261
sg27
Nsbasg70
(lp262
Vmov eax, mem
p263
aVmov edx, mem
p264
ag196
aVmov eax, mem
p265
aVmov ecx, mem
p266
aVmov eax, mem
p267
ag224
aVmov al, mem
p268
aVmov mem, al
p269
aVinc mem
p270
aVmov eax, mem
p271
aVadd mem, eax
p272
asg77
Nsg5
S'0x810c8b5L'
p273
sg79
(lp274
S'0x810c8d4L'
p275
asg6
Nsg81
(lp276
S'0x810c8d4L'
p277
asg85
Nsg86
Nsg87
S'f9bc09668a3c362592c8af7f3248d506'
p278
sg89
S'3d807fee9c02e0e961436977281a0a8f'
p279
sg91
(lp280
g183
ag190
ag197
ag204
ag211
ag218
ag225
ag232
ag239
ag246
ag253
ag260
asg93
Nsba(ibclass
BBasicBlock
p281
(dp282
g12
Nsg13
(lp283
(ibclass
BInstr
p284
(dp285
g2
Nsg17
S'mov     eax, [ebp+top]'
p286
sg19
S'8b450c'
p287
sg21
Vmov eax, dword ptr [ebp + 0xc]
p288
sg5
L135317716L
sg6
Nsg23
S'mov'
p289
sg25
S'0x810c8d4L'
p290
sg27
Nsba(ibclass
BInstr
p291
(dp292
g2
Nsg17
S'shl     eax, 2'
p293
sg19
S'c1e002'
p294
sg21
Vshl eax, 2
p295
sg5
L135317719L
sg6
Nsg23
S'shl'
p296
sg25
S'0x810c8d7L'
p297
sg27
Nsba(ibclass
BInstr
p298
(dp299
g2
Nsg17
S'cmp     eax, [ebp+i]'
p300
sg19
S'3b45f8'
p301
sg21
Vcmp eax, dword ptr [ebp - 8]
p302
sg5
L135317722L
sg6
Nsg23
S'cmp'
p303
sg25
S'0x810c8daL'
p304
sg27
Nsba(ibclass
BInstr
p305
(dp306
g2
Nsg17
S'ja      short loc_810C8B5'
p307
sg19
S'77d6'
p308
sg21
Vja 0xffffffd8
p309
sg5
L135317725L
sg6
Nsg23
S'ja'
p310
sg25
S'0x810c8ddL'
p311
sg27
Nsbasg70
(lp312
Vmov eax, mem
p313
ag295
aVcmp eax, mem
p314
aVja address
p315
asg77
Nsg5
S'0x810c8d4L'
p316
sg79
(lp317
S'0x810c8a6L'
p318
aS'0x810c8b5L'
p319
asg6
Nsg81
(lp320
S'0x810c8b5L'
p321
aS'0x810c8dfL'
p322
asg85
Nsg86
Nsg87
S'82789d5c7e2a0397eef8bc3a480cdc98'
p323
sg89
S'6dc5b58bd93ed49f53b2f47cb77e7f0d'
p324
sg91
(lp325
g289
ag296
ag303
ag310
asg93
Nsba(ibclass
BBasicBlock
p326
(dp327
g12
Nsg13
(lp328
(ibclass
BInstr
p329
(dp330
g2
Nsg17
S'mov     eax, 1'
p331
sg19
S'b801000000'
p332
sg21
Vmov eax, 1
p333
sg5
L135317727L
sg6
Nsg23
S'mov'
p334
sg25
S'0x810c8dfL'
p335
sg27
Nsba(ibclass
BInstr
p336
(dp337
g2
Nsg17
S'leave'
p338
sg19
S'c9'
p339
sg21
Vleave 
p340
sg5
L135317732L
sg6
Nsg23
S'leave'
p341
sg25
S'0x810c8e4L'
p342
sg27
Nsba(ibclass
BInstr
p343
(dp344
g2
Nsg17
S'retn'
p345
sg19
S'c3'
p346
sg21
Vret 
p347
sg5
L135317733L
sg6
Nsg23
S'retn'
p348
sg25
S'0x810c8e5L'
p349
sg27
Nsbasg70
(lp350
g333
aVleave
p351
aVret
p352
asg77
Nsg5
S'0x810c8dfL'
p353
sg79
(lp354
S'0x810c8d4L'
p355
asg6
Nsg81
(lp356
sg85
Nsg86
Nsg87
S'e1e4fc48a1de649b5336784cb2946f45'
p357
sg89
S'bfde711b8dd7af774ae307a41f1313fa'
p358
sg91
(lp359
g334
ag341
ag348
asg93
Nsbasb.