(ibclass
BFunc
p0
(dp1
S'hash'
p2
NsS'name'
p3
S'ssl_session_dup'
p4
sS'start_address'
p5
L135107145L
sS'flag'
p6
NsS'program'
p7
NsS'bbs'
p8
(lp9
(ibclass
BBasicBlock
p10
(dp11
S'function'
p12
NsS'binstrs'
p13
(lp14
(ibclass
BInstr
p15
(dp16
g2
NsS'disasm'
p17
S'push    ebp'
p18
sS'bytes'
p19
S'55'
p20
sS'disasm_striped'
p21
Vpush ebp
p22
sg5
L135107145L
sg6
NsS'mnem'
p23
S'push'
p24
sS'address'
p25
S'0x80d9249L'
p26
sS'basicblock'
p27
Nsba(ibclass
BInstr
p28
(dp29
g2
Nsg17
S'mov     ebp, esp'
p30
sg19
S'89e5'
p31
sg21
Vmov ebp, esp
p32
sg5
L135107146L
sg6
Nsg23
S'mov'
p33
sg25
S'0x80d924aL'
p34
sg27
Nsba(ibclass
BInstr
p35
(dp36
g2
Nsg17
S'sub     esp, 38h'
p37
sg19
S'83ec38'
p38
sg21
Vsub esp, 0x38
p39
sg5
L135107148L
sg6
Nsg23
S'sub'
p40
sg25
S'0x80d924cL'
p41
sg27
Nsba(ibclass
BInstr
p42
(dp43
g2
Nsg17
S'mov     dword ptr [esp+8], 0EEh; line'
p44
sg19
S'c7442408ee000000'
p45
sg21
Vmov dword ptr [esp + 8], 0xee
p46
sg5
L135107151L
sg6
Nsg23
S'mov'
p47
sg25
S'0x80d924fL'
p48
sg27
Nsba(ibclass
BInstr
p49
(dp50
g2
Nsg17
S'mov     dword ptr [esp+4], offset aSsl_sess_c; "ssl_sess.c"'
p51
sg19
S'c7442404e0932108'
p52
sg21
Vmov dword ptr [esp + 4], 0x82193e0
p53
sg5
L135107159L
sg6
Nsg23
S'mov'
p54
sg25
S'0x80d9257L'
p55
sg27
Nsba(ibclass
BInstr
p56
(dp57
g2
Nsg17
S'mov     dword ptr [esp], 0F4h; num'
p58
sg19
S'c70424f4000000'
p59
sg21
Vmov dword ptr [esp], 0xf4
p60
sg5
L135107167L
sg6
Nsg23
S'mov'
p61
sg25
S'0x80d925fL'
p62
sg27
Nsba(ibclass
BInstr
p63
(dp64
g2
Nsg17
S'call    CRYPTO_malloc'
p65
sg19
S'e84ce90000'
p66
sg21
Vcall 0xe951
p67
sg5
L135107174L
sg6
Nsg23
S'call'
p68
sg25
S'0x80d9266L'
p69
sg27
Nsba(ibclass
BInstr
p70
(dp71
g2
Nsg17
S'mov     [ebp+dest], eax'
p72
sg19
S'8945f4'
p73
sg21
Vmov dword ptr [ebp - 0xc], eax
p74
sg5
L135107179L
sg6
Nsg23
S'mov'
p75
sg25
S'0x80d926bL'
p76
sg27
Nsba(ibclass
BInstr
p77
(dp78
g2
Nsg17
S'cmp     [ebp+dest], 0'
p79
sg19
S'837df400'
p80
sg21
Vcmp dword ptr [ebp - 0xc], 0
p81
sg5
L135107182L
sg6
Nsg23
S'cmp'
p82
sg25
S'0x80d926eL'
p83
sg27
Nsba(ibclass
BInstr
p84
(dp85
g2
Nsg17
S'jnz     short loc_80D9279'
p86
sg19
S'7505'
p87
sg21
Vjne 7
p88
sg5
L135107186L
sg6
Nsg23
S'jnz'
p89
sg25
S'0x80d9272L'
p90
sg27
NsbasS'disasm_list'
p91
(lp92
g22
ag32
aVsub esp, address
p93
aVmov mem, address
p94
aVmov mem, address
p95
aVmov mem, address
p96
aVcall address
p97
aVmov mem, eax
p98
aVcmp mem, 0
p99
ag88
asS'end_address'
p100
Nsg5
S'0x80d9249L'
p101
sS'preds'
p102
(lp103
sg6
NsS'succs'
p104
(lp105
S'0x80d9274L'
p106
aS'0x80d9279L'
p107
asS'hash_v3'
p108
NsS'flag_v2'
p109
NsS'hash_v1'
p110
S'2f6ab3027157a8ec04c510407174cfe5'
p111
sS'hash_v2'
p112
S'49a319556f47aabf40ee774d5c62fa61'
p113
sS'mnen_list'
p114
(lp115
g24
ag33
ag40
ag47
ag54
ag61
ag68
ag75
ag82
ag89
asS'neighbour_disasm_list'
p116
Nsba(ibclass
BBasicBlock
p117
(dp118
g12
Nsg13
(lp119
(ibclass
BInstr
p120
(dp121
g2
Nsg17
S'jmp     err'
p122
sg19
S'e97a030000'
p123
sg21
Vjmp 0x37f
p124
sg5
L135107188L
sg6
Nsg23
S'jmp'
p125
sg25
S'0x80d9274L'
p126
sg27
Nsbasg91
(lp127
Vjmp address
p128
asg100
Nsg5
S'0x80d9274L'
p129
sg102
(lp130
S'0x80d9249L'
p131
asg6
Nsg104
(lp132
S'0x80d95f3L'
p133
asg108
Nsg109
Nsg110
S'0ef6cf926f2f394b0cc8e11be8022625'
p134
sg112
S'd4372e4caa7348928655251605aa7329'
p135
sg114
(lp136
g125
asg116
Nsba(ibclass
BBasicBlock
p137
(dp138
g12
Nsg13
(lp139
(ibclass
BInstr
p140
(dp141
g2
Nsg17
S'mov     dword ptr [esp+8], 0F4h; n'
p142
sg19
S'c7442408f4000000'
p143
sg21
Vmov dword ptr [esp + 8], 0xf4
p144
sg5
L135107193L
sg6
Nsg23
S'mov'
p145
sg25
S'0x80d9279L'
p146
sg27
Nsba(ibclass
BInstr
p147
(dp148
g2
Nsg17
S'mov     eax, [ebp+src]'
p149
sg19
S'8b4508'
p150
sg21
Vmov eax, dword ptr [ebp + 8]
p151
sg5
L135107201L
sg6
Nsg23
S'mov'
p152
sg25
S'0x80d9281L'
p153
sg27
Nsba(ibclass
BInstr
p154
(dp155
g2
Nsg17
S'mov     [esp+4], eax    ; src'
p156
sg19
S'89442404'
p157
sg21
Vmov dword ptr [esp + 4], eax
p158
sg5
L135107204L
sg6
Nsg23
S'mov'
p159
sg25
S'0x80d9284L'
p160
sg27
Nsba(ibclass
BInstr
p161
(dp162
g2
Nsg17
S'mov     eax, [ebp+dest]'
p163
sg19
S'8b45f4'
p164
sg21
Vmov eax, dword ptr [ebp - 0xc]
p165
sg5
L135107208L
sg6
Nsg23
S'mov'
p166
sg25
S'0x80d9288L'
p167
sg27
Nsba(ibclass
BInstr
p168
(dp169
g2
Nsg17
S'mov     [esp], eax      ; dest'
p170
sg19
S'890424'
p171
sg21
Vmov dword ptr [esp], eax
p172
sg5
L135107211L
sg6
Nsg23
S'mov'
p173
sg25
S'0x80d928bL'
p174
sg27
Nsba(ibclass
BInstr
p175
(dp176
g2
Nsg17
S'call    _memcpy'
p177
sg19
S'e8ed02f7ff'
p178
sg21
Vcall 0xfff702f2
p179
sg5
L135107214L
sg6
Nsg23
S'call'
p180
sg25
S'0x80d928eL'
p181
sg27
Nsba(ibclass
BInstr
p182
(dp183
g2
Nsg17
S'mov     eax, [ebp+dest]'
p184
sg19
S'8b45f4'
p185
sg21
Vmov eax, dword ptr [ebp - 0xc]
p186
sg5
L135107219L
sg6
Nsg23
S'mov'
p187
sg25
S'0x80d9293L'
p188
sg27
Nsba(ibclass
BInstr
p189
(dp190
g2
Nsg17
S'mov     dword ptr [eax+8Ch], 0'
p191
sg19
S'c7808c00000000000000'
p192
sg21
Vmov dword ptr [eax + 0x8c], 0
p193
sg5
L135107222L
sg6
Nsg23
S'mov'
p194
sg25
S'0x80d9296L'
p195
sg27
Nsba(ibclass
BInstr
p196
(dp197
g2
Nsg17
S'mov     eax, [ebp+dest]'
p198
sg19
S'8b45f4'
p199
sg21
Vmov eax, dword ptr [ebp - 0xc]
p200
sg5
L135107232L
sg6
Nsg23
S'mov'
p201
sg25
S'0x80d92a0L'
p202
sg27
Nsba(ibclass
BInstr
p203
(dp204
g2
Nsg17
S'mov     dword ptr [eax+90h], 0'
p205
sg19
S'c7809000000000000000'
p206
sg21
Vmov dword ptr [eax + 0x90], 0
p207
sg5
L135107235L
sg6
Nsg23
S'mov'
p208
sg25
S'0x80d92a3L'
p209
sg27
Nsba(ibclass
BInstr
p210
(dp211
g2
Nsg17
S'mov     eax, [ebp+dest]'
p212
sg19
S'8b45f4'
p213
sg21
Vmov eax, dword ptr [ebp - 0xc]
p214
sg5
L135107245L
sg6
Nsg23
S'mov'
p215
sg25
S'0x80d92adL'
p216
sg27
Nsba(ibclass
BInstr
p217
(dp218
g2
Nsg17
S'mov     dword ptr [eax+0BCh], 0'
p219
sg19
S'c780bc00000000000000'
p220
sg21
Vmov dword ptr [eax + 0xbc], 0
p221
sg5
L135107248L
sg6
Nsg23
S'mov'
p222
sg25
S'0x80d92b0L'
p223
sg27
Nsba(ibclass
BInstr
p224
(dp225
g2
Nsg17
S'mov     eax, [ebp+dest]'
p226
sg19
S'8b45f4'
p227
sg21
Vmov eax, dword ptr [ebp - 0xc]
p228
sg5
L135107258L
sg6
Nsg23
S'mov'
p229
sg25
S'0x80d92baL'
p230
sg27
Nsba(ibclass
BInstr
p231
(dp232
g2
Nsg17
S'mov     dword ptr [eax+0D0h], 0'
p233
sg19
S'c780d000000000000000'
p234
sg21
Vmov dword ptr [eax + 0xd0], 0
p235
sg5
L135107261L
sg6
Nsg23
S'mov'
p236
sg25
S'0x80d92bdL'
p237
sg27
Nsba(ibclass
BInstr
p238
(dp239
g2
Nsg17
S'mov     eax, [ebp+dest]'
p240
sg19
S'8b45f4'
p241
sg21
Vmov eax, dword ptr [ebp - 0xc]
p242
sg5
L135107271L
sg6
Nsg23
S'mov'
p243
sg25
S'0x80d92c7L'
p244
sg27
Nsba(ibclass
BInstr
p245
(dp246
g2
Nsg17
S'mov     dword ptr [eax+0D8h], 0'
p247
sg19
S'c780d800000000000000'
p248
sg21
Vmov dword ptr [eax + 0xd8], 0
p249
sg5
L135107274L
sg6
Nsg23
S'mov'
p250
sg25
S'0x80d92caL'
p251
sg27
Nsba(ibclass
BInstr
p252
(dp253
g2
Nsg17
S'mov     eax, [ebp+dest]'
p254
sg19
S'8b45f4'
p255
sg21
Vmov eax, dword ptr [ebp - 0xc]
p256
sg5
L135107284L
sg6
Nsg23
S'mov'
p257
sg25
S'0x80d92d4L'
p258
sg27
Nsba(ibclass
BInstr
p259
(dp260
g2
Nsg17
S'mov     dword ptr [eax+0E0h], 0'
p261
sg19
S'c780e000000000000000'
p262
sg21
Vmov dword ptr [eax + 0xe0], 0
p263
sg5
L135107287L
sg6
Nsg23
S'mov'
p264
sg25
S'0x80d92d7L'
p265
sg27
Nsba(ibclass
BInstr
p266
(dp267
g2
Nsg17
S'mov     eax, [ebp+dest]'
p268
sg19
S'8b45f4'
p269
sg21
Vmov eax, dword ptr [ebp - 0xc]
p270
sg5
L135107297L
sg6
Nsg23
S'mov'
p271
sg25
S'0x80d92e1L'
p272
sg27
Nsba(ibclass
BInstr
p273
(dp274
g2
Nsg17
S'mov     dword ptr [eax+0E4h], 0'
p275
sg19
S'c780e400000000000000'
p276
sg21
Vmov dword ptr [eax + 0xe4], 0
p277
sg5
L135107300L
sg6
Nsg23
S'mov'
p278
sg25
S'0x80d92e4L'
p279
sg27
Nsba(ibclass
BInstr
p280
(dp281
g2
Nsg17
S'mov     eax, [ebp+dest]'
p282
sg19
S'8b45f4'
p283
sg21
Vmov eax, dword ptr [ebp - 0xc]
p284
sg5
L135107310L
sg6
Nsg23
S'mov'
p285
sg25
S'0x80d92eeL'
p286
sg27
Nsba(ibclass
BInstr
p287
(dp288
g2
Nsg17
S'mov     dword ptr [eax+0F0h], 0'
p289
sg19
S'c780f000000000000000'
p290
sg21
Vmov dword ptr [eax + 0xf0], 0
p291
sg5
L135107313L
sg6
Nsg23
S'mov'
p292
sg25
S'0x80d92f1L'
p293
sg27
Nsba(ibclass
BInstr
p294
(dp295
g2
Nsg17
S'mov     eax, [ebp+dest]'
p296
sg19
S'8b45f4'
p297
sg21
Vmov eax, dword ptr [ebp - 0xc]
p298
sg5
L135107323L
sg6
Nsg23
S'mov'
p299
sg25
S'0x80d92fbL'
p300
sg27
Nsba(ibclass
BInstr
p301
(dp302
g2
Nsg17
S'add     eax, 0C0h'
p303
sg19
S'05c0000000'
p304
sg21
Vadd eax, 0xc0
p305
sg5
L135107326L
sg6
Nsg23
S'add'
p306
sg25
S'0x80d92feL'
p307
sg27
Nsba(ibclass
BInstr
p308
(dp309
g2
Nsg17
S'mov     dword ptr [esp+8], 8; n'
p310
sg19
S'c744240808000000'
p311
sg21
Vmov dword ptr [esp + 8], 8
p312
sg5
L135107331L
sg6
Nsg23
S'mov'
p313
sg25
S'0x80d9303L'
p314
sg27
Nsba(ibclass
BInstr
p315
(dp316
g2
Nsg17
S'mov     dword ptr [esp+4], 0; c'
p317
sg19
S'c744240400000000'
p318
sg21
Vmov dword ptr [esp + 4], 0
p319
sg5
L135107339L
sg6
Nsg23
S'mov'
p320
sg25
S'0x80d930bL'
p321
sg27
Nsba(ibclass
BInstr
p322
(dp323
g2
Nsg17
S'mov     [esp], eax      ; s'
p324
sg19
S'890424'
p325
sg21
Vmov dword ptr [esp], eax
p326
sg5
L135107347L
sg6
Nsg23
S'mov'
p327
sg25
S'0x80d9313L'
p328
sg27
Nsba(ibclass
BInstr
p329
(dp330
g2
Nsg17
S'call    _memset'
p331
sg19
S'e88506f7ff'
p332
sg21
Vcall 0xfff7068a
p333
sg5
L135107350L
sg6
Nsg23
S'call'
p334
sg25
S'0x80d9316L'
p335
sg27
Nsba(ibclass
BInstr
p336
(dp337
g2
Nsg17
S'mov     eax, [ebp+dest]'
p338
sg19
S'8b45f4'
p339
sg21
Vmov eax, dword ptr [ebp - 0xc]
p340
sg5
L135107355L
sg6
Nsg23
S'mov'
p341
sg25
S'0x80d931bL'
p342
sg27
Nsba(ibclass
BInstr
p343
(dp344
g2
Nsg17
S'mov     dword ptr [eax+0C8h], 0'
p345
sg19
S'c780c800000000000000'
p346
sg21
Vmov dword ptr [eax + 0xc8], 0
p347
sg5
L135107358L
sg6
Nsg23
S'mov'
p348
sg25
S'0x80d931eL'
p349
sg27
Nsba(ibclass
BInstr
p350
(dp351
g2
Nsg17
S'mov     eax, [ebp+dest]'
p352
sg19
S'8b45f4'
p353
sg21
Vmov eax, dword ptr [ebp - 0xc]
p354
sg5
L135107368L
sg6
Nsg23
S'mov'
p355
sg25
S'0x80d9328L'
p356
sg27
Nsba(ibclass
BInstr
p357
(dp358
g2
Nsg17
S'mov     dword ptr [eax+0CCh], 0'
p359
sg19
S'c780cc00000000000000'
p360
sg21
Vmov dword ptr [eax + 0xcc], 0
p361
sg5
L135107371L
sg6
Nsg23
S'mov'
p362
sg25
S'0x80d932bL'
p363
sg27
Nsba(ibclass
BInstr
p364
(dp365
g2
Nsg17
S'mov     eax, [ebp+dest]'
p366
sg19
S'8b45f4'
p367
sg21
Vmov eax, dword ptr [ebp - 0xc]
p368
sg5
L135107381L
sg6
Nsg23
S'mov'
p369
sg25
S'0x80d9335L'
p370
sg27
Nsba(ibclass
BInstr
p371
(dp372
g2
Nsg17
S'mov     dword ptr [eax+0A4h], 1'
p373
sg19
S'c780a400000001000000'
p374
sg21
Vmov dword ptr [eax + 0xa4], 1
p375
sg5
L135107384L
sg6
Nsg23
S'mov'
p376
sg25
S'0x80d9338L'
p377
sg27
Nsba(ibclass
BInstr
p378
(dp379
g2
Nsg17
S'mov     eax, [ebp+src]'
p380
sg19
S'8b4508'
p381
sg21
Vmov eax, dword ptr [ebp + 8]
p382
sg5
L135107394L
sg6
Nsg23
S'mov'
p383
sg25
S'0x80d9342L'
p384
sg27
Nsba(ibclass
BInstr
p385
(dp386
g2
Nsg17
S'mov     eax, [eax+98h]'
p387
sg19
S'8b8098000000'
p388
sg21
Vmov eax, dword ptr [eax + 0x98]
p389
sg5
L135107397L
sg6
Nsg23
S'mov'
p390
sg25
S'0x80d9345L'
p391
sg27
Nsba(ibclass
BInstr
p392
(dp393
g2
Nsg17
S'test    eax, eax'
p394
sg19
S'85c0'
p395
sg21
Vtest eax, eax
p396
sg5
L135107403L
sg6
Nsg23
S'test'
p397
sg25
S'0x80d934bL'
p398
sg27
Nsba(ibclass
BInstr
p399
(dp400
g2
Nsg17
S'jz      short loc_80D9383'
p401
sg19
S'7434'
p402
sg21
Vje 0x36
p403
sg5
L135107405L
sg6
Nsg23
S'jz'
p404
sg25
S'0x80d934dL'
p405
sg27
Nsbasg91
(lp406
Vmov mem, address
p407
aVmov eax, mem
p408
aVmov mem, eax
p409
aVmov eax, mem
p410
aVmov mem, eax
p411
aVcall address
p412
aVmov eax, mem
p413
aVmov mem, 0
p414
aVmov eax, mem
p415
aVmov mem, 0
p416
aVmov eax, mem
p417
aVmov mem, 0
p418
aVmov eax, mem
p419
aVmov mem, 0
p420
aVmov eax, mem
p421
aVmov mem, 0
p422
aVmov eax, mem
p423
aVmov mem, 0
p424
aVmov eax, mem
p425
aVmov mem, 0
p426
aVmov eax, mem
p427
aVmov mem, 0
p428
aVmov eax, mem
p429
aVadd eax, address
p430
aVmov mem, 8
p431
aVmov mem, 0
p432
aVmov mem, eax
p433
aVcall address
p434
aVmov eax, mem
p435
aVmov mem, 0
p436
aVmov eax, mem
p437
aVmov mem, 0
p438
aVmov eax, mem
p439
aVmov mem, 1
p440
aVmov eax, mem
p441
aVmov eax, mem
p442
ag396
aVje address
p443
asg100
Nsg5
S'0x80d9279L'
p444
sg102
(lp445
S'0x80d9249L'
p446
asg6
Nsg104
(lp447
S'0x80d934fL'
p448
aS'0x80d9383L'
p449
asg108
Nsg109
Nsg110
S'ca19a0f230e7839030a8e9c1c70fc924'
p450
sg112
S'25570473a99adc48e6a71c550bc45cf7'
p451
sg114
(lp452
g145
ag152
ag159
ag166
ag173
ag180
ag187
ag194
ag201
ag208
ag215
ag222
ag229
ag236
ag243
ag250
ag257
ag264
ag271
ag278
ag285
ag292
ag299
ag306
ag313
ag320
ag327
ag334
ag341
ag348
ag355
ag362
ag369
ag376
ag383
ag390
ag397
ag404
asg116
Nsba(ibclass
BBasicBlock
p453
(dp454
g12
Nsg13
(lp455
(ibclass
BInstr
p456
(dp457
g2
Nsg17
S'mov     eax, [ebp+src]'
p458
sg19
S'8b4508'
p459
sg21
Vmov eax, dword ptr [ebp + 8]
p460
sg5
L135107407L
sg6
Nsg23
S'mov'
p461
sg25
S'0x80d934fL'
p462
sg27
Nsba(ibclass
BInstr
p463
(dp464
g2
Nsg17
S'mov     eax, [eax+98h]'
p465
sg19
S'8b8098000000'
p466
sg21
Vmov eax, dword ptr [eax + 0x98]
p467
sg5
L135107410L
sg6
Nsg23
S'mov'
p468
sg25
S'0x80d9352L'
p469
sg27
Nsba(ibclass
BInstr
p470
(dp471
g2
Nsg17
S'add     eax, 78h'
p472
sg19
S'83c078'
p473
sg21
Vadd eax, 0x78
p474
sg5
L135107416L
sg6
Nsg23
S'add'
p475
sg25
S'0x80d9358L'
p476
sg27
Nsba(ibclass
BInstr
p477
(dp478
g2
Nsg17
S'mov     dword ptr [esp+10h], 111h; line'
p479
sg19
S'c744241011010000'
p480
sg21
Vmov dword ptr [esp + 0x10], 0x111
p481
sg5
L135107419L
sg6
Nsg23
S'mov'
p482
sg25
S'0x80d935bL'
p483
sg27
Nsba(ibclass
BInstr
p484
(dp485
g2
Nsg17
S'mov     dword ptr [esp+0Ch], offset aSsl_sess_c; "ssl_sess.c"'
p486
sg19
S'c744240ce0932108'
p487
sg21
Vmov dword ptr [esp + 0xc], 0x82193e0
p488
sg5
L135107427L
sg6
Nsg23
S'mov'
p489
sg25
S'0x80d9363L'
p490
sg27
Nsba(ibclass
BInstr
p491
(dp492
g2
Nsg17
S'mov     dword ptr [esp+8], 0Fh; type'
p493
sg19
S'c74424080f000000'
p494
sg21
Vmov dword ptr [esp + 8], 0xf
p495
sg5
L135107435L
sg6
Nsg23
S'mov'
p496
sg25
S'0x80d936bL'
p497
sg27
Nsba(ibclass
BInstr
p498
(dp499
g2
Nsg17
S'mov     dword ptr [esp+4], 1; amount'
p500
sg19
S'c744240401000000'
p501
sg21
Vmov dword ptr [esp + 4], 1
p502
sg5
L135107443L
sg6
Nsg23
S'mov'
p503
sg25
S'0x80d9373L'
p504
sg27
Nsba(ibclass
BInstr
p505
(dp506
g2
Nsg17
S'mov     [esp], eax      ; pointer'
p507
sg19
S'890424'
p508
sg21
Vmov dword ptr [esp], eax
p509
sg5
L135107451L
sg6
Nsg23
S'mov'
p510
sg25
S'0x80d937bL'
p511
sg27
Nsba(ibclass
BInstr
p512
(dp513
g2
Nsg17
S'call    CRYPTO_add_lock'
p514
sg19
S'e8a2e00000'
p515
sg21
Vcall 0xe0a7
p516
sg5
L135107454L
sg6
Nsg23
S'call'
p517
sg25
S'0x80d937eL'
p518
sg27
Nsbasg91
(lp519
Vmov eax, mem
p520
aVmov eax, mem
p521
aVadd eax, address
p522
aVmov mem, address
p523
aVmov mem, address
p524
aVmov mem, address
p525
aVmov mem, 1
p526
aVmov mem, eax
p527
aVcall address
p528
asg100
Nsg5
S'0x80d934fL'
p529
sg102
(lp530
S'0x80d9279L'
p531
asg6
Nsg104
(lp532
S'0x80d9383L'
p533
asg108
Nsg109
Nsg110
S'9600031f1ae6f8dca3d8c43b44727d5e'
p534
sg112
S'18598a93a2a5db73ebe2fef316437442'
p535
sg114
(lp536
g461
ag468
ag475
ag482
ag489
ag496
ag503
ag510
ag517
asg116
Nsba(ibclass
BBasicBlock
p537
(dp538
g12
Nsg13
(lp539
(ibclass
BInstr
p540
(dp541
g2
Nsg17
S'mov     eax, [ebp+src]'
p542
sg19
S'8b4508'
p543
sg21
Vmov eax, dword ptr [ebp + 8]
p544
sg5
L135107459L
sg6
Nsg23
S'mov'
p545
sg25
S'0x80d9383L'
p546
sg27
Nsba(ibclass
BInstr
p547
(dp548
g2
Nsg17
S'mov     eax, [eax+9Ch]'
p549
sg19
S'8b809c000000'
p550
sg21
Vmov eax, dword ptr [eax + 0x9c]
p551
sg5
L135107462L
sg6
Nsg23
S'mov'
p552
sg25
S'0x80d9386L'
p553
sg27
Nsba(ibclass
BInstr
p554
(dp555
g2
Nsg17
S'test    eax, eax'
p556
sg19
S'85c0'
p557
sg21
Vtest eax, eax
p558
sg5
L135107468L
sg6
Nsg23
S'test'
p559
sg25
S'0x80d938cL'
p560
sg27
Nsba(ibclass
BInstr
p561
(dp562
g2
Nsg17
S'jz      short loc_80D93C4'
p563
sg19
S'7434'
p564
sg21
Vje 0x36
p565
sg5
L135107470L
sg6
Nsg23
S'jz'
p566
sg25
S'0x80d938eL'
p567
sg27
Nsbasg91
(lp568
Vmov eax, mem
p569
aVmov eax, mem
p570
ag558
aVje address
p571
asg100
Nsg5
S'0x80d9383L'
p572
sg102
(lp573
S'0x80d9279L'
p574
aS'0x80d934fL'
p575
asg6
Nsg104
(lp576
S'0x80d9390L'
p577
aS'0x80d93c4L'
p578
asg108
Nsg109
Nsg110
S'ea5d08c7dcc07640d42787f826218f11'
p579
sg112
S'103b924e2a82731ce51d187b2e41af3a'
p580
sg114
(lp581
g545
ag552
ag559
ag566
asg116
Nsba(ibclass
BBasicBlock
p582
(dp583
g12
Nsg13
(lp584
(ibclass
BInstr
p585
(dp586
g2
Nsg17
S'mov     eax, [ebp+src]'
p587
sg19
S'8b4508'
p588
sg21
Vmov eax, dword ptr [ebp + 8]
p589
sg5
L135107472L
sg6
Nsg23
S'mov'
p590
sg25
S'0x80d9390L'
p591
sg27
Nsba(ibclass
BInstr
p592
(dp593
g2
Nsg17
S'mov     eax, [eax+9Ch]'
p594
sg19
S'8b809c000000'
p595
sg21
Vmov eax, dword ptr [eax + 0x9c]
p596
sg5
L135107475L
sg6
Nsg23
S'mov'
p597
sg25
S'0x80d9393L'
p598
sg27
Nsba(ibclass
BInstr
p599
(dp600
g2
Nsg17
S'add     eax, 10h'
p601
sg19
S'83c010'
p602
sg21
Vadd eax, 0x10
p603
sg5
L135107481L
sg6
Nsg23
S'add'
p604
sg25
S'0x80d9399L'
p605
sg27
Nsba(ibclass
BInstr
p606
(dp607
g2
Nsg17
S'mov     dword ptr [esp+10h], 114h; line'
p608
sg19
S'c744241014010000'
p609
sg21
Vmov dword ptr [esp + 0x10], 0x114
p610
sg5
L135107484L
sg6
Nsg23
S'mov'
p611
sg25
S'0x80d939cL'
p612
sg27
Nsba(ibclass
BInstr
p613
(dp614
g2
Nsg17
S'mov     dword ptr [esp+0Ch], offset aSsl_sess_c; "ssl_sess.c"'
p615
sg19
S'c744240ce0932108'
p616
sg21
Vmov dword ptr [esp + 0xc], 0x82193e0
p617
sg5
L135107492L
sg6
Nsg23
S'mov'
p618
sg25
S'0x80d93a4L'
p619
sg27
Nsba(ibclass
BInstr
p620
(dp621
g2
Nsg17
S'mov     dword ptr [esp+8], 3; type'
p622
sg19
S'c744240803000000'
p623
sg21
Vmov dword ptr [esp + 8], 3
p624
sg5
L135107500L
sg6
Nsg23
S'mov'
p625
sg25
S'0x80d93acL'
p626
sg27
Nsba(ibclass
BInstr
p627
(dp628
g2
Nsg17
S'mov     dword ptr [esp+4], 1; amount'
p629
sg19
S'c744240401000000'
p630
sg21
Vmov dword ptr [esp + 4], 1
p631
sg5
L135107508L
sg6
Nsg23
S'mov'
p632
sg25
S'0x80d93b4L'
p633
sg27
Nsba(ibclass
BInstr
p634
(dp635
g2
Nsg17
S'mov     [esp], eax      ; pointer'
p636
sg19
S'890424'
p637
sg21
Vmov dword ptr [esp], eax
p638
sg5
L135107516L
sg6
Nsg23
S'mov'
p639
sg25
S'0x80d93bcL'
p640
sg27
Nsba(ibclass
BInstr
p641
(dp642
g2
Nsg17
S'call    CRYPTO_add_lock'
p643
sg19
S'e861e00000'
p644
sg21
Vcall 0xe066
p645
sg5
L135107519L
sg6
Nsg23
S'call'
p646
sg25
S'0x80d93bfL'
p647
sg27
Nsbasg91
(lp648
Vmov eax, mem
p649
aVmov eax, mem
p650
aVadd eax, address
p651
aVmov mem, address
p652
aVmov mem, address
p653
aVmov mem, 3
p654
aVmov mem, 1
p655
aVmov mem, eax
p656
aVcall address
p657
asg100
Nsg5
S'0x80d9390L'
p658
sg102
(lp659
S'0x80d9383L'
p660
asg6
Nsg104
(lp661
S'0x80d93c4L'
p662
asg108
Nsg109
Nsg110
S'9600031f1ae6f8dca3d8c43b44727d5e'
p663
sg112
S'04942b22c4432669cc9ad401dac1f4c2'
p664
sg114
(lp665
g590
ag597
ag604
ag611
ag618
ag625
ag632
ag639
ag646
asg116
Nsba(ibclass
BBasicBlock
p666
(dp667
g12
Nsg13
(lp668
(ibclass
BInstr
p669
(dp670
g2
Nsg17
S'mov     eax, [ebp+src]'
p671
sg19
S'8b4508'
p672
sg21
Vmov eax, dword ptr [ebp + 8]
p673
sg5
L135107524L
sg6
Nsg23
S'mov'
p674
sg25
S'0x80d93c4L'
p675
sg27
Nsba(ibclass
BInstr
p676
(dp677
g2
Nsg17
S'mov     eax, [eax+8Ch]'
p678
sg19
S'8b808c000000'
p679
sg21
Vmov eax, dword ptr [eax + 0x8c]
p680
sg5
L135107527L
sg6
Nsg23
S'mov'
p681
sg25
S'0x80d93c7L'
p682
sg27
Nsba(ibclass
BInstr
p683
(dp684
g2
Nsg17
S'test    eax, eax'
p685
sg19
S'85c0'
p686
sg21
Vtest eax, eax
p687
sg5
L135107533L
sg6
Nsg23
S'test'
p688
sg25
S'0x80d93cdL'
p689
sg27
Nsba(ibclass
BInstr
p690
(dp691
g2
Nsg17
S'jz      short loc_80D93FD'
p692
sg19
S'742c'
p693
sg21
Vje 0x2e
p694
sg5
L135107535L
sg6
Nsg23
S'jz'
p695
sg25
S'0x80d93cfL'
p696
sg27
Nsbasg91
(lp697
Vmov eax, mem
p698
aVmov eax, mem
p699
ag687
aVje address
p700
asg100
Nsg5
S'0x80d93c4L'
p701
sg102
(lp702
S'0x80d9383L'
p703
aS'0x80d9390L'
p704
asg6
Nsg104
(lp705
S'0x80d93d1L'
p706
aS'0x80d93fdL'
p707
asg108
Nsg109
Nsg110
S'ea5d08c7dcc07640d42787f826218f11'
p708
sg112
S'103b924e2a82731ce51d187b2e41af3a'
p709
sg114
(lp710
g674
ag681
ag688
ag695
asg116
Nsba(ibclass
BBasicBlock
p711
(dp712
g12
Nsg13
(lp713
(ibclass
BInstr
p714
(dp715
g2
Nsg17
S'mov     eax, [ebp+src]'
p716
sg19
S'8b4508'
p717
sg21
Vmov eax, dword ptr [ebp + 8]
p718
sg5
L135107537L
sg6
Nsg23
S'mov'
p719
sg25
S'0x80d93d1L'
p720
sg27
Nsba(ibclass
BInstr
p721
(dp722
g2
Nsg17
S'mov     eax, [eax+8Ch]'
p723
sg19
S'8b808c000000'
p724
sg21
Vmov eax, dword ptr [eax + 0x8c]
p725
sg5
L135107540L
sg6
Nsg23
S'mov'
p726
sg25
S'0x80d93d4L'
p727
sg27
Nsba(ibclass
BInstr
p728
(dp729
g2
Nsg17
S'mov     [esp], eax      ; str'
p730
sg19
S'890424'
p731
sg21
Vmov dword ptr [esp], eax
p732
sg5
L135107546L
sg6
Nsg23
S'mov'
p733
sg25
S'0x80d93daL'
p734
sg27
Nsba(ibclass
BInstr
p735
(dp736
g2
Nsg17
S'call    BUF_strdup'
p737
sg19
S'e8c1a10500'
p738
sg21
Vcall 0x5a1c6
p739
sg5
L135107549L
sg6
Nsg23
S'call'
p740
sg25
S'0x80d93ddL'
p741
sg27
Nsba(ibclass
BInstr
p742
(dp743
g2
Nsg17
S'mov     edx, [ebp+dest]'
p744
sg19
S'8b55f4'
p745
sg21
Vmov edx, dword ptr [ebp - 0xc]
p746
sg5
L135107554L
sg6
Nsg23
S'mov'
p747
sg25
S'0x80d93e2L'
p748
sg27
Nsba(ibclass
BInstr
p749
(dp750
g2
Nsg17
S'mov     [edx+8Ch], eax'
p751
sg19
S'89828c000000'
p752
sg21
Vmov dword ptr [edx + 0x8c], eax
p753
sg5
L135107557L
sg6
Nsg23
S'mov'
p754
sg25
S'0x80d93e5L'
p755
sg27
Nsba(ibclass
BInstr
p756
(dp757
g2
Nsg17
S'mov     eax, [ebp+dest]'
p758
sg19
S'8b45f4'
p759
sg21
Vmov eax, dword ptr [ebp - 0xc]
p760
sg5
L135107563L
sg6
Nsg23
S'mov'
p761
sg25
S'0x80d93ebL'
p762
sg27
Nsba(ibclass
BInstr
p763
(dp764
g2
Nsg17
S'mov     eax, [eax+8Ch]'
p765
sg19
S'8b808c000000'
p766
sg21
Vmov eax, dword ptr [eax + 0x8c]
p767
sg5
L135107566L
sg6
Nsg23
S'mov'
p768
sg25
S'0x80d93eeL'
p769
sg27
Nsba(ibclass
BInstr
p770
(dp771
g2
Nsg17
S'test    eax, eax'
p772
sg19
S'85c0'
p773
sg21
Vtest eax, eax
p774
sg5
L135107572L
sg6
Nsg23
S'test'
p775
sg25
S'0x80d93f4L'
p776
sg27
Nsba(ibclass
BInstr
p777
(dp778
g2
Nsg17
S'jnz     short loc_80D93FD'
p779
sg19
S'7505'
p780
sg21
Vjne 7
p781
sg5
L135107574L
sg6
Nsg23
S'jnz'
p782
sg25
S'0x80d93f6L'
p783
sg27
Nsbasg91
(lp784
Vmov eax, mem
p785
aVmov eax, mem
p786
aVmov mem, eax
p787
aVcall address
p788
aVmov edx, mem
p789
aVmov mem, eax
p790
aVmov eax, mem
p791
aVmov eax, mem
p792
ag774
ag781
asg100
Nsg5
S'0x80d93d1L'
p793
sg102
(lp794
S'0x80d93c4L'
p795
asg6
Nsg104
(lp796
S'0x80d93f8L'
p797
aS'0x80d93fdL'
p798
asg108
Nsg109
Nsg110
S'6c693d995bcbad992ff2db72d4e2c900'
p799
sg112
S'f76b9d657b61cf0f733769c121b20912'
p800
sg114
(lp801
g719
ag726
ag733
ag740
ag747
ag754
ag761
ag768
ag775
ag782
asg116
Nsba(ibclass
BBasicBlock
p802
(dp803
g12
Nsg13
(lp804
(ibclass
BInstr
p805
(dp806
g2
Nsg17
S'jmp     err'
p807
sg19
S'e9f6010000'
p808
sg21
Vjmp 0x1fb
p809
sg5
L135107576L
sg6
Nsg23
S'jmp'
p810
sg25
S'0x80d93f8L'
p811
sg27
Nsbasg91
(lp812
Vjmp address
p813
asg100
Nsg5
S'0x80d93f8L'
p814
sg102
(lp815
S'0x80d93d1L'
p816
asg6
Nsg104
(lp817
S'0x80d95f3L'
p818
asg108
Nsg109
Nsg110
S'0ef6cf926f2f394b0cc8e11be8022625'
p819
sg112
S'd4372e4caa7348928655251605aa7329'
p820
sg114
(lp821
g810
asg116
Nsba(ibclass
BBasicBlock
p822
(dp823
g12
Nsg13
(lp824
(ibclass
BInstr
p825
(dp826
g2
Nsg17
S'mov     eax, [ebp+src]'
p827
sg19
S'8b4508'
p828
sg21
Vmov eax, dword ptr [ebp + 8]
p829
sg5
L135107581L
sg6
Nsg23
S'mov'
p830
sg25
S'0x80d93fdL'
p831
sg27
Nsba(ibclass
BInstr
p832
(dp833
g2
Nsg17
S'mov     eax, [eax+90h]'
p834
sg19
S'8b8090000000'
p835
sg21
Vmov eax, dword ptr [eax + 0x90]
p836
sg5
L135107584L
sg6
Nsg23
S'mov'
p837
sg25
S'0x80d9400L'
p838
sg27
Nsba(ibclass
BInstr
p839
(dp840
g2
Nsg17
S'test    eax, eax'
p841
sg19
S'85c0'
p842
sg21
Vtest eax, eax
p843
sg5
L135107590L
sg6
Nsg23
S'test'
p844
sg25
S'0x80d9406L'
p845
sg27
Nsba(ibclass
BInstr
p846
(dp847
g2
Nsg17
S'jz      short loc_80D9436'
p848
sg19
S'742c'
p849
sg21
Vje 0x2e
p850
sg5
L135107592L
sg6
Nsg23
S'jz'
p851
sg25
S'0x80d9408L'
p852
sg27
Nsbasg91
(lp853
Vmov eax, mem
p854
aVmov eax, mem
p855
ag843
aVje address
p856
asg100
Nsg5
S'0x80d93fdL'
p857
sg102
(lp858
S'0x80d93c4L'
p859
aS'0x80d93d1L'
p860
asg6
Nsg104
(lp861
S'0x80d940aL'
p862
aS'0x80d9436L'
p863
asg108
Nsg109
Nsg110
S'ea5d08c7dcc07640d42787f826218f11'
p864
sg112
S'103b924e2a82731ce51d187b2e41af3a'
p865
sg114
(lp866
g830
ag837
ag844
ag851
asg116
Nsba(ibclass
BBasicBlock
p867
(dp868
g12
Nsg13
(lp869
(ibclass
BInstr
p870
(dp871
g2
Nsg17
S'mov     eax, [ebp+src]'
p872
sg19
S'8b4508'
p873
sg21
Vmov eax, dword ptr [ebp + 8]
p874
sg5
L135107594L
sg6
Nsg23
S'mov'
p875
sg25
S'0x80d940aL'
p876
sg27
Nsba(ibclass
BInstr
p877
(dp878
g2
Nsg17
S'mov     eax, [eax+90h]'
p879
sg19
S'8b8090000000'
p880
sg21
Vmov eax, dword ptr [eax + 0x90]
p881
sg5
L135107597L
sg6
Nsg23
S'mov'
p882
sg25
S'0x80d940dL'
p883
sg27
Nsba(ibclass
BInstr
p884
(dp885
g2
Nsg17
S'mov     [esp], eax      ; str'
p886
sg19
S'890424'
p887
sg21
Vmov dword ptr [esp], eax
p888
sg5
L135107603L
sg6
Nsg23
S'mov'
p889
sg25
S'0x80d9413L'
p890
sg27
Nsba(ibclass
BInstr
p891
(dp892
g2
Nsg17
S'call    BUF_strdup'
p893
sg19
S'e888a10500'
p894
sg21
Vcall 0x5a18d
p895
sg5
L135107606L
sg6
Nsg23
S'call'
p896
sg25
S'0x80d9416L'
p897
sg27
Nsba(ibclass
BInstr
p898
(dp899
g2
Nsg17
S'mov     edx, [ebp+dest]'
p900
sg19
S'8b55f4'
p901
sg21
Vmov edx, dword ptr [ebp - 0xc]
p902
sg5
L135107611L
sg6
Nsg23
S'mov'
p903
sg25
S'0x80d941bL'
p904
sg27
Nsba(ibclass
BInstr
p905
(dp906
g2
Nsg17
S'mov     [edx+90h], eax'
p907
sg19
S'898290000000'
p908
sg21
Vmov dword ptr [edx + 0x90], eax
p909
sg5
L135107614L
sg6
Nsg23
S'mov'
p910
sg25
S'0x80d941eL'
p911
sg27
Nsba(ibclass
BInstr
p912
(dp913
g2
Nsg17
S'mov     eax, [ebp+dest]'
p914
sg19
S'8b45f4'
p915
sg21
Vmov eax, dword ptr [ebp - 0xc]
p916
sg5
L135107620L
sg6
Nsg23
S'mov'
p917
sg25
S'0x80d9424L'
p918
sg27
Nsba(ibclass
BInstr
p919
(dp920
g2
Nsg17
S'mov     eax, [eax+90h]'
p921
sg19
S'8b8090000000'
p922
sg21
Vmov eax, dword ptr [eax + 0x90]
p923
sg5
L135107623L
sg6
Nsg23
S'mov'
p924
sg25
S'0x80d9427L'
p925
sg27
Nsba(ibclass
BInstr
p926
(dp927
g2
Nsg17
S'test    eax, eax'
p928
sg19
S'85c0'
p929
sg21
Vtest eax, eax
p930
sg5
L135107629L
sg6
Nsg23
S'test'
p931
sg25
S'0x80d942dL'
p932
sg27
Nsba(ibclass
BInstr
p933
(dp934
g2
Nsg17
S'jnz     short loc_80D9436'
p935
sg19
S'7505'
p936
sg21
Vjne 7
p937
sg5
L135107631L
sg6
Nsg23
S'jnz'
p938
sg25
S'0x80d942fL'
p939
sg27
Nsbasg91
(lp940
Vmov eax, mem
p941
aVmov eax, mem
p942
aVmov mem, eax
p943
aVcall address
p944
aVmov edx, mem
p945
aVmov mem, eax
p946
aVmov eax, mem
p947
aVmov eax, mem
p948
ag930
ag937
asg100
Nsg5
S'0x80d940aL'
p949
sg102
(lp950
S'0x80d93fdL'
p951
asg6
Nsg104
(lp952
S'0x80d9431L'
p953
aS'0x80d9436L'
p954
asg108
Nsg109
Nsg110
S'6c693d995bcbad992ff2db72d4e2c900'
p955
sg112
S'f76b9d657b61cf0f733769c121b20912'
p956
sg114
(lp957
g875
ag882
ag889
ag896
ag903
ag910
ag917
ag924
ag931
ag938
asg116
Nsba(ibclass
BBasicBlock
p958
(dp959
g12
Nsg13
(lp960
(ibclass
BInstr
p961
(dp962
g2
Nsg17
S'jmp     err'
p963
sg19
S'e9bd010000'
p964
sg21
Vjmp 0x1c2
p965
sg5
L135107633L
sg6
Nsg23
S'jmp'
p966
sg25
S'0x80d9431L'
p967
sg27
Nsbasg91
(lp968
Vjmp address
p969
asg100
Nsg5
S'0x80d9431L'
p970
sg102
(lp971
S'0x80d940aL'
p972
asg6
Nsg104
(lp973
S'0x80d95f3L'
p974
asg108
Nsg109
Nsg110
S'0ef6cf926f2f394b0cc8e11be8022625'
p975
sg112
S'd4372e4caa7348928655251605aa7329'
p976
sg114
(lp977
g966
asg116
Nsba(ibclass
BBasicBlock
p978
(dp979
g12
Nsg13
(lp980
(ibclass
BInstr
p981
(dp982
g2
Nsg17
S'mov     eax, [ebp+src]'
p983
sg19
S'8b4508'
p984
sg21
Vmov eax, dword ptr [ebp + 8]
p985
sg5
L135107638L
sg6
Nsg23
S'mov'
p986
sg25
S'0x80d9436L'
p987
sg27
Nsba(ibclass
BInstr
p988
(dp989
g2
Nsg17
S'mov     eax, [eax+0BCh]'
p990
sg19
S'8b80bc000000'
p991
sg21
Vmov eax, dword ptr [eax + 0xbc]
p992
sg5
L135107641L
sg6
Nsg23
S'mov'
p993
sg25
S'0x80d9439L'
p994
sg27
Nsba(ibclass
BInstr
p995
(dp996
g2
Nsg17
S'test    eax, eax'
p997
sg19
S'85c0'
p998
sg21
Vtest eax, eax
p999
sg5
L135107647L
sg6
Nsg23
S'test'
p1000
sg25
S'0x80d943fL'
p1001
sg27
Nsba(ibclass
BInstr
p1002
(dp1003
g2
Nsg17
S'jz      short loc_80D946F'
p1004
sg19
S'742c'
p1005
sg21
Vje 0x2e
p1006
sg5
L135107649L
sg6
Nsg23
S'jz'
p1007
sg25
S'0x80d9441L'
p1008
sg27
Nsbasg91
(lp1009
Vmov eax, mem
p1010
aVmov eax, mem
p1011
ag999
aVje address
p1012
asg100
Nsg5
S'0x80d9436L'
p1013
sg102
(lp1014
S'0x80d93fdL'
p1015
aS'0x80d940aL'
p1016
asg6
Nsg104
(lp1017
S'0x80d9443L'
p1018
aS'0x80d946fL'
p1019
asg108
Nsg109
Nsg110
S'ea5d08c7dcc07640d42787f826218f11'
p1020
sg112
S'103b924e2a82731ce51d187b2e41af3a'
p1021
sg114
(lp1022
g986
ag993
ag1000
ag1007
asg116
Nsba(ibclass
BBasicBlock
p1023
(dp1024
g12
Nsg13
(lp1025
(ibclass
BInstr
p1026
(dp1027
g2
Nsg17
S'mov     eax, [ebp+src]'
p1028
sg19
S'8b4508'
p1029
sg21
Vmov eax, dword ptr [ebp + 8]
p1030
sg5
L135107651L
sg6
Nsg23
S'mov'
p1031
sg25
S'0x80d9443L'
p1032
sg27
Nsba(ibclass
BInstr
p1033
(dp1034
g2
Nsg17
S'mov     eax, [eax+0BCh]'
p1035
sg19
S'8b80bc000000'
p1036
sg21
Vmov eax, dword ptr [eax + 0xbc]
p1037
sg5
L135107654L
sg6
Nsg23
S'mov'
p1038
sg25
S'0x80d9446L'
p1039
sg27
Nsba(ibclass
BInstr
p1040
(dp1041
g2
Nsg17
S'mov     [esp], eax      ; sk'
p1042
sg19
S'890424'
p1043
sg21
Vmov dword ptr [esp], eax
p1044
sg5
L135107660L
sg6
Nsg23
S'mov'
p1045
sg25
S'0x80d944cL'
p1046
sg27
Nsba(ibclass
BInstr
p1047
(dp1048
g2
Nsg17
S'call    sk_dup'
p1049
sg19
S'e83e330600'
p1050
sg21
Vcall 0x63343
p1051
sg5
L135107663L
sg6
Nsg23
S'call'
p1052
sg25
S'0x80d944fL'
p1053
sg27
Nsba(ibclass
BInstr
p1054
(dp1055
g2
Nsg17
S'mov     edx, [ebp+dest]'
p1056
sg19
S'8b55f4'
p1057
sg21
Vmov edx, dword ptr [ebp - 0xc]
p1058
sg5
L135107668L
sg6
Nsg23
S'mov'
p1059
sg25
S'0x80d9454L'
p1060
sg27
Nsba(ibclass
BInstr
p1061
(dp1062
g2
Nsg17
S'mov     [edx+0BCh], eax'
p1063
sg19
S'8982bc000000'
p1064
sg21
Vmov dword ptr [edx + 0xbc], eax
p1065
sg5
L135107671L
sg6
Nsg23
S'mov'
p1066
sg25
S'0x80d9457L'
p1067
sg27
Nsba(ibclass
BInstr
p1068
(dp1069
g2
Nsg17
S'mov     eax, [ebp+dest]'
p1070
sg19
S'8b45f4'
p1071
sg21
Vmov eax, dword ptr [ebp - 0xc]
p1072
sg5
L135107677L
sg6
Nsg23
S'mov'
p1073
sg25
S'0x80d945dL'
p1074
sg27
Nsba(ibclass
BInstr
p1075
(dp1076
g2
Nsg17
S'mov     eax, [eax+0BCh]'
p1077
sg19
S'8b80bc000000'
p1078
sg21
Vmov eax, dword ptr [eax + 0xbc]
p1079
sg5
L135107680L
sg6
Nsg23
S'mov'
p1080
sg25
S'0x80d9460L'
p1081
sg27
Nsba(ibclass
BInstr
p1082
(dp1083
g2
Nsg17
S'test    eax, eax'
p1084
sg19
S'85c0'
p1085
sg21
Vtest eax, eax
p1086
sg5
L135107686L
sg6
Nsg23
S'test'
p1087
sg25
S'0x80d9466L'
p1088
sg27
Nsba(ibclass
BInstr
p1089
(dp1090
g2
Nsg17
S'jnz     short loc_80D946F'
p1091
sg19
S'7505'
p1092
sg21
Vjne 7
p1093
sg5
L135107688L
sg6
Nsg23
S'jnz'
p1094
sg25
S'0x80d9468L'
p1095
sg27
Nsbasg91
(lp1096
Vmov eax, mem
p1097
aVmov eax, mem
p1098
aVmov mem, eax
p1099
aVcall address
p1100
aVmov edx, mem
p1101
aVmov mem, eax
p1102
aVmov eax, mem
p1103
aVmov eax, mem
p1104
ag1086
ag1093
asg100
Nsg5
S'0x80d9443L'
p1105
sg102
(lp1106
S'0x80d9436L'
p1107
asg6
Nsg104
(lp1108
S'0x80d946aL'
p1109
aS'0x80d946fL'
p1110
asg108
Nsg109
Nsg110
S'6c693d995bcbad992ff2db72d4e2c900'
p1111
sg112
S'f76b9d657b61cf0f733769c121b20912'
p1112
sg114
(lp1113
g1031
ag1038
ag1045
ag1052
ag1059
ag1066
ag1073
ag1080
ag1087
ag1094
asg116
Nsba(ibclass
BBasicBlock
p1114
(dp1115
g12
Nsg13
(lp1116
(ibclass
BInstr
p1117
(dp1118
g2
Nsg17
S'jmp     err'
p1119
sg19
S'e984010000'
p1120
sg21
Vjmp 0x189
p1121
sg5
L135107690L
sg6
Nsg23
S'jmp'
p1122
sg25
S'0x80d946aL'
p1123
sg27
Nsbasg91
(lp1124
Vjmp address
p1125
asg100
Nsg5
S'0x80d946aL'
p1126
sg102
(lp1127
S'0x80d9443L'
p1128
asg6
Nsg104
(lp1129
S'0x80d95f3L'
p1130
asg108
Nsg109
Nsg110
S'0ef6cf926f2f394b0cc8e11be8022625'
p1131
sg112
S'd4372e4caa7348928655251605aa7329'
p1132
sg114
(lp1133
g1122
asg116
Nsba(ibclass
BBasicBlock
p1134
(dp1135
g12
Nsg13
(lp1136
(ibclass
BInstr
p1137
(dp1138
g2
Nsg17
S'mov     eax, [ebp+src]'
p1139
sg19
S'8b4508'
p1140
sg21
Vmov eax, dword ptr [ebp + 8]
p1141
sg5
L135107695L
sg6
Nsg23
S'mov'
p1142
sg25
S'0x80d946fL'
p1143
sg27
Nsba(ibclass
BInstr
p1144
(dp1145
g2
Nsg17
S'lea     edx, [eax+0C0h]'
p1146
sg19
S'8d90c0000000'
p1147
sg21
Vlea edx, [eax + 0xc0]
p1148
sg5
L135107698L
sg6
Nsg23
S'lea'
p1149
sg25
S'0x80d9472L'
p1150
sg27
Nsba(ibclass
BInstr
p1151
(dp1152
g2
Nsg17
S'mov     eax, [ebp+dest]'
p1153
sg19
S'8b45f4'
p1154
sg21
Vmov eax, dword ptr [ebp - 0xc]
p1155
sg5
L135107704L
sg6
Nsg23
S'mov'
p1156
sg25
S'0x80d9478L'
p1157
sg27
Nsba(ibclass
BInstr
p1158
(dp1159
g2
Nsg17
S'add     eax, 0C0h'
p1160
sg19
S'05c0000000'
p1161
sg21
Vadd eax, 0xc0
p1162
sg5
L135107707L
sg6
Nsg23
S'add'
p1163
sg25
S'0x80d947bL'
p1164
sg27
Nsba(ibclass
BInstr
p1165
(dp1166
g2
Nsg17
S'mov     [esp+8], edx    ; from'
p1167
sg19
S'89542408'
p1168
sg21
Vmov dword ptr [esp + 8], edx
p1169
sg5
L135107712L
sg6
Nsg23
S'mov'
p1170
sg25
S'0x80d9480L'
p1171
sg27
Nsba(ibclass
BInstr
p1172
(dp1173
g2
Nsg17
S'mov     [esp+4], eax    ; to'
p1174
sg19
S'89442404'
p1175
sg21
Vmov dword ptr [esp + 4], eax
p1176
sg5
L135107716L
sg6
Nsg23
S'mov'
p1177
sg25
S'0x80d9484L'
p1178
sg27
Nsba(ibclass
BInstr
p1179
(dp1180
g2
Nsg17
S'mov     dword ptr [esp], 3; class_index'
p1181
sg19
S'c7042403000000'
p1182
sg21
Vmov dword ptr [esp], 3
p1183
sg5
L135107720L
sg6
Nsg23
S'mov'
p1184
sg25
S'0x80d9488L'
p1185
sg27
Nsba(ibclass
BInstr
p1186
(dp1187
g2
Nsg17
S'call    CRYPTO_dup_ex_data'
p1188
sg19
S'e8500a0100'
p1189
sg21
Vcall 0x10a55
p1190
sg5
L135107727L
sg6
Nsg23
S'call'
p1191
sg25
S'0x80d948fL'
p1192
sg27
Nsba(ibclass
BInstr
p1193
(dp1194
g2
Nsg17
S'test    eax, eax'
p1195
sg19
S'85c0'
p1196
sg21
Vtest eax, eax
p1197
sg5
L135107732L
sg6
Nsg23
S'test'
p1198
sg25
S'0x80d9494L'
p1199
sg27
Nsba(ibclass
BInstr
p1200
(dp1201
g2
Nsg17
S'jnz     short loc_80D949D'
p1202
sg19
S'7505'
p1203
sg21
Vjne 7
p1204
sg5
L135107734L
sg6
Nsg23
S'jnz'
p1205
sg25
S'0x80d9496L'
p1206
sg27
Nsbasg91
(lp1207
Vmov eax, mem
p1208
aVlea edx, mem
p1209
aVmov eax, mem
p1210
aVadd eax, address
p1211
aVmov mem, edx
p1212
aVmov mem, eax
p1213
aVmov mem, 3
p1214
aVcall address
p1215
ag1197
ag1204
asg100
Nsg5
S'0x80d946fL'
p1216
sg102
(lp1217
S'0x80d9436L'
p1218
aS'0x80d9443L'
p1219
asg6
Nsg104
(lp1220
S'0x80d9498L'
p1221
aS'0x80d949dL'
p1222
asg108
Nsg109
Nsg110
S'578e0b4b8af0647be7a81346e7b145f6'
p1223
sg112
S'2aeb637b77eeacabf70e6dad53702a68'
p1224
sg114
(lp1225
g1142
ag1149
ag1156
ag1163
ag1170
ag1177
ag1184
ag1191
ag1198
ag1205
asg116
Nsba(ibclass
BBasicBlock
p1226
(dp1227
g12
Nsg13
(lp1228
(ibclass
BInstr
p1229
(dp1230
g2
Nsg17
S'jmp     err'
p1231
sg19
S'e956010000'
p1232
sg21
Vjmp 0x15b
p1233
sg5
L135107736L
sg6
Nsg23
S'jmp'
p1234
sg25
S'0x80d9498L'
p1235
sg27
Nsbasg91
(lp1236
Vjmp address
p1237
asg100
Nsg5
S'0x80d9498L'
p1238
sg102
(lp1239
S'0x80d946fL'
p1240
asg6
Nsg104
(lp1241
S'0x80d95f3L'
p1242
asg108
Nsg109
Nsg110
S'0ef6cf926f2f394b0cc8e11be8022625'
p1243
sg112
S'd4372e4caa7348928655251605aa7329'
p1244
sg114
(lp1245
g1234
asg116
Nsba(ibclass
BBasicBlock
p1246
(dp1247
g12
Nsg13
(lp1248
(ibclass
BInstr
p1249
(dp1250
g2
Nsg17
S'mov     eax, [ebp+src]'
p1251
sg19
S'8b4508'
p1252
sg21
Vmov eax, dword ptr [ebp + 8]
p1253
sg5
L135107741L
sg6
Nsg23
S'mov'
p1254
sg25
S'0x80d949dL'
p1255
sg27
Nsba(ibclass
BInstr
p1256
(dp1257
g2
Nsg17
S'mov     eax, [eax+0D0h]'
p1258
sg19
S'8b80d0000000'
p1259
sg21
Vmov eax, dword ptr [eax + 0xd0]
p1260
sg5
L135107744L
sg6
Nsg23
S'mov'
p1261
sg25
S'0x80d94a0L'
p1262
sg27
Nsba(ibclass
BInstr
p1263
(dp1264
g2
Nsg17
S'test    eax, eax'
p1265
sg19
S'85c0'
p1266
sg21
Vtest eax, eax
p1267
sg5
L135107750L
sg6
Nsg23
S'test'
p1268
sg25
S'0x80d94a6L'
p1269
sg27
Nsba(ibclass
BInstr
p1270
(dp1271
g2
Nsg17
S'jz      short loc_80D94D6'
p1272
sg19
S'742c'
p1273
sg21
Vje 0x2e
p1274
sg5
L135107752L
sg6
Nsg23
S'jz'
p1275
sg25
S'0x80d94a8L'
p1276
sg27
Nsbasg91
(lp1277
Vmov eax, mem
p1278
aVmov eax, mem
p1279
ag1267
aVje address
p1280
asg100
Nsg5
S'0x80d949dL'
p1281
sg102
(lp1282
S'0x80d946fL'
p1283
asg6
Nsg104
(lp1284
S'0x80d94aaL'
p1285
aS'0x80d94d6L'
p1286
asg108
Nsg109
Nsg110
S'ea5d08c7dcc07640d42787f826218f11'
p1287
sg112
S'103b924e2a82731ce51d187b2e41af3a'
p1288
sg114
(lp1289
g1254
ag1261
ag1268
ag1275
asg116
Nsba(ibclass
BBasicBlock
p1290
(dp1291
g12
Nsg13
(lp1292
(ibclass
BInstr
p1293
(dp1294
g2
Nsg17
S'mov     eax, [ebp+src]'
p1295
sg19
S'8b4508'
p1296
sg21
Vmov eax, dword ptr [ebp + 8]
p1297
sg5
L135107754L
sg6
Nsg23
S'mov'
p1298
sg25
S'0x80d94aaL'
p1299
sg27
Nsba(ibclass
BInstr
p1300
(dp1301
g2
Nsg17
S'mov     eax, [eax+0D0h]'
p1302
sg19
S'8b80d0000000'
p1303
sg21
Vmov eax, dword ptr [eax + 0xd0]
p1304
sg5
L135107757L
sg6
Nsg23
S'mov'
p1305
sg25
S'0x80d94adL'
p1306
sg27
Nsba(ibclass
BInstr
p1307
(dp1308
g2
Nsg17
S'mov     [esp], eax      ; str'
p1309
sg19
S'890424'
p1310
sg21
Vmov dword ptr [esp], eax
p1311
sg5
L135107763L
sg6
Nsg23
S'mov'
p1312
sg25
S'0x80d94b3L'
p1313
sg27
Nsba(ibclass
BInstr
p1314
(dp1315
g2
Nsg17
S'call    BUF_strdup'
p1316
sg19
S'e8e8a00500'
p1317
sg21
Vcall 0x5a0ed
p1318
sg5
L135107766L
sg6
Nsg23
S'call'
p1319
sg25
S'0x80d94b6L'
p1320
sg27
Nsba(ibclass
BInstr
p1321
(dp1322
g2
Nsg17
S'mov     edx, [ebp+dest]'
p1323
sg19
S'8b55f4'
p1324
sg21
Vmov edx, dword ptr [ebp - 0xc]
p1325
sg5
L135107771L
sg6
Nsg23
S'mov'
p1326
sg25
S'0x80d94bbL'
p1327
sg27
Nsba(ibclass
BInstr
p1328
(dp1329
g2
Nsg17
S'mov     [edx+0D0h], eax'
p1330
sg19
S'8982d0000000'
p1331
sg21
Vmov dword ptr [edx + 0xd0], eax
p1332
sg5
L135107774L
sg6
Nsg23
S'mov'
p1333
sg25
S'0x80d94beL'
p1334
sg27
Nsba(ibclass
BInstr
p1335
(dp1336
g2
Nsg17
S'mov     eax, [ebp+dest]'
p1337
sg19
S'8b45f4'
p1338
sg21
Vmov eax, dword ptr [ebp - 0xc]
p1339
sg5
L135107780L
sg6
Nsg23
S'mov'
p1340
sg25
S'0x80d94c4L'
p1341
sg27
Nsba(ibclass
BInstr
p1342
(dp1343
g2
Nsg17
S'mov     eax, [eax+0D0h]'
p1344
sg19
S'8b80d0000000'
p1345
sg21
Vmov eax, dword ptr [eax + 0xd0]
p1346
sg5
L135107783L
sg6
Nsg23
S'mov'
p1347
sg25
S'0x80d94c7L'
p1348
sg27
Nsba(ibclass
BInstr
p1349
(dp1350
g2
Nsg17
S'test    eax, eax'
p1351
sg19
S'85c0'
p1352
sg21
Vtest eax, eax
p1353
sg5
L135107789L
sg6
Nsg23
S'test'
p1354
sg25
S'0x80d94cdL'
p1355
sg27
Nsba(ibclass
BInstr
p1356
(dp1357
g2
Nsg17
S'jnz     short loc_80D94D6'
p1358
sg19
S'7505'
p1359
sg21
Vjne 7
p1360
sg5
L135107791L
sg6
Nsg23
S'jnz'
p1361
sg25
S'0x80d94cfL'
p1362
sg27
Nsbasg91
(lp1363
Vmov eax, mem
p1364
aVmov eax, mem
p1365
aVmov mem, eax
p1366
aVcall address
p1367
aVmov edx, mem
p1368
aVmov mem, eax
p1369
aVmov eax, mem
p1370
aVmov eax, mem
p1371
ag1353
ag1360
asg100
Nsg5
S'0x80d94aaL'
p1372
sg102
(lp1373
S'0x80d949dL'
p1374
asg6
Nsg104
(lp1375
S'0x80d94d1L'
p1376
aS'0x80d94d6L'
p1377
asg108
Nsg109
Nsg110
S'6c693d995bcbad992ff2db72d4e2c900'
p1378
sg112
S'f76b9d657b61cf0f733769c121b20912'
p1379
sg114
(lp1380
g1298
ag1305
ag1312
ag1319
ag1326
ag1333
ag1340
ag1347
ag1354
ag1361
asg116
Nsba(ibclass
BBasicBlock
p1381
(dp1382
g12
Nsg13
(lp1383
(ibclass
BInstr
p1384
(dp1385
g2
Nsg17
S'jmp     err'
p1386
sg19
S'e91d010000'
p1387
sg21
Vjmp 0x122
p1388
sg5
L135107793L
sg6
Nsg23
S'jmp'
p1389
sg25
S'0x80d94d1L'
p1390
sg27
Nsbasg91
(lp1391
Vjmp address
p1392
asg100
Nsg5
S'0x80d94d1L'
p1393
sg102
(lp1394
S'0x80d94aaL'
p1395
asg6
Nsg104
(lp1396
S'0x80d95f3L'
p1397
asg108
Nsg109
Nsg110
S'0ef6cf926f2f394b0cc8e11be8022625'
p1398
sg112
S'd4372e4caa7348928655251605aa7329'
p1399
sg114
(lp1400
g1389
asg116
Nsba(ibclass
BBasicBlock
p1401
(dp1402
g12
Nsg13
(lp1403
(ibclass
BInstr
p1404
(dp1405
g2
Nsg17
S'mov     eax, [ebp+src]'
p1406
sg19
S'8b4508'
p1407
sg21
Vmov eax, dword ptr [ebp + 8]
p1408
sg5
L135107798L
sg6
Nsg23
S'mov'
p1409
sg25
S'0x80d94d6L'
p1410
sg27
Nsba(ibclass
BInstr
p1411
(dp1412
g2
Nsg17
S'mov     eax, [eax+0D8h]'
p1413
sg19
S'8b80d8000000'
p1414
sg21
Vmov eax, dword ptr [eax + 0xd8]
p1415
sg5
L135107801L
sg6
Nsg23
S'mov'
p1416
sg25
S'0x80d94d9L'
p1417
sg27
Nsba(ibclass
BInstr
p1418
(dp1419
g2
Nsg17
S'test    eax, eax'
p1420
sg19
S'85c0'
p1421
sg21
Vtest eax, eax
p1422
sg5
L135107807L
sg6
Nsg23
S'test'
p1423
sg25
S'0x80d94dfL'
p1424
sg27
Nsba(ibclass
BInstr
p1425
(dp1426
g2
Nsg17
S'jz      short loc_80D951C'
p1427
sg19
S'7439'
p1428
sg21
Vje 0x3b
p1429
sg5
L135107809L
sg6
Nsg23
S'jz'
p1430
sg25
S'0x80d94e1L'
p1431
sg27
Nsbasg91
(lp1432
Vmov eax, mem
p1433
aVmov eax, mem
p1434
ag1422
aVje address
p1435
asg100
Nsg5
S'0x80d94d6L'
p1436
sg102
(lp1437
S'0x80d949dL'
p1438
aS'0x80d94aaL'
p1439
asg6
Nsg104
(lp1440
S'0x80d94e3L'
p1441
aS'0x80d951cL'
p1442
asg108
Nsg109
Nsg110
S'ea5d08c7dcc07640d42787f826218f11'
p1443
sg112
S'103b924e2a82731ce51d187b2e41af3a'
p1444
sg114
(lp1445
g1409
ag1416
ag1423
ag1430
asg116
Nsba(ibclass
BBasicBlock
p1446
(dp1447
g12
Nsg13
(lp1448
(ibclass
BInstr
p1449
(dp1450
g2
Nsg17
S'mov     eax, [ebp+src]'
p1451
sg19
S'8b4508'
p1452
sg21
Vmov eax, dword ptr [ebp + 8]
p1453
sg5
L135107811L
sg6
Nsg23
S'mov'
p1454
sg25
S'0x80d94e3L'
p1455
sg27
Nsba(ibclass
BInstr
p1456
(dp1457
g2
Nsg17
S'mov     edx, [eax+0D4h]'
p1458
sg19
S'8b90d4000000'
p1459
sg21
Vmov edx, dword ptr [eax + 0xd4]
p1460
sg5
L135107814L
sg6
Nsg23
S'mov'
p1461
sg25
S'0x80d94e6L'
p1462
sg27
Nsba(ibclass
BInstr
p1463
(dp1464
g2
Nsg17
S'mov     eax, [ebp+src]'
p1465
sg19
S'8b4508'
p1466
sg21
Vmov eax, dword ptr [ebp + 8]
p1467
sg5
L135107820L
sg6
Nsg23
S'mov'
p1468
sg25
S'0x80d94ecL'
p1469
sg27
Nsba(ibclass
BInstr
p1470
(dp1471
g2
Nsg17
S'mov     eax, [eax+0D8h]'
p1472
sg19
S'8b80d8000000'
p1473
sg21
Vmov eax, dword ptr [eax + 0xd8]
p1474
sg5
L135107823L
sg6
Nsg23
S'mov'
p1475
sg25
S'0x80d94efL'
p1476
sg27
Nsba(ibclass
BInstr
p1477
(dp1478
g2
Nsg17
S'mov     [esp+4], edx    ; siz'
p1479
sg19
S'89542404'
p1480
sg21
Vmov dword ptr [esp + 4], edx
p1481
sg5
L135107829L
sg6
Nsg23
S'mov'
p1482
sg25
S'0x80d94f5L'
p1483
sg27
Nsba(ibclass
BInstr
p1484
(dp1485
g2
Nsg17
S'mov     [esp], eax      ; data'
p1486
sg19
S'890424'
p1487
sg21
Vmov dword ptr [esp], eax
p1488
sg5
L135107833L
sg6
Nsg23
S'mov'
p1489
sg25
S'0x80d94f9L'
p1490
sg27
Nsba(ibclass
BInstr
p1491
(dp1492
g2
Nsg17
S'call    BUF_memdup'
p1493
sg19
S'e85ba10500'
p1494
sg21
Vcall 0x5a160
p1495
sg5
L135107836L
sg6
Nsg23
S'call'
p1496
sg25
S'0x80d94fcL'
p1497
sg27
Nsba(ibclass
BInstr
p1498
(dp1499
g2
Nsg17
S'mov     edx, [ebp+dest]'
p1500
sg19
S'8b55f4'
p1501
sg21
Vmov edx, dword ptr [ebp - 0xc]
p1502
sg5
L135107841L
sg6
Nsg23
S'mov'
p1503
sg25
S'0x80d9501L'
p1504
sg27
Nsba(ibclass
BInstr
p1505
(dp1506
g2
Nsg17
S'mov     [edx+0D8h], eax'
p1507
sg19
S'8982d8000000'
p1508
sg21
Vmov dword ptr [edx + 0xd8], eax
p1509
sg5
L135107844L
sg6
Nsg23
S'mov'
p1510
sg25
S'0x80d9504L'
p1511
sg27
Nsba(ibclass
BInstr
p1512
(dp1513
g2
Nsg17
S'mov     eax, [ebp+dest]'
p1514
sg19
S'8b45f4'
p1515
sg21
Vmov eax, dword ptr [ebp - 0xc]
p1516
sg5
L135107850L
sg6
Nsg23
S'mov'
p1517
sg25
S'0x80d950aL'
p1518
sg27
Nsba(ibclass
BInstr
p1519
(dp1520
g2
Nsg17
S'mov     eax, [eax+0D8h]'
p1521
sg19
S'8b80d8000000'
p1522
sg21
Vmov eax, dword ptr [eax + 0xd8]
p1523
sg5
L135107853L
sg6
Nsg23
S'mov'
p1524
sg25
S'0x80d950dL'
p1525
sg27
Nsba(ibclass
BInstr
p1526
(dp1527
g2
Nsg17
S'test    eax, eax'
p1528
sg19
S'85c0'
p1529
sg21
Vtest eax, eax
p1530
sg5
L135107859L
sg6
Nsg23
S'test'
p1531
sg25
S'0x80d9513L'
p1532
sg27
Nsba(ibclass
BInstr
p1533
(dp1534
g2
Nsg17
S'jnz     short loc_80D951C'
p1535
sg19
S'7505'
p1536
sg21
Vjne 7
p1537
sg5
L135107861L
sg6
Nsg23
S'jnz'
p1538
sg25
S'0x80d9515L'
p1539
sg27
Nsbasg91
(lp1540
Vmov eax, mem
p1541
aVmov edx, mem
p1542
aVmov eax, mem
p1543
aVmov eax, mem
p1544
aVmov mem, edx
p1545
aVmov mem, eax
p1546
aVcall address
p1547
aVmov edx, mem
p1548
aVmov mem, eax
p1549
aVmov eax, mem
p1550
aVmov eax, mem
p1551
ag1530
ag1537
asg100
Nsg5
S'0x80d94e3L'
p1552
sg102
(lp1553
S'0x80d94d6L'
p1554
asg6
Nsg104
(lp1555
S'0x80d9517L'
p1556
aS'0x80d951cL'
p1557
asg108
Nsg109
Nsg110
S'55f1a80973c232d4f385cb404bba19e6'
p1558
sg112
S'f4780e3e4e6dccf863b9b6bb9a6e5de2'
p1559
sg114
(lp1560
g1454
ag1461
ag1468
ag1475
ag1482
ag1489
ag1496
ag1503
ag1510
ag1517
ag1524
ag1531
ag1538
asg116
Nsba(ibclass
BBasicBlock
p1561
(dp1562
g12
Nsg13
(lp1563
(ibclass
BInstr
p1564
(dp1565
g2
Nsg17
S'jmp     err'
p1566
sg19
S'e9d7000000'
p1567
sg21
Vjmp 0xdc
p1568
sg5
L135107863L
sg6
Nsg23
S'jmp'
p1569
sg25
S'0x80d9517L'
p1570
sg27
Nsbasg91
(lp1571
Vjmp address
p1572
asg100
Nsg5
S'0x80d9517L'
p1573
sg102
(lp1574
S'0x80d94e3L'
p1575
asg6
Nsg104
(lp1576
S'0x80d95f3L'
p1577
asg108
Nsg109
Nsg110
S'0ef6cf926f2f394b0cc8e11be8022625'
p1578
sg112
S'd4372e4caa7348928655251605aa7329'
p1579
sg114
(lp1580
g1569
asg116
Nsba(ibclass
BBasicBlock
p1581
(dp1582
g12
Nsg13
(lp1583
(ibclass
BInstr
p1584
(dp1585
g2
Nsg17
S'mov     eax, [ebp+src]'
p1586
sg19
S'8b4508'
p1587
sg21
Vmov eax, dword ptr [ebp + 8]
p1588
sg5
L135107868L
sg6
Nsg23
S'mov'
p1589
sg25
S'0x80d951cL'
p1590
sg27
Nsba(ibclass
BInstr
p1591
(dp1592
g2
Nsg17
S'mov     eax, [eax+0E0h]'
p1593
sg19
S'8b80e0000000'
p1594
sg21
Vmov eax, dword ptr [eax + 0xe0]
p1595
sg5
L135107871L
sg6
Nsg23
S'mov'
p1596
sg25
S'0x80d951fL'
p1597
sg27
Nsba(ibclass
BInstr
p1598
(dp1599
g2
Nsg17
S'test    eax, eax'
p1600
sg19
S'85c0'
p1601
sg21
Vtest eax, eax
p1602
sg5
L135107877L
sg6
Nsg23
S'test'
p1603
sg25
S'0x80d9525L'
p1604
sg27
Nsba(ibclass
BInstr
p1605
(dp1606
g2
Nsg17
S'jz      short loc_80D9562'
p1607
sg19
S'7439'
p1608
sg21
Vje 0x3b
p1609
sg5
L135107879L
sg6
Nsg23
S'jz'
p1610
sg25
S'0x80d9527L'
p1611
sg27
Nsbasg91
(lp1612
Vmov eax, mem
p1613
aVmov eax, mem
p1614
ag1602
aVje address
p1615
asg100
Nsg5
S'0x80d951cL'
p1616
sg102
(lp1617
S'0x80d94d6L'
p1618
aS'0x80d94e3L'
p1619
asg6
Nsg104
(lp1620
S'0x80d9529L'
p1621
aS'0x80d9562L'
p1622
asg108
Nsg109
Nsg110
S'ea5d08c7dcc07640d42787f826218f11'
p1623
sg112
S'103b924e2a82731ce51d187b2e41af3a'
p1624
sg114
(lp1625
g1589
ag1596
ag1603
ag1610
asg116
Nsba(ibclass
BBasicBlock
p1626
(dp1627
g12
Nsg13
(lp1628
(ibclass
BInstr
p1629
(dp1630
g2
Nsg17
S'mov     eax, [ebp+src]'
p1631
sg19
S'8b4508'
p1632
sg21
Vmov eax, dword ptr [ebp + 8]
p1633
sg5
L135107881L
sg6
Nsg23
S'mov'
p1634
sg25
S'0x80d9529L'
p1635
sg27
Nsba(ibclass
BInstr
p1636
(dp1637
g2
Nsg17
S'mov     edx, [eax+0DCh]'
p1638
sg19
S'8b90dc000000'
p1639
sg21
Vmov edx, dword ptr [eax + 0xdc]
p1640
sg5
L135107884L
sg6
Nsg23
S'mov'
p1641
sg25
S'0x80d952cL'
p1642
sg27
Nsba(ibclass
BInstr
p1643
(dp1644
g2
Nsg17
S'mov     eax, [ebp+src]'
p1645
sg19
S'8b4508'
p1646
sg21
Vmov eax, dword ptr [ebp + 8]
p1647
sg5
L135107890L
sg6
Nsg23
S'mov'
p1648
sg25
S'0x80d9532L'
p1649
sg27
Nsba(ibclass
BInstr
p1650
(dp1651
g2
Nsg17
S'mov     eax, [eax+0E0h]'
p1652
sg19
S'8b80e0000000'
p1653
sg21
Vmov eax, dword ptr [eax + 0xe0]
p1654
sg5
L135107893L
sg6
Nsg23
S'mov'
p1655
sg25
S'0x80d9535L'
p1656
sg27
Nsba(ibclass
BInstr
p1657
(dp1658
g2
Nsg17
S'mov     [esp+4], edx    ; siz'
p1659
sg19
S'89542404'
p1660
sg21
Vmov dword ptr [esp + 4], edx
p1661
sg5
L135107899L
sg6
Nsg23
S'mov'
p1662
sg25
S'0x80d953bL'
p1663
sg27
Nsba(ibclass
BInstr
p1664
(dp1665
g2
Nsg17
S'mov     [esp], eax      ; data'
p1666
sg19
S'890424'
p1667
sg21
Vmov dword ptr [esp], eax
p1668
sg5
L135107903L
sg6
Nsg23
S'mov'
p1669
sg25
S'0x80d953fL'
p1670
sg27
Nsba(ibclass
BInstr
p1671
(dp1672
g2
Nsg17
S'call    BUF_memdup'
p1673
sg19
S'e815a10500'
p1674
sg21
Vcall 0x5a11a
p1675
sg5
L135107906L
sg6
Nsg23
S'call'
p1676
sg25
S'0x80d9542L'
p1677
sg27
Nsba(ibclass
BInstr
p1678
(dp1679
g2
Nsg17
S'mov     edx, [ebp+dest]'
p1680
sg19
S'8b55f4'
p1681
sg21
Vmov edx, dword ptr [ebp - 0xc]
p1682
sg5
L135107911L
sg6
Nsg23
S'mov'
p1683
sg25
S'0x80d9547L'
p1684
sg27
Nsba(ibclass
BInstr
p1685
(dp1686
g2
Nsg17
S'mov     [edx+0E0h], eax'
p1687
sg19
S'8982e0000000'
p1688
sg21
Vmov dword ptr [edx + 0xe0], eax
p1689
sg5
L135107914L
sg6
Nsg23
S'mov'
p1690
sg25
S'0x80d954aL'
p1691
sg27
Nsba(ibclass
BInstr
p1692
(dp1693
g2
Nsg17
S'mov     eax, [ebp+dest]'
p1694
sg19
S'8b45f4'
p1695
sg21
Vmov eax, dword ptr [ebp - 0xc]
p1696
sg5
L135107920L
sg6
Nsg23
S'mov'
p1697
sg25
S'0x80d9550L'
p1698
sg27
Nsba(ibclass
BInstr
p1699
(dp1700
g2
Nsg17
S'mov     eax, [eax+0E0h]'
p1701
sg19
S'8b80e0000000'
p1702
sg21
Vmov eax, dword ptr [eax + 0xe0]
p1703
sg5
L135107923L
sg6
Nsg23
S'mov'
p1704
sg25
S'0x80d9553L'
p1705
sg27
Nsba(ibclass
BInstr
p1706
(dp1707
g2
Nsg17
S'test    eax, eax'
p1708
sg19
S'85c0'
p1709
sg21
Vtest eax, eax
p1710
sg5
L135107929L
sg6
Nsg23
S'test'
p1711
sg25
S'0x80d9559L'
p1712
sg27
Nsba(ibclass
BInstr
p1713
(dp1714
g2
Nsg17
S'jnz     short loc_80D9562'
p1715
sg19
S'7505'
p1716
sg21
Vjne 7
p1717
sg5
L135107931L
sg6
Nsg23
S'jnz'
p1718
sg25
S'0x80d955bL'
p1719
sg27
Nsbasg91
(lp1720
Vmov eax, mem
p1721
aVmov edx, mem
p1722
aVmov eax, mem
p1723
aVmov eax, mem
p1724
aVmov mem, edx
p1725
aVmov mem, eax
p1726
aVcall address
p1727
aVmov edx, mem
p1728
aVmov mem, eax
p1729
aVmov eax, mem
p1730
aVmov eax, mem
p1731
ag1710
ag1717
asg100
Nsg5
S'0x80d9529L'
p1732
sg102
(lp1733
S'0x80d951cL'
p1734
asg6
Nsg104
(lp1735
S'0x80d955dL'
p1736
aS'0x80d9562L'
p1737
asg108
Nsg109
Nsg110
S'55f1a80973c232d4f385cb404bba19e6'
p1738
sg112
S'f4780e3e4e6dccf863b9b6bb9a6e5de2'
p1739
sg114
(lp1740
g1634
ag1641
ag1648
ag1655
ag1662
ag1669
ag1676
ag1683
ag1690
ag1697
ag1704
ag1711
ag1718
asg116
Nsba(ibclass
BBasicBlock
p1741
(dp1742
g12
Nsg13
(lp1743
(ibclass
BInstr
p1744
(dp1745
g2
Nsg17
S'jmp     err'
p1746
sg19
S'e991000000'
p1747
sg21
Vjmp 0x96
p1748
sg5
L135107933L
sg6
Nsg23
S'jmp'
p1749
sg25
S'0x80d955dL'
p1750
sg27
Nsbasg91
(lp1751
Vjmp address
p1752
asg100
Nsg5
S'0x80d955dL'
p1753
sg102
(lp1754
S'0x80d9529L'
p1755
asg6
Nsg104
(lp1756
S'0x80d95f3L'
p1757
asg108
Nsg109
Nsg110
S'0ef6cf926f2f394b0cc8e11be8022625'
p1758
sg112
S'd4372e4caa7348928655251605aa7329'
p1759
sg114
(lp1760
g1749
asg116
Nsba(ibclass
BBasicBlock
p1761
(dp1762
g12
Nsg13
(lp1763
(ibclass
BInstr
p1764
(dp1765
g2
Nsg17
S'cmp     [ebp+ticket], 0'
p1766
sg19
S'837d0c00'
p1767
sg21
Vcmp dword ptr [ebp + 0xc], 0
p1768
sg5
L135107938L
sg6
Nsg23
S'cmp'
p1769
sg25
S'0x80d9562L'
p1770
sg27
Nsba(ibclass
BInstr
p1771
(dp1772
g2
Nsg17
S'jz      short loc_80D959E'
p1773
sg19
S'7436'
p1774
sg21
Vje 0x38
p1775
sg5
L135107942L
sg6
Nsg23
S'jz'
p1776
sg25
S'0x80d9566L'
p1777
sg27
Nsbasg91
(lp1778
Vcmp mem, 0
p1779
aVje address
p1780
asg100
Nsg5
S'0x80d9562L'
p1781
sg102
(lp1782
S'0x80d951cL'
p1783
aS'0x80d9529L'
p1784
asg6
Nsg104
(lp1785
S'0x80d9568L'
p1786
aS'0x80d959eL'
p1787
asg108
Nsg109
Nsg110
S'613dbc2b0cb9d6264d802b24d709daea'
p1788
sg112
S'bdc7ec577d63971d81398660f533a2e0'
p1789
sg114
(lp1790
g1769
ag1776
asg116
Nsba(ibclass
BBasicBlock
p1791
(dp1792
g12
Nsg13
(lp1793
(ibclass
BInstr
p1794
(dp1795
g2
Nsg17
S'mov     eax, [ebp+src]'
p1796
sg19
S'8b4508'
p1797
sg21
Vmov eax, dword ptr [ebp + 8]
p1798
sg5
L135107944L
sg6
Nsg23
S'mov'
p1799
sg25
S'0x80d9568L'
p1800
sg27
Nsba(ibclass
BInstr
p1801
(dp1802
g2
Nsg17
S'mov     edx, [eax+0E8h]'
p1803
sg19
S'8b90e8000000'
p1804
sg21
Vmov edx, dword ptr [eax + 0xe8]
p1805
sg5
L135107947L
sg6
Nsg23
S'mov'
p1806
sg25
S'0x80d956bL'
p1807
sg27
Nsba(ibclass
BInstr
p1808
(dp1809
g2
Nsg17
S'mov     eax, [ebp+src]'
p1810
sg19
S'8b4508'
p1811
sg21
Vmov eax, dword ptr [ebp + 8]
p1812
sg5
L135107953L
sg6
Nsg23
S'mov'
p1813
sg25
S'0x80d9571L'
p1814
sg27
Nsba(ibclass
BInstr
p1815
(dp1816
g2
Nsg17
S'mov     eax, [eax+0E4h]'
p1817
sg19
S'8b80e4000000'
p1818
sg21
Vmov eax, dword ptr [eax + 0xe4]
p1819
sg5
L135107956L
sg6
Nsg23
S'mov'
p1820
sg25
S'0x80d9574L'
p1821
sg27
Nsba(ibclass
BInstr
p1822
(dp1823
g2
Nsg17
S'mov     [esp+4], edx    ; siz'
p1824
sg19
S'89542404'
p1825
sg21
Vmov dword ptr [esp + 4], edx
p1826
sg5
L135107962L
sg6
Nsg23
S'mov'
p1827
sg25
S'0x80d957aL'
p1828
sg27
Nsba(ibclass
BInstr
p1829
(dp1830
g2
Nsg17
S'mov     [esp], eax      ; data'
p1831
sg19
S'890424'
p1832
sg21
Vmov dword ptr [esp], eax
p1833
sg5
L135107966L
sg6
Nsg23
S'mov'
p1834
sg25
S'0x80d957eL'
p1835
sg27
Nsba(ibclass
BInstr
p1836
(dp1837
g2
Nsg17
S'call    BUF_memdup'
p1838
sg19
S'e8d6a00500'
p1839
sg21
Vcall 0x5a0db
p1840
sg5
L135107969L
sg6
Nsg23
S'call'
p1841
sg25
S'0x80d9581L'
p1842
sg27
Nsba(ibclass
BInstr
p1843
(dp1844
g2
Nsg17
S'mov     edx, [ebp+dest]'
p1845
sg19
S'8b55f4'
p1846
sg21
Vmov edx, dword ptr [ebp - 0xc]
p1847
sg5
L135107974L
sg6
Nsg23
S'mov'
p1848
sg25
S'0x80d9586L'
p1849
sg27
Nsba(ibclass
BInstr
p1850
(dp1851
g2
Nsg17
S'mov     [edx+0E4h], eax'
p1852
sg19
S'8982e4000000'
p1853
sg21
Vmov dword ptr [edx + 0xe4], eax
p1854
sg5
L135107977L
sg6
Nsg23
S'mov'
p1855
sg25
S'0x80d9589L'
p1856
sg27
Nsba(ibclass
BInstr
p1857
(dp1858
g2
Nsg17
S'mov     eax, [ebp+dest]'
p1859
sg19
S'8b45f4'
p1860
sg21
Vmov eax, dword ptr [ebp - 0xc]
p1861
sg5
L135107983L
sg6
Nsg23
S'mov'
p1862
sg25
S'0x80d958fL'
p1863
sg27
Nsba(ibclass
BInstr
p1864
(dp1865
g2
Nsg17
S'mov     eax, [eax+0E4h]'
p1866
sg19
S'8b80e4000000'
p1867
sg21
Vmov eax, dword ptr [eax + 0xe4]
p1868
sg5
L135107986L
sg6
Nsg23
S'mov'
p1869
sg25
S'0x80d9592L'
p1870
sg27
Nsba(ibclass
BInstr
p1871
(dp1872
g2
Nsg17
S'test    eax, eax'
p1873
sg19
S'85c0'
p1874
sg21
Vtest eax, eax
p1875
sg5
L135107992L
sg6
Nsg23
S'test'
p1876
sg25
S'0x80d9598L'
p1877
sg27
Nsba(ibclass
BInstr
p1878
(dp1879
g2
Nsg17
S'jnz     short loc_80D95B8'
p1880
sg19
S'751c'
p1881
sg21
Vjne 0x1e
p1882
sg5
L135107994L
sg6
Nsg23
S'jnz'
p1883
sg25
S'0x80d959aL'
p1884
sg27
Nsbasg91
(lp1885
Vmov eax, mem
p1886
aVmov edx, mem
p1887
aVmov eax, mem
p1888
aVmov eax, mem
p1889
aVmov mem, edx
p1890
aVmov mem, eax
p1891
aVcall address
p1892
aVmov edx, mem
p1893
aVmov mem, eax
p1894
aVmov eax, mem
p1895
aVmov eax, mem
p1896
ag1875
aVjne address
p1897
asg100
Nsg5
S'0x80d9568L'
p1898
sg102
(lp1899
S'0x80d9562L'
p1900
asg6
Nsg104
(lp1901
S'0x80d959cL'
p1902
aS'0x80d95b8L'
p1903
asg108
Nsg109
Nsg110
S'55f1a80973c232d4f385cb404bba19e6'
p1904
sg112
S'7f6d159153c984f41a8ff03d51a5865d'
p1905
sg114
(lp1906
g1799
ag1806
ag1813
ag1820
ag1827
ag1834
ag1841
ag1848
ag1855
ag1862
ag1869
ag1876
ag1883
asg116
Nsba(ibclass
BBasicBlock
p1907
(dp1908
g12
Nsg13
(lp1909
(ibclass
BInstr
p1910
(dp1911
g2
Nsg17
S'jmp     short err'
p1912
sg19
S'eb55'
p1913
sg21
Vjmp 0x57
p1914
sg5
L135107996L
sg6
Nsg23
S'jmp'
p1915
sg25
S'0x80d959cL'
p1916
sg27
Nsbasg91
(lp1917
Vjmp address
p1918
asg100
Nsg5
S'0x80d959cL'
p1919
sg102
(lp1920
S'0x80d9568L'
p1921
asg6
Nsg104
(lp1922
S'0x80d95f3L'
p1923
asg108
Nsg109
Nsg110
S'0ef6cf926f2f394b0cc8e11be8022625'
p1924
sg112
S'd4372e4caa7348928655251605aa7329'
p1925
sg114
(lp1926
g1915
asg116
Nsba(ibclass
BBasicBlock
p1927
(dp1928
g12
Nsg13
(lp1929
(ibclass
BInstr
p1930
(dp1931
g2
Nsg17
S'mov     eax, [ebp+dest]'
p1932
sg19
S'8b45f4'
p1933
sg21
Vmov eax, dword ptr [ebp - 0xc]
p1934
sg5
L135107998L
sg6
Nsg23
S'mov'
p1935
sg25
S'0x80d959eL'
p1936
sg27
Nsba(ibclass
BInstr
p1937
(dp1938
g2
Nsg17
S'mov     dword ptr [eax+0ECh], 0'
p1939
sg19
S'c780ec00000000000000'
p1940
sg21
Vmov dword ptr [eax + 0xec], 0
p1941
sg5
L135108001L
sg6
Nsg23
S'mov'
p1942
sg25
S'0x80d95a1L'
p1943
sg27
Nsba(ibclass
BInstr
p1944
(dp1945
g2
Nsg17
S'mov     eax, [ebp+dest]'
p1946
sg19
S'8b45f4'
p1947
sg21
Vmov eax, dword ptr [ebp - 0xc]
p1948
sg5
L135108011L
sg6
Nsg23
S'mov'
p1949
sg25
S'0x80d95abL'
p1950
sg27
Nsba(ibclass
BInstr
p1951
(dp1952
g2
Nsg17
S'mov     dword ptr [eax+0E8h], 0'
p1953
sg19
S'c780e800000000000000'
p1954
sg21
Vmov dword ptr [eax + 0xe8], 0
p1955
sg5
L135108014L
sg6
Nsg23
S'mov'
p1956
sg25
S'0x80d95aeL'
p1957
sg27
Nsbasg91
(lp1958
Vmov eax, mem
p1959
aVmov mem, 0
p1960
aVmov eax, mem
p1961
aVmov mem, 0
p1962
asg100
Nsg5
S'0x80d959eL'
p1963
sg102
(lp1964
S'0x80d9562L'
p1965
asg6
Nsg104
(lp1966
S'0x80d95b8L'
p1967
asg108
Nsg109
Nsg110
S'a7ed50a6d28be8041222ce9aca64dd18'
p1968
sg112
S'35c198163fff4f03581f04f1b1278262'
p1969
sg114
(lp1970
g1935
ag1942
ag1949
ag1956
asg116
Nsba(ibclass
BBasicBlock
p1971
(dp1972
g12
Nsg13
(lp1973
(ibclass
BInstr
p1974
(dp1975
g2
Nsg17
S'mov     eax, [ebp+src]'
p1976
sg19
S'8b4508'
p1977
sg21
Vmov eax, dword ptr [ebp + 8]
p1978
sg5
L135108024L
sg6
Nsg23
S'mov'
p1979
sg25
S'0x80d95b8L'
p1980
sg27
Nsba(ibclass
BInstr
p1981
(dp1982
g2
Nsg17
S'mov     eax, [eax+0F0h]'
p1983
sg19
S'8b80f0000000'
p1984
sg21
Vmov eax, dword ptr [eax + 0xf0]
p1985
sg5
L135108027L
sg6
Nsg23
S'mov'
p1986
sg25
S'0x80d95bbL'
p1987
sg27
Nsba(ibclass
BInstr
p1988
(dp1989
g2
Nsg17
S'test    eax, eax'
p1990
sg19
S'85c0'
p1991
sg21
Vtest eax, eax
p1992
sg5
L135108033L
sg6
Nsg23
S'test'
p1993
sg25
S'0x80d95c1L'
p1994
sg27
Nsba(ibclass
BInstr
p1995
(dp1996
g2
Nsg17
S'jz      short loc_80D95EE'
p1997
sg19
S'7429'
p1998
sg21
Vje 0x2b
p1999
sg5
L135108035L
sg6
Nsg23
S'jz'
p2000
sg25
S'0x80d95c3L'
p2001
sg27
Nsbasg91
(lp2002
Vmov eax, mem
p2003
aVmov eax, mem
p2004
ag1992
aVje address
p2005
asg100
Nsg5
S'0x80d95b8L'
p2006
sg102
(lp2007
S'0x80d9568L'
p2008
aS'0x80d959eL'
p2009
asg6
Nsg104
(lp2010
S'0x80d95c5L'
p2011
aS'0x80d95eeL'
p2012
asg108
Nsg109
Nsg110
S'ea5d08c7dcc07640d42787f826218f11'
p2013
sg112
S'103b924e2a82731ce51d187b2e41af3a'
p2014
sg114
(lp2015
g1979
ag1986
ag1993
ag2000
asg116
Nsba(ibclass
BBasicBlock
p2016
(dp2017
g12
Nsg13
(lp2018
(ibclass
BInstr
p2019
(dp2020
g2
Nsg17
S'mov     eax, [ebp+src]'
p2021
sg19
S'8b4508'
p2022
sg21
Vmov eax, dword ptr [ebp + 8]
p2023
sg5
L135108037L
sg6
Nsg23
S'mov'
p2024
sg25
S'0x80d95c5L'
p2025
sg27
Nsba(ibclass
BInstr
p2026
(dp2027
g2
Nsg17
S'mov     eax, [eax+0F0h]'
p2028
sg19
S'8b80f0000000'
p2029
sg21
Vmov eax, dword ptr [eax + 0xf0]
p2030
sg5
L135108040L
sg6
Nsg23
S'mov'
p2031
sg25
S'0x80d95c8L'
p2032
sg27
Nsba(ibclass
BInstr
p2033
(dp2034
g2
Nsg17
S'mov     [esp], eax      ; str'
p2035
sg19
S'890424'
p2036
sg21
Vmov dword ptr [esp], eax
p2037
sg5
L135108046L
sg6
Nsg23
S'mov'
p2038
sg25
S'0x80d95ceL'
p2039
sg27
Nsba(ibclass
BInstr
p2040
(dp2041
g2
Nsg17
S'call    BUF_strdup'
p2042
sg19
S'e8cd9f0500'
p2043
sg21
Vcall 0x59fd2
p2044
sg5
L135108049L
sg6
Nsg23
S'call'
p2045
sg25
S'0x80d95d1L'
p2046
sg27
Nsba(ibclass
BInstr
p2047
(dp2048
g2
Nsg17
S'mov     edx, [ebp+dest]'
p2049
sg19
S'8b55f4'
p2050
sg21
Vmov edx, dword ptr [ebp - 0xc]
p2051
sg5
L135108054L
sg6
Nsg23
S'mov'
p2052
sg25
S'0x80d95d6L'
p2053
sg27
Nsba(ibclass
BInstr
p2054
(dp2055
g2
Nsg17
S'mov     [edx+0F0h], eax'
p2056
sg19
S'8982f0000000'
p2057
sg21
Vmov dword ptr [edx + 0xf0], eax
p2058
sg5
L135108057L
sg6
Nsg23
S'mov'
p2059
sg25
S'0x80d95d9L'
p2060
sg27
Nsba(ibclass
BInstr
p2061
(dp2062
g2
Nsg17
S'mov     eax, [ebp+dest]'
p2063
sg19
S'8b45f4'
p2064
sg21
Vmov eax, dword ptr [ebp - 0xc]
p2065
sg5
L135108063L
sg6
Nsg23
S'mov'
p2066
sg25
S'0x80d95dfL'
p2067
sg27
Nsba(ibclass
BInstr
p2068
(dp2069
g2
Nsg17
S'mov     eax, [eax+0F0h]'
p2070
sg19
S'8b80f0000000'
p2071
sg21
Vmov eax, dword ptr [eax + 0xf0]
p2072
sg5
L135108066L
sg6
Nsg23
S'mov'
p2073
sg25
S'0x80d95e2L'
p2074
sg27
Nsba(ibclass
BInstr
p2075
(dp2076
g2
Nsg17
S'test    eax, eax'
p2077
sg19
S'85c0'
p2078
sg21
Vtest eax, eax
p2079
sg5
L135108072L
sg6
Nsg23
S'test'
p2080
sg25
S'0x80d95e8L'
p2081
sg27
Nsba(ibclass
BInstr
p2082
(dp2083
g2
Nsg17
S'jnz     short loc_80D95EE'
p2084
sg19
S'7502'
p2085
sg21
Vjne 4
p2086
sg5
L135108074L
sg6
Nsg23
S'jnz'
p2087
sg25
S'0x80d95eaL'
p2088
sg27
Nsbasg91
(lp2089
Vmov eax, mem
p2090
aVmov eax, mem
p2091
aVmov mem, eax
p2092
aVcall address
p2093
aVmov edx, mem
p2094
aVmov mem, eax
p2095
aVmov eax, mem
p2096
aVmov eax, mem
p2097
ag2079
ag2086
asg100
Nsg5
S'0x80d95c5L'
p2098
sg102
(lp2099
S'0x80d95b8L'
p2100
asg6
Nsg104
(lp2101
S'0x80d95ecL'
p2102
aS'0x80d95eeL'
p2103
asg108
Nsg109
Nsg110
S'6c693d995bcbad992ff2db72d4e2c900'
p2104
sg112
S'ab70e99032222f8491243591dd447f85'
p2105
sg114
(lp2106
g2024
ag2031
ag2038
ag2045
ag2052
ag2059
ag2066
ag2073
ag2080
ag2087
asg116
Nsba(ibclass
BBasicBlock
p2107
(dp2108
g12
Nsg13
(lp2109
(ibclass
BInstr
p2110
(dp2111
g2
Nsg17
S'jmp     short err'
p2112
sg19
S'eb05'
p2113
sg21
Vjmp 7
p2114
sg5
L135108076L
sg6
Nsg23
S'jmp'
p2115
sg25
S'0x80d95ecL'
p2116
sg27
Nsbasg91
(lp2117
g2114
asg100
Nsg5
S'0x80d95ecL'
p2118
sg102
(lp2119
S'0x80d95c5L'
p2120
asg6
Nsg104
(lp2121
S'0x80d95f3L'
p2122
asg108
Nsg109
Nsg110
S'0ef6cf926f2f394b0cc8e11be8022625'
p2123
sg112
S'438a6bd8676aa79a9fdfae111ab77250'
p2124
sg114
(lp2125
g2115
asg116
Nsba(ibclass
BBasicBlock
p2126
(dp2127
g12
Nsg13
(lp2128
(ibclass
BInstr
p2129
(dp2130
g2
Nsg17
S'mov     eax, [ebp+dest]'
p2131
sg19
S'8b45f4'
p2132
sg21
Vmov eax, dword ptr [ebp - 0xc]
p2133
sg5
L135108078L
sg6
Nsg23
S'mov'
p2134
sg25
S'0x80d95eeL'
p2135
sg27
Nsba(ibclass
BInstr
p2136
(dp2137
g2
Nsg17
S'jmp     short locret_80D962F'
p2138
sg19
S'eb3c'
p2139
sg21
Vjmp 0x3e
p2140
sg5
L135108081L
sg6
Nsg23
S'jmp'
p2141
sg25
S'0x80d95f1L'
p2142
sg27
Nsbasg91
(lp2143
Vmov eax, mem
p2144
aVjmp address
p2145
asg100
Nsg5
S'0x80d95eeL'
p2146
sg102
(lp2147
S'0x80d95b8L'
p2148
aS'0x80d95c5L'
p2149
asg6
Nsg104
(lp2150
S'0x80d962fL'
p2151
asg108
Nsg109
Nsg110
S'8b9a0d40e062be2b9b2d9885108fb196'
p2152
sg112
S'5a5b261ba52a671a369af6372509eb2f'
p2153
sg114
(lp2154
g2134
ag2141
asg116
Nsba(ibclass
BBasicBlock
p2155
(dp2156
g12
Nsg13
(lp2157
(ibclass
BInstr
p2158
(dp2159
g2
Nsg17
S'mov     dword ptr [esp+10h], 15Dh; line'
p2160
sg19
S'c74424105d010000'
p2161
sg21
Vmov dword ptr [esp + 0x10], 0x15d
p2162
sg5
L135108083L
sg6
Nsg23
S'mov'
p2163
sg25
S'0x80d95f3L'
p2164
sg27
Nsba(ibclass
BInstr
p2165
(dp2166
g2
Nsg17
S'mov     dword ptr [esp+0Ch], offset aSsl_sess_c; "ssl_sess.c"'
p2167
sg19
S'c744240ce0932108'
p2168
sg21
Vmov dword ptr [esp + 0xc], 0x82193e0
p2169
sg5
L135108091L
sg6
Nsg23
S'mov'
p2170
sg25
S'0x80d95fbL'
p2171
sg27
Nsba(ibclass
BInstr
p2172
(dp2173
g2
Nsg17
S'mov     dword ptr [esp+8], 41h; reason'
p2174
sg19
S'c744240841000000'
p2175
sg21
Vmov dword ptr [esp + 8], 0x41
p2176
sg5
L135108099L
sg6
Nsg23
S'mov'
p2177
sg25
S'0x80d9603L'
p2178
sg27
Nsba(ibclass
BInstr
p2179
(dp2180
g2
Nsg17
S'mov     dword ptr [esp+4], 15Ch; func'
p2181
sg19
S'c74424045c010000'
p2182
sg21
Vmov dword ptr [esp + 4], 0x15c
p2183
sg5
L135108107L
sg6
Nsg23
S'mov'
p2184
sg25
S'0x80d960bL'
p2185
sg27
Nsba(ibclass
BInstr
p2186
(dp2187
g2
Nsg17
S'mov     dword ptr [esp], 14h; lib'
p2188
sg19
S'c7042414000000'
p2189
sg21
Vmov dword ptr [esp], 0x14
p2190
sg5
L135108115L
sg6
Nsg23
S'mov'
p2191
sg25
S'0x80d9613L'
p2192
sg27
Nsba(ibclass
BInstr
p2193
(dp2194
g2
Nsg17
S'call    ERR_put_error'
p2195
sg19
S'e8155f0600'
p2196
sg21
Vcall 0x65f1a
p2197
sg5
L135108122L
sg6
Nsg23
S'call'
p2198
sg25
S'0x80d961aL'
p2199
sg27
Nsba(ibclass
BInstr
p2200
(dp2201
g2
Nsg17
S'mov     eax, [ebp+dest]'
p2202
sg19
S'8b45f4'
p2203
sg21
Vmov eax, dword ptr [ebp - 0xc]
p2204
sg5
L135108127L
sg6
Nsg23
S'mov'
p2205
sg25
S'0x80d961fL'
p2206
sg27
Nsba(ibclass
BInstr
p2207
(dp2208
g2
Nsg17
S'mov     [esp], eax      ; ss_0'
p2209
sg19
S'890424'
p2210
sg21
Vmov dword ptr [esp], eax
p2211
sg5
L135108130L
sg6
Nsg23
S'mov'
p2212
sg25
S'0x80d9622L'
p2213
sg27
Nsba(ibclass
BInstr
p2214
(dp2215
g2
Nsg17
S'call    SSL_SESSION_free'
p2216
sg19
S'e8c5100000'
p2217
sg21
Vcall 0x10ca
p2218
sg5
L135108133L
sg6
Nsg23
S'call'
p2219
sg25
S'0x80d9625L'
p2220
sg27
Nsba(ibclass
BInstr
p2221
(dp2222
g2
Nsg17
S'mov     eax, 0'
p2223
sg19
S'b800000000'
p2224
sg21
Vmov eax, 0
p2225
sg5
L135108138L
sg6
Nsg23
S'mov'
p2226
sg25
S'0x80d962aL'
p2227
sg27
Nsbasg91
(lp2228
Vmov mem, address
p2229
aVmov mem, address
p2230
aVmov mem, address
p2231
aVmov mem, address
p2232
aVmov mem, address
p2233
aVcall address
p2234
aVmov eax, mem
p2235
aVmov mem, eax
p2236
aVcall address
p2237
ag2225
asg100
Nsg5
S'0x80d95f3L'
p2238
sg102
(lp2239
S'0x80d9274L'
p2240
aS'0x80d93f8L'
p2241
aS'0x80d9431L'
p2242
aS'0x80d946aL'
p2243
aS'0x80d9498L'
p2244
aS'0x80d94d1L'
p2245
aS'0x80d9517L'
p2246
aS'0x80d955dL'
p2247
aS'0x80d959cL'
p2248
aS'0x80d95ecL'
p2249
asg6
Nsg104
(lp2250
S'0x80d962fL'
p2251
asg108
Nsg109
Nsg110
S'917d9154432f0453652246396bb4d2de'
p2252
sg112
S'508951ae7716cacfbd3e4a8a792ede7d'
p2253
sg114
(lp2254
g2163
ag2170
ag2177
ag2184
ag2191
ag2198
ag2205
ag2212
ag2219
ag2226
asg116
Nsba(ibclass
BBasicBlock
p2255
(dp2256
g12
Nsg13
(lp2257
(ibclass
BInstr
p2258
(dp2259
g2
Nsg17
S'leave'
p2260
sg19
S'c9'
p2261
sg21
Vleave 
p2262
sg5
L135108143L
sg6
Nsg23
S'leave'
p2263
sg25
S'0x80d962fL'
p2264
sg27
Nsba(ibclass
BInstr
p2265
(dp2266
g2
Nsg17
S'retn'
p2267
sg19
S'c3'
p2268
sg21
Vret 
p2269
sg5
L135108144L
sg6
Nsg23
S'retn'
p2270
sg25
S'0x80d9630L'
p2271
sg27
Nsbasg91
(lp2272
Vleave
p2273
aVret
p2274
asg100
Nsg5
S'0x80d962fL'
p2275
sg102
(lp2276
S'0x80d95eeL'
p2277
aS'0x80d95f3L'
p2278
asg6
Nsg104
(lp2279
sg108
Nsg109
Nsg110
S'08c78f73a6f87c85da88b2982f54ce2a'
p2280
sg112
S'393fee3c9fb1d26424d4b7704918e387'
p2281
sg114
(lp2282
g2263
ag2270
asg116
Nsbasb.