(ibclass
BFunc
p0
(dp1
S'hash'
p2
NsS'name'
p3
S'tls1_cbc_remove_padding'
p4
sS'start_address'
p5
L134977537L
sS'flag'
p6
NsS'program'
p7
NsS'bbs'
p8
(lp9
(ibclass
BBasicBlock
p10
(dp11
S'function'
p12
NsS'binstrs'
p13
(lp14
(ibclass
BInstr
p15
(dp16
g2
NsS'disasm'
p17
S'push    ebp'
p18
sS'bytes'
p19
S'55'
p20
sS'disasm_striped'
p21
Vpush ebp
p22
sg5
L134977537L
sg6
NsS'mnem'
p23
S'push'
p24
sS'address'
p25
S'0x80b9801L'
p26
sS'basicblock'
p27
Nsba(ibclass
BInstr
p28
(dp29
g2
Nsg17
S'mov     ebp, esp'
p30
sg19
S'89e5'
p31
sg21
Vmov ebp, esp
p32
sg5
L134977538L
sg6
Nsg23
S'mov'
p33
sg25
S'0x80b9802L'
p34
sg27
Nsba(ibclass
BInstr
p35
(dp36
g2
Nsg17
S'sub     esp, 38h'
p37
sg19
S'83ec38'
p38
sg21
Vsub esp, 0x38
p39
sg5
L134977540L
sg6
Nsg23
S'sub'
p40
sg25
S'0x80b9804L'
p41
sg27
Nsba(ibclass
BInstr
p42
(dp43
g2
Nsg17
S'mov     eax, [ebp+mac_size]'
p44
sg19
S'8b4514'
p45
sg21
Vmov eax, dword ptr [ebp + 0x14]
p46
sg5
L134977543L
sg6
Nsg23
S'mov'
p47
sg25
S'0x80b9807L'
p48
sg27
Nsba(ibclass
BInstr
p49
(dp50
g2
Nsg17
S'inc     eax'
p51
sg19
S'40'
p52
sg21
Vinc eax
p53
sg5
L134977546L
sg6
Nsg23
S'inc'
p54
sg25
S'0x80b980aL'
p55
sg27
Nsba(ibclass
BInstr
p56
(dp57
g2
Nsg17
S'mov     [ebp+overhead], eax'
p58
sg19
S'8945f4'
p59
sg21
Vmov dword ptr [ebp - 0xc], eax
p60
sg5
L134977547L
sg6
Nsg23
S'mov'
p61
sg25
S'0x80b980bL'
p62
sg27
Nsba(ibclass
BInstr
p63
(dp64
g2
Nsg17
S'mov     eax, [ebp+s]'
p65
sg19
S'8b4508'
p66
sg21
Vmov eax, dword ptr [ebp + 8]
p67
sg5
L134977550L
sg6
Nsg23
S'mov'
p68
sg25
S'0x80b980eL'
p69
sg27
Nsba(ibclass
BInstr
p70
(dp71
g2
Nsg17
S'mov     eax, [eax]'
p72
sg19
S'8b00'
p73
sg21
Vmov eax, dword ptr [eax]
p74
sg5
L134977553L
sg6
Nsg23
S'mov'
p75
sg25
S'0x80b9811L'
p76
sg27
Nsba(ibclass
BInstr
p77
(dp78
g2
Nsg17
S'cmp     eax, 301h'
p79
sg19
S'3d01030000'
p80
sg21
Vcmp eax, 0x301
p81
sg5
L134977555L
sg6
Nsg23
S'cmp'
p82
sg25
S'0x80b9813L'
p83
sg27
Nsba(ibclass
BInstr
p84
(dp85
g2
Nsg17
S'jg      short loc_80B9826'
p86
sg19
S'7f0c'
p87
sg21
Vjg 0xe
p88
sg5
L134977560L
sg6
Nsg23
S'jg'
p89
sg25
S'0x80b9818L'
p90
sg27
NsbasS'disasm_list'
p91
(lp92
g22
ag32
aVsub esp, address
p93
aVmov eax, mem
p94
ag53
aVmov mem, eax
p95
aVmov eax, mem
p96
aVmov eax, mem
p97
aVcmp eax, address
p98
aVjg address
p99
asS'end_address'
p100
Nsg5
S'0x80b9801L'
p101
sS'preds'
p102
(lp103
sg6
NsS'succs'
p104
(lp105
S'0x80b981aL'
p106
aS'0x80b9826L'
p107
asS'hash_v3'
p108
NsS'flag_v2'
p109
NsS'hash_v1'
p110
S'78e11ad4d928912ae2a211b25bfcafdf'
p111
sS'hash_v2'
p112
S'f5dcbb487f8c749756f073b6d6c5ac7f'
p113
sS'mnen_list'
p114
(lp115
g24
ag33
ag40
ag47
ag54
ag61
ag68
ag75
ag82
ag89
asS'neighbour_disasm_list'
p116
Nsba(ibclass
BBasicBlock
p117
(dp118
g12
Nsg13
(lp119
(ibclass
BInstr
p120
(dp121
g2
Nsg17
S'mov     eax, [ebp+s]'
p122
sg19
S'8b4508'
p123
sg21
Vmov eax, dword ptr [ebp + 8]
p124
sg5
L134977562L
sg6
Nsg23
S'mov'
p125
sg25
S'0x80b981aL'
p126
sg27
Nsba(ibclass
BInstr
p127
(dp128
g2
Nsg17
S'mov     eax, [eax]'
p129
sg19
S'8b00'
p130
sg21
Vmov eax, dword ptr [eax]
p131
sg5
L134977565L
sg6
Nsg23
S'mov'
p132
sg25
S'0x80b981dL'
p133
sg27
Nsba(ibclass
BInstr
p134
(dp135
g2
Nsg17
S'cmp     eax, 100h'
p136
sg19
S'3d00010000'
p137
sg21
Vcmp eax, 0x100
p138
sg5
L134977567L
sg6
Nsg23
S'cmp'
p139
sg25
S'0x80b981fL'
p140
sg27
Nsba(ibclass
BInstr
p141
(dp142
g2
Nsg17
S'jnz     short loc_80B9877'
p143
sg19
S'7551'
p144
sg21
Vjne 0x53
p145
sg5
L134977572L
sg6
Nsg23
S'jnz'
p146
sg25
S'0x80b9824L'
p147
sg27
Nsbasg91
(lp148
Vmov eax, mem
p149
aVmov eax, mem
p150
aVcmp eax, address
p151
aVjne address
p152
asg100
Nsg5
S'0x80b981aL'
p153
sg102
(lp154
S'0x80b9801L'
p155
asg6
Nsg104
(lp156
S'0x80b9826L'
p157
aS'0x80b9877L'
p158
asg108
Nsg109
Nsg110
S'a19a851724661b9339243c65cfd318e3'
p159
sg112
S'25a063ee277ab8c9b0b7060fa4111963'
p160
sg114
(lp161
g125
ag132
ag139
ag146
asg116
Nsba(ibclass
BBasicBlock
p162
(dp163
g12
Nsg13
(lp164
(ibclass
BInstr
p165
(dp166
g2
Nsg17
S'mov     eax, [ebp+block_size]'
p167
sg19
S'8b4510'
p168
sg21
Vmov eax, dword ptr [ebp + 0x10]
p169
sg5
L134977574L
sg6
Nsg23
S'mov'
p170
sg25
S'0x80b9826L'
p171
sg27
Nsba(ibclass
BInstr
p172
(dp173
g2
Nsg17
S'mov     edx, [ebp+overhead]'
p174
sg19
S'8b55f4'
p175
sg21
Vmov edx, dword ptr [ebp - 0xc]
p176
sg5
L134977577L
sg6
Nsg23
S'mov'
p177
sg25
S'0x80b9829L'
p178
sg27
Nsba(ibclass
BInstr
p179
(dp180
g2
Nsg17
S'add     edx, eax'
p181
sg19
S'01c2'
p182
sg21
Vadd edx, eax
p183
sg5
L134977580L
sg6
Nsg23
S'add'
p184
sg25
S'0x80b982cL'
p185
sg27
Nsba(ibclass
BInstr
p186
(dp187
g2
Nsg17
S'mov     eax, [ebp+rec]'
p188
sg19
S'8b450c'
p189
sg21
Vmov eax, dword ptr [ebp + 0xc]
p190
sg5
L134977582L
sg6
Nsg23
S'mov'
p191
sg25
S'0x80b982eL'
p192
sg27
Nsba(ibclass
BInstr
p193
(dp194
g2
Nsg17
S'mov     eax, [eax+4]'
p195
sg19
S'8b4004'
p196
sg21
Vmov eax, dword ptr [eax + 4]
p197
sg5
L134977585L
sg6
Nsg23
S'mov'
p198
sg25
S'0x80b9831L'
p199
sg27
Nsba(ibclass
BInstr
p200
(dp201
g2
Nsg17
S'cmp     edx, eax'
p202
sg19
S'39c2'
p203
sg21
Vcmp edx, eax
p204
sg5
L134977588L
sg6
Nsg23
S'cmp'
p205
sg25
S'0x80b9834L'
p206
sg27
Nsba(ibclass
BInstr
p207
(dp208
g2
Nsg17
S'jbe     short loc_80B9842'
p209
sg19
S'760a'
p210
sg21
Vjbe 0xc
p211
sg5
L134977590L
sg6
Nsg23
S'jbe'
p212
sg25
S'0x80b9836L'
p213
sg27
Nsbasg91
(lp214
Vmov eax, mem
p215
aVmov edx, mem
p216
ag183
aVmov eax, mem
p217
aVmov eax, mem
p218
ag204
aVjbe address
p219
asg100
Nsg5
S'0x80b9826L'
p220
sg102
(lp221
S'0x80b9801L'
p222
aS'0x80b981aL'
p223
asg6
Nsg104
(lp224
S'0x80b9838L'
p225
aS'0x80b9842L'
p226
asg108
Nsg109
Nsg110
S'a7073c3d7c889c02515c550b1f1c695e'
p227
sg112
S'dc59d94b573bd62e011a2ba3e3b5656b'
p228
sg114
(lp229
g170
ag177
ag184
ag191
ag198
ag205
ag212
asg116
Nsba(ibclass
BBasicBlock
p230
(dp231
g12
Nsg13
(lp232
(ibclass
BInstr
p233
(dp234
g2
Nsg17
S'mov     eax, 0'
p235
sg19
S'b800000000'
p236
sg21
Vmov eax, 0
p237
sg5
L134977592L
sg6
Nsg23
S'mov'
p238
sg25
S'0x80b9838L'
p239
sg27
Nsba(ibclass
BInstr
p240
(dp241
g2
Nsg17
S'jmp     locret_80B9A4E'
p242
sg19
S'e90c020000'
p243
sg21
Vjmp 0x211
p244
sg5
L134977597L
sg6
Nsg23
S'jmp'
p245
sg25
S'0x80b983dL'
p246
sg27
Nsbasg91
(lp247
g237
aVjmp address
p248
asg100
Nsg5
S'0x80b9838L'
p249
sg102
(lp250
S'0x80b9826L'
p251
asg6
Nsg104
(lp252
S'0x80b9a4eL'
p253
asg108
Nsg109
Nsg110
S'8b9a0d40e062be2b9b2d9885108fb196'
p254
sg112
S'bfbe752dd865c9a89011ba470eab331d'
p255
sg114
(lp256
g238
ag245
asg116
Nsba(ibclass
BBasicBlock
p257
(dp258
g12
Nsg13
(lp259
(ibclass
BInstr
p260
(dp261
g2
Nsg17
S'mov     eax, [ebp+rec]'
p262
sg19
S'8b450c'
p263
sg21
Vmov eax, dword ptr [ebp + 0xc]
p264
sg5
L134977602L
sg6
Nsg23
S'mov'
p265
sg25
S'0x80b9842L'
p266
sg27
Nsba(ibclass
BInstr
p267
(dp268
g2
Nsg17
S'mov     edx, [eax+0Ch]'
p269
sg19
S'8b500c'
p270
sg21
Vmov edx, dword ptr [eax + 0xc]
p271
sg5
L134977605L
sg6
Nsg23
S'mov'
p272
sg25
S'0x80b9845L'
p273
sg27
Nsba(ibclass
BInstr
p274
(dp275
g2
Nsg17
S'mov     eax, [ebp+block_size]'
p276
sg19
S'8b4510'
p277
sg21
Vmov eax, dword ptr [ebp + 0x10]
p278
sg5
L134977608L
sg6
Nsg23
S'mov'
p279
sg25
S'0x80b9848L'
p280
sg27
Nsba(ibclass
BInstr
p281
(dp282
g2
Nsg17
S'add     edx, eax'
p283
sg19
S'01c2'
p284
sg21
Vadd edx, eax
p285
sg5
L134977611L
sg6
Nsg23
S'add'
p286
sg25
S'0x80b984bL'
p287
sg27
Nsba(ibclass
BInstr
p288
(dp289
g2
Nsg17
S'mov     eax, [ebp+rec]'
p290
sg19
S'8b450c'
p291
sg21
Vmov eax, dword ptr [ebp + 0xc]
p292
sg5
L134977613L
sg6
Nsg23
S'mov'
p293
sg25
S'0x80b984dL'
p294
sg27
Nsba(ibclass
BInstr
p295
(dp296
g2
Nsg17
S'mov     [eax+0Ch], edx'
p297
sg19
S'89500c'
p298
sg21
Vmov dword ptr [eax + 0xc], edx
p299
sg5
L134977616L
sg6
Nsg23
S'mov'
p300
sg25
S'0x80b9850L'
p301
sg27
Nsba(ibclass
BInstr
p302
(dp303
g2
Nsg17
S'mov     eax, [ebp+rec]'
p304
sg19
S'8b450c'
p305
sg21
Vmov eax, dword ptr [ebp + 0xc]
p306
sg5
L134977619L
sg6
Nsg23
S'mov'
p307
sg25
S'0x80b9853L'
p308
sg27
Nsba(ibclass
BInstr
p309
(dp310
g2
Nsg17
S'mov     edx, [eax+10h]'
p311
sg19
S'8b5010'
p312
sg21
Vmov edx, dword ptr [eax + 0x10]
p313
sg5
L134977622L
sg6
Nsg23
S'mov'
p314
sg25
S'0x80b9856L'
p315
sg27
Nsba(ibclass
BInstr
p316
(dp317
g2
Nsg17
S'mov     eax, [ebp+block_size]'
p318
sg19
S'8b4510'
p319
sg21
Vmov eax, dword ptr [ebp + 0x10]
p320
sg5
L134977625L
sg6
Nsg23
S'mov'
p321
sg25
S'0x80b9859L'
p322
sg27
Nsba(ibclass
BInstr
p323
(dp324
g2
Nsg17
S'add     edx, eax'
p325
sg19
S'01c2'
p326
sg21
Vadd edx, eax
p327
sg5
L134977628L
sg6
Nsg23
S'add'
p328
sg25
S'0x80b985cL'
p329
sg27
Nsba(ibclass
BInstr
p330
(dp331
g2
Nsg17
S'mov     eax, [ebp+rec]'
p332
sg19
S'8b450c'
p333
sg21
Vmov eax, dword ptr [ebp + 0xc]
p334
sg5
L134977630L
sg6
Nsg23
S'mov'
p335
sg25
S'0x80b985eL'
p336
sg27
Nsba(ibclass
BInstr
p337
(dp338
g2
Nsg17
S'mov     [eax+10h], edx'
p339
sg19
S'895010'
p340
sg21
Vmov dword ptr [eax + 0x10], edx
p341
sg5
L134977633L
sg6
Nsg23
S'mov'
p342
sg25
S'0x80b9861L'
p343
sg27
Nsba(ibclass
BInstr
p344
(dp345
g2
Nsg17
S'mov     eax, [ebp+rec]'
p346
sg19
S'8b450c'
p347
sg21
Vmov eax, dword ptr [ebp + 0xc]
p348
sg5
L134977636L
sg6
Nsg23
S'mov'
p349
sg25
S'0x80b9864L'
p350
sg27
Nsba(ibclass
BInstr
p351
(dp352
g2
Nsg17
S'mov     eax, [eax+4]'
p353
sg19
S'8b4004'
p354
sg21
Vmov eax, dword ptr [eax + 4]
p355
sg5
L134977639L
sg6
Nsg23
S'mov'
p356
sg25
S'0x80b9867L'
p357
sg27
Nsba(ibclass
BInstr
p358
(dp359
g2
Nsg17
S'sub     eax, [ebp+block_size]'
p360
sg19
S'2b4510'
p361
sg21
Vsub eax, dword ptr [ebp + 0x10]
p362
sg5
L134977642L
sg6
Nsg23
S'sub'
p363
sg25
S'0x80b986aL'
p364
sg27
Nsba(ibclass
BInstr
p365
(dp366
g2
Nsg17
S'mov     edx, eax'
p367
sg19
S'89c2'
p368
sg21
Vmov edx, eax
p369
sg5
L134977645L
sg6
Nsg23
S'mov'
p370
sg25
S'0x80b986dL'
p371
sg27
Nsba(ibclass
BInstr
p372
(dp373
g2
Nsg17
S'mov     eax, [ebp+rec]'
p374
sg19
S'8b450c'
p375
sg21
Vmov eax, dword ptr [ebp + 0xc]
p376
sg5
L134977647L
sg6
Nsg23
S'mov'
p377
sg25
S'0x80b986fL'
p378
sg27
Nsba(ibclass
BInstr
p379
(dp380
g2
Nsg17
S'mov     [eax+4], edx'
p381
sg19
S'895004'
p382
sg21
Vmov dword ptr [eax + 4], edx
p383
sg5
L134977650L
sg6
Nsg23
S'mov'
p384
sg25
S'0x80b9872L'
p385
sg27
Nsba(ibclass
BInstr
p386
(dp387
g2
Nsg17
S'jmp     short loc_80B988C'
p388
sg19
S'eb15'
p389
sg21
Vjmp 0x17
p390
sg5
L134977653L
sg6
Nsg23
S'jmp'
p391
sg25
S'0x80b9875L'
p392
sg27
Nsbasg91
(lp393
Vmov eax, mem
p394
aVmov edx, mem
p395
aVmov eax, mem
p396
ag285
aVmov eax, mem
p397
aVmov mem, edx
p398
aVmov eax, mem
p399
aVmov edx, mem
p400
aVmov eax, mem
p401
ag327
aVmov eax, mem
p402
aVmov mem, edx
p403
aVmov eax, mem
p404
aVmov eax, mem
p405
aVsub eax, mem
p406
ag369
aVmov eax, mem
p407
aVmov mem, edx
p408
aVjmp address
p409
asg100
Nsg5
S'0x80b9842L'
p410
sg102
(lp411
S'0x80b9826L'
p412
asg6
Nsg104
(lp413
S'0x80b988cL'
p414
asg108
Nsg109
Nsg110
S'74e70ac2cecb2afeb5dfd501bb3cb35e'
p415
sg112
S'9ee2140eb8457626ca17e50bff14d779'
p416
sg114
(lp417
g265
ag272
ag279
ag286
ag293
ag300
ag307
ag314
ag321
ag328
ag335
ag342
ag349
ag356
ag363
ag370
ag377
ag384
ag391
asg116
Nsba(ibclass
BBasicBlock
p418
(dp419
g12
Nsg13
(lp420
(ibclass
BInstr
p421
(dp422
g2
Nsg17
S'mov     eax, [ebp+rec]'
p423
sg19
S'8b450c'
p424
sg21
Vmov eax, dword ptr [ebp + 0xc]
p425
sg5
L134977655L
sg6
Nsg23
S'mov'
p426
sg25
S'0x80b9877L'
p427
sg27
Nsba(ibclass
BInstr
p428
(dp429
g2
Nsg17
S'mov     eax, [eax+4]'
p430
sg19
S'8b4004'
p431
sg21
Vmov eax, dword ptr [eax + 4]
p432
sg5
L134977658L
sg6
Nsg23
S'mov'
p433
sg25
S'0x80b987aL'
p434
sg27
Nsba(ibclass
BInstr
p435
(dp436
g2
Nsg17
S'cmp     eax, [ebp+overhead]'
p437
sg19
S'3b45f4'
p438
sg21
Vcmp eax, dword ptr [ebp - 0xc]
p439
sg5
L134977661L
sg6
Nsg23
S'cmp'
p440
sg25
S'0x80b987dL'
p441
sg27
Nsba(ibclass
BInstr
p442
(dp443
g2
Nsg17
S'jnb     short loc_80B988C'
p444
sg19
S'730a'
p445
sg21
Vjae 0xc
p446
sg5
L134977664L
sg6
Nsg23
S'jnb'
p447
sg25
S'0x80b9880L'
p448
sg27
Nsbasg91
(lp449
Vmov eax, mem
p450
aVmov eax, mem
p451
aVcmp eax, mem
p452
aVjae address
p453
asg100
Nsg5
S'0x80b9877L'
p454
sg102
(lp455
S'0x80b981aL'
p456
asg6
Nsg104
(lp457
S'0x80b9882L'
p458
aS'0x80b988cL'
p459
asg108
Nsg109
Nsg110
S'a79ac86182c622cfe619873ee4398f5d'
p460
sg112
S'1392e732051778c7cf1052a1510176c0'
p461
sg114
(lp462
g426
ag433
ag440
ag447
asg116
Nsba(ibclass
BBasicBlock
p463
(dp464
g12
Nsg13
(lp465
(ibclass
BInstr
p466
(dp467
g2
Nsg17
S'mov     eax, 0'
p468
sg19
S'b800000000'
p469
sg21
Vmov eax, 0
p470
sg5
L134977666L
sg6
Nsg23
S'mov'
p471
sg25
S'0x80b9882L'
p472
sg27
Nsba(ibclass
BInstr
p473
(dp474
g2
Nsg17
S'jmp     locret_80B9A4E'
p475
sg19
S'e9c2010000'
p476
sg21
Vjmp 0x1c7
p477
sg5
L134977671L
sg6
Nsg23
S'jmp'
p478
sg25
S'0x80b9887L'
p479
sg27
Nsbasg91
(lp480
g470
aVjmp address
p481
asg100
Nsg5
S'0x80b9882L'
p482
sg102
(lp483
S'0x80b9877L'
p484
asg6
Nsg104
(lp485
S'0x80b9a4eL'
p486
asg108
Nsg109
Nsg110
S'8b9a0d40e062be2b9b2d9885108fb196'
p487
sg112
S'bfbe752dd865c9a89011ba470eab331d'
p488
sg114
(lp489
g471
ag478
asg116
Nsba(ibclass
BBasicBlock
p490
(dp491
g12
Nsg13
(lp492
(ibclass
BInstr
p493
(dp494
g2
Nsg17
S'mov     eax, [ebp+rec]'
p495
sg19
S'8b450c'
p496
sg21
Vmov eax, dword ptr [ebp + 0xc]
p497
sg5
L134977676L
sg6
Nsg23
S'mov'
p498
sg25
S'0x80b988cL'
p499
sg27
Nsba(ibclass
BInstr
p500
(dp501
g2
Nsg17
S'mov     edx, [eax+0Ch]'
p502
sg19
S'8b500c'
p503
sg21
Vmov edx, dword ptr [eax + 0xc]
p504
sg5
L134977679L
sg6
Nsg23
S'mov'
p505
sg25
S'0x80b988fL'
p506
sg27
Nsba(ibclass
BInstr
p507
(dp508
g2
Nsg17
S'mov     eax, [ebp+rec]'
p509
sg19
S'8b450c'
p510
sg21
Vmov eax, dword ptr [ebp + 0xc]
p511
sg5
L134977682L
sg6
Nsg23
S'mov'
p512
sg25
S'0x80b9892L'
p513
sg27
Nsba(ibclass
BInstr
p514
(dp515
g2
Nsg17
S'mov     eax, [eax+4]'
p516
sg19
S'8b4004'
p517
sg21
Vmov eax, dword ptr [eax + 4]
p518
sg5
L134977685L
sg6
Nsg23
S'mov'
p519
sg25
S'0x80b9895L'
p520
sg27
Nsba(ibclass
BInstr
p521
(dp522
g2
Nsg17
S'dec     eax'
p523
sg19
S'48'
p524
sg21
Vdec eax
p525
sg5
L134977688L
sg6
Nsg23
S'dec'
p526
sg25
S'0x80b9898L'
p527
sg27
Nsba(ibclass
BInstr
p528
(dp529
g2
Nsg17
S'add     eax, edx'
p530
sg19
S'01d0'
p531
sg21
Vadd eax, edx
p532
sg5
L134977689L
sg6
Nsg23
S'add'
p533
sg25
S'0x80b9899L'
p534
sg27
Nsba(ibclass
BInstr
p535
(dp536
g2
Nsg17
S'mov     al, [eax]'
p537
sg19
S'8a00'
p538
sg21
Vmov al, byte ptr [eax]
p539
sg5
L134977691L
sg6
Nsg23
S'mov'
p540
sg25
S'0x80b989bL'
p541
sg27
Nsba(ibclass
BInstr
p542
(dp543
g2
Nsg17
S'and     eax, 0FFh'
p544
sg19
S'25ff000000'
p545
sg21
Vand eax, 0xff
p546
sg5
L134977693L
sg6
Nsg23
S'and'
p547
sg25
S'0x80b989dL'
p548
sg27
Nsba(ibclass
BInstr
p549
(dp550
g2
Nsg17
S'mov     [ebp+padding_length], eax'
p551
sg19
S'8945e4'
p552
sg21
Vmov dword ptr [ebp - 0x1c], eax
p553
sg5
L134977698L
sg6
Nsg23
S'mov'
p554
sg25
S'0x80b98a2L'
p555
sg27
Nsba(ibclass
BInstr
p556
(dp557
g2
Nsg17
S'mov     eax, [ebp+s]'
p558
sg19
S'8b4508'
p559
sg21
Vmov eax, dword ptr [ebp + 8]
p560
sg5
L134977701L
sg6
Nsg23
S'mov'
p561
sg25
S'0x80b98a5L'
p562
sg27
Nsba(ibclass
BInstr
p563
(dp564
g2
Nsg17
S'mov     eax, [eax+100h]'
p565
sg19
S'8b8000010000'
p566
sg21
Vmov eax, dword ptr [eax + 0x100]
p567
sg5
L134977704L
sg6
Nsg23
S'mov'
p568
sg25
S'0x80b98a8L'
p569
sg27
Nsba(ibclass
BInstr
p570
(dp571
g2
Nsg17
S'and     eax, 200h'
p572
sg19
S'2500020000'
p573
sg21
Vand eax, 0x200
p574
sg5
L134977710L
sg6
Nsg23
S'and'
p575
sg25
S'0x80b98aeL'
p576
sg27
Nsba(ibclass
BInstr
p577
(dp578
g2
Nsg17
S'test    eax, eax'
p579
sg19
S'85c0'
p580
sg21
Vtest eax, eax
p581
sg5
L134977715L
sg6
Nsg23
S'test'
p582
sg25
S'0x80b98b3L'
p583
sg27
Nsba(ibclass
BInstr
p584
(dp585
g2
Nsg17
S'jz      short loc_80B991E'
p586
sg19
S'7467'
p587
sg21
Vje 0x69
p588
sg5
L134977717L
sg6
Nsg23
S'jz'
p589
sg25
S'0x80b98b5L'
p590
sg27
Nsbasg91
(lp591
Vmov eax, mem
p592
aVmov edx, mem
p593
aVmov eax, mem
p594
aVmov eax, mem
p595
ag525
ag532
aVmov al, mem
p596
aVand eax, address
p597
aVmov mem, eax
p598
aVmov eax, mem
p599
aVmov eax, mem
p600
aVand eax, address
p601
ag581
aVje address
p602
asg100
Nsg5
S'0x80b988cL'
p603
sg102
(lp604
S'0x80b9842L'
p605
aS'0x80b9877L'
p606
asg6
Nsg104
(lp607
S'0x80b98b7L'
p608
aS'0x80b991eL'
p609
asg108
Nsg109
Nsg110
S'84467cc1bfb88ae5a46496dbce7e6ae5'
p610
sg112
S'0f7619f3c6277fd9c4e0dda4ddfbfe0b'
p611
sg114
(lp612
g498
ag505
ag512
ag519
ag526
ag533
ag540
ag547
ag554
ag561
ag568
ag575
ag582
ag589
asg116
Nsba(ibclass
BBasicBlock
p613
(dp614
g12
Nsg13
(lp615
(ibclass
BInstr
p616
(dp617
g2
Nsg17
S'mov     eax, [ebp+s]'
p618
sg19
S'8b4508'
p619
sg21
Vmov eax, dword ptr [ebp + 8]
p620
sg5
L134977719L
sg6
Nsg23
S'mov'
p621
sg25
S'0x80b98b7L'
p622
sg27
Nsba(ibclass
BInstr
p623
(dp624
g2
Nsg17
S'mov     eax, [eax+88h]'
p625
sg19
S'8b8088000000'
p626
sg21
Vmov eax, dword ptr [eax + 0x88]
p627
sg5
L134977722L
sg6
Nsg23
S'mov'
p628
sg25
S'0x80b98baL'
p629
sg27
Nsba(ibclass
BInstr
p630
(dp631
g2
Nsg17
S'test    eax, eax'
p632
sg19
S'85c0'
p633
sg21
Vtest eax, eax
p634
sg5
L134977728L
sg6
Nsg23
S'test'
p635
sg25
S'0x80b98c0L'
p636
sg27
Nsba(ibclass
BInstr
p637
(dp638
g2
Nsg17
S'jnz     short loc_80B991E'
p639
sg19
S'755a'
p640
sg21
Vjne 0x5c
p641
sg5
L134977730L
sg6
Nsg23
S'jnz'
p642
sg25
S'0x80b98c2L'
p643
sg27
Nsbasg91
(lp644
Vmov eax, mem
p645
aVmov eax, mem
p646
ag634
aVjne address
p647
asg100
Nsg5
S'0x80b98b7L'
p648
sg102
(lp649
S'0x80b988cL'
p650
asg6
Nsg104
(lp651
S'0x80b98c4L'
p652
aS'0x80b991eL'
p653
asg108
Nsg109
Nsg110
S'c659dbb3567582fe193bedd2c7eccb80'
p654
sg112
S'bf49e6fb415bfa3724765cd6082e6314'
p655
sg114
(lp656
g621
ag628
ag635
ag642
asg116
Nsba(ibclass
BBasicBlock
p657
(dp658
g12
Nsg13
(lp659
(ibclass
BInstr
p660
(dp661
g2
Nsg17
S'mov     eax, [ebp+s]'
p662
sg19
S'8b4508'
p663
sg21
Vmov eax, dword ptr [ebp + 8]
p664
sg5
L134977732L
sg6
Nsg23
S'mov'
p665
sg25
S'0x80b98c4L'
p666
sg27
Nsba(ibclass
BInstr
p667
(dp668
g2
Nsg17
S'mov     eax, [eax+58h]'
p669
sg19
S'8b4058'
p670
sg21
Vmov eax, dword ptr [eax + 0x58]
p671
sg5
L134977735L
sg6
Nsg23
S'mov'
p672
sg25
S'0x80b98c7L'
p673
sg27
Nsba(ibclass
BInstr
p674
(dp675
g2
Nsg17
S'add     eax, 8'
p676
sg19
S'83c008'
p677
sg21
Vadd eax, 8
p678
sg5
L134977738L
sg6
Nsg23
S'add'
p679
sg25
S'0x80b98caL'
p680
sg27
Nsba(ibclass
BInstr
p681
(dp682
g2
Nsg17
S'mov     dword ptr [esp+8], 8; len'
p683
sg19
S'c744240808000000'
p684
sg21
Vmov dword ptr [esp + 8], 8
p685
sg5
L134977741L
sg6
Nsg23
S'mov'
p686
sg25
S'0x80b98cdL'
p687
sg27
Nsba(ibclass
BInstr
p688
(dp689
g2
Nsg17
S'mov     dword ptr [esp+4], offset unk_8217FB8; in_b'
p690
sg19
S'c7442404b87f2108'
p691
sg21
Vmov dword ptr [esp + 4], 0x8217fb8
p692
sg5
L134977749L
sg6
Nsg23
S'mov'
p693
sg25
S'0x80b98d5L'
p694
sg27
Nsba(ibclass
BInstr
p695
(dp696
g2
Nsg17
S'mov     [esp], eax      ; in_a'
p697
sg19
S'890424'
p698
sg21
Vmov dword ptr [esp], eax
p699
sg5
L134977757L
sg6
Nsg23
S'mov'
p700
sg25
S'0x80b98ddL'
p701
sg27
Nsba(ibclass
BInstr
p702
(dp703
g2
Nsg17
S'call    CRYPTO_memcmp'
p704
sg19
S'e8cadd0200'
p705
sg21
Vcall 0x2ddcf
p706
sg5
L134977760L
sg6
Nsg23
S'call'
p707
sg25
S'0x80b98e0L'
p708
sg27
Nsba(ibclass
BInstr
p709
(dp710
g2
Nsg17
S'test    eax, eax'
p711
sg19
S'85c0'
p712
sg21
Vtest eax, eax
p713
sg5
L134977765L
sg6
Nsg23
S'test'
p714
sg25
S'0x80b98e5L'
p715
sg27
Nsba(ibclass
BInstr
p716
(dp717
g2
Nsg17
S'jnz     short loc_80B9906'
p718
sg19
S'751d'
p719
sg21
Vjne 0x1f
p720
sg5
L134977767L
sg6
Nsg23
S'jnz'
p721
sg25
S'0x80b98e7L'
p722
sg27
Nsbasg91
(lp723
Vmov eax, mem
p724
aVmov eax, mem
p725
ag678
aVmov mem, 8
p726
aVmov mem, address
p727
aVmov mem, eax
p728
aVcall address
p729
ag713
aVjne address
p730
asg100
Nsg5
S'0x80b98c4L'
p731
sg102
(lp732
S'0x80b98b7L'
p733
asg6
Nsg104
(lp734
S'0x80b98e9L'
p735
aS'0x80b9906L'
p736
asg108
Nsg109
Nsg110
S'483c5f1c80c0dfc90929717b4fe1607a'
p737
sg112
S'295b8687cf3e120c86201962407bffb9'
p738
sg114
(lp739
g665
ag672
ag679
ag686
ag693
ag700
ag707
ag714
ag721
asg116
Nsba(ibclass
BBasicBlock
p740
(dp741
g12
Nsg13
(lp742
(ibclass
BInstr
p743
(dp744
g2
Nsg17
S'mov     eax, [ebp+padding_length]'
p745
sg19
S'8b45e4'
p746
sg21
Vmov eax, dword ptr [ebp - 0x1c]
p747
sg5
L134977769L
sg6
Nsg23
S'mov'
p748
sg25
S'0x80b98e9L'
p749
sg27
Nsba(ibclass
BInstr
p750
(dp751
g2
Nsg17
S'and     eax, 1'
p752
sg19
S'83e001'
p753
sg21
Vand eax, 1
p754
sg5
L134977772L
sg6
Nsg23
S'and'
p755
sg25
S'0x80b98ecL'
p756
sg27
Nsba(ibclass
BInstr
p757
(dp758
g2
Nsg17
S'test    eax, eax'
p759
sg19
S'85c0'
p760
sg21
Vtest eax, eax
p761
sg5
L134977775L
sg6
Nsg23
S'test'
p762
sg25
S'0x80b98efL'
p763
sg27
Nsba(ibclass
BInstr
p764
(dp765
g2
Nsg17
S'jnz     short loc_80B9906'
p766
sg19
S'7513'
p767
sg21
Vjne 0x15
p768
sg5
L134977777L
sg6
Nsg23
S'jnz'
p769
sg25
S'0x80b98f1L'
p770
sg27
Nsbasg91
(lp771
Vmov eax, mem
p772
ag754
ag761
aVjne address
p773
asg100
Nsg5
S'0x80b98e9L'
p774
sg102
(lp775
S'0x80b98c4L'
p776
asg6
Nsg104
(lp777
S'0x80b98f3L'
p778
aS'0x80b9906L'
p779
asg108
Nsg109
Nsg110
S'534a8943baa2b2d6ffc4bce597750973'
p780
sg112
S'eb19bc62e38a9044655a3ee2604a4d36'
p781
sg114
(lp782
g748
ag755
ag762
ag769
asg116
Nsba(ibclass
BBasicBlock
p783
(dp784
g12
Nsg13
(lp785
(ibclass
BInstr
p786
(dp787
g2
Nsg17
S'mov     eax, [ebp+s]'
p788
sg19
S'8b4508'
p789
sg21
Vmov eax, dword ptr [ebp + 8]
p790
sg5
L134977779L
sg6
Nsg23
S'mov'
p791
sg25
S'0x80b98f3L'
p792
sg27
Nsba(ibclass
BInstr
p793
(dp794
g2
Nsg17
S'mov     eax, [eax+58h]'
p795
sg19
S'8b4058'
p796
sg21
Vmov eax, dword ptr [eax + 0x58]
p797
sg5
L134977782L
sg6
Nsg23
S'mov'
p798
sg25
S'0x80b98f6L'
p799
sg27
Nsba(ibclass
BInstr
p800
(dp801
g2
Nsg17
S'mov     edx, [ebp+s]'
p802
sg19
S'8b5508'
p803
sg21
Vmov edx, dword ptr [ebp + 8]
p804
sg5
L134977785L
sg6
Nsg23
S'mov'
p805
sg25
S'0x80b98f9L'
p806
sg27
Nsba(ibclass
BInstr
p807
(dp808
g2
Nsg17
S'mov     edx, [edx+58h]'
p809
sg19
S'8b5258'
p810
sg21
Vmov edx, dword ptr [edx + 0x58]
p811
sg5
L134977788L
sg6
Nsg23
S'mov'
p812
sg25
S'0x80b98fcL'
p813
sg27
Nsba(ibclass
BInstr
p814
(dp815
g2
Nsg17
S'mov     edx, [edx]'
p816
sg19
S'8b12'
p817
sg21
Vmov edx, dword ptr [edx]
p818
sg5
L134977791L
sg6
Nsg23
S'mov'
p819
sg25
S'0x80b98ffL'
p820
sg27
Nsba(ibclass
BInstr
p821
(dp822
g2
Nsg17
S'or      edx, 8'
p823
sg19
S'83ca08'
p824
sg21
Vor edx, 8
p825
sg5
L134977793L
sg6
Nsg23
S'or'
p826
sg25
S'0x80b9901L'
p827
sg27
Nsba(ibclass
BInstr
p828
(dp829
g2
Nsg17
S'mov     [eax], edx'
p830
sg19
S'8910'
p831
sg21
Vmov dword ptr [eax], edx
p832
sg5
L134977796L
sg6
Nsg23
S'mov'
p833
sg25
S'0x80b9904L'
p834
sg27
Nsbasg91
(lp835
Vmov eax, mem
p836
aVmov eax, mem
p837
aVmov edx, mem
p838
aVmov edx, mem
p839
aVmov edx, mem
p840
ag825
aVmov mem, edx
p841
asg100
Nsg5
S'0x80b98f3L'
p842
sg102
(lp843
S'0x80b98e9L'
p844
asg6
Nsg104
(lp845
S'0x80b9906L'
p846
asg108
Nsg109
Nsg110
S'ed154b29c9d33441fd8df07eb523781c'
p847
sg112
S'730bff5dfaeee61766cd2e3874b2302d'
p848
sg114
(lp849
g791
ag798
ag805
ag812
ag819
ag826
ag833
asg116
Nsba(ibclass
BBasicBlock
p850
(dp851
g12
Nsg13
(lp852
(ibclass
BInstr
p853
(dp854
g2
Nsg17
S'mov     eax, [ebp+s]'
p855
sg19
S'8b4508'
p856
sg21
Vmov eax, dword ptr [ebp + 8]
p857
sg5
L134977798L
sg6
Nsg23
S'mov'
p858
sg25
S'0x80b9906L'
p859
sg27
Nsba(ibclass
BInstr
p860
(dp861
g2
Nsg17
S'mov     eax, [eax+58h]'
p862
sg19
S'8b4058'
p863
sg21
Vmov eax, dword ptr [eax + 0x58]
p864
sg5
L134977801L
sg6
Nsg23
S'mov'
p865
sg25
S'0x80b9909L'
p866
sg27
Nsba(ibclass
BInstr
p867
(dp868
g2
Nsg17
S'mov     eax, [eax]'
p869
sg19
S'8b00'
p870
sg21
Vmov eax, dword ptr [eax]
p871
sg5
L134977804L
sg6
Nsg23
S'mov'
p872
sg25
S'0x80b990cL'
p873
sg27
Nsba(ibclass
BInstr
p874
(dp875
g2
Nsg17
S'and     eax, 8'
p876
sg19
S'83e008'
p877
sg21
Vand eax, 8
p878
sg5
L134977806L
sg6
Nsg23
S'and'
p879
sg25
S'0x80b990eL'
p880
sg27
Nsba(ibclass
BInstr
p881
(dp882
g2
Nsg17
S'test    eax, eax'
p883
sg19
S'85c0'
p884
sg21
Vtest eax, eax
p885
sg5
L134977809L
sg6
Nsg23
S'test'
p886
sg25
S'0x80b9911L'
p887
sg27
Nsba(ibclass
BInstr
p888
(dp889
g2
Nsg17
S'jz      short loc_80B991E'
p890
sg19
S'7409'
p891
sg21
Vje 0xb
p892
sg5
L134977811L
sg6
Nsg23
S'jz'
p893
sg25
S'0x80b9913L'
p894
sg27
Nsbasg91
(lp895
Vmov eax, mem
p896
aVmov eax, mem
p897
aVmov eax, mem
p898
ag878
ag885
aVje address
p899
asg100
Nsg5
S'0x80b9906L'
p900
sg102
(lp901
S'0x80b98c4L'
p902
aS'0x80b98e9L'
p903
aS'0x80b98f3L'
p904
asg6
Nsg104
(lp905
S'0x80b9915L'
p906
aS'0x80b991eL'
p907
asg108
Nsg109
Nsg110
S'943997e92e7157b6509631c6ee6d8fb7'
p908
sg112
S'd6d2232db6f3eef50235cef1114e20dd'
p909
sg114
(lp910
g858
ag865
ag872
ag879
ag886
ag893
asg116
Nsba(ibclass
BBasicBlock
p911
(dp912
g12
Nsg13
(lp913
(ibclass
BInstr
p914
(dp915
g2
Nsg17
S'cmp     [ebp+padding_length], 0'
p916
sg19
S'837de400'
p917
sg21
Vcmp dword ptr [ebp - 0x1c], 0
p918
sg5
L134977813L
sg6
Nsg23
S'cmp'
p919
sg25
S'0x80b9915L'
p920
sg27
Nsba(ibclass
BInstr
p921
(dp922
g2
Nsg17
S'jz      short loc_80B991E'
p923
sg19
S'7403'
p924
sg21
Vje 5
p925
sg5
L134977817L
sg6
Nsg23
S'jz'
p926
sg25
S'0x80b9919L'
p927
sg27
Nsbasg91
(lp928
Vcmp mem, 0
p929
ag925
asg100
Nsg5
S'0x80b9915L'
p930
sg102
(lp931
S'0x80b9906L'
p932
asg6
Nsg104
(lp933
S'0x80b991bL'
p934
aS'0x80b991eL'
p935
asg108
Nsg109
Nsg110
S'613dbc2b0cb9d6264d802b24d709daea'
p936
sg112
S'17517987591bc50cd5a7ee36752fa897'
p937
sg114
(lp938
g919
ag926
asg116
Nsba(ibclass
BBasicBlock
p939
(dp940
g12
Nsg13
(lp941
(ibclass
BInstr
p942
(dp943
g2
Nsg17
S'dec     [ebp+padding_length]'
p944
sg19
S'ff4de4'
p945
sg21
Vdec dword ptr [ebp - 0x1c]
p946
sg5
L134977819L
sg6
Nsg23
S'dec'
p947
sg25
S'0x80b991bL'
p948
sg27
Nsbasg91
(lp949
Vdec mem
p950
asg100
Nsg5
S'0x80b991bL'
p951
sg102
(lp952
S'0x80b9915L'
p953
asg6
Nsg104
(lp954
S'0x80b991eL'
p955
asg108
Nsg109
Nsg110
S'1feea25ecb958229287f885aebe7c49b'
p956
sg112
S'94312171729c9a068e5aab0eead6010a'
p957
sg114
(lp958
g947
asg116
Nsba(ibclass
BBasicBlock
p959
(dp960
g12
Nsg13
(lp961
(ibclass
BInstr
p962
(dp963
g2
Nsg17
S'mov     eax, [ebp+s]'
p964
sg19
S'8b4508'
p965
sg21
Vmov eax, dword ptr [ebp + 8]
p966
sg5
L134977822L
sg6
Nsg23
S'mov'
p967
sg25
S'0x80b991eL'
p968
sg27
Nsba(ibclass
BInstr
p969
(dp970
g2
Nsg17
S'mov     eax, [eax+80h]'
p971
sg19
S'8b8080000000'
p972
sg21
Vmov eax, dword ptr [eax + 0x80]
p973
sg5
L134977825L
sg6
Nsg23
S'mov'
p974
sg25
S'0x80b9921L'
p975
sg27
Nsba(ibclass
BInstr
p976
(dp977
g2
Nsg17
S'mov     eax, [eax]'
p978
sg19
S'8b00'
p979
sg21
Vmov eax, dword ptr [eax]
p980
sg5
L134977831L
sg6
Nsg23
S'mov'
p981
sg25
S'0x80b9927L'
p982
sg27
Nsba(ibclass
BInstr
p983
(dp984
g2
Nsg17
S'mov     [esp], eax      ; cipher'
p985
sg19
S'890424'
p986
sg21
Vmov dword ptr [esp], eax
p987
sg5
L134977833L
sg6
Nsg23
S'mov'
p988
sg25
S'0x80b9929L'
p989
sg27
Nsba(ibclass
BInstr
p990
(dp991
g2
Nsg17
S'call    EVP_CIPHER_flags'
p992
sg19
S'e8e91f0900'
p993
sg21
Vcall 0x91fee
p994
sg5
L134977836L
sg6
Nsg23
S'call'
p995
sg25
S'0x80b992cL'
p996
sg27
Nsba(ibclass
BInstr
p997
(dp998
g2
Nsg17
S'and     eax, 200000h'
p999
sg19
S'2500002000'
p1000
sg21
Vand eax, 0x200000
p1001
sg5
L134977841L
sg6
Nsg23
S'and'
p1002
sg25
S'0x80b9931L'
p1003
sg27
Nsba(ibclass
BInstr
p1004
(dp1005
g2
Nsg17
S'test    eax, eax'
p1006
sg19
S'85c0'
p1007
sg21
Vtest eax, eax
p1008
sg5
L134977846L
sg6
Nsg23
S'test'
p1009
sg25
S'0x80b9936L'
p1010
sg27
Nsba(ibclass
BInstr
p1011
(dp1012
g2
Nsg17
S'jz      short loc_80B9956'
p1013
sg19
S'741c'
p1014
sg21
Vje 0x1e
p1015
sg5
L134977848L
sg6
Nsg23
S'jz'
p1016
sg25
S'0x80b9938L'
p1017
sg27
Nsbasg91
(lp1018
Vmov eax, mem
p1019
aVmov eax, mem
p1020
aVmov eax, mem
p1021
aVmov mem, eax
p1022
aVcall address
p1023
aVand eax, address
p1024
ag1008
aVje address
p1025
asg100
Nsg5
S'0x80b991eL'
p1026
sg102
(lp1027
S'0x80b988cL'
p1028
aS'0x80b98b7L'
p1029
aS'0x80b9906L'
p1030
aS'0x80b9915L'
p1031
aS'0x80b991bL'
p1032
asg6
Nsg104
(lp1033
S'0x80b993aL'
p1034
aS'0x80b9956L'
p1035
asg108
Nsg109
Nsg110
S'4fce8cc09b4fd9a57d8dc0bce7b29f4a'
p1036
sg112
S'bb0b6f9314a5851f4d868e2a90edf98b'
p1037
sg114
(lp1038
g967
ag974
ag981
ag988
ag995
ag1002
ag1009
ag1016
asg116
Nsba(ibclass
BBasicBlock
p1039
(dp1040
g12
Nsg13
(lp1041
(ibclass
BInstr
p1042
(dp1043
g2
Nsg17
S'mov     eax, [ebp+rec]'
p1044
sg19
S'8b450c'
p1045
sg21
Vmov eax, dword ptr [ebp + 0xc]
p1046
sg5
L134977850L
sg6
Nsg23
S'mov'
p1047
sg25
S'0x80b993aL'
p1048
sg27
Nsba(ibclass
BInstr
p1049
(dp1050
g2
Nsg17
S'mov     eax, [eax+4]'
p1051
sg19
S'8b4004'
p1052
sg21
Vmov eax, dword ptr [eax + 4]
p1053
sg5
L134977853L
sg6
Nsg23
S'mov'
p1054
sg25
S'0x80b993dL'
p1055
sg27
Nsba(ibclass
BInstr
p1056
(dp1057
g2
Nsg17
S'sub     eax, [ebp+padding_length]'
p1058
sg19
S'2b45e4'
p1059
sg21
Vsub eax, dword ptr [ebp - 0x1c]
p1060
sg5
L134977856L
sg6
Nsg23
S'sub'
p1061
sg25
S'0x80b9940L'
p1062
sg27
Nsba(ibclass
BInstr
p1063
(dp1064
g2
Nsg17
S'lea     edx, [eax-1]'
p1065
sg19
S'8d50ff'
p1066
sg21
Vlea edx, [eax - 1]
p1067
sg5
L134977859L
sg6
Nsg23
S'lea'
p1068
sg25
S'0x80b9943L'
p1069
sg27
Nsba(ibclass
BInstr
p1070
(dp1071
g2
Nsg17
S'mov     eax, [ebp+rec]'
p1072
sg19
S'8b450c'
p1073
sg21
Vmov eax, dword ptr [ebp + 0xc]
p1074
sg5
L134977862L
sg6
Nsg23
S'mov'
p1075
sg25
S'0x80b9946L'
p1076
sg27
Nsba(ibclass
BInstr
p1077
(dp1078
g2
Nsg17
S'mov     [eax+4], edx'
p1079
sg19
S'895004'
p1080
sg21
Vmov dword ptr [eax + 4], edx
p1081
sg5
L134977865L
sg6
Nsg23
S'mov'
p1082
sg25
S'0x80b9949L'
p1083
sg27
Nsba(ibclass
BInstr
p1084
(dp1085
g2
Nsg17
S'mov     eax, 1'
p1086
sg19
S'b801000000'
p1087
sg21
Vmov eax, 1
p1088
sg5
L134977868L
sg6
Nsg23
S'mov'
p1089
sg25
S'0x80b994cL'
p1090
sg27
Nsba(ibclass
BInstr
p1091
(dp1092
g2
Nsg17
S'jmp     locret_80B9A4E'
p1093
sg19
S'e9f8000000'
p1094
sg21
Vjmp 0xfd
p1095
sg5
L134977873L
sg6
Nsg23
S'jmp'
p1096
sg25
S'0x80b9951L'
p1097
sg27
Nsbasg91
(lp1098
Vmov eax, mem
p1099
aVmov eax, mem
p1100
aVsub eax, mem
p1101
aVlea edx, mem
p1102
aVmov eax, mem
p1103
aVmov mem, edx
p1104
ag1088
aVjmp address
p1105
asg100
Nsg5
S'0x80b993aL'
p1106
sg102
(lp1107
S'0x80b991eL'
p1108
asg6
Nsg104
(lp1109
S'0x80b9a4eL'
p1110
asg108
Nsg109
Nsg110
S'a9cbb5f21f7cc646d14b8cc3f03c86de'
p1111
sg112
S'2e3c4c3cb586cea494ab5620acde749e'
p1112
sg114
(lp1113
g1047
ag1054
ag1061
ag1068
ag1075
ag1082
ag1089
ag1096
asg116
Nsba(ibclass
BBasicBlock
p1114
(dp1115
g12
Nsg13
(lp1116
(ibclass
BInstr
p1117
(dp1118
g2
Nsg17
S'mov     eax, [ebp+padding_length]'
p1119
sg19
S'8b45e4'
p1120
sg21
Vmov eax, dword ptr [ebp - 0x1c]
p1121
sg5
L134977878L
sg6
Nsg23
S'mov'
p1122
sg25
S'0x80b9956L'
p1123
sg27
Nsba(ibclass
BInstr
p1124
(dp1125
g2
Nsg17
S'mov     edx, [ebp+overhead]'
p1126
sg19
S'8b55f4'
p1127
sg21
Vmov edx, dword ptr [ebp - 0xc]
p1128
sg5
L134977881L
sg6
Nsg23
S'mov'
p1129
sg25
S'0x80b9959L'
p1130
sg27
Nsba(ibclass
BInstr
p1131
(dp1132
g2
Nsg17
S'add     edx, eax'
p1133
sg19
S'01c2'
p1134
sg21
Vadd edx, eax
p1135
sg5
L134977884L
sg6
Nsg23
S'add'
p1136
sg25
S'0x80b995cL'
p1137
sg27
Nsba(ibclass
BInstr
p1138
(dp1139
g2
Nsg17
S'mov     eax, [ebp+rec]'
p1140
sg19
S'8b450c'
p1141
sg21
Vmov eax, dword ptr [ebp + 0xc]
p1142
sg5
L134977886L
sg6
Nsg23
S'mov'
p1143
sg25
S'0x80b995eL'
p1144
sg27
Nsba(ibclass
BInstr
p1145
(dp1146
g2
Nsg17
S'mov     eax, [eax+4]'
p1147
sg19
S'8b4004'
p1148
sg21
Vmov eax, dword ptr [eax + 4]
p1149
sg5
L134977889L
sg6
Nsg23
S'mov'
p1150
sg25
S'0x80b9961L'
p1151
sg27
Nsba(ibclass
BInstr
p1152
(dp1153
g2
Nsg17
S'mov     [esp+4], edx    ; b'
p1154
sg19
S'89542404'
p1155
sg21
Vmov dword ptr [esp + 4], edx
p1156
sg5
L134977892L
sg6
Nsg23
S'mov'
p1157
sg25
S'0x80b9964L'
p1158
sg27
Nsba(ibclass
BInstr
p1159
(dp1160
g2
Nsg17
S'mov     [esp], eax      ; a'
p1161
sg19
S'890424'
p1162
sg21
Vmov dword ptr [esp], eax
p1163
sg5
L134977896L
sg6
Nsg23
S'mov'
p1164
sg25
S'0x80b9968L'
p1165
sg27
Nsba(ibclass
BInstr
p1166
(dp1167
g2
Nsg17
S'call    constant_time_ge'
p1168
sg19
S'e8dafcffff'
p1169
sg21
Vcall 0xfffffcdf
p1170
sg5
L134977899L
sg6
Nsg23
S'call'
p1171
sg25
S'0x80b996bL'
p1172
sg27
Nsba(ibclass
BInstr
p1173
(dp1174
g2
Nsg17
S'mov     [ebp+good], eax'
p1175
sg19
S'8945e8'
p1176
sg21
Vmov dword ptr [ebp - 0x18], eax
p1177
sg5
L134977904L
sg6
Nsg23
S'mov'
p1178
sg25
S'0x80b9970L'
p1179
sg27
Nsba(ibclass
BInstr
p1180
(dp1181
g2
Nsg17
S'mov     [ebp+to_check], 0FFh'
p1182
sg19
S'c745ecff000000'
p1183
sg21
Vmov dword ptr [ebp - 0x14], 0xff
p1184
sg5
L134977907L
sg6
Nsg23
S'mov'
p1185
sg25
S'0x80b9973L'
p1186
sg27
Nsba(ibclass
BInstr
p1187
(dp1188
g2
Nsg17
S'mov     eax, [ebp+rec]'
p1189
sg19
S'8b450c'
p1190
sg21
Vmov eax, dword ptr [ebp + 0xc]
p1191
sg5
L134977914L
sg6
Nsg23
S'mov'
p1192
sg25
S'0x80b997aL'
p1193
sg27
Nsba(ibclass
BInstr
p1194
(dp1195
g2
Nsg17
S'mov     eax, [eax+4]'
p1196
sg19
S'8b4004'
p1197
sg21
Vmov eax, dword ptr [eax + 4]
p1198
sg5
L134977917L
sg6
Nsg23
S'mov'
p1199
sg25
S'0x80b997dL'
p1200
sg27
Nsba(ibclass
BInstr
p1201
(dp1202
g2
Nsg17
S'dec     eax'
p1203
sg19
S'48'
p1204
sg21
Vdec eax
p1205
sg5
L134977920L
sg6
Nsg23
S'dec'
p1206
sg25
S'0x80b9980L'
p1207
sg27
Nsba(ibclass
BInstr
p1208
(dp1209
g2
Nsg17
S'cmp     eax, [ebp+to_check]'
p1210
sg19
S'3b45ec'
p1211
sg21
Vcmp eax, dword ptr [ebp - 0x14]
p1212
sg5
L134977921L
sg6
Nsg23
S'cmp'
p1213
sg25
S'0x80b9981L'
p1214
sg27
Nsba(ibclass
BInstr
p1215
(dp1216
g2
Nsg17
S'jnb     short loc_80B9990'
p1217
sg19
S'730a'
p1218
sg21
Vjae 0xc
p1219
sg5
L134977924L
sg6
Nsg23
S'jnb'
p1220
sg25
S'0x80b9984L'
p1221
sg27
Nsbasg91
(lp1222
Vmov eax, mem
p1223
aVmov edx, mem
p1224
ag1135
aVmov eax, mem
p1225
aVmov eax, mem
p1226
aVmov mem, edx
p1227
aVmov mem, eax
p1228
aVcall address
p1229
aVmov mem, eax
p1230
aVmov mem, address
p1231
aVmov eax, mem
p1232
aVmov eax, mem
p1233
ag1205
aVcmp eax, mem
p1234
aVjae address
p1235
asg100
Nsg5
S'0x80b9956L'
p1236
sg102
(lp1237
S'0x80b991eL'
p1238
asg6
Nsg104
(lp1239
S'0x80b9986L'
p1240
aS'0x80b9990L'
p1241
asg108
Nsg109
Nsg110
S'107313c3d693a82b01399ad077633d8e'
p1242
sg112
S'128fd6531e421f2b118cf864d74bb516'
p1243
sg114
(lp1244
g1122
ag1129
ag1136
ag1143
ag1150
ag1157
ag1164
ag1171
ag1178
ag1185
ag1192
ag1199
ag1206
ag1213
ag1220
asg116
Nsba(ibclass
BBasicBlock
p1245
(dp1246
g12
Nsg13
(lp1247
(ibclass
BInstr
p1248
(dp1249
g2
Nsg17
S'mov     eax, [ebp+rec]'
p1250
sg19
S'8b450c'
p1251
sg21
Vmov eax, dword ptr [ebp + 0xc]
p1252
sg5
L134977926L
sg6
Nsg23
S'mov'
p1253
sg25
S'0x80b9986L'
p1254
sg27
Nsba(ibclass
BInstr
p1255
(dp1256
g2
Nsg17
S'mov     eax, [eax+4]'
p1257
sg19
S'8b4004'
p1258
sg21
Vmov eax, dword ptr [eax + 4]
p1259
sg5
L134977929L
sg6
Nsg23
S'mov'
p1260
sg25
S'0x80b9989L'
p1261
sg27
Nsba(ibclass
BInstr
p1262
(dp1263
g2
Nsg17
S'dec     eax'
p1264
sg19
S'48'
p1265
sg21
Vdec eax
p1266
sg5
L134977932L
sg6
Nsg23
S'dec'
p1267
sg25
S'0x80b998cL'
p1268
sg27
Nsba(ibclass
BInstr
p1269
(dp1270
g2
Nsg17
S'mov     [ebp+to_check], eax'
p1271
sg19
S'8945ec'
p1272
sg21
Vmov dword ptr [ebp - 0x14], eax
p1273
sg5
L134977933L
sg6
Nsg23
S'mov'
p1274
sg25
S'0x80b998dL'
p1275
sg27
Nsbasg91
(lp1276
Vmov eax, mem
p1277
aVmov eax, mem
p1278
ag1266
aVmov mem, eax
p1279
asg100
Nsg5
S'0x80b9986L'
p1280
sg102
(lp1281
S'0x80b9956L'
p1282
asg6
Nsg104
(lp1283
S'0x80b9990L'
p1284
asg108
Nsg109
Nsg110
S'1373fab7ccaab40fda42f0500790ab84'
p1285
sg112
S'43d9ae3e864179d74672e6fad01a3700'
p1286
sg114
(lp1287
g1253
ag1260
ag1267
ag1274
asg116
Nsba(ibclass
BBasicBlock
p1288
(dp1289
g12
Nsg13
(lp1290
(ibclass
BInstr
p1291
(dp1292
g2
Nsg17
S'mov     [ebp+i], 0'
p1293
sg19
S'c745f000000000'
p1294
sg21
Vmov dword ptr [ebp - 0x10], 0
p1295
sg5
L134977936L
sg6
Nsg23
S'mov'
p1296
sg25
S'0x80b9990L'
p1297
sg27
Nsba(ibclass
BInstr
p1298
(dp1299
g2
Nsg17
S'jmp     short loc_80B99E1'
p1300
sg19
S'eb48'
p1301
sg21
Vjmp 0x4a
p1302
sg5
L134977943L
sg6
Nsg23
S'jmp'
p1303
sg25
S'0x80b9997L'
p1304
sg27
Nsbasg91
(lp1305
Vmov mem, 0
p1306
aVjmp address
p1307
asg100
Nsg5
S'0x80b9990L'
p1308
sg102
(lp1309
S'0x80b9956L'
p1310
aS'0x80b9986L'
p1311
asg6
Nsg104
(lp1312
S'0x80b99e1L'
p1313
asg108
Nsg109
Nsg110
S'8b9a0d40e062be2b9b2d9885108fb196'
p1314
sg112
S'f299da28b698e6b26e771c23d7997a23'
p1315
sg114
(lp1316
g1296
ag1303
asg116
Nsba(ibclass
BBasicBlock
p1317
(dp1318
g12
Nsg13
(lp1319
(ibclass
BInstr
p1320
(dp1321
g2
Nsg17
S'mov     eax, [ebp+i]'
p1322
sg19
S'8b45f0'
p1323
sg21
Vmov eax, dword ptr [ebp - 0x10]
p1324
sg5
L134977945L
sg6
Nsg23
S'mov'
p1325
sg25
S'0x80b9999L'
p1326
sg27
Nsba(ibclass
BInstr
p1327
(dp1328
g2
Nsg17
S'mov     [esp+4], eax    ; b'
p1329
sg19
S'89442404'
p1330
sg21
Vmov dword ptr [esp + 4], eax
p1331
sg5
L134977948L
sg6
Nsg23
S'mov'
p1332
sg25
S'0x80b999cL'
p1333
sg27
Nsba(ibclass
BInstr
p1334
(dp1335
g2
Nsg17
S'mov     eax, [ebp+padding_length]'
p1336
sg19
S'8b45e4'
p1337
sg21
Vmov eax, dword ptr [ebp - 0x1c]
p1338
sg5
L134977952L
sg6
Nsg23
S'mov'
p1339
sg25
S'0x80b99a0L'
p1340
sg27
Nsba(ibclass
BInstr
p1341
(dp1342
g2
Nsg17
S'mov     [esp], eax      ; a'
p1343
sg19
S'890424'
p1344
sg21
Vmov dword ptr [esp], eax
p1345
sg5
L134977955L
sg6
Nsg23
S'mov'
p1346
sg25
S'0x80b99a3L'
p1347
sg27
Nsba(ibclass
BInstr
p1348
(dp1349
g2
Nsg17
S'call    constant_time_ge_8'
p1350
sg19
S'e8bbfcffff'
p1351
sg21
Vcall 0xfffffcc0
p1352
sg5
L134977958L
sg6
Nsg23
S'call'
p1353
sg25
S'0x80b99a6L'
p1354
sg27
Nsba(ibclass
BInstr
p1355
(dp1356
g2
Nsg17
S'mov     [ebp+mask], al'
p1357
sg19
S'8845e2'
p1358
sg21
Vmov byte ptr [ebp - 0x1e], al
p1359
sg5
L134977963L
sg6
Nsg23
S'mov'
p1360
sg25
S'0x80b99abL'
p1361
sg27
Nsba(ibclass
BInstr
p1362
(dp1363
g2
Nsg17
S'mov     eax, [ebp+rec]'
p1364
sg19
S'8b450c'
p1365
sg21
Vmov eax, dword ptr [ebp + 0xc]
p1366
sg5
L134977966L
sg6
Nsg23
S'mov'
p1367
sg25
S'0x80b99aeL'
p1368
sg27
Nsba(ibclass
BInstr
p1369
(dp1370
g2
Nsg17
S'mov     edx, [eax+0Ch]'
p1371
sg19
S'8b500c'
p1372
sg21
Vmov edx, dword ptr [eax + 0xc]
p1373
sg5
L134977969L
sg6
Nsg23
S'mov'
p1374
sg25
S'0x80b99b1L'
p1375
sg27
Nsba(ibclass
BInstr
p1376
(dp1377
g2
Nsg17
S'mov     eax, [ebp+rec]'
p1378
sg19
S'8b450c'
p1379
sg21
Vmov eax, dword ptr [ebp + 0xc]
p1380
sg5
L134977972L
sg6
Nsg23
S'mov'
p1381
sg25
S'0x80b99b4L'
p1382
sg27
Nsba(ibclass
BInstr
p1383
(dp1384
g2
Nsg17
S'mov     eax, [eax+4]'
p1385
sg19
S'8b4004'
p1386
sg21
Vmov eax, dword ptr [eax + 4]
p1387
sg5
L134977975L
sg6
Nsg23
S'mov'
p1388
sg25
S'0x80b99b7L'
p1389
sg27
Nsba(ibclass
BInstr
p1390
(dp1391
g2
Nsg17
S'sub     eax, [ebp+i]'
p1392
sg19
S'2b45f0'
p1393
sg21
Vsub eax, dword ptr [ebp - 0x10]
p1394
sg5
L134977978L
sg6
Nsg23
S'sub'
p1395
sg25
S'0x80b99baL'
p1396
sg27
Nsba(ibclass
BInstr
p1397
(dp1398
g2
Nsg17
S'dec     eax'
p1399
sg19
S'48'
p1400
sg21
Vdec eax
p1401
sg5
L134977981L
sg6
Nsg23
S'dec'
p1402
sg25
S'0x80b99bdL'
p1403
sg27
Nsba(ibclass
BInstr
p1404
(dp1405
g2
Nsg17
S'add     eax, edx'
p1406
sg19
S'01d0'
p1407
sg21
Vadd eax, edx
p1408
sg5
L134977982L
sg6
Nsg23
S'add'
p1409
sg25
S'0x80b99beL'
p1410
sg27
Nsba(ibclass
BInstr
p1411
(dp1412
g2
Nsg17
S'mov     al, [eax]'
p1413
sg19
S'8a00'
p1414
sg21
Vmov al, byte ptr [eax]
p1415
sg5
L134977984L
sg6
Nsg23
S'mov'
p1416
sg25
S'0x80b99c0L'
p1417
sg27
Nsba(ibclass
BInstr
p1418
(dp1419
g2
Nsg17
S'mov     [ebp+b], al'
p1420
sg19
S'8845e3'
p1421
sg21
Vmov byte ptr [ebp - 0x1d], al
p1422
sg5
L134977986L
sg6
Nsg23
S'mov'
p1423
sg25
S'0x80b99c2L'
p1424
sg27
Nsba(ibclass
BInstr
p1425
(dp1426
g2
Nsg17
S'mov     al, [ebp+mask]'
p1427
sg19
S'8a45e2'
p1428
sg21
Vmov al, byte ptr [ebp - 0x1e]
p1429
sg5
L134977989L
sg6
Nsg23
S'mov'
p1430
sg25
S'0x80b99c5L'
p1431
sg27
Nsba(ibclass
BInstr
p1432
(dp1433
g2
Nsg17
S'xor     edx, edx'
p1434
sg19
S'31d2'
p1435
sg21
Vxor edx, edx
p1436
sg5
L134977992L
sg6
Nsg23
S'xor'
p1437
sg25
S'0x80b99c8L'
p1438
sg27
Nsba(ibclass
BInstr
p1439
(dp1440
g2
Nsg17
S'mov     dl, al'
p1441
sg19
S'88c2'
p1442
sg21
Vmov dl, al
p1443
sg5
L134977994L
sg6
Nsg23
S'mov'
p1444
sg25
S'0x80b99caL'
p1445
sg27
Nsba(ibclass
BInstr
p1446
(dp1447
g2
Nsg17
S'mov     al, [ebp+b]'
p1448
sg19
S'8a45e3'
p1449
sg21
Vmov al, byte ptr [ebp - 0x1d]
p1450
sg5
L134977996L
sg6
Nsg23
S'mov'
p1451
sg25
S'0x80b99ccL'
p1452
sg27
Nsba(ibclass
BInstr
p1453
(dp1454
g2
Nsg17
S'and     eax, 0FFh'
p1455
sg19
S'25ff000000'
p1456
sg21
Vand eax, 0xff
p1457
sg5
L134977999L
sg6
Nsg23
S'and'
p1458
sg25
S'0x80b99cfL'
p1459
sg27
Nsba(ibclass
BInstr
p1460
(dp1461
g2
Nsg17
S'xor     eax, [ebp+padding_length]'
p1462
sg19
S'3345e4'
p1463
sg21
Vxor eax, dword ptr [ebp - 0x1c]
p1464
sg5
L134978004L
sg6
Nsg23
S'xor'
p1465
sg25
S'0x80b99d4L'
p1466
sg27
Nsba(ibclass
BInstr
p1467
(dp1468
g2
Nsg17
S'and     eax, edx'
p1469
sg19
S'21d0'
p1470
sg21
Vand eax, edx
p1471
sg5
L134978007L
sg6
Nsg23
S'and'
p1472
sg25
S'0x80b99d7L'
p1473
sg27
Nsba(ibclass
BInstr
p1474
(dp1475
g2
Nsg17
S'not     eax'
p1476
sg19
S'f7d0'
p1477
sg21
Vnot eax
p1478
sg5
L134978009L
sg6
Nsg23
S'not'
p1479
sg25
S'0x80b99d9L'
p1480
sg27
Nsba(ibclass
BInstr
p1481
(dp1482
g2
Nsg17
S'and     [ebp+good], eax'
p1483
sg19
S'2145e8'
p1484
sg21
Vand dword ptr [ebp - 0x18], eax
p1485
sg5
L134978011L
sg6
Nsg23
S'and'
p1486
sg25
S'0x80b99dbL'
p1487
sg27
Nsba(ibclass
BInstr
p1488
(dp1489
g2
Nsg17
S'inc     [ebp+i]'
p1490
sg19
S'ff45f0'
p1491
sg21
Vinc dword ptr [ebp - 0x10]
p1492
sg5
L134978014L
sg6
Nsg23
S'inc'
p1493
sg25
S'0x80b99deL'
p1494
sg27
Nsbasg91
(lp1495
Vmov eax, mem
p1496
aVmov mem, eax
p1497
aVmov eax, mem
p1498
aVmov mem, eax
p1499
aVcall address
p1500
aVmov mem, al
p1501
aVmov eax, mem
p1502
aVmov edx, mem
p1503
aVmov eax, mem
p1504
aVmov eax, mem
p1505
aVsub eax, mem
p1506
ag1401
ag1408
aVmov al, mem
p1507
aVmov mem, al
p1508
aVmov al, mem
p1509
ag1436
ag1443
aVmov al, mem
p1510
aVand eax, address
p1511
aVxor eax, mem
p1512
ag1471
ag1478
aVand mem, eax
p1513
aVinc mem
p1514
asg100
Nsg5
S'0x80b9999L'
p1515
sg102
(lp1516
S'0x80b99e1L'
p1517
asg6
Nsg104
(lp1518
S'0x80b99e1L'
p1519
asg108
Nsg109
Nsg110
S'98a81ad3959b6bc4350649d192cf09c0'
p1520
sg112
S'e3c8da69825c931726efaf7939d3b1e6'
p1521
sg114
(lp1522
g1325
ag1332
ag1339
ag1346
ag1353
ag1360
ag1367
ag1374
ag1381
ag1388
ag1395
ag1402
ag1409
ag1416
ag1423
ag1430
ag1437
ag1444
ag1451
ag1458
ag1465
ag1472
ag1479
ag1486
ag1493
asg116
Nsba(ibclass
BBasicBlock
p1523
(dp1524
g12
Nsg13
(lp1525
(ibclass
BInstr
p1526
(dp1527
g2
Nsg17
S'mov     eax, [ebp+i]'
p1528
sg19
S'8b45f0'
p1529
sg21
Vmov eax, dword ptr [ebp - 0x10]
p1530
sg5
L134978017L
sg6
Nsg23
S'mov'
p1531
sg25
S'0x80b99e1L'
p1532
sg27
Nsba(ibclass
BInstr
p1533
(dp1534
g2
Nsg17
S'cmp     eax, [ebp+to_check]'
p1535
sg19
S'3b45ec'
p1536
sg21
Vcmp eax, dword ptr [ebp - 0x14]
p1537
sg5
L134978020L
sg6
Nsg23
S'cmp'
p1538
sg25
S'0x80b99e4L'
p1539
sg27
Nsba(ibclass
BInstr
p1540
(dp1541
g2
Nsg17
S'jb      short loc_80B9999'
p1542
sg19
S'72b0'
p1543
sg21
Vjb 0xffffffb2
p1544
sg5
L134978023L
sg6
Nsg23
S'jb'
p1545
sg25
S'0x80b99e7L'
p1546
sg27
Nsbasg91
(lp1547
Vmov eax, mem
p1548
aVcmp eax, mem
p1549
aVjb address
p1550
asg100
Nsg5
S'0x80b99e1L'
p1551
sg102
(lp1552
S'0x80b9990L'
p1553
aS'0x80b9999L'
p1554
asg6
Nsg104
(lp1555
S'0x80b9999L'
p1556
aS'0x80b99e9L'
p1557
asg108
Nsg109
Nsg110
S'b540779d59e0e9ce8517b7536c917491'
p1558
sg112
S'4adb0530a53e87327810db4c21f4620c'
p1559
sg114
(lp1560
g1531
ag1538
ag1545
asg116
Nsba(ibclass
BBasicBlock
p1561
(dp1562
g12
Nsg13
(lp1563
(ibclass
BInstr
p1564
(dp1565
g2
Nsg17
S'mov     eax, [ebp+good]'
p1566
sg19
S'8b45e8'
p1567
sg21
Vmov eax, dword ptr [ebp - 0x18]
p1568
sg5
L134978025L
sg6
Nsg23
S'mov'
p1569
sg25
S'0x80b99e9L'
p1570
sg27
Nsba(ibclass
BInstr
p1571
(dp1572
g2
Nsg17
S'and     eax, 0FFh'
p1573
sg19
S'25ff000000'
p1574
sg21
Vand eax, 0xff
p1575
sg5
L134978028L
sg6
Nsg23
S'and'
p1576
sg25
S'0x80b99ecL'
p1577
sg27
Nsba(ibclass
BInstr
p1578
(dp1579
g2
Nsg17
S'mov     [esp+4], eax    ; b'
p1580
sg19
S'89442404'
p1581
sg21
Vmov dword ptr [esp + 4], eax
p1582
sg5
L134978033L
sg6
Nsg23
S'mov'
p1583
sg25
S'0x80b99f1L'
p1584
sg27
Nsba(ibclass
BInstr
p1585
(dp1586
g2
Nsg17
S'mov     dword ptr [esp], 0FFh; a'
p1587
sg19
S'c70424ff000000'
p1588
sg21
Vmov dword ptr [esp], 0xff
p1589
sg5
L134978037L
sg6
Nsg23
S'mov'
p1590
sg25
S'0x80b99f5L'
p1591
sg27
Nsba(ibclass
BInstr
p1592
(dp1593
g2
Nsg17
S'call    constant_time_eq_0'
p1594
sg19
S'e89cfcffff'
p1595
sg21
Vcall 0xfffffca1
p1596
sg5
L134978044L
sg6
Nsg23
S'call'
p1597
sg25
S'0x80b99fcL'
p1598
sg27
Nsba(ibclass
BInstr
p1599
(dp1600
g2
Nsg17
S'mov     [ebp+good], eax'
p1601
sg19
S'8945e8'
p1602
sg21
Vmov dword ptr [ebp - 0x18], eax
p1603
sg5
L134978049L
sg6
Nsg23
S'mov'
p1604
sg25
S'0x80b9a01L'
p1605
sg27
Nsba(ibclass
BInstr
p1606
(dp1607
g2
Nsg17
S'mov     eax, [ebp+padding_length]'
p1608
sg19
S'8b45e4'
p1609
sg21
Vmov eax, dword ptr [ebp - 0x1c]
p1610
sg5
L134978052L
sg6
Nsg23
S'mov'
p1611
sg25
S'0x80b9a04L'
p1612
sg27
Nsba(ibclass
BInstr
p1613
(dp1614
g2
Nsg17
S'inc     eax'
p1615
sg19
S'40'
p1616
sg21
Vinc eax
p1617
sg5
L134978055L
sg6
Nsg23
S'inc'
p1618
sg25
S'0x80b9a07L'
p1619
sg27
Nsba(ibclass
BInstr
p1620
(dp1621
g2
Nsg17
S'and     eax, [ebp+good]'
p1622
sg19
S'2345e8'
p1623
sg21
Vand eax, dword ptr [ebp - 0x18]
p1624
sg5
L134978056L
sg6
Nsg23
S'and'
p1625
sg25
S'0x80b9a08L'
p1626
sg27
Nsba(ibclass
BInstr
p1627
(dp1628
g2
Nsg17
S'mov     [ebp+padding_length], eax'
p1629
sg19
S'8945e4'
p1630
sg21
Vmov dword ptr [ebp - 0x1c], eax
p1631
sg5
L134978059L
sg6
Nsg23
S'mov'
p1632
sg25
S'0x80b9a0bL'
p1633
sg27
Nsba(ibclass
BInstr
p1634
(dp1635
g2
Nsg17
S'mov     eax, [ebp+rec]'
p1636
sg19
S'8b450c'
p1637
sg21
Vmov eax, dword ptr [ebp + 0xc]
p1638
sg5
L134978062L
sg6
Nsg23
S'mov'
p1639
sg25
S'0x80b9a0eL'
p1640
sg27
Nsba(ibclass
BInstr
p1641
(dp1642
g2
Nsg17
S'mov     eax, [eax+4]'
p1643
sg19
S'8b4004'
p1644
sg21
Vmov eax, dword ptr [eax + 4]
p1645
sg5
L134978065L
sg6
Nsg23
S'mov'
p1646
sg25
S'0x80b9a11L'
p1647
sg27
Nsba(ibclass
BInstr
p1648
(dp1649
g2
Nsg17
S'sub     eax, [ebp+padding_length]'
p1650
sg19
S'2b45e4'
p1651
sg21
Vsub eax, dword ptr [ebp - 0x1c]
p1652
sg5
L134978068L
sg6
Nsg23
S'sub'
p1653
sg25
S'0x80b9a14L'
p1654
sg27
Nsba(ibclass
BInstr
p1655
(dp1656
g2
Nsg17
S'mov     edx, eax'
p1657
sg19
S'89c2'
p1658
sg21
Vmov edx, eax
p1659
sg5
L134978071L
sg6
Nsg23
S'mov'
p1660
sg25
S'0x80b9a17L'
p1661
sg27
Nsba(ibclass
BInstr
p1662
(dp1663
g2
Nsg17
S'mov     eax, [ebp+rec]'
p1664
sg19
S'8b450c'
p1665
sg21
Vmov eax, dword ptr [ebp + 0xc]
p1666
sg5
L134978073L
sg6
Nsg23
S'mov'
p1667
sg25
S'0x80b9a19L'
p1668
sg27
Nsba(ibclass
BInstr
p1669
(dp1670
g2
Nsg17
S'mov     [eax+4], edx'
p1671
sg19
S'895004'
p1672
sg21
Vmov dword ptr [eax + 4], edx
p1673
sg5
L134978076L
sg6
Nsg23
S'mov'
p1674
sg25
S'0x80b9a1cL'
p1675
sg27
Nsba(ibclass
BInstr
p1676
(dp1677
g2
Nsg17
S'mov     eax, [ebp+rec]'
p1678
sg19
S'8b450c'
p1679
sg21
Vmov eax, dword ptr [ebp + 0xc]
p1680
sg5
L134978079L
sg6
Nsg23
S'mov'
p1681
sg25
S'0x80b9a1fL'
p1682
sg27
Nsba(ibclass
BInstr
p1683
(dp1684
g2
Nsg17
S'mov     eax, [eax]'
p1685
sg19
S'8b00'
p1686
sg21
Vmov eax, dword ptr [eax]
p1687
sg5
L134978082L
sg6
Nsg23
S'mov'
p1688
sg25
S'0x80b9a22L'
p1689
sg27
Nsba(ibclass
BInstr
p1690
(dp1691
g2
Nsg17
S'mov     edx, [ebp+padding_length]'
p1692
sg19
S'8b55e4'
p1693
sg21
Vmov edx, dword ptr [ebp - 0x1c]
p1694
sg5
L134978084L
sg6
Nsg23
S'mov'
p1695
sg25
S'0x80b9a24L'
p1696
sg27
Nsba(ibclass
BInstr
p1697
(dp1698
g2
Nsg17
S'shl     edx, 8'
p1699
sg19
S'c1e208'
p1700
sg21
Vshl edx, 8
p1701
sg5
L134978087L
sg6
Nsg23
S'shl'
p1702
sg25
S'0x80b9a27L'
p1703
sg27
Nsba(ibclass
BInstr
p1704
(dp1705
g2
Nsg17
S'or      eax, edx'
p1706
sg19
S'09d0'
p1707
sg21
Vor eax, edx
p1708
sg5
L134978090L
sg6
Nsg23
S'or'
p1709
sg25
S'0x80b9a2aL'
p1710
sg27
Nsba(ibclass
BInstr
p1711
(dp1712
g2
Nsg17
S'mov     edx, eax'
p1713
sg19
S'89c2'
p1714
sg21
Vmov edx, eax
p1715
sg5
L134978092L
sg6
Nsg23
S'mov'
p1716
sg25
S'0x80b9a2cL'
p1717
sg27
Nsba(ibclass
BInstr
p1718
(dp1719
g2
Nsg17
S'mov     eax, [ebp+rec]'
p1720
sg19
S'8b450c'
p1721
sg21
Vmov eax, dword ptr [ebp + 0xc]
p1722
sg5
L134978094L
sg6
Nsg23
S'mov'
p1723
sg25
S'0x80b9a2eL'
p1724
sg27
Nsba(ibclass
BInstr
p1725
(dp1726
g2
Nsg17
S'mov     [eax], edx'
p1727
sg19
S'8910'
p1728
sg21
Vmov dword ptr [eax], edx
p1729
sg5
L134978097L
sg6
Nsg23
S'mov'
p1730
sg25
S'0x80b9a31L'
p1731
sg27
Nsba(ibclass
BInstr
p1732
(dp1733
g2
Nsg17
S'mov     dword ptr [esp+8], 0FFFFFFFFh; b'
p1734
sg19
S'c7442408ffffffff'
p1735
sg21
Vmov dword ptr [esp + 8], 0xffffffff
p1736
sg5
L134978099L
sg6
Nsg23
S'mov'
p1737
sg25
S'0x80b9a33L'
p1738
sg27
Nsba(ibclass
BInstr
p1739
(dp1740
g2
Nsg17
S'mov     dword ptr [esp+4], 1; a'
p1741
sg19
S'c744240401000000'
p1742
sg21
Vmov dword ptr [esp + 4], 1
p1743
sg5
L134978107L
sg6
Nsg23
S'mov'
p1744
sg25
S'0x80b9a3bL'
p1745
sg27
Nsba(ibclass
BInstr
p1746
(dp1747
g2
Nsg17
S'mov     eax, [ebp+good]'
p1748
sg19
S'8b45e8'
p1749
sg21
Vmov eax, dword ptr [ebp - 0x18]
p1750
sg5
L134978115L
sg6
Nsg23
S'mov'
p1751
sg25
S'0x80b9a43L'
p1752
sg27
Nsba(ibclass
BInstr
p1753
(dp1754
g2
Nsg17
S'mov     [esp], eax      ; mask'
p1755
sg19
S'890424'
p1756
sg21
Vmov dword ptr [esp], eax
p1757
sg5
L134978118L
sg6
Nsg23
S'mov'
p1758
sg25
S'0x80b9a46L'
p1759
sg27
Nsba(ibclass
BInstr
p1760
(dp1761
g2
Nsg17
S'call    constant_time_select_int'
p1762
sg19
S'e8d8fcffff'
p1763
sg21
Vcall 0xfffffcdd
p1764
sg5
L134978121L
sg6
Nsg23
S'call'
p1765
sg25
S'0x80b9a49L'
p1766
sg27
Nsbasg91
(lp1767
Vmov eax, mem
p1768
aVand eax, address
p1769
aVmov mem, eax
p1770
aVmov mem, address
p1771
aVcall address
p1772
aVmov mem, eax
p1773
aVmov eax, mem
p1774
ag1617
aVand eax, mem
p1775
aVmov mem, eax
p1776
aVmov eax, mem
p1777
aVmov eax, mem
p1778
aVsub eax, mem
p1779
ag1659
aVmov eax, mem
p1780
aVmov mem, edx
p1781
aVmov eax, mem
p1782
aVmov eax, mem
p1783
aVmov edx, mem
p1784
ag1701
ag1708
ag1715
aVmov eax, mem
p1785
aVmov mem, edx
p1786
aVmov mem, address
p1787
aVmov mem, 1
p1788
aVmov eax, mem
p1789
aVmov mem, eax
p1790
aVcall address
p1791
asg100
Nsg5
S'0x80b99e9L'
p1792
sg102
(lp1793
S'0x80b99e1L'
p1794
asg6
Nsg104
(lp1795
S'0x80b9a4eL'
p1796
asg108
Nsg109
Nsg110
S'af8f3dd53df8d0f973ed12bc0842d458'
p1797
sg112
S'29b41e0da64a5b8930da17bd4205bb14'
p1798
sg114
(lp1799
g1569
ag1576
ag1583
ag1590
ag1597
ag1604
ag1611
ag1618
ag1625
ag1632
ag1639
ag1646
ag1653
ag1660
ag1667
ag1674
ag1681
ag1688
ag1695
ag1702
ag1709
ag1716
ag1723
ag1730
ag1737
ag1744
ag1751
ag1758
ag1765
asg116
Nsba(ibclass
BBasicBlock
p1800
(dp1801
g12
Nsg13
(lp1802
(ibclass
BInstr
p1803
(dp1804
g2
Nsg17
S'leave'
p1805
sg19
S'c9'
p1806
sg21
Vleave 
p1807
sg5
L134978126L
sg6
Nsg23
S'leave'
p1808
sg25
S'0x80b9a4eL'
p1809
sg27
Nsba(ibclass
BInstr
p1810
(dp1811
g2
Nsg17
S'retn'
p1812
sg19
S'c3'
p1813
sg21
Vret 
p1814
sg5
L134978127L
sg6
Nsg23
S'retn'
p1815
sg25
S'0x80b9a4fL'
p1816
sg27
Nsbasg91
(lp1817
Vleave
p1818
aVret
p1819
asg100
Nsg5
S'0x80b9a4eL'
p1820
sg102
(lp1821
S'0x80b9838L'
p1822
aS'0x80b9882L'
p1823
aS'0x80b993aL'
p1824
aS'0x80b99e9L'
p1825
asg6
Nsg104
(lp1826
sg108
Nsg109
Nsg110
S'08c78f73a6f87c85da88b2982f54ce2a'
p1827
sg112
S'393fee3c9fb1d26424d4b7704918e387'
p1828
sg114
(lp1829
g1808
ag1815
asg116
Nsbasb.