(ibclass
BFunc
p0
(dp1
S'hash'
p2
NsS'name'
p3
S'cms_copy_content'
p4
sS'start_address'
p5
L135912367L
sS'flag'
p6
NsS'program'
p7
NsS'bbs'
p8
(lp9
(ibclass
BBasicBlock
p10
(dp11
S'function'
p12
NsS'binstrs'
p13
(lp14
(ibclass
BInstr
p15
(dp16
g2
NsS'disasm'
p17
S'push    ebp'
p18
sS'bytes'
p19
S'55'
p20
sS'disasm_striped'
p21
Vpush ebp
p22
sg5
L135912367L
sg6
NsS'mnem'
p23
S'push'
p24
sS'address'
p25
S'0x819dbafL'
p26
sS'basicblock'
p27
Nsba(ibclass
BInstr
p28
(dp29
g2
Nsg17
S'mov     ebp, esp'
p30
sg19
S'89e5'
p31
sg21
Vmov ebp, esp
p32
sg5
L135912368L
sg6
Nsg23
S'mov'
p33
sg25
S'0x819dbb0L'
p34
sg27
Nsba(ibclass
BInstr
p35
(dp36
g2
Nsg17
S'sub     esp, 1038h'
p37
sg19
S'81ec38100000'
p38
sg21
Vsub esp, 0x1038
p39
sg5
L135912370L
sg6
Nsg23
S'sub'
p40
sg25
S'0x819dbb2L'
p41
sg27
Nsba(ibclass
BInstr
p42
(dp43
g2
Nsg17
S'mov     eax, [ebp+arg_0]'
p44
sg19
S'8b4508'
p45
sg21
Vmov eax, dword ptr [ebp + 8]
p46
sg5
L135912376L
sg6
Nsg23
S'mov'
p47
sg25
S'0x819dbb8L'
p48
sg27
Nsba(ibclass
BInstr
p49
(dp50
g2
Nsg17
S'mov     [ebp+out], eax'
p51
sg19
S'8985e4efffff'
p52
sg21
Vmov dword ptr [ebp - 0x101c], eax
p53
sg5
L135912379L
sg6
Nsg23
S'mov'
p54
sg25
S'0x819dbbbL'
p55
sg27
Nsba(ibclass
BInstr
p56
(dp57
g2
Nsg17
S'mov     eax, [ebp+arg_4]'
p58
sg19
S'8b450c'
p59
sg21
Vmov eax, dword ptr [ebp + 0xc]
p60
sg5
L135912385L
sg6
Nsg23
S'mov'
p61
sg25
S'0x819dbc1L'
p62
sg27
Nsba(ibclass
BInstr
p63
(dp64
g2
Nsg17
S'mov     [ebp+in], eax'
p65
sg19
S'8985e0efffff'
p66
sg21
Vmov dword ptr [ebp - 0x1020], eax
p67
sg5
L135912388L
sg6
Nsg23
S'mov'
p68
sg25
S'0x819dbc4L'
p69
sg27
Nsba(ibclass
BInstr
p70
(dp71
g2
Nsg17
S'mov     eax, large gs:14h'
p72
sg19
S'65a114000000'
p73
sg21
Vmov eax, dword ptr gs:[0x14]
p74
sg5
L135912394L
sg6
Nsg23
S'mov'
p75
sg25
S'0x819dbcaL'
p76
sg27
Nsba(ibclass
BInstr
p77
(dp78
g2
Nsg17
S'mov     [ebp+var_C], eax'
p79
sg19
S'8945f4'
p80
sg21
Vmov dword ptr [ebp - 0xc], eax
p81
sg5
L135912400L
sg6
Nsg23
S'mov'
p82
sg25
S'0x819dbd0L'
p83
sg27
Nsba(ibclass
BInstr
p84
(dp85
g2
Nsg17
S'xor     eax, eax'
p86
sg19
S'31c0'
p87
sg21
Vxor eax, eax
p88
sg5
L135912403L
sg6
Nsg23
S'xor'
p89
sg25
S'0x819dbd3L'
p90
sg27
Nsba(ibclass
BInstr
p91
(dp92
g2
Nsg17
S'mov     [ebp+r], 0'
p93
sg19
S'c785e8efffff00000000'
p94
sg21
Vmov dword ptr [ebp - 0x1018], 0
p95
sg5
L135912405L
sg6
Nsg23
S'mov'
p96
sg25
S'0x819dbd5L'
p97
sg27
Nsba(ibclass
BInstr
p98
(dp99
g2
Nsg17
S'mov     [ebp+tmpout], 0'
p100
sg19
S'c785ecefffff00000000'
p101
sg21
Vmov dword ptr [ebp - 0x1014], 0
p102
sg5
L135912415L
sg6
Nsg23
S'mov'
p103
sg25
S'0x819dbdfL'
p104
sg27
Nsba(ibclass
BInstr
p105
(dp106
g2
Nsg17
S'cmp     [ebp+out], 0'
p107
sg19
S'83bde4efffff00'
p108
sg21
Vcmp dword ptr [ebp - 0x101c], 0
p109
sg5
L135912425L
sg6
Nsg23
S'cmp'
p110
sg25
S'0x819dbe9L'
p111
sg27
Nsba(ibclass
BInstr
p112
(dp113
g2
Nsg17
S'jnz     short loc_819DC07'
p114
sg19
S'7515'
p115
sg21
Vjne 0x17
p116
sg5
L135912432L
sg6
Nsg23
S'jnz'
p117
sg25
S'0x819dbf0L'
p118
sg27
NsbasS'disasm_list'
p119
(lp120
g22
ag32
aVsub esp, address
p121
aVmov eax, mem
p122
aVmov mem, eax
p123
aVmov eax, mem
p124
aVmov mem, eax
p125
aVmov eax, gs:mem
p126
aVmov mem, eax
p127
ag88
aVmov mem, 0
p128
aVmov mem, 0
p129
aVcmp mem, 0
p130
aVjne address
p131
asS'end_address'
p132
Nsg5
S'0x819dbafL'
p133
sS'preds'
p134
(lp135
sg6
NsS'succs'
p136
(lp137
S'0x819dbf2L'
p138
aS'0x819dc07L'
p139
asS'hash_v3'
p140
NsS'flag_v2'
p141
NsS'hash_v1'
p142
S'23686080b33309cffbece7c05f4893e9'
p143
sS'hash_v2'
p144
S'005a7be324ccf5c212e42352abe01227'
p145
sS'mnen_list'
p146
(lp147
g24
ag33
ag40
ag47
ag54
ag61
ag68
ag75
ag82
ag89
ag96
ag103
ag110
ag117
asS'neighbour_disasm_list'
p148
Nsba(ibclass
BBasicBlock
p149
(dp150
g12
Nsg13
(lp151
(ibclass
BInstr
p152
(dp153
g2
Nsg17
S'call    BIO_s_null'
p154
sg19
S'e82276f9ff'
p155
sg21
Vcall 0xfff97627
p156
sg5
L135912434L
sg6
Nsg23
S'call'
p157
sg25
S'0x819dbf2L'
p158
sg27
Nsba(ibclass
BInstr
p159
(dp160
g2
Nsg17
S'mov     [esp], eax      ; method'
p161
sg19
S'890424'
p162
sg21
Vmov dword ptr [esp], eax
p163
sg5
L135912439L
sg6
Nsg23
S'mov'
p164
sg25
S'0x819dbf7L'
p165
sg27
Nsba(ibclass
BInstr
p166
(dp167
g2
Nsg17
S'call    BIO_new'
p168
sg19
S'e8015bf9ff'
p169
sg21
Vcall 0xfff95b06
p170
sg5
L135912442L
sg6
Nsg23
S'call'
p171
sg25
S'0x819dbfaL'
p172
sg27
Nsba(ibclass
BInstr
p173
(dp174
g2
Nsg17
S'mov     [ebp+tmpout], eax'
p175
sg19
S'8985ecefffff'
p176
sg21
Vmov dword ptr [ebp - 0x1014], eax
p177
sg5
L135912447L
sg6
Nsg23
S'mov'
p178
sg25
S'0x819dbffL'
p179
sg27
Nsba(ibclass
BInstr
p180
(dp181
g2
Nsg17
S'jmp     short loc_819DC58'
p182
sg19
S'eb51'
p183
sg21
Vjmp 0x53
p184
sg5
L135912453L
sg6
Nsg23
S'jmp'
p185
sg25
S'0x819dc05L'
p186
sg27
Nsbasg119
(lp187
Vcall address
p188
aVmov mem, eax
p189
aVcall address
p190
aVmov mem, eax
p191
aVjmp address
p192
asg132
Nsg5
S'0x819dbf2L'
p193
sg134
(lp194
S'0x819dbafL'
p195
asg6
Nsg136
(lp196
S'0x819dc58L'
p197
asg140
Nsg141
Nsg142
S'6e59c89414a7c8078586b379b31eefd9'
p198
sg144
S'fbda12bb53bb4648584bdabc53c16991'
p199
sg146
(lp200
g157
ag164
ag171
ag178
ag185
asg148
Nsba(ibclass
BBasicBlock
p201
(dp202
g12
Nsg13
(lp203
(ibclass
BInstr
p204
(dp205
g2
Nsg17
S'mov     eax, [ebp+flags]'
p206
sg19
S'8b4510'
p207
sg21
Vmov eax, dword ptr [ebp + 0x10]
p208
sg5
L135912455L
sg6
Nsg23
S'mov'
p209
sg25
S'0x819dc07L'
p210
sg27
Nsba(ibclass
BInstr
p211
(dp212
g2
Nsg17
S'and     eax, 1'
p213
sg19
S'83e001'
p214
sg21
Vand eax, 1
p215
sg5
L135912458L
sg6
Nsg23
S'and'
p216
sg25
S'0x819dc0aL'
p217
sg27
Nsba(ibclass
BInstr
p218
(dp219
g2
Nsg17
S'test    eax, eax'
p220
sg19
S'85c0'
p221
sg21
Vtest eax, eax
p222
sg5
L135912461L
sg6
Nsg23
S'test'
p223
sg25
S'0x819dc0dL'
p224
sg27
Nsba(ibclass
BInstr
p225
(dp226
g2
Nsg17
S'jz      short loc_819DC4C'
p227
sg19
S'743b'
p228
sg21
Vje 0x3d
p229
sg5
L135912463L
sg6
Nsg23
S'jz'
p230
sg25
S'0x819dc0fL'
p231
sg27
Nsbasg119
(lp232
Vmov eax, mem
p233
ag215
ag222
aVje address
p234
asg132
Nsg5
S'0x819dc07L'
p235
sg134
(lp236
S'0x819dbafL'
p237
asg6
Nsg136
(lp238
S'0x819dc11L'
p239
aS'0x819dc4cL'
p240
asg140
Nsg141
Nsg142
S'6b55f9f537859db1a376117212ca0db3'
p241
sg144
S'dc2e6388ef70723a12fd4a78cf98978f'
p242
sg146
(lp243
g209
ag216
ag223
ag230
asg148
Nsba(ibclass
BBasicBlock
p244
(dp245
g12
Nsg13
(lp246
(ibclass
BInstr
p247
(dp248
g2
Nsg17
S'call    BIO_s_mem'
p249
sg19
S'e8e26ff9ff'
p250
sg21
Vcall 0xfff96fe7
p251
sg5
L135912465L
sg6
Nsg23
S'call'
p252
sg25
S'0x819dc11L'
p253
sg27
Nsba(ibclass
BInstr
p254
(dp255
g2
Nsg17
S'mov     [esp], eax      ; method'
p256
sg19
S'890424'
p257
sg21
Vmov dword ptr [esp], eax
p258
sg5
L135912470L
sg6
Nsg23
S'mov'
p259
sg25
S'0x819dc16L'
p260
sg27
Nsba(ibclass
BInstr
p261
(dp262
g2
Nsg17
S'call    BIO_new'
p263
sg19
S'e8e25af9ff'
p264
sg21
Vcall 0xfff95ae7
p265
sg5
L135912473L
sg6
Nsg23
S'call'
p266
sg25
S'0x819dc19L'
p267
sg27
Nsba(ibclass
BInstr
p268
(dp269
g2
Nsg17
S'mov     [ebp+tmpout], eax'
p270
sg19
S'8985ecefffff'
p271
sg21
Vmov dword ptr [ebp - 0x1014], eax
p272
sg5
L135912478L
sg6
Nsg23
S'mov'
p273
sg25
S'0x819dc1eL'
p274
sg27
Nsba(ibclass
BInstr
p275
(dp276
g2
Nsg17
S'mov     dword ptr [esp+0Ch], 0; parg'
p277
sg19
S'c744240c00000000'
p278
sg21
Vmov dword ptr [esp + 0xc], 0
p279
sg5
L135912484L
sg6
Nsg23
S'mov'
p280
sg25
S'0x819dc24L'
p281
sg27
Nsba(ibclass
BInstr
p282
(dp283
g2
Nsg17
S'mov     dword ptr [esp+8], 0; larg'
p284
sg19
S'c744240800000000'
p285
sg21
Vmov dword ptr [esp + 8], 0
p286
sg5
L135912492L
sg6
Nsg23
S'mov'
p287
sg25
S'0x819dc2cL'
p288
sg27
Nsba(ibclass
BInstr
p289
(dp290
g2
Nsg17
S'mov     dword ptr [esp+4], 82h; cmd'
p291
sg19
S'c744240482000000'
p292
sg21
Vmov dword ptr [esp + 4], 0x82
p293
sg5
L135912500L
sg6
Nsg23
S'mov'
p294
sg25
S'0x819dc34L'
p295
sg27
Nsba(ibclass
BInstr
p296
(dp297
g2
Nsg17
S'mov     eax, [ebp+tmpout]'
p298
sg19
S'8b85ecefffff'
p299
sg21
Vmov eax, dword ptr [ebp - 0x1014]
p300
sg5
L135912508L
sg6
Nsg23
S'mov'
p301
sg25
S'0x819dc3cL'
p302
sg27
Nsba(ibclass
BInstr
p303
(dp304
g2
Nsg17
S'mov     [esp], eax      ; b'
p305
sg19
S'890424'
p306
sg21
Vmov dword ptr [esp], eax
p307
sg5
L135912514L
sg6
Nsg23
S'mov'
p308
sg25
S'0x819dc42L'
p309
sg27
Nsba(ibclass
BInstr
p310
(dp311
g2
Nsg17
S'call    BIO_ctrl'
p312
sg19
S'e81c64f9ff'
p313
sg21
Vcall 0xfff96421
p314
sg5
L135912517L
sg6
Nsg23
S'call'
p315
sg25
S'0x819dc45L'
p316
sg27
Nsba(ibclass
BInstr
p317
(dp318
g2
Nsg17
S'jmp     short loc_819DC58'
p319
sg19
S'eb0c'
p320
sg21
Vjmp 0xe
p321
sg5
L135912522L
sg6
Nsg23
S'jmp'
p322
sg25
S'0x819dc4aL'
p323
sg27
Nsbasg119
(lp324
Vcall address
p325
aVmov mem, eax
p326
aVcall address
p327
aVmov mem, eax
p328
aVmov mem, 0
p329
aVmov mem, 0
p330
aVmov mem, address
p331
aVmov eax, mem
p332
aVmov mem, eax
p333
aVcall address
p334
aVjmp address
p335
asg132
Nsg5
S'0x819dc11L'
p336
sg134
(lp337
S'0x819dc07L'
p338
asg6
Nsg136
(lp339
S'0x819dc58L'
p340
asg140
Nsg141
Nsg142
S'2bdd0cbe7dba6bffaa83e2438c775675'
p341
sg144
S'd750dd85e91c7019056cce8faab425c3'
p342
sg146
(lp343
g252
ag259
ag266
ag273
ag280
ag287
ag294
ag301
ag308
ag315
ag322
asg148
Nsba(ibclass
BBasicBlock
p344
(dp345
g12
Nsg13
(lp346
(ibclass
BInstr
p347
(dp348
g2
Nsg17
S'mov     eax, [ebp+out]'
p349
sg19
S'8b85e4efffff'
p350
sg21
Vmov eax, dword ptr [ebp - 0x101c]
p351
sg5
L135912524L
sg6
Nsg23
S'mov'
p352
sg25
S'0x819dc4cL'
p353
sg27
Nsba(ibclass
BInstr
p354
(dp355
g2
Nsg17
S'mov     [ebp+tmpout], eax'
p356
sg19
S'8985ecefffff'
p357
sg21
Vmov dword ptr [ebp - 0x1014], eax
p358
sg5
L135912530L
sg6
Nsg23
S'mov'
p359
sg25
S'0x819dc52L'
p360
sg27
Nsbasg119
(lp361
Vmov eax, mem
p362
aVmov mem, eax
p363
asg132
Nsg5
S'0x819dc4cL'
p364
sg134
(lp365
S'0x819dc07L'
p366
asg6
Nsg136
(lp367
S'0x819dc58L'
p368
asg140
Nsg141
Nsg142
S'70939fd8153af5d63d1bcbdb14592b28'
p369
sg144
S'd88242b01c09e28f3fcbb05103855f98'
p370
sg146
(lp371
g352
ag359
asg148
Nsba(ibclass
BBasicBlock
p372
(dp373
g12
Nsg13
(lp374
(ibclass
BInstr
p375
(dp376
g2
Nsg17
S'cmp     [ebp+tmpout], 0'
p377
sg19
S'83bdecefffff00'
p378
sg21
Vcmp dword ptr [ebp - 0x1014], 0
p379
sg5
L135912536L
sg6
Nsg23
S'cmp'
p380
sg25
S'0x819dc58L'
p381
sg27
Nsba(ibclass
BInstr
p382
(dp383
g2
Nsg17
S'jnz     short loc_819DC92'
p384
sg19
S'7531'
p385
sg21
Vjne 0x33
p386
sg5
L135912543L
sg6
Nsg23
S'jnz'
p387
sg25
S'0x819dc5fL'
p388
sg27
Nsbasg119
(lp389
Vcmp mem, 0
p390
aVjne address
p391
asg132
Nsg5
S'0x819dc58L'
p392
sg134
(lp393
S'0x819dbf2L'
p394
aS'0x819dc11L'
p395
aS'0x819dc4cL'
p396
asg6
Nsg136
(lp397
S'0x819dc61L'
p398
aS'0x819dc92L'
p399
asg140
Nsg141
Nsg142
S'30cb3d6f6a174adfabcde507f6944a52'
p400
sg144
S'ac6a5deb49a2d2e7162632941da7e135'
p401
sg146
(lp402
g380
ag387
asg148
Nsba(ibclass
BBasicBlock
p403
(dp404
g12
Nsg13
(lp405
(ibclass
BInstr
p406
(dp407
g2
Nsg17
S'mov     dword ptr [esp+10h], 4Eh; line'
p408
sg19
S'c74424104e000000'
p409
sg21
Vmov dword ptr [esp + 0x10], 0x4e
p410
sg5
L135912545L
sg6
Nsg23
S'mov'
p411
sg25
S'0x819dc61L'
p412
sg27
Nsba(ibclass
BInstr
p413
(dp414
g2
Nsg17
S'mov     dword ptr [esp+0Ch], offset aCms_smime_c; "cms_smime.c"'
p415
sg19
S'c744240cc5bd2408'
p416
sg21
Vmov dword ptr [esp + 0xc], 0x824bdc5
p417
sg5
L135912553L
sg6
Nsg23
S'mov'
p418
sg25
S'0x819dc69L'
p419
sg27
Nsba(ibclass
BInstr
p420
(dp421
g2
Nsg17
S'mov     dword ptr [esp+8], 41h; reason'
p422
sg19
S'c744240841000000'
p423
sg21
Vmov dword ptr [esp + 8], 0x41
p424
sg5
L135912561L
sg6
Nsg23
S'mov'
p425
sg25
S'0x819dc71L'
p426
sg27
Nsba(ibclass
BInstr
p427
(dp428
g2
Nsg17
S'mov     dword ptr [esp+4], 6Bh; func'
p429
sg19
S'c74424046b000000'
p430
sg21
Vmov dword ptr [esp + 4], 0x6b
p431
sg5
L135912569L
sg6
Nsg23
S'mov'
p432
sg25
S'0x819dc79L'
p433
sg27
Nsba(ibclass
BInstr
p434
(dp435
g2
Nsg17
S'mov     dword ptr [esp], 2Eh; lib'
p436
sg19
S'c704242e000000'
p437
sg21
Vmov dword ptr [esp], 0x2e
p438
sg5
L135912577L
sg6
Nsg23
S'mov'
p439
sg25
S'0x819dc81L'
p440
sg27
Nsba(ibclass
BInstr
p441
(dp442
g2
Nsg17
S'call    ERR_put_error'
p443
sg19
S'e82718faff'
p444
sg21
Vcall 0xfffa182c
p445
sg5
L135912584L
sg6
Nsg23
S'call'
p446
sg25
S'0x819dc88L'
p447
sg27
Nsba(ibclass
BInstr
p448
(dp449
g2
Nsg17
S'jmp     err'
p450
sg19
S'e920010000'
p451
sg21
Vjmp 0x125
p452
sg5
L135912589L
sg6
Nsg23
S'jmp'
p453
sg25
S'0x819dc8dL'
p454
sg27
Nsbasg119
(lp455
Vmov mem, address
p456
aVmov mem, address
p457
aVmov mem, address
p458
aVmov mem, address
p459
aVmov mem, address
p460
aVcall address
p461
aVjmp address
p462
asg132
Nsg5
S'0x819dc61L'
p463
sg134
(lp464
S'0x819dc58L'
p465
asg6
Nsg136
(lp466
S'0x819ddb2L'
p467
asg140
Nsg141
Nsg142
S'a76a0a3b827ea6cd402bf72e182d1d25'
p468
sg144
S'5c79c7459a4742ab4e6fe5fb7b7e4c8d'
p469
sg146
(lp470
g411
ag418
ag425
ag432
ag439
ag446
ag453
asg148
Nsba(ibclass
BBasicBlock
p471
(dp472
g12
Nsg13
(lp473
(ibclass
BInstr
p474
(dp475
g2
Nsg17
S'mov     dword ptr [esp+8], 1000h; outl'
p476
sg19
S'c744240800100000'
p477
sg21
Vmov dword ptr [esp + 8], 0x1000
p478
sg5
L135912594L
sg6
Nsg23
S'mov'
p479
sg25
S'0x819dc92L'
p480
sg27
Nsba(ibclass
BInstr
p481
(dp482
g2
Nsg17
S'lea     eax, [ebp+buf]'
p483
sg19
S'8d85f4efffff'
p484
sg21
Vlea eax, [ebp - 0x100c]
p485
sg5
L135912602L
sg6
Nsg23
S'lea'
p486
sg25
S'0x819dc9aL'
p487
sg27
Nsba(ibclass
BInstr
p488
(dp489
g2
Nsg17
S'mov     [esp+4], eax    ; out'
p490
sg19
S'89442404'
p491
sg21
Vmov dword ptr [esp + 4], eax
p492
sg5
L135912608L
sg6
Nsg23
S'mov'
p493
sg25
S'0x819dca0L'
p494
sg27
Nsba(ibclass
BInstr
p495
(dp496
g2
Nsg17
S'mov     eax, [ebp+in]'
p497
sg19
S'8b85e0efffff'
p498
sg21
Vmov eax, dword ptr [ebp - 0x1020]
p499
sg5
L135912612L
sg6
Nsg23
S'mov'
p500
sg25
S'0x819dca4L'
p501
sg27
Nsba(ibclass
BInstr
p502
(dp503
g2
Nsg17
S'mov     [esp], eax      ; b'
p504
sg19
S'890424'
p505
sg21
Vmov dword ptr [esp], eax
p506
sg5
L135912618L
sg6
Nsg23
S'mov'
p507
sg25
S'0x819dcaaL'
p508
sg27
Nsba(ibclass
BInstr
p509
(dp510
g2
Nsg17
S'call    BIO_read'
p511
sg19
S'e8975df9ff'
p512
sg21
Vcall 0xfff95d9c
p513
sg5
L135912621L
sg6
Nsg23
S'call'
p514
sg25
S'0x819dcadL'
p515
sg27
Nsba(ibclass
BInstr
p516
(dp517
g2
Nsg17
S'mov     [ebp+i], eax'
p518
sg19
S'8985f0efffff'
p519
sg21
Vmov dword ptr [ebp - 0x1010], eax
p520
sg5
L135912626L
sg6
Nsg23
S'mov'
p521
sg25
S'0x819dcb2L'
p522
sg27
Nsba(ibclass
BInstr
p523
(dp524
g2
Nsg17
S'cmp     [ebp+i], 0'
p525
sg19
S'83bdf0efffff00'
p526
sg21
Vcmp dword ptr [ebp - 0x1010], 0
p527
sg5
L135912632L
sg6
Nsg23
S'cmp'
p528
sg25
S'0x819dcb8L'
p529
sg27
Nsba(ibclass
BInstr
p530
(dp531
g2
Nsg17
S'jg      short loc_819DD24'
p532
sg19
S'7f63'
p533
sg21
Vjg 0x65
p534
sg5
L135912639L
sg6
Nsg23
S'jg'
p535
sg25
S'0x819dcbfL'
p536
sg27
Nsbasg119
(lp537
Vmov mem, address
p538
aVlea eax, mem
p539
aVmov mem, eax
p540
aVmov eax, mem
p541
aVmov mem, eax
p542
aVcall address
p543
aVmov mem, eax
p544
aVcmp mem, 0
p545
aVjg address
p546
asg132
Nsg5
S'0x819dc92L'
p547
sg134
(lp548
S'0x819dc58L'
p549
aS'0x819dd59L'
p550
asg6
Nsg136
(lp551
S'0x819dcc1L'
p552
aS'0x819dd24L'
p553
asg140
Nsg141
Nsg142
S'c9bf6532632a0b59df8213f87a0e0c39'
p554
sg144
S'6ffd376156b2f861308f8ac0e0ec3ea3'
p555
sg146
(lp556
g479
ag486
ag493
ag500
ag507
ag514
ag521
ag528
ag535
asg148
Nsba(ibclass
BBasicBlock
p557
(dp558
g12
Nsg13
(lp559
(ibclass
BInstr
p560
(dp561
g2
Nsg17
S'mov     eax, [ebp+in]'
p562
sg19
S'8b85e0efffff'
p563
sg21
Vmov eax, dword ptr [ebp - 0x1020]
p564
sg5
L135912641L
sg6
Nsg23
S'mov'
p565
sg25
S'0x819dcc1L'
p566
sg27
Nsba(ibclass
BInstr
p567
(dp568
g2
Nsg17
S'mov     [esp], eax      ; b'
p569
sg19
S'890424'
p570
sg21
Vmov dword ptr [esp], eax
p571
sg5
L135912647L
sg6
Nsg23
S'mov'
p572
sg25
S'0x819dcc7L'
p573
sg27
Nsba(ibclass
BInstr
p574
(dp575
g2
Nsg17
S'call    BIO_method_type'
p576
sg19
S'e86e5df9ff'
p577
sg21
Vcall 0xfff95d73
p578
sg5
L135912650L
sg6
Nsg23
S'call'
p579
sg25
S'0x819dccaL'
p580
sg27
Nsba(ibclass
BInstr
p581
(dp582
g2
Nsg17
S'cmp     eax, 20Ah'
p583
sg19
S'3d0a020000'
p584
sg21
Vcmp eax, 0x20a
p585
sg5
L135912655L
sg6
Nsg23
S'cmp'
p586
sg25
S'0x819dccfL'
p587
sg27
Nsba(ibclass
BInstr
p588
(dp589
g2
Nsg17
S'jnz     short loc_819DD05'
p590
sg19
S'752f'
p591
sg21
Vjne 0x31
p592
sg5
L135912660L
sg6
Nsg23
S'jnz'
p593
sg25
S'0x819dcd4L'
p594
sg27
Nsbasg119
(lp595
Vmov eax, mem
p596
aVmov mem, eax
p597
aVcall address
p598
aVcmp eax, address
p599
aVjne address
p600
asg132
Nsg5
S'0x819dcc1L'
p601
sg134
(lp602
S'0x819dc92L'
p603
asg6
Nsg136
(lp604
S'0x819dcd6L'
p605
aS'0x819dd05L'
p606
asg140
Nsg141
Nsg142
S'b62227261f945a5614abf466b56384c3'
p607
sg144
S'b742796cc5e71ad2bf9c67a05a337709'
p608
sg146
(lp609
g565
ag572
ag579
ag586
ag593
asg148
Nsba(ibclass
BBasicBlock
p610
(dp611
g12
Nsg13
(lp612
(ibclass
BInstr
p613
(dp614
g2
Nsg17
S'mov     dword ptr [esp+0Ch], 0; parg'
p615
sg19
S'c744240c00000000'
p616
sg21
Vmov dword ptr [esp + 0xc], 0
p617
sg5
L135912662L
sg6
Nsg23
S'mov'
p618
sg25
S'0x819dcd6L'
p619
sg27
Nsba(ibclass
BInstr
p620
(dp621
g2
Nsg17
S'mov     dword ptr [esp+8], 0; larg'
p622
sg19
S'c744240800000000'
p623
sg21
Vmov dword ptr [esp + 8], 0
p624
sg5
L135912670L
sg6
Nsg23
S'mov'
p625
sg25
S'0x819dcdeL'
p626
sg27
Nsba(ibclass
BInstr
p627
(dp628
g2
Nsg17
S'mov     dword ptr [esp+4], 71h; cmd'
p629
sg19
S'c744240471000000'
p630
sg21
Vmov dword ptr [esp + 4], 0x71
p631
sg5
L135912678L
sg6
Nsg23
S'mov'
p632
sg25
S'0x819dce6L'
p633
sg27
Nsba(ibclass
BInstr
p634
(dp635
g2
Nsg17
S'mov     eax, [ebp+in]'
p636
sg19
S'8b85e0efffff'
p637
sg21
Vmov eax, dword ptr [ebp - 0x1020]
p638
sg5
L135912686L
sg6
Nsg23
S'mov'
p639
sg25
S'0x819dceeL'
p640
sg27
Nsba(ibclass
BInstr
p641
(dp642
g2
Nsg17
S'mov     [esp], eax      ; b'
p643
sg19
S'890424'
p644
sg21
Vmov dword ptr [esp], eax
p645
sg5
L135912692L
sg6
Nsg23
S'mov'
p646
sg25
S'0x819dcf4L'
p647
sg27
Nsba(ibclass
BInstr
p648
(dp649
g2
Nsg17
S'call    BIO_ctrl'
p650
sg19
S'e86a63f9ff'
p651
sg21
Vcall 0xfff9636f
p652
sg5
L135912695L
sg6
Nsg23
S'call'
p653
sg25
S'0x819dcf7L'
p654
sg27
Nsba(ibclass
BInstr
p655
(dp656
g2
Nsg17
S'test    eax, eax'
p657
sg19
S'85c0'
p658
sg21
Vtest eax, eax
p659
sg5
L135912700L
sg6
Nsg23
S'test'
p660
sg25
S'0x819dcfcL'
p661
sg27
Nsba(ibclass
BInstr
p662
(dp663
g2
Nsg17
S'jnz     short loc_819DD05'
p664
sg19
S'7505'
p665
sg21
Vjne 7
p666
sg5
L135912702L
sg6
Nsg23
S'jnz'
p667
sg25
S'0x819dcfeL'
p668
sg27
Nsbasg119
(lp669
Vmov mem, 0
p670
aVmov mem, 0
p671
aVmov mem, address
p672
aVmov eax, mem
p673
aVmov mem, eax
p674
aVcall address
p675
ag659
ag666
asg132
Nsg5
S'0x819dcd6L'
p676
sg134
(lp677
S'0x819dcc1L'
p678
asg6
Nsg136
(lp679
S'0x819dd00L'
p680
aS'0x819dd05L'
p681
asg140
Nsg141
Nsg142
S'17d7a059f06fc5adc6283788185c0e03'
p682
sg144
S'b452a4c5b84a36826e733e10e16e994a'
p683
sg146
(lp684
g618
ag625
ag632
ag639
ag646
ag653
ag660
ag667
asg148
Nsba(ibclass
BBasicBlock
p685
(dp686
g12
Nsg13
(lp687
(ibclass
BInstr
p688
(dp689
g2
Nsg17
S'jmp     err'
p690
sg19
S'e9ad000000'
p691
sg21
Vjmp 0xb2
p692
sg5
L135912704L
sg6
Nsg23
S'jmp'
p693
sg25
S'0x819dd00L'
p694
sg27
Nsbasg119
(lp695
Vjmp address
p696
asg132
Nsg5
S'0x819dd00L'
p697
sg134
(lp698
S'0x819dcd6L'
p699
asg6
Nsg136
(lp700
S'0x819ddb2L'
p701
asg140
Nsg141
Nsg142
S'0ef6cf926f2f394b0cc8e11be8022625'
p702
sg144
S'd4372e4caa7348928655251605aa7329'
p703
sg146
(lp704
g693
asg148
Nsba(ibclass
BBasicBlock
p705
(dp706
g12
Nsg13
(lp707
(ibclass
BInstr
p708
(dp709
g2
Nsg17
S'cmp     [ebp+i], 0'
p710
sg19
S'83bdf0efffff00'
p711
sg21
Vcmp dword ptr [ebp - 0x1010], 0
p712
sg5
L135912709L
sg6
Nsg23
S'cmp'
p713
sg25
S'0x819dd05L'
p714
sg27
Nsba(ibclass
BInstr
p715
(dp716
g2
Nsg17
S'jns     short loc_819DD13'
p717
sg19
S'7905'
p718
sg21
Vjns 7
p719
sg5
L135912716L
sg6
Nsg23
S'jns'
p720
sg25
S'0x819dd0cL'
p721
sg27
Nsbasg119
(lp722
Vcmp mem, 0
p723
ag719
asg132
Nsg5
S'0x819dd05L'
p724
sg134
(lp725
S'0x819dcc1L'
p726
aS'0x819dcd6L'
p727
asg6
Nsg136
(lp728
S'0x819dd0eL'
p729
aS'0x819dd13L'
p730
asg140
Nsg141
Nsg142
S'4606fac8e515e3a38d5c4b959bb9f722'
p731
sg144
S'f6f49bef0590b2d270b7ee56a036455f'
p732
sg146
(lp733
g713
ag720
asg148
Nsba(ibclass
BBasicBlock
p734
(dp735
g12
Nsg13
(lp736
(ibclass
BInstr
p737
(dp738
g2
Nsg17
S'jmp     err'
p739
sg19
S'e99f000000'
p740
sg21
Vjmp 0xa4
p741
sg5
L135912718L
sg6
Nsg23
S'jmp'
p742
sg25
S'0x819dd0eL'
p743
sg27
Nsbasg119
(lp744
Vjmp address
p745
asg132
Nsg5
S'0x819dd0eL'
p746
sg134
(lp747
S'0x819dd05L'
p748
asg6
Nsg136
(lp749
S'0x819ddb2L'
p750
asg140
Nsg141
Nsg142
S'0ef6cf926f2f394b0cc8e11be8022625'
p751
sg144
S'd4372e4caa7348928655251605aa7329'
p752
sg146
(lp753
g742
asg148
Nsba(ibclass
BBasicBlock
p754
(dp755
g12
Nsg13
(lp756
(ibclass
BInstr
p757
(dp758
g2
Nsg17
S'nop'
p759
sg19
S'90'
p760
sg21
Vnop 
p761
sg5
L135912723L
sg6
Nsg23
S'nop'
p762
sg25
S'0x819dd13L'
p763
sg27
Nsba(ibclass
BInstr
p764
(dp765
g2
Nsg17
S'mov     eax, [ebp+flags]'
p766
sg19
S'8b4510'
p767
sg21
Vmov eax, dword ptr [ebp + 0x10]
p768
sg5
L135912724L
sg6
Nsg23
S'mov'
p769
sg25
S'0x819dd14L'
p770
sg27
Nsba(ibclass
BInstr
p771
(dp772
g2
Nsg17
S'and     eax, 1'
p773
sg19
S'83e001'
p774
sg21
Vand eax, 1
p775
sg5
L135912727L
sg6
Nsg23
S'and'
p776
sg25
S'0x819dd17L'
p777
sg27
Nsba(ibclass
BInstr
p778
(dp779
g2
Nsg17
S'test    eax, eax'
p780
sg19
S'85c0'
p781
sg21
Vtest eax, eax
p782
sg5
L135912730L
sg6
Nsg23
S'test'
p783
sg25
S'0x819dd1aL'
p784
sg27
Nsba(ibclass
BInstr
p785
(dp786
g2
Nsg17
S'jz      loc_819DDA8'
p787
sg19
S'0f8486000000'
p788
sg21
Vje 0x8c
p789
sg5
L135912732L
sg6
Nsg23
S'jz'
p790
sg25
S'0x819dd1cL'
p791
sg27
Nsbasg119
(lp792
Vnop
p793
aVmov eax, mem
p794
ag775
ag782
aVje address
p795
asg132
Nsg5
S'0x819dd13L'
p796
sg134
(lp797
S'0x819dd05L'
p798
asg6
Nsg136
(lp799
S'0x819dd22L'
p800
aS'0x819dda8L'
p801
asg140
Nsg141
Nsg142
S'67bc8e7bd951f291d0d0dba179c5c3d9'
p802
sg144
S'987ef67a29474354770fabd0a498d74d'
p803
sg146
(lp804
g762
ag769
ag776
ag783
ag790
asg148
Nsba(ibclass
BBasicBlock
p805
(dp806
g12
Nsg13
(lp807
(ibclass
BInstr
p808
(dp809
g2
Nsg17
S'jmp     short loc_819DD5E'
p810
sg19
S'eb3a'
p811
sg21
Vjmp 0x3c
p812
sg5
L135912738L
sg6
Nsg23
S'jmp'
p813
sg25
S'0x819dd22L'
p814
sg27
Nsbasg119
(lp815
Vjmp address
p816
asg132
Nsg5
S'0x819dd22L'
p817
sg134
(lp818
S'0x819dd13L'
p819
asg6
Nsg136
(lp820
S'0x819dd5eL'
p821
asg140
Nsg141
Nsg142
S'0ef6cf926f2f394b0cc8e11be8022625'
p822
sg144
S'd4372e4caa7348928655251605aa7329'
p823
sg146
(lp824
g813
asg148
Nsba(ibclass
BBasicBlock
p825
(dp826
g12
Nsg13
(lp827
(ibclass
BInstr
p828
(dp829
g2
Nsg17
S'cmp     [ebp+tmpout], 0'
p830
sg19
S'83bdecefffff00'
p831
sg21
Vcmp dword ptr [ebp - 0x1014], 0
p832
sg5
L135912740L
sg6
Nsg23
S'cmp'
p833
sg25
S'0x819dd24L'
p834
sg27
Nsba(ibclass
BInstr
p835
(dp836
g2
Nsg17
S'jz      short loc_819DD59'
p837
sg19
S'742c'
p838
sg21
Vje 0x2e
p839
sg5
L135912747L
sg6
Nsg23
S'jz'
p840
sg25
S'0x819dd2bL'
p841
sg27
Nsbasg119
(lp842
Vcmp mem, 0
p843
aVje address
p844
asg132
Nsg5
S'0x819dd24L'
p845
sg134
(lp846
S'0x819dc92L'
p847
asg6
Nsg136
(lp848
S'0x819dd2dL'
p849
aS'0x819dd59L'
p850
asg140
Nsg141
Nsg142
S'613dbc2b0cb9d6264d802b24d709daea'
p851
sg144
S'bdc7ec577d63971d81398660f533a2e0'
p852
sg146
(lp853
g833
ag840
asg148
Nsba(ibclass
BBasicBlock
p854
(dp855
g12
Nsg13
(lp856
(ibclass
BInstr
p857
(dp858
g2
Nsg17
S'mov     eax, [ebp+i]'
p859
sg19
S'8b85f0efffff'
p860
sg21
Vmov eax, dword ptr [ebp - 0x1010]
p861
sg5
L135912749L
sg6
Nsg23
S'mov'
p862
sg25
S'0x819dd2dL'
p863
sg27
Nsba(ibclass
BInstr
p864
(dp865
g2
Nsg17
S'mov     [esp+8], eax    ; inl'
p866
sg19
S'89442408'
p867
sg21
Vmov dword ptr [esp + 8], eax
p868
sg5
L135912755L
sg6
Nsg23
S'mov'
p869
sg25
S'0x819dd33L'
p870
sg27
Nsba(ibclass
BInstr
p871
(dp872
g2
Nsg17
S'lea     eax, [ebp+buf]'
p873
sg19
S'8d85f4efffff'
p874
sg21
Vlea eax, [ebp - 0x100c]
p875
sg5
L135912759L
sg6
Nsg23
S'lea'
p876
sg25
S'0x819dd37L'
p877
sg27
Nsba(ibclass
BInstr
p878
(dp879
g2
Nsg17
S'mov     [esp+4], eax    ; in'
p880
sg19
S'89442404'
p881
sg21
Vmov dword ptr [esp + 4], eax
p882
sg5
L135912765L
sg6
Nsg23
S'mov'
p883
sg25
S'0x819dd3dL'
p884
sg27
Nsba(ibclass
BInstr
p885
(dp886
g2
Nsg17
S'mov     eax, [ebp+tmpout]'
p887
sg19
S'8b85ecefffff'
p888
sg21
Vmov eax, dword ptr [ebp - 0x1014]
p889
sg5
L135912769L
sg6
Nsg23
S'mov'
p890
sg25
S'0x819dd41L'
p891
sg27
Nsba(ibclass
BInstr
p892
(dp893
g2
Nsg17
S'mov     [esp], eax      ; b'
p894
sg19
S'890424'
p895
sg21
Vmov dword ptr [esp], eax
p896
sg5
L135912775L
sg6
Nsg23
S'mov'
p897
sg25
S'0x819dd47L'
p898
sg27
Nsba(ibclass
BInstr
p899
(dp900
g2
Nsg17
S'call    BIO_write'
p901
sg19
S'e8555ef9ff'
p902
sg21
Vcall 0xfff95e5a
p903
sg5
L135912778L
sg6
Nsg23
S'call'
p904
sg25
S'0x819dd4aL'
p905
sg27
Nsba(ibclass
BInstr
p906
(dp907
g2
Nsg17
S'cmp     eax, [ebp+i]'
p908
sg19
S'3b85f0efffff'
p909
sg21
Vcmp eax, dword ptr [ebp - 0x1010]
p910
sg5
L135912783L
sg6
Nsg23
S'cmp'
p911
sg25
S'0x819dd4fL'
p912
sg27
Nsba(ibclass
BInstr
p913
(dp914
g2
Nsg17
S'jz      short loc_819DD59'
p915
sg19
S'7402'
p916
sg21
Vje 4
p917
sg5
L135912789L
sg6
Nsg23
S'jz'
p918
sg25
S'0x819dd55L'
p919
sg27
Nsbasg119
(lp920
Vmov eax, mem
p921
aVmov mem, eax
p922
aVlea eax, mem
p923
aVmov mem, eax
p924
aVmov eax, mem
p925
aVmov mem, eax
p926
aVcall address
p927
aVcmp eax, mem
p928
ag917
asg132
Nsg5
S'0x819dd2dL'
p929
sg134
(lp930
S'0x819dd24L'
p931
asg6
Nsg136
(lp932
S'0x819dd57L'
p933
aS'0x819dd59L'
p934
asg140
Nsg141
Nsg142
S'cefa7ec2ed0ef7667656aaafd0af7600'
p935
sg144
S'7244660868e83dabf5b0460486d8a592'
p936
sg146
(lp937
g862
ag869
ag876
ag883
ag890
ag897
ag904
ag911
ag918
asg148
Nsba(ibclass
BBasicBlock
p938
(dp939
g12
Nsg13
(lp940
(ibclass
BInstr
p941
(dp942
g2
Nsg17
S'jmp     short err'
p943
sg19
S'eb59'
p944
sg21
Vjmp 0x5b
p945
sg5
L135912791L
sg6
Nsg23
S'jmp'
p946
sg25
S'0x819dd57L'
p947
sg27
Nsbasg119
(lp948
Vjmp address
p949
asg132
Nsg5
S'0x819dd57L'
p950
sg134
(lp951
S'0x819dd2dL'
p952
asg6
Nsg136
(lp953
S'0x819ddb2L'
p954
asg140
Nsg141
Nsg142
S'0ef6cf926f2f394b0cc8e11be8022625'
p955
sg144
S'd4372e4caa7348928655251605aa7329'
p956
sg146
(lp957
g946
asg148
Nsba(ibclass
BBasicBlock
p958
(dp959
g12
Nsg13
(lp960
(ibclass
BInstr
p961
(dp962
g2
Nsg17
S'jmp     loc_819DC92'
p963
sg19
S'e934ffffff'
p964
sg21
Vjmp 0xffffff39
p965
sg5
L135912793L
sg6
Nsg23
S'jmp'
p966
sg25
S'0x819dd59L'
p967
sg27
Nsbasg119
(lp968
Vjmp address
p969
asg132
Nsg5
S'0x819dd59L'
p970
sg134
(lp971
S'0x819dd24L'
p972
aS'0x819dd2dL'
p973
asg6
Nsg136
(lp974
S'0x819dc92L'
p975
asg140
Nsg141
Nsg142
S'0ef6cf926f2f394b0cc8e11be8022625'
p976
sg144
S'd4372e4caa7348928655251605aa7329'
p977
sg146
(lp978
g966
asg148
Nsba(ibclass
BBasicBlock
p979
(dp980
g12
Nsg13
(lp981
(ibclass
BInstr
p982
(dp983
g2
Nsg17
S'mov     eax, [ebp+out]'
p984
sg19
S'8b85e4efffff'
p985
sg21
Vmov eax, dword ptr [ebp - 0x101c]
p986
sg5
L135912798L
sg6
Nsg23
S'mov'
p987
sg25
S'0x819dd5eL'
p988
sg27
Nsba(ibclass
BInstr
p989
(dp990
g2
Nsg17
S'mov     [esp+4], eax    ; out'
p991
sg19
S'89442404'
p992
sg21
Vmov dword ptr [esp + 4], eax
p993
sg5
L135912804L
sg6
Nsg23
S'mov'
p994
sg25
S'0x819dd64L'
p995
sg27
Nsba(ibclass
BInstr
p996
(dp997
g2
Nsg17
S'mov     eax, [ebp+tmpout]'
p998
sg19
S'8b85ecefffff'
p999
sg21
Vmov eax, dword ptr [ebp - 0x1014]
p1000
sg5
L135912808L
sg6
Nsg23
S'mov'
p1001
sg25
S'0x819dd68L'
p1002
sg27
Nsba(ibclass
BInstr
p1003
(dp1004
g2
Nsg17
S'mov     [esp], eax      ; in'
p1005
sg19
S'890424'
p1006
sg21
Vmov dword ptr [esp], eax
p1007
sg5
L135912814L
sg6
Nsg23
S'mov'
p1008
sg25
S'0x819dd6eL'
p1009
sg27
Nsba(ibclass
BInstr
p1010
(dp1011
g2
Nsg17
S'call    SMIME_text'
p1012
sg19
S'e822550400'
p1013
sg21
Vcall 0x45527
p1014
sg5
L135912817L
sg6
Nsg23
S'call'
p1015
sg25
S'0x819dd71L'
p1016
sg27
Nsba(ibclass
BInstr
p1017
(dp1018
g2
Nsg17
S'test    eax, eax'
p1019
sg19
S'85c0'
p1020
sg21
Vtest eax, eax
p1021
sg5
L135912822L
sg6
Nsg23
S'test'
p1022
sg25
S'0x819dd76L'
p1023
sg27
Nsba(ibclass
BInstr
p1024
(dp1025
g2
Nsg17
S'jnz     short loc_819DDA8'
p1026
sg19
S'752e'
p1027
sg21
Vjne 0x30
p1028
sg5
L135912824L
sg6
Nsg23
S'jnz'
p1029
sg25
S'0x819dd78L'
p1030
sg27
Nsbasg119
(lp1031
Vmov eax, mem
p1032
aVmov mem, eax
p1033
aVmov eax, mem
p1034
aVmov mem, eax
p1035
aVcall address
p1036
ag1021
aVjne address
p1037
asg132
Nsg5
S'0x819dd5eL'
p1038
sg134
(lp1039
S'0x819dd22L'
p1040
asg6
Nsg136
(lp1041
S'0x819dd7aL'
p1042
aS'0x819dda8L'
p1043
asg140
Nsg141
Nsg142
S'4fdb5e075c27ab960b936dca7d27c4ac'
p1044
sg144
S'8bac0cd6a64a11727a18c431fb481dc4'
p1045
sg146
(lp1046
g987
ag994
ag1001
ag1008
ag1015
ag1022
ag1029
asg148
Nsba(ibclass
BBasicBlock
p1047
(dp1048
g12
Nsg13
(lp1049
(ibclass
BInstr
p1050
(dp1051
g2
Nsg17
S'mov     dword ptr [esp+10h], 65h; line'
p1052
sg19
S'c744241065000000'
p1053
sg21
Vmov dword ptr [esp + 0x10], 0x65
p1054
sg5
L135912826L
sg6
Nsg23
S'mov'
p1055
sg25
S'0x819dd7aL'
p1056
sg27
Nsba(ibclass
BInstr
p1057
(dp1058
g2
Nsg17
S'mov     dword ptr [esp+0Ch], offset aCms_smime_c; "cms_smime.c"'
p1059
sg19
S'c744240cc5bd2408'
p1060
sg21
Vmov dword ptr [esp + 0xc], 0x824bdc5
p1061
sg5
L135912834L
sg6
Nsg23
S'mov'
p1062
sg25
S'0x819dd82L'
p1063
sg27
Nsba(ibclass
BInstr
p1064
(dp1065
g2
Nsg17
S'mov     dword ptr [esp+8], 8Ch; reason'
p1066
sg19
S'c74424088c000000'
p1067
sg21
Vmov dword ptr [esp + 8], 0x8c
p1068
sg5
L135912842L
sg6
Nsg23
S'mov'
p1069
sg25
S'0x819dd8aL'
p1070
sg27
Nsba(ibclass
BInstr
p1071
(dp1072
g2
Nsg17
S'mov     dword ptr [esp+4], 6Bh; func'
p1073
sg19
S'c74424046b000000'
p1074
sg21
Vmov dword ptr [esp + 4], 0x6b
p1075
sg5
L135912850L
sg6
Nsg23
S'mov'
p1076
sg25
S'0x819dd92L'
p1077
sg27
Nsba(ibclass
BInstr
p1078
(dp1079
g2
Nsg17
S'mov     dword ptr [esp], 2Eh; lib'
p1080
sg19
S'c704242e000000'
p1081
sg21
Vmov dword ptr [esp], 0x2e
p1082
sg5
L135912858L
sg6
Nsg23
S'mov'
p1083
sg25
S'0x819dd9aL'
p1084
sg27
Nsba(ibclass
BInstr
p1085
(dp1086
g2
Nsg17
S'call    ERR_put_error'
p1087
sg19
S'e80e17faff'
p1088
sg21
Vcall 0xfffa1713
p1089
sg5
L135912865L
sg6
Nsg23
S'call'
p1090
sg25
S'0x819dda1L'
p1091
sg27
Nsba(ibclass
BInstr
p1092
(dp1093
g2
Nsg17
S'jmp     short err'
p1094
sg19
S'eb0a'
p1095
sg21
Vjmp 0xc
p1096
sg5
L135912870L
sg6
Nsg23
S'jmp'
p1097
sg25
S'0x819dda6L'
p1098
sg27
Nsbasg119
(lp1099
Vmov mem, address
p1100
aVmov mem, address
p1101
aVmov mem, address
p1102
aVmov mem, address
p1103
aVmov mem, address
p1104
aVcall address
p1105
aVjmp address
p1106
asg132
Nsg5
S'0x819dd7aL'
p1107
sg134
(lp1108
S'0x819dd5eL'
p1109
asg6
Nsg136
(lp1110
S'0x819ddb2L'
p1111
asg140
Nsg141
Nsg142
S'a76a0a3b827ea6cd402bf72e182d1d25'
p1112
sg144
S'5c79c7459a4742ab4e6fe5fb7b7e4c8d'
p1113
sg146
(lp1114
g1055
ag1062
ag1069
ag1076
ag1083
ag1090
ag1097
asg148
Nsba(ibclass
BBasicBlock
p1115
(dp1116
g12
Nsg13
(lp1117
(ibclass
BInstr
p1118
(dp1119
g2
Nsg17
S'mov     [ebp+r], 1'
p1120
sg19
S'c785e8efffff01000000'
p1121
sg21
Vmov dword ptr [ebp - 0x1018], 1
p1122
sg5
L135912872L
sg6
Nsg23
S'mov'
p1123
sg25
S'0x819dda8L'
p1124
sg27
Nsbasg119
(lp1125
Vmov mem, 1
p1126
asg132
Nsg5
S'0x819dda8L'
p1127
sg134
(lp1128
S'0x819dd13L'
p1129
aS'0x819dd5eL'
p1130
asg6
Nsg136
(lp1131
S'0x819ddb2L'
p1132
asg140
Nsg141
Nsg142
S'96a4a0e6e9ac88756a0fcba989d0a844'
p1133
sg144
S'a73a0656263a7f36d05ccf97729fa60b'
p1134
sg146
(lp1135
g1123
asg148
Nsba(ibclass
BBasicBlock
p1136
(dp1137
g12
Nsg13
(lp1138
(ibclass
BInstr
p1139
(dp1140
g2
Nsg17
S'cmp     [ebp+tmpout], 0'
p1141
sg19
S'83bdecefffff00'
p1142
sg21
Vcmp dword ptr [ebp - 0x1014], 0
p1143
sg5
L135912882L
sg6
Nsg23
S'cmp'
p1144
sg25
S'0x819ddb2L'
p1145
sg27
Nsba(ibclass
BInstr
p1146
(dp1147
g2
Nsg17
S'jz      short loc_819DDD7'
p1148
sg19
S'741c'
p1149
sg21
Vje 0x1e
p1150
sg5
L135912889L
sg6
Nsg23
S'jz'
p1151
sg25
S'0x819ddb9L'
p1152
sg27
Nsbasg119
(lp1153
Vcmp mem, 0
p1154
aVje address
p1155
asg132
Nsg5
S'0x819ddb2L'
p1156
sg134
(lp1157
S'0x819dc61L'
p1158
aS'0x819dd00L'
p1159
aS'0x819dd0eL'
p1160
aS'0x819dd57L'
p1161
aS'0x819dd7aL'
p1162
aS'0x819dda8L'
p1163
asg6
Nsg136
(lp1164
S'0x819ddbbL'
p1165
aS'0x819ddd7L'
p1166
asg140
Nsg141
Nsg142
S'613dbc2b0cb9d6264d802b24d709daea'
p1167
sg144
S'bdc7ec577d63971d81398660f533a2e0'
p1168
sg146
(lp1169
g1144
ag1151
asg148
Nsba(ibclass
BBasicBlock
p1170
(dp1171
g12
Nsg13
(lp1172
(ibclass
BInstr
p1173
(dp1174
g2
Nsg17
S'mov     eax, [ebp+tmpout]'
p1175
sg19
S'8b85ecefffff'
p1176
sg21
Vmov eax, dword ptr [ebp - 0x1014]
p1177
sg5
L135912891L
sg6
Nsg23
S'mov'
p1178
sg25
S'0x819ddbbL'
p1179
sg27
Nsba(ibclass
BInstr
p1180
(dp1181
g2
Nsg17
S'cmp     eax, [ebp+out]'
p1182
sg19
S'3b85e4efffff'
p1183
sg21
Vcmp eax, dword ptr [ebp - 0x101c]
p1184
sg5
L135912897L
sg6
Nsg23
S'cmp'
p1185
sg25
S'0x819ddc1L'
p1186
sg27
Nsba(ibclass
BInstr
p1187
(dp1188
g2
Nsg17
S'jz      short loc_819DDD7'
p1189
sg19
S'740e'
p1190
sg21
Vje 0x10
p1191
sg5
L135912903L
sg6
Nsg23
S'jz'
p1192
sg25
S'0x819ddc7L'
p1193
sg27
Nsbasg119
(lp1194
Vmov eax, mem
p1195
aVcmp eax, mem
p1196
aVje address
p1197
asg132
Nsg5
S'0x819ddbbL'
p1198
sg134
(lp1199
S'0x819ddb2L'
p1200
asg6
Nsg136
(lp1201
S'0x819ddc9L'
p1202
aS'0x819ddd7L'
p1203
asg140
Nsg141
Nsg142
S'a243777572b9e90dbac56dca0e7de7ec'
p1204
sg144
S'3d266e2a95c4df4213c5f058e4ac0617'
p1205
sg146
(lp1206
g1178
ag1185
ag1192
asg148
Nsba(ibclass
BBasicBlock
p1207
(dp1208
g12
Nsg13
(lp1209
(ibclass
BInstr
p1210
(dp1211
g2
Nsg17
S'mov     eax, [ebp+tmpout]'
p1212
sg19
S'8b85ecefffff'
p1213
sg21
Vmov eax, dword ptr [ebp - 0x1014]
p1214
sg5
L135912905L
sg6
Nsg23
S'mov'
p1215
sg25
S'0x819ddc9L'
p1216
sg27
Nsba(ibclass
BInstr
p1217
(dp1218
g2
Nsg17
S'mov     [esp], eax      ; a'
p1219
sg19
S'890424'
p1220
sg21
Vmov dword ptr [esp], eax
p1221
sg5
L135912911L
sg6
Nsg23
S'mov'
p1222
sg25
S'0x819ddcfL'
p1223
sg27
Nsba(ibclass
BInstr
p1224
(dp1225
g2
Nsg17
S'call    BIO_free'
p1226
sg19
S'e8af5af9ff'
p1227
sg21
Vcall 0xfff95ab4
p1228
sg5
L135912914L
sg6
Nsg23
S'call'
p1229
sg25
S'0x819ddd2L'
p1230
sg27
Nsbasg119
(lp1231
Vmov eax, mem
p1232
aVmov mem, eax
p1233
aVcall address
p1234
asg132
Nsg5
S'0x819ddc9L'
p1235
sg134
(lp1236
S'0x819ddbbL'
p1237
asg6
Nsg136
(lp1238
S'0x819ddd7L'
p1239
asg140
Nsg141
Nsg142
S'0bf1a79a6a1155c5085c1c85d6d83d05'
p1240
sg144
S'5af7f5bfd15310706e43fa164fed7a71'
p1241
sg146
(lp1242
g1215
ag1222
ag1229
asg148
Nsba(ibclass
BBasicBlock
p1243
(dp1244
g12
Nsg13
(lp1245
(ibclass
BInstr
p1246
(dp1247
g2
Nsg17
S'mov     eax, [ebp+r]'
p1248
sg19
S'8b85e8efffff'
p1249
sg21
Vmov eax, dword ptr [ebp - 0x1018]
p1250
sg5
L135912919L
sg6
Nsg23
S'mov'
p1251
sg25
S'0x819ddd7L'
p1252
sg27
Nsba(ibclass
BInstr
p1253
(dp1254
g2
Nsg17
S'mov     edx, [ebp+var_C]'
p1255
sg19
S'8b55f4'
p1256
sg21
Vmov edx, dword ptr [ebp - 0xc]
p1257
sg5
L135912925L
sg6
Nsg23
S'mov'
p1258
sg25
S'0x819ddddL'
p1259
sg27
Nsba(ibclass
BInstr
p1260
(dp1261
g2
Nsg17
S'xor     edx, large gs:14h'
p1262
sg19
S'65331514000000'
p1263
sg21
Vxor edx, dword ptr gs:[0x14]
p1264
sg5
L135912928L
sg6
Nsg23
S'xor'
p1265
sg25
S'0x819dde0L'
p1266
sg27
Nsba(ibclass
BInstr
p1267
(dp1268
g2
Nsg17
S'jz      short locret_819DDEE'
p1269
sg19
S'7405'
p1270
sg21
Vje 7
p1271
sg5
L135912935L
sg6
Nsg23
S'jz'
p1272
sg25
S'0x819dde7L'
p1273
sg27
Nsbasg119
(lp1274
Vmov eax, mem
p1275
aVmov edx, mem
p1276
aVxor edx, gs:mem
p1277
ag1271
asg132
Nsg5
S'0x819ddd7L'
p1278
sg134
(lp1279
S'0x819ddb2L'
p1280
aS'0x819ddbbL'
p1281
aS'0x819ddc9L'
p1282
asg6
Nsg136
(lp1283
S'0x819dde9L'
p1284
aS'0x819ddeeL'
p1285
asg140
Nsg141
Nsg142
S'c5335c6fce86fb2488360524d4d74c07'
p1286
sg144
S'efa130de8618609ef446c0d738daa9ee'
p1287
sg146
(lp1288
g1251
ag1258
ag1265
ag1272
asg148
Nsba(ibclass
BBasicBlock
p1289
(dp1290
g12
Nsg13
(lp1291
(ibclass
BInstr
p1292
(dp1293
g2
Nsg17
S'call    ___stack_chk_fail'
p1294
sg19
S'e892b8eaff'
p1295
sg21
Vcall 0xffeab897
p1296
sg5
L135912937L
sg6
Nsg23
S'call'
p1297
sg25
S'0x819dde9L'
p1298
sg27
Nsbasg119
(lp1299
Vcall address
p1300
asg132
Nsg5
S'0x819dde9L'
p1301
sg134
(lp1302
S'0x819ddd7L'
p1303
asg6
Nsg136
(lp1304
sg140
Nsg141
Nsg142
S'53b9e9679a8ea25880376080b76f98ad'
p1305
sg144
S'5c3539e46d089242d4a47b64016c87be'
p1306
sg146
(lp1307
g1297
asg148
Nsba(ibclass
BBasicBlock
p1308
(dp1309
g12
Nsg13
(lp1310
(ibclass
BInstr
p1311
(dp1312
g2
Nsg17
S'leave'
p1313
sg19
S'c9'
p1314
sg21
Vleave 
p1315
sg5
L135912942L
sg6
Nsg23
S'leave'
p1316
sg25
S'0x819ddeeL'
p1317
sg27
Nsba(ibclass
BInstr
p1318
(dp1319
g2
Nsg17
S'retn'
p1320
sg19
S'c3'
p1321
sg21
Vret 
p1322
sg5
L135912943L
sg6
Nsg23
S'retn'
p1323
sg25
S'0x819ddefL'
p1324
sg27
Nsbasg119
(lp1325
Vleave
p1326
aVret
p1327
asg132
Nsg5
S'0x819ddeeL'
p1328
sg134
(lp1329
S'0x819ddd7L'
p1330
asg6
Nsg136
(lp1331
sg140
Nsg141
Nsg142
S'08c78f73a6f87c85da88b2982f54ce2a'
p1332
sg144
S'393fee3c9fb1d26424d4b7704918e387'
p1333
sg146
(lp1334
g1316
ag1323
asg148
Nsbasb.