(ibclass
BFunc
p0
(dp1
S'hash'
p2
NsS'name'
p3
S'ssl23_get_server_hello'
p4
sS'start_address'
p5
L134990834L
sS'flag'
p6
NsS'program'
p7
NsS'bbs'
p8
(lp9
(ibclass
BBasicBlock
p10
(dp11
S'function'
p12
NsS'binstrs'
p13
(lp14
(ibclass
BInstr
p15
(dp16
g2
NsS'disasm'
p17
S'push    ebp'
p18
sS'bytes'
p19
S'55'
p20
sS'disasm_striped'
p21
Vpush ebp
p22
sg5
L134990834L
sg6
NsS'mnem'
p23
S'push'
p24
sS'address'
p25
S'0x80bcbf2L'
p26
sS'basicblock'
p27
Nsba(ibclass
BInstr
p28
(dp29
g2
Nsg17
S'mov     ebp, esp'
p30
sg19
S'89e5'
p31
sg21
Vmov ebp, esp
p32
sg5
L134990835L
sg6
Nsg23
S'mov'
p33
sg25
S'0x80bcbf3L'
p34
sg27
Nsba(ibclass
BInstr
p35
(dp36
g2
Nsg17
S'push    esi'
p37
sg19
S'56'
p38
sg21
Vpush esi
p39
sg5
L134990837L
sg6
Nsg23
S'push'
p40
sg25
S'0x80bcbf5L'
p41
sg27
Nsba(ibclass
BInstr
p42
(dp43
g2
Nsg17
S'push    ebx'
p44
sg19
S'53'
p45
sg21
Vpush ebx
p46
sg5
L134990838L
sg6
Nsg23
S'push'
p47
sg25
S'0x80bcbf6L'
p48
sg27
Nsba(ibclass
BInstr
p49
(dp50
g2
Nsg17
S'sub     esp, 50h'
p51
sg19
S'83ec50'
p52
sg21
Vsub esp, 0x50
p53
sg5
L134990839L
sg6
Nsg23
S'sub'
p54
sg25
S'0x80bcbf7L'
p55
sg27
Nsba(ibclass
BInstr
p56
(dp57
g2
Nsg17
S'mov     eax, [ebp+arg_0]'
p58
sg19
S'8b4508'
p59
sg21
Vmov eax, dword ptr [ebp + 8]
p60
sg5
L134990842L
sg6
Nsg23
S'mov'
p61
sg25
S'0x80bcbfaL'
p62
sg27
Nsba(ibclass
BInstr
p63
(dp64
g2
Nsg17
S'mov     [ebp+s], eax'
p65
sg19
S'8945c4'
p66
sg21
Vmov dword ptr [ebp - 0x3c], eax
p67
sg5
L134990845L
sg6
Nsg23
S'mov'
p68
sg25
S'0x80bcbfdL'
p69
sg27
Nsba(ibclass
BInstr
p70
(dp71
g2
Nsg17
S'mov     eax, large gs:14h'
p72
sg19
S'65a114000000'
p73
sg21
Vmov eax, dword ptr gs:[0x14]
p74
sg5
L134990848L
sg6
Nsg23
S'mov'
p75
sg25
S'0x80bcc00L'
p76
sg27
Nsba(ibclass
BInstr
p77
(dp78
g2
Nsg17
S'mov     [ebp+var_C], eax'
p79
sg19
S'8945f4'
p80
sg21
Vmov dword ptr [ebp - 0xc], eax
p81
sg5
L134990854L
sg6
Nsg23
S'mov'
p82
sg25
S'0x80bcc06L'
p83
sg27
Nsba(ibclass
BInstr
p84
(dp85
g2
Nsg17
S'xor     eax, eax'
p86
sg19
S'31c0'
p87
sg21
Vxor eax, eax
p88
sg5
L134990857L
sg6
Nsg23
S'xor'
p89
sg25
S'0x80bcc09L'
p90
sg27
Nsba(ibclass
BInstr
p91
(dp92
g2
Nsg17
S'mov     dword ptr [esp+4], 7; n'
p93
sg19
S'c744240407000000'
p94
sg21
Vmov dword ptr [esp + 4], 7
p95
sg5
L134990859L
sg6
Nsg23
S'mov'
p96
sg25
S'0x80bcc0bL'
p97
sg27
Nsba(ibclass
BInstr
p98
(dp99
g2
Nsg17
S'mov     eax, [ebp+s]'
p100
sg19
S'8b45c4'
p101
sg21
Vmov eax, dword ptr [ebp - 0x3c]
p102
sg5
L134990867L
sg6
Nsg23
S'mov'
p103
sg25
S'0x80bcc13L'
p104
sg27
Nsba(ibclass
BInstr
p105
(dp106
g2
Nsg17
S'mov     [esp], eax      ; s'
p107
sg19
S'890424'
p108
sg21
Vmov dword ptr [esp], eax
p109
sg5
L134990870L
sg6
Nsg23
S'mov'
p110
sg25
S'0x80bcc16L'
p111
sg27
Nsba(ibclass
BInstr
p112
(dp113
g2
Nsg17
S'call    ssl23_read_bytes'
p114
sg19
S'e8180a0000'
p115
sg21
Vcall 0xa1d
p116
sg5
L134990873L
sg6
Nsg23
S'call'
p117
sg25
S'0x80bcc19L'
p118
sg27
Nsba(ibclass
BInstr
p119
(dp120
g2
Nsg17
S'mov     [ebp+n], eax'
p121
sg19
S'8945dc'
p122
sg21
Vmov dword ptr [ebp - 0x24], eax
p123
sg5
L134990878L
sg6
Nsg23
S'mov'
p124
sg25
S'0x80bcc1eL'
p125
sg27
Nsba(ibclass
BInstr
p126
(dp127
g2
Nsg17
S'cmp     [ebp+n], 7'
p128
sg19
S'837ddc07'
p129
sg21
Vcmp dword ptr [ebp - 0x24], 7
p130
sg5
L134990881L
sg6
Nsg23
S'cmp'
p131
sg25
S'0x80bcc21L'
p132
sg27
Nsba(ibclass
BInstr
p133
(dp134
g2
Nsg17
S'jz      short loc_80BCC2F'
p135
sg19
S'7408'
p136
sg21
Vje 0xa
p137
sg5
L134990885L
sg6
Nsg23
S'jz'
p138
sg25
S'0x80bcc25L'
p139
sg27
NsbasS'disasm_list'
p140
(lp141
g22
ag32
ag39
ag46
aVsub esp, address
p142
aVmov eax, mem
p143
aVmov mem, eax
p144
aVmov eax, gs:mem
p145
aVmov mem, eax
p146
ag88
aVmov mem, 7
p147
aVmov eax, mem
p148
aVmov mem, eax
p149
aVcall address
p150
aVmov mem, eax
p151
aVcmp mem, 7
p152
aVje address
p153
asS'end_address'
p154
Nsg5
S'0x80bcbf2L'
p155
sS'preds'
p156
(lp157
sg6
NsS'succs'
p158
(lp159
S'0x80bcc27L'
p160
aS'0x80bcc2fL'
p161
asS'hash_v3'
p162
NsS'flag_v2'
p163
NsS'hash_v1'
p164
S'0fdafba4bf556240954a9ba7164c734f'
p165
sS'hash_v2'
p166
S'58776f37478da9d905ed554ffcab261b'
p167
sS'mnen_list'
p168
(lp169
g24
ag33
ag40
ag47
ag54
ag61
ag68
ag75
ag82
ag89
ag96
ag103
ag110
ag117
ag124
ag131
ag138
asS'neighbour_disasm_list'
p170
Nsba(ibclass
BBasicBlock
p171
(dp172
g12
Nsg13
(lp173
(ibclass
BInstr
p174
(dp175
g2
Nsg17
S'mov     eax, [ebp+n]'
p176
sg19
S'8b45dc'
p177
sg21
Vmov eax, dword ptr [ebp - 0x24]
p178
sg5
L134990887L
sg6
Nsg23
S'mov'
p179
sg25
S'0x80bcc27L'
p180
sg27
Nsba(ibclass
BInstr
p181
(dp182
g2
Nsg17
S'jmp     loc_80BD264'
p183
sg19
S'e935060000'
p184
sg21
Vjmp 0x63a
p185
sg5
L134990890L
sg6
Nsg23
S'jmp'
p186
sg25
S'0x80bcc2aL'
p187
sg27
Nsbasg140
(lp188
Vmov eax, mem
p189
aVjmp address
p190
asg154
Nsg5
S'0x80bcc27L'
p191
sg156
(lp192
S'0x80bcbf2L'
p193
asg6
Nsg158
(lp194
S'0x80bd264L'
p195
asg162
Nsg163
Nsg164
S'8b9a0d40e062be2b9b2d9885108fb196'
p196
sg166
S'5a5b261ba52a671a369af6372509eb2f'
p197
sg168
(lp198
g179
ag186
asg170
Nsba(ibclass
BBasicBlock
p199
(dp200
g12
Nsg13
(lp201
(ibclass
BInstr
p202
(dp203
g2
Nsg17
S'mov     eax, [ebp+s]'
p204
sg19
S'8b45c4'
p205
sg21
Vmov eax, dword ptr [ebp - 0x3c]
p206
sg5
L134990895L
sg6
Nsg23
S'mov'
p207
sg25
S'0x80bcc2fL'
p208
sg27
Nsba(ibclass
BInstr
p209
(dp210
g2
Nsg17
S'mov     eax, [eax+4Ch]'
p211
sg19
S'8b404c'
p212
sg21
Vmov eax, dword ptr [eax + 0x4c]
p213
sg5
L134990898L
sg6
Nsg23
S'mov'
p214
sg25
S'0x80bcc32L'
p215
sg27
Nsba(ibclass
BInstr
p216
(dp217
g2
Nsg17
S'mov     [ebp+p], eax'
p218
sg19
S'8945e0'
p219
sg21
Vmov dword ptr [ebp - 0x20], eax
p220
sg5
L134990901L
sg6
Nsg23
S'mov'
p221
sg25
S'0x80bcc35L'
p222
sg27
Nsba(ibclass
BInstr
p223
(dp224
g2
Nsg17
S'mov     eax, [ebp+n]'
p225
sg19
S'8b45dc'
p226
sg21
Vmov eax, dword ptr [ebp - 0x24]
p227
sg5
L134990904L
sg6
Nsg23
S'mov'
p228
sg25
S'0x80bcc38L'
p229
sg27
Nsba(ibclass
BInstr
p230
(dp231
g2
Nsg17
S'mov     [esp+8], eax    ; n'
p232
sg19
S'89442408'
p233
sg21
Vmov dword ptr [esp + 8], eax
p234
sg5
L134990907L
sg6
Nsg23
S'mov'
p235
sg25
S'0x80bcc3bL'
p236
sg27
Nsba(ibclass
BInstr
p237
(dp238
g2
Nsg17
S'mov     eax, [ebp+p]'
p239
sg19
S'8b45e0'
p240
sg21
Vmov eax, dword ptr [ebp - 0x20]
p241
sg5
L134990911L
sg6
Nsg23
S'mov'
p242
sg25
S'0x80bcc3fL'
p243
sg27
Nsba(ibclass
BInstr
p244
(dp245
g2
Nsg17
S'mov     [esp+4], eax    ; src'
p246
sg19
S'89442404'
p247
sg21
Vmov dword ptr [esp + 4], eax
p248
sg5
L134990914L
sg6
Nsg23
S'mov'
p249
sg25
S'0x80bcc42L'
p250
sg27
Nsba(ibclass
BInstr
p251
(dp252
g2
Nsg17
S'lea     eax, [ebp+buf]'
p253
sg19
S'8d45ec'
p254
sg21
Vlea eax, [ebp - 0x14]
p255
sg5
L134990918L
sg6
Nsg23
S'lea'
p256
sg25
S'0x80bcc46L'
p257
sg27
Nsba(ibclass
BInstr
p258
(dp259
g2
Nsg17
S'mov     [esp], eax      ; dest'
p260
sg19
S'890424'
p261
sg21
Vmov dword ptr [esp], eax
p262
sg5
L134990921L
sg6
Nsg23
S'mov'
p263
sg25
S'0x80bcc49L'
p264
sg27
Nsba(ibclass
BInstr
p265
(dp266
g2
Nsg17
S'call    _memcpy'
p267
sg19
S'e82fc9f8ff'
p268
sg21
Vcall 0xfff8c934
p269
sg5
L134990924L
sg6
Nsg23
S'call'
p270
sg25
S'0x80bcc4cL'
p271
sg27
Nsba(ibclass
BInstr
p272
(dp273
g2
Nsg17
S'mov     eax, [ebp+p]'
p274
sg19
S'8b45e0'
p275
sg21
Vmov eax, dword ptr [ebp - 0x20]
p276
sg5
L134990929L
sg6
Nsg23
S'mov'
p277
sg25
S'0x80bcc51L'
p278
sg27
Nsba(ibclass
BInstr
p279
(dp280
g2
Nsg17
S'mov     al, [eax]'
p281
sg19
S'8a00'
p282
sg21
Vmov al, byte ptr [eax]
p283
sg5
L134990932L
sg6
Nsg23
S'mov'
p284
sg25
S'0x80bcc54L'
p285
sg27
Nsba(ibclass
BInstr
p286
(dp287
g2
Nsg17
S'test    al, al'
p288
sg19
S'84c0'
p289
sg21
Vtest al, al
p290
sg5
L134990934L
sg6
Nsg23
S'test'
p291
sg25
S'0x80bcc56L'
p292
sg27
Nsba(ibclass
BInstr
p293
(dp294
g2
Nsg17
S'jns     loc_80BCE73'
p295
sg19
S'0f8915020000'
p296
sg21
Vjns 0x21b
p297
sg5
L134990936L
sg6
Nsg23
S'jns'
p298
sg25
S'0x80bcc58L'
p299
sg27
Nsbasg140
(lp300
Vmov eax, mem
p301
aVmov eax, mem
p302
aVmov mem, eax
p303
aVmov eax, mem
p304
aVmov mem, eax
p305
aVmov eax, mem
p306
aVmov mem, eax
p307
aVlea eax, mem
p308
aVmov mem, eax
p309
aVcall address
p310
aVmov eax, mem
p311
aVmov al, mem
p312
ag290
aVjns address
p313
asg154
Nsg5
S'0x80bcc2fL'
p314
sg156
(lp315
S'0x80bcbf2L'
p316
asg6
Nsg158
(lp317
S'0x80bcc5eL'
p318
aS'0x80bce73L'
p319
asg162
Nsg163
Nsg164
S'ce0647204cb96a0a4421ceb100bb3ce9'
p320
sg166
S'43f8415e233b95b8ab3d1ce078502032'
p321
sg168
(lp322
g207
ag214
ag221
ag228
ag235
ag242
ag249
ag256
ag263
ag270
ag277
ag284
ag291
ag298
asg170
Nsba(ibclass
BBasicBlock
p323
(dp324
g12
Nsg13
(lp325
(ibclass
BInstr
p326
(dp327
g2
Nsg17
S'mov     eax, [ebp+p]'
p328
sg19
S'8b45e0'
p329
sg21
Vmov eax, dword ptr [ebp - 0x20]
p330
sg5
L134990942L
sg6
Nsg23
S'mov'
p331
sg25
S'0x80bcc5eL'
p332
sg27
Nsba(ibclass
BInstr
p333
(dp334
g2
Nsg17
S'add     eax, 2'
p335
sg19
S'83c002'
p336
sg21
Vadd eax, 2
p337
sg5
L134990945L
sg6
Nsg23
S'add'
p338
sg25
S'0x80bcc61L'
p339
sg27
Nsba(ibclass
BInstr
p340
(dp341
g2
Nsg17
S'mov     al, [eax]'
p342
sg19
S'8a00'
p343
sg21
Vmov al, byte ptr [eax]
p344
sg5
L134990948L
sg6
Nsg23
S'mov'
p345
sg25
S'0x80bcc64L'
p346
sg27
Nsba(ibclass
BInstr
p347
(dp348
g2
Nsg17
S'cmp     al, 4'
p349
sg19
S'3c04'
p350
sg21
Vcmp al, 4
p351
sg5
L134990950L
sg6
Nsg23
S'cmp'
p352
sg25
S'0x80bcc66L'
p353
sg27
Nsba(ibclass
BInstr
p354
(dp355
g2
Nsg17
S'jnz     loc_80BCE73'
p356
sg19
S'0f8505020000'
p357
sg21
Vjne 0x20b
p358
sg5
L134990952L
sg6
Nsg23
S'jnz'
p359
sg25
S'0x80bcc68L'
p360
sg27
Nsbasg140
(lp361
Vmov eax, mem
p362
ag337
aVmov al, mem
p363
ag351
aVjne address
p364
asg154
Nsg5
S'0x80bcc5eL'
p365
sg156
(lp366
S'0x80bcc2fL'
p367
asg6
Nsg158
(lp368
S'0x80bcc6eL'
p369
aS'0x80bce73L'
p370
asg162
Nsg163
Nsg164
S'b87469988e84d8a482950482e1a8656b'
p371
sg166
S'311f9aab5e6669d6caeae4e3cc782eb1'
p372
sg168
(lp373
g331
ag338
ag345
ag352
ag359
asg170
Nsba(ibclass
BBasicBlock
p374
(dp375
g12
Nsg13
(lp376
(ibclass
BInstr
p377
(dp378
g2
Nsg17
S'mov     eax, [ebp+p]'
p379
sg19
S'8b45e0'
p380
sg21
Vmov eax, dword ptr [ebp - 0x20]
p381
sg5
L134990958L
sg6
Nsg23
S'mov'
p382
sg25
S'0x80bcc6eL'
p383
sg27
Nsba(ibclass
BInstr
p384
(dp385
g2
Nsg17
S'add     eax, 5'
p386
sg19
S'83c005'
p387
sg21
Vadd eax, 5
p388
sg5
L134990961L
sg6
Nsg23
S'add'
p389
sg25
S'0x80bcc71L'
p390
sg27
Nsba(ibclass
BInstr
p391
(dp392
g2
Nsg17
S'mov     al, [eax]'
p393
sg19
S'8a00'
p394
sg21
Vmov al, byte ptr [eax]
p395
sg5
L134990964L
sg6
Nsg23
S'mov'
p396
sg25
S'0x80bcc74L'
p397
sg27
Nsba(ibclass
BInstr
p398
(dp399
g2
Nsg17
S'test    al, al'
p400
sg19
S'84c0'
p401
sg21
Vtest al, al
p402
sg5
L134990966L
sg6
Nsg23
S'test'
p403
sg25
S'0x80bcc76L'
p404
sg27
Nsba(ibclass
BInstr
p405
(dp406
g2
Nsg17
S'jnz     loc_80BCE73'
p407
sg19
S'0f85f5010000'
p408
sg21
Vjne 0x1fb
p409
sg5
L134990968L
sg6
Nsg23
S'jnz'
p410
sg25
S'0x80bcc78L'
p411
sg27
Nsbasg140
(lp412
Vmov eax, mem
p413
ag388
aVmov al, mem
p414
ag402
aVjne address
p415
asg154
Nsg5
S'0x80bcc6eL'
p416
sg156
(lp417
S'0x80bcc5eL'
p418
asg6
Nsg158
(lp419
S'0x80bcc7eL'
p420
aS'0x80bce73L'
p421
asg162
Nsg163
Nsg164
S'920971602cab6e10fcf987a5f224d2fe'
p422
sg166
S'9620095da8fe5a0bef453ea9a97f0e9e'
p423
sg168
(lp424
g382
ag389
ag396
ag403
ag410
asg170
Nsba(ibclass
BBasicBlock
p425
(dp426
g12
Nsg13
(lp427
(ibclass
BInstr
p428
(dp429
g2
Nsg17
S'mov     eax, [ebp+p]'
p430
sg19
S'8b45e0'
p431
sg21
Vmov eax, dword ptr [ebp - 0x20]
p432
sg5
L134990974L
sg6
Nsg23
S'mov'
p433
sg25
S'0x80bcc7eL'
p434
sg27
Nsba(ibclass
BInstr
p435
(dp436
g2
Nsg17
S'add     eax, 6'
p437
sg19
S'83c006'
p438
sg21
Vadd eax, 6
p439
sg5
L134990977L
sg6
Nsg23
S'add'
p440
sg25
S'0x80bcc81L'
p441
sg27
Nsba(ibclass
BInstr
p442
(dp443
g2
Nsg17
S'mov     al, [eax]'
p444
sg19
S'8a00'
p445
sg21
Vmov al, byte ptr [eax]
p446
sg5
L134990980L
sg6
Nsg23
S'mov'
p447
sg25
S'0x80bcc84L'
p448
sg27
Nsba(ibclass
BInstr
p449
(dp450
g2
Nsg17
S'cmp     al, 2'
p451
sg19
S'3c02'
p452
sg21
Vcmp al, 2
p453
sg5
L134990982L
sg6
Nsg23
S'cmp'
p454
sg25
S'0x80bcc86L'
p455
sg27
Nsba(ibclass
BInstr
p456
(dp457
g2
Nsg17
S'jnz     loc_80BCE73'
p458
sg19
S'0f85e5010000'
p459
sg21
Vjne 0x1eb
p460
sg5
L134990984L
sg6
Nsg23
S'jnz'
p461
sg25
S'0x80bcc88L'
p462
sg27
Nsbasg140
(lp463
Vmov eax, mem
p464
ag439
aVmov al, mem
p465
ag453
aVjne address
p466
asg154
Nsg5
S'0x80bcc7eL'
p467
sg156
(lp468
S'0x80bcc6eL'
p469
asg6
Nsg158
(lp470
S'0x80bcc8eL'
p471
aS'0x80bce73L'
p472
asg162
Nsg163
Nsg164
S'b87469988e84d8a482950482e1a8656b'
p473
sg166
S'7bd0600e78e47cb79e2c311e38b89c47'
p474
sg168
(lp475
g433
ag440
ag447
ag454
ag461
asg170
Nsba(ibclass
BBasicBlock
p476
(dp477
g12
Nsg13
(lp478
(ibclass
BInstr
p479
(dp480
g2
Nsg17
S'mov     eax, [ebp+s]'
p481
sg19
S'8b45c4'
p482
sg21
Vmov eax, dword ptr [ebp - 0x3c]
p483
sg5
L134990990L
sg6
Nsg23
S'mov'
p484
sg25
S'0x80bcc8eL'
p485
sg27
Nsba(ibclass
BInstr
p486
(dp487
g2
Nsg17
S'mov     eax, [eax+100h]'
p488
sg19
S'8b8000010000'
p489
sg21
Vmov eax, dword ptr [eax + 0x100]
p490
sg5
L134990993L
sg6
Nsg23
S'mov'
p491
sg25
S'0x80bcc91L'
p492
sg27
Nsba(ibclass
BInstr
p493
(dp494
g2
Nsg17
S'and     eax, 1000000h'
p495
sg19
S'2500000001'
p496
sg21
Vand eax, 0x1000000
p497
sg5
L134990999L
sg6
Nsg23
S'and'
p498
sg25
S'0x80bcc97L'
p499
sg27
Nsba(ibclass
BInstr
p500
(dp501
g2
Nsg17
S'test    eax, eax'
p502
sg19
S'85c0'
p503
sg21
Vtest eax, eax
p504
sg5
L134991004L
sg6
Nsg23
S'test'
p505
sg25
S'0x80bcc9cL'
p506
sg27
Nsba(ibclass
BInstr
p507
(dp508
g2
Nsg17
S'jz      short loc_80BCCD1'
p509
sg19
S'7431'
p510
sg21
Vje 0x33
p511
sg5
L134991006L
sg6
Nsg23
S'jz'
p512
sg25
S'0x80bcc9eL'
p513
sg27
Nsbasg140
(lp514
Vmov eax, mem
p515
aVmov eax, mem
p516
aVand eax, address
p517
ag504
aVje address
p518
asg154
Nsg5
S'0x80bcc8eL'
p519
sg156
(lp520
S'0x80bcc7eL'
p521
asg6
Nsg158
(lp522
S'0x80bcca0L'
p523
aS'0x80bccd1L'
p524
asg162
Nsg163
Nsg164
S'f7f1722576cc4fe08ef64a8368f11a63'
p525
sg166
S'8fd3a6adf2b34ad87f5d77c66faefd0e'
p526
sg168
(lp527
g484
ag491
ag498
ag505
ag512
asg170
Nsba(ibclass
BBasicBlock
p528
(dp529
g12
Nsg13
(lp530
(ibclass
BInstr
p531
(dp532
g2
Nsg17
S'mov     dword ptr [esp+10h], 27Eh; line'
p533
sg19
S'c74424107e020000'
p534
sg21
Vmov dword ptr [esp + 0x10], 0x27e
p535
sg5
L134991008L
sg6
Nsg23
S'mov'
p536
sg25
S'0x80bcca0L'
p537
sg27
Nsba(ibclass
BInstr
p538
(dp539
g2
Nsg17
S'mov     dword ptr [esp+0Ch], offset aS23_clnt_c; "s23_clnt.c"'
p540
sg19
S'c744240c20822108'
p541
sg21
Vmov dword ptr [esp + 0xc], 0x8218220
p542
sg5
L134991016L
sg6
Nsg23
S'mov'
p543
sg25
S'0x80bcca8L'
p544
sg27
Nsba(ibclass
BInstr
p545
(dp546
g2
Nsg17
S'mov     dword ptr [esp+8], 102h; reason'
p547
sg19
S'c744240802010000'
p548
sg21
Vmov dword ptr [esp + 8], 0x102
p549
sg5
L134991024L
sg6
Nsg23
S'mov'
p550
sg25
S'0x80bccb0L'
p551
sg27
Nsba(ibclass
BInstr
p552
(dp553
g2
Nsg17
S'mov     dword ptr [esp+4], 77h; func'
p554
sg19
S'c744240477000000'
p555
sg21
Vmov dword ptr [esp + 4], 0x77
p556
sg5
L134991032L
sg6
Nsg23
S'mov'
p557
sg25
S'0x80bccb8L'
p558
sg27
Nsba(ibclass
BInstr
p559
(dp560
g2
Nsg17
S'mov     dword ptr [esp], 14h; lib'
p561
sg19
S'c7042414000000'
p562
sg21
Vmov dword ptr [esp], 0x14
p563
sg5
L134991040L
sg6
Nsg23
S'mov'
p564
sg25
S'0x80bccc0L'
p565
sg27
Nsba(ibclass
BInstr
p566
(dp567
g2
Nsg17
S'call    ERR_put_error'
p568
sg19
S'e8e8270800'
p569
sg21
Vcall 0x827ed
p570
sg5
L134991047L
sg6
Nsg23
S'call'
p571
sg25
S'0x80bccc7L'
p572
sg27
Nsba(ibclass
BInstr
p573
(dp574
g2
Nsg17
S'jmp     err'
p575
sg19
S'e98e050000'
p576
sg21
Vjmp 0x593
p577
sg5
L134991052L
sg6
Nsg23
S'jmp'
p578
sg25
S'0x80bccccL'
p579
sg27
Nsbasg140
(lp580
Vmov mem, address
p581
aVmov mem, address
p582
aVmov mem, address
p583
aVmov mem, address
p584
aVmov mem, address
p585
aVcall address
p586
aVjmp address
p587
asg154
Nsg5
S'0x80bcca0L'
p588
sg156
(lp589
S'0x80bcc8eL'
p590
asg6
Nsg158
(lp591
S'0x80bd25fL'
p592
asg162
Nsg163
Nsg164
S'a76a0a3b827ea6cd402bf72e182d1d25'
p593
sg166
S'5c79c7459a4742ab4e6fe5fb7b7e4c8d'
p594
sg168
(lp595
g536
ag543
ag550
ag557
ag564
ag571
ag578
asg170
Nsba(ibclass
BBasicBlock
p596
(dp597
g12
Nsg13
(lp598
(ibclass
BInstr
p599
(dp600
g2
Nsg17
S'mov     eax, [ebp+s]'
p601
sg19
S'8b45c4'
p602
sg21
Vmov eax, dword ptr [ebp - 0x3c]
p603
sg5
L134991057L
sg6
Nsg23
S'mov'
p604
sg25
S'0x80bccd1L'
p605
sg27
Nsba(ibclass
BInstr
p606
(dp607
g2
Nsg17
S'mov     eax, [eax+54h]'
p608
sg19
S'8b4054'
p609
sg21
Vmov eax, dword ptr [eax + 0x54]
p610
sg5
L134991060L
sg6
Nsg23
S'mov'
p611
sg25
S'0x80bccd4L'
p612
sg27
Nsba(ibclass
BInstr
p613
(dp614
g2
Nsg17
S'test    eax, eax'
p615
sg19
S'85c0'
p616
sg21
Vtest eax, eax
p617
sg5
L134991063L
sg6
Nsg23
S'test'
p618
sg25
S'0x80bccd7L'
p619
sg27
Nsba(ibclass
BInstr
p620
(dp621
g2
Nsg17
S'jnz     short loc_80BCCEF'
p622
sg19
S'7514'
p623
sg21
Vjne 0x16
p624
sg5
L134991065L
sg6
Nsg23
S'jnz'
p625
sg25
S'0x80bccd9L'
p626
sg27
Nsbasg140
(lp627
Vmov eax, mem
p628
aVmov eax, mem
p629
ag617
aVjne address
p630
asg154
Nsg5
S'0x80bccd1L'
p631
sg156
(lp632
S'0x80bcc8eL'
p633
asg6
Nsg158
(lp634
S'0x80bccdbL'
p635
aS'0x80bccefL'
p636
asg162
Nsg163
Nsg164
S'c659dbb3567582fe193bedd2c7eccb80'
p637
sg166
S'bf49e6fb415bfa3724765cd6082e6314'
p638
sg168
(lp639
g604
ag611
ag618
ag625
asg170
Nsba(ibclass
BBasicBlock
p640
(dp641
g12
Nsg13
(lp642
(ibclass
BInstr
p643
(dp644
g2
Nsg17
S'mov     eax, [ebp+s]'
p645
sg19
S'8b45c4'
p646
sg21
Vmov eax, dword ptr [ebp - 0x3c]
p647
sg5
L134991067L
sg6
Nsg23
S'mov'
p648
sg25
S'0x80bccdbL'
p649
sg27
Nsba(ibclass
BInstr
p650
(dp651
g2
Nsg17
S'mov     [esp], eax      ; s'
p652
sg19
S'890424'
p653
sg21
Vmov dword ptr [esp], eax
p654
sg5
L134991070L
sg6
Nsg23
S'mov'
p655
sg25
S'0x80bccdeL'
p656
sg27
Nsba(ibclass
BInstr
p657
(dp658
g2
Nsg17
S'call    ssl2_new'
p659
sg19
S'e8e92dfeff'
p660
sg21
Vcall 0xfffe2dee
p661
sg5
L134991073L
sg6
Nsg23
S'call'
p662
sg25
S'0x80bcce1L'
p663
sg27
Nsba(ibclass
BInstr
p664
(dp665
g2
Nsg17
S'test    eax, eax'
p666
sg19
S'85c0'
p667
sg21
Vtest eax, eax
p668
sg5
L134991078L
sg6
Nsg23
S'test'
p669
sg25
S'0x80bcce6L'
p670
sg27
Nsba(ibclass
BInstr
p671
(dp672
g2
Nsg17
S'jnz     short loc_80BCCFA'
p673
sg19
S'7510'
p674
sg21
Vjne 0x12
p675
sg5
L134991080L
sg6
Nsg23
S'jnz'
p676
sg25
S'0x80bcce8L'
p677
sg27
Nsbasg140
(lp678
Vmov eax, mem
p679
aVmov mem, eax
p680
aVcall address
p681
ag668
aVjne address
p682
asg154
Nsg5
S'0x80bccdbL'
p683
sg156
(lp684
S'0x80bccd1L'
p685
asg6
Nsg158
(lp686
S'0x80bcceaL'
p687
aS'0x80bccfaL'
p688
asg162
Nsg163
Nsg164
S'8aa47bafac27863733b9d38d97a948f4'
p689
sg166
S'96dd1ea4abddd61fd92c87afb229fae1'
p690
sg168
(lp691
g648
ag655
ag662
ag669
ag676
asg170
Nsba(ibclass
BBasicBlock
p692
(dp693
g12
Nsg13
(lp694
(ibclass
BInstr
p695
(dp696
g2
Nsg17
S'jmp     err'
p697
sg19
S'e970050000'
p698
sg21
Vjmp 0x575
p699
sg5
L134991082L
sg6
Nsg23
S'jmp'
p700
sg25
S'0x80bcceaL'
p701
sg27
Nsbasg140
(lp702
Vjmp address
p703
asg154
Nsg5
S'0x80bcceaL'
p704
sg156
(lp705
S'0x80bccdbL'
p706
asg6
Nsg158
(lp707
S'0x80bd25fL'
p708
asg162
Nsg163
Nsg164
S'0ef6cf926f2f394b0cc8e11be8022625'
p709
sg166
S'd4372e4caa7348928655251605aa7329'
p710
sg168
(lp711
g700
asg170
Nsba(ibclass
BBasicBlock
p712
(dp713
g12
Nsg13
(lp714
(ibclass
BInstr
p715
(dp716
g2
Nsg17
S'mov     eax, [ebp+s]'
p717
sg19
S'8b45c4'
p718
sg21
Vmov eax, dword ptr [ebp - 0x3c]
p719
sg5
L134991087L
sg6
Nsg23
S'mov'
p720
sg25
S'0x80bccefL'
p721
sg27
Nsba(ibclass
BInstr
p722
(dp723
g2
Nsg17
S'mov     [esp], eax      ; s'
p724
sg19
S'890424'
p725
sg21
Vmov dword ptr [esp], eax
p726
sg5
L134991090L
sg6
Nsg23
S'mov'
p727
sg25
S'0x80bccf2L'
p728
sg27
Nsba(ibclass
BInstr
p729
(dp730
g2
Nsg17
S'call    ssl2_clear'
p731
sg19
S'e8502ffeff'
p732
sg21
Vcall 0xfffe2f55
p733
sg5
L134991093L
sg6
Nsg23
S'call'
p734
sg25
S'0x80bccf5L'
p735
sg27
Nsbasg140
(lp736
Vmov eax, mem
p737
aVmov mem, eax
p738
aVcall address
p739
asg154
Nsg5
S'0x80bccefL'
p740
sg156
(lp741
S'0x80bccd1L'
p742
asg6
Nsg158
(lp743
S'0x80bccfaL'
p744
asg162
Nsg163
Nsg164
S'0bf1a79a6a1155c5085c1c85d6d83d05'
p745
sg166
S'5af7f5bfd15310706e43fa164fed7a71'
p746
sg168
(lp747
g720
ag727
ag734
asg170
Nsba(ibclass
BBasicBlock
p748
(dp749
g12
Nsg13
(lp750
(ibclass
BInstr
p751
(dp752
g2
Nsg17
S'mov     eax, [ebp+s]'
p753
sg19
S'8b45c4'
p754
sg21
Vmov eax, dword ptr [ebp - 0x3c]
p755
sg5
L134991098L
sg6
Nsg23
S'mov'
p756
sg25
S'0x80bccfaL'
p757
sg27
Nsba(ibclass
BInstr
p758
(dp759
g2
Nsg17
S'mov     eax, [eax+100h]'
p760
sg19
S'8b8000010000'
p761
sg21
Vmov eax, dword ptr [eax + 0x100]
p762
sg5
L134991101L
sg6
Nsg23
S'mov'
p763
sg25
S'0x80bccfdL'
p764
sg27
Nsba(ibclass
BInstr
p765
(dp766
g2
Nsg17
S'and     eax, 2'
p767
sg19
S'83e002'
p768
sg21
Vand eax, 2
p769
sg5
L134991107L
sg6
Nsg23
S'and'
p770
sg25
S'0x80bcd03L'
p771
sg27
Nsba(ibclass
BInstr
p772
(dp773
g2
Nsg17
S'test    eax, eax'
p774
sg19
S'85c0'
p775
sg21
Vtest eax, eax
p776
sg5
L134991110L
sg6
Nsg23
S'test'
p777
sg25
S'0x80bcd06L'
p778
sg27
Nsba(ibclass
BInstr
p779
(dp780
g2
Nsg17
S'jz      short loc_80BCD13'
p781
sg19
S'7409'
p782
sg21
Vje 0xb
p783
sg5
L134991112L
sg6
Nsg23
S'jz'
p784
sg25
S'0x80bcd08L'
p785
sg27
Nsbasg140
(lp786
Vmov eax, mem
p787
aVmov eax, mem
p788
ag769
ag776
aVje address
p789
asg154
Nsg5
S'0x80bccfaL'
p790
sg156
(lp791
S'0x80bccdbL'
p792
aS'0x80bccefL'
p793
asg6
Nsg158
(lp794
S'0x80bcd0aL'
p795
aS'0x80bcd13L'
p796
asg162
Nsg163
Nsg164
S'f7f1722576cc4fe08ef64a8368f11a63'
p797
sg166
S'0568ee5669efc816aa11ca1066b1abd1'
p798
sg168
(lp799
g756
ag763
ag770
ag777
ag784
asg170
Nsba(ibclass
BBasicBlock
p800
(dp801
g12
Nsg13
(lp802
(ibclass
BInstr
p803
(dp804
g2
Nsg17
S'mov     [ebp+ch_len], 10h'
p805
sg19
S'c745d410000000'
p806
sg21
Vmov dword ptr [ebp - 0x2c], 0x10
p807
sg5
L134991114L
sg6
Nsg23
S'mov'
p808
sg25
S'0x80bcd0aL'
p809
sg27
Nsba(ibclass
BInstr
p810
(dp811
g2
Nsg17
S'jmp     short loc_80BCD1A'
p812
sg19
S'eb07'
p813
sg21
Vjmp 9
p814
sg5
L134991121L
sg6
Nsg23
S'jmp'
p815
sg25
S'0x80bcd11L'
p816
sg27
Nsbasg140
(lp817
Vmov mem, address
p818
ag814
asg154
Nsg5
S'0x80bcd0aL'
p819
sg156
(lp820
S'0x80bccfaL'
p821
asg6
Nsg158
(lp822
S'0x80bcd1aL'
p823
asg162
Nsg163
Nsg164
S'8b9a0d40e062be2b9b2d9885108fb196'
p824
sg166
S'3383f5932510dad5b1ddfe0e9cd1e82c'
p825
sg168
(lp826
g808
ag815
asg170
Nsba(ibclass
BBasicBlock
p827
(dp828
g12
Nsg13
(lp829
(ibclass
BInstr
p830
(dp831
g2
Nsg17
S'mov     [ebp+ch_len], 20h'
p832
sg19
S'c745d420000000'
p833
sg21
Vmov dword ptr [ebp - 0x2c], 0x20
p834
sg5
L134991123L
sg6
Nsg23
S'mov'
p835
sg25
S'0x80bcd13L'
p836
sg27
Nsbasg140
(lp837
Vmov mem, address
p838
asg154
Nsg5
S'0x80bcd13L'
p839
sg156
(lp840
S'0x80bccfaL'
p841
asg6
Nsg158
(lp842
S'0x80bcd1aL'
p843
asg162
Nsg163
Nsg164
S'96a4a0e6e9ac88756a0fcba989d0a844'
p844
sg166
S'1d46daf95320f9bc046219ebdc39a33b'
p845
sg168
(lp846
g835
asg170
Nsba(ibclass
BBasicBlock
p847
(dp848
g12
Nsg13
(lp849
(ibclass
BInstr
p850
(dp851
g2
Nsg17
S'mov     eax, [ebp+ch_len]'
p852
sg19
S'8b45d4'
p853
sg21
Vmov eax, dword ptr [ebp - 0x2c]
p854
sg5
L134991130L
sg6
Nsg23
S'mov'
p855
sg25
S'0x80bcd1aL'
p856
sg27
Nsba(ibclass
BInstr
p857
(dp858
g2
Nsg17
S'cmp     eax, 20h'
p859
sg19
S'83f820'
p860
sg21
Vcmp eax, 0x20
p861
sg5
L134991133L
sg6
Nsg23
S'cmp'
p862
sg25
S'0x80bcd1dL'
p863
sg27
Nsba(ibclass
BInstr
p864
(dp865
g2
Nsg17
S'jle     short loc_80BCD27'
p866
sg19
S'7e05'
p867
sg21
Vjle 7
p868
sg5
L134991136L
sg6
Nsg23
S'jle'
p869
sg25
S'0x80bcd20L'
p870
sg27
Nsbasg140
(lp871
Vmov eax, mem
p872
aVcmp eax, address
p873
ag868
asg154
Nsg5
S'0x80bcd1aL'
p874
sg156
(lp875
S'0x80bcd0aL'
p876
aS'0x80bcd13L'
p877
asg6
Nsg158
(lp878
S'0x80bcd22L'
p879
aS'0x80bcd27L'
p880
asg162
Nsg163
Nsg164
S'8a232648047fbeed381dd578277253a0'
p881
sg166
S'ae35ab43c1caa6c7fbbf04cdc2a84d33'
p882
sg168
(lp883
g855
ag862
ag869
asg170
Nsba(ibclass
BBasicBlock
p884
(dp885
g12
Nsg13
(lp886
(ibclass
BInstr
p887
(dp888
g2
Nsg17
S'mov     eax, 20h'
p889
sg19
S'b820000000'
p890
sg21
Vmov eax, 0x20
p891
sg5
L134991138L
sg6
Nsg23
S'mov'
p892
sg25
S'0x80bcd22L'
p893
sg27
Nsbasg140
(lp894
Vmov eax, address
p895
asg154
Nsg5
S'0x80bcd22L'
p896
sg156
(lp897
S'0x80bcd1aL'
p898
asg6
Nsg158
(lp899
S'0x80bcd27L'
p900
asg162
Nsg163
Nsg164
S'96a4a0e6e9ac88756a0fcba989d0a844'
p901
sg166
S'9f50df646683897e817abb208201b969'
p902
sg168
(lp903
g892
asg170
Nsba(ibclass
BBasicBlock
p904
(dp905
g12
Nsg13
(lp906
(ibclass
BInstr
p907
(dp908
g2
Nsg17
S'mov     [ebp+i], eax'
p909
sg19
S'8945e4'
p910
sg21
Vmov dword ptr [ebp - 0x1c], eax
p911
sg5
L134991143L
sg6
Nsg23
S'mov'
p912
sg25
S'0x80bcd27L'
p913
sg27
Nsba(ibclass
BInstr
p914
(dp915
g2
Nsg17
S'mov     eax, [ebp+s]'
p916
sg19
S'8b45c4'
p917
sg21
Vmov eax, dword ptr [ebp - 0x3c]
p918
sg5
L134991146L
sg6
Nsg23
S'mov'
p919
sg25
S'0x80bcd2aL'
p920
sg27
Nsba(ibclass
BInstr
p921
(dp922
g2
Nsg17
S'mov     eax, [eax+54h]'
p923
sg19
S'8b4054'
p924
sg21
Vmov eax, dword ptr [eax + 0x54]
p925
sg5
L134991149L
sg6
Nsg23
S'mov'
p926
sg25
S'0x80bcd2dL'
p927
sg27
Nsba(ibclass
BInstr
p928
(dp929
g2
Nsg17
S'mov     edx, [ebp+i]'
p930
sg19
S'8b55e4'
p931
sg21
Vmov edx, dword ptr [ebp - 0x1c]
p932
sg5
L134991152L
sg6
Nsg23
S'mov'
p933
sg25
S'0x80bcd30L'
p934
sg27
Nsba(ibclass
BInstr
p935
(dp936
g2
Nsg17
S'mov     [eax+64h], edx'
p937
sg19
S'895064'
p938
sg21
Vmov dword ptr [eax + 0x64], edx
p939
sg5
L134991155L
sg6
Nsg23
S'mov'
p940
sg25
S'0x80bcd33L'
p941
sg27
Nsba(ibclass
BInstr
p942
(dp943
g2
Nsg17
S'mov     eax, [ebp+i]'
p944
sg19
S'8b45e4'
p945
sg21
Vmov eax, dword ptr [ebp - 0x1c]
p946
sg5
L134991158L
sg6
Nsg23
S'mov'
p947
sg25
S'0x80bcd36L'
p948
sg27
Nsba(ibclass
BInstr
p949
(dp950
g2
Nsg17
S'mov     edx, [ebp+s]'
p951
sg19
S'8b55c4'
p952
sg21
Vmov edx, dword ptr [ebp - 0x3c]
p953
sg5
L134991161L
sg6
Nsg23
S'mov'
p954
sg25
S'0x80bcd39L'
p955
sg27
Nsba(ibclass
BInstr
p956
(dp957
g2
Nsg17
S'mov     ecx, [edx+58h]'
p958
sg19
S'8b4a58'
p959
sg21
Vmov ecx, dword ptr [edx + 0x58]
p960
sg5
L134991164L
sg6
Nsg23
S'mov'
p961
sg25
S'0x80bcd3cL'
p962
sg27
Nsba(ibclass
BInstr
p963
(dp964
g2
Nsg17
S'mov     edx, 20h'
p965
sg19
S'ba20000000'
p966
sg21
Vmov edx, 0x20
p967
sg5
L134991167L
sg6
Nsg23
S'mov'
p968
sg25
S'0x80bcd3fL'
p969
sg27
Nsba(ibclass
BInstr
p970
(dp971
g2
Nsg17
S'sub     edx, [ebp+i]'
p972
sg19
S'2b55e4'
p973
sg21
Vsub edx, dword ptr [ebp - 0x1c]
p974
sg5
L134991172L
sg6
Nsg23
S'sub'
p975
sg25
S'0x80bcd44L'
p976
sg27
Nsba(ibclass
BInstr
p977
(dp978
g2
Nsg17
S'add     edx, 0C0h'
p979
sg19
S'81c2c0000000'
p980
sg21
Vadd edx, 0xc0
p981
sg5
L134991175L
sg6
Nsg23
S'add'
p982
sg25
S'0x80bcd47L'
p983
sg27
Nsba(ibclass
BInstr
p984
(dp985
g2
Nsg17
S'add     ecx, edx'
p986
sg19
S'01d1'
p987
sg21
Vadd ecx, edx
p988
sg5
L134991181L
sg6
Nsg23
S'add'
p989
sg25
S'0x80bcd4dL'
p990
sg27
Nsba(ibclass
BInstr
p991
(dp992
g2
Nsg17
S'mov     edx, [ebp+s]'
p993
sg19
S'8b55c4'
p994
sg21
Vmov edx, dword ptr [ebp - 0x3c]
p995
sg5
L134991183L
sg6
Nsg23
S'mov'
p996
sg25
S'0x80bcd4fL'
p997
sg27
Nsba(ibclass
BInstr
p998
(dp999
g2
Nsg17
S'mov     edx, [edx+54h]'
p1000
sg19
S'8b5254'
p1001
sg21
Vmov edx, dword ptr [edx + 0x54]
p1002
sg5
L134991186L
sg6
Nsg23
S'mov'
p1003
sg25
S'0x80bcd52L'
p1004
sg27
Nsba(ibclass
BInstr
p1005
(dp1006
g2
Nsg17
S'add     edx, 68h'
p1007
sg19
S'83c268'
p1008
sg21
Vadd edx, 0x68
p1009
sg5
L134991189L
sg6
Nsg23
S'add'
p1010
sg25
S'0x80bcd55L'
p1011
sg27
Nsba(ibclass
BInstr
p1012
(dp1013
g2
Nsg17
S'mov     [esp+8], eax    ; n'
p1014
sg19
S'89442408'
p1015
sg21
Vmov dword ptr [esp + 8], eax
p1016
sg5
L134991192L
sg6
Nsg23
S'mov'
p1017
sg25
S'0x80bcd58L'
p1018
sg27
Nsba(ibclass
BInstr
p1019
(dp1020
g2
Nsg17
S'mov     [esp+4], ecx    ; src'
p1021
sg19
S'894c2404'
p1022
sg21
Vmov dword ptr [esp + 4], ecx
p1023
sg5
L134991196L
sg6
Nsg23
S'mov'
p1024
sg25
S'0x80bcd5cL'
p1025
sg27
Nsba(ibclass
BInstr
p1026
(dp1027
g2
Nsg17
S'mov     [esp], edx      ; dest'
p1028
sg19
S'891424'
p1029
sg21
Vmov dword ptr [esp], edx
p1030
sg5
L134991200L
sg6
Nsg23
S'mov'
p1031
sg25
S'0x80bcd60L'
p1032
sg27
Nsba(ibclass
BInstr
p1033
(dp1034
g2
Nsg17
S'call    _memcpy'
p1035
sg19
S'e818c8f8ff'
p1036
sg21
Vcall 0xfff8c81d
p1037
sg5
L134991203L
sg6
Nsg23
S'call'
p1038
sg25
S'0x80bcd63L'
p1039
sg27
Nsba(ibclass
BInstr
p1040
(dp1041
g2
Nsg17
S'mov     eax, [ebp+s]'
p1042
sg19
S'8b45c4'
p1043
sg21
Vmov eax, dword ptr [ebp - 0x3c]
p1044
sg5
L134991208L
sg6
Nsg23
S'mov'
p1045
sg25
S'0x80bcd68L'
p1046
sg27
Nsba(ibclass
BInstr
p1047
(dp1048
g2
Nsg17
S'mov     eax, [eax+58h]'
p1049
sg19
S'8b4058'
p1050
sg21
Vmov eax, dword ptr [eax + 0x58]
p1051
sg5
L134991211L
sg6
Nsg23
S'mov'
p1052
sg25
S'0x80bcd6bL'
p1053
sg27
Nsba(ibclass
BInstr
p1054
(dp1055
g2
Nsg17
S'test    eax, eax'
p1056
sg19
S'85c0'
p1057
sg21
Vtest eax, eax
p1058
sg5
L134991214L
sg6
Nsg23
S'test'
p1059
sg25
S'0x80bcd6eL'
p1060
sg27
Nsba(ibclass
BInstr
p1061
(dp1062
g2
Nsg17
S'jz      short loc_80BCD7D'
p1063
sg19
S'740b'
p1064
sg21
Vje 0xd
p1065
sg5
L134991216L
sg6
Nsg23
S'jz'
p1066
sg25
S'0x80bcd70L'
p1067
sg27
Nsbasg140
(lp1068
Vmov mem, eax
p1069
aVmov eax, mem
p1070
aVmov eax, mem
p1071
aVmov edx, mem
p1072
aVmov mem, edx
p1073
aVmov eax, mem
p1074
aVmov edx, mem
p1075
aVmov ecx, mem
p1076
aVmov edx, address
p1077
aVsub edx, mem
p1078
aVadd edx, address
p1079
ag988
aVmov edx, mem
p1080
aVmov edx, mem
p1081
aVadd edx, address
p1082
aVmov mem, eax
p1083
aVmov mem, ecx
p1084
aVmov mem, edx
p1085
aVcall address
p1086
aVmov eax, mem
p1087
aVmov eax, mem
p1088
ag1058
aVje address
p1089
asg154
Nsg5
S'0x80bcd27L'
p1090
sg156
(lp1091
S'0x80bcd1aL'
p1092
aS'0x80bcd22L'
p1093
asg6
Nsg158
(lp1094
S'0x80bcd72L'
p1095
aS'0x80bcd7dL'
p1096
asg162
Nsg163
Nsg164
S'c26ce3d8a96794f502df46b14695064a'
p1097
sg166
S'db19df087a044eda0287e1aa2e7c0fdf'
p1098
sg168
(lp1099
g912
ag919
ag926
ag933
ag940
ag947
ag954
ag961
ag968
ag975
ag982
ag989
ag996
ag1003
ag1010
ag1017
ag1024
ag1031
ag1038
ag1045
ag1052
ag1059
ag1066
asg170
Nsba(ibclass
BBasicBlock
p1100
(dp1101
g12
Nsg13
(lp1102
(ibclass
BInstr
p1103
(dp1104
g2
Nsg17
S'mov     eax, [ebp+s]'
p1105
sg19
S'8b45c4'
p1106
sg21
Vmov eax, dword ptr [ebp - 0x3c]
p1107
sg5
L134991218L
sg6
Nsg23
S'mov'
p1108
sg25
S'0x80bcd72L'
p1109
sg27
Nsba(ibclass
BInstr
p1110
(dp1111
g2
Nsg17
S'mov     [esp], eax      ; s'
p1112
sg19
S'890424'
p1113
sg21
Vmov dword ptr [esp], eax
p1114
sg5
L134991221L
sg6
Nsg23
S'mov'
p1115
sg25
S'0x80bcd75L'
p1116
sg27
Nsba(ibclass
BInstr
p1117
(dp1118
g2
Nsg17
S'call    ssl3_free'
p1119
sg19
S'e8f043ffff'
p1120
sg21
Vcall 0xffff43f5
p1121
sg5
L134991224L
sg6
Nsg23
S'call'
p1122
sg25
S'0x80bcd78L'
p1123
sg27
Nsbasg140
(lp1124
Vmov eax, mem
p1125
aVmov mem, eax
p1126
aVcall address
p1127
asg154
Nsg5
S'0x80bcd72L'
p1128
sg156
(lp1129
S'0x80bcd27L'
p1130
asg6
Nsg158
(lp1131
S'0x80bcd7dL'
p1132
asg162
Nsg163
Nsg164
S'0bf1a79a6a1155c5085c1c85d6d83d05'
p1133
sg166
S'5af7f5bfd15310706e43fa164fed7a71'
p1134
sg168
(lp1135
g1108
ag1115
ag1122
asg170
Nsba(ibclass
BBasicBlock
p1136
(dp1137
g12
Nsg13
(lp1138
(ibclass
BInstr
p1139
(dp1140
g2
Nsg17
S'mov     eax, [ebp+s]'
p1141
sg19
S'8b45c4'
p1142
sg21
Vmov eax, dword ptr [ebp - 0x3c]
p1143
sg5
L134991229L
sg6
Nsg23
S'mov'
p1144
sg25
S'0x80bcd7dL'
p1145
sg27
Nsba(ibclass
BInstr
p1146
(dp1147
g2
Nsg17
S'mov     eax, [eax+3Ch]'
p1148
sg19
S'8b403c'
p1149
sg21
Vmov eax, dword ptr [eax + 0x3c]
p1150
sg5
L134991232L
sg6
Nsg23
S'mov'
p1151
sg25
S'0x80bcd80L'
p1152
sg27
Nsba(ibclass
BInstr
p1153
(dp1154
g2
Nsg17
S'mov     dword ptr [esp+4], 3FFFh; len'
p1155
sg19
S'c7442404ff3f0000'
p1156
sg21
Vmov dword ptr [esp + 4], 0x3fff
p1157
sg5
L134991235L
sg6
Nsg23
S'mov'
p1158
sg25
S'0x80bcd83L'
p1159
sg27
Nsba(ibclass
BInstr
p1160
(dp1161
g2
Nsg17
S'mov     [esp], eax      ; str'
p1162
sg19
S'890424'
p1163
sg21
Vmov dword ptr [esp], eax
p1164
sg5
L134991243L
sg6
Nsg23
S'mov'
p1165
sg25
S'0x80bcd8bL'
p1166
sg27
Nsba(ibclass
BInstr
p1167
(dp1168
g2
Nsg17
S'call    BUF_MEM_grow_clean'
p1169
sg19
S'e83f650700'
p1170
sg21
Vcall 0x76544
p1171
sg5
L134991246L
sg6
Nsg23
S'call'
p1172
sg25
S'0x80bcd8eL'
p1173
sg27
Nsba(ibclass
BInstr
p1174
(dp1175
g2
Nsg17
S'test    eax, eax'
p1176
sg19
S'85c0'
p1177
sg21
Vtest eax, eax
p1178
sg5
L134991251L
sg6
Nsg23
S'test'
p1179
sg25
S'0x80bcd93L'
p1180
sg27
Nsba(ibclass
BInstr
p1181
(dp1182
g2
Nsg17
S'jnz     short loc_80BCDC8'
p1183
sg19
S'7531'
p1184
sg21
Vjne 0x33
p1185
sg5
L134991253L
sg6
Nsg23
S'jnz'
p1186
sg25
S'0x80bcd95L'
p1187
sg27
Nsbasg140
(lp1188
Vmov eax, mem
p1189
aVmov eax, mem
p1190
aVmov mem, address
p1191
aVmov mem, eax
p1192
aVcall address
p1193
ag1178
aVjne address
p1194
asg154
Nsg5
S'0x80bcd7dL'
p1195
sg156
(lp1196
S'0x80bcd27L'
p1197
aS'0x80bcd72L'
p1198
asg6
Nsg158
(lp1199
S'0x80bcd97L'
p1200
aS'0x80bcdc8L'
p1201
asg162
Nsg163
Nsg164
S'4fdb5e075c27ab960b936dca7d27c4ac'
p1202
sg166
S'43ac9f2e4b343d96fd6f433e8bd37f65'
p1203
sg168
(lp1204
g1144
ag1151
ag1158
ag1165
ag1172
ag1179
ag1186
asg170
Nsba(ibclass
BBasicBlock
p1205
(dp1206
g12
Nsg13
(lp1207
(ibclass
BInstr
p1208
(dp1209
g2
Nsg17
S'mov     dword ptr [esp+10h], 29Dh; line'
p1210
sg19
S'c74424109d020000'
p1211
sg21
Vmov dword ptr [esp + 0x10], 0x29d
p1212
sg5
L134991255L
sg6
Nsg23
S'mov'
p1213
sg25
S'0x80bcd97L'
p1214
sg27
Nsba(ibclass
BInstr
p1215
(dp1216
g2
Nsg17
S'mov     dword ptr [esp+0Ch], offset aS23_clnt_c; "s23_clnt.c"'
p1217
sg19
S'c744240c20822108'
p1218
sg21
Vmov dword ptr [esp + 0xc], 0x8218220
p1219
sg5
L134991263L
sg6
Nsg23
S'mov'
p1220
sg25
S'0x80bcd9fL'
p1221
sg27
Nsba(ibclass
BInstr
p1222
(dp1223
g2
Nsg17
S'mov     dword ptr [esp+8], 7; reason'
p1224
sg19
S'c744240807000000'
p1225
sg21
Vmov dword ptr [esp + 8], 7
p1226
sg5
L134991271L
sg6
Nsg23
S'mov'
p1227
sg25
S'0x80bcda7L'
p1228
sg27
Nsba(ibclass
BInstr
p1229
(dp1230
g2
Nsg17
S'mov     dword ptr [esp+4], 77h; func'
p1231
sg19
S'c744240477000000'
p1232
sg21
Vmov dword ptr [esp + 4], 0x77
p1233
sg5
L134991279L
sg6
Nsg23
S'mov'
p1234
sg25
S'0x80bcdafL'
p1235
sg27
Nsba(ibclass
BInstr
p1236
(dp1237
g2
Nsg17
S'mov     dword ptr [esp], 14h; lib'
p1238
sg19
S'c7042414000000'
p1239
sg21
Vmov dword ptr [esp], 0x14
p1240
sg5
L134991287L
sg6
Nsg23
S'mov'
p1241
sg25
S'0x80bcdb7L'
p1242
sg27
Nsba(ibclass
BInstr
p1243
(dp1244
g2
Nsg17
S'call    ERR_put_error'
p1245
sg19
S'e8f1260800'
p1246
sg21
Vcall 0x826f6
p1247
sg5
L134991294L
sg6
Nsg23
S'call'
p1248
sg25
S'0x80bcdbeL'
p1249
sg27
Nsba(ibclass
BInstr
p1250
(dp1251
g2
Nsg17
S'jmp     err'
p1252
sg19
S'e997040000'
p1253
sg21
Vjmp 0x49c
p1254
sg5
L134991299L
sg6
Nsg23
S'jmp'
p1255
sg25
S'0x80bcdc3L'
p1256
sg27
Nsbasg140
(lp1257
Vmov mem, address
p1258
aVmov mem, address
p1259
aVmov mem, 7
p1260
aVmov mem, address
p1261
aVmov mem, address
p1262
aVcall address
p1263
aVjmp address
p1264
asg154
Nsg5
S'0x80bcd97L'
p1265
sg156
(lp1266
S'0x80bcd7dL'
p1267
asg6
Nsg158
(lp1268
S'0x80bd25fL'
p1269
asg162
Nsg163
Nsg164
S'a76a0a3b827ea6cd402bf72e182d1d25'
p1270
sg166
S'd010df5357da4497a737e8494f36802a'
p1271
sg168
(lp1272
g1213
ag1220
ag1227
ag1234
ag1241
ag1248
ag1255
asg170
Nsba(ibclass
BBasicBlock
p1273
(dp1274
g12
Nsg13
(lp1275
(ibclass
BInstr
p1276
(dp1277
g2
Nsg17
S'mov     eax, [ebp+s]'
p1278
sg19
S'8b45c4'
p1279
sg21
Vmov eax, dword ptr [ebp - 0x3c]
p1280
sg5
L134991304L
sg6
Nsg23
S'mov'
p1281
sg25
S'0x80bcdc8L'
p1282
sg27
Nsba(ibclass
BInstr
p1283
(dp1284
g2
Nsg17
S'mov     dword ptr [eax+34h], 1020h'
p1285
sg19
S'c7403420100000'
p1286
sg21
Vmov dword ptr [eax + 0x34], 0x1020
p1287
sg5
L134991307L
sg6
Nsg23
S'mov'
p1288
sg25
S'0x80bcdcbL'
p1289
sg27
Nsba(ibclass
BInstr
p1290
(dp1291
g2
Nsg17
S'mov     eax, [ebp+s]'
p1292
sg19
S'8b45c4'
p1293
sg21
Vmov eax, dword ptr [ebp - 0x3c]
p1294
sg5
L134991314L
sg6
Nsg23
S'mov'
p1295
sg25
S'0x80bcdd2L'
p1296
sg27
Nsba(ibclass
BInstr
p1297
(dp1298
g2
Nsg17
S'mov     eax, [eax+110h]'
p1299
sg19
S'8b8010010000'
p1300
sg21
Vmov eax, dword ptr [eax + 0x110]
p1301
sg5
L134991317L
sg6
Nsg23
S'mov'
p1302
sg25
S'0x80bcdd5L'
p1303
sg27
Nsba(ibclass
BInstr
p1304
(dp1305
g2
Nsg17
S'cmp     eax, 2'
p1306
sg19
S'83f802'
p1307
sg21
Vcmp eax, 2
p1308
sg5
L134991323L
sg6
Nsg23
S'cmp'
p1309
sg25
S'0x80bcddbL'
p1310
sg27
Nsba(ibclass
BInstr
p1311
(dp1312
g2
Nsg17
S'jz      short loc_80BCDED'
p1313
sg19
S'740d'
p1314
sg21
Vje 0xf
p1315
sg5
L134991326L
sg6
Nsg23
S'jz'
p1316
sg25
S'0x80bcddeL'
p1317
sg27
Nsbasg140
(lp1318
Vmov eax, mem
p1319
aVmov mem, address
p1320
aVmov eax, mem
p1321
aVmov eax, mem
p1322
ag1308
aVje address
p1323
asg154
Nsg5
S'0x80bcdc8L'
p1324
sg156
(lp1325
S'0x80bcd7dL'
p1326
asg6
Nsg158
(lp1327
S'0x80bcde0L'
p1328
aS'0x80bcdedL'
p1329
asg162
Nsg163
Nsg164
S'dce3f9856ba3a5e0148d88810ed6ccab'
p1330
sg166
S'9bf6e9d18f394b60ea21166ec6ceeac3'
p1331
sg168
(lp1332
g1281
ag1288
ag1295
ag1302
ag1309
ag1316
asg170
Nsba(ibclass
BBasicBlock
p1333
(dp1334
g12
Nsg13
(lp1335
(ibclass
BInstr
p1336
(dp1337
g2
Nsg17
S'mov     eax, [ebp+s]'
p1338
sg19
S'8b45c4'
p1339
sg21
Vmov eax, dword ptr [ebp - 0x3c]
p1340
sg5
L134991328L
sg6
Nsg23
S'mov'
p1341
sg25
S'0x80bcde0L'
p1342
sg27
Nsba(ibclass
BInstr
p1343
(dp1344
g2
Nsg17
S'mov     eax, [eax+54h]'
p1345
sg19
S'8b4054'
p1346
sg21
Vmov eax, dword ptr [eax + 0x54]
p1347
sg5
L134991331L
sg6
Nsg23
S'mov'
p1348
sg25
S'0x80bcde3L'
p1349
sg27
Nsba(ibclass
BInstr
p1350
(dp1351
g2
Nsg17
S'mov     dword ptr [eax+0Ch], 1'
p1352
sg19
S'c7400c01000000'
p1353
sg21
Vmov dword ptr [eax + 0xc], 1
p1354
sg5
L134991334L
sg6
Nsg23
S'mov'
p1355
sg25
S'0x80bcde6L'
p1356
sg27
Nsbasg140
(lp1357
Vmov eax, mem
p1358
aVmov eax, mem
p1359
aVmov mem, 1
p1360
asg154
Nsg5
S'0x80bcde0L'
p1361
sg156
(lp1362
S'0x80bcdc8L'
p1363
asg6
Nsg158
(lp1364
S'0x80bcdedL'
p1365
asg162
Nsg163
Nsg164
S'9eccc8b14ee1489d7c3de99648417ffe'
p1366
sg166
S'faff3f47c1bf7415b1fda86a9d0b216e'
p1367
sg168
(lp1368
g1341
ag1348
ag1355
asg170
Nsba(ibclass
BBasicBlock
p1369
(dp1370
g12
Nsg13
(lp1371
(ibclass
BInstr
p1372
(dp1373
g2
Nsg17
S'mov     eax, [ebp+s]'
p1374
sg19
S'8b45c4'
p1375
sg21
Vmov eax, dword ptr [ebp - 0x3c]
p1376
sg5
L134991341L
sg6
Nsg23
S'mov'
p1377
sg25
S'0x80bcdedL'
p1378
sg27
Nsba(ibclass
BInstr
p1379
(dp1380
g2
Nsg17
S'mov     dword ptr [eax+38h], 0F0h'
p1381
sg19
S'c74038f0000000'
p1382
sg21
Vmov dword ptr [eax + 0x38], 0xf0
p1383
sg5
L134991344L
sg6
Nsg23
S'mov'
p1384
sg25
S'0x80bcdf0L'
p1385
sg27
Nsba(ibclass
BInstr
p1386
(dp1387
g2
Nsg17
S'mov     edx, [ebp+n]'
p1388
sg19
S'8b55dc'
p1389
sg21
Vmov edx, dword ptr [ebp - 0x24]
p1390
sg5
L134991351L
sg6
Nsg23
S'mov'
p1391
sg25
S'0x80bcdf7L'
p1392
sg27
Nsba(ibclass
BInstr
p1393
(dp1394
g2
Nsg17
S'mov     eax, [ebp+s]'
p1395
sg19
S'8b45c4'
p1396
sg21
Vmov eax, dword ptr [ebp - 0x3c]
p1397
sg5
L134991354L
sg6
Nsg23
S'mov'
p1398
sg25
S'0x80bcdfaL'
p1399
sg27
Nsba(ibclass
BInstr
p1400
(dp1401
g2
Nsg17
S'mov     [eax+50h], edx'
p1402
sg19
S'895050'
p1403
sg21
Vmov dword ptr [eax + 0x50], edx
p1404
sg5
L134991357L
sg6
Nsg23
S'mov'
p1405
sg25
S'0x80bcdfdL'
p1406
sg27
Nsba(ibclass
BInstr
p1407
(dp1408
g2
Nsg17
S'mov     eax, [ebp+s]'
p1409
sg19
S'8b45c4'
p1410
sg21
Vmov eax, dword ptr [ebp - 0x3c]
p1411
sg5
L134991360L
sg6
Nsg23
S'mov'
p1412
sg25
S'0x80bce00L'
p1413
sg27
Nsba(ibclass
BInstr
p1414
(dp1415
g2
Nsg17
S'mov     eax, [eax+54h]'
p1416
sg19
S'8b4054'
p1417
sg21
Vmov eax, dword ptr [eax + 0x54]
p1418
sg5
L134991363L
sg6
Nsg23
S'mov'
p1419
sg25
S'0x80bce03L'
p1420
sg27
Nsba(ibclass
BInstr
p1421
(dp1422
g2
Nsg17
S'mov     edx, [eax+30h]'
p1423
sg19
S'8b5030'
p1424
sg21
Vmov edx, dword ptr [eax + 0x30]
p1425
sg5
L134991366L
sg6
Nsg23
S'mov'
p1426
sg25
S'0x80bce06L'
p1427
sg27
Nsba(ibclass
BInstr
p1428
(dp1429
g2
Nsg17
S'mov     eax, [ebp+s]'
p1430
sg19
S'8b45c4'
p1431
sg21
Vmov eax, dword ptr [ebp - 0x3c]
p1432
sg5
L134991369L
sg6
Nsg23
S'mov'
p1433
sg25
S'0x80bce09L'
p1434
sg27
Nsba(ibclass
BInstr
p1435
(dp1436
g2
Nsg17
S'mov     [eax+4Ch], edx'
p1437
sg19
S'89504c'
p1438
sg21
Vmov dword ptr [eax + 0x4c], edx
p1439
sg5
L134991372L
sg6
Nsg23
S'mov'
p1440
sg25
S'0x80bce0cL'
p1441
sg27
Nsba(ibclass
BInstr
p1442
(dp1443
g2
Nsg17
S'mov     edx, [ebp+n]'
p1444
sg19
S'8b55dc'
p1445
sg21
Vmov edx, dword ptr [ebp - 0x24]
p1446
sg5
L134991375L
sg6
Nsg23
S'mov'
p1447
sg25
S'0x80bce0fL'
p1448
sg27
Nsba(ibclass
BInstr
p1449
(dp1450
g2
Nsg17
S'mov     eax, [ebp+s]'
p1451
sg19
S'8b45c4'
p1452
sg21
Vmov eax, dword ptr [ebp - 0x3c]
p1453
sg5
L134991378L
sg6
Nsg23
S'mov'
p1454
sg25
S'0x80bce12L'
p1455
sg27
Nsba(ibclass
BInstr
p1456
(dp1457
g2
Nsg17
S'mov     eax, [eax+4Ch]'
p1458
sg19
S'8b404c'
p1459
sg21
Vmov eax, dword ptr [eax + 0x4c]
p1460
sg5
L134991381L
sg6
Nsg23
S'mov'
p1461
sg25
S'0x80bce15L'
p1462
sg27
Nsba(ibclass
BInstr
p1463
(dp1464
g2
Nsg17
S'mov     [esp+8], edx    ; n'
p1465
sg19
S'89542408'
p1466
sg21
Vmov dword ptr [esp + 8], edx
p1467
sg5
L134991384L
sg6
Nsg23
S'mov'
p1468
sg25
S'0x80bce18L'
p1469
sg27
Nsba(ibclass
BInstr
p1470
(dp1471
g2
Nsg17
S'lea     edx, [ebp+buf]'
p1472
sg19
S'8d55ec'
p1473
sg21
Vlea edx, [ebp - 0x14]
p1474
sg5
L134991388L
sg6
Nsg23
S'lea'
p1475
sg25
S'0x80bce1cL'
p1476
sg27
Nsba(ibclass
BInstr
p1477
(dp1478
g2
Nsg17
S'mov     [esp+4], edx    ; src'
p1479
sg19
S'89542404'
p1480
sg21
Vmov dword ptr [esp + 4], edx
p1481
sg5
L134991391L
sg6
Nsg23
S'mov'
p1482
sg25
S'0x80bce1fL'
p1483
sg27
Nsba(ibclass
BInstr
p1484
(dp1485
g2
Nsg17
S'mov     [esp], eax      ; dest'
p1486
sg19
S'890424'
p1487
sg21
Vmov dword ptr [esp], eax
p1488
sg5
L134991395L
sg6
Nsg23
S'mov'
p1489
sg25
S'0x80bce23L'
p1490
sg27
Nsba(ibclass
BInstr
p1491
(dp1492
g2
Nsg17
S'call    _memcpy'
p1493
sg19
S'e855c7f8ff'
p1494
sg21
Vcall 0xfff8c75a
p1495
sg5
L134991398L
sg6
Nsg23
S'call'
p1496
sg25
S'0x80bce26L'
p1497
sg27
Nsba(ibclass
BInstr
p1498
(dp1499
g2
Nsg17
S'mov     eax, [ebp+s]'
p1500
sg19
S'8b45c4'
p1501
sg21
Vmov eax, dword ptr [ebp - 0x3c]
p1502
sg5
L134991403L
sg6
Nsg23
S'mov'
p1503
sg25
S'0x80bce2bL'
p1504
sg27
Nsba(ibclass
BInstr
p1505
(dp1506
g2
Nsg17
S'mov     eax, [eax+54h]'
p1507
sg19
S'8b4054'
p1508
sg21
Vmov eax, dword ptr [eax + 0x54]
p1509
sg5
L134991406L
sg6
Nsg23
S'mov'
p1510
sg25
S'0x80bce2eL'
p1511
sg27
Nsba(ibclass
BInstr
p1512
(dp1513
g2
Nsg17
S'mov     edx, [ebp+n]'
p1514
sg19
S'8b55dc'
p1515
sg21
Vmov edx, dword ptr [ebp - 0x24]
p1516
sg5
L134991409L
sg6
Nsg23
S'mov'
p1517
sg25
S'0x80bce31L'
p1518
sg27
Nsba(ibclass
BInstr
p1519
(dp1520
g2
Nsg17
S'mov     [eax+28h], edx'
p1521
sg19
S'895028'
p1522
sg21
Vmov dword ptr [eax + 0x28], edx
p1523
sg5
L134991412L
sg6
Nsg23
S'mov'
p1524
sg25
S'0x80bce34L'
p1525
sg27
Nsba(ibclass
BInstr
p1526
(dp1527
g2
Nsg17
S'mov     eax, [ebp+s]'
p1528
sg19
S'8b45c4'
p1529
sg21
Vmov eax, dword ptr [ebp - 0x3c]
p1530
sg5
L134991415L
sg6
Nsg23
S'mov'
p1531
sg25
S'0x80bce37L'
p1532
sg27
Nsba(ibclass
BInstr
p1533
(dp1534
g2
Nsg17
S'mov     eax, [eax+54h]'
p1535
sg19
S'8b4054'
p1536
sg21
Vmov eax, dword ptr [eax + 0x54]
p1537
sg5
L134991418L
sg6
Nsg23
S'mov'
p1538
sg25
S'0x80bce3aL'
p1539
sg27
Nsba(ibclass
BInstr
p1540
(dp1541
g2
Nsg17
S'mov     dword ptr [eax+2Ch], 0'
p1542
sg19
S'c7402c00000000'
p1543
sg21
Vmov dword ptr [eax + 0x2c], 0
p1544
sg5
L134991421L
sg6
Nsg23
S'mov'
p1545
sg25
S'0x80bce3dL'
p1546
sg27
Nsba(ibclass
BInstr
p1547
(dp1548
g2
Nsg17
S'mov     eax, [ebp+s]'
p1549
sg19
S'8b45c4'
p1550
sg21
Vmov eax, dword ptr [ebp - 0x3c]
p1551
sg5
L134991428L
sg6
Nsg23
S'mov'
p1552
sg25
S'0x80bce44L'
p1553
sg27
Nsba(ibclass
BInstr
p1554
(dp1555
g2
Nsg17
S'mov     eax, [eax+54h]'
p1556
sg19
S'8b4054'
p1557
sg21
Vmov eax, dword ptr [eax + 0x54]
p1558
sg5
L134991431L
sg6
Nsg23
S'mov'
p1559
sg25
S'0x80bce47L'
p1560
sg27
Nsba(ibclass
BInstr
p1561
(dp1562
g2
Nsg17
S'mov     dword ptr [eax+0D4h], 1'
p1563
sg19
S'c780d400000001000000'
p1564
sg21
Vmov dword ptr [eax + 0xd4], 1
p1565
sg5
L134991434L
sg6
Nsg23
S'mov'
p1566
sg25
S'0x80bce4aL'
p1567
sg27
Nsba(ibclass
BInstr
p1568
(dp1569
g2
Nsg17
S'call    SSLv2_client_method'
p1570
sg19
S'e80c07feff'
p1571
sg21
Vcall 0xfffe0711
p1572
sg5
L134991444L
sg6
Nsg23
S'call'
p1573
sg25
S'0x80bce54L'
p1574
sg27
Nsba(ibclass
BInstr
p1575
(dp1576
g2
Nsg17
S'mov     edx, [ebp+s]'
p1577
sg19
S'8b55c4'
p1578
sg21
Vmov edx, dword ptr [ebp - 0x3c]
p1579
sg5
L134991449L
sg6
Nsg23
S'mov'
p1580
sg25
S'0x80bce59L'
p1581
sg27
Nsba(ibclass
BInstr
p1582
(dp1583
g2
Nsg17
S'mov     [edx+8], eax'
p1584
sg19
S'894208'
p1585
sg21
Vmov dword ptr [edx + 8], eax
p1586
sg5
L134991452L
sg6
Nsg23
S'mov'
p1587
sg25
S'0x80bce5cL'
p1588
sg27
Nsba(ibclass
BInstr
p1589
(dp1590
g2
Nsg17
S'mov     eax, [ebp+s]'
p1591
sg19
S'8b45c4'
p1592
sg21
Vmov eax, dword ptr [ebp - 0x3c]
p1593
sg5
L134991455L
sg6
Nsg23
S'mov'
p1594
sg25
S'0x80bce5fL'
p1595
sg27
Nsba(ibclass
BInstr
p1596
(dp1597
g2
Nsg17
S'mov     eax, [eax+8]'
p1598
sg19
S'8b4008'
p1599
sg21
Vmov eax, dword ptr [eax + 8]
p1600
sg5
L134991458L
sg6
Nsg23
S'mov'
p1601
sg25
S'0x80bce62L'
p1602
sg27
Nsba(ibclass
BInstr
p1603
(dp1604
g2
Nsg17
S'mov     edx, [eax+14h]'
p1605
sg19
S'8b5014'
p1606
sg21
Vmov edx, dword ptr [eax + 0x14]
p1607
sg5
L134991461L
sg6
Nsg23
S'mov'
p1608
sg25
S'0x80bce65L'
p1609
sg27
Nsba(ibclass
BInstr
p1610
(dp1611
g2
Nsg17
S'mov     eax, [ebp+s]'
p1612
sg19
S'8b45c4'
p1613
sg21
Vmov eax, dword ptr [ebp - 0x3c]
p1614
sg5
L134991464L
sg6
Nsg23
S'mov'
p1615
sg25
S'0x80bce68L'
p1616
sg27
Nsba(ibclass
BInstr
p1617
(dp1618
g2
Nsg17
S'mov     [eax+20h], edx'
p1619
sg19
S'895020'
p1620
sg21
Vmov dword ptr [eax + 0x20], edx
p1621
sg5
L134991467L
sg6
Nsg23
S'mov'
p1622
sg25
S'0x80bce6bL'
p1623
sg27
Nsba(ibclass
BInstr
p1624
(dp1625
g2
Nsg17
S'jmp     loc_80BD22F'
p1626
sg19
S'e9bc030000'
p1627
sg21
Vjmp 0x3c1
p1628
sg5
L134991470L
sg6
Nsg23
S'jmp'
p1629
sg25
S'0x80bce6eL'
p1630
sg27
Nsbasg140
(lp1631
Vmov eax, mem
p1632
aVmov mem, address
p1633
aVmov edx, mem
p1634
aVmov eax, mem
p1635
aVmov mem, edx
p1636
aVmov eax, mem
p1637
aVmov eax, mem
p1638
aVmov edx, mem
p1639
aVmov eax, mem
p1640
aVmov mem, edx
p1641
aVmov edx, mem
p1642
aVmov eax, mem
p1643
aVmov eax, mem
p1644
aVmov mem, edx
p1645
aVlea edx, mem
p1646
aVmov mem, edx
p1647
aVmov mem, eax
p1648
aVcall address
p1649
aVmov eax, mem
p1650
aVmov eax, mem
p1651
aVmov edx, mem
p1652
aVmov mem, edx
p1653
aVmov eax, mem
p1654
aVmov eax, mem
p1655
aVmov mem, 0
p1656
aVmov eax, mem
p1657
aVmov eax, mem
p1658
aVmov mem, 1
p1659
aVcall address
p1660
aVmov edx, mem
p1661
aVmov mem, eax
p1662
aVmov eax, mem
p1663
aVmov eax, mem
p1664
aVmov edx, mem
p1665
aVmov eax, mem
p1666
aVmov mem, edx
p1667
aVjmp address
p1668
asg154
Nsg5
S'0x80bcdedL'
p1669
sg156
(lp1670
S'0x80bcdc8L'
p1671
aS'0x80bcde0L'
p1672
asg6
Nsg158
(lp1673
S'0x80bd22fL'
p1674
asg162
Nsg163
Nsg164
S'3fef4acb299a89e18712716dd7013cda'
p1675
sg166
S'b3408186e7bbdf6b71a2cb0fbdcc6ea8'
p1676
sg168
(lp1677
g1377
ag1384
ag1391
ag1398
ag1405
ag1412
ag1419
ag1426
ag1433
ag1440
ag1447
ag1454
ag1461
ag1468
ag1475
ag1482
ag1489
ag1496
ag1503
ag1510
ag1517
ag1524
ag1531
ag1538
ag1545
ag1552
ag1559
ag1566
ag1573
ag1580
ag1587
ag1594
ag1601
ag1608
ag1615
ag1622
ag1629
asg170
Nsba(ibclass
BBasicBlock
p1678
(dp1679
g12
Nsg13
(lp1680
(ibclass
BInstr
p1681
(dp1682
g2
Nsg17
S'mov     eax, [ebp+p]'
p1683
sg19
S'8b45e0'
p1684
sg21
Vmov eax, dword ptr [ebp - 0x20]
p1685
sg5
L134991475L
sg6
Nsg23
S'mov'
p1686
sg25
S'0x80bce73L'
p1687
sg27
Nsba(ibclass
BInstr
p1688
(dp1689
g2
Nsg17
S'inc     eax'
p1690
sg19
S'40'
p1691
sg21
Vinc eax
p1692
sg5
L134991478L
sg6
Nsg23
S'inc'
p1693
sg25
S'0x80bce76L'
p1694
sg27
Nsba(ibclass
BInstr
p1695
(dp1696
g2
Nsg17
S'mov     al, [eax]'
p1697
sg19
S'8a00'
p1698
sg21
Vmov al, byte ptr [eax]
p1699
sg5
L134991479L
sg6
Nsg23
S'mov'
p1700
sg25
S'0x80bce77L'
p1701
sg27
Nsba(ibclass
BInstr
p1702
(dp1703
g2
Nsg17
S'cmp     al, 3'
p1704
sg19
S'3c03'
p1705
sg21
Vcmp al, 3
p1706
sg5
L134991481L
sg6
Nsg23
S'cmp'
p1707
sg25
S'0x80bce79L'
p1708
sg27
Nsba(ibclass
BInstr
p1709
(dp1710
g2
Nsg17
S'jnz     loc_80BD201'
p1711
sg19
S'0f8580030000'
p1712
sg21
Vjne 0x386
p1713
sg5
L134991483L
sg6
Nsg23
S'jnz'
p1714
sg25
S'0x80bce7bL'
p1715
sg27
Nsbasg140
(lp1716
Vmov eax, mem
p1717
ag1692
aVmov al, mem
p1718
ag1706
aVjne address
p1719
asg154
Nsg5
S'0x80bce73L'
p1720
sg156
(lp1721
S'0x80bcc2fL'
p1722
aS'0x80bcc5eL'
p1723
aS'0x80bcc6eL'
p1724
aS'0x80bcc7eL'
p1725
asg6
Nsg158
(lp1726
S'0x80bce81L'
p1727
aS'0x80bd201L'
p1728
asg162
Nsg163
Nsg164
S'f3c12ea20933bb1a13f0828ea17a3bf0'
p1729
sg166
S'd96df8e3b77c80b4f70c14b0915543eb'
p1730
sg168
(lp1731
g1686
ag1693
ag1700
ag1707
ag1714
asg170
Nsba(ibclass
BBasicBlock
p1732
(dp1733
g12
Nsg13
(lp1734
(ibclass
BInstr
p1735
(dp1736
g2
Nsg17
S'mov     eax, [ebp+p]'
p1737
sg19
S'8b45e0'
p1738
sg21
Vmov eax, dword ptr [ebp - 0x20]
p1739
sg5
L134991489L
sg6
Nsg23
S'mov'
p1740
sg25
S'0x80bce81L'
p1741
sg27
Nsba(ibclass
BInstr
p1742
(dp1743
g2
Nsg17
S'add     eax, 2'
p1744
sg19
S'83c002'
p1745
sg21
Vadd eax, 2
p1746
sg5
L134991492L
sg6
Nsg23
S'add'
p1747
sg25
S'0x80bce84L'
p1748
sg27
Nsba(ibclass
BInstr
p1749
(dp1750
g2
Nsg17
S'mov     al, [eax]'
p1751
sg19
S'8a00'
p1752
sg21
Vmov al, byte ptr [eax]
p1753
sg5
L134991495L
sg6
Nsg23
S'mov'
p1754
sg25
S'0x80bce87L'
p1755
sg27
Nsba(ibclass
BInstr
p1756
(dp1757
g2
Nsg17
S'cmp     al, 3'
p1758
sg19
S'3c03'
p1759
sg21
Vcmp al, 3
p1760
sg5
L134991497L
sg6
Nsg23
S'cmp'
p1761
sg25
S'0x80bce89L'
p1762
sg27
Nsba(ibclass
BInstr
p1763
(dp1764
g2
Nsg17
S'ja      loc_80BD201'
p1765
sg19
S'0f8770030000'
p1766
sg21
Vja 0x376
p1767
sg5
L134991499L
sg6
Nsg23
S'ja'
p1768
sg25
S'0x80bce8bL'
p1769
sg27
Nsbasg140
(lp1770
Vmov eax, mem
p1771
ag1746
aVmov al, mem
p1772
ag1760
aVja address
p1773
asg154
Nsg5
S'0x80bce81L'
p1774
sg156
(lp1775
S'0x80bce73L'
p1776
asg6
Nsg158
(lp1777
S'0x80bce91L'
p1778
aS'0x80bd201L'
p1779
asg162
Nsg163
Nsg164
S'c62fead2383200da018f15cb63a471b7'
p1780
sg166
S'32425c865768c2ff82f0c7e10eb128e7'
p1781
sg168
(lp1782
g1740
ag1747
ag1754
ag1761
ag1768
asg170
Nsba(ibclass
BBasicBlock
p1783
(dp1784
g12
Nsg13
(lp1785
(ibclass
BInstr
p1786
(dp1787
g2
Nsg17
S'mov     eax, [ebp+p]'
p1788
sg19
S'8b45e0'
p1789
sg21
Vmov eax, dword ptr [ebp - 0x20]
p1790
sg5
L134991505L
sg6
Nsg23
S'mov'
p1791
sg25
S'0x80bce91L'
p1792
sg27
Nsba(ibclass
BInstr
p1793
(dp1794
g2
Nsg17
S'mov     al, [eax]'
p1795
sg19
S'8a00'
p1796
sg21
Vmov al, byte ptr [eax]
p1797
sg5
L134991508L
sg6
Nsg23
S'mov'
p1798
sg25
S'0x80bce94L'
p1799
sg27
Nsba(ibclass
BInstr
p1800
(dp1801
g2
Nsg17
S'cmp     al, 16h'
p1802
sg19
S'3c16'
p1803
sg21
Vcmp al, 0x16
p1804
sg5
L134991510L
sg6
Nsg23
S'cmp'
p1805
sg25
S'0x80bce96L'
p1806
sg27
Nsba(ibclass
BInstr
p1807
(dp1808
g2
Nsg17
S'jnz     short loc_80BCEA6'
p1809
sg19
S'750c'
p1810
sg21
Vjne 0xe
p1811
sg5
L134991512L
sg6
Nsg23
S'jnz'
p1812
sg25
S'0x80bce98L'
p1813
sg27
Nsbasg140
(lp1814
Vmov eax, mem
p1815
aVmov al, mem
p1816
aVcmp al, address
p1817
aVjne address
p1818
asg154
Nsg5
S'0x80bce91L'
p1819
sg156
(lp1820
S'0x80bce81L'
p1821
asg6
Nsg158
(lp1822
S'0x80bce9aL'
p1823
aS'0x80bcea6L'
p1824
asg162
Nsg163
Nsg164
S'a19a851724661b9339243c65cfd318e3'
p1825
sg166
S'825f18c034d866eac197ce7c69515772'
p1826
sg168
(lp1827
g1791
ag1798
ag1805
ag1812
asg170
Nsba(ibclass
BBasicBlock
p1828
(dp1829
g12
Nsg13
(lp1830
(ibclass
BInstr
p1831
(dp1832
g2
Nsg17
S'mov     eax, [ebp+p]'
p1833
sg19
S'8b45e0'
p1834
sg21
Vmov eax, dword ptr [ebp - 0x20]
p1835
sg5
L134991514L
sg6
Nsg23
S'mov'
p1836
sg25
S'0x80bce9aL'
p1837
sg27
Nsba(ibclass
BInstr
p1838
(dp1839
g2
Nsg17
S'add     eax, 5'
p1840
sg19
S'83c005'
p1841
sg21
Vadd eax, 5
p1842
sg5
L134991517L
sg6
Nsg23
S'add'
p1843
sg25
S'0x80bce9dL'
p1844
sg27
Nsba(ibclass
BInstr
p1845
(dp1846
g2
Nsg17
S'mov     al, [eax]'
p1847
sg19
S'8a00'
p1848
sg21
Vmov al, byte ptr [eax]
p1849
sg5
L134991520L
sg6
Nsg23
S'mov'
p1850
sg25
S'0x80bcea0L'
p1851
sg27
Nsba(ibclass
BInstr
p1852
(dp1853
g2
Nsg17
S'cmp     al, 2'
p1854
sg19
S'3c02'
p1855
sg21
Vcmp al, 2
p1856
sg5
L134991522L
sg6
Nsg23
S'cmp'
p1857
sg25
S'0x80bcea2L'
p1858
sg27
Nsba(ibclass
BInstr
p1859
(dp1860
g2
Nsg17
S'jz      short loc_80BCED3'
p1861
sg19
S'742d'
p1862
sg21
Vje 0x2f
p1863
sg5
L134991524L
sg6
Nsg23
S'jz'
p1864
sg25
S'0x80bcea4L'
p1865
sg27
Nsbasg140
(lp1866
Vmov eax, mem
p1867
ag1842
aVmov al, mem
p1868
ag1856
aVje address
p1869
asg154
Nsg5
S'0x80bce9aL'
p1870
sg156
(lp1871
S'0x80bce91L'
p1872
asg6
Nsg158
(lp1873
S'0x80bcea6L'
p1874
aS'0x80bced3L'
p1875
asg162
Nsg163
Nsg164
S'ce8f18adfe227f2f13826b3c18192658'
p1876
sg166
S'e48600501a0ebb6bdc13b8dfd189ca72'
p1877
sg168
(lp1878
g1836
ag1843
ag1850
ag1857
ag1864
asg170
Nsba(ibclass
BBasicBlock
p1879
(dp1880
g12
Nsg13
(lp1881
(ibclass
BInstr
p1882
(dp1883
g2
Nsg17
S'mov     eax, [ebp+p]'
p1884
sg19
S'8b45e0'
p1885
sg21
Vmov eax, dword ptr [ebp - 0x20]
p1886
sg5
L134991526L
sg6
Nsg23
S'mov'
p1887
sg25
S'0x80bcea6L'
p1888
sg27
Nsba(ibclass
BInstr
p1889
(dp1890
g2
Nsg17
S'mov     al, [eax]'
p1891
sg19
S'8a00'
p1892
sg21
Vmov al, byte ptr [eax]
p1893
sg5
L134991529L
sg6
Nsg23
S'mov'
p1894
sg25
S'0x80bcea9L'
p1895
sg27
Nsba(ibclass
BInstr
p1896
(dp1897
g2
Nsg17
S'cmp     al, 15h'
p1898
sg19
S'3c15'
p1899
sg21
Vcmp al, 0x15
p1900
sg5
L134991531L
sg6
Nsg23
S'cmp'
p1901
sg25
S'0x80bceabL'
p1902
sg27
Nsba(ibclass
BInstr
p1903
(dp1904
g2
Nsg17
S'jnz     loc_80BD201'
p1905
sg19
S'0f854e030000'
p1906
sg21
Vjne 0x354
p1907
sg5
L134991533L
sg6
Nsg23
S'jnz'
p1908
sg25
S'0x80bceadL'
p1909
sg27
Nsbasg140
(lp1910
Vmov eax, mem
p1911
aVmov al, mem
p1912
aVcmp al, address
p1913
aVjne address
p1914
asg154
Nsg5
S'0x80bcea6L'
p1915
sg156
(lp1916
S'0x80bce91L'
p1917
aS'0x80bce9aL'
p1918
asg6
Nsg158
(lp1919
S'0x80bceb3L'
p1920
aS'0x80bd201L'
p1921
asg162
Nsg163
Nsg164
S'a19a851724661b9339243c65cfd318e3'
p1922
sg166
S'825f18c034d866eac197ce7c69515772'
p1923
sg168
(lp1924
g1887
ag1894
ag1901
ag1908
asg170
Nsba(ibclass
BBasicBlock
p1925
(dp1926
g12
Nsg13
(lp1927
(ibclass
BInstr
p1928
(dp1929
g2
Nsg17
S'mov     eax, [ebp+p]'
p1930
sg19
S'8b45e0'
p1931
sg21
Vmov eax, dword ptr [ebp - 0x20]
p1932
sg5
L134991539L
sg6
Nsg23
S'mov'
p1933
sg25
S'0x80bceb3L'
p1934
sg27
Nsba(ibclass
BInstr
p1935
(dp1936
g2
Nsg17
S'add     eax, 3'
p1937
sg19
S'83c003'
p1938
sg21
Vadd eax, 3
p1939
sg5
L134991542L
sg6
Nsg23
S'add'
p1940
sg25
S'0x80bceb6L'
p1941
sg27
Nsba(ibclass
BInstr
p1942
(dp1943
g2
Nsg17
S'mov     al, [eax]'
p1944
sg19
S'8a00'
p1945
sg21
Vmov al, byte ptr [eax]
p1946
sg5
L134991545L
sg6
Nsg23
S'mov'
p1947
sg25
S'0x80bceb9L'
p1948
sg27
Nsba(ibclass
BInstr
p1949
(dp1950
g2
Nsg17
S'test    al, al'
p1951
sg19
S'84c0'
p1952
sg21
Vtest al, al
p1953
sg5
L134991547L
sg6
Nsg23
S'test'
p1954
sg25
S'0x80bcebbL'
p1955
sg27
Nsba(ibclass
BInstr
p1956
(dp1957
g2
Nsg17
S'jnz     loc_80BD201'
p1958
sg19
S'0f853e030000'
p1959
sg21
Vjne 0x344
p1960
sg5
L134991549L
sg6
Nsg23
S'jnz'
p1961
sg25
S'0x80bcebdL'
p1962
sg27
Nsbasg140
(lp1963
Vmov eax, mem
p1964
ag1939
aVmov al, mem
p1965
ag1953
aVjne address
p1966
asg154
Nsg5
S'0x80bceb3L'
p1967
sg156
(lp1968
S'0x80bcea6L'
p1969
asg6
Nsg158
(lp1970
S'0x80bcec3L'
p1971
aS'0x80bd201L'
p1972
asg162
Nsg163
Nsg164
S'920971602cab6e10fcf987a5f224d2fe'
p1973
sg166
S'8cf673367685c14af78e4c60df9c7300'
p1974
sg168
(lp1975
g1933
ag1940
ag1947
ag1954
ag1961
asg170
Nsba(ibclass
BBasicBlock
p1976
(dp1977
g12
Nsg13
(lp1978
(ibclass
BInstr
p1979
(dp1980
g2
Nsg17
S'mov     eax, [ebp+p]'
p1981
sg19
S'8b45e0'
p1982
sg21
Vmov eax, dword ptr [ebp - 0x20]
p1983
sg5
L134991555L
sg6
Nsg23
S'mov'
p1984
sg25
S'0x80bcec3L'
p1985
sg27
Nsba(ibclass
BInstr
p1986
(dp1987
g2
Nsg17
S'add     eax, 4'
p1988
sg19
S'83c004'
p1989
sg21
Vadd eax, 4
p1990
sg5
L134991558L
sg6
Nsg23
S'add'
p1991
sg25
S'0x80bcec6L'
p1992
sg27
Nsba(ibclass
BInstr
p1993
(dp1994
g2
Nsg17
S'mov     al, [eax]'
p1995
sg19
S'8a00'
p1996
sg21
Vmov al, byte ptr [eax]
p1997
sg5
L134991561L
sg6
Nsg23
S'mov'
p1998
sg25
S'0x80bcec9L'
p1999
sg27
Nsba(ibclass
BInstr
p2000
(dp2001
g2
Nsg17
S'cmp     al, 2'
p2002
sg19
S'3c02'
p2003
sg21
Vcmp al, 2
p2004
sg5
L134991563L
sg6
Nsg23
S'cmp'
p2005
sg25
S'0x80bcecbL'
p2006
sg27
Nsba(ibclass
BInstr
p2007
(dp2008
g2
Nsg17
S'jnz     loc_80BD201'
p2009
sg19
S'0f852e030000'
p2010
sg21
Vjne 0x334
p2011
sg5
L134991565L
sg6
Nsg23
S'jnz'
p2012
sg25
S'0x80bcecdL'
p2013
sg27
Nsbasg140
(lp2014
Vmov eax, mem
p2015
ag1990
aVmov al, mem
p2016
ag2004
aVjne address
p2017
asg154
Nsg5
S'0x80bcec3L'
p2018
sg156
(lp2019
S'0x80bceb3L'
p2020
asg6
Nsg158
(lp2021
S'0x80bced3L'
p2022
aS'0x80bd201L'
p2023
asg162
Nsg163
Nsg164
S'b87469988e84d8a482950482e1a8656b'
p2024
sg166
S'16bb21350ce836ebea23f0b427007e19'
p2025
sg168
(lp2026
g1984
ag1991
ag1998
ag2005
ag2012
asg170
Nsba(ibclass
BBasicBlock
p2027
(dp2028
g12
Nsg13
(lp2029
(ibclass
BInstr
p2030
(dp2031
g2
Nsg17
S'mov     eax, [ebp+p]'
p2032
sg19
S'8b45e0'
p2033
sg21
Vmov eax, dword ptr [ebp - 0x20]
p2034
sg5
L134991571L
sg6
Nsg23
S'mov'
p2035
sg25
S'0x80bced3L'
p2036
sg27
Nsba(ibclass
BInstr
p2037
(dp2038
g2
Nsg17
S'add     eax, 2'
p2039
sg19
S'83c002'
p2040
sg21
Vadd eax, 2
p2041
sg5
L134991574L
sg6
Nsg23
S'add'
p2042
sg25
S'0x80bced6L'
p2043
sg27
Nsba(ibclass
BInstr
p2044
(dp2045
g2
Nsg17
S'mov     al, [eax]'
p2046
sg19
S'8a00'
p2047
sg21
Vmov al, byte ptr [eax]
p2048
sg5
L134991577L
sg6
Nsg23
S'mov'
p2049
sg25
S'0x80bced9L'
p2050
sg27
Nsba(ibclass
BInstr
p2051
(dp2052
g2
Nsg17
S'test    al, al'
p2053
sg19
S'84c0'
p2054
sg21
Vtest al, al
p2055
sg5
L134991579L
sg6
Nsg23
S'test'
p2056
sg25
S'0x80bcedbL'
p2057
sg27
Nsba(ibclass
BInstr
p2058
(dp2059
g2
Nsg17
S'jnz     short loc_80BCF0A'
p2060
sg19
S'752b'
p2061
sg21
Vjne 0x2d
p2062
sg5
L134991581L
sg6
Nsg23
S'jnz'
p2063
sg25
S'0x80bceddL'
p2064
sg27
Nsbasg140
(lp2065
Vmov eax, mem
p2066
ag2041
aVmov al, mem
p2067
ag2055
aVjne address
p2068
asg154
Nsg5
S'0x80bced3L'
p2069
sg156
(lp2070
S'0x80bce9aL'
p2071
aS'0x80bcec3L'
p2072
asg6
Nsg158
(lp2073
S'0x80bcedfL'
p2074
aS'0x80bcf0aL'
p2075
asg162
Nsg163
Nsg164
S'920971602cab6e10fcf987a5f224d2fe'
p2076
sg166
S'122d35a1d80f4b88823e016b8493b941'
p2077
sg168
(lp2078
g2035
ag2042
ag2049
ag2056
ag2063
asg170
Nsba(ibclass
BBasicBlock
p2079
(dp2080
g12
Nsg13
(lp2081
(ibclass
BInstr
p2082
(dp2083
g2
Nsg17
S'mov     eax, [ebp+s]'
p2084
sg19
S'8b45c4'
p2085
sg21
Vmov eax, dword ptr [ebp - 0x3c]
p2086
sg5
L134991583L
sg6
Nsg23
S'mov'
p2087
sg25
S'0x80bcedfL'
p2088
sg27
Nsba(ibclass
BInstr
p2089
(dp2090
g2
Nsg17
S'mov     eax, [eax+100h]'
p2091
sg19
S'8b8000010000'
p2092
sg21
Vmov eax, dword ptr [eax + 0x100]
p2093
sg5
L134991586L
sg6
Nsg23
S'mov'
p2094
sg25
S'0x80bcee2L'
p2095
sg27
Nsba(ibclass
BInstr
p2096
(dp2097
g2
Nsg17
S'and     eax, 2000000h'
p2098
sg19
S'2500000002'
p2099
sg21
Vand eax, 0x2000000
p2100
sg5
L134991592L
sg6
Nsg23
S'and'
p2101
sg25
S'0x80bcee8L'
p2102
sg27
Nsba(ibclass
BInstr
p2103
(dp2104
g2
Nsg17
S'test    eax, eax'
p2105
sg19
S'85c0'
p2106
sg21
Vtest eax, eax
p2107
sg5
L134991597L
sg6
Nsg23
S'test'
p2108
sg25
S'0x80bceedL'
p2109
sg27
Nsba(ibclass
BInstr
p2110
(dp2111
g2
Nsg17
S'jnz     short loc_80BCF0A'
p2112
sg19
S'7519'
p2113
sg21
Vjne 0x1b
p2114
sg5
L134991599L
sg6
Nsg23
S'jnz'
p2115
sg25
S'0x80bceefL'
p2116
sg27
Nsbasg140
(lp2117
Vmov eax, mem
p2118
aVmov eax, mem
p2119
aVand eax, address
p2120
ag2107
aVjne address
p2121
asg154
Nsg5
S'0x80bcedfL'
p2122
sg156
(lp2123
S'0x80bced3L'
p2124
asg6
Nsg158
(lp2125
S'0x80bcef1L'
p2126
aS'0x80bcf0aL'
p2127
asg162
Nsg163
Nsg164
S'fe77119e0ecc4ec4d34e9ca05ee3b9d9'
p2128
sg166
S'b9bbccf5cfb95c959ca912230fd795f8'
p2129
sg168
(lp2130
g2087
ag2094
ag2101
ag2108
ag2115
asg170
Nsba(ibclass
BBasicBlock
p2131
(dp2132
g12
Nsg13
(lp2133
(ibclass
BInstr
p2134
(dp2135
g2
Nsg17
S'mov     eax, [ebp+s]'
p2136
sg19
S'8b45c4'
p2137
sg21
Vmov eax, dword ptr [ebp - 0x3c]
p2138
sg5
L134991601L
sg6
Nsg23
S'mov'
p2139
sg25
S'0x80bcef1L'
p2140
sg27
Nsba(ibclass
BInstr
p2141
(dp2142
g2
Nsg17
S'mov     dword ptr [eax], 300h'
p2143
sg19
S'c70000030000'
p2144
sg21
Vmov dword ptr [eax], 0x300
p2145
sg5
L134991604L
sg6
Nsg23
S'mov'
p2146
sg25
S'0x80bcef4L'
p2147
sg27
Nsba(ibclass
BInstr
p2148
(dp2149
g2
Nsg17
S'call    SSLv3_client_method'
p2150
sg19
S'e87ac2feff'
p2151
sg21
Vcall 0xfffec27f
p2152
sg5
L134991610L
sg6
Nsg23
S'call'
p2153
sg25
S'0x80bcefaL'
p2154
sg27
Nsba(ibclass
BInstr
p2155
(dp2156
g2
Nsg17
S'mov     edx, [ebp+s]'
p2157
sg19
S'8b55c4'
p2158
sg21
Vmov edx, dword ptr [ebp - 0x3c]
p2159
sg5
L134991615L
sg6
Nsg23
S'mov'
p2160
sg25
S'0x80bceffL'
p2161
sg27
Nsba(ibclass
BInstr
p2162
(dp2163
g2
Nsg17
S'mov     [edx+8], eax'
p2164
sg19
S'894208'
p2165
sg21
Vmov dword ptr [edx + 8], eax
p2166
sg5
L134991618L
sg6
Nsg23
S'mov'
p2167
sg25
S'0x80bcf02L'
p2168
sg27
Nsba(ibclass
BInstr
p2169
(dp2170
g2
Nsg17
S'jmp     loc_80BCFDA'
p2171
sg19
S'e9d0000000'
p2172
sg21
Vjmp 0xd5
p2173
sg5
L134991621L
sg6
Nsg23
S'jmp'
p2174
sg25
S'0x80bcf05L'
p2175
sg27
Nsbasg140
(lp2176
Vmov eax, mem
p2177
aVmov mem, address
p2178
aVcall address
p2179
aVmov edx, mem
p2180
aVmov mem, eax
p2181
aVjmp address
p2182
asg154
Nsg5
S'0x80bcef1L'
p2183
sg156
(lp2184
S'0x80bcedfL'
p2185
asg6
Nsg158
(lp2186
S'0x80bcfdaL'
p2187
asg162
Nsg163
Nsg164
S'41ab5c28ec510e6a50b3169afec83ed7'
p2188
sg166
S'd726592f7feb0ada25ad5d4d12f5335c'
p2189
sg168
(lp2190
g2139
ag2146
ag2153
ag2160
ag2167
ag2174
asg170
Nsba(ibclass
BBasicBlock
p2191
(dp2192
g12
Nsg13
(lp2193
(ibclass
BInstr
p2194
(dp2195
g2
Nsg17
S'mov     eax, [ebp+p]'
p2196
sg19
S'8b45e0'
p2197
sg21
Vmov eax, dword ptr [ebp - 0x20]
p2198
sg5
L134991626L
sg6
Nsg23
S'mov'
p2199
sg25
S'0x80bcf0aL'
p2200
sg27
Nsba(ibclass
BInstr
p2201
(dp2202
g2
Nsg17
S'add     eax, 2'
p2203
sg19
S'83c002'
p2204
sg21
Vadd eax, 2
p2205
sg5
L134991629L
sg6
Nsg23
S'add'
p2206
sg25
S'0x80bcf0dL'
p2207
sg27
Nsba(ibclass
BInstr
p2208
(dp2209
g2
Nsg17
S'mov     al, [eax]'
p2210
sg19
S'8a00'
p2211
sg21
Vmov al, byte ptr [eax]
p2212
sg5
L134991632L
sg6
Nsg23
S'mov'
p2213
sg25
S'0x80bcf10L'
p2214
sg27
Nsba(ibclass
BInstr
p2215
(dp2216
g2
Nsg17
S'cmp     al, 1'
p2217
sg19
S'3c01'
p2218
sg21
Vcmp al, 1
p2219
sg5
L134991634L
sg6
Nsg23
S'cmp'
p2220
sg25
S'0x80bcf12L'
p2221
sg27
Nsba(ibclass
BInstr
p2222
(dp2223
g2
Nsg17
S'jnz     short loc_80BCF41'
p2224
sg19
S'752b'
p2225
sg21
Vjne 0x2d
p2226
sg5
L134991636L
sg6
Nsg23
S'jnz'
p2227
sg25
S'0x80bcf14L'
p2228
sg27
Nsbasg140
(lp2229
Vmov eax, mem
p2230
ag2205
aVmov al, mem
p2231
ag2219
aVjne address
p2232
asg154
Nsg5
S'0x80bcf0aL'
p2233
sg156
(lp2234
S'0x80bced3L'
p2235
aS'0x80bcedfL'
p2236
asg6
Nsg158
(lp2237
S'0x80bcf16L'
p2238
aS'0x80bcf41L'
p2239
asg162
Nsg163
Nsg164
S'b87469988e84d8a482950482e1a8656b'
p2240
sg166
S'432e4af7ae1f8dfae425d9feb3ad7d25'
p2241
sg168
(lp2242
g2199
ag2206
ag2213
ag2220
ag2227
asg170
Nsba(ibclass
BBasicBlock
p2243
(dp2244
g12
Nsg13
(lp2245
(ibclass
BInstr
p2246
(dp2247
g2
Nsg17
S'mov     eax, [ebp+s]'
p2248
sg19
S'8b45c4'
p2249
sg21
Vmov eax, dword ptr [ebp - 0x3c]
p2250
sg5
L134991638L
sg6
Nsg23
S'mov'
p2251
sg25
S'0x80bcf16L'
p2252
sg27
Nsba(ibclass
BInstr
p2253
(dp2254
g2
Nsg17
S'mov     eax, [eax+100h]'
p2255
sg19
S'8b8000010000'
p2256
sg21
Vmov eax, dword ptr [eax + 0x100]
p2257
sg5
L134991641L
sg6
Nsg23
S'mov'
p2258
sg25
S'0x80bcf19L'
p2259
sg27
Nsba(ibclass
BInstr
p2260
(dp2261
g2
Nsg17
S'and     eax, 4000000h'
p2262
sg19
S'2500000004'
p2263
sg21
Vand eax, 0x4000000
p2264
sg5
L134991647L
sg6
Nsg23
S'and'
p2265
sg25
S'0x80bcf1fL'
p2266
sg27
Nsba(ibclass
BInstr
p2267
(dp2268
g2
Nsg17
S'test    eax, eax'
p2269
sg19
S'85c0'
p2270
sg21
Vtest eax, eax
p2271
sg5
L134991652L
sg6
Nsg23
S'test'
p2272
sg25
S'0x80bcf24L'
p2273
sg27
Nsba(ibclass
BInstr
p2274
(dp2275
g2
Nsg17
S'jnz     short loc_80BCF41'
p2276
sg19
S'7519'
p2277
sg21
Vjne 0x1b
p2278
sg5
L134991654L
sg6
Nsg23
S'jnz'
p2279
sg25
S'0x80bcf26L'
p2280
sg27
Nsbasg140
(lp2281
Vmov eax, mem
p2282
aVmov eax, mem
p2283
aVand eax, address
p2284
ag2271
aVjne address
p2285
asg154
Nsg5
S'0x80bcf16L'
p2286
sg156
(lp2287
S'0x80bcf0aL'
p2288
asg6
Nsg158
(lp2289
S'0x80bcf28L'
p2290
aS'0x80bcf41L'
p2291
asg162
Nsg163
Nsg164
S'fe77119e0ecc4ec4d34e9ca05ee3b9d9'
p2292
sg166
S'b9bbccf5cfb95c959ca912230fd795f8'
p2293
sg168
(lp2294
g2251
ag2258
ag2265
ag2272
ag2279
asg170
Nsba(ibclass
BBasicBlock
p2295
(dp2296
g12
Nsg13
(lp2297
(ibclass
BInstr
p2298
(dp2299
g2
Nsg17
S'mov     eax, [ebp+s]'
p2300
sg19
S'8b45c4'
p2301
sg21
Vmov eax, dword ptr [ebp - 0x3c]
p2302
sg5
L134991656L
sg6
Nsg23
S'mov'
p2303
sg25
S'0x80bcf28L'
p2304
sg27
Nsba(ibclass
BInstr
p2305
(dp2306
g2
Nsg17
S'mov     dword ptr [eax], 301h'
p2307
sg19
S'c70001030000'
p2308
sg21
Vmov dword ptr [eax], 0x301
p2309
sg5
L134991659L
sg6
Nsg23
S'mov'
p2310
sg25
S'0x80bcf2bL'
p2311
sg27
Nsba(ibclass
BInstr
p2312
(dp2313
g2
Nsg17
S'call    TLSv1_client_method'
p2314
sg19
S'e8a6080000'
p2315
sg21
Vcall 0x8ab
p2316
sg5
L134991665L
sg6
Nsg23
S'call'
p2317
sg25
S'0x80bcf31L'
p2318
sg27
Nsba(ibclass
BInstr
p2319
(dp2320
g2
Nsg17
S'mov     edx, [ebp+s]'
p2321
sg19
S'8b55c4'
p2322
sg21
Vmov edx, dword ptr [ebp - 0x3c]
p2323
sg5
L134991670L
sg6
Nsg23
S'mov'
p2324
sg25
S'0x80bcf36L'
p2325
sg27
Nsba(ibclass
BInstr
p2326
(dp2327
g2
Nsg17
S'mov     [edx+8], eax'
p2328
sg19
S'894208'
p2329
sg21
Vmov dword ptr [edx + 8], eax
p2330
sg5
L134991673L
sg6
Nsg23
S'mov'
p2331
sg25
S'0x80bcf39L'
p2332
sg27
Nsba(ibclass
BInstr
p2333
(dp2334
g2
Nsg17
S'jmp     loc_80BCFDA'
p2335
sg19
S'e999000000'
p2336
sg21
Vjmp 0x9e
p2337
sg5
L134991676L
sg6
Nsg23
S'jmp'
p2338
sg25
S'0x80bcf3cL'
p2339
sg27
Nsbasg140
(lp2340
Vmov eax, mem
p2341
aVmov mem, address
p2342
aVcall address
p2343
aVmov edx, mem
p2344
aVmov mem, eax
p2345
aVjmp address
p2346
asg154
Nsg5
S'0x80bcf28L'
p2347
sg156
(lp2348
S'0x80bcf16L'
p2349
asg6
Nsg158
(lp2350
S'0x80bcfdaL'
p2351
asg162
Nsg163
Nsg164
S'41ab5c28ec510e6a50b3169afec83ed7'
p2352
sg166
S'd726592f7feb0ada25ad5d4d12f5335c'
p2353
sg168
(lp2354
g2303
ag2310
ag2317
ag2324
ag2331
ag2338
asg170
Nsba(ibclass
BBasicBlock
p2355
(dp2356
g12
Nsg13
(lp2357
(ibclass
BInstr
p2358
(dp2359
g2
Nsg17
S'mov     eax, [ebp+p]'
p2360
sg19
S'8b45e0'
p2361
sg21
Vmov eax, dword ptr [ebp - 0x20]
p2362
sg5
L134991681L
sg6
Nsg23
S'mov'
p2363
sg25
S'0x80bcf41L'
p2364
sg27
Nsba(ibclass
BInstr
p2365
(dp2366
g2
Nsg17
S'add     eax, 2'
p2367
sg19
S'83c002'
p2368
sg21
Vadd eax, 2
p2369
sg5
L134991684L
sg6
Nsg23
S'add'
p2370
sg25
S'0x80bcf44L'
p2371
sg27
Nsba(ibclass
BInstr
p2372
(dp2373
g2
Nsg17
S'mov     al, [eax]'
p2374
sg19
S'8a00'
p2375
sg21
Vmov al, byte ptr [eax]
p2376
sg5
L134991687L
sg6
Nsg23
S'mov'
p2377
sg25
S'0x80bcf47L'
p2378
sg27
Nsba(ibclass
BInstr
p2379
(dp2380
g2
Nsg17
S'cmp     al, 2'
p2381
sg19
S'3c02'
p2382
sg21
Vcmp al, 2
p2383
sg5
L134991689L
sg6
Nsg23
S'cmp'
p2384
sg25
S'0x80bcf49L'
p2385
sg27
Nsba(ibclass
BInstr
p2386
(dp2387
g2
Nsg17
S'jnz     short loc_80BCF75'
p2388
sg19
S'7528'
p2389
sg21
Vjne 0x2a
p2390
sg5
L134991691L
sg6
Nsg23
S'jnz'
p2391
sg25
S'0x80bcf4bL'
p2392
sg27
Nsbasg140
(lp2393
Vmov eax, mem
p2394
ag2369
aVmov al, mem
p2395
ag2383
aVjne address
p2396
asg154
Nsg5
S'0x80bcf41L'
p2397
sg156
(lp2398
S'0x80bcf0aL'
p2399
aS'0x80bcf16L'
p2400
asg6
Nsg158
(lp2401
S'0x80bcf4dL'
p2402
aS'0x80bcf75L'
p2403
asg162
Nsg163
Nsg164
S'b87469988e84d8a482950482e1a8656b'
p2404
sg166
S'8098e537354776f9c8c8c4b8badf91f0'
p2405
sg168
(lp2406
g2363
ag2370
ag2377
ag2384
ag2391
asg170
Nsba(ibclass
BBasicBlock
p2407
(dp2408
g12
Nsg13
(lp2409
(ibclass
BInstr
p2410
(dp2411
g2
Nsg17
S'mov     eax, [ebp+s]'
p2412
sg19
S'8b45c4'
p2413
sg21
Vmov eax, dword ptr [ebp - 0x3c]
p2414
sg5
L134991693L
sg6
Nsg23
S'mov'
p2415
sg25
S'0x80bcf4dL'
p2416
sg27
Nsba(ibclass
BInstr
p2417
(dp2418
g2
Nsg17
S'mov     eax, [eax+100h]'
p2419
sg19
S'8b8000010000'
p2420
sg21
Vmov eax, dword ptr [eax + 0x100]
p2421
sg5
L134991696L
sg6
Nsg23
S'mov'
p2422
sg25
S'0x80bcf50L'
p2423
sg27
Nsba(ibclass
BInstr
p2424
(dp2425
g2
Nsg17
S'and     eax, 10000000h'
p2426
sg19
S'2500000010'
p2427
sg21
Vand eax, 0x10000000
p2428
sg5
L134991702L
sg6
Nsg23
S'and'
p2429
sg25
S'0x80bcf56L'
p2430
sg27
Nsba(ibclass
BInstr
p2431
(dp2432
g2
Nsg17
S'test    eax, eax'
p2433
sg19
S'85c0'
p2434
sg21
Vtest eax, eax
p2435
sg5
L134991707L
sg6
Nsg23
S'test'
p2436
sg25
S'0x80bcf5bL'
p2437
sg27
Nsba(ibclass
BInstr
p2438
(dp2439
g2
Nsg17
S'jnz     short loc_80BCF75'
p2440
sg19
S'7516'
p2441
sg21
Vjne 0x18
p2442
sg5
L134991709L
sg6
Nsg23
S'jnz'
p2443
sg25
S'0x80bcf5dL'
p2444
sg27
Nsbasg140
(lp2445
Vmov eax, mem
p2446
aVmov eax, mem
p2447
aVand eax, address
p2448
ag2435
aVjne address
p2449
asg154
Nsg5
S'0x80bcf4dL'
p2450
sg156
(lp2451
S'0x80bcf41L'
p2452
asg6
Nsg158
(lp2453
S'0x80bcf5fL'
p2454
aS'0x80bcf75L'
p2455
asg162
Nsg163
Nsg164
S'fe77119e0ecc4ec4d34e9ca05ee3b9d9'
p2456
sg166
S'b9bbccf5cfb95c959ca912230fd795f8'
p2457
sg168
(lp2458
g2415
ag2422
ag2429
ag2436
ag2443
asg170
Nsba(ibclass
BBasicBlock
p2459
(dp2460
g12
Nsg13
(lp2461
(ibclass
BInstr
p2462
(dp2463
g2
Nsg17
S'mov     eax, [ebp+s]'
p2464
sg19
S'8b45c4'
p2465
sg21
Vmov eax, dword ptr [ebp - 0x3c]
p2466
sg5
L134991711L
sg6
Nsg23
S'mov'
p2467
sg25
S'0x80bcf5fL'
p2468
sg27
Nsba(ibclass
BInstr
p2469
(dp2470
g2
Nsg17
S'mov     dword ptr [eax], 302h'
p2471
sg19
S'c70002030000'
p2472
sg21
Vmov dword ptr [eax], 0x302
p2473
sg5
L134991714L
sg6
Nsg23
S'mov'
p2474
sg25
S'0x80bcf62L'
p2475
sg27
Nsba(ibclass
BInstr
p2476
(dp2477
g2
Nsg17
S'call    TLSv1_1_client_method'
p2478
sg19
S'e865080000'
p2479
sg21
Vcall 0x86a
p2480
sg5
L134991720L
sg6
Nsg23
S'call'
p2481
sg25
S'0x80bcf68L'
p2482
sg27
Nsba(ibclass
BInstr
p2483
(dp2484
g2
Nsg17
S'mov     edx, [ebp+s]'
p2485
sg19
S'8b55c4'
p2486
sg21
Vmov edx, dword ptr [ebp - 0x3c]
p2487
sg5
L134991725L
sg6
Nsg23
S'mov'
p2488
sg25
S'0x80bcf6dL'
p2489
sg27
Nsba(ibclass
BInstr
p2490
(dp2491
g2
Nsg17
S'mov     [edx+8], eax'
p2492
sg19
S'894208'
p2493
sg21
Vmov dword ptr [edx + 8], eax
p2494
sg5
L134991728L
sg6
Nsg23
S'mov'
p2495
sg25
S'0x80bcf70L'
p2496
sg27
Nsba(ibclass
BInstr
p2497
(dp2498
g2
Nsg17
S'jmp     short loc_80BCFDA'
p2499
sg19
S'eb65'
p2500
sg21
Vjmp 0x67
p2501
sg5
L134991731L
sg6
Nsg23
S'jmp'
p2502
sg25
S'0x80bcf73L'
p2503
sg27
Nsbasg140
(lp2504
Vmov eax, mem
p2505
aVmov mem, address
p2506
aVcall address
p2507
aVmov edx, mem
p2508
aVmov mem, eax
p2509
aVjmp address
p2510
asg154
Nsg5
S'0x80bcf5fL'
p2511
sg156
(lp2512
S'0x80bcf4dL'
p2513
asg6
Nsg158
(lp2514
S'0x80bcfdaL'
p2515
asg162
Nsg163
Nsg164
S'41ab5c28ec510e6a50b3169afec83ed7'
p2516
sg166
S'd726592f7feb0ada25ad5d4d12f5335c'
p2517
sg168
(lp2518
g2467
ag2474
ag2481
ag2488
ag2495
ag2502
asg170
Nsba(ibclass
BBasicBlock
p2519
(dp2520
g12
Nsg13
(lp2521
(ibclass
BInstr
p2522
(dp2523
g2
Nsg17
S'mov     eax, [ebp+p]'
p2524
sg19
S'8b45e0'
p2525
sg21
Vmov eax, dword ptr [ebp - 0x20]
p2526
sg5
L134991733L
sg6
Nsg23
S'mov'
p2527
sg25
S'0x80bcf75L'
p2528
sg27
Nsba(ibclass
BInstr
p2529
(dp2530
g2
Nsg17
S'add     eax, 2'
p2531
sg19
S'83c002'
p2532
sg21
Vadd eax, 2
p2533
sg5
L134991736L
sg6
Nsg23
S'add'
p2534
sg25
S'0x80bcf78L'
p2535
sg27
Nsba(ibclass
BInstr
p2536
(dp2537
g2
Nsg17
S'mov     al, [eax]'
p2538
sg19
S'8a00'
p2539
sg21
Vmov al, byte ptr [eax]
p2540
sg5
L134991739L
sg6
Nsg23
S'mov'
p2541
sg25
S'0x80bcf7bL'
p2542
sg27
Nsba(ibclass
BInstr
p2543
(dp2544
g2
Nsg17
S'cmp     al, 3'
p2545
sg19
S'3c03'
p2546
sg21
Vcmp al, 3
p2547
sg5
L134991741L
sg6
Nsg23
S'cmp'
p2548
sg25
S'0x80bcf7dL'
p2549
sg27
Nsba(ibclass
BInstr
p2550
(dp2551
g2
Nsg17
S'jnz     short loc_80BCFA9'
p2552
sg19
S'7528'
p2553
sg21
Vjne 0x2a
p2554
sg5
L134991743L
sg6
Nsg23
S'jnz'
p2555
sg25
S'0x80bcf7fL'
p2556
sg27
Nsbasg140
(lp2557
Vmov eax, mem
p2558
ag2533
aVmov al, mem
p2559
ag2547
aVjne address
p2560
asg154
Nsg5
S'0x80bcf75L'
p2561
sg156
(lp2562
S'0x80bcf41L'
p2563
aS'0x80bcf4dL'
p2564
asg6
Nsg158
(lp2565
S'0x80bcf81L'
p2566
aS'0x80bcfa9L'
p2567
asg162
Nsg163
Nsg164
S'b87469988e84d8a482950482e1a8656b'
p2568
sg166
S'0d5c1e0ec82d7d7b6286e1341c748a3c'
p2569
sg168
(lp2570
g2527
ag2534
ag2541
ag2548
ag2555
asg170
Nsba(ibclass
BBasicBlock
p2571
(dp2572
g12
Nsg13
(lp2573
(ibclass
BInstr
p2574
(dp2575
g2
Nsg17
S'mov     eax, [ebp+s]'
p2576
sg19
S'8b45c4'
p2577
sg21
Vmov eax, dword ptr [ebp - 0x3c]
p2578
sg5
L134991745L
sg6
Nsg23
S'mov'
p2579
sg25
S'0x80bcf81L'
p2580
sg27
Nsba(ibclass
BInstr
p2581
(dp2582
g2
Nsg17
S'mov     eax, [eax+100h]'
p2583
sg19
S'8b8000010000'
p2584
sg21
Vmov eax, dword ptr [eax + 0x100]
p2585
sg5
L134991748L
sg6
Nsg23
S'mov'
p2586
sg25
S'0x80bcf84L'
p2587
sg27
Nsba(ibclass
BInstr
p2588
(dp2589
g2
Nsg17
S'and     eax, 8000000h'
p2590
sg19
S'2500000008'
p2591
sg21
Vand eax, 0x8000000
p2592
sg5
L134991754L
sg6
Nsg23
S'and'
p2593
sg25
S'0x80bcf8aL'
p2594
sg27
Nsba(ibclass
BInstr
p2595
(dp2596
g2
Nsg17
S'test    eax, eax'
p2597
sg19
S'85c0'
p2598
sg21
Vtest eax, eax
p2599
sg5
L134991759L
sg6
Nsg23
S'test'
p2600
sg25
S'0x80bcf8fL'
p2601
sg27
Nsba(ibclass
BInstr
p2602
(dp2603
g2
Nsg17
S'jnz     short loc_80BCFA9'
p2604
sg19
S'7516'
p2605
sg21
Vjne 0x18
p2606
sg5
L134991761L
sg6
Nsg23
S'jnz'
p2607
sg25
S'0x80bcf91L'
p2608
sg27
Nsbasg140
(lp2609
Vmov eax, mem
p2610
aVmov eax, mem
p2611
aVand eax, address
p2612
ag2599
aVjne address
p2613
asg154
Nsg5
S'0x80bcf81L'
p2614
sg156
(lp2615
S'0x80bcf75L'
p2616
asg6
Nsg158
(lp2617
S'0x80bcf93L'
p2618
aS'0x80bcfa9L'
p2619
asg162
Nsg163
Nsg164
S'fe77119e0ecc4ec4d34e9ca05ee3b9d9'
p2620
sg166
S'b9bbccf5cfb95c959ca912230fd795f8'
p2621
sg168
(lp2622
g2579
ag2586
ag2593
ag2600
ag2607
asg170
Nsba(ibclass
BBasicBlock
p2623
(dp2624
g12
Nsg13
(lp2625
(ibclass
BInstr
p2626
(dp2627
g2
Nsg17
S'mov     eax, [ebp+s]'
p2628
sg19
S'8b45c4'
p2629
sg21
Vmov eax, dword ptr [ebp - 0x3c]
p2630
sg5
L134991763L
sg6
Nsg23
S'mov'
p2631
sg25
S'0x80bcf93L'
p2632
sg27
Nsba(ibclass
BInstr
p2633
(dp2634
g2
Nsg17
S'mov     dword ptr [eax], 303h'
p2635
sg19
S'c70003030000'
p2636
sg21
Vmov dword ptr [eax], 0x303
p2637
sg5
L134991766L
sg6
Nsg23
S'mov'
p2638
sg25
S'0x80bcf96L'
p2639
sg27
Nsba(ibclass
BInstr
p2640
(dp2641
g2
Nsg17
S'call    TLSv1_2_client_method'
p2642
sg19
S'e827080000'
p2643
sg21
Vcall 0x82c
p2644
sg5
L134991772L
sg6
Nsg23
S'call'
p2645
sg25
S'0x80bcf9cL'
p2646
sg27
Nsba(ibclass
BInstr
p2647
(dp2648
g2
Nsg17
S'mov     edx, [ebp+s]'
p2649
sg19
S'8b55c4'
p2650
sg21
Vmov edx, dword ptr [ebp - 0x3c]
p2651
sg5
L134991777L
sg6
Nsg23
S'mov'
p2652
sg25
S'0x80bcfa1L'
p2653
sg27
Nsba(ibclass
BInstr
p2654
(dp2655
g2
Nsg17
S'mov     [edx+8], eax'
p2656
sg19
S'894208'
p2657
sg21
Vmov dword ptr [edx + 8], eax
p2658
sg5
L134991780L
sg6
Nsg23
S'mov'
p2659
sg25
S'0x80bcfa4L'
p2660
sg27
Nsba(ibclass
BInstr
p2661
(dp2662
g2
Nsg17
S'jmp     short loc_80BCFDA'
p2663
sg19
S'eb31'
p2664
sg21
Vjmp 0x33
p2665
sg5
L134991783L
sg6
Nsg23
S'jmp'
p2666
sg25
S'0x80bcfa7L'
p2667
sg27
Nsbasg140
(lp2668
Vmov eax, mem
p2669
aVmov mem, address
p2670
aVcall address
p2671
aVmov edx, mem
p2672
aVmov mem, eax
p2673
aVjmp address
p2674
asg154
Nsg5
S'0x80bcf93L'
p2675
sg156
(lp2676
S'0x80bcf81L'
p2677
asg6
Nsg158
(lp2678
S'0x80bcfdaL'
p2679
asg162
Nsg163
Nsg164
S'41ab5c28ec510e6a50b3169afec83ed7'
p2680
sg166
S'd726592f7feb0ada25ad5d4d12f5335c'
p2681
sg168
(lp2682
g2631
ag2638
ag2645
ag2652
ag2659
ag2666
asg170
Nsba(ibclass
BBasicBlock
p2683
(dp2684
g12
Nsg13
(lp2685
(ibclass
BInstr
p2686
(dp2687
g2
Nsg17
S'mov     dword ptr [esp+10h], 2D8h; line'
p2688
sg19
S'c7442410d8020000'
p2689
sg21
Vmov dword ptr [esp + 0x10], 0x2d8
p2690
sg5
L134991785L
sg6
Nsg23
S'mov'
p2691
sg25
S'0x80bcfa9L'
p2692
sg27
Nsba(ibclass
BInstr
p2693
(dp2694
g2
Nsg17
S'mov     dword ptr [esp+0Ch], offset aS23_clnt_c; "s23_clnt.c"'
p2695
sg19
S'c744240c20822108'
p2696
sg21
Vmov dword ptr [esp + 0xc], 0x8218220
p2697
sg5
L134991793L
sg6
Nsg23
S'mov'
p2698
sg25
S'0x80bcfb1L'
p2699
sg27
Nsba(ibclass
BInstr
p2700
(dp2701
g2
Nsg17
S'mov     dword ptr [esp+8], 102h; reason'
p2702
sg19
S'c744240802010000'
p2703
sg21
Vmov dword ptr [esp + 8], 0x102
p2704
sg5
L134991801L
sg6
Nsg23
S'mov'
p2705
sg25
S'0x80bcfb9L'
p2706
sg27
Nsba(ibclass
BInstr
p2707
(dp2708
g2
Nsg17
S'mov     dword ptr [esp+4], 77h; func'
p2709
sg19
S'c744240477000000'
p2710
sg21
Vmov dword ptr [esp + 4], 0x77
p2711
sg5
L134991809L
sg6
Nsg23
S'mov'
p2712
sg25
S'0x80bcfc1L'
p2713
sg27
Nsba(ibclass
BInstr
p2714
(dp2715
g2
Nsg17
S'mov     dword ptr [esp], 14h; lib'
p2716
sg19
S'c7042414000000'
p2717
sg21
Vmov dword ptr [esp], 0x14
p2718
sg5
L134991817L
sg6
Nsg23
S'mov'
p2719
sg25
S'0x80bcfc9L'
p2720
sg27
Nsba(ibclass
BInstr
p2721
(dp2722
g2
Nsg17
S'call    ERR_put_error'
p2723
sg19
S'e8df240800'
p2724
sg21
Vcall 0x824e4
p2725
sg5
L134991824L
sg6
Nsg23
S'call'
p2726
sg25
S'0x80bcfd0L'
p2727
sg27
Nsba(ibclass
BInstr
p2728
(dp2729
g2
Nsg17
S'jmp     err'
p2730
sg19
S'e985020000'
p2731
sg21
Vjmp 0x28a
p2732
sg5
L134991829L
sg6
Nsg23
S'jmp'
p2733
sg25
S'0x80bcfd5L'
p2734
sg27
Nsbasg140
(lp2735
Vmov mem, address
p2736
aVmov mem, address
p2737
aVmov mem, address
p2738
aVmov mem, address
p2739
aVmov mem, address
p2740
aVcall address
p2741
aVjmp address
p2742
asg154
Nsg5
S'0x80bcfa9L'
p2743
sg156
(lp2744
S'0x80bcf75L'
p2745
aS'0x80bcf81L'
p2746
asg6
Nsg158
(lp2747
S'0x80bd25fL'
p2748
asg162
Nsg163
Nsg164
S'a76a0a3b827ea6cd402bf72e182d1d25'
p2749
sg166
S'5c79c7459a4742ab4e6fe5fb7b7e4c8d'
p2750
sg168
(lp2751
g2691
ag2698
ag2705
ag2712
ag2719
ag2726
ag2733
asg170
Nsba(ibclass
BBasicBlock
p2752
(dp2753
g12
Nsg13
(lp2754
(ibclass
BInstr
p2755
(dp2756
g2
Nsg17
S'mov     eax, [ebp+s]'
p2757
sg19
S'8b45c4'
p2758
sg21
Vmov eax, dword ptr [ebp - 0x3c]
p2759
sg5
L134991834L
sg6
Nsg23
S'mov'
p2760
sg25
S'0x80bcfdaL'
p2761
sg27
Nsba(ibclass
BInstr
p2762
(dp2763
g2
Nsg17
S'mov     eax, [eax]'
p2764
sg19
S'8b00'
p2765
sg21
Vmov eax, dword ptr [eax]
p2766
sg5
L134991837L
sg6
Nsg23
S'mov'
p2767
sg25
S'0x80bcfddL'
p2768
sg27
Nsba(ibclass
BInstr
p2769
(dp2770
g2
Nsg17
S'cmp     eax, 303h'
p2771
sg19
S'3d03030000'
p2772
sg21
Vcmp eax, 0x303
p2773
sg5
L134991839L
sg6
Nsg23
S'cmp'
p2774
sg25
S'0x80bcfdfL'
p2775
sg27
Nsba(ibclass
BInstr
p2776
(dp2777
g2
Nsg17
S'jle     short loc_80BD002'
p2778
sg19
S'7e1c'
p2779
sg21
Vjle 0x1e
p2780
sg5
L134991844L
sg6
Nsg23
S'jle'
p2781
sg25
S'0x80bcfe4L'
p2782
sg27
Nsbasg140
(lp2783
Vmov eax, mem
p2784
aVmov eax, mem
p2785
aVcmp eax, address
p2786
aVjle address
p2787
asg154
Nsg5
S'0x80bcfdaL'
p2788
sg156
(lp2789
S'0x80bcef1L'
p2790
aS'0x80bcf28L'
p2791
aS'0x80bcf5fL'
p2792
aS'0x80bcf93L'
p2793
asg6
Nsg158
(lp2794
S'0x80bcfe6L'
p2795
aS'0x80bd002L'
p2796
asg162
Nsg163
Nsg164
S'8515616f0a4833daab2113317e86edbc'
p2797
sg166
S'1f485dc7e72f95e0948cbc9125884835'
p2798
sg168
(lp2799
g2760
ag2767
ag2774
ag2781
asg170
Nsba(ibclass
BBasicBlock
p2800
(dp2801
g12
Nsg13
(lp2802
(ibclass
BInstr
p2803
(dp2804
g2
Nsg17
S'mov     dword ptr [esp+8], offset aSVersionTls__0; "s->version <= TLS_MAX_VERSION"'
p2805
sg19
S'c74424082b822108'
p2806
sg21
Vmov dword ptr [esp + 8], 0x821822b
p2807
sg5
L134991846L
sg6
Nsg23
S'mov'
p2808
sg25
S'0x80bcfe6L'
p2809
sg27
Nsba(ibclass
BInstr
p2810
(dp2811
g2
Nsg17
S'mov     dword ptr [esp+4], 2DDh; line'
p2812
sg19
S'c7442404dd020000'
p2813
sg21
Vmov dword ptr [esp + 4], 0x2dd
p2814
sg5
L134991854L
sg6
Nsg23
S'mov'
p2815
sg25
S'0x80bcfeeL'
p2816
sg27
Nsba(ibclass
BInstr
p2817
(dp2818
g2
Nsg17
S'mov     dword ptr [esp], offset aS23_clnt_c; "s23_clnt.c"'
p2819
sg19
S'c7042420822108'
p2820
sg21
Vmov dword ptr [esp], 0x8218220
p2821
sg5
L134991862L
sg6
Nsg23
S'mov'
p2822
sg25
S'0x80bcff6L'
p2823
sg27
Nsba(ibclass
BInstr
p2824
(dp2825
g2
Nsg17
S'call    OpenSSLDie'
p2826
sg19
S'e80ba60200'
p2827
sg21
Vcall 0x2a610
p2828
sg5
L134991869L
sg6
Nsg23
S'call'
p2829
sg25
S'0x80bcffdL'
p2830
sg27
Nsbasg140
(lp2831
Vmov mem, address
p2832
aVmov mem, address
p2833
aVmov mem, address
p2834
aVcall address
p2835
asg154
Nsg5
S'0x80bcfe6L'
p2836
sg156
(lp2837
S'0x80bcfdaL'
p2838
asg6
Nsg158
(lp2839
sg162
Nsg163
Nsg164
S'e233a80004971487a8cda28e21c9f5ef'
p2840
sg166
S'a81f9f89c42ecbd3bdc0ac7f0538f04a'
p2841
sg168
(lp2842
g2808
ag2815
ag2822
ag2829
asg170
Nsba(ibclass
BBasicBlock
p2843
(dp2844
g12
Nsg13
(lp2845
(ibclass
BInstr
p2846
(dp2847
g2
Nsg17
S'mov     eax, [ebp+p]'
p2848
sg19
S'8b45e0'
p2849
sg21
Vmov eax, dword ptr [ebp - 0x20]
p2850
sg5
L134991874L
sg6
Nsg23
S'mov'
p2851
sg25
S'0x80bd002L'
p2852
sg27
Nsba(ibclass
BInstr
p2853
(dp2854
g2
Nsg17
S'mov     al, [eax]'
p2855
sg19
S'8a00'
p2856
sg21
Vmov al, byte ptr [eax]
p2857
sg5
L134991877L
sg6
Nsg23
S'mov'
p2858
sg25
S'0x80bd005L'
p2859
sg27
Nsba(ibclass
BInstr
p2860
(dp2861
g2
Nsg17
S'cmp     al, 15h'
p2862
sg19
S'3c15'
p2863
sg21
Vcmp al, 0x15
p2864
sg5
L134991879L
sg6
Nsg23
S'cmp'
p2865
sg25
S'0x80bd007L'
p2866
sg27
Nsba(ibclass
BInstr
p2867
(dp2868
g2
Nsg17
S'jnz     loc_80BD146'
p2869
sg19
S'0f8537010000'
p2870
sg21
Vjne 0x13d
p2871
sg5
L134991881L
sg6
Nsg23
S'jnz'
p2872
sg25
S'0x80bd009L'
p2873
sg27
Nsbasg140
(lp2874
Vmov eax, mem
p2875
aVmov al, mem
p2876
aVcmp al, address
p2877
aVjne address
p2878
asg154
Nsg5
S'0x80bd002L'
p2879
sg156
(lp2880
S'0x80bcfdaL'
p2881
asg6
Nsg158
(lp2882
S'0x80bd00fL'
p2883
aS'0x80bd146L'
p2884
asg162
Nsg163
Nsg164
S'a19a851724661b9339243c65cfd318e3'
p2885
sg166
S'825f18c034d866eac197ce7c69515772'
p2886
sg168
(lp2887
g2851
ag2858
ag2865
ag2872
asg170
Nsba(ibclass
BBasicBlock
p2888
(dp2889
g12
Nsg13
(lp2890
(ibclass
BInstr
p2891
(dp2892
g2
Nsg17
S'mov     eax, [ebp+p]'
p2893
sg19
S'8b45e0'
p2894
sg21
Vmov eax, dword ptr [ebp - 0x20]
p2895
sg5
L134991887L
sg6
Nsg23
S'mov'
p2896
sg25
S'0x80bd00fL'
p2897
sg27
Nsba(ibclass
BInstr
p2898
(dp2899
g2
Nsg17
S'add     eax, 5'
p2900
sg19
S'83c005'
p2901
sg21
Vadd eax, 5
p2902
sg5
L134991890L
sg6
Nsg23
S'add'
p2903
sg25
S'0x80bd012L'
p2904
sg27
Nsba(ibclass
BInstr
p2905
(dp2906
g2
Nsg17
S'mov     al, [eax]'
p2907
sg19
S'8a00'
p2908
sg21
Vmov al, byte ptr [eax]
p2909
sg5
L134991893L
sg6
Nsg23
S'mov'
p2910
sg25
S'0x80bd015L'
p2911
sg27
Nsba(ibclass
BInstr
p2912
(dp2913
g2
Nsg17
S'cmp     al, 1'
p2914
sg19
S'3c01'
p2915
sg21
Vcmp al, 1
p2916
sg5
L134991895L
sg6
Nsg23
S'cmp'
p2917
sg25
S'0x80bd017L'
p2918
sg27
Nsba(ibclass
BInstr
p2919
(dp2920
g2
Nsg17
S'jz      loc_80BD146'
p2921
sg19
S'0f8427010000'
p2922
sg21
Vje 0x12d
p2923
sg5
L134991897L
sg6
Nsg23
S'jz'
p2924
sg25
S'0x80bd019L'
p2925
sg27
Nsbasg140
(lp2926
Vmov eax, mem
p2927
ag2902
aVmov al, mem
p2928
ag2916
aVje address
p2929
asg154
Nsg5
S'0x80bd00fL'
p2930
sg156
(lp2931
S'0x80bd002L'
p2932
asg6
Nsg158
(lp2933
S'0x80bd01fL'
p2934
aS'0x80bd146L'
p2935
asg162
Nsg163
Nsg164
S'ce8f18adfe227f2f13826b3c18192658'
p2936
sg166
S'c17941937f5b08dec2f23a9f0f9c6844'
p2937
sg168
(lp2938
g2896
ag2903
ag2910
ag2917
ag2924
asg170
Nsba(ibclass
BBasicBlock
p2939
(dp2940
g12
Nsg13
(lp2941
(ibclass
BInstr
p2942
(dp2943
g2
Nsg17
S'mov     [ebp+cb], 0'
p2944
sg19
S'c745d800000000'
p2945
sg21
Vmov dword ptr [ebp - 0x28], 0
p2946
sg5
L134991903L
sg6
Nsg23
S'mov'
p2947
sg25
S'0x80bd01fL'
p2948
sg27
Nsba(ibclass
BInstr
p2949
(dp2950
g2
Nsg17
S'mov     eax, [ebp+s]'
p2951
sg19
S'8b45c4'
p2952
sg21
Vmov eax, dword ptr [ebp - 0x3c]
p2953
sg5
L134991910L
sg6
Nsg23
S'mov'
p2954
sg25
S'0x80bd026L'
p2955
sg27
Nsba(ibclass
BInstr
p2956
(dp2957
g2
Nsg17
S'mov     eax, [eax+0D0h]'
p2958
sg19
S'8b80d0000000'
p2959
sg21
Vmov eax, dword ptr [eax + 0xd0]
p2960
sg5
L134991913L
sg6
Nsg23
S'mov'
p2961
sg25
S'0x80bd029L'
p2962
sg27
Nsba(ibclass
BInstr
p2963
(dp2964
g2
Nsg17
S'test    eax, eax'
p2965
sg19
S'85c0'
p2966
sg21
Vtest eax, eax
p2967
sg5
L134991919L
sg6
Nsg23
S'test'
p2968
sg25
S'0x80bd02fL'
p2969
sg27
Nsba(ibclass
BInstr
p2970
(dp2971
g2
Nsg17
S'jz      short loc_80BD041'
p2972
sg19
S'740e'
p2973
sg21
Vje 0x10
p2974
sg5
L134991921L
sg6
Nsg23
S'jz'
p2975
sg25
S'0x80bd031L'
p2976
sg27
Nsbasg140
(lp2977
Vmov mem, 0
p2978
aVmov eax, mem
p2979
aVmov eax, mem
p2980
ag2967
aVje address
p2981
asg154
Nsg5
S'0x80bd01fL'
p2982
sg156
(lp2983
S'0x80bd00fL'
p2984
asg6
Nsg158
(lp2985
S'0x80bd033L'
p2986
aS'0x80bd041L'
p2987
asg162
Nsg163
Nsg164
S'3b481658a4cce5e38656536ea99dca20'
p2988
sg166
S'7a06020fefa76bfd6ba891052a196c15'
p2989
sg168
(lp2990
g2947
ag2954
ag2961
ag2968
ag2975
asg170
Nsba(ibclass
BBasicBlock
p2991
(dp2992
g12
Nsg13
(lp2993
(ibclass
BInstr
p2994
(dp2995
g2
Nsg17
S'mov     eax, [ebp+s]'
p2996
sg19
S'8b45c4'
p2997
sg21
Vmov eax, dword ptr [ebp - 0x3c]
p2998
sg5
L134991923L
sg6
Nsg23
S'mov'
p2999
sg25
S'0x80bd033L'
p3000
sg27
Nsba(ibclass
BInstr
p3001
(dp3002
g2
Nsg17
S'mov     eax, [eax+0D0h]'
p3003
sg19
S'8b80d0000000'
p3004
sg21
Vmov eax, dword ptr [eax + 0xd0]
p3005
sg5
L134991926L
sg6
Nsg23
S'mov'
p3006
sg25
S'0x80bd036L'
p3007
sg27
Nsba(ibclass
BInstr
p3008
(dp3009
g2
Nsg17
S'mov     [ebp+cb], eax'
p3010
sg19
S'8945d8'
p3011
sg21
Vmov dword ptr [ebp - 0x28], eax
p3012
sg5
L134991932L
sg6
Nsg23
S'mov'
p3013
sg25
S'0x80bd03cL'
p3014
sg27
Nsba(ibclass
BInstr
p3015
(dp3016
g2
Nsg17
S'jmp     short loc_80BD066'
p3017
sg19
S'eb25'
p3018
sg21
Vjmp 0x27
p3019
sg5
L134991935L
sg6
Nsg23
S'jmp'
p3020
sg25
S'0x80bd03fL'
p3021
sg27
Nsbasg140
(lp3022
Vmov eax, mem
p3023
aVmov eax, mem
p3024
aVmov mem, eax
p3025
aVjmp address
p3026
asg154
Nsg5
S'0x80bd033L'
p3027
sg156
(lp3028
S'0x80bd01fL'
p3029
asg6
Nsg158
(lp3030
S'0x80bd066L'
p3031
asg162
Nsg163
Nsg164
S'040fce6d72bb8b206d60fbb015935e24'
p3032
sg166
S'464d6c82476a890ab74b28c58d6c068e'
p3033
sg168
(lp3034
g2999
ag3006
ag3013
ag3020
asg170
Nsba(ibclass
BBasicBlock
p3035
(dp3036
g12
Nsg13
(lp3037
(ibclass
BInstr
p3038
(dp3039
g2
Nsg17
S'mov     eax, [ebp+s]'
p3040
sg19
S'8b45c4'
p3041
sg21
Vmov eax, dword ptr [ebp - 0x3c]
p3042
sg5
L134991937L
sg6
Nsg23
S'mov'
p3043
sg25
S'0x80bd041L'
p3044
sg27
Nsba(ibclass
BInstr
p3045
(dp3046
g2
Nsg17
S'mov     eax, [eax+0E4h]'
p3047
sg19
S'8b80e4000000'
p3048
sg21
Vmov eax, dword ptr [eax + 0xe4]
p3049
sg5
L134991940L
sg6
Nsg23
S'mov'
p3050
sg25
S'0x80bd044L'
p3051
sg27
Nsba(ibclass
BInstr
p3052
(dp3053
g2
Nsg17
S'mov     eax, [eax+9Ch]'
p3054
sg19
S'8b809c000000'
p3055
sg21
Vmov eax, dword ptr [eax + 0x9c]
p3056
sg5
L134991946L
sg6
Nsg23
S'mov'
p3057
sg25
S'0x80bd04aL'
p3058
sg27
Nsba(ibclass
BInstr
p3059
(dp3060
g2
Nsg17
S'test    eax, eax'
p3061
sg19
S'85c0'
p3062
sg21
Vtest eax, eax
p3063
sg5
L134991952L
sg6
Nsg23
S'test'
p3064
sg25
S'0x80bd050L'
p3065
sg27
Nsba(ibclass
BInstr
p3066
(dp3067
g2
Nsg17
S'jz      short loc_80BD066'
p3068
sg19
S'7412'
p3069
sg21
Vje 0x14
p3070
sg5
L134991954L
sg6
Nsg23
S'jz'
p3071
sg25
S'0x80bd052L'
p3072
sg27
Nsbasg140
(lp3073
Vmov eax, mem
p3074
aVmov eax, mem
p3075
aVmov eax, mem
p3076
ag3063
aVje address
p3077
asg154
Nsg5
S'0x80bd041L'
p3078
sg156
(lp3079
S'0x80bd01fL'
p3080
asg6
Nsg158
(lp3081
S'0x80bd054L'
p3082
aS'0x80bd066L'
p3083
asg162
Nsg163
Nsg164
S'3b481658a4cce5e38656536ea99dca20'
p3084
sg166
S'898163da4f2996c9bd80da28a84f3250'
p3085
sg168
(lp3086
g3043
ag3050
ag3057
ag3064
ag3071
asg170
Nsba(ibclass
BBasicBlock
p3087
(dp3088
g12
Nsg13
(lp3089
(ibclass
BInstr
p3090
(dp3091
g2
Nsg17
S'mov     eax, [ebp+s]'
p3092
sg19
S'8b45c4'
p3093
sg21
Vmov eax, dword ptr [ebp - 0x3c]
p3094
sg5
L134991956L
sg6
Nsg23
S'mov'
p3095
sg25
S'0x80bd054L'
p3096
sg27
Nsba(ibclass
BInstr
p3097
(dp3098
g2
Nsg17
S'mov     eax, [eax+0E4h]'
p3099
sg19
S'8b80e4000000'
p3100
sg21
Vmov eax, dword ptr [eax + 0xe4]
p3101
sg5
L134991959L
sg6
Nsg23
S'mov'
p3102
sg25
S'0x80bd057L'
p3103
sg27
Nsba(ibclass
BInstr
p3104
(dp3105
g2
Nsg17
S'mov     eax, [eax+9Ch]'
p3106
sg19
S'8b809c000000'
p3107
sg21
Vmov eax, dword ptr [eax + 0x9c]
p3108
sg5
L134991965L
sg6
Nsg23
S'mov'
p3109
sg25
S'0x80bd05dL'
p3110
sg27
Nsba(ibclass
BInstr
p3111
(dp3112
g2
Nsg17
S'mov     [ebp+cb], eax'
p3113
sg19
S'8945d8'
p3114
sg21
Vmov dword ptr [ebp - 0x28], eax
p3115
sg5
L134991971L
sg6
Nsg23
S'mov'
p3116
sg25
S'0x80bd063L'
p3117
sg27
Nsbasg140
(lp3118
Vmov eax, mem
p3119
aVmov eax, mem
p3120
aVmov eax, mem
p3121
aVmov mem, eax
p3122
asg154
Nsg5
S'0x80bd054L'
p3123
sg156
(lp3124
S'0x80bd041L'
p3125
asg6
Nsg158
(lp3126
S'0x80bd066L'
p3127
asg162
Nsg163
Nsg164
S'a7ed50a6d28be8041222ce9aca64dd18'
p3128
sg166
S'49e5d95ef8c29a7ec309d4fa8278b2b0'
p3129
sg168
(lp3130
g3095
ag3102
ag3109
ag3116
asg170
Nsba(ibclass
BBasicBlock
p3131
(dp3132
g12
Nsg13
(lp3133
(ibclass
BInstr
p3134
(dp3135
g2
Nsg17
S'mov     eax, [ebp+p]'
p3136
sg19
S'8b45e0'
p3137
sg21
Vmov eax, dword ptr [ebp - 0x20]
p3138
sg5
L134991974L
sg6
Nsg23
S'mov'
p3139
sg25
S'0x80bd066L'
p3140
sg27
Nsba(ibclass
BInstr
p3141
(dp3142
g2
Nsg17
S'add     eax, 5'
p3143
sg19
S'83c005'
p3144
sg21
Vadd eax, 5
p3145
sg5
L134991977L
sg6
Nsg23
S'add'
p3146
sg25
S'0x80bd069L'
p3147
sg27
Nsba(ibclass
BInstr
p3148
(dp3149
g2
Nsg17
S'mov     al, [eax]'
p3150
sg19
S'8a00'
p3151
sg21
Vmov al, byte ptr [eax]
p3152
sg5
L134991980L
sg6
Nsg23
S'mov'
p3153
sg25
S'0x80bd06cL'
p3154
sg27
Nsba(ibclass
BInstr
p3155
(dp3156
g2
Nsg17
S'and     eax, 0FFh'
p3157
sg19
S'25ff000000'
p3158
sg21
Vand eax, 0xff
p3159
sg5
L134991982L
sg6
Nsg23
S'and'
p3160
sg25
S'0x80bd06eL'
p3161
sg27
Nsba(ibclass
BInstr
p3162
(dp3163
g2
Nsg17
S'mov     [ebp+i], eax'
p3164
sg19
S'8945e4'
p3165
sg21
Vmov dword ptr [ebp - 0x1c], eax
p3166
sg5
L134991987L
sg6
Nsg23
S'mov'
p3167
sg25
S'0x80bd073L'
p3168
sg27
Nsba(ibclass
BInstr
p3169
(dp3170
g2
Nsg17
S'cmp     [ebp+cb], 0'
p3171
sg19
S'837dd800'
p3172
sg21
Vcmp dword ptr [ebp - 0x28], 0
p3173
sg5
L134991990L
sg6
Nsg23
S'cmp'
p3174
sg25
S'0x80bd076L'
p3175
sg27
Nsba(ibclass
BInstr
p3176
(dp3177
g2
Nsg17
S'jz      short loc_80BD0B0'
p3178
sg19
S'7434'
p3179
sg21
Vje 0x36
p3180
sg5
L134991994L
sg6
Nsg23
S'jz'
p3181
sg25
S'0x80bd07aL'
p3182
sg27
Nsbasg140
(lp3183
Vmov eax, mem
p3184
ag3145
aVmov al, mem
p3185
aVand eax, address
p3186
aVmov mem, eax
p3187
aVcmp mem, 0
p3188
aVje address
p3189
asg154
Nsg5
S'0x80bd066L'
p3190
sg156
(lp3191
S'0x80bd033L'
p3192
aS'0x80bd041L'
p3193
aS'0x80bd054L'
p3194
asg6
Nsg158
(lp3195
S'0x80bd07cL'
p3196
aS'0x80bd0b0L'
p3197
asg162
Nsg163
Nsg164
S'a0782ea4328f645c0fe6edb027c34a9c'
p3198
sg166
S'b35f7f9740ff739e1d3977ff923934e7'
p3199
sg168
(lp3200
g3139
ag3146
ag3153
ag3160
ag3167
ag3174
ag3181
asg170
Nsba(ibclass
BBasicBlock
p3201
(dp3202
g12
Nsg13
(lp3203
(ibclass
BInstr
p3204
(dp3205
g2
Nsg17
S'mov     eax, [ebp+i]'
p3206
sg19
S'8b45e4'
p3207
sg21
Vmov eax, dword ptr [ebp - 0x1c]
p3208
sg5
L134991996L
sg6
Nsg23
S'mov'
p3209
sg25
S'0x80bd07cL'
p3210
sg27
Nsba(ibclass
BInstr
p3211
(dp3212
g2
Nsg17
S'shl     eax, 8'
p3213
sg19
S'c1e008'
p3214
sg21
Vshl eax, 8
p3215
sg5
L134991999L
sg6
Nsg23
S'shl'
p3216
sg25
S'0x80bd07fL'
p3217
sg27
Nsba(ibclass
BInstr
p3218
(dp3219
g2
Nsg17
S'mov     edx, eax'
p3220
sg19
S'89c2'
p3221
sg21
Vmov edx, eax
p3222
sg5
L134992002L
sg6
Nsg23
S'mov'
p3223
sg25
S'0x80bd082L'
p3224
sg27
Nsba(ibclass
BInstr
p3225
(dp3226
g2
Nsg17
S'mov     eax, [ebp+p]'
p3227
sg19
S'8b45e0'
p3228
sg21
Vmov eax, dword ptr [ebp - 0x20]
p3229
sg5
L134992004L
sg6
Nsg23
S'mov'
p3230
sg25
S'0x80bd084L'
p3231
sg27
Nsba(ibclass
BInstr
p3232
(dp3233
g2
Nsg17
S'add     eax, 6'
p3234
sg19
S'83c006'
p3235
sg21
Vadd eax, 6
p3236
sg5
L134992007L
sg6
Nsg23
S'add'
p3237
sg25
S'0x80bd087L'
p3238
sg27
Nsba(ibclass
BInstr
p3239
(dp3240
g2
Nsg17
S'mov     al, [eax]'
p3241
sg19
S'8a00'
p3242
sg21
Vmov al, byte ptr [eax]
p3243
sg5
L134992010L
sg6
Nsg23
S'mov'
p3244
sg25
S'0x80bd08aL'
p3245
sg27
Nsba(ibclass
BInstr
p3246
(dp3247
g2
Nsg17
S'and     eax, 0FFh'
p3248
sg19
S'25ff000000'
p3249
sg21
Vand eax, 0xff
p3250
sg5
L134992012L
sg6
Nsg23
S'and'
p3251
sg25
S'0x80bd08cL'
p3252
sg27
Nsba(ibclass
BInstr
p3253
(dp3254
g2
Nsg17
S'or      eax, edx'
p3255
sg19
S'09d0'
p3256
sg21
Vor eax, edx
p3257
sg5
L134992017L
sg6
Nsg23
S'or'
p3258
sg25
S'0x80bd091L'
p3259
sg27
Nsba(ibclass
BInstr
p3260
(dp3261
g2
Nsg17
S'mov     [ebp+j], eax'
p3262
sg19
S'8945e8'
p3263
sg21
Vmov dword ptr [ebp - 0x18], eax
p3264
sg5
L134992019L
sg6
Nsg23
S'mov'
p3265
sg25
S'0x80bd093L'
p3266
sg27
Nsba(ibclass
BInstr
p3267
(dp3268
g2
Nsg17
S'mov     eax, [ebp+j]'
p3269
sg19
S'8b45e8'
p3270
sg21
Vmov eax, dword ptr [ebp - 0x18]
p3271
sg5
L134992022L
sg6
Nsg23
S'mov'
p3272
sg25
S'0x80bd096L'
p3273
sg27
Nsba(ibclass
BInstr
p3274
(dp3275
g2
Nsg17
S'mov     [esp+8], eax'
p3276
sg19
S'89442408'
p3277
sg21
Vmov dword ptr [esp + 8], eax
p3278
sg5
L134992025L
sg6
Nsg23
S'mov'
p3279
sg25
S'0x80bd099L'
p3280
sg27
Nsba(ibclass
BInstr
p3281
(dp3282
g2
Nsg17
S'mov     dword ptr [esp+4], 4004h'
p3283
sg19
S'c744240404400000'
p3284
sg21
Vmov dword ptr [esp + 4], 0x4004
p3285
sg5
L134992029L
sg6
Nsg23
S'mov'
p3286
sg25
S'0x80bd09dL'
p3287
sg27
Nsba(ibclass
BInstr
p3288
(dp3289
g2
Nsg17
S'mov     eax, [ebp+s]'
p3290
sg19
S'8b45c4'
p3291
sg21
Vmov eax, dword ptr [ebp - 0x3c]
p3292
sg5
L134992037L
sg6
Nsg23
S'mov'
p3293
sg25
S'0x80bd0a5L'
p3294
sg27
Nsba(ibclass
BInstr
p3295
(dp3296
g2
Nsg17
S'mov     [esp], eax'
p3297
sg19
S'890424'
p3298
sg21
Vmov dword ptr [esp], eax
p3299
sg5
L134992040L
sg6
Nsg23
S'mov'
p3300
sg25
S'0x80bd0a8L'
p3301
sg27
Nsba(ibclass
BInstr
p3302
(dp3303
g2
Nsg17
S'mov     eax, [ebp+cb]'
p3304
sg19
S'8b45d8'
p3305
sg21
Vmov eax, dword ptr [ebp - 0x28]
p3306
sg5
L134992043L
sg6
Nsg23
S'mov'
p3307
sg25
S'0x80bd0abL'
p3308
sg27
Nsba(ibclass
BInstr
p3309
(dp3310
g2
Nsg17
S'call    eax'
p3311
sg19
S'ffd0'
p3312
sg21
Vcall eax
p3313
sg5
L134992046L
sg6
Nsg23
S'call'
p3314
sg25
S'0x80bd0aeL'
p3315
sg27
Nsbasg140
(lp3316
Vmov eax, mem
p3317
ag3215
ag3222
aVmov eax, mem
p3318
ag3236
aVmov al, mem
p3319
aVand eax, address
p3320
ag3257
aVmov mem, eax
p3321
aVmov eax, mem
p3322
aVmov mem, eax
p3323
aVmov mem, address
p3324
aVmov eax, mem
p3325
aVmov mem, eax
p3326
aVmov eax, mem
p3327
ag3313
asg154
Nsg5
S'0x80bd07cL'
p3328
sg156
(lp3329
S'0x80bd066L'
p3330
asg6
Nsg158
(lp3331
S'0x80bd0b0L'
p3332
asg162
Nsg163
Nsg164
S'21e16f5cc5f4f1264df97a9845e5a5fa'
p3333
sg166
S'57e5286bb7cd1646923952bc514c9b25'
p3334
sg168
(lp3335
g3209
ag3216
ag3223
ag3230
ag3237
ag3244
ag3251
ag3258
ag3265
ag3272
ag3279
ag3286
ag3293
ag3300
ag3307
ag3314
asg170
Nsba(ibclass
BBasicBlock
p3336
(dp3337
g12
Nsg13
(lp3338
(ibclass
BInstr
p3339
(dp3340
g2
Nsg17
S'mov     eax, [ebp+s]'
p3341
sg19
S'8b45c4'
p3342
sg21
Vmov eax, dword ptr [ebp - 0x3c]
p3343
sg5
L134992048L
sg6
Nsg23
S'mov'
p3344
sg25
S'0x80bd0b0L'
p3345
sg27
Nsba(ibclass
BInstr
p3346
(dp3347
g2
Nsg17
S'mov     eax, [eax+64h]'
p3348
sg19
S'8b4064'
p3349
sg21
Vmov eax, dword ptr [eax + 0x64]
p3350
sg5
L134992051L
sg6
Nsg23
S'mov'
p3351
sg25
S'0x80bd0b3L'
p3352
sg27
Nsba(ibclass
BInstr
p3353
(dp3354
g2
Nsg17
S'test    eax, eax'
p3355
sg19
S'85c0'
p3356
sg21
Vtest eax, eax
p3357
sg5
L134992054L
sg6
Nsg23
S'test'
p3358
sg25
S'0x80bd0b6L'
p3359
sg27
Nsba(ibclass
BInstr
p3360
(dp3361
g2
Nsg17
S'jz      short loc_80BD0FD'
p3362
sg19
S'7443'
p3363
sg21
Vje 0x45
p3364
sg5
L134992056L
sg6
Nsg23
S'jz'
p3365
sg25
S'0x80bd0b8L'
p3366
sg27
Nsbasg140
(lp3367
Vmov eax, mem
p3368
aVmov eax, mem
p3369
ag3357
aVje address
p3370
asg154
Nsg5
S'0x80bd0b0L'
p3371
sg156
(lp3372
S'0x80bd066L'
p3373
aS'0x80bd07cL'
p3374
asg6
Nsg158
(lp3375
S'0x80bd0baL'
p3376
aS'0x80bd0fdL'
p3377
asg162
Nsg163
Nsg164
S'ea5d08c7dcc07640d42787f826218f11'
p3378
sg166
S'103b924e2a82731ce51d187b2e41af3a'
p3379
sg168
(lp3380
g3344
ag3351
ag3358
ag3365
asg170
Nsba(ibclass
BBasicBlock
p3381
(dp3382
g12
Nsg13
(lp3383
(ibclass
BInstr
p3384
(dp3385
g2
Nsg17
S'mov     eax, [ebp+s]'
p3386
sg19
S'8b45c4'
p3387
sg21
Vmov eax, dword ptr [ebp - 0x3c]
p3388
sg5
L134992058L
sg6
Nsg23
S'mov'
p3389
sg25
S'0x80bd0baL'
p3390
sg27
Nsba(ibclass
BInstr
p3391
(dp3392
g2
Nsg17
S'mov     eax, [eax+64h]'
p3393
sg19
S'8b4064'
p3394
sg21
Vmov eax, dword ptr [eax + 0x64]
p3395
sg5
L134992061L
sg6
Nsg23
S'mov'
p3396
sg25
S'0x80bd0bdL'
p3397
sg27
Nsba(ibclass
BInstr
p3398
(dp3399
g2
Nsg17
S'mov     edx, [ebp+s]'
p3400
sg19
S'8b55c4'
p3401
sg21
Vmov edx, dword ptr [ebp - 0x3c]
p3402
sg5
L134992064L
sg6
Nsg23
S'mov'
p3403
sg25
S'0x80bd0c0L'
p3404
sg27
Nsba(ibclass
BInstr
p3405
(dp3406
g2
Nsg17
S'mov     ecx, [edx+68h]'
p3407
sg19
S'8b4a68'
p3408
sg21
Vmov ecx, dword ptr [edx + 0x68]
p3409
sg5
L134992067L
sg6
Nsg23
S'mov'
p3410
sg25
S'0x80bd0c3L'
p3411
sg27
Nsba(ibclass
BInstr
p3412
(dp3413
g2
Nsg17
S'mov     edx, [ebp+p]'
p3414
sg19
S'8b55e0'
p3415
sg21
Vmov edx, dword ptr [ebp - 0x20]
p3416
sg5
L134992070L
sg6
Nsg23
S'mov'
p3417
sg25
S'0x80bd0c6L'
p3418
sg27
Nsba(ibclass
BInstr
p3419
(dp3420
g2
Nsg17
S'lea     ebx, [edx+5]'
p3421
sg19
S'8d5a05'
p3422
sg21
Vlea ebx, [edx + 5]
p3423
sg5
L134992073L
sg6
Nsg23
S'lea'
p3424
sg25
S'0x80bd0c9L'
p3425
sg27
Nsba(ibclass
BInstr
p3426
(dp3427
g2
Nsg17
S'mov     edx, [ebp+s]'
p3428
sg19
S'8b55c4'
p3429
sg21
Vmov edx, dword ptr [ebp - 0x3c]
p3430
sg5
L134992076L
sg6
Nsg23
S'mov'
p3431
sg25
S'0x80bd0ccL'
p3432
sg27
Nsba(ibclass
BInstr
p3433
(dp3434
g2
Nsg17
S'mov     edx, [edx]'
p3435
sg19
S'8b12'
p3436
sg21
Vmov edx, dword ptr [edx]
p3437
sg5
L134992079L
sg6
Nsg23
S'mov'
p3438
sg25
S'0x80bd0cfL'
p3439
sg27
Nsba(ibclass
BInstr
p3440
(dp3441
g2
Nsg17
S'mov     [esp+18h], ecx'
p3442
sg19
S'894c2418'
p3443
sg21
Vmov dword ptr [esp + 0x18], ecx
p3444
sg5
L134992081L
sg6
Nsg23
S'mov'
p3445
sg25
S'0x80bd0d1L'
p3446
sg27
Nsba(ibclass
BInstr
p3447
(dp3448
g2
Nsg17
S'mov     ecx, [ebp+s]'
p3449
sg19
S'8b4dc4'
p3450
sg21
Vmov ecx, dword ptr [ebp - 0x3c]
p3451
sg5
L134992085L
sg6
Nsg23
S'mov'
p3452
sg25
S'0x80bd0d5L'
p3453
sg27
Nsba(ibclass
BInstr
p3454
(dp3455
g2
Nsg17
S'mov     [esp+14h], ecx'
p3456
sg19
S'894c2414'
p3457
sg21
Vmov dword ptr [esp + 0x14], ecx
p3458
sg5
L134992088L
sg6
Nsg23
S'mov'
p3459
sg25
S'0x80bd0d8L'
p3460
sg27
Nsba(ibclass
BInstr
p3461
(dp3462
g2
Nsg17
S'mov     dword ptr [esp+10h], 2'
p3463
sg19
S'c744241002000000'
p3464
sg21
Vmov dword ptr [esp + 0x10], 2
p3465
sg5
L134992092L
sg6
Nsg23
S'mov'
p3466
sg25
S'0x80bd0dcL'
p3467
sg27
Nsba(ibclass
BInstr
p3468
(dp3469
g2
Nsg17
S'mov     [esp+0Ch], ebx'
p3470
sg19
S'895c240c'
p3471
sg21
Vmov dword ptr [esp + 0xc], ebx
p3472
sg5
L134992100L
sg6
Nsg23
S'mov'
p3473
sg25
S'0x80bd0e4L'
p3474
sg27
Nsba(ibclass
BInstr
p3475
(dp3476
g2
Nsg17
S'mov     dword ptr [esp+8], 15h'
p3477
sg19
S'c744240815000000'
p3478
sg21
Vmov dword ptr [esp + 8], 0x15
p3479
sg5
L134992104L
sg6
Nsg23
S'mov'
p3480
sg25
S'0x80bd0e8L'
p3481
sg27
Nsba(ibclass
BInstr
p3482
(dp3483
g2
Nsg17
S'mov     [esp+4], edx'
p3484
sg19
S'89542404'
p3485
sg21
Vmov dword ptr [esp + 4], edx
p3486
sg5
L134992112L
sg6
Nsg23
S'mov'
p3487
sg25
S'0x80bd0f0L'
p3488
sg27
Nsba(ibclass
BInstr
p3489
(dp3490
g2
Nsg17
S'mov     dword ptr [esp], 0'
p3491
sg19
S'c7042400000000'
p3492
sg21
Vmov dword ptr [esp], 0
p3493
sg5
L134992116L
sg6
Nsg23
S'mov'
p3494
sg25
S'0x80bd0f4L'
p3495
sg27
Nsba(ibclass
BInstr
p3496
(dp3497
g2
Nsg17
S'call    eax'
p3498
sg19
S'ffd0'
p3499
sg21
Vcall eax
p3500
sg5
L134992123L
sg6
Nsg23
S'call'
p3501
sg25
S'0x80bd0fbL'
p3502
sg27
Nsbasg140
(lp3503
Vmov eax, mem
p3504
aVmov eax, mem
p3505
aVmov edx, mem
p3506
aVmov ecx, mem
p3507
aVmov edx, mem
p3508
aVlea ebx, mem
p3509
aVmov edx, mem
p3510
aVmov edx, mem
p3511
aVmov mem, ecx
p3512
aVmov ecx, mem
p3513
aVmov mem, ecx
p3514
aVmov mem, 2
p3515
aVmov mem, ebx
p3516
aVmov mem, address
p3517
aVmov mem, edx
p3518
aVmov mem, 0
p3519
ag3500
asg154
Nsg5
S'0x80bd0baL'
p3520
sg156
(lp3521
S'0x80bd0b0L'
p3522
asg6
Nsg158
(lp3523
S'0x80bd0fdL'
p3524
asg162
Nsg163
Nsg164
S'd3e88c73c5f324e76f2000c710a73b78'
p3525
sg166
S'30ad2d652d374415e8dbf2816f058d45'
p3526
sg168
(lp3527
g3389
ag3396
ag3403
ag3410
ag3417
ag3424
ag3431
ag3438
ag3445
ag3452
ag3459
ag3466
ag3473
ag3480
ag3487
ag3494
ag3501
asg170
Nsba(ibclass
BBasicBlock
p3528
(dp3529
g12
Nsg13
(lp3530
(ibclass
BInstr
p3531
(dp3532
g2
Nsg17
S'mov     eax, [ebp+s]'
p3533
sg19
S'8b45c4'
p3534
sg21
Vmov eax, dword ptr [ebp - 0x3c]
p3535
sg5
L134992125L
sg6
Nsg23
S'mov'
p3536
sg25
S'0x80bd0fdL'
p3537
sg27
Nsba(ibclass
BInstr
p3538
(dp3539
g2
Nsg17
S'mov     dword ptr [eax+18h], 1'
p3540
sg19
S'c7401801000000'
p3541
sg21
Vmov dword ptr [eax + 0x18], 1
p3542
sg5
L134992128L
sg6
Nsg23
S'mov'
p3543
sg25
S'0x80bd100L'
p3544
sg27
Nsba(ibclass
BInstr
p3545
(dp3546
g2
Nsg17
S'mov     eax, [ebp+p]'
p3547
sg19
S'8b45e0'
p3548
sg21
Vmov eax, dword ptr [ebp - 0x20]
p3549
sg5
L134992135L
sg6
Nsg23
S'mov'
p3550
sg25
S'0x80bd107L'
p3551
sg27
Nsba(ibclass
BInstr
p3552
(dp3553
g2
Nsg17
S'add     eax, 6'
p3554
sg19
S'83c006'
p3555
sg21
Vadd eax, 6
p3556
sg5
L134992138L
sg6
Nsg23
S'add'
p3557
sg25
S'0x80bd10aL'
p3558
sg27
Nsba(ibclass
BInstr
p3559
(dp3560
g2
Nsg17
S'mov     al, [eax]'
p3561
sg19
S'8a00'
p3562
sg21
Vmov al, byte ptr [eax]
p3563
sg5
L134992141L
sg6
Nsg23
S'mov'
p3564
sg25
S'0x80bd10dL'
p3565
sg27
Nsba(ibclass
BInstr
p3566
(dp3567
g2
Nsg17
S'and     eax, 0FFh'
p3568
sg19
S'25ff000000'
p3569
sg21
Vand eax, 0xff
p3570
sg5
L134992143L
sg6
Nsg23
S'and'
p3571
sg25
S'0x80bd10fL'
p3572
sg27
Nsba(ibclass
BInstr
p3573
(dp3574
g2
Nsg17
S'add     eax, 3E8h'
p3575
sg19
S'05e8030000'
p3576
sg21
Vadd eax, 0x3e8
p3577
sg5
L134992148L
sg6
Nsg23
S'add'
p3578
sg25
S'0x80bd114L'
p3579
sg27
Nsba(ibclass
BInstr
p3580
(dp3581
g2
Nsg17
S'mov     dword ptr [esp+10h], 2F5h; line'
p3582
sg19
S'c7442410f5020000'
p3583
sg21
Vmov dword ptr [esp + 0x10], 0x2f5
p3584
sg5
L134992153L
sg6
Nsg23
S'mov'
p3585
sg25
S'0x80bd119L'
p3586
sg27
Nsba(ibclass
BInstr
p3587
(dp3588
g2
Nsg17
S'mov     dword ptr [esp+0Ch], offset aS23_clnt_c; "s23_clnt.c"'
p3589
sg19
S'c744240c20822108'
p3590
sg21
Vmov dword ptr [esp + 0xc], 0x8218220
p3591
sg5
L134992161L
sg6
Nsg23
S'mov'
p3592
sg25
S'0x80bd121L'
p3593
sg27
Nsba(ibclass
BInstr
p3594
(dp3595
g2
Nsg17
S'mov     [esp+8], eax    ; reason'
p3596
sg19
S'89442408'
p3597
sg21
Vmov dword ptr [esp + 8], eax
p3598
sg5
L134992169L
sg6
Nsg23
S'mov'
p3599
sg25
S'0x80bd129L'
p3600
sg27
Nsba(ibclass
BInstr
p3601
(dp3602
g2
Nsg17
S'mov     dword ptr [esp+4], 77h; func'
p3603
sg19
S'c744240477000000'
p3604
sg21
Vmov dword ptr [esp + 4], 0x77
p3605
sg5
L134992173L
sg6
Nsg23
S'mov'
p3606
sg25
S'0x80bd12dL'
p3607
sg27
Nsba(ibclass
BInstr
p3608
(dp3609
g2
Nsg17
S'mov     dword ptr [esp], 14h; lib'
p3610
sg19
S'c7042414000000'
p3611
sg21
Vmov dword ptr [esp], 0x14
p3612
sg5
L134992181L
sg6
Nsg23
S'mov'
p3613
sg25
S'0x80bd135L'
p3614
sg27
Nsba(ibclass
BInstr
p3615
(dp3616
g2
Nsg17
S'call    ERR_put_error'
p3617
sg19
S'e873230800'
p3618
sg21
Vcall 0x82378
p3619
sg5
L134992188L
sg6
Nsg23
S'call'
p3620
sg25
S'0x80bd13cL'
p3621
sg27
Nsba(ibclass
BInstr
p3622
(dp3623
g2
Nsg17
S'jmp     err'
p3624
sg19
S'e919010000'
p3625
sg21
Vjmp 0x11e
p3626
sg5
L134992193L
sg6
Nsg23
S'jmp'
p3627
sg25
S'0x80bd141L'
p3628
sg27
Nsbasg140
(lp3629
Vmov eax, mem
p3630
aVmov mem, 1
p3631
aVmov eax, mem
p3632
ag3556
aVmov al, mem
p3633
aVand eax, address
p3634
aVadd eax, address
p3635
aVmov mem, address
p3636
aVmov mem, address
p3637
aVmov mem, eax
p3638
aVmov mem, address
p3639
aVmov mem, address
p3640
aVcall address
p3641
aVjmp address
p3642
asg154
Nsg5
S'0x80bd0fdL'
p3643
sg156
(lp3644
S'0x80bd0b0L'
p3645
aS'0x80bd0baL'
p3646
asg6
Nsg158
(lp3647
S'0x80bd25fL'
p3648
asg162
Nsg163
Nsg164
S'7608e56e6a4a36597218c86d7efd9a93'
p3649
sg166
S'ee374740930fefc85d8d2a414816d236'
p3650
sg168
(lp3651
g3536
ag3543
ag3550
ag3557
ag3564
ag3571
ag3578
ag3585
ag3592
ag3599
ag3606
ag3613
ag3620
ag3627
asg170
Nsba(ibclass
BBasicBlock
p3652
(dp3653
g12
Nsg13
(lp3654
(ibclass
BInstr
p3655
(dp3656
g2
Nsg17
S'mov     dword ptr [esp+4], 1; push'
p3657
sg19
S'c744240401000000'
p3658
sg21
Vmov dword ptr [esp + 4], 1
p3659
sg5
L134992198L
sg6
Nsg23
S'mov'
p3660
sg25
S'0x80bd146L'
p3661
sg27
Nsba(ibclass
BInstr
p3662
(dp3663
g2
Nsg17
S'mov     eax, [ebp+s]'
p3664
sg19
S'8b45c4'
p3665
sg21
Vmov eax, dword ptr [ebp - 0x3c]
p3666
sg5
L134992206L
sg6
Nsg23
S'mov'
p3667
sg25
S'0x80bd14eL'
p3668
sg27
Nsba(ibclass
BInstr
p3669
(dp3670
g2
Nsg17
S'mov     [esp], eax      ; s'
p3671
sg19
S'890424'
p3672
sg21
Vmov dword ptr [esp], eax
p3673
sg5
L134992209L
sg6
Nsg23
S'mov'
p3674
sg25
S'0x80bd151L'
p3675
sg27
Nsba(ibclass
BInstr
p3676
(dp3677
g2
Nsg17
S'call    ssl_init_wbio_buffer'
p3678
sg19
S'e8839f0100'
p3679
sg21
Vcall 0x19f88
p3680
sg5
L134992212L
sg6
Nsg23
S'call'
p3681
sg25
S'0x80bd154L'
p3682
sg27
Nsba(ibclass
BInstr
p3683
(dp3684
g2
Nsg17
S'test    eax, eax'
p3685
sg19
S'85c0'
p3686
sg21
Vtest eax, eax
p3687
sg5
L134992217L
sg6
Nsg23
S'test'
p3688
sg25
S'0x80bd159L'
p3689
sg27
Nsba(ibclass
BInstr
p3690
(dp3691
g2
Nsg17
S'jnz     short loc_80BD162'
p3692
sg19
S'7505'
p3693
sg21
Vjne 7
p3694
sg5
L134992219L
sg6
Nsg23
S'jnz'
p3695
sg25
S'0x80bd15bL'
p3696
sg27
Nsbasg140
(lp3697
Vmov mem, 1
p3698
aVmov eax, mem
p3699
aVmov mem, eax
p3700
aVcall address
p3701
ag3687
ag3694
asg154
Nsg5
S'0x80bd146L'
p3702
sg156
(lp3703
S'0x80bd002L'
p3704
aS'0x80bd00fL'
p3705
asg6
Nsg158
(lp3706
S'0x80bd15dL'
p3707
aS'0x80bd162L'
p3708
asg162
Nsg163
Nsg164
S'd30d135fe2a35eb6b5d57e82131f8ef5'
p3709
sg166
S'1efa20b0cd4dbf9d607bc82a1bffe8ee'
p3710
sg168
(lp3711
g3660
ag3667
ag3674
ag3681
ag3688
ag3695
asg170
Nsba(ibclass
BBasicBlock
p3712
(dp3713
g12
Nsg13
(lp3714
(ibclass
BInstr
p3715
(dp3716
g2
Nsg17
S'jmp     err'
p3717
sg19
S'e9fd000000'
p3718
sg21
Vjmp 0x102
p3719
sg5
L134992221L
sg6
Nsg23
S'jmp'
p3720
sg25
S'0x80bd15dL'
p3721
sg27
Nsbasg140
(lp3722
Vjmp address
p3723
asg154
Nsg5
S'0x80bd15dL'
p3724
sg156
(lp3725
S'0x80bd146L'
p3726
asg6
Nsg158
(lp3727
S'0x80bd25fL'
p3728
asg162
Nsg163
Nsg164
S'0ef6cf926f2f394b0cc8e11be8022625'
p3729
sg166
S'd4372e4caa7348928655251605aa7329'
p3730
sg168
(lp3731
g3720
asg170
Nsba(ibclass
BBasicBlock
p3732
(dp3733
g12
Nsg13
(lp3734
(ibclass
BInstr
p3735
(dp3736
g2
Nsg17
S'mov     eax, [ebp+s]'
p3737
sg19
S'8b45c4'
p3738
sg21
Vmov eax, dword ptr [ebp - 0x3c]
p3739
sg5
L134992226L
sg6
Nsg23
S'mov'
p3740
sg25
S'0x80bd162L'
p3741
sg27
Nsba(ibclass
BInstr
p3742
(dp3743
g2
Nsg17
S'mov     dword ptr [eax+34h], 1120h'
p3744
sg19
S'c7403420110000'
p3745
sg21
Vmov dword ptr [eax + 0x34], 0x1120
p3746
sg5
L134992229L
sg6
Nsg23
S'mov'
p3747
sg25
S'0x80bd165L'
p3748
sg27
Nsba(ibclass
BInstr
p3749
(dp3750
g2
Nsg17
S'mov     eax, [ebp+s]'
p3751
sg19
S'8b45c4'
p3752
sg21
Vmov eax, dword ptr [ebp - 0x3c]
p3753
sg5
L134992236L
sg6
Nsg23
S'mov'
p3754
sg25
S'0x80bd16cL'
p3755
sg27
Nsba(ibclass
BInstr
p3756
(dp3757
g2
Nsg17
S'mov     dword ptr [eax+38h], 0F0h'
p3758
sg19
S'c74038f0000000'
p3759
sg21
Vmov dword ptr [eax + 0x38], 0xf0
p3760
sg5
L134992239L
sg6
Nsg23
S'mov'
p3761
sg25
S'0x80bd16fL'
p3762
sg27
Nsba(ibclass
BInstr
p3763
(dp3764
g2
Nsg17
S'mov     edx, [ebp+n]'
p3765
sg19
S'8b55dc'
p3766
sg21
Vmov edx, dword ptr [ebp - 0x24]
p3767
sg5
L134992246L
sg6
Nsg23
S'mov'
p3768
sg25
S'0x80bd176L'
p3769
sg27
Nsba(ibclass
BInstr
p3770
(dp3771
g2
Nsg17
S'mov     eax, [ebp+s]'
p3772
sg19
S'8b45c4'
p3773
sg21
Vmov eax, dword ptr [ebp - 0x3c]
p3774
sg5
L134992249L
sg6
Nsg23
S'mov'
p3775
sg25
S'0x80bd179L'
p3776
sg27
Nsba(ibclass
BInstr
p3777
(dp3778
g2
Nsg17
S'mov     [eax+50h], edx'
p3779
sg19
S'895050'
p3780
sg21
Vmov dword ptr [eax + 0x50], edx
p3781
sg5
L134992252L
sg6
Nsg23
S'mov'
p3782
sg25
S'0x80bd17cL'
p3783
sg27
Nsba(ibclass
BInstr
p3784
(dp3785
g2
Nsg17
S'mov     eax, [ebp+s]'
p3786
sg19
S'8b45c4'
p3787
sg21
Vmov eax, dword ptr [ebp - 0x3c]
p3788
sg5
L134992255L
sg6
Nsg23
S'mov'
p3789
sg25
S'0x80bd17fL'
p3790
sg27
Nsba(ibclass
BInstr
p3791
(dp3792
g2
Nsg17
S'mov     eax, [eax+58h]'
p3793
sg19
S'8b4058'
p3794
sg21
Vmov eax, dword ptr [eax + 0x58]
p3795
sg5
L134992258L
sg6
Nsg23
S'mov'
p3796
sg25
S'0x80bd182L'
p3797
sg27
Nsba(ibclass
BInstr
p3798
(dp3799
g2
Nsg17
S'mov     eax, [eax+0ECh]'
p3800
sg19
S'8b80ec000000'
p3801
sg21
Vmov eax, dword ptr [eax + 0xec]
p3802
sg5
L134992261L
sg6
Nsg23
S'mov'
p3803
sg25
S'0x80bd185L'
p3804
sg27
Nsba(ibclass
BInstr
p3805
(dp3806
g2
Nsg17
S'test    eax, eax'
p3807
sg19
S'85c0'
p3808
sg21
Vtest eax, eax
p3809
sg5
L134992267L
sg6
Nsg23
S'test'
p3810
sg25
S'0x80bd18bL'
p3811
sg27
Nsba(ibclass
BInstr
p3812
(dp3813
g2
Nsg17
S'jnz     short loc_80BD1A3'
p3814
sg19
S'7514'
p3815
sg21
Vjne 0x16
p3816
sg5
L134992269L
sg6
Nsg23
S'jnz'
p3817
sg25
S'0x80bd18dL'
p3818
sg27
Nsbasg140
(lp3819
Vmov eax, mem
p3820
aVmov mem, address
p3821
aVmov eax, mem
p3822
aVmov mem, address
p3823
aVmov edx, mem
p3824
aVmov eax, mem
p3825
aVmov mem, edx
p3826
aVmov eax, mem
p3827
aVmov eax, mem
p3828
aVmov eax, mem
p3829
ag3809
aVjne address
p3830
asg154
Nsg5
S'0x80bd162L'
p3831
sg156
(lp3832
S'0x80bd146L'
p3833
asg6
Nsg158
(lp3834
S'0x80bd18fL'
p3835
aS'0x80bd1a3L'
p3836
asg162
Nsg163
Nsg164
S'657aadcdda55be0bf222e9b0268acda4'
p3837
sg166
S'4f9ca1c11b17547e99fc65c3c053e231'
p3838
sg168
(lp3839
g3740
ag3747
ag3754
ag3761
ag3768
ag3775
ag3782
ag3789
ag3796
ag3803
ag3810
ag3817
asg170
Nsba(ibclass
BBasicBlock
p3840
(dp3841
g12
Nsg13
(lp3842
(ibclass
BInstr
p3843
(dp3844
g2
Nsg17
S'mov     eax, [ebp+s]'
p3845
sg19
S'8b45c4'
p3846
sg21
Vmov eax, dword ptr [ebp - 0x3c]
p3847
sg5
L134992271L
sg6
Nsg23
S'mov'
p3848
sg25
S'0x80bd18fL'
p3849
sg27
Nsba(ibclass
BInstr
p3850
(dp3851
g2
Nsg17
S'mov     [esp], eax      ; s'
p3852
sg19
S'890424'
p3853
sg21
Vmov dword ptr [esp], eax
p3854
sg5
L134992274L
sg6
Nsg23
S'mov'
p3855
sg25
S'0x80bd192L'
p3856
sg27
Nsba(ibclass
BInstr
p3857
(dp3858
g2
Nsg17
S'call    ssl3_setup_read_buffer'
p3859
sg19
S'e893c0ffff'
p3860
sg21
Vcall 0xffffc098
p3861
sg5
L134992277L
sg6
Nsg23
S'call'
p3862
sg25
S'0x80bd195L'
p3863
sg27
Nsba(ibclass
BInstr
p3864
(dp3865
g2
Nsg17
S'test    eax, eax'
p3866
sg19
S'85c0'
p3867
sg21
Vtest eax, eax
p3868
sg5
L134992282L
sg6
Nsg23
S'test'
p3869
sg25
S'0x80bd19aL'
p3870
sg27
Nsba(ibclass
BInstr
p3871
(dp3872
g2
Nsg17
S'jnz     short loc_80BD1A3'
p3873
sg19
S'7505'
p3874
sg21
Vjne 7
p3875
sg5
L134992284L
sg6
Nsg23
S'jnz'
p3876
sg25
S'0x80bd19cL'
p3877
sg27
Nsbasg140
(lp3878
Vmov eax, mem
p3879
aVmov mem, eax
p3880
aVcall address
p3881
ag3868
ag3875
asg154
Nsg5
S'0x80bd18fL'
p3882
sg156
(lp3883
S'0x80bd162L'
p3884
asg6
Nsg158
(lp3885
S'0x80bd19eL'
p3886
aS'0x80bd1a3L'
p3887
asg162
Nsg163
Nsg164
S'8aa47bafac27863733b9d38d97a948f4'
p3888
sg166
S'cf85c211628291eacd3f966f3253a155'
p3889
sg168
(lp3890
g3848
ag3855
ag3862
ag3869
ag3876
asg170
Nsba(ibclass
BBasicBlock
p3891
(dp3892
g12
Nsg13
(lp3893
(ibclass
BInstr
p3894
(dp3895
g2
Nsg17
S'jmp     err'
p3896
sg19
S'e9bc000000'
p3897
sg21
Vjmp 0xc1
p3898
sg5
L134992286L
sg6
Nsg23
S'jmp'
p3899
sg25
S'0x80bd19eL'
p3900
sg27
Nsbasg140
(lp3901
Vjmp address
p3902
asg154
Nsg5
S'0x80bd19eL'
p3903
sg156
(lp3904
S'0x80bd18fL'
p3905
asg6
Nsg158
(lp3906
S'0x80bd25fL'
p3907
asg162
Nsg163
Nsg164
S'0ef6cf926f2f394b0cc8e11be8022625'
p3908
sg166
S'd4372e4caa7348928655251605aa7329'
p3909
sg168
(lp3910
g3899
asg170
Nsba(ibclass
BBasicBlock
p3911
(dp3912
g12
Nsg13
(lp3913
(ibclass
BInstr
p3914
(dp3915
g2
Nsg17
S'mov     eax, [ebp+s]'
p3916
sg19
S'8b45c4'
p3917
sg21
Vmov eax, dword ptr [ebp - 0x3c]
p3918
sg5
L134992291L
sg6
Nsg23
S'mov'
p3919
sg25
S'0x80bd1a3L'
p3920
sg27
Nsba(ibclass
BInstr
p3921
(dp3922
g2
Nsg17
S'mov     eax, [eax+58h]'
p3923
sg19
S'8b4058'
p3924
sg21
Vmov eax, dword ptr [eax + 0x58]
p3925
sg5
L134992294L
sg6
Nsg23
S'mov'
p3926
sg25
S'0x80bd1a6L'
p3927
sg27
Nsba(ibclass
BInstr
p3928
(dp3929
g2
Nsg17
S'mov     edx, [eax+0ECh]'
p3930
sg19
S'8b90ec000000'
p3931
sg21
Vmov edx, dword ptr [eax + 0xec]
p3932
sg5
L134992297L
sg6
Nsg23
S'mov'
p3933
sg25
S'0x80bd1a9L'
p3934
sg27
Nsba(ibclass
BInstr
p3935
(dp3936
g2
Nsg17
S'mov     eax, [ebp+s]'
p3937
sg19
S'8b45c4'
p3938
sg21
Vmov eax, dword ptr [ebp - 0x3c]
p3939
sg5
L134992303L
sg6
Nsg23
S'mov'
p3940
sg25
S'0x80bd1afL'
p3941
sg27
Nsba(ibclass
BInstr
p3942
(dp3943
g2
Nsg17
S'mov     [eax+4Ch], edx'
p3944
sg19
S'89504c'
p3945
sg21
Vmov dword ptr [eax + 0x4c], edx
p3946
sg5
L134992306L
sg6
Nsg23
S'mov'
p3947
sg25
S'0x80bd1b2L'
p3948
sg27
Nsba(ibclass
BInstr
p3949
(dp3950
g2
Nsg17
S'mov     edx, [ebp+n]'
p3951
sg19
S'8b55dc'
p3952
sg21
Vmov edx, dword ptr [ebp - 0x24]
p3953
sg5
L134992309L
sg6
Nsg23
S'mov'
p3954
sg25
S'0x80bd1b5L'
p3955
sg27
Nsba(ibclass
BInstr
p3956
(dp3957
g2
Nsg17
S'mov     eax, [ebp+s]'
p3958
sg19
S'8b45c4'
p3959
sg21
Vmov eax, dword ptr [ebp - 0x3c]
p3960
sg5
L134992312L
sg6
Nsg23
S'mov'
p3961
sg25
S'0x80bd1b8L'
p3962
sg27
Nsba(ibclass
BInstr
p3963
(dp3964
g2
Nsg17
S'mov     eax, [eax+4Ch]'
p3965
sg19
S'8b404c'
p3966
sg21
Vmov eax, dword ptr [eax + 0x4c]
p3967
sg5
L134992315L
sg6
Nsg23
S'mov'
p3968
sg25
S'0x80bd1bbL'
p3969
sg27
Nsba(ibclass
BInstr
p3970
(dp3971
g2
Nsg17
S'mov     [esp+8], edx    ; n'
p3972
sg19
S'89542408'
p3973
sg21
Vmov dword ptr [esp + 8], edx
p3974
sg5
L134992318L
sg6
Nsg23
S'mov'
p3975
sg25
S'0x80bd1beL'
p3976
sg27
Nsba(ibclass
BInstr
p3977
(dp3978
g2
Nsg17
S'lea     edx, [ebp+buf]'
p3979
sg19
S'8d55ec'
p3980
sg21
Vlea edx, [ebp - 0x14]
p3981
sg5
L134992322L
sg6
Nsg23
S'lea'
p3982
sg25
S'0x80bd1c2L'
p3983
sg27
Nsba(ibclass
BInstr
p3984
(dp3985
g2
Nsg17
S'mov     [esp+4], edx    ; src'
p3986
sg19
S'89542404'
p3987
sg21
Vmov dword ptr [esp + 4], edx
p3988
sg5
L134992325L
sg6
Nsg23
S'mov'
p3989
sg25
S'0x80bd1c5L'
p3990
sg27
Nsba(ibclass
BInstr
p3991
(dp3992
g2
Nsg17
S'mov     [esp], eax      ; dest'
p3993
sg19
S'890424'
p3994
sg21
Vmov dword ptr [esp], eax
p3995
sg5
L134992329L
sg6
Nsg23
S'mov'
p3996
sg25
S'0x80bd1c9L'
p3997
sg27
Nsba(ibclass
BInstr
p3998
(dp3999
g2
Nsg17
S'call    _memcpy'
p4000
sg19
S'e8afc3f8ff'
p4001
sg21
Vcall 0xfff8c3b4
p4002
sg5
L134992332L
sg6
Nsg23
S'call'
p4003
sg25
S'0x80bd1ccL'
p4004
sg27
Nsba(ibclass
BInstr
p4005
(dp4006
g2
Nsg17
S'mov     eax, [ebp+s]'
p4007
sg19
S'8b45c4'
p4008
sg21
Vmov eax, dword ptr [ebp - 0x3c]
p4009
sg5
L134992337L
sg6
Nsg23
S'mov'
p4010
sg25
S'0x80bd1d1L'
p4011
sg27
Nsba(ibclass
BInstr
p4012
(dp4013
g2
Nsg17
S'mov     eax, [eax+58h]'
p4014
sg19
S'8b4058'
p4015
sg21
Vmov eax, dword ptr [eax + 0x58]
p4016
sg5
L134992340L
sg6
Nsg23
S'mov'
p4017
sg25
S'0x80bd1d4L'
p4018
sg27
Nsba(ibclass
BInstr
p4019
(dp4020
g2
Nsg17
S'mov     edx, [ebp+n]'
p4021
sg19
S'8b55dc'
p4022
sg21
Vmov edx, dword ptr [ebp - 0x24]
p4023
sg5
L134992343L
sg6
Nsg23
S'mov'
p4024
sg25
S'0x80bd1d7L'
p4025
sg27
Nsba(ibclass
BInstr
p4026
(dp4027
g2
Nsg17
S'mov     [eax+0F8h], edx'
p4028
sg19
S'8990f8000000'
p4029
sg21
Vmov dword ptr [eax + 0xf8], edx
p4030
sg5
L134992346L
sg6
Nsg23
S'mov'
p4031
sg25
S'0x80bd1daL'
p4032
sg27
Nsba(ibclass
BInstr
p4033
(dp4034
g2
Nsg17
S'mov     eax, [ebp+s]'
p4035
sg19
S'8b45c4'
p4036
sg21
Vmov eax, dword ptr [ebp - 0x3c]
p4037
sg5
L134992352L
sg6
Nsg23
S'mov'
p4038
sg25
S'0x80bd1e0L'
p4039
sg27
Nsba(ibclass
BInstr
p4040
(dp4041
g2
Nsg17
S'mov     eax, [eax+58h]'
p4042
sg19
S'8b4058'
p4043
sg21
Vmov eax, dword ptr [eax + 0x58]
p4044
sg5
L134992355L
sg6
Nsg23
S'mov'
p4045
sg25
S'0x80bd1e3L'
p4046
sg27
Nsba(ibclass
BInstr
p4047
(dp4048
g2
Nsg17
S'mov     dword ptr [eax+0F4h], 0'
p4049
sg19
S'c780f400000000000000'
p4050
sg21
Vmov dword ptr [eax + 0xf4], 0
p4051
sg5
L134992358L
sg6
Nsg23
S'mov'
p4052
sg25
S'0x80bd1e6L'
p4053
sg27
Nsba(ibclass
BInstr
p4054
(dp4055
g2
Nsg17
S'mov     eax, [ebp+s]'
p4056
sg19
S'8b45c4'
p4057
sg21
Vmov eax, dword ptr [ebp - 0x3c]
p4058
sg5
L134992368L
sg6
Nsg23
S'mov'
p4059
sg25
S'0x80bd1f0L'
p4060
sg27
Nsba(ibclass
BInstr
p4061
(dp4062
g2
Nsg17
S'mov     eax, [eax+8]'
p4063
sg19
S'8b4008'
p4064
sg21
Vmov eax, dword ptr [eax + 8]
p4065
sg5
L134992371L
sg6
Nsg23
S'mov'
p4066
sg25
S'0x80bd1f3L'
p4067
sg27
Nsba(ibclass
BInstr
p4068
(dp4069
g2
Nsg17
S'mov     edx, [eax+14h]'
p4070
sg19
S'8b5014'
p4071
sg21
Vmov edx, dword ptr [eax + 0x14]
p4072
sg5
L134992374L
sg6
Nsg23
S'mov'
p4073
sg25
S'0x80bd1f6L'
p4074
sg27
Nsba(ibclass
BInstr
p4075
(dp4076
g2
Nsg17
S'mov     eax, [ebp+s]'
p4077
sg19
S'8b45c4'
p4078
sg21
Vmov eax, dword ptr [ebp - 0x3c]
p4079
sg5
L134992377L
sg6
Nsg23
S'mov'
p4080
sg25
S'0x80bd1f9L'
p4081
sg27
Nsba(ibclass
BInstr
p4082
(dp4083
g2
Nsg17
S'mov     [eax+20h], edx'
p4084
sg19
S'895020'
p4085
sg21
Vmov dword ptr [eax + 0x20], edx
p4086
sg5
L134992380L
sg6
Nsg23
S'mov'
p4087
sg25
S'0x80bd1fcL'
p4088
sg27
Nsba(ibclass
BInstr
p4089
(dp4090
g2
Nsg17
S'jmp     short loc_80BD22F'
p4091
sg19
S'eb2e'
p4092
sg21
Vjmp 0x30
p4093
sg5
L134992383L
sg6
Nsg23
S'jmp'
p4094
sg25
S'0x80bd1ffL'
p4095
sg27
Nsbasg140
(lp4096
Vmov eax, mem
p4097
aVmov eax, mem
p4098
aVmov edx, mem
p4099
aVmov eax, mem
p4100
aVmov mem, edx
p4101
aVmov edx, mem
p4102
aVmov eax, mem
p4103
aVmov eax, mem
p4104
aVmov mem, edx
p4105
aVlea edx, mem
p4106
aVmov mem, edx
p4107
aVmov mem, eax
p4108
aVcall address
p4109
aVmov eax, mem
p4110
aVmov eax, mem
p4111
aVmov edx, mem
p4112
aVmov mem, edx
p4113
aVmov eax, mem
p4114
aVmov eax, mem
p4115
aVmov mem, 0
p4116
aVmov eax, mem
p4117
aVmov eax, mem
p4118
aVmov edx, mem
p4119
aVmov eax, mem
p4120
aVmov mem, edx
p4121
aVjmp address
p4122
asg154
Nsg5
S'0x80bd1a3L'
p4123
sg156
(lp4124
S'0x80bd162L'
p4125
aS'0x80bd18fL'
p4126
asg6
Nsg158
(lp4127
S'0x80bd22fL'
p4128
asg162
Nsg163
Nsg164
S'4eaad6852c903fd5d4a6ad0f51aa1550'
p4129
sg166
S'd7ff59751c6a7d325be641693eef0d0e'
p4130
sg168
(lp4131
g3919
ag3926
ag3933
ag3940
ag3947
ag3954
ag3961
ag3968
ag3975
ag3982
ag3989
ag3996
ag4003
ag4010
ag4017
ag4024
ag4031
ag4038
ag4045
ag4052
ag4059
ag4066
ag4073
ag4080
ag4087
ag4094
asg170
Nsba(ibclass
BBasicBlock
p4132
(dp4133
g12
Nsg13
(lp4134
(ibclass
BInstr
p4135
(dp4136
g2
Nsg17
S'mov     dword ptr [esp+10h], 30Eh; line'
p4137
sg19
S'c74424100e030000'
p4138
sg21
Vmov dword ptr [esp + 0x10], 0x30e
p4139
sg5
L134992385L
sg6
Nsg23
S'mov'
p4140
sg25
S'0x80bd201L'
p4141
sg27
Nsba(ibclass
BInstr
p4142
(dp4143
g2
Nsg17
S'mov     dword ptr [esp+0Ch], offset aS23_clnt_c; "s23_clnt.c"'
p4144
sg19
S'c744240c20822108'
p4145
sg21
Vmov dword ptr [esp + 0xc], 0x8218220
p4146
sg5
L134992393L
sg6
Nsg23
S'mov'
p4147
sg25
S'0x80bd209L'
p4148
sg27
Nsba(ibclass
BInstr
p4149
(dp4150
g2
Nsg17
S'mov     dword ptr [esp+8], 0FCh; reason'
p4151
sg19
S'c7442408fc000000'
p4152
sg21
Vmov dword ptr [esp + 8], 0xfc
p4153
sg5
L134992401L
sg6
Nsg23
S'mov'
p4154
sg25
S'0x80bd211L'
p4155
sg27
Nsba(ibclass
BInstr
p4156
(dp4157
g2
Nsg17
S'mov     dword ptr [esp+4], 77h; func'
p4158
sg19
S'c744240477000000'
p4159
sg21
Vmov dword ptr [esp + 4], 0x77
p4160
sg5
L134992409L
sg6
Nsg23
S'mov'
p4161
sg25
S'0x80bd219L'
p4162
sg27
Nsba(ibclass
BInstr
p4163
(dp4164
g2
Nsg17
S'mov     dword ptr [esp], 14h; lib'
p4165
sg19
S'c7042414000000'
p4166
sg21
Vmov dword ptr [esp], 0x14
p4167
sg5
L134992417L
sg6
Nsg23
S'mov'
p4168
sg25
S'0x80bd221L'
p4169
sg27
Nsba(ibclass
BInstr
p4170
(dp4171
g2
Nsg17
S'call    ERR_put_error'
p4172
sg19
S'e887220800'
p4173
sg21
Vcall 0x8228c
p4174
sg5
L134992424L
sg6
Nsg23
S'call'
p4175
sg25
S'0x80bd228L'
p4176
sg27
Nsba(ibclass
BInstr
p4177
(dp4178
g2
Nsg17
S'jmp     short err'
p4179
sg19
S'eb30'
p4180
sg21
Vjmp 0x32
p4181
sg5
L134992429L
sg6
Nsg23
S'jmp'
p4182
sg25
S'0x80bd22dL'
p4183
sg27
Nsbasg140
(lp4184
Vmov mem, address
p4185
aVmov mem, address
p4186
aVmov mem, address
p4187
aVmov mem, address
p4188
aVmov mem, address
p4189
aVcall address
p4190
aVjmp address
p4191
asg154
Nsg5
S'0x80bd201L'
p4192
sg156
(lp4193
S'0x80bce73L'
p4194
aS'0x80bce81L'
p4195
aS'0x80bcea6L'
p4196
aS'0x80bceb3L'
p4197
aS'0x80bcec3L'
p4198
asg6
Nsg158
(lp4199
S'0x80bd25fL'
p4200
asg162
Nsg163
Nsg164
S'a76a0a3b827ea6cd402bf72e182d1d25'
p4201
sg166
S'5c79c7459a4742ab4e6fe5fb7b7e4c8d'
p4202
sg168
(lp4203
g4140
ag4147
ag4154
ag4161
ag4168
ag4175
ag4182
asg170
Nsba(ibclass
BBasicBlock
p4204
(dp4205
g12
Nsg13
(lp4206
(ibclass
BInstr
p4207
(dp4208
g2
Nsg17
S'mov     eax, [ebp+s]'
p4209
sg19
S'8b45c4'
p4210
sg21
Vmov eax, dword ptr [ebp - 0x3c]
p4211
sg5
L134992431L
sg6
Nsg23
S'mov'
p4212
sg25
S'0x80bd22fL'
p4213
sg27
Nsba(ibclass
BInstr
p4214
(dp4215
g2
Nsg17
S'mov     dword ptr [eax+44h], 0'
p4216
sg19
S'c7404400000000'
p4217
sg21
Vmov dword ptr [eax + 0x44], 0
p4218
sg5
L134992434L
sg6
Nsg23
S'mov'
p4219
sg25
S'0x80bd232L'
p4220
sg27
Nsba(ibclass
BInstr
p4221
(dp4222
g2
Nsg17
S'mov     dword ptr [esp+4], 0; session'
p4223
sg19
S'c744240400000000'
p4224
sg21
Vmov dword ptr [esp + 4], 0
p4225
sg5
L134992441L
sg6
Nsg23
S'mov'
p4226
sg25
S'0x80bd239L'
p4227
sg27
Nsba(ibclass
BInstr
p4228
(dp4229
g2
Nsg17
S'mov     eax, [ebp+s]'
p4230
sg19
S'8b45c4'
p4231
sg21
Vmov eax, dword ptr [ebp - 0x3c]
p4232
sg5
L134992449L
sg6
Nsg23
S'mov'
p4233
sg25
S'0x80bd241L'
p4234
sg27
Nsba(ibclass
BInstr
p4235
(dp4236
g2
Nsg17
S'mov     [esp], eax      ; s'
p4237
sg19
S'890424'
p4238
sg21
Vmov dword ptr [esp], eax
p4239
sg5
L134992452L
sg6
Nsg23
S'mov'
p4240
sg25
S'0x80bd244L'
p4241
sg27
Nsba(ibclass
BInstr
p4242
(dp4243
g2
Nsg17
S'call    ssl_get_new_session'
p4244
sg19
S'e80bc40100'
p4245
sg21
Vcall 0x1c410
p4246
sg5
L134992455L
sg6
Nsg23
S'call'
p4247
sg25
S'0x80bd247L'
p4248
sg27
Nsba(ibclass
BInstr
p4249
(dp4250
g2
Nsg17
S'test    eax, eax'
p4251
sg19
S'85c0'
p4252
sg21
Vtest eax, eax
p4253
sg5
L134992460L
sg6
Nsg23
S'test'
p4254
sg25
S'0x80bd24cL'
p4255
sg27
Nsba(ibclass
BInstr
p4256
(dp4257
g2
Nsg17
S'jnz     short loc_80BD252'
p4258
sg19
S'7502'
p4259
sg21
Vjne 4
p4260
sg5
L134992462L
sg6
Nsg23
S'jnz'
p4261
sg25
S'0x80bd24eL'
p4262
sg27
Nsbasg140
(lp4263
Vmov eax, mem
p4264
aVmov mem, 0
p4265
aVmov mem, 0
p4266
aVmov eax, mem
p4267
aVmov mem, eax
p4268
aVcall address
p4269
ag4253
ag4260
asg154
Nsg5
S'0x80bd22fL'
p4270
sg156
(lp4271
S'0x80bcdedL'
p4272
aS'0x80bd1a3L'
p4273
asg6
Nsg158
(lp4274
S'0x80bd250L'
p4275
aS'0x80bd252L'
p4276
asg162
Nsg163
Nsg164
S'17d7a059f06fc5adc6283788185c0e03'
p4277
sg166
S'1f95dfd1b1f14731f9755db52d1c51ad'
p4278
sg168
(lp4279
g4212
ag4219
ag4226
ag4233
ag4240
ag4247
ag4254
ag4261
asg170
Nsba(ibclass
BBasicBlock
p4280
(dp4281
g12
Nsg13
(lp4282
(ibclass
BInstr
p4283
(dp4284
g2
Nsg17
S'jmp     short err'
p4285
sg19
S'eb0d'
p4286
sg21
Vjmp 0xf
p4287
sg5
L134992464L
sg6
Nsg23
S'jmp'
p4288
sg25
S'0x80bd250L'
p4289
sg27
Nsbasg140
(lp4290
Vjmp address
p4291
asg154
Nsg5
S'0x80bd250L'
p4292
sg156
(lp4293
S'0x80bd22fL'
p4294
asg6
Nsg158
(lp4295
S'0x80bd25fL'
p4296
asg162
Nsg163
Nsg164
S'0ef6cf926f2f394b0cc8e11be8022625'
p4297
sg166
S'd4372e4caa7348928655251605aa7329'
p4298
sg168
(lp4299
g4288
asg170
Nsba(ibclass
BBasicBlock
p4300
(dp4301
g12
Nsg13
(lp4302
(ibclass
BInstr
p4303
(dp4304
g2
Nsg17
S'mov     eax, [ebp+s]'
p4305
sg19
S'8b45c4'
p4306
sg21
Vmov eax, dword ptr [ebp - 0x3c]
p4307
sg5
L134992466L
sg6
Nsg23
S'mov'
p4308
sg25
S'0x80bd252L'
p4309
sg27
Nsba(ibclass
BInstr
p4310
(dp4311
g2
Nsg17
S'mov     [esp], eax      ; s'
p4312
sg19
S'890424'
p4313
sg21
Vmov dword ptr [esp], eax
p4314
sg5
L134992469L
sg6
Nsg23
S'mov'
p4315
sg25
S'0x80bd255L'
p4316
sg27
Nsba(ibclass
BInstr
p4317
(dp4318
g2
Nsg17
S'call    SSL_connect'
p4319
sg19
S'e8016a0100'
p4320
sg21
Vcall 0x16a06
p4321
sg5
L134992472L
sg6
Nsg23
S'call'
p4322
sg25
S'0x80bd258L'
p4323
sg27
Nsba(ibclass
BInstr
p4324
(dp4325
g2
Nsg17
S'jmp     short loc_80BD264'
p4326
sg19
S'eb05'
p4327
sg21
Vjmp 7
p4328
sg5
L134992477L
sg6
Nsg23
S'jmp'
p4329
sg25
S'0x80bd25dL'
p4330
sg27
Nsbasg140
(lp4331
Vmov eax, mem
p4332
aVmov mem, eax
p4333
aVcall address
p4334
ag4328
asg154
Nsg5
S'0x80bd252L'
p4335
sg156
(lp4336
S'0x80bd22fL'
p4337
asg6
Nsg158
(lp4338
S'0x80bd264L'
p4339
asg162
Nsg163
Nsg164
S'21359965f3b3ac9d057fd4a2b03f927b'
p4340
sg166
S'72af44e90e4b7a56739745b2d5ce49d9'
p4341
sg168
(lp4342
g4308
ag4315
ag4322
ag4329
asg170
Nsba(ibclass
BBasicBlock
p4343
(dp4344
g12
Nsg13
(lp4345
(ibclass
BInstr
p4346
(dp4347
g2
Nsg17
S'mov     eax, 0FFFFFFFFh'
p4348
sg19
S'b8ffffffff'
p4349
sg21
Vmov eax, 0xffffffff
p4350
sg5
L134992479L
sg6
Nsg23
S'mov'
p4351
sg25
S'0x80bd25fL'
p4352
sg27
Nsbasg140
(lp4353
Vmov eax, address
p4354
asg154
Nsg5
S'0x80bd25fL'
p4355
sg156
(lp4356
S'0x80bcca0L'
p4357
aS'0x80bcceaL'
p4358
aS'0x80bcd97L'
p4359
aS'0x80bcfa9L'
p4360
aS'0x80bd0fdL'
p4361
aS'0x80bd15dL'
p4362
aS'0x80bd19eL'
p4363
aS'0x80bd201L'
p4364
aS'0x80bd250L'
p4365
asg6
Nsg158
(lp4366
S'0x80bd264L'
p4367
asg162
Nsg163
Nsg164
S'96a4a0e6e9ac88756a0fcba989d0a844'
p4368
sg166
S'9f50df646683897e817abb208201b969'
p4369
sg168
(lp4370
g4351
asg170
Nsba(ibclass
BBasicBlock
p4371
(dp4372
g12
Nsg13
(lp4373
(ibclass
BInstr
p4374
(dp4375
g2
Nsg17
S'mov     esi, [ebp+var_C]'
p4376
sg19
S'8b75f4'
p4377
sg21
Vmov esi, dword ptr [ebp - 0xc]
p4378
sg5
L134992484L
sg6
Nsg23
S'mov'
p4379
sg25
S'0x80bd264L'
p4380
sg27
Nsba(ibclass
BInstr
p4381
(dp4382
g2
Nsg17
S'xor     esi, large gs:14h'
p4383
sg19
S'65333514000000'
p4384
sg21
Vxor esi, dword ptr gs:[0x14]
p4385
sg5
L134992487L
sg6
Nsg23
S'xor'
p4386
sg25
S'0x80bd267L'
p4387
sg27
Nsba(ibclass
BInstr
p4388
(dp4389
g2
Nsg17
S'jz      short loc_80BD275'
p4390
sg19
S'7405'
p4391
sg21
Vje 7
p4392
sg5
L134992494L
sg6
Nsg23
S'jz'
p4393
sg25
S'0x80bd26eL'
p4394
sg27
Nsbasg140
(lp4395
Vmov esi, mem
p4396
aVxor esi, gs:mem
p4397
ag4392
asg154
Nsg5
S'0x80bd264L'
p4398
sg156
(lp4399
S'0x80bcc27L'
p4400
aS'0x80bd252L'
p4401
aS'0x80bd25fL'
p4402
asg6
Nsg158
(lp4403
S'0x80bd270L'
p4404
aS'0x80bd275L'
p4405
asg162
Nsg163
Nsg164
S'81354ac238b6424b069ead35b2072afc'
p4406
sg166
S'493862a46375653fd2018897b4637717'
p4407
sg168
(lp4408
g4379
ag4386
ag4393
asg170
Nsba(ibclass
BBasicBlock
p4409
(dp4410
g12
Nsg13
(lp4411
(ibclass
BInstr
p4412
(dp4413
g2
Nsg17
S'call    ___stack_chk_fail'
p4414
sg19
S'e80bc4f8ff'
p4415
sg21
Vcall 0xfff8c410
p4416
sg5
L134992496L
sg6
Nsg23
S'call'
p4417
sg25
S'0x80bd270L'
p4418
sg27
Nsbasg140
(lp4419
Vcall address
p4420
asg154
Nsg5
S'0x80bd270L'
p4421
sg156
(lp4422
S'0x80bd264L'
p4423
asg6
Nsg158
(lp4424
sg162
Nsg163
Nsg164
S'53b9e9679a8ea25880376080b76f98ad'
p4425
sg166
S'5c3539e46d089242d4a47b64016c87be'
p4426
sg168
(lp4427
g4417
asg170
Nsba(ibclass
BBasicBlock
p4428
(dp4429
g12
Nsg13
(lp4430
(ibclass
BInstr
p4431
(dp4432
g2
Nsg17
S'add     esp, 50h'
p4433
sg19
S'83c450'
p4434
sg21
Vadd esp, 0x50
p4435
sg5
L134992501L
sg6
Nsg23
S'add'
p4436
sg25
S'0x80bd275L'
p4437
sg27
Nsba(ibclass
BInstr
p4438
(dp4439
g2
Nsg17
S'pop     ebx'
p4440
sg19
S'5b'
p4441
sg21
Vpop ebx
p4442
sg5
L134992504L
sg6
Nsg23
S'pop'
p4443
sg25
S'0x80bd278L'
p4444
sg27
Nsba(ibclass
BInstr
p4445
(dp4446
g2
Nsg17
S'pop     esi'
p4447
sg19
S'5e'
p4448
sg21
Vpop esi
p4449
sg5
L134992505L
sg6
Nsg23
S'pop'
p4450
sg25
S'0x80bd279L'
p4451
sg27
Nsba(ibclass
BInstr
p4452
(dp4453
g2
Nsg17
S'pop     ebp'
p4454
sg19
S'5d'
p4455
sg21
Vpop ebp
p4456
sg5
L134992506L
sg6
Nsg23
S'pop'
p4457
sg25
S'0x80bd27aL'
p4458
sg27
Nsba(ibclass
BInstr
p4459
(dp4460
g2
Nsg17
S'retn'
p4461
sg19
S'c3'
p4462
sg21
Vret 
p4463
sg5
L134992507L
sg6
Nsg23
S'retn'
p4464
sg25
S'0x80bd27bL'
p4465
sg27
Nsbasg140
(lp4466
Vadd esp, address
p4467
ag4442
ag4449
ag4456
aVret
p4468
asg154
Nsg5
S'0x80bd275L'
p4469
sg156
(lp4470
S'0x80bd264L'
p4471
asg6
Nsg158
(lp4472
sg162
Nsg163
Nsg164
S'a3cac886029af1831737c083e97867e2'
p4473
sg166
S'f8491214a41ae2d406c7cfafd8bb8138'
p4474
sg168
(lp4475
g4436
ag4443
ag4450
ag4457
ag4464
asg170
Nsbasb.