(ibclass
BFunc
p0
(dp1
S'hash'
p2
NsS'name'
p3
S'ASN1_TYPE_cmp'
p4
sS'start_address'
p5
L135608551L
sS'flag'
p6
NsS'program'
p7
NsS'bbs'
p8
(lp9
(ibclass
BBasicBlock
p10
(dp11
S'function'
p12
NsS'binstrs'
p13
(lp14
(ibclass
BInstr
p15
(dp16
g2
NsS'disasm'
p17
S'push    ebp'
p18
sS'bytes'
p19
S'55'
p20
sS'disasm_striped'
p21
Vpush ebp
p22
sg5
L135608551L
sg6
NsS'mnem'
p23
S'push'
p24
sS'address'
p25
S'0x81538e7L'
p26
sS'basicblock'
p27
Nsba(ibclass
BInstr
p28
(dp29
g2
Nsg17
S'mov     ebp, esp'
p30
sg19
S'89e5'
p31
sg21
Vmov ebp, esp
p32
sg5
L135608552L
sg6
Nsg23
S'mov'
p33
sg25
S'0x81538e8L'
p34
sg27
Nsba(ibclass
BInstr
p35
(dp36
g2
Nsg17
S'sub     esp, 28h'
p37
sg19
S'83ec28'
p38
sg21
Vsub esp, 0x28
p39
sg5
L135608554L
sg6
Nsg23
S'sub'
p40
sg25
S'0x81538eaL'
p41
sg27
Nsba(ibclass
BInstr
p42
(dp43
g2
Nsg17
S'mov     [ebp+result], 0FFFFFFFFh'
p44
sg19
S'c745f4ffffffff'
p45
sg21
Vmov dword ptr [ebp - 0xc], 0xffffffff
p46
sg5
L135608557L
sg6
Nsg23
S'mov'
p47
sg25
S'0x81538edL'
p48
sg27
Nsba(ibclass
BInstr
p49
(dp50
g2
Nsg17
S'cmp     [ebp+a], 0'
p51
sg19
S'837d0800'
p52
sg21
Vcmp dword ptr [ebp + 8], 0
p53
sg5
L135608564L
sg6
Nsg23
S'cmp'
p54
sg25
S'0x81538f4L'
p55
sg27
Nsba(ibclass
BInstr
p56
(dp57
g2
Nsg17
S'jz      short loc_815390E'
p58
sg19
S'7414'
p59
sg21
Vje 0x16
p60
sg5
L135608568L
sg6
Nsg23
S'jz'
p61
sg25
S'0x81538f8L'
p62
sg27
NsbasS'disasm_list'
p63
(lp64
g22
ag32
aVsub esp, address
p65
aVmov mem, address
p66
aVcmp mem, 0
p67
aVje address
p68
asS'end_address'
p69
Nsg5
S'0x81538e7L'
p70
sS'preds'
p71
(lp72
sg6
NsS'succs'
p73
(lp74
S'0x81538faL'
p75
aS'0x815390eL'
p76
asS'hash_v3'
p77
NsS'flag_v2'
p78
NsS'hash_v1'
p79
S'18ba0d7a59287f8ea0a8f0f3de6ed894'
p80
sS'hash_v2'
p81
S'05614b9c9255bff0bc450ae40d3385f4'
p82
sS'mnen_list'
p83
(lp84
g24
ag33
ag40
ag47
ag54
ag61
asS'neighbour_disasm_list'
p85
Nsba(ibclass
BBasicBlock
p86
(dp87
g12
Nsg13
(lp88
(ibclass
BInstr
p89
(dp90
g2
Nsg17
S'cmp     [ebp+b], 0'
p91
sg19
S'837d0c00'
p92
sg21
Vcmp dword ptr [ebp + 0xc], 0
p93
sg5
L135608570L
sg6
Nsg23
S'cmp'
p94
sg25
S'0x81538faL'
p95
sg27
Nsba(ibclass
BInstr
p96
(dp97
g2
Nsg17
S'jz      short loc_815390E'
p98
sg19
S'740e'
p99
sg21
Vje 0x10
p100
sg5
L135608574L
sg6
Nsg23
S'jz'
p101
sg25
S'0x81538feL'
p102
sg27
Nsbasg63
(lp103
Vcmp mem, 0
p104
aVje address
p105
asg69
Nsg5
S'0x81538faL'
p106
sg71
(lp107
S'0x81538e7L'
p108
asg6
Nsg73
(lp109
S'0x8153900L'
p110
aS'0x815390eL'
p111
asg77
Nsg78
Nsg79
S'613dbc2b0cb9d6264d802b24d709daea'
p112
sg81
S'bdc7ec577d63971d81398660f533a2e0'
p113
sg83
(lp114
g94
ag101
asg85
Nsba(ibclass
BBasicBlock
p115
(dp116
g12
Nsg13
(lp117
(ibclass
BInstr
p118
(dp119
g2
Nsg17
S'mov     eax, [ebp+a]'
p120
sg19
S'8b4508'
p121
sg21
Vmov eax, dword ptr [ebp + 8]
p122
sg5
L135608576L
sg6
Nsg23
S'mov'
p123
sg25
S'0x8153900L'
p124
sg27
Nsba(ibclass
BInstr
p125
(dp126
g2
Nsg17
S'mov     edx, [eax]'
p127
sg19
S'8b10'
p128
sg21
Vmov edx, dword ptr [eax]
p129
sg5
L135608579L
sg6
Nsg23
S'mov'
p130
sg25
S'0x8153903L'
p131
sg27
Nsba(ibclass
BInstr
p132
(dp133
g2
Nsg17
S'mov     eax, [ebp+b]'
p134
sg19
S'8b450c'
p135
sg21
Vmov eax, dword ptr [ebp + 0xc]
p136
sg5
L135608581L
sg6
Nsg23
S'mov'
p137
sg25
S'0x8153905L'
p138
sg27
Nsba(ibclass
BInstr
p139
(dp140
g2
Nsg17
S'mov     eax, [eax]'
p141
sg19
S'8b00'
p142
sg21
Vmov eax, dword ptr [eax]
p143
sg5
L135608584L
sg6
Nsg23
S'mov'
p144
sg25
S'0x8153908L'
p145
sg27
Nsba(ibclass
BInstr
p146
(dp147
g2
Nsg17
S'cmp     edx, eax'
p148
sg19
S'39c2'
p149
sg21
Vcmp edx, eax
p150
sg5
L135608586L
sg6
Nsg23
S'cmp'
p151
sg25
S'0x815390aL'
p152
sg27
Nsba(ibclass
BInstr
p153
(dp154
g2
Nsg17
S'jz      short loc_8153915'
p155
sg19
S'7407'
p156
sg21
Vje 9
p157
sg5
L135608588L
sg6
Nsg23
S'jz'
p158
sg25
S'0x815390cL'
p159
sg27
Nsbasg63
(lp160
Vmov eax, mem
p161
aVmov edx, mem
p162
aVmov eax, mem
p163
aVmov eax, mem
p164
ag150
ag157
asg69
Nsg5
S'0x8153900L'
p165
sg71
(lp166
S'0x81538faL'
p167
asg6
Nsg73
(lp168
S'0x815390eL'
p169
aS'0x8153915L'
p170
asg77
Nsg78
Nsg79
S'dce3f9856ba3a5e0148d88810ed6ccab'
p171
sg81
S'dab23c1ede5beab2f7d030437fa79887'
p172
sg83
(lp173
g123
ag130
ag137
ag144
ag151
ag158
asg85
Nsba(ibclass
BBasicBlock
p174
(dp175
g12
Nsg13
(lp176
(ibclass
BInstr
p177
(dp178
g2
Nsg17
S'mov     eax, 0FFFFFFFFh'
p179
sg19
S'b8ffffffff'
p180
sg21
Vmov eax, 0xffffffff
p181
sg5
L135608590L
sg6
Nsg23
S'mov'
p182
sg25
S'0x815390eL'
p183
sg27
Nsba(ibclass
BInstr
p184
(dp185
g2
Nsg17
S'jmp     short locret_8153985'
p186
sg19
S'eb70'
p187
sg21
Vjmp 0x72
p188
sg5
L135608595L
sg6
Nsg23
S'jmp'
p189
sg25
S'0x8153913L'
p190
sg27
Nsbasg63
(lp191
Vmov eax, address
p192
aVjmp address
p193
asg69
Nsg5
S'0x815390eL'
p194
sg71
(lp195
S'0x81538e7L'
p196
aS'0x81538faL'
p197
aS'0x8153900L'
p198
asg6
Nsg73
(lp199
S'0x8153985L'
p200
asg77
Nsg78
Nsg79
S'8b9a0d40e062be2b9b2d9885108fb196'
p201
sg81
S'926f437691f480d6543b7a7101724292'
p202
sg83
(lp203
g182
ag189
asg85
Nsba(ibclass
BBasicBlock
p204
(dp205
g12
Nsg13
(lp206
(ibclass
BInstr
p207
(dp208
g2
Nsg17
S'mov     eax, [ebp+a]'
p209
sg19
S'8b4508'
p210
sg21
Vmov eax, dword ptr [ebp + 8]
p211
sg5
L135608597L
sg6
Nsg23
S'mov'
p212
sg25
S'0x8153915L'
p213
sg27
Nsba(ibclass
BInstr
p214
(dp215
g2
Nsg17
S'mov     eax, [eax]'
p216
sg19
S'8b00'
p217
sg21
Vmov eax, dword ptr [eax]
p218
sg5
L135608600L
sg6
Nsg23
S'mov'
p219
sg25
S'0x8153918L'
p220
sg27
Nsba(ibclass
BInstr
p221
(dp222
g2
Nsg17
S'cmp     eax, 5'
p223
sg19
S'83f805'
p224
sg21
Vcmp eax, 5
p225
sg5
L135608602L
sg6
Nsg23
S'cmp'
p226
sg25
S'0x815391aL'
p227
sg27
Nsba(ibclass
BInstr
p228
(dp229
g2
Nsg17
S'jz      short loc_815395D'
p230
sg19
S'743e'
p231
sg21
Vje 0x40
p232
sg5
L135608605L
sg6
Nsg23
S'jz'
p233
sg25
S'0x815391dL'
p234
sg27
Nsbasg63
(lp235
Vmov eax, mem
p236
aVmov eax, mem
p237
ag225
aVje address
p238
asg69
Nsg5
S'0x8153915L'
p239
sg71
(lp240
S'0x8153900L'
p241
asg6
Nsg73
(lp242
S'0x815391fL'
p243
aS'0x815395dL'
p244
asg77
Nsg78
Nsg79
S'db7f0dec7b6480d765a2fb1483cb9e16'
p245
sg81
S'21cf786f507f247fc841f0762fa4a5b9'
p246
sg83
(lp247
g212
ag219
ag226
ag233
asg85
Nsba(ibclass
BBasicBlock
p248
(dp249
g12
Nsg13
(lp250
(ibclass
BInstr
p251
(dp252
g2
Nsg17
S'cmp     eax, 6'
p253
sg19
S'83f806'
p254
sg21
Vcmp eax, 6
p255
sg5
L135608607L
sg6
Nsg23
S'cmp'
p256
sg25
S'0x815391fL'
p257
sg27
Nsba(ibclass
BInstr
p258
(dp259
g2
Nsg17
S'jz      short loc_815392B'
p260
sg19
S'7407'
p261
sg21
Vje 9
p262
sg5
L135608610L
sg6
Nsg23
S'jz'
p263
sg25
S'0x8153922L'
p264
sg27
Nsbasg63
(lp265
g255
ag262
asg69
Nsg5
S'0x815391fL'
p266
sg71
(lp267
S'0x8153915L'
p268
asg6
Nsg73
(lp269
S'0x8153924L'
p270
aS'0x815392bL'
p271
asg77
Nsg78
Nsg79
S'613dbc2b0cb9d6264d802b24d709daea'
p272
sg81
S'099f0a4d8a174975c7f907d6b15a81a3'
p273
sg83
(lp274
g256
ag263
asg85
Nsba(ibclass
BBasicBlock
p275
(dp276
g12
Nsg13
(lp277
(ibclass
BInstr
p278
(dp279
g2
Nsg17
S'cmp     eax, 1'
p280
sg19
S'83f801'
p281
sg21
Vcmp eax, 1
p282
sg5
L135608612L
sg6
Nsg23
S'cmp'
p283
sg25
S'0x8153924L'
p284
sg27
Nsba(ibclass
BInstr
p285
(dp286
g2
Nsg17
S'jz      short loc_8153948'
p287
sg19
S'741f'
p288
sg21
Vje 0x21
p289
sg5
L135608615L
sg6
Nsg23
S'jz'
p290
sg25
S'0x8153927L'
p291
sg27
Nsbasg63
(lp292
g282
aVje address
p293
asg69
Nsg5
S'0x8153924L'
p294
sg71
(lp295
S'0x815391fL'
p296
asg6
Nsg73
(lp297
S'0x8153929L'
p298
aS'0x8153948L'
p299
asg77
Nsg78
Nsg79
S'613dbc2b0cb9d6264d802b24d709daea'
p300
sg81
S'036bc709c037c7f41fbe5d4dccff277d'
p301
sg83
(lp302
g283
ag290
asg85
Nsba(ibclass
BBasicBlock
p303
(dp304
g12
Nsg13
(lp305
(ibclass
BInstr
p306
(dp307
g2
Nsg17
S'jmp     short loc_8153966'
p308
sg19
S'eb3b'
p309
sg21
Vjmp 0x3d
p310
sg5
L135608617L
sg6
Nsg23
S'jmp'
p311
sg25
S'0x8153929L'
p312
sg27
Nsbasg63
(lp313
Vjmp address
p314
asg69
Nsg5
S'0x8153929L'
p315
sg71
(lp316
S'0x8153924L'
p317
asg6
Nsg73
(lp318
S'0x8153966L'
p319
asg77
Nsg78
Nsg79
S'0ef6cf926f2f394b0cc8e11be8022625'
p320
sg81
S'd4372e4caa7348928655251605aa7329'
p321
sg83
(lp322
g311
asg85
Nsba(ibclass
BBasicBlock
p323
(dp324
g12
Nsg13
(lp325
(ibclass
BInstr
p326
(dp327
g2
Nsg17
S'mov     eax, [ebp+b]'
p328
sg19
S'8b450c'
p329
sg21
Vmov eax, dword ptr [ebp + 0xc]
p330
sg5
L135608619L
sg6
Nsg23
S'mov'
p331
sg25
S'0x815392bL'
p332
sg27
Nsba(ibclass
BInstr
p333
(dp334
g2
Nsg17
S'mov     edx, [eax+4]'
p335
sg19
S'8b5004'
p336
sg21
Vmov edx, dword ptr [eax + 4]
p337
sg5
L135608622L
sg6
Nsg23
S'mov'
p338
sg25
S'0x815392eL'
p339
sg27
Nsba(ibclass
BInstr
p340
(dp341
g2
Nsg17
S'mov     eax, [ebp+a]'
p342
sg19
S'8b4508'
p343
sg21
Vmov eax, dword ptr [ebp + 8]
p344
sg5
L135608625L
sg6
Nsg23
S'mov'
p345
sg25
S'0x8153931L'
p346
sg27
Nsba(ibclass
BInstr
p347
(dp348
g2
Nsg17
S'mov     eax, [eax+4]'
p349
sg19
S'8b4004'
p350
sg21
Vmov eax, dword ptr [eax + 4]
p351
sg5
L135608628L
sg6
Nsg23
S'mov'
p352
sg25
S'0x8153934L'
p353
sg27
Nsba(ibclass
BInstr
p354
(dp355
g2
Nsg17
S'mov     [esp+4], edx    ; b'
p356
sg19
S'89542404'
p357
sg21
Vmov dword ptr [esp + 4], edx
p358
sg5
L135608631L
sg6
Nsg23
S'mov'
p359
sg25
S'0x8153937L'
p360
sg27
Nsba(ibclass
BInstr
p361
(dp362
g2
Nsg17
S'mov     [esp], eax      ; a'
p363
sg19
S'890424'
p364
sg21
Vmov dword ptr [esp], eax
p365
sg5
L135608635L
sg6
Nsg23
S'mov'
p366
sg25
S'0x815393bL'
p367
sg27
Nsba(ibclass
BInstr
p368
(dp369
g2
Nsg17
S'call    OBJ_cmp'
p370
sg19
S'e82b97f9ff'
p371
sg21
Vcall 0xfff99730
p372
sg5
L135608638L
sg6
Nsg23
S'call'
p373
sg25
S'0x815393eL'
p374
sg27
Nsba(ibclass
BInstr
p375
(dp376
g2
Nsg17
S'mov     [ebp+result], eax'
p377
sg19
S'8945f4'
p378
sg21
Vmov dword ptr [ebp - 0xc], eax
p379
sg5
L135608643L
sg6
Nsg23
S'mov'
p380
sg25
S'0x8153943L'
p381
sg27
Nsba(ibclass
BInstr
p382
(dp383
g2
Nsg17
S'jmp     short loc_8153982'
p384
sg19
S'eb3a'
p385
sg21
Vjmp 0x3c
p386
sg5
L135608646L
sg6
Nsg23
S'jmp'
p387
sg25
S'0x8153946L'
p388
sg27
Nsbasg63
(lp389
Vmov eax, mem
p390
aVmov edx, mem
p391
aVmov eax, mem
p392
aVmov eax, mem
p393
aVmov mem, edx
p394
aVmov mem, eax
p395
aVcall address
p396
aVmov mem, eax
p397
aVjmp address
p398
asg69
Nsg5
S'0x815392bL'
p399
sg71
(lp400
S'0x815391fL'
p401
asg6
Nsg73
(lp402
S'0x8153982L'
p403
asg77
Nsg78
Nsg79
S'318f0461221986797c925397b77eb287'
p404
sg81
S'1a786e48f55dbc6f5b801815a13b8762'
p405
sg83
(lp406
g331
ag338
ag345
ag352
ag359
ag366
ag373
ag380
ag387
asg85
Nsba(ibclass
BBasicBlock
p407
(dp408
g12
Nsg13
(lp409
(ibclass
BInstr
p410
(dp411
g2
Nsg17
S'mov     eax, [ebp+a]'
p412
sg19
S'8b4508'
p413
sg21
Vmov eax, dword ptr [ebp + 8]
p414
sg5
L135608648L
sg6
Nsg23
S'mov'
p415
sg25
S'0x8153948L'
p416
sg27
Nsba(ibclass
BInstr
p417
(dp418
g2
Nsg17
S'mov     edx, [eax+4]'
p419
sg19
S'8b5004'
p420
sg21
Vmov edx, dword ptr [eax + 4]
p421
sg5
L135608651L
sg6
Nsg23
S'mov'
p422
sg25
S'0x815394bL'
p423
sg27
Nsba(ibclass
BInstr
p424
(dp425
g2
Nsg17
S'mov     eax, [ebp+b]'
p426
sg19
S'8b450c'
p427
sg21
Vmov eax, dword ptr [ebp + 0xc]
p428
sg5
L135608654L
sg6
Nsg23
S'mov'
p429
sg25
S'0x815394eL'
p430
sg27
Nsba(ibclass
BInstr
p431
(dp432
g2
Nsg17
S'mov     eax, [eax+4]'
p433
sg19
S'8b4004'
p434
sg21
Vmov eax, dword ptr [eax + 4]
p435
sg5
L135608657L
sg6
Nsg23
S'mov'
p436
sg25
S'0x8153951L'
p437
sg27
Nsba(ibclass
BInstr
p438
(dp439
g2
Nsg17
S'sub     edx, eax'
p440
sg19
S'29c2'
p441
sg21
Vsub edx, eax
p442
sg5
L135608660L
sg6
Nsg23
S'sub'
p443
sg25
S'0x8153954L'
p444
sg27
Nsba(ibclass
BInstr
p445
(dp446
g2
Nsg17
S'mov     eax, edx'
p447
sg19
S'89d0'
p448
sg21
Vmov eax, edx
p449
sg5
L135608662L
sg6
Nsg23
S'mov'
p450
sg25
S'0x8153956L'
p451
sg27
Nsba(ibclass
BInstr
p452
(dp453
g2
Nsg17
S'mov     [ebp+result], eax'
p454
sg19
S'8945f4'
p455
sg21
Vmov dword ptr [ebp - 0xc], eax
p456
sg5
L135608664L
sg6
Nsg23
S'mov'
p457
sg25
S'0x8153958L'
p458
sg27
Nsba(ibclass
BInstr
p459
(dp460
g2
Nsg17
S'jmp     short loc_8153982'
p461
sg19
S'eb25'
p462
sg21
Vjmp 0x27
p463
sg5
L135608667L
sg6
Nsg23
S'jmp'
p464
sg25
S'0x815395bL'
p465
sg27
Nsbasg63
(lp466
Vmov eax, mem
p467
aVmov edx, mem
p468
aVmov eax, mem
p469
aVmov eax, mem
p470
ag442
ag449
aVmov mem, eax
p471
aVjmp address
p472
asg69
Nsg5
S'0x8153948L'
p473
sg71
(lp474
S'0x8153924L'
p475
asg6
Nsg73
(lp476
S'0x8153982L'
p477
asg77
Nsg78
Nsg79
S'09aafc7b37c34eafbb4de8b577880e1a'
p478
sg81
S'0d8d8ea26d169f6547607769215fe7cc'
p479
sg83
(lp480
g415
ag422
ag429
ag436
ag443
ag450
ag457
ag464
asg85
Nsba(ibclass
BBasicBlock
p481
(dp482
g12
Nsg13
(lp483
(ibclass
BInstr
p484
(dp485
g2
Nsg17
S'mov     [ebp+result], 0'
p486
sg19
S'c745f400000000'
p487
sg21
Vmov dword ptr [ebp - 0xc], 0
p488
sg5
L135608669L
sg6
Nsg23
S'mov'
p489
sg25
S'0x815395dL'
p490
sg27
Nsba(ibclass
BInstr
p491
(dp492
g2
Nsg17
S'jmp     short loc_8153982'
p493
sg19
S'eb1c'
p494
sg21
Vjmp 0x1e
p495
sg5
L135608676L
sg6
Nsg23
S'jmp'
p496
sg25
S'0x8153964L'
p497
sg27
Nsbasg63
(lp498
Vmov mem, 0
p499
aVjmp address
p500
asg69
Nsg5
S'0x815395dL'
p501
sg71
(lp502
S'0x8153915L'
p503
asg6
Nsg73
(lp504
S'0x8153982L'
p505
asg77
Nsg78
Nsg79
S'8b9a0d40e062be2b9b2d9885108fb196'
p506
sg81
S'f299da28b698e6b26e771c23d7997a23'
p507
sg83
(lp508
g489
ag496
asg85
Nsba(ibclass
BBasicBlock
p509
(dp510
g12
Nsg13
(lp511
(ibclass
BInstr
p512
(dp513
g2
Nsg17
S'mov     eax, [ebp+b]'
p514
sg19
S'8b450c'
p515
sg21
Vmov eax, dword ptr [ebp + 0xc]
p516
sg5
L135608678L
sg6
Nsg23
S'mov'
p517
sg25
S'0x8153966L'
p518
sg27
Nsba(ibclass
BInstr
p519
(dp520
g2
Nsg17
S'mov     edx, [eax+4]'
p521
sg19
S'8b5004'
p522
sg21
Vmov edx, dword ptr [eax + 4]
p523
sg5
L135608681L
sg6
Nsg23
S'mov'
p524
sg25
S'0x8153969L'
p525
sg27
Nsba(ibclass
BInstr
p526
(dp527
g2
Nsg17
S'mov     eax, [ebp+a]'
p528
sg19
S'8b4508'
p529
sg21
Vmov eax, dword ptr [ebp + 8]
p530
sg5
L135608684L
sg6
Nsg23
S'mov'
p531
sg25
S'0x815396cL'
p532
sg27
Nsba(ibclass
BInstr
p533
(dp534
g2
Nsg17
S'mov     eax, [eax+4]'
p535
sg19
S'8b4004'
p536
sg21
Vmov eax, dword ptr [eax + 4]
p537
sg5
L135608687L
sg6
Nsg23
S'mov'
p538
sg25
S'0x815396fL'
p539
sg27
Nsba(ibclass
BInstr
p540
(dp541
g2
Nsg17
S'mov     [esp+4], edx    ; b'
p542
sg19
S'89542404'
p543
sg21
Vmov dword ptr [esp + 4], edx
p544
sg5
L135608690L
sg6
Nsg23
S'mov'
p545
sg25
S'0x8153972L'
p546
sg27
Nsba(ibclass
BInstr
p547
(dp548
g2
Nsg17
S'mov     [esp], eax      ; a'
p549
sg19
S'890424'
p550
sg21
Vmov dword ptr [esp], eax
p551
sg5
L135608694L
sg6
Nsg23
S'mov'
p552
sg25
S'0x8153976L'
p553
sg27
Nsba(ibclass
BInstr
p554
(dp555
g2
Nsg17
S'call    ASN1_STRING_cmp'
p556
sg19
S'e8a7220100'
p557
sg21
Vcall 0x122ac
p558
sg5
L135608697L
sg6
Nsg23
S'call'
p559
sg25
S'0x8153979L'
p560
sg27
Nsba(ibclass
BInstr
p561
(dp562
g2
Nsg17
S'mov     [ebp+result], eax'
p563
sg19
S'8945f4'
p564
sg21
Vmov dword ptr [ebp - 0xc], eax
p565
sg5
L135608702L
sg6
Nsg23
S'mov'
p566
sg25
S'0x815397eL'
p567
sg27
Nsba(ibclass
BInstr
p568
(dp569
g2
Nsg17
S'nop'
p570
sg19
S'90'
p571
sg21
Vnop 
p572
sg5
L135608705L
sg6
Nsg23
S'nop'
p573
sg25
S'0x8153981L'
p574
sg27
Nsbasg63
(lp575
Vmov eax, mem
p576
aVmov edx, mem
p577
aVmov eax, mem
p578
aVmov eax, mem
p579
aVmov mem, edx
p580
aVmov mem, eax
p581
aVcall address
p582
aVmov mem, eax
p583
aVnop
p584
asg69
Nsg5
S'0x8153966L'
p585
sg71
(lp586
S'0x8153929L'
p587
asg6
Nsg73
(lp588
S'0x8153982L'
p589
asg77
Nsg78
Nsg79
S'277a965186ab277393036ec68ccd1dbc'
p590
sg81
S'9a8926cbe4d822ecd7e6c309099697cd'
p591
sg83
(lp592
g517
ag524
ag531
ag538
ag545
ag552
ag559
ag566
ag573
asg85
Nsba(ibclass
BBasicBlock
p593
(dp594
g12
Nsg13
(lp595
(ibclass
BInstr
p596
(dp597
g2
Nsg17
S'mov     eax, [ebp+result]'
p598
sg19
S'8b45f4'
p599
sg21
Vmov eax, dword ptr [ebp - 0xc]
p600
sg5
L135608706L
sg6
Nsg23
S'mov'
p601
sg25
S'0x8153982L'
p602
sg27
Nsbasg63
(lp603
Vmov eax, mem
p604
asg69
Nsg5
S'0x8153982L'
p605
sg71
(lp606
S'0x815392bL'
p607
aS'0x8153948L'
p608
aS'0x815395dL'
p609
aS'0x8153966L'
p610
asg6
Nsg73
(lp611
S'0x8153985L'
p612
asg77
Nsg78
Nsg79
S'96a4a0e6e9ac88756a0fcba989d0a844'
p613
sg81
S'da3a10212e6b688447f8e74c20e21f06'
p614
sg83
(lp615
g601
asg85
Nsba(ibclass
BBasicBlock
p616
(dp617
g12
Nsg13
(lp618
(ibclass
BInstr
p619
(dp620
g2
Nsg17
S'leave'
p621
sg19
S'c9'
p622
sg21
Vleave 
p623
sg5
L135608709L
sg6
Nsg23
S'leave'
p624
sg25
S'0x8153985L'
p625
sg27
Nsba(ibclass
BInstr
p626
(dp627
g2
Nsg17
S'retn'
p628
sg19
S'c3'
p629
sg21
Vret 
p630
sg5
L135608710L
sg6
Nsg23
S'retn'
p631
sg25
S'0x8153986L'
p632
sg27
Nsbasg63
(lp633
Vleave
p634
aVret
p635
asg69
Nsg5
S'0x8153985L'
p636
sg71
(lp637
S'0x815390eL'
p638
aS'0x8153982L'
p639
asg6
Nsg73
(lp640
sg77
Nsg78
Nsg79
S'08c78f73a6f87c85da88b2982f54ce2a'
p641
sg81
S'393fee3c9fb1d26424d4b7704918e387'
p642
sg83
(lp643
g624
ag631
asg85
Nsbasb.