(ibclass
BFunc
p0
(dp1
S'hash'
p2
NsS'name'
p3
S'BN_to_ASN1_INTEGER'
p4
sS'start_address'
p5
L135607142L
sS'flag'
p6
NsS'program'
p7
NsS'bbs'
p8
(lp9
(ibclass
BBasicBlock
p10
(dp11
S'function'
p12
NsS'binstrs'
p13
(lp14
(ibclass
BInstr
p15
(dp16
g2
NsS'disasm'
p17
S'push    ebp'
p18
sS'bytes'
p19
S'55'
p20
sS'disasm_striped'
p21
Vpush ebp
p22
sg5
L135607142L
sg6
NsS'mnem'
p23
S'push'
p24
sS'address'
p25
S'0x8153366L'
p26
sS'basicblock'
p27
Nsba(ibclass
BInstr
p28
(dp29
g2
Nsg17
S'mov     ebp, esp'
p30
sg19
S'89e5'
p31
sg21
Vmov ebp, esp
p32
sg5
L135607143L
sg6
Nsg23
S'mov'
p33
sg25
S'0x8153367L'
p34
sg27
Nsba(ibclass
BInstr
p35
(dp36
g2
Nsg17
S'sub     esp, 38h'
p37
sg19
S'83ec38'
p38
sg21
Vsub esp, 0x38
p39
sg5
L135607145L
sg6
Nsg23
S'sub'
p40
sg25
S'0x8153369L'
p41
sg27
Nsba(ibclass
BInstr
p42
(dp43
g2
Nsg17
S'cmp     [ebp+ai], 0'
p44
sg19
S'837d0c00'
p45
sg21
Vcmp dword ptr [ebp + 0xc], 0
p46
sg5
L135607148L
sg6
Nsg23
S'cmp'
p47
sg25
S'0x815336cL'
p48
sg27
Nsba(ibclass
BInstr
p49
(dp50
g2
Nsg17
S'jnz     short loc_8153383'
p51
sg19
S'7511'
p52
sg21
Vjne 0x13
p53
sg5
L135607152L
sg6
Nsg23
S'jnz'
p54
sg25
S'0x8153370L'
p55
sg27
NsbasS'disasm_list'
p56
(lp57
g22
ag32
aVsub esp, address
p58
aVcmp mem, 0
p59
aVjne address
p60
asS'end_address'
p61
Nsg5
S'0x8153366L'
p62
sS'preds'
p63
(lp64
sg6
NsS'succs'
p65
(lp66
S'0x8153372L'
p67
aS'0x8153383L'
p68
asS'hash_v3'
p69
NsS'flag_v2'
p70
NsS'hash_v1'
p71
S'210a37928dd2097087c285e2bbd4b5b4'
p72
sS'hash_v2'
p73
S'0e40077d930511e9164bcfa466d38cd2'
p74
sS'mnen_list'
p75
(lp76
g24
ag33
ag40
ag47
ag54
asS'neighbour_disasm_list'
p77
Nsba(ibclass
BBasicBlock
p78
(dp79
g12
Nsg13
(lp80
(ibclass
BInstr
p81
(dp82
g2
Nsg17
S'mov     dword ptr [esp], 2; type'
p83
sg19
S'c7042402000000'
p84
sg21
Vmov dword ptr [esp], 2
p85
sg5
L135607154L
sg6
Nsg23
S'mov'
p86
sg25
S'0x8153372L'
p87
sg27
Nsba(ibclass
BInstr
p88
(dp89
g2
Nsg17
S'call    ASN1_STRING_type_new'
p90
sg19
S'e895270100'
p91
sg21
Vcall 0x1279a
p92
sg5
L135607161L
sg6
Nsg23
S'call'
p93
sg25
S'0x8153379L'
p94
sg27
Nsba(ibclass
BInstr
p95
(dp96
g2
Nsg17
S'mov     [ebp+ret], eax'
p97
sg19
S'8945e8'
p98
sg21
Vmov dword ptr [ebp - 0x18], eax
p99
sg5
L135607166L
sg6
Nsg23
S'mov'
p100
sg25
S'0x815337eL'
p101
sg27
Nsba(ibclass
BInstr
p102
(dp103
g2
Nsg17
S'jmp     short loc_8153389'
p104
sg19
S'eb06'
p105
sg21
Vjmp 8
p106
sg5
L135607169L
sg6
Nsg23
S'jmp'
p107
sg25
S'0x8153381L'
p108
sg27
Nsbasg56
(lp109
Vmov mem, 2
p110
aVcall address
p111
aVmov mem, eax
p112
ag106
asg61
Nsg5
S'0x8153372L'
p113
sg63
(lp114
S'0x8153366L'
p115
asg6
Nsg65
(lp116
S'0x8153389L'
p117
asg69
Nsg70
Nsg71
S'9e315c5c78a8925ee1678d5873370548'
p118
sg73
S'117bd2954aa380384120bcc683b0a7bc'
p119
sg75
(lp120
g86
ag93
ag100
ag107
asg77
Nsba(ibclass
BBasicBlock
p121
(dp122
g12
Nsg13
(lp123
(ibclass
BInstr
p124
(dp125
g2
Nsg17
S'mov     eax, [ebp+ai]'
p126
sg19
S'8b450c'
p127
sg21
Vmov eax, dword ptr [ebp + 0xc]
p128
sg5
L135607171L
sg6
Nsg23
S'mov'
p129
sg25
S'0x8153383L'
p130
sg27
Nsba(ibclass
BInstr
p131
(dp132
g2
Nsg17
S'mov     [ebp+ret], eax'
p133
sg19
S'8945e8'
p134
sg21
Vmov dword ptr [ebp - 0x18], eax
p135
sg5
L135607174L
sg6
Nsg23
S'mov'
p136
sg25
S'0x8153386L'
p137
sg27
Nsbasg56
(lp138
Vmov eax, mem
p139
aVmov mem, eax
p140
asg61
Nsg5
S'0x8153383L'
p141
sg63
(lp142
S'0x8153366L'
p143
asg6
Nsg65
(lp144
S'0x8153389L'
p145
asg69
Nsg70
Nsg71
S'70939fd8153af5d63d1bcbdb14592b28'
p146
sg73
S'd88242b01c09e28f3fcbb05103855f98'
p147
sg75
(lp148
g129
ag136
asg77
Nsba(ibclass
BBasicBlock
p149
(dp150
g12
Nsg13
(lp151
(ibclass
BInstr
p152
(dp153
g2
Nsg17
S'cmp     [ebp+ret], 0'
p154
sg19
S'837de800'
p155
sg21
Vcmp dword ptr [ebp - 0x18], 0
p156
sg5
L135607177L
sg6
Nsg23
S'cmp'
p157
sg25
S'0x8153389L'
p158
sg27
Nsba(ibclass
BInstr
p159
(dp160
g2
Nsg17
S'jnz     short loc_81533C0'
p161
sg19
S'7531'
p162
sg21
Vjne 0x33
p163
sg5
L135607181L
sg6
Nsg23
S'jnz'
p164
sg25
S'0x815338dL'
p165
sg27
Nsbasg56
(lp166
Vcmp mem, 0
p167
aVjne address
p168
asg61
Nsg5
S'0x8153389L'
p169
sg63
(lp170
S'0x8153372L'
p171
aS'0x8153383L'
p172
asg6
Nsg65
(lp173
S'0x815338fL'
p174
aS'0x81533c0L'
p175
asg69
Nsg70
Nsg71
S'30cb3d6f6a174adfabcde507f6944a52'
p176
sg73
S'ac6a5deb49a2d2e7162632941da7e135'
p177
sg75
(lp178
g157
ag164
asg77
Nsba(ibclass
BBasicBlock
p179
(dp180
g12
Nsg13
(lp181
(ibclass
BInstr
p182
(dp183
g2
Nsg17
S'mov     dword ptr [esp+10h], 1A5h; line'
p184
sg19
S'c7442410a5010000'
p185
sg21
Vmov dword ptr [esp + 0x10], 0x1a5
p186
sg5
L135607183L
sg6
Nsg23
S'mov'
p187
sg25
S'0x815338fL'
p188
sg27
Nsba(ibclass
BInstr
p189
(dp190
g2
Nsg17
S'mov     dword ptr [esp+0Ch], offset aA_int_c; "a_int.c"'
p191
sg19
S'c744240cdbfe2308'
p192
sg21
Vmov dword ptr [esp + 0xc], 0x823fedb
p193
sg5
L135607191L
sg6
Nsg23
S'mov'
p194
sg25
S'0x8153397L'
p195
sg27
Nsba(ibclass
BInstr
p196
(dp197
g2
Nsg17
S'mov     dword ptr [esp+8], 3Ah; reason'
p198
sg19
S'c74424083a000000'
p199
sg21
Vmov dword ptr [esp + 8], 0x3a
p200
sg5
L135607199L
sg6
Nsg23
S'mov'
p201
sg25
S'0x815339fL'
p202
sg27
Nsba(ibclass
BInstr
p203
(dp204
g2
Nsg17
S'mov     dword ptr [esp+4], 8Bh; func'
p205
sg19
S'c74424048b000000'
p206
sg21
Vmov dword ptr [esp + 4], 0x8b
p207
sg5
L135607207L
sg6
Nsg23
S'mov'
p208
sg25
S'0x81533a7L'
p209
sg27
Nsba(ibclass
BInstr
p210
(dp211
g2
Nsg17
S'mov     dword ptr [esp], 0Dh; lib'
p212
sg19
S'c704240d000000'
p213
sg21
Vmov dword ptr [esp], 0xd
p214
sg5
L135607215L
sg6
Nsg23
S'mov'
p215
sg25
S'0x81533afL'
p216
sg27
Nsba(ibclass
BInstr
p217
(dp218
g2
Nsg17
S'call    ERR_put_error'
p219
sg19
S'e839cafeff'
p220
sg21
Vcall 0xfffeca3e
p221
sg5
L135607222L
sg6
Nsg23
S'call'
p222
sg25
S'0x81533b6L'
p223
sg27
Nsba(ibclass
BInstr
p224
(dp225
g2
Nsg17
S'jmp     err'
p226
sg19
S'e907010000'
p227
sg21
Vjmp 0x10c
p228
sg5
L135607227L
sg6
Nsg23
S'jmp'
p229
sg25
S'0x81533bbL'
p230
sg27
Nsbasg56
(lp231
Vmov mem, address
p232
aVmov mem, address
p233
aVmov mem, address
p234
aVmov mem, address
p235
aVmov mem, address
p236
aVcall address
p237
aVjmp address
p238
asg61
Nsg5
S'0x815338fL'
p239
sg63
(lp240
S'0x8153389L'
p241
asg6
Nsg65
(lp242
S'0x81534c7L'
p243
asg69
Nsg70
Nsg71
S'a76a0a3b827ea6cd402bf72e182d1d25'
p244
sg73
S'5c79c7459a4742ab4e6fe5fb7b7e4c8d'
p245
sg75
(lp246
g187
ag194
ag201
ag208
ag215
ag222
ag229
asg77
Nsba(ibclass
BBasicBlock
p247
(dp248
g12
Nsg13
(lp249
(ibclass
BInstr
p250
(dp251
g2
Nsg17
S'mov     eax, [ebp+bn]'
p252
sg19
S'8b4508'
p253
sg21
Vmov eax, dword ptr [ebp + 8]
p254
sg5
L135607232L
sg6
Nsg23
S'mov'
p255
sg25
S'0x81533c0L'
p256
sg27
Nsba(ibclass
BInstr
p257
(dp258
g2
Nsg17
S'mov     eax, [eax+0Ch]'
p259
sg19
S'8b400c'
p260
sg21
Vmov eax, dword ptr [eax + 0xc]
p261
sg5
L135607235L
sg6
Nsg23
S'mov'
p262
sg25
S'0x81533c3L'
p263
sg27
Nsba(ibclass
BInstr
p264
(dp265
g2
Nsg17
S'test    eax, eax'
p266
sg19
S'85c0'
p267
sg21
Vtest eax, eax
p268
sg5
L135607238L
sg6
Nsg23
S'test'
p269
sg25
S'0x81533c6L'
p270
sg27
Nsba(ibclass
BInstr
p271
(dp272
g2
Nsg17
S'jz      short loc_81533E0'
p273
sg19
S'7416'
p274
sg21
Vje 0x18
p275
sg5
L135607240L
sg6
Nsg23
S'jz'
p276
sg25
S'0x81533c8L'
p277
sg27
Nsbasg56
(lp278
Vmov eax, mem
p279
aVmov eax, mem
p280
ag268
aVje address
p281
asg61
Nsg5
S'0x81533c0L'
p282
sg63
(lp283
S'0x8153389L'
p284
asg6
Nsg65
(lp285
S'0x81533caL'
p286
aS'0x81533e0L'
p287
asg69
Nsg70
Nsg71
S'ea5d08c7dcc07640d42787f826218f11'
p288
sg73
S'103b924e2a82731ce51d187b2e41af3a'
p289
sg75
(lp290
g255
ag262
ag269
ag276
asg77
Nsba(ibclass
BBasicBlock
p291
(dp292
g12
Nsg13
(lp293
(ibclass
BInstr
p294
(dp295
g2
Nsg17
S'mov     eax, [ebp+bn]'
p296
sg19
S'8b4508'
p297
sg21
Vmov eax, dword ptr [ebp + 8]
p298
sg5
L135607242L
sg6
Nsg23
S'mov'
p299
sg25
S'0x81533caL'
p300
sg27
Nsba(ibclass
BInstr
p301
(dp302
g2
Nsg17
S'mov     eax, [eax+4]'
p303
sg19
S'8b4004'
p304
sg21
Vmov eax, dword ptr [eax + 4]
p305
sg5
L135607245L
sg6
Nsg23
S'mov'
p306
sg25
S'0x81533cdL'
p307
sg27
Nsba(ibclass
BInstr
p308
(dp309
g2
Nsg17
S'test    eax, eax'
p310
sg19
S'85c0'
p311
sg21
Vtest eax, eax
p312
sg5
L135607248L
sg6
Nsg23
S'test'
p313
sg25
S'0x81533d0L'
p314
sg27
Nsba(ibclass
BInstr
p315
(dp316
g2
Nsg17
S'jz      short loc_81533E0'
p317
sg19
S'740c'
p318
sg21
Vje 0xe
p319
sg5
L135607250L
sg6
Nsg23
S'jz'
p320
sg25
S'0x81533d2L'
p321
sg27
Nsbasg56
(lp322
Vmov eax, mem
p323
aVmov eax, mem
p324
ag312
aVje address
p325
asg61
Nsg5
S'0x81533caL'
p326
sg63
(lp327
S'0x81533c0L'
p328
asg6
Nsg65
(lp329
S'0x81533d4L'
p330
aS'0x81533e0L'
p331
asg69
Nsg70
Nsg71
S'ea5d08c7dcc07640d42787f826218f11'
p332
sg73
S'103b924e2a82731ce51d187b2e41af3a'
p333
sg75
(lp334
g299
ag306
ag313
ag320
asg77
Nsba(ibclass
BBasicBlock
p335
(dp336
g12
Nsg13
(lp337
(ibclass
BInstr
p338
(dp339
g2
Nsg17
S'mov     eax, [ebp+ret]'
p340
sg19
S'8b45e8'
p341
sg21
Vmov eax, dword ptr [ebp - 0x18]
p342
sg5
L135607252L
sg6
Nsg23
S'mov'
p343
sg25
S'0x81533d4L'
p344
sg27
Nsba(ibclass
BInstr
p345
(dp346
g2
Nsg17
S'mov     dword ptr [eax+4], 102h'
p347
sg19
S'c7400402010000'
p348
sg21
Vmov dword ptr [eax + 4], 0x102
p349
sg5
L135607255L
sg6
Nsg23
S'mov'
p350
sg25
S'0x81533d7L'
p351
sg27
Nsba(ibclass
BInstr
p352
(dp353
g2
Nsg17
S'jmp     short loc_81533EA'
p354
sg19
S'eb0a'
p355
sg21
Vjmp 0xc
p356
sg5
L135607262L
sg6
Nsg23
S'jmp'
p357
sg25
S'0x81533deL'
p358
sg27
Nsbasg56
(lp359
Vmov eax, mem
p360
aVmov mem, address
p361
aVjmp address
p362
asg61
Nsg5
S'0x81533d4L'
p363
sg63
(lp364
S'0x81533caL'
p365
asg6
Nsg65
(lp366
S'0x81533eaL'
p367
asg69
Nsg70
Nsg71
S'20cd1770826306b20d13fbc820a22512'
p368
sg73
S'efd24252697680b1b6986131f6e00a2f'
p369
sg75
(lp370
g343
ag350
ag357
asg77
Nsba(ibclass
BBasicBlock
p371
(dp372
g12
Nsg13
(lp373
(ibclass
BInstr
p374
(dp375
g2
Nsg17
S'mov     eax, [ebp+ret]'
p376
sg19
S'8b45e8'
p377
sg21
Vmov eax, dword ptr [ebp - 0x18]
p378
sg5
L135607264L
sg6
Nsg23
S'mov'
p379
sg25
S'0x81533e0L'
p380
sg27
Nsba(ibclass
BInstr
p381
(dp382
g2
Nsg17
S'mov     dword ptr [eax+4], 2'
p383
sg19
S'c7400402000000'
p384
sg21
Vmov dword ptr [eax + 4], 2
p385
sg5
L135607267L
sg6
Nsg23
S'mov'
p386
sg25
S'0x81533e3L'
p387
sg27
Nsbasg56
(lp388
Vmov eax, mem
p389
aVmov mem, 2
p390
asg61
Nsg5
S'0x81533e0L'
p391
sg63
(lp392
S'0x81533c0L'
p393
aS'0x81533caL'
p394
asg6
Nsg65
(lp395
S'0x81533eaL'
p396
asg69
Nsg70
Nsg71
S'70939fd8153af5d63d1bcbdb14592b28'
p397
sg73
S'73b9d13be43c5113f89d86a05dc44dea'
p398
sg75
(lp399
g379
ag386
asg77
Nsba(ibclass
BBasicBlock
p400
(dp401
g12
Nsg13
(lp402
(ibclass
BInstr
p403
(dp404
g2
Nsg17
S'mov     eax, [ebp+bn]'
p405
sg19
S'8b4508'
p406
sg21
Vmov eax, dword ptr [ebp + 8]
p407
sg5
L135607274L
sg6
Nsg23
S'mov'
p408
sg25
S'0x81533eaL'
p409
sg27
Nsba(ibclass
BInstr
p410
(dp411
g2
Nsg17
S'mov     [esp], eax      ; a'
p412
sg19
S'890424'
p413
sg21
Vmov dword ptr [esp], eax
p414
sg5
L135607277L
sg6
Nsg23
S'mov'
p415
sg25
S'0x81533edL'
p416
sg27
Nsba(ibclass
BInstr
p417
(dp418
g2
Nsg17
S'call    BN_num_bits'
p419
sg19
S'e87ab2fbff'
p420
sg21
Vcall 0xfffbb27f
p421
sg5
L135607280L
sg6
Nsg23
S'call'
p422
sg25
S'0x81533f0L'
p423
sg27
Nsba(ibclass
BInstr
p424
(dp425
g2
Nsg17
S'mov     [ebp+j], eax'
p426
sg19
S'8945ec'
p427
sg21
Vmov dword ptr [ebp - 0x14], eax
p428
sg5
L135607285L
sg6
Nsg23
S'mov'
p429
sg25
S'0x81533f5L'
p430
sg27
Nsba(ibclass
BInstr
p431
(dp432
g2
Nsg17
S'cmp     [ebp+j], 0'
p433
sg19
S'837dec00'
p434
sg21
Vcmp dword ptr [ebp - 0x14], 0
p435
sg5
L135607288L
sg6
Nsg23
S'cmp'
p436
sg25
S'0x81533f8L'
p437
sg27
Nsba(ibclass
BInstr
p438
(dp439
g2
Nsg17
S'jz      short loc_815340E'
p440
sg19
S'7410'
p441
sg21
Vje 0x12
p442
sg5
L135607292L
sg6
Nsg23
S'jz'
p443
sg25
S'0x81533fcL'
p444
sg27
Nsbasg56
(lp445
Vmov eax, mem
p446
aVmov mem, eax
p447
aVcall address
p448
aVmov mem, eax
p449
aVcmp mem, 0
p450
aVje address
p451
asg61
Nsg5
S'0x81533eaL'
p452
sg63
(lp453
S'0x81533d4L'
p454
aS'0x81533e0L'
p455
asg6
Nsg65
(lp456
S'0x81533feL'
p457
aS'0x815340eL'
p458
asg69
Nsg70
Nsg71
S'2893a48ca686d52a2339ece017f28350'
p459
sg73
S'85d030c5418f48c0bc42f37950c76bb2'
p460
sg75
(lp461
g408
ag415
ag422
ag429
ag436
ag443
asg77
Nsba(ibclass
BBasicBlock
p462
(dp463
g12
Nsg13
(lp464
(ibclass
BInstr
p465
(dp466
g2
Nsg17
S'mov     eax, [ebp+j]'
p467
sg19
S'8b45ec'
p468
sg21
Vmov eax, dword ptr [ebp - 0x14]
p469
sg5
L135607294L
sg6
Nsg23
S'mov'
p470
sg25
S'0x81533feL'
p471
sg27
Nsba(ibclass
BInstr
p472
(dp473
g2
Nsg17
S'test    eax, eax'
p474
sg19
S'85c0'
p475
sg21
Vtest eax, eax
p476
sg5
L135607297L
sg6
Nsg23
S'test'
p477
sg25
S'0x8153401L'
p478
sg27
Nsba(ibclass
BInstr
p479
(dp480
g2
Nsg17
S'jns     short loc_8153408'
p481
sg19
S'7903'
p482
sg21
Vjns 5
p483
sg5
L135607299L
sg6
Nsg23
S'jns'
p484
sg25
S'0x8153403L'
p485
sg27
Nsbasg56
(lp486
Vmov eax, mem
p487
ag476
ag483
asg61
Nsg5
S'0x81533feL'
p488
sg63
(lp489
S'0x81533eaL'
p490
asg6
Nsg65
(lp491
S'0x8153405L'
p492
aS'0x8153408L'
p493
asg69
Nsg70
Nsg71
S'6a9e32165a338a1bf0e5443903f1daa9'
p494
sg73
S'b3a3e7211c7092b36d99cc8711ead416'
p495
sg75
(lp496
g470
ag477
ag484
asg77
Nsba(ibclass
BBasicBlock
p497
(dp498
g12
Nsg13
(lp499
(ibclass
BInstr
p500
(dp501
g2
Nsg17
S'add     eax, 7'
p502
sg19
S'83c007'
p503
sg21
Vadd eax, 7
p504
sg5
L135607301L
sg6
Nsg23
S'add'
p505
sg25
S'0x8153405L'
p506
sg27
Nsbasg56
(lp507
g504
asg61
Nsg5
S'0x8153405L'
p508
sg63
(lp509
S'0x81533feL'
p510
asg6
Nsg65
(lp511
S'0x8153408L'
p512
asg69
Nsg70
Nsg71
S'34ec78fcc91ffb1e54cd85e4a0924332'
p513
sg73
S'9c593e6e55f1701921abf8342f95ed0c'
p514
sg75
(lp515
g505
asg77
Nsba(ibclass
BBasicBlock
p516
(dp517
g12
Nsg13
(lp518
(ibclass
BInstr
p519
(dp520
g2
Nsg17
S'sar     eax, 3'
p521
sg19
S'c1f803'
p522
sg21
Vsar eax, 3
p523
sg5
L135607304L
sg6
Nsg23
S'sar'
p524
sg25
S'0x8153408L'
p525
sg27
Nsba(ibclass
BInstr
p526
(dp527
g2
Nsg17
S'inc     eax'
p528
sg19
S'40'
p529
sg21
Vinc eax
p530
sg5
L135607307L
sg6
Nsg23
S'inc'
p531
sg25
S'0x815340bL'
p532
sg27
Nsba(ibclass
BInstr
p533
(dp534
g2
Nsg17
S'jmp     short loc_8153413'
p535
sg19
S'eb05'
p536
sg21
Vjmp 7
p537
sg5
L135607308L
sg6
Nsg23
S'jmp'
p538
sg25
S'0x815340cL'
p539
sg27
Nsbasg56
(lp540
g523
ag530
ag537
asg61
Nsg5
S'0x8153408L'
p541
sg63
(lp542
S'0x81533feL'
p543
aS'0x8153405L'
p544
asg6
Nsg65
(lp545
S'0x8153413L'
p546
asg69
Nsg70
Nsg71
S'52c93575b764b57598496a466307d17a'
p547
sg73
S'd536f93441739b2a18e2367b39c1f3fa'
p548
sg75
(lp549
g524
ag531
ag538
asg77
Nsba(ibclass
BBasicBlock
p550
(dp551
g12
Nsg13
(lp552
(ibclass
BInstr
p553
(dp554
g2
Nsg17
S'mov     eax, 0'
p555
sg19
S'b800000000'
p556
sg21
Vmov eax, 0
p557
sg5
L135607310L
sg6
Nsg23
S'mov'
p558
sg25
S'0x815340eL'
p559
sg27
Nsbasg56
(lp560
g557
asg61
Nsg5
S'0x815340eL'
p561
sg63
(lp562
S'0x81533eaL'
p563
asg6
Nsg65
(lp564
S'0x8153413L'
p565
asg69
Nsg70
Nsg71
S'96a4a0e6e9ac88756a0fcba989d0a844'
p566
sg73
S'4cfc99738161f190e0def2f4916ada38'
p567
sg75
(lp568
g558
asg77
Nsba(ibclass
BBasicBlock
p569
(dp570
g12
Nsg13
(lp571
(ibclass
BInstr
p572
(dp573
g2
Nsg17
S'mov     [ebp+len], eax'
p574
sg19
S'8945f0'
p575
sg21
Vmov dword ptr [ebp - 0x10], eax
p576
sg5
L135607315L
sg6
Nsg23
S'mov'
p577
sg25
S'0x8153413L'
p578
sg27
Nsba(ibclass
BInstr
p579
(dp580
g2
Nsg17
S'mov     eax, [ebp+ret]'
p581
sg19
S'8b45e8'
p582
sg21
Vmov eax, dword ptr [ebp - 0x18]
p583
sg5
L135607318L
sg6
Nsg23
S'mov'
p584
sg25
S'0x8153416L'
p585
sg27
Nsba(ibclass
BInstr
p586
(dp587
g2
Nsg17
S'mov     eax, [eax]'
p588
sg19
S'8b00'
p589
sg21
Vmov eax, dword ptr [eax]
p590
sg5
L135607321L
sg6
Nsg23
S'mov'
p591
sg25
S'0x8153419L'
p592
sg27
Nsba(ibclass
BInstr
p593
(dp594
g2
Nsg17
S'mov     edx, [ebp+len]'
p595
sg19
S'8b55f0'
p596
sg21
Vmov edx, dword ptr [ebp - 0x10]
p597
sg5
L135607323L
sg6
Nsg23
S'mov'
p598
sg25
S'0x815341bL'
p599
sg27
Nsba(ibclass
BInstr
p600
(dp601
g2
Nsg17
S'add     edx, 4'
p602
sg19
S'83c204'
p603
sg21
Vadd edx, 4
p604
sg5
L135607326L
sg6
Nsg23
S'add'
p605
sg25
S'0x815341eL'
p606
sg27
Nsba(ibclass
BInstr
p607
(dp608
g2
Nsg17
S'cmp     eax, edx'
p609
sg19
S'39d0'
p610
sg21
Vcmp eax, edx
p611
sg5
L135607329L
sg6
Nsg23
S'cmp'
p612
sg25
S'0x8153421L'
p613
sg27
Nsba(ibclass
BInstr
p614
(dp615
g2
Nsg17
S'jge     short loc_815348D'
p616
sg19
S'7d68'
p617
sg21
Vjge 0x6a
p618
sg5
L135607331L
sg6
Nsg23
S'jge'
p619
sg25
S'0x8153423L'
p620
sg27
Nsbasg56
(lp621
Vmov mem, eax
p622
aVmov eax, mem
p623
aVmov eax, mem
p624
aVmov edx, mem
p625
ag604
ag611
aVjge address
p626
asg61
Nsg5
S'0x8153413L'
p627
sg63
(lp628
S'0x8153408L'
p629
aS'0x815340eL'
p630
asg6
Nsg65
(lp631
S'0x8153425L'
p632
aS'0x815348dL'
p633
asg69
Nsg70
Nsg71
S'abc605599cffd0ec64e85f56670c4a1a'
p634
sg73
S'552806aeed71495690945a6a1e014577'
p635
sg75
(lp636
g577
ag584
ag591
ag598
ag605
ag612
ag619
asg77
Nsba(ibclass
BBasicBlock
p637
(dp638
g12
Nsg13
(lp639
(ibclass
BInstr
p640
(dp641
g2
Nsg17
S'mov     eax, [ebp+len]'
p642
sg19
S'8b45f0'
p643
sg21
Vmov eax, dword ptr [ebp - 0x10]
p644
sg5
L135607333L
sg6
Nsg23
S'mov'
p645
sg25
S'0x8153425L'
p646
sg27
Nsba(ibclass
BInstr
p647
(dp648
g2
Nsg17
S'lea     edx, [eax+4]'
p649
sg19
S'8d5004'
p650
sg21
Vlea edx, [eax + 4]
p651
sg5
L135607336L
sg6
Nsg23
S'lea'
p652
sg25
S'0x8153428L'
p653
sg27
Nsba(ibclass
BInstr
p654
(dp655
g2
Nsg17
S'mov     eax, [ebp+ret]'
p656
sg19
S'8b45e8'
p657
sg21
Vmov eax, dword ptr [ebp - 0x18]
p658
sg5
L135607339L
sg6
Nsg23
S'mov'
p659
sg25
S'0x815342bL'
p660
sg27
Nsba(ibclass
BInstr
p661
(dp662
g2
Nsg17
S'mov     eax, [eax+8]'
p663
sg19
S'8b4008'
p664
sg21
Vmov eax, dword ptr [eax + 8]
p665
sg5
L135607342L
sg6
Nsg23
S'mov'
p666
sg25
S'0x815342eL'
p667
sg27
Nsba(ibclass
BInstr
p668
(dp669
g2
Nsg17
S'mov     dword ptr [esp+0Ch], 1AFh; line'
p670
sg19
S'c744240caf010000'
p671
sg21
Vmov dword ptr [esp + 0xc], 0x1af
p672
sg5
L135607345L
sg6
Nsg23
S'mov'
p673
sg25
S'0x8153431L'
p674
sg27
Nsba(ibclass
BInstr
p675
(dp676
g2
Nsg17
S'mov     dword ptr [esp+8], offset aA_int_c; "a_int.c"'
p677
sg19
S'c7442408dbfe2308'
p678
sg21
Vmov dword ptr [esp + 8], 0x823fedb
p679
sg5
L135607353L
sg6
Nsg23
S'mov'
p680
sg25
S'0x8153439L'
p681
sg27
Nsba(ibclass
BInstr
p682
(dp683
g2
Nsg17
S'mov     [esp+4], edx    ; num'
p684
sg19
S'89542404'
p685
sg21
Vmov dword ptr [esp + 4], edx
p686
sg5
L135607361L
sg6
Nsg23
S'mov'
p687
sg25
S'0x8153441L'
p688
sg27
Nsba(ibclass
BInstr
p689
(dp690
g2
Nsg17
S'mov     [esp], eax      ; str'
p691
sg19
S'890424'
p692
sg21
Vmov dword ptr [esp], eax
p693
sg5
L135607365L
sg6
Nsg23
S'mov'
p694
sg25
S'0x8153445L'
p695
sg27
Nsba(ibclass
BInstr
p696
(dp697
g2
Nsg17
S'call    CRYPTO_realloc'
p698
sg19
S'e8fd50f9ff'
p699
sg21
Vcall 0xfff95102
p700
sg5
L135607368L
sg6
Nsg23
S'call'
p701
sg25
S'0x8153448L'
p702
sg27
Nsba(ibclass
BInstr
p703
(dp704
g2
Nsg17
S'mov     [ebp+new_data], eax'
p705
sg19
S'8945f4'
p706
sg21
Vmov dword ptr [ebp - 0xc], eax
p707
sg5
L135607373L
sg6
Nsg23
S'mov'
p708
sg25
S'0x815344dL'
p709
sg27
Nsba(ibclass
BInstr
p710
(dp711
g2
Nsg17
S'cmp     [ebp+new_data], 0'
p712
sg19
S'837df400'
p713
sg21
Vcmp dword ptr [ebp - 0xc], 0
p714
sg5
L135607376L
sg6
Nsg23
S'cmp'
p715
sg25
S'0x8153450L'
p716
sg27
Nsba(ibclass
BInstr
p717
(dp718
g2
Nsg17
S'jnz     short loc_8153484'
p719
sg19
S'752e'
p720
sg21
Vjne 0x30
p721
sg5
L135607380L
sg6
Nsg23
S'jnz'
p722
sg25
S'0x8153454L'
p723
sg27
Nsbasg56
(lp724
Vmov eax, mem
p725
aVlea edx, mem
p726
aVmov eax, mem
p727
aVmov eax, mem
p728
aVmov mem, address
p729
aVmov mem, address
p730
aVmov mem, edx
p731
aVmov mem, eax
p732
aVcall address
p733
aVmov mem, eax
p734
aVcmp mem, 0
p735
aVjne address
p736
asg61
Nsg5
S'0x8153425L'
p737
sg63
(lp738
S'0x8153413L'
p739
asg6
Nsg65
(lp740
S'0x8153456L'
p741
aS'0x8153484L'
p742
asg69
Nsg70
Nsg71
S'7e9f9edfaaec3a75c5129d36096a8fb4'
p743
sg73
S'27a6d351b1ccd62c9165574e03cd070c'
p744
sg75
(lp745
g645
ag652
ag659
ag666
ag673
ag680
ag687
ag694
ag701
ag708
ag715
ag722
asg77
Nsba(ibclass
BBasicBlock
p746
(dp747
g12
Nsg13
(lp748
(ibclass
BInstr
p749
(dp750
g2
Nsg17
S'mov     dword ptr [esp+10h], 1B1h; line'
p751
sg19
S'c7442410b1010000'
p752
sg21
Vmov dword ptr [esp + 0x10], 0x1b1
p753
sg5
L135607382L
sg6
Nsg23
S'mov'
p754
sg25
S'0x8153456L'
p755
sg27
Nsba(ibclass
BInstr
p756
(dp757
g2
Nsg17
S'mov     dword ptr [esp+0Ch], offset aA_int_c; "a_int.c"'
p758
sg19
S'c744240cdbfe2308'
p759
sg21
Vmov dword ptr [esp + 0xc], 0x823fedb
p760
sg5
L135607390L
sg6
Nsg23
S'mov'
p761
sg25
S'0x815345eL'
p762
sg27
Nsba(ibclass
BInstr
p763
(dp764
g2
Nsg17
S'mov     dword ptr [esp+8], 41h; reason'
p765
sg19
S'c744240841000000'
p766
sg21
Vmov dword ptr [esp + 8], 0x41
p767
sg5
L135607398L
sg6
Nsg23
S'mov'
p768
sg25
S'0x8153466L'
p769
sg27
Nsba(ibclass
BInstr
p770
(dp771
g2
Nsg17
S'mov     dword ptr [esp+4], 8Bh; func'
p772
sg19
S'c74424048b000000'
p773
sg21
Vmov dword ptr [esp + 4], 0x8b
p774
sg5
L135607406L
sg6
Nsg23
S'mov'
p775
sg25
S'0x815346eL'
p776
sg27
Nsba(ibclass
BInstr
p777
(dp778
g2
Nsg17
S'mov     dword ptr [esp], 0Dh; lib'
p779
sg19
S'c704240d000000'
p780
sg21
Vmov dword ptr [esp], 0xd
p781
sg5
L135607414L
sg6
Nsg23
S'mov'
p782
sg25
S'0x8153476L'
p783
sg27
Nsba(ibclass
BInstr
p784
(dp785
g2
Nsg17
S'call    ERR_put_error'
p786
sg19
S'e872c9feff'
p787
sg21
Vcall 0xfffec977
p788
sg5
L135607421L
sg6
Nsg23
S'call'
p789
sg25
S'0x815347dL'
p790
sg27
Nsba(ibclass
BInstr
p791
(dp792
g2
Nsg17
S'jmp     short err'
p793
sg19
S'eb43'
p794
sg21
Vjmp 0x45
p795
sg5
L135607426L
sg6
Nsg23
S'jmp'
p796
sg25
S'0x8153482L'
p797
sg27
Nsbasg56
(lp798
Vmov mem, address
p799
aVmov mem, address
p800
aVmov mem, address
p801
aVmov mem, address
p802
aVmov mem, address
p803
aVcall address
p804
aVjmp address
p805
asg61
Nsg5
S'0x8153456L'
p806
sg63
(lp807
S'0x8153425L'
p808
asg6
Nsg65
(lp809
S'0x81534c7L'
p810
asg69
Nsg70
Nsg71
S'a76a0a3b827ea6cd402bf72e182d1d25'
p811
sg73
S'5c79c7459a4742ab4e6fe5fb7b7e4c8d'
p812
sg75
(lp813
g754
ag761
ag768
ag775
ag782
ag789
ag796
asg77
Nsba(ibclass
BBasicBlock
p814
(dp815
g12
Nsg13
(lp816
(ibclass
BInstr
p817
(dp818
g2
Nsg17
S'mov     eax, [ebp+ret]'
p819
sg19
S'8b45e8'
p820
sg21
Vmov eax, dword ptr [ebp - 0x18]
p821
sg5
L135607428L
sg6
Nsg23
S'mov'
p822
sg25
S'0x8153484L'
p823
sg27
Nsba(ibclass
BInstr
p824
(dp825
g2
Nsg17
S'mov     edx, [ebp+new_data]'
p826
sg19
S'8b55f4'
p827
sg21
Vmov edx, dword ptr [ebp - 0xc]
p828
sg5
L135607431L
sg6
Nsg23
S'mov'
p829
sg25
S'0x8153487L'
p830
sg27
Nsba(ibclass
BInstr
p831
(dp832
g2
Nsg17
S'mov     [eax+8], edx'
p833
sg19
S'895008'
p834
sg21
Vmov dword ptr [eax + 8], edx
p835
sg5
L135607434L
sg6
Nsg23
S'mov'
p836
sg25
S'0x815348aL'
p837
sg27
Nsbasg56
(lp838
Vmov eax, mem
p839
aVmov edx, mem
p840
aVmov mem, edx
p841
asg61
Nsg5
S'0x8153484L'
p842
sg63
(lp843
S'0x8153425L'
p844
asg6
Nsg65
(lp845
S'0x815348dL'
p846
asg69
Nsg70
Nsg71
S'9eccc8b14ee1489d7c3de99648417ffe'
p847
sg73
S'f189e5330cbced4d0a471366297e8b29'
p848
sg75
(lp849
g822
ag829
ag836
asg77
Nsba(ibclass
BBasicBlock
p850
(dp851
g12
Nsg13
(lp852
(ibclass
BInstr
p853
(dp854
g2
Nsg17
S'mov     eax, [ebp+ret]'
p855
sg19
S'8b45e8'
p856
sg21
Vmov eax, dword ptr [ebp - 0x18]
p857
sg5
L135607437L
sg6
Nsg23
S'mov'
p858
sg25
S'0x815348dL'
p859
sg27
Nsba(ibclass
BInstr
p860
(dp861
g2
Nsg17
S'mov     eax, [eax+8]'
p862
sg19
S'8b4008'
p863
sg21
Vmov eax, dword ptr [eax + 8]
p864
sg5
L135607440L
sg6
Nsg23
S'mov'
p865
sg25
S'0x8153490L'
p866
sg27
Nsba(ibclass
BInstr
p867
(dp868
g2
Nsg17
S'mov     [esp+4], eax    ; to'
p869
sg19
S'89442404'
p870
sg21
Vmov dword ptr [esp + 4], eax
p871
sg5
L135607443L
sg6
Nsg23
S'mov'
p872
sg25
S'0x8153493L'
p873
sg27
Nsba(ibclass
BInstr
p874
(dp875
g2
Nsg17
S'mov     eax, [ebp+bn]'
p876
sg19
S'8b4508'
p877
sg21
Vmov eax, dword ptr [ebp + 8]
p878
sg5
L135607447L
sg6
Nsg23
S'mov'
p879
sg25
S'0x8153497L'
p880
sg27
Nsba(ibclass
BInstr
p881
(dp882
g2
Nsg17
S'mov     [esp], eax      ; a'
p883
sg19
S'890424'
p884
sg21
Vmov dword ptr [esp], eax
p885
sg5
L135607450L
sg6
Nsg23
S'mov'
p886
sg25
S'0x815349aL'
p887
sg27
Nsba(ibclass
BInstr
p888
(dp889
g2
Nsg17
S'call    BN_bn2bin'
p890
sg19
S'e849c2fbff'
p891
sg21
Vcall 0xfffbc24e
p892
sg5
L135607453L
sg6
Nsg23
S'call'
p893
sg25
S'0x815349dL'
p894
sg27
Nsba(ibclass
BInstr
p895
(dp896
g2
Nsg17
S'mov     edx, [ebp+ret]'
p897
sg19
S'8b55e8'
p898
sg21
Vmov edx, dword ptr [ebp - 0x18]
p899
sg5
L135607458L
sg6
Nsg23
S'mov'
p900
sg25
S'0x81534a2L'
p901
sg27
Nsba(ibclass
BInstr
p902
(dp903
g2
Nsg17
S'mov     [edx], eax'
p904
sg19
S'8902'
p905
sg21
Vmov dword ptr [edx], eax
p906
sg5
L135607461L
sg6
Nsg23
S'mov'
p907
sg25
S'0x81534a5L'
p908
sg27
Nsba(ibclass
BInstr
p909
(dp910
g2
Nsg17
S'mov     eax, [ebp+ret]'
p911
sg19
S'8b45e8'
p912
sg21
Vmov eax, dword ptr [ebp - 0x18]
p913
sg5
L135607463L
sg6
Nsg23
S'mov'
p914
sg25
S'0x81534a7L'
p915
sg27
Nsba(ibclass
BInstr
p916
(dp917
g2
Nsg17
S'mov     eax, [eax]'
p918
sg19
S'8b00'
p919
sg21
Vmov eax, dword ptr [eax]
p920
sg5
L135607466L
sg6
Nsg23
S'mov'
p921
sg25
S'0x81534aaL'
p922
sg27
Nsba(ibclass
BInstr
p923
(dp924
g2
Nsg17
S'test    eax, eax'
p925
sg19
S'85c0'
p926
sg21
Vtest eax, eax
p927
sg5
L135607468L
sg6
Nsg23
S'test'
p928
sg25
S'0x81534acL'
p929
sg27
Nsba(ibclass
BInstr
p930
(dp931
g2
Nsg17
S'jnz     short loc_81534C2'
p932
sg19
S'7512'
p933
sg21
Vjne 0x14
p934
sg5
L135607470L
sg6
Nsg23
S'jnz'
p935
sg25
S'0x81534aeL'
p936
sg27
Nsbasg56
(lp937
Vmov eax, mem
p938
aVmov eax, mem
p939
aVmov mem, eax
p940
aVmov eax, mem
p941
aVmov mem, eax
p942
aVcall address
p943
aVmov edx, mem
p944
aVmov mem, eax
p945
aVmov eax, mem
p946
aVmov eax, mem
p947
ag927
aVjne address
p948
asg61
Nsg5
S'0x815348dL'
p949
sg63
(lp950
S'0x8153413L'
p951
aS'0x8153484L'
p952
asg6
Nsg65
(lp953
S'0x81534b0L'
p954
aS'0x81534c2L'
p955
asg69
Nsg70
Nsg71
S'5b16edea0e103db58971f90914399503'
p956
sg73
S'5d9a5f78de143c1f2ebf531e777f70a4'
p957
sg75
(lp958
g858
ag865
ag872
ag879
ag886
ag893
ag900
ag907
ag914
ag921
ag928
ag935
asg77
Nsba(ibclass
BBasicBlock
p959
(dp960
g12
Nsg13
(lp961
(ibclass
BInstr
p962
(dp963
g2
Nsg17
S'mov     eax, [ebp+ret]'
p964
sg19
S'8b45e8'
p965
sg21
Vmov eax, dword ptr [ebp - 0x18]
p966
sg5
L135607472L
sg6
Nsg23
S'mov'
p967
sg25
S'0x81534b0L'
p968
sg27
Nsba(ibclass
BInstr
p969
(dp970
g2
Nsg17
S'mov     eax, [eax+8]'
p971
sg19
S'8b4008'
p972
sg21
Vmov eax, dword ptr [eax + 8]
p973
sg5
L135607475L
sg6
Nsg23
S'mov'
p974
sg25
S'0x81534b3L'
p975
sg27
Nsba(ibclass
BInstr
p976
(dp977
g2
Nsg17
S'mov     byte ptr [eax], 0'
p978
sg19
S'c60000'
p979
sg21
Vmov byte ptr [eax], 0
p980
sg5
L135607478L
sg6
Nsg23
S'mov'
p981
sg25
S'0x81534b6L'
p982
sg27
Nsba(ibclass
BInstr
p983
(dp984
g2
Nsg17
S'mov     eax, [ebp+ret]'
p985
sg19
S'8b45e8'
p986
sg21
Vmov eax, dword ptr [ebp - 0x18]
p987
sg5
L135607481L
sg6
Nsg23
S'mov'
p988
sg25
S'0x81534b9L'
p989
sg27
Nsba(ibclass
BInstr
p990
(dp991
g2
Nsg17
S'mov     dword ptr [eax], 1'
p992
sg19
S'c70001000000'
p993
sg21
Vmov dword ptr [eax], 1
p994
sg5
L135607484L
sg6
Nsg23
S'mov'
p995
sg25
S'0x81534bcL'
p996
sg27
Nsbasg56
(lp997
Vmov eax, mem
p998
aVmov eax, mem
p999
aVmov mem, 0
p1000
aVmov eax, mem
p1001
aVmov mem, 1
p1002
asg61
Nsg5
S'0x81534b0L'
p1003
sg63
(lp1004
S'0x815348dL'
p1005
asg6
Nsg65
(lp1006
S'0x81534c2L'
p1007
asg69
Nsg70
Nsg71
S'ae5a3c1ff54dddd4f521c777c2633e70'
p1008
sg73
S'6205b88014958637f5decd020c1309e5'
p1009
sg75
(lp1010
g967
ag974
ag981
ag988
ag995
asg77
Nsba(ibclass
BBasicBlock
p1011
(dp1012
g12
Nsg13
(lp1013
(ibclass
BInstr
p1014
(dp1015
g2
Nsg17
S'mov     eax, [ebp+ret]'
p1016
sg19
S'8b45e8'
p1017
sg21
Vmov eax, dword ptr [ebp - 0x18]
p1018
sg5
L135607490L
sg6
Nsg23
S'mov'
p1019
sg25
S'0x81534c2L'
p1020
sg27
Nsba(ibclass
BInstr
p1021
(dp1022
g2
Nsg17
S'jmp     short locret_81534DF'
p1023
sg19
S'eb18'
p1024
sg21
Vjmp 0x1a
p1025
sg5
L135607493L
sg6
Nsg23
S'jmp'
p1026
sg25
S'0x81534c5L'
p1027
sg27
Nsbasg56
(lp1028
Vmov eax, mem
p1029
aVjmp address
p1030
asg61
Nsg5
S'0x81534c2L'
p1031
sg63
(lp1032
S'0x815348dL'
p1033
aS'0x81534b0L'
p1034
asg6
Nsg65
(lp1035
S'0x81534dfL'
p1036
asg69
Nsg70
Nsg71
S'8b9a0d40e062be2b9b2d9885108fb196'
p1037
sg73
S'5a5b261ba52a671a369af6372509eb2f'
p1038
sg75
(lp1039
g1019
ag1026
asg77
Nsba(ibclass
BBasicBlock
p1040
(dp1041
g12
Nsg13
(lp1042
(ibclass
BInstr
p1043
(dp1044
g2
Nsg17
S'mov     eax, [ebp+ret]'
p1045
sg19
S'8b45e8'
p1046
sg21
Vmov eax, dword ptr [ebp - 0x18]
p1047
sg5
L135607495L
sg6
Nsg23
S'mov'
p1048
sg25
S'0x81534c7L'
p1049
sg27
Nsba(ibclass
BInstr
p1050
(dp1051
g2
Nsg17
S'cmp     eax, [ebp+ai]'
p1052
sg19
S'3b450c'
p1053
sg21
Vcmp eax, dword ptr [ebp + 0xc]
p1054
sg5
L135607498L
sg6
Nsg23
S'cmp'
p1055
sg25
S'0x81534caL'
p1056
sg27
Nsba(ibclass
BInstr
p1057
(dp1058
g2
Nsg17
S'jz      short loc_81534DA'
p1059
sg19
S'740b'
p1060
sg21
Vje 0xd
p1061
sg5
L135607501L
sg6
Nsg23
S'jz'
p1062
sg25
S'0x81534cdL'
p1063
sg27
Nsbasg56
(lp1064
Vmov eax, mem
p1065
aVcmp eax, mem
p1066
aVje address
p1067
asg61
Nsg5
S'0x81534c7L'
p1068
sg63
(lp1069
S'0x815338fL'
p1070
aS'0x8153456L'
p1071
asg6
Nsg65
(lp1072
S'0x81534cfL'
p1073
aS'0x81534daL'
p1074
asg69
Nsg70
Nsg71
S'a243777572b9e90dbac56dca0e7de7ec'
p1075
sg73
S'3d266e2a95c4df4213c5f058e4ac0617'
p1076
sg75
(lp1077
g1048
ag1055
ag1062
asg77
Nsba(ibclass
BBasicBlock
p1078
(dp1079
g12
Nsg13
(lp1080
(ibclass
BInstr
p1081
(dp1082
g2
Nsg17
S'mov     eax, [ebp+ret]'
p1083
sg19
S'8b45e8'
p1084
sg21
Vmov eax, dword ptr [ebp - 0x18]
p1085
sg5
L135607503L
sg6
Nsg23
S'mov'
p1086
sg25
S'0x81534cfL'
p1087
sg27
Nsba(ibclass
BInstr
p1088
(dp1089
g2
Nsg17
S'mov     [esp], eax      ; a'
p1090
sg19
S'890424'
p1091
sg21
Vmov dword ptr [esp], eax
p1092
sg5
L135607506L
sg6
Nsg23
S'mov'
p1093
sg25
S'0x81534d2L'
p1094
sg27
Nsba(ibclass
BInstr
p1095
(dp1096
g2
Nsg17
S'call    ASN1_STRING_free'
p1097
sg19
S'e8c2260100'
p1098
sg21
Vcall 0x126c7
p1099
sg5
L135607509L
sg6
Nsg23
S'call'
p1100
sg25
S'0x81534d5L'
p1101
sg27
Nsbasg56
(lp1102
Vmov eax, mem
p1103
aVmov mem, eax
p1104
aVcall address
p1105
asg61
Nsg5
S'0x81534cfL'
p1106
sg63
(lp1107
S'0x81534c7L'
p1108
asg6
Nsg65
(lp1109
S'0x81534daL'
p1110
asg69
Nsg70
Nsg71
S'0bf1a79a6a1155c5085c1c85d6d83d05'
p1111
sg73
S'5af7f5bfd15310706e43fa164fed7a71'
p1112
sg75
(lp1113
g1086
ag1093
ag1100
asg77
Nsba(ibclass
BBasicBlock
p1114
(dp1115
g12
Nsg13
(lp1116
(ibclass
BInstr
p1117
(dp1118
g2
Nsg17
S'mov     eax, 0'
p1119
sg19
S'b800000000'
p1120
sg21
Vmov eax, 0
p1121
sg5
L135607514L
sg6
Nsg23
S'mov'
p1122
sg25
S'0x81534daL'
p1123
sg27
Nsbasg56
(lp1124
g1121
asg61
Nsg5
S'0x81534daL'
p1125
sg63
(lp1126
S'0x81534c7L'
p1127
aS'0x81534cfL'
p1128
asg6
Nsg65
(lp1129
S'0x81534dfL'
p1130
asg69
Nsg70
Nsg71
S'96a4a0e6e9ac88756a0fcba989d0a844'
p1131
sg73
S'4cfc99738161f190e0def2f4916ada38'
p1132
sg75
(lp1133
g1122
asg77
Nsba(ibclass
BBasicBlock
p1134
(dp1135
g12
Nsg13
(lp1136
(ibclass
BInstr
p1137
(dp1138
g2
Nsg17
S'leave'
p1139
sg19
S'c9'
p1140
sg21
Vleave 
p1141
sg5
L135607519L
sg6
Nsg23
S'leave'
p1142
sg25
S'0x81534dfL'
p1143
sg27
Nsba(ibclass
BInstr
p1144
(dp1145
g2
Nsg17
S'retn'
p1146
sg19
S'c3'
p1147
sg21
Vret 
p1148
sg5
L135607520L
sg6
Nsg23
S'retn'
p1149
sg25
S'0x81534e0L'
p1150
sg27
Nsbasg56
(lp1151
Vleave
p1152
aVret
p1153
asg61
Nsg5
S'0x81534dfL'
p1154
sg63
(lp1155
S'0x81534c2L'
p1156
aS'0x81534daL'
p1157
asg6
Nsg65
(lp1158
sg69
Nsg70
Nsg71
S'08c78f73a6f87c85da88b2982f54ce2a'
p1159
sg73
S'393fee3c9fb1d26424d4b7704918e387'
p1160
sg75
(lp1161
g1142
ag1149
asg77
Nsbasb.