(ibclass
BFunc
p0
(dp1
S'hash'
p2
NsS'name'
p3
S'DSA_verify'
p4
sS'start_address'
p5
L135445870L
sS'flag'
p6
NsS'program'
p7
NsS'bbs'
p8
(lp9
(ibclass
BBasicBlock
p10
(dp11
S'function'
p12
NsS'binstrs'
p13
(lp14
(ibclass
BInstr
p15
(dp16
g2
NsS'disasm'
p17
S'push    ebp'
p18
sS'bytes'
p19
S'55'
p20
sS'disasm_striped'
p21
Vpush ebp
p22
sg5
L135445870L
sg6
NsS'mnem'
p23
S'push'
p24
sS'address'
p25
S'0x812bd6eL'
p26
sS'basicblock'
p27
Nsba(ibclass
BInstr
p28
(dp29
g2
Nsg17
S'mov     ebp, esp'
p30
sg19
S'89e5'
p31
sg21
Vmov ebp, esp
p32
sg5
L135445871L
sg6
Nsg23
S'mov'
p33
sg25
S'0x812bd6fL'
p34
sg27
Nsba(ibclass
BInstr
p35
(dp36
g2
Nsg17
S'sub     esp, 38h'
p37
sg19
S'83ec38'
p38
sg21
Vsub esp, 0x38
p39
sg5
L135445873L
sg6
Nsg23
S'sub'
p40
sg25
S'0x812bd71L'
p41
sg27
Nsba(ibclass
BInstr
p42
(dp43
g2
Nsg17
S'mov     eax, [ebp+sigbuf]'
p44
sg19
S'8b4514'
p45
sg21
Vmov eax, dword ptr [ebp + 0x14]
p46
sg5
L135445876L
sg6
Nsg23
S'mov'
p47
sg25
S'0x812bd74L'
p48
sg27
Nsba(ibclass
BInstr
p49
(dp50
g2
Nsg17
S'mov     [ebp+p], eax'
p51
sg19
S'8945e8'
p52
sg21
Vmov dword ptr [ebp - 0x18], eax
p53
sg5
L135445879L
sg6
Nsg23
S'mov'
p54
sg25
S'0x812bd77L'
p55
sg27
Nsba(ibclass
BInstr
p56
(dp57
g2
Nsg17
S'mov     [ebp+der], 0'
p58
sg19
S'c745ec00000000'
p59
sg21
Vmov dword ptr [ebp - 0x14], 0
p60
sg5
L135445882L
sg6
Nsg23
S'mov'
p61
sg25
S'0x812bd7aL'
p62
sg27
Nsba(ibclass
BInstr
p63
(dp64
g2
Nsg17
S'mov     [ebp+derlen], 0FFFFFFFFh'
p65
sg19
S'c745f0ffffffff'
p66
sg21
Vmov dword ptr [ebp - 0x10], 0xffffffff
p67
sg5
L135445889L
sg6
Nsg23
S'mov'
p68
sg25
S'0x812bd81L'
p69
sg27
Nsba(ibclass
BInstr
p70
(dp71
g2
Nsg17
S'mov     [ebp+ret], 0FFFFFFFFh'
p72
sg19
S'c745f4ffffffff'
p73
sg21
Vmov dword ptr [ebp - 0xc], 0xffffffff
p74
sg5
L135445896L
sg6
Nsg23
S'mov'
p75
sg25
S'0x812bd88L'
p76
sg27
Nsba(ibclass
BInstr
p77
(dp78
g2
Nsg17
S'call    DSA_SIG_new'
p79
sg19
S'e844010000'
p80
sg21
Vcall 0x149
p81
sg5
L135445903L
sg6
Nsg23
S'call'
p82
sg25
S'0x812bd8fL'
p83
sg27
Nsba(ibclass
BInstr
p84
(dp85
g2
Nsg17
S'mov     [ebp+s], eax'
p86
sg19
S'8945e4'
p87
sg21
Vmov dword ptr [ebp - 0x1c], eax
p88
sg5
L135445908L
sg6
Nsg23
S'mov'
p89
sg25
S'0x812bd94L'
p90
sg27
Nsba(ibclass
BInstr
p91
(dp92
g2
Nsg17
S'mov     eax, [ebp+s]'
p93
sg19
S'8b45e4'
p94
sg21
Vmov eax, dword ptr [ebp - 0x1c]
p95
sg5
L135445911L
sg6
Nsg23
S'mov'
p96
sg25
S'0x812bd97L'
p97
sg27
Nsba(ibclass
BInstr
p98
(dp99
g2
Nsg17
S'test    eax, eax'
p100
sg19
S'85c0'
p101
sg21
Vtest eax, eax
p102
sg5
L135445914L
sg6
Nsg23
S'test'
p103
sg25
S'0x812bd9aL'
p104
sg27
Nsba(ibclass
BInstr
p105
(dp106
g2
Nsg17
S'jnz     short loc_812BDA6'
p107
sg19
S'7508'
p108
sg21
Vjne 0xa
p109
sg5
L135445916L
sg6
Nsg23
S'jnz'
p110
sg25
S'0x812bd9cL'
p111
sg27
NsbasS'disasm_list'
p112
(lp113
g22
ag32
aVsub esp, address
p114
aVmov eax, mem
p115
aVmov mem, eax
p116
aVmov mem, 0
p117
aVmov mem, address
p118
aVmov mem, address
p119
aVcall address
p120
aVmov mem, eax
p121
aVmov eax, mem
p122
ag102
aVjne address
p123
asS'end_address'
p124
Nsg5
S'0x812bd6eL'
p125
sS'preds'
p126
(lp127
sg6
NsS'succs'
p128
(lp129
S'0x812bd9eL'
p130
aS'0x812bda6L'
p131
asS'hash_v3'
p132
NsS'flag_v2'
p133
NsS'hash_v1'
p134
S'8c1c36bdc210a26ffe0994ce4672a690'
p135
sS'hash_v2'
p136
S'235906a903c51e8bed57ef0e59635475'
p137
sS'mnen_list'
p138
(lp139
g24
ag33
ag40
ag47
ag54
ag61
ag68
ag75
ag82
ag89
ag96
ag103
ag110
asS'neighbour_disasm_list'
p140
Nsba(ibclass
BBasicBlock
p141
(dp142
g12
Nsg13
(lp143
(ibclass
BInstr
p144
(dp145
g2
Nsg17
S'mov     eax, [ebp+ret]'
p146
sg19
S'8b45f4'
p147
sg21
Vmov eax, dword ptr [ebp - 0xc]
p148
sg5
L135445918L
sg6
Nsg23
S'mov'
p149
sg25
S'0x812bd9eL'
p150
sg27
Nsba(ibclass
BInstr
p151
(dp152
g2
Nsg17
S'jmp     locret_812BE53'
p153
sg19
S'e9ad000000'
p154
sg21
Vjmp 0xb2
p155
sg5
L135445921L
sg6
Nsg23
S'jmp'
p156
sg25
S'0x812bda1L'
p157
sg27
Nsbasg112
(lp158
Vmov eax, mem
p159
aVjmp address
p160
asg124
Nsg5
S'0x812bd9eL'
p161
sg126
(lp162
S'0x812bd6eL'
p163
asg6
Nsg128
(lp164
S'0x812be53L'
p165
asg132
Nsg133
Nsg134
S'8b9a0d40e062be2b9b2d9885108fb196'
p166
sg136
S'5a5b261ba52a671a369af6372509eb2f'
p167
sg138
(lp168
g149
ag156
asg140
Nsba(ibclass
BBasicBlock
p169
(dp170
g12
Nsg13
(lp171
(ibclass
BInstr
p172
(dp173
g2
Nsg17
S'mov     eax, [ebp+siglen]'
p174
sg19
S'8b4518'
p175
sg21
Vmov eax, dword ptr [ebp + 0x18]
p176
sg5
L135445926L
sg6
Nsg23
S'mov'
p177
sg25
S'0x812bda6L'
p178
sg27
Nsba(ibclass
BInstr
p179
(dp180
g2
Nsg17
S'mov     [esp+8], eax    ; len'
p181
sg19
S'89442408'
p182
sg21
Vmov dword ptr [esp + 8], eax
p183
sg5
L135445929L
sg6
Nsg23
S'mov'
p184
sg25
S'0x812bda9L'
p185
sg27
Nsba(ibclass
BInstr
p186
(dp187
g2
Nsg17
S'lea     eax, [ebp+p]'
p188
sg19
S'8d45e8'
p189
sg21
Vlea eax, [ebp - 0x18]
p190
sg5
L135445933L
sg6
Nsg23
S'lea'
p191
sg25
S'0x812bdadL'
p192
sg27
Nsba(ibclass
BInstr
p193
(dp194
g2
Nsg17
S'mov     [esp+4], eax    ; in'
p195
sg19
S'89442404'
p196
sg21
Vmov dword ptr [esp + 4], eax
p197
sg5
L135445936L
sg6
Nsg23
S'mov'
p198
sg25
S'0x812bdb0L'
p199
sg27
Nsba(ibclass
BInstr
p200
(dp201
g2
Nsg17
S'lea     eax, [ebp+s]'
p202
sg19
S'8d45e4'
p203
sg21
Vlea eax, [ebp - 0x1c]
p204
sg5
L135445940L
sg6
Nsg23
S'lea'
p205
sg25
S'0x812bdb4L'
p206
sg27
Nsba(ibclass
BInstr
p207
(dp208
g2
Nsg17
S'mov     [esp], eax      ; a'
p209
sg19
S'890424'
p210
sg21
Vmov dword ptr [esp], eax
p211
sg5
L135445943L
sg6
Nsg23
S'mov'
p212
sg25
S'0x812bdb7L'
p213
sg27
Nsba(ibclass
BInstr
p214
(dp215
g2
Nsg17
S'call    d2i_DSA_SIG'
p216
sg19
S'e89cfdffff'
p217
sg21
Vcall 0xfffffda1
p218
sg5
L135445946L
sg6
Nsg23
S'call'
p219
sg25
S'0x812bdbaL'
p220
sg27
Nsba(ibclass
BInstr
p221
(dp222
g2
Nsg17
S'test    eax, eax'
p223
sg19
S'85c0'
p224
sg21
Vtest eax, eax
p225
sg5
L135445951L
sg6
Nsg23
S'test'
p226
sg25
S'0x812bdbfL'
p227
sg27
Nsba(ibclass
BInstr
p228
(dp229
g2
Nsg17
S'jnz     short loc_812BDC5'
p230
sg19
S'7502'
p231
sg21
Vjne 4
p232
sg5
L135445953L
sg6
Nsg23
S'jnz'
p233
sg25
S'0x812bdc1L'
p234
sg27
Nsbasg112
(lp235
Vmov eax, mem
p236
aVmov mem, eax
p237
aVlea eax, mem
p238
aVmov mem, eax
p239
aVlea eax, mem
p240
aVmov mem, eax
p241
aVcall address
p242
ag225
ag232
asg124
Nsg5
S'0x812bda6L'
p243
sg126
(lp244
S'0x812bd6eL'
p245
asg6
Nsg128
(lp246
S'0x812bdc3L'
p247
aS'0x812bdc5L'
p248
asg132
Nsg133
Nsg134
S'08a371bb9682d9317542924077ea0970'
p249
sg136
S'd4e69f87e820b6324b40a98ae484591e'
p250
sg138
(lp251
g177
ag184
ag191
ag198
ag205
ag212
ag219
ag226
ag233
asg140
Nsba(ibclass
BBasicBlock
p252
(dp253
g12
Nsg13
(lp254
(ibclass
BInstr
p255
(dp256
g2
Nsg17
S'jmp     short err'
p257
sg19
S'eb5d'
p258
sg21
Vjmp 0x5f
p259
sg5
L135445955L
sg6
Nsg23
S'jmp'
p260
sg25
S'0x812bdc3L'
p261
sg27
Nsbasg112
(lp262
Vjmp address
p263
asg124
Nsg5
S'0x812bdc3L'
p264
sg126
(lp265
S'0x812bda6L'
p266
asg6
Nsg128
(lp267
S'0x812be22L'
p268
asg132
Nsg133
Nsg134
S'0ef6cf926f2f394b0cc8e11be8022625'
p269
sg136
S'd4372e4caa7348928655251605aa7329'
p270
sg138
(lp271
g260
asg140
Nsba(ibclass
BBasicBlock
p272
(dp273
g12
Nsg13
(lp274
(ibclass
BInstr
p275
(dp276
g2
Nsg17
S'mov     eax, [ebp+s]'
p277
sg19
S'8b45e4'
p278
sg21
Vmov eax, dword ptr [ebp - 0x1c]
p279
sg5
L135445957L
sg6
Nsg23
S'mov'
p280
sg25
S'0x812bdc5L'
p281
sg27
Nsba(ibclass
BInstr
p282
(dp283
g2
Nsg17
S'lea     edx, [ebp+der]'
p284
sg19
S'8d55ec'
p285
sg21
Vlea edx, [ebp - 0x14]
p286
sg5
L135445960L
sg6
Nsg23
S'lea'
p287
sg25
S'0x812bdc8L'
p288
sg27
Nsba(ibclass
BInstr
p289
(dp290
g2
Nsg17
S'mov     [esp+4], edx    ; out'
p291
sg19
S'89542404'
p292
sg21
Vmov dword ptr [esp + 4], edx
p293
sg5
L135445963L
sg6
Nsg23
S'mov'
p294
sg25
S'0x812bdcbL'
p295
sg27
Nsba(ibclass
BInstr
p296
(dp297
g2
Nsg17
S'mov     [esp], eax      ; a'
p298
sg19
S'890424'
p299
sg21
Vmov dword ptr [esp], eax
p300
sg5
L135445967L
sg6
Nsg23
S'mov'
p301
sg25
S'0x812bdcfL'
p302
sg27
Nsba(ibclass
BInstr
p303
(dp304
g2
Nsg17
S'call    i2d_DSA_SIG'
p305
sg19
S'e8adfdffff'
p306
sg21
Vcall 0xfffffdb2
p307
sg5
L135445970L
sg6
Nsg23
S'call'
p308
sg25
S'0x812bdd2L'
p309
sg27
Nsba(ibclass
BInstr
p310
(dp311
g2
Nsg17
S'mov     [ebp+derlen], eax'
p312
sg19
S'8945f0'
p313
sg21
Vmov dword ptr [ebp - 0x10], eax
p314
sg5
L135445975L
sg6
Nsg23
S'mov'
p315
sg25
S'0x812bdd7L'
p316
sg27
Nsba(ibclass
BInstr
p317
(dp318
g2
Nsg17
S'mov     eax, [ebp+derlen]'
p319
sg19
S'8b45f0'
p320
sg21
Vmov eax, dword ptr [ebp - 0x10]
p321
sg5
L135445978L
sg6
Nsg23
S'mov'
p322
sg25
S'0x812bddaL'
p323
sg27
Nsba(ibclass
BInstr
p324
(dp325
g2
Nsg17
S'cmp     eax, [ebp+siglen]'
p326
sg19
S'3b4518'
p327
sg21
Vcmp eax, dword ptr [ebp + 0x18]
p328
sg5
L135445981L
sg6
Nsg23
S'cmp'
p329
sg25
S'0x812bdddL'
p330
sg27
Nsba(ibclass
BInstr
p331
(dp332
g2
Nsg17
S'jnz     short err'
p333
sg19
S'7540'
p334
sg21
Vjne 0x42
p335
sg5
L135445984L
sg6
Nsg23
S'jnz'
p336
sg25
S'0x812bde0L'
p337
sg27
Nsbasg112
(lp338
Vmov eax, mem
p339
aVlea edx, mem
p340
aVmov mem, edx
p341
aVmov mem, eax
p342
aVcall address
p343
aVmov mem, eax
p344
aVmov eax, mem
p345
aVcmp eax, mem
p346
aVjne address
p347
asg124
Nsg5
S'0x812bdc5L'
p348
sg126
(lp349
S'0x812bda6L'
p350
asg6
Nsg128
(lp351
S'0x812bde2L'
p352
aS'0x812be22L'
p353
asg132
Nsg133
Nsg134
S'854b002e8bac881a443dda78b7cc0c17'
p354
sg136
S'b5ccbb539c3a436514dc53ac35b47d03'
p355
sg138
(lp356
g280
ag287
ag294
ag301
ag308
ag315
ag322
ag329
ag336
asg140
Nsba(ibclass
BBasicBlock
p357
(dp358
g12
Nsg13
(lp359
(ibclass
BInstr
p360
(dp361
g2
Nsg17
S'mov     edx, [ebp+derlen]'
p362
sg19
S'8b55f0'
p363
sg21
Vmov edx, dword ptr [ebp - 0x10]
p364
sg5
L135445986L
sg6
Nsg23
S'mov'
p365
sg25
S'0x812bde2L'
p366
sg27
Nsba(ibclass
BInstr
p367
(dp368
g2
Nsg17
S'mov     eax, [ebp+der]'
p369
sg19
S'8b45ec'
p370
sg21
Vmov eax, dword ptr [ebp - 0x14]
p371
sg5
L135445989L
sg6
Nsg23
S'mov'
p372
sg25
S'0x812bde5L'
p373
sg27
Nsba(ibclass
BInstr
p374
(dp375
g2
Nsg17
S'mov     [esp+8], edx    ; n'
p376
sg19
S'89542408'
p377
sg21
Vmov dword ptr [esp + 8], edx
p378
sg5
L135445992L
sg6
Nsg23
S'mov'
p379
sg25
S'0x812bde8L'
p380
sg27
Nsba(ibclass
BInstr
p381
(dp382
g2
Nsg17
S'mov     [esp+4], eax    ; s2'
p383
sg19
S'89442404'
p384
sg21
Vmov dword ptr [esp + 4], eax
p385
sg5
L135445996L
sg6
Nsg23
S'mov'
p386
sg25
S'0x812bdecL'
p387
sg27
Nsba(ibclass
BInstr
p388
(dp389
g2
Nsg17
S'mov     eax, [ebp+sigbuf]'
p390
sg19
S'8b4514'
p391
sg21
Vmov eax, dword ptr [ebp + 0x14]
p392
sg5
L135446000L
sg6
Nsg23
S'mov'
p393
sg25
S'0x812bdf0L'
p394
sg27
Nsba(ibclass
BInstr
p395
(dp396
g2
Nsg17
S'mov     [esp], eax      ; s1'
p397
sg19
S'890424'
p398
sg21
Vmov dword ptr [esp], eax
p399
sg5
L135446003L
sg6
Nsg23
S'mov'
p400
sg25
S'0x812bdf3L'
p401
sg27
Nsba(ibclass
BInstr
p402
(dp403
g2
Nsg17
S'call    _memcmp'
p404
sg19
S'e815d8f1ff'
p405
sg21
Vcall 0xfff1d81a
p406
sg5
L135446006L
sg6
Nsg23
S'call'
p407
sg25
S'0x812bdf6L'
p408
sg27
Nsba(ibclass
BInstr
p409
(dp410
g2
Nsg17
S'test    eax, eax'
p411
sg19
S'85c0'
p412
sg21
Vtest eax, eax
p413
sg5
L135446011L
sg6
Nsg23
S'test'
p414
sg25
S'0x812bdfbL'
p415
sg27
Nsba(ibclass
BInstr
p416
(dp417
g2
Nsg17
S'jnz     short err'
p418
sg19
S'7523'
p419
sg21
Vjne 0x25
p420
sg5
L135446013L
sg6
Nsg23
S'jnz'
p421
sg25
S'0x812bdfdL'
p422
sg27
Nsbasg112
(lp423
Vmov edx, mem
p424
aVmov eax, mem
p425
aVmov mem, edx
p426
aVmov mem, eax
p427
aVmov eax, mem
p428
aVmov mem, eax
p429
aVcall address
p430
ag413
aVjne address
p431
asg124
Nsg5
S'0x812bde2L'
p432
sg126
(lp433
S'0x812bdc5L'
p434
asg6
Nsg128
(lp435
S'0x812bdffL'
p436
aS'0x812be22L'
p437
asg132
Nsg133
Nsg134
S'379cb55b5a4edf7dd29b5971ca4e0dd7'
p438
sg136
S'39a1f89cb62e9da15a62f7f3dda23949'
p439
sg138
(lp440
g365
ag372
ag379
ag386
ag393
ag400
ag407
ag414
ag421
asg140
Nsba(ibclass
BBasicBlock
p441
(dp442
g12
Nsg13
(lp443
(ibclass
BInstr
p444
(dp445
g2
Nsg17
S'mov     eax, [ebp+s]'
p446
sg19
S'8b45e4'
p447
sg21
Vmov eax, dword ptr [ebp - 0x1c]
p448
sg5
L135446015L
sg6
Nsg23
S'mov'
p449
sg25
S'0x812bdffL'
p450
sg27
Nsba(ibclass
BInstr
p451
(dp452
g2
Nsg17
S'mov     edx, [ebp+dsa]'
p453
sg19
S'8b551c'
p454
sg21
Vmov edx, dword ptr [ebp + 0x1c]
p455
sg5
L135446018L
sg6
Nsg23
S'mov'
p456
sg25
S'0x812be02L'
p457
sg27
Nsba(ibclass
BInstr
p458
(dp459
g2
Nsg17
S'mov     [esp+0Ch], edx  ; dsa'
p460
sg19
S'8954240c'
p461
sg21
Vmov dword ptr [esp + 0xc], edx
p462
sg5
L135446021L
sg6
Nsg23
S'mov'
p463
sg25
S'0x812be05L'
p464
sg27
Nsba(ibclass
BInstr
p465
(dp466
g2
Nsg17
S'mov     [esp+8], eax    ; sig'
p467
sg19
S'89442408'
p468
sg21
Vmov dword ptr [esp + 8], eax
p469
sg5
L135446025L
sg6
Nsg23
S'mov'
p470
sg25
S'0x812be09L'
p471
sg27
Nsba(ibclass
BInstr
p472
(dp473
g2
Nsg17
S'mov     eax, [ebp+dgst_len]'
p474
sg19
S'8b4510'
p475
sg21
Vmov eax, dword ptr [ebp + 0x10]
p476
sg5
L135446029L
sg6
Nsg23
S'mov'
p477
sg25
S'0x812be0dL'
p478
sg27
Nsba(ibclass
BInstr
p479
(dp480
g2
Nsg17
S'mov     [esp+4], eax    ; dgst_len'
p481
sg19
S'89442404'
p482
sg21
Vmov dword ptr [esp + 4], eax
p483
sg5
L135446032L
sg6
Nsg23
S'mov'
p484
sg25
S'0x812be10L'
p485
sg27
Nsba(ibclass
BInstr
p486
(dp487
g2
Nsg17
S'mov     eax, [ebp+dgst]'
p488
sg19
S'8b450c'
p489
sg21
Vmov eax, dword ptr [ebp + 0xc]
p490
sg5
L135446036L
sg6
Nsg23
S'mov'
p491
sg25
S'0x812be14L'
p492
sg27
Nsba(ibclass
BInstr
p493
(dp494
g2
Nsg17
S'mov     [esp], eax      ; dgst'
p495
sg19
S'890424'
p496
sg21
Vmov dword ptr [esp], eax
p497
sg5
L135446039L
sg6
Nsg23
S'mov'
p498
sg25
S'0x812be17L'
p499
sg27
Nsba(ibclass
BInstr
p500
(dp501
g2
Nsg17
S'call    DSA_do_verify'
p502
sg19
S'e836000000'
p503
sg21
Vcall 0x3b
p504
sg5
L135446042L
sg6
Nsg23
S'call'
p505
sg25
S'0x812be1aL'
p506
sg27
Nsba(ibclass
BInstr
p507
(dp508
g2
Nsg17
S'mov     [ebp+ret], eax'
p509
sg19
S'8945f4'
p510
sg21
Vmov dword ptr [ebp - 0xc], eax
p511
sg5
L135446047L
sg6
Nsg23
S'mov'
p512
sg25
S'0x812be1fL'
p513
sg27
Nsbasg112
(lp514
Vmov eax, mem
p515
aVmov edx, mem
p516
aVmov mem, edx
p517
aVmov mem, eax
p518
aVmov eax, mem
p519
aVmov mem, eax
p520
aVmov eax, mem
p521
aVmov mem, eax
p522
aVcall address
p523
aVmov mem, eax
p524
asg124
Nsg5
S'0x812bdffL'
p525
sg126
(lp526
S'0x812bde2L'
p527
asg6
Nsg128
(lp528
S'0x812be22L'
p529
asg132
Nsg133
Nsg134
S'5304871f43eb6abe7b383ab9a489fac3'
p530
sg136
S'75ace854285f8df65455c7413ee4f717'
p531
sg138
(lp532
g449
ag456
ag463
ag470
ag477
ag484
ag491
ag498
ag505
ag512
asg140
Nsba(ibclass
BBasicBlock
p533
(dp534
g12
Nsg13
(lp535
(ibclass
BInstr
p536
(dp537
g2
Nsg17
S'cmp     [ebp+derlen], 0'
p538
sg19
S'837df000'
p539
sg21
Vcmp dword ptr [ebp - 0x10], 0
p540
sg5
L135446050L
sg6
Nsg23
S'cmp'
p541
sg25
S'0x812be22L'
p542
sg27
Nsba(ibclass
BInstr
p543
(dp544
g2
Nsg17
S'jle     short loc_812BE45'
p545
sg19
S'7e1d'
p546
sg21
Vjle 0x1f
p547
sg5
L135446054L
sg6
Nsg23
S'jle'
p548
sg25
S'0x812be26L'
p549
sg27
Nsbasg112
(lp550
Vcmp mem, 0
p551
aVjle address
p552
asg124
Nsg5
S'0x812be22L'
p553
sg126
(lp554
S'0x812bdc3L'
p555
aS'0x812bdc5L'
p556
aS'0x812bde2L'
p557
aS'0x812bdffL'
p558
asg6
Nsg128
(lp559
S'0x812be28L'
p560
aS'0x812be45L'
p561
asg132
Nsg133
Nsg134
S'0bc4bf9881c1ed8eb91420cf78755dd7'
p562
sg136
S'46a6a157e94f5fd0bffebc79c3ee2489'
p563
sg138
(lp564
g541
ag548
asg140
Nsba(ibclass
BBasicBlock
p565
(dp566
g12
Nsg13
(lp567
(ibclass
BInstr
p568
(dp569
g2
Nsg17
S'mov     edx, [ebp+derlen]'
p570
sg19
S'8b55f0'
p571
sg21
Vmov edx, dword ptr [ebp - 0x10]
p572
sg5
L135446056L
sg6
Nsg23
S'mov'
p573
sg25
S'0x812be28L'
p574
sg27
Nsba(ibclass
BInstr
p575
(dp576
g2
Nsg17
S'mov     eax, [ebp+der]'
p577
sg19
S'8b45ec'
p578
sg21
Vmov eax, dword ptr [ebp - 0x14]
p579
sg5
L135446059L
sg6
Nsg23
S'mov'
p580
sg25
S'0x812be2bL'
p581
sg27
Nsba(ibclass
BInstr
p582
(dp583
g2
Nsg17
S'mov     [esp+4], edx'
p584
sg19
S'89542404'
p585
sg21
Vmov dword ptr [esp + 4], edx
p586
sg5
L135446062L
sg6
Nsg23
S'mov'
p587
sg25
S'0x812be2eL'
p588
sg27
Nsba(ibclass
BInstr
p589
(dp590
g2
Nsg17
S'mov     [esp], eax'
p591
sg19
S'890424'
p592
sg21
Vmov dword ptr [esp], eax
p593
sg5
L135446066L
sg6
Nsg23
S'mov'
p594
sg25
S'0x812be32L'
p595
sg27
Nsba(ibclass
BInstr
p596
(dp597
g2
Nsg17
S'call    OPENSSL_cleanse'
p598
sg19
S'e846effbff'
p599
sg21
Vcall 0xfffbef4b
p600
sg5
L135446069L
sg6
Nsg23
S'call'
p601
sg25
S'0x812be35L'
p602
sg27
Nsba(ibclass
BInstr
p603
(dp604
g2
Nsg17
S'mov     eax, [ebp+der]'
p605
sg19
S'8b45ec'
p606
sg21
Vmov eax, dword ptr [ebp - 0x14]
p607
sg5
L135446074L
sg6
Nsg23
S'mov'
p608
sg25
S'0x812be3aL'
p609
sg27
Nsba(ibclass
BInstr
p610
(dp611
g2
Nsg17
S'mov     [esp], eax      ; str'
p612
sg19
S'890424'
p613
sg21
Vmov dword ptr [esp], eax
p614
sg5
L135446077L
sg6
Nsg23
S'mov'
p615
sg25
S'0x812be3dL'
p616
sg27
Nsba(ibclass
BInstr
p617
(dp618
g2
Nsg17
S'call    CRYPTO_free'
p619
sg19
S'e80ec9fbff'
p620
sg21
Vcall 0xfffbc913
p621
sg5
L135446080L
sg6
Nsg23
S'call'
p622
sg25
S'0x812be40L'
p623
sg27
Nsbasg112
(lp624
Vmov edx, mem
p625
aVmov eax, mem
p626
aVmov mem, edx
p627
aVmov mem, eax
p628
aVcall address
p629
aVmov eax, mem
p630
aVmov mem, eax
p631
aVcall address
p632
asg124
Nsg5
S'0x812be28L'
p633
sg126
(lp634
S'0x812be22L'
p635
asg6
Nsg128
(lp636
S'0x812be45L'
p637
asg132
Nsg133
Nsg134
S'8af8de68910b2e4ef9e9e3f2c735a773'
p638
sg136
S'6093e5e874e9da52e8149a256c2cc673'
p639
sg138
(lp640
g573
ag580
ag587
ag594
ag601
ag608
ag615
ag622
asg140
Nsba(ibclass
BBasicBlock
p641
(dp642
g12
Nsg13
(lp643
(ibclass
BInstr
p644
(dp645
g2
Nsg17
S'mov     eax, [ebp+s]'
p646
sg19
S'8b45e4'
p647
sg21
Vmov eax, dword ptr [ebp - 0x1c]
p648
sg5
L135446085L
sg6
Nsg23
S'mov'
p649
sg25
S'0x812be45L'
p650
sg27
Nsba(ibclass
BInstr
p651
(dp652
g2
Nsg17
S'mov     [esp], eax      ; sig'
p653
sg19
S'890424'
p654
sg21
Vmov dword ptr [esp], eax
p655
sg5
L135446088L
sg6
Nsg23
S'mov'
p656
sg25
S'0x812be48L'
p657
sg27
Nsba(ibclass
BInstr
p658
(dp659
g2
Nsg17
S'call    DSA_SIG_free'
p660
sg19
S'e8d2000000'
p661
sg21
Vcall 0xd7
p662
sg5
L135446091L
sg6
Nsg23
S'call'
p663
sg25
S'0x812be4bL'
p664
sg27
Nsba(ibclass
BInstr
p665
(dp666
g2
Nsg17
S'mov     eax, [ebp+ret]'
p667
sg19
S'8b45f4'
p668
sg21
Vmov eax, dword ptr [ebp - 0xc]
p669
sg5
L135446096L
sg6
Nsg23
S'mov'
p670
sg25
S'0x812be50L'
p671
sg27
Nsbasg112
(lp672
Vmov eax, mem
p673
aVmov mem, eax
p674
aVcall address
p675
aVmov eax, mem
p676
asg124
Nsg5
S'0x812be45L'
p677
sg126
(lp678
S'0x812be22L'
p679
aS'0x812be28L'
p680
asg6
Nsg128
(lp681
S'0x812be53L'
p682
asg132
Nsg133
Nsg134
S'a6abb5d9994936d83c79ed1f9957ba18'
p683
sg136
S'dc3c10d568df11b0f851ad0e836859d8'
p684
sg138
(lp685
g649
ag656
ag663
ag670
asg140
Nsba(ibclass
BBasicBlock
p686
(dp687
g12
Nsg13
(lp688
(ibclass
BInstr
p689
(dp690
g2
Nsg17
S'leave'
p691
sg19
S'c9'
p692
sg21
Vleave 
p693
sg5
L135446099L
sg6
Nsg23
S'leave'
p694
sg25
S'0x812be53L'
p695
sg27
Nsba(ibclass
BInstr
p696
(dp697
g2
Nsg17
S'retn'
p698
sg19
S'c3'
p699
sg21
Vret 
p700
sg5
L135446100L
sg6
Nsg23
S'retn'
p701
sg25
S'0x812be54L'
p702
sg27
Nsbasg112
(lp703
Vleave
p704
aVret
p705
asg124
Nsg5
S'0x812be53L'
p706
sg126
(lp707
S'0x812bd9eL'
p708
aS'0x812be45L'
p709
asg6
Nsg128
(lp710
sg132
Nsg133
Nsg134
S'08c78f73a6f87c85da88b2982f54ce2a'
p711
sg136
S'393fee3c9fb1d26424d4b7704918e387'
p712
sg138
(lp713
g694
ag701
asg140
Nsbasb.