(ibclass
BFunc
p0
(dp1
S'hash'
p2
NsS'name'
p3
S'dtls1_clear_queues'
p4
sS'start_address'
p5
L135050721L
sS'flag'
p6
NsS'program'
p7
NsS'bbs'
p8
(lp9
(ibclass
BBasicBlock
p10
(dp11
S'function'
p12
NsS'binstrs'
p13
(lp14
(ibclass
BInstr
p15
(dp16
g2
NsS'disasm'
p17
S'push    ebp'
p18
sS'bytes'
p19
S'55'
p20
sS'disasm_striped'
p21
Vpush ebp
p22
sg5
L135050721L
sg6
NsS'mnem'
p23
S'push'
p24
sS'address'
p25
S'0x80cb5e1L'
p26
sS'basicblock'
p27
Nsba(ibclass
BInstr
p28
(dp29
g2
Nsg17
S'mov     ebp, esp'
p30
sg19
S'89e5'
p31
sg21
Vmov ebp, esp
p32
sg5
L135050722L
sg6
Nsg23
S'mov'
p33
sg25
S'0x80cb5e2L'
p34
sg27
Nsba(ibclass
BInstr
p35
(dp36
g2
Nsg17
S'sub     esp, 28h'
p37
sg19
S'83ec28'
p38
sg21
Vsub esp, 0x28
p39
sg5
L135050724L
sg6
Nsg23
S'sub'
p40
sg25
S'0x80cb5e4L'
p41
sg27
Nsba(ibclass
BInstr
p42
(dp43
g2
Nsg17
S'mov     [ebp+item], 0'
p44
sg19
S'c745ec00000000'
p45
sg21
Vmov dword ptr [ebp - 0x14], 0
p46
sg5
L135050727L
sg6
Nsg23
S'mov'
p47
sg25
S'0x80cb5e7L'
p48
sg27
Nsba(ibclass
BInstr
p49
(dp50
g2
Nsg17
S'mov     [ebp+frag], 0'
p51
sg19
S'c745f000000000'
p52
sg21
Vmov dword ptr [ebp - 0x10], 0
p53
sg5
L135050734L
sg6
Nsg23
S'mov'
p54
sg25
S'0x80cb5eeL'
p55
sg27
Nsba(ibclass
BInstr
p56
(dp57
g2
Nsg17
S'jmp     short loc_80CB631'
p58
sg19
S'eb3a'
p59
sg21
Vjmp 0x3c
p60
sg5
L135050741L
sg6
Nsg23
S'jmp'
p61
sg25
S'0x80cb5f5L'
p62
sg27
NsbasS'disasm_list'
p63
(lp64
g22
ag32
aVsub esp, address
p65
aVmov mem, 0
p66
aVmov mem, 0
p67
aVjmp address
p68
asS'end_address'
p69
Nsg5
S'0x80cb5e1L'
p70
sS'preds'
p71
(lp72
sg6
NsS'succs'
p73
(lp74
S'0x80cb631L'
p75
asS'hash_v3'
p76
NsS'flag_v2'
p77
NsS'hash_v1'
p78
S'a0b4d0153a2aa975514692bec7dc978e'
p79
sS'hash_v2'
p80
S'2ea9a97dd9219e0d974845dd166fec2b'
p81
sS'mnen_list'
p82
(lp83
g24
ag33
ag40
ag47
ag54
ag61
asS'neighbour_disasm_list'
p84
Nsba(ibclass
BBasicBlock
p85
(dp86
g12
Nsg13
(lp87
(ibclass
BInstr
p88
(dp89
g2
Nsg17
S'mov     eax, [ebp+item]'
p90
sg19
S'8b45ec'
p91
sg21
Vmov eax, dword ptr [ebp - 0x14]
p92
sg5
L135050743L
sg6
Nsg23
S'mov'
p93
sg25
S'0x80cb5f7L'
p94
sg27
Nsba(ibclass
BInstr
p95
(dp96
g2
Nsg17
S'mov     eax, [eax+8]'
p97
sg19
S'8b4008'
p98
sg21
Vmov eax, dword ptr [eax + 8]
p99
sg5
L135050746L
sg6
Nsg23
S'mov'
p100
sg25
S'0x80cb5faL'
p101
sg27
Nsba(ibclass
BInstr
p102
(dp103
g2
Nsg17
S'mov     [ebp+rdata], eax'
p104
sg19
S'8945f4'
p105
sg21
Vmov dword ptr [ebp - 0xc], eax
p106
sg5
L135050749L
sg6
Nsg23
S'mov'
p107
sg25
S'0x80cb5fdL'
p108
sg27
Nsba(ibclass
BInstr
p109
(dp110
g2
Nsg17
S'mov     eax, [ebp+rdata]'
p111
sg19
S'8b45f4'
p112
sg21
Vmov eax, dword ptr [ebp - 0xc]
p113
sg5
L135050752L
sg6
Nsg23
S'mov'
p114
sg25
S'0x80cb600L'
p115
sg27
Nsba(ibclass
BInstr
p116
(dp117
g2
Nsg17
S'mov     eax, [eax+8]'
p118
sg19
S'8b4008'
p119
sg21
Vmov eax, dword ptr [eax + 8]
p120
sg5
L135050755L
sg6
Nsg23
S'mov'
p121
sg25
S'0x80cb603L'
p122
sg27
Nsba(ibclass
BInstr
p123
(dp124
g2
Nsg17
S'test    eax, eax'
p125
sg19
S'85c0'
p126
sg21
Vtest eax, eax
p127
sg5
L135050758L
sg6
Nsg23
S'test'
p128
sg25
S'0x80cb606L'
p129
sg27
Nsba(ibclass
BInstr
p130
(dp131
g2
Nsg17
S'jz      short loc_80CB618'
p132
sg19
S'740e'
p133
sg21
Vje 0x10
p134
sg5
L135050760L
sg6
Nsg23
S'jz'
p135
sg25
S'0x80cb608L'
p136
sg27
Nsbasg63
(lp137
Vmov eax, mem
p138
aVmov eax, mem
p139
aVmov mem, eax
p140
aVmov eax, mem
p141
aVmov eax, mem
p142
ag127
aVje address
p143
asg69
Nsg5
S'0x80cb5f7L'
p144
sg71
(lp145
S'0x80cb631L'
p146
asg6
Nsg73
(lp147
S'0x80cb60aL'
p148
aS'0x80cb618L'
p149
asg76
Nsg77
Nsg78
S'96e64819b2f34d45b7db4c67f1219daf'
p150
sg80
S'f14f6397cb72e64e76d0d8f3e13fd350'
p151
sg82
(lp152
g93
ag100
ag107
ag114
ag121
ag128
ag135
asg84
Nsba(ibclass
BBasicBlock
p153
(dp154
g12
Nsg13
(lp155
(ibclass
BInstr
p156
(dp157
g2
Nsg17
S'mov     eax, [ebp+rdata]'
p158
sg19
S'8b45f4'
p159
sg21
Vmov eax, dword ptr [ebp - 0xc]
p160
sg5
L135050762L
sg6
Nsg23
S'mov'
p161
sg25
S'0x80cb60aL'
p162
sg27
Nsba(ibclass
BInstr
p163
(dp164
g2
Nsg17
S'mov     eax, [eax+8]'
p165
sg19
S'8b4008'
p166
sg21
Vmov eax, dword ptr [eax + 8]
p167
sg5
L135050765L
sg6
Nsg23
S'mov'
p168
sg25
S'0x80cb60dL'
p169
sg27
Nsba(ibclass
BInstr
p170
(dp171
g2
Nsg17
S'mov     [esp], eax      ; str'
p172
sg19
S'890424'
p173
sg21
Vmov dword ptr [esp], eax
p174
sg5
L135050768L
sg6
Nsg23
S'mov'
p175
sg25
S'0x80cb610L'
p176
sg27
Nsba(ibclass
BInstr
p177
(dp178
g2
Nsg17
S'call    CRYPTO_free'
p179
sg19
S'e83bd10100'
p180
sg21
Vcall 0x1d140
p181
sg5
L135050771L
sg6
Nsg23
S'call'
p182
sg25
S'0x80cb613L'
p183
sg27
Nsbasg63
(lp184
Vmov eax, mem
p185
aVmov eax, mem
p186
aVmov mem, eax
p187
aVcall address
p188
asg69
Nsg5
S'0x80cb60aL'
p189
sg71
(lp190
S'0x80cb5f7L'
p191
asg6
Nsg73
(lp192
S'0x80cb618L'
p193
asg76
Nsg77
Nsg78
S'e233a80004971487a8cda28e21c9f5ef'
p194
sg80
S'aa359b6218411f2f012047a2f405e78d'
p195
sg82
(lp196
g161
ag168
ag175
ag182
asg84
Nsba(ibclass
BBasicBlock
p197
(dp198
g12
Nsg13
(lp199
(ibclass
BInstr
p200
(dp201
g2
Nsg17
S'mov     eax, [ebp+item]'
p202
sg19
S'8b45ec'
p203
sg21
Vmov eax, dword ptr [ebp - 0x14]
p204
sg5
L135050776L
sg6
Nsg23
S'mov'
p205
sg25
S'0x80cb618L'
p206
sg27
Nsba(ibclass
BInstr
p207
(dp208
g2
Nsg17
S'mov     eax, [eax+8]'
p209
sg19
S'8b4008'
p210
sg21
Vmov eax, dword ptr [eax + 8]
p211
sg5
L135050779L
sg6
Nsg23
S'mov'
p212
sg25
S'0x80cb61bL'
p213
sg27
Nsba(ibclass
BInstr
p214
(dp215
g2
Nsg17
S'mov     [esp], eax      ; str'
p216
sg19
S'890424'
p217
sg21
Vmov dword ptr [esp], eax
p218
sg5
L135050782L
sg6
Nsg23
S'mov'
p219
sg25
S'0x80cb61eL'
p220
sg27
Nsba(ibclass
BInstr
p221
(dp222
g2
Nsg17
S'call    CRYPTO_free'
p223
sg19
S'e82dd10100'
p224
sg21
Vcall 0x1d132
p225
sg5
L135050785L
sg6
Nsg23
S'call'
p226
sg25
S'0x80cb621L'
p227
sg27
Nsba(ibclass
BInstr
p228
(dp229
g2
Nsg17
S'mov     eax, [ebp+item]'
p230
sg19
S'8b45ec'
p231
sg21
Vmov eax, dword ptr [ebp - 0x14]
p232
sg5
L135050790L
sg6
Nsg23
S'mov'
p233
sg25
S'0x80cb626L'
p234
sg27
Nsba(ibclass
BInstr
p235
(dp236
g2
Nsg17
S'mov     [esp], eax      ; item'
p237
sg19
S'890424'
p238
sg21
Vmov dword ptr [esp], eax
p239
sg5
L135050793L
sg6
Nsg23
S'mov'
p240
sg25
S'0x80cb629L'
p241
sg27
Nsba(ibclass
BInstr
p242
(dp243
g2
Nsg17
S'call    pitem_free'
p244
sg19
S'e842a10d00'
p245
sg21
Vcall 0xda147
p246
sg5
L135050796L
sg6
Nsg23
S'call'
p247
sg25
S'0x80cb62cL'
p248
sg27
Nsbasg63
(lp249
Vmov eax, mem
p250
aVmov eax, mem
p251
aVmov mem, eax
p252
aVcall address
p253
aVmov eax, mem
p254
aVmov mem, eax
p255
aVcall address
p256
asg69
Nsg5
S'0x80cb618L'
p257
sg71
(lp258
S'0x80cb5f7L'
p259
aS'0x80cb60aL'
p260
asg6
Nsg73
(lp261
S'0x80cb631L'
p262
asg76
Nsg77
Nsg78
S'81778711e0b84e697d5313036153efa4'
p263
sg80
S'1fc05b23d3e90abc2e59731a93c63a76'
p264
sg82
(lp265
g205
ag212
ag219
ag226
ag233
ag240
ag247
asg84
Nsba(ibclass
BBasicBlock
p266
(dp267
g12
Nsg13
(lp268
(ibclass
BInstr
p269
(dp270
g2
Nsg17
S'mov     eax, [ebp+s]'
p271
sg19
S'8b4508'
p272
sg21
Vmov eax, dword ptr [ebp + 8]
p273
sg5
L135050801L
sg6
Nsg23
S'mov'
p274
sg25
S'0x80cb631L'
p275
sg27
Nsba(ibclass
BInstr
p276
(dp277
g2
Nsg17
S'mov     eax, [eax+5Ch]'
p278
sg19
S'8b405c'
p279
sg21
Vmov eax, dword ptr [eax + 0x5c]
p280
sg5
L135050804L
sg6
Nsg23
S'mov'
p281
sg25
S'0x80cb634L'
p282
sg27
Nsba(ibclass
BInstr
p283
(dp284
g2
Nsg17
S'mov     eax, [eax+238h]'
p285
sg19
S'8b8038020000'
p286
sg21
Vmov eax, dword ptr [eax + 0x238]
p287
sg5
L135050807L
sg6
Nsg23
S'mov'
p288
sg25
S'0x80cb637L'
p289
sg27
Nsba(ibclass
BInstr
p290
(dp291
g2
Nsg17
S'mov     [esp], eax      ; pq'
p292
sg19
S'890424'
p293
sg21
Vmov dword ptr [esp], eax
p294
sg5
L135050813L
sg6
Nsg23
S'mov'
p295
sg25
S'0x80cb63dL'
p296
sg27
Nsba(ibclass
BInstr
p297
(dp298
g2
Nsg17
S'call    pqueue_pop'
p299
sg19
S'e874a20d00'
p300
sg21
Vcall 0xda279
p301
sg5
L135050816L
sg6
Nsg23
S'call'
p302
sg25
S'0x80cb640L'
p303
sg27
Nsba(ibclass
BInstr
p304
(dp305
g2
Nsg17
S'mov     [ebp+item], eax'
p306
sg19
S'8945ec'
p307
sg21
Vmov dword ptr [ebp - 0x14], eax
p308
sg5
L135050821L
sg6
Nsg23
S'mov'
p309
sg25
S'0x80cb645L'
p310
sg27
Nsba(ibclass
BInstr
p311
(dp312
g2
Nsg17
S'cmp     [ebp+item], 0'
p313
sg19
S'837dec00'
p314
sg21
Vcmp dword ptr [ebp - 0x14], 0
p315
sg5
L135050824L
sg6
Nsg23
S'cmp'
p316
sg25
S'0x80cb648L'
p317
sg27
Nsba(ibclass
BInstr
p318
(dp319
g2
Nsg17
S'jnz     short loc_80CB5F7'
p320
sg19
S'75a9'
p321
sg21
Vjne 0xffffffab
p322
sg5
L135050828L
sg6
Nsg23
S'jnz'
p323
sg25
S'0x80cb64cL'
p324
sg27
Nsbasg63
(lp325
Vmov eax, mem
p326
aVmov eax, mem
p327
aVmov eax, mem
p328
aVmov mem, eax
p329
aVcall address
p330
aVmov mem, eax
p331
aVcmp mem, 0
p332
aVjne address
p333
asg69
Nsg5
S'0x80cb631L'
p334
sg71
(lp335
S'0x80cb5e1L'
p336
aS'0x80cb618L'
p337
asg6
Nsg73
(lp338
S'0x80cb5f7L'
p339
aS'0x80cb64eL'
p340
asg76
Nsg77
Nsg78
S'2b39bfef1fedfd86ab8d49d877d9ac11'
p341
sg80
S'f40c6b3c4b279513d04e65696a62194f'
p342
sg82
(lp343
g274
ag281
ag288
ag295
ag302
ag309
ag316
ag323
asg84
Nsba(ibclass
BBasicBlock
p344
(dp345
g12
Nsg13
(lp346
(ibclass
BInstr
p347
(dp348
g2
Nsg17
S'jmp     short loc_80CB68A'
p349
sg19
S'eb3a'
p350
sg21
Vjmp 0x3c
p351
sg5
L135050830L
sg6
Nsg23
S'jmp'
p352
sg25
S'0x80cb64eL'
p353
sg27
Nsbasg63
(lp354
Vjmp address
p355
asg69
Nsg5
S'0x80cb64eL'
p356
sg71
(lp357
S'0x80cb631L'
p358
asg6
Nsg73
(lp359
S'0x80cb68aL'
p360
asg76
Nsg77
Nsg78
S'0ef6cf926f2f394b0cc8e11be8022625'
p361
sg80
S'd4372e4caa7348928655251605aa7329'
p362
sg82
(lp363
g352
asg84
Nsba(ibclass
BBasicBlock
p364
(dp365
g12
Nsg13
(lp366
(ibclass
BInstr
p367
(dp368
g2
Nsg17
S'mov     eax, [ebp+item]'
p369
sg19
S'8b45ec'
p370
sg21
Vmov eax, dword ptr [ebp - 0x14]
p371
sg5
L135050832L
sg6
Nsg23
S'mov'
p372
sg25
S'0x80cb650L'
p373
sg27
Nsba(ibclass
BInstr
p374
(dp375
g2
Nsg17
S'mov     eax, [eax+8]'
p376
sg19
S'8b4008'
p377
sg21
Vmov eax, dword ptr [eax + 8]
p378
sg5
L135050835L
sg6
Nsg23
S'mov'
p379
sg25
S'0x80cb653L'
p380
sg27
Nsba(ibclass
BInstr
p381
(dp382
g2
Nsg17
S'mov     [ebp+rdata], eax'
p383
sg19
S'8945f4'
p384
sg21
Vmov dword ptr [ebp - 0xc], eax
p385
sg5
L135050838L
sg6
Nsg23
S'mov'
p386
sg25
S'0x80cb656L'
p387
sg27
Nsba(ibclass
BInstr
p388
(dp389
g2
Nsg17
S'mov     eax, [ebp+rdata]'
p390
sg19
S'8b45f4'
p391
sg21
Vmov eax, dword ptr [ebp - 0xc]
p392
sg5
L135050841L
sg6
Nsg23
S'mov'
p393
sg25
S'0x80cb659L'
p394
sg27
Nsba(ibclass
BInstr
p395
(dp396
g2
Nsg17
S'mov     eax, [eax+8]'
p397
sg19
S'8b4008'
p398
sg21
Vmov eax, dword ptr [eax + 8]
p399
sg5
L135050844L
sg6
Nsg23
S'mov'
p400
sg25
S'0x80cb65cL'
p401
sg27
Nsba(ibclass
BInstr
p402
(dp403
g2
Nsg17
S'test    eax, eax'
p404
sg19
S'85c0'
p405
sg21
Vtest eax, eax
p406
sg5
L135050847L
sg6
Nsg23
S'test'
p407
sg25
S'0x80cb65fL'
p408
sg27
Nsba(ibclass
BInstr
p409
(dp410
g2
Nsg17
S'jz      short loc_80CB671'
p411
sg19
S'740e'
p412
sg21
Vje 0x10
p413
sg5
L135050849L
sg6
Nsg23
S'jz'
p414
sg25
S'0x80cb661L'
p415
sg27
Nsbasg63
(lp416
Vmov eax, mem
p417
aVmov eax, mem
p418
aVmov mem, eax
p419
aVmov eax, mem
p420
aVmov eax, mem
p421
ag406
aVje address
p422
asg69
Nsg5
S'0x80cb650L'
p423
sg71
(lp424
S'0x80cb68aL'
p425
asg6
Nsg73
(lp426
S'0x80cb663L'
p427
aS'0x80cb671L'
p428
asg76
Nsg77
Nsg78
S'96e64819b2f34d45b7db4c67f1219daf'
p429
sg80
S'f14f6397cb72e64e76d0d8f3e13fd350'
p430
sg82
(lp431
g372
ag379
ag386
ag393
ag400
ag407
ag414
asg84
Nsba(ibclass
BBasicBlock
p432
(dp433
g12
Nsg13
(lp434
(ibclass
BInstr
p435
(dp436
g2
Nsg17
S'mov     eax, [ebp+rdata]'
p437
sg19
S'8b45f4'
p438
sg21
Vmov eax, dword ptr [ebp - 0xc]
p439
sg5
L135050851L
sg6
Nsg23
S'mov'
p440
sg25
S'0x80cb663L'
p441
sg27
Nsba(ibclass
BInstr
p442
(dp443
g2
Nsg17
S'mov     eax, [eax+8]'
p444
sg19
S'8b4008'
p445
sg21
Vmov eax, dword ptr [eax + 8]
p446
sg5
L135050854L
sg6
Nsg23
S'mov'
p447
sg25
S'0x80cb666L'
p448
sg27
Nsba(ibclass
BInstr
p449
(dp450
g2
Nsg17
S'mov     [esp], eax      ; str'
p451
sg19
S'890424'
p452
sg21
Vmov dword ptr [esp], eax
p453
sg5
L135050857L
sg6
Nsg23
S'mov'
p454
sg25
S'0x80cb669L'
p455
sg27
Nsba(ibclass
BInstr
p456
(dp457
g2
Nsg17
S'call    CRYPTO_free'
p458
sg19
S'e8e2d00100'
p459
sg21
Vcall 0x1d0e7
p460
sg5
L135050860L
sg6
Nsg23
S'call'
p461
sg25
S'0x80cb66cL'
p462
sg27
Nsbasg63
(lp463
Vmov eax, mem
p464
aVmov eax, mem
p465
aVmov mem, eax
p466
aVcall address
p467
asg69
Nsg5
S'0x80cb663L'
p468
sg71
(lp469
S'0x80cb650L'
p470
asg6
Nsg73
(lp471
S'0x80cb671L'
p472
asg76
Nsg77
Nsg78
S'e233a80004971487a8cda28e21c9f5ef'
p473
sg80
S'aa359b6218411f2f012047a2f405e78d'
p474
sg82
(lp475
g440
ag447
ag454
ag461
asg84
Nsba(ibclass
BBasicBlock
p476
(dp477
g12
Nsg13
(lp478
(ibclass
BInstr
p479
(dp480
g2
Nsg17
S'mov     eax, [ebp+item]'
p481
sg19
S'8b45ec'
p482
sg21
Vmov eax, dword ptr [ebp - 0x14]
p483
sg5
L135050865L
sg6
Nsg23
S'mov'
p484
sg25
S'0x80cb671L'
p485
sg27
Nsba(ibclass
BInstr
p486
(dp487
g2
Nsg17
S'mov     eax, [eax+8]'
p488
sg19
S'8b4008'
p489
sg21
Vmov eax, dword ptr [eax + 8]
p490
sg5
L135050868L
sg6
Nsg23
S'mov'
p491
sg25
S'0x80cb674L'
p492
sg27
Nsba(ibclass
BInstr
p493
(dp494
g2
Nsg17
S'mov     [esp], eax      ; str'
p495
sg19
S'890424'
p496
sg21
Vmov dword ptr [esp], eax
p497
sg5
L135050871L
sg6
Nsg23
S'mov'
p498
sg25
S'0x80cb677L'
p499
sg27
Nsba(ibclass
BInstr
p500
(dp501
g2
Nsg17
S'call    CRYPTO_free'
p502
sg19
S'e8d4d00100'
p503
sg21
Vcall 0x1d0d9
p504
sg5
L135050874L
sg6
Nsg23
S'call'
p505
sg25
S'0x80cb67aL'
p506
sg27
Nsba(ibclass
BInstr
p507
(dp508
g2
Nsg17
S'mov     eax, [ebp+item]'
p509
sg19
S'8b45ec'
p510
sg21
Vmov eax, dword ptr [ebp - 0x14]
p511
sg5
L135050879L
sg6
Nsg23
S'mov'
p512
sg25
S'0x80cb67fL'
p513
sg27
Nsba(ibclass
BInstr
p514
(dp515
g2
Nsg17
S'mov     [esp], eax      ; item'
p516
sg19
S'890424'
p517
sg21
Vmov dword ptr [esp], eax
p518
sg5
L135050882L
sg6
Nsg23
S'mov'
p519
sg25
S'0x80cb682L'
p520
sg27
Nsba(ibclass
BInstr
p521
(dp522
g2
Nsg17
S'call    pitem_free'
p523
sg19
S'e8e9a00d00'
p524
sg21
Vcall 0xda0ee
p525
sg5
L135050885L
sg6
Nsg23
S'call'
p526
sg25
S'0x80cb685L'
p527
sg27
Nsbasg63
(lp528
Vmov eax, mem
p529
aVmov eax, mem
p530
aVmov mem, eax
p531
aVcall address
p532
aVmov eax, mem
p533
aVmov mem, eax
p534
aVcall address
p535
asg69
Nsg5
S'0x80cb671L'
p536
sg71
(lp537
S'0x80cb650L'
p538
aS'0x80cb663L'
p539
asg6
Nsg73
(lp540
S'0x80cb68aL'
p541
asg76
Nsg77
Nsg78
S'81778711e0b84e697d5313036153efa4'
p542
sg80
S'1fc05b23d3e90abc2e59731a93c63a76'
p543
sg82
(lp544
g484
ag491
ag498
ag505
ag512
ag519
ag526
asg84
Nsba(ibclass
BBasicBlock
p545
(dp546
g12
Nsg13
(lp547
(ibclass
BInstr
p548
(dp549
g2
Nsg17
S'mov     eax, [ebp+s]'
p550
sg19
S'8b4508'
p551
sg21
Vmov eax, dword ptr [ebp + 8]
p552
sg5
L135050890L
sg6
Nsg23
S'mov'
p553
sg25
S'0x80cb68aL'
p554
sg27
Nsba(ibclass
BInstr
p555
(dp556
g2
Nsg17
S'mov     eax, [eax+5Ch]'
p557
sg19
S'8b405c'
p558
sg21
Vmov eax, dword ptr [eax + 0x5c]
p559
sg5
L135050893L
sg6
Nsg23
S'mov'
p560
sg25
S'0x80cb68dL'
p561
sg27
Nsba(ibclass
BInstr
p562
(dp563
g2
Nsg17
S'mov     eax, [eax+240h]'
p564
sg19
S'8b8040020000'
p565
sg21
Vmov eax, dword ptr [eax + 0x240]
p566
sg5
L135050896L
sg6
Nsg23
S'mov'
p567
sg25
S'0x80cb690L'
p568
sg27
Nsba(ibclass
BInstr
p569
(dp570
g2
Nsg17
S'mov     [esp], eax      ; pq'
p571
sg19
S'890424'
p572
sg21
Vmov dword ptr [esp], eax
p573
sg5
L135050902L
sg6
Nsg23
S'mov'
p574
sg25
S'0x80cb696L'
p575
sg27
Nsba(ibclass
BInstr
p576
(dp577
g2
Nsg17
S'call    pqueue_pop'
p578
sg19
S'e81ba20d00'
p579
sg21
Vcall 0xda220
p580
sg5
L135050905L
sg6
Nsg23
S'call'
p581
sg25
S'0x80cb699L'
p582
sg27
Nsba(ibclass
BInstr
p583
(dp584
g2
Nsg17
S'mov     [ebp+item], eax'
p585
sg19
S'8945ec'
p586
sg21
Vmov dword ptr [ebp - 0x14], eax
p587
sg5
L135050910L
sg6
Nsg23
S'mov'
p588
sg25
S'0x80cb69eL'
p589
sg27
Nsba(ibclass
BInstr
p590
(dp591
g2
Nsg17
S'cmp     [ebp+item], 0'
p592
sg19
S'837dec00'
p593
sg21
Vcmp dword ptr [ebp - 0x14], 0
p594
sg5
L135050913L
sg6
Nsg23
S'cmp'
p595
sg25
S'0x80cb6a1L'
p596
sg27
Nsba(ibclass
BInstr
p597
(dp598
g2
Nsg17
S'jnz     short loc_80CB650'
p599
sg19
S'75a9'
p600
sg21
Vjne 0xffffffab
p601
sg5
L135050917L
sg6
Nsg23
S'jnz'
p602
sg25
S'0x80cb6a5L'
p603
sg27
Nsbasg63
(lp604
Vmov eax, mem
p605
aVmov eax, mem
p606
aVmov eax, mem
p607
aVmov mem, eax
p608
aVcall address
p609
aVmov mem, eax
p610
aVcmp mem, 0
p611
aVjne address
p612
asg69
Nsg5
S'0x80cb68aL'
p613
sg71
(lp614
S'0x80cb64eL'
p615
aS'0x80cb671L'
p616
asg6
Nsg73
(lp617
S'0x80cb650L'
p618
aS'0x80cb6a7L'
p619
asg76
Nsg77
Nsg78
S'2b39bfef1fedfd86ab8d49d877d9ac11'
p620
sg80
S'f40c6b3c4b279513d04e65696a62194f'
p621
sg82
(lp622
g553
ag560
ag567
ag574
ag581
ag588
ag595
ag602
asg84
Nsba(ibclass
BBasicBlock
p623
(dp624
g12
Nsg13
(lp625
(ibclass
BInstr
p626
(dp627
g2
Nsg17
S'jmp     short loc_80CB6C8'
p628
sg19
S'eb1f'
p629
sg21
Vjmp 0x21
p630
sg5
L135050919L
sg6
Nsg23
S'jmp'
p631
sg25
S'0x80cb6a7L'
p632
sg27
Nsbasg63
(lp633
Vjmp address
p634
asg69
Nsg5
S'0x80cb6a7L'
p635
sg71
(lp636
S'0x80cb68aL'
p637
asg6
Nsg73
(lp638
S'0x80cb6c8L'
p639
asg76
Nsg77
Nsg78
S'0ef6cf926f2f394b0cc8e11be8022625'
p640
sg80
S'd4372e4caa7348928655251605aa7329'
p641
sg82
(lp642
g631
asg84
Nsba(ibclass
BBasicBlock
p643
(dp644
g12
Nsg13
(lp645
(ibclass
BInstr
p646
(dp647
g2
Nsg17
S'mov     eax, [ebp+item]'
p648
sg19
S'8b45ec'
p649
sg21
Vmov eax, dword ptr [ebp - 0x14]
p650
sg5
L135050921L
sg6
Nsg23
S'mov'
p651
sg25
S'0x80cb6a9L'
p652
sg27
Nsba(ibclass
BInstr
p653
(dp654
g2
Nsg17
S'mov     eax, [eax+8]'
p655
sg19
S'8b4008'
p656
sg21
Vmov eax, dword ptr [eax + 8]
p657
sg5
L135050924L
sg6
Nsg23
S'mov'
p658
sg25
S'0x80cb6acL'
p659
sg27
Nsba(ibclass
BInstr
p660
(dp661
g2
Nsg17
S'mov     [ebp+frag], eax'
p662
sg19
S'8945f0'
p663
sg21
Vmov dword ptr [ebp - 0x10], eax
p664
sg5
L135050927L
sg6
Nsg23
S'mov'
p665
sg25
S'0x80cb6afL'
p666
sg27
Nsba(ibclass
BInstr
p667
(dp668
g2
Nsg17
S'mov     eax, [ebp+frag]'
p669
sg19
S'8b45f0'
p670
sg21
Vmov eax, dword ptr [ebp - 0x10]
p671
sg5
L135050930L
sg6
Nsg23
S'mov'
p672
sg25
S'0x80cb6b2L'
p673
sg27
Nsba(ibclass
BInstr
p674
(dp675
g2
Nsg17
S'mov     [esp], eax      ; frag'
p676
sg19
S'890424'
p677
sg21
Vmov dword ptr [esp], eax
p678
sg5
L135050933L
sg6
Nsg23
S'mov'
p679
sg25
S'0x80cb6b5L'
p680
sg27
Nsba(ibclass
BInstr
p681
(dp682
g2
Nsg17
S'call    dtls1_hm_fragment_free'
p683
sg19
S'e8fd350000'
p684
sg21
Vcall 0x3602
p685
sg5
L135050936L
sg6
Nsg23
S'call'
p686
sg25
S'0x80cb6b8L'
p687
sg27
Nsba(ibclass
BInstr
p688
(dp689
g2
Nsg17
S'mov     eax, [ebp+item]'
p690
sg19
S'8b45ec'
p691
sg21
Vmov eax, dword ptr [ebp - 0x14]
p692
sg5
L135050941L
sg6
Nsg23
S'mov'
p693
sg25
S'0x80cb6bdL'
p694
sg27
Nsba(ibclass
BInstr
p695
(dp696
g2
Nsg17
S'mov     [esp], eax      ; item'
p697
sg19
S'890424'
p698
sg21
Vmov dword ptr [esp], eax
p699
sg5
L135050944L
sg6
Nsg23
S'mov'
p700
sg25
S'0x80cb6c0L'
p701
sg27
Nsba(ibclass
BInstr
p702
(dp703
g2
Nsg17
S'call    pitem_free'
p704
sg19
S'e8aba00d00'
p705
sg21
Vcall 0xda0b0
p706
sg5
L135050947L
sg6
Nsg23
S'call'
p707
sg25
S'0x80cb6c3L'
p708
sg27
Nsbasg63
(lp709
Vmov eax, mem
p710
aVmov eax, mem
p711
aVmov mem, eax
p712
aVmov eax, mem
p713
aVmov mem, eax
p714
aVcall address
p715
aVmov eax, mem
p716
aVmov mem, eax
p717
aVcall address
p718
asg69
Nsg5
S'0x80cb6a9L'
p719
sg71
(lp720
S'0x80cb6c8L'
p721
asg6
Nsg73
(lp722
S'0x80cb6c8L'
p723
asg76
Nsg77
Nsg78
S'40091402c5010cbc6577d6cf5f53d40d'
p724
sg80
S'1f4066d5ff901a2e35dd99f362c4b436'
p725
sg82
(lp726
g651
ag658
ag665
ag672
ag679
ag686
ag693
ag700
ag707
asg84
Nsba(ibclass
BBasicBlock
p727
(dp728
g12
Nsg13
(lp729
(ibclass
BInstr
p730
(dp731
g2
Nsg17
S'mov     eax, [ebp+s]'
p732
sg19
S'8b4508'
p733
sg21
Vmov eax, dword ptr [ebp + 8]
p734
sg5
L135050952L
sg6
Nsg23
S'mov'
p735
sg25
S'0x80cb6c8L'
p736
sg27
Nsba(ibclass
BInstr
p737
(dp738
g2
Nsg17
S'mov     eax, [eax+5Ch]'
p739
sg19
S'8b405c'
p740
sg21
Vmov eax, dword ptr [eax + 0x5c]
p741
sg5
L135050955L
sg6
Nsg23
S'mov'
p742
sg25
S'0x80cb6cbL'
p743
sg27
Nsba(ibclass
BInstr
p744
(dp745
g2
Nsg17
S'mov     eax, [eax+244h]'
p746
sg19
S'8b8044020000'
p747
sg21
Vmov eax, dword ptr [eax + 0x244]
p748
sg5
L135050958L
sg6
Nsg23
S'mov'
p749
sg25
S'0x80cb6ceL'
p750
sg27
Nsba(ibclass
BInstr
p751
(dp752
g2
Nsg17
S'mov     [esp], eax      ; pq'
p753
sg19
S'890424'
p754
sg21
Vmov dword ptr [esp], eax
p755
sg5
L135050964L
sg6
Nsg23
S'mov'
p756
sg25
S'0x80cb6d4L'
p757
sg27
Nsba(ibclass
BInstr
p758
(dp759
g2
Nsg17
S'call    pqueue_pop'
p760
sg19
S'e8dda10d00'
p761
sg21
Vcall 0xda1e2
p762
sg5
L135050967L
sg6
Nsg23
S'call'
p763
sg25
S'0x80cb6d7L'
p764
sg27
Nsba(ibclass
BInstr
p765
(dp766
g2
Nsg17
S'mov     [ebp+item], eax'
p767
sg19
S'8945ec'
p768
sg21
Vmov dword ptr [ebp - 0x14], eax
p769
sg5
L135050972L
sg6
Nsg23
S'mov'
p770
sg25
S'0x80cb6dcL'
p771
sg27
Nsba(ibclass
BInstr
p772
(dp773
g2
Nsg17
S'cmp     [ebp+item], 0'
p774
sg19
S'837dec00'
p775
sg21
Vcmp dword ptr [ebp - 0x14], 0
p776
sg5
L135050975L
sg6
Nsg23
S'cmp'
p777
sg25
S'0x80cb6dfL'
p778
sg27
Nsba(ibclass
BInstr
p779
(dp780
g2
Nsg17
S'jnz     short loc_80CB6A9'
p781
sg19
S'75c4'
p782
sg21
Vjne 0xffffffc6
p783
sg5
L135050979L
sg6
Nsg23
S'jnz'
p784
sg25
S'0x80cb6e3L'
p785
sg27
Nsbasg63
(lp786
Vmov eax, mem
p787
aVmov eax, mem
p788
aVmov eax, mem
p789
aVmov mem, eax
p790
aVcall address
p791
aVmov mem, eax
p792
aVcmp mem, 0
p793
aVjne address
p794
asg69
Nsg5
S'0x80cb6c8L'
p795
sg71
(lp796
S'0x80cb6a7L'
p797
aS'0x80cb6a9L'
p798
asg6
Nsg73
(lp799
S'0x80cb6a9L'
p800
aS'0x80cb6e5L'
p801
asg76
Nsg77
Nsg78
S'2b39bfef1fedfd86ab8d49d877d9ac11'
p802
sg80
S'f40c6b3c4b279513d04e65696a62194f'
p803
sg82
(lp804
g735
ag742
ag749
ag756
ag763
ag770
ag777
ag784
asg84
Nsba(ibclass
BBasicBlock
p805
(dp806
g12
Nsg13
(lp807
(ibclass
BInstr
p808
(dp809
g2
Nsg17
S'jmp     short loc_80CB706'
p810
sg19
S'eb1f'
p811
sg21
Vjmp 0x21
p812
sg5
L135050981L
sg6
Nsg23
S'jmp'
p813
sg25
S'0x80cb6e5L'
p814
sg27
Nsbasg63
(lp815
Vjmp address
p816
asg69
Nsg5
S'0x80cb6e5L'
p817
sg71
(lp818
S'0x80cb6c8L'
p819
asg6
Nsg73
(lp820
S'0x80cb706L'
p821
asg76
Nsg77
Nsg78
S'0ef6cf926f2f394b0cc8e11be8022625'
p822
sg80
S'd4372e4caa7348928655251605aa7329'
p823
sg82
(lp824
g813
asg84
Nsba(ibclass
BBasicBlock
p825
(dp826
g12
Nsg13
(lp827
(ibclass
BInstr
p828
(dp829
g2
Nsg17
S'mov     eax, [ebp+item]'
p830
sg19
S'8b45ec'
p831
sg21
Vmov eax, dword ptr [ebp - 0x14]
p832
sg5
L135050983L
sg6
Nsg23
S'mov'
p833
sg25
S'0x80cb6e7L'
p834
sg27
Nsba(ibclass
BInstr
p835
(dp836
g2
Nsg17
S'mov     eax, [eax+8]'
p837
sg19
S'8b4008'
p838
sg21
Vmov eax, dword ptr [eax + 8]
p839
sg5
L135050986L
sg6
Nsg23
S'mov'
p840
sg25
S'0x80cb6eaL'
p841
sg27
Nsba(ibclass
BInstr
p842
(dp843
g2
Nsg17
S'mov     [ebp+frag], eax'
p844
sg19
S'8945f0'
p845
sg21
Vmov dword ptr [ebp - 0x10], eax
p846
sg5
L135050989L
sg6
Nsg23
S'mov'
p847
sg25
S'0x80cb6edL'
p848
sg27
Nsba(ibclass
BInstr
p849
(dp850
g2
Nsg17
S'mov     eax, [ebp+frag]'
p851
sg19
S'8b45f0'
p852
sg21
Vmov eax, dword ptr [ebp - 0x10]
p853
sg5
L135050992L
sg6
Nsg23
S'mov'
p854
sg25
S'0x80cb6f0L'
p855
sg27
Nsba(ibclass
BInstr
p856
(dp857
g2
Nsg17
S'mov     [esp], eax      ; frag'
p858
sg19
S'890424'
p859
sg21
Vmov dword ptr [esp], eax
p860
sg5
L135050995L
sg6
Nsg23
S'mov'
p861
sg25
S'0x80cb6f3L'
p862
sg27
Nsba(ibclass
BInstr
p863
(dp864
g2
Nsg17
S'call    dtls1_hm_fragment_free'
p865
sg19
S'e8bf350000'
p866
sg21
Vcall 0x35c4
p867
sg5
L135050998L
sg6
Nsg23
S'call'
p868
sg25
S'0x80cb6f6L'
p869
sg27
Nsba(ibclass
BInstr
p870
(dp871
g2
Nsg17
S'mov     eax, [ebp+item]'
p872
sg19
S'8b45ec'
p873
sg21
Vmov eax, dword ptr [ebp - 0x14]
p874
sg5
L135051003L
sg6
Nsg23
S'mov'
p875
sg25
S'0x80cb6fbL'
p876
sg27
Nsba(ibclass
BInstr
p877
(dp878
g2
Nsg17
S'mov     [esp], eax      ; item'
p879
sg19
S'890424'
p880
sg21
Vmov dword ptr [esp], eax
p881
sg5
L135051006L
sg6
Nsg23
S'mov'
p882
sg25
S'0x80cb6feL'
p883
sg27
Nsba(ibclass
BInstr
p884
(dp885
g2
Nsg17
S'call    pitem_free'
p886
sg19
S'e86da00d00'
p887
sg21
Vcall 0xda072
p888
sg5
L135051009L
sg6
Nsg23
S'call'
p889
sg25
S'0x80cb701L'
p890
sg27
Nsbasg63
(lp891
Vmov eax, mem
p892
aVmov eax, mem
p893
aVmov mem, eax
p894
aVmov eax, mem
p895
aVmov mem, eax
p896
aVcall address
p897
aVmov eax, mem
p898
aVmov mem, eax
p899
aVcall address
p900
asg69
Nsg5
S'0x80cb6e7L'
p901
sg71
(lp902
S'0x80cb706L'
p903
asg6
Nsg73
(lp904
S'0x80cb706L'
p905
asg76
Nsg77
Nsg78
S'40091402c5010cbc6577d6cf5f53d40d'
p906
sg80
S'1f4066d5ff901a2e35dd99f362c4b436'
p907
sg82
(lp908
g833
ag840
ag847
ag854
ag861
ag868
ag875
ag882
ag889
asg84
Nsba(ibclass
BBasicBlock
p909
(dp910
g12
Nsg13
(lp911
(ibclass
BInstr
p912
(dp913
g2
Nsg17
S'mov     eax, [ebp+s]'
p914
sg19
S'8b4508'
p915
sg21
Vmov eax, dword ptr [ebp + 8]
p916
sg5
L135051014L
sg6
Nsg23
S'mov'
p917
sg25
S'0x80cb706L'
p918
sg27
Nsba(ibclass
BInstr
p919
(dp920
g2
Nsg17
S'mov     eax, [eax+5Ch]'
p921
sg19
S'8b405c'
p922
sg21
Vmov eax, dword ptr [eax + 0x5c]
p923
sg5
L135051017L
sg6
Nsg23
S'mov'
p924
sg25
S'0x80cb709L'
p925
sg27
Nsba(ibclass
BInstr
p926
(dp927
g2
Nsg17
S'mov     eax, [eax+248h]'
p928
sg19
S'8b8048020000'
p929
sg21
Vmov eax, dword ptr [eax + 0x248]
p930
sg5
L135051020L
sg6
Nsg23
S'mov'
p931
sg25
S'0x80cb70cL'
p932
sg27
Nsba(ibclass
BInstr
p933
(dp934
g2
Nsg17
S'mov     [esp], eax      ; pq'
p935
sg19
S'890424'
p936
sg21
Vmov dword ptr [esp], eax
p937
sg5
L135051026L
sg6
Nsg23
S'mov'
p938
sg25
S'0x80cb712L'
p939
sg27
Nsba(ibclass
BInstr
p940
(dp941
g2
Nsg17
S'call    pqueue_pop'
p942
sg19
S'e89fa10d00'
p943
sg21
Vcall 0xda1a4
p944
sg5
L135051029L
sg6
Nsg23
S'call'
p945
sg25
S'0x80cb715L'
p946
sg27
Nsba(ibclass
BInstr
p947
(dp948
g2
Nsg17
S'mov     [ebp+item], eax'
p949
sg19
S'8945ec'
p950
sg21
Vmov dword ptr [ebp - 0x14], eax
p951
sg5
L135051034L
sg6
Nsg23
S'mov'
p952
sg25
S'0x80cb71aL'
p953
sg27
Nsba(ibclass
BInstr
p954
(dp955
g2
Nsg17
S'cmp     [ebp+item], 0'
p956
sg19
S'837dec00'
p957
sg21
Vcmp dword ptr [ebp - 0x14], 0
p958
sg5
L135051037L
sg6
Nsg23
S'cmp'
p959
sg25
S'0x80cb71dL'
p960
sg27
Nsba(ibclass
BInstr
p961
(dp962
g2
Nsg17
S'jnz     short loc_80CB6E7'
p963
sg19
S'75c4'
p964
sg21
Vjne 0xffffffc6
p965
sg5
L135051041L
sg6
Nsg23
S'jnz'
p966
sg25
S'0x80cb721L'
p967
sg27
Nsbasg63
(lp968
Vmov eax, mem
p969
aVmov eax, mem
p970
aVmov eax, mem
p971
aVmov mem, eax
p972
aVcall address
p973
aVmov mem, eax
p974
aVcmp mem, 0
p975
aVjne address
p976
asg69
Nsg5
S'0x80cb706L'
p977
sg71
(lp978
S'0x80cb6e5L'
p979
aS'0x80cb6e7L'
p980
asg6
Nsg73
(lp981
S'0x80cb6e7L'
p982
aS'0x80cb723L'
p983
asg76
Nsg77
Nsg78
S'2b39bfef1fedfd86ab8d49d877d9ac11'
p984
sg80
S'f40c6b3c4b279513d04e65696a62194f'
p985
sg82
(lp986
g917
ag924
ag931
ag938
ag945
ag952
ag959
ag966
asg84
Nsba(ibclass
BBasicBlock
p987
(dp988
g12
Nsg13
(lp989
(ibclass
BInstr
p990
(dp991
g2
Nsg17
S'jmp     short loc_80CB75F'
p992
sg19
S'eb3a'
p993
sg21
Vjmp 0x3c
p994
sg5
L135051043L
sg6
Nsg23
S'jmp'
p995
sg25
S'0x80cb723L'
p996
sg27
Nsbasg63
(lp997
Vjmp address
p998
asg69
Nsg5
S'0x80cb723L'
p999
sg71
(lp1000
S'0x80cb706L'
p1001
asg6
Nsg73
(lp1002
S'0x80cb75fL'
p1003
asg76
Nsg77
Nsg78
S'0ef6cf926f2f394b0cc8e11be8022625'
p1004
sg80
S'd4372e4caa7348928655251605aa7329'
p1005
sg82
(lp1006
g995
asg84
Nsba(ibclass
BBasicBlock
p1007
(dp1008
g12
Nsg13
(lp1009
(ibclass
BInstr
p1010
(dp1011
g2
Nsg17
S'mov     eax, [ebp+item]'
p1012
sg19
S'8b45ec'
p1013
sg21
Vmov eax, dword ptr [ebp - 0x14]
p1014
sg5
L135051045L
sg6
Nsg23
S'mov'
p1015
sg25
S'0x80cb725L'
p1016
sg27
Nsba(ibclass
BInstr
p1017
(dp1018
g2
Nsg17
S'mov     eax, [eax+8]'
p1019
sg19
S'8b4008'
p1020
sg21
Vmov eax, dword ptr [eax + 8]
p1021
sg5
L135051048L
sg6
Nsg23
S'mov'
p1022
sg25
S'0x80cb728L'
p1023
sg27
Nsba(ibclass
BInstr
p1024
(dp1025
g2
Nsg17
S'mov     [ebp+rdata], eax'
p1026
sg19
S'8945f4'
p1027
sg21
Vmov dword ptr [ebp - 0xc], eax
p1028
sg5
L135051051L
sg6
Nsg23
S'mov'
p1029
sg25
S'0x80cb72bL'
p1030
sg27
Nsba(ibclass
BInstr
p1031
(dp1032
g2
Nsg17
S'mov     eax, [ebp+rdata]'
p1033
sg19
S'8b45f4'
p1034
sg21
Vmov eax, dword ptr [ebp - 0xc]
p1035
sg5
L135051054L
sg6
Nsg23
S'mov'
p1036
sg25
S'0x80cb72eL'
p1037
sg27
Nsba(ibclass
BInstr
p1038
(dp1039
g2
Nsg17
S'mov     eax, [eax+8]'
p1040
sg19
S'8b4008'
p1041
sg21
Vmov eax, dword ptr [eax + 8]
p1042
sg5
L135051057L
sg6
Nsg23
S'mov'
p1043
sg25
S'0x80cb731L'
p1044
sg27
Nsba(ibclass
BInstr
p1045
(dp1046
g2
Nsg17
S'test    eax, eax'
p1047
sg19
S'85c0'
p1048
sg21
Vtest eax, eax
p1049
sg5
L135051060L
sg6
Nsg23
S'test'
p1050
sg25
S'0x80cb734L'
p1051
sg27
Nsba(ibclass
BInstr
p1052
(dp1053
g2
Nsg17
S'jz      short loc_80CB746'
p1054
sg19
S'740e'
p1055
sg21
Vje 0x10
p1056
sg5
L135051062L
sg6
Nsg23
S'jz'
p1057
sg25
S'0x80cb736L'
p1058
sg27
Nsbasg63
(lp1059
Vmov eax, mem
p1060
aVmov eax, mem
p1061
aVmov mem, eax
p1062
aVmov eax, mem
p1063
aVmov eax, mem
p1064
ag1049
aVje address
p1065
asg69
Nsg5
S'0x80cb725L'
p1066
sg71
(lp1067
S'0x80cb75fL'
p1068
asg6
Nsg73
(lp1069
S'0x80cb738L'
p1070
aS'0x80cb746L'
p1071
asg76
Nsg77
Nsg78
S'96e64819b2f34d45b7db4c67f1219daf'
p1072
sg80
S'f14f6397cb72e64e76d0d8f3e13fd350'
p1073
sg82
(lp1074
g1015
ag1022
ag1029
ag1036
ag1043
ag1050
ag1057
asg84
Nsba(ibclass
BBasicBlock
p1075
(dp1076
g12
Nsg13
(lp1077
(ibclass
BInstr
p1078
(dp1079
g2
Nsg17
S'mov     eax, [ebp+rdata]'
p1080
sg19
S'8b45f4'
p1081
sg21
Vmov eax, dword ptr [ebp - 0xc]
p1082
sg5
L135051064L
sg6
Nsg23
S'mov'
p1083
sg25
S'0x80cb738L'
p1084
sg27
Nsba(ibclass
BInstr
p1085
(dp1086
g2
Nsg17
S'mov     eax, [eax+8]'
p1087
sg19
S'8b4008'
p1088
sg21
Vmov eax, dword ptr [eax + 8]
p1089
sg5
L135051067L
sg6
Nsg23
S'mov'
p1090
sg25
S'0x80cb73bL'
p1091
sg27
Nsba(ibclass
BInstr
p1092
(dp1093
g2
Nsg17
S'mov     [esp], eax      ; str'
p1094
sg19
S'890424'
p1095
sg21
Vmov dword ptr [esp], eax
p1096
sg5
L135051070L
sg6
Nsg23
S'mov'
p1097
sg25
S'0x80cb73eL'
p1098
sg27
Nsba(ibclass
BInstr
p1099
(dp1100
g2
Nsg17
S'call    CRYPTO_free'
p1101
sg19
S'e80dd00100'
p1102
sg21
Vcall 0x1d012
p1103
sg5
L135051073L
sg6
Nsg23
S'call'
p1104
sg25
S'0x80cb741L'
p1105
sg27
Nsbasg63
(lp1106
Vmov eax, mem
p1107
aVmov eax, mem
p1108
aVmov mem, eax
p1109
aVcall address
p1110
asg69
Nsg5
S'0x80cb738L'
p1111
sg71
(lp1112
S'0x80cb725L'
p1113
asg6
Nsg73
(lp1114
S'0x80cb746L'
p1115
asg76
Nsg77
Nsg78
S'e233a80004971487a8cda28e21c9f5ef'
p1116
sg80
S'aa359b6218411f2f012047a2f405e78d'
p1117
sg82
(lp1118
g1083
ag1090
ag1097
ag1104
asg84
Nsba(ibclass
BBasicBlock
p1119
(dp1120
g12
Nsg13
(lp1121
(ibclass
BInstr
p1122
(dp1123
g2
Nsg17
S'mov     eax, [ebp+item]'
p1124
sg19
S'8b45ec'
p1125
sg21
Vmov eax, dword ptr [ebp - 0x14]
p1126
sg5
L135051078L
sg6
Nsg23
S'mov'
p1127
sg25
S'0x80cb746L'
p1128
sg27
Nsba(ibclass
BInstr
p1129
(dp1130
g2
Nsg17
S'mov     eax, [eax+8]'
p1131
sg19
S'8b4008'
p1132
sg21
Vmov eax, dword ptr [eax + 8]
p1133
sg5
L135051081L
sg6
Nsg23
S'mov'
p1134
sg25
S'0x80cb749L'
p1135
sg27
Nsba(ibclass
BInstr
p1136
(dp1137
g2
Nsg17
S'mov     [esp], eax      ; str'
p1138
sg19
S'890424'
p1139
sg21
Vmov dword ptr [esp], eax
p1140
sg5
L135051084L
sg6
Nsg23
S'mov'
p1141
sg25
S'0x80cb74cL'
p1142
sg27
Nsba(ibclass
BInstr
p1143
(dp1144
g2
Nsg17
S'call    CRYPTO_free'
p1145
sg19
S'e8ffcf0100'
p1146
sg21
Vcall 0x1d004
p1147
sg5
L135051087L
sg6
Nsg23
S'call'
p1148
sg25
S'0x80cb74fL'
p1149
sg27
Nsba(ibclass
BInstr
p1150
(dp1151
g2
Nsg17
S'mov     eax, [ebp+item]'
p1152
sg19
S'8b45ec'
p1153
sg21
Vmov eax, dword ptr [ebp - 0x14]
p1154
sg5
L135051092L
sg6
Nsg23
S'mov'
p1155
sg25
S'0x80cb754L'
p1156
sg27
Nsba(ibclass
BInstr
p1157
(dp1158
g2
Nsg17
S'mov     [esp], eax      ; item'
p1159
sg19
S'890424'
p1160
sg21
Vmov dword ptr [esp], eax
p1161
sg5
L135051095L
sg6
Nsg23
S'mov'
p1162
sg25
S'0x80cb757L'
p1163
sg27
Nsba(ibclass
BInstr
p1164
(dp1165
g2
Nsg17
S'call    pitem_free'
p1166
sg19
S'e814a00d00'
p1167
sg21
Vcall 0xda019
p1168
sg5
L135051098L
sg6
Nsg23
S'call'
p1169
sg25
S'0x80cb75aL'
p1170
sg27
Nsbasg63
(lp1171
Vmov eax, mem
p1172
aVmov eax, mem
p1173
aVmov mem, eax
p1174
aVcall address
p1175
aVmov eax, mem
p1176
aVmov mem, eax
p1177
aVcall address
p1178
asg69
Nsg5
S'0x80cb746L'
p1179
sg71
(lp1180
S'0x80cb725L'
p1181
aS'0x80cb738L'
p1182
asg6
Nsg73
(lp1183
S'0x80cb75fL'
p1184
asg76
Nsg77
Nsg78
S'81778711e0b84e697d5313036153efa4'
p1185
sg80
S'1fc05b23d3e90abc2e59731a93c63a76'
p1186
sg82
(lp1187
g1127
ag1134
ag1141
ag1148
ag1155
ag1162
ag1169
asg84
Nsba(ibclass
BBasicBlock
p1188
(dp1189
g12
Nsg13
(lp1190
(ibclass
BInstr
p1191
(dp1192
g2
Nsg17
S'mov     eax, [ebp+s]'
p1193
sg19
S'8b4508'
p1194
sg21
Vmov eax, dword ptr [ebp + 8]
p1195
sg5
L135051103L
sg6
Nsg23
S'mov'
p1196
sg25
S'0x80cb75fL'
p1197
sg27
Nsba(ibclass
BInstr
p1198
(dp1199
g2
Nsg17
S'mov     eax, [eax+5Ch]'
p1200
sg19
S'8b405c'
p1201
sg21
Vmov eax, dword ptr [eax + 0x5c]
p1202
sg5
L135051106L
sg6
Nsg23
S'mov'
p1203
sg25
S'0x80cb762L'
p1204
sg27
Nsba(ibclass
BInstr
p1205
(dp1206
g2
Nsg17
S'mov     eax, [eax+250h]'
p1207
sg19
S'8b8050020000'
p1208
sg21
Vmov eax, dword ptr [eax + 0x250]
p1209
sg5
L135051109L
sg6
Nsg23
S'mov'
p1210
sg25
S'0x80cb765L'
p1211
sg27
Nsba(ibclass
BInstr
p1212
(dp1213
g2
Nsg17
S'mov     [esp], eax      ; pq'
p1214
sg19
S'890424'
p1215
sg21
Vmov dword ptr [esp], eax
p1216
sg5
L135051115L
sg6
Nsg23
S'mov'
p1217
sg25
S'0x80cb76bL'
p1218
sg27
Nsba(ibclass
BInstr
p1219
(dp1220
g2
Nsg17
S'call    pqueue_pop'
p1221
sg19
S'e846a10d00'
p1222
sg21
Vcall 0xda14b
p1223
sg5
L135051118L
sg6
Nsg23
S'call'
p1224
sg25
S'0x80cb76eL'
p1225
sg27
Nsba(ibclass
BInstr
p1226
(dp1227
g2
Nsg17
S'mov     [ebp+item], eax'
p1228
sg19
S'8945ec'
p1229
sg21
Vmov dword ptr [ebp - 0x14], eax
p1230
sg5
L135051123L
sg6
Nsg23
S'mov'
p1231
sg25
S'0x80cb773L'
p1232
sg27
Nsba(ibclass
BInstr
p1233
(dp1234
g2
Nsg17
S'cmp     [ebp+item], 0'
p1235
sg19
S'837dec00'
p1236
sg21
Vcmp dword ptr [ebp - 0x14], 0
p1237
sg5
L135051126L
sg6
Nsg23
S'cmp'
p1238
sg25
S'0x80cb776L'
p1239
sg27
Nsba(ibclass
BInstr
p1240
(dp1241
g2
Nsg17
S'jnz     short loc_80CB725'
p1242
sg19
S'75a9'
p1243
sg21
Vjne 0xffffffab
p1244
sg5
L135051130L
sg6
Nsg23
S'jnz'
p1245
sg25
S'0x80cb77aL'
p1246
sg27
Nsbasg63
(lp1247
Vmov eax, mem
p1248
aVmov eax, mem
p1249
aVmov eax, mem
p1250
aVmov mem, eax
p1251
aVcall address
p1252
aVmov mem, eax
p1253
aVcmp mem, 0
p1254
aVjne address
p1255
asg69
Nsg5
S'0x80cb75fL'
p1256
sg71
(lp1257
S'0x80cb723L'
p1258
aS'0x80cb746L'
p1259
asg6
Nsg73
(lp1260
S'0x80cb725L'
p1261
aS'0x80cb77cL'
p1262
asg76
Nsg77
Nsg78
S'2b39bfef1fedfd86ab8d49d877d9ac11'
p1263
sg80
S'f40c6b3c4b279513d04e65696a62194f'
p1264
sg82
(lp1265
g1196
ag1203
ag1210
ag1217
ag1224
ag1231
ag1238
ag1245
asg84
Nsba(ibclass
BBasicBlock
p1266
(dp1267
g12
Nsg13
(lp1268
(ibclass
BInstr
p1269
(dp1270
g2
Nsg17
S'leave'
p1271
sg19
S'c9'
p1272
sg21
Vleave 
p1273
sg5
L135051132L
sg6
Nsg23
S'leave'
p1274
sg25
S'0x80cb77cL'
p1275
sg27
Nsba(ibclass
BInstr
p1276
(dp1277
g2
Nsg17
S'retn'
p1278
sg19
S'c3'
p1279
sg21
Vret 
p1280
sg5
L135051133L
sg6
Nsg23
S'retn'
p1281
sg25
S'0x80cb77dL'
p1282
sg27
Nsbasg63
(lp1283
Vleave
p1284
aVret
p1285
asg69
Nsg5
S'0x80cb77cL'
p1286
sg71
(lp1287
S'0x80cb75fL'
p1288
asg6
Nsg73
(lp1289
sg76
Nsg77
Nsg78
S'08c78f73a6f87c85da88b2982f54ce2a'
p1290
sg80
S'393fee3c9fb1d26424d4b7704918e387'
p1291
sg82
(lp1292
g1274
ag1281
asg84
Nsbasb.