(ibclass
BFunc
p0
(dp1
S'hash'
p2
NsS'name'
p3
S'SRP_VBASE_get_by_user'
p4
sS'start_address'
p5
L135977666L
sS'flag'
p6
NsS'program'
p7
NsS'bbs'
p8
(lp9
(ibclass
BBasicBlock
p10
(dp11
S'function'
p12
NsS'binstrs'
p13
(lp14
(ibclass
BInstr
p15
(dp16
g2
NsS'disasm'
p17
S'push    ebp'
p18
sS'bytes'
p19
S'55'
p20
sS'disasm_striped'
p21
Vpush ebp
p22
sg5
L135977666L
sg6
NsS'mnem'
p23
S'push'
p24
sS'address'
p25
S'0x81adac2L'
p26
sS'basicblock'
p27
Nsba(ibclass
BInstr
p28
(dp29
g2
Nsg17
S'mov     ebp, esp'
p30
sg19
S'89e5'
p31
sg21
Vmov ebp, esp
p32
sg5
L135977667L
sg6
Nsg23
S'mov'
p33
sg25
S'0x81adac3L'
p34
sg27
Nsba(ibclass
BInstr
p35
(dp36
g2
Nsg17
S'push    ebx'
p37
sg19
S'53'
p38
sg21
Vpush ebx
p39
sg5
L135977669L
sg6
Nsg23
S'push'
p40
sg25
S'0x81adac5L'
p41
sg27
Nsba(ibclass
BInstr
p42
(dp43
g2
Nsg17
S'sub     esp, 74h'
p44
sg19
S'83ec74'
p45
sg21
Vsub esp, 0x74
p46
sg5
L135977670L
sg6
Nsg23
S'sub'
p47
sg25
S'0x81adac6L'
p48
sg27
Nsba(ibclass
BInstr
p49
(dp50
g2
Nsg17
S'mov     eax, [ebp+arg_0]'
p51
sg19
S'8b4508'
p52
sg21
Vmov eax, dword ptr [ebp + 8]
p53
sg5
L135977673L
sg6
Nsg23
S'mov'
p54
sg25
S'0x81adac9L'
p55
sg27
Nsba(ibclass
BInstr
p56
(dp57
g2
Nsg17
S'mov     [ebp+vb], eax'
p58
sg19
S'8945a4'
p59
sg21
Vmov dword ptr [ebp - 0x5c], eax
p60
sg5
L135977676L
sg6
Nsg23
S'mov'
p61
sg25
S'0x81adaccL'
p62
sg27
Nsba(ibclass
BInstr
p63
(dp64
g2
Nsg17
S'mov     eax, [ebp+arg_4]'
p65
sg19
S'8b450c'
p66
sg21
Vmov eax, dword ptr [ebp + 0xc]
p67
sg5
L135977679L
sg6
Nsg23
S'mov'
p68
sg25
S'0x81adacfL'
p69
sg27
Nsba(ibclass
BInstr
p70
(dp71
g2
Nsg17
S'mov     [ebp+username], eax'
p72
sg19
S'8945a0'
p73
sg21
Vmov dword ptr [ebp - 0x60], eax
p74
sg5
L135977682L
sg6
Nsg23
S'mov'
p75
sg25
S'0x81adad2L'
p76
sg27
Nsba(ibclass
BInstr
p77
(dp78
g2
Nsg17
S'mov     eax, large gs:14h'
p79
sg19
S'65a114000000'
p80
sg21
Vmov eax, dword ptr gs:[0x14]
p81
sg5
L135977685L
sg6
Nsg23
S'mov'
p82
sg25
S'0x81adad5L'
p83
sg27
Nsba(ibclass
BInstr
p84
(dp85
g2
Nsg17
S'mov     [ebp+var_C], eax'
p86
sg19
S'8945f4'
p87
sg21
Vmov dword ptr [ebp - 0xc], eax
p88
sg5
L135977691L
sg6
Nsg23
S'mov'
p89
sg25
S'0x81adadbL'
p90
sg27
Nsba(ibclass
BInstr
p91
(dp92
g2
Nsg17
S'xor     eax, eax'
p93
sg19
S'31c0'
p94
sg21
Vxor eax, eax
p95
sg5
L135977694L
sg6
Nsg23
S'xor'
p96
sg25
S'0x81adadeL'
p97
sg27
Nsba(ibclass
BInstr
p98
(dp99
g2
Nsg17
S'cmp     [ebp+vb], 0'
p100
sg19
S'837da400'
p101
sg21
Vcmp dword ptr [ebp - 0x5c], 0
p102
sg5
L135977696L
sg6
Nsg23
S'cmp'
p103
sg25
S'0x81adae0L'
p104
sg27
Nsba(ibclass
BInstr
p105
(dp106
g2
Nsg17
S'jnz     short loc_81ADAF0'
p107
sg19
S'750a'
p108
sg21
Vjne 0xc
p109
sg5
L135977700L
sg6
Nsg23
S'jnz'
p110
sg25
S'0x81adae4L'
p111
sg27
NsbasS'disasm_list'
p112
(lp113
g22
ag32
ag39
aVsub esp, address
p114
aVmov eax, mem
p115
aVmov mem, eax
p116
aVmov eax, mem
p117
aVmov mem, eax
p118
aVmov eax, gs:mem
p119
aVmov mem, eax
p120
ag95
aVcmp mem, 0
p121
aVjne address
p122
asS'end_address'
p123
Nsg5
S'0x81adac2L'
p124
sS'preds'
p125
(lp126
sg6
NsS'succs'
p127
(lp128
S'0x81adae6L'
p129
aS'0x81adaf0L'
p130
asS'hash_v3'
p131
NsS'flag_v2'
p132
NsS'hash_v1'
p133
S'97a6461c9d2ae53a825c77db56bfe723'
p134
sS'hash_v2'
p135
S'4321819cd240139e7da41fb4f5b55cb6'
p136
sS'mnen_list'
p137
(lp138
g24
ag33
ag40
ag47
ag54
ag61
ag68
ag75
ag82
ag89
ag96
ag103
ag110
asS'neighbour_disasm_list'
p139
Nsba(ibclass
BBasicBlock
p140
(dp141
g12
Nsg13
(lp142
(ibclass
BInstr
p143
(dp144
g2
Nsg17
S'mov     eax, 0'
p145
sg19
S'b800000000'
p146
sg21
Vmov eax, 0
p147
sg5
L135977702L
sg6
Nsg23
S'mov'
p148
sg25
S'0x81adae6L'
p149
sg27
Nsba(ibclass
BInstr
p150
(dp151
g2
Nsg17
S'jmp     loc_81ADCDB'
p152
sg19
S'e9eb010000'
p153
sg21
Vjmp 0x1f0
p154
sg5
L135977707L
sg6
Nsg23
S'jmp'
p155
sg25
S'0x81adaebL'
p156
sg27
Nsbasg112
(lp157
g147
aVjmp address
p158
asg123
Nsg5
S'0x81adae6L'
p159
sg125
(lp160
S'0x81adac2L'
p161
asg6
Nsg127
(lp162
S'0x81adcdbL'
p163
asg131
Nsg132
Nsg133
S'8b9a0d40e062be2b9b2d9885108fb196'
p164
sg135
S'bfbe752dd865c9a89011ba470eab331d'
p165
sg137
(lp166
g148
ag155
asg139
Nsba(ibclass
BBasicBlock
p167
(dp168
g12
Nsg13
(lp169
(ibclass
BInstr
p170
(dp171
g2
Nsg17
S'mov     [ebp+i], 0'
p172
sg19
S'c745ac00000000'
p173
sg21
Vmov dword ptr [ebp - 0x54], 0
p174
sg5
L135977712L
sg6
Nsg23
S'mov'
p175
sg25
S'0x81adaf0L'
p176
sg27
Nsba(ibclass
BInstr
p177
(dp178
g2
Nsg17
S'jmp     short loc_81ADB33'
p179
sg19
S'eb3a'
p180
sg21
Vjmp 0x3c
p181
sg5
L135977719L
sg6
Nsg23
S'jmp'
p182
sg25
S'0x81adaf7L'
p183
sg27
Nsbasg112
(lp184
Vmov mem, 0
p185
aVjmp address
p186
asg123
Nsg5
S'0x81adaf0L'
p187
sg125
(lp188
S'0x81adac2L'
p189
asg6
Nsg127
(lp190
S'0x81adb33L'
p191
asg131
Nsg132
Nsg133
S'8b9a0d40e062be2b9b2d9885108fb196'
p192
sg135
S'f299da28b698e6b26e771c23d7997a23'
p193
sg137
(lp194
g175
ag182
asg139
Nsba(ibclass
BBasicBlock
p195
(dp196
g12
Nsg13
(lp197
(ibclass
BInstr
p198
(dp199
g2
Nsg17
S'mov     eax, [ebp+vb]'
p200
sg19
S'8b45a4'
p201
sg21
Vmov eax, dword ptr [ebp - 0x5c]
p202
sg5
L135977721L
sg6
Nsg23
S'mov'
p203
sg25
S'0x81adaf9L'
p204
sg27
Nsba(ibclass
BInstr
p205
(dp206
g2
Nsg17
S'mov     eax, [eax]'
p207
sg19
S'8b00'
p208
sg21
Vmov eax, dword ptr [eax]
p209
sg5
L135977724L
sg6
Nsg23
S'mov'
p210
sg25
S'0x81adafcL'
p211
sg27
Nsba(ibclass
BInstr
p212
(dp213
g2
Nsg17
S'mov     edx, [ebp+i]'
p214
sg19
S'8b55ac'
p215
sg21
Vmov edx, dword ptr [ebp - 0x54]
p216
sg5
L135977726L
sg6
Nsg23
S'mov'
p217
sg25
S'0x81adafeL'
p218
sg27
Nsba(ibclass
BInstr
p219
(dp220
g2
Nsg17
S'mov     [esp+4], edx    ; i'
p221
sg19
S'89542404'
p222
sg21
Vmov dword ptr [esp + 4], edx
p223
sg5
L135977729L
sg6
Nsg23
S'mov'
p224
sg25
S'0x81adb01L'
p225
sg27
Nsba(ibclass
BInstr
p226
(dp227
g2
Nsg17
S'mov     [esp], eax      ; st'
p228
sg19
S'890424'
p229
sg21
Vmov dword ptr [esp], eax
p230
sg5
L135977733L
sg6
Nsg23
S'mov'
p231
sg25
S'0x81adb05L'
p232
sg27
Nsba(ibclass
BInstr
p233
(dp234
g2
Nsg17
S'call    sk_value'
p235
sg19
S'e876fcf8ff'
p236
sg21
Vcall 0xfff8fc7b
p237
sg5
L135977736L
sg6
Nsg23
S'call'
p238
sg25
S'0x81adb08L'
p239
sg27
Nsba(ibclass
BInstr
p240
(dp241
g2
Nsg17
S'mov     [ebp+user], eax'
p242
sg19
S'8945b0'
p243
sg21
Vmov dword ptr [ebp - 0x50], eax
p244
sg5
L135977741L
sg6
Nsg23
S'mov'
p245
sg25
S'0x81adb0dL'
p246
sg27
Nsba(ibclass
BInstr
p247
(dp248
g2
Nsg17
S'mov     eax, [ebp+user]'
p249
sg19
S'8b45b0'
p250
sg21
Vmov eax, dword ptr [ebp - 0x50]
p251
sg5
L135977744L
sg6
Nsg23
S'mov'
p252
sg25
S'0x81adb10L'
p253
sg27
Nsba(ibclass
BInstr
p254
(dp255
g2
Nsg17
S'mov     eax, [eax]'
p256
sg19
S'8b00'
p257
sg21
Vmov eax, dword ptr [eax]
p258
sg5
L135977747L
sg6
Nsg23
S'mov'
p259
sg25
S'0x81adb13L'
p260
sg27
Nsba(ibclass
BInstr
p261
(dp262
g2
Nsg17
S'mov     edx, [ebp+username]'
p263
sg19
S'8b55a0'
p264
sg21
Vmov edx, dword ptr [ebp - 0x60]
p265
sg5
L135977749L
sg6
Nsg23
S'mov'
p266
sg25
S'0x81adb15L'
p267
sg27
Nsba(ibclass
BInstr
p268
(dp269
g2
Nsg17
S'mov     [esp+4], edx    ; s2'
p270
sg19
S'89542404'
p271
sg21
Vmov dword ptr [esp + 4], edx
p272
sg5
L135977752L
sg6
Nsg23
S'mov'
p273
sg25
S'0x81adb18L'
p274
sg27
Nsba(ibclass
BInstr
p275
(dp276
g2
Nsg17
S'mov     [esp], eax      ; s1'
p277
sg19
S'890424'
p278
sg21
Vmov dword ptr [esp], eax
p279
sg5
L135977756L
sg6
Nsg23
S'mov'
p280
sg25
S'0x81adb1cL'
p281
sg27
Nsba(ibclass
BInstr
p282
(dp283
g2
Nsg17
S'call    _strcmp'
p284
sg19
S'e8ecb9e9ff'
p285
sg21
Vcall 0xffe9b9f1
p286
sg5
L135977759L
sg6
Nsg23
S'call'
p287
sg25
S'0x81adb1fL'
p288
sg27
Nsba(ibclass
BInstr
p289
(dp290
g2
Nsg17
S'test    eax, eax'
p291
sg19
S'85c0'
p292
sg21
Vtest eax, eax
p293
sg5
L135977764L
sg6
Nsg23
S'test'
p294
sg25
S'0x81adb24L'
p295
sg27
Nsba(ibclass
BInstr
p296
(dp297
g2
Nsg17
S'jnz     short loc_81ADB30'
p298
sg19
S'7508'
p299
sg21
Vjne 0xa
p300
sg5
L135977766L
sg6
Nsg23
S'jnz'
p301
sg25
S'0x81adb26L'
p302
sg27
Nsbasg112
(lp303
Vmov eax, mem
p304
aVmov eax, mem
p305
aVmov edx, mem
p306
aVmov mem, edx
p307
aVmov mem, eax
p308
aVcall address
p309
aVmov mem, eax
p310
aVmov eax, mem
p311
aVmov eax, mem
p312
aVmov edx, mem
p313
aVmov mem, edx
p314
aVmov mem, eax
p315
aVcall address
p316
ag293
aVjne address
p317
asg123
Nsg5
S'0x81adaf9L'
p318
sg125
(lp319
S'0x81adb33L'
p320
asg6
Nsg127
(lp321
S'0x81adb28L'
p322
aS'0x81adb30L'
p323
asg131
Nsg132
Nsg133
S'f05967bd3657917fc547ee5e11684776'
p324
sg135
S'd31180322a7c4391e4c6b645fee17f7b'
p325
sg137
(lp326
g203
ag210
ag217
ag224
ag231
ag238
ag245
ag252
ag259
ag266
ag273
ag280
ag287
ag294
ag301
asg139
Nsba(ibclass
BBasicBlock
p327
(dp328
g12
Nsg13
(lp329
(ibclass
BInstr
p330
(dp331
g2
Nsg17
S'mov     eax, [ebp+user]'
p332
sg19
S'8b45b0'
p333
sg21
Vmov eax, dword ptr [ebp - 0x50]
p334
sg5
L135977768L
sg6
Nsg23
S'mov'
p335
sg25
S'0x81adb28L'
p336
sg27
Nsba(ibclass
BInstr
p337
(dp338
g2
Nsg17
S'jmp     loc_81ADCDB'
p339
sg19
S'e9ab010000'
p340
sg21
Vjmp 0x1b0
p341
sg5
L135977771L
sg6
Nsg23
S'jmp'
p342
sg25
S'0x81adb2bL'
p343
sg27
Nsbasg112
(lp344
Vmov eax, mem
p345
aVjmp address
p346
asg123
Nsg5
S'0x81adb28L'
p347
sg125
(lp348
S'0x81adaf9L'
p349
asg6
Nsg127
(lp350
S'0x81adcdbL'
p351
asg131
Nsg132
Nsg133
S'8b9a0d40e062be2b9b2d9885108fb196'
p352
sg135
S'5a5b261ba52a671a369af6372509eb2f'
p353
sg137
(lp354
g335
ag342
asg139
Nsba(ibclass
BBasicBlock
p355
(dp356
g12
Nsg13
(lp357
(ibclass
BInstr
p358
(dp359
g2
Nsg17
S'inc     [ebp+i]'
p360
sg19
S'ff45ac'
p361
sg21
Vinc dword ptr [ebp - 0x54]
p362
sg5
L135977776L
sg6
Nsg23
S'inc'
p363
sg25
S'0x81adb30L'
p364
sg27
Nsbasg112
(lp365
Vinc mem
p366
asg123
Nsg5
S'0x81adb30L'
p367
sg125
(lp368
S'0x81adaf9L'
p369
asg6
Nsg127
(lp370
S'0x81adb33L'
p371
asg131
Nsg132
Nsg133
S'cf9f3fde7326f1d8e64205f0e07a3695'
p372
sg135
S'00359ff2b716311fa3d15c1e358cad94'
p373
sg137
(lp374
g363
asg139
Nsba(ibclass
BBasicBlock
p375
(dp376
g12
Nsg13
(lp377
(ibclass
BInstr
p378
(dp379
g2
Nsg17
S'mov     eax, [ebp+vb]'
p380
sg19
S'8b45a4'
p381
sg21
Vmov eax, dword ptr [ebp - 0x5c]
p382
sg5
L135977779L
sg6
Nsg23
S'mov'
p383
sg25
S'0x81adb33L'
p384
sg27
Nsba(ibclass
BInstr
p385
(dp386
g2
Nsg17
S'mov     eax, [eax]'
p387
sg19
S'8b00'
p388
sg21
Vmov eax, dword ptr [eax]
p389
sg5
L135977782L
sg6
Nsg23
S'mov'
p390
sg25
S'0x81adb36L'
p391
sg27
Nsba(ibclass
BInstr
p392
(dp393
g2
Nsg17
S'mov     [esp], eax      ; st'
p394
sg19
S'890424'
p395
sg21
Vmov dword ptr [esp], eax
p396
sg5
L135977784L
sg6
Nsg23
S'mov'
p397
sg25
S'0x81adb38L'
p398
sg27
Nsba(ibclass
BInstr
p399
(dp400
g2
Nsg17
S'call    sk_num'
p401
sg19
S'e82cfcf8ff'
p402
sg21
Vcall 0xfff8fc31
p403
sg5
L135977787L
sg6
Nsg23
S'call'
p404
sg25
S'0x81adb3bL'
p405
sg27
Nsba(ibclass
BInstr
p406
(dp407
g2
Nsg17
S'cmp     eax, [ebp+i]'
p408
sg19
S'3b45ac'
p409
sg21
Vcmp eax, dword ptr [ebp - 0x54]
p410
sg5
L135977792L
sg6
Nsg23
S'cmp'
p411
sg25
S'0x81adb40L'
p412
sg27
Nsba(ibclass
BInstr
p413
(dp414
g2
Nsg17
S'jg      short loc_81ADAF9'
p415
sg19
S'7fb4'
p416
sg21
Vjg 0xffffffb6
p417
sg5
L135977795L
sg6
Nsg23
S'jg'
p418
sg25
S'0x81adb43L'
p419
sg27
Nsbasg112
(lp420
Vmov eax, mem
p421
aVmov eax, mem
p422
aVmov mem, eax
p423
aVcall address
p424
aVcmp eax, mem
p425
aVjg address
p426
asg123
Nsg5
S'0x81adb33L'
p427
sg125
(lp428
S'0x81adaf0L'
p429
aS'0x81adb30L'
p430
asg6
Nsg127
(lp431
S'0x81adaf9L'
p432
aS'0x81adb45L'
p433
asg131
Nsg132
Nsg133
S'cdc6200bbffdb18d10dbecff1985d1ed'
p434
sg135
S'e536d3097fb838fd71f3625b78449fef'
p435
sg137
(lp436
g383
ag390
ag397
ag404
ag411
ag418
asg139
Nsba(ibclass
BBasicBlock
p437
(dp438
g12
Nsg13
(lp439
(ibclass
BInstr
p440
(dp441
g2
Nsg17
S'mov     eax, [ebp+vb]'
p442
sg19
S'8b45a4'
p443
sg21
Vmov eax, dword ptr [ebp - 0x5c]
p444
sg5
L135977797L
sg6
Nsg23
S'mov'
p445
sg25
S'0x81adb45L'
p446
sg27
Nsba(ibclass
BInstr
p447
(dp448
g2
Nsg17
S'mov     eax, [eax+8]'
p449
sg19
S'8b4008'
p450
sg21
Vmov eax, dword ptr [eax + 8]
p451
sg5
L135977800L
sg6
Nsg23
S'mov'
p452
sg25
S'0x81adb48L'
p453
sg27
Nsba(ibclass
BInstr
p454
(dp455
g2
Nsg17
S'test    eax, eax'
p456
sg19
S'85c0'
p457
sg21
Vtest eax, eax
p458
sg5
L135977803L
sg6
Nsg23
S'test'
p459
sg25
S'0x81adb4bL'
p460
sg27
Nsba(ibclass
BInstr
p461
(dp462
g2
Nsg17
S'jz      short loc_81ADB63'
p463
sg19
S'7414'
p464
sg21
Vje 0x16
p465
sg5
L135977805L
sg6
Nsg23
S'jz'
p466
sg25
S'0x81adb4dL'
p467
sg27
Nsbasg112
(lp468
Vmov eax, mem
p469
aVmov eax, mem
p470
ag458
aVje address
p471
asg123
Nsg5
S'0x81adb45L'
p472
sg125
(lp473
S'0x81adb33L'
p474
asg6
Nsg127
(lp475
S'0x81adb4fL'
p476
aS'0x81adb63L'
p477
asg131
Nsg132
Nsg133
S'ea5d08c7dcc07640d42787f826218f11'
p478
sg135
S'103b924e2a82731ce51d187b2e41af3a'
p479
sg137
(lp480
g445
ag452
ag459
ag466
asg139
Nsba(ibclass
BBasicBlock
p481
(dp482
g12
Nsg13
(lp483
(ibclass
BInstr
p484
(dp485
g2
Nsg17
S'mov     eax, [ebp+vb]'
p486
sg19
S'8b45a4'
p487
sg21
Vmov eax, dword ptr [ebp - 0x5c]
p488
sg5
L135977807L
sg6
Nsg23
S'mov'
p489
sg25
S'0x81adb4fL'
p490
sg27
Nsba(ibclass
BInstr
p491
(dp492
g2
Nsg17
S'mov     eax, [eax+0Ch]'
p493
sg19
S'8b400c'
p494
sg21
Vmov eax, dword ptr [eax + 0xc]
p495
sg5
L135977810L
sg6
Nsg23
S'mov'
p496
sg25
S'0x81adb52L'
p497
sg27
Nsba(ibclass
BInstr
p498
(dp499
g2
Nsg17
S'test    eax, eax'
p500
sg19
S'85c0'
p501
sg21
Vtest eax, eax
p502
sg5
L135977813L
sg6
Nsg23
S'test'
p503
sg25
S'0x81adb55L'
p504
sg27
Nsba(ibclass
BInstr
p505
(dp506
g2
Nsg17
S'jz      short loc_81ADB63'
p507
sg19
S'740a'
p508
sg21
Vje 0xc
p509
sg5
L135977815L
sg6
Nsg23
S'jz'
p510
sg25
S'0x81adb57L'
p511
sg27
Nsbasg112
(lp512
Vmov eax, mem
p513
aVmov eax, mem
p514
ag502
aVje address
p515
asg123
Nsg5
S'0x81adb4fL'
p516
sg125
(lp517
S'0x81adb45L'
p518
asg6
Nsg127
(lp519
S'0x81adb59L'
p520
aS'0x81adb63L'
p521
asg131
Nsg132
Nsg133
S'ea5d08c7dcc07640d42787f826218f11'
p522
sg135
S'103b924e2a82731ce51d187b2e41af3a'
p523
sg137
(lp524
g489
ag496
ag503
ag510
asg139
Nsba(ibclass
BBasicBlock
p525
(dp526
g12
Nsg13
(lp527
(ibclass
BInstr
p528
(dp529
g2
Nsg17
S'mov     eax, [ebp+vb]'
p530
sg19
S'8b45a4'
p531
sg21
Vmov eax, dword ptr [ebp - 0x5c]
p532
sg5
L135977817L
sg6
Nsg23
S'mov'
p533
sg25
S'0x81adb59L'
p534
sg27
Nsba(ibclass
BInstr
p535
(dp536
g2
Nsg17
S'mov     eax, [eax+10h]'
p537
sg19
S'8b4010'
p538
sg21
Vmov eax, dword ptr [eax + 0x10]
p539
sg5
L135977820L
sg6
Nsg23
S'mov'
p540
sg25
S'0x81adb5cL'
p541
sg27
Nsba(ibclass
BInstr
p542
(dp543
g2
Nsg17
S'test    eax, eax'
p544
sg19
S'85c0'
p545
sg21
Vtest eax, eax
p546
sg5
L135977823L
sg6
Nsg23
S'test'
p547
sg25
S'0x81adb5fL'
p548
sg27
Nsba(ibclass
BInstr
p549
(dp550
g2
Nsg17
S'jnz     short loc_81ADB6D'
p551
sg19
S'750a'
p552
sg21
Vjne 0xc
p553
sg5
L135977825L
sg6
Nsg23
S'jnz'
p554
sg25
S'0x81adb61L'
p555
sg27
Nsbasg112
(lp556
Vmov eax, mem
p557
aVmov eax, mem
p558
ag546
aVjne address
p559
asg123
Nsg5
S'0x81adb59L'
p560
sg125
(lp561
S'0x81adb4fL'
p562
asg6
Nsg127
(lp563
S'0x81adb63L'
p564
aS'0x81adb6dL'
p565
asg131
Nsg132
Nsg133
S'c659dbb3567582fe193bedd2c7eccb80'
p566
sg135
S'bf49e6fb415bfa3724765cd6082e6314'
p567
sg137
(lp568
g533
ag540
ag547
ag554
asg139
Nsba(ibclass
BBasicBlock
p569
(dp570
g12
Nsg13
(lp571
(ibclass
BInstr
p572
(dp573
g2
Nsg17
S'mov     eax, 0'
p574
sg19
S'b800000000'
p575
sg21
Vmov eax, 0
p576
sg5
L135977827L
sg6
Nsg23
S'mov'
p577
sg25
S'0x81adb63L'
p578
sg27
Nsba(ibclass
BInstr
p579
(dp580
g2
Nsg17
S'jmp     loc_81ADCDB'
p581
sg19
S'e96e010000'
p582
sg21
Vjmp 0x173
p583
sg5
L135977832L
sg6
Nsg23
S'jmp'
p584
sg25
S'0x81adb68L'
p585
sg27
Nsbasg112
(lp586
g576
aVjmp address
p587
asg123
Nsg5
S'0x81adb63L'
p588
sg125
(lp589
S'0x81adb45L'
p590
aS'0x81adb4fL'
p591
aS'0x81adb59L'
p592
asg6
Nsg127
(lp593
S'0x81adcdbL'
p594
asg131
Nsg132
Nsg133
S'8b9a0d40e062be2b9b2d9885108fb196'
p595
sg135
S'bfbe752dd865c9a89011ba470eab331d'
p596
sg137
(lp597
g577
ag584
asg139
Nsba(ibclass
BBasicBlock
p598
(dp599
g12
Nsg13
(lp600
(ibclass
BInstr
p601
(dp602
g2
Nsg17
S'call    SRP_user_pwd_new'
p603
sg19
S'e8e5f5ffff'
p604
sg21
Vcall 0xfffff5ea
p605
sg5
L135977837L
sg6
Nsg23
S'call'
p606
sg25
S'0x81adb6dL'
p607
sg27
Nsba(ibclass
BInstr
p608
(dp609
g2
Nsg17
S'mov     [ebp+user], eax'
p610
sg19
S'8945b0'
p611
sg21
Vmov dword ptr [ebp - 0x50], eax
p612
sg5
L135977842L
sg6
Nsg23
S'mov'
p613
sg25
S'0x81adb72L'
p614
sg27
Nsba(ibclass
BInstr
p615
(dp616
g2
Nsg17
S'cmp     [ebp+user], 0'
p617
sg19
S'837db000'
p618
sg21
Vcmp dword ptr [ebp - 0x50], 0
p619
sg5
L135977845L
sg6
Nsg23
S'cmp'
p620
sg25
S'0x81adb75L'
p621
sg27
Nsba(ibclass
BInstr
p622
(dp623
g2
Nsg17
S'jnz     short loc_81ADB85'
p624
sg19
S'750a'
p625
sg21
Vjne 0xc
p626
sg5
L135977849L
sg6
Nsg23
S'jnz'
p627
sg25
S'0x81adb79L'
p628
sg27
Nsbasg112
(lp629
Vcall address
p630
aVmov mem, eax
p631
aVcmp mem, 0
p632
aVjne address
p633
asg123
Nsg5
S'0x81adb6dL'
p634
sg125
(lp635
S'0x81adb59L'
p636
asg6
Nsg127
(lp637
S'0x81adb7bL'
p638
aS'0x81adb85L'
p639
asg131
Nsg132
Nsg133
S'0ac2dd636b0c05eced4a94b157f88960'
p640
sg135
S'6d2fca0b552d4b9dcc26cad51e453e31'
p641
sg137
(lp642
g606
ag613
ag620
ag627
asg139
Nsba(ibclass
BBasicBlock
p643
(dp644
g12
Nsg13
(lp645
(ibclass
BInstr
p646
(dp647
g2
Nsg17
S'mov     eax, 0'
p648
sg19
S'b800000000'
p649
sg21
Vmov eax, 0
p650
sg5
L135977851L
sg6
Nsg23
S'mov'
p651
sg25
S'0x81adb7bL'
p652
sg27
Nsba(ibclass
BInstr
p653
(dp654
g2
Nsg17
S'jmp     loc_81ADCDB'
p655
sg19
S'e956010000'
p656
sg21
Vjmp 0x15b
p657
sg5
L135977856L
sg6
Nsg23
S'jmp'
p658
sg25
S'0x81adb80L'
p659
sg27
Nsbasg112
(lp660
g650
aVjmp address
p661
asg123
Nsg5
S'0x81adb7bL'
p662
sg125
(lp663
S'0x81adb6dL'
p664
asg6
Nsg127
(lp665
S'0x81adcdbL'
p666
asg131
Nsg132
Nsg133
S'8b9a0d40e062be2b9b2d9885108fb196'
p667
sg135
S'bfbe752dd865c9a89011ba470eab331d'
p668
sg137
(lp669
g651
ag658
asg139
Nsba(ibclass
BBasicBlock
p670
(dp671
g12
Nsg13
(lp672
(ibclass
BInstr
p673
(dp674
g2
Nsg17
S'mov     eax, [ebp+vb]'
p675
sg19
S'8b45a4'
p676
sg21
Vmov eax, dword ptr [ebp - 0x5c]
p677
sg5
L135977861L
sg6
Nsg23
S'mov'
p678
sg25
S'0x81adb85L'
p679
sg27
Nsba(ibclass
BInstr
p680
(dp681
g2
Nsg17
S'mov     edx, [eax+10h]'
p682
sg19
S'8b5010'
p683
sg21
Vmov edx, dword ptr [eax + 0x10]
p684
sg5
L135977864L
sg6
Nsg23
S'mov'
p685
sg25
S'0x81adb88L'
p686
sg27
Nsba(ibclass
BInstr
p687
(dp688
g2
Nsg17
S'mov     eax, [ebp+vb]'
p689
sg19
S'8b45a4'
p690
sg21
Vmov eax, dword ptr [ebp - 0x5c]
p691
sg5
L135977867L
sg6
Nsg23
S'mov'
p692
sg25
S'0x81adb8bL'
p693
sg27
Nsba(ibclass
BInstr
p694
(dp695
g2
Nsg17
S'mov     eax, [eax+0Ch]'
p696
sg19
S'8b400c'
p697
sg21
Vmov eax, dword ptr [eax + 0xc]
p698
sg5
L135977870L
sg6
Nsg23
S'mov'
p699
sg25
S'0x81adb8eL'
p700
sg27
Nsba(ibclass
BInstr
p701
(dp702
g2
Nsg17
S'mov     [esp+8], edx    ; N'
p703
sg19
S'89542408'
p704
sg21
Vmov dword ptr [esp + 8], edx
p705
sg5
L135977873L
sg6
Nsg23
S'mov'
p706
sg25
S'0x81adb91L'
p707
sg27
Nsba(ibclass
BInstr
p708
(dp709
g2
Nsg17
S'mov     [esp+4], eax    ; g'
p710
sg19
S'89442404'
p711
sg21
Vmov dword ptr [esp + 4], eax
p712
sg5
L135977877L
sg6
Nsg23
S'mov'
p713
sg25
S'0x81adb95L'
p714
sg27
Nsba(ibclass
BInstr
p715
(dp716
g2
Nsg17
S'mov     eax, [ebp+user]'
p717
sg19
S'8b45b0'
p718
sg21
Vmov eax, dword ptr [ebp - 0x50]
p719
sg5
L135977881L
sg6
Nsg23
S'mov'
p720
sg25
S'0x81adb99L'
p721
sg27
Nsba(ibclass
BInstr
p722
(dp723
g2
Nsg17
S'mov     [esp], eax      ; vinfo'
p724
sg19
S'890424'
p725
sg21
Vmov dword ptr [esp], eax
p726
sg5
L135977884L
sg6
Nsg23
S'mov'
p727
sg25
S'0x81adb9cL'
p728
sg27
Nsba(ibclass
BInstr
p729
(dp730
g2
Nsg17
S'call    SRP_user_pwd_set_gN'
p731
sg19
S'e825f6ffff'
p732
sg21
Vcall 0xfffff62a
p733
sg5
L135977887L
sg6
Nsg23
S'call'
p734
sg25
S'0x81adb9fL'
p735
sg27
Nsba(ibclass
BInstr
p736
(dp737
g2
Nsg17
S'mov     dword ptr [esp+8], 0; info'
p738
sg19
S'c744240800000000'
p739
sg21
Vmov dword ptr [esp + 8], 0
p740
sg5
L135977892L
sg6
Nsg23
S'mov'
p741
sg25
S'0x81adba4L'
p742
sg27
Nsba(ibclass
BInstr
p743
(dp744
g2
Nsg17
S'mov     eax, [ebp+username]'
p745
sg19
S'8b45a0'
p746
sg21
Vmov eax, dword ptr [ebp - 0x60]
p747
sg5
L135977900L
sg6
Nsg23
S'mov'
p748
sg25
S'0x81adbacL'
p749
sg27
Nsba(ibclass
BInstr
p750
(dp751
g2
Nsg17
S'mov     [esp+4], eax    ; id'
p752
sg19
S'89442404'
p753
sg21
Vmov dword ptr [esp + 4], eax
p754
sg5
L135977903L
sg6
Nsg23
S'mov'
p755
sg25
S'0x81adbafL'
p756
sg27
Nsba(ibclass
BInstr
p757
(dp758
g2
Nsg17
S'mov     eax, [ebp+user]'
p759
sg19
S'8b45b0'
p760
sg21
Vmov eax, dword ptr [ebp - 0x50]
p761
sg5
L135977907L
sg6
Nsg23
S'mov'
p762
sg25
S'0x81adbb3L'
p763
sg27
Nsba(ibclass
BInstr
p764
(dp765
g2
Nsg17
S'mov     [esp], eax      ; vinfo'
p766
sg19
S'890424'
p767
sg21
Vmov dword ptr [esp], eax
p768
sg5
L135977910L
sg6
Nsg23
S'mov'
p769
sg25
S'0x81adbb6L'
p770
sg27
Nsba(ibclass
BInstr
p771
(dp772
g2
Nsg17
S'call    SRP_user_pwd_set_ids'
p773
sg19
S'e822f6ffff'
p774
sg21
Vcall 0xfffff627
p775
sg5
L135977913L
sg6
Nsg23
S'call'
p776
sg25
S'0x81adbb9L'
p777
sg27
Nsba(ibclass
BInstr
p778
(dp779
g2
Nsg17
S'test    eax, eax'
p780
sg19
S'85c0'
p781
sg21
Vtest eax, eax
p782
sg5
L135977918L
sg6
Nsg23
S'test'
p783
sg25
S'0x81adbbeL'
p784
sg27
Nsba(ibclass
BInstr
p785
(dp786
g2
Nsg17
S'jnz     short loc_81ADBC7'
p787
sg19
S'7505'
p788
sg21
Vjne 7
p789
sg5
L135977920L
sg6
Nsg23
S'jnz'
p790
sg25
S'0x81adbc0L'
p791
sg27
Nsbasg112
(lp792
Vmov eax, mem
p793
aVmov edx, mem
p794
aVmov eax, mem
p795
aVmov eax, mem
p796
aVmov mem, edx
p797
aVmov mem, eax
p798
aVmov eax, mem
p799
aVmov mem, eax
p800
aVcall address
p801
aVmov mem, 0
p802
aVmov eax, mem
p803
aVmov mem, eax
p804
aVmov eax, mem
p805
aVmov mem, eax
p806
aVcall address
p807
ag782
ag789
asg123
Nsg5
S'0x81adb85L'
p808
sg125
(lp809
S'0x81adb6dL'
p810
asg6
Nsg127
(lp811
S'0x81adbc2L'
p812
aS'0x81adbc7L'
p813
asg131
Nsg132
Nsg133
S'171fefd32807c279d3f069870fd6b77c'
p814
sg135
S'985c9ae86e9e2a6fc422f19b5243e3ef'
p815
sg137
(lp816
g678
ag685
ag692
ag699
ag706
ag713
ag720
ag727
ag734
ag741
ag748
ag755
ag762
ag769
ag776
ag783
ag790
asg139
Nsba(ibclass
BBasicBlock
p817
(dp818
g12
Nsg13
(lp819
(ibclass
BInstr
p820
(dp821
g2
Nsg17
S'jmp     err'
p822
sg19
S'e904010000'
p823
sg21
Vjmp 0x109
p824
sg5
L135977922L
sg6
Nsg23
S'jmp'
p825
sg25
S'0x81adbc2L'
p826
sg27
Nsbasg112
(lp827
Vjmp address
p828
asg123
Nsg5
S'0x81adbc2L'
p829
sg125
(lp830
S'0x81adb85L'
p831
asg6
Nsg127
(lp832
S'0x81adccbL'
p833
asg131
Nsg132
Nsg133
S'0ef6cf926f2f394b0cc8e11be8022625'
p834
sg135
S'd4372e4caa7348928655251605aa7329'
p835
sg137
(lp836
g825
asg139
Nsba(ibclass
BBasicBlock
p837
(dp838
g12
Nsg13
(lp839
(ibclass
BInstr
p840
(dp841
g2
Nsg17
S'mov     dword ptr [esp+4], 14h; num'
p842
sg19
S'c744240414000000'
p843
sg21
Vmov dword ptr [esp + 4], 0x14
p844
sg5
L135977927L
sg6
Nsg23
S'mov'
p845
sg25
S'0x81adbc7L'
p846
sg27
Nsba(ibclass
BInstr
p847
(dp848
g2
Nsg17
S'lea     eax, [ebp+digv]'
p849
sg19
S'8d45cc'
p850
sg21
Vlea eax, [ebp - 0x34]
p851
sg5
L135977935L
sg6
Nsg23
S'lea'
p852
sg25
S'0x81adbcfL'
p853
sg27
Nsba(ibclass
BInstr
p854
(dp855
g2
Nsg17
S'mov     [esp], eax      ; buf'
p856
sg19
S'890424'
p857
sg21
Vmov dword ptr [esp], eax
p858
sg5
L135977938L
sg6
Nsg23
S'mov'
p859
sg25
S'0x81adbd2L'
p860
sg27
Nsba(ibclass
BInstr
p861
(dp862
g2
Nsg17
S'call    RAND_pseudo_bytes'
p863
sg19
S'e81112f9ff'
p864
sg21
Vcall 0xfff91216
p865
sg5
L135977941L
sg6
Nsg23
S'call'
p866
sg25
S'0x81adbd5L'
p867
sg27
Nsba(ibclass
BInstr
p868
(dp869
g2
Nsg17
S'test    eax, eax'
p870
sg19
S'85c0'
p871
sg21
Vtest eax, eax
p872
sg5
L135977946L
sg6
Nsg23
S'test'
p873
sg25
S'0x81adbdaL'
p874
sg27
Nsba(ibclass
BInstr
p875
(dp876
g2
Nsg17
S'jns     short loc_81ADBE3'
p877
sg19
S'7905'
p878
sg21
Vjns 7
p879
sg5
L135977948L
sg6
Nsg23
S'jns'
p880
sg25
S'0x81adbdcL'
p881
sg27
Nsbasg112
(lp882
Vmov mem, address
p883
aVlea eax, mem
p884
aVmov mem, eax
p885
aVcall address
p886
ag872
ag879
asg123
Nsg5
S'0x81adbc7L'
p887
sg125
(lp888
S'0x81adb85L'
p889
asg6
Nsg127
(lp890
S'0x81adbdeL'
p891
aS'0x81adbe3L'
p892
asg131
Nsg132
Nsg133
S'0c11fb590ac09e7bd7f84b382d1f9dd2'
p893
sg135
S'9bc94be33d1c339e81cb4ff8787b76e1'
p894
sg137
(lp895
g845
ag852
ag859
ag866
ag873
ag880
asg139
Nsba(ibclass
BBasicBlock
p896
(dp897
g12
Nsg13
(lp898
(ibclass
BInstr
p899
(dp900
g2
Nsg17
S'jmp     err'
p901
sg19
S'e9e8000000'
p902
sg21
Vjmp 0xed
p903
sg5
L135977950L
sg6
Nsg23
S'jmp'
p904
sg25
S'0x81adbdeL'
p905
sg27
Nsbasg112
(lp906
Vjmp address
p907
asg123
Nsg5
S'0x81adbdeL'
p908
sg125
(lp909
S'0x81adbc7L'
p910
asg6
Nsg127
(lp911
S'0x81adccbL'
p912
asg131
Nsg132
Nsg133
S'0ef6cf926f2f394b0cc8e11be8022625'
p913
sg135
S'd4372e4caa7348928655251605aa7329'
p914
sg137
(lp915
g904
asg139
Nsba(ibclass
BBasicBlock
p916
(dp917
g12
Nsg13
(lp918
(ibclass
BInstr
p919
(dp920
g2
Nsg17
S'lea     eax, [ebp+ctxt]'
p921
sg19
S'8d45b4'
p922
sg21
Vlea eax, [ebp - 0x4c]
p923
sg5
L135977955L
sg6
Nsg23
S'lea'
p924
sg25
S'0x81adbe3L'
p925
sg27
Nsba(ibclass
BInstr
p926
(dp927
g2
Nsg17
S'mov     [esp], eax      ; ctx'
p928
sg19
S'890424'
p929
sg21
Vmov dword ptr [esp], eax
p930
sg5
L135977958L
sg6
Nsg23
S'mov'
p931
sg25
S'0x81adbe6L'
p932
sg27
Nsba(ibclass
BInstr
p933
(dp934
g2
Nsg17
S'call    EVP_MD_CTX_init'
p935
sg19
S'e88535f9ff'
p936
sg21
Vcall 0xfff9358a
p937
sg5
L135977961L
sg6
Nsg23
S'call'
p938
sg25
S'0x81adbe9L'
p939
sg27
Nsba(ibclass
BInstr
p940
(dp941
g2
Nsg17
S'call    EVP_sha1'
p942
sg19
S'e8e6a6f9ff'
p943
sg21
Vcall 0xfff9a6eb
p944
sg5
L135977966L
sg6
Nsg23
S'call'
p945
sg25
S'0x81adbeeL'
p946
sg27
Nsba(ibclass
BInstr
p947
(dp948
g2
Nsg17
S'mov     dword ptr [esp+8], 0; impl'
p949
sg19
S'c744240800000000'
p950
sg21
Vmov dword ptr [esp + 8], 0
p951
sg5
L135977971L
sg6
Nsg23
S'mov'
p952
sg25
S'0x81adbf3L'
p953
sg27
Nsba(ibclass
BInstr
p954
(dp955
g2
Nsg17
S'mov     [esp+4], eax    ; type'
p956
sg19
S'89442404'
p957
sg21
Vmov dword ptr [esp + 4], eax
p958
sg5
L135977979L
sg6
Nsg23
S'mov'
p959
sg25
S'0x81adbfbL'
p960
sg27
Nsba(ibclass
BInstr
p961
(dp962
g2
Nsg17
S'lea     eax, [ebp+ctxt]'
p963
sg19
S'8d45b4'
p964
sg21
Vlea eax, [ebp - 0x4c]
p965
sg5
L135977983L
sg6
Nsg23
S'lea'
p966
sg25
S'0x81adbffL'
p967
sg27
Nsba(ibclass
BInstr
p968
(dp969
g2
Nsg17
S'mov     [esp], eax      ; ctx'
p970
sg19
S'890424'
p971
sg21
Vmov dword ptr [esp], eax
p972
sg5
L135977986L
sg6
Nsg23
S'mov'
p973
sg25
S'0x81adc02L'
p974
sg27
Nsba(ibclass
BInstr
p975
(dp976
g2
Nsg17
S'call    EVP_DigestInit_ex'
p977
sg19
S'e8f435f9ff'
p978
sg21
Vcall 0xfff935f9
p979
sg5
L135977989L
sg6
Nsg23
S'call'
p980
sg25
S'0x81adc05L'
p981
sg27
Nsba(ibclass
BInstr
p982
(dp983
g2
Nsg17
S'mov     eax, [ebp+vb]'
p984
sg19
S'8b45a4'
p985
sg21
Vmov eax, dword ptr [ebp - 0x5c]
p986
sg5
L135977994L
sg6
Nsg23
S'mov'
p987
sg25
S'0x81adc0aL'
p988
sg27
Nsba(ibclass
BInstr
p989
(dp990
g2
Nsg17
S'mov     eax, [eax+8]'
p991
sg19
S'8b4008'
p992
sg21
Vmov eax, dword ptr [eax + 8]
p993
sg5
L135977997L
sg6
Nsg23
S'mov'
p994
sg25
S'0x81adc0dL'
p995
sg27
Nsba(ibclass
BInstr
p996
(dp997
g2
Nsg17
S'mov     [esp], eax      ; s'
p998
sg19
S'890424'
p999
sg21
Vmov dword ptr [esp], eax
p1000
sg5
L135978000L
sg6
Nsg23
S'mov'
p1001
sg25
S'0x81adc10L'
p1002
sg27
Nsba(ibclass
BInstr
p1003
(dp1004
g2
Nsg17
S'call    _strlen'
p1005
sg19
S'e8a8bce9ff'
p1006
sg21
Vcall 0xffe9bcad
p1007
sg5
L135978003L
sg6
Nsg23
S'call'
p1008
sg25
S'0x81adc13L'
p1009
sg27
Nsba(ibclass
BInstr
p1010
(dp1011
g2
Nsg17
S'mov     edx, [ebp+vb]'
p1012
sg19
S'8b55a4'
p1013
sg21
Vmov edx, dword ptr [ebp - 0x5c]
p1014
sg5
L135978008L
sg6
Nsg23
S'mov'
p1015
sg25
S'0x81adc18L'
p1016
sg27
Nsba(ibclass
BInstr
p1017
(dp1018
g2
Nsg17
S'mov     edx, [edx+8]'
p1019
sg19
S'8b5208'
p1020
sg21
Vmov edx, dword ptr [edx + 8]
p1021
sg5
L135978011L
sg6
Nsg23
S'mov'
p1022
sg25
S'0x81adc1bL'
p1023
sg27
Nsba(ibclass
BInstr
p1024
(dp1025
g2
Nsg17
S'mov     [esp+8], eax    ; count'
p1026
sg19
S'89442408'
p1027
sg21
Vmov dword ptr [esp + 8], eax
p1028
sg5
L135978014L
sg6
Nsg23
S'mov'
p1029
sg25
S'0x81adc1eL'
p1030
sg27
Nsba(ibclass
BInstr
p1031
(dp1032
g2
Nsg17
S'mov     [esp+4], edx    ; data'
p1033
sg19
S'89542404'
p1034
sg21
Vmov dword ptr [esp + 4], edx
p1035
sg5
L135978018L
sg6
Nsg23
S'mov'
p1036
sg25
S'0x81adc22L'
p1037
sg27
Nsba(ibclass
BInstr
p1038
(dp1039
g2
Nsg17
S'lea     eax, [ebp+ctxt]'
p1040
sg19
S'8d45b4'
p1041
sg21
Vlea eax, [ebp - 0x4c]
p1042
sg5
L135978022L
sg6
Nsg23
S'lea'
p1043
sg25
S'0x81adc26L'
p1044
sg27
Nsba(ibclass
BInstr
p1045
(dp1046
g2
Nsg17
S'mov     [esp], eax      ; ctx'
p1047
sg19
S'890424'
p1048
sg21
Vmov dword ptr [esp], eax
p1049
sg5
L135978025L
sg6
Nsg23
S'mov'
p1050
sg25
S'0x81adc29L'
p1051
sg27
Nsba(ibclass
BInstr
p1052
(dp1053
g2
Nsg17
S'call    EVP_DigestUpdate'
p1054
sg19
S'e89e38f9ff'
p1055
sg21
Vcall 0xfff938a3
p1056
sg5
L135978028L
sg6
Nsg23
S'call'
p1057
sg25
S'0x81adc2cL'
p1058
sg27
Nsba(ibclass
BInstr
p1059
(dp1060
g2
Nsg17
S'mov     eax, [ebp+username]'
p1061
sg19
S'8b45a0'
p1062
sg21
Vmov eax, dword ptr [ebp - 0x60]
p1063
sg5
L135978033L
sg6
Nsg23
S'mov'
p1064
sg25
S'0x81adc31L'
p1065
sg27
Nsba(ibclass
BInstr
p1066
(dp1067
g2
Nsg17
S'mov     [esp], eax      ; s'
p1068
sg19
S'890424'
p1069
sg21
Vmov dword ptr [esp], eax
p1070
sg5
L135978036L
sg6
Nsg23
S'mov'
p1071
sg25
S'0x81adc34L'
p1072
sg27
Nsba(ibclass
BInstr
p1073
(dp1074
g2
Nsg17
S'call    _strlen'
p1075
sg19
S'e884bce9ff'
p1076
sg21
Vcall 0xffe9bc89
p1077
sg5
L135978039L
sg6
Nsg23
S'call'
p1078
sg25
S'0x81adc37L'
p1079
sg27
Nsba(ibclass
BInstr
p1080
(dp1081
g2
Nsg17
S'mov     [esp+8], eax    ; count'
p1082
sg19
S'89442408'
p1083
sg21
Vmov dword ptr [esp + 8], eax
p1084
sg5
L135978044L
sg6
Nsg23
S'mov'
p1085
sg25
S'0x81adc3cL'
p1086
sg27
Nsba(ibclass
BInstr
p1087
(dp1088
g2
Nsg17
S'mov     eax, [ebp+username]'
p1089
sg19
S'8b45a0'
p1090
sg21
Vmov eax, dword ptr [ebp - 0x60]
p1091
sg5
L135978048L
sg6
Nsg23
S'mov'
p1092
sg25
S'0x81adc40L'
p1093
sg27
Nsba(ibclass
BInstr
p1094
(dp1095
g2
Nsg17
S'mov     [esp+4], eax    ; data'
p1096
sg19
S'89442404'
p1097
sg21
Vmov dword ptr [esp + 4], eax
p1098
sg5
L135978051L
sg6
Nsg23
S'mov'
p1099
sg25
S'0x81adc43L'
p1100
sg27
Nsba(ibclass
BInstr
p1101
(dp1102
g2
Nsg17
S'lea     eax, [ebp+ctxt]'
p1103
sg19
S'8d45b4'
p1104
sg21
Vlea eax, [ebp - 0x4c]
p1105
sg5
L135978055L
sg6
Nsg23
S'lea'
p1106
sg25
S'0x81adc47L'
p1107
sg27
Nsba(ibclass
BInstr
p1108
(dp1109
g2
Nsg17
S'mov     [esp], eax      ; ctx'
p1110
sg19
S'890424'
p1111
sg21
Vmov dword ptr [esp], eax
p1112
sg5
L135978058L
sg6
Nsg23
S'mov'
p1113
sg25
S'0x81adc4aL'
p1114
sg27
Nsba(ibclass
BInstr
p1115
(dp1116
g2
Nsg17
S'call    EVP_DigestUpdate'
p1117
sg19
S'e87d38f9ff'
p1118
sg21
Vcall 0xfff93882
p1119
sg5
L135978061L
sg6
Nsg23
S'call'
p1120
sg25
S'0x81adc4dL'
p1121
sg27
Nsba(ibclass
BInstr
p1122
(dp1123
g2
Nsg17
S'mov     dword ptr [esp+8], 0; size'
p1124
sg19
S'c744240800000000'
p1125
sg21
Vmov dword ptr [esp + 8], 0
p1126
sg5
L135978066L
sg6
Nsg23
S'mov'
p1127
sg25
S'0x81adc52L'
p1128
sg27
Nsba(ibclass
BInstr
p1129
(dp1130
g2
Nsg17
S'lea     eax, [ebp+digs]'
p1131
sg19
S'8d45e0'
p1132
sg21
Vlea eax, [ebp - 0x20]
p1133
sg5
L135978074L
sg6
Nsg23
S'lea'
p1134
sg25
S'0x81adc5aL'
p1135
sg27
Nsba(ibclass
BInstr
p1136
(dp1137
g2
Nsg17
S'mov     [esp+4], eax    ; md'
p1138
sg19
S'89442404'
p1139
sg21
Vmov dword ptr [esp + 4], eax
p1140
sg5
L135978077L
sg6
Nsg23
S'mov'
p1141
sg25
S'0x81adc5dL'
p1142
sg27
Nsba(ibclass
BInstr
p1143
(dp1144
g2
Nsg17
S'lea     eax, [ebp+ctxt]'
p1145
sg19
S'8d45b4'
p1146
sg21
Vlea eax, [ebp - 0x4c]
p1147
sg5
L135978081L
sg6
Nsg23
S'lea'
p1148
sg25
S'0x81adc61L'
p1149
sg27
Nsba(ibclass
BInstr
p1150
(dp1151
g2
Nsg17
S'mov     [esp], eax      ; ctx'
p1152
sg19
S'890424'
p1153
sg21
Vmov dword ptr [esp], eax
p1154
sg5
L135978084L
sg6
Nsg23
S'mov'
p1155
sg25
S'0x81adc64L'
p1156
sg27
Nsba(ibclass
BInstr
p1157
(dp1158
g2
Nsg17
S'call    EVP_DigestFinal_ex'
p1159
sg19
S'e8b938f9ff'
p1160
sg21
Vcall 0xfff938be
p1161
sg5
L135978087L
sg6
Nsg23
S'call'
p1162
sg25
S'0x81adc67L'
p1163
sg27
Nsba(ibclass
BInstr
p1164
(dp1165
g2
Nsg17
S'lea     eax, [ebp+ctxt]'
p1166
sg19
S'8d45b4'
p1167
sg21
Vlea eax, [ebp - 0x4c]
p1168
sg5
L135978092L
sg6
Nsg23
S'lea'
p1169
sg25
S'0x81adc6cL'
p1170
sg27
Nsba(ibclass
BInstr
p1171
(dp1172
g2
Nsg17
S'mov     [esp], eax      ; ctx'
p1173
sg19
S'890424'
p1174
sg21
Vmov dword ptr [esp], eax
p1175
sg5
L135978095L
sg6
Nsg23
S'mov'
p1176
sg25
S'0x81adc6fL'
p1177
sg27
Nsba(ibclass
BInstr
p1178
(dp1179
g2
Nsg17
S'call    EVP_MD_CTX_cleanup'
p1180
sg19
S'e8693cf9ff'
p1181
sg21
Vcall 0xfff93c6e
p1182
sg5
L135978098L
sg6
Nsg23
S'call'
p1183
sg25
S'0x81adc72L'
p1184
sg27
Nsba(ibclass
BInstr
p1185
(dp1186
g2
Nsg17
S'mov     dword ptr [esp+8], 0; ret'
p1187
sg19
S'c744240800000000'
p1188
sg21
Vmov dword ptr [esp + 8], 0
p1189
sg5
L135978103L
sg6
Nsg23
S'mov'
p1190
sg25
S'0x81adc77L'
p1191
sg27
Nsba(ibclass
BInstr
p1192
(dp1193
g2
Nsg17
S'mov     dword ptr [esp+4], 14h; len'
p1194
sg19
S'c744240414000000'
p1195
sg21
Vmov dword ptr [esp + 4], 0x14
p1196
sg5
L135978111L
sg6
Nsg23
S'mov'
p1197
sg25
S'0x81adc7fL'
p1198
sg27
Nsba(ibclass
BInstr
p1199
(dp1200
g2
Nsg17
S'lea     eax, [ebp+digv]'
p1201
sg19
S'8d45cc'
p1202
sg21
Vlea eax, [ebp - 0x34]
p1203
sg5
L135978119L
sg6
Nsg23
S'lea'
p1204
sg25
S'0x81adc87L'
p1205
sg27
Nsba(ibclass
BInstr
p1206
(dp1207
g2
Nsg17
S'mov     [esp], eax      ; s'
p1208
sg19
S'890424'
p1209
sg21
Vmov dword ptr [esp], eax
p1210
sg5
L135978122L
sg6
Nsg23
S'mov'
p1211
sg25
S'0x81adc8aL'
p1212
sg27
Nsba(ibclass
BInstr
p1213
(dp1214
g2
Nsg17
S'call    BN_bin2bn'
p1215
sg19
S'e84c19f6ff'
p1216
sg21
Vcall 0xfff61951
p1217
sg5
L135978125L
sg6
Nsg23
S'call'
p1218
sg25
S'0x81adc8dL'
p1219
sg27
Nsba(ibclass
BInstr
p1220
(dp1221
g2
Nsg17
S'mov     ebx, eax'
p1222
sg19
S'89c3'
p1223
sg21
Vmov ebx, eax
p1224
sg5
L135978130L
sg6
Nsg23
S'mov'
p1225
sg25
S'0x81adc92L'
p1226
sg27
Nsba(ibclass
BInstr
p1227
(dp1228
g2
Nsg17
S'mov     dword ptr [esp+8], 0; ret'
p1229
sg19
S'c744240800000000'
p1230
sg21
Vmov dword ptr [esp + 8], 0
p1231
sg5
L135978132L
sg6
Nsg23
S'mov'
p1232
sg25
S'0x81adc94L'
p1233
sg27
Nsba(ibclass
BInstr
p1234
(dp1235
g2
Nsg17
S'mov     dword ptr [esp+4], 14h; len'
p1236
sg19
S'c744240414000000'
p1237
sg21
Vmov dword ptr [esp + 4], 0x14
p1238
sg5
L135978140L
sg6
Nsg23
S'mov'
p1239
sg25
S'0x81adc9cL'
p1240
sg27
Nsba(ibclass
BInstr
p1241
(dp1242
g2
Nsg17
S'lea     eax, [ebp+digs]'
p1243
sg19
S'8d45e0'
p1244
sg21
Vlea eax, [ebp - 0x20]
p1245
sg5
L135978148L
sg6
Nsg23
S'lea'
p1246
sg25
S'0x81adca4L'
p1247
sg27
Nsba(ibclass
BInstr
p1248
(dp1249
g2
Nsg17
S'mov     [esp], eax      ; s'
p1250
sg19
S'890424'
p1251
sg21
Vmov dword ptr [esp], eax
p1252
sg5
L135978151L
sg6
Nsg23
S'mov'
p1253
sg25
S'0x81adca7L'
p1254
sg27
Nsba(ibclass
BInstr
p1255
(dp1256
g2
Nsg17
S'call    BN_bin2bn'
p1257
sg19
S'e82f19f6ff'
p1258
sg21
Vcall 0xfff61934
p1259
sg5
L135978154L
sg6
Nsg23
S'call'
p1260
sg25
S'0x81adcaaL'
p1261
sg27
Nsba(ibclass
BInstr
p1262
(dp1263
g2
Nsg17
S'mov     [esp+8], ebx    ; v'
p1264
sg19
S'895c2408'
p1265
sg21
Vmov dword ptr [esp + 8], ebx
p1266
sg5
L135978159L
sg6
Nsg23
S'mov'
p1267
sg25
S'0x81adcafL'
p1268
sg27
Nsba(ibclass
BInstr
p1269
(dp1270
g2
Nsg17
S'mov     [esp+4], eax    ; s'
p1271
sg19
S'89442404'
p1272
sg21
Vmov dword ptr [esp + 4], eax
p1273
sg5
L135978163L
sg6
Nsg23
S'mov'
p1274
sg25
S'0x81adcb3L'
p1275
sg27
Nsba(ibclass
BInstr
p1276
(dp1277
g2
Nsg17
S'mov     eax, [ebp+user]'
p1278
sg19
S'8b45b0'
p1279
sg21
Vmov eax, dword ptr [ebp - 0x50]
p1280
sg5
L135978167L
sg6
Nsg23
S'mov'
p1281
sg25
S'0x81adcb7L'
p1282
sg27
Nsba(ibclass
BInstr
p1283
(dp1284
g2
Nsg17
S'mov     [esp], eax      ; vinfo'
p1285
sg19
S'890424'
p1286
sg21
Vmov dword ptr [esp], eax
p1287
sg5
L135978170L
sg6
Nsg23
S'mov'
p1288
sg25
S'0x81adcbaL'
p1289
sg27
Nsba(ibclass
BInstr
p1290
(dp1291
g2
Nsg17
S'call    SRP_user_pwd_set_sv_BN'
p1292
sg19
S'e8a4f6ffff'
p1293
sg21
Vcall 0xfffff6a9
p1294
sg5
L135978173L
sg6
Nsg23
S'call'
p1295
sg25
S'0x81adcbdL'
p1296
sg27
Nsba(ibclass
BInstr
p1297
(dp1298
g2
Nsg17
S'test    eax, eax'
p1299
sg19
S'85c0'
p1300
sg21
Vtest eax, eax
p1301
sg5
L135978178L
sg6
Nsg23
S'test'
p1302
sg25
S'0x81adcc2L'
p1303
sg27
Nsba(ibclass
BInstr
p1304
(dp1305
g2
Nsg17
S'jz      short err'
p1306
sg19
S'7405'
p1307
sg21
Vje 7
p1308
sg5
L135978180L
sg6
Nsg23
S'jz'
p1309
sg25
S'0x81adcc4L'
p1310
sg27
Nsbasg112
(lp1311
Vlea eax, mem
p1312
aVmov mem, eax
p1313
aVcall address
p1314
aVcall address
p1315
aVmov mem, 0
p1316
aVmov mem, eax
p1317
aVlea eax, mem
p1318
aVmov mem, eax
p1319
aVcall address
p1320
aVmov eax, mem
p1321
aVmov eax, mem
p1322
aVmov mem, eax
p1323
aVcall address
p1324
aVmov edx, mem
p1325
aVmov edx, mem
p1326
aVmov mem, eax
p1327
aVmov mem, edx
p1328
aVlea eax, mem
p1329
aVmov mem, eax
p1330
aVcall address
p1331
aVmov eax, mem
p1332
aVmov mem, eax
p1333
aVcall address
p1334
aVmov mem, eax
p1335
aVmov eax, mem
p1336
aVmov mem, eax
p1337
aVlea eax, mem
p1338
aVmov mem, eax
p1339
aVcall address
p1340
aVmov mem, 0
p1341
aVlea eax, mem
p1342
aVmov mem, eax
p1343
aVlea eax, mem
p1344
aVmov mem, eax
p1345
aVcall address
p1346
aVlea eax, mem
p1347
aVmov mem, eax
p1348
aVcall address
p1349
aVmov mem, 0
p1350
aVmov mem, address
p1351
aVlea eax, mem
p1352
aVmov mem, eax
p1353
aVcall address
p1354
ag1224
aVmov mem, 0
p1355
aVmov mem, address
p1356
aVlea eax, mem
p1357
aVmov mem, eax
p1358
aVcall address
p1359
aVmov mem, ebx
p1360
aVmov mem, eax
p1361
aVmov eax, mem
p1362
aVmov mem, eax
p1363
aVcall address
p1364
ag1301
ag1308
asg123
Nsg5
S'0x81adbe3L'
p1365
sg125
(lp1366
S'0x81adbc7L'
p1367
asg6
Nsg127
(lp1368
S'0x81adcc6L'
p1369
aS'0x81adccbL'
p1370
asg131
Nsg132
Nsg133
S'663894c258de46ecfeee974bb10dcfde'
p1371
sg135
S'f121c17572fb6f99134ba0a3309d9cbb'
p1372
sg137
(lp1373
g924
ag931
ag938
ag945
ag952
ag959
ag966
ag973
ag980
ag987
ag994
ag1001
ag1008
ag1015
ag1022
ag1029
ag1036
ag1043
ag1050
ag1057
ag1064
ag1071
ag1078
ag1085
ag1092
ag1099
ag1106
ag1113
ag1120
ag1127
ag1134
ag1141
ag1148
ag1155
ag1162
ag1169
ag1176
ag1183
ag1190
ag1197
ag1204
ag1211
ag1218
ag1225
ag1232
ag1239
ag1246
ag1253
ag1260
ag1267
ag1274
ag1281
ag1288
ag1295
ag1302
ag1309
asg139
Nsba(ibclass
BBasicBlock
p1374
(dp1375
g12
Nsg13
(lp1376
(ibclass
BInstr
p1377
(dp1378
g2
Nsg17
S'mov     eax, [ebp+user]'
p1379
sg19
S'8b45b0'
p1380
sg21
Vmov eax, dword ptr [ebp - 0x50]
p1381
sg5
L135978182L
sg6
Nsg23
S'mov'
p1382
sg25
S'0x81adcc6L'
p1383
sg27
Nsba(ibclass
BInstr
p1384
(dp1385
g2
Nsg17
S'jmp     short loc_81ADCDB'
p1386
sg19
S'eb10'
p1387
sg21
Vjmp 0x12
p1388
sg5
L135978185L
sg6
Nsg23
S'jmp'
p1389
sg25
S'0x81adcc9L'
p1390
sg27
Nsbasg112
(lp1391
Vmov eax, mem
p1392
aVjmp address
p1393
asg123
Nsg5
S'0x81adcc6L'
p1394
sg125
(lp1395
S'0x81adbe3L'
p1396
asg6
Nsg127
(lp1397
S'0x81adcdbL'
p1398
asg131
Nsg132
Nsg133
S'8b9a0d40e062be2b9b2d9885108fb196'
p1399
sg135
S'5a5b261ba52a671a369af6372509eb2f'
p1400
sg137
(lp1401
g1382
ag1389
asg139
Nsba(ibclass
BBasicBlock
p1402
(dp1403
g12
Nsg13
(lp1404
(ibclass
BInstr
p1405
(dp1406
g2
Nsg17
S'mov     eax, [ebp+user]'
p1407
sg19
S'8b45b0'
p1408
sg21
Vmov eax, dword ptr [ebp - 0x50]
p1409
sg5
L135978187L
sg6
Nsg23
S'mov'
p1410
sg25
S'0x81adccbL'
p1411
sg27
Nsba(ibclass
BInstr
p1412
(dp1413
g2
Nsg17
S'mov     [esp], eax      ; user_pwd'
p1414
sg19
S'890424'
p1415
sg21
Vmov dword ptr [esp], eax
p1416
sg5
L135978190L
sg6
Nsg23
S'mov'
p1417
sg25
S'0x81adcceL'
p1418
sg27
Nsba(ibclass
BInstr
p1419
(dp1420
g2
Nsg17
S'call    SRP_user_pwd_free'
p1421
sg19
S'e82ff4ffff'
p1422
sg21
Vcall 0xfffff434
p1423
sg5
L135978193L
sg6
Nsg23
S'call'
p1424
sg25
S'0x81adcd1L'
p1425
sg27
Nsba(ibclass
BInstr
p1426
(dp1427
g2
Nsg17
S'mov     eax, 0'
p1428
sg19
S'b800000000'
p1429
sg21
Vmov eax, 0
p1430
sg5
L135978198L
sg6
Nsg23
S'mov'
p1431
sg25
S'0x81adcd6L'
p1432
sg27
Nsbasg112
(lp1433
Vmov eax, mem
p1434
aVmov mem, eax
p1435
aVcall address
p1436
ag1430
asg123
Nsg5
S'0x81adccbL'
p1437
sg125
(lp1438
S'0x81adbc2L'
p1439
aS'0x81adbdeL'
p1440
aS'0x81adbe3L'
p1441
asg6
Nsg127
(lp1442
S'0x81adcdbL'
p1443
asg131
Nsg132
Nsg133
S'a6abb5d9994936d83c79ed1f9957ba18'
p1444
sg135
S'7e9aaa9eea49cef865e7d8e93de6f187'
p1445
sg137
(lp1446
g1410
ag1417
ag1424
ag1431
asg139
Nsba(ibclass
BBasicBlock
p1447
(dp1448
g12
Nsg13
(lp1449
(ibclass
BInstr
p1450
(dp1451
g2
Nsg17
S'mov     ecx, [ebp+var_C]'
p1452
sg19
S'8b4df4'
p1453
sg21
Vmov ecx, dword ptr [ebp - 0xc]
p1454
sg5
L135978203L
sg6
Nsg23
S'mov'
p1455
sg25
S'0x81adcdbL'
p1456
sg27
Nsba(ibclass
BInstr
p1457
(dp1458
g2
Nsg17
S'xor     ecx, large gs:14h'
p1459
sg19
S'65330d14000000'
p1460
sg21
Vxor ecx, dword ptr gs:[0x14]
p1461
sg5
L135978206L
sg6
Nsg23
S'xor'
p1462
sg25
S'0x81adcdeL'
p1463
sg27
Nsba(ibclass
BInstr
p1464
(dp1465
g2
Nsg17
S'jz      short loc_81ADCEC'
p1466
sg19
S'7405'
p1467
sg21
Vje 7
p1468
sg5
L135978213L
sg6
Nsg23
S'jz'
p1469
sg25
S'0x81adce5L'
p1470
sg27
Nsbasg112
(lp1471
Vmov ecx, mem
p1472
aVxor ecx, gs:mem
p1473
ag1468
asg123
Nsg5
S'0x81adcdbL'
p1474
sg125
(lp1475
S'0x81adae6L'
p1476
aS'0x81adb28L'
p1477
aS'0x81adb63L'
p1478
aS'0x81adb7bL'
p1479
aS'0x81adcc6L'
p1480
aS'0x81adccbL'
p1481
asg6
Nsg127
(lp1482
S'0x81adce7L'
p1483
aS'0x81adcecL'
p1484
asg131
Nsg132
Nsg133
S'81354ac238b6424b069ead35b2072afc'
p1485
sg135
S'ef43ae426fdfa90a3b78bdfa42234cf8'
p1486
sg137
(lp1487
g1455
ag1462
ag1469
asg139
Nsba(ibclass
BBasicBlock
p1488
(dp1489
g12
Nsg13
(lp1490
(ibclass
BInstr
p1491
(dp1492
g2
Nsg17
S'call    ___stack_chk_fail'
p1493
sg19
S'e894b9e9ff'
p1494
sg21
Vcall 0xffe9b999
p1495
sg5
L135978215L
sg6
Nsg23
S'call'
p1496
sg25
S'0x81adce7L'
p1497
sg27
Nsbasg112
(lp1498
Vcall address
p1499
asg123
Nsg5
S'0x81adce7L'
p1500
sg125
(lp1501
S'0x81adcdbL'
p1502
asg6
Nsg127
(lp1503
sg131
Nsg132
Nsg133
S'53b9e9679a8ea25880376080b76f98ad'
p1504
sg135
S'5c3539e46d089242d4a47b64016c87be'
p1505
sg137
(lp1506
g1496
asg139
Nsba(ibclass
BBasicBlock
p1507
(dp1508
g12
Nsg13
(lp1509
(ibclass
BInstr
p1510
(dp1511
g2
Nsg17
S'add     esp, 74h'
p1512
sg19
S'83c474'
p1513
sg21
Vadd esp, 0x74
p1514
sg5
L135978220L
sg6
Nsg23
S'add'
p1515
sg25
S'0x81adcecL'
p1516
sg27
Nsba(ibclass
BInstr
p1517
(dp1518
g2
Nsg17
S'pop     ebx'
p1519
sg19
S'5b'
p1520
sg21
Vpop ebx
p1521
sg5
L135978223L
sg6
Nsg23
S'pop'
p1522
sg25
S'0x81adcefL'
p1523
sg27
Nsba(ibclass
BInstr
p1524
(dp1525
g2
Nsg17
S'pop     ebp'
p1526
sg19
S'5d'
p1527
sg21
Vpop ebp
p1528
sg5
L135978224L
sg6
Nsg23
S'pop'
p1529
sg25
S'0x81adcf0L'
p1530
sg27
Nsba(ibclass
BInstr
p1531
(dp1532
g2
Nsg17
S'retn'
p1533
sg19
S'c3'
p1534
sg21
Vret 
p1535
sg5
L135978225L
sg6
Nsg23
S'retn'
p1536
sg25
S'0x81adcf1L'
p1537
sg27
Nsbasg112
(lp1538
Vadd esp, address
p1539
ag1521
ag1528
aVret
p1540
asg123
Nsg5
S'0x81adcecL'
p1541
sg125
(lp1542
S'0x81adcdbL'
p1543
asg6
Nsg127
(lp1544
sg131
Nsg132
Nsg133
S'4d1981a678d0c70281d5161c3174b44c'
p1545
sg135
S'd4189a9002395f50ce2cc84f459d3b62'
p1546
sg137
(lp1547
g1515
ag1522
ag1529
ag1536
asg139
Nsbasb.