(ibclass
BFunc
p0
(dp1
S'hash'
p2
NsS'name'
p3
S'X509_verify'
p4
sS'start_address'
p5
L135757229L
sS'flag'
p6
NsS'program'
p7
NsS'bbs'
p8
(lp9
(ibclass
BBasicBlock
p10
(dp11
S'function'
p12
NsS'binstrs'
p13
(lp14
(ibclass
BInstr
p15
(dp16
g2
NsS'disasm'
p17
S'push    ebp'
p18
sS'bytes'
p19
S'55'
p20
sS'disasm_striped'
p21
Vpush ebp
p22
sg5
L135757229L
sg6
NsS'mnem'
p23
S'push'
p24
sS'address'
p25
S'0x8177dadL'
p26
sS'basicblock'
p27
Nsba(ibclass
BInstr
p28
(dp29
g2
Nsg17
S'mov     ebp, esp'
p30
sg19
S'89e5'
p31
sg21
Vmov ebp, esp
p32
sg5
L135757230L
sg6
Nsg23
S'mov'
p33
sg25
S'0x8177daeL'
p34
sg27
Nsba(ibclass
BInstr
p35
(dp36
g2
Nsg17
S'push    ebx'
p37
sg19
S'53'
p38
sg21
Vpush ebx
p39
sg5
L135757232L
sg6
Nsg23
S'push'
p40
sg25
S'0x8177db0L'
p41
sg27
Nsba(ibclass
BInstr
p42
(dp43
g2
Nsg17
S'sub     esp, 24h'
p44
sg19
S'83ec24'
p45
sg21
Vsub esp, 0x24
p46
sg5
L135757233L
sg6
Nsg23
S'sub'
p47
sg25
S'0x8177db1L'
p48
sg27
Nsba(ibclass
BInstr
p49
(dp50
g2
Nsg17
S'mov     eax, [ebp+a]'
p51
sg19
S'8b4508'
p52
sg21
Vmov eax, dword ptr [ebp + 8]
p53
sg5
L135757236L
sg6
Nsg23
S'mov'
p54
sg25
S'0x8177db4L'
p55
sg27
Nsba(ibclass
BInstr
p56
(dp57
g2
Nsg17
S'mov     eax, [eax]'
p58
sg19
S'8b00'
p59
sg21
Vmov eax, dword ptr [eax]
p60
sg5
L135757239L
sg6
Nsg23
S'mov'
p61
sg25
S'0x8177db7L'
p62
sg27
Nsba(ibclass
BInstr
p63
(dp64
g2
Nsg17
S'mov     edx, [eax+8]'
p65
sg19
S'8b5008'
p66
sg21
Vmov edx, dword ptr [eax + 8]
p67
sg5
L135757241L
sg6
Nsg23
S'mov'
p68
sg25
S'0x8177db9L'
p69
sg27
Nsba(ibclass
BInstr
p70
(dp71
g2
Nsg17
S'mov     eax, [ebp+a]'
p72
sg19
S'8b4508'
p73
sg21
Vmov eax, dword ptr [ebp + 8]
p74
sg5
L135757244L
sg6
Nsg23
S'mov'
p75
sg25
S'0x8177dbcL'
p76
sg27
Nsba(ibclass
BInstr
p77
(dp78
g2
Nsg17
S'mov     eax, [eax+4]'
p79
sg19
S'8b4004'
p80
sg21
Vmov eax, dword ptr [eax + 4]
p81
sg5
L135757247L
sg6
Nsg23
S'mov'
p82
sg25
S'0x8177dbfL'
p83
sg27
Nsba(ibclass
BInstr
p84
(dp85
g2
Nsg17
S'mov     [esp+4], edx    ; b'
p86
sg19
S'89542404'
p87
sg21
Vmov dword ptr [esp + 4], edx
p88
sg5
L135757250L
sg6
Nsg23
S'mov'
p89
sg25
S'0x8177dc2L'
p90
sg27
Nsba(ibclass
BInstr
p91
(dp92
g2
Nsg17
S'mov     [esp], eax      ; a'
p93
sg19
S'890424'
p94
sg21
Vmov dword ptr [esp], eax
p95
sg5
L135757254L
sg6
Nsg23
S'mov'
p96
sg25
S'0x8177dc6L'
p97
sg27
Nsba(ibclass
BInstr
p98
(dp99
g2
Nsg17
S'call    X509_ALGOR_cmp'
p100
sg19
S'e840dffdff'
p101
sg21
Vcall 0xfffddf45
p102
sg5
L135757257L
sg6
Nsg23
S'call'
p103
sg25
S'0x8177dc9L'
p104
sg27
Nsba(ibclass
BInstr
p105
(dp106
g2
Nsg17
S'test    eax, eax'
p107
sg19
S'85c0'
p108
sg21
Vtest eax, eax
p109
sg5
L135757262L
sg6
Nsg23
S'test'
p110
sg25
S'0x8177dceL'
p111
sg27
Nsba(ibclass
BInstr
p112
(dp113
g2
Nsg17
S'jz      short loc_8177DD9'
p114
sg19
S'7407'
p115
sg21
Vje 9
p116
sg5
L135757264L
sg6
Nsg23
S'jz'
p117
sg25
S'0x8177dd0L'
p118
sg27
NsbasS'disasm_list'
p119
(lp120
g22
ag32
ag39
aVsub esp, address
p121
aVmov eax, mem
p122
aVmov eax, mem
p123
aVmov edx, mem
p124
aVmov eax, mem
p125
aVmov eax, mem
p126
aVmov mem, edx
p127
aVmov mem, eax
p128
aVcall address
p129
ag109
ag116
asS'end_address'
p130
Nsg5
S'0x8177dadL'
p131
sS'preds'
p132
(lp133
sg6
NsS'succs'
p134
(lp135
S'0x8177dd2L'
p136
aS'0x8177dd9L'
p137
asS'hash_v3'
p138
NsS'flag_v2'
p139
NsS'hash_v1'
p140
S'cec852e22c2213f75bebc50a022a3b21'
p141
sS'hash_v2'
p142
S'ee6bbeb1cbfa7cafe1c67d58196e5aae'
p143
sS'mnen_list'
p144
(lp145
g24
ag33
ag40
ag47
ag54
ag61
ag68
ag75
ag82
ag89
ag96
ag103
ag110
ag117
asS'neighbour_disasm_list'
p146
Nsba(ibclass
BBasicBlock
p147
(dp148
g12
Nsg13
(lp149
(ibclass
BInstr
p150
(dp151
g2
Nsg17
S'mov     eax, 0'
p152
sg19
S'b800000000'
p153
sg21
Vmov eax, 0
p154
sg5
L135757266L
sg6
Nsg23
S'mov'
p155
sg25
S'0x8177dd2L'
p156
sg27
Nsba(ibclass
BInstr
p157
(dp158
g2
Nsg17
S'jmp     short loc_8177E09'
p159
sg19
S'eb30'
p160
sg21
Vjmp 0x32
p161
sg5
L135757271L
sg6
Nsg23
S'jmp'
p162
sg25
S'0x8177dd7L'
p163
sg27
Nsbasg119
(lp164
g154
aVjmp address
p165
asg130
Nsg5
S'0x8177dd2L'
p166
sg132
(lp167
S'0x8177dadL'
p168
asg6
Nsg134
(lp169
S'0x8177e09L'
p170
asg138
Nsg139
Nsg140
S'8b9a0d40e062be2b9b2d9885108fb196'
p171
sg142
S'bfbe752dd865c9a89011ba470eab331d'
p172
sg144
(lp173
g155
ag162
asg146
Nsba(ibclass
BBasicBlock
p174
(dp175
g12
Nsg13
(lp176
(ibclass
BInstr
p177
(dp178
g2
Nsg17
S'mov     eax, [ebp+a]'
p179
sg19
S'8b4508'
p180
sg21
Vmov eax, dword ptr [ebp + 8]
p181
sg5
L135757273L
sg6
Nsg23
S'mov'
p182
sg25
S'0x8177dd9L'
p183
sg27
Nsba(ibclass
BInstr
p184
(dp185
g2
Nsg17
S'mov     ecx, [eax]'
p186
sg19
S'8b08'
p187
sg21
Vmov ecx, dword ptr [eax]
p188
sg5
L135757276L
sg6
Nsg23
S'mov'
p189
sg25
S'0x8177ddcL'
p190
sg27
Nsba(ibclass
BInstr
p191
(dp192
g2
Nsg17
S'mov     eax, [ebp+a]'
p193
sg19
S'8b4508'
p194
sg21
Vmov eax, dword ptr [ebp + 8]
p195
sg5
L135757278L
sg6
Nsg23
S'mov'
p196
sg25
S'0x8177ddeL'
p197
sg27
Nsba(ibclass
BInstr
p198
(dp199
g2
Nsg17
S'mov     edx, [eax+8]'
p200
sg19
S'8b5008'
p201
sg21
Vmov edx, dword ptr [eax + 8]
p202
sg5
L135757281L
sg6
Nsg23
S'mov'
p203
sg25
S'0x8177de1L'
p204
sg27
Nsba(ibclass
BInstr
p205
(dp206
g2
Nsg17
S'mov     eax, [ebp+a]'
p207
sg19
S'8b4508'
p208
sg21
Vmov eax, dword ptr [ebp + 8]
p209
sg5
L135757284L
sg6
Nsg23
S'mov'
p210
sg25
S'0x8177de4L'
p211
sg27
Nsba(ibclass
BInstr
p212
(dp213
g2
Nsg17
S'mov     eax, [eax+4]'
p214
sg19
S'8b4004'
p215
sg21
Vmov eax, dword ptr [eax + 4]
p216
sg5
L135757287L
sg6
Nsg23
S'mov'
p217
sg25
S'0x8177de7L'
p218
sg27
Nsba(ibclass
BInstr
p219
(dp220
g2
Nsg17
S'mov     ebx, [ebp+r]'
p221
sg19
S'8b5d0c'
p222
sg21
Vmov ebx, dword ptr [ebp + 0xc]
p223
sg5
L135757290L
sg6
Nsg23
S'mov'
p224
sg25
S'0x8177deaL'
p225
sg27
Nsba(ibclass
BInstr
p226
(dp227
g2
Nsg17
S'mov     [esp+10h], ebx  ; pkey'
p228
sg19
S'895c2410'
p229
sg21
Vmov dword ptr [esp + 0x10], ebx
p230
sg5
L135757293L
sg6
Nsg23
S'mov'
p231
sg25
S'0x8177dedL'
p232
sg27
Nsba(ibclass
BInstr
p233
(dp234
g2
Nsg17
S'mov     [esp+0Ch], ecx  ; asn'
p235
sg19
S'894c240c'
p236
sg21
Vmov dword ptr [esp + 0xc], ecx
p237
sg5
L135757297L
sg6
Nsg23
S'mov'
p238
sg25
S'0x8177df1L'
p239
sg27
Nsba(ibclass
BInstr
p240
(dp241
g2
Nsg17
S'mov     [esp+8], edx    ; signature'
p242
sg19
S'89542408'
p243
sg21
Vmov dword ptr [esp + 8], edx
p244
sg5
L135757301L
sg6
Nsg23
S'mov'
p245
sg25
S'0x8177df5L'
p246
sg27
Nsba(ibclass
BInstr
p247
(dp248
g2
Nsg17
S'mov     [esp+4], eax    ; a'
p249
sg19
S'89442404'
p250
sg21
Vmov dword ptr [esp + 4], eax
p251
sg5
L135757305L
sg6
Nsg23
S'mov'
p252
sg25
S'0x8177df9L'
p253
sg27
Nsba(ibclass
BInstr
p254
(dp255
g2
Nsg17
S'mov     dword ptr [esp], offset X509_CINF_it; it'
p256
sg19
S'c70424b4072408'
p257
sg21
Vmov dword ptr [esp], 0x82407b4
p258
sg5
L135757309L
sg6
Nsg23
S'mov'
p259
sg25
S'0x8177dfdL'
p260
sg27
Nsba(ibclass
BInstr
p261
(dp262
g2
Nsg17
S'call    ASN1_item_verify'
p263
sg19
S'e8fd840600'
p264
sg21
Vcall 0x68502
p265
sg5
L135757316L
sg6
Nsg23
S'call'
p266
sg25
S'0x8177e04L'
p267
sg27
Nsbasg119
(lp268
Vmov eax, mem
p269
aVmov ecx, mem
p270
aVmov eax, mem
p271
aVmov edx, mem
p272
aVmov eax, mem
p273
aVmov eax, mem
p274
aVmov ebx, mem
p275
aVmov mem, ebx
p276
aVmov mem, ecx
p277
aVmov mem, edx
p278
aVmov mem, eax
p279
aVmov mem, address
p280
aVcall address
p281
asg130
Nsg5
S'0x8177dd9L'
p282
sg132
(lp283
S'0x8177dadL'
p284
asg6
Nsg134
(lp285
S'0x8177e09L'
p286
asg138
Nsg139
Nsg140
S'da2f9244d23753a9482bd4027bb1434f'
p287
sg142
S'da04ee709b0ecb4c4b9152627bd18900'
p288
sg144
(lp289
g182
ag189
ag196
ag203
ag210
ag217
ag224
ag231
ag238
ag245
ag252
ag259
ag266
asg146
Nsba(ibclass
BBasicBlock
p290
(dp291
g12
Nsg13
(lp292
(ibclass
BInstr
p293
(dp294
g2
Nsg17
S'add     esp, 24h'
p295
sg19
S'83c424'
p296
sg21
Vadd esp, 0x24
p297
sg5
L135757321L
sg6
Nsg23
S'add'
p298
sg25
S'0x8177e09L'
p299
sg27
Nsba(ibclass
BInstr
p300
(dp301
g2
Nsg17
S'pop     ebx'
p302
sg19
S'5b'
p303
sg21
Vpop ebx
p304
sg5
L135757324L
sg6
Nsg23
S'pop'
p305
sg25
S'0x8177e0cL'
p306
sg27
Nsba(ibclass
BInstr
p307
(dp308
g2
Nsg17
S'pop     ebp'
p309
sg19
S'5d'
p310
sg21
Vpop ebp
p311
sg5
L135757325L
sg6
Nsg23
S'pop'
p312
sg25
S'0x8177e0dL'
p313
sg27
Nsba(ibclass
BInstr
p314
(dp315
g2
Nsg17
S'retn'
p316
sg19
S'c3'
p317
sg21
Vret 
p318
sg5
L135757326L
sg6
Nsg23
S'retn'
p319
sg25
S'0x8177e0eL'
p320
sg27
Nsbasg119
(lp321
Vadd esp, address
p322
ag304
ag311
aVret
p323
asg130
Nsg5
S'0x8177e09L'
p324
sg132
(lp325
S'0x8177dd2L'
p326
aS'0x8177dd9L'
p327
asg6
Nsg134
(lp328
sg138
Nsg139
Nsg140
S'4d1981a678d0c70281d5161c3174b44c'
p329
sg142
S'd4189a9002395f50ce2cc84f459d3b62'
p330
sg144
(lp331
g298
ag305
ag312
ag319
asg146
Nsbasb.