(ibclass
BFunc
p0
(dp1
S'hash'
p2
NsS'name'
p3
S'BN_hex2bn'
p4
sS'start_address'
p5
L135318930L
sS'flag'
p6
NsS'program'
p7
NsS'bbs'
p8
(lp9
(ibclass
BBasicBlock
p10
(dp11
S'function'
p12
NsS'binstrs'
p13
(lp14
(ibclass
BInstr
p15
(dp16
g2
NsS'disasm'
p17
S'push    ebp'
p18
sS'bytes'
p19
S'55'
p20
sS'disasm_striped'
p21
Vpush ebp
p22
sg5
L135318930L
sg6
NsS'mnem'
p23
S'push'
p24
sS'address'
p25
S'0x810cd92L'
p26
sS'basicblock'
p27
Nsba(ibclass
BInstr
p28
(dp29
g2
Nsg17
S'mov     ebp, esp'
p30
sg19
S'89e5'
p31
sg21
Vmov ebp, esp
p32
sg5
L135318931L
sg6
Nsg23
S'mov'
p33
sg25
S'0x810cd93L'
p34
sg27
Nsba(ibclass
BInstr
p35
(dp36
g2
Nsg17
S'sub     esp, 58h'
p37
sg19
S'83ec58'
p38
sg21
Vsub esp, 0x58
p39
sg5
L135318933L
sg6
Nsg23
S'sub'
p40
sg25
S'0x810cd95L'
p41
sg27
Nsba(ibclass
BInstr
p42
(dp43
g2
Nsg17
S'mov     [ebp+ret], 0'
p44
sg19
S'c745c400000000'
p45
sg21
Vmov dword ptr [ebp - 0x3c], 0
p46
sg5
L135318936L
sg6
Nsg23
S'mov'
p47
sg25
S'0x810cd98L'
p48
sg27
Nsba(ibclass
BInstr
p49
(dp50
g2
Nsg17
S'mov     [ebp+l], 0'
p51
sg19
S'c745c800000000'
p52
sg21
Vmov dword ptr [ebp - 0x38], 0
p53
sg5
L135318943L
sg6
Nsg23
S'mov'
p54
sg25
S'0x810cd9fL'
p55
sg27
Nsba(ibclass
BInstr
p56
(dp57
g2
Nsg17
S'mov     [ebp+neg], 0'
p58
sg19
S'c745cc00000000'
p59
sg21
Vmov dword ptr [ebp - 0x34], 0
p60
sg5
L135318950L
sg6
Nsg23
S'mov'
p61
sg25
S'0x810cda6L'
p62
sg27
Nsba(ibclass
BInstr
p63
(dp64
g2
Nsg17
S'cmp     [ebp+a], 0'
p65
sg19
S'837d0c00'
p66
sg21
Vcmp dword ptr [ebp + 0xc], 0
p67
sg5
L135318957L
sg6
Nsg23
S'cmp'
p68
sg25
S'0x810cdadL'
p69
sg27
Nsba(ibclass
BInstr
p70
(dp71
g2
Nsg17
S'jz      short loc_810CDBC'
p72
sg19
S'7409'
p73
sg21
Vje 0xb
p74
sg5
L135318961L
sg6
Nsg23
S'jz'
p75
sg25
S'0x810cdb1L'
p76
sg27
NsbasS'disasm_list'
p77
(lp78
g22
ag32
aVsub esp, address
p79
aVmov mem, 0
p80
aVmov mem, 0
p81
aVmov mem, 0
p82
aVcmp mem, 0
p83
aVje address
p84
asS'end_address'
p85
Nsg5
S'0x810cd92L'
p86
sS'preds'
p87
(lp88
sg6
NsS'succs'
p89
(lp90
S'0x810cdb3L'
p91
aS'0x810cdbcL'
p92
asS'hash_v3'
p93
NsS'flag_v2'
p94
NsS'hash_v1'
p95
S'5e0d9e04d51d2bbf795aef1bb6a73128'
p96
sS'hash_v2'
p97
S'56f28d56e9efd52510114f810b50018a'
p98
sS'mnen_list'
p99
(lp100
g24
ag33
ag40
ag47
ag54
ag61
ag68
ag75
asS'neighbour_disasm_list'
p101
Nsba(ibclass
BBasicBlock
p102
(dp103
g12
Nsg13
(lp104
(ibclass
BInstr
p105
(dp106
g2
Nsg17
S'mov     eax, [ebp+a]'
p107
sg19
S'8b450c'
p108
sg21
Vmov eax, dword ptr [ebp + 0xc]
p109
sg5
L135318963L
sg6
Nsg23
S'mov'
p110
sg25
S'0x810cdb3L'
p111
sg27
Nsba(ibclass
BInstr
p112
(dp113
g2
Nsg17
S'mov     al, [eax]'
p114
sg19
S'8a00'
p115
sg21
Vmov al, byte ptr [eax]
p116
sg5
L135318966L
sg6
Nsg23
S'mov'
p117
sg25
S'0x810cdb6L'
p118
sg27
Nsba(ibclass
BInstr
p119
(dp120
g2
Nsg17
S'test    al, al'
p121
sg19
S'84c0'
p122
sg21
Vtest al, al
p123
sg5
L135318968L
sg6
Nsg23
S'test'
p124
sg25
S'0x810cdb8L'
p125
sg27
Nsba(ibclass
BInstr
p126
(dp127
g2
Nsg17
S'jnz     short loc_810CDC6'
p128
sg19
S'750a'
p129
sg21
Vjne 0xc
p130
sg5
L135318970L
sg6
Nsg23
S'jnz'
p131
sg25
S'0x810cdbaL'
p132
sg27
Nsbasg77
(lp133
Vmov eax, mem
p134
aVmov al, mem
p135
ag123
aVjne address
p136
asg85
Nsg5
S'0x810cdb3L'
p137
sg87
(lp138
S'0x810cd92L'
p139
asg6
Nsg89
(lp140
S'0x810cdbcL'
p141
aS'0x810cdc6L'
p142
asg93
Nsg94
Nsg95
S'c659dbb3567582fe193bedd2c7eccb80'
p143
sg97
S'5940ef80dd9169bede9e5678aeb2ed90'
p144
sg99
(lp145
g110
ag117
ag124
ag131
asg101
Nsba(ibclass
BBasicBlock
p146
(dp147
g12
Nsg13
(lp148
(ibclass
BInstr
p149
(dp150
g2
Nsg17
S'mov     eax, 0'
p151
sg19
S'b800000000'
p152
sg21
Vmov eax, 0
p153
sg5
L135318972L
sg6
Nsg23
S'mov'
p154
sg25
S'0x810cdbcL'
p155
sg27
Nsba(ibclass
BInstr
p156
(dp157
g2
Nsg17
S'jmp     locret_810D09B'
p158
sg19
S'e9d5020000'
p159
sg21
Vjmp 0x2da
p160
sg5
L135318977L
sg6
Nsg23
S'jmp'
p161
sg25
S'0x810cdc1L'
p162
sg27
Nsbasg77
(lp163
g153
aVjmp address
p164
asg85
Nsg5
S'0x810cdbcL'
p165
sg87
(lp166
S'0x810cd92L'
p167
aS'0x810cdb3L'
p168
asg6
Nsg89
(lp169
S'0x810d09bL'
p170
asg93
Nsg94
Nsg95
S'8b9a0d40e062be2b9b2d9885108fb196'
p171
sg97
S'bfbe752dd865c9a89011ba470eab331d'
p172
sg99
(lp173
g154
ag161
asg101
Nsba(ibclass
BBasicBlock
p174
(dp175
g12
Nsg13
(lp176
(ibclass
BInstr
p177
(dp178
g2
Nsg17
S'mov     eax, [ebp+a]'
p179
sg19
S'8b450c'
p180
sg21
Vmov eax, dword ptr [ebp + 0xc]
p181
sg5
L135318982L
sg6
Nsg23
S'mov'
p182
sg25
S'0x810cdc6L'
p183
sg27
Nsba(ibclass
BInstr
p184
(dp185
g2
Nsg17
S'mov     al, [eax]'
p186
sg19
S'8a00'
p187
sg21
Vmov al, byte ptr [eax]
p188
sg5
L135318985L
sg6
Nsg23
S'mov'
p189
sg25
S'0x810cdc9L'
p190
sg27
Nsba(ibclass
BInstr
p191
(dp192
g2
Nsg17
S'cmp     al, 2Dh'
p193
sg19
S'3c2d'
p194
sg21
Vcmp al, 0x2d
p195
sg5
L135318987L
sg6
Nsg23
S'cmp'
p196
sg25
S'0x810cdcbL'
p197
sg27
Nsba(ibclass
BInstr
p198
(dp199
g2
Nsg17
S'jnz     short loc_810CDD9'
p200
sg19
S'750a'
p201
sg21
Vjne 0xc
p202
sg5
L135318989L
sg6
Nsg23
S'jnz'
p203
sg25
S'0x810cdcdL'
p204
sg27
Nsbasg77
(lp205
Vmov eax, mem
p206
aVmov al, mem
p207
aVcmp al, address
p208
aVjne address
p209
asg85
Nsg5
S'0x810cdc6L'
p210
sg87
(lp211
S'0x810cdb3L'
p212
asg6
Nsg89
(lp213
S'0x810cdcfL'
p214
aS'0x810cdd9L'
p215
asg93
Nsg94
Nsg95
S'a19a851724661b9339243c65cfd318e3'
p216
sg97
S'825f18c034d866eac197ce7c69515772'
p217
sg99
(lp218
g182
ag189
ag196
ag203
asg101
Nsba(ibclass
BBasicBlock
p219
(dp220
g12
Nsg13
(lp221
(ibclass
BInstr
p222
(dp223
g2
Nsg17
S'mov     [ebp+neg], 1'
p224
sg19
S'c745cc01000000'
p225
sg21
Vmov dword ptr [ebp - 0x34], 1
p226
sg5
L135318991L
sg6
Nsg23
S'mov'
p227
sg25
S'0x810cdcfL'
p228
sg27
Nsba(ibclass
BInstr
p229
(dp230
g2
Nsg17
S'inc     [ebp+a]'
p231
sg19
S'ff450c'
p232
sg21
Vinc dword ptr [ebp + 0xc]
p233
sg5
L135318998L
sg6
Nsg23
S'inc'
p234
sg25
S'0x810cdd6L'
p235
sg27
Nsbasg77
(lp236
Vmov mem, 1
p237
aVinc mem
p238
asg85
Nsg5
S'0x810cdcfL'
p239
sg87
(lp240
S'0x810cdc6L'
p241
asg6
Nsg89
(lp242
S'0x810cdd9L'
p243
asg93
Nsg94
Nsg95
S'e295ba159ae549835335d52468c61c64'
p244
sg97
S'7cbe19b63c155539ad17948f94b15575'
p245
sg99
(lp246
g227
ag234
asg101
Nsba(ibclass
BBasicBlock
p247
(dp248
g12
Nsg13
(lp249
(ibclass
BInstr
p250
(dp251
g2
Nsg17
S'mov     [ebp+i], 0'
p252
sg19
S'c745d800000000'
p253
sg21
Vmov dword ptr [ebp - 0x28], 0
p254
sg5
L135319001L
sg6
Nsg23
S'mov'
p255
sg25
S'0x810cdd9L'
p256
sg27
Nsba(ibclass
BInstr
p257
(dp258
g2
Nsg17
S'jmp     short loc_810CDE5'
p259
sg19
S'eb03'
p260
sg21
Vjmp 5
p261
sg5
L135319008L
sg6
Nsg23
S'jmp'
p262
sg25
S'0x810cde0L'
p263
sg27
Nsbasg77
(lp264
Vmov mem, 0
p265
ag261
asg85
Nsg5
S'0x810cdd9L'
p266
sg87
(lp267
S'0x810cdc6L'
p268
aS'0x810cdcfL'
p269
asg6
Nsg89
(lp270
S'0x810cde5L'
p271
asg93
Nsg94
Nsg95
S'8b9a0d40e062be2b9b2d9885108fb196'
p272
sg97
S'6fab6d9037e69628e68d9f498e142ff9'
p273
sg99
(lp274
g255
ag262
asg101
Nsba(ibclass
BBasicBlock
p275
(dp276
g12
Nsg13
(lp277
(ibclass
BInstr
p278
(dp279
g2
Nsg17
S'inc     [ebp+i]'
p280
sg19
S'ff45d8'
p281
sg21
Vinc dword ptr [ebp - 0x28]
p282
sg5
L135319010L
sg6
Nsg23
S'inc'
p283
sg25
S'0x810cde2L'
p284
sg27
Nsbasg77
(lp285
Vinc mem
p286
asg85
Nsg5
S'0x810cde2L'
p287
sg87
(lp288
S'0x810cdeeL'
p289
asg6
Nsg89
(lp290
S'0x810cde5L'
p291
asg93
Nsg94
Nsg95
S'cf9f3fde7326f1d8e64205f0e07a3695'
p292
sg97
S'00359ff2b716311fa3d15c1e358cad94'
p293
sg99
(lp294
g283
asg101
Nsba(ibclass
BBasicBlock
p295
(dp296
g12
Nsg13
(lp297
(ibclass
BInstr
p298
(dp299
g2
Nsg17
S'cmp     [ebp+i], 1FFFFFFFh'
p300
sg19
S'817dd8ffffff1f'
p301
sg21
Vcmp dword ptr [ebp - 0x28], 0x1fffffff
p302
sg5
L135319013L
sg6
Nsg23
S'cmp'
p303
sg25
S'0x810cde5L'
p304
sg27
Nsba(ibclass
BInstr
p305
(dp306
g2
Nsg17
S'jg      short loc_810CE19'
p307
sg19
S'7f2b'
p308
sg21
Vjg 0x2d
p309
sg5
L135319020L
sg6
Nsg23
S'jg'
p310
sg25
S'0x810cdecL'
p311
sg27
Nsbasg77
(lp312
Vcmp mem, address
p313
aVjg address
p314
asg85
Nsg5
S'0x810cde5L'
p315
sg87
(lp316
S'0x810cdd9L'
p317
aS'0x810cde2L'
p318
asg6
Nsg89
(lp319
S'0x810cdeeL'
p320
aS'0x810ce19L'
p321
asg93
Nsg94
Nsg95
S'b356acbc0cbaf5ebf0a35cc7bcc98784'
p322
sg97
S'595ff5012359ad9575095120d4e77a86'
p323
sg99
(lp324
g303
ag310
asg101
Nsba(ibclass
BBasicBlock
p325
(dp326
g12
Nsg13
(lp327
(ibclass
BInstr
p328
(dp329
g2
Nsg17
S'call    ___ctype_b_loc'
p330
sg19
S'e87dcef3ff'
p331
sg21
Vcall 0xfff3ce82
p332
sg5
L135319022L
sg6
Nsg23
S'call'
p333
sg25
S'0x810cdeeL'
p334
sg27
Nsba(ibclass
BInstr
p335
(dp336
g2
Nsg17
S'mov     edx, [eax]'
p337
sg19
S'8b10'
p338
sg21
Vmov edx, dword ptr [eax]
p339
sg5
L135319027L
sg6
Nsg23
S'mov'
p340
sg25
S'0x810cdf3L'
p341
sg27
Nsba(ibclass
BInstr
p342
(dp343
g2
Nsg17
S'mov     ecx, [ebp+i]'
p344
sg19
S'8b4dd8'
p345
sg21
Vmov ecx, dword ptr [ebp - 0x28]
p346
sg5
L135319029L
sg6
Nsg23
S'mov'
p347
sg25
S'0x810cdf5L'
p348
sg27
Nsba(ibclass
BInstr
p349
(dp350
g2
Nsg17
S'mov     eax, [ebp+a]'
p351
sg19
S'8b450c'
p352
sg21
Vmov eax, dword ptr [ebp + 0xc]
p353
sg5
L135319032L
sg6
Nsg23
S'mov'
p354
sg25
S'0x810cdf8L'
p355
sg27
Nsba(ibclass
BInstr
p356
(dp357
g2
Nsg17
S'add     eax, ecx'
p358
sg19
S'01c8'
p359
sg21
Vadd eax, ecx
p360
sg5
L135319035L
sg6
Nsg23
S'add'
p361
sg25
S'0x810cdfbL'
p362
sg27
Nsba(ibclass
BInstr
p363
(dp364
g2
Nsg17
S'mov     al, [eax]'
p365
sg19
S'8a00'
p366
sg21
Vmov al, byte ptr [eax]
p367
sg5
L135319037L
sg6
Nsg23
S'mov'
p368
sg25
S'0x810cdfdL'
p369
sg27
Nsba(ibclass
BInstr
p370
(dp371
g2
Nsg17
S'and     eax, 0FFh'
p372
sg19
S'25ff000000'
p373
sg21
Vand eax, 0xff
p374
sg5
L135319039L
sg6
Nsg23
S'and'
p375
sg25
S'0x810cdffL'
p376
sg27
Nsba(ibclass
BInstr
p377
(dp378
g2
Nsg17
S'add     eax, eax'
p379
sg19
S'01c0'
p380
sg21
Vadd eax, eax
p381
sg5
L135319044L
sg6
Nsg23
S'add'
p382
sg25
S'0x810ce04L'
p383
sg27
Nsba(ibclass
BInstr
p384
(dp385
g2
Nsg17
S'add     eax, edx'
p386
sg19
S'01d0'
p387
sg21
Vadd eax, edx
p388
sg5
L135319046L
sg6
Nsg23
S'add'
p389
sg25
S'0x810ce06L'
p390
sg27
Nsba(ibclass
BInstr
p391
(dp392
g2
Nsg17
S'mov     ax, [eax]'
p393
sg19
S'668b00'
p394
sg21
Vmov ax, word ptr [eax]
p395
sg5
L135319048L
sg6
Nsg23
S'mov'
p396
sg25
S'0x810ce08L'
p397
sg27
Nsba(ibclass
BInstr
p398
(dp399
g2
Nsg17
S'and     eax, 0FFFFh'
p400
sg19
S'25ffff0000'
p401
sg21
Vand eax, 0xffff
p402
sg5
L135319051L
sg6
Nsg23
S'and'
p403
sg25
S'0x810ce0bL'
p404
sg27
Nsba(ibclass
BInstr
p405
(dp406
g2
Nsg17
S'and     eax, 1000h'
p407
sg19
S'2500100000'
p408
sg21
Vand eax, 0x1000
p409
sg5
L135319056L
sg6
Nsg23
S'and'
p410
sg25
S'0x810ce10L'
p411
sg27
Nsba(ibclass
BInstr
p412
(dp413
g2
Nsg17
S'test    eax, eax'
p414
sg19
S'85c0'
p415
sg21
Vtest eax, eax
p416
sg5
L135319061L
sg6
Nsg23
S'test'
p417
sg25
S'0x810ce15L'
p418
sg27
Nsba(ibclass
BInstr
p419
(dp420
g2
Nsg17
S'jnz     short loc_810CDE2'
p421
sg19
S'75c9'
p422
sg21
Vjne 0xffffffcb
p423
sg5
L135319063L
sg6
Nsg23
S'jnz'
p424
sg25
S'0x810ce17L'
p425
sg27
Nsbasg77
(lp426
Vcall address
p427
aVmov edx, mem
p428
aVmov ecx, mem
p429
aVmov eax, mem
p430
ag360
aVmov al, mem
p431
aVand eax, address
p432
ag381
ag388
aVmov ax, mem
p433
aVand eax, address
p434
aVand eax, address
p435
ag416
aVjne address
p436
asg85
Nsg5
S'0x810cdeeL'
p437
sg87
(lp438
S'0x810cde5L'
p439
asg6
Nsg89
(lp440
S'0x810cde2L'
p441
aS'0x810ce19L'
p442
asg93
Nsg94
Nsg95
S'027b12b6ca4eea06f358989ec26a6730'
p443
sg97
S'a7d0a02706e981de2f6dd7feff367f90'
p444
sg99
(lp445
g333
ag340
ag347
ag354
ag361
ag368
ag375
ag382
ag389
ag396
ag403
ag410
ag417
ag424
asg101
Nsba(ibclass
BBasicBlock
p446
(dp447
g12
Nsg13
(lp448
(ibclass
BInstr
p449
(dp450
g2
Nsg17
S'cmp     [ebp+i], 1FFFFFFFh'
p451
sg19
S'817dd8ffffff1f'
p452
sg21
Vcmp dword ptr [ebp - 0x28], 0x1fffffff
p453
sg5
L135319065L
sg6
Nsg23
S'cmp'
p454
sg25
S'0x810ce19L'
p455
sg27
Nsba(ibclass
BInstr
p456
(dp457
g2
Nsg17
S'jle     short loc_810CE27'
p458
sg19
S'7e05'
p459
sg21
Vjle 7
p460
sg5
L135319072L
sg6
Nsg23
S'jle'
p461
sg25
S'0x810ce20L'
p462
sg27
Nsbasg77
(lp463
Vcmp mem, address
p464
ag460
asg85
Nsg5
S'0x810ce19L'
p465
sg87
(lp466
S'0x810cde5L'
p467
aS'0x810cdeeL'
p468
asg6
Nsg89
(lp469
S'0x810ce22L'
p470
aS'0x810ce27L'
p471
asg93
Nsg94
Nsg95
S'0bc4bf9881c1ed8eb91420cf78755dd7'
p472
sg97
S'a6270273eae10a060fbfe9b25082e0b5'
p473
sg99
(lp474
g454
ag461
asg101
Nsba(ibclass
BBasicBlock
p475
(dp476
g12
Nsg13
(lp477
(ibclass
BInstr
p478
(dp479
g2
Nsg17
S'jmp     err'
p480
sg19
S'e95b020000'
p481
sg21
Vjmp 0x260
p482
sg5
L135319074L
sg6
Nsg23
S'jmp'
p483
sg25
S'0x810ce22L'
p484
sg27
Nsbasg77
(lp485
Vjmp address
p486
asg85
Nsg5
S'0x810ce22L'
p487
sg87
(lp488
S'0x810ce19L'
p489
asg6
Nsg89
(lp490
S'0x810d082L'
p491
asg93
Nsg94
Nsg95
S'0ef6cf926f2f394b0cc8e11be8022625'
p492
sg97
S'd4372e4caa7348928655251605aa7329'
p493
sg99
(lp494
g483
asg101
Nsba(ibclass
BBasicBlock
p495
(dp496
g12
Nsg13
(lp497
(ibclass
BInstr
p498
(dp499
g2
Nsg17
S'mov     eax, [ebp+neg]'
p500
sg19
S'8b45cc'
p501
sg21
Vmov eax, dword ptr [ebp - 0x34]
p502
sg5
L135319079L
sg6
Nsg23
S'mov'
p503
sg25
S'0x810ce27L'
p504
sg27
Nsba(ibclass
BInstr
p505
(dp506
g2
Nsg17
S'mov     edx, [ebp+i]'
p507
sg19
S'8b55d8'
p508
sg21
Vmov edx, dword ptr [ebp - 0x28]
p509
sg5
L135319082L
sg6
Nsg23
S'mov'
p510
sg25
S'0x810ce2aL'
p511
sg27
Nsba(ibclass
BInstr
p512
(dp513
g2
Nsg17
S'add     eax, edx'
p514
sg19
S'01d0'
p515
sg21
Vadd eax, edx
p516
sg5
L135319085L
sg6
Nsg23
S'add'
p517
sg25
S'0x810ce2dL'
p518
sg27
Nsba(ibclass
BInstr
p519
(dp520
g2
Nsg17
S'mov     [ebp+num], eax'
p521
sg19
S'8945ec'
p522
sg21
Vmov dword ptr [ebp - 0x14], eax
p523
sg5
L135319087L
sg6
Nsg23
S'mov'
p524
sg25
S'0x810ce2fL'
p525
sg27
Nsba(ibclass
BInstr
p526
(dp527
g2
Nsg17
S'cmp     [ebp+bn], 0'
p528
sg19
S'837d0800'
p529
sg21
Vcmp dword ptr [ebp + 8], 0
p530
sg5
L135319090L
sg6
Nsg23
S'cmp'
p531
sg25
S'0x810ce32L'
p532
sg27
Nsba(ibclass
BInstr
p533
(dp534
g2
Nsg17
S'jnz     short loc_810CE40'
p535
sg19
S'7508'
p536
sg21
Vjne 0xa
p537
sg5
L135319094L
sg6
Nsg23
S'jnz'
p538
sg25
S'0x810ce36L'
p539
sg27
Nsbasg77
(lp540
Vmov eax, mem
p541
aVmov edx, mem
p542
ag516
aVmov mem, eax
p543
aVcmp mem, 0
p544
aVjne address
p545
asg85
Nsg5
S'0x810ce27L'
p546
sg87
(lp547
S'0x810ce19L'
p548
asg6
Nsg89
(lp549
S'0x810ce38L'
p550
aS'0x810ce40L'
p551
asg93
Nsg94
Nsg95
S'fa80ce18782e5a979c44dc3d7106f74a'
p552
sg97
S'4a72b52999f0f97806edc1aac77eab5e'
p553
sg99
(lp554
g503
ag510
ag517
ag524
ag531
ag538
asg101
Nsba(ibclass
BBasicBlock
p555
(dp556
g12
Nsg13
(lp557
(ibclass
BInstr
p558
(dp559
g2
Nsg17
S'mov     eax, [ebp+num]'
p560
sg19
S'8b45ec'
p561
sg21
Vmov eax, dword ptr [ebp - 0x14]
p562
sg5
L135319096L
sg6
Nsg23
S'mov'
p563
sg25
S'0x810ce38L'
p564
sg27
Nsba(ibclass
BInstr
p565
(dp566
g2
Nsg17
S'jmp     locret_810D09B'
p567
sg19
S'e95b020000'
p568
sg21
Vjmp 0x260
p569
sg5
L135319099L
sg6
Nsg23
S'jmp'
p570
sg25
S'0x810ce3bL'
p571
sg27
Nsbasg77
(lp572
Vmov eax, mem
p573
aVjmp address
p574
asg85
Nsg5
S'0x810ce38L'
p575
sg87
(lp576
S'0x810ce27L'
p577
asg6
Nsg89
(lp578
S'0x810d09bL'
p579
asg93
Nsg94
Nsg95
S'8b9a0d40e062be2b9b2d9885108fb196'
p580
sg97
S'5a5b261ba52a671a369af6372509eb2f'
p581
sg99
(lp582
g563
ag570
asg101
Nsba(ibclass
BBasicBlock
p583
(dp584
g12
Nsg13
(lp585
(ibclass
BInstr
p586
(dp587
g2
Nsg17
S'mov     eax, [ebp+bn]'
p588
sg19
S'8b4508'
p589
sg21
Vmov eax, dword ptr [ebp + 8]
p590
sg5
L135319104L
sg6
Nsg23
S'mov'
p591
sg25
S'0x810ce40L'
p592
sg27
Nsba(ibclass
BInstr
p593
(dp594
g2
Nsg17
S'mov     eax, [eax]'
p595
sg19
S'8b00'
p596
sg21
Vmov eax, dword ptr [eax]
p597
sg5
L135319107L
sg6
Nsg23
S'mov'
p598
sg25
S'0x810ce43L'
p599
sg27
Nsba(ibclass
BInstr
p600
(dp601
g2
Nsg17
S'test    eax, eax'
p602
sg19
S'85c0'
p603
sg21
Vtest eax, eax
p604
sg5
L135319109L
sg6
Nsg23
S'test'
p605
sg25
S'0x810ce45L'
p606
sg27
Nsba(ibclass
BInstr
p607
(dp608
g2
Nsg17
S'jnz     short loc_810CE61'
p609
sg19
S'7518'
p610
sg21
Vjne 0x1a
p611
sg5
L135319111L
sg6
Nsg23
S'jnz'
p612
sg25
S'0x810ce47L'
p613
sg27
Nsbasg77
(lp614
Vmov eax, mem
p615
aVmov eax, mem
p616
ag604
aVjne address
p617
asg85
Nsg5
S'0x810ce40L'
p618
sg87
(lp619
S'0x810ce27L'
p620
asg6
Nsg89
(lp621
S'0x810ce49L'
p622
aS'0x810ce61L'
p623
asg93
Nsg94
Nsg95
S'c659dbb3567582fe193bedd2c7eccb80'
p624
sg97
S'bf49e6fb415bfa3724765cd6082e6314'
p625
sg99
(lp626
g591
ag598
ag605
ag612
asg101
Nsba(ibclass
BBasicBlock
p627
(dp628
g12
Nsg13
(lp629
(ibclass
BInstr
p630
(dp631
g2
Nsg17
S'call    BN_new'
p632
sg19
S'e82ba4ffff'
p633
sg21
Vcall 0xffffa430
p634
sg5
L135319113L
sg6
Nsg23
S'call'
p635
sg25
S'0x810ce49L'
p636
sg27
Nsba(ibclass
BInstr
p637
(dp638
g2
Nsg17
S'mov     [ebp+ret], eax'
p639
sg19
S'8945c4'
p640
sg21
Vmov dword ptr [ebp - 0x3c], eax
p641
sg5
L135319118L
sg6
Nsg23
S'mov'
p642
sg25
S'0x810ce4eL'
p643
sg27
Nsba(ibclass
BInstr
p644
(dp645
g2
Nsg17
S'cmp     [ebp+ret], 0'
p646
sg19
S'837dc400'
p647
sg21
Vcmp dword ptr [ebp - 0x3c], 0
p648
sg5
L135319121L
sg6
Nsg23
S'cmp'
p649
sg25
S'0x810ce51L'
p650
sg27
Nsba(ibclass
BInstr
p651
(dp652
g2
Nsg17
S'jnz     short loc_810CE7C'
p653
sg19
S'7525'
p654
sg21
Vjne 0x27
p655
sg5
L135319125L
sg6
Nsg23
S'jnz'
p656
sg25
S'0x810ce55L'
p657
sg27
Nsbasg77
(lp658
Vcall address
p659
aVmov mem, eax
p660
aVcmp mem, 0
p661
aVjne address
p662
asg85
Nsg5
S'0x810ce49L'
p663
sg87
(lp664
S'0x810ce40L'
p665
asg6
Nsg89
(lp666
S'0x810ce57L'
p667
aS'0x810ce7cL'
p668
asg93
Nsg94
Nsg95
S'0ac2dd636b0c05eced4a94b157f88960'
p669
sg97
S'6d2fca0b552d4b9dcc26cad51e453e31'
p670
sg99
(lp671
g635
ag642
ag649
ag656
asg101
Nsba(ibclass
BBasicBlock
p672
(dp673
g12
Nsg13
(lp674
(ibclass
BInstr
p675
(dp676
g2
Nsg17
S'mov     eax, 0'
p677
sg19
S'b800000000'
p678
sg21
Vmov eax, 0
p679
sg5
L135319127L
sg6
Nsg23
S'mov'
p680
sg25
S'0x810ce57L'
p681
sg27
Nsba(ibclass
BInstr
p682
(dp683
g2
Nsg17
S'jmp     locret_810D09B'
p684
sg19
S'e93a020000'
p685
sg21
Vjmp 0x23f
p686
sg5
L135319132L
sg6
Nsg23
S'jmp'
p687
sg25
S'0x810ce5cL'
p688
sg27
Nsbasg77
(lp689
g679
aVjmp address
p690
asg85
Nsg5
S'0x810ce57L'
p691
sg87
(lp692
S'0x810ce49L'
p693
asg6
Nsg89
(lp694
S'0x810d09bL'
p695
asg93
Nsg94
Nsg95
S'8b9a0d40e062be2b9b2d9885108fb196'
p696
sg97
S'bfbe752dd865c9a89011ba470eab331d'
p697
sg99
(lp698
g680
ag687
asg101
Nsba(ibclass
BBasicBlock
p699
(dp700
g12
Nsg13
(lp701
(ibclass
BInstr
p702
(dp703
g2
Nsg17
S'mov     eax, [ebp+bn]'
p704
sg19
S'8b4508'
p705
sg21
Vmov eax, dword ptr [ebp + 8]
p706
sg5
L135319137L
sg6
Nsg23
S'mov'
p707
sg25
S'0x810ce61L'
p708
sg27
Nsba(ibclass
BInstr
p709
(dp710
g2
Nsg17
S'mov     eax, [eax]'
p711
sg19
S'8b00'
p712
sg21
Vmov eax, dword ptr [eax]
p713
sg5
L135319140L
sg6
Nsg23
S'mov'
p714
sg25
S'0x810ce64L'
p715
sg27
Nsba(ibclass
BInstr
p716
(dp717
g2
Nsg17
S'mov     [ebp+ret], eax'
p718
sg19
S'8945c4'
p719
sg21
Vmov dword ptr [ebp - 0x3c], eax
p720
sg5
L135319142L
sg6
Nsg23
S'mov'
p721
sg25
S'0x810ce66L'
p722
sg27
Nsba(ibclass
BInstr
p723
(dp724
g2
Nsg17
S'mov     dword ptr [esp+4], 0; w'
p725
sg19
S'c744240400000000'
p726
sg21
Vmov dword ptr [esp + 4], 0
p727
sg5
L135319145L
sg6
Nsg23
S'mov'
p728
sg25
S'0x810ce69L'
p729
sg27
Nsba(ibclass
BInstr
p730
(dp731
g2
Nsg17
S'mov     eax, [ebp+ret]'
p732
sg19
S'8b45c4'
p733
sg21
Vmov eax, dword ptr [ebp - 0x3c]
p734
sg5
L135319153L
sg6
Nsg23
S'mov'
p735
sg25
S'0x810ce71L'
p736
sg27
Nsba(ibclass
BInstr
p737
(dp738
g2
Nsg17
S'mov     [esp], eax      ; a'
p739
sg19
S'890424'
p740
sg21
Vmov dword ptr [esp], eax
p741
sg5
L135319156L
sg6
Nsg23
S'mov'
p742
sg25
S'0x810ce74L'
p743
sg27
Nsba(ibclass
BInstr
p744
(dp745
g2
Nsg17
S'call    BN_set_word'
p746
sg19
S'e8efaeffff'
p747
sg21
Vcall 0xffffaef4
p748
sg5
L135319159L
sg6
Nsg23
S'call'
p749
sg25
S'0x810ce77L'
p750
sg27
Nsbasg77
(lp751
Vmov eax, mem
p752
aVmov eax, mem
p753
aVmov mem, eax
p754
aVmov mem, 0
p755
aVmov eax, mem
p756
aVmov mem, eax
p757
aVcall address
p758
asg85
Nsg5
S'0x810ce61L'
p759
sg87
(lp760
S'0x810ce40L'
p761
asg6
Nsg89
(lp762
S'0x810ce7cL'
p763
asg93
Nsg94
Nsg95
S'92fe82bd7fc01e77c28a2a6247da06b1'
p764
sg97
S'6cee620f8c8239f508b24d8ca2b4615f'
p765
sg99
(lp766
g707
ag714
ag721
ag728
ag735
ag742
ag749
asg101
Nsba(ibclass
BBasicBlock
p767
(dp768
g12
Nsg13
(lp769
(ibclass
BInstr
p770
(dp771
g2
Nsg17
S'mov     eax, [ebp+i]'
p772
sg19
S'8b45d8'
p773
sg21
Vmov eax, dword ptr [ebp - 0x28]
p774
sg5
L135319164L
sg6
Nsg23
S'mov'
p775
sg25
S'0x810ce7cL'
p776
sg27
Nsba(ibclass
BInstr
p777
(dp778
g2
Nsg17
S'shl     eax, 2'
p779
sg19
S'c1e002'
p780
sg21
Vshl eax, 2
p781
sg5
L135319167L
sg6
Nsg23
S'shl'
p782
sg25
S'0x810ce7fL'
p783
sg27
Nsba(ibclass
BInstr
p784
(dp785
g2
Nsg17
S'cmp     eax, 7FFFFFE0h'
p786
sg19
S'3de0ffff7f'
p787
sg21
Vcmp eax, 0x7fffffe0
p788
sg5
L135319170L
sg6
Nsg23
S'cmp'
p789
sg25
S'0x810ce82L'
p790
sg27
Nsba(ibclass
BInstr
p791
(dp792
g2
Nsg17
S'jg      short loc_810CEDC'
p793
sg19
S'7f53'
p794
sg21
Vjg 0x55
p795
sg5
L135319175L
sg6
Nsg23
S'jg'
p796
sg25
S'0x810ce87L'
p797
sg27
Nsbasg77
(lp798
Vmov eax, mem
p799
ag781
aVcmp eax, address
p800
aVjg address
p801
asg85
Nsg5
S'0x810ce7cL'
p802
sg87
(lp803
S'0x810ce49L'
p804
aS'0x810ce61L'
p805
asg6
Nsg89
(lp806
S'0x810ce89L'
p807
aS'0x810cedcL'
p808
asg93
Nsg94
Nsg95
S'bcf9c569a2e2c69a6248b2270024e9ad'
p809
sg97
S'a8ffc543f61877da31d9cede600b9838'
p810
sg99
(lp811
g775
ag782
ag789
ag796
asg101
Nsba(ibclass
BBasicBlock
p812
(dp813
g12
Nsg13
(lp814
(ibclass
BInstr
p815
(dp816
g2
Nsg17
S'mov     eax, [ebp+i]'
p817
sg19
S'8b45d8'
p818
sg21
Vmov eax, dword ptr [ebp - 0x28]
p819
sg5
L135319177L
sg6
Nsg23
S'mov'
p820
sg25
S'0x810ce89L'
p821
sg27
Nsba(ibclass
BInstr
p822
(dp823
g2
Nsg17
S'add     eax, 8'
p824
sg19
S'83c008'
p825
sg21
Vadd eax, 8
p826
sg5
L135319180L
sg6
Nsg23
S'add'
p827
sg25
S'0x810ce8cL'
p828
sg27
Nsba(ibclass
BInstr
p829
(dp830
g2
Nsg17
S'shl     eax, 2'
p831
sg19
S'c1e002'
p832
sg21
Vshl eax, 2
p833
sg5
L135319183L
sg6
Nsg23
S'shl'
p834
sg25
S'0x810ce8fL'
p835
sg27
Nsba(ibclass
BInstr
p836
(dp837
g2
Nsg17
S'dec     eax'
p838
sg19
S'48'
p839
sg21
Vdec eax
p840
sg5
L135319186L
sg6
Nsg23
S'dec'
p841
sg25
S'0x810ce92L'
p842
sg27
Nsba(ibclass
BInstr
p843
(dp844
g2
Nsg17
S'test    eax, eax'
p845
sg19
S'85c0'
p846
sg21
Vtest eax, eax
p847
sg5
L135319187L
sg6
Nsg23
S'test'
p848
sg25
S'0x810ce93L'
p849
sg27
Nsba(ibclass
BInstr
p850
(dp851
g2
Nsg17
S'jns     short loc_810CE9A'
p852
sg19
S'7903'
p853
sg21
Vjns 5
p854
sg5
L135319189L
sg6
Nsg23
S'jns'
p855
sg25
S'0x810ce95L'
p856
sg27
Nsbasg77
(lp857
Vmov eax, mem
p858
ag826
ag833
ag840
ag847
ag854
asg85
Nsg5
S'0x810ce89L'
p859
sg87
(lp860
S'0x810ce7cL'
p861
asg6
Nsg89
(lp862
S'0x810ce97L'
p863
aS'0x810ce9aL'
p864
asg93
Nsg94
Nsg95
S'0ec6ad5e22c67392b849010a26fbd03a'
p865
sg97
S'51e2662abb0815f2ca2d029c5c3ec542'
p866
sg99
(lp867
g820
ag827
ag834
ag841
ag848
ag855
asg101
Nsba(ibclass
BBasicBlock
p868
(dp869
g12
Nsg13
(lp870
(ibclass
BInstr
p871
(dp872
g2
Nsg17
S'add     eax, 1Fh'
p873
sg19
S'83c01f'
p874
sg21
Vadd eax, 0x1f
p875
sg5
L135319191L
sg6
Nsg23
S'add'
p876
sg25
S'0x810ce97L'
p877
sg27
Nsbasg77
(lp878
Vadd eax, address
p879
asg85
Nsg5
S'0x810ce97L'
p880
sg87
(lp881
S'0x810ce89L'
p882
asg6
Nsg89
(lp883
S'0x810ce9aL'
p884
asg93
Nsg94
Nsg95
S'34ec78fcc91ffb1e54cd85e4a0924332'
p885
sg97
S'2083d6e90d411f0b79900e0948458a04'
p886
sg99
(lp887
g876
asg101
Nsba(ibclass
BBasicBlock
p888
(dp889
g12
Nsg13
(lp890
(ibclass
BInstr
p891
(dp892
g2
Nsg17
S'sar     eax, 5'
p893
sg19
S'c1f805'
p894
sg21
Vsar eax, 5
p895
sg5
L135319194L
sg6
Nsg23
S'sar'
p896
sg25
S'0x810ce9aL'
p897
sg27
Nsba(ibclass
BInstr
p898
(dp899
g2
Nsg17
S'mov     edx, eax'
p900
sg19
S'89c2'
p901
sg21
Vmov edx, eax
p902
sg5
L135319197L
sg6
Nsg23
S'mov'
p903
sg25
S'0x810ce9dL'
p904
sg27
Nsba(ibclass
BInstr
p905
(dp906
g2
Nsg17
S'mov     eax, [ebp+ret]'
p907
sg19
S'8b45c4'
p908
sg21
Vmov eax, dword ptr [ebp - 0x3c]
p909
sg5
L135319199L
sg6
Nsg23
S'mov'
p910
sg25
S'0x810ce9fL'
p911
sg27
Nsba(ibclass
BInstr
p912
(dp913
g2
Nsg17
S'mov     eax, [eax+8]'
p914
sg19
S'8b4008'
p915
sg21
Vmov eax, dword ptr [eax + 8]
p916
sg5
L135319202L
sg6
Nsg23
S'mov'
p917
sg25
S'0x810cea2L'
p918
sg27
Nsba(ibclass
BInstr
p919
(dp920
g2
Nsg17
S'cmp     edx, eax'
p921
sg19
S'39c2'
p922
sg21
Vcmp edx, eax
p923
sg5
L135319205L
sg6
Nsg23
S'cmp'
p924
sg25
S'0x810cea5L'
p925
sg27
Nsba(ibclass
BInstr
p926
(dp927
g2
Nsg17
S'jle     short loc_810CED3'
p928
sg19
S'7e2a'
p929
sg21
Vjle 0x2c
p930
sg5
L135319207L
sg6
Nsg23
S'jle'
p931
sg25
S'0x810cea7L'
p932
sg27
Nsbasg77
(lp933
g895
ag902
aVmov eax, mem
p934
aVmov eax, mem
p935
ag923
aVjle address
p936
asg85
Nsg5
S'0x810ce9aL'
p937
sg87
(lp938
S'0x810ce89L'
p939
aS'0x810ce97L'
p940
asg6
Nsg89
(lp941
S'0x810cea9L'
p942
aS'0x810ced3L'
p943
asg93
Nsg94
Nsg95
S'50c5b00bddc3cd3bbee67550a8ce1a77'
p944
sg97
S'd2397e60f30be1be8d6a52091927cce4'
p945
sg99
(lp946
g896
ag903
ag910
ag917
ag924
ag931
asg101
Nsba(ibclass
BBasicBlock
p947
(dp948
g12
Nsg13
(lp949
(ibclass
BInstr
p950
(dp951
g2
Nsg17
S'mov     eax, [ebp+i]'
p952
sg19
S'8b45d8'
p953
sg21
Vmov eax, dword ptr [ebp - 0x28]
p954
sg5
L135319209L
sg6
Nsg23
S'mov'
p955
sg25
S'0x810cea9L'
p956
sg27
Nsba(ibclass
BInstr
p957
(dp958
g2
Nsg17
S'add     eax, 8'
p959
sg19
S'83c008'
p960
sg21
Vadd eax, 8
p961
sg5
L135319212L
sg6
Nsg23
S'add'
p962
sg25
S'0x810ceacL'
p963
sg27
Nsba(ibclass
BInstr
p964
(dp965
g2
Nsg17
S'shl     eax, 2'
p966
sg19
S'c1e002'
p967
sg21
Vshl eax, 2
p968
sg5
L135319215L
sg6
Nsg23
S'shl'
p969
sg25
S'0x810ceafL'
p970
sg27
Nsba(ibclass
BInstr
p971
(dp972
g2
Nsg17
S'dec     eax'
p973
sg19
S'48'
p974
sg21
Vdec eax
p975
sg5
L135319218L
sg6
Nsg23
S'dec'
p976
sg25
S'0x810ceb2L'
p977
sg27
Nsba(ibclass
BInstr
p978
(dp979
g2
Nsg17
S'test    eax, eax'
p980
sg19
S'85c0'
p981
sg21
Vtest eax, eax
p982
sg5
L135319219L
sg6
Nsg23
S'test'
p983
sg25
S'0x810ceb3L'
p984
sg27
Nsba(ibclass
BInstr
p985
(dp986
g2
Nsg17
S'jns     short loc_810CEBA'
p987
sg19
S'7903'
p988
sg21
Vjns 5
p989
sg5
L135319221L
sg6
Nsg23
S'jns'
p990
sg25
S'0x810ceb5L'
p991
sg27
Nsbasg77
(lp992
Vmov eax, mem
p993
ag961
ag968
ag975
ag982
ag989
asg85
Nsg5
S'0x810cea9L'
p994
sg87
(lp995
S'0x810ce9aL'
p996
asg6
Nsg89
(lp997
S'0x810ceb7L'
p998
aS'0x810cebaL'
p999
asg93
Nsg94
Nsg95
S'0ec6ad5e22c67392b849010a26fbd03a'
p1000
sg97
S'51e2662abb0815f2ca2d029c5c3ec542'
p1001
sg99
(lp1002
g955
ag962
ag969
ag976
ag983
ag990
asg101
Nsba(ibclass
BBasicBlock
p1003
(dp1004
g12
Nsg13
(lp1005
(ibclass
BInstr
p1006
(dp1007
g2
Nsg17
S'add     eax, 1Fh'
p1008
sg19
S'83c01f'
p1009
sg21
Vadd eax, 0x1f
p1010
sg5
L135319223L
sg6
Nsg23
S'add'
p1011
sg25
S'0x810ceb7L'
p1012
sg27
Nsbasg77
(lp1013
Vadd eax, address
p1014
asg85
Nsg5
S'0x810ceb7L'
p1015
sg87
(lp1016
S'0x810cea9L'
p1017
asg6
Nsg89
(lp1018
S'0x810cebaL'
p1019
asg93
Nsg94
Nsg95
S'34ec78fcc91ffb1e54cd85e4a0924332'
p1020
sg97
S'2083d6e90d411f0b79900e0948458a04'
p1021
sg99
(lp1022
g1011
asg101
Nsba(ibclass
BBasicBlock
p1023
(dp1024
g12
Nsg13
(lp1025
(ibclass
BInstr
p1026
(dp1027
g2
Nsg17
S'sar     eax, 5'
p1028
sg19
S'c1f805'
p1029
sg21
Vsar eax, 5
p1030
sg5
L135319226L
sg6
Nsg23
S'sar'
p1031
sg25
S'0x810cebaL'
p1032
sg27
Nsba(ibclass
BInstr
p1033
(dp1034
g2
Nsg17
S'mov     [esp+4], eax    ; words'
p1035
sg19
S'89442404'
p1036
sg21
Vmov dword ptr [esp + 4], eax
p1037
sg5
L135319229L
sg6
Nsg23
S'mov'
p1038
sg25
S'0x810cebdL'
p1039
sg27
Nsba(ibclass
BInstr
p1040
(dp1041
g2
Nsg17
S'mov     eax, [ebp+ret]'
p1042
sg19
S'8b45c4'
p1043
sg21
Vmov eax, dword ptr [ebp - 0x3c]
p1044
sg5
L135319233L
sg6
Nsg23
S'mov'
p1045
sg25
S'0x810cec1L'
p1046
sg27
Nsba(ibclass
BInstr
p1047
(dp1048
g2
Nsg17
S'mov     [esp], eax      ; b'
p1049
sg19
S'890424'
p1050
sg21
Vmov dword ptr [esp], eax
p1051
sg5
L135319236L
sg6
Nsg23
S'mov'
p1052
sg25
S'0x810cec4L'
p1053
sg27
Nsba(ibclass
BInstr
p1054
(dp1055
g2
Nsg17
S'call    bn_expand2'
p1056
sg19
S'e8daa7ffff'
p1057
sg21
Vcall 0xffffa7df
p1058
sg5
L135319239L
sg6
Nsg23
S'call'
p1059
sg25
S'0x810cec7L'
p1060
sg27
Nsba(ibclass
BInstr
p1061
(dp1062
g2
Nsg17
S'test    eax, eax'
p1063
sg19
S'85c0'
p1064
sg21
Vtest eax, eax
p1065
sg5
L135319244L
sg6
Nsg23
S'test'
p1066
sg25
S'0x810ceccL'
p1067
sg27
Nsba(ibclass
BInstr
p1068
(dp1069
g2
Nsg17
S'setz    al'
p1070
sg19
S'0f94c0'
p1071
sg21
Vsete al
p1072
sg5
L135319246L
sg6
Nsg23
S'setz'
p1073
sg25
S'0x810ceceL'
p1074
sg27
Nsba(ibclass
BInstr
p1075
(dp1076
g2
Nsg17
S'jmp     short loc_810CEDE'
p1077
sg19
S'eb0b'
p1078
sg21
Vjmp 0xd
p1079
sg5
L135319249L
sg6
Nsg23
S'jmp'
p1080
sg25
S'0x810ced1L'
p1081
sg27
Nsbasg77
(lp1082
g1030
aVmov mem, eax
p1083
aVmov eax, mem
p1084
aVmov mem, eax
p1085
aVcall address
p1086
ag1065
ag1072
aVjmp address
p1087
asg85
Nsg5
S'0x810cebaL'
p1088
sg87
(lp1089
S'0x810cea9L'
p1090
aS'0x810ceb7L'
p1091
asg6
Nsg89
(lp1092
S'0x810cedeL'
p1093
asg93
Nsg94
Nsg95
S'd3840fd0a564cb00222e2926e14db37e'
p1094
sg97
S'08b88eac3ec248460189078ecf64fa3d'
p1095
sg99
(lp1096
g1031
ag1038
ag1045
ag1052
ag1059
ag1066
ag1073
ag1080
asg101
Nsba(ibclass
BBasicBlock
p1097
(dp1098
g12
Nsg13
(lp1099
(ibclass
BInstr
p1100
(dp1101
g2
Nsg17
S'cmp     [ebp+ret], 0'
p1102
sg19
S'837dc400'
p1103
sg21
Vcmp dword ptr [ebp - 0x3c], 0
p1104
sg5
L135319251L
sg6
Nsg23
S'cmp'
p1105
sg25
S'0x810ced3L'
p1106
sg27
Nsba(ibclass
BInstr
p1107
(dp1108
g2
Nsg17
S'setz    al'
p1109
sg19
S'0f94c0'
p1110
sg21
Vsete al
p1111
sg5
L135319255L
sg6
Nsg23
S'setz'
p1112
sg25
S'0x810ced7L'
p1113
sg27
Nsba(ibclass
BInstr
p1114
(dp1115
g2
Nsg17
S'jmp     short loc_810CEDE'
p1116
sg19
S'eb02'
p1117
sg21
Vjmp 4
p1118
sg5
L135319258L
sg6
Nsg23
S'jmp'
p1119
sg25
S'0x810cedaL'
p1120
sg27
Nsbasg77
(lp1121
Vcmp mem, 0
p1122
ag1111
ag1118
asg85
Nsg5
S'0x810ced3L'
p1123
sg87
(lp1124
S'0x810ce9aL'
p1125
asg6
Nsg89
(lp1126
S'0x810cedeL'
p1127
asg93
Nsg94
Nsg95
S'd4e70010b7b9adee7ff6bd02ebe55f7a'
p1128
sg97
S'e6d13c48bce944121097e856c1e99f3a'
p1129
sg99
(lp1130
g1105
ag1112
ag1119
asg101
Nsba(ibclass
BBasicBlock
p1131
(dp1132
g12
Nsg13
(lp1133
(ibclass
BInstr
p1134
(dp1135
g2
Nsg17
S'mov     al, 1'
p1136
sg19
S'b001'
p1137
sg21
Vmov al, 1
p1138
sg5
L135319260L
sg6
Nsg23
S'mov'
p1139
sg25
S'0x810cedcL'
p1140
sg27
Nsbasg77
(lp1141
g1138
asg85
Nsg5
S'0x810cedcL'
p1142
sg87
(lp1143
S'0x810ce7cL'
p1144
asg6
Nsg89
(lp1145
S'0x810cedeL'
p1146
asg93
Nsg94
Nsg95
S'96a4a0e6e9ac88756a0fcba989d0a844'
p1147
sg97
S'46bfc816084dda09ba5658b993c642b2'
p1148
sg99
(lp1149
g1139
asg101
Nsba(ibclass
BBasicBlock
p1150
(dp1151
g12
Nsg13
(lp1152
(ibclass
BInstr
p1153
(dp1154
g2
Nsg17
S'test    al, al'
p1155
sg19
S'84c0'
p1156
sg21
Vtest al, al
p1157
sg5
L135319262L
sg6
Nsg23
S'test'
p1158
sg25
S'0x810cedeL'
p1159
sg27
Nsba(ibclass
BInstr
p1160
(dp1161
g2
Nsg17
S'jz      short loc_810CEE7'
p1162
sg19
S'7405'
p1163
sg21
Vje 7
p1164
sg5
L135319264L
sg6
Nsg23
S'jz'
p1165
sg25
S'0x810cee0L'
p1166
sg27
Nsbasg77
(lp1167
g1157
ag1164
asg85
Nsg5
S'0x810cedeL'
p1168
sg87
(lp1169
S'0x810cebaL'
p1170
aS'0x810ced3L'
p1171
aS'0x810cedcL'
p1172
asg6
Nsg89
(lp1173
S'0x810cee2L'
p1174
aS'0x810cee7L'
p1175
asg93
Nsg94
Nsg95
S'84491ffb986a9ed3c0d756870de1b100'
p1176
sg97
S'bf25eb18f1c8d17ed86ab471c849d0b1'
p1177
sg99
(lp1178
g1158
ag1165
asg101
Nsba(ibclass
BBasicBlock
p1179
(dp1180
g12
Nsg13
(lp1181
(ibclass
BInstr
p1182
(dp1183
g2
Nsg17
S'jmp     err'
p1184
sg19
S'e99b010000'
p1185
sg21
Vjmp 0x1a0
p1186
sg5
L135319266L
sg6
Nsg23
S'jmp'
p1187
sg25
S'0x810cee2L'
p1188
sg27
Nsbasg77
(lp1189
Vjmp address
p1190
asg85
Nsg5
S'0x810cee2L'
p1191
sg87
(lp1192
S'0x810cedeL'
p1193
asg6
Nsg89
(lp1194
S'0x810d082L'
p1195
asg93
Nsg94
Nsg95
S'0ef6cf926f2f394b0cc8e11be8022625'
p1196
sg97
S'd4372e4caa7348928655251605aa7329'
p1197
sg99
(lp1198
g1187
asg101
Nsba(ibclass
BBasicBlock
p1199
(dp1200
g12
Nsg13
(lp1201
(ibclass
BInstr
p1202
(dp1203
g2
Nsg17
S'mov     eax, [ebp+i]'
p1204
sg19
S'8b45d8'
p1205
sg21
Vmov eax, dword ptr [ebp - 0x28]
p1206
sg5
L135319271L
sg6
Nsg23
S'mov'
p1207
sg25
S'0x810cee7L'
p1208
sg27
Nsba(ibclass
BInstr
p1209
(dp1210
g2
Nsg17
S'mov     [ebp+j], eax'
p1211
sg19
S'8945dc'
p1212
sg21
Vmov dword ptr [ebp - 0x24], eax
p1213
sg5
L135319274L
sg6
Nsg23
S'mov'
p1214
sg25
S'0x810ceeaL'
p1215
sg27
Nsba(ibclass
BInstr
p1216
(dp1217
g2
Nsg17
S'mov     [ebp+m], 0'
p1218
sg19
S'c745d400000000'
p1219
sg21
Vmov dword ptr [ebp - 0x2c], 0
p1220
sg5
L135319277L
sg6
Nsg23
S'mov'
p1221
sg25
S'0x810ceedL'
p1222
sg27
Nsba(ibclass
BInstr
p1223
(dp1224
g2
Nsg17
S'mov     [ebp+h], 0'
p1225
sg19
S'c745d000000000'
p1226
sg21
Vmov dword ptr [ebp - 0x30], 0
p1227
sg5
L135319284L
sg6
Nsg23
S'mov'
p1228
sg25
S'0x810cef4L'
p1229
sg27
Nsba(ibclass
BInstr
p1230
(dp1231
g2
Nsg17
S'jmp     loc_810CFBA'
p1232
sg19
S'e9ba000000'
p1233
sg21
Vjmp 0xbf
p1234
sg5
L135319291L
sg6
Nsg23
S'jmp'
p1235
sg25
S'0x810cefbL'
p1236
sg27
Nsbasg77
(lp1237
Vmov eax, mem
p1238
aVmov mem, eax
p1239
aVmov mem, 0
p1240
aVmov mem, 0
p1241
aVjmp address
p1242
asg85
Nsg5
S'0x810cee7L'
p1243
sg87
(lp1244
S'0x810cedeL'
p1245
asg6
Nsg89
(lp1246
S'0x810cfbaL'
p1247
asg93
Nsg94
Nsg95
S'7217f719f009b7b2e7686b68917fe7aa'
p1248
sg97
S'c3f1277ffe07e2722763d010d6c6896e'
p1249
sg99
(lp1250
g1207
ag1214
ag1221
ag1228
ag1235
asg101
Nsba(ibclass
BBasicBlock
p1251
(dp1252
g12
Nsg13
(lp1253
(ibclass
BInstr
p1254
(dp1255
g2
Nsg17
S'mov     eax, [ebp+j]'
p1256
sg19
S'8b45dc'
p1257
sg21
Vmov eax, dword ptr [ebp - 0x24]
p1258
sg5
L135319296L
sg6
Nsg23
S'mov'
p1259
sg25
S'0x810cf00L'
p1260
sg27
Nsba(ibclass
BInstr
p1261
(dp1262
g2
Nsg17
S'cmp     eax, 8'
p1263
sg19
S'83f808'
p1264
sg21
Vcmp eax, 8
p1265
sg5
L135319299L
sg6
Nsg23
S'cmp'
p1266
sg25
S'0x810cf03L'
p1267
sg27
Nsba(ibclass
BInstr
p1268
(dp1269
g2
Nsg17
S'jle     short loc_810CF0D'
p1270
sg19
S'7e05'
p1271
sg21
Vjle 7
p1272
sg5
L135319302L
sg6
Nsg23
S'jle'
p1273
sg25
S'0x810cf06L'
p1274
sg27
Nsbasg77
(lp1275
Vmov eax, mem
p1276
ag1265
ag1272
asg85
Nsg5
S'0x810cf00L'
p1277
sg87
(lp1278
S'0x810cfbaL'
p1279
asg6
Nsg89
(lp1280
S'0x810cf08L'
p1281
aS'0x810cf0dL'
p1282
asg93
Nsg94
Nsg95
S'8a232648047fbeed381dd578277253a0'
p1283
sg97
S'2e89033b8a8d8a6ad94baad1f5596656'
p1284
sg99
(lp1285
g1259
ag1266
ag1273
asg101
Nsba(ibclass
BBasicBlock
p1286
(dp1287
g12
Nsg13
(lp1288
(ibclass
BInstr
p1289
(dp1290
g2
Nsg17
S'mov     eax, 8'
p1291
sg19
S'b808000000'
p1292
sg21
Vmov eax, 8
p1293
sg5
L135319304L
sg6
Nsg23
S'mov'
p1294
sg25
S'0x810cf08L'
p1295
sg27
Nsbasg77
(lp1296
g1293
asg85
Nsg5
S'0x810cf08L'
p1297
sg87
(lp1298
S'0x810cf00L'
p1299
asg6
Nsg89
(lp1300
S'0x810cf0dL'
p1301
asg93
Nsg94
Nsg95
S'96a4a0e6e9ac88756a0fcba989d0a844'
p1302
sg97
S'e1d8fc239ef4c7c3288a21e6d481dd89'
p1303
sg99
(lp1304
g1294
asg101
Nsba(ibclass
BBasicBlock
p1305
(dp1306
g12
Nsg13
(lp1307
(ibclass
BInstr
p1308
(dp1309
g2
Nsg17
S'mov     [ebp+m], eax'
p1310
sg19
S'8945d4'
p1311
sg21
Vmov dword ptr [ebp - 0x2c], eax
p1312
sg5
L135319309L
sg6
Nsg23
S'mov'
p1313
sg25
S'0x810cf0dL'
p1314
sg27
Nsba(ibclass
BInstr
p1315
(dp1316
g2
Nsg17
S'mov     [ebp+l], 0'
p1317
sg19
S'c745c800000000'
p1318
sg21
Vmov dword ptr [ebp - 0x38], 0
p1319
sg5
L135319312L
sg6
Nsg23
S'mov'
p1320
sg25
S'0x810cf10L'
p1321
sg27
Nsbasg77
(lp1322
Vmov mem, eax
p1323
aVmov mem, 0
p1324
asg85
Nsg5
S'0x810cf0dL'
p1325
sg87
(lp1326
S'0x810cf00L'
p1327
aS'0x810cf08L'
p1328
asg6
Nsg89
(lp1329
S'0x810cf17L'
p1330
asg93
Nsg94
Nsg95
S'70939fd8153af5d63d1bcbdb14592b28'
p1331
sg97
S'011d2ffdbc1ccc2b8c6bd5556eac7329'
p1332
sg99
(lp1333
g1313
ag1320
asg101
Nsba(ibclass
BBasicBlock
p1334
(dp1335
g12
Nsg13
(lp1336
(ibclass
BInstr
p1337
(dp1338
g2
Nsg17
S'mov     eax, [ebp+m]'
p1339
sg19
S'8b45d4'
p1340
sg21
Vmov eax, dword ptr [ebp - 0x2c]
p1341
sg5
L135319319L
sg6
Nsg23
S'mov'
p1342
sg25
S'0x810cf17L'
p1343
sg27
Nsba(ibclass
BInstr
p1344
(dp1345
g2
Nsg17
S'mov     edx, [ebp+j]'
p1346
sg19
S'8b55dc'
p1347
sg21
Vmov edx, dword ptr [ebp - 0x24]
p1348
sg5
L135319322L
sg6
Nsg23
S'mov'
p1349
sg25
S'0x810cf1aL'
p1350
sg27
Nsba(ibclass
BInstr
p1351
(dp1352
g2
Nsg17
S'sub     edx, eax'
p1353
sg19
S'29c2'
p1354
sg21
Vsub edx, eax
p1355
sg5
L135319325L
sg6
Nsg23
S'sub'
p1356
sg25
S'0x810cf1dL'
p1357
sg27
Nsba(ibclass
BInstr
p1358
(dp1359
g2
Nsg17
S'mov     eax, edx'
p1360
sg19
S'89d0'
p1361
sg21
Vmov eax, edx
p1362
sg5
L135319327L
sg6
Nsg23
S'mov'
p1363
sg25
S'0x810cf1fL'
p1364
sg27
Nsba(ibclass
BInstr
p1365
(dp1366
g2
Nsg17
S'mov     edx, eax'
p1367
sg19
S'89c2'
p1368
sg21
Vmov edx, eax
p1369
sg5
L135319329L
sg6
Nsg23
S'mov'
p1370
sg25
S'0x810cf21L'
p1371
sg27
Nsba(ibclass
BInstr
p1372
(dp1373
g2
Nsg17
S'mov     eax, [ebp+a]'
p1374
sg19
S'8b450c'
p1375
sg21
Vmov eax, dword ptr [ebp + 0xc]
p1376
sg5
L135319331L
sg6
Nsg23
S'mov'
p1377
sg25
S'0x810cf23L'
p1378
sg27
Nsba(ibclass
BInstr
p1379
(dp1380
g2
Nsg17
S'add     eax, edx'
p1381
sg19
S'01d0'
p1382
sg21
Vadd eax, edx
p1383
sg5
L135319334L
sg6
Nsg23
S'add'
p1384
sg25
S'0x810cf26L'
p1385
sg27
Nsba(ibclass
BInstr
p1386
(dp1387
g2
Nsg17
S'mov     al, [eax]'
p1388
sg19
S'8a00'
p1389
sg21
Vmov al, byte ptr [eax]
p1390
sg5
L135319336L
sg6
Nsg23
S'mov'
p1391
sg25
S'0x810cf28L'
p1392
sg27
Nsba(ibclass
BInstr
p1393
(dp1394
g2
Nsg17
S'movsx   eax, al'
p1395
sg19
S'0fbec0'
p1396
sg21
Vmovsx eax, al
p1397
sg5
L135319338L
sg6
Nsg23
S'movsx'
p1398
sg25
S'0x810cf2aL'
p1399
sg27
Nsba(ibclass
BInstr
p1400
(dp1401
g2
Nsg17
S'mov     [ebp+c], eax'
p1402
sg19
S'8945f0'
p1403
sg21
Vmov dword ptr [ebp - 0x10], eax
p1404
sg5
L135319341L
sg6
Nsg23
S'mov'
p1405
sg25
S'0x810cf2dL'
p1406
sg27
Nsba(ibclass
BInstr
p1407
(dp1408
g2
Nsg17
S'cmp     [ebp+c], 2Fh'
p1409
sg19
S'837df02f'
p1410
sg21
Vcmp dword ptr [ebp - 0x10], 0x2f
p1411
sg5
L135319344L
sg6
Nsg23
S'cmp'
p1412
sg25
S'0x810cf30L'
p1413
sg27
Nsba(ibclass
BInstr
p1414
(dp1415
g2
Nsg17
S'jle     short loc_810CF47'
p1416
sg19
S'7e11'
p1417
sg21
Vjle 0x13
p1418
sg5
L135319348L
sg6
Nsg23
S'jle'
p1419
sg25
S'0x810cf34L'
p1420
sg27
Nsbasg77
(lp1421
Vmov eax, mem
p1422
aVmov edx, mem
p1423
ag1355
ag1362
ag1369
aVmov eax, mem
p1424
ag1383
aVmov al, mem
p1425
ag1397
aVmov mem, eax
p1426
aVcmp mem, address
p1427
aVjle address
p1428
asg85
Nsg5
S'0x810cf17L'
p1429
sg87
(lp1430
S'0x810cf0dL'
p1431
aS'0x810cfb5L'
p1432
asg6
Nsg89
(lp1433
S'0x810cf36L'
p1434
aS'0x810cf47L'
p1435
asg93
Nsg94
Nsg95
S'77ace76c63f2f8c8a8a9d69d5ec1cecb'
p1436
sg97
S'a55023e7ee10f91be5f16e9e5f8c20cd'
p1437
sg99
(lp1438
g1342
ag1349
ag1356
ag1363
ag1370
ag1377
ag1384
ag1391
ag1398
ag1405
ag1412
ag1419
asg101
Nsba(ibclass
BBasicBlock
p1439
(dp1440
g12
Nsg13
(lp1441
(ibclass
BInstr
p1442
(dp1443
g2
Nsg17
S'cmp     [ebp+c], 39h'
p1444
sg19
S'837df039'
p1445
sg21
Vcmp dword ptr [ebp - 0x10], 0x39
p1446
sg5
L135319350L
sg6
Nsg23
S'cmp'
p1447
sg25
S'0x810cf36L'
p1448
sg27
Nsba(ibclass
BInstr
p1449
(dp1450
g2
Nsg17
S'jg      short loc_810CF47'
p1451
sg19
S'7f0b'
p1452
sg21
Vjg 0xd
p1453
sg5
L135319354L
sg6
Nsg23
S'jg'
p1454
sg25
S'0x810cf3aL'
p1455
sg27
Nsbasg77
(lp1456
Vcmp mem, address
p1457
aVjg address
p1458
asg85
Nsg5
S'0x810cf36L'
p1459
sg87
(lp1460
S'0x810cf17L'
p1461
asg6
Nsg89
(lp1462
S'0x810cf3cL'
p1463
aS'0x810cf47L'
p1464
asg93
Nsg94
Nsg95
S'b356acbc0cbaf5ebf0a35cc7bcc98784'
p1465
sg97
S'595ff5012359ad9575095120d4e77a86'
p1466
sg99
(lp1467
g1447
ag1454
asg101
Nsba(ibclass
BBasicBlock
p1468
(dp1469
g12
Nsg13
(lp1470
(ibclass
BInstr
p1471
(dp1472
g2
Nsg17
S'mov     eax, [ebp+c]'
p1473
sg19
S'8b45f0'
p1474
sg21
Vmov eax, dword ptr [ebp - 0x10]
p1475
sg5
L135319356L
sg6
Nsg23
S'mov'
p1476
sg25
S'0x810cf3cL'
p1477
sg27
Nsba(ibclass
BInstr
p1478
(dp1479
g2
Nsg17
S'sub     eax, 30h'
p1480
sg19
S'83e830'
p1481
sg21
Vsub eax, 0x30
p1482
sg5
L135319359L
sg6
Nsg23
S'sub'
p1483
sg25
S'0x810cf3fL'
p1484
sg27
Nsba(ibclass
BInstr
p1485
(dp1486
g2
Nsg17
S'mov     [ebp+k], eax'
p1487
sg19
S'8945e0'
p1488
sg21
Vmov dword ptr [ebp - 0x20], eax
p1489
sg5
L135319362L
sg6
Nsg23
S'mov'
p1490
sg25
S'0x810cf42L'
p1491
sg27
Nsba(ibclass
BInstr
p1492
(dp1493
g2
Nsg17
S'jmp     short loc_810CF7C'
p1494
sg19
S'eb35'
p1495
sg21
Vjmp 0x37
p1496
sg5
L135319365L
sg6
Nsg23
S'jmp'
p1497
sg25
S'0x810cf45L'
p1498
sg27
Nsbasg77
(lp1499
Vmov eax, mem
p1500
aVsub eax, address
p1501
aVmov mem, eax
p1502
aVjmp address
p1503
asg85
Nsg5
S'0x810cf3cL'
p1504
sg87
(lp1505
S'0x810cf36L'
p1506
asg6
Nsg89
(lp1507
S'0x810cf7cL'
p1508
asg93
Nsg94
Nsg95
S'6a3a89603c5d8094b4bb2a6c6b0e9d92'
p1509
sg97
S'98bb8d110b052f9a898129efc89f880b'
p1510
sg99
(lp1511
g1476
ag1483
ag1490
ag1497
asg101
Nsba(ibclass
BBasicBlock
p1512
(dp1513
g12
Nsg13
(lp1514
(ibclass
BInstr
p1515
(dp1516
g2
Nsg17
S'cmp     [ebp+c], 60h'
p1517
sg19
S'837df060'
p1518
sg21
Vcmp dword ptr [ebp - 0x10], 0x60
p1519
sg5
L135319367L
sg6
Nsg23
S'cmp'
p1520
sg25
S'0x810cf47L'
p1521
sg27
Nsba(ibclass
BInstr
p1522
(dp1523
g2
Nsg17
S'jle     short loc_810CF5E'
p1524
sg19
S'7e11'
p1525
sg21
Vjle 0x13
p1526
sg5
L135319371L
sg6
Nsg23
S'jle'
p1527
sg25
S'0x810cf4bL'
p1528
sg27
Nsbasg77
(lp1529
Vcmp mem, address
p1530
aVjle address
p1531
asg85
Nsg5
S'0x810cf47L'
p1532
sg87
(lp1533
S'0x810cf17L'
p1534
aS'0x810cf36L'
p1535
asg6
Nsg89
(lp1536
S'0x810cf4dL'
p1537
aS'0x810cf5eL'
p1538
asg93
Nsg94
Nsg95
S'0bc4bf9881c1ed8eb91420cf78755dd7'
p1539
sg97
S'63f7f8abf4e8906226c19017c918dca9'
p1540
sg99
(lp1541
g1520
ag1527
asg101
Nsba(ibclass
BBasicBlock
p1542
(dp1543
g12
Nsg13
(lp1544
(ibclass
BInstr
p1545
(dp1546
g2
Nsg17
S'cmp     [ebp+c], 66h'
p1547
sg19
S'837df066'
p1548
sg21
Vcmp dword ptr [ebp - 0x10], 0x66
p1549
sg5
L135319373L
sg6
Nsg23
S'cmp'
p1550
sg25
S'0x810cf4dL'
p1551
sg27
Nsba(ibclass
BInstr
p1552
(dp1553
g2
Nsg17
S'jg      short loc_810CF5E'
p1554
sg19
S'7f0b'
p1555
sg21
Vjg 0xd
p1556
sg5
L135319377L
sg6
Nsg23
S'jg'
p1557
sg25
S'0x810cf51L'
p1558
sg27
Nsbasg77
(lp1559
Vcmp mem, address
p1560
aVjg address
p1561
asg85
Nsg5
S'0x810cf4dL'
p1562
sg87
(lp1563
S'0x810cf47L'
p1564
asg6
Nsg89
(lp1565
S'0x810cf53L'
p1566
aS'0x810cf5eL'
p1567
asg93
Nsg94
Nsg95
S'b356acbc0cbaf5ebf0a35cc7bcc98784'
p1568
sg97
S'595ff5012359ad9575095120d4e77a86'
p1569
sg99
(lp1570
g1550
ag1557
asg101
Nsba(ibclass
BBasicBlock
p1571
(dp1572
g12
Nsg13
(lp1573
(ibclass
BInstr
p1574
(dp1575
g2
Nsg17
S'mov     eax, [ebp+c]'
p1576
sg19
S'8b45f0'
p1577
sg21
Vmov eax, dword ptr [ebp - 0x10]
p1578
sg5
L135319379L
sg6
Nsg23
S'mov'
p1579
sg25
S'0x810cf53L'
p1580
sg27
Nsba(ibclass
BInstr
p1581
(dp1582
g2
Nsg17
S'sub     eax, 57h'
p1583
sg19
S'83e857'
p1584
sg21
Vsub eax, 0x57
p1585
sg5
L135319382L
sg6
Nsg23
S'sub'
p1586
sg25
S'0x810cf56L'
p1587
sg27
Nsba(ibclass
BInstr
p1588
(dp1589
g2
Nsg17
S'mov     [ebp+k], eax'
p1590
sg19
S'8945e0'
p1591
sg21
Vmov dword ptr [ebp - 0x20], eax
p1592
sg5
L135319385L
sg6
Nsg23
S'mov'
p1593
sg25
S'0x810cf59L'
p1594
sg27
Nsba(ibclass
BInstr
p1595
(dp1596
g2
Nsg17
S'jmp     short loc_810CF7C'
p1597
sg19
S'eb1e'
p1598
sg21
Vjmp 0x20
p1599
sg5
L135319388L
sg6
Nsg23
S'jmp'
p1600
sg25
S'0x810cf5cL'
p1601
sg27
Nsbasg77
(lp1602
Vmov eax, mem
p1603
aVsub eax, address
p1604
aVmov mem, eax
p1605
aVjmp address
p1606
asg85
Nsg5
S'0x810cf53L'
p1607
sg87
(lp1608
S'0x810cf4dL'
p1609
asg6
Nsg89
(lp1610
S'0x810cf7cL'
p1611
asg93
Nsg94
Nsg95
S'6a3a89603c5d8094b4bb2a6c6b0e9d92'
p1612
sg97
S'98bb8d110b052f9a898129efc89f880b'
p1613
sg99
(lp1614
g1579
ag1586
ag1593
ag1600
asg101
Nsba(ibclass
BBasicBlock
p1615
(dp1616
g12
Nsg13
(lp1617
(ibclass
BInstr
p1618
(dp1619
g2
Nsg17
S'cmp     [ebp+c], 40h'
p1620
sg19
S'837df040'
p1621
sg21
Vcmp dword ptr [ebp - 0x10], 0x40
p1622
sg5
L135319390L
sg6
Nsg23
S'cmp'
p1623
sg25
S'0x810cf5eL'
p1624
sg27
Nsba(ibclass
BInstr
p1625
(dp1626
g2
Nsg17
S'jle     short loc_810CF75'
p1627
sg19
S'7e11'
p1628
sg21
Vjle 0x13
p1629
sg5
L135319394L
sg6
Nsg23
S'jle'
p1630
sg25
S'0x810cf62L'
p1631
sg27
Nsbasg77
(lp1632
Vcmp mem, address
p1633
aVjle address
p1634
asg85
Nsg5
S'0x810cf5eL'
p1635
sg87
(lp1636
S'0x810cf47L'
p1637
aS'0x810cf4dL'
p1638
asg6
Nsg89
(lp1639
S'0x810cf64L'
p1640
aS'0x810cf75L'
p1641
asg93
Nsg94
Nsg95
S'0bc4bf9881c1ed8eb91420cf78755dd7'
p1642
sg97
S'63f7f8abf4e8906226c19017c918dca9'
p1643
sg99
(lp1644
g1623
ag1630
asg101
Nsba(ibclass
BBasicBlock
p1645
(dp1646
g12
Nsg13
(lp1647
(ibclass
BInstr
p1648
(dp1649
g2
Nsg17
S'cmp     [ebp+c], 46h'
p1650
sg19
S'837df046'
p1651
sg21
Vcmp dword ptr [ebp - 0x10], 0x46
p1652
sg5
L135319396L
sg6
Nsg23
S'cmp'
p1653
sg25
S'0x810cf64L'
p1654
sg27
Nsba(ibclass
BInstr
p1655
(dp1656
g2
Nsg17
S'jg      short loc_810CF75'
p1657
sg19
S'7f0b'
p1658
sg21
Vjg 0xd
p1659
sg5
L135319400L
sg6
Nsg23
S'jg'
p1660
sg25
S'0x810cf68L'
p1661
sg27
Nsbasg77
(lp1662
Vcmp mem, address
p1663
aVjg address
p1664
asg85
Nsg5
S'0x810cf64L'
p1665
sg87
(lp1666
S'0x810cf5eL'
p1667
asg6
Nsg89
(lp1668
S'0x810cf6aL'
p1669
aS'0x810cf75L'
p1670
asg93
Nsg94
Nsg95
S'b356acbc0cbaf5ebf0a35cc7bcc98784'
p1671
sg97
S'595ff5012359ad9575095120d4e77a86'
p1672
sg99
(lp1673
g1653
ag1660
asg101
Nsba(ibclass
BBasicBlock
p1674
(dp1675
g12
Nsg13
(lp1676
(ibclass
BInstr
p1677
(dp1678
g2
Nsg17
S'mov     eax, [ebp+c]'
p1679
sg19
S'8b45f0'
p1680
sg21
Vmov eax, dword ptr [ebp - 0x10]
p1681
sg5
L135319402L
sg6
Nsg23
S'mov'
p1682
sg25
S'0x810cf6aL'
p1683
sg27
Nsba(ibclass
BInstr
p1684
(dp1685
g2
Nsg17
S'sub     eax, 37h'
p1686
sg19
S'83e837'
p1687
sg21
Vsub eax, 0x37
p1688
sg5
L135319405L
sg6
Nsg23
S'sub'
p1689
sg25
S'0x810cf6dL'
p1690
sg27
Nsba(ibclass
BInstr
p1691
(dp1692
g2
Nsg17
S'mov     [ebp+k], eax'
p1693
sg19
S'8945e0'
p1694
sg21
Vmov dword ptr [ebp - 0x20], eax
p1695
sg5
L135319408L
sg6
Nsg23
S'mov'
p1696
sg25
S'0x810cf70L'
p1697
sg27
Nsba(ibclass
BInstr
p1698
(dp1699
g2
Nsg17
S'jmp     short loc_810CF7C'
p1700
sg19
S'eb07'
p1701
sg21
Vjmp 9
p1702
sg5
L135319411L
sg6
Nsg23
S'jmp'
p1703
sg25
S'0x810cf73L'
p1704
sg27
Nsbasg77
(lp1705
Vmov eax, mem
p1706
aVsub eax, address
p1707
aVmov mem, eax
p1708
ag1702
asg85
Nsg5
S'0x810cf6aL'
p1709
sg87
(lp1710
S'0x810cf64L'
p1711
asg6
Nsg89
(lp1712
S'0x810cf7cL'
p1713
asg93
Nsg94
Nsg95
S'6a3a89603c5d8094b4bb2a6c6b0e9d92'
p1714
sg97
S'dc6739524aa0f9370f9e25660066c58f'
p1715
sg99
(lp1716
g1682
ag1689
ag1696
ag1703
asg101
Nsba(ibclass
BBasicBlock
p1717
(dp1718
g12
Nsg13
(lp1719
(ibclass
BInstr
p1720
(dp1721
g2
Nsg17
S'mov     [ebp+k], 0'
p1722
sg19
S'c745e000000000'
p1723
sg21
Vmov dword ptr [ebp - 0x20], 0
p1724
sg5
L135319413L
sg6
Nsg23
S'mov'
p1725
sg25
S'0x810cf75L'
p1726
sg27
Nsbasg77
(lp1727
Vmov mem, 0
p1728
asg85
Nsg5
S'0x810cf75L'
p1729
sg87
(lp1730
S'0x810cf5eL'
p1731
aS'0x810cf64L'
p1732
asg6
Nsg89
(lp1733
S'0x810cf7cL'
p1734
asg93
Nsg94
Nsg95
S'96a4a0e6e9ac88756a0fcba989d0a844'
p1735
sg97
S'de0bb209f421163e523f24128b669bdf'
p1736
sg99
(lp1737
g1725
asg101
Nsba(ibclass
BBasicBlock
p1738
(dp1739
g12
Nsg13
(lp1740
(ibclass
BInstr
p1741
(dp1742
g2
Nsg17
S'mov     eax, [ebp+l]'
p1743
sg19
S'8b45c8'
p1744
sg21
Vmov eax, dword ptr [ebp - 0x38]
p1745
sg5
L135319420L
sg6
Nsg23
S'mov'
p1746
sg25
S'0x810cf7cL'
p1747
sg27
Nsba(ibclass
BInstr
p1748
(dp1749
g2
Nsg17
S'shl     eax, 4'
p1750
sg19
S'c1e004'
p1751
sg21
Vshl eax, 4
p1752
sg5
L135319423L
sg6
Nsg23
S'shl'
p1753
sg25
S'0x810cf7fL'
p1754
sg27
Nsba(ibclass
BInstr
p1755
(dp1756
g2
Nsg17
S'mov     edx, eax'
p1757
sg19
S'89c2'
p1758
sg21
Vmov edx, eax
p1759
sg5
L135319426L
sg6
Nsg23
S'mov'
p1760
sg25
S'0x810cf82L'
p1761
sg27
Nsba(ibclass
BInstr
p1762
(dp1763
g2
Nsg17
S'mov     eax, [ebp+k]'
p1764
sg19
S'8b45e0'
p1765
sg21
Vmov eax, dword ptr [ebp - 0x20]
p1766
sg5
L135319428L
sg6
Nsg23
S'mov'
p1767
sg25
S'0x810cf84L'
p1768
sg27
Nsba(ibclass
BInstr
p1769
(dp1770
g2
Nsg17
S'or      eax, edx'
p1771
sg19
S'09d0'
p1772
sg21
Vor eax, edx
p1773
sg5
L135319431L
sg6
Nsg23
S'or'
p1774
sg25
S'0x810cf87L'
p1775
sg27
Nsba(ibclass
BInstr
p1776
(dp1777
g2
Nsg17
S'mov     [ebp+l], eax'
p1778
sg19
S'8945c8'
p1779
sg21
Vmov dword ptr [ebp - 0x38], eax
p1780
sg5
L135319433L
sg6
Nsg23
S'mov'
p1781
sg25
S'0x810cf89L'
p1782
sg27
Nsba(ibclass
BInstr
p1783
(dp1784
g2
Nsg17
S'dec     [ebp+m]'
p1785
sg19
S'ff4dd4'
p1786
sg21
Vdec dword ptr [ebp - 0x2c]
p1787
sg5
L135319436L
sg6
Nsg23
S'dec'
p1788
sg25
S'0x810cf8cL'
p1789
sg27
Nsba(ibclass
BInstr
p1790
(dp1791
g2
Nsg17
S'cmp     [ebp+m], 0'
p1792
sg19
S'837dd400'
p1793
sg21
Vcmp dword ptr [ebp - 0x2c], 0
p1794
sg5
L135319439L
sg6
Nsg23
S'cmp'
p1795
sg25
S'0x810cf8fL'
p1796
sg27
Nsba(ibclass
BInstr
p1797
(dp1798
g2
Nsg17
S'jg      short loc_810CFB5'
p1799
sg19
S'7f20'
p1800
sg21
Vjg 0x22
p1801
sg5
L135319443L
sg6
Nsg23
S'jg'
p1802
sg25
S'0x810cf93L'
p1803
sg27
Nsbasg77
(lp1804
Vmov eax, mem
p1805
ag1752
ag1759
aVmov eax, mem
p1806
ag1773
aVmov mem, eax
p1807
aVdec mem
p1808
aVcmp mem, 0
p1809
aVjg address
p1810
asg85
Nsg5
S'0x810cf7cL'
p1811
sg87
(lp1812
S'0x810cf3cL'
p1813
aS'0x810cf53L'
p1814
aS'0x810cf6aL'
p1815
aS'0x810cf75L'
p1816
asg6
Nsg89
(lp1817
S'0x810cf95L'
p1818
aS'0x810cfb5L'
p1819
asg93
Nsg94
Nsg95
S'6c222dddad072d0a86aaac3e4d86b73b'
p1820
sg97
S'4b48f2564da41ef79eb66c5fc3be7d96'
p1821
sg99
(lp1822
g1746
ag1753
ag1760
ag1767
ag1774
ag1781
ag1788
ag1795
ag1802
asg101
Nsba(ibclass
BBasicBlock
p1823
(dp1824
g12
Nsg13
(lp1825
(ibclass
BInstr
p1826
(dp1827
g2
Nsg17
S'mov     eax, [ebp+ret]'
p1828
sg19
S'8b45c4'
p1829
sg21
Vmov eax, dword ptr [ebp - 0x3c]
p1830
sg5
L135319445L
sg6
Nsg23
S'mov'
p1831
sg25
S'0x810cf95L'
p1832
sg27
Nsba(ibclass
BInstr
p1833
(dp1834
g2
Nsg17
S'mov     ecx, [eax]'
p1835
sg19
S'8b08'
p1836
sg21
Vmov ecx, dword ptr [eax]
p1837
sg5
L135319448L
sg6
Nsg23
S'mov'
p1838
sg25
S'0x810cf98L'
p1839
sg27
Nsba(ibclass
BInstr
p1840
(dp1841
g2
Nsg17
S'mov     eax, [ebp+h]'
p1842
sg19
S'8b45d0'
p1843
sg21
Vmov eax, dword ptr [ebp - 0x30]
p1844
sg5
L135319450L
sg6
Nsg23
S'mov'
p1845
sg25
S'0x810cf9aL'
p1846
sg27
Nsba(ibclass
BInstr
p1847
(dp1848
g2
Nsg17
S'lea     edx, [eax+1]'
p1849
sg19
S'8d5001'
p1850
sg21
Vlea edx, [eax + 1]
p1851
sg5
L135319453L
sg6
Nsg23
S'lea'
p1852
sg25
S'0x810cf9dL'
p1853
sg27
Nsba(ibclass
BInstr
p1854
(dp1855
g2
Nsg17
S'mov     [ebp+h], edx'
p1856
sg19
S'8955d0'
p1857
sg21
Vmov dword ptr [ebp - 0x30], edx
p1858
sg5
L135319456L
sg6
Nsg23
S'mov'
p1859
sg25
S'0x810cfa0L'
p1860
sg27
Nsba(ibclass
BInstr
p1861
(dp1862
g2
Nsg17
S'shl     eax, 2'
p1863
sg19
S'c1e002'
p1864
sg21
Vshl eax, 2
p1865
sg5
L135319459L
sg6
Nsg23
S'shl'
p1866
sg25
S'0x810cfa3L'
p1867
sg27
Nsba(ibclass
BInstr
p1868
(dp1869
g2
Nsg17
S'lea     edx, [ecx+eax]'
p1870
sg19
S'8d1401'
p1871
sg21
Vlea edx, [ecx + eax]
p1872
sg5
L135319462L
sg6
Nsg23
S'lea'
p1873
sg25
S'0x810cfa6L'
p1874
sg27
Nsba(ibclass
BInstr
p1875
(dp1876
g2
Nsg17
S'mov     eax, [ebp+l]'
p1877
sg19
S'8b45c8'
p1878
sg21
Vmov eax, dword ptr [ebp - 0x38]
p1879
sg5
L135319465L
sg6
Nsg23
S'mov'
p1880
sg25
S'0x810cfa9L'
p1881
sg27
Nsba(ibclass
BInstr
p1882
(dp1883
g2
Nsg17
S'mov     [edx], eax'
p1884
sg19
S'8902'
p1885
sg21
Vmov dword ptr [edx], eax
p1886
sg5
L135319468L
sg6
Nsg23
S'mov'
p1887
sg25
S'0x810cfacL'
p1888
sg27
Nsba(ibclass
BInstr
p1889
(dp1890
g2
Nsg17
S'nop'
p1891
sg19
S'90'
p1892
sg21
Vnop 
p1893
sg5
L135319470L
sg6
Nsg23
S'nop'
p1894
sg25
S'0x810cfaeL'
p1895
sg27
Nsba(ibclass
BInstr
p1896
(dp1897
g2
Nsg17
S'sub     [ebp+j], 8'
p1898
sg19
S'836ddc08'
p1899
sg21
Vsub dword ptr [ebp - 0x24], 8
p1900
sg5
L135319471L
sg6
Nsg23
S'sub'
p1901
sg25
S'0x810cfafL'
p1902
sg27
Nsba(ibclass
BInstr
p1903
(dp1904
g2
Nsg17
S'jmp     short loc_810CFBA'
p1905
sg19
S'eb05'
p1906
sg21
Vjmp 7
p1907
sg5
L135319475L
sg6
Nsg23
S'jmp'
p1908
sg25
S'0x810cfb3L'
p1909
sg27
Nsbasg77
(lp1910
Vmov eax, mem
p1911
aVmov ecx, mem
p1912
aVmov eax, mem
p1913
aVlea edx, mem
p1914
aVmov mem, edx
p1915
ag1865
aVlea edx, mem
p1916
aVmov eax, mem
p1917
aVmov mem, eax
p1918
aVnop
p1919
aVsub mem, 8
p1920
ag1907
asg85
Nsg5
S'0x810cf95L'
p1921
sg87
(lp1922
S'0x810cf7cL'
p1923
asg6
Nsg89
(lp1924
S'0x810cfbaL'
p1925
asg93
Nsg94
Nsg95
S'6b257f6ee5536ad765362fba72cdb2e9'
p1926
sg97
S'52726c2aa14690c9038c4821bd4e0373'
p1927
sg99
(lp1928
g1831
ag1838
ag1845
ag1852
ag1859
ag1866
ag1873
ag1880
ag1887
ag1894
ag1901
ag1908
asg101
Nsba(ibclass
BBasicBlock
p1929
(dp1930
g12
Nsg13
(lp1931
(ibclass
BInstr
p1932
(dp1933
g2
Nsg17
S'jmp     loc_810CF17'
p1934
sg19
S'e95dffffff'
p1935
sg21
Vjmp 0xffffff62
p1936
sg5
L135319477L
sg6
Nsg23
S'jmp'
p1937
sg25
S'0x810cfb5L'
p1938
sg27
Nsbasg77
(lp1939
Vjmp address
p1940
asg85
Nsg5
S'0x810cfb5L'
p1941
sg87
(lp1942
S'0x810cf7cL'
p1943
asg6
Nsg89
(lp1944
S'0x810cf17L'
p1945
asg93
Nsg94
Nsg95
S'0ef6cf926f2f394b0cc8e11be8022625'
p1946
sg97
S'd4372e4caa7348928655251605aa7329'
p1947
sg99
(lp1948
g1937
asg101
Nsba(ibclass
BBasicBlock
p1949
(dp1950
g12
Nsg13
(lp1951
(ibclass
BInstr
p1952
(dp1953
g2
Nsg17
S'cmp     [ebp+j], 0'
p1954
sg19
S'837ddc00'
p1955
sg21
Vcmp dword ptr [ebp - 0x24], 0
p1956
sg5
L135319482L
sg6
Nsg23
S'cmp'
p1957
sg25
S'0x810cfbaL'
p1958
sg27
Nsba(ibclass
BInstr
p1959
(dp1960
g2
Nsg17
S'jg      loc_810CF00'
p1961
sg19
S'0f8f3cffffff'
p1962
sg21
Vjg 0xffffff42
p1963
sg5
L135319486L
sg6
Nsg23
S'jg'
p1964
sg25
S'0x810cfbeL'
p1965
sg27
Nsbasg77
(lp1966
Vcmp mem, 0
p1967
aVjg address
p1968
asg85
Nsg5
S'0x810cfbaL'
p1969
sg87
(lp1970
S'0x810cee7L'
p1971
aS'0x810cf95L'
p1972
asg6
Nsg89
(lp1973
S'0x810cf00L'
p1974
aS'0x810cfc4L'
p1975
asg93
Nsg94
Nsg95
S'b356acbc0cbaf5ebf0a35cc7bcc98784'
p1976
sg97
S'd3c4f930fa078cc3ed140fba0f5ab431'
p1977
sg99
(lp1978
g1957
ag1964
asg101
Nsba(ibclass
BBasicBlock
p1979
(dp1980
g12
Nsg13
(lp1981
(ibclass
BInstr
p1982
(dp1983
g2
Nsg17
S'mov     eax, [ebp+ret]'
p1984
sg19
S'8b45c4'
p1985
sg21
Vmov eax, dword ptr [ebp - 0x3c]
p1986
sg5
L135319492L
sg6
Nsg23
S'mov'
p1987
sg25
S'0x810cfc4L'
p1988
sg27
Nsba(ibclass
BInstr
p1989
(dp1990
g2
Nsg17
S'mov     edx, [ebp+h]'
p1991
sg19
S'8b55d0'
p1992
sg21
Vmov edx, dword ptr [ebp - 0x30]
p1993
sg5
L135319495L
sg6
Nsg23
S'mov'
p1994
sg25
S'0x810cfc7L'
p1995
sg27
Nsba(ibclass
BInstr
p1996
(dp1997
g2
Nsg17
S'mov     [eax+4], edx'
p1998
sg19
S'895004'
p1999
sg21
Vmov dword ptr [eax + 4], edx
p2000
sg5
L135319498L
sg6
Nsg23
S'mov'
p2001
sg25
S'0x810cfcaL'
p2002
sg27
Nsba(ibclass
BInstr
p2003
(dp2004
g2
Nsg17
S'mov     eax, [ebp+ret]'
p2005
sg19
S'8b45c4'
p2006
sg21
Vmov eax, dword ptr [ebp - 0x3c]
p2007
sg5
L135319501L
sg6
Nsg23
S'mov'
p2008
sg25
S'0x810cfcdL'
p2009
sg27
Nsba(ibclass
BInstr
p2010
(dp2011
g2
Nsg17
S'mov     eax, [eax+4]'
p2012
sg19
S'8b4004'
p2013
sg21
Vmov eax, dword ptr [eax + 4]
p2014
sg5
L135319504L
sg6
Nsg23
S'mov'
p2015
sg25
S'0x810cfd0L'
p2016
sg27
Nsba(ibclass
BInstr
p2017
(dp2018
g2
Nsg17
S'mov     [ebp+tmp_top], eax'
p2019
sg19
S'8945e8'
p2020
sg21
Vmov dword ptr [ebp - 0x18], eax
p2021
sg5
L135319507L
sg6
Nsg23
S'mov'
p2022
sg25
S'0x810cfd3L'
p2023
sg27
Nsba(ibclass
BInstr
p2024
(dp2025
g2
Nsg17
S'cmp     [ebp+tmp_top], 0'
p2026
sg19
S'837de800'
p2027
sg21
Vcmp dword ptr [ebp - 0x18], 0
p2028
sg5
L135319510L
sg6
Nsg23
S'cmp'
p2029
sg25
S'0x810cfd6L'
p2030
sg27
Nsba(ibclass
BInstr
p2031
(dp2032
g2
Nsg17
S'jle     short loc_810D017'
p2033
sg19
S'7e3b'
p2034
sg21
Vjle 0x3d
p2035
sg5
L135319514L
sg6
Nsg23
S'jle'
p2036
sg25
S'0x810cfdaL'
p2037
sg27
Nsbasg77
(lp2038
Vmov eax, mem
p2039
aVmov edx, mem
p2040
aVmov mem, edx
p2041
aVmov eax, mem
p2042
aVmov eax, mem
p2043
aVmov mem, eax
p2044
aVcmp mem, 0
p2045
aVjle address
p2046
asg85
Nsg5
S'0x810cfc4L'
p2047
sg87
(lp2048
S'0x810cfbaL'
p2049
asg6
Nsg89
(lp2050
S'0x810cfdcL'
p2051
aS'0x810d017L'
p2052
asg93
Nsg94
Nsg95
S'df66f5233e405884cd6bf9df1b15ea01'
p2053
sg97
S'c384801a16bd1e2e6ef7f085b46c0ca6'
p2054
sg99
(lp2055
g1987
ag1994
ag2001
ag2008
ag2015
ag2022
ag2029
ag2036
asg101
Nsba(ibclass
BBasicBlock
p2056
(dp2057
g12
Nsg13
(lp2058
(ibclass
BInstr
p2059
(dp2060
g2
Nsg17
S'mov     eax, [ebp+ret]'
p2061
sg19
S'8b45c4'
p2062
sg21
Vmov eax, dword ptr [ebp - 0x3c]
p2063
sg5
L135319516L
sg6
Nsg23
S'mov'
p2064
sg25
S'0x810cfdcL'
p2065
sg27
Nsba(ibclass
BInstr
p2066
(dp2067
g2
Nsg17
S'mov     eax, [eax]'
p2068
sg19
S'8b00'
p2069
sg21
Vmov eax, dword ptr [eax]
p2070
sg5
L135319519L
sg6
Nsg23
S'mov'
p2071
sg25
S'0x810cfdfL'
p2072
sg27
Nsba(ibclass
BInstr
p2073
(dp2074
g2
Nsg17
S'mov     edx, [ebp+tmp_top]'
p2075
sg19
S'8b55e8'
p2076
sg21
Vmov edx, dword ptr [ebp - 0x18]
p2077
sg5
L135319521L
sg6
Nsg23
S'mov'
p2078
sg25
S'0x810cfe1L'
p2079
sg27
Nsba(ibclass
BInstr
p2080
(dp2081
g2
Nsg17
S'add     edx, 3FFFFFFFh'
p2082
sg19
S'81c2ffffff3f'
p2083
sg21
Vadd edx, 0x3fffffff
p2084
sg5
L135319524L
sg6
Nsg23
S'add'
p2085
sg25
S'0x810cfe4L'
p2086
sg27
Nsba(ibclass
BInstr
p2087
(dp2088
g2
Nsg17
S'shl     edx, 2'
p2089
sg19
S'c1e202'
p2090
sg21
Vshl edx, 2
p2091
sg5
L135319530L
sg6
Nsg23
S'shl'
p2092
sg25
S'0x810cfeaL'
p2093
sg27
Nsba(ibclass
BInstr
p2094
(dp2095
g2
Nsg17
S'add     eax, edx'
p2096
sg19
S'01d0'
p2097
sg21
Vadd eax, edx
p2098
sg5
L135319533L
sg6
Nsg23
S'add'
p2099
sg25
S'0x810cfedL'
p2100
sg27
Nsba(ibclass
BInstr
p2101
(dp2102
g2
Nsg17
S'mov     [ebp+ftl], eax'
p2103
sg19
S'8945e4'
p2104
sg21
Vmov dword ptr [ebp - 0x1c], eax
p2105
sg5
L135319535L
sg6
Nsg23
S'mov'
p2106
sg25
S'0x810cfefL'
p2107
sg27
Nsba(ibclass
BInstr
p2108
(dp2109
g2
Nsg17
S'jmp     short loc_810D008'
p2110
sg19
S'eb14'
p2111
sg21
Vjmp 0x16
p2112
sg5
L135319538L
sg6
Nsg23
S'jmp'
p2113
sg25
S'0x810cff2L'
p2114
sg27
Nsbasg77
(lp2115
Vmov eax, mem
p2116
aVmov eax, mem
p2117
aVmov edx, mem
p2118
aVadd edx, address
p2119
ag2091
ag2098
aVmov mem, eax
p2120
aVjmp address
p2121
asg85
Nsg5
S'0x810cfdcL'
p2122
sg87
(lp2123
S'0x810cfc4L'
p2124
asg6
Nsg89
(lp2125
S'0x810d008L'
p2126
asg93
Nsg94
Nsg95
S'b003aab12b7c6798c0760f2edfdf275f'
p2127
sg97
S'39b00ab692132487175ed34f010b7138'
p2128
sg99
(lp2129
g2064
ag2071
ag2078
ag2085
ag2092
ag2099
ag2106
ag2113
asg101
Nsba(ibclass
BBasicBlock
p2130
(dp2131
g12
Nsg13
(lp2132
(ibclass
BInstr
p2133
(dp2134
g2
Nsg17
S'mov     eax, [ebp+ftl]'
p2135
sg19
S'8b45e4'
p2136
sg21
Vmov eax, dword ptr [ebp - 0x1c]
p2137
sg5
L135319540L
sg6
Nsg23
S'mov'
p2138
sg25
S'0x810cff4L'
p2139
sg27
Nsba(ibclass
BInstr
p2140
(dp2141
g2
Nsg17
S'lea     edx, [eax-4]'
p2142
sg19
S'8d50fc'
p2143
sg21
Vlea edx, [eax - 4]
p2144
sg5
L135319543L
sg6
Nsg23
S'lea'
p2145
sg25
S'0x810cff7L'
p2146
sg27
Nsba(ibclass
BInstr
p2147
(dp2148
g2
Nsg17
S'mov     [ebp+ftl], edx'
p2149
sg19
S'8955e4'
p2150
sg21
Vmov dword ptr [ebp - 0x1c], edx
p2151
sg5
L135319546L
sg6
Nsg23
S'mov'
p2152
sg25
S'0x810cffaL'
p2153
sg27
Nsba(ibclass
BInstr
p2154
(dp2155
g2
Nsg17
S'mov     eax, [eax]'
p2156
sg19
S'8b00'
p2157
sg21
Vmov eax, dword ptr [eax]
p2158
sg5
L135319549L
sg6
Nsg23
S'mov'
p2159
sg25
S'0x810cffdL'
p2160
sg27
Nsba(ibclass
BInstr
p2161
(dp2162
g2
Nsg17
S'test    eax, eax'
p2163
sg19
S'85c0'
p2164
sg21
Vtest eax, eax
p2165
sg5
L135319551L
sg6
Nsg23
S'test'
p2166
sg25
S'0x810cfffL'
p2167
sg27
Nsba(ibclass
BInstr
p2168
(dp2169
g2
Nsg17
S'jz      short loc_810D005'
p2170
sg19
S'7402'
p2171
sg21
Vje 4
p2172
sg5
L135319553L
sg6
Nsg23
S'jz'
p2173
sg25
S'0x810d001L'
p2174
sg27
Nsbasg77
(lp2175
Vmov eax, mem
p2176
aVlea edx, mem
p2177
aVmov mem, edx
p2178
aVmov eax, mem
p2179
ag2165
ag2172
asg85
Nsg5
S'0x810cff4L'
p2180
sg87
(lp2181
S'0x810d008L'
p2182
asg6
Nsg89
(lp2183
S'0x810d003L'
p2184
aS'0x810d005L'
p2185
asg93
Nsg94
Nsg95
S'422a33198bb2524504b4cdfbe6b129d7'
p2186
sg97
S'5b9f435adad6882dea6441ce785a7287'
p2187
sg99
(lp2188
g2138
ag2145
ag2152
ag2159
ag2166
ag2173
asg101
Nsba(ibclass
BBasicBlock
p2189
(dp2190
g12
Nsg13
(lp2191
(ibclass
BInstr
p2192
(dp2193
g2
Nsg17
S'jmp     short loc_810D00E'
p2194
sg19
S'eb09'
p2195
sg21
Vjmp 0xb
p2196
sg5
L135319555L
sg6
Nsg23
S'jmp'
p2197
sg25
S'0x810d003L'
p2198
sg27
Nsbasg77
(lp2199
Vjmp address
p2200
asg85
Nsg5
S'0x810d003L'
p2201
sg87
(lp2202
S'0x810cff4L'
p2203
asg6
Nsg89
(lp2204
S'0x810d00eL'
p2205
asg93
Nsg94
Nsg95
S'0ef6cf926f2f394b0cc8e11be8022625'
p2206
sg97
S'd4372e4caa7348928655251605aa7329'
p2207
sg99
(lp2208
g2197
asg101
Nsba(ibclass
BBasicBlock
p2209
(dp2210
g12
Nsg13
(lp2211
(ibclass
BInstr
p2212
(dp2213
g2
Nsg17
S'dec     [ebp+tmp_top]'
p2214
sg19
S'ff4de8'
p2215
sg21
Vdec dword ptr [ebp - 0x18]
p2216
sg5
L135319557L
sg6
Nsg23
S'dec'
p2217
sg25
S'0x810d005L'
p2218
sg27
Nsbasg77
(lp2219
Vdec mem
p2220
asg85
Nsg5
S'0x810d005L'
p2221
sg87
(lp2222
S'0x810cff4L'
p2223
asg6
Nsg89
(lp2224
S'0x810d008L'
p2225
asg93
Nsg94
Nsg95
S'1feea25ecb958229287f885aebe7c49b'
p2226
sg97
S'94312171729c9a068e5aab0eead6010a'
p2227
sg99
(lp2228
g2217
asg101
Nsba(ibclass
BBasicBlock
p2229
(dp2230
g12
Nsg13
(lp2231
(ibclass
BInstr
p2232
(dp2233
g2
Nsg17
S'cmp     [ebp+tmp_top], 0'
p2234
sg19
S'837de800'
p2235
sg21
Vcmp dword ptr [ebp - 0x18], 0
p2236
sg5
L135319560L
sg6
Nsg23
S'cmp'
p2237
sg25
S'0x810d008L'
p2238
sg27
Nsba(ibclass
BInstr
p2239
(dp2240
g2
Nsg17
S'jg      short loc_810CFF4'
p2241
sg19
S'7fe6'
p2242
sg21
Vjg 0xffffffe8
p2243
sg5
L135319564L
sg6
Nsg23
S'jg'
p2244
sg25
S'0x810d00cL'
p2245
sg27
Nsbasg77
(lp2246
Vcmp mem, 0
p2247
aVjg address
p2248
asg85
Nsg5
S'0x810d008L'
p2249
sg87
(lp2250
S'0x810cfdcL'
p2251
aS'0x810d005L'
p2252
asg6
Nsg89
(lp2253
S'0x810cff4L'
p2254
aS'0x810d00eL'
p2255
asg93
Nsg94
Nsg95
S'b356acbc0cbaf5ebf0a35cc7bcc98784'
p2256
sg97
S'd3c4f930fa078cc3ed140fba0f5ab431'
p2257
sg99
(lp2258
g2237
ag2244
asg101
Nsba(ibclass
BBasicBlock
p2259
(dp2260
g12
Nsg13
(lp2261
(ibclass
BInstr
p2262
(dp2263
g2
Nsg17
S'mov     eax, [ebp+ret]'
p2264
sg19
S'8b45c4'
p2265
sg21
Vmov eax, dword ptr [ebp - 0x3c]
p2266
sg5
L135319566L
sg6
Nsg23
S'mov'
p2267
sg25
S'0x810d00eL'
p2268
sg27
Nsba(ibclass
BInstr
p2269
(dp2270
g2
Nsg17
S'mov     edx, [ebp+tmp_top]'
p2271
sg19
S'8b55e8'
p2272
sg21
Vmov edx, dword ptr [ebp - 0x18]
p2273
sg5
L135319569L
sg6
Nsg23
S'mov'
p2274
sg25
S'0x810d011L'
p2275
sg27
Nsba(ibclass
BInstr
p2276
(dp2277
g2
Nsg17
S'mov     [eax+4], edx'
p2278
sg19
S'895004'
p2279
sg21
Vmov dword ptr [eax + 4], edx
p2280
sg5
L135319572L
sg6
Nsg23
S'mov'
p2281
sg25
S'0x810d014L'
p2282
sg27
Nsbasg77
(lp2283
Vmov eax, mem
p2284
aVmov edx, mem
p2285
aVmov mem, edx
p2286
asg85
Nsg5
S'0x810d00eL'
p2287
sg87
(lp2288
S'0x810d003L'
p2289
aS'0x810d008L'
p2290
asg6
Nsg89
(lp2291
S'0x810d017L'
p2292
asg93
Nsg94
Nsg95
S'9eccc8b14ee1489d7c3de99648417ffe'
p2293
sg97
S'f189e5330cbced4d0a471366297e8b29'
p2294
sg99
(lp2295
g2267
ag2274
ag2281
asg101
Nsba(ibclass
BBasicBlock
p2296
(dp2297
g12
Nsg13
(lp2298
(ibclass
BInstr
p2299
(dp2300
g2
Nsg17
S'mov     eax, [ebp+ret]'
p2301
sg19
S'8b45c4'
p2302
sg21
Vmov eax, dword ptr [ebp - 0x3c]
p2303
sg5
L135319575L
sg6
Nsg23
S'mov'
p2304
sg25
S'0x810d017L'
p2305
sg27
Nsba(ibclass
BInstr
p2306
(dp2307
g2
Nsg17
S'mov     edx, [ebp+neg]'
p2308
sg19
S'8b55cc'
p2309
sg21
Vmov edx, dword ptr [ebp - 0x34]
p2310
sg5
L135319578L
sg6
Nsg23
S'mov'
p2311
sg25
S'0x810d01aL'
p2312
sg27
Nsba(ibclass
BInstr
p2313
(dp2314
g2
Nsg17
S'mov     [eax+0Ch], edx'
p2315
sg19
S'89500c'
p2316
sg21
Vmov dword ptr [eax + 0xc], edx
p2317
sg5
L135319581L
sg6
Nsg23
S'mov'
p2318
sg25
S'0x810d01dL'
p2319
sg27
Nsba(ibclass
BInstr
p2320
(dp2321
g2
Nsg17
S'mov     eax, [ebp+bn]'
p2322
sg19
S'8b4508'
p2323
sg21
Vmov eax, dword ptr [ebp + 8]
p2324
sg5
L135319584L
sg6
Nsg23
S'mov'
p2325
sg25
S'0x810d020L'
p2326
sg27
Nsba(ibclass
BInstr
p2327
(dp2328
g2
Nsg17
S'mov     edx, [ebp+ret]'
p2329
sg19
S'8b55c4'
p2330
sg21
Vmov edx, dword ptr [ebp - 0x3c]
p2331
sg5
L135319587L
sg6
Nsg23
S'mov'
p2332
sg25
S'0x810d023L'
p2333
sg27
Nsba(ibclass
BInstr
p2334
(dp2335
g2
Nsg17
S'mov     [eax], edx'
p2336
sg19
S'8910'
p2337
sg21
Vmov dword ptr [eax], edx
p2338
sg5
L135319590L
sg6
Nsg23
S'mov'
p2339
sg25
S'0x810d026L'
p2340
sg27
Nsba(ibclass
BInstr
p2341
(dp2342
g2
Nsg17
S'mov     eax, [ebp+ret]'
p2343
sg19
S'8b45c4'
p2344
sg21
Vmov eax, dword ptr [ebp - 0x3c]
p2345
sg5
L135319592L
sg6
Nsg23
S'mov'
p2346
sg25
S'0x810d028L'
p2347
sg27
Nsba(ibclass
BInstr
p2348
(dp2349
g2
Nsg17
S'mov     [ebp+_bnum2], eax'
p2350
sg19
S'8945f4'
p2351
sg21
Vmov dword ptr [ebp - 0xc], eax
p2352
sg5
L135319595L
sg6
Nsg23
S'mov'
p2353
sg25
S'0x810d02bL'
p2354
sg27
Nsba(ibclass
BInstr
p2355
(dp2356
g2
Nsg17
S'cmp     [ebp+_bnum2], 0'
p2357
sg19
S'837df400'
p2358
sg21
Vcmp dword ptr [ebp - 0xc], 0
p2359
sg5
L135319598L
sg6
Nsg23
S'cmp'
p2360
sg25
S'0x810d02eL'
p2361
sg27
Nsba(ibclass
BInstr
p2362
(dp2363
g2
Nsg17
S'jz      short loc_810D07D'
p2364
sg19
S'7449'
p2365
sg21
Vje 0x4b
p2366
sg5
L135319602L
sg6
Nsg23
S'jz'
p2367
sg25
S'0x810d032L'
p2368
sg27
Nsbasg77
(lp2369
Vmov eax, mem
p2370
aVmov edx, mem
p2371
aVmov mem, edx
p2372
aVmov eax, mem
p2373
aVmov edx, mem
p2374
aVmov mem, edx
p2375
aVmov eax, mem
p2376
aVmov mem, eax
p2377
aVcmp mem, 0
p2378
aVje address
p2379
asg85
Nsg5
S'0x810d017L'
p2380
sg87
(lp2381
S'0x810cfc4L'
p2382
aS'0x810d00eL'
p2383
asg6
Nsg89
(lp2384
S'0x810d034L'
p2385
aS'0x810d07dL'
p2386
asg93
Nsg94
Nsg95
S'1598a92f611389f3f8822b7f62d7b681'
p2387
sg97
S'26f595d3ec460002165e5e04f3ee99a2'
p2388
sg99
(lp2389
g2304
ag2311
ag2318
ag2325
ag2332
ag2339
ag2346
ag2353
ag2360
ag2367
asg101
Nsba(ibclass
BBasicBlock
p2390
(dp2391
g12
Nsg13
(lp2392
(ibclass
BInstr
p2393
(dp2394
g2
Nsg17
S'mov     eax, [ebp+_bnum2]'
p2395
sg19
S'8b45f4'
p2396
sg21
Vmov eax, dword ptr [ebp - 0xc]
p2397
sg5
L135319604L
sg6
Nsg23
S'mov'
p2398
sg25
S'0x810d034L'
p2399
sg27
Nsba(ibclass
BInstr
p2400
(dp2401
g2
Nsg17
S'mov     eax, [eax+4]'
p2402
sg19
S'8b4004'
p2403
sg21
Vmov eax, dword ptr [eax + 4]
p2404
sg5
L135319607L
sg6
Nsg23
S'mov'
p2405
sg25
S'0x810d037L'
p2406
sg27
Nsba(ibclass
BInstr
p2407
(dp2408
g2
Nsg17
S'test    eax, eax'
p2409
sg19
S'85c0'
p2410
sg21
Vtest eax, eax
p2411
sg5
L135319610L
sg6
Nsg23
S'test'
p2412
sg25
S'0x810d03aL'
p2413
sg27
Nsba(ibclass
BInstr
p2414
(dp2415
g2
Nsg17
S'jz      short loc_810D07D'
p2416
sg19
S'743f'
p2417
sg21
Vje 0x41
p2418
sg5
L135319612L
sg6
Nsg23
S'jz'
p2419
sg25
S'0x810d03cL'
p2420
sg27
Nsbasg77
(lp2421
Vmov eax, mem
p2422
aVmov eax, mem
p2423
ag2411
aVje address
p2424
asg85
Nsg5
S'0x810d034L'
p2425
sg87
(lp2426
S'0x810d017L'
p2427
asg6
Nsg89
(lp2428
S'0x810d03eL'
p2429
aS'0x810d07dL'
p2430
asg93
Nsg94
Nsg95
S'ea5d08c7dcc07640d42787f826218f11'
p2431
sg97
S'103b924e2a82731ce51d187b2e41af3a'
p2432
sg99
(lp2433
g2398
ag2405
ag2412
ag2419
asg101
Nsba(ibclass
BBasicBlock
p2434
(dp2435
g12
Nsg13
(lp2436
(ibclass
BInstr
p2437
(dp2438
g2
Nsg17
S'mov     eax, [ebp+_bnum2]'
p2439
sg19
S'8b45f4'
p2440
sg21
Vmov eax, dword ptr [ebp - 0xc]
p2441
sg5
L135319614L
sg6
Nsg23
S'mov'
p2442
sg25
S'0x810d03eL'
p2443
sg27
Nsba(ibclass
BInstr
p2444
(dp2445
g2
Nsg17
S'mov     edx, [eax]'
p2446
sg19
S'8b10'
p2447
sg21
Vmov edx, dword ptr [eax]
p2448
sg5
L135319617L
sg6
Nsg23
S'mov'
p2449
sg25
S'0x810d041L'
p2450
sg27
Nsba(ibclass
BInstr
p2451
(dp2452
g2
Nsg17
S'mov     eax, [ebp+_bnum2]'
p2453
sg19
S'8b45f4'
p2454
sg21
Vmov eax, dword ptr [ebp - 0xc]
p2455
sg5
L135319619L
sg6
Nsg23
S'mov'
p2456
sg25
S'0x810d043L'
p2457
sg27
Nsba(ibclass
BInstr
p2458
(dp2459
g2
Nsg17
S'mov     eax, [eax+4]'
p2460
sg19
S'8b4004'
p2461
sg21
Vmov eax, dword ptr [eax + 4]
p2462
sg5
L135319622L
sg6
Nsg23
S'mov'
p2463
sg25
S'0x810d046L'
p2464
sg27
Nsba(ibclass
BInstr
p2465
(dp2466
g2
Nsg17
S'add     eax, 3FFFFFFFh'
p2467
sg19
S'05ffffff3f'
p2468
sg21
Vadd eax, 0x3fffffff
p2469
sg5
L135319625L
sg6
Nsg23
S'add'
p2470
sg25
S'0x810d049L'
p2471
sg27
Nsba(ibclass
BInstr
p2472
(dp2473
g2
Nsg17
S'shl     eax, 2'
p2474
sg19
S'c1e002'
p2475
sg21
Vshl eax, 2
p2476
sg5
L135319630L
sg6
Nsg23
S'shl'
p2477
sg25
S'0x810d04eL'
p2478
sg27
Nsba(ibclass
BInstr
p2479
(dp2480
g2
Nsg17
S'add     eax, edx'
p2481
sg19
S'01d0'
p2482
sg21
Vadd eax, edx
p2483
sg5
L135319633L
sg6
Nsg23
S'add'
p2484
sg25
S'0x810d051L'
p2485
sg27
Nsba(ibclass
BInstr
p2486
(dp2487
g2
Nsg17
S'mov     eax, [eax]'
p2488
sg19
S'8b00'
p2489
sg21
Vmov eax, dword ptr [eax]
p2490
sg5
L135319635L
sg6
Nsg23
S'mov'
p2491
sg25
S'0x810d053L'
p2492
sg27
Nsba(ibclass
BInstr
p2493
(dp2494
g2
Nsg17
S'test    eax, eax'
p2495
sg19
S'85c0'
p2496
sg21
Vtest eax, eax
p2497
sg5
L135319637L
sg6
Nsg23
S'test'
p2498
sg25
S'0x810d055L'
p2499
sg27
Nsba(ibclass
BInstr
p2500
(dp2501
g2
Nsg17
S'jnz     short loc_810D07D'
p2502
sg19
S'7524'
p2503
sg21
Vjne 0x26
p2504
sg5
L135319639L
sg6
Nsg23
S'jnz'
p2505
sg25
S'0x810d057L'
p2506
sg27
Nsbasg77
(lp2507
Vmov eax, mem
p2508
aVmov edx, mem
p2509
aVmov eax, mem
p2510
aVmov eax, mem
p2511
aVadd eax, address
p2512
ag2476
ag2483
aVmov eax, mem
p2513
ag2497
aVjne address
p2514
asg85
Nsg5
S'0x810d03eL'
p2515
sg87
(lp2516
S'0x810d034L'
p2517
asg6
Nsg89
(lp2518
S'0x810d059L'
p2519
aS'0x810d07dL'
p2520
asg93
Nsg94
Nsg95
S'53bf924652fd4998b7fb4c1482533119'
p2521
sg97
S'dfb600247effa56ac129afb77a4ef659'
p2522
sg99
(lp2523
g2442
ag2449
ag2456
ag2463
ag2470
ag2477
ag2484
ag2491
ag2498
ag2505
asg101
Nsba(ibclass
BBasicBlock
p2524
(dp2525
g12
Nsg13
(lp2526
(ibclass
BInstr
p2527
(dp2528
g2
Nsg17
S'mov     dword ptr [esp+0Ch], offset __PRETTY_FUNCTION___5373; "BN_hex2bn"'
p2529
sg19
S'c744240c4acf2208'
p2530
sg21
Vmov dword ptr [esp + 0xc], 0x822cf4a
p2531
sg5
L135319641L
sg6
Nsg23
S'mov'
p2532
sg25
S'0x810d059L'
p2533
sg27
Nsba(ibclass
BInstr
p2534
(dp2535
g2
Nsg17
S'mov     dword ptr [esp+8], 0F6h; line'
p2536
sg19
S'c7442408f6000000'
p2537
sg21
Vmov dword ptr [esp + 8], 0xf6
p2538
sg5
L135319649L
sg6
Nsg23
S'mov'
p2539
sg25
S'0x810d061L'
p2540
sg27
Nsba(ibclass
BInstr
p2541
(dp2542
g2
Nsg17
S'mov     dword ptr [esp+4], offset aBn_print_c; "bn_print.c"'
p2543
sg19
S'c7442404f1ce2208'
p2544
sg21
Vmov dword ptr [esp + 4], 0x822cef1
p2545
sg5
L135319657L
sg6
Nsg23
S'mov'
p2546
sg25
S'0x810d069L'
p2547
sg27
Nsba(ibclass
BInstr
p2548
(dp2549
g2
Nsg17
S'mov     dword ptr [esp], offset a_bnum2Top0_b_4; "(_bnum2->top == 0) || (_bnum2->d[_bnum2"...'
p2550
sg19
S'c7042404cf2208'
p2551
sg21
Vmov dword ptr [esp], 0x822cf04
p2552
sg5
L135319665L
sg6
Nsg23
S'mov'
p2553
sg25
S'0x810d071L'
p2554
sg27
Nsba(ibclass
BInstr
p2555
(dp2556
g2
Nsg17
S'call    ___assert_fail'
p2557
sg19
S'e8e3cbf3ff'
p2558
sg21
Vcall 0xfff3cbe8
p2559
sg5
L135319672L
sg6
Nsg23
S'call'
p2560
sg25
S'0x810d078L'
p2561
sg27
Nsbasg77
(lp2562
Vmov mem, address
p2563
aVmov mem, address
p2564
aVmov mem, address
p2565
aVmov mem, address
p2566
aVcall address
p2567
asg85
Nsg5
S'0x810d059L'
p2568
sg87
(lp2569
S'0x810d03eL'
p2570
asg6
Nsg89
(lp2571
sg93
Nsg94
Nsg95
S'479cda37c3510ded9234029e3a10bd8d'
p2572
sg97
S'f0423400551018469d0b7333626c5afe'
p2573
sg99
(lp2574
g2532
ag2539
ag2546
ag2553
ag2560
asg101
Nsba(ibclass
BBasicBlock
p2575
(dp2576
g12
Nsg13
(lp2577
(ibclass
BInstr
p2578
(dp2579
g2
Nsg17
S'mov     eax, [ebp+num]'
p2580
sg19
S'8b45ec'
p2581
sg21
Vmov eax, dword ptr [ebp - 0x14]
p2582
sg5
L135319677L
sg6
Nsg23
S'mov'
p2583
sg25
S'0x810d07dL'
p2584
sg27
Nsba(ibclass
BInstr
p2585
(dp2586
g2
Nsg17
S'jmp     short locret_810D09B'
p2587
sg19
S'eb19'
p2588
sg21
Vjmp 0x1b
p2589
sg5
L135319680L
sg6
Nsg23
S'jmp'
p2590
sg25
S'0x810d080L'
p2591
sg27
Nsbasg77
(lp2592
Vmov eax, mem
p2593
aVjmp address
p2594
asg85
Nsg5
S'0x810d07dL'
p2595
sg87
(lp2596
S'0x810d017L'
p2597
aS'0x810d034L'
p2598
aS'0x810d03eL'
p2599
asg6
Nsg89
(lp2600
S'0x810d09bL'
p2601
asg93
Nsg94
Nsg95
S'8b9a0d40e062be2b9b2d9885108fb196'
p2602
sg97
S'5a5b261ba52a671a369af6372509eb2f'
p2603
sg99
(lp2604
g2583
ag2590
asg101
Nsba(ibclass
BBasicBlock
p2605
(dp2606
g12
Nsg13
(lp2607
(ibclass
BInstr
p2608
(dp2609
g2
Nsg17
S'mov     eax, [ebp+bn]'
p2610
sg19
S'8b4508'
p2611
sg21
Vmov eax, dword ptr [ebp + 8]
p2612
sg5
L135319682L
sg6
Nsg23
S'mov'
p2613
sg25
S'0x810d082L'
p2614
sg27
Nsba(ibclass
BInstr
p2615
(dp2616
g2
Nsg17
S'mov     eax, [eax]'
p2617
sg19
S'8b00'
p2618
sg21
Vmov eax, dword ptr [eax]
p2619
sg5
L135319685L
sg6
Nsg23
S'mov'
p2620
sg25
S'0x810d085L'
p2621
sg27
Nsba(ibclass
BInstr
p2622
(dp2623
g2
Nsg17
S'test    eax, eax'
p2624
sg19
S'85c0'
p2625
sg21
Vtest eax, eax
p2626
sg5
L135319687L
sg6
Nsg23
S'test'
p2627
sg25
S'0x810d087L'
p2628
sg27
Nsba(ibclass
BInstr
p2629
(dp2630
g2
Nsg17
S'jnz     short loc_810D096'
p2631
sg19
S'750b'
p2632
sg21
Vjne 0xd
p2633
sg5
L135319689L
sg6
Nsg23
S'jnz'
p2634
sg25
S'0x810d089L'
p2635
sg27
Nsbasg77
(lp2636
Vmov eax, mem
p2637
aVmov eax, mem
p2638
ag2626
aVjne address
p2639
asg85
Nsg5
S'0x810d082L'
p2640
sg87
(lp2641
S'0x810ce22L'
p2642
aS'0x810cee2L'
p2643
asg6
Nsg89
(lp2644
S'0x810d08bL'
p2645
aS'0x810d096L'
p2646
asg93
Nsg94
Nsg95
S'c659dbb3567582fe193bedd2c7eccb80'
p2647
sg97
S'bf49e6fb415bfa3724765cd6082e6314'
p2648
sg99
(lp2649
g2613
ag2620
ag2627
ag2634
asg101
Nsba(ibclass
BBasicBlock
p2650
(dp2651
g12
Nsg13
(lp2652
(ibclass
BInstr
p2653
(dp2654
g2
Nsg17
S'mov     eax, [ebp+ret]'
p2655
sg19
S'8b45c4'
p2656
sg21
Vmov eax, dword ptr [ebp - 0x3c]
p2657
sg5
L135319691L
sg6
Nsg23
S'mov'
p2658
sg25
S'0x810d08bL'
p2659
sg27
Nsba(ibclass
BInstr
p2660
(dp2661
g2
Nsg17
S'mov     [esp], eax      ; a'
p2662
sg19
S'890424'
p2663
sg21
Vmov dword ptr [esp], eax
p2664
sg5
L135319694L
sg6
Nsg23
S'mov'
p2665
sg25
S'0x810d08eL'
p2666
sg27
Nsba(ibclass
BInstr
p2667
(dp2668
g2
Nsg17
S'call    BN_free'
p2669
sg19
S'e8aca0ffff'
p2670
sg21
Vcall 0xffffa0b1
p2671
sg5
L135319697L
sg6
Nsg23
S'call'
p2672
sg25
S'0x810d091L'
p2673
sg27
Nsbasg77
(lp2674
Vmov eax, mem
p2675
aVmov mem, eax
p2676
aVcall address
p2677
asg85
Nsg5
S'0x810d08bL'
p2678
sg87
(lp2679
S'0x810d082L'
p2680
asg6
Nsg89
(lp2681
S'0x810d096L'
p2682
asg93
Nsg94
Nsg95
S'0bf1a79a6a1155c5085c1c85d6d83d05'
p2683
sg97
S'5af7f5bfd15310706e43fa164fed7a71'
p2684
sg99
(lp2685
g2658
ag2665
ag2672
asg101
Nsba(ibclass
BBasicBlock
p2686
(dp2687
g12
Nsg13
(lp2688
(ibclass
BInstr
p2689
(dp2690
g2
Nsg17
S'mov     eax, 0'
p2691
sg19
S'b800000000'
p2692
sg21
Vmov eax, 0
p2693
sg5
L135319702L
sg6
Nsg23
S'mov'
p2694
sg25
S'0x810d096L'
p2695
sg27
Nsbasg77
(lp2696
g2693
asg85
Nsg5
S'0x810d096L'
p2697
sg87
(lp2698
S'0x810d082L'
p2699
aS'0x810d08bL'
p2700
asg6
Nsg89
(lp2701
S'0x810d09bL'
p2702
asg93
Nsg94
Nsg95
S'96a4a0e6e9ac88756a0fcba989d0a844'
p2703
sg97
S'4cfc99738161f190e0def2f4916ada38'
p2704
sg99
(lp2705
g2694
asg101
Nsba(ibclass
BBasicBlock
p2706
(dp2707
g12
Nsg13
(lp2708
(ibclass
BInstr
p2709
(dp2710
g2
Nsg17
S'leave'
p2711
sg19
S'c9'
p2712
sg21
Vleave 
p2713
sg5
L135319707L
sg6
Nsg23
S'leave'
p2714
sg25
S'0x810d09bL'
p2715
sg27
Nsba(ibclass
BInstr
p2716
(dp2717
g2
Nsg17
S'retn'
p2718
sg19
S'c3'
p2719
sg21
Vret 
p2720
sg5
L135319708L
sg6
Nsg23
S'retn'
p2721
sg25
S'0x810d09cL'
p2722
sg27
Nsbasg77
(lp2723
Vleave
p2724
aVret
p2725
asg85
Nsg5
S'0x810d09bL'
p2726
sg87
(lp2727
S'0x810cdbcL'
p2728
aS'0x810ce38L'
p2729
aS'0x810ce57L'
p2730
aS'0x810d07dL'
p2731
aS'0x810d096L'
p2732
asg6
Nsg89
(lp2733
sg93
Nsg94
Nsg95
S'08c78f73a6f87c85da88b2982f54ce2a'
p2734
sg97
S'393fee3c9fb1d26424d4b7704918e387'
p2735
sg99
(lp2736
g2714
ag2721
asg101
Nsbasb.