(ibclass
BFunc
p0
(dp1
S'hash'
p2
NsS'name'
p3
S'd2i_ECPrivateKey'
p4
sS'start_address'
p5
L135372565L
sS'flag'
p6
NsS'program'
p7
NsS'bbs'
p8
(lp9
(ibclass
BBasicBlock
p10
(dp11
S'function'
p12
NsS'binstrs'
p13
(lp14
(ibclass
BInstr
p15
(dp16
g2
NsS'disasm'
p17
S'push    ebp'
p18
sS'bytes'
p19
S'55'
p20
sS'disasm_striped'
p21
Vpush ebp
p22
sg5
L135372565L
sg6
NsS'mnem'
p23
S'push'
p24
sS'address'
p25
S'0x8119f15L'
p26
sS'basicblock'
p27
Nsba(ibclass
BInstr
p28
(dp29
g2
Nsg17
S'mov     ebp, esp'
p30
sg19
S'89e5'
p31
sg21
Vmov ebp, esp
p32
sg5
L135372566L
sg6
Nsg23
S'mov'
p33
sg25
S'0x8119f16L'
p34
sg27
Nsba(ibclass
BInstr
p35
(dp36
g2
Nsg17
S'sub     esp, 48h'
p37
sg19
S'83ec48'
p38
sg21
Vsub esp, 0x48
p39
sg5
L135372568L
sg6
Nsg23
S'sub'
p40
sg25
S'0x8119f18L'
p41
sg27
Nsba(ibclass
BInstr
p42
(dp43
g2
Nsg17
S'mov     [ebp+ok], 0'
p44
sg19
S'c745e400000000'
p45
sg21
Vmov dword ptr [ebp - 0x1c], 0
p46
sg5
L135372571L
sg6
Nsg23
S'mov'
p47
sg25
S'0x8119f1bL'
p48
sg27
Nsba(ibclass
BInstr
p49
(dp50
g2
Nsg17
S'mov     [ebp+ret], 0'
p51
sg19
S'c745e800000000'
p52
sg21
Vmov dword ptr [ebp - 0x18], 0
p53
sg5
L135372578L
sg6
Nsg23
S'mov'
p54
sg25
S'0x8119f22L'
p55
sg27
Nsba(ibclass
BInstr
p56
(dp57
g2
Nsg17
S'mov     [ebp+priv_key], 0'
p58
sg19
S'c745ec00000000'
p59
sg21
Vmov dword ptr [ebp - 0x14], 0
p60
sg5
L135372585L
sg6
Nsg23
S'mov'
p61
sg25
S'0x8119f29L'
p62
sg27
Nsba(ibclass
BInstr
p63
(dp64
g2
Nsg17
S'mov     eax, [ebp+in]'
p65
sg19
S'8b450c'
p66
sg21
Vmov eax, dword ptr [ebp + 0xc]
p67
sg5
L135372592L
sg6
Nsg23
S'mov'
p68
sg25
S'0x8119f30L'
p69
sg27
Nsba(ibclass
BInstr
p70
(dp71
g2
Nsg17
S'mov     eax, [eax]'
p72
sg19
S'8b00'
p73
sg21
Vmov eax, dword ptr [eax]
p74
sg5
L135372595L
sg6
Nsg23
S'mov'
p75
sg25
S'0x8119f33L'
p76
sg27
Nsba(ibclass
BInstr
p77
(dp78
g2
Nsg17
S'mov     [ebp+p], eax'
p79
sg19
S'8945e0'
p80
sg21
Vmov dword ptr [ebp - 0x20], eax
p81
sg5
L135372597L
sg6
Nsg23
S'mov'
p82
sg25
S'0x8119f35L'
p83
sg27
Nsba(ibclass
BInstr
p84
(dp85
g2
Nsg17
S'mov     eax, [ebp+len]'
p86
sg19
S'8b4510'
p87
sg21
Vmov eax, dword ptr [ebp + 0x10]
p88
sg5
L135372600L
sg6
Nsg23
S'mov'
p89
sg25
S'0x8119f38L'
p90
sg27
Nsba(ibclass
BInstr
p91
(dp92
g2
Nsg17
S'mov     [esp+8], eax    ; len'
p93
sg19
S'89442408'
p94
sg21
Vmov dword ptr [esp + 8], eax
p95
sg5
L135372603L
sg6
Nsg23
S'mov'
p96
sg25
S'0x8119f3bL'
p97
sg27
Nsba(ibclass
BInstr
p98
(dp99
g2
Nsg17
S'lea     eax, [ebp+p]'
p100
sg19
S'8d45e0'
p101
sg21
Vlea eax, [ebp - 0x20]
p102
sg5
L135372607L
sg6
Nsg23
S'lea'
p103
sg25
S'0x8119f3fL'
p104
sg27
Nsba(ibclass
BInstr
p105
(dp106
g2
Nsg17
S'mov     [esp+4], eax    ; in'
p107
sg19
S'89442404'
p108
sg21
Vmov dword ptr [esp + 4], eax
p109
sg5
L135372610L
sg6
Nsg23
S'mov'
p110
sg25
S'0x8119f42L'
p111
sg27
Nsba(ibclass
BInstr
p112
(dp113
g2
Nsg17
S'mov     dword ptr [esp], 0; a'
p114
sg19
S'c7042400000000'
p115
sg21
Vmov dword ptr [esp], 0
p116
sg5
L135372614L
sg6
Nsg23
S'mov'
p117
sg25
S'0x8119f46L'
p118
sg27
Nsba(ibclass
BInstr
p119
(dp120
g2
Nsg17
S'call    d2i_EC_PRIVATEKEY'
p121
sg19
S'e896e1ffff'
p122
sg21
Vcall 0xffffe19b
p123
sg5
L135372621L
sg6
Nsg23
S'call'
p124
sg25
S'0x8119f4dL'
p125
sg27
Nsba(ibclass
BInstr
p126
(dp127
g2
Nsg17
S'mov     [ebp+priv_key], eax'
p128
sg19
S'8945ec'
p129
sg21
Vmov dword ptr [ebp - 0x14], eax
p130
sg5
L135372626L
sg6
Nsg23
S'mov'
p131
sg25
S'0x8119f52L'
p132
sg27
Nsba(ibclass
BInstr
p133
(dp134
g2
Nsg17
S'cmp     [ebp+priv_key], 0'
p135
sg19
S'837dec00'
p136
sg21
Vcmp dword ptr [ebp - 0x14], 0
p137
sg5
L135372629L
sg6
Nsg23
S'cmp'
p138
sg25
S'0x8119f55L'
p139
sg27
Nsba(ibclass
BInstr
p140
(dp141
g2
Nsg17
S'jnz     short loc_8119F91'
p142
sg19
S'7536'
p143
sg21
Vjne 0x38
p144
sg5
L135372633L
sg6
Nsg23
S'jnz'
p145
sg25
S'0x8119f59L'
p146
sg27
NsbasS'disasm_list'
p147
(lp148
g22
ag32
aVsub esp, address
p149
aVmov mem, 0
p150
aVmov mem, 0
p151
aVmov mem, 0
p152
aVmov eax, mem
p153
aVmov eax, mem
p154
aVmov mem, eax
p155
aVmov eax, mem
p156
aVmov mem, eax
p157
aVlea eax, mem
p158
aVmov mem, eax
p159
aVmov mem, 0
p160
aVcall address
p161
aVmov mem, eax
p162
aVcmp mem, 0
p163
aVjne address
p164
asS'end_address'
p165
Nsg5
S'0x8119f15L'
p166
sS'preds'
p167
(lp168
sg6
NsS'succs'
p169
(lp170
S'0x8119f5bL'
p171
aS'0x8119f91L'
p172
asS'hash_v3'
p173
NsS'flag_v2'
p174
NsS'hash_v1'
p175
S'490b0aaac95f836f79b8c0368d4bc43f'
p176
sS'hash_v2'
p177
S'3fd08aea07ae84ee79103e67ab2fa6e7'
p178
sS'mnen_list'
p179
(lp180
g24
ag33
ag40
ag47
ag54
ag61
ag68
ag75
ag82
ag89
ag96
ag103
ag110
ag117
ag124
ag131
ag138
ag145
asS'neighbour_disasm_list'
p181
Nsba(ibclass
BBasicBlock
p182
(dp183
g12
Nsg13
(lp184
(ibclass
BInstr
p185
(dp186
g2
Nsg17
S'mov     dword ptr [esp+10h], 400h; line'
p187
sg19
S'c744241000040000'
p188
sg21
Vmov dword ptr [esp + 0x10], 0x400
p189
sg5
L135372635L
sg6
Nsg23
S'mov'
p190
sg25
S'0x8119f5bL'
p191
sg27
Nsba(ibclass
BInstr
p192
(dp193
g2
Nsg17
S'mov     dword ptr [esp+0Ch], offset aEc_asn1_c; "ec_asn1.c"'
p194
sg19
S'c744240c20222308'
p195
sg21
Vmov dword ptr [esp + 0xc], 0x8232220
p196
sg5
L135372643L
sg6
Nsg23
S'mov'
p197
sg25
S'0x8119f63L'
p198
sg27
Nsba(ibclass
BInstr
p199
(dp200
g2
Nsg17
S'mov     dword ptr [esp+8], 10h; reason'
p201
sg19
S'c744240810000000'
p202
sg21
Vmov dword ptr [esp + 8], 0x10
p203
sg5
L135372651L
sg6
Nsg23
S'mov'
p204
sg25
S'0x8119f6bL'
p205
sg27
Nsba(ibclass
BInstr
p206
(dp207
g2
Nsg17
S'mov     dword ptr [esp+4], 92h; func'
p208
sg19
S'c744240492000000'
p209
sg21
Vmov dword ptr [esp + 4], 0x92
p210
sg5
L135372659L
sg6
Nsg23
S'mov'
p211
sg25
S'0x8119f73L'
p212
sg27
Nsba(ibclass
BInstr
p213
(dp214
g2
Nsg17
S'mov     dword ptr [esp], 10h; lib'
p215
sg19
S'c7042410000000'
p216
sg21
Vmov dword ptr [esp], 0x10
p217
sg5
L135372667L
sg6
Nsg23
S'mov'
p218
sg25
S'0x8119f7bL'
p219
sg27
Nsba(ibclass
BInstr
p220
(dp221
g2
Nsg17
S'call    ERR_put_error'
p222
sg19
S'e812ea0100'
p223
sg21
Vcall 0x1ea17
p224
sg5
L135372674L
sg6
Nsg23
S'call'
p225
sg25
S'0x8119f82L'
p226
sg27
Nsba(ibclass
BInstr
p227
(dp228
g2
Nsg17
S'mov     eax, 0'
p229
sg19
S'b800000000'
p230
sg21
Vmov eax, 0
p231
sg5
L135372679L
sg6
Nsg23
S'mov'
p232
sg25
S'0x8119f87L'
p233
sg27
Nsba(ibclass
BInstr
p234
(dp235
g2
Nsg17
S'jmp     locret_811A320'
p236
sg19
S'e98f030000'
p237
sg21
Vjmp 0x394
p238
sg5
L135372684L
sg6
Nsg23
S'jmp'
p239
sg25
S'0x8119f8cL'
p240
sg27
Nsbasg147
(lp241
Vmov mem, address
p242
aVmov mem, address
p243
aVmov mem, address
p244
aVmov mem, address
p245
aVmov mem, address
p246
aVcall address
p247
ag231
aVjmp address
p248
asg165
Nsg5
S'0x8119f5bL'
p249
sg167
(lp250
S'0x8119f15L'
p251
asg6
Nsg169
(lp252
S'0x811a320L'
p253
asg173
Nsg174
Nsg175
S'd29cf940acec75fa9c4bd8a1e6665750'
p254
sg177
S'd96abadfc4f9ccdbf665e0cc7d4ee561'
p255
sg179
(lp256
g190
ag197
ag204
ag211
ag218
ag225
ag232
ag239
asg181
Nsba(ibclass
BBasicBlock
p257
(dp258
g12
Nsg13
(lp259
(ibclass
BInstr
p260
(dp261
g2
Nsg17
S'cmp     [ebp+a], 0'
p262
sg19
S'837d0800'
p263
sg21
Vcmp dword ptr [ebp + 8], 0
p264
sg5
L135372689L
sg6
Nsg23
S'cmp'
p265
sg25
S'0x8119f91L'
p266
sg27
Nsba(ibclass
BInstr
p267
(dp268
g2
Nsg17
S'jz      short loc_8119FA0'
p269
sg19
S'7409'
p270
sg21
Vje 0xb
p271
sg5
L135372693L
sg6
Nsg23
S'jz'
p272
sg25
S'0x8119f95L'
p273
sg27
Nsbasg147
(lp274
Vcmp mem, 0
p275
aVje address
p276
asg165
Nsg5
S'0x8119f91L'
p277
sg167
(lp278
S'0x8119f15L'
p279
asg6
Nsg169
(lp280
S'0x8119f97L'
p281
aS'0x8119fa0L'
p282
asg173
Nsg174
Nsg175
S'613dbc2b0cb9d6264d802b24d709daea'
p283
sg177
S'bdc7ec577d63971d81398660f533a2e0'
p284
sg179
(lp285
g265
ag272
asg181
Nsba(ibclass
BBasicBlock
p286
(dp287
g12
Nsg13
(lp288
(ibclass
BInstr
p289
(dp290
g2
Nsg17
S'mov     eax, [ebp+a]'
p291
sg19
S'8b4508'
p292
sg21
Vmov eax, dword ptr [ebp + 8]
p293
sg5
L135372695L
sg6
Nsg23
S'mov'
p294
sg25
S'0x8119f97L'
p295
sg27
Nsba(ibclass
BInstr
p296
(dp297
g2
Nsg17
S'mov     eax, [eax]'
p298
sg19
S'8b00'
p299
sg21
Vmov eax, dword ptr [eax]
p300
sg5
L135372698L
sg6
Nsg23
S'mov'
p301
sg25
S'0x8119f9aL'
p302
sg27
Nsba(ibclass
BInstr
p303
(dp304
g2
Nsg17
S'test    eax, eax'
p305
sg19
S'85c0'
p306
sg21
Vtest eax, eax
p307
sg5
L135372700L
sg6
Nsg23
S'test'
p308
sg25
S'0x8119f9cL'
p309
sg27
Nsba(ibclass
BInstr
p310
(dp311
g2
Nsg17
S'jnz     short loc_8119FE1'
p312
sg19
S'7541'
p313
sg21
Vjne 0x43
p314
sg5
L135372702L
sg6
Nsg23
S'jnz'
p315
sg25
S'0x8119f9eL'
p316
sg27
Nsbasg147
(lp317
Vmov eax, mem
p318
aVmov eax, mem
p319
ag307
aVjne address
p320
asg165
Nsg5
S'0x8119f97L'
p321
sg167
(lp322
S'0x8119f91L'
p323
asg6
Nsg169
(lp324
S'0x8119fa0L'
p325
aS'0x8119fe1L'
p326
asg173
Nsg174
Nsg175
S'c659dbb3567582fe193bedd2c7eccb80'
p327
sg177
S'bf49e6fb415bfa3724765cd6082e6314'
p328
sg179
(lp329
g294
ag301
ag308
ag315
asg181
Nsba(ibclass
BBasicBlock
p330
(dp331
g12
Nsg13
(lp332
(ibclass
BInstr
p333
(dp334
g2
Nsg17
S'call    EC_KEY_new'
p335
sg19
S'e8600d0000'
p336
sg21
Vcall 0xd65
p337
sg5
L135372704L
sg6
Nsg23
S'call'
p338
sg25
S'0x8119fa0L'
p339
sg27
Nsba(ibclass
BInstr
p340
(dp341
g2
Nsg17
S'mov     [ebp+ret], eax'
p342
sg19
S'8945e8'
p343
sg21
Vmov dword ptr [ebp - 0x18], eax
p344
sg5
L135372709L
sg6
Nsg23
S'mov'
p345
sg25
S'0x8119fa5L'
p346
sg27
Nsba(ibclass
BInstr
p347
(dp348
g2
Nsg17
S'cmp     [ebp+ret], 0'
p349
sg19
S'837de800'
p350
sg21
Vcmp dword ptr [ebp - 0x18], 0
p351
sg5
L135372712L
sg6
Nsg23
S'cmp'
p352
sg25
S'0x8119fa8L'
p353
sg27
Nsba(ibclass
BInstr
p354
(dp355
g2
Nsg17
S'jnz     short loc_8119FDF'
p356
sg19
S'7531'
p357
sg21
Vjne 0x33
p358
sg5
L135372716L
sg6
Nsg23
S'jnz'
p359
sg25
S'0x8119facL'
p360
sg27
Nsbasg147
(lp361
Vcall address
p362
aVmov mem, eax
p363
aVcmp mem, 0
p364
aVjne address
p365
asg165
Nsg5
S'0x8119fa0L'
p366
sg167
(lp367
S'0x8119f91L'
p368
aS'0x8119f97L'
p369
asg6
Nsg169
(lp370
S'0x8119faeL'
p371
aS'0x8119fdfL'
p372
asg173
Nsg174
Nsg175
S'0ac2dd636b0c05eced4a94b157f88960'
p373
sg177
S'6d2fca0b552d4b9dcc26cad51e453e31'
p374
sg179
(lp375
g338
ag345
ag352
ag359
asg181
Nsba(ibclass
BBasicBlock
p376
(dp377
g12
Nsg13
(lp378
(ibclass
BInstr
p379
(dp380
g2
Nsg17
S'mov     dword ptr [esp+10h], 406h; line'
p381
sg19
S'c744241006040000'
p382
sg21
Vmov dword ptr [esp + 0x10], 0x406
p383
sg5
L135372718L
sg6
Nsg23
S'mov'
p384
sg25
S'0x8119faeL'
p385
sg27
Nsba(ibclass
BInstr
p386
(dp387
g2
Nsg17
S'mov     dword ptr [esp+0Ch], offset aEc_asn1_c; "ec_asn1.c"'
p388
sg19
S'c744240c20222308'
p389
sg21
Vmov dword ptr [esp + 0xc], 0x8232220
p390
sg5
L135372726L
sg6
Nsg23
S'mov'
p391
sg25
S'0x8119fb6L'
p392
sg27
Nsba(ibclass
BInstr
p393
(dp394
g2
Nsg17
S'mov     dword ptr [esp+8], 41h; reason'
p395
sg19
S'c744240841000000'
p396
sg21
Vmov dword ptr [esp + 8], 0x41
p397
sg5
L135372734L
sg6
Nsg23
S'mov'
p398
sg25
S'0x8119fbeL'
p399
sg27
Nsba(ibclass
BInstr
p400
(dp401
g2
Nsg17
S'mov     dword ptr [esp+4], 92h; func'
p402
sg19
S'c744240492000000'
p403
sg21
Vmov dword ptr [esp + 4], 0x92
p404
sg5
L135372742L
sg6
Nsg23
S'mov'
p405
sg25
S'0x8119fc6L'
p406
sg27
Nsba(ibclass
BInstr
p407
(dp408
g2
Nsg17
S'mov     dword ptr [esp], 10h; lib'
p409
sg19
S'c7042410000000'
p410
sg21
Vmov dword ptr [esp], 0x10
p411
sg5
L135372750L
sg6
Nsg23
S'mov'
p412
sg25
S'0x8119fceL'
p413
sg27
Nsba(ibclass
BInstr
p414
(dp415
g2
Nsg17
S'call    ERR_put_error'
p416
sg19
S'e8bfe90100'
p417
sg21
Vcall 0x1e9c4
p418
sg5
L135372757L
sg6
Nsg23
S'call'
p419
sg25
S'0x8119fd5L'
p420
sg27
Nsba(ibclass
BInstr
p421
(dp422
g2
Nsg17
S'jmp     err'
p423
sg19
S'e9ff020000'
p424
sg21
Vjmp 0x304
p425
sg5
L135372762L
sg6
Nsg23
S'jmp'
p426
sg25
S'0x8119fdaL'
p427
sg27
Nsbasg147
(lp428
Vmov mem, address
p429
aVmov mem, address
p430
aVmov mem, address
p431
aVmov mem, address
p432
aVmov mem, address
p433
aVcall address
p434
aVjmp address
p435
asg165
Nsg5
S'0x8119faeL'
p436
sg167
(lp437
S'0x8119fa0L'
p438
asg6
Nsg169
(lp439
S'0x811a2deL'
p440
asg173
Nsg174
Nsg175
S'a76a0a3b827ea6cd402bf72e182d1d25'
p441
sg177
S'5c79c7459a4742ab4e6fe5fb7b7e4c8d'
p442
sg179
(lp443
g384
ag391
ag398
ag405
ag412
ag419
ag426
asg181
Nsba(ibclass
BBasicBlock
p444
(dp445
g12
Nsg13
(lp446
(ibclass
BInstr
p447
(dp448
g2
Nsg17
S'jmp     short loc_8119FE9'
p449
sg19
S'eb08'
p450
sg21
Vjmp 0xa
p451
sg5
L135372767L
sg6
Nsg23
S'jmp'
p452
sg25
S'0x8119fdfL'
p453
sg27
Nsbasg147
(lp454
Vjmp address
p455
asg165
Nsg5
S'0x8119fdfL'
p456
sg167
(lp457
S'0x8119fa0L'
p458
asg6
Nsg169
(lp459
S'0x8119fe9L'
p460
asg173
Nsg174
Nsg175
S'0ef6cf926f2f394b0cc8e11be8022625'
p461
sg177
S'd4372e4caa7348928655251605aa7329'
p462
sg179
(lp463
g452
asg181
Nsba(ibclass
BBasicBlock
p464
(dp465
g12
Nsg13
(lp466
(ibclass
BInstr
p467
(dp468
g2
Nsg17
S'mov     eax, [ebp+a]'
p469
sg19
S'8b4508'
p470
sg21
Vmov eax, dword ptr [ebp + 8]
p471
sg5
L135372769L
sg6
Nsg23
S'mov'
p472
sg25
S'0x8119fe1L'
p473
sg27
Nsba(ibclass
BInstr
p474
(dp475
g2
Nsg17
S'mov     eax, [eax]'
p476
sg19
S'8b00'
p477
sg21
Vmov eax, dword ptr [eax]
p478
sg5
L135372772L
sg6
Nsg23
S'mov'
p479
sg25
S'0x8119fe4L'
p480
sg27
Nsba(ibclass
BInstr
p481
(dp482
g2
Nsg17
S'mov     [ebp+ret], eax'
p483
sg19
S'8945e8'
p484
sg21
Vmov dword ptr [ebp - 0x18], eax
p485
sg5
L135372774L
sg6
Nsg23
S'mov'
p486
sg25
S'0x8119fe6L'
p487
sg27
Nsbasg147
(lp488
Vmov eax, mem
p489
aVmov eax, mem
p490
aVmov mem, eax
p491
asg165
Nsg5
S'0x8119fe1L'
p492
sg167
(lp493
S'0x8119f97L'
p494
asg6
Nsg169
(lp495
S'0x8119fe9L'
p496
asg173
Nsg174
Nsg175
S'9eccc8b14ee1489d7c3de99648417ffe'
p497
sg177
S'3a2105431602096e5ee53b672fcb6ff0'
p498
sg179
(lp499
g472
ag479
ag486
asg181
Nsba(ibclass
BBasicBlock
p500
(dp501
g12
Nsg13
(lp502
(ibclass
BInstr
p503
(dp504
g2
Nsg17
S'mov     eax, [ebp+priv_key]'
p505
sg19
S'8b45ec'
p506
sg21
Vmov eax, dword ptr [ebp - 0x14]
p507
sg5
L135372777L
sg6
Nsg23
S'mov'
p508
sg25
S'0x8119fe9L'
p509
sg27
Nsba(ibclass
BInstr
p510
(dp511
g2
Nsg17
S'mov     eax, [eax+8]'
p512
sg19
S'8b4008'
p513
sg21
Vmov eax, dword ptr [eax + 8]
p514
sg5
L135372780L
sg6
Nsg23
S'mov'
p515
sg25
S'0x8119fecL'
p516
sg27
Nsba(ibclass
BInstr
p517
(dp518
g2
Nsg17
S'test    eax, eax'
p519
sg19
S'85c0'
p520
sg21
Vtest eax, eax
p521
sg5
L135372783L
sg6
Nsg23
S'test'
p522
sg25
S'0x8119fefL'
p523
sg27
Nsba(ibclass
BInstr
p524
(dp525
g2
Nsg17
S'jz      short loc_811A01F'
p526
sg19
S'742c'
p527
sg21
Vje 0x2e
p528
sg5
L135372785L
sg6
Nsg23
S'jz'
p529
sg25
S'0x8119ff1L'
p530
sg27
Nsbasg147
(lp531
Vmov eax, mem
p532
aVmov eax, mem
p533
ag521
aVje address
p534
asg165
Nsg5
S'0x8119fe9L'
p535
sg167
(lp536
S'0x8119fdfL'
p537
aS'0x8119fe1L'
p538
asg6
Nsg169
(lp539
S'0x8119ff3L'
p540
aS'0x811a01fL'
p541
asg173
Nsg174
Nsg175
S'ea5d08c7dcc07640d42787f826218f11'
p542
sg177
S'103b924e2a82731ce51d187b2e41af3a'
p543
sg179
(lp544
g508
ag515
ag522
ag529
asg181
Nsba(ibclass
BBasicBlock
p545
(dp546
g12
Nsg13
(lp547
(ibclass
BInstr
p548
(dp549
g2
Nsg17
S'mov     eax, [ebp+ret]'
p550
sg19
S'8b45e8'
p551
sg21
Vmov eax, dword ptr [ebp - 0x18]
p552
sg5
L135372787L
sg6
Nsg23
S'mov'
p553
sg25
S'0x8119ff3L'
p554
sg27
Nsba(ibclass
BInstr
p555
(dp556
g2
Nsg17
S'mov     eax, [eax+4]'
p557
sg19
S'8b4004'
p558
sg21
Vmov eax, dword ptr [eax + 4]
p559
sg5
L135372790L
sg6
Nsg23
S'mov'
p560
sg25
S'0x8119ff6L'
p561
sg27
Nsba(ibclass
BInstr
p562
(dp563
g2
Nsg17
S'test    eax, eax'
p564
sg19
S'85c0'
p565
sg21
Vtest eax, eax
p566
sg5
L135372793L
sg6
Nsg23
S'test'
p567
sg25
S'0x8119ff9L'
p568
sg27
Nsba(ibclass
BInstr
p569
(dp570
g2
Nsg17
S'jz      short loc_811A00B'
p571
sg19
S'740e'
p572
sg21
Vje 0x10
p573
sg5
L135372795L
sg6
Nsg23
S'jz'
p574
sg25
S'0x8119ffbL'
p575
sg27
Nsbasg147
(lp576
Vmov eax, mem
p577
aVmov eax, mem
p578
ag566
aVje address
p579
asg165
Nsg5
S'0x8119ff3L'
p580
sg167
(lp581
S'0x8119fe9L'
p582
asg6
Nsg169
(lp583
S'0x8119ffdL'
p584
aS'0x811a00bL'
p585
asg173
Nsg174
Nsg175
S'ea5d08c7dcc07640d42787f826218f11'
p586
sg177
S'103b924e2a82731ce51d187b2e41af3a'
p587
sg179
(lp588
g553
ag560
ag567
ag574
asg181
Nsba(ibclass
BBasicBlock
p589
(dp590
g12
Nsg13
(lp591
(ibclass
BInstr
p592
(dp593
g2
Nsg17
S'mov     eax, [ebp+ret]'
p594
sg19
S'8b45e8'
p595
sg21
Vmov eax, dword ptr [ebp - 0x18]
p596
sg5
L135372797L
sg6
Nsg23
S'mov'
p597
sg25
S'0x8119ffdL'
p598
sg27
Nsba(ibclass
BInstr
p599
(dp600
g2
Nsg17
S'mov     eax, [eax+4]'
p601
sg19
S'8b4004'
p602
sg21
Vmov eax, dword ptr [eax + 4]
p603
sg5
L135372800L
sg6
Nsg23
S'mov'
p604
sg25
S'0x811a000L'
p605
sg27
Nsba(ibclass
BInstr
p606
(dp607
g2
Nsg17
S'mov     [esp], eax      ; group'
p608
sg19
S'890424'
p609
sg21
Vmov dword ptr [esp], eax
p610
sg5
L135372803L
sg6
Nsg23
S'mov'
p611
sg25
S'0x811a003L'
p612
sg27
Nsba(ibclass
BInstr
p613
(dp614
g2
Nsg17
S'call    EC_GROUP_clear_free'
p615
sg19
S'e8df96ffff'
p616
sg21
Vcall 0xffff96e4
p617
sg5
L135372806L
sg6
Nsg23
S'call'
p618
sg25
S'0x811a006L'
p619
sg27
Nsbasg147
(lp620
Vmov eax, mem
p621
aVmov eax, mem
p622
aVmov mem, eax
p623
aVcall address
p624
asg165
Nsg5
S'0x8119ffdL'
p625
sg167
(lp626
S'0x8119ff3L'
p627
asg6
Nsg169
(lp628
S'0x811a00bL'
p629
asg173
Nsg174
Nsg175
S'e233a80004971487a8cda28e21c9f5ef'
p630
sg177
S'aa359b6218411f2f012047a2f405e78d'
p631
sg179
(lp632
g597
ag604
ag611
ag618
asg181
Nsba(ibclass
BBasicBlock
p633
(dp634
g12
Nsg13
(lp635
(ibclass
BInstr
p636
(dp637
g2
Nsg17
S'mov     eax, [ebp+priv_key]'
p638
sg19
S'8b45ec'
p639
sg21
Vmov eax, dword ptr [ebp - 0x14]
p640
sg5
L135372811L
sg6
Nsg23
S'mov'
p641
sg25
S'0x811a00bL'
p642
sg27
Nsba(ibclass
BInstr
p643
(dp644
g2
Nsg17
S'mov     eax, [eax+8]'
p645
sg19
S'8b4008'
p646
sg21
Vmov eax, dword ptr [eax + 8]
p647
sg5
L135372814L
sg6
Nsg23
S'mov'
p648
sg25
S'0x811a00eL'
p649
sg27
Nsba(ibclass
BInstr
p650
(dp651
g2
Nsg17
S'mov     [esp], eax      ; params'
p652
sg19
S'890424'
p653
sg21
Vmov dword ptr [esp], eax
p654
sg5
L135372817L
sg6
Nsg23
S'mov'
p655
sg25
S'0x811a011L'
p656
sg27
Nsba(ibclass
BInstr
p657
(dp658
g2
Nsg17
S'call    ec_asn1_pkparameters2group'
p659
sg19
S'e8a5fbffff'
p660
sg21
Vcall 0xfffffbaa
p661
sg5
L135372820L
sg6
Nsg23
S'call'
p662
sg25
S'0x811a014L'
p663
sg27
Nsba(ibclass
BInstr
p664
(dp665
g2
Nsg17
S'mov     edx, [ebp+ret]'
p666
sg19
S'8b55e8'
p667
sg21
Vmov edx, dword ptr [ebp - 0x18]
p668
sg5
L135372825L
sg6
Nsg23
S'mov'
p669
sg25
S'0x811a019L'
p670
sg27
Nsba(ibclass
BInstr
p671
(dp672
g2
Nsg17
S'mov     [edx+4], eax'
p673
sg19
S'894204'
p674
sg21
Vmov dword ptr [edx + 4], eax
p675
sg5
L135372828L
sg6
Nsg23
S'mov'
p676
sg25
S'0x811a01cL'
p677
sg27
Nsbasg147
(lp678
Vmov eax, mem
p679
aVmov eax, mem
p680
aVmov mem, eax
p681
aVcall address
p682
aVmov edx, mem
p683
aVmov mem, eax
p684
asg165
Nsg5
S'0x811a00bL'
p685
sg167
(lp686
S'0x8119ff3L'
p687
aS'0x8119ffdL'
p688
asg6
Nsg169
(lp689
S'0x811a01fL'
p690
asg173
Nsg174
Nsg175
S'21e8828e17ca22deda242f11d192d9aa'
p691
sg177
S'12699212bd0b99abfa6f061ae148e953'
p692
sg179
(lp693
g641
ag648
ag655
ag662
ag669
ag676
asg181
Nsba(ibclass
BBasicBlock
p694
(dp695
g12
Nsg13
(lp696
(ibclass
BInstr
p697
(dp698
g2
Nsg17
S'mov     eax, [ebp+ret]'
p699
sg19
S'8b45e8'
p700
sg21
Vmov eax, dword ptr [ebp - 0x18]
p701
sg5
L135372831L
sg6
Nsg23
S'mov'
p702
sg25
S'0x811a01fL'
p703
sg27
Nsba(ibclass
BInstr
p704
(dp705
g2
Nsg17
S'mov     eax, [eax+4]'
p706
sg19
S'8b4004'
p707
sg21
Vmov eax, dword ptr [eax + 4]
p708
sg5
L135372834L
sg6
Nsg23
S'mov'
p709
sg25
S'0x811a022L'
p710
sg27
Nsba(ibclass
BInstr
p711
(dp712
g2
Nsg17
S'test    eax, eax'
p713
sg19
S'85c0'
p714
sg21
Vtest eax, eax
p715
sg5
L135372837L
sg6
Nsg23
S'test'
p716
sg25
S'0x811a025L'
p717
sg27
Nsba(ibclass
BInstr
p718
(dp719
g2
Nsg17
S'jnz     short loc_811A05A'
p720
sg19
S'7531'
p721
sg21
Vjne 0x33
p722
sg5
L135372839L
sg6
Nsg23
S'jnz'
p723
sg25
S'0x811a027L'
p724
sg27
Nsbasg147
(lp725
Vmov eax, mem
p726
aVmov eax, mem
p727
ag715
aVjne address
p728
asg165
Nsg5
S'0x811a01fL'
p729
sg167
(lp730
S'0x8119fe9L'
p731
aS'0x811a00bL'
p732
asg6
Nsg169
(lp733
S'0x811a029L'
p734
aS'0x811a05aL'
p735
asg173
Nsg174
Nsg175
S'c659dbb3567582fe193bedd2c7eccb80'
p736
sg177
S'bf49e6fb415bfa3724765cd6082e6314'
p737
sg179
(lp738
g702
ag709
ag716
ag723
asg181
Nsba(ibclass
BBasicBlock
p739
(dp740
g12
Nsg13
(lp741
(ibclass
BInstr
p742
(dp743
g2
Nsg17
S'mov     dword ptr [esp+10h], 413h; line'
p744
sg19
S'c744241013040000'
p745
sg21
Vmov dword ptr [esp + 0x10], 0x413
p746
sg5
L135372841L
sg6
Nsg23
S'mov'
p747
sg25
S'0x811a029L'
p748
sg27
Nsba(ibclass
BInstr
p749
(dp750
g2
Nsg17
S'mov     dword ptr [esp+0Ch], offset aEc_asn1_c; "ec_asn1.c"'
p751
sg19
S'c744240c20222308'
p752
sg21
Vmov dword ptr [esp + 0xc], 0x8232220
p753
sg5
L135372849L
sg6
Nsg23
S'mov'
p754
sg25
S'0x811a031L'
p755
sg27
Nsba(ibclass
BInstr
p756
(dp757
g2
Nsg17
S'mov     dword ptr [esp+8], 10h; reason'
p758
sg19
S'c744240810000000'
p759
sg21
Vmov dword ptr [esp + 8], 0x10
p760
sg5
L135372857L
sg6
Nsg23
S'mov'
p761
sg25
S'0x811a039L'
p762
sg27
Nsba(ibclass
BInstr
p763
(dp764
g2
Nsg17
S'mov     dword ptr [esp+4], 92h; func'
p765
sg19
S'c744240492000000'
p766
sg21
Vmov dword ptr [esp + 4], 0x92
p767
sg5
L135372865L
sg6
Nsg23
S'mov'
p768
sg25
S'0x811a041L'
p769
sg27
Nsba(ibclass
BInstr
p770
(dp771
g2
Nsg17
S'mov     dword ptr [esp], 10h; lib'
p772
sg19
S'c7042410000000'
p773
sg21
Vmov dword ptr [esp], 0x10
p774
sg5
L135372873L
sg6
Nsg23
S'mov'
p775
sg25
S'0x811a049L'
p776
sg27
Nsba(ibclass
BInstr
p777
(dp778
g2
Nsg17
S'call    ERR_put_error'
p779
sg19
S'e844e90100'
p780
sg21
Vcall 0x1e949
p781
sg5
L135372880L
sg6
Nsg23
S'call'
p782
sg25
S'0x811a050L'
p783
sg27
Nsba(ibclass
BInstr
p784
(dp785
g2
Nsg17
S'jmp     err'
p786
sg19
S'e984020000'
p787
sg21
Vjmp 0x289
p788
sg5
L135372885L
sg6
Nsg23
S'jmp'
p789
sg25
S'0x811a055L'
p790
sg27
Nsbasg147
(lp791
Vmov mem, address
p792
aVmov mem, address
p793
aVmov mem, address
p794
aVmov mem, address
p795
aVmov mem, address
p796
aVcall address
p797
aVjmp address
p798
asg165
Nsg5
S'0x811a029L'
p799
sg167
(lp800
S'0x811a01fL'
p801
asg6
Nsg169
(lp802
S'0x811a2deL'
p803
asg173
Nsg174
Nsg175
S'a76a0a3b827ea6cd402bf72e182d1d25'
p804
sg177
S'5c79c7459a4742ab4e6fe5fb7b7e4c8d'
p805
sg179
(lp806
g747
ag754
ag761
ag768
ag775
ag782
ag789
asg181
Nsba(ibclass
BBasicBlock
p807
(dp808
g12
Nsg13
(lp809
(ibclass
BInstr
p810
(dp811
g2
Nsg17
S'mov     eax, [ebp+priv_key]'
p812
sg19
S'8b45ec'
p813
sg21
Vmov eax, dword ptr [ebp - 0x14]
p814
sg5
L135372890L
sg6
Nsg23
S'mov'
p815
sg25
S'0x811a05aL'
p816
sg27
Nsba(ibclass
BInstr
p817
(dp818
g2
Nsg17
S'mov     edx, [eax]'
p819
sg19
S'8b10'
p820
sg21
Vmov edx, dword ptr [eax]
p821
sg5
L135372893L
sg6
Nsg23
S'mov'
p822
sg25
S'0x811a05dL'
p823
sg27
Nsba(ibclass
BInstr
p824
(dp825
g2
Nsg17
S'mov     eax, [ebp+ret]'
p826
sg19
S'8b45e8'
p827
sg21
Vmov eax, dword ptr [ebp - 0x18]
p828
sg5
L135372895L
sg6
Nsg23
S'mov'
p829
sg25
S'0x811a05fL'
p830
sg27
Nsba(ibclass
BInstr
p831
(dp832
g2
Nsg17
S'mov     [eax], edx'
p833
sg19
S'8910'
p834
sg21
Vmov dword ptr [eax], edx
p835
sg5
L135372898L
sg6
Nsg23
S'mov'
p836
sg25
S'0x811a062L'
p837
sg27
Nsba(ibclass
BInstr
p838
(dp839
g2
Nsg17
S'mov     eax, [ebp+priv_key]'
p840
sg19
S'8b45ec'
p841
sg21
Vmov eax, dword ptr [ebp - 0x14]
p842
sg5
L135372900L
sg6
Nsg23
S'mov'
p843
sg25
S'0x811a064L'
p844
sg27
Nsba(ibclass
BInstr
p845
(dp846
g2
Nsg17
S'mov     eax, [eax+4]'
p847
sg19
S'8b4004'
p848
sg21
Vmov eax, dword ptr [eax + 4]
p849
sg5
L135372903L
sg6
Nsg23
S'mov'
p850
sg25
S'0x811a067L'
p851
sg27
Nsba(ibclass
BInstr
p852
(dp853
g2
Nsg17
S'test    eax, eax'
p854
sg19
S'85c0'
p855
sg21
Vtest eax, eax
p856
sg5
L135372906L
sg6
Nsg23
S'test'
p857
sg25
S'0x811a06aL'
p858
sg27
Nsba(ibclass
BInstr
p859
(dp860
g2
Nsg17
S'jz      short loc_811A0D6'
p861
sg19
S'7468'
p862
sg21
Vje 0x6a
p863
sg5
L135372908L
sg6
Nsg23
S'jz'
p864
sg25
S'0x811a06cL'
p865
sg27
Nsbasg147
(lp866
Vmov eax, mem
p867
aVmov edx, mem
p868
aVmov eax, mem
p869
aVmov mem, edx
p870
aVmov eax, mem
p871
aVmov eax, mem
p872
ag856
aVje address
p873
asg165
Nsg5
S'0x811a05aL'
p874
sg167
(lp875
S'0x811a01fL'
p876
asg6
Nsg169
(lp877
S'0x811a06eL'
p878
aS'0x811a0d6L'
p879
asg173
Nsg174
Nsg175
S'468cf80b921c7de2a98f3120b8f22e1d'
p880
sg177
S'e20f17cc37b07500d3b5efbc89df1bfe'
p881
sg179
(lp882
g815
ag822
ag829
ag836
ag843
ag850
ag857
ag864
asg181
Nsba(ibclass
BBasicBlock
p883
(dp884
g12
Nsg13
(lp885
(ibclass
BInstr
p886
(dp887
g2
Nsg17
S'mov     eax, [ebp+ret]'
p888
sg19
S'8b45e8'
p889
sg21
Vmov eax, dword ptr [ebp - 0x18]
p890
sg5
L135372910L
sg6
Nsg23
S'mov'
p891
sg25
S'0x811a06eL'
p892
sg27
Nsba(ibclass
BInstr
p893
(dp894
g2
Nsg17
S'mov     ecx, [eax+0Ch]'
p895
sg19
S'8b480c'
p896
sg21
Vmov ecx, dword ptr [eax + 0xc]
p897
sg5
L135372913L
sg6
Nsg23
S'mov'
p898
sg25
S'0x811a071L'
p899
sg27
Nsba(ibclass
BInstr
p900
(dp901
g2
Nsg17
S'mov     eax, [ebp+priv_key]'
p902
sg19
S'8b45ec'
p903
sg21
Vmov eax, dword ptr [ebp - 0x14]
p904
sg5
L135372916L
sg6
Nsg23
S'mov'
p905
sg25
S'0x811a074L'
p906
sg27
Nsba(ibclass
BInstr
p907
(dp908
g2
Nsg17
S'mov     eax, [eax+4]'
p909
sg19
S'8b4004'
p910
sg21
Vmov eax, dword ptr [eax + 4]
p911
sg5
L135372919L
sg6
Nsg23
S'mov'
p912
sg25
S'0x811a077L'
p913
sg27
Nsba(ibclass
BInstr
p914
(dp915
g2
Nsg17
S'mov     edx, [eax]'
p916
sg19
S'8b10'
p917
sg21
Vmov edx, dword ptr [eax]
p918
sg5
L135372922L
sg6
Nsg23
S'mov'
p919
sg25
S'0x811a07aL'
p920
sg27
Nsba(ibclass
BInstr
p921
(dp922
g2
Nsg17
S'mov     eax, [ebp+priv_key]'
p923
sg19
S'8b45ec'
p924
sg21
Vmov eax, dword ptr [ebp - 0x14]
p925
sg5
L135372924L
sg6
Nsg23
S'mov'
p926
sg25
S'0x811a07cL'
p927
sg27
Nsba(ibclass
BInstr
p928
(dp929
g2
Nsg17
S'mov     eax, [eax+4]'
p930
sg19
S'8b4004'
p931
sg21
Vmov eax, dword ptr [eax + 4]
p932
sg5
L135372927L
sg6
Nsg23
S'mov'
p933
sg25
S'0x811a07fL'
p934
sg27
Nsba(ibclass
BInstr
p935
(dp936
g2
Nsg17
S'mov     eax, [eax+8]'
p937
sg19
S'8b4008'
p938
sg21
Vmov eax, dword ptr [eax + 8]
p939
sg5
L135372930L
sg6
Nsg23
S'mov'
p940
sg25
S'0x811a082L'
p941
sg27
Nsba(ibclass
BInstr
p942
(dp943
g2
Nsg17
S'mov     [esp+8], ecx    ; ret'
p944
sg19
S'894c2408'
p945
sg21
Vmov dword ptr [esp + 8], ecx
p946
sg5
L135372933L
sg6
Nsg23
S'mov'
p947
sg25
S'0x811a085L'
p948
sg27
Nsba(ibclass
BInstr
p949
(dp950
g2
Nsg17
S'mov     [esp+4], edx    ; len'
p951
sg19
S'89542404'
p952
sg21
Vmov dword ptr [esp + 4], edx
p953
sg5
L135372937L
sg6
Nsg23
S'mov'
p954
sg25
S'0x811a089L'
p955
sg27
Nsba(ibclass
BInstr
p956
(dp957
g2
Nsg17
S'mov     [esp], eax      ; s'
p958
sg19
S'890424'
p959
sg21
Vmov dword ptr [esp], eax
p960
sg5
L135372941L
sg6
Nsg23
S'mov'
p961
sg25
S'0x811a08dL'
p962
sg27
Nsba(ibclass
BInstr
p963
(dp964
g2
Nsg17
S'call    BN_bin2bn'
p965
sg19
S'e8e8ddfeff'
p966
sg21
Vcall 0xfffedded
p967
sg5
L135372944L
sg6
Nsg23
S'call'
p968
sg25
S'0x811a090L'
p969
sg27
Nsba(ibclass
BInstr
p970
(dp971
g2
Nsg17
S'mov     edx, [ebp+ret]'
p972
sg19
S'8b55e8'
p973
sg21
Vmov edx, dword ptr [ebp - 0x18]
p974
sg5
L135372949L
sg6
Nsg23
S'mov'
p975
sg25
S'0x811a095L'
p976
sg27
Nsba(ibclass
BInstr
p977
(dp978
g2
Nsg17
S'mov     [edx+0Ch], eax'
p979
sg19
S'89420c'
p980
sg21
Vmov dword ptr [edx + 0xc], eax
p981
sg5
L135372952L
sg6
Nsg23
S'mov'
p982
sg25
S'0x811a098L'
p983
sg27
Nsba(ibclass
BInstr
p984
(dp985
g2
Nsg17
S'mov     eax, [ebp+ret]'
p986
sg19
S'8b45e8'
p987
sg21
Vmov eax, dword ptr [ebp - 0x18]
p988
sg5
L135372955L
sg6
Nsg23
S'mov'
p989
sg25
S'0x811a09bL'
p990
sg27
Nsba(ibclass
BInstr
p991
(dp992
g2
Nsg17
S'mov     eax, [eax+0Ch]'
p993
sg19
S'8b400c'
p994
sg21
Vmov eax, dword ptr [eax + 0xc]
p995
sg5
L135372958L
sg6
Nsg23
S'mov'
p996
sg25
S'0x811a09eL'
p997
sg27
Nsba(ibclass
BInstr
p998
(dp999
g2
Nsg17
S'test    eax, eax'
p1000
sg19
S'85c0'
p1001
sg21
Vtest eax, eax
p1002
sg5
L135372961L
sg6
Nsg23
S'test'
p1003
sg25
S'0x811a0a1L'
p1004
sg27
Nsba(ibclass
BInstr
p1005
(dp1006
g2
Nsg17
S'jnz     short loc_811A107'
p1007
sg19
S'7562'
p1008
sg21
Vjne 0x64
p1009
sg5
L135372963L
sg6
Nsg23
S'jnz'
p1010
sg25
S'0x811a0a3L'
p1011
sg27
Nsbasg147
(lp1012
Vmov eax, mem
p1013
aVmov ecx, mem
p1014
aVmov eax, mem
p1015
aVmov eax, mem
p1016
aVmov edx, mem
p1017
aVmov eax, mem
p1018
aVmov eax, mem
p1019
aVmov eax, mem
p1020
aVmov mem, ecx
p1021
aVmov mem, edx
p1022
aVmov mem, eax
p1023
aVcall address
p1024
aVmov edx, mem
p1025
aVmov mem, eax
p1026
aVmov eax, mem
p1027
aVmov eax, mem
p1028
ag1002
aVjne address
p1029
asg165
Nsg5
S'0x811a06eL'
p1030
sg167
(lp1031
S'0x811a05aL'
p1032
asg6
Nsg169
(lp1033
S'0x811a0a5L'
p1034
aS'0x811a107L'
p1035
asg173
Nsg174
Nsg175
S'bce92f090a39795e58bd68a067a8d1e2'
p1036
sg177
S'21e6ebc9849aeed8a77e9ba2daa4008e'
p1037
sg179
(lp1038
g891
ag898
ag905
ag912
ag919
ag926
ag933
ag940
ag947
ag954
ag961
ag968
ag975
ag982
ag989
ag996
ag1003
ag1010
asg181
Nsba(ibclass
BBasicBlock
p1039
(dp1040
g12
Nsg13
(lp1041
(ibclass
BInstr
p1042
(dp1043
g2
Nsg17
S'mov     dword ptr [esp+10h], 41Eh; line'
p1044
sg19
S'c74424101e040000'
p1045
sg21
Vmov dword ptr [esp + 0x10], 0x41e
p1046
sg5
L135372965L
sg6
Nsg23
S'mov'
p1047
sg25
S'0x811a0a5L'
p1048
sg27
Nsba(ibclass
BInstr
p1049
(dp1050
g2
Nsg17
S'mov     dword ptr [esp+0Ch], offset aEc_asn1_c; "ec_asn1.c"'
p1051
sg19
S'c744240c20222308'
p1052
sg21
Vmov dword ptr [esp + 0xc], 0x8232220
p1053
sg5
L135372973L
sg6
Nsg23
S'mov'
p1054
sg25
S'0x811a0adL'
p1055
sg27
Nsba(ibclass
BInstr
p1056
(dp1057
g2
Nsg17
S'mov     dword ptr [esp+8], 3; reason'
p1058
sg19
S'c744240803000000'
p1059
sg21
Vmov dword ptr [esp + 8], 3
p1060
sg5
L135372981L
sg6
Nsg23
S'mov'
p1061
sg25
S'0x811a0b5L'
p1062
sg27
Nsba(ibclass
BInstr
p1063
(dp1064
g2
Nsg17
S'mov     dword ptr [esp+4], 92h; func'
p1065
sg19
S'c744240492000000'
p1066
sg21
Vmov dword ptr [esp + 4], 0x92
p1067
sg5
L135372989L
sg6
Nsg23
S'mov'
p1068
sg25
S'0x811a0bdL'
p1069
sg27
Nsba(ibclass
BInstr
p1070
(dp1071
g2
Nsg17
S'mov     dword ptr [esp], 10h; lib'
p1072
sg19
S'c7042410000000'
p1073
sg21
Vmov dword ptr [esp], 0x10
p1074
sg5
L135372997L
sg6
Nsg23
S'mov'
p1075
sg25
S'0x811a0c5L'
p1076
sg27
Nsba(ibclass
BInstr
p1077
(dp1078
g2
Nsg17
S'call    ERR_put_error'
p1079
sg19
S'e8c8e80100'
p1080
sg21
Vcall 0x1e8cd
p1081
sg5
L135373004L
sg6
Nsg23
S'call'
p1082
sg25
S'0x811a0ccL'
p1083
sg27
Nsba(ibclass
BInstr
p1084
(dp1085
g2
Nsg17
S'jmp     err'
p1086
sg19
S'e908020000'
p1087
sg21
Vjmp 0x20d
p1088
sg5
L135373009L
sg6
Nsg23
S'jmp'
p1089
sg25
S'0x811a0d1L'
p1090
sg27
Nsbasg147
(lp1091
Vmov mem, address
p1092
aVmov mem, address
p1093
aVmov mem, 3
p1094
aVmov mem, address
p1095
aVmov mem, address
p1096
aVcall address
p1097
aVjmp address
p1098
asg165
Nsg5
S'0x811a0a5L'
p1099
sg167
(lp1100
S'0x811a06eL'
p1101
asg6
Nsg169
(lp1102
S'0x811a2deL'
p1103
asg173
Nsg174
Nsg175
S'a76a0a3b827ea6cd402bf72e182d1d25'
p1104
sg177
S'520f16d2d73d35019a2fb2cecab5bc1f'
p1105
sg179
(lp1106
g1047
ag1054
ag1061
ag1068
ag1075
ag1082
ag1089
asg181
Nsba(ibclass
BBasicBlock
p1107
(dp1108
g12
Nsg13
(lp1109
(ibclass
BInstr
p1110
(dp1111
g2
Nsg17
S'mov     dword ptr [esp+10h], 422h; line'
p1112
sg19
S'c744241022040000'
p1113
sg21
Vmov dword ptr [esp + 0x10], 0x422
p1114
sg5
L135373014L
sg6
Nsg23
S'mov'
p1115
sg25
S'0x811a0d6L'
p1116
sg27
Nsba(ibclass
BInstr
p1117
(dp1118
g2
Nsg17
S'mov     dword ptr [esp+0Ch], offset aEc_asn1_c; "ec_asn1.c"'
p1119
sg19
S'c744240c20222308'
p1120
sg21
Vmov dword ptr [esp + 0xc], 0x8232220
p1121
sg5
L135373022L
sg6
Nsg23
S'mov'
p1122
sg25
S'0x811a0deL'
p1123
sg27
Nsba(ibclass
BInstr
p1124
(dp1125
g2
Nsg17
S'mov     dword ptr [esp+8], 7Dh; reason'
p1126
sg19
S'c74424087d000000'
p1127
sg21
Vmov dword ptr [esp + 8], 0x7d
p1128
sg5
L135373030L
sg6
Nsg23
S'mov'
p1129
sg25
S'0x811a0e6L'
p1130
sg27
Nsba(ibclass
BInstr
p1131
(dp1132
g2
Nsg17
S'mov     dword ptr [esp+4], 92h; func'
p1133
sg19
S'c744240492000000'
p1134
sg21
Vmov dword ptr [esp + 4], 0x92
p1135
sg5
L135373038L
sg6
Nsg23
S'mov'
p1136
sg25
S'0x811a0eeL'
p1137
sg27
Nsba(ibclass
BInstr
p1138
(dp1139
g2
Nsg17
S'mov     dword ptr [esp], 10h; lib'
p1140
sg19
S'c7042410000000'
p1141
sg21
Vmov dword ptr [esp], 0x10
p1142
sg5
L135373046L
sg6
Nsg23
S'mov'
p1143
sg25
S'0x811a0f6L'
p1144
sg27
Nsba(ibclass
BInstr
p1145
(dp1146
g2
Nsg17
S'call    ERR_put_error'
p1147
sg19
S'e897e80100'
p1148
sg21
Vcall 0x1e89c
p1149
sg5
L135373053L
sg6
Nsg23
S'call'
p1150
sg25
S'0x811a0fdL'
p1151
sg27
Nsba(ibclass
BInstr
p1152
(dp1153
g2
Nsg17
S'jmp     err'
p1154
sg19
S'e9d7010000'
p1155
sg21
Vjmp 0x1dc
p1156
sg5
L135373058L
sg6
Nsg23
S'jmp'
p1157
sg25
S'0x811a102L'
p1158
sg27
Nsbasg147
(lp1159
Vmov mem, address
p1160
aVmov mem, address
p1161
aVmov mem, address
p1162
aVmov mem, address
p1163
aVmov mem, address
p1164
aVcall address
p1165
aVjmp address
p1166
asg165
Nsg5
S'0x811a0d6L'
p1167
sg167
(lp1168
S'0x811a05aL'
p1169
asg6
Nsg169
(lp1170
S'0x811a2deL'
p1171
asg173
Nsg174
Nsg175
S'a76a0a3b827ea6cd402bf72e182d1d25'
p1172
sg177
S'5c79c7459a4742ab4e6fe5fb7b7e4c8d'
p1173
sg179
(lp1174
g1115
ag1122
ag1129
ag1136
ag1143
ag1150
ag1157
asg181
Nsba(ibclass
BBasicBlock
p1175
(dp1176
g12
Nsg13
(lp1177
(ibclass
BInstr
p1178
(dp1179
g2
Nsg17
S'mov     eax, [ebp+ret]'
p1180
sg19
S'8b45e8'
p1181
sg21
Vmov eax, dword ptr [ebp - 0x18]
p1182
sg5
L135373063L
sg6
Nsg23
S'mov'
p1183
sg25
S'0x811a107L'
p1184
sg27
Nsba(ibclass
BInstr
p1185
(dp1186
g2
Nsg17
S'mov     eax, [eax+8]'
p1187
sg19
S'8b4008'
p1188
sg21
Vmov eax, dword ptr [eax + 8]
p1189
sg5
L135373066L
sg6
Nsg23
S'mov'
p1190
sg25
S'0x811a10aL'
p1191
sg27
Nsba(ibclass
BInstr
p1192
(dp1193
g2
Nsg17
S'test    eax, eax'
p1194
sg19
S'85c0'
p1195
sg21
Vtest eax, eax
p1196
sg5
L135373069L
sg6
Nsg23
S'test'
p1197
sg25
S'0x811a10dL'
p1198
sg27
Nsba(ibclass
BInstr
p1199
(dp1200
g2
Nsg17
S'jz      short loc_811A11F'
p1201
sg19
S'740e'
p1202
sg21
Vje 0x10
p1203
sg5
L135373071L
sg6
Nsg23
S'jz'
p1204
sg25
S'0x811a10fL'
p1205
sg27
Nsbasg147
(lp1206
Vmov eax, mem
p1207
aVmov eax, mem
p1208
ag1196
aVje address
p1209
asg165
Nsg5
S'0x811a107L'
p1210
sg167
(lp1211
S'0x811a06eL'
p1212
asg6
Nsg169
(lp1213
S'0x811a111L'
p1214
aS'0x811a11fL'
p1215
asg173
Nsg174
Nsg175
S'ea5d08c7dcc07640d42787f826218f11'
p1216
sg177
S'103b924e2a82731ce51d187b2e41af3a'
p1217
sg179
(lp1218
g1183
ag1190
ag1197
ag1204
asg181
Nsba(ibclass
BBasicBlock
p1219
(dp1220
g12
Nsg13
(lp1221
(ibclass
BInstr
p1222
(dp1223
g2
Nsg17
S'mov     eax, [ebp+ret]'
p1224
sg19
S'8b45e8'
p1225
sg21
Vmov eax, dword ptr [ebp - 0x18]
p1226
sg5
L135373073L
sg6
Nsg23
S'mov'
p1227
sg25
S'0x811a111L'
p1228
sg27
Nsba(ibclass
BInstr
p1229
(dp1230
g2
Nsg17
S'mov     eax, [eax+8]'
p1231
sg19
S'8b4008'
p1232
sg21
Vmov eax, dword ptr [eax + 8]
p1233
sg5
L135373076L
sg6
Nsg23
S'mov'
p1234
sg25
S'0x811a114L'
p1235
sg27
Nsba(ibclass
BInstr
p1236
(dp1237
g2
Nsg17
S'mov     [esp], eax      ; point'
p1238
sg19
S'890424'
p1239
sg21
Vmov dword ptr [esp], eax
p1240
sg5
L135373079L
sg6
Nsg23
S'mov'
p1241
sg25
S'0x811a117L'
p1242
sg27
Nsba(ibclass
BInstr
p1243
(dp1244
g2
Nsg17
S'call    EC_POINT_clear_free'
p1245
sg19
S'e8b7a6ffff'
p1246
sg21
Vcall 0xffffa6bc
p1247
sg5
L135373082L
sg6
Nsg23
S'call'
p1248
sg25
S'0x811a11aL'
p1249
sg27
Nsbasg147
(lp1250
Vmov eax, mem
p1251
aVmov eax, mem
p1252
aVmov mem, eax
p1253
aVcall address
p1254
asg165
Nsg5
S'0x811a111L'
p1255
sg167
(lp1256
S'0x811a107L'
p1257
asg6
Nsg169
(lp1258
S'0x811a11fL'
p1259
asg173
Nsg174
Nsg175
S'e233a80004971487a8cda28e21c9f5ef'
p1260
sg177
S'aa359b6218411f2f012047a2f405e78d'
p1261
sg179
(lp1262
g1227
ag1234
ag1241
ag1248
asg181
Nsba(ibclass
BBasicBlock
p1263
(dp1264
g12
Nsg13
(lp1265
(ibclass
BInstr
p1266
(dp1267
g2
Nsg17
S'mov     eax, [ebp+ret]'
p1268
sg19
S'8b45e8'
p1269
sg21
Vmov eax, dword ptr [ebp - 0x18]
p1270
sg5
L135373087L
sg6
Nsg23
S'mov'
p1271
sg25
S'0x811a11fL'
p1272
sg27
Nsba(ibclass
BInstr
p1273
(dp1274
g2
Nsg17
S'mov     eax, [eax+4]'
p1275
sg19
S'8b4004'
p1276
sg21
Vmov eax, dword ptr [eax + 4]
p1277
sg5
L135373090L
sg6
Nsg23
S'mov'
p1278
sg25
S'0x811a122L'
p1279
sg27
Nsba(ibclass
BInstr
p1280
(dp1281
g2
Nsg17
S'mov     [esp], eax      ; group'
p1282
sg19
S'890424'
p1283
sg21
Vmov dword ptr [esp], eax
p1284
sg5
L135373093L
sg6
Nsg23
S'mov'
p1285
sg25
S'0x811a125L'
p1286
sg27
Nsba(ibclass
BInstr
p1287
(dp1288
g2
Nsg17
S'call    EC_POINT_new'
p1289
sg19
S'e861a5ffff'
p1290
sg21
Vcall 0xffffa566
p1291
sg5
L135373096L
sg6
Nsg23
S'call'
p1292
sg25
S'0x811a128L'
p1293
sg27
Nsba(ibclass
BInstr
p1294
(dp1295
g2
Nsg17
S'mov     edx, [ebp+ret]'
p1296
sg19
S'8b55e8'
p1297
sg21
Vmov edx, dword ptr [ebp - 0x18]
p1298
sg5
L135373101L
sg6
Nsg23
S'mov'
p1299
sg25
S'0x811a12dL'
p1300
sg27
Nsba(ibclass
BInstr
p1301
(dp1302
g2
Nsg17
S'mov     [edx+8], eax'
p1303
sg19
S'894208'
p1304
sg21
Vmov dword ptr [edx + 8], eax
p1305
sg5
L135373104L
sg6
Nsg23
S'mov'
p1306
sg25
S'0x811a130L'
p1307
sg27
Nsba(ibclass
BInstr
p1308
(dp1309
g2
Nsg17
S'mov     eax, [ebp+ret]'
p1310
sg19
S'8b45e8'
p1311
sg21
Vmov eax, dword ptr [ebp - 0x18]
p1312
sg5
L135373107L
sg6
Nsg23
S'mov'
p1313
sg25
S'0x811a133L'
p1314
sg27
Nsba(ibclass
BInstr
p1315
(dp1316
g2
Nsg17
S'mov     eax, [eax+8]'
p1317
sg19
S'8b4008'
p1318
sg21
Vmov eax, dword ptr [eax + 8]
p1319
sg5
L135373110L
sg6
Nsg23
S'mov'
p1320
sg25
S'0x811a136L'
p1321
sg27
Nsba(ibclass
BInstr
p1322
(dp1323
g2
Nsg17
S'test    eax, eax'
p1324
sg19
S'85c0'
p1325
sg21
Vtest eax, eax
p1326
sg5
L135373113L
sg6
Nsg23
S'test'
p1327
sg25
S'0x811a139L'
p1328
sg27
Nsba(ibclass
BInstr
p1329
(dp1330
g2
Nsg17
S'jnz     short loc_811A16E'
p1331
sg19
S'7531'
p1332
sg21
Vjne 0x33
p1333
sg5
L135373115L
sg6
Nsg23
S'jnz'
p1334
sg25
S'0x811a13bL'
p1335
sg27
Nsbasg147
(lp1336
Vmov eax, mem
p1337
aVmov eax, mem
p1338
aVmov mem, eax
p1339
aVcall address
p1340
aVmov edx, mem
p1341
aVmov mem, eax
p1342
aVmov eax, mem
p1343
aVmov eax, mem
p1344
ag1326
aVjne address
p1345
asg165
Nsg5
S'0x811a11fL'
p1346
sg167
(lp1347
S'0x811a107L'
p1348
aS'0x811a111L'
p1349
asg6
Nsg169
(lp1350
S'0x811a13dL'
p1351
aS'0x811a16eL'
p1352
asg173
Nsg174
Nsg175
S'6c693d995bcbad992ff2db72d4e2c900'
p1353
sg177
S'826b630e0b8c325b9aafd2f083bc1403'
p1354
sg179
(lp1355
g1271
ag1278
ag1285
ag1292
ag1299
ag1306
ag1313
ag1320
ag1327
ag1334
asg181
Nsba(ibclass
BBasicBlock
p1356
(dp1357
g12
Nsg13
(lp1358
(ibclass
BInstr
p1359
(dp1360
g2
Nsg17
S'mov     dword ptr [esp+10h], 42Ah; line'
p1361
sg19
S'c74424102a040000'
p1362
sg21
Vmov dword ptr [esp + 0x10], 0x42a
p1363
sg5
L135373117L
sg6
Nsg23
S'mov'
p1364
sg25
S'0x811a13dL'
p1365
sg27
Nsba(ibclass
BInstr
p1366
(dp1367
g2
Nsg17
S'mov     dword ptr [esp+0Ch], offset aEc_asn1_c; "ec_asn1.c"'
p1368
sg19
S'c744240c20222308'
p1369
sg21
Vmov dword ptr [esp + 0xc], 0x8232220
p1370
sg5
L135373125L
sg6
Nsg23
S'mov'
p1371
sg25
S'0x811a145L'
p1372
sg27
Nsba(ibclass
BInstr
p1373
(dp1374
g2
Nsg17
S'mov     dword ptr [esp+8], 10h; reason'
p1375
sg19
S'c744240810000000'
p1376
sg21
Vmov dword ptr [esp + 8], 0x10
p1377
sg5
L135373133L
sg6
Nsg23
S'mov'
p1378
sg25
S'0x811a14dL'
p1379
sg27
Nsba(ibclass
BInstr
p1380
(dp1381
g2
Nsg17
S'mov     dword ptr [esp+4], 92h; func'
p1382
sg19
S'c744240492000000'
p1383
sg21
Vmov dword ptr [esp + 4], 0x92
p1384
sg5
L135373141L
sg6
Nsg23
S'mov'
p1385
sg25
S'0x811a155L'
p1386
sg27
Nsba(ibclass
BInstr
p1387
(dp1388
g2
Nsg17
S'mov     dword ptr [esp], 10h; lib'
p1389
sg19
S'c7042410000000'
p1390
sg21
Vmov dword ptr [esp], 0x10
p1391
sg5
L135373149L
sg6
Nsg23
S'mov'
p1392
sg25
S'0x811a15dL'
p1393
sg27
Nsba(ibclass
BInstr
p1394
(dp1395
g2
Nsg17
S'call    ERR_put_error'
p1396
sg19
S'e830e80100'
p1397
sg21
Vcall 0x1e835
p1398
sg5
L135373156L
sg6
Nsg23
S'call'
p1399
sg25
S'0x811a164L'
p1400
sg27
Nsba(ibclass
BInstr
p1401
(dp1402
g2
Nsg17
S'jmp     err'
p1403
sg19
S'e970010000'
p1404
sg21
Vjmp 0x175
p1405
sg5
L135373161L
sg6
Nsg23
S'jmp'
p1406
sg25
S'0x811a169L'
p1407
sg27
Nsbasg147
(lp1408
Vmov mem, address
p1409
aVmov mem, address
p1410
aVmov mem, address
p1411
aVmov mem, address
p1412
aVmov mem, address
p1413
aVcall address
p1414
aVjmp address
p1415
asg165
Nsg5
S'0x811a13dL'
p1416
sg167
(lp1417
S'0x811a11fL'
p1418
asg6
Nsg169
(lp1419
S'0x811a2deL'
p1420
asg173
Nsg174
Nsg175
S'a76a0a3b827ea6cd402bf72e182d1d25'
p1421
sg177
S'5c79c7459a4742ab4e6fe5fb7b7e4c8d'
p1422
sg179
(lp1423
g1364
ag1371
ag1378
ag1385
ag1392
ag1399
ag1406
asg181
Nsba(ibclass
BBasicBlock
p1424
(dp1425
g12
Nsg13
(lp1426
(ibclass
BInstr
p1427
(dp1428
g2
Nsg17
S'mov     eax, [ebp+priv_key]'
p1429
sg19
S'8b45ec'
p1430
sg21
Vmov eax, dword ptr [ebp - 0x14]
p1431
sg5
L135373166L
sg6
Nsg23
S'mov'
p1432
sg25
S'0x811a16eL'
p1433
sg27
Nsba(ibclass
BInstr
p1434
(dp1435
g2
Nsg17
S'mov     eax, [eax+0Ch]'
p1436
sg19
S'8b400c'
p1437
sg21
Vmov eax, dword ptr [eax + 0xc]
p1438
sg5
L135373169L
sg6
Nsg23
S'mov'
p1439
sg25
S'0x811a171L'
p1440
sg27
Nsba(ibclass
BInstr
p1441
(dp1442
g2
Nsg17
S'test    eax, eax'
p1443
sg19
S'85c0'
p1444
sg21
Vtest eax, eax
p1445
sg5
L135373172L
sg6
Nsg23
S'test'
p1446
sg25
S'0x811a174L'
p1447
sg27
Nsba(ibclass
BInstr
p1448
(dp1449
g2
Nsg17
S'jz      loc_811A244'
p1450
sg19
S'0f84c8000000'
p1451
sg21
Vje 0xce
p1452
sg5
L135373174L
sg6
Nsg23
S'jz'
p1453
sg25
S'0x811a176L'
p1454
sg27
Nsbasg147
(lp1455
Vmov eax, mem
p1456
aVmov eax, mem
p1457
ag1445
aVje address
p1458
asg165
Nsg5
S'0x811a16eL'
p1459
sg167
(lp1460
S'0x811a11fL'
p1461
asg6
Nsg169
(lp1462
S'0x811a17cL'
p1463
aS'0x811a244L'
p1464
asg173
Nsg174
Nsg175
S'ea5d08c7dcc07640d42787f826218f11'
p1465
sg177
S'103b924e2a82731ce51d187b2e41af3a'
p1466
sg179
(lp1467
g1432
ag1439
ag1446
ag1453
asg181
Nsba(ibclass
BBasicBlock
p1468
(dp1469
g12
Nsg13
(lp1470
(ibclass
BInstr
p1471
(dp1472
g2
Nsg17
S'mov     eax, [ebp+priv_key]'
p1473
sg19
S'8b45ec'
p1474
sg21
Vmov eax, dword ptr [ebp - 0x14]
p1475
sg5
L135373180L
sg6
Nsg23
S'mov'
p1476
sg25
S'0x811a17cL'
p1477
sg27
Nsba(ibclass
BInstr
p1478
(dp1479
g2
Nsg17
S'mov     eax, [eax+0Ch]'
p1480
sg19
S'8b400c'
p1481
sg21
Vmov eax, dword ptr [eax + 0xc]
p1482
sg5
L135373183L
sg6
Nsg23
S'mov'
p1483
sg25
S'0x811a17fL'
p1484
sg27
Nsba(ibclass
BInstr
p1485
(dp1486
g2
Nsg17
S'mov     eax, [eax+8]'
p1487
sg19
S'8b4008'
p1488
sg21
Vmov eax, dword ptr [eax + 8]
p1489
sg5
L135373186L
sg6
Nsg23
S'mov'
p1490
sg25
S'0x811a182L'
p1491
sg27
Nsba(ibclass
BInstr
p1492
(dp1493
g2
Nsg17
S'mov     [ebp+pub_oct], eax'
p1494
sg19
S'8945f0'
p1495
sg21
Vmov dword ptr [ebp - 0x10], eax
p1496
sg5
L135373189L
sg6
Nsg23
S'mov'
p1497
sg25
S'0x811a185L'
p1498
sg27
Nsba(ibclass
BInstr
p1499
(dp1500
g2
Nsg17
S'mov     eax, [ebp+priv_key]'
p1501
sg19
S'8b45ec'
p1502
sg21
Vmov eax, dword ptr [ebp - 0x14]
p1503
sg5
L135373192L
sg6
Nsg23
S'mov'
p1504
sg25
S'0x811a188L'
p1505
sg27
Nsba(ibclass
BInstr
p1506
(dp1507
g2
Nsg17
S'mov     eax, [eax+0Ch]'
p1508
sg19
S'8b400c'
p1509
sg21
Vmov eax, dword ptr [eax + 0xc]
p1510
sg5
L135373195L
sg6
Nsg23
S'mov'
p1511
sg25
S'0x811a18bL'
p1512
sg27
Nsba(ibclass
BInstr
p1513
(dp1514
g2
Nsg17
S'mov     eax, [eax]'
p1515
sg19
S'8b00'
p1516
sg21
Vmov eax, dword ptr [eax]
p1517
sg5
L135373198L
sg6
Nsg23
S'mov'
p1518
sg25
S'0x811a18eL'
p1519
sg27
Nsba(ibclass
BInstr
p1520
(dp1521
g2
Nsg17
S'mov     [ebp+pub_oct_len], eax'
p1522
sg19
S'8945f4'
p1523
sg21
Vmov dword ptr [ebp - 0xc], eax
p1524
sg5
L135373200L
sg6
Nsg23
S'mov'
p1525
sg25
S'0x811a190L'
p1526
sg27
Nsba(ibclass
BInstr
p1527
(dp1528
g2
Nsg17
S'cmp     [ebp+pub_oct_len], 0'
p1529
sg19
S'837df400'
p1530
sg21
Vcmp dword ptr [ebp - 0xc], 0
p1531
sg5
L135373203L
sg6
Nsg23
S'cmp'
p1532
sg25
S'0x811a193L'
p1533
sg27
Nsba(ibclass
BInstr
p1534
(dp1535
g2
Nsg17
S'jg      short loc_811A1CA'
p1536
sg19
S'7f31'
p1537
sg21
Vjg 0x33
p1538
sg5
L135373207L
sg6
Nsg23
S'jg'
p1539
sg25
S'0x811a197L'
p1540
sg27
Nsbasg147
(lp1541
Vmov eax, mem
p1542
aVmov eax, mem
p1543
aVmov eax, mem
p1544
aVmov mem, eax
p1545
aVmov eax, mem
p1546
aVmov eax, mem
p1547
aVmov eax, mem
p1548
aVmov mem, eax
p1549
aVcmp mem, 0
p1550
aVjg address
p1551
asg165
Nsg5
S'0x811a17cL'
p1552
sg167
(lp1553
S'0x811a16eL'
p1554
asg6
Nsg169
(lp1555
S'0x811a199L'
p1556
aS'0x811a1caL'
p1557
asg173
Nsg174
Nsg175
S'd5f15605f30811fff1c7b1da84f7e723'
p1558
sg177
S'f2955deccb2d3ce231553672cb3a6d20'
p1559
sg179
(lp1560
g1476
ag1483
ag1490
ag1497
ag1504
ag1511
ag1518
ag1525
ag1532
ag1539
asg181
Nsba(ibclass
BBasicBlock
p1561
(dp1562
g12
Nsg13
(lp1563
(ibclass
BInstr
p1564
(dp1565
g2
Nsg17
S'mov     dword ptr [esp+10h], 438h; line'
p1566
sg19
S'c744241038040000'
p1567
sg21
Vmov dword ptr [esp + 0x10], 0x438
p1568
sg5
L135373209L
sg6
Nsg23
S'mov'
p1569
sg25
S'0x811a199L'
p1570
sg27
Nsba(ibclass
BInstr
p1571
(dp1572
g2
Nsg17
S'mov     dword ptr [esp+0Ch], offset aEc_asn1_c; "ec_asn1.c"'
p1573
sg19
S'c744240c20222308'
p1574
sg21
Vmov dword ptr [esp + 0xc], 0x8232220
p1575
sg5
L135373217L
sg6
Nsg23
S'mov'
p1576
sg25
S'0x811a1a1L'
p1577
sg27
Nsba(ibclass
BInstr
p1578
(dp1579
g2
Nsg17
S'mov     dword ptr [esp+8], 64h; reason'
p1580
sg19
S'c744240864000000'
p1581
sg21
Vmov dword ptr [esp + 8], 0x64
p1582
sg5
L135373225L
sg6
Nsg23
S'mov'
p1583
sg25
S'0x811a1a9L'
p1584
sg27
Nsba(ibclass
BInstr
p1585
(dp1586
g2
Nsg17
S'mov     dword ptr [esp+4], 92h; func'
p1587
sg19
S'c744240492000000'
p1588
sg21
Vmov dword ptr [esp + 4], 0x92
p1589
sg5
L135373233L
sg6
Nsg23
S'mov'
p1590
sg25
S'0x811a1b1L'
p1591
sg27
Nsba(ibclass
BInstr
p1592
(dp1593
g2
Nsg17
S'mov     dword ptr [esp], 10h; lib'
p1594
sg19
S'c7042410000000'
p1595
sg21
Vmov dword ptr [esp], 0x10
p1596
sg5
L135373241L
sg6
Nsg23
S'mov'
p1597
sg25
S'0x811a1b9L'
p1598
sg27
Nsba(ibclass
BInstr
p1599
(dp1600
g2
Nsg17
S'call    ERR_put_error'
p1601
sg19
S'e8d4e70100'
p1602
sg21
Vcall 0x1e7d9
p1603
sg5
L135373248L
sg6
Nsg23
S'call'
p1604
sg25
S'0x811a1c0L'
p1605
sg27
Nsba(ibclass
BInstr
p1606
(dp1607
g2
Nsg17
S'jmp     err'
p1608
sg19
S'e914010000'
p1609
sg21
Vjmp 0x119
p1610
sg5
L135373253L
sg6
Nsg23
S'jmp'
p1611
sg25
S'0x811a1c5L'
p1612
sg27
Nsbasg147
(lp1613
Vmov mem, address
p1614
aVmov mem, address
p1615
aVmov mem, address
p1616
aVmov mem, address
p1617
aVmov mem, address
p1618
aVcall address
p1619
aVjmp address
p1620
asg165
Nsg5
S'0x811a199L'
p1621
sg167
(lp1622
S'0x811a17cL'
p1623
asg6
Nsg169
(lp1624
S'0x811a2deL'
p1625
asg173
Nsg174
Nsg175
S'a76a0a3b827ea6cd402bf72e182d1d25'
p1626
sg177
S'5c79c7459a4742ab4e6fe5fb7b7e4c8d'
p1627
sg179
(lp1628
g1569
ag1576
ag1583
ag1590
ag1597
ag1604
ag1611
asg181
Nsba(ibclass
BBasicBlock
p1629
(dp1630
g12
Nsg13
(lp1631
(ibclass
BInstr
p1632
(dp1633
g2
Nsg17
S'mov     eax, [ebp+pub_oct]'
p1634
sg19
S'8b45f0'
p1635
sg21
Vmov eax, dword ptr [ebp - 0x10]
p1636
sg5
L135373258L
sg6
Nsg23
S'mov'
p1637
sg25
S'0x811a1caL'
p1638
sg27
Nsba(ibclass
BInstr
p1639
(dp1640
g2
Nsg17
S'mov     al, [eax]'
p1641
sg19
S'8a00'
p1642
sg21
Vmov al, byte ptr [eax]
p1643
sg5
L135373261L
sg6
Nsg23
S'mov'
p1644
sg25
S'0x811a1cdL'
p1645
sg27
Nsba(ibclass
BInstr
p1646
(dp1647
g2
Nsg17
S'and     eax, 0FFh'
p1648
sg19
S'25ff000000'
p1649
sg21
Vand eax, 0xff
p1650
sg5
L135373263L
sg6
Nsg23
S'and'
p1651
sg25
S'0x811a1cfL'
p1652
sg27
Nsba(ibclass
BInstr
p1653
(dp1654
g2
Nsg17
S'and     eax, 0FFFFFFFEh'
p1655
sg19
S'83e0fe'
p1656
sg21
Vand eax, 0xfffffffe
p1657
sg5
L135373268L
sg6
Nsg23
S'and'
p1658
sg25
S'0x811a1d4L'
p1659
sg27
Nsba(ibclass
BInstr
p1660
(dp1661
g2
Nsg17
S'mov     edx, eax'
p1662
sg19
S'89c2'
p1663
sg21
Vmov edx, eax
p1664
sg5
L135373271L
sg6
Nsg23
S'mov'
p1665
sg25
S'0x811a1d7L'
p1666
sg27
Nsba(ibclass
BInstr
p1667
(dp1668
g2
Nsg17
S'mov     eax, [ebp+ret]'
p1669
sg19
S'8b45e8'
p1670
sg21
Vmov eax, dword ptr [ebp - 0x18]
p1671
sg5
L135373273L
sg6
Nsg23
S'mov'
p1672
sg25
S'0x811a1d9L'
p1673
sg27
Nsba(ibclass
BInstr
p1674
(dp1675
g2
Nsg17
S'mov     [eax+14h], edx'
p1676
sg19
S'895014'
p1677
sg21
Vmov dword ptr [eax + 0x14], edx
p1678
sg5
L135373276L
sg6
Nsg23
S'mov'
p1679
sg25
S'0x811a1dcL'
p1680
sg27
Nsba(ibclass
BInstr
p1681
(dp1682
g2
Nsg17
S'mov     ecx, [ebp+pub_oct_len]'
p1683
sg19
S'8b4df4'
p1684
sg21
Vmov ecx, dword ptr [ebp - 0xc]
p1685
sg5
L135373279L
sg6
Nsg23
S'mov'
p1686
sg25
S'0x811a1dfL'
p1687
sg27
Nsba(ibclass
BInstr
p1688
(dp1689
g2
Nsg17
S'mov     eax, [ebp+ret]'
p1690
sg19
S'8b45e8'
p1691
sg21
Vmov eax, dword ptr [ebp - 0x18]
p1692
sg5
L135373282L
sg6
Nsg23
S'mov'
p1693
sg25
S'0x811a1e2L'
p1694
sg27
Nsba(ibclass
BInstr
p1695
(dp1696
g2
Nsg17
S'mov     edx, [eax+8]'
p1697
sg19
S'8b5008'
p1698
sg21
Vmov edx, dword ptr [eax + 8]
p1699
sg5
L135373285L
sg6
Nsg23
S'mov'
p1700
sg25
S'0x811a1e5L'
p1701
sg27
Nsba(ibclass
BInstr
p1702
(dp1703
g2
Nsg17
S'mov     eax, [ebp+ret]'
p1704
sg19
S'8b45e8'
p1705
sg21
Vmov eax, dword ptr [ebp - 0x18]
p1706
sg5
L135373288L
sg6
Nsg23
S'mov'
p1707
sg25
S'0x811a1e8L'
p1708
sg27
Nsba(ibclass
BInstr
p1709
(dp1710
g2
Nsg17
S'mov     eax, [eax+4]'
p1711
sg19
S'8b4004'
p1712
sg21
Vmov eax, dword ptr [eax + 4]
p1713
sg5
L135373291L
sg6
Nsg23
S'mov'
p1714
sg25
S'0x811a1ebL'
p1715
sg27
Nsba(ibclass
BInstr
p1716
(dp1717
g2
Nsg17
S'mov     dword ptr [esp+10h], 0; ctx'
p1718
sg19
S'c744241000000000'
p1719
sg21
Vmov dword ptr [esp + 0x10], 0
p1720
sg5
L135373294L
sg6
Nsg23
S'mov'
p1721
sg25
S'0x811a1eeL'
p1722
sg27
Nsba(ibclass
BInstr
p1723
(dp1724
g2
Nsg17
S'mov     [esp+0Ch], ecx  ; len'
p1725
sg19
S'894c240c'
p1726
sg21
Vmov dword ptr [esp + 0xc], ecx
p1727
sg5
L135373302L
sg6
Nsg23
S'mov'
p1728
sg25
S'0x811a1f6L'
p1729
sg27
Nsba(ibclass
BInstr
p1730
(dp1731
g2
Nsg17
S'mov     ecx, [ebp+pub_oct]'
p1732
sg19
S'8b4df0'
p1733
sg21
Vmov ecx, dword ptr [ebp - 0x10]
p1734
sg5
L135373306L
sg6
Nsg23
S'mov'
p1735
sg25
S'0x811a1faL'
p1736
sg27
Nsba(ibclass
BInstr
p1737
(dp1738
g2
Nsg17
S'mov     [esp+8], ecx    ; buf'
p1739
sg19
S'894c2408'
p1740
sg21
Vmov dword ptr [esp + 8], ecx
p1741
sg5
L135373309L
sg6
Nsg23
S'mov'
p1742
sg25
S'0x811a1fdL'
p1743
sg27
Nsba(ibclass
BInstr
p1744
(dp1745
g2
Nsg17
S'mov     [esp+4], edx    ; point'
p1746
sg19
S'89542404'
p1747
sg21
Vmov dword ptr [esp + 4], edx
p1748
sg5
L135373313L
sg6
Nsg23
S'mov'
p1749
sg25
S'0x811a201L'
p1750
sg27
Nsba(ibclass
BInstr
p1751
(dp1752
g2
Nsg17
S'mov     [esp], eax      ; group'
p1753
sg19
S'890424'
p1754
sg21
Vmov dword ptr [esp], eax
p1755
sg5
L135373317L
sg6
Nsg23
S'mov'
p1756
sg25
S'0x811a205L'
p1757
sg27
Nsba(ibclass
BInstr
p1758
(dp1759
g2
Nsg17
S'call    EC_POINT_oct2point'
p1760
sg19
S'e8fb2a0000'
p1761
sg21
Vcall 0x2b00
p1762
sg5
L135373320L
sg6
Nsg23
S'call'
p1763
sg25
S'0x811a208L'
p1764
sg27
Nsba(ibclass
BInstr
p1765
(dp1766
g2
Nsg17
S'test    eax, eax'
p1767
sg19
S'85c0'
p1768
sg21
Vtest eax, eax
p1769
sg5
L135373325L
sg6
Nsg23
S'test'
p1770
sg25
S'0x811a20dL'
p1771
sg27
Nsba(ibclass
BInstr
p1772
(dp1773
g2
Nsg17
S'jnz     short loc_811A242'
p1774
sg19
S'7531'
p1775
sg21
Vjne 0x33
p1776
sg5
L135373327L
sg6
Nsg23
S'jnz'
p1777
sg25
S'0x811a20fL'
p1778
sg27
Nsbasg147
(lp1779
Vmov eax, mem
p1780
aVmov al, mem
p1781
aVand eax, address
p1782
aVand eax, address
p1783
ag1664
aVmov eax, mem
p1784
aVmov mem, edx
p1785
aVmov ecx, mem
p1786
aVmov eax, mem
p1787
aVmov edx, mem
p1788
aVmov eax, mem
p1789
aVmov eax, mem
p1790
aVmov mem, 0
p1791
aVmov mem, ecx
p1792
aVmov ecx, mem
p1793
aVmov mem, ecx
p1794
aVmov mem, edx
p1795
aVmov mem, eax
p1796
aVcall address
p1797
ag1769
aVjne address
p1798
asg165
Nsg5
S'0x811a1caL'
p1799
sg167
(lp1800
S'0x811a17cL'
p1801
asg6
Nsg169
(lp1802
S'0x811a211L'
p1803
aS'0x811a242L'
p1804
asg173
Nsg174
Nsg175
S'9e83ab11ce386c32c2ec130e0937affd'
p1805
sg177
S'068313ffa3656ccb68dda31ebe6e6291'
p1806
sg179
(lp1807
g1637
ag1644
ag1651
ag1658
ag1665
ag1672
ag1679
ag1686
ag1693
ag1700
ag1707
ag1714
ag1721
ag1728
ag1735
ag1742
ag1749
ag1756
ag1763
ag1770
ag1777
asg181
Nsba(ibclass
BBasicBlock
p1808
(dp1809
g12
Nsg13
(lp1810
(ibclass
BInstr
p1811
(dp1812
g2
Nsg17
S'mov     dword ptr [esp+10h], 43Fh; line'
p1813
sg19
S'c74424103f040000'
p1814
sg21
Vmov dword ptr [esp + 0x10], 0x43f
p1815
sg5
L135373329L
sg6
Nsg23
S'mov'
p1816
sg25
S'0x811a211L'
p1817
sg27
Nsba(ibclass
BInstr
p1818
(dp1819
g2
Nsg17
S'mov     dword ptr [esp+0Ch], offset aEc_asn1_c; "ec_asn1.c"'
p1820
sg19
S'c744240c20222308'
p1821
sg21
Vmov dword ptr [esp + 0xc], 0x8232220
p1822
sg5
L135373337L
sg6
Nsg23
S'mov'
p1823
sg25
S'0x811a219L'
p1824
sg27
Nsba(ibclass
BInstr
p1825
(dp1826
g2
Nsg17
S'mov     dword ptr [esp+8], 10h; reason'
p1827
sg19
S'c744240810000000'
p1828
sg21
Vmov dword ptr [esp + 8], 0x10
p1829
sg5
L135373345L
sg6
Nsg23
S'mov'
p1830
sg25
S'0x811a221L'
p1831
sg27
Nsba(ibclass
BInstr
p1832
(dp1833
g2
Nsg17
S'mov     dword ptr [esp+4], 92h; func'
p1834
sg19
S'c744240492000000'
p1835
sg21
Vmov dword ptr [esp + 4], 0x92
p1836
sg5
L135373353L
sg6
Nsg23
S'mov'
p1837
sg25
S'0x811a229L'
p1838
sg27
Nsba(ibclass
BInstr
p1839
(dp1840
g2
Nsg17
S'mov     dword ptr [esp], 10h; lib'
p1841
sg19
S'c7042410000000'
p1842
sg21
Vmov dword ptr [esp], 0x10
p1843
sg5
L135373361L
sg6
Nsg23
S'mov'
p1844
sg25
S'0x811a231L'
p1845
sg27
Nsba(ibclass
BInstr
p1846
(dp1847
g2
Nsg17
S'call    ERR_put_error'
p1848
sg19
S'e85ce70100'
p1849
sg21
Vcall 0x1e761
p1850
sg5
L135373368L
sg6
Nsg23
S'call'
p1851
sg25
S'0x811a238L'
p1852
sg27
Nsba(ibclass
BInstr
p1853
(dp1854
g2
Nsg17
S'jmp     err'
p1855
sg19
S'e99c000000'
p1856
sg21
Vjmp 0xa1
p1857
sg5
L135373373L
sg6
Nsg23
S'jmp'
p1858
sg25
S'0x811a23dL'
p1859
sg27
Nsbasg147
(lp1860
Vmov mem, address
p1861
aVmov mem, address
p1862
aVmov mem, address
p1863
aVmov mem, address
p1864
aVmov mem, address
p1865
aVcall address
p1866
aVjmp address
p1867
asg165
Nsg5
S'0x811a211L'
p1868
sg167
(lp1869
S'0x811a1caL'
p1870
asg6
Nsg169
(lp1871
S'0x811a2deL'
p1872
asg173
Nsg174
Nsg175
S'a76a0a3b827ea6cd402bf72e182d1d25'
p1873
sg177
S'5c79c7459a4742ab4e6fe5fb7b7e4c8d'
p1874
sg179
(lp1875
g1816
ag1823
ag1830
ag1837
ag1844
ag1851
ag1858
asg181
Nsba(ibclass
BBasicBlock
p1876
(dp1877
g12
Nsg13
(lp1878
(ibclass
BInstr
p1879
(dp1880
g2
Nsg17
S'jmp     short loc_811A2C1'
p1881
sg19
S'eb7d'
p1882
sg21
Vjmp 0x7f
p1883
sg5
L135373378L
sg6
Nsg23
S'jmp'
p1884
sg25
S'0x811a242L'
p1885
sg27
Nsbasg147
(lp1886
Vjmp address
p1887
asg165
Nsg5
S'0x811a242L'
p1888
sg167
(lp1889
S'0x811a1caL'
p1890
asg6
Nsg169
(lp1891
S'0x811a2c1L'
p1892
asg173
Nsg174
Nsg175
S'0ef6cf926f2f394b0cc8e11be8022625'
p1893
sg177
S'd4372e4caa7348928655251605aa7329'
p1894
sg179
(lp1895
g1884
asg181
Nsba(ibclass
BBasicBlock
p1896
(dp1897
g12
Nsg13
(lp1898
(ibclass
BInstr
p1899
(dp1900
g2
Nsg17
S'mov     eax, [ebp+ret]'
p1901
sg19
S'8b45e8'
p1902
sg21
Vmov eax, dword ptr [ebp - 0x18]
p1903
sg5
L135373380L
sg6
Nsg23
S'mov'
p1904
sg25
S'0x811a244L'
p1905
sg27
Nsba(ibclass
BInstr
p1906
(dp1907
g2
Nsg17
S'mov     ecx, [eax+0Ch]'
p1908
sg19
S'8b480c'
p1909
sg21
Vmov ecx, dword ptr [eax + 0xc]
p1910
sg5
L135373383L
sg6
Nsg23
S'mov'
p1911
sg25
S'0x811a247L'
p1912
sg27
Nsba(ibclass
BInstr
p1913
(dp1914
g2
Nsg17
S'mov     eax, [ebp+ret]'
p1915
sg19
S'8b45e8'
p1916
sg21
Vmov eax, dword ptr [ebp - 0x18]
p1917
sg5
L135373386L
sg6
Nsg23
S'mov'
p1918
sg25
S'0x811a24aL'
p1919
sg27
Nsba(ibclass
BInstr
p1920
(dp1921
g2
Nsg17
S'mov     edx, [eax+8]'
p1922
sg19
S'8b5008'
p1923
sg21
Vmov edx, dword ptr [eax + 8]
p1924
sg5
L135373389L
sg6
Nsg23
S'mov'
p1925
sg25
S'0x811a24dL'
p1926
sg27
Nsba(ibclass
BInstr
p1927
(dp1928
g2
Nsg17
S'mov     eax, [ebp+ret]'
p1929
sg19
S'8b45e8'
p1930
sg21
Vmov eax, dword ptr [ebp - 0x18]
p1931
sg5
L135373392L
sg6
Nsg23
S'mov'
p1932
sg25
S'0x811a250L'
p1933
sg27
Nsba(ibclass
BInstr
p1934
(dp1935
g2
Nsg17
S'mov     eax, [eax+4]'
p1936
sg19
S'8b4004'
p1937
sg21
Vmov eax, dword ptr [eax + 4]
p1938
sg5
L135373395L
sg6
Nsg23
S'mov'
p1939
sg25
S'0x811a253L'
p1940
sg27
Nsba(ibclass
BInstr
p1941
(dp1942
g2
Nsg17
S'mov     dword ptr [esp+14h], 0; ctx'
p1943
sg19
S'c744241400000000'
p1944
sg21
Vmov dword ptr [esp + 0x14], 0
p1945
sg5
L135373398L
sg6
Nsg23
S'mov'
p1946
sg25
S'0x811a256L'
p1947
sg27
Nsba(ibclass
BInstr
p1948
(dp1949
g2
Nsg17
S'mov     dword ptr [esp+10h], 0; p_scalar'
p1950
sg19
S'c744241000000000'
p1951
sg21
Vmov dword ptr [esp + 0x10], 0
p1952
sg5
L135373406L
sg6
Nsg23
S'mov'
p1953
sg25
S'0x811a25eL'
p1954
sg27
Nsba(ibclass
BInstr
p1955
(dp1956
g2
Nsg17
S'mov     dword ptr [esp+0Ch], 0; point'
p1957
sg19
S'c744240c00000000'
p1958
sg21
Vmov dword ptr [esp + 0xc], 0
p1959
sg5
L135373414L
sg6
Nsg23
S'mov'
p1960
sg25
S'0x811a266L'
p1961
sg27
Nsba(ibclass
BInstr
p1962
(dp1963
g2
Nsg17
S'mov     [esp+8], ecx    ; g_scalar'
p1964
sg19
S'894c2408'
p1965
sg21
Vmov dword ptr [esp + 8], ecx
p1966
sg5
L135373422L
sg6
Nsg23
S'mov'
p1967
sg25
S'0x811a26eL'
p1968
sg27
Nsba(ibclass
BInstr
p1969
(dp1970
g2
Nsg17
S'mov     [esp+4], edx    ; r'
p1971
sg19
S'89542404'
p1972
sg21
Vmov dword ptr [esp + 4], edx
p1973
sg5
L135373426L
sg6
Nsg23
S'mov'
p1974
sg25
S'0x811a272L'
p1975
sg27
Nsba(ibclass
BInstr
p1976
(dp1977
g2
Nsg17
S'mov     [esp], eax      ; group'
p1978
sg19
S'890424'
p1979
sg21
Vmov dword ptr [esp], eax
p1980
sg5
L135373430L
sg6
Nsg23
S'mov'
p1981
sg25
S'0x811a276L'
p1982
sg27
Nsba(ibclass
BInstr
p1983
(dp1984
g2
Nsg17
S'call    EC_POINT_mul'
p1985
sg19
S'e8eeb1ffff'
p1986
sg21
Vcall 0xffffb1f3
p1987
sg5
L135373433L
sg6
Nsg23
S'call'
p1988
sg25
S'0x811a279L'
p1989
sg27
Nsba(ibclass
BInstr
p1990
(dp1991
g2
Nsg17
S'test    eax, eax'
p1992
sg19
S'85c0'
p1993
sg21
Vtest eax, eax
p1994
sg5
L135373438L
sg6
Nsg23
S'test'
p1995
sg25
S'0x811a27eL'
p1996
sg27
Nsba(ibclass
BInstr
p1997
(dp1998
g2
Nsg17
S'jnz     short loc_811A2B0'
p1999
sg19
S'752e'
p2000
sg21
Vjne 0x30
p2001
sg5
L135373440L
sg6
Nsg23
S'jnz'
p2002
sg25
S'0x811a280L'
p2003
sg27
Nsbasg147
(lp2004
Vmov eax, mem
p2005
aVmov ecx, mem
p2006
aVmov eax, mem
p2007
aVmov edx, mem
p2008
aVmov eax, mem
p2009
aVmov eax, mem
p2010
aVmov mem, 0
p2011
aVmov mem, 0
p2012
aVmov mem, 0
p2013
aVmov mem, ecx
p2014
aVmov mem, edx
p2015
aVmov mem, eax
p2016
aVcall address
p2017
ag1994
aVjne address
p2018
asg165
Nsg5
S'0x811a244L'
p2019
sg167
(lp2020
S'0x811a16eL'
p2021
asg6
Nsg169
(lp2022
S'0x811a282L'
p2023
aS'0x811a2b0L'
p2024
asg173
Nsg174
Nsg175
S'aa9e76bec4f884c5fa2d581e75f893de'
p2025
sg177
S'ba6b0929940916f0cc1366d5115146a5'
p2026
sg179
(lp2027
g1904
ag1911
ag1918
ag1925
ag1932
ag1939
ag1946
ag1953
ag1960
ag1967
ag1974
ag1981
ag1988
ag1995
ag2002
asg181
Nsba(ibclass
BBasicBlock
p2028
(dp2029
g12
Nsg13
(lp2030
(ibclass
BInstr
p2031
(dp2032
g2
Nsg17
S'mov     dword ptr [esp+10h], 445h; line'
p2033
sg19
S'c744241045040000'
p2034
sg21
Vmov dword ptr [esp + 0x10], 0x445
p2035
sg5
L135373442L
sg6
Nsg23
S'mov'
p2036
sg25
S'0x811a282L'
p2037
sg27
Nsba(ibclass
BInstr
p2038
(dp2039
g2
Nsg17
S'mov     dword ptr [esp+0Ch], offset aEc_asn1_c; "ec_asn1.c"'
p2040
sg19
S'c744240c20222308'
p2041
sg21
Vmov dword ptr [esp + 0xc], 0x8232220
p2042
sg5
L135373450L
sg6
Nsg23
S'mov'
p2043
sg25
S'0x811a28aL'
p2044
sg27
Nsba(ibclass
BInstr
p2045
(dp2046
g2
Nsg17
S'mov     dword ptr [esp+8], 10h; reason'
p2047
sg19
S'c744240810000000'
p2048
sg21
Vmov dword ptr [esp + 8], 0x10
p2049
sg5
L135373458L
sg6
Nsg23
S'mov'
p2050
sg25
S'0x811a292L'
p2051
sg27
Nsba(ibclass
BInstr
p2052
(dp2053
g2
Nsg17
S'mov     dword ptr [esp+4], 92h; func'
p2054
sg19
S'c744240492000000'
p2055
sg21
Vmov dword ptr [esp + 4], 0x92
p2056
sg5
L135373466L
sg6
Nsg23
S'mov'
p2057
sg25
S'0x811a29aL'
p2058
sg27
Nsba(ibclass
BInstr
p2059
(dp2060
g2
Nsg17
S'mov     dword ptr [esp], 10h; lib'
p2061
sg19
S'c7042410000000'
p2062
sg21
Vmov dword ptr [esp], 0x10
p2063
sg5
L135373474L
sg6
Nsg23
S'mov'
p2064
sg25
S'0x811a2a2L'
p2065
sg27
Nsba(ibclass
BInstr
p2066
(dp2067
g2
Nsg17
S'call    ERR_put_error'
p2068
sg19
S'e8ebe60100'
p2069
sg21
Vcall 0x1e6f0
p2070
sg5
L135373481L
sg6
Nsg23
S'call'
p2071
sg25
S'0x811a2a9L'
p2072
sg27
Nsba(ibclass
BInstr
p2073
(dp2074
g2
Nsg17
S'jmp     short err'
p2075
sg19
S'eb2e'
p2076
sg21
Vjmp 0x30
p2077
sg5
L135373486L
sg6
Nsg23
S'jmp'
p2078
sg25
S'0x811a2aeL'
p2079
sg27
Nsbasg147
(lp2080
Vmov mem, address
p2081
aVmov mem, address
p2082
aVmov mem, address
p2083
aVmov mem, address
p2084
aVmov mem, address
p2085
aVcall address
p2086
aVjmp address
p2087
asg165
Nsg5
S'0x811a282L'
p2088
sg167
(lp2089
S'0x811a244L'
p2090
asg6
Nsg169
(lp2091
S'0x811a2deL'
p2092
asg173
Nsg174
Nsg175
S'a76a0a3b827ea6cd402bf72e182d1d25'
p2093
sg177
S'5c79c7459a4742ab4e6fe5fb7b7e4c8d'
p2094
sg179
(lp2095
g2036
ag2043
ag2050
ag2057
ag2064
ag2071
ag2078
asg181
Nsba(ibclass
BBasicBlock
p2096
(dp2097
g12
Nsg13
(lp2098
(ibclass
BInstr
p2099
(dp2100
g2
Nsg17
S'mov     eax, [ebp+ret]'
p2101
sg19
S'8b45e8'
p2102
sg21
Vmov eax, dword ptr [ebp - 0x18]
p2103
sg5
L135373488L
sg6
Nsg23
S'mov'
p2104
sg25
S'0x811a2b0L'
p2105
sg27
Nsba(ibclass
BInstr
p2106
(dp2107
g2
Nsg17
S'mov     eax, [eax+10h]'
p2108
sg19
S'8b4010'
p2109
sg21
Vmov eax, dword ptr [eax + 0x10]
p2110
sg5
L135373491L
sg6
Nsg23
S'mov'
p2111
sg25
S'0x811a2b3L'
p2112
sg27
Nsba(ibclass
BInstr
p2113
(dp2114
g2
Nsg17
S'or      eax, 2'
p2115
sg19
S'83c802'
p2116
sg21
Vor eax, 2
p2117
sg5
L135373494L
sg6
Nsg23
S'or'
p2118
sg25
S'0x811a2b6L'
p2119
sg27
Nsba(ibclass
BInstr
p2120
(dp2121
g2
Nsg17
S'mov     edx, eax'
p2122
sg19
S'89c2'
p2123
sg21
Vmov edx, eax
p2124
sg5
L135373497L
sg6
Nsg23
S'mov'
p2125
sg25
S'0x811a2b9L'
p2126
sg27
Nsba(ibclass
BInstr
p2127
(dp2128
g2
Nsg17
S'mov     eax, [ebp+ret]'
p2129
sg19
S'8b45e8'
p2130
sg21
Vmov eax, dword ptr [ebp - 0x18]
p2131
sg5
L135373499L
sg6
Nsg23
S'mov'
p2132
sg25
S'0x811a2bbL'
p2133
sg27
Nsba(ibclass
BInstr
p2134
(dp2135
g2
Nsg17
S'mov     [eax+10h], edx'
p2136
sg19
S'895010'
p2137
sg21
Vmov dword ptr [eax + 0x10], edx
p2138
sg5
L135373502L
sg6
Nsg23
S'mov'
p2139
sg25
S'0x811a2beL'
p2140
sg27
Nsbasg147
(lp2141
Vmov eax, mem
p2142
aVmov eax, mem
p2143
ag2117
ag2124
aVmov eax, mem
p2144
aVmov mem, edx
p2145
asg165
Nsg5
S'0x811a2b0L'
p2146
sg167
(lp2147
S'0x811a244L'
p2148
asg6
Nsg169
(lp2149
S'0x811a2c1L'
p2150
asg173
Nsg174
Nsg175
S'404664b14f148a8caec2565a014bc27e'
p2151
sg177
S'bd6e68c302d7f436885ca4cdee1fce1f'
p2152
sg179
(lp2153
g2104
ag2111
ag2118
ag2125
ag2132
ag2139
asg181
Nsba(ibclass
BBasicBlock
p2154
(dp2155
g12
Nsg13
(lp2156
(ibclass
BInstr
p2157
(dp2158
g2
Nsg17
S'cmp     [ebp+a], 0'
p2159
sg19
S'837d0800'
p2160
sg21
Vcmp dword ptr [ebp + 8], 0
p2161
sg5
L135373505L
sg6
Nsg23
S'cmp'
p2162
sg25
S'0x811a2c1L'
p2163
sg27
Nsba(ibclass
BInstr
p2164
(dp2165
g2
Nsg17
S'jz      short loc_811A2CF'
p2166
sg19
S'7408'
p2167
sg21
Vje 0xa
p2168
sg5
L135373509L
sg6
Nsg23
S'jz'
p2169
sg25
S'0x811a2c5L'
p2170
sg27
Nsbasg147
(lp2171
Vcmp mem, 0
p2172
aVje address
p2173
asg165
Nsg5
S'0x811a2c1L'
p2174
sg167
(lp2175
S'0x811a242L'
p2176
aS'0x811a2b0L'
p2177
asg6
Nsg169
(lp2178
S'0x811a2c7L'
p2179
aS'0x811a2cfL'
p2180
asg173
Nsg174
Nsg175
S'613dbc2b0cb9d6264d802b24d709daea'
p2181
sg177
S'bdc7ec577d63971d81398660f533a2e0'
p2182
sg179
(lp2183
g2162
ag2169
asg181
Nsba(ibclass
BBasicBlock
p2184
(dp2185
g12
Nsg13
(lp2186
(ibclass
BInstr
p2187
(dp2188
g2
Nsg17
S'mov     eax, [ebp+a]'
p2189
sg19
S'8b4508'
p2190
sg21
Vmov eax, dword ptr [ebp + 8]
p2191
sg5
L135373511L
sg6
Nsg23
S'mov'
p2192
sg25
S'0x811a2c7L'
p2193
sg27
Nsba(ibclass
BInstr
p2194
(dp2195
g2
Nsg17
S'mov     edx, [ebp+ret]'
p2196
sg19
S'8b55e8'
p2197
sg21
Vmov edx, dword ptr [ebp - 0x18]
p2198
sg5
L135373514L
sg6
Nsg23
S'mov'
p2199
sg25
S'0x811a2caL'
p2200
sg27
Nsba(ibclass
BInstr
p2201
(dp2202
g2
Nsg17
S'mov     [eax], edx'
p2203
sg19
S'8910'
p2204
sg21
Vmov dword ptr [eax], edx
p2205
sg5
L135373517L
sg6
Nsg23
S'mov'
p2206
sg25
S'0x811a2cdL'
p2207
sg27
Nsbasg147
(lp2208
Vmov eax, mem
p2209
aVmov edx, mem
p2210
aVmov mem, edx
p2211
asg165
Nsg5
S'0x811a2c7L'
p2212
sg167
(lp2213
S'0x811a2c1L'
p2214
asg6
Nsg169
(lp2215
S'0x811a2cfL'
p2216
asg173
Nsg174
Nsg175
S'9eccc8b14ee1489d7c3de99648417ffe'
p2217
sg177
S'f189e5330cbced4d0a471366297e8b29'
p2218
sg179
(lp2219
g2192
ag2199
ag2206
asg181
Nsba(ibclass
BBasicBlock
p2220
(dp2221
g12
Nsg13
(lp2222
(ibclass
BInstr
p2223
(dp2224
g2
Nsg17
S'mov     edx, [ebp+p]'
p2225
sg19
S'8b55e0'
p2226
sg21
Vmov edx, dword ptr [ebp - 0x20]
p2227
sg5
L135373519L
sg6
Nsg23
S'mov'
p2228
sg25
S'0x811a2cfL'
p2229
sg27
Nsba(ibclass
BInstr
p2230
(dp2231
g2
Nsg17
S'mov     eax, [ebp+in]'
p2232
sg19
S'8b450c'
p2233
sg21
Vmov eax, dword ptr [ebp + 0xc]
p2234
sg5
L135373522L
sg6
Nsg23
S'mov'
p2235
sg25
S'0x811a2d2L'
p2236
sg27
Nsba(ibclass
BInstr
p2237
(dp2238
g2
Nsg17
S'mov     [eax], edx'
p2239
sg19
S'8910'
p2240
sg21
Vmov dword ptr [eax], edx
p2241
sg5
L135373525L
sg6
Nsg23
S'mov'
p2242
sg25
S'0x811a2d5L'
p2243
sg27
Nsba(ibclass
BInstr
p2244
(dp2245
g2
Nsg17
S'mov     [ebp+ok], 1'
p2246
sg19
S'c745e401000000'
p2247
sg21
Vmov dword ptr [ebp - 0x1c], 1
p2248
sg5
L135373527L
sg6
Nsg23
S'mov'
p2249
sg25
S'0x811a2d7L'
p2250
sg27
Nsbasg147
(lp2251
Vmov edx, mem
p2252
aVmov eax, mem
p2253
aVmov mem, edx
p2254
aVmov mem, 1
p2255
asg165
Nsg5
S'0x811a2cfL'
p2256
sg167
(lp2257
S'0x811a2c1L'
p2258
aS'0x811a2c7L'
p2259
asg6
Nsg169
(lp2260
S'0x811a2deL'
p2261
asg173
Nsg174
Nsg175
S'a7ed50a6d28be8041222ce9aca64dd18'
p2262
sg177
S'b0804c08716522a98ce2ddedcee5a55c'
p2263
sg179
(lp2264
g2228
ag2235
ag2242
ag2249
asg181
Nsba(ibclass
BBasicBlock
p2265
(dp2266
g12
Nsg13
(lp2267
(ibclass
BInstr
p2268
(dp2269
g2
Nsg17
S'cmp     [ebp+ok], 0'
p2270
sg19
S'837de400'
p2271
sg21
Vcmp dword ptr [ebp - 0x1c], 0
p2272
sg5
L135373534L
sg6
Nsg23
S'cmp'
p2273
sg25
S'0x811a2deL'
p2274
sg27
Nsba(ibclass
BInstr
p2275
(dp2276
g2
Nsg17
S'jnz     short loc_811A30C'
p2277
sg19
S'7528'
p2278
sg21
Vjne 0x2a
p2279
sg5
L135373538L
sg6
Nsg23
S'jnz'
p2280
sg25
S'0x811a2e2L'
p2281
sg27
Nsbasg147
(lp2282
Vcmp mem, 0
p2283
aVjne address
p2284
asg165
Nsg5
S'0x811a2deL'
p2285
sg167
(lp2286
S'0x8119faeL'
p2287
aS'0x811a029L'
p2288
aS'0x811a0a5L'
p2289
aS'0x811a0d6L'
p2290
aS'0x811a13dL'
p2291
aS'0x811a199L'
p2292
aS'0x811a211L'
p2293
aS'0x811a282L'
p2294
aS'0x811a2cfL'
p2295
asg6
Nsg169
(lp2296
S'0x811a2e4L'
p2297
aS'0x811a30cL'
p2298
asg173
Nsg174
Nsg175
S'30cb3d6f6a174adfabcde507f6944a52'
p2299
sg177
S'ac6a5deb49a2d2e7162632941da7e135'
p2300
sg179
(lp2301
g2273
ag2280
asg181
Nsba(ibclass
BBasicBlock
p2302
(dp2303
g12
Nsg13
(lp2304
(ibclass
BInstr
p2305
(dp2306
g2
Nsg17
S'cmp     [ebp+ret], 0'
p2307
sg19
S'837de800'
p2308
sg21
Vcmp dword ptr [ebp - 0x18], 0
p2309
sg5
L135373540L
sg6
Nsg23
S'cmp'
p2310
sg25
S'0x811a2e4L'
p2311
sg27
Nsba(ibclass
BInstr
p2312
(dp2313
g2
Nsg17
S'jz      short loc_811A305'
p2314
sg19
S'741b'
p2315
sg21
Vje 0x1d
p2316
sg5
L135373544L
sg6
Nsg23
S'jz'
p2317
sg25
S'0x811a2e8L'
p2318
sg27
Nsbasg147
(lp2319
Vcmp mem, 0
p2320
aVje address
p2321
asg165
Nsg5
S'0x811a2e4L'
p2322
sg167
(lp2323
S'0x811a2deL'
p2324
asg6
Nsg169
(lp2325
S'0x811a2eaL'
p2326
aS'0x811a305L'
p2327
asg173
Nsg174
Nsg175
S'613dbc2b0cb9d6264d802b24d709daea'
p2328
sg177
S'bdc7ec577d63971d81398660f533a2e0'
p2329
sg179
(lp2330
g2310
ag2317
asg181
Nsba(ibclass
BBasicBlock
p2331
(dp2332
g12
Nsg13
(lp2333
(ibclass
BInstr
p2334
(dp2335
g2
Nsg17
S'cmp     [ebp+a], 0'
p2336
sg19
S'837d0800'
p2337
sg21
Vcmp dword ptr [ebp + 8], 0
p2338
sg5
L135373546L
sg6
Nsg23
S'cmp'
p2339
sg25
S'0x811a2eaL'
p2340
sg27
Nsba(ibclass
BInstr
p2341
(dp2342
g2
Nsg17
S'jz      short loc_811A2FA'
p2343
sg19
S'740a'
p2344
sg21
Vje 0xc
p2345
sg5
L135373550L
sg6
Nsg23
S'jz'
p2346
sg25
S'0x811a2eeL'
p2347
sg27
Nsbasg147
(lp2348
Vcmp mem, 0
p2349
aVje address
p2350
asg165
Nsg5
S'0x811a2eaL'
p2351
sg167
(lp2352
S'0x811a2e4L'
p2353
asg6
Nsg169
(lp2354
S'0x811a2f0L'
p2355
aS'0x811a2faL'
p2356
asg173
Nsg174
Nsg175
S'613dbc2b0cb9d6264d802b24d709daea'
p2357
sg177
S'bdc7ec577d63971d81398660f533a2e0'
p2358
sg179
(lp2359
g2339
ag2346
asg181
Nsba(ibclass
BBasicBlock
p2360
(dp2361
g12
Nsg13
(lp2362
(ibclass
BInstr
p2363
(dp2364
g2
Nsg17
S'mov     eax, [ebp+a]'
p2365
sg19
S'8b4508'
p2366
sg21
Vmov eax, dword ptr [ebp + 8]
p2367
sg5
L135373552L
sg6
Nsg23
S'mov'
p2368
sg25
S'0x811a2f0L'
p2369
sg27
Nsba(ibclass
BInstr
p2370
(dp2371
g2
Nsg17
S'mov     eax, [eax]'
p2372
sg19
S'8b00'
p2373
sg21
Vmov eax, dword ptr [eax]
p2374
sg5
L135373555L
sg6
Nsg23
S'mov'
p2375
sg25
S'0x811a2f3L'
p2376
sg27
Nsba(ibclass
BInstr
p2377
(dp2378
g2
Nsg17
S'cmp     eax, [ebp+ret]'
p2379
sg19
S'3b45e8'
p2380
sg21
Vcmp eax, dword ptr [ebp - 0x18]
p2381
sg5
L135373557L
sg6
Nsg23
S'cmp'
p2382
sg25
S'0x811a2f5L'
p2383
sg27
Nsba(ibclass
BInstr
p2384
(dp2385
g2
Nsg17
S'jz      short loc_811A305'
p2386
sg19
S'740b'
p2387
sg21
Vje 0xd
p2388
sg5
L135373560L
sg6
Nsg23
S'jz'
p2389
sg25
S'0x811a2f8L'
p2390
sg27
Nsbasg147
(lp2391
Vmov eax, mem
p2392
aVmov eax, mem
p2393
aVcmp eax, mem
p2394
aVje address
p2395
asg165
Nsg5
S'0x811a2f0L'
p2396
sg167
(lp2397
S'0x811a2eaL'
p2398
asg6
Nsg169
(lp2399
S'0x811a2faL'
p2400
aS'0x811a305L'
p2401
asg173
Nsg174
Nsg175
S'db7f0dec7b6480d765a2fb1483cb9e16'
p2402
sg177
S'054975530af87116754597626dc6d868'
p2403
sg179
(lp2404
g2368
ag2375
ag2382
ag2389
asg181
Nsba(ibclass
BBasicBlock
p2405
(dp2406
g12
Nsg13
(lp2407
(ibclass
BInstr
p2408
(dp2409
g2
Nsg17
S'mov     eax, [ebp+ret]'
p2410
sg19
S'8b45e8'
p2411
sg21
Vmov eax, dword ptr [ebp - 0x18]
p2412
sg5
L135373562L
sg6
Nsg23
S'mov'
p2413
sg25
S'0x811a2faL'
p2414
sg27
Nsba(ibclass
BInstr
p2415
(dp2416
g2
Nsg17
S'mov     [esp], eax      ; r'
p2417
sg19
S'890424'
p2418
sg21
Vmov dword ptr [esp], eax
p2419
sg5
L135373565L
sg6
Nsg23
S'mov'
p2420
sg25
S'0x811a2fdL'
p2421
sg27
Nsba(ibclass
BInstr
p2422
(dp2423
g2
Nsg17
S'call    EC_KEY_free'
p2424
sg19
S'e8090b0000'
p2425
sg21
Vcall 0xb0e
p2426
sg5
L135373568L
sg6
Nsg23
S'call'
p2427
sg25
S'0x811a300L'
p2428
sg27
Nsbasg147
(lp2429
Vmov eax, mem
p2430
aVmov mem, eax
p2431
aVcall address
p2432
asg165
Nsg5
S'0x811a2faL'
p2433
sg167
(lp2434
S'0x811a2eaL'
p2435
aS'0x811a2f0L'
p2436
asg6
Nsg169
(lp2437
S'0x811a305L'
p2438
asg173
Nsg174
Nsg175
S'0bf1a79a6a1155c5085c1c85d6d83d05'
p2439
sg177
S'5af7f5bfd15310706e43fa164fed7a71'
p2440
sg179
(lp2441
g2413
ag2420
ag2427
asg181
Nsba(ibclass
BBasicBlock
p2442
(dp2443
g12
Nsg13
(lp2444
(ibclass
BInstr
p2445
(dp2446
g2
Nsg17
S'mov     [ebp+ret], 0'
p2447
sg19
S'c745e800000000'
p2448
sg21
Vmov dword ptr [ebp - 0x18], 0
p2449
sg5
L135373573L
sg6
Nsg23
S'mov'
p2450
sg25
S'0x811a305L'
p2451
sg27
Nsbasg147
(lp2452
Vmov mem, 0
p2453
asg165
Nsg5
S'0x811a305L'
p2454
sg167
(lp2455
S'0x811a2e4L'
p2456
aS'0x811a2f0L'
p2457
aS'0x811a2faL'
p2458
asg6
Nsg169
(lp2459
S'0x811a30cL'
p2460
asg173
Nsg174
Nsg175
S'96a4a0e6e9ac88756a0fcba989d0a844'
p2461
sg177
S'de0bb209f421163e523f24128b669bdf'
p2462
sg179
(lp2463
g2450
asg181
Nsba(ibclass
BBasicBlock
p2464
(dp2465
g12
Nsg13
(lp2466
(ibclass
BInstr
p2467
(dp2468
g2
Nsg17
S'cmp     [ebp+priv_key], 0'
p2469
sg19
S'837dec00'
p2470
sg21
Vcmp dword ptr [ebp - 0x14], 0
p2471
sg5
L135373580L
sg6
Nsg23
S'cmp'
p2472
sg25
S'0x811a30cL'
p2473
sg27
Nsba(ibclass
BInstr
p2474
(dp2475
g2
Nsg17
S'jz      short loc_811A31D'
p2476
sg19
S'740b'
p2477
sg21
Vje 0xd
p2478
sg5
L135373584L
sg6
Nsg23
S'jz'
p2479
sg25
S'0x811a310L'
p2480
sg27
Nsbasg147
(lp2481
Vcmp mem, 0
p2482
aVje address
p2483
asg165
Nsg5
S'0x811a30cL'
p2484
sg167
(lp2485
S'0x811a2deL'
p2486
aS'0x811a305L'
p2487
asg6
Nsg169
(lp2488
S'0x811a312L'
p2489
aS'0x811a31dL'
p2490
asg173
Nsg174
Nsg175
S'613dbc2b0cb9d6264d802b24d709daea'
p2491
sg177
S'bdc7ec577d63971d81398660f533a2e0'
p2492
sg179
(lp2493
g2472
ag2479
asg181
Nsba(ibclass
BBasicBlock
p2494
(dp2495
g12
Nsg13
(lp2496
(ibclass
BInstr
p2497
(dp2498
g2
Nsg17
S'mov     eax, [ebp+priv_key]'
p2499
sg19
S'8b45ec'
p2500
sg21
Vmov eax, dword ptr [ebp - 0x14]
p2501
sg5
L135373586L
sg6
Nsg23
S'mov'
p2502
sg25
S'0x811a312L'
p2503
sg27
Nsba(ibclass
BInstr
p2504
(dp2505
g2
Nsg17
S'mov     [esp], eax      ; a'
p2506
sg19
S'890424'
p2507
sg21
Vmov dword ptr [esp], eax
p2508
sg5
L135373589L
sg6
Nsg23
S'mov'
p2509
sg25
S'0x811a315L'
p2510
sg27
Nsba(ibclass
BInstr
p2511
(dp2512
g2
Nsg17
S'call    EC_PRIVATEKEY_free'
p2513
sg19
S'e82adeffff'
p2514
sg21
Vcall 0xffffde2f
p2515
sg5
L135373592L
sg6
Nsg23
S'call'
p2516
sg25
S'0x811a318L'
p2517
sg27
Nsbasg147
(lp2518
Vmov eax, mem
p2519
aVmov mem, eax
p2520
aVcall address
p2521
asg165
Nsg5
S'0x811a312L'
p2522
sg167
(lp2523
S'0x811a30cL'
p2524
asg6
Nsg169
(lp2525
S'0x811a31dL'
p2526
asg173
Nsg174
Nsg175
S'0bf1a79a6a1155c5085c1c85d6d83d05'
p2527
sg177
S'5af7f5bfd15310706e43fa164fed7a71'
p2528
sg179
(lp2529
g2502
ag2509
ag2516
asg181
Nsba(ibclass
BBasicBlock
p2530
(dp2531
g12
Nsg13
(lp2532
(ibclass
BInstr
p2533
(dp2534
g2
Nsg17
S'mov     eax, [ebp+ret]'
p2535
sg19
S'8b45e8'
p2536
sg21
Vmov eax, dword ptr [ebp - 0x18]
p2537
sg5
L135373597L
sg6
Nsg23
S'mov'
p2538
sg25
S'0x811a31dL'
p2539
sg27
Nsbasg147
(lp2540
Vmov eax, mem
p2541
asg165
Nsg5
S'0x811a31dL'
p2542
sg167
(lp2543
S'0x811a30cL'
p2544
aS'0x811a312L'
p2545
asg6
Nsg169
(lp2546
S'0x811a320L'
p2547
asg173
Nsg174
Nsg175
S'96a4a0e6e9ac88756a0fcba989d0a844'
p2548
sg177
S'da3a10212e6b688447f8e74c20e21f06'
p2549
sg179
(lp2550
g2538
asg181
Nsba(ibclass
BBasicBlock
p2551
(dp2552
g12
Nsg13
(lp2553
(ibclass
BInstr
p2554
(dp2555
g2
Nsg17
S'leave'
p2556
sg19
S'c9'
p2557
sg21
Vleave 
p2558
sg5
L135373600L
sg6
Nsg23
S'leave'
p2559
sg25
S'0x811a320L'
p2560
sg27
Nsba(ibclass
BInstr
p2561
(dp2562
g2
Nsg17
S'retn'
p2563
sg19
S'c3'
p2564
sg21
Vret 
p2565
sg5
L135373601L
sg6
Nsg23
S'retn'
p2566
sg25
S'0x811a321L'
p2567
sg27
Nsbasg147
(lp2568
Vleave
p2569
aVret
p2570
asg165
Nsg5
S'0x811a320L'
p2571
sg167
(lp2572
S'0x8119f5bL'
p2573
aS'0x811a31dL'
p2574
asg6
Nsg169
(lp2575
sg173
Nsg174
Nsg175
S'08c78f73a6f87c85da88b2982f54ce2a'
p2576
sg177
S'393fee3c9fb1d26424d4b7704918e387'
p2577
sg179
(lp2578
g2559
ag2566
asg181
Nsbasb.