(ibclass
BFunc
p0
(dp1
S'hash'
p2
NsS'name'
p3
S'dtls1_preprocess_fragment'
p4
sS'start_address'
p5
L135038226L
sS'flag'
p6
NsS'program'
p7
NsS'bbs'
p8
(lp9
(ibclass
BBasicBlock
p10
(dp11
S'function'
p12
NsS'binstrs'
p13
(lp14
(ibclass
BInstr
p15
(dp16
g2
NsS'disasm'
p17
S'push    ebp'
p18
sS'bytes'
p19
S'55'
p20
sS'disasm_striped'
p21
Vpush ebp
p22
sg5
L135038226L
sg6
NsS'mnem'
p23
S'push'
p24
sS'address'
p25
S'0x80c8512L'
p26
sS'basicblock'
p27
Nsba(ibclass
BInstr
p28
(dp29
g2
Nsg17
S'mov     ebp, esp'
p30
sg19
S'89e5'
p31
sg21
Vmov ebp, esp
p32
sg5
L135038227L
sg6
Nsg23
S'mov'
p33
sg25
S'0x80c8513L'
p34
sg27
Nsba(ibclass
BInstr
p35
(dp36
g2
Nsg17
S'sub     esp, 38h'
p37
sg19
S'83ec38'
p38
sg21
Vsub esp, 0x38
p39
sg5
L135038229L
sg6
Nsg23
S'sub'
p40
sg25
S'0x80c8515L'
p41
sg27
Nsba(ibclass
BInstr
p42
(dp43
g2
Nsg17
S'mov     eax, [ebp+msg_hdr]'
p44
sg19
S'8b450c'
p45
sg21
Vmov eax, dword ptr [ebp + 0xc]
p46
sg5
L135038232L
sg6
Nsg23
S'mov'
p47
sg25
S'0x80c8518L'
p48
sg27
Nsba(ibclass
BInstr
p49
(dp50
g2
Nsg17
S'mov     eax, [eax+4]'
p51
sg19
S'8b4004'
p52
sg21
Vmov eax, dword ptr [eax + 4]
p53
sg5
L135038235L
sg6
Nsg23
S'mov'
p54
sg25
S'0x80c851bL'
p55
sg27
Nsba(ibclass
BInstr
p56
(dp57
g2
Nsg17
S'mov     [ebp+msg_len], eax'
p58
sg19
S'8945ec'
p59
sg21
Vmov dword ptr [ebp - 0x14], eax
p60
sg5
L135038238L
sg6
Nsg23
S'mov'
p61
sg25
S'0x80c851eL'
p62
sg27
Nsba(ibclass
BInstr
p63
(dp64
g2
Nsg17
S'mov     eax, [ebp+msg_hdr]'
p65
sg19
S'8b450c'
p66
sg21
Vmov eax, dword ptr [ebp + 0xc]
p67
sg5
L135038241L
sg6
Nsg23
S'mov'
p68
sg25
S'0x80c8521L'
p69
sg27
Nsba(ibclass
BInstr
p70
(dp71
g2
Nsg17
S'mov     eax, [eax+0Ch]'
p72
sg19
S'8b400c'
p73
sg21
Vmov eax, dword ptr [eax + 0xc]
p74
sg5
L135038244L
sg6
Nsg23
S'mov'
p75
sg25
S'0x80c8524L'
p76
sg27
Nsba(ibclass
BInstr
p77
(dp78
g2
Nsg17
S'mov     [ebp+frag_off], eax'
p79
sg19
S'8945f0'
p80
sg21
Vmov dword ptr [ebp - 0x10], eax
p81
sg5
L135038247L
sg6
Nsg23
S'mov'
p82
sg25
S'0x80c8527L'
p83
sg27
Nsba(ibclass
BInstr
p84
(dp85
g2
Nsg17
S'mov     eax, [ebp+msg_hdr]'
p86
sg19
S'8b450c'
p87
sg21
Vmov eax, dword ptr [ebp + 0xc]
p88
sg5
L135038250L
sg6
Nsg23
S'mov'
p89
sg25
S'0x80c852aL'
p90
sg27
Nsba(ibclass
BInstr
p91
(dp92
g2
Nsg17
S'mov     eax, [eax+10h]'
p93
sg19
S'8b4010'
p94
sg21
Vmov eax, dword ptr [eax + 0x10]
p95
sg5
L135038253L
sg6
Nsg23
S'mov'
p96
sg25
S'0x80c852dL'
p97
sg27
Nsba(ibclass
BInstr
p98
(dp99
g2
Nsg17
S'mov     [ebp+frag_len], eax'
p100
sg19
S'8945f4'
p101
sg21
Vmov dword ptr [ebp - 0xc], eax
p102
sg5
L135038256L
sg6
Nsg23
S'mov'
p103
sg25
S'0x80c8530L'
p104
sg27
Nsba(ibclass
BInstr
p105
(dp106
g2
Nsg17
S'mov     eax, [ebp+frag_len]'
p107
sg19
S'8b45f4'
p108
sg21
Vmov eax, dword ptr [ebp - 0xc]
p109
sg5
L135038259L
sg6
Nsg23
S'mov'
p110
sg25
S'0x80c8533L'
p111
sg27
Nsba(ibclass
BInstr
p112
(dp113
g2
Nsg17
S'mov     edx, [ebp+frag_off]'
p114
sg19
S'8b55f0'
p115
sg21
Vmov edx, dword ptr [ebp - 0x10]
p116
sg5
L135038262L
sg6
Nsg23
S'mov'
p117
sg25
S'0x80c8536L'
p118
sg27
Nsba(ibclass
BInstr
p119
(dp120
g2
Nsg17
S'add     eax, edx'
p121
sg19
S'01d0'
p122
sg21
Vadd eax, edx
p123
sg5
L135038265L
sg6
Nsg23
S'add'
p124
sg25
S'0x80c8539L'
p125
sg27
Nsba(ibclass
BInstr
p126
(dp127
g2
Nsg17
S'cmp     eax, [ebp+msg_len]'
p128
sg19
S'3b45ec'
p129
sg21
Vcmp eax, dword ptr [ebp - 0x14]
p130
sg5
L135038267L
sg6
Nsg23
S'cmp'
p131
sg25
S'0x80c853bL'
p132
sg27
Nsba(ibclass
BInstr
p133
(dp134
g2
Nsg17
S'jbe     short loc_80C8576'
p135
sg19
S'7636'
p136
sg21
Vjbe 0x38
p137
sg5
L135038270L
sg6
Nsg23
S'jbe'
p138
sg25
S'0x80c853eL'
p139
sg27
NsbasS'disasm_list'
p140
(lp141
g22
ag32
aVsub esp, address
p142
aVmov eax, mem
p143
aVmov eax, mem
p144
aVmov mem, eax
p145
aVmov eax, mem
p146
aVmov eax, mem
p147
aVmov mem, eax
p148
aVmov eax, mem
p149
aVmov eax, mem
p150
aVmov mem, eax
p151
aVmov eax, mem
p152
aVmov edx, mem
p153
ag123
aVcmp eax, mem
p154
aVjbe address
p155
asS'end_address'
p156
Nsg5
S'0x80c8512L'
p157
sS'preds'
p158
(lp159
sg6
NsS'succs'
p160
(lp161
S'0x80c8540L'
p162
aS'0x80c8576L'
p163
asS'hash_v3'
p164
NsS'flag_v2'
p165
NsS'hash_v1'
p166
S'edc6b3e5510d5857eee7fe52239881ec'
p167
sS'hash_v2'
p168
S'44c78b700c1f0a12630ae28be0ba22cb'
p169
sS'mnen_list'
p170
(lp171
g24
ag33
ag40
ag47
ag54
ag61
ag68
ag75
ag82
ag89
ag96
ag103
ag110
ag117
ag124
ag131
ag138
asS'neighbour_disasm_list'
p172
Nsba(ibclass
BBasicBlock
p173
(dp174
g12
Nsg13
(lp175
(ibclass
BInstr
p176
(dp177
g2
Nsg17
S'mov     dword ptr [esp+10h], 237h; line'
p178
sg19
S'c744241037020000'
p179
sg21
Vmov dword ptr [esp + 0x10], 0x237
p180
sg5
L135038272L
sg6
Nsg23
S'mov'
p181
sg25
S'0x80c8540L'
p182
sg27
Nsba(ibclass
BInstr
p183
(dp184
g2
Nsg17
S'mov     dword ptr [esp+0Ch], offset aD1_both_c; "d1_both.c"'
p185
sg19
S'c744240c60202108'
p186
sg21
Vmov dword ptr [esp + 0xc], 0x8212060
p187
sg5
L135038280L
sg6
Nsg23
S'mov'
p188
sg25
S'0x80c8548L'
p189
sg27
Nsba(ibclass
BInstr
p190
(dp191
g2
Nsg17
S'mov     dword ptr [esp+8], 98h; reason'
p192
sg19
S'c744240898000000'
p193
sg21
Vmov dword ptr [esp + 8], 0x98
p194
sg5
L135038288L
sg6
Nsg23
S'mov'
p195
sg25
S'0x80c8550L'
p196
sg27
Nsba(ibclass
BInstr
p197
(dp198
g2
Nsg17
S'mov     dword ptr [esp+4], 120h; func'
p199
sg19
S'c744240420010000'
p200
sg21
Vmov dword ptr [esp + 4], 0x120
p201
sg5
L135038296L
sg6
Nsg23
S'mov'
p202
sg25
S'0x80c8558L'
p203
sg27
Nsba(ibclass
BInstr
p204
(dp205
g2
Nsg17
S'mov     dword ptr [esp], 14h; lib'
p206
sg19
S'c7042414000000'
p207
sg21
Vmov dword ptr [esp], 0x14
p208
sg5
L135038304L
sg6
Nsg23
S'mov'
p209
sg25
S'0x80c8560L'
p210
sg27
Nsba(ibclass
BInstr
p211
(dp212
g2
Nsg17
S'call    ERR_put_error'
p213
sg19
S'e82d040700'
p214
sg21
Vcall 0x70432
p215
sg5
L135038311L
sg6
Nsg23
S'call'
p216
sg25
S'0x80c8567L'
p217
sg27
Nsba(ibclass
BInstr
p218
(dp219
g2
Nsg17
S'mov     eax, 2Fh'
p220
sg19
S'b82f000000'
p221
sg21
Vmov eax, 0x2f
p222
sg5
L135038316L
sg6
Nsg23
S'mov'
p223
sg25
S'0x80c856cL'
p224
sg27
Nsba(ibclass
BInstr
p225
(dp226
g2
Nsg17
S'jmp     locret_80C86C4'
p227
sg19
S'e94e010000'
p228
sg21
Vjmp 0x153
p229
sg5
L135038321L
sg6
Nsg23
S'jmp'
p230
sg25
S'0x80c8571L'
p231
sg27
Nsbasg140
(lp232
Vmov mem, address
p233
aVmov mem, address
p234
aVmov mem, address
p235
aVmov mem, address
p236
aVmov mem, address
p237
aVcall address
p238
aVmov eax, address
p239
aVjmp address
p240
asg156
Nsg5
S'0x80c8540L'
p241
sg158
(lp242
S'0x80c8512L'
p243
asg6
Nsg160
(lp244
S'0x80c86c4L'
p245
asg164
Nsg165
Nsg166
S'd29cf940acec75fa9c4bd8a1e6665750'
p246
sg168
S'fd6b4b67f458598a1addc180c86bc629'
p247
sg170
(lp248
g181
ag188
ag195
ag202
ag209
ag216
ag223
ag230
asg172
Nsba(ibclass
BBasicBlock
p249
(dp250
g12
Nsg13
(lp251
(ibclass
BInstr
p252
(dp253
g2
Nsg17
S'mov     eax, [ebp+frag_len]'
p254
sg19
S'8b45f4'
p255
sg21
Vmov eax, dword ptr [ebp - 0xc]
p256
sg5
L135038326L
sg6
Nsg23
S'mov'
p257
sg25
S'0x80c8576L'
p258
sg27
Nsba(ibclass
BInstr
p259
(dp260
g2
Nsg17
S'mov     edx, [ebp+frag_off]'
p261
sg19
S'8b55f0'
p262
sg21
Vmov edx, dword ptr [ebp - 0x10]
p263
sg5
L135038329L
sg6
Nsg23
S'mov'
p264
sg25
S'0x80c8579L'
p265
sg27
Nsba(ibclass
BInstr
p266
(dp267
g2
Nsg17
S'add     edx, eax'
p268
sg19
S'01c2'
p269
sg21
Vadd edx, eax
p270
sg5
L135038332L
sg6
Nsg23
S'add'
p271
sg25
S'0x80c857cL'
p272
sg27
Nsba(ibclass
BInstr
p273
(dp274
g2
Nsg17
S'mov     eax, [ebp+max]'
p275
sg19
S'8b4510'
p276
sg21
Vmov eax, dword ptr [ebp + 0x10]
p277
sg5
L135038334L
sg6
Nsg23
S'mov'
p278
sg25
S'0x80c857eL'
p279
sg27
Nsba(ibclass
BInstr
p280
(dp281
g2
Nsg17
S'cmp     edx, eax'
p282
sg19
S'39c2'
p283
sg21
Vcmp edx, eax
p284
sg5
L135038337L
sg6
Nsg23
S'cmp'
p285
sg25
S'0x80c8581L'
p286
sg27
Nsba(ibclass
BInstr
p287
(dp288
g2
Nsg17
S'jbe     short loc_80C85BB'
p289
sg19
S'7636'
p290
sg21
Vjbe 0x38
p291
sg5
L135038339L
sg6
Nsg23
S'jbe'
p292
sg25
S'0x80c8583L'
p293
sg27
Nsbasg140
(lp294
Vmov eax, mem
p295
aVmov edx, mem
p296
ag270
aVmov eax, mem
p297
ag284
aVjbe address
p298
asg156
Nsg5
S'0x80c8576L'
p299
sg158
(lp300
S'0x80c8512L'
p301
asg6
Nsg160
(lp302
S'0x80c8585L'
p303
aS'0x80c85bbL'
p304
asg164
Nsg165
Nsg166
S'aa99ff6df6116f4190edfe0e3da02c19'
p305
sg168
S'5c37cae33339f280041bf1905cb40992'
p306
sg170
(lp307
g257
ag264
ag271
ag278
ag285
ag292
asg172
Nsba(ibclass
BBasicBlock
p308
(dp309
g12
Nsg13
(lp310
(ibclass
BInstr
p311
(dp312
g2
Nsg17
S'mov     dword ptr [esp+10h], 23Ch; line'
p313
sg19
S'c74424103c020000'
p314
sg21
Vmov dword ptr [esp + 0x10], 0x23c
p315
sg5
L135038341L
sg6
Nsg23
S'mov'
p316
sg25
S'0x80c8585L'
p317
sg27
Nsba(ibclass
BInstr
p318
(dp319
g2
Nsg17
S'mov     dword ptr [esp+0Ch], offset aD1_both_c; "d1_both.c"'
p320
sg19
S'c744240c60202108'
p321
sg21
Vmov dword ptr [esp + 0xc], 0x8212060
p322
sg5
L135038349L
sg6
Nsg23
S'mov'
p323
sg25
S'0x80c858dL'
p324
sg27
Nsba(ibclass
BInstr
p325
(dp326
g2
Nsg17
S'mov     dword ptr [esp+8], 98h; reason'
p327
sg19
S'c744240898000000'
p328
sg21
Vmov dword ptr [esp + 8], 0x98
p329
sg5
L135038357L
sg6
Nsg23
S'mov'
p330
sg25
S'0x80c8595L'
p331
sg27
Nsba(ibclass
BInstr
p332
(dp333
g2
Nsg17
S'mov     dword ptr [esp+4], 120h; func'
p334
sg19
S'c744240420010000'
p335
sg21
Vmov dword ptr [esp + 4], 0x120
p336
sg5
L135038365L
sg6
Nsg23
S'mov'
p337
sg25
S'0x80c859dL'
p338
sg27
Nsba(ibclass
BInstr
p339
(dp340
g2
Nsg17
S'mov     dword ptr [esp], 14h; lib'
p341
sg19
S'c7042414000000'
p342
sg21
Vmov dword ptr [esp], 0x14
p343
sg5
L135038373L
sg6
Nsg23
S'mov'
p344
sg25
S'0x80c85a5L'
p345
sg27
Nsba(ibclass
BInstr
p346
(dp347
g2
Nsg17
S'call    ERR_put_error'
p348
sg19
S'e8e8030700'
p349
sg21
Vcall 0x703ed
p350
sg5
L135038380L
sg6
Nsg23
S'call'
p351
sg25
S'0x80c85acL'
p352
sg27
Nsba(ibclass
BInstr
p353
(dp354
g2
Nsg17
S'mov     eax, 2Fh'
p355
sg19
S'b82f000000'
p356
sg21
Vmov eax, 0x2f
p357
sg5
L135038385L
sg6
Nsg23
S'mov'
p358
sg25
S'0x80c85b1L'
p359
sg27
Nsba(ibclass
BInstr
p360
(dp361
g2
Nsg17
S'jmp     locret_80C86C4'
p362
sg19
S'e909010000'
p363
sg21
Vjmp 0x10e
p364
sg5
L135038390L
sg6
Nsg23
S'jmp'
p365
sg25
S'0x80c85b6L'
p366
sg27
Nsbasg140
(lp367
Vmov mem, address
p368
aVmov mem, address
p369
aVmov mem, address
p370
aVmov mem, address
p371
aVmov mem, address
p372
aVcall address
p373
aVmov eax, address
p374
aVjmp address
p375
asg156
Nsg5
S'0x80c8585L'
p376
sg158
(lp377
S'0x80c8576L'
p378
asg6
Nsg160
(lp379
S'0x80c86c4L'
p380
asg164
Nsg165
Nsg166
S'd29cf940acec75fa9c4bd8a1e6665750'
p381
sg168
S'fd6b4b67f458598a1addc180c86bc629'
p382
sg170
(lp383
g316
ag323
ag330
ag337
ag344
ag351
ag358
ag365
asg172
Nsba(ibclass
BBasicBlock
p384
(dp385
g12
Nsg13
(lp386
(ibclass
BInstr
p387
(dp388
g2
Nsg17
S'mov     eax, [ebp+s]'
p389
sg19
S'8b4508'
p390
sg21
Vmov eax, dword ptr [ebp + 8]
p391
sg5
L135038395L
sg6
Nsg23
S'mov'
p392
sg25
S'0x80c85bbL'
p393
sg27
Nsba(ibclass
BInstr
p394
(dp395
g2
Nsg17
S'mov     eax, [eax+5Ch]'
p396
sg19
S'8b405c'
p397
sg21
Vmov eax, dword ptr [eax + 0x5c]
p398
sg5
L135038398L
sg6
Nsg23
S'mov'
p399
sg25
S'0x80c85beL'
p400
sg27
Nsba(ibclass
BInstr
p401
(dp402
g2
Nsg17
S'mov     eax, [eax+298h]'
p403
sg19
S'8b8098020000'
p404
sg21
Vmov eax, dword ptr [eax + 0x298]
p405
sg5
L135038401L
sg6
Nsg23
S'mov'
p406
sg25
S'0x80c85c1L'
p407
sg27
Nsba(ibclass
BInstr
p408
(dp409
g2
Nsg17
S'test    eax, eax'
p410
sg19
S'85c0'
p411
sg21
Vtest eax, eax
p412
sg5
L135038407L
sg6
Nsg23
S'test'
p413
sg25
S'0x80c85c7L'
p414
sg27
Nsba(ibclass
BInstr
p415
(dp416
g2
Nsg17
S'jnz     loc_80C867B'
p417
sg19
S'0f85ac000000'
p418
sg21
Vjne 0xb2
p419
sg5
L135038409L
sg6
Nsg23
S'jnz'
p420
sg25
S'0x80c85c9L'
p421
sg27
Nsbasg140
(lp422
Vmov eax, mem
p423
aVmov eax, mem
p424
aVmov eax, mem
p425
ag412
aVjne address
p426
asg156
Nsg5
S'0x80c85bbL'
p427
sg158
(lp428
S'0x80c8576L'
p429
asg6
Nsg160
(lp430
S'0x80c85cfL'
p431
aS'0x80c867bL'
p432
asg164
Nsg165
Nsg166
S'2689ee3066a6dd038e1106929329c4c8'
p433
sg168
S'ec1f34505072678a0af6720f719c527c'
p434
sg170
(lp435
g392
ag399
ag406
ag413
ag420
asg172
Nsba(ibclass
BBasicBlock
p436
(dp437
g12
Nsg13
(lp438
(ibclass
BInstr
p439
(dp440
g2
Nsg17
S'mov     eax, [ebp+msg_len]'
p441
sg19
S'8b45ec'
p442
sg21
Vmov eax, dword ptr [ebp - 0x14]
p443
sg5
L135038415L
sg6
Nsg23
S'mov'
p444
sg25
S'0x80c85cfL'
p445
sg27
Nsba(ibclass
BInstr
p446
(dp447
g2
Nsg17
S'lea     edx, [eax+0Ch]'
p448
sg19
S'8d500c'
p449
sg21
Vlea edx, [eax + 0xc]
p450
sg5
L135038418L
sg6
Nsg23
S'lea'
p451
sg25
S'0x80c85d2L'
p452
sg27
Nsba(ibclass
BInstr
p453
(dp454
g2
Nsg17
S'mov     eax, [ebp+s]'
p455
sg19
S'8b4508'
p456
sg21
Vmov eax, dword ptr [ebp + 8]
p457
sg5
L135038421L
sg6
Nsg23
S'mov'
p458
sg25
S'0x80c85d5L'
p459
sg27
Nsba(ibclass
BInstr
p460
(dp461
g2
Nsg17
S'mov     eax, [eax+3Ch]'
p462
sg19
S'8b403c'
p463
sg21
Vmov eax, dword ptr [eax + 0x3c]
p464
sg5
L135038424L
sg6
Nsg23
S'mov'
p465
sg25
S'0x80c85d8L'
p466
sg27
Nsba(ibclass
BInstr
p467
(dp468
g2
Nsg17
S'mov     [esp+4], edx    ; len'
p469
sg19
S'89542404'
p470
sg21
Vmov dword ptr [esp + 4], edx
p471
sg5
L135038427L
sg6
Nsg23
S'mov'
p472
sg25
S'0x80c85dbL'
p473
sg27
Nsba(ibclass
BInstr
p474
(dp475
g2
Nsg17
S'mov     [esp], eax      ; str'
p476
sg19
S'890424'
p477
sg21
Vmov dword ptr [esp], eax
p478
sg5
L135038431L
sg6
Nsg23
S'mov'
p479
sg25
S'0x80c85dfL'
p480
sg27
Nsba(ibclass
BInstr
p481
(dp482
g2
Nsg17
S'call    BUF_MEM_grow_clean'
p483
sg19
S'e8a63f0600'
p484
sg21
Vcall 0x63fab
p485
sg5
L135038434L
sg6
Nsg23
S'call'
p486
sg25
S'0x80c85e2L'
p487
sg27
Nsba(ibclass
BInstr
p488
(dp489
g2
Nsg17
S'test    eax, eax'
p490
sg19
S'85c0'
p491
sg21
Vtest eax, eax
p492
sg5
L135038439L
sg6
Nsg23
S'test'
p493
sg25
S'0x80c85e7L'
p494
sg27
Nsba(ibclass
BInstr
p495
(dp496
g2
Nsg17
S'jnz     short loc_80C8621'
p497
sg19
S'7536'
p498
sg21
Vjne 0x38
p499
sg5
L135038441L
sg6
Nsg23
S'jnz'
p500
sg25
S'0x80c85e9L'
p501
sg27
Nsbasg140
(lp502
Vmov eax, mem
p503
aVlea edx, mem
p504
aVmov eax, mem
p505
aVmov eax, mem
p506
aVmov mem, edx
p507
aVmov mem, eax
p508
aVcall address
p509
ag492
aVjne address
p510
asg156
Nsg5
S'0x80c85cfL'
p511
sg158
(lp512
S'0x80c85bbL'
p513
asg6
Nsg160
(lp514
S'0x80c85ebL'
p515
aS'0x80c8621L'
p516
asg164
Nsg165
Nsg166
S'd4429ece252772306c600a39634ef742'
p517
sg168
S'23712b466dd179bd9576ef66374e9d73'
p518
sg170
(lp519
g444
ag451
ag458
ag465
ag472
ag479
ag486
ag493
ag500
asg172
Nsba(ibclass
BBasicBlock
p520
(dp521
g12
Nsg13
(lp522
(ibclass
BInstr
p523
(dp524
g2
Nsg17
S'mov     dword ptr [esp+10h], 247h; line'
p525
sg19
S'c744241047020000'
p526
sg21
Vmov dword ptr [esp + 0x10], 0x247
p527
sg5
L135038443L
sg6
Nsg23
S'mov'
p528
sg25
S'0x80c85ebL'
p529
sg27
Nsba(ibclass
BInstr
p530
(dp531
g2
Nsg17
S'mov     dword ptr [esp+0Ch], offset aD1_both_c; "d1_both.c"'
p532
sg19
S'c744240c60202108'
p533
sg21
Vmov dword ptr [esp + 0xc], 0x8212060
p534
sg5
L135038451L
sg6
Nsg23
S'mov'
p535
sg25
S'0x80c85f3L'
p536
sg27
Nsba(ibclass
BInstr
p537
(dp538
g2
Nsg17
S'mov     dword ptr [esp+8], 7; reason'
p539
sg19
S'c744240807000000'
p540
sg21
Vmov dword ptr [esp + 8], 7
p541
sg5
L135038459L
sg6
Nsg23
S'mov'
p542
sg25
S'0x80c85fbL'
p543
sg27
Nsba(ibclass
BInstr
p544
(dp545
g2
Nsg17
S'mov     dword ptr [esp+4], 120h; func'
p546
sg19
S'c744240420010000'
p547
sg21
Vmov dword ptr [esp + 4], 0x120
p548
sg5
L135038467L
sg6
Nsg23
S'mov'
p549
sg25
S'0x80c8603L'
p550
sg27
Nsba(ibclass
BInstr
p551
(dp552
g2
Nsg17
S'mov     dword ptr [esp], 14h; lib'
p553
sg19
S'c7042414000000'
p554
sg21
Vmov dword ptr [esp], 0x14
p555
sg5
L135038475L
sg6
Nsg23
S'mov'
p556
sg25
S'0x80c860bL'
p557
sg27
Nsba(ibclass
BInstr
p558
(dp559
g2
Nsg17
S'call    ERR_put_error'
p560
sg19
S'e882030700'
p561
sg21
Vcall 0x70387
p562
sg5
L135038482L
sg6
Nsg23
S'call'
p563
sg25
S'0x80c8612L'
p564
sg27
Nsba(ibclass
BInstr
p565
(dp566
g2
Nsg17
S'mov     eax, 50h'
p567
sg19
S'b850000000'
p568
sg21
Vmov eax, 0x50
p569
sg5
L135038487L
sg6
Nsg23
S'mov'
p570
sg25
S'0x80c8617L'
p571
sg27
Nsba(ibclass
BInstr
p572
(dp573
g2
Nsg17
S'jmp     locret_80C86C4'
p574
sg19
S'e9a3000000'
p575
sg21
Vjmp 0xa8
p576
sg5
L135038492L
sg6
Nsg23
S'jmp'
p577
sg25
S'0x80c861cL'
p578
sg27
Nsbasg140
(lp579
Vmov mem, address
p580
aVmov mem, address
p581
aVmov mem, 7
p582
aVmov mem, address
p583
aVmov mem, address
p584
aVcall address
p585
aVmov eax, address
p586
aVjmp address
p587
asg156
Nsg5
S'0x80c85ebL'
p588
sg158
(lp589
S'0x80c85cfL'
p590
asg6
Nsg160
(lp591
S'0x80c86c4L'
p592
asg164
Nsg165
Nsg166
S'd29cf940acec75fa9c4bd8a1e6665750'
p593
sg168
S'ff07c085830daf61e75cb0006fa4dec5'
p594
sg170
(lp595
g528
ag535
ag542
ag549
ag556
ag563
ag570
ag577
asg172
Nsba(ibclass
BBasicBlock
p596
(dp597
g12
Nsg13
(lp598
(ibclass
BInstr
p599
(dp600
g2
Nsg17
S'mov     eax, [ebp+s]'
p601
sg19
S'8b4508'
p602
sg21
Vmov eax, dword ptr [ebp + 8]
p603
sg5
L135038497L
sg6
Nsg23
S'mov'
p604
sg25
S'0x80c8621L'
p605
sg27
Nsba(ibclass
BInstr
p606
(dp607
g2
Nsg17
S'mov     eax, [eax+58h]'
p608
sg19
S'8b4058'
p609
sg21
Vmov eax, dword ptr [eax + 0x58]
p610
sg5
L135038500L
sg6
Nsg23
S'mov'
p611
sg25
S'0x80c8624L'
p612
sg27
Nsba(ibclass
BInstr
p613
(dp614
g2
Nsg17
S'mov     edx, [ebp+msg_len]'
p615
sg19
S'8b55ec'
p616
sg21
Vmov edx, dword ptr [ebp - 0x14]
p617
sg5
L135038503L
sg6
Nsg23
S'mov'
p618
sg25
S'0x80c8627L'
p619
sg27
Nsba(ibclass
BInstr
p620
(dp621
g2
Nsg17
S'mov     [eax+33Ch], edx'
p622
sg19
S'89903c030000'
p623
sg21
Vmov dword ptr [eax + 0x33c], edx
p624
sg5
L135038506L
sg6
Nsg23
S'mov'
p625
sg25
S'0x80c862aL'
p626
sg27
Nsba(ibclass
BInstr
p627
(dp628
g2
Nsg17
S'mov     eax, [ebp+s]'
p629
sg19
S'8b4508'
p630
sg21
Vmov eax, dword ptr [ebp + 8]
p631
sg5
L135038512L
sg6
Nsg23
S'mov'
p632
sg25
S'0x80c8630L'
p633
sg27
Nsba(ibclass
BInstr
p634
(dp635
g2
Nsg17
S'mov     eax, [eax+5Ch]'
p636
sg19
S'8b405c'
p637
sg21
Vmov eax, dword ptr [eax + 0x5c]
p638
sg5
L135038515L
sg6
Nsg23
S'mov'
p639
sg25
S'0x80c8633L'
p640
sg27
Nsba(ibclass
BInstr
p641
(dp642
g2
Nsg17
S'mov     edx, [ebp+msg_len]'
p643
sg19
S'8b55ec'
p644
sg21
Vmov edx, dword ptr [ebp - 0x14]
p645
sg5
L135038518L
sg6
Nsg23
S'mov'
p646
sg25
S'0x80c8636L'
p647
sg27
Nsba(ibclass
BInstr
p648
(dp649
g2
Nsg17
S'mov     [eax+290h], edx'
p650
sg19
S'899090020000'
p651
sg21
Vmov dword ptr [eax + 0x290], edx
p652
sg5
L135038521L
sg6
Nsg23
S'mov'
p653
sg25
S'0x80c8639L'
p654
sg27
Nsba(ibclass
BInstr
p655
(dp656
g2
Nsg17
S'mov     eax, [ebp+s]'
p657
sg19
S'8b4508'
p658
sg21
Vmov eax, dword ptr [ebp + 8]
p659
sg5
L135038527L
sg6
Nsg23
S'mov'
p660
sg25
S'0x80c863fL'
p661
sg27
Nsba(ibclass
BInstr
p662
(dp663
g2
Nsg17
S'mov     edx, [eax+58h]'
p664
sg19
S'8b5058'
p665
sg21
Vmov edx, dword ptr [eax + 0x58]
p666
sg5
L135038530L
sg6
Nsg23
S'mov'
p667
sg25
S'0x80c8642L'
p668
sg27
Nsba(ibclass
BInstr
p669
(dp670
g2
Nsg17
S'mov     eax, [ebp+msg_hdr]'
p671
sg19
S'8b450c'
p672
sg21
Vmov eax, dword ptr [ebp + 0xc]
p673
sg5
L135038533L
sg6
Nsg23
S'mov'
p674
sg25
S'0x80c8645L'
p675
sg27
Nsba(ibclass
BInstr
p676
(dp677
g2
Nsg17
S'mov     al, [eax]'
p678
sg19
S'8a00'
p679
sg21
Vmov al, byte ptr [eax]
p680
sg5
L135038536L
sg6
Nsg23
S'mov'
p681
sg25
S'0x80c8648L'
p682
sg27
Nsba(ibclass
BInstr
p683
(dp684
g2
Nsg17
S'and     eax, 0FFh'
p685
sg19
S'25ff000000'
p686
sg21
Vand eax, 0xff
p687
sg5
L135038538L
sg6
Nsg23
S'and'
p688
sg25
S'0x80c864aL'
p689
sg27
Nsba(ibclass
BInstr
p690
(dp691
g2
Nsg17
S'mov     [edx+340h], eax'
p692
sg19
S'898240030000'
p693
sg21
Vmov dword ptr [edx + 0x340], eax
p694
sg5
L135038543L
sg6
Nsg23
S'mov'
p695
sg25
S'0x80c864fL'
p696
sg27
Nsba(ibclass
BInstr
p697
(dp698
g2
Nsg17
S'mov     eax, [ebp+s]'
p699
sg19
S'8b4508'
p700
sg21
Vmov eax, dword ptr [ebp + 8]
p701
sg5
L135038549L
sg6
Nsg23
S'mov'
p702
sg25
S'0x80c8655L'
p703
sg27
Nsba(ibclass
BInstr
p704
(dp705
g2
Nsg17
S'mov     eax, [eax+5Ch]'
p706
sg19
S'8b405c'
p707
sg21
Vmov eax, dword ptr [eax + 0x5c]
p708
sg5
L135038552L
sg6
Nsg23
S'mov'
p709
sg25
S'0x80c8658L'
p710
sg27
Nsba(ibclass
BInstr
p711
(dp712
g2
Nsg17
S'mov     edx, [ebp+msg_hdr]'
p713
sg19
S'8b550c'
p714
sg21
Vmov edx, dword ptr [ebp + 0xc]
p715
sg5
L135038555L
sg6
Nsg23
S'mov'
p716
sg25
S'0x80c865bL'
p717
sg27
Nsba(ibclass
BInstr
p718
(dp719
g2
Nsg17
S'mov     dl, [edx]'
p720
sg19
S'8a12'
p721
sg21
Vmov dl, byte ptr [edx]
p722
sg5
L135038558L
sg6
Nsg23
S'mov'
p723
sg25
S'0x80c865eL'
p724
sg27
Nsba(ibclass
BInstr
p725
(dp726
g2
Nsg17
S'mov     [eax+28Ch], dl'
p727
sg19
S'88908c020000'
p728
sg21
Vmov byte ptr [eax + 0x28c], dl
p729
sg5
L135038560L
sg6
Nsg23
S'mov'
p730
sg25
S'0x80c8660L'
p731
sg27
Nsba(ibclass
BInstr
p732
(dp733
g2
Nsg17
S'mov     eax, [ebp+s]'
p734
sg19
S'8b4508'
p735
sg21
Vmov eax, dword ptr [ebp + 8]
p736
sg5
L135038566L
sg6
Nsg23
S'mov'
p737
sg25
S'0x80c8666L'
p738
sg27
Nsba(ibclass
BInstr
p739
(dp740
g2
Nsg17
S'mov     edx, [eax+5Ch]'
p741
sg19
S'8b505c'
p742
sg21
Vmov edx, dword ptr [eax + 0x5c]
p743
sg5
L135038569L
sg6
Nsg23
S'mov'
p744
sg25
S'0x80c8669L'
p745
sg27
Nsba(ibclass
BInstr
p746
(dp747
g2
Nsg17
S'mov     eax, [ebp+msg_hdr]'
p748
sg19
S'8b450c'
p749
sg21
Vmov eax, dword ptr [ebp + 0xc]
p750
sg5
L135038572L
sg6
Nsg23
S'mov'
p751
sg25
S'0x80c866cL'
p752
sg27
Nsba(ibclass
BInstr
p753
(dp754
g2
Nsg17
S'mov     eax, [eax+8]'
p755
sg19
S'8b4008'
p756
sg21
Vmov eax, dword ptr [eax + 8]
p757
sg5
L135038575L
sg6
Nsg23
S'mov'
p758
sg25
S'0x80c866fL'
p759
sg27
Nsba(ibclass
BInstr
p760
(dp761
g2
Nsg17
S'mov     [edx+294h], ax'
p762
sg19
S'66898294020000'
p763
sg21
Vmov word ptr [edx + 0x294], ax
p764
sg5
L135038578L
sg6
Nsg23
S'mov'
p765
sg25
S'0x80c8672L'
p766
sg27
Nsba(ibclass
BInstr
p767
(dp768
g2
Nsg17
S'jmp     short loc_80C86BF'
p769
sg19
S'eb44'
p770
sg21
Vjmp 0x46
p771
sg5
L135038585L
sg6
Nsg23
S'jmp'
p772
sg25
S'0x80c8679L'
p773
sg27
Nsbasg140
(lp774
Vmov eax, mem
p775
aVmov eax, mem
p776
aVmov edx, mem
p777
aVmov mem, edx
p778
aVmov eax, mem
p779
aVmov eax, mem
p780
aVmov edx, mem
p781
aVmov mem, edx
p782
aVmov eax, mem
p783
aVmov edx, mem
p784
aVmov eax, mem
p785
aVmov al, mem
p786
aVand eax, address
p787
aVmov mem, eax
p788
aVmov eax, mem
p789
aVmov eax, mem
p790
aVmov edx, mem
p791
aVmov dl, mem
p792
aVmov mem, dl
p793
aVmov eax, mem
p794
aVmov edx, mem
p795
aVmov eax, mem
p796
aVmov eax, mem
p797
aVmov mem, ax
p798
aVjmp address
p799
asg156
Nsg5
S'0x80c8621L'
p800
sg158
(lp801
S'0x80c85cfL'
p802
asg6
Nsg160
(lp803
S'0x80c86bfL'
p804
asg164
Nsg165
Nsg166
S'66d91e59ed7d7bdfdbf7bb84954a5ba7'
p805
sg168
S'08424049e73e3b9ab55917b3e706e947'
p806
sg170
(lp807
g604
ag611
ag618
ag625
ag632
ag639
ag646
ag653
ag660
ag667
ag674
ag681
ag688
ag695
ag702
ag709
ag716
ag723
ag730
ag737
ag744
ag751
ag758
ag765
ag772
asg172
Nsba(ibclass
BBasicBlock
p808
(dp809
g12
Nsg13
(lp810
(ibclass
BInstr
p811
(dp812
g2
Nsg17
S'mov     eax, [ebp+s]'
p813
sg19
S'8b4508'
p814
sg21
Vmov eax, dword ptr [ebp + 8]
p815
sg5
L135038587L
sg6
Nsg23
S'mov'
p816
sg25
S'0x80c867bL'
p817
sg27
Nsba(ibclass
BInstr
p818
(dp819
g2
Nsg17
S'mov     eax, [eax+5Ch]'
p820
sg19
S'8b405c'
p821
sg21
Vmov eax, dword ptr [eax + 0x5c]
p822
sg5
L135038590L
sg6
Nsg23
S'mov'
p823
sg25
S'0x80c867eL'
p824
sg27
Nsba(ibclass
BInstr
p825
(dp826
g2
Nsg17
S'mov     eax, [eax+290h]'
p827
sg19
S'8b8090020000'
p828
sg21
Vmov eax, dword ptr [eax + 0x290]
p829
sg5
L135038593L
sg6
Nsg23
S'mov'
p830
sg25
S'0x80c8681L'
p831
sg27
Nsba(ibclass
BInstr
p832
(dp833
g2
Nsg17
S'cmp     eax, [ebp+msg_len]'
p834
sg19
S'3b45ec'
p835
sg21
Vcmp eax, dword ptr [ebp - 0x14]
p836
sg5
L135038599L
sg6
Nsg23
S'cmp'
p837
sg25
S'0x80c8687L'
p838
sg27
Nsba(ibclass
BInstr
p839
(dp840
g2
Nsg17
S'jz      short loc_80C86BF'
p841
sg19
S'7433'
p842
sg21
Vje 0x35
p843
sg5
L135038602L
sg6
Nsg23
S'jz'
p844
sg25
S'0x80c868aL'
p845
sg27
Nsbasg140
(lp846
Vmov eax, mem
p847
aVmov eax, mem
p848
aVmov eax, mem
p849
aVcmp eax, mem
p850
aVje address
p851
asg156
Nsg5
S'0x80c867bL'
p852
sg158
(lp853
S'0x80c85bbL'
p854
asg6
Nsg160
(lp855
S'0x80c868cL'
p856
aS'0x80c86bfL'
p857
asg164
Nsg165
Nsg166
S'33ba948cc50e6b726fe618f931567f22'
p858
sg168
S'820a518621888072f6f39b49798da9c1'
p859
sg170
(lp860
g816
ag823
ag830
ag837
ag844
asg172
Nsba(ibclass
BBasicBlock
p861
(dp862
g12
Nsg13
(lp863
(ibclass
BInstr
p864
(dp865
g2
Nsg17
S'mov     dword ptr [esp+10h], 255h; line'
p866
sg19
S'c744241055020000'
p867
sg21
Vmov dword ptr [esp + 0x10], 0x255
p868
sg5
L135038604L
sg6
Nsg23
S'mov'
p869
sg25
S'0x80c868cL'
p870
sg27
Nsba(ibclass
BInstr
p871
(dp872
g2
Nsg17
S'mov     dword ptr [esp+0Ch], offset aD1_both_c; "d1_both.c"'
p873
sg19
S'c744240c60202108'
p874
sg21
Vmov dword ptr [esp + 0xc], 0x8212060
p875
sg5
L135038612L
sg6
Nsg23
S'mov'
p876
sg25
S'0x80c8694L'
p877
sg27
Nsba(ibclass
BInstr
p878
(dp879
g2
Nsg17
S'mov     dword ptr [esp+8], 98h; reason'
p880
sg19
S'c744240898000000'
p881
sg21
Vmov dword ptr [esp + 8], 0x98
p882
sg5
L135038620L
sg6
Nsg23
S'mov'
p883
sg25
S'0x80c869cL'
p884
sg27
Nsba(ibclass
BInstr
p885
(dp886
g2
Nsg17
S'mov     dword ptr [esp+4], 120h; func'
p887
sg19
S'c744240420010000'
p888
sg21
Vmov dword ptr [esp + 4], 0x120
p889
sg5
L135038628L
sg6
Nsg23
S'mov'
p890
sg25
S'0x80c86a4L'
p891
sg27
Nsba(ibclass
BInstr
p892
(dp893
g2
Nsg17
S'mov     dword ptr [esp], 14h; lib'
p894
sg19
S'c7042414000000'
p895
sg21
Vmov dword ptr [esp], 0x14
p896
sg5
L135038636L
sg6
Nsg23
S'mov'
p897
sg25
S'0x80c86acL'
p898
sg27
Nsba(ibclass
BInstr
p899
(dp900
g2
Nsg17
S'call    ERR_put_error'
p901
sg19
S'e8e1020700'
p902
sg21
Vcall 0x702e6
p903
sg5
L135038643L
sg6
Nsg23
S'call'
p904
sg25
S'0x80c86b3L'
p905
sg27
Nsba(ibclass
BInstr
p906
(dp907
g2
Nsg17
S'mov     eax, 2Fh'
p908
sg19
S'b82f000000'
p909
sg21
Vmov eax, 0x2f
p910
sg5
L135038648L
sg6
Nsg23
S'mov'
p911
sg25
S'0x80c86b8L'
p912
sg27
Nsba(ibclass
BInstr
p913
(dp914
g2
Nsg17
S'jmp     short locret_80C86C4'
p915
sg19
S'eb05'
p916
sg21
Vjmp 7
p917
sg5
L135038653L
sg6
Nsg23
S'jmp'
p918
sg25
S'0x80c86bdL'
p919
sg27
Nsbasg140
(lp920
Vmov mem, address
p921
aVmov mem, address
p922
aVmov mem, address
p923
aVmov mem, address
p924
aVmov mem, address
p925
aVcall address
p926
aVmov eax, address
p927
ag917
asg156
Nsg5
S'0x80c868cL'
p928
sg158
(lp929
S'0x80c867bL'
p930
asg6
Nsg160
(lp931
S'0x80c86c4L'
p932
asg164
Nsg165
Nsg166
S'd29cf940acec75fa9c4bd8a1e6665750'
p933
sg168
S'446c59704cc25e30230b1d785d11b056'
p934
sg170
(lp935
g869
ag876
ag883
ag890
ag897
ag904
ag911
ag918
asg172
Nsba(ibclass
BBasicBlock
p936
(dp937
g12
Nsg13
(lp938
(ibclass
BInstr
p939
(dp940
g2
Nsg17
S'mov     eax, 0'
p941
sg19
S'b800000000'
p942
sg21
Vmov eax, 0
p943
sg5
L135038655L
sg6
Nsg23
S'mov'
p944
sg25
S'0x80c86bfL'
p945
sg27
Nsbasg140
(lp946
g943
asg156
Nsg5
S'0x80c86bfL'
p947
sg158
(lp948
S'0x80c8621L'
p949
aS'0x80c867bL'
p950
asg6
Nsg160
(lp951
S'0x80c86c4L'
p952
asg164
Nsg165
Nsg166
S'96a4a0e6e9ac88756a0fcba989d0a844'
p953
sg168
S'4cfc99738161f190e0def2f4916ada38'
p954
sg170
(lp955
g944
asg172
Nsba(ibclass
BBasicBlock
p956
(dp957
g12
Nsg13
(lp958
(ibclass
BInstr
p959
(dp960
g2
Nsg17
S'leave'
p961
sg19
S'c9'
p962
sg21
Vleave 
p963
sg5
L135038660L
sg6
Nsg23
S'leave'
p964
sg25
S'0x80c86c4L'
p965
sg27
Nsba(ibclass
BInstr
p966
(dp967
g2
Nsg17
S'retn'
p968
sg19
S'c3'
p969
sg21
Vret 
p970
sg5
L135038661L
sg6
Nsg23
S'retn'
p971
sg25
S'0x80c86c5L'
p972
sg27
Nsbasg140
(lp973
Vleave
p974
aVret
p975
asg156
Nsg5
S'0x80c86c4L'
p976
sg158
(lp977
S'0x80c8540L'
p978
aS'0x80c8585L'
p979
aS'0x80c85ebL'
p980
aS'0x80c868cL'
p981
aS'0x80c86bfL'
p982
asg6
Nsg160
(lp983
sg164
Nsg165
Nsg166
S'08c78f73a6f87c85da88b2982f54ce2a'
p984
sg168
S'393fee3c9fb1d26424d4b7704918e387'
p985
sg170
(lp986
g964
ag971
asg172
Nsbasb.