(ibclass
BFunc
p0
(dp1
S'hash'
p2
NsS'name'
p3
S'ssl_ctx_make_profiles'
p4
sS'start_address'
p5
L135049537L
sS'flag'
p6
NsS'program'
p7
NsS'bbs'
p8
(lp9
(ibclass
BBasicBlock
p10
(dp11
S'function'
p12
NsS'binstrs'
p13
(lp14
(ibclass
BInstr
p15
(dp16
g2
NsS'disasm'
p17
S'push    ebp'
p18
sS'bytes'
p19
S'55'
p20
sS'disasm_striped'
p21
Vpush ebp
p22
sg5
L135049537L
sg6
NsS'mnem'
p23
S'push'
p24
sS'address'
p25
S'0x80cb141L'
p26
sS'basicblock'
p27
Nsba(ibclass
BInstr
p28
(dp29
g2
Nsg17
S'mov     ebp, esp'
p30
sg19
S'89e5'
p31
sg21
Vmov ebp, esp
p32
sg5
L135049538L
sg6
Nsg23
S'mov'
p33
sg25
S'0x80cb142L'
p34
sg27
Nsba(ibclass
BInstr
p35
(dp36
g2
Nsg17
S'sub     esp, 38h'
p37
sg19
S'83ec38'
p38
sg21
Vsub esp, 0x38
p39
sg5
L135049540L
sg6
Nsg23
S'sub'
p40
sg25
S'0x80cb144L'
p41
sg27
Nsba(ibclass
BInstr
p42
(dp43
g2
Nsg17
S'mov     eax, [ebp+profiles_string]'
p44
sg19
S'8b4508'
p45
sg21
Vmov eax, dword ptr [ebp + 8]
p46
sg5
L135049543L
sg6
Nsg23
S'mov'
p47
sg25
S'0x80cb147L'
p48
sg27
Nsba(ibclass
BInstr
p49
(dp50
g2
Nsg17
S'mov     [ebp+ptr], eax'
p51
sg19
S'8945ec'
p52
sg21
Vmov dword ptr [ebp - 0x14], eax
p53
sg5
L135049546L
sg6
Nsg23
S'mov'
p54
sg25
S'0x80cb14aL'
p55
sg27
Nsba(ibclass
BInstr
p56
(dp57
g2
Nsg17
S'call    sk_new_null'
p58
sg19
S'e87dab0600'
p59
sg21
Vcall 0x6ab82
p60
sg5
L135049549L
sg6
Nsg23
S'call'
p61
sg25
S'0x80cb14dL'
p62
sg27
Nsba(ibclass
BInstr
p63
(dp64
g2
Nsg17
S'mov     [ebp+profiles], eax'
p65
sg19
S'8945f0'
p66
sg21
Vmov dword ptr [ebp - 0x10], eax
p67
sg5
L135049554L
sg6
Nsg23
S'mov'
p68
sg25
S'0x80cb152L'
p69
sg27
Nsba(ibclass
BInstr
p70
(dp71
g2
Nsg17
S'cmp     [ebp+profiles], 0'
p72
sg19
S'837df000'
p73
sg21
Vcmp dword ptr [ebp - 0x10], 0
p74
sg5
L135049557L
sg6
Nsg23
S'cmp'
p75
sg25
S'0x80cb155L'
p76
sg27
Nsba(ibclass
BInstr
p77
(dp78
g2
Nsg17
S'jnz     short loc_80CB191'
p79
sg19
S'7536'
p80
sg21
Vjne 0x38
p81
sg5
L135049561L
sg6
Nsg23
S'jnz'
p82
sg25
S'0x80cb159L'
p83
sg27
NsbasS'disasm_list'
p84
(lp85
g22
ag32
aVsub esp, address
p86
aVmov eax, mem
p87
aVmov mem, eax
p88
aVcall address
p89
aVmov mem, eax
p90
aVcmp mem, 0
p91
aVjne address
p92
asS'end_address'
p93
Nsg5
S'0x80cb141L'
p94
sS'preds'
p95
(lp96
sg6
NsS'succs'
p97
(lp98
S'0x80cb15bL'
p99
aS'0x80cb191L'
p100
asS'hash_v3'
p101
NsS'flag_v2'
p102
NsS'hash_v1'
p103
S'94618b99d4b27a8c4b57b68846f576b8'
p104
sS'hash_v2'
p105
S'cded88ea45a9a96407443c8789c33637'
p106
sS'mnen_list'
p107
(lp108
g24
ag33
ag40
ag47
ag54
ag61
ag68
ag75
ag82
asS'neighbour_disasm_list'
p109
Nsba(ibclass
BBasicBlock
p110
(dp111
g12
Nsg13
(lp112
(ibclass
BInstr
p113
(dp114
g2
Nsg17
S'mov     dword ptr [esp+10h], 0B1h; line'
p115
sg19
S'c7442410b1000000'
p116
sg21
Vmov dword ptr [esp + 0x10], 0xb1
p117
sg5
L135049563L
sg6
Nsg23
S'mov'
p118
sg25
S'0x80cb15bL'
p119
sg27
Nsba(ibclass
BInstr
p120
(dp121
g2
Nsg17
S'mov     dword ptr [esp+0Ch], offset aD1_srtp_c; "d1_srtp.c"'
p122
sg19
S'c744240cf0222108'
p123
sg21
Vmov dword ptr [esp + 0xc], 0x82122f0
p124
sg5
L135049571L
sg6
Nsg23
S'mov'
p125
sg25
S'0x80cb163L'
p126
sg27
Nsba(ibclass
BInstr
p127
(dp128
g2
Nsg17
S'mov     dword ptr [esp+8], 16Ah; reason'
p129
sg19
S'c74424086a010000'
p130
sg21
Vmov dword ptr [esp + 8], 0x16a
p131
sg5
L135049579L
sg6
Nsg23
S'mov'
p132
sg25
S'0x80cb16bL'
p133
sg27
Nsba(ibclass
BInstr
p134
(dp135
g2
Nsg17
S'mov     dword ptr [esp+4], 135h; func'
p136
sg19
S'c744240435010000'
p137
sg21
Vmov dword ptr [esp + 4], 0x135
p138
sg5
L135049587L
sg6
Nsg23
S'mov'
p139
sg25
S'0x80cb173L'
p140
sg27
Nsba(ibclass
BInstr
p141
(dp142
g2
Nsg17
S'mov     dword ptr [esp], 14h; lib'
p143
sg19
S'c7042414000000'
p144
sg21
Vmov dword ptr [esp], 0x14
p145
sg5
L135049595L
sg6
Nsg23
S'mov'
p146
sg25
S'0x80cb17bL'
p147
sg27
Nsba(ibclass
BInstr
p148
(dp149
g2
Nsg17
S'call    ERR_put_error'
p150
sg19
S'e812d80600'
p151
sg21
Vcall 0x6d817
p152
sg5
L135049602L
sg6
Nsg23
S'call'
p153
sg25
S'0x80cb182L'
p154
sg27
Nsba(ibclass
BInstr
p155
(dp156
g2
Nsg17
S'mov     eax, 1'
p157
sg19
S'b801000000'
p158
sg21
Vmov eax, 1
p159
sg5
L135049607L
sg6
Nsg23
S'mov'
p160
sg25
S'0x80cb187L'
p161
sg27
Nsba(ibclass
BInstr
p162
(dp163
g2
Nsg17
S'jmp     locret_80CB2A8'
p164
sg19
S'e917010000'
p165
sg21
Vjmp 0x11c
p166
sg5
L135049612L
sg6
Nsg23
S'jmp'
p167
sg25
S'0x80cb18cL'
p168
sg27
Nsbasg84
(lp169
Vmov mem, address
p170
aVmov mem, address
p171
aVmov mem, address
p172
aVmov mem, address
p173
aVmov mem, address
p174
aVcall address
p175
ag159
aVjmp address
p176
asg93
Nsg5
S'0x80cb15bL'
p177
sg95
(lp178
S'0x80cb141L'
p179
asg6
Nsg97
(lp180
S'0x80cb2a8L'
p181
asg101
Nsg102
Nsg103
S'd29cf940acec75fa9c4bd8a1e6665750'
p182
sg105
S'd66df202e96c4b2a19fe0df0f37d843c'
p183
sg107
(lp184
g118
ag125
ag132
ag139
ag146
ag153
ag160
ag167
asg109
Nsba(ibclass
BBasicBlock
p185
(dp186
g12
Nsg13
(lp187
(ibclass
BInstr
p188
(dp189
g2
Nsg17
S'mov     dword ptr [esp+4], 3Ah; c'
p190
sg19
S'c74424043a000000'
p191
sg21
Vmov dword ptr [esp + 4], 0x3a
p192
sg5
L135049617L
sg6
Nsg23
S'mov'
p193
sg25
S'0x80cb191L'
p194
sg27
Nsba(ibclass
BInstr
p195
(dp196
g2
Nsg17
S'mov     eax, [ebp+ptr]'
p197
sg19
S'8b45ec'
p198
sg21
Vmov eax, dword ptr [ebp - 0x14]
p199
sg5
L135049625L
sg6
Nsg23
S'mov'
p200
sg25
S'0x80cb199L'
p201
sg27
Nsba(ibclass
BInstr
p202
(dp203
g2
Nsg17
S'mov     [esp], eax      ; s'
p204
sg19
S'890424'
p205
sg21
Vmov dword ptr [esp], eax
p206
sg5
L135049628L
sg6
Nsg23
S'mov'
p207
sg25
S'0x80cb19cL'
p208
sg27
Nsba(ibclass
BInstr
p209
(dp210
g2
Nsg17
S'call    _strchr'
p211
sg19
S'e80ce7f7ff'
p212
sg21
Vcall 0xfff7e711
p213
sg5
L135049631L
sg6
Nsg23
S'call'
p214
sg25
S'0x80cb19fL'
p215
sg27
Nsba(ibclass
BInstr
p216
(dp217
g2
Nsg17
S'mov     [ebp+col], eax'
p218
sg19
S'8945f4'
p219
sg21
Vmov dword ptr [ebp - 0xc], eax
p220
sg5
L135049636L
sg6
Nsg23
S'mov'
p221
sg25
S'0x80cb1a4L'
p222
sg27
Nsba(ibclass
BInstr
p223
(dp224
g2
Nsg17
S'cmp     [ebp+col], 0'
p225
sg19
S'837df400'
p226
sg21
Vcmp dword ptr [ebp - 0xc], 0
p227
sg5
L135049639L
sg6
Nsg23
S'cmp'
p228
sg25
S'0x80cb1a7L'
p229
sg27
Nsba(ibclass
BInstr
p230
(dp231
g2
Nsg17
S'jz      short loc_80CB1B9'
p232
sg19
S'740c'
p233
sg21
Vje 0xe
p234
sg5
L135049643L
sg6
Nsg23
S'jz'
p235
sg25
S'0x80cb1abL'
p236
sg27
Nsbasg84
(lp237
Vmov mem, address
p238
aVmov eax, mem
p239
aVmov mem, eax
p240
aVcall address
p241
aVmov mem, eax
p242
aVcmp mem, 0
p243
aVje address
p244
asg93
Nsg5
S'0x80cb191L'
p245
sg95
(lp246
S'0x80cb141L'
p247
aS'0x80cb291L'
p248
asg6
Nsg97
(lp249
S'0x80cb1adL'
p250
aS'0x80cb1b9L'
p251
asg101
Nsg102
Nsg103
S'bf73f3f83b86ebcc14d72e245ac481d3'
p252
sg105
S'd0144114b318c6f64e0ccd5efd45803b'
p253
sg107
(lp254
g193
ag200
ag207
ag214
ag221
ag228
ag235
asg109
Nsba(ibclass
BBasicBlock
p255
(dp256
g12
Nsg13
(lp257
(ibclass
BInstr
p258
(dp259
g2
Nsg17
S'mov     edx, [ebp+col]'
p260
sg19
S'8b55f4'
p261
sg21
Vmov edx, dword ptr [ebp - 0xc]
p262
sg5
L135049645L
sg6
Nsg23
S'mov'
p263
sg25
S'0x80cb1adL'
p264
sg27
Nsba(ibclass
BInstr
p265
(dp266
g2
Nsg17
S'mov     eax, [ebp+ptr]'
p267
sg19
S'8b45ec'
p268
sg21
Vmov eax, dword ptr [ebp - 0x14]
p269
sg5
L135049648L
sg6
Nsg23
S'mov'
p270
sg25
S'0x80cb1b0L'
p271
sg27
Nsba(ibclass
BInstr
p272
(dp273
g2
Nsg17
S'sub     edx, eax'
p274
sg19
S'29c2'
p275
sg21
Vsub edx, eax
p276
sg5
L135049651L
sg6
Nsg23
S'sub'
p277
sg25
S'0x80cb1b3L'
p278
sg27
Nsba(ibclass
BInstr
p279
(dp280
g2
Nsg17
S'mov     eax, edx'
p281
sg19
S'89d0'
p282
sg21
Vmov eax, edx
p283
sg5
L135049653L
sg6
Nsg23
S'mov'
p284
sg25
S'0x80cb1b5L'
p285
sg27
Nsba(ibclass
BInstr
p286
(dp287
g2
Nsg17
S'jmp     short loc_80CB1C4'
p288
sg19
S'eb0b'
p289
sg21
Vjmp 0xd
p290
sg5
L135049655L
sg6
Nsg23
S'jmp'
p291
sg25
S'0x80cb1b7L'
p292
sg27
Nsbasg84
(lp293
Vmov edx, mem
p294
aVmov eax, mem
p295
ag276
ag283
aVjmp address
p296
asg93
Nsg5
S'0x80cb1adL'
p297
sg95
(lp298
S'0x80cb191L'
p299
asg6
Nsg97
(lp300
S'0x80cb1c4L'
p301
asg101
Nsg102
Nsg103
S'd3fd8db55752e8867413dd627ae7316c'
p302
sg105
S'cf7e6f7528cc35da23375b3e7039f1aa'
p303
sg107
(lp304
g263
ag270
ag277
ag284
ag291
asg109
Nsba(ibclass
BBasicBlock
p305
(dp306
g12
Nsg13
(lp307
(ibclass
BInstr
p308
(dp309
g2
Nsg17
S'mov     eax, [ebp+ptr]'
p310
sg19
S'8b45ec'
p311
sg21
Vmov eax, dword ptr [ebp - 0x14]
p312
sg5
L135049657L
sg6
Nsg23
S'mov'
p313
sg25
S'0x80cb1b9L'
p314
sg27
Nsba(ibclass
BInstr
p315
(dp316
g2
Nsg17
S'mov     [esp], eax      ; s'
p317
sg19
S'890424'
p318
sg21
Vmov dword ptr [esp], eax
p319
sg5
L135049660L
sg6
Nsg23
S'mov'
p320
sg25
S'0x80cb1bcL'
p321
sg27
Nsba(ibclass
BInstr
p322
(dp323
g2
Nsg17
S'call    _strlen'
p324
sg19
S'e8fce6f7ff'
p325
sg21
Vcall 0xfff7e701
p326
sg5
L135049663L
sg6
Nsg23
S'call'
p327
sg25
S'0x80cb1bfL'
p328
sg27
Nsbasg84
(lp329
Vmov eax, mem
p330
aVmov mem, eax
p331
aVcall address
p332
asg93
Nsg5
S'0x80cb1b9L'
p333
sg95
(lp334
S'0x80cb191L'
p335
asg6
Nsg97
(lp336
S'0x80cb1c4L'
p337
asg101
Nsg102
Nsg103
S'0bf1a79a6a1155c5085c1c85d6d83d05'
p338
sg105
S'5af7f5bfd15310706e43fa164fed7a71'
p339
sg107
(lp340
g313
ag320
ag327
asg109
Nsba(ibclass
BBasicBlock
p341
(dp342
g12
Nsg13
(lp343
(ibclass
BInstr
p344
(dp345
g2
Nsg17
S'mov     [esp+8], eax    ; len'
p346
sg19
S'89442408'
p347
sg21
Vmov dword ptr [esp + 8], eax
p348
sg5
L135049668L
sg6
Nsg23
S'mov'
p349
sg25
S'0x80cb1c4L'
p350
sg27
Nsba(ibclass
BInstr
p351
(dp352
g2
Nsg17
S'lea     eax, [ebp+p]'
p353
sg19
S'8d45e8'
p354
sg21
Vlea eax, [ebp - 0x18]
p355
sg5
L135049672L
sg6
Nsg23
S'lea'
p356
sg25
S'0x80cb1c8L'
p357
sg27
Nsba(ibclass
BInstr
p358
(dp359
g2
Nsg17
S'mov     [esp+4], eax    ; pptr'
p360
sg19
S'89442404'
p361
sg21
Vmov dword ptr [esp + 4], eax
p362
sg5
L135049675L
sg6
Nsg23
S'mov'
p363
sg25
S'0x80cb1cbL'
p364
sg27
Nsba(ibclass
BInstr
p365
(dp366
g2
Nsg17
S'mov     eax, [ebp+ptr]'
p367
sg19
S'8b45ec'
p368
sg21
Vmov eax, dword ptr [ebp - 0x14]
p369
sg5
L135049679L
sg6
Nsg23
S'mov'
p370
sg25
S'0x80cb1cfL'
p371
sg27
Nsba(ibclass
BInstr
p372
(dp373
g2
Nsg17
S'mov     [esp], eax      ; profile_name'
p374
sg19
S'890424'
p375
sg21
Vmov dword ptr [esp], eax
p376
sg5
L135049682L
sg6
Nsg23
S'mov'
p377
sg25
S'0x80cb1d2L'
p378
sg27
Nsba(ibclass
BInstr
p379
(dp380
g2
Nsg17
S'call    find_profile_by_name'
p381
sg19
S'e804ffffff'
p382
sg21
Vcall 0xffffff09
p383
sg5
L135049685L
sg6
Nsg23
S'call'
p384
sg25
S'0x80cb1d5L'
p385
sg27
Nsba(ibclass
BInstr
p386
(dp387
g2
Nsg17
S'test    eax, eax'
p388
sg19
S'85c0'
p389
sg21
Vtest eax, eax
p390
sg5
L135049690L
sg6
Nsg23
S'test'
p391
sg25
S'0x80cb1daL'
p392
sg27
Nsba(ibclass
BInstr
p393
(dp394
g2
Nsg17
S'jnz     short loc_80CB24C'
p395
sg19
S'756e'
p396
sg21
Vjne 0x70
p397
sg5
L135049692L
sg6
Nsg23
S'jnz'
p398
sg25
S'0x80cb1dcL'
p399
sg27
Nsbasg84
(lp400
Vmov mem, eax
p401
aVlea eax, mem
p402
aVmov mem, eax
p403
aVmov eax, mem
p404
aVmov mem, eax
p405
aVcall address
p406
ag390
aVjne address
p407
asg93
Nsg5
S'0x80cb1c4L'
p408
sg95
(lp409
S'0x80cb1adL'
p410
aS'0x80cb1b9L'
p411
asg6
Nsg97
(lp412
S'0x80cb1deL'
p413
aS'0x80cb24cL'
p414
asg101
Nsg102
Nsg103
S'bd4bdb85eadef65d7e93e4816652fd6b'
p415
sg105
S'924b5f0ccb56dfece850415b5f932ce5'
p416
sg107
(lp417
g349
ag356
ag363
ag370
ag377
ag384
ag391
ag398
asg109
Nsba(ibclass
BBasicBlock
p418
(dp419
g12
Nsg13
(lp420
(ibclass
BInstr
p421
(dp422
g2
Nsg17
S'mov     eax, [ebp+p]'
p423
sg19
S'8b45e8'
p424
sg21
Vmov eax, dword ptr [ebp - 0x18]
p425
sg5
L135049694L
sg6
Nsg23
S'mov'
p426
sg25
S'0x80cb1deL'
p427
sg27
Nsba(ibclass
BInstr
p428
(dp429
g2
Nsg17
S'mov     [esp+4], eax    ; data'
p430
sg19
S'89442404'
p431
sg21
Vmov dword ptr [esp + 4], eax
p432
sg5
L135049697L
sg6
Nsg23
S'mov'
p433
sg25
S'0x80cb1e1L'
p434
sg27
Nsba(ibclass
BInstr
p435
(dp436
g2
Nsg17
S'mov     eax, [ebp+profiles]'
p437
sg19
S'8b45f0'
p438
sg21
Vmov eax, dword ptr [ebp - 0x10]
p439
sg5
L135049701L
sg6
Nsg23
S'mov'
p440
sg25
S'0x80cb1e5L'
p441
sg27
Nsba(ibclass
BInstr
p442
(dp443
g2
Nsg17
S'mov     [esp], eax      ; st'
p444
sg19
S'890424'
p445
sg21
Vmov dword ptr [esp], eax
p446
sg5
L135049704L
sg6
Nsg23
S'mov'
p447
sg25
S'0x80cb1e8L'
p448
sg27
Nsba(ibclass
BInstr
p449
(dp450
g2
Nsg17
S'call    sk_find'
p451
sg19
S'e88bae0600'
p452
sg21
Vcall 0x6ae90
p453
sg5
L135049707L
sg6
Nsg23
S'call'
p454
sg25
S'0x80cb1ebL'
p455
sg27
Nsba(ibclass
BInstr
p456
(dp457
g2
Nsg17
S'test    eax, eax'
p458
sg19
S'85c0'
p459
sg21
Vtest eax, eax
p460
sg5
L135049712L
sg6
Nsg23
S'test'
p461
sg25
S'0x80cb1f0L'
p462
sg27
Nsba(ibclass
BInstr
p463
(dp464
g2
Nsg17
S'js      short loc_80CB232'
p465
sg19
S'783e'
p466
sg21
Vjs 0x40
p467
sg5
L135049714L
sg6
Nsg23
S'js'
p468
sg25
S'0x80cb1f2L'
p469
sg27
Nsbasg84
(lp470
Vmov eax, mem
p471
aVmov mem, eax
p472
aVmov eax, mem
p473
aVmov mem, eax
p474
aVcall address
p475
ag460
aVjs address
p476
asg93
Nsg5
S'0x80cb1deL'
p477
sg95
(lp478
S'0x80cb1c4L'
p479
asg6
Nsg97
(lp480
S'0x80cb1f4L'
p481
aS'0x80cb232L'
p482
asg101
Nsg102
Nsg103
S'38b9ae33f89d09a3a944f92c0f402819'
p483
sg105
S'97ba39e22b793d1619bf6275ed8c5cd1'
p484
sg107
(lp485
g426
ag433
ag440
ag447
ag454
ag461
ag468
asg109
Nsba(ibclass
BBasicBlock
p486
(dp487
g12
Nsg13
(lp488
(ibclass
BInstr
p489
(dp490
g2
Nsg17
S'mov     dword ptr [esp+10h], 0BCh; line'
p491
sg19
S'c7442410bc000000'
p492
sg21
Vmov dword ptr [esp + 0x10], 0xbc
p493
sg5
L135049716L
sg6
Nsg23
S'mov'
p494
sg25
S'0x80cb1f4L'
p495
sg27
Nsba(ibclass
BInstr
p496
(dp497
g2
Nsg17
S'mov     dword ptr [esp+0Ch], offset aD1_srtp_c; "d1_srtp.c"'
p498
sg19
S'c744240cf0222108'
p499
sg21
Vmov dword ptr [esp + 0xc], 0x82122f0
p500
sg5
L135049724L
sg6
Nsg23
S'mov'
p501
sg25
S'0x80cb1fcL'
p502
sg27
Nsba(ibclass
BInstr
p503
(dp504
g2
Nsg17
S'mov     dword ptr [esp+8], 161h; reason'
p505
sg19
S'c744240861010000'
p506
sg21
Vmov dword ptr [esp + 8], 0x161
p507
sg5
L135049732L
sg6
Nsg23
S'mov'
p508
sg25
S'0x80cb204L'
p509
sg27
Nsba(ibclass
BInstr
p510
(dp511
g2
Nsg17
S'mov     dword ptr [esp+4], 135h; func'
p512
sg19
S'c744240435010000'
p513
sg21
Vmov dword ptr [esp + 4], 0x135
p514
sg5
L135049740L
sg6
Nsg23
S'mov'
p515
sg25
S'0x80cb20cL'
p516
sg27
Nsba(ibclass
BInstr
p517
(dp518
g2
Nsg17
S'mov     dword ptr [esp], 14h; lib'
p519
sg19
S'c7042414000000'
p520
sg21
Vmov dword ptr [esp], 0x14
p521
sg5
L135049748L
sg6
Nsg23
S'mov'
p522
sg25
S'0x80cb214L'
p523
sg27
Nsba(ibclass
BInstr
p524
(dp525
g2
Nsg17
S'call    ERR_put_error'
p526
sg19
S'e879d70600'
p527
sg21
Vcall 0x6d77e
p528
sg5
L135049755L
sg6
Nsg23
S'call'
p529
sg25
S'0x80cb21bL'
p530
sg27
Nsba(ibclass
BInstr
p531
(dp532
g2
Nsg17
S'mov     eax, [ebp+profiles]'
p533
sg19
S'8b45f0'
p534
sg21
Vmov eax, dword ptr [ebp - 0x10]
p535
sg5
L135049760L
sg6
Nsg23
S'mov'
p536
sg25
S'0x80cb220L'
p537
sg27
Nsba(ibclass
BInstr
p538
(dp539
g2
Nsg17
S'mov     [esp], eax      ; st'
p540
sg19
S'890424'
p541
sg21
Vmov dword ptr [esp], eax
p542
sg5
L135049763L
sg6
Nsg23
S'mov'
p543
sg25
S'0x80cb223L'
p544
sg27
Nsba(ibclass
BInstr
p545
(dp546
g2
Nsg17
S'call    sk_free'
p547
sg19
S'e8f2af0600'
p548
sg21
Vcall 0x6aff7
p549
sg5
L135049766L
sg6
Nsg23
S'call'
p550
sg25
S'0x80cb226L'
p551
sg27
Nsba(ibclass
BInstr
p552
(dp553
g2
Nsg17
S'mov     eax, 1'
p554
sg19
S'b801000000'
p555
sg21
Vmov eax, 1
p556
sg5
L135049771L
sg6
Nsg23
S'mov'
p557
sg25
S'0x80cb22bL'
p558
sg27
Nsba(ibclass
BInstr
p559
(dp560
g2
Nsg17
S'jmp     short locret_80CB2A8'
p561
sg19
S'eb76'
p562
sg21
Vjmp 0x78
p563
sg5
L135049776L
sg6
Nsg23
S'jmp'
p564
sg25
S'0x80cb230L'
p565
sg27
Nsbasg84
(lp566
Vmov mem, address
p567
aVmov mem, address
p568
aVmov mem, address
p569
aVmov mem, address
p570
aVmov mem, address
p571
aVcall address
p572
aVmov eax, mem
p573
aVmov mem, eax
p574
aVcall address
p575
ag556
aVjmp address
p576
asg93
Nsg5
S'0x80cb1f4L'
p577
sg95
(lp578
S'0x80cb1deL'
p579
asg6
Nsg97
(lp580
S'0x80cb2a8L'
p581
asg101
Nsg102
Nsg103
S'a82e9ca6a21806e0b96df9fa3022ad39'
p582
sg105
S'f2b9cef0a81e58290f6df570ab7a42af'
p583
sg107
(lp584
g494
ag501
ag508
ag515
ag522
ag529
ag536
ag543
ag550
ag557
ag564
asg109
Nsba(ibclass
BBasicBlock
p585
(dp586
g12
Nsg13
(lp587
(ibclass
BInstr
p588
(dp589
g2
Nsg17
S'mov     eax, [ebp+p]'
p590
sg19
S'8b45e8'
p591
sg21
Vmov eax, dword ptr [ebp - 0x18]
p592
sg5
L135049778L
sg6
Nsg23
S'mov'
p593
sg25
S'0x80cb232L'
p594
sg27
Nsba(ibclass
BInstr
p595
(dp596
g2
Nsg17
S'mov     [esp+4], eax    ; data'
p597
sg19
S'89442404'
p598
sg21
Vmov dword ptr [esp + 4], eax
p599
sg5
L135049781L
sg6
Nsg23
S'mov'
p600
sg25
S'0x80cb235L'
p601
sg27
Nsba(ibclass
BInstr
p602
(dp603
g2
Nsg17
S'mov     eax, [ebp+profiles]'
p604
sg19
S'8b45f0'
p605
sg21
Vmov eax, dword ptr [ebp - 0x10]
p606
sg5
L135049785L
sg6
Nsg23
S'mov'
p607
sg25
S'0x80cb239L'
p608
sg27
Nsba(ibclass
BInstr
p609
(dp610
g2
Nsg17
S'mov     [esp], eax      ; st'
p611
sg19
S'890424'
p612
sg21
Vmov dword ptr [esp], eax
p613
sg5
L135049788L
sg6
Nsg23
S'mov'
p614
sg25
S'0x80cb23cL'
p615
sg27
Nsba(ibclass
BInstr
p616
(dp617
g2
Nsg17
S'call    sk_push'
p618
sg19
S'e87bae0600'
p619
sg21
Vcall 0x6ae80
p620
sg5
L135049791L
sg6
Nsg23
S'call'
p621
sg25
S'0x80cb23fL'
p622
sg27
Nsba(ibclass
BInstr
p623
(dp624
g2
Nsg17
S'cmp     [ebp+col], 0'
p625
sg19
S'837df400'
p626
sg21
Vcmp dword ptr [ebp - 0xc], 0
p627
sg5
L135049796L
sg6
Nsg23
S'cmp'
p628
sg25
S'0x80cb244L'
p629
sg27
Nsba(ibclass
BInstr
p630
(dp631
g2
Nsg17
S'jz      short loc_80CB291'
p632
sg19
S'7447'
p633
sg21
Vje 0x49
p634
sg5
L135049800L
sg6
Nsg23
S'jz'
p635
sg25
S'0x80cb248L'
p636
sg27
Nsbasg84
(lp637
Vmov eax, mem
p638
aVmov mem, eax
p639
aVmov eax, mem
p640
aVmov mem, eax
p641
aVcall address
p642
aVcmp mem, 0
p643
aVje address
p644
asg93
Nsg5
S'0x80cb232L'
p645
sg95
(lp646
S'0x80cb1deL'
p647
asg6
Nsg97
(lp648
S'0x80cb24aL'
p649
aS'0x80cb291L'
p650
asg101
Nsg102
Nsg103
S'd4c357956e7d6d7796efb66e80735126'
p651
sg105
S'a2fcc7a85f88e9a772619bf4f6e8d1cc'
p652
sg107
(lp653
g593
ag600
ag607
ag614
ag621
ag628
ag635
asg109
Nsba(ibclass
BBasicBlock
p654
(dp655
g12
Nsg13
(lp656
(ibclass
BInstr
p657
(dp658
g2
Nsg17
S'jmp     short loc_80CB28A'
p659
sg19
S'eb3e'
p660
sg21
Vjmp 0x40
p661
sg5
L135049802L
sg6
Nsg23
S'jmp'
p662
sg25
S'0x80cb24aL'
p663
sg27
Nsbasg84
(lp664
Vjmp address
p665
asg93
Nsg5
S'0x80cb24aL'
p666
sg95
(lp667
S'0x80cb232L'
p668
asg6
Nsg97
(lp669
S'0x80cb28aL'
p670
asg101
Nsg102
Nsg103
S'0ef6cf926f2f394b0cc8e11be8022625'
p671
sg105
S'd4372e4caa7348928655251605aa7329'
p672
sg107
(lp673
g662
asg109
Nsba(ibclass
BBasicBlock
p674
(dp675
g12
Nsg13
(lp676
(ibclass
BInstr
p677
(dp678
g2
Nsg17
S'mov     dword ptr [esp+10h], 0C4h; line'
p679
sg19
S'c7442410c4000000'
p680
sg21
Vmov dword ptr [esp + 0x10], 0xc4
p681
sg5
L135049804L
sg6
Nsg23
S'mov'
p682
sg25
S'0x80cb24cL'
p683
sg27
Nsba(ibclass
BInstr
p684
(dp685
g2
Nsg17
S'mov     dword ptr [esp+0Ch], offset aD1_srtp_c; "d1_srtp.c"'
p686
sg19
S'c744240cf0222108'
p687
sg21
Vmov dword ptr [esp + 0xc], 0x82122f0
p688
sg5
L135049812L
sg6
Nsg23
S'mov'
p689
sg25
S'0x80cb254L'
p690
sg27
Nsba(ibclass
BInstr
p691
(dp692
g2
Nsg17
S'mov     dword ptr [esp+8], 16Ch; reason'
p693
sg19
S'c74424086c010000'
p694
sg21
Vmov dword ptr [esp + 8], 0x16c
p695
sg5
L135049820L
sg6
Nsg23
S'mov'
p696
sg25
S'0x80cb25cL'
p697
sg27
Nsba(ibclass
BInstr
p698
(dp699
g2
Nsg17
S'mov     dword ptr [esp+4], 135h; func'
p700
sg19
S'c744240435010000'
p701
sg21
Vmov dword ptr [esp + 4], 0x135
p702
sg5
L135049828L
sg6
Nsg23
S'mov'
p703
sg25
S'0x80cb264L'
p704
sg27
Nsba(ibclass
BInstr
p705
(dp706
g2
Nsg17
S'mov     dword ptr [esp], 14h; lib'
p707
sg19
S'c7042414000000'
p708
sg21
Vmov dword ptr [esp], 0x14
p709
sg5
L135049836L
sg6
Nsg23
S'mov'
p710
sg25
S'0x80cb26cL'
p711
sg27
Nsba(ibclass
BInstr
p712
(dp713
g2
Nsg17
S'call    ERR_put_error'
p714
sg19
S'e821d70600'
p715
sg21
Vcall 0x6d726
p716
sg5
L135049843L
sg6
Nsg23
S'call'
p717
sg25
S'0x80cb273L'
p718
sg27
Nsba(ibclass
BInstr
p719
(dp720
g2
Nsg17
S'mov     eax, [ebp+profiles]'
p721
sg19
S'8b45f0'
p722
sg21
Vmov eax, dword ptr [ebp - 0x10]
p723
sg5
L135049848L
sg6
Nsg23
S'mov'
p724
sg25
S'0x80cb278L'
p725
sg27
Nsba(ibclass
BInstr
p726
(dp727
g2
Nsg17
S'mov     [esp], eax      ; st'
p728
sg19
S'890424'
p729
sg21
Vmov dword ptr [esp], eax
p730
sg5
L135049851L
sg6
Nsg23
S'mov'
p731
sg25
S'0x80cb27bL'
p732
sg27
Nsba(ibclass
BInstr
p733
(dp734
g2
Nsg17
S'call    sk_free'
p735
sg19
S'e89aaf0600'
p736
sg21
Vcall 0x6af9f
p737
sg5
L135049854L
sg6
Nsg23
S'call'
p738
sg25
S'0x80cb27eL'
p739
sg27
Nsba(ibclass
BInstr
p740
(dp741
g2
Nsg17
S'mov     eax, 1'
p742
sg19
S'b801000000'
p743
sg21
Vmov eax, 1
p744
sg5
L135049859L
sg6
Nsg23
S'mov'
p745
sg25
S'0x80cb283L'
p746
sg27
Nsba(ibclass
BInstr
p747
(dp748
g2
Nsg17
S'jmp     short locret_80CB2A8'
p749
sg19
S'eb1e'
p750
sg21
Vjmp 0x20
p751
sg5
L135049864L
sg6
Nsg23
S'jmp'
p752
sg25
S'0x80cb288L'
p753
sg27
Nsbasg84
(lp754
Vmov mem, address
p755
aVmov mem, address
p756
aVmov mem, address
p757
aVmov mem, address
p758
aVmov mem, address
p759
aVcall address
p760
aVmov eax, mem
p761
aVmov mem, eax
p762
aVcall address
p763
ag744
aVjmp address
p764
asg93
Nsg5
S'0x80cb24cL'
p765
sg95
(lp766
S'0x80cb1c4L'
p767
asg6
Nsg97
(lp768
S'0x80cb2a8L'
p769
asg101
Nsg102
Nsg103
S'a82e9ca6a21806e0b96df9fa3022ad39'
p770
sg105
S'f2b9cef0a81e58290f6df570ab7a42af'
p771
sg107
(lp772
g682
ag689
ag696
ag703
ag710
ag717
ag724
ag731
ag738
ag745
ag752
asg109
Nsba(ibclass
BBasicBlock
p773
(dp774
g12
Nsg13
(lp775
(ibclass
BInstr
p776
(dp777
g2
Nsg17
S'mov     eax, [ebp+col]'
p778
sg19
S'8b45f4'
p779
sg21
Vmov eax, dword ptr [ebp - 0xc]
p780
sg5
L135049866L
sg6
Nsg23
S'mov'
p781
sg25
S'0x80cb28aL'
p782
sg27
Nsba(ibclass
BInstr
p783
(dp784
g2
Nsg17
S'inc     eax'
p785
sg19
S'40'
p786
sg21
Vinc eax
p787
sg5
L135049869L
sg6
Nsg23
S'inc'
p788
sg25
S'0x80cb28dL'
p789
sg27
Nsba(ibclass
BInstr
p790
(dp791
g2
Nsg17
S'mov     [ebp+ptr], eax'
p792
sg19
S'8945ec'
p793
sg21
Vmov dword ptr [ebp - 0x14], eax
p794
sg5
L135049870L
sg6
Nsg23
S'mov'
p795
sg25
S'0x80cb28eL'
p796
sg27
Nsbasg84
(lp797
Vmov eax, mem
p798
ag787
aVmov mem, eax
p799
asg93
Nsg5
S'0x80cb28aL'
p800
sg95
(lp801
S'0x80cb24aL'
p802
asg6
Nsg97
(lp803
S'0x80cb291L'
p804
asg101
Nsg102
Nsg103
S'c03093863c939f9b40d95b721c1adbf2'
p805
sg105
S'05a8d0678027938c714b97ab0a1ffa5e'
p806
sg107
(lp807
g781
ag788
ag795
asg109
Nsba(ibclass
BBasicBlock
p808
(dp809
g12
Nsg13
(lp810
(ibclass
BInstr
p811
(dp812
g2
Nsg17
S'cmp     [ebp+col], 0'
p813
sg19
S'837df400'
p814
sg21
Vcmp dword ptr [ebp - 0xc], 0
p815
sg5
L135049873L
sg6
Nsg23
S'cmp'
p816
sg25
S'0x80cb291L'
p817
sg27
Nsba(ibclass
BInstr
p818
(dp819
g2
Nsg17
S'jnz     loc_80CB191'
p820
sg19
S'0f85f6feffff'
p821
sg21
Vjne 0xfffffefc
p822
sg5
L135049877L
sg6
Nsg23
S'jnz'
p823
sg25
S'0x80cb295L'
p824
sg27
Nsbasg84
(lp825
Vcmp mem, 0
p826
aVjne address
p827
asg93
Nsg5
S'0x80cb291L'
p828
sg95
(lp829
S'0x80cb232L'
p830
aS'0x80cb28aL'
p831
asg6
Nsg97
(lp832
S'0x80cb191L'
p833
aS'0x80cb29bL'
p834
asg101
Nsg102
Nsg103
S'30cb3d6f6a174adfabcde507f6944a52'
p835
sg105
S'ac6a5deb49a2d2e7162632941da7e135'
p836
sg107
(lp837
g816
ag823
asg109
Nsba(ibclass
BBasicBlock
p838
(dp839
g12
Nsg13
(lp840
(ibclass
BInstr
p841
(dp842
g2
Nsg17
S'mov     eax, [ebp+out]'
p843
sg19
S'8b450c'
p844
sg21
Vmov eax, dword ptr [ebp + 0xc]
p845
sg5
L135049883L
sg6
Nsg23
S'mov'
p846
sg25
S'0x80cb29bL'
p847
sg27
Nsba(ibclass
BInstr
p848
(dp849
g2
Nsg17
S'mov     edx, [ebp+profiles]'
p850
sg19
S'8b55f0'
p851
sg21
Vmov edx, dword ptr [ebp - 0x10]
p852
sg5
L135049886L
sg6
Nsg23
S'mov'
p853
sg25
S'0x80cb29eL'
p854
sg27
Nsba(ibclass
BInstr
p855
(dp856
g2
Nsg17
S'mov     [eax], edx'
p857
sg19
S'8910'
p858
sg21
Vmov dword ptr [eax], edx
p859
sg5
L135049889L
sg6
Nsg23
S'mov'
p860
sg25
S'0x80cb2a1L'
p861
sg27
Nsba(ibclass
BInstr
p862
(dp863
g2
Nsg17
S'mov     eax, 0'
p864
sg19
S'b800000000'
p865
sg21
Vmov eax, 0
p866
sg5
L135049891L
sg6
Nsg23
S'mov'
p867
sg25
S'0x80cb2a3L'
p868
sg27
Nsbasg84
(lp869
Vmov eax, mem
p870
aVmov edx, mem
p871
aVmov mem, edx
p872
ag866
asg93
Nsg5
S'0x80cb29bL'
p873
sg95
(lp874
S'0x80cb291L'
p875
asg6
Nsg97
(lp876
S'0x80cb2a8L'
p877
asg101
Nsg102
Nsg103
S'a7ed50a6d28be8041222ce9aca64dd18'
p878
sg105
S'0599ce199d28c47340d6bdf067847840'
p879
sg107
(lp880
g846
ag853
ag860
ag867
asg109
Nsba(ibclass
BBasicBlock
p881
(dp882
g12
Nsg13
(lp883
(ibclass
BInstr
p884
(dp885
g2
Nsg17
S'leave'
p886
sg19
S'c9'
p887
sg21
Vleave 
p888
sg5
L135049896L
sg6
Nsg23
S'leave'
p889
sg25
S'0x80cb2a8L'
p890
sg27
Nsba(ibclass
BInstr
p891
(dp892
g2
Nsg17
S'retn'
p893
sg19
S'c3'
p894
sg21
Vret 
p895
sg5
L135049897L
sg6
Nsg23
S'retn'
p896
sg25
S'0x80cb2a9L'
p897
sg27
Nsbasg84
(lp898
Vleave
p899
aVret
p900
asg93
Nsg5
S'0x80cb2a8L'
p901
sg95
(lp902
S'0x80cb15bL'
p903
aS'0x80cb1f4L'
p904
aS'0x80cb24cL'
p905
aS'0x80cb29bL'
p906
asg6
Nsg97
(lp907
sg101
Nsg102
Nsg103
S'08c78f73a6f87c85da88b2982f54ce2a'
p908
sg105
S'393fee3c9fb1d26424d4b7704918e387'
p909
sg107
(lp910
g889
ag896
asg109
Nsbasb.