(ibclass
BFunc
p0
(dp1
S'hash'
p2
NsS'name'
p3
S'ssl_get_algorithm2'
p4
sS'start_address'
p5
L134924826L
sS'flag'
p6
NsS'program'
p7
NsS'bbs'
p8
(lp9
(ibclass
BBasicBlock
p10
(dp11
S'function'
p12
NsS'binstrs'
p13
(lp14
(ibclass
BInstr
p15
(dp16
g2
NsS'disasm'
p17
S'push    ebp'
p18
sS'bytes'
p19
S'55'
p20
sS'disasm_striped'
p21
Vpush ebp
p22
sg5
L134924826L
sg6
NsS'mnem'
p23
S'push'
p24
sS'address'
p25
S'0x80aca1aL'
p26
sS'basicblock'
p27
Nsba(ibclass
BInstr
p28
(dp29
g2
Nsg17
S'mov     ebp, esp'
p30
sg19
S'89e5'
p31
sg21
Vmov ebp, esp
p32
sg5
L134924827L
sg6
Nsg23
S'mov'
p33
sg25
S'0x80aca1bL'
p34
sg27
Nsba(ibclass
BInstr
p35
(dp36
g2
Nsg17
S'sub     esp, 10h'
p37
sg19
S'83ec10'
p38
sg21
Vsub esp, 0x10
p39
sg5
L134924829L
sg6
Nsg23
S'sub'
p40
sg25
S'0x80aca1dL'
p41
sg27
Nsba(ibclass
BInstr
p42
(dp43
g2
Nsg17
S'mov     eax, [ebp+s]'
p44
sg19
S'8b4508'
p45
sg21
Vmov eax, dword ptr [ebp + 8]
p46
sg5
L134924832L
sg6
Nsg23
S'mov'
p47
sg25
S'0x80aca20L'
p48
sg27
Nsba(ibclass
BInstr
p49
(dp50
g2
Nsg17
S'mov     eax, [eax+58h]'
p51
sg19
S'8b4058'
p52
sg21
Vmov eax, dword ptr [eax + 0x58]
p53
sg5
L134924835L
sg6
Nsg23
S'mov'
p54
sg25
S'0x80aca23L'
p55
sg27
Nsba(ibclass
BInstr
p56
(dp57
g2
Nsg17
S'mov     eax, [eax+344h]'
p58
sg19
S'8b8044030000'
p59
sg21
Vmov eax, dword ptr [eax + 0x344]
p60
sg5
L134924838L
sg6
Nsg23
S'mov'
p61
sg25
S'0x80aca26L'
p62
sg27
Nsba(ibclass
BInstr
p63
(dp64
g2
Nsg17
S'mov     eax, [eax+24h]'
p65
sg19
S'8b4024'
p66
sg21
Vmov eax, dword ptr [eax + 0x24]
p67
sg5
L134924844L
sg6
Nsg23
S'mov'
p68
sg25
S'0x80aca2cL'
p69
sg27
Nsba(ibclass
BInstr
p70
(dp71
g2
Nsg17
S'mov     [ebp+alg2], eax'
p72
sg19
S'8945fc'
p73
sg21
Vmov dword ptr [ebp - 4], eax
p74
sg5
L134924847L
sg6
Nsg23
S'mov'
p75
sg25
S'0x80aca2fL'
p76
sg27
Nsba(ibclass
BInstr
p77
(dp78
g2
Nsg17
S'mov     eax, [ebp+s]'
p79
sg19
S'8b4508'
p80
sg21
Vmov eax, dword ptr [ebp + 8]
p81
sg5
L134924850L
sg6
Nsg23
S'mov'
p82
sg25
S'0x80aca32L'
p83
sg27
Nsba(ibclass
BInstr
p84
(dp85
g2
Nsg17
S'mov     eax, [eax+8]'
p86
sg19
S'8b4008'
p87
sg21
Vmov eax, dword ptr [eax + 8]
p88
sg5
L134924853L
sg6
Nsg23
S'mov'
p89
sg25
S'0x80aca35L'
p90
sg27
Nsba(ibclass
BInstr
p91
(dp92
g2
Nsg17
S'mov     eax, [eax]'
p93
sg19
S'8b00'
p94
sg21
Vmov eax, dword ptr [eax]
p95
sg5
L134924856L
sg6
Nsg23
S'mov'
p96
sg25
S'0x80aca38L'
p97
sg27
Nsba(ibclass
BInstr
p98
(dp99
g2
Nsg17
S'cmp     eax, 303h'
p100
sg19
S'3d03030000'
p101
sg21
Vcmp eax, 0x303
p102
sg5
L134924858L
sg6
Nsg23
S'cmp'
p103
sg25
S'0x80aca3aL'
p104
sg27
Nsba(ibclass
BInstr
p105
(dp106
g2
Nsg17
S'jnz     short loc_80ACA51'
p107
sg19
S'7510'
p108
sg21
Vjne 0x12
p109
sg5
L134924863L
sg6
Nsg23
S'jnz'
p110
sg25
S'0x80aca3fL'
p111
sg27
NsbasS'disasm_list'
p112
(lp113
g22
ag32
aVsub esp, address
p114
aVmov eax, mem
p115
aVmov eax, mem
p116
aVmov eax, mem
p117
aVmov eax, mem
p118
aVmov mem, eax
p119
aVmov eax, mem
p120
aVmov eax, mem
p121
aVmov eax, mem
p122
aVcmp eax, address
p123
aVjne address
p124
asS'end_address'
p125
Nsg5
S'0x80aca1aL'
p126
sS'preds'
p127
(lp128
sg6
NsS'succs'
p129
(lp130
S'0x80aca41L'
p131
aS'0x80aca51L'
p132
asS'hash_v3'
p133
NsS'flag_v2'
p134
NsS'hash_v1'
p135
S'7b130247f94b124985eacd369ed91054'
p136
sS'hash_v2'
p137
S'352b439e91b236662332b13c4e4007d5'
p138
sS'mnen_list'
p139
(lp140
g24
ag33
ag40
ag47
ag54
ag61
ag68
ag75
ag82
ag89
ag96
ag103
ag110
asS'neighbour_disasm_list'
p141
Nsba(ibclass
BBasicBlock
p142
(dp143
g12
Nsg13
(lp144
(ibclass
BInstr
p145
(dp146
g2
Nsg17
S'cmp     [ebp+alg2], 0C030h'
p147
sg19
S'817dfc30c00000'
p148
sg21
Vcmp dword ptr [ebp - 4], 0xc030
p149
sg5
L134924865L
sg6
Nsg23
S'cmp'
p150
sg25
S'0x80aca41L'
p151
sg27
Nsba(ibclass
BInstr
p152
(dp153
g2
Nsg17
S'jnz     short loc_80ACA51'
p154
sg19
S'7507'
p155
sg21
Vjne 9
p156
sg5
L134924872L
sg6
Nsg23
S'jnz'
p157
sg25
S'0x80aca48L'
p158
sg27
Nsbasg112
(lp159
Vcmp mem, address
p160
ag156
asg125
Nsg5
S'0x80aca41L'
p161
sg127
(lp162
S'0x80aca1aL'
p163
asg6
Nsg129
(lp164
S'0x80aca4aL'
p165
aS'0x80aca51L'
p166
asg133
Nsg134
Nsg135
S'30cb3d6f6a174adfabcde507f6944a52'
p167
sg137
S'eef9b169dfa885b9bd865248f86a0b13'
p168
sg139
(lp169
g150
ag157
asg141
Nsba(ibclass
BBasicBlock
p170
(dp171
g12
Nsg13
(lp172
(ibclass
BInstr
p173
(dp174
g2
Nsg17
S'mov     eax, 20080h'
p175
sg19
S'b880000200'
p176
sg21
Vmov eax, 0x20080
p177
sg5
L134924874L
sg6
Nsg23
S'mov'
p178
sg25
S'0x80aca4aL'
p179
sg27
Nsba(ibclass
BInstr
p180
(dp181
g2
Nsg17
S'jmp     short locret_80ACA54'
p182
sg19
S'eb03'
p183
sg21
Vjmp 5
p184
sg5
L134924879L
sg6
Nsg23
S'jmp'
p185
sg25
S'0x80aca4fL'
p186
sg27
Nsbasg112
(lp187
Vmov eax, address
p188
ag184
asg125
Nsg5
S'0x80aca4aL'
p189
sg127
(lp190
S'0x80aca41L'
p191
asg6
Nsg129
(lp192
S'0x80aca54L'
p193
asg133
Nsg134
Nsg135
S'8b9a0d40e062be2b9b2d9885108fb196'
p194
sg137
S'2ab4845912a6d4fdb82bf166ef0aeeac'
p195
sg139
(lp196
g178
ag185
asg141
Nsba(ibclass
BBasicBlock
p197
(dp198
g12
Nsg13
(lp199
(ibclass
BInstr
p200
(dp201
g2
Nsg17
S'mov     eax, [ebp+alg2]'
p202
sg19
S'8b45fc'
p203
sg21
Vmov eax, dword ptr [ebp - 4]
p204
sg5
L134924881L
sg6
Nsg23
S'mov'
p205
sg25
S'0x80aca51L'
p206
sg27
Nsbasg112
(lp207
Vmov eax, mem
p208
asg125
Nsg5
S'0x80aca51L'
p209
sg127
(lp210
S'0x80aca1aL'
p211
aS'0x80aca41L'
p212
asg6
Nsg129
(lp213
S'0x80aca54L'
p214
asg133
Nsg134
Nsg135
S'96a4a0e6e9ac88756a0fcba989d0a844'
p215
sg137
S'da3a10212e6b688447f8e74c20e21f06'
p216
sg139
(lp217
g205
asg141
Nsba(ibclass
BBasicBlock
p218
(dp219
g12
Nsg13
(lp220
(ibclass
BInstr
p221
(dp222
g2
Nsg17
S'leave'
p223
sg19
S'c9'
p224
sg21
Vleave 
p225
sg5
L134924884L
sg6
Nsg23
S'leave'
p226
sg25
S'0x80aca54L'
p227
sg27
Nsba(ibclass
BInstr
p228
(dp229
g2
Nsg17
S'retn'
p230
sg19
S'c3'
p231
sg21
Vret 
p232
sg5
L134924885L
sg6
Nsg23
S'retn'
p233
sg25
S'0x80aca55L'
p234
sg27
Nsbasg112
(lp235
Vleave
p236
aVret
p237
asg125
Nsg5
S'0x80aca54L'
p238
sg127
(lp239
S'0x80aca4aL'
p240
aS'0x80aca51L'
p241
asg6
Nsg129
(lp242
sg133
Nsg134
Nsg135
S'08c78f73a6f87c85da88b2982f54ce2a'
p243
sg137
S'393fee3c9fb1d26424d4b7704918e387'
p244
sg139
(lp245
g226
ag233
asg141
Nsbasb.