(ibclass
BFunc
p0
(dp1
S'hash'
p2
NsS'name'
p3
S'dtls1_process_buffered_records'
p4
sS'start_address'
p5
L135025231L
sS'flag'
p6
NsS'program'
p7
NsS'bbs'
p8
(lp9
(ibclass
BBasicBlock
p10
(dp11
S'function'
p12
NsS'binstrs'
p13
(lp14
(ibclass
BInstr
p15
(dp16
g2
NsS'disasm'
p17
S'push    ebp'
p18
sS'bytes'
p19
S'55'
p20
sS'disasm_striped'
p21
Vpush ebp
p22
sg5
L135025231L
sg6
NsS'mnem'
p23
S'push'
p24
sS'address'
p25
S'0x80c524fL'
p26
sS'basicblock'
p27
Nsba(ibclass
BInstr
p28
(dp29
g2
Nsg17
S'mov     ebp, esp'
p30
sg19
S'89e5'
p31
sg21
Vmov ebp, esp
p32
sg5
L135025232L
sg6
Nsg23
S'mov'
p33
sg25
S'0x80c5250L'
p34
sg27
Nsba(ibclass
BInstr
p35
(dp36
g2
Nsg17
S'sub     esp, 28h'
p37
sg19
S'83ec28'
p38
sg21
Vsub esp, 0x28
p39
sg5
L135025234L
sg6
Nsg23
S'sub'
p40
sg25
S'0x80c5252L'
p41
sg27
Nsba(ibclass
BInstr
p42
(dp43
g2
Nsg17
S'mov     eax, [ebp+s]'
p44
sg19
S'8b4508'
p45
sg21
Vmov eax, dword ptr [ebp + 8]
p46
sg5
L135025237L
sg6
Nsg23
S'mov'
p47
sg25
S'0x80c5255L'
p48
sg27
Nsba(ibclass
BInstr
p49
(dp50
g2
Nsg17
S'mov     eax, [eax+5Ch]'
p51
sg19
S'8b405c'
p52
sg21
Vmov eax, dword ptr [eax + 0x5c]
p53
sg5
L135025240L
sg6
Nsg23
S'mov'
p54
sg25
S'0x80c5258L'
p55
sg27
Nsba(ibclass
BInstr
p56
(dp57
g2
Nsg17
S'mov     eax, [eax+238h]'
p58
sg19
S'8b8038020000'
p59
sg21
Vmov eax, dword ptr [eax + 0x238]
p60
sg5
L135025243L
sg6
Nsg23
S'mov'
p61
sg25
S'0x80c525bL'
p62
sg27
Nsba(ibclass
BInstr
p63
(dp64
g2
Nsg17
S'mov     [esp], eax      ; pq'
p65
sg19
S'890424'
p66
sg21
Vmov dword ptr [esp], eax
p67
sg5
L135025249L
sg6
Nsg23
S'mov'
p68
sg25
S'0x80c5261L'
p69
sg27
Nsba(ibclass
BInstr
p70
(dp71
g2
Nsg17
S'call    pqueue_peek'
p72
sg19
S'e86a930d00'
p73
sg21
Vcall 0xd936f
p74
sg5
L135025252L
sg6
Nsg23
S'call'
p75
sg25
S'0x80c5264L'
p76
sg27
Nsba(ibclass
BInstr
p77
(dp78
g2
Nsg17
S'mov     [ebp+item], eax'
p79
sg19
S'8945f4'
p80
sg21
Vmov dword ptr [ebp - 0xc], eax
p81
sg5
L135025257L
sg6
Nsg23
S'mov'
p82
sg25
S'0x80c5269L'
p83
sg27
Nsba(ibclass
BInstr
p84
(dp85
g2
Nsg17
S'cmp     [ebp+item], 0'
p86
sg19
S'837df400'
p87
sg21
Vcmp dword ptr [ebp - 0xc], 0
p88
sg5
L135025260L
sg6
Nsg23
S'cmp'
p89
sg25
S'0x80c526cL'
p90
sg27
Nsba(ibclass
BInstr
p91
(dp92
g2
Nsg17
S'jz      loc_80C531F'
p93
sg19
S'0f84a9000000'
p94
sg21
Vje 0xaf
p95
sg5
L135025264L
sg6
Nsg23
S'jz'
p96
sg25
S'0x80c5270L'
p97
sg27
NsbasS'disasm_list'
p98
(lp99
g22
ag32
aVsub esp, address
p100
aVmov eax, mem
p101
aVmov eax, mem
p102
aVmov eax, mem
p103
aVmov mem, eax
p104
aVcall address
p105
aVmov mem, eax
p106
aVcmp mem, 0
p107
aVje address
p108
asS'end_address'
p109
Nsg5
S'0x80c524fL'
p110
sS'preds'
p111
(lp112
sg6
NsS'succs'
p113
(lp114
S'0x80c5276L'
p115
aS'0x80c531fL'
p116
asS'hash_v3'
p117
NsS'flag_v2'
p118
NsS'hash_v1'
p119
S'261cd20d06e2dea459793479f5ab24af'
p120
sS'hash_v2'
p121
S'02f5525bfeb8495fd59f23df4e09a11c'
p122
sS'mnen_list'
p123
(lp124
g24
ag33
ag40
ag47
ag54
ag61
ag68
ag75
ag82
ag89
ag96
asS'neighbour_disasm_list'
p125
Nsba(ibclass
BBasicBlock
p126
(dp127
g12
Nsg13
(lp128
(ibclass
BInstr
p129
(dp130
g2
Nsg17
S'mov     eax, [ebp+s]'
p131
sg19
S'8b4508'
p132
sg21
Vmov eax, dword ptr [ebp + 8]
p133
sg5
L135025270L
sg6
Nsg23
S'mov'
p134
sg25
S'0x80c5276L'
p135
sg27
Nsba(ibclass
BInstr
p136
(dp137
g2
Nsg17
S'mov     eax, [eax+5Ch]'
p138
sg19
S'8b405c'
p139
sg21
Vmov eax, dword ptr [eax + 0x5c]
p140
sg5
L135025273L
sg6
Nsg23
S'mov'
p141
sg25
S'0x80c5279L'
p142
sg27
Nsba(ibclass
BInstr
p143
(dp144
g2
Nsg17
S'mov     edx, [eax+234h]'
p145
sg19
S'8b9034020000'
p146
sg21
Vmov edx, dword ptr [eax + 0x234]
p147
sg5
L135025276L
sg6
Nsg23
S'mov'
p148
sg25
S'0x80c527cL'
p149
sg27
Nsba(ibclass
BInstr
p150
(dp151
g2
Nsg17
S'mov     eax, [ebp+s]'
p152
sg19
S'8b4508'
p153
sg21
Vmov eax, dword ptr [ebp + 8]
p154
sg5
L135025282L
sg6
Nsg23
S'mov'
p155
sg25
S'0x80c5282L'
p156
sg27
Nsba(ibclass
BInstr
p157
(dp158
g2
Nsg17
S'mov     eax, [eax+5Ch]'
p159
sg19
S'8b405c'
p160
sg21
Vmov eax, dword ptr [eax + 0x5c]
p161
sg5
L135025285L
sg6
Nsg23
S'mov'
p162
sg25
S'0x80c5285L'
p163
sg27
Nsba(ibclass
BInstr
p164
(dp165
g2
Nsg17
S'mov     eax, [eax+208h]'
p166
sg19
S'8b8008020000'
p167
sg21
Vmov eax, dword ptr [eax + 0x208]
p168
sg5
L135025288L
sg6
Nsg23
S'mov'
p169
sg25
S'0x80c5288L'
p170
sg27
Nsba(ibclass
BInstr
p171
(dp172
g2
Nsg17
S'cmp     dx, ax'
p173
sg19
S'6639c2'
p174
sg21
Vcmp dx, ax
p175
sg5
L135025294L
sg6
Nsg23
S'cmp'
p176
sg25
S'0x80c528eL'
p177
sg27
Nsba(ibclass
BInstr
p178
(dp179
g2
Nsg17
S'jz      short loc_80C529D'
p180
sg19
S'740a'
p181
sg21
Vje 0xc
p182
sg5
L135025297L
sg6
Nsg23
S'jz'
p183
sg25
S'0x80c5291L'
p184
sg27
Nsbasg98
(lp185
Vmov eax, mem
p186
aVmov eax, mem
p187
aVmov edx, mem
p188
aVmov eax, mem
p189
aVmov eax, mem
p190
aVmov eax, mem
p191
ag175
aVje address
p192
asg109
Nsg5
S'0x80c5276L'
p193
sg111
(lp194
S'0x80c524fL'
p195
asg6
Nsg113
(lp196
S'0x80c5293L'
p197
aS'0x80c529dL'
p198
asg117
Nsg118
Nsg119
S'b4680a8b4a51d3cae4ef142e18eb9449'
p199
sg121
S'4399b9b5e6e42126587df7e38d909057'
p200
sg123
(lp201
g134
ag141
ag148
ag155
ag162
ag169
ag176
ag183
asg125
Nsba(ibclass
BBasicBlock
p202
(dp203
g12
Nsg13
(lp204
(ibclass
BInstr
p205
(dp206
g2
Nsg17
S'mov     eax, 1'
p207
sg19
S'b801000000'
p208
sg21
Vmov eax, 1
p209
sg5
L135025299L
sg6
Nsg23
S'mov'
p210
sg25
S'0x80c5293L'
p211
sg27
Nsba(ibclass
BInstr
p212
(dp213
g2
Nsg17
S'jmp     locret_80C5357'
p214
sg19
S'e9ba000000'
p215
sg21
Vjmp 0xbf
p216
sg5
L135025304L
sg6
Nsg23
S'jmp'
p217
sg25
S'0x80c5298L'
p218
sg27
Nsbasg98
(lp219
g209
aVjmp address
p220
asg109
Nsg5
S'0x80c5293L'
p221
sg111
(lp222
S'0x80c5276L'
p223
asg6
Nsg113
(lp224
S'0x80c5357L'
p225
asg117
Nsg118
Nsg119
S'8b9a0d40e062be2b9b2d9885108fb196'
p226
sg121
S'676f521d4439f5b3a7b4f69705213da3'
p227
sg123
(lp228
g210
ag217
asg125
Nsba(ibclass
BBasicBlock
p229
(dp230
g12
Nsg13
(lp231
(ibclass
BInstr
p232
(dp233
g2
Nsg17
S'jmp     short loc_80C5307'
p234
sg19
S'eb68'
p235
sg21
Vjmp 0x6a
p236
sg5
L135025309L
sg6
Nsg23
S'jmp'
p237
sg25
S'0x80c529dL'
p238
sg27
Nsbasg98
(lp239
Vjmp address
p240
asg109
Nsg5
S'0x80c529dL'
p241
sg111
(lp242
S'0x80c5276L'
p243
asg6
Nsg113
(lp244
S'0x80c5307L'
p245
asg117
Nsg118
Nsg119
S'0ef6cf926f2f394b0cc8e11be8022625'
p246
sg121
S'd4372e4caa7348928655251605aa7329'
p247
sg123
(lp248
g237
asg125
Nsba(ibclass
BBasicBlock
p249
(dp250
g12
Nsg13
(lp251
(ibclass
BInstr
p252
(dp253
g2
Nsg17
S'mov     eax, [ebp+s]'
p254
sg19
S'8b4508'
p255
sg21
Vmov eax, dword ptr [ebp + 8]
p256
sg5
L135025311L
sg6
Nsg23
S'mov'
p257
sg25
S'0x80c529fL'
p258
sg27
Nsba(ibclass
BInstr
p259
(dp260
g2
Nsg17
S'mov     eax, [eax+5Ch]'
p261
sg19
S'8b405c'
p262
sg21
Vmov eax, dword ptr [eax + 0x5c]
p263
sg5
L135025314L
sg6
Nsg23
S'mov'
p264
sg25
S'0x80c52a2L'
p265
sg27
Nsba(ibclass
BInstr
p266
(dp267
g2
Nsg17
S'add     eax, 234h'
p268
sg19
S'0534020000'
p269
sg21
Vadd eax, 0x234
p270
sg5
L135025317L
sg6
Nsg23
S'add'
p271
sg25
S'0x80c52a5L'
p272
sg27
Nsba(ibclass
BInstr
p273
(dp274
g2
Nsg17
S'mov     [esp+4], eax    ; queue'
p275
sg19
S'89442404'
p276
sg21
Vmov dword ptr [esp + 4], eax
p277
sg5
L135025322L
sg6
Nsg23
S'mov'
p278
sg25
S'0x80c52aaL'
p279
sg27
Nsba(ibclass
BInstr
p280
(dp281
g2
Nsg17
S'mov     eax, [ebp+s]'
p282
sg19
S'8b4508'
p283
sg21
Vmov eax, dword ptr [ebp + 8]
p284
sg5
L135025326L
sg6
Nsg23
S'mov'
p285
sg25
S'0x80c52aeL'
p286
sg27
Nsba(ibclass
BInstr
p287
(dp288
g2
Nsg17
S'mov     [esp], eax      ; s'
p289
sg19
S'890424'
p290
sg21
Vmov dword ptr [esp], eax
p291
sg5
L135025329L
sg6
Nsg23
S'mov'
p292
sg25
S'0x80c52b1L'
p293
sg27
Nsba(ibclass
BInstr
p294
(dp295
g2
Nsg17
S'call    dtls1_retrieve_buffered_record'
p296
sg19
S'e840ffffff'
p297
sg21
Vcall 0xffffff45
p298
sg5
L135025332L
sg6
Nsg23
S'call'
p299
sg25
S'0x80c52b4L'
p300
sg27
Nsba(ibclass
BInstr
p301
(dp302
g2
Nsg17
S'mov     eax, [ebp+s]'
p303
sg19
S'8b4508'
p304
sg21
Vmov eax, dword ptr [ebp + 8]
p305
sg5
L135025337L
sg6
Nsg23
S'mov'
p306
sg25
S'0x80c52b9L'
p307
sg27
Nsba(ibclass
BInstr
p308
(dp309
g2
Nsg17
S'mov     [esp], eax      ; s'
p310
sg19
S'890424'
p311
sg21
Vmov dword ptr [esp], eax
p312
sg5
L135025340L
sg6
Nsg23
S'mov'
p313
sg25
S'0x80c52bcL'
p314
sg27
Nsba(ibclass
BInstr
p315
(dp316
g2
Nsg17
S'call    dtls1_process_record'
p317
sg19
S'e895000000'
p318
sg21
Vcall 0x9a
p319
sg5
L135025343L
sg6
Nsg23
S'call'
p320
sg25
S'0x80c52bfL'
p321
sg27
Nsba(ibclass
BInstr
p322
(dp323
g2
Nsg17
S'test    eax, eax'
p324
sg19
S'85c0'
p325
sg21
Vtest eax, eax
p326
sg5
L135025348L
sg6
Nsg23
S'test'
p327
sg25
S'0x80c52c4L'
p328
sg27
Nsba(ibclass
BInstr
p329
(dp330
g2
Nsg17
S'jnz     short loc_80C52D2'
p331
sg19
S'750a'
p332
sg21
Vjne 0xc
p333
sg5
L135025350L
sg6
Nsg23
S'jnz'
p334
sg25
S'0x80c52c6L'
p335
sg27
Nsbasg98
(lp336
Vmov eax, mem
p337
aVmov eax, mem
p338
aVadd eax, address
p339
aVmov mem, eax
p340
aVmov eax, mem
p341
aVmov mem, eax
p342
aVcall address
p343
aVmov eax, mem
p344
aVmov mem, eax
p345
aVcall address
p346
ag326
aVjne address
p347
asg109
Nsg5
S'0x80c529fL'
p348
sg111
(lp349
S'0x80c5307L'
p350
asg6
Nsg113
(lp351
S'0x80c52c8L'
p352
aS'0x80c52d2L'
p353
asg117
Nsg118
Nsg119
S'982f0317e5defcdf7413f725bf26541f'
p354
sg121
S'3ef4f1ca5f539a0786550e7a0a7ea55e'
p355
sg123
(lp356
g257
ag264
ag271
ag278
ag285
ag292
ag299
ag306
ag313
ag320
ag327
ag334
asg125
Nsba(ibclass
BBasicBlock
p357
(dp358
g12
Nsg13
(lp359
(ibclass
BInstr
p360
(dp361
g2
Nsg17
S'mov     eax, 0'
p362
sg19
S'b800000000'
p363
sg21
Vmov eax, 0
p364
sg5
L135025352L
sg6
Nsg23
S'mov'
p365
sg25
S'0x80c52c8L'
p366
sg27
Nsba(ibclass
BInstr
p367
(dp368
g2
Nsg17
S'jmp     locret_80C5357'
p369
sg19
S'e985000000'
p370
sg21
Vjmp 0x8a
p371
sg5
L135025357L
sg6
Nsg23
S'jmp'
p372
sg25
S'0x80c52cdL'
p373
sg27
Nsbasg98
(lp374
g364
aVjmp address
p375
asg109
Nsg5
S'0x80c52c8L'
p376
sg111
(lp377
S'0x80c529fL'
p378
asg6
Nsg113
(lp379
S'0x80c5357L'
p380
asg117
Nsg118
Nsg119
S'8b9a0d40e062be2b9b2d9885108fb196'
p381
sg121
S'bfbe752dd865c9a89011ba470eab331d'
p382
sg123
(lp383
g365
ag372
asg125
Nsba(ibclass
BBasicBlock
p384
(dp385
g12
Nsg13
(lp386
(ibclass
BInstr
p387
(dp388
g2
Nsg17
S'mov     eax, [ebp+s]'
p389
sg19
S'8b4508'
p390
sg21
Vmov eax, dword ptr [ebp + 8]
p391
sg5
L135025362L
sg6
Nsg23
S'mov'
p392
sg25
S'0x80c52d2L'
p393
sg27
Nsba(ibclass
BInstr
p394
(dp395
g2
Nsg17
S'mov     eax, [eax+58h]'
p396
sg19
S'8b4058'
p397
sg21
Vmov eax, dword ptr [eax + 0x58]
p398
sg5
L135025365L
sg6
Nsg23
S'mov'
p399
sg25
S'0x80c52d5L'
p400
sg27
Nsba(ibclass
BInstr
p401
(dp402
g2
Nsg17
S'lea     edx, [eax+128h]'
p403
sg19
S'8d9028010000'
p404
sg21
Vlea edx, [eax + 0x128]
p405
sg5
L135025368L
sg6
Nsg23
S'lea'
p406
sg25
S'0x80c52d8L'
p407
sg27
Nsba(ibclass
BInstr
p408
(dp409
g2
Nsg17
S'mov     eax, [ebp+s]'
p410
sg19
S'8b4508'
p411
sg21
Vmov eax, dword ptr [ebp + 8]
p412
sg5
L135025374L
sg6
Nsg23
S'mov'
p413
sg25
S'0x80c52deL'
p414
sg27
Nsba(ibclass
BInstr
p415
(dp416
g2
Nsg17
S'mov     eax, [eax+5Ch]'
p417
sg19
S'8b405c'
p418
sg21
Vmov eax, dword ptr [eax + 0x5c]
p419
sg5
L135025377L
sg6
Nsg23
S'mov'
p420
sg25
S'0x80c52e1L'
p421
sg27
Nsba(ibclass
BInstr
p422
(dp423
g2
Nsg17
S'add     eax, 23Ch'
p424
sg19
S'053c020000'
p425
sg21
Vadd eax, 0x23c
p426
sg5
L135025380L
sg6
Nsg23
S'add'
p427
sg25
S'0x80c52e4L'
p428
sg27
Nsba(ibclass
BInstr
p429
(dp430
g2
Nsg17
S'mov     [esp+8], edx    ; priority'
p431
sg19
S'89542408'
p432
sg21
Vmov dword ptr [esp + 8], edx
p433
sg5
L135025385L
sg6
Nsg23
S'mov'
p434
sg25
S'0x80c52e9L'
p435
sg27
Nsba(ibclass
BInstr
p436
(dp437
g2
Nsg17
S'mov     [esp+4], eax    ; queue'
p438
sg19
S'89442404'
p439
sg21
Vmov dword ptr [esp + 4], eax
p440
sg5
L135025389L
sg6
Nsg23
S'mov'
p441
sg25
S'0x80c52edL'
p442
sg27
Nsba(ibclass
BInstr
p443
(dp444
g2
Nsg17
S'mov     eax, [ebp+s]'
p445
sg19
S'8b4508'
p446
sg21
Vmov eax, dword ptr [ebp + 8]
p447
sg5
L135025393L
sg6
Nsg23
S'mov'
p448
sg25
S'0x80c52f1L'
p449
sg27
Nsba(ibclass
BInstr
p450
(dp451
g2
Nsg17
S'mov     [esp], eax      ; s'
p452
sg19
S'890424'
p453
sg21
Vmov dword ptr [esp], eax
p454
sg5
L135025396L
sg6
Nsg23
S'mov'
p455
sg25
S'0x80c52f4L'
p456
sg27
Nsba(ibclass
BInstr
p457
(dp458
g2
Nsg17
S'call    dtls1_buffer_record'
p459
sg19
S'e88bfcffff'
p460
sg21
Vcall 0xfffffc90
p461
sg5
L135025399L
sg6
Nsg23
S'call'
p462
sg25
S'0x80c52f7L'
p463
sg27
Nsba(ibclass
BInstr
p464
(dp465
g2
Nsg17
S'test    eax, eax'
p466
sg19
S'85c0'
p467
sg21
Vtest eax, eax
p468
sg5
L135025404L
sg6
Nsg23
S'test'
p469
sg25
S'0x80c52fcL'
p470
sg27
Nsba(ibclass
BInstr
p471
(dp472
g2
Nsg17
S'jns     short loc_80C5307'
p473
sg19
S'7907'
p474
sg21
Vjns 9
p475
sg5
L135025406L
sg6
Nsg23
S'jns'
p476
sg25
S'0x80c52feL'
p477
sg27
Nsbasg98
(lp478
Vmov eax, mem
p479
aVmov eax, mem
p480
aVlea edx, mem
p481
aVmov eax, mem
p482
aVmov eax, mem
p483
aVadd eax, address
p484
aVmov mem, edx
p485
aVmov mem, eax
p486
aVmov eax, mem
p487
aVmov mem, eax
p488
aVcall address
p489
ag468
ag475
asg109
Nsg5
S'0x80c52d2L'
p490
sg111
(lp491
S'0x80c529fL'
p492
asg6
Nsg113
(lp493
S'0x80c5300L'
p494
aS'0x80c5307L'
p495
asg117
Nsg118
Nsg119
S'a6294532aa0caa5ec59ee83e6b7df4d0'
p496
sg121
S'5297034cb8452a1937bdfa38fc417cd2'
p497
sg123
(lp498
g392
ag399
ag406
ag413
ag420
ag427
ag434
ag441
ag448
ag455
ag462
ag469
ag476
asg125
Nsba(ibclass
BBasicBlock
p499
(dp500
g12
Nsg13
(lp501
(ibclass
BInstr
p502
(dp503
g2
Nsg17
S'mov     eax, 0FFFFFFFFh'
p504
sg19
S'b8ffffffff'
p505
sg21
Vmov eax, 0xffffffff
p506
sg5
L135025408L
sg6
Nsg23
S'mov'
p507
sg25
S'0x80c5300L'
p508
sg27
Nsba(ibclass
BInstr
p509
(dp510
g2
Nsg17
S'jmp     short locret_80C5357'
p511
sg19
S'eb50'
p512
sg21
Vjmp 0x52
p513
sg5
L135025413L
sg6
Nsg23
S'jmp'
p514
sg25
S'0x80c5305L'
p515
sg27
Nsbasg98
(lp516
Vmov eax, address
p517
aVjmp address
p518
asg109
Nsg5
S'0x80c5300L'
p519
sg111
(lp520
S'0x80c52d2L'
p521
asg6
Nsg113
(lp522
S'0x80c5357L'
p523
asg117
Nsg118
Nsg119
S'8b9a0d40e062be2b9b2d9885108fb196'
p524
sg121
S'926f437691f480d6543b7a7101724292'
p525
sg123
(lp526
g507
ag514
asg125
Nsba(ibclass
BBasicBlock
p527
(dp528
g12
Nsg13
(lp529
(ibclass
BInstr
p530
(dp531
g2
Nsg17
S'mov     eax, [ebp+s]'
p532
sg19
S'8b4508'
p533
sg21
Vmov eax, dword ptr [ebp + 8]
p534
sg5
L135025415L
sg6
Nsg23
S'mov'
p535
sg25
S'0x80c5307L'
p536
sg27
Nsba(ibclass
BInstr
p537
(dp538
g2
Nsg17
S'mov     eax, [eax+5Ch]'
p539
sg19
S'8b405c'
p540
sg21
Vmov eax, dword ptr [eax + 0x5c]
p541
sg5
L135025418L
sg6
Nsg23
S'mov'
p542
sg25
S'0x80c530aL'
p543
sg27
Nsba(ibclass
BInstr
p544
(dp545
g2
Nsg17
S'mov     eax, [eax+238h]'
p546
sg19
S'8b8038020000'
p547
sg21
Vmov eax, dword ptr [eax + 0x238]
p548
sg5
L135025421L
sg6
Nsg23
S'mov'
p549
sg25
S'0x80c530dL'
p550
sg27
Nsba(ibclass
BInstr
p551
(dp552
g2
Nsg17
S'mov     [esp], eax      ; pq'
p553
sg19
S'890424'
p554
sg21
Vmov dword ptr [esp], eax
p555
sg5
L135025427L
sg6
Nsg23
S'mov'
p556
sg25
S'0x80c5313L'
p557
sg27
Nsba(ibclass
BInstr
p558
(dp559
g2
Nsg17
S'call    pqueue_peek'
p560
sg19
S'e8b8920d00'
p561
sg21
Vcall 0xd92bd
p562
sg5
L135025430L
sg6
Nsg23
S'call'
p563
sg25
S'0x80c5316L'
p564
sg27
Nsba(ibclass
BInstr
p565
(dp566
g2
Nsg17
S'test    eax, eax'
p567
sg19
S'85c0'
p568
sg21
Vtest eax, eax
p569
sg5
L135025435L
sg6
Nsg23
S'test'
p570
sg25
S'0x80c531bL'
p571
sg27
Nsba(ibclass
BInstr
p572
(dp573
g2
Nsg17
S'jnz     short loc_80C529F'
p574
sg19
S'7580'
p575
sg21
Vjne 0xffffff82
p576
sg5
L135025437L
sg6
Nsg23
S'jnz'
p577
sg25
S'0x80c531dL'
p578
sg27
Nsbasg98
(lp579
Vmov eax, mem
p580
aVmov eax, mem
p581
aVmov eax, mem
p582
aVmov mem, eax
p583
aVcall address
p584
ag569
aVjne address
p585
asg109
Nsg5
S'0x80c5307L'
p586
sg111
(lp587
S'0x80c529dL'
p588
aS'0x80c52d2L'
p589
asg6
Nsg113
(lp590
S'0x80c529fL'
p591
aS'0x80c531fL'
p592
asg117
Nsg118
Nsg119
S'4fdb5e075c27ab960b936dca7d27c4ac'
p593
sg121
S'cfac38f33126b063577b62c783ebba42'
p594
sg123
(lp595
g535
ag542
ag549
ag556
ag563
ag570
ag577
asg125
Nsba(ibclass
BBasicBlock
p596
(dp597
g12
Nsg13
(lp598
(ibclass
BInstr
p599
(dp600
g2
Nsg17
S'mov     eax, [ebp+s]'
p601
sg19
S'8b4508'
p602
sg21
Vmov eax, dword ptr [ebp + 8]
p603
sg5
L135025439L
sg6
Nsg23
S'mov'
p604
sg25
S'0x80c531fL'
p605
sg27
Nsba(ibclass
BInstr
p606
(dp607
g2
Nsg17
S'mov     edx, [eax+5Ch]'
p608
sg19
S'8b505c'
p609
sg21
Vmov edx, dword ptr [eax + 0x5c]
p610
sg5
L135025442L
sg6
Nsg23
S'mov'
p611
sg25
S'0x80c5322L'
p612
sg27
Nsba(ibclass
BInstr
p613
(dp614
g2
Nsg17
S'mov     eax, [ebp+s]'
p615
sg19
S'8b4508'
p616
sg21
Vmov eax, dword ptr [ebp + 8]
p617
sg5
L135025445L
sg6
Nsg23
S'mov'
p618
sg25
S'0x80c5325L'
p619
sg27
Nsba(ibclass
BInstr
p620
(dp621
g2
Nsg17
S'mov     eax, [eax+5Ch]'
p622
sg19
S'8b405c'
p623
sg21
Vmov eax, dword ptr [eax + 0x5c]
p624
sg5
L135025448L
sg6
Nsg23
S'mov'
p625
sg25
S'0x80c5328L'
p626
sg27
Nsba(ibclass
BInstr
p627
(dp628
g2
Nsg17
S'mov     eax, [eax+208h]'
p629
sg19
S'8b8008020000'
p630
sg21
Vmov eax, dword ptr [eax + 0x208]
p631
sg5
L135025451L
sg6
Nsg23
S'mov'
p632
sg25
S'0x80c532bL'
p633
sg27
Nsba(ibclass
BInstr
p634
(dp635
g2
Nsg17
S'mov     [edx+23Ch], ax'
p636
sg19
S'6689823c020000'
p637
sg21
Vmov word ptr [edx + 0x23c], ax
p638
sg5
L135025457L
sg6
Nsg23
S'mov'
p639
sg25
S'0x80c5331L'
p640
sg27
Nsba(ibclass
BInstr
p641
(dp642
g2
Nsg17
S'mov     eax, [ebp+s]'
p643
sg19
S'8b4508'
p644
sg21
Vmov eax, dword ptr [ebp + 8]
p645
sg5
L135025464L
sg6
Nsg23
S'mov'
p646
sg25
S'0x80c5338L'
p647
sg27
Nsba(ibclass
BInstr
p648
(dp649
g2
Nsg17
S'mov     edx, [eax+5Ch]'
p650
sg19
S'8b505c'
p651
sg21
Vmov edx, dword ptr [eax + 0x5c]
p652
sg5
L135025467L
sg6
Nsg23
S'mov'
p653
sg25
S'0x80c533bL'
p654
sg27
Nsba(ibclass
BInstr
p655
(dp656
g2
Nsg17
S'mov     eax, [ebp+s]'
p657
sg19
S'8b4508'
p658
sg21
Vmov eax, dword ptr [ebp + 8]
p659
sg5
L135025470L
sg6
Nsg23
S'mov'
p660
sg25
S'0x80c533eL'
p661
sg27
Nsba(ibclass
BInstr
p662
(dp663
g2
Nsg17
S'mov     eax, [eax+5Ch]'
p664
sg19
S'8b405c'
p665
sg21
Vmov eax, dword ptr [eax + 0x5c]
p666
sg5
L135025473L
sg6
Nsg23
S'mov'
p667
sg25
S'0x80c5341L'
p668
sg27
Nsba(ibclass
BInstr
p669
(dp670
g2
Nsg17
S'mov     eax, [eax+208h]'
p671
sg19
S'8b8008020000'
p672
sg21
Vmov eax, dword ptr [eax + 0x208]
p673
sg5
L135025476L
sg6
Nsg23
S'mov'
p674
sg25
S'0x80c5344L'
p675
sg27
Nsba(ibclass
BInstr
p676
(dp677
g2
Nsg17
S'inc     eax'
p678
sg19
S'40'
p679
sg21
Vinc eax
p680
sg5
L135025482L
sg6
Nsg23
S'inc'
p681
sg25
S'0x80c534aL'
p682
sg27
Nsba(ibclass
BInstr
p683
(dp684
g2
Nsg17
S'mov     [edx+234h], ax'
p685
sg19
S'66898234020000'
p686
sg21
Vmov word ptr [edx + 0x234], ax
p687
sg5
L135025483L
sg6
Nsg23
S'mov'
p688
sg25
S'0x80c534bL'
p689
sg27
Nsba(ibclass
BInstr
p690
(dp691
g2
Nsg17
S'mov     eax, 1'
p692
sg19
S'b801000000'
p693
sg21
Vmov eax, 1
p694
sg5
L135025490L
sg6
Nsg23
S'mov'
p695
sg25
S'0x80c5352L'
p696
sg27
Nsbasg98
(lp697
Vmov eax, mem
p698
aVmov edx, mem
p699
aVmov eax, mem
p700
aVmov eax, mem
p701
aVmov eax, mem
p702
aVmov mem, ax
p703
aVmov eax, mem
p704
aVmov edx, mem
p705
aVmov eax, mem
p706
aVmov eax, mem
p707
aVmov eax, mem
p708
ag680
aVmov mem, ax
p709
ag694
asg109
Nsg5
S'0x80c531fL'
p710
sg111
(lp711
S'0x80c524fL'
p712
aS'0x80c5307L'
p713
asg6
Nsg113
(lp714
S'0x80c5357L'
p715
asg117
Nsg118
Nsg119
S'8440a167c447e7edc690018c1434df04'
p716
sg121
S'624e77d718d93c6a3cdf5e1a5d7d985f'
p717
sg123
(lp718
g604
ag611
ag618
ag625
ag632
ag639
ag646
ag653
ag660
ag667
ag674
ag681
ag688
ag695
asg125
Nsba(ibclass
BBasicBlock
p719
(dp720
g12
Nsg13
(lp721
(ibclass
BInstr
p722
(dp723
g2
Nsg17
S'leave'
p724
sg19
S'c9'
p725
sg21
Vleave 
p726
sg5
L135025495L
sg6
Nsg23
S'leave'
p727
sg25
S'0x80c5357L'
p728
sg27
Nsba(ibclass
BInstr
p729
(dp730
g2
Nsg17
S'retn'
p731
sg19
S'c3'
p732
sg21
Vret 
p733
sg5
L135025496L
sg6
Nsg23
S'retn'
p734
sg25
S'0x80c5358L'
p735
sg27
Nsbasg98
(lp736
Vleave
p737
aVret
p738
asg109
Nsg5
S'0x80c5357L'
p739
sg111
(lp740
S'0x80c5293L'
p741
aS'0x80c52c8L'
p742
aS'0x80c5300L'
p743
aS'0x80c531fL'
p744
asg6
Nsg113
(lp745
sg117
Nsg118
Nsg119
S'08c78f73a6f87c85da88b2982f54ce2a'
p746
sg121
S'393fee3c9fb1d26424d4b7704918e387'
p747
sg123
(lp748
g727
ag734
asg125
Nsbasb.