(ibclass
BFunc
p0
(dp1
S'hash'
p2
NsS'name'
p3
S'find_user'
p4
sS'start_address'
p5
L135948226L
sS'flag'
p6
NsS'program'
p7
NsS'bbs'
p8
(lp9
(ibclass
BBasicBlock
p10
(dp11
S'function'
p12
NsS'binstrs'
p13
(lp14
(ibclass
BInstr
p15
(dp16
g2
NsS'disasm'
p17
S'push    ebp'
p18
sS'bytes'
p19
S'55'
p20
sS'disasm_striped'
p21
Vpush ebp
p22
sg5
L135948226L
sg6
NsS'mnem'
p23
S'push'
p24
sS'address'
p25
S'0x81a67c2L'
p26
sS'basicblock'
p27
Nsba(ibclass
BInstr
p28
(dp29
g2
Nsg17
S'mov     ebp, esp'
p30
sg19
S'89e5'
p31
sg21
Vmov ebp, esp
p32
sg5
L135948227L
sg6
Nsg23
S'mov'
p33
sg25
S'0x81a67c3L'
p34
sg27
Nsba(ibclass
BInstr
p35
(dp36
g2
Nsg17
S'sub     esp, 28h'
p37
sg19
S'83ec28'
p38
sg21
Vsub esp, 0x28
p39
sg5
L135948229L
sg6
Nsg23
S'sub'
p40
sg25
S'0x81a67c5L'
p41
sg27
Nsba(ibclass
BInstr
p42
(dp43
g2
Nsg17
S'cmp     [ebp+vb], 0'
p44
sg19
S'837d0800'
p45
sg21
Vcmp dword ptr [ebp + 8], 0
p46
sg5
L135948232L
sg6
Nsg23
S'cmp'
p47
sg25
S'0x81a67c8L'
p48
sg27
Nsba(ibclass
BInstr
p49
(dp50
g2
Nsg17
S'jnz     short loc_81A67D5'
p51
sg19
S'7507'
p52
sg21
Vjne 9
p53
sg5
L135948236L
sg6
Nsg23
S'jnz'
p54
sg25
S'0x81a67ccL'
p55
sg27
NsbasS'disasm_list'
p56
(lp57
g22
ag32
aVsub esp, address
p58
aVcmp mem, 0
p59
ag53
asS'end_address'
p60
Nsg5
S'0x81a67c2L'
p61
sS'preds'
p62
(lp63
sg6
NsS'succs'
p64
(lp65
S'0x81a67ceL'
p66
aS'0x81a67d5L'
p67
asS'hash_v3'
p68
NsS'flag_v2'
p69
NsS'hash_v1'
p70
S'210a37928dd2097087c285e2bbd4b5b4'
p71
sS'hash_v2'
p72
S'42b2aee6eb967cb73443c9820ac43821'
p73
sS'mnen_list'
p74
(lp75
g24
ag33
ag40
ag47
ag54
asS'neighbour_disasm_list'
p76
Nsba(ibclass
BBasicBlock
p77
(dp78
g12
Nsg13
(lp79
(ibclass
BInstr
p80
(dp81
g2
Nsg17
S'mov     eax, 0'
p82
sg19
S'b800000000'
p83
sg21
Vmov eax, 0
p84
sg5
L135948238L
sg6
Nsg23
S'mov'
p85
sg25
S'0x81a67ceL'
p86
sg27
Nsba(ibclass
BInstr
p87
(dp88
g2
Nsg17
S'jmp     short locret_81A682C'
p89
sg19
S'eb57'
p90
sg21
Vjmp 0x59
p91
sg5
L135948243L
sg6
Nsg23
S'jmp'
p92
sg25
S'0x81a67d3L'
p93
sg27
Nsbasg56
(lp94
g84
aVjmp address
p95
asg60
Nsg5
S'0x81a67ceL'
p96
sg62
(lp97
S'0x81a67c2L'
p98
asg6
Nsg64
(lp99
S'0x81a682cL'
p100
asg68
Nsg69
Nsg70
S'8b9a0d40e062be2b9b2d9885108fb196'
p101
sg72
S'bfbe752dd865c9a89011ba470eab331d'
p102
sg74
(lp103
g85
ag92
asg76
Nsba(ibclass
BBasicBlock
p104
(dp105
g12
Nsg13
(lp106
(ibclass
BInstr
p107
(dp108
g2
Nsg17
S'mov     [ebp+i], 0'
p109
sg19
S'c745f000000000'
p110
sg21
Vmov dword ptr [ebp - 0x10], 0
p111
sg5
L135948245L
sg6
Nsg23
S'mov'
p112
sg25
S'0x81a67d5L'
p113
sg27
Nsba(ibclass
BInstr
p114
(dp115
g2
Nsg17
S'jmp     short loc_81A6815'
p116
sg19
S'eb37'
p117
sg21
Vjmp 0x39
p118
sg5
L135948252L
sg6
Nsg23
S'jmp'
p119
sg25
S'0x81a67dcL'
p120
sg27
Nsbasg56
(lp121
Vmov mem, 0
p122
aVjmp address
p123
asg60
Nsg5
S'0x81a67d5L'
p124
sg62
(lp125
S'0x81a67c2L'
p126
asg6
Nsg64
(lp127
S'0x81a6815L'
p128
asg68
Nsg69
Nsg70
S'8b9a0d40e062be2b9b2d9885108fb196'
p129
sg72
S'f299da28b698e6b26e771c23d7997a23'
p130
sg74
(lp131
g112
ag119
asg76
Nsba(ibclass
BBasicBlock
p132
(dp133
g12
Nsg13
(lp134
(ibclass
BInstr
p135
(dp136
g2
Nsg17
S'mov     eax, [ebp+vb]'
p137
sg19
S'8b4508'
p138
sg21
Vmov eax, dword ptr [ebp + 8]
p139
sg5
L135948254L
sg6
Nsg23
S'mov'
p140
sg25
S'0x81a67deL'
p141
sg27
Nsba(ibclass
BInstr
p142
(dp143
g2
Nsg17
S'mov     eax, [eax]'
p144
sg19
S'8b00'
p145
sg21
Vmov eax, dword ptr [eax]
p146
sg5
L135948257L
sg6
Nsg23
S'mov'
p147
sg25
S'0x81a67e1L'
p148
sg27
Nsba(ibclass
BInstr
p149
(dp150
g2
Nsg17
S'mov     edx, [ebp+i]'
p151
sg19
S'8b55f0'
p152
sg21
Vmov edx, dword ptr [ebp - 0x10]
p153
sg5
L135948259L
sg6
Nsg23
S'mov'
p154
sg25
S'0x81a67e3L'
p155
sg27
Nsba(ibclass
BInstr
p156
(dp157
g2
Nsg17
S'mov     [esp+4], edx    ; i'
p158
sg19
S'89542404'
p159
sg21
Vmov dword ptr [esp + 4], edx
p160
sg5
L135948262L
sg6
Nsg23
S'mov'
p161
sg25
S'0x81a67e6L'
p162
sg27
Nsba(ibclass
BInstr
p163
(dp164
g2
Nsg17
S'mov     [esp], eax      ; st'
p165
sg19
S'890424'
p166
sg21
Vmov dword ptr [esp], eax
p167
sg5
L135948266L
sg6
Nsg23
S'mov'
p168
sg25
S'0x81a67eaL'
p169
sg27
Nsba(ibclass
BInstr
p170
(dp171
g2
Nsg17
S'call    sk_value'
p172
sg19
S'e8b5faf8ff'
p173
sg21
Vcall 0xfff8faba
p174
sg5
L135948269L
sg6
Nsg23
S'call'
p175
sg25
S'0x81a67edL'
p176
sg27
Nsba(ibclass
BInstr
p177
(dp178
g2
Nsg17
S'mov     [ebp+user], eax'
p179
sg19
S'8945f4'
p180
sg21
Vmov dword ptr [ebp - 0xc], eax
p181
sg5
L135948274L
sg6
Nsg23
S'mov'
p182
sg25
S'0x81a67f2L'
p183
sg27
Nsba(ibclass
BInstr
p184
(dp185
g2
Nsg17
S'mov     eax, [ebp+user]'
p186
sg19
S'8b45f4'
p187
sg21
Vmov eax, dword ptr [ebp - 0xc]
p188
sg5
L135948277L
sg6
Nsg23
S'mov'
p189
sg25
S'0x81a67f5L'
p190
sg27
Nsba(ibclass
BInstr
p191
(dp192
g2
Nsg17
S'mov     eax, [eax]'
p193
sg19
S'8b00'
p194
sg21
Vmov eax, dword ptr [eax]
p195
sg5
L135948280L
sg6
Nsg23
S'mov'
p196
sg25
S'0x81a67f8L'
p197
sg27
Nsba(ibclass
BInstr
p198
(dp199
g2
Nsg17
S'mov     edx, [ebp+username]'
p200
sg19
S'8b550c'
p201
sg21
Vmov edx, dword ptr [ebp + 0xc]
p202
sg5
L135948282L
sg6
Nsg23
S'mov'
p203
sg25
S'0x81a67faL'
p204
sg27
Nsba(ibclass
BInstr
p205
(dp206
g2
Nsg17
S'mov     [esp+4], edx    ; s2'
p207
sg19
S'89542404'
p208
sg21
Vmov dword ptr [esp + 4], edx
p209
sg5
L135948285L
sg6
Nsg23
S'mov'
p210
sg25
S'0x81a67fdL'
p211
sg27
Nsba(ibclass
BInstr
p212
(dp213
g2
Nsg17
S'mov     [esp], eax      ; s1'
p214
sg19
S'890424'
p215
sg21
Vmov dword ptr [esp], eax
p216
sg5
L135948289L
sg6
Nsg23
S'mov'
p217
sg25
S'0x81a6801L'
p218
sg27
Nsba(ibclass
BInstr
p219
(dp220
g2
Nsg17
S'call    _strcmp'
p221
sg19
S'e8072deaff'
p222
sg21
Vcall 0xffea2d0c
p223
sg5
L135948292L
sg6
Nsg23
S'call'
p224
sg25
S'0x81a6804L'
p225
sg27
Nsba(ibclass
BInstr
p226
(dp227
g2
Nsg17
S'test    eax, eax'
p228
sg19
S'85c0'
p229
sg21
Vtest eax, eax
p230
sg5
L135948297L
sg6
Nsg23
S'test'
p231
sg25
S'0x81a6809L'
p232
sg27
Nsba(ibclass
BInstr
p233
(dp234
g2
Nsg17
S'jnz     short loc_81A6812'
p235
sg19
S'7505'
p236
sg21
Vjne 7
p237
sg5
L135948299L
sg6
Nsg23
S'jnz'
p238
sg25
S'0x81a680bL'
p239
sg27
Nsbasg56
(lp240
Vmov eax, mem
p241
aVmov eax, mem
p242
aVmov edx, mem
p243
aVmov mem, edx
p244
aVmov mem, eax
p245
aVcall address
p246
aVmov mem, eax
p247
aVmov eax, mem
p248
aVmov eax, mem
p249
aVmov edx, mem
p250
aVmov mem, edx
p251
aVmov mem, eax
p252
aVcall address
p253
ag230
ag237
asg60
Nsg5
S'0x81a67deL'
p254
sg62
(lp255
S'0x81a6815L'
p256
asg6
Nsg64
(lp257
S'0x81a680dL'
p258
aS'0x81a6812L'
p259
asg68
Nsg69
Nsg70
S'f05967bd3657917fc547ee5e11684776'
p260
sg72
S'39909f4f3bc6374e2388a40173287226'
p261
sg74
(lp262
g140
ag147
ag154
ag161
ag168
ag175
ag182
ag189
ag196
ag203
ag210
ag217
ag224
ag231
ag238
asg76
Nsba(ibclass
BBasicBlock
p263
(dp264
g12
Nsg13
(lp265
(ibclass
BInstr
p266
(dp267
g2
Nsg17
S'mov     eax, [ebp+user]'
p268
sg19
S'8b45f4'
p269
sg21
Vmov eax, dword ptr [ebp - 0xc]
p270
sg5
L135948301L
sg6
Nsg23
S'mov'
p271
sg25
S'0x81a680dL'
p272
sg27
Nsba(ibclass
BInstr
p273
(dp274
g2
Nsg17
S'jmp     short locret_81A682C'
p275
sg19
S'eb1a'
p276
sg21
Vjmp 0x1c
p277
sg5
L135948304L
sg6
Nsg23
S'jmp'
p278
sg25
S'0x81a6810L'
p279
sg27
Nsbasg56
(lp280
Vmov eax, mem
p281
aVjmp address
p282
asg60
Nsg5
S'0x81a680dL'
p283
sg62
(lp284
S'0x81a67deL'
p285
asg6
Nsg64
(lp286
S'0x81a682cL'
p287
asg68
Nsg69
Nsg70
S'8b9a0d40e062be2b9b2d9885108fb196'
p288
sg72
S'5a5b261ba52a671a369af6372509eb2f'
p289
sg74
(lp290
g271
ag278
asg76
Nsba(ibclass
BBasicBlock
p291
(dp292
g12
Nsg13
(lp293
(ibclass
BInstr
p294
(dp295
g2
Nsg17
S'inc     [ebp+i]'
p296
sg19
S'ff45f0'
p297
sg21
Vinc dword ptr [ebp - 0x10]
p298
sg5
L135948306L
sg6
Nsg23
S'inc'
p299
sg25
S'0x81a6812L'
p300
sg27
Nsbasg56
(lp301
Vinc mem
p302
asg60
Nsg5
S'0x81a6812L'
p303
sg62
(lp304
S'0x81a67deL'
p305
asg6
Nsg64
(lp306
S'0x81a6815L'
p307
asg68
Nsg69
Nsg70
S'cf9f3fde7326f1d8e64205f0e07a3695'
p308
sg72
S'00359ff2b716311fa3d15c1e358cad94'
p309
sg74
(lp310
g299
asg76
Nsba(ibclass
BBasicBlock
p311
(dp312
g12
Nsg13
(lp313
(ibclass
BInstr
p314
(dp315
g2
Nsg17
S'mov     eax, [ebp+vb]'
p316
sg19
S'8b4508'
p317
sg21
Vmov eax, dword ptr [ebp + 8]
p318
sg5
L135948309L
sg6
Nsg23
S'mov'
p319
sg25
S'0x81a6815L'
p320
sg27
Nsba(ibclass
BInstr
p321
(dp322
g2
Nsg17
S'mov     eax, [eax]'
p323
sg19
S'8b00'
p324
sg21
Vmov eax, dword ptr [eax]
p325
sg5
L135948312L
sg6
Nsg23
S'mov'
p326
sg25
S'0x81a6818L'
p327
sg27
Nsba(ibclass
BInstr
p328
(dp329
g2
Nsg17
S'mov     [esp], eax      ; st'
p330
sg19
S'890424'
p331
sg21
Vmov dword ptr [esp], eax
p332
sg5
L135948314L
sg6
Nsg23
S'mov'
p333
sg25
S'0x81a681aL'
p334
sg27
Nsba(ibclass
BInstr
p335
(dp336
g2
Nsg17
S'call    sk_num'
p337
sg19
S'e86efaf8ff'
p338
sg21
Vcall 0xfff8fa73
p339
sg5
L135948317L
sg6
Nsg23
S'call'
p340
sg25
S'0x81a681dL'
p341
sg27
Nsba(ibclass
BInstr
p342
(dp343
g2
Nsg17
S'cmp     eax, [ebp+i]'
p344
sg19
S'3b45f0'
p345
sg21
Vcmp eax, dword ptr [ebp - 0x10]
p346
sg5
L135948322L
sg6
Nsg23
S'cmp'
p347
sg25
S'0x81a6822L'
p348
sg27
Nsba(ibclass
BInstr
p349
(dp350
g2
Nsg17
S'jg      short loc_81A67DE'
p351
sg19
S'7fb7'
p352
sg21
Vjg 0xffffffb9
p353
sg5
L135948325L
sg6
Nsg23
S'jg'
p354
sg25
S'0x81a6825L'
p355
sg27
Nsbasg56
(lp356
Vmov eax, mem
p357
aVmov eax, mem
p358
aVmov mem, eax
p359
aVcall address
p360
aVcmp eax, mem
p361
aVjg address
p362
asg60
Nsg5
S'0x81a6815L'
p363
sg62
(lp364
S'0x81a67d5L'
p365
aS'0x81a6812L'
p366
asg6
Nsg64
(lp367
S'0x81a67deL'
p368
aS'0x81a6827L'
p369
asg68
Nsg69
Nsg70
S'cdc6200bbffdb18d10dbecff1985d1ed'
p370
sg72
S'e536d3097fb838fd71f3625b78449fef'
p371
sg74
(lp372
g319
ag326
ag333
ag340
ag347
ag354
asg76
Nsba(ibclass
BBasicBlock
p373
(dp374
g12
Nsg13
(lp375
(ibclass
BInstr
p376
(dp377
g2
Nsg17
S'mov     eax, 0'
p378
sg19
S'b800000000'
p379
sg21
Vmov eax, 0
p380
sg5
L135948327L
sg6
Nsg23
S'mov'
p381
sg25
S'0x81a6827L'
p382
sg27
Nsbasg56
(lp383
g380
asg60
Nsg5
S'0x81a6827L'
p384
sg62
(lp385
S'0x81a6815L'
p386
asg6
Nsg64
(lp387
S'0x81a682cL'
p388
asg68
Nsg69
Nsg70
S'96a4a0e6e9ac88756a0fcba989d0a844'
p389
sg72
S'4cfc99738161f190e0def2f4916ada38'
p390
sg74
(lp391
g381
asg76
Nsba(ibclass
BBasicBlock
p392
(dp393
g12
Nsg13
(lp394
(ibclass
BInstr
p395
(dp396
g2
Nsg17
S'leave'
p397
sg19
S'c9'
p398
sg21
Vleave 
p399
sg5
L135948332L
sg6
Nsg23
S'leave'
p400
sg25
S'0x81a682cL'
p401
sg27
Nsba(ibclass
BInstr
p402
(dp403
g2
Nsg17
S'retn'
p404
sg19
S'c3'
p405
sg21
Vret 
p406
sg5
L135948333L
sg6
Nsg23
S'retn'
p407
sg25
S'0x81a682dL'
p408
sg27
Nsbasg56
(lp409
Vleave
p410
aVret
p411
asg60
Nsg5
S'0x81a682cL'
p412
sg62
(lp413
S'0x81a67ceL'
p414
aS'0x81a680dL'
p415
aS'0x81a6827L'
p416
asg6
Nsg64
(lp417
sg68
Nsg69
Nsg70
S'08c78f73a6f87c85da88b2982f54ce2a'
p418
sg72
S'393fee3c9fb1d26424d4b7704918e387'
p419
sg74
(lp420
g400
ag407
asg76
Nsbasb.