(ibclass
BFunc
p0
(dp1
S'hash'
p2
NsS'name'
p3
S'rsa_pss_decode'
p4
sS'start_address'
p5
L136109920L
sS'flag'
p6
NsS'program'
p7
NsS'bbs'
p8
(lp9
(ibclass
BBasicBlock
p10
(dp11
S'function'
p12
NsS'binstrs'
p13
(lp14
(ibclass
BInstr
p15
(dp16
g2
NsS'disasm'
p17
S'push    ebp'
p18
sS'bytes'
p19
S'55'
p20
sS'disasm_striped'
p21
Vpush ebp
p22
sg5
L136109920L
sg6
NsS'mnem'
p23
S'push'
p24
sS'address'
p25
S'0x81cdf60L'
p26
sS'basicblock'
p27
Nsba(ibclass
BInstr
p28
(dp29
g2
Nsg17
S'mov     ebp, esp'
p30
sg19
S'89e5'
p31
sg21
Vmov ebp, esp
p32
sg5
L136109921L
sg6
Nsg23
S'mov'
p33
sg25
S'0x81cdf61L'
p34
sg27
Nsba(ibclass
BInstr
p35
(dp36
g2
Nsg17
S'sub     esp, 28h'
p37
sg19
S'83ec28'
p38
sg21
Vsub esp, 0x28
p39
sg5
L136109923L
sg6
Nsg23
S'sub'
p40
sg25
S'0x81cdf63L'
p41
sg27
Nsba(ibclass
BInstr
p42
(dp43
g2
Nsg17
S'mov     eax, [ebp+pmaskHash]'
p44
sg19
S'8b450c'
p45
sg21
Vmov eax, dword ptr [ebp + 0xc]
p46
sg5
L136109926L
sg6
Nsg23
S'mov'
p47
sg25
S'0x81cdf66L'
p48
sg27
Nsba(ibclass
BInstr
p49
(dp50
g2
Nsg17
S'mov     dword ptr [eax], 0'
p51
sg19
S'c70000000000'
p52
sg21
Vmov dword ptr [eax], 0
p53
sg5
L136109929L
sg6
Nsg23
S'mov'
p54
sg25
S'0x81cdf69L'
p55
sg27
Nsba(ibclass
BInstr
p56
(dp57
g2
Nsg17
S'mov     eax, [ebp+alg]'
p58
sg19
S'8b4508'
p59
sg21
Vmov eax, dword ptr [ebp + 8]
p60
sg5
L136109935L
sg6
Nsg23
S'mov'
p61
sg25
S'0x81cdf6fL'
p62
sg27
Nsba(ibclass
BInstr
p63
(dp64
g2
Nsg17
S'mov     eax, [eax+4]'
p65
sg19
S'8b4004'
p66
sg21
Vmov eax, dword ptr [eax + 4]
p67
sg5
L136109938L
sg6
Nsg23
S'mov'
p68
sg25
S'0x81cdf72L'
p69
sg27
Nsba(ibclass
BInstr
p70
(dp71
g2
Nsg17
S'test    eax, eax'
p72
sg19
S'85c0'
p73
sg21
Vtest eax, eax
p74
sg5
L136109941L
sg6
Nsg23
S'test'
p75
sg25
S'0x81cdf75L'
p76
sg27
Nsba(ibclass
BInstr
p77
(dp78
g2
Nsg17
S'jz      short loc_81CDF86'
p79
sg19
S'740d'
p80
sg21
Vje 0xf
p81
sg5
L136109943L
sg6
Nsg23
S'jz'
p82
sg25
S'0x81cdf77L'
p83
sg27
NsbasS'disasm_list'
p84
(lp85
g22
ag32
aVsub esp, address
p86
aVmov eax, mem
p87
aVmov mem, 0
p88
aVmov eax, mem
p89
aVmov eax, mem
p90
ag74
aVje address
p91
asS'end_address'
p92
Nsg5
S'0x81cdf60L'
p93
sS'preds'
p94
(lp95
sg6
NsS'succs'
p96
(lp97
S'0x81cdf79L'
p98
aS'0x81cdf86L'
p99
asS'hash_v3'
p100
NsS'flag_v2'
p101
NsS'hash_v1'
p102
S'cc20f52173a45ffcd11fe72953f15bab'
p103
sS'hash_v2'
p104
S'72d743b61455296db33a2d23431d4c80'
p105
sS'mnen_list'
p106
(lp107
g24
ag33
ag40
ag47
ag54
ag61
ag68
ag75
ag82
asS'neighbour_disasm_list'
p108
Nsba(ibclass
BBasicBlock
p109
(dp110
g12
Nsg13
(lp111
(ibclass
BInstr
p112
(dp113
g2
Nsg17
S'mov     eax, [ebp+alg]'
p114
sg19
S'8b4508'
p115
sg21
Vmov eax, dword ptr [ebp + 8]
p116
sg5
L136109945L
sg6
Nsg23
S'mov'
p117
sg25
S'0x81cdf79L'
p118
sg27
Nsba(ibclass
BInstr
p119
(dp120
g2
Nsg17
S'mov     eax, [eax+4]'
p121
sg19
S'8b4004'
p122
sg21
Vmov eax, dword ptr [eax + 4]
p123
sg5
L136109948L
sg6
Nsg23
S'mov'
p124
sg25
S'0x81cdf7cL'
p125
sg27
Nsba(ibclass
BInstr
p126
(dp127
g2
Nsg17
S'mov     eax, [eax]'
p128
sg19
S'8b00'
p129
sg21
Vmov eax, dword ptr [eax]
p130
sg5
L136109951L
sg6
Nsg23
S'mov'
p131
sg25
S'0x81cdf7fL'
p132
sg27
Nsba(ibclass
BInstr
p133
(dp134
g2
Nsg17
S'cmp     eax, 10h'
p135
sg19
S'83f810'
p136
sg21
Vcmp eax, 0x10
p137
sg5
L136109953L
sg6
Nsg23
S'cmp'
p138
sg25
S'0x81cdf81L'
p139
sg27
Nsba(ibclass
BInstr
p140
(dp141
g2
Nsg17
S'jz      short loc_81CDF90'
p142
sg19
S'740a'
p143
sg21
Vje 0xc
p144
sg5
L136109956L
sg6
Nsg23
S'jz'
p145
sg25
S'0x81cdf84L'
p146
sg27
Nsbasg84
(lp147
Vmov eax, mem
p148
aVmov eax, mem
p149
aVmov eax, mem
p150
aVcmp eax, address
p151
aVje address
p152
asg92
Nsg5
S'0x81cdf79L'
p153
sg94
(lp154
S'0x81cdf60L'
p155
asg6
Nsg96
(lp156
S'0x81cdf86L'
p157
aS'0x81cdf90L'
p158
asg100
Nsg101
Nsg102
S'33ba948cc50e6b726fe618f931567f22'
p159
sg104
S'5f456442b02793f5dd5c360fb7bc432c'
p160
sg106
(lp161
g117
ag124
ag131
ag138
ag145
asg108
Nsba(ibclass
BBasicBlock
p162
(dp163
g12
Nsg13
(lp164
(ibclass
BInstr
p165
(dp166
g2
Nsg17
S'mov     eax, 0'
p167
sg19
S'b800000000'
p168
sg21
Vmov eax, 0
p169
sg5
L136109958L
sg6
Nsg23
S'mov'
p170
sg25
S'0x81cdf86L'
p171
sg27
Nsba(ibclass
BInstr
p172
(dp173
g2
Nsg17
S'jmp     locret_81CE04D'
p174
sg19
S'e9bd000000'
p175
sg21
Vjmp 0xc2
p176
sg5
L136109963L
sg6
Nsg23
S'jmp'
p177
sg25
S'0x81cdf8bL'
p178
sg27
Nsbasg84
(lp179
g169
aVjmp address
p180
asg92
Nsg5
S'0x81cdf86L'
p181
sg94
(lp182
S'0x81cdf60L'
p183
aS'0x81cdf79L'
p184
asg6
Nsg96
(lp185
S'0x81ce04dL'
p186
asg100
Nsg101
Nsg102
S'8b9a0d40e062be2b9b2d9885108fb196'
p187
sg104
S'bfbe752dd865c9a89011ba470eab331d'
p188
sg106
(lp189
g170
ag177
asg108
Nsba(ibclass
BBasicBlock
p190
(dp191
g12
Nsg13
(lp192
(ibclass
BInstr
p193
(dp194
g2
Nsg17
S'mov     eax, [ebp+alg]'
p195
sg19
S'8b4508'
p196
sg21
Vmov eax, dword ptr [ebp + 8]
p197
sg5
L136109968L
sg6
Nsg23
S'mov'
p198
sg25
S'0x81cdf90L'
p199
sg27
Nsba(ibclass
BInstr
p200
(dp201
g2
Nsg17
S'mov     eax, [eax+4]'
p202
sg19
S'8b4004'
p203
sg21
Vmov eax, dword ptr [eax + 4]
p204
sg5
L136109971L
sg6
Nsg23
S'mov'
p205
sg25
S'0x81cdf93L'
p206
sg27
Nsba(ibclass
BInstr
p207
(dp208
g2
Nsg17
S'mov     eax, [eax+4]'
p209
sg19
S'8b4004'
p210
sg21
Vmov eax, dword ptr [eax + 4]
p211
sg5
L136109974L
sg6
Nsg23
S'mov'
p212
sg25
S'0x81cdf96L'
p213
sg27
Nsba(ibclass
BInstr
p214
(dp215
g2
Nsg17
S'mov     eax, [eax+8]'
p216
sg19
S'8b4008'
p217
sg21
Vmov eax, dword ptr [eax + 8]
p218
sg5
L136109977L
sg6
Nsg23
S'mov'
p219
sg25
S'0x81cdf99L'
p220
sg27
Nsba(ibclass
BInstr
p221
(dp222
g2
Nsg17
S'mov     [ebp+p], eax'
p223
sg19
S'8945e8'
p224
sg21
Vmov dword ptr [ebp - 0x18], eax
p225
sg5
L136109980L
sg6
Nsg23
S'mov'
p226
sg25
S'0x81cdf9cL'
p227
sg27
Nsba(ibclass
BInstr
p228
(dp229
g2
Nsg17
S'mov     eax, [ebp+alg]'
p230
sg19
S'8b4508'
p231
sg21
Vmov eax, dword ptr [ebp + 8]
p232
sg5
L136109983L
sg6
Nsg23
S'mov'
p233
sg25
S'0x81cdf9fL'
p234
sg27
Nsba(ibclass
BInstr
p235
(dp236
g2
Nsg17
S'mov     eax, [eax+4]'
p237
sg19
S'8b4004'
p238
sg21
Vmov eax, dword ptr [eax + 4]
p239
sg5
L136109986L
sg6
Nsg23
S'mov'
p240
sg25
S'0x81cdfa2L'
p241
sg27
Nsba(ibclass
BInstr
p242
(dp243
g2
Nsg17
S'mov     eax, [eax+4]'
p244
sg19
S'8b4004'
p245
sg21
Vmov eax, dword ptr [eax + 4]
p246
sg5
L136109989L
sg6
Nsg23
S'mov'
p247
sg25
S'0x81cdfa5L'
p248
sg27
Nsba(ibclass
BInstr
p249
(dp250
g2
Nsg17
S'mov     eax, [eax]'
p251
sg19
S'8b00'
p252
sg21
Vmov eax, dword ptr [eax]
p253
sg5
L136109992L
sg6
Nsg23
S'mov'
p254
sg25
S'0x81cdfa8L'
p255
sg27
Nsba(ibclass
BInstr
p256
(dp257
g2
Nsg17
S'mov     [ebp+plen], eax'
p258
sg19
S'8945ec'
p259
sg21
Vmov dword ptr [ebp - 0x14], eax
p260
sg5
L136109994L
sg6
Nsg23
S'mov'
p261
sg25
S'0x81cdfaaL'
p262
sg27
Nsba(ibclass
BInstr
p263
(dp264
g2
Nsg17
S'mov     eax, [ebp+plen]'
p265
sg19
S'8b45ec'
p266
sg21
Vmov eax, dword ptr [ebp - 0x14]
p267
sg5
L136109997L
sg6
Nsg23
S'mov'
p268
sg25
S'0x81cdfadL'
p269
sg27
Nsba(ibclass
BInstr
p270
(dp271
g2
Nsg17
S'mov     [esp+8], eax    ; len'
p272
sg19
S'89442408'
p273
sg21
Vmov dword ptr [esp + 8], eax
p274
sg5
L136110000L
sg6
Nsg23
S'mov'
p275
sg25
S'0x81cdfb0L'
p276
sg27
Nsba(ibclass
BInstr
p277
(dp278
g2
Nsg17
S'lea     eax, [ebp+p]'
p279
sg19
S'8d45e8'
p280
sg21
Vlea eax, [ebp - 0x18]
p281
sg5
L136110004L
sg6
Nsg23
S'lea'
p282
sg25
S'0x81cdfb4L'
p283
sg27
Nsba(ibclass
BInstr
p284
(dp285
g2
Nsg17
S'mov     [esp+4], eax    ; in'
p286
sg19
S'89442404'
p287
sg21
Vmov dword ptr [esp + 4], eax
p288
sg5
L136110007L
sg6
Nsg23
S'mov'
p289
sg25
S'0x81cdfb7L'
p290
sg27
Nsba(ibclass
BInstr
p291
(dp292
g2
Nsg17
S'mov     dword ptr [esp], 0; a'
p293
sg19
S'c7042400000000'
p294
sg21
Vmov dword ptr [esp], 0
p295
sg5
L136110011L
sg6
Nsg23
S'mov'
p296
sg25
S'0x81cdfbbL'
p297
sg27
Nsba(ibclass
BInstr
p298
(dp299
g2
Nsg17
S'call    d2i_RSA_PSS_PARAMS'
p300
sg19
S'e87547f5ff'
p301
sg21
Vcall 0xfff5477a
p302
sg5
L136110018L
sg6
Nsg23
S'call'
p303
sg25
S'0x81cdfc2L'
p304
sg27
Nsba(ibclass
BInstr
p305
(dp306
g2
Nsg17
S'mov     [ebp+pss], eax'
p307
sg19
S'8945f0'
p308
sg21
Vmov dword ptr [ebp - 0x10], eax
p309
sg5
L136110023L
sg6
Nsg23
S'mov'
p310
sg25
S'0x81cdfc7L'
p311
sg27
Nsba(ibclass
BInstr
p312
(dp313
g2
Nsg17
S'cmp     [ebp+pss], 0'
p314
sg19
S'837df000'
p315
sg21
Vcmp dword ptr [ebp - 0x10], 0
p316
sg5
L136110026L
sg6
Nsg23
S'cmp'
p317
sg25
S'0x81cdfcaL'
p318
sg27
Nsba(ibclass
BInstr
p319
(dp320
g2
Nsg17
S'jnz     short loc_81CDFD7'
p321
sg19
S'7507'
p322
sg21
Vjne 9
p323
sg5
L136110030L
sg6
Nsg23
S'jnz'
p324
sg25
S'0x81cdfceL'
p325
sg27
Nsbasg84
(lp326
Vmov eax, mem
p327
aVmov eax, mem
p328
aVmov eax, mem
p329
aVmov eax, mem
p330
aVmov mem, eax
p331
aVmov eax, mem
p332
aVmov eax, mem
p333
aVmov eax, mem
p334
aVmov eax, mem
p335
aVmov mem, eax
p336
aVmov eax, mem
p337
aVmov mem, eax
p338
aVlea eax, mem
p339
aVmov mem, eax
p340
aVmov mem, 0
p341
aVcall address
p342
aVmov mem, eax
p343
aVcmp mem, 0
p344
ag323
asg92
Nsg5
S'0x81cdf90L'
p345
sg94
(lp346
S'0x81cdf79L'
p347
asg6
Nsg96
(lp348
S'0x81cdfd0L'
p349
aS'0x81cdfd7L'
p350
asg100
Nsg101
Nsg102
S'e6b99e64c640c978b05405fd46d63f68'
p351
sg104
S'a39c45c7579d407cf6698353129b81dc'
p352
sg106
(lp353
g198
ag205
ag212
ag219
ag226
ag233
ag240
ag247
ag254
ag261
ag268
ag275
ag282
ag289
ag296
ag303
ag310
ag317
ag324
asg108
Nsba(ibclass
BBasicBlock
p354
(dp355
g12
Nsg13
(lp356
(ibclass
BInstr
p357
(dp358
g2
Nsg17
S'mov     eax, 0'
p359
sg19
S'b800000000'
p360
sg21
Vmov eax, 0
p361
sg5
L136110032L
sg6
Nsg23
S'mov'
p362
sg25
S'0x81cdfd0L'
p363
sg27
Nsba(ibclass
BInstr
p364
(dp365
g2
Nsg17
S'jmp     short locret_81CE04D'
p366
sg19
S'eb76'
p367
sg21
Vjmp 0x78
p368
sg5
L136110037L
sg6
Nsg23
S'jmp'
p369
sg25
S'0x81cdfd5L'
p370
sg27
Nsbasg84
(lp371
g361
aVjmp address
p372
asg92
Nsg5
S'0x81cdfd0L'
p373
sg94
(lp374
S'0x81cdf90L'
p375
asg6
Nsg96
(lp376
S'0x81ce04dL'
p377
asg100
Nsg101
Nsg102
S'8b9a0d40e062be2b9b2d9885108fb196'
p378
sg104
S'bfbe752dd865c9a89011ba470eab331d'
p379
sg106
(lp380
g362
ag369
asg108
Nsba(ibclass
BBasicBlock
p381
(dp382
g12
Nsg13
(lp383
(ibclass
BInstr
p384
(dp385
g2
Nsg17
S'mov     eax, [ebp+pss]'
p386
sg19
S'8b45f0'
p387
sg21
Vmov eax, dword ptr [ebp - 0x10]
p388
sg5
L136110039L
sg6
Nsg23
S'mov'
p389
sg25
S'0x81cdfd7L'
p390
sg27
Nsba(ibclass
BInstr
p391
(dp392
g2
Nsg17
S'mov     eax, [eax+4]'
p393
sg19
S'8b4004'
p394
sg21
Vmov eax, dword ptr [eax + 4]
p395
sg5
L136110042L
sg6
Nsg23
S'mov'
p396
sg25
S'0x81cdfdaL'
p397
sg27
Nsba(ibclass
BInstr
p398
(dp399
g2
Nsg17
S'test    eax, eax'
p400
sg19
S'85c0'
p401
sg21
Vtest eax, eax
p402
sg5
L136110045L
sg6
Nsg23
S'test'
p403
sg25
S'0x81cdfddL'
p404
sg27
Nsba(ibclass
BInstr
p405
(dp406
g2
Nsg17
S'jz      short loc_81CE04A'
p407
sg19
S'7469'
p408
sg21
Vje 0x6b
p409
sg5
L136110047L
sg6
Nsg23
S'jz'
p410
sg25
S'0x81cdfdfL'
p411
sg27
Nsbasg84
(lp412
Vmov eax, mem
p413
aVmov eax, mem
p414
ag402
aVje address
p415
asg92
Nsg5
S'0x81cdfd7L'
p416
sg94
(lp417
S'0x81cdf90L'
p418
asg6
Nsg96
(lp419
S'0x81cdfe1L'
p420
aS'0x81ce04aL'
p421
asg100
Nsg101
Nsg102
S'ea5d08c7dcc07640d42787f826218f11'
p422
sg104
S'103b924e2a82731ce51d187b2e41af3a'
p423
sg106
(lp424
g389
ag396
ag403
ag410
asg108
Nsba(ibclass
BBasicBlock
p425
(dp426
g12
Nsg13
(lp427
(ibclass
BInstr
p428
(dp429
g2
Nsg17
S'mov     eax, [ebp+pss]'
p430
sg19
S'8b45f0'
p431
sg21
Vmov eax, dword ptr [ebp - 0x10]
p432
sg5
L136110049L
sg6
Nsg23
S'mov'
p433
sg25
S'0x81cdfe1L'
p434
sg27
Nsba(ibclass
BInstr
p435
(dp436
g2
Nsg17
S'mov     eax, [eax+4]'
p437
sg19
S'8b4004'
p438
sg21
Vmov eax, dword ptr [eax + 4]
p439
sg5
L136110052L
sg6
Nsg23
S'mov'
p440
sg25
S'0x81cdfe4L'
p441
sg27
Nsba(ibclass
BInstr
p442
(dp443
g2
Nsg17
S'mov     eax, [eax+4]'
p444
sg19
S'8b4004'
p445
sg21
Vmov eax, dword ptr [eax + 4]
p446
sg5
L136110055L
sg6
Nsg23
S'mov'
p447
sg25
S'0x81cdfe7L'
p448
sg27
Nsba(ibclass
BInstr
p449
(dp450
g2
Nsg17
S'mov     [ebp+param], eax'
p451
sg19
S'8945f4'
p452
sg21
Vmov dword ptr [ebp - 0xc], eax
p453
sg5
L136110058L
sg6
Nsg23
S'mov'
p454
sg25
S'0x81cdfeaL'
p455
sg27
Nsba(ibclass
BInstr
p456
(dp457
g2
Nsg17
S'mov     eax, [ebp+pss]'
p458
sg19
S'8b45f0'
p459
sg21
Vmov eax, dword ptr [ebp - 0x10]
p460
sg5
L136110061L
sg6
Nsg23
S'mov'
p461
sg25
S'0x81cdfedL'
p462
sg27
Nsba(ibclass
BInstr
p463
(dp464
g2
Nsg17
S'mov     eax, [eax+4]'
p465
sg19
S'8b4004'
p466
sg21
Vmov eax, dword ptr [eax + 4]
p467
sg5
L136110064L
sg6
Nsg23
S'mov'
p468
sg25
S'0x81cdff0L'
p469
sg27
Nsba(ibclass
BInstr
p470
(dp471
g2
Nsg17
S'mov     eax, [eax]'
p472
sg19
S'8b00'
p473
sg21
Vmov eax, dword ptr [eax]
p474
sg5
L136110067L
sg6
Nsg23
S'mov'
p475
sg25
S'0x81cdff3L'
p476
sg27
Nsba(ibclass
BInstr
p477
(dp478
g2
Nsg17
S'mov     [esp], eax      ; a'
p479
sg19
S'890424'
p480
sg21
Vmov dword ptr [esp], eax
p481
sg5
L136110069L
sg6
Nsg23
S'mov'
p482
sg25
S'0x81cdff5L'
p483
sg27
Nsba(ibclass
BInstr
p484
(dp485
g2
Nsg17
S'call    OBJ_obj2nid'
p486
sg19
S'e8cd67f1ff'
p487
sg21
Vcall 0xfff167d2
p488
sg5
L136110072L
sg6
Nsg23
S'call'
p489
sg25
S'0x81cdff8L'
p490
sg27
Nsba(ibclass
BInstr
p491
(dp492
g2
Nsg17
S'cmp     eax, 38Fh'
p493
sg19
S'3d8f030000'
p494
sg21
Vcmp eax, 0x38f
p495
sg5
L136110077L
sg6
Nsg23
S'cmp'
p496
sg25
S'0x81cdffdL'
p497
sg27
Nsba(ibclass
BInstr
p498
(dp499
g2
Nsg17
S'jnz     short loc_81CE04A'
p500
sg19
S'7546'
p501
sg21
Vjne 0x48
p502
sg5
L136110082L
sg6
Nsg23
S'jnz'
p503
sg25
S'0x81ce002L'
p504
sg27
Nsbasg84
(lp505
Vmov eax, mem
p506
aVmov eax, mem
p507
aVmov eax, mem
p508
aVmov mem, eax
p509
aVmov eax, mem
p510
aVmov eax, mem
p511
aVmov eax, mem
p512
aVmov mem, eax
p513
aVcall address
p514
aVcmp eax, address
p515
aVjne address
p516
asg92
Nsg5
S'0x81cdfe1L'
p517
sg94
(lp518
S'0x81cdfd7L'
p519
asg6
Nsg96
(lp520
S'0x81ce004L'
p521
aS'0x81ce04aL'
p522
asg100
Nsg101
Nsg102
S'2fb50496dab9223b1dc218091cb4923c'
p523
sg104
S'd9a67e67fafdadad3bf380166dca0712'
p524
sg106
(lp525
g433
ag440
ag447
ag454
ag461
ag468
ag475
ag482
ag489
ag496
ag503
asg108
Nsba(ibclass
BBasicBlock
p526
(dp527
g12
Nsg13
(lp528
(ibclass
BInstr
p529
(dp530
g2
Nsg17
S'cmp     [ebp+param], 0'
p531
sg19
S'837df400'
p532
sg21
Vcmp dword ptr [ebp - 0xc], 0
p533
sg5
L136110084L
sg6
Nsg23
S'cmp'
p534
sg25
S'0x81ce004L'
p535
sg27
Nsba(ibclass
BInstr
p536
(dp537
g2
Nsg17
S'jz      short loc_81CE04A'
p538
sg19
S'7440'
p539
sg21
Vje 0x42
p540
sg5
L136110088L
sg6
Nsg23
S'jz'
p541
sg25
S'0x81ce008L'
p542
sg27
Nsbasg84
(lp543
Vcmp mem, 0
p544
aVje address
p545
asg92
Nsg5
S'0x81ce004L'
p546
sg94
(lp547
S'0x81cdfe1L'
p548
asg6
Nsg96
(lp549
S'0x81ce00aL'
p550
aS'0x81ce04aL'
p551
asg100
Nsg101
Nsg102
S'613dbc2b0cb9d6264d802b24d709daea'
p552
sg104
S'bdc7ec577d63971d81398660f533a2e0'
p553
sg106
(lp554
g534
ag541
asg108
Nsba(ibclass
BBasicBlock
p555
(dp556
g12
Nsg13
(lp557
(ibclass
BInstr
p558
(dp559
g2
Nsg17
S'mov     eax, [ebp+param]'
p560
sg19
S'8b45f4'
p561
sg21
Vmov eax, dword ptr [ebp - 0xc]
p562
sg5
L136110090L
sg6
Nsg23
S'mov'
p563
sg25
S'0x81ce00aL'
p564
sg27
Nsba(ibclass
BInstr
p565
(dp566
g2
Nsg17
S'mov     eax, [eax]'
p567
sg19
S'8b00'
p568
sg21
Vmov eax, dword ptr [eax]
p569
sg5
L136110093L
sg6
Nsg23
S'mov'
p570
sg25
S'0x81ce00dL'
p571
sg27
Nsba(ibclass
BInstr
p572
(dp573
g2
Nsg17
S'cmp     eax, 10h'
p574
sg19
S'83f810'
p575
sg21
Vcmp eax, 0x10
p576
sg5
L136110095L
sg6
Nsg23
S'cmp'
p577
sg25
S'0x81ce00fL'
p578
sg27
Nsba(ibclass
BInstr
p579
(dp580
g2
Nsg17
S'jnz     short loc_81CE04A'
p581
sg19
S'7536'
p582
sg21
Vjne 0x38
p583
sg5
L136110098L
sg6
Nsg23
S'jnz'
p584
sg25
S'0x81ce012L'
p585
sg27
Nsbasg84
(lp586
Vmov eax, mem
p587
aVmov eax, mem
p588
aVcmp eax, address
p589
aVjne address
p590
asg92
Nsg5
S'0x81ce00aL'
p591
sg94
(lp592
S'0x81ce004L'
p593
asg6
Nsg96
(lp594
S'0x81ce014L'
p595
aS'0x81ce04aL'
p596
asg100
Nsg101
Nsg102
S'a19a851724661b9339243c65cfd318e3'
p597
sg104
S'25a063ee277ab8c9b0b7060fa4111963'
p598
sg106
(lp599
g563
ag570
ag577
ag584
asg108
Nsba(ibclass
BBasicBlock
p600
(dp601
g12
Nsg13
(lp602
(ibclass
BInstr
p603
(dp604
g2
Nsg17
S'mov     eax, [ebp+param]'
p605
sg19
S'8b45f4'
p606
sg21
Vmov eax, dword ptr [ebp - 0xc]
p607
sg5
L136110100L
sg6
Nsg23
S'mov'
p608
sg25
S'0x81ce014L'
p609
sg27
Nsba(ibclass
BInstr
p610
(dp611
g2
Nsg17
S'mov     eax, [eax+4]'
p612
sg19
S'8b4004'
p613
sg21
Vmov eax, dword ptr [eax + 4]
p614
sg5
L136110103L
sg6
Nsg23
S'mov'
p615
sg25
S'0x81ce017L'
p616
sg27
Nsba(ibclass
BInstr
p617
(dp618
g2
Nsg17
S'mov     eax, [eax+8]'
p619
sg19
S'8b4008'
p620
sg21
Vmov eax, dword ptr [eax + 8]
p621
sg5
L136110106L
sg6
Nsg23
S'mov'
p622
sg25
S'0x81ce01aL'
p623
sg27
Nsba(ibclass
BInstr
p624
(dp625
g2
Nsg17
S'mov     [ebp+p], eax'
p626
sg19
S'8945e8'
p627
sg21
Vmov dword ptr [ebp - 0x18], eax
p628
sg5
L136110109L
sg6
Nsg23
S'mov'
p629
sg25
S'0x81ce01dL'
p630
sg27
Nsba(ibclass
BInstr
p631
(dp632
g2
Nsg17
S'mov     eax, [ebp+param]'
p633
sg19
S'8b45f4'
p634
sg21
Vmov eax, dword ptr [ebp - 0xc]
p635
sg5
L136110112L
sg6
Nsg23
S'mov'
p636
sg25
S'0x81ce020L'
p637
sg27
Nsba(ibclass
BInstr
p638
(dp639
g2
Nsg17
S'mov     eax, [eax+4]'
p640
sg19
S'8b4004'
p641
sg21
Vmov eax, dword ptr [eax + 4]
p642
sg5
L136110115L
sg6
Nsg23
S'mov'
p643
sg25
S'0x81ce023L'
p644
sg27
Nsba(ibclass
BInstr
p645
(dp646
g2
Nsg17
S'mov     eax, [eax]'
p647
sg19
S'8b00'
p648
sg21
Vmov eax, dword ptr [eax]
p649
sg5
L136110118L
sg6
Nsg23
S'mov'
p650
sg25
S'0x81ce026L'
p651
sg27
Nsba(ibclass
BInstr
p652
(dp653
g2
Nsg17
S'mov     [ebp+plen], eax'
p654
sg19
S'8945ec'
p655
sg21
Vmov dword ptr [ebp - 0x14], eax
p656
sg5
L136110120L
sg6
Nsg23
S'mov'
p657
sg25
S'0x81ce028L'
p658
sg27
Nsba(ibclass
BInstr
p659
(dp660
g2
Nsg17
S'mov     eax, [ebp+plen]'
p661
sg19
S'8b45ec'
p662
sg21
Vmov eax, dword ptr [ebp - 0x14]
p663
sg5
L136110123L
sg6
Nsg23
S'mov'
p664
sg25
S'0x81ce02bL'
p665
sg27
Nsba(ibclass
BInstr
p666
(dp667
g2
Nsg17
S'mov     [esp+8], eax    ; len'
p668
sg19
S'89442408'
p669
sg21
Vmov dword ptr [esp + 8], eax
p670
sg5
L136110126L
sg6
Nsg23
S'mov'
p671
sg25
S'0x81ce02eL'
p672
sg27
Nsba(ibclass
BInstr
p673
(dp674
g2
Nsg17
S'lea     eax, [ebp+p]'
p675
sg19
S'8d45e8'
p676
sg21
Vlea eax, [ebp - 0x18]
p677
sg5
L136110130L
sg6
Nsg23
S'lea'
p678
sg25
S'0x81ce032L'
p679
sg27
Nsba(ibclass
BInstr
p680
(dp681
g2
Nsg17
S'mov     [esp+4], eax    ; in'
p682
sg19
S'89442404'
p683
sg21
Vmov dword ptr [esp + 4], eax
p684
sg5
L136110133L
sg6
Nsg23
S'mov'
p685
sg25
S'0x81ce035L'
p686
sg27
Nsba(ibclass
BInstr
p687
(dp688
g2
Nsg17
S'mov     dword ptr [esp], 0; a'
p689
sg19
S'c7042400000000'
p690
sg21
Vmov dword ptr [esp], 0
p691
sg5
L136110137L
sg6
Nsg23
S'mov'
p692
sg25
S'0x81ce039L'
p693
sg27
Nsba(ibclass
BInstr
p694
(dp695
g2
Nsg17
S'call    d2i_X509_ALGOR'
p696
sg19
S'e8f105f8ff'
p697
sg21
Vcall 0xfff805f6
p698
sg5
L136110144L
sg6
Nsg23
S'call'
p699
sg25
S'0x81ce040L'
p700
sg27
Nsba(ibclass
BInstr
p701
(dp702
g2
Nsg17
S'mov     edx, [ebp+pmaskHash]'
p703
sg19
S'8b550c'
p704
sg21
Vmov edx, dword ptr [ebp + 0xc]
p705
sg5
L136110149L
sg6
Nsg23
S'mov'
p706
sg25
S'0x81ce045L'
p707
sg27
Nsba(ibclass
BInstr
p708
(dp709
g2
Nsg17
S'mov     [edx], eax'
p710
sg19
S'8902'
p711
sg21
Vmov dword ptr [edx], eax
p712
sg5
L136110152L
sg6
Nsg23
S'mov'
p713
sg25
S'0x81ce048L'
p714
sg27
Nsbasg84
(lp715
Vmov eax, mem
p716
aVmov eax, mem
p717
aVmov eax, mem
p718
aVmov mem, eax
p719
aVmov eax, mem
p720
aVmov eax, mem
p721
aVmov eax, mem
p722
aVmov mem, eax
p723
aVmov eax, mem
p724
aVmov mem, eax
p725
aVlea eax, mem
p726
aVmov mem, eax
p727
aVmov mem, 0
p728
aVcall address
p729
aVmov edx, mem
p730
aVmov mem, eax
p731
asg92
Nsg5
S'0x81ce014L'
p732
sg94
(lp733
S'0x81ce00aL'
p734
asg6
Nsg96
(lp735
S'0x81ce04aL'
p736
asg100
Nsg101
Nsg102
S'0823a8175c81c7568b91b8cc5fc4f24e'
p737
sg104
S'56379755e46f28783b61d047293dd22a'
p738
sg106
(lp739
g608
ag615
ag622
ag629
ag636
ag643
ag650
ag657
ag664
ag671
ag678
ag685
ag692
ag699
ag706
ag713
asg108
Nsba(ibclass
BBasicBlock
p740
(dp741
g12
Nsg13
(lp742
(ibclass
BInstr
p743
(dp744
g2
Nsg17
S'mov     eax, [ebp+pss]'
p745
sg19
S'8b45f0'
p746
sg21
Vmov eax, dword ptr [ebp - 0x10]
p747
sg5
L136110154L
sg6
Nsg23
S'mov'
p748
sg25
S'0x81ce04aL'
p749
sg27
Nsbasg84
(lp750
Vmov eax, mem
p751
asg92
Nsg5
S'0x81ce04aL'
p752
sg94
(lp753
S'0x81cdfd7L'
p754
aS'0x81cdfe1L'
p755
aS'0x81ce004L'
p756
aS'0x81ce00aL'
p757
aS'0x81ce014L'
p758
asg6
Nsg96
(lp759
S'0x81ce04dL'
p760
asg100
Nsg101
Nsg102
S'96a4a0e6e9ac88756a0fcba989d0a844'
p761
sg104
S'da3a10212e6b688447f8e74c20e21f06'
p762
sg106
(lp763
g748
asg108
Nsba(ibclass
BBasicBlock
p764
(dp765
g12
Nsg13
(lp766
(ibclass
BInstr
p767
(dp768
g2
Nsg17
S'leave'
p769
sg19
S'c9'
p770
sg21
Vleave 
p771
sg5
L136110157L
sg6
Nsg23
S'leave'
p772
sg25
S'0x81ce04dL'
p773
sg27
Nsba(ibclass
BInstr
p774
(dp775
g2
Nsg17
S'retn'
p776
sg19
S'c3'
p777
sg21
Vret 
p778
sg5
L136110158L
sg6
Nsg23
S'retn'
p779
sg25
S'0x81ce04eL'
p780
sg27
Nsbasg84
(lp781
Vleave
p782
aVret
p783
asg92
Nsg5
S'0x81ce04dL'
p784
sg94
(lp785
S'0x81cdf86L'
p786
aS'0x81cdfd0L'
p787
aS'0x81ce04aL'
p788
asg6
Nsg96
(lp789
sg100
Nsg101
Nsg102
S'08c78f73a6f87c85da88b2982f54ce2a'
p790
sg104
S'393fee3c9fb1d26424d4b7704918e387'
p791
sg106
(lp792
g772
ag779
asg108
Nsbasb.