(ibclass
BFunc
p0
(dp1
S'hash'
p2
NsS'name'
p3
S'ssl_check_for_safari'
p4
sS'start_address'
p5
L134972603L
sS'flag'
p6
NsS'program'
p7
NsS'bbs'
p8
(lp9
(ibclass
BBasicBlock
p10
(dp11
S'function'
p12
NsS'binstrs'
p13
(lp14
(ibclass
BInstr
p15
(dp16
g2
NsS'disasm'
p17
S'push    ebp'
p18
sS'bytes'
p19
S'55'
p20
sS'disasm_striped'
p21
Vpush ebp
p22
sg5
L134972603L
sg6
NsS'mnem'
p23
S'push'
p24
sS'address'
p25
S'0x80b84bbL'
p26
sS'basicblock'
p27
Nsba(ibclass
BInstr
p28
(dp29
g2
Nsg17
S'mov     ebp, esp'
p30
sg19
S'89e5'
p31
sg21
Vmov ebp, esp
p32
sg5
L134972604L
sg6
Nsg23
S'mov'
p33
sg25
S'0x80b84bcL'
p34
sg27
Nsba(ibclass
BInstr
p35
(dp36
g2
Nsg17
S'sub     esp, 28h'
p37
sg19
S'83ec28'
p38
sg21
Vsub esp, 0x28
p39
sg5
L134972606L
sg6
Nsg23
S'sub'
p40
sg25
S'0x80b84beL'
p41
sg27
Nsba(ibclass
BInstr
p42
(dp43
g2
Nsg17
S'mov     eax, [ebp+limit]'
p44
sg19
S'8b4510'
p45
sg21
Vmov eax, dword ptr [ebp + 0x10]
p46
sg5
L134972609L
sg6
Nsg23
S'mov'
p47
sg25
S'0x80b84c1L'
p48
sg27
Nsba(ibclass
BInstr
p49
(dp50
g2
Nsg17
S'sub     eax, 2'
p51
sg19
S'83e802'
p52
sg21
Vsub eax, 2
p53
sg5
L134972612L
sg6
Nsg23
S'sub'
p54
sg25
S'0x80b84c4L'
p55
sg27
Nsba(ibclass
BInstr
p56
(dp57
g2
Nsg17
S'cmp     eax, [ebp+data]'
p58
sg19
S'3b450c'
p59
sg21
Vcmp eax, dword ptr [ebp + 0xc]
p60
sg5
L134972615L
sg6
Nsg23
S'cmp'
p61
sg25
S'0x80b84c7L'
p62
sg27
Nsba(ibclass
BInstr
p63
(dp64
g2
Nsg17
S'ja      short loc_80B84D1'
p65
sg19
S'7705'
p66
sg21
Vja 7
p67
sg5
L134972618L
sg6
Nsg23
S'ja'
p68
sg25
S'0x80b84caL'
p69
sg27
NsbasS'disasm_list'
p70
(lp71
g22
ag32
aVsub esp, address
p72
aVmov eax, mem
p73
ag53
aVcmp eax, mem
p74
ag67
asS'end_address'
p75
Nsg5
S'0x80b84bbL'
p76
sS'preds'
p77
(lp78
sg6
NsS'succs'
p79
(lp80
S'0x80b84ccL'
p81
aS'0x80b84d1L'
p82
asS'hash_v3'
p83
NsS'flag_v2'
p84
NsS'hash_v1'
p85
S'69ee284b67db7f20529f11357e0e800c'
p86
sS'hash_v2'
p87
S'f8ee2ae79d622dea0c02b3f7417c8494'
p88
sS'mnen_list'
p89
(lp90
g24
ag33
ag40
ag47
ag54
ag61
ag68
asS'neighbour_disasm_list'
p91
Nsba(ibclass
BBasicBlock
p92
(dp93
g12
Nsg13
(lp94
(ibclass
BInstr
p95
(dp96
g2
Nsg17
S'jmp     locret_80B862D'
p97
sg19
S'e95c010000'
p98
sg21
Vjmp 0x161
p99
sg5
L134972620L
sg6
Nsg23
S'jmp'
p100
sg25
S'0x80b84ccL'
p101
sg27
Nsbasg70
(lp102
Vjmp address
p103
asg75
Nsg5
S'0x80b84ccL'
p104
sg77
(lp105
S'0x80b84bbL'
p106
asg6
Nsg79
(lp107
S'0x80b862dL'
p108
asg83
Nsg84
Nsg85
S'0ef6cf926f2f394b0cc8e11be8022625'
p109
sg87
S'd4372e4caa7348928655251605aa7329'
p110
sg89
(lp111
g100
asg91
Nsba(ibclass
BBasicBlock
p112
(dp113
g12
Nsg13
(lp114
(ibclass
BInstr
p115
(dp116
g2
Nsg17
S'add     [ebp+data], 2'
p117
sg19
S'83450c02'
p118
sg21
Vadd dword ptr [ebp + 0xc], 2
p119
sg5
L134972625L
sg6
Nsg23
S'add'
p120
sg25
S'0x80b84d1L'
p121
sg27
Nsba(ibclass
BInstr
p122
(dp123
g2
Nsg17
S'mov     eax, [ebp+limit]'
p124
sg19
S'8b4510'
p125
sg21
Vmov eax, dword ptr [ebp + 0x10]
p126
sg5
L134972629L
sg6
Nsg23
S'mov'
p127
sg25
S'0x80b84d5L'
p128
sg27
Nsba(ibclass
BInstr
p129
(dp130
g2
Nsg17
S'sub     eax, 4'
p131
sg19
S'83e804'
p132
sg21
Vsub eax, 4
p133
sg5
L134972632L
sg6
Nsg23
S'sub'
p134
sg25
S'0x80b84d8L'
p135
sg27
Nsba(ibclass
BInstr
p136
(dp137
g2
Nsg17
S'cmp     eax, [ebp+data]'
p138
sg19
S'3b450c'
p139
sg21
Vcmp eax, dword ptr [ebp + 0xc]
p140
sg5
L134972635L
sg6
Nsg23
S'cmp'
p141
sg25
S'0x80b84dbL'
p142
sg27
Nsba(ibclass
BInstr
p143
(dp144
g2
Nsg17
S'jnb     short loc_80B84E5'
p145
sg19
S'7305'
p146
sg21
Vjae 7
p147
sg5
L134972638L
sg6
Nsg23
S'jnb'
p148
sg25
S'0x80b84deL'
p149
sg27
Nsbasg70
(lp150
Vadd mem, 2
p151
aVmov eax, mem
p152
ag133
aVcmp eax, mem
p153
ag147
asg75
Nsg5
S'0x80b84d1L'
p154
sg77
(lp155
S'0x80b84bbL'
p156
asg6
Nsg79
(lp157
S'0x80b84e0L'
p158
aS'0x80b84e5L'
p159
asg83
Nsg84
Nsg85
S'509491688fae22daa873922bb160f6ae'
p160
sg87
S'c74d6e4fbfb12d05df20619ca7cf4e4c'
p161
sg89
(lp162
g120
ag127
ag134
ag141
ag148
asg91
Nsba(ibclass
BBasicBlock
p163
(dp164
g12
Nsg13
(lp165
(ibclass
BInstr
p166
(dp167
g2
Nsg17
S'jmp     locret_80B862D'
p168
sg19
S'e948010000'
p169
sg21
Vjmp 0x14d
p170
sg5
L134972640L
sg6
Nsg23
S'jmp'
p171
sg25
S'0x80b84e0L'
p172
sg27
Nsbasg70
(lp173
Vjmp address
p174
asg75
Nsg5
S'0x80b84e0L'
p175
sg77
(lp176
S'0x80b84d1L'
p177
asg6
Nsg79
(lp178
S'0x80b862dL'
p179
asg83
Nsg84
Nsg85
S'0ef6cf926f2f394b0cc8e11be8022625'
p180
sg87
S'd4372e4caa7348928655251605aa7329'
p181
sg89
(lp182
g171
asg91
Nsba(ibclass
BBasicBlock
p183
(dp184
g12
Nsg13
(lp185
(ibclass
BInstr
p186
(dp187
g2
Nsg17
S'mov     eax, [ebp+data]'
p188
sg19
S'8b450c'
p189
sg21
Vmov eax, dword ptr [ebp + 0xc]
p190
sg5
L134972645L
sg6
Nsg23
S'mov'
p191
sg25
S'0x80b84e5L'
p192
sg27
Nsba(ibclass
BInstr
p193
(dp194
g2
Nsg17
S'mov     al, [eax]'
p195
sg19
S'8a00'
p196
sg21
Vmov al, byte ptr [eax]
p197
sg5
L134972648L
sg6
Nsg23
S'mov'
p198
sg25
S'0x80b84e8L'
p199
sg27
Nsba(ibclass
BInstr
p200
(dp201
g2
Nsg17
S'and     eax, 0FFh'
p202
sg19
S'25ff000000'
p203
sg21
Vand eax, 0xff
p204
sg5
L134972650L
sg6
Nsg23
S'and'
p205
sg25
S'0x80b84eaL'
p206
sg27
Nsba(ibclass
BInstr
p207
(dp208
g2
Nsg17
S'shl     eax, 8'
p209
sg19
S'c1e008'
p210
sg21
Vshl eax, 8
p211
sg5
L134972655L
sg6
Nsg23
S'shl'
p212
sg25
S'0x80b84efL'
p213
sg27
Nsba(ibclass
BInstr
p214
(dp215
g2
Nsg17
S'mov     edx, eax'
p216
sg19
S'89c2'
p217
sg21
Vmov edx, eax
p218
sg5
L134972658L
sg6
Nsg23
S'mov'
p219
sg25
S'0x80b84f2L'
p220
sg27
Nsba(ibclass
BInstr
p221
(dp222
g2
Nsg17
S'mov     eax, [ebp+data]'
p223
sg19
S'8b450c'
p224
sg21
Vmov eax, dword ptr [ebp + 0xc]
p225
sg5
L134972660L
sg6
Nsg23
S'mov'
p226
sg25
S'0x80b84f4L'
p227
sg27
Nsba(ibclass
BInstr
p228
(dp229
g2
Nsg17
S'inc     eax'
p230
sg19
S'40'
p231
sg21
Vinc eax
p232
sg5
L134972663L
sg6
Nsg23
S'inc'
p233
sg25
S'0x80b84f7L'
p234
sg27
Nsba(ibclass
BInstr
p235
(dp236
g2
Nsg17
S'mov     al, [eax]'
p237
sg19
S'8a00'
p238
sg21
Vmov al, byte ptr [eax]
p239
sg5
L134972664L
sg6
Nsg23
S'mov'
p240
sg25
S'0x80b84f8L'
p241
sg27
Nsba(ibclass
BInstr
p242
(dp243
g2
Nsg17
S'and     eax, 0FFh'
p244
sg19
S'25ff000000'
p245
sg21
Vand eax, 0xff
p246
sg5
L134972666L
sg6
Nsg23
S'and'
p247
sg25
S'0x80b84faL'
p248
sg27
Nsba(ibclass
BInstr
p249
(dp250
g2
Nsg17
S'or      eax, edx'
p251
sg19
S'09d0'
p252
sg21
Vor eax, edx
p253
sg5
L134972671L
sg6
Nsg23
S'or'
p254
sg25
S'0x80b84ffL'
p255
sg27
Nsba(ibclass
BInstr
p256
(dp257
g2
Nsg17
S'mov     [ebp+type], ax'
p258
sg19
S'668945e8'
p259
sg21
Vmov word ptr [ebp - 0x18], ax
p260
sg5
L134972673L
sg6
Nsg23
S'mov'
p261
sg25
S'0x80b8501L'
p262
sg27
Nsba(ibclass
BInstr
p263
(dp264
g2
Nsg17
S'add     [ebp+data], 2'
p265
sg19
S'83450c02'
p266
sg21
Vadd dword ptr [ebp + 0xc], 2
p267
sg5
L134972677L
sg6
Nsg23
S'add'
p268
sg25
S'0x80b8505L'
p269
sg27
Nsba(ibclass
BInstr
p270
(dp271
g2
Nsg17
S'mov     eax, [ebp+data]'
p272
sg19
S'8b450c'
p273
sg21
Vmov eax, dword ptr [ebp + 0xc]
p274
sg5
L134972681L
sg6
Nsg23
S'mov'
p275
sg25
S'0x80b8509L'
p276
sg27
Nsba(ibclass
BInstr
p277
(dp278
g2
Nsg17
S'mov     al, [eax]'
p279
sg19
S'8a00'
p280
sg21
Vmov al, byte ptr [eax]
p281
sg5
L134972684L
sg6
Nsg23
S'mov'
p282
sg25
S'0x80b850cL'
p283
sg27
Nsba(ibclass
BInstr
p284
(dp285
g2
Nsg17
S'and     eax, 0FFh'
p286
sg19
S'25ff000000'
p287
sg21
Vand eax, 0xff
p288
sg5
L134972686L
sg6
Nsg23
S'and'
p289
sg25
S'0x80b850eL'
p290
sg27
Nsba(ibclass
BInstr
p291
(dp292
g2
Nsg17
S'shl     eax, 8'
p293
sg19
S'c1e008'
p294
sg21
Vshl eax, 8
p295
sg5
L134972691L
sg6
Nsg23
S'shl'
p296
sg25
S'0x80b8513L'
p297
sg27
Nsba(ibclass
BInstr
p298
(dp299
g2
Nsg17
S'mov     edx, eax'
p300
sg19
S'89c2'
p301
sg21
Vmov edx, eax
p302
sg5
L134972694L
sg6
Nsg23
S'mov'
p303
sg25
S'0x80b8516L'
p304
sg27
Nsba(ibclass
BInstr
p305
(dp306
g2
Nsg17
S'mov     eax, [ebp+data]'
p307
sg19
S'8b450c'
p308
sg21
Vmov eax, dword ptr [ebp + 0xc]
p309
sg5
L134972696L
sg6
Nsg23
S'mov'
p310
sg25
S'0x80b8518L'
p311
sg27
Nsba(ibclass
BInstr
p312
(dp313
g2
Nsg17
S'inc     eax'
p314
sg19
S'40'
p315
sg21
Vinc eax
p316
sg5
L134972699L
sg6
Nsg23
S'inc'
p317
sg25
S'0x80b851bL'
p318
sg27
Nsba(ibclass
BInstr
p319
(dp320
g2
Nsg17
S'mov     al, [eax]'
p321
sg19
S'8a00'
p322
sg21
Vmov al, byte ptr [eax]
p323
sg5
L134972700L
sg6
Nsg23
S'mov'
p324
sg25
S'0x80b851cL'
p325
sg27
Nsba(ibclass
BInstr
p326
(dp327
g2
Nsg17
S'and     eax, 0FFh'
p328
sg19
S'25ff000000'
p329
sg21
Vand eax, 0xff
p330
sg5
L134972702L
sg6
Nsg23
S'and'
p331
sg25
S'0x80b851eL'
p332
sg27
Nsba(ibclass
BInstr
p333
(dp334
g2
Nsg17
S'or      eax, edx'
p335
sg19
S'09d0'
p336
sg21
Vor eax, edx
p337
sg5
L134972707L
sg6
Nsg23
S'or'
p338
sg25
S'0x80b8523L'
p339
sg27
Nsba(ibclass
BInstr
p340
(dp341
g2
Nsg17
S'mov     [ebp+size], ax'
p342
sg19
S'668945ea'
p343
sg21
Vmov word ptr [ebp - 0x16], ax
p344
sg5
L134972709L
sg6
Nsg23
S'mov'
p345
sg25
S'0x80b8525L'
p346
sg27
Nsba(ibclass
BInstr
p347
(dp348
g2
Nsg17
S'add     [ebp+data], 2'
p349
sg19
S'83450c02'
p350
sg21
Vadd dword ptr [ebp + 0xc], 2
p351
sg5
L134972713L
sg6
Nsg23
S'add'
p352
sg25
S'0x80b8529L'
p353
sg27
Nsba(ibclass
BInstr
p354
(dp355
g2
Nsg17
S'cmp     [ebp+type], 0'
p356
sg19
S'66837de800'
p357
sg21
Vcmp word ptr [ebp - 0x18], 0
p358
sg5
L134972717L
sg6
Nsg23
S'cmp'
p359
sg25
S'0x80b852dL'
p360
sg27
Nsba(ibclass
BInstr
p361
(dp362
g2
Nsg17
S'jz      short loc_80B8539'
p363
sg19
S'7405'
p364
sg21
Vje 7
p365
sg5
L134972722L
sg6
Nsg23
S'jz'
p366
sg25
S'0x80b8532L'
p367
sg27
Nsbasg70
(lp368
Vmov eax, mem
p369
aVmov al, mem
p370
aVand eax, address
p371
ag211
ag218
aVmov eax, mem
p372
ag232
aVmov al, mem
p373
aVand eax, address
p374
ag253
aVmov mem, ax
p375
aVadd mem, 2
p376
aVmov eax, mem
p377
aVmov al, mem
p378
aVand eax, address
p379
ag295
ag302
aVmov eax, mem
p380
ag316
aVmov al, mem
p381
aVand eax, address
p382
ag337
aVmov mem, ax
p383
aVadd mem, 2
p384
aVcmp mem, 0
p385
ag365
asg75
Nsg5
S'0x80b84e5L'
p386
sg77
(lp387
S'0x80b84d1L'
p388
asg6
Nsg79
(lp389
S'0x80b8534L'
p390
aS'0x80b8539L'
p391
asg83
Nsg84
Nsg85
S'6fb2656ad7a1391ae623fc572f0cb982'
p392
sg87
S'591225010de3c70be6a5e49f70d94f0e'
p393
sg89
(lp394
g191
ag198
ag205
ag212
ag219
ag226
ag233
ag240
ag247
ag254
ag261
ag268
ag275
ag282
ag289
ag296
ag303
ag310
ag317
ag324
ag331
ag338
ag345
ag352
ag359
ag366
asg91
Nsba(ibclass
BBasicBlock
p395
(dp396
g12
Nsg13
(lp397
(ibclass
BInstr
p398
(dp399
g2
Nsg17
S'jmp     locret_80B862D'
p400
sg19
S'e9f4000000'
p401
sg21
Vjmp 0xf9
p402
sg5
L134972724L
sg6
Nsg23
S'jmp'
p403
sg25
S'0x80b8534L'
p404
sg27
Nsbasg70
(lp405
Vjmp address
p406
asg75
Nsg5
S'0x80b8534L'
p407
sg77
(lp408
S'0x80b84e5L'
p409
asg6
Nsg79
(lp410
S'0x80b862dL'
p411
asg83
Nsg84
Nsg85
S'0ef6cf926f2f394b0cc8e11be8022625'
p412
sg87
S'd4372e4caa7348928655251605aa7329'
p413
sg89
(lp414
g403
asg91
Nsba(ibclass
BBasicBlock
p415
(dp416
g12
Nsg13
(lp417
(ibclass
BInstr
p418
(dp419
g2
Nsg17
S'mov     ax, [ebp+size]'
p420
sg19
S'668b45ea'
p421
sg21
Vmov ax, word ptr [ebp - 0x16]
p422
sg5
L134972729L
sg6
Nsg23
S'mov'
p423
sg25
S'0x80b8539L'
p424
sg27
Nsba(ibclass
BInstr
p425
(dp426
g2
Nsg17
S'xor     edx, edx'
p427
sg19
S'31d2'
p428
sg21
Vxor edx, edx
p429
sg5
L134972733L
sg6
Nsg23
S'xor'
p430
sg25
S'0x80b853dL'
p431
sg27
Nsba(ibclass
BInstr
p432
(dp433
g2
Nsg17
S'mov     dx, ax'
p434
sg19
S'6689c2'
p435
sg21
Vmov dx, ax
p436
sg5
L134972735L
sg6
Nsg23
S'mov'
p437
sg25
S'0x80b853fL'
p438
sg27
Nsba(ibclass
BInstr
p439
(dp440
g2
Nsg17
S'mov     eax, [ebp+data]'
p441
sg19
S'8b450c'
p442
sg21
Vmov eax, dword ptr [ebp + 0xc]
p443
sg5
L134972738L
sg6
Nsg23
S'mov'
p444
sg25
S'0x80b8542L'
p445
sg27
Nsba(ibclass
BInstr
p446
(dp447
g2
Nsg17
S'add     eax, edx'
p448
sg19
S'01d0'
p449
sg21
Vadd eax, edx
p450
sg5
L134972741L
sg6
Nsg23
S'add'
p451
sg25
S'0x80b8545L'
p452
sg27
Nsba(ibclass
BInstr
p453
(dp454
g2
Nsg17
S'cmp     eax, [ebp+limit]'
p455
sg19
S'3b4510'
p456
sg21
Vcmp eax, dword ptr [ebp + 0x10]
p457
sg5
L134972743L
sg6
Nsg23
S'cmp'
p458
sg25
S'0x80b8547L'
p459
sg27
Nsba(ibclass
BInstr
p460
(dp461
g2
Nsg17
S'jbe     short loc_80B8551'
p462
sg19
S'7605'
p463
sg21
Vjbe 7
p464
sg5
L134972746L
sg6
Nsg23
S'jbe'
p465
sg25
S'0x80b854aL'
p466
sg27
Nsbasg70
(lp467
Vmov ax, mem
p468
ag429
ag436
aVmov eax, mem
p469
ag450
aVcmp eax, mem
p470
ag464
asg75
Nsg5
S'0x80b8539L'
p471
sg77
(lp472
S'0x80b84e5L'
p473
asg6
Nsg79
(lp474
S'0x80b854cL'
p475
aS'0x80b8551L'
p476
asg83
Nsg84
Nsg85
S'334e457b401ead0480c9137827959560'
p477
sg87
S'1cc3ff0315acae7ab887142ea0d38707'
p478
sg89
(lp479
g423
ag430
ag437
ag444
ag451
ag458
ag465
asg91
Nsba(ibclass
BBasicBlock
p480
(dp481
g12
Nsg13
(lp482
(ibclass
BInstr
p483
(dp484
g2
Nsg17
S'jmp     locret_80B862D'
p485
sg19
S'e9dc000000'
p486
sg21
Vjmp 0xe1
p487
sg5
L134972748L
sg6
Nsg23
S'jmp'
p488
sg25
S'0x80b854cL'
p489
sg27
Nsbasg70
(lp490
Vjmp address
p491
asg75
Nsg5
S'0x80b854cL'
p492
sg77
(lp493
S'0x80b8539L'
p494
asg6
Nsg79
(lp495
S'0x80b862dL'
p496
asg83
Nsg84
Nsg85
S'0ef6cf926f2f394b0cc8e11be8022625'
p497
sg87
S'd4372e4caa7348928655251605aa7329'
p498
sg89
(lp499
g488
asg91
Nsba(ibclass
BBasicBlock
p500
(dp501
g12
Nsg13
(lp502
(ibclass
BInstr
p503
(dp504
g2
Nsg17
S'mov     ax, [ebp+size]'
p505
sg19
S'668b45ea'
p506
sg21
Vmov ax, word ptr [ebp - 0x16]
p507
sg5
L134972753L
sg6
Nsg23
S'mov'
p508
sg25
S'0x80b8551L'
p509
sg27
Nsba(ibclass
BInstr
p510
(dp511
g2
Nsg17
S'and     eax, 0FFFFh'
p512
sg19
S'25ffff0000'
p513
sg21
Vand eax, 0xffff
p514
sg5
L134972757L
sg6
Nsg23
S'and'
p515
sg25
S'0x80b8555L'
p516
sg27
Nsba(ibclass
BInstr
p517
(dp518
g2
Nsg17
S'add     [ebp+data], eax'
p519
sg19
S'01450c'
p520
sg21
Vadd dword ptr [ebp + 0xc], eax
p521
sg5
L134972762L
sg6
Nsg23
S'add'
p522
sg25
S'0x80b855aL'
p523
sg27
Nsba(ibclass
BInstr
p524
(dp525
g2
Nsg17
S'mov     eax, [ebp+s]'
p526
sg19
S'8b4508'
p527
sg21
Vmov eax, dword ptr [ebp + 8]
p528
sg5
L134972765L
sg6
Nsg23
S'mov'
p529
sg25
S'0x80b855dL'
p530
sg27
Nsba(ibclass
BInstr
p531
(dp532
g2
Nsg17
S'mov     eax, [eax+110h]'
p533
sg19
S'8b8010010000'
p534
sg21
Vmov eax, dword ptr [eax + 0x110]
p535
sg5
L134972768L
sg6
Nsg23
S'mov'
p536
sg25
S'0x80b8560L'
p537
sg27
Nsba(ibclass
BInstr
p538
(dp539
g2
Nsg17
S'sar     eax, 8'
p540
sg19
S'c1f808'
p541
sg21
Vsar eax, 8
p542
sg5
L134972774L
sg6
Nsg23
S'sar'
p543
sg25
S'0x80b8566L'
p544
sg27
Nsba(ibclass
BInstr
p545
(dp546
g2
Nsg17
S'cmp     eax, 3'
p547
sg19
S'83f803'
p548
sg21
Vcmp eax, 3
p549
sg5
L134972777L
sg6
Nsg23
S'cmp'
p550
sg25
S'0x80b8569L'
p551
sg27
Nsba(ibclass
BInstr
p552
(dp553
g2
Nsg17
S'jnz     short loc_80B85EA'
p554
sg19
S'757c'
p555
sg21
Vjne 0x7e
p556
sg5
L134972780L
sg6
Nsg23
S'jnz'
p557
sg25
S'0x80b856cL'
p558
sg27
Nsbasg70
(lp559
Vmov ax, mem
p560
aVand eax, address
p561
aVadd mem, eax
p562
aVmov eax, mem
p563
aVmov eax, mem
p564
ag542
ag549
aVjne address
p565
asg75
Nsg5
S'0x80b8551L'
p566
sg77
(lp567
S'0x80b8539L'
p568
asg6
Nsg79
(lp569
S'0x80b856eL'
p570
aS'0x80b85eaL'
p571
asg83
Nsg84
Nsg85
S'5599178a6633d2ab2572ce6a24d6c63e'
p572
sg87
S'154da6d9fbbe3ef88c9e700163c661e6'
p573
sg89
(lp574
g508
ag515
ag522
ag529
ag536
ag543
ag550
ag557
asg91
Nsba(ibclass
BBasicBlock
p575
(dp576
g12
Nsg13
(lp577
(ibclass
BInstr
p578
(dp579
g2
Nsg17
S'mov     eax, [ebp+s]'
p580
sg19
S'8b4508'
p581
sg21
Vmov eax, dword ptr [ebp + 8]
p582
sg5
L134972782L
sg6
Nsg23
S'mov'
p583
sg25
S'0x80b856eL'
p584
sg27
Nsba(ibclass
BInstr
p585
(dp586
g2
Nsg17
S'mov     eax, [eax+110h]'
p587
sg19
S'8b8010010000'
p588
sg21
Vmov eax, dword ptr [eax + 0x110]
p589
sg5
L134972785L
sg6
Nsg23
S'mov'
p590
sg25
S'0x80b8571L'
p591
sg27
Nsba(ibclass
BInstr
p592
(dp593
g2
Nsg17
S'cmp     eax, 302h'
p594
sg19
S'3d02030000'
p595
sg21
Vcmp eax, 0x302
p596
sg5
L134972791L
sg6
Nsg23
S'cmp'
p597
sg25
S'0x80b8577L'
p598
sg27
Nsba(ibclass
BInstr
p599
(dp600
g2
Nsg17
S'jle     short loc_80B85EA'
p601
sg19
S'7e6c'
p602
sg21
Vjle 0x6e
p603
sg5
L134972796L
sg6
Nsg23
S'jle'
p604
sg25
S'0x80b857cL'
p605
sg27
Nsbasg70
(lp606
Vmov eax, mem
p607
aVmov eax, mem
p608
aVcmp eax, address
p609
aVjle address
p610
asg75
Nsg5
S'0x80b856eL'
p611
sg77
(lp612
S'0x80b8551L'
p613
asg6
Nsg79
(lp614
S'0x80b857eL'
p615
aS'0x80b85eaL'
p616
asg83
Nsg84
Nsg85
S'8515616f0a4833daab2113317e86edbc'
p617
sg87
S'1f485dc7e72f95e0948cbc9125884835'
p618
sg89
(lp619
g583
ag590
ag597
ag604
asg91
Nsba(ibclass
BBasicBlock
p620
(dp621
g12
Nsg13
(lp622
(ibclass
BInstr
p623
(dp624
g2
Nsg17
S'mov     [ebp+len1], 12h'
p625
sg19
S'c745ec12000000'
p626
sg21
Vmov dword ptr [ebp - 0x14], 0x12
p627
sg5
L134972798L
sg6
Nsg23
S'mov'
p628
sg25
S'0x80b857eL'
p629
sg27
Nsba(ibclass
BInstr
p630
(dp631
g2
Nsg17
S'mov     [ebp+len2], 10h'
p632
sg19
S'c745f010000000'
p633
sg21
Vmov dword ptr [ebp - 0x10], 0x10
p634
sg5
L134972805L
sg6
Nsg23
S'mov'
p635
sg25
S'0x80b8585L'
p636
sg27
Nsba(ibclass
BInstr
p637
(dp638
g2
Nsg17
S'mov     eax, [ebp+len2]'
p639
sg19
S'8b45f0'
p640
sg21
Vmov eax, dword ptr [ebp - 0x10]
p641
sg5
L134972812L
sg6
Nsg23
S'mov'
p642
sg25
S'0x80b858cL'
p643
sg27
Nsba(ibclass
BInstr
p644
(dp645
g2
Nsg17
S'mov     edx, [ebp+len1]'
p646
sg19
S'8b55ec'
p647
sg21
Vmov edx, dword ptr [ebp - 0x14]
p648
sg5
L134972815L
sg6
Nsg23
S'mov'
p649
sg25
S'0x80b858fL'
p650
sg27
Nsba(ibclass
BInstr
p651
(dp652
g2
Nsg17
S'add     edx, eax'
p653
sg19
S'01c2'
p654
sg21
Vadd edx, eax
p655
sg5
L134972818L
sg6
Nsg23
S'add'
p656
sg25
S'0x80b8592L'
p657
sg27
Nsba(ibclass
BInstr
p658
(dp659
g2
Nsg17
S'mov     eax, [ebp+data]'
p660
sg19
S'8b450c'
p661
sg21
Vmov eax, dword ptr [ebp + 0xc]
p662
sg5
L134972820L
sg6
Nsg23
S'mov'
p663
sg25
S'0x80b8594L'
p664
sg27
Nsba(ibclass
BInstr
p665
(dp666
g2
Nsg17
S'add     eax, edx'
p667
sg19
S'01d0'
p668
sg21
Vadd eax, edx
p669
sg5
L134972823L
sg6
Nsg23
S'add'
p670
sg25
S'0x80b8597L'
p671
sg27
Nsba(ibclass
BInstr
p672
(dp673
g2
Nsg17
S'cmp     eax, [ebp+limit]'
p674
sg19
S'3b4510'
p675
sg21
Vcmp eax, dword ptr [ebp + 0x10]
p676
sg5
L134972825L
sg6
Nsg23
S'cmp'
p677
sg25
S'0x80b8599L'
p678
sg27
Nsba(ibclass
BInstr
p679
(dp680
g2
Nsg17
S'jz      short loc_80B85A3'
p681
sg19
S'7405'
p682
sg21
Vje 7
p683
sg5
L134972828L
sg6
Nsg23
S'jz'
p684
sg25
S'0x80b859cL'
p685
sg27
Nsbasg70
(lp686
Vmov mem, address
p687
aVmov mem, address
p688
aVmov eax, mem
p689
aVmov edx, mem
p690
ag655
aVmov eax, mem
p691
ag669
aVcmp eax, mem
p692
ag683
asg75
Nsg5
S'0x80b857eL'
p693
sg77
(lp694
S'0x80b856eL'
p695
asg6
Nsg79
(lp696
S'0x80b859eL'
p697
aS'0x80b85a3L'
p698
asg83
Nsg84
Nsg85
S'a736412a7c5e5321e8ead81402714773'
p699
sg87
S'05b58ae34b10bef81a88d9beeba7054d'
p700
sg89
(lp701
g628
ag635
ag642
ag649
ag656
ag663
ag670
ag677
ag684
asg91
Nsba(ibclass
BBasicBlock
p702
(dp703
g12
Nsg13
(lp704
(ibclass
BInstr
p705
(dp706
g2
Nsg17
S'jmp     locret_80B862D'
p707
sg19
S'e98a000000'
p708
sg21
Vjmp 0x8f
p709
sg5
L134972830L
sg6
Nsg23
S'jmp'
p710
sg25
S'0x80b859eL'
p711
sg27
Nsbasg70
(lp712
Vjmp address
p713
asg75
Nsg5
S'0x80b859eL'
p714
sg77
(lp715
S'0x80b857eL'
p716
asg6
Nsg79
(lp717
S'0x80b862dL'
p718
asg83
Nsg84
Nsg85
S'0ef6cf926f2f394b0cc8e11be8022625'
p719
sg87
S'd4372e4caa7348928655251605aa7329'
p720
sg89
(lp721
g710
asg91
Nsba(ibclass
BBasicBlock
p722
(dp723
g12
Nsg13
(lp724
(ibclass
BInstr
p725
(dp726
g2
Nsg17
S'mov     eax, [ebp+len1]'
p727
sg19
S'8b45ec'
p728
sg21
Vmov eax, dword ptr [ebp - 0x14]
p729
sg5
L134972835L
sg6
Nsg23
S'mov'
p730
sg25
S'0x80b85a3L'
p731
sg27
Nsba(ibclass
BInstr
p732
(dp733
g2
Nsg17
S'mov     [esp+8], eax    ; n'
p734
sg19
S'89442408'
p735
sg21
Vmov dword ptr [esp + 8], eax
p736
sg5
L134972838L
sg6
Nsg23
S'mov'
p737
sg25
S'0x80b85a6L'
p738
sg27
Nsba(ibclass
BInstr
p739
(dp740
g2
Nsg17
S'mov     dword ptr [esp+4], offset kSafariExtensionsBlock_16757; s2'
p741
sg19
S'c74424041b1d2108'
p742
sg21
Vmov dword ptr [esp + 4], 0x8211d1b
p743
sg5
L134972842L
sg6
Nsg23
S'mov'
p744
sg25
S'0x80b85aaL'
p745
sg27
Nsba(ibclass
BInstr
p746
(dp747
g2
Nsg17
S'mov     eax, [ebp+data]'
p748
sg19
S'8b450c'
p749
sg21
Vmov eax, dword ptr [ebp + 0xc]
p750
sg5
L134972850L
sg6
Nsg23
S'mov'
p751
sg25
S'0x80b85b2L'
p752
sg27
Nsba(ibclass
BInstr
p753
(dp754
g2
Nsg17
S'mov     [esp], eax      ; s1'
p755
sg19
S'890424'
p756
sg21
Vmov dword ptr [esp], eax
p757
sg5
L134972853L
sg6
Nsg23
S'mov'
p758
sg25
S'0x80b85b5L'
p759
sg27
Nsba(ibclass
BInstr
p760
(dp761
g2
Nsg17
S'call    _memcmp'
p762
sg19
S'e85310f9ff'
p763
sg21
Vcall 0xfff91058
p764
sg5
L134972856L
sg6
Nsg23
S'call'
p765
sg25
S'0x80b85b8L'
p766
sg27
Nsba(ibclass
BInstr
p767
(dp768
g2
Nsg17
S'test    eax, eax'
p769
sg19
S'85c0'
p770
sg21
Vtest eax, eax
p771
sg5
L134972861L
sg6
Nsg23
S'test'
p772
sg25
S'0x80b85bdL'
p773
sg27
Nsba(ibclass
BInstr
p774
(dp775
g2
Nsg17
S'jz      short loc_80B85C3'
p776
sg19
S'7402'
p777
sg21
Vje 4
p778
sg5
L134972863L
sg6
Nsg23
S'jz'
p779
sg25
S'0x80b85bfL'
p780
sg27
Nsbasg70
(lp781
Vmov eax, mem
p782
aVmov mem, eax
p783
aVmov mem, address
p784
aVmov eax, mem
p785
aVmov mem, eax
p786
aVcall address
p787
ag771
ag778
asg75
Nsg5
S'0x80b85a3L'
p788
sg77
(lp789
S'0x80b857eL'
p790
asg6
Nsg79
(lp791
S'0x80b85c1L'
p792
aS'0x80b85c3L'
p793
asg83
Nsg84
Nsg85
S'a9b75a2520396cff19929a086e37ebd5'
p794
sg87
S'9d678e8370d3ce495493b948dbe55ce5'
p795
sg89
(lp796
g730
ag737
ag744
ag751
ag758
ag765
ag772
ag779
asg91
Nsba(ibclass
BBasicBlock
p797
(dp798
g12
Nsg13
(lp799
(ibclass
BInstr
p800
(dp801
g2
Nsg17
S'jmp     short locret_80B862D'
p802
sg19
S'eb6a'
p803
sg21
Vjmp 0x6c
p804
sg5
L134972865L
sg6
Nsg23
S'jmp'
p805
sg25
S'0x80b85c1L'
p806
sg27
Nsbasg70
(lp807
Vjmp address
p808
asg75
Nsg5
S'0x80b85c1L'
p809
sg77
(lp810
S'0x80b85a3L'
p811
asg6
Nsg79
(lp812
S'0x80b862dL'
p813
asg83
Nsg84
Nsg85
S'0ef6cf926f2f394b0cc8e11be8022625'
p814
sg87
S'd4372e4caa7348928655251605aa7329'
p815
sg89
(lp816
g805
asg91
Nsba(ibclass
BBasicBlock
p817
(dp818
g12
Nsg13
(lp819
(ibclass
BInstr
p820
(dp821
g2
Nsg17
S'mov     eax, [ebp+len1]'
p822
sg19
S'8b45ec'
p823
sg21
Vmov eax, dword ptr [ebp - 0x14]
p824
sg5
L134972867L
sg6
Nsg23
S'mov'
p825
sg25
S'0x80b85c3L'
p826
sg27
Nsba(ibclass
BInstr
p827
(dp828
g2
Nsg17
S'mov     edx, [ebp+data]'
p829
sg19
S'8b550c'
p830
sg21
Vmov edx, dword ptr [ebp + 0xc]
p831
sg5
L134972870L
sg6
Nsg23
S'mov'
p832
sg25
S'0x80b85c6L'
p833
sg27
Nsba(ibclass
BInstr
p834
(dp835
g2
Nsg17
S'add     edx, eax'
p836
sg19
S'01c2'
p837
sg21
Vadd edx, eax
p838
sg5
L134972873L
sg6
Nsg23
S'add'
p839
sg25
S'0x80b85c9L'
p840
sg27
Nsba(ibclass
BInstr
p841
(dp842
g2
Nsg17
S'mov     eax, [ebp+len2]'
p843
sg19
S'8b45f0'
p844
sg21
Vmov eax, dword ptr [ebp - 0x10]
p845
sg5
L134972875L
sg6
Nsg23
S'mov'
p846
sg25
S'0x80b85cbL'
p847
sg27
Nsba(ibclass
BInstr
p848
(dp849
g2
Nsg17
S'mov     [esp+8], eax    ; n'
p850
sg19
S'89442408'
p851
sg21
Vmov dword ptr [esp + 8], eax
p852
sg5
L134972878L
sg6
Nsg23
S'mov'
p853
sg25
S'0x80b85ceL'
p854
sg27
Nsba(ibclass
BInstr
p855
(dp856
g2
Nsg17
S'mov     dword ptr [esp+4], offset kSafariTLS12ExtensionsBlock_16758; s2'
p857
sg19
S'c74424042d1d2108'
p858
sg21
Vmov dword ptr [esp + 4], 0x8211d2d
p859
sg5
L134972882L
sg6
Nsg23
S'mov'
p860
sg25
S'0x80b85d2L'
p861
sg27
Nsba(ibclass
BInstr
p862
(dp863
g2
Nsg17
S'mov     [esp], edx      ; s1'
p864
sg19
S'891424'
p865
sg21
Vmov dword ptr [esp], edx
p866
sg5
L134972890L
sg6
Nsg23
S'mov'
p867
sg25
S'0x80b85daL'
p868
sg27
Nsba(ibclass
BInstr
p869
(dp870
g2
Nsg17
S'call    _memcmp'
p871
sg19
S'e82e10f9ff'
p872
sg21
Vcall 0xfff91033
p873
sg5
L134972893L
sg6
Nsg23
S'call'
p874
sg25
S'0x80b85ddL'
p875
sg27
Nsba(ibclass
BInstr
p876
(dp877
g2
Nsg17
S'test    eax, eax'
p878
sg19
S'85c0'
p879
sg21
Vtest eax, eax
p880
sg5
L134972898L
sg6
Nsg23
S'test'
p881
sg25
S'0x80b85e2L'
p882
sg27
Nsba(ibclass
BInstr
p883
(dp884
g2
Nsg17
S'jz      short loc_80B85E8'
p885
sg19
S'7402'
p886
sg21
Vje 4
p887
sg5
L134972900L
sg6
Nsg23
S'jz'
p888
sg25
S'0x80b85e4L'
p889
sg27
Nsbasg70
(lp890
Vmov eax, mem
p891
aVmov edx, mem
p892
ag838
aVmov eax, mem
p893
aVmov mem, eax
p894
aVmov mem, address
p895
aVmov mem, edx
p896
aVcall address
p897
ag880
ag887
asg75
Nsg5
S'0x80b85c3L'
p898
sg77
(lp899
S'0x80b85a3L'
p900
asg6
Nsg79
(lp901
S'0x80b85e6L'
p902
aS'0x80b85e8L'
p903
asg83
Nsg84
Nsg85
S'e6a0a7c287a980bed248884f96d1feb0'
p904
sg87
S'0910aacb9bf4f9ef2229872f50f3a3df'
p905
sg89
(lp906
g825
ag832
ag839
ag846
ag853
ag860
ag867
ag874
ag881
ag888
asg91
Nsba(ibclass
BBasicBlock
p907
(dp908
g12
Nsg13
(lp909
(ibclass
BInstr
p910
(dp911
g2
Nsg17
S'jmp     short locret_80B862D'
p912
sg19
S'eb45'
p913
sg21
Vjmp 0x47
p914
sg5
L134972902L
sg6
Nsg23
S'jmp'
p915
sg25
S'0x80b85e6L'
p916
sg27
Nsbasg70
(lp917
Vjmp address
p918
asg75
Nsg5
S'0x80b85e6L'
p919
sg77
(lp920
S'0x80b85c3L'
p921
asg6
Nsg79
(lp922
S'0x80b862dL'
p923
asg83
Nsg84
Nsg85
S'0ef6cf926f2f394b0cc8e11be8022625'
p924
sg87
S'd4372e4caa7348928655251605aa7329'
p925
sg89
(lp926
g915
asg91
Nsba(ibclass
BBasicBlock
p927
(dp928
g12
Nsg13
(lp929
(ibclass
BInstr
p930
(dp931
g2
Nsg17
S'jmp     short loc_80B8620'
p932
sg19
S'eb36'
p933
sg21
Vjmp 0x38
p934
sg5
L134972904L
sg6
Nsg23
S'jmp'
p935
sg25
S'0x80b85e8L'
p936
sg27
Nsbasg70
(lp937
Vjmp address
p938
asg75
Nsg5
S'0x80b85e8L'
p939
sg77
(lp940
S'0x80b85c3L'
p941
asg6
Nsg79
(lp942
S'0x80b8620L'
p943
asg83
Nsg84
Nsg85
S'0ef6cf926f2f394b0cc8e11be8022625'
p944
sg87
S'd4372e4caa7348928655251605aa7329'
p945
sg89
(lp946
g935
asg91
Nsba(ibclass
BBasicBlock
p947
(dp948
g12
Nsg13
(lp949
(ibclass
BInstr
p950
(dp951
g2
Nsg17
S'mov     [ebp+len], 12h'
p952
sg19
S'c745f412000000'
p953
sg21
Vmov dword ptr [ebp - 0xc], 0x12
p954
sg5
L134972906L
sg6
Nsg23
S'mov'
p955
sg25
S'0x80b85eaL'
p956
sg27
Nsba(ibclass
BInstr
p957
(dp958
g2
Nsg17
S'mov     eax, [ebp+len]'
p959
sg19
S'8b45f4'
p960
sg21
Vmov eax, dword ptr [ebp - 0xc]
p961
sg5
L134972913L
sg6
Nsg23
S'mov'
p962
sg25
S'0x80b85f1L'
p963
sg27
Nsba(ibclass
BInstr
p964
(dp965
g2
Nsg17
S'mov     edx, [ebp+data]'
p966
sg19
S'8b550c'
p967
sg21
Vmov edx, dword ptr [ebp + 0xc]
p968
sg5
L134972916L
sg6
Nsg23
S'mov'
p969
sg25
S'0x80b85f4L'
p970
sg27
Nsba(ibclass
BInstr
p971
(dp972
g2
Nsg17
S'add     eax, edx'
p973
sg19
S'01d0'
p974
sg21
Vadd eax, edx
p975
sg5
L134972919L
sg6
Nsg23
S'add'
p976
sg25
S'0x80b85f7L'
p977
sg27
Nsba(ibclass
BInstr
p978
(dp979
g2
Nsg17
S'cmp     eax, [ebp+limit]'
p980
sg19
S'3b4510'
p981
sg21
Vcmp eax, dword ptr [ebp + 0x10]
p982
sg5
L134972921L
sg6
Nsg23
S'cmp'
p983
sg25
S'0x80b85f9L'
p984
sg27
Nsba(ibclass
BInstr
p985
(dp986
g2
Nsg17
S'jz      short loc_80B8600'
p987
sg19
S'7402'
p988
sg21
Vje 4
p989
sg5
L134972924L
sg6
Nsg23
S'jz'
p990
sg25
S'0x80b85fcL'
p991
sg27
Nsbasg70
(lp992
Vmov mem, address
p993
aVmov eax, mem
p994
aVmov edx, mem
p995
ag975
aVcmp eax, mem
p996
ag989
asg75
Nsg5
S'0x80b85eaL'
p997
sg77
(lp998
S'0x80b8551L'
p999
aS'0x80b856eL'
p1000
asg6
Nsg79
(lp1001
S'0x80b85feL'
p1002
aS'0x80b8600L'
p1003
asg83
Nsg84
Nsg85
S'24fb39d35a038d35fefba91a0359007e'
p1004
sg87
S'c15290aeef8d3919afe63e2948842e8d'
p1005
sg89
(lp1006
g955
ag962
ag969
ag976
ag983
ag990
asg91
Nsba(ibclass
BBasicBlock
p1007
(dp1008
g12
Nsg13
(lp1009
(ibclass
BInstr
p1010
(dp1011
g2
Nsg17
S'jmp     short locret_80B862D'
p1012
sg19
S'eb2d'
p1013
sg21
Vjmp 0x2f
p1014
sg5
L134972926L
sg6
Nsg23
S'jmp'
p1015
sg25
S'0x80b85feL'
p1016
sg27
Nsbasg70
(lp1017
Vjmp address
p1018
asg75
Nsg5
S'0x80b85feL'
p1019
sg77
(lp1020
S'0x80b85eaL'
p1021
asg6
Nsg79
(lp1022
S'0x80b862dL'
p1023
asg83
Nsg84
Nsg85
S'0ef6cf926f2f394b0cc8e11be8022625'
p1024
sg87
S'd4372e4caa7348928655251605aa7329'
p1025
sg89
(lp1026
g1015
asg91
Nsba(ibclass
BBasicBlock
p1027
(dp1028
g12
Nsg13
(lp1029
(ibclass
BInstr
p1030
(dp1031
g2
Nsg17
S'mov     eax, [ebp+len]'
p1032
sg19
S'8b45f4'
p1033
sg21
Vmov eax, dword ptr [ebp - 0xc]
p1034
sg5
L134972928L
sg6
Nsg23
S'mov'
p1035
sg25
S'0x80b8600L'
p1036
sg27
Nsba(ibclass
BInstr
p1037
(dp1038
g2
Nsg17
S'mov     [esp+8], eax    ; n'
p1039
sg19
S'89442408'
p1040
sg21
Vmov dword ptr [esp + 8], eax
p1041
sg5
L134972931L
sg6
Nsg23
S'mov'
p1042
sg25
S'0x80b8603L'
p1043
sg27
Nsba(ibclass
BInstr
p1044
(dp1045
g2
Nsg17
S'mov     dword ptr [esp+4], offset kSafariExtensionsBlock_16757; s2'
p1046
sg19
S'c74424041b1d2108'
p1047
sg21
Vmov dword ptr [esp + 4], 0x8211d1b
p1048
sg5
L134972935L
sg6
Nsg23
S'mov'
p1049
sg25
S'0x80b8607L'
p1050
sg27
Nsba(ibclass
BInstr
p1051
(dp1052
g2
Nsg17
S'mov     eax, [ebp+data]'
p1053
sg19
S'8b450c'
p1054
sg21
Vmov eax, dword ptr [ebp + 0xc]
p1055
sg5
L134972943L
sg6
Nsg23
S'mov'
p1056
sg25
S'0x80b860fL'
p1057
sg27
Nsba(ibclass
BInstr
p1058
(dp1059
g2
Nsg17
S'mov     [esp], eax      ; s1'
p1060
sg19
S'890424'
p1061
sg21
Vmov dword ptr [esp], eax
p1062
sg5
L134972946L
sg6
Nsg23
S'mov'
p1063
sg25
S'0x80b8612L'
p1064
sg27
Nsba(ibclass
BInstr
p1065
(dp1066
g2
Nsg17
S'call    _memcmp'
p1067
sg19
S'e8f60ff9ff'
p1068
sg21
Vcall 0xfff90ffb
p1069
sg5
L134972949L
sg6
Nsg23
S'call'
p1070
sg25
S'0x80b8615L'
p1071
sg27
Nsba(ibclass
BInstr
p1072
(dp1073
g2
Nsg17
S'test    eax, eax'
p1074
sg19
S'85c0'
p1075
sg21
Vtest eax, eax
p1076
sg5
L134972954L
sg6
Nsg23
S'test'
p1077
sg25
S'0x80b861aL'
p1078
sg27
Nsba(ibclass
BInstr
p1079
(dp1080
g2
Nsg17
S'jz      short loc_80B8620'
p1081
sg19
S'7402'
p1082
sg21
Vje 4
p1083
sg5
L134972956L
sg6
Nsg23
S'jz'
p1084
sg25
S'0x80b861cL'
p1085
sg27
Nsbasg70
(lp1086
Vmov eax, mem
p1087
aVmov mem, eax
p1088
aVmov mem, address
p1089
aVmov eax, mem
p1090
aVmov mem, eax
p1091
aVcall address
p1092
ag1076
ag1083
asg75
Nsg5
S'0x80b8600L'
p1093
sg77
(lp1094
S'0x80b85eaL'
p1095
asg6
Nsg79
(lp1096
S'0x80b861eL'
p1097
aS'0x80b8620L'
p1098
asg83
Nsg84
Nsg85
S'a9b75a2520396cff19929a086e37ebd5'
p1099
sg87
S'9d678e8370d3ce495493b948dbe55ce5'
p1100
sg89
(lp1101
g1035
ag1042
ag1049
ag1056
ag1063
ag1070
ag1077
ag1084
asg91
Nsba(ibclass
BBasicBlock
p1102
(dp1103
g12
Nsg13
(lp1104
(ibclass
BInstr
p1105
(dp1106
g2
Nsg17
S'jmp     short locret_80B862D'
p1107
sg19
S'eb0d'
p1108
sg21
Vjmp 0xf
p1109
sg5
L134972958L
sg6
Nsg23
S'jmp'
p1110
sg25
S'0x80b861eL'
p1111
sg27
Nsbasg70
(lp1112
Vjmp address
p1113
asg75
Nsg5
S'0x80b861eL'
p1114
sg77
(lp1115
S'0x80b8600L'
p1116
asg6
Nsg79
(lp1117
S'0x80b862dL'
p1118
asg83
Nsg84
Nsg85
S'0ef6cf926f2f394b0cc8e11be8022625'
p1119
sg87
S'd4372e4caa7348928655251605aa7329'
p1120
sg89
(lp1121
g1110
asg91
Nsba(ibclass
BBasicBlock
p1122
(dp1123
g12
Nsg13
(lp1124
(ibclass
BInstr
p1125
(dp1126
g2
Nsg17
S'mov     eax, [ebp+s]'
p1127
sg19
S'8b4508'
p1128
sg21
Vmov eax, dword ptr [ebp + 8]
p1129
sg5
L134972960L
sg6
Nsg23
S'mov'
p1130
sg25
S'0x80b8620L'
p1131
sg27
Nsba(ibclass
BInstr
p1132
(dp1133
g2
Nsg17
S'mov     eax, [eax+58h]'
p1134
sg19
S'8b4058'
p1135
sg21
Vmov eax, dword ptr [eax + 0x58]
p1136
sg5
L134972963L
sg6
Nsg23
S'mov'
p1137
sg25
S'0x80b8623L'
p1138
sg27
Nsba(ibclass
BInstr
p1139
(dp1140
g2
Nsg17
S'mov     byte ptr [eax+420h], 1'
p1141
sg19
S'c6802004000001'
p1142
sg21
Vmov byte ptr [eax + 0x420], 1
p1143
sg5
L134972966L
sg6
Nsg23
S'mov'
p1144
sg25
S'0x80b8626L'
p1145
sg27
Nsbasg70
(lp1146
Vmov eax, mem
p1147
aVmov eax, mem
p1148
aVmov mem, 1
p1149
asg75
Nsg5
S'0x80b8620L'
p1150
sg77
(lp1151
S'0x80b85e8L'
p1152
aS'0x80b8600L'
p1153
asg6
Nsg79
(lp1154
S'0x80b862dL'
p1155
asg83
Nsg84
Nsg85
S'9eccc8b14ee1489d7c3de99648417ffe'
p1156
sg87
S'faff3f47c1bf7415b1fda86a9d0b216e'
p1157
sg89
(lp1158
g1130
ag1137
ag1144
asg91
Nsba(ibclass
BBasicBlock
p1159
(dp1160
g12
Nsg13
(lp1161
(ibclass
BInstr
p1162
(dp1163
g2
Nsg17
S'leave'
p1164
sg19
S'c9'
p1165
sg21
Vleave 
p1166
sg5
L134972973L
sg6
Nsg23
S'leave'
p1167
sg25
S'0x80b862dL'
p1168
sg27
Nsba(ibclass
BInstr
p1169
(dp1170
g2
Nsg17
S'retn'
p1171
sg19
S'c3'
p1172
sg21
Vret 
p1173
sg5
L134972974L
sg6
Nsg23
S'retn'
p1174
sg25
S'0x80b862eL'
p1175
sg27
Nsbasg70
(lp1176
Vleave
p1177
aVret
p1178
asg75
Nsg5
S'0x80b862dL'
p1179
sg77
(lp1180
S'0x80b84ccL'
p1181
aS'0x80b84e0L'
p1182
aS'0x80b8534L'
p1183
aS'0x80b854cL'
p1184
aS'0x80b859eL'
p1185
aS'0x80b85c1L'
p1186
aS'0x80b85e6L'
p1187
aS'0x80b85feL'
p1188
aS'0x80b861eL'
p1189
aS'0x80b8620L'
p1190
asg6
Nsg79
(lp1191
sg83
Nsg84
Nsg85
S'08c78f73a6f87c85da88b2982f54ce2a'
p1192
sg87
S'393fee3c9fb1d26424d4b7704918e387'
p1193
sg89
(lp1194
g1167
ag1174
asg91
Nsbasb.