(ibclass
BFunc
p0
(dp1
S'hash'
p2
NsS'name'
p3
S'MDC2_Update'
p4
sS'start_address'
p5
L136023404L
sS'flag'
p6
NsS'program'
p7
NsS'bbs'
p8
(lp9
(ibclass
BBasicBlock
p10
(dp11
S'function'
p12
NsS'binstrs'
p13
(lp14
(ibclass
BInstr
p15
(dp16
g2
NsS'disasm'
p17
S'push    ebp'
p18
sS'bytes'
p19
S'55'
p20
sS'disasm_striped'
p21
Vpush ebp
p22
sg5
L136023404L
sg6
NsS'mnem'
p23
S'push'
p24
sS'address'
p25
S'0x81b8d6cL'
p26
sS'basicblock'
p27
Nsba(ibclass
BInstr
p28
(dp29
g2
Nsg17
S'mov     ebp, esp'
p30
sg19
S'89e5'
p31
sg21
Vmov ebp, esp
p32
sg5
L136023405L
sg6
Nsg23
S'mov'
p33
sg25
S'0x81b8d6dL'
p34
sg27
Nsba(ibclass
BInstr
p35
(dp36
g2
Nsg17
S'sub     esp, 28h'
p37
sg19
S'83ec28'
p38
sg21
Vsub esp, 0x28
p39
sg5
L136023407L
sg6
Nsg23
S'sub'
p40
sg25
S'0x81b8d6fL'
p41
sg27
Nsba(ibclass
BInstr
p42
(dp43
g2
Nsg17
S'mov     eax, [ebp+c]'
p44
sg19
S'8b4508'
p45
sg21
Vmov eax, dword ptr [ebp + 8]
p46
sg5
L136023410L
sg6
Nsg23
S'mov'
p47
sg25
S'0x81b8d72L'
p48
sg27
Nsba(ibclass
BInstr
p49
(dp50
g2
Nsg17
S'mov     eax, [eax]'
p51
sg19
S'8b00'
p52
sg21
Vmov eax, dword ptr [eax]
p53
sg5
L136023413L
sg6
Nsg23
S'mov'
p54
sg25
S'0x81b8d75L'
p55
sg27
Nsba(ibclass
BInstr
p56
(dp57
g2
Nsg17
S'mov     [ebp+i], eax'
p58
sg19
S'8945f0'
p59
sg21
Vmov dword ptr [ebp - 0x10], eax
p60
sg5
L136023415L
sg6
Nsg23
S'mov'
p61
sg25
S'0x81b8d77L'
p62
sg27
Nsba(ibclass
BInstr
p63
(dp64
g2
Nsg17
S'cmp     [ebp+i], 0'
p65
sg19
S'837df000'
p66
sg21
Vcmp dword ptr [ebp - 0x10], 0
p67
sg5
L136023418L
sg6
Nsg23
S'cmp'
p68
sg25
S'0x81b8d7aL'
p69
sg27
Nsba(ibclass
BInstr
p70
(dp71
g2
Nsg17
S'jz      loc_81B8E29'
p72
sg19
S'0f84a5000000'
p73
sg21
Vje 0xab
p74
sg5
L136023422L
sg6
Nsg23
S'jz'
p75
sg25
S'0x81b8d7eL'
p76
sg27
NsbasS'disasm_list'
p77
(lp78
g22
ag32
aVsub esp, address
p79
aVmov eax, mem
p80
aVmov eax, mem
p81
aVmov mem, eax
p82
aVcmp mem, 0
p83
aVje address
p84
asS'end_address'
p85
Nsg5
S'0x81b8d6cL'
p86
sS'preds'
p87
(lp88
sg6
NsS'succs'
p89
(lp90
S'0x81b8d84L'
p91
aS'0x81b8e29L'
p92
asS'hash_v3'
p93
NsS'flag_v2'
p94
NsS'hash_v1'
p95
S'5e0d9e04d51d2bbf795aef1bb6a73128'
p96
sS'hash_v2'
p97
S'2281d1334f351f60ab77e28d0f37bfe2'
p98
sS'mnen_list'
p99
(lp100
g24
ag33
ag40
ag47
ag54
ag61
ag68
ag75
asS'neighbour_disasm_list'
p101
Nsba(ibclass
BBasicBlock
p102
(dp103
g12
Nsg13
(lp104
(ibclass
BInstr
p105
(dp106
g2
Nsg17
S'mov     eax, 8'
p107
sg19
S'b808000000'
p108
sg21
Vmov eax, 8
p109
sg5
L136023428L
sg6
Nsg23
S'mov'
p110
sg25
S'0x81b8d84L'
p111
sg27
Nsba(ibclass
BInstr
p112
(dp113
g2
Nsg17
S'sub     eax, [ebp+i]'
p114
sg19
S'2b45f0'
p115
sg21
Vsub eax, dword ptr [ebp - 0x10]
p116
sg5
L136023433L
sg6
Nsg23
S'sub'
p117
sg25
S'0x81b8d89L'
p118
sg27
Nsba(ibclass
BInstr
p119
(dp120
g2
Nsg17
S'cmp     eax, [ebp+len]'
p121
sg19
S'3b4510'
p122
sg21
Vcmp eax, dword ptr [ebp + 0x10]
p123
sg5
L136023436L
sg6
Nsg23
S'cmp'
p124
sg25
S'0x81b8d8cL'
p125
sg27
Nsba(ibclass
BInstr
p126
(dp127
g2
Nsg17
S'jbe     short loc_81B8DCB'
p128
sg19
S'763a'
p129
sg21
Vjbe 0x3c
p130
sg5
L136023439L
sg6
Nsg23
S'jbe'
p131
sg25
S'0x81b8d8fL'
p132
sg27
Nsbasg77
(lp133
g109
aVsub eax, mem
p134
aVcmp eax, mem
p135
aVjbe address
p136
asg85
Nsg5
S'0x81b8d84L'
p137
sg87
(lp138
S'0x81b8d6cL'
p139
asg6
Nsg89
(lp140
S'0x81b8d91L'
p141
aS'0x81b8dcbL'
p142
asg93
Nsg94
Nsg95
S'7019f97e408013f48a02632ac63534a1'
p143
sg97
S'515617b14d28d2bac7d52c36c83f4847'
p144
sg99
(lp145
g110
ag117
ag124
ag131
asg101
Nsba(ibclass
BBasicBlock
p146
(dp147
g12
Nsg13
(lp148
(ibclass
BInstr
p149
(dp150
g2
Nsg17
S'mov     eax, [ebp+i]'
p151
sg19
S'8b45f0'
p152
sg21
Vmov eax, dword ptr [ebp - 0x10]
p153
sg5
L136023441L
sg6
Nsg23
S'mov'
p154
sg25
S'0x81b8d91L'
p155
sg27
Nsba(ibclass
BInstr
p156
(dp157
g2
Nsg17
S'mov     edx, [ebp+c]'
p158
sg19
S'8b5508'
p159
sg21
Vmov edx, dword ptr [ebp + 8]
p160
sg5
L136023444L
sg6
Nsg23
S'mov'
p161
sg25
S'0x81b8d94L'
p162
sg27
Nsba(ibclass
BInstr
p163
(dp164
g2
Nsg17
S'add     eax, edx'
p165
sg19
S'01d0'
p166
sg21
Vadd eax, edx
p167
sg5
L136023447L
sg6
Nsg23
S'add'
p168
sg25
S'0x81b8d97L'
p169
sg27
Nsba(ibclass
BInstr
p170
(dp171
g2
Nsg17
S'lea     edx, [eax+4]'
p172
sg19
S'8d5004'
p173
sg21
Vlea edx, [eax + 4]
p174
sg5
L136023449L
sg6
Nsg23
S'lea'
p175
sg25
S'0x81b8d99L'
p176
sg27
Nsba(ibclass
BInstr
p177
(dp178
g2
Nsg17
S'mov     eax, [ebp+len]'
p179
sg19
S'8b4510'
p180
sg21
Vmov eax, dword ptr [ebp + 0x10]
p181
sg5
L136023452L
sg6
Nsg23
S'mov'
p182
sg25
S'0x81b8d9cL'
p183
sg27
Nsba(ibclass
BInstr
p184
(dp185
g2
Nsg17
S'mov     [esp+8], eax    ; n'
p186
sg19
S'89442408'
p187
sg21
Vmov dword ptr [esp + 8], eax
p188
sg5
L136023455L
sg6
Nsg23
S'mov'
p189
sg25
S'0x81b8d9fL'
p190
sg27
Nsba(ibclass
BInstr
p191
(dp192
g2
Nsg17
S'mov     eax, [ebp+in]'
p193
sg19
S'8b450c'
p194
sg21
Vmov eax, dword ptr [ebp + 0xc]
p195
sg5
L136023459L
sg6
Nsg23
S'mov'
p196
sg25
S'0x81b8da3L'
p197
sg27
Nsba(ibclass
BInstr
p198
(dp199
g2
Nsg17
S'mov     [esp+4], eax    ; src'
p200
sg19
S'89442404'
p201
sg21
Vmov dword ptr [esp + 4], eax
p202
sg5
L136023462L
sg6
Nsg23
S'mov'
p203
sg25
S'0x81b8da6L'
p204
sg27
Nsba(ibclass
BInstr
p205
(dp206
g2
Nsg17
S'mov     [esp], edx      ; dest'
p207
sg19
S'891424'
p208
sg21
Vmov dword ptr [esp], edx
p209
sg5
L136023466L
sg6
Nsg23
S'mov'
p210
sg25
S'0x81b8daaL'
p211
sg27
Nsba(ibclass
BInstr
p212
(dp213
g2
Nsg17
S'call    _memcpy'
p214
sg19
S'e8ce07e9ff'
p215
sg21
Vcall 0xffe907d3
p216
sg5
L136023469L
sg6
Nsg23
S'call'
p217
sg25
S'0x81b8dadL'
p218
sg27
Nsba(ibclass
BInstr
p219
(dp220
g2
Nsg17
S'mov     eax, [ebp+c]'
p221
sg19
S'8b4508'
p222
sg21
Vmov eax, dword ptr [ebp + 8]
p223
sg5
L136023474L
sg6
Nsg23
S'mov'
p224
sg25
S'0x81b8db2L'
p225
sg27
Nsba(ibclass
BInstr
p226
(dp227
g2
Nsg17
S'mov     edx, [eax]'
p228
sg19
S'8b10'
p229
sg21
Vmov edx, dword ptr [eax]
p230
sg5
L136023477L
sg6
Nsg23
S'mov'
p231
sg25
S'0x81b8db5L'
p232
sg27
Nsba(ibclass
BInstr
p233
(dp234
g2
Nsg17
S'mov     eax, [ebp+len]'
p235
sg19
S'8b4510'
p236
sg21
Vmov eax, dword ptr [ebp + 0x10]
p237
sg5
L136023479L
sg6
Nsg23
S'mov'
p238
sg25
S'0x81b8db7L'
p239
sg27
Nsba(ibclass
BInstr
p240
(dp241
g2
Nsg17
S'add     edx, eax'
p242
sg19
S'01c2'
p243
sg21
Vadd edx, eax
p244
sg5
L136023482L
sg6
Nsg23
S'add'
p245
sg25
S'0x81b8dbaL'
p246
sg27
Nsba(ibclass
BInstr
p247
(dp248
g2
Nsg17
S'mov     eax, [ebp+c]'
p249
sg19
S'8b4508'
p250
sg21
Vmov eax, dword ptr [ebp + 8]
p251
sg5
L136023484L
sg6
Nsg23
S'mov'
p252
sg25
S'0x81b8dbcL'
p253
sg27
Nsba(ibclass
BInstr
p254
(dp255
g2
Nsg17
S'mov     [eax], edx'
p256
sg19
S'8910'
p257
sg21
Vmov dword ptr [eax], edx
p258
sg5
L136023487L
sg6
Nsg23
S'mov'
p259
sg25
S'0x81b8dbfL'
p260
sg27
Nsba(ibclass
BInstr
p261
(dp262
g2
Nsg17
S'mov     eax, 1'
p263
sg19
S'b801000000'
p264
sg21
Vmov eax, 1
p265
sg5
L136023489L
sg6
Nsg23
S'mov'
p266
sg25
S'0x81b8dc1L'
p267
sg27
Nsba(ibclass
BInstr
p268
(dp269
g2
Nsg17
S'jmp     locret_81B8E93'
p270
sg19
S'e9c8000000'
p271
sg21
Vjmp 0xcd
p272
sg5
L136023494L
sg6
Nsg23
S'jmp'
p273
sg25
S'0x81b8dc6L'
p274
sg27
Nsbasg77
(lp275
Vmov eax, mem
p276
aVmov edx, mem
p277
ag167
aVlea edx, mem
p278
aVmov eax, mem
p279
aVmov mem, eax
p280
aVmov eax, mem
p281
aVmov mem, eax
p282
aVmov mem, edx
p283
aVcall address
p284
aVmov eax, mem
p285
aVmov edx, mem
p286
aVmov eax, mem
p287
ag244
aVmov eax, mem
p288
aVmov mem, edx
p289
ag265
aVjmp address
p290
asg85
Nsg5
S'0x81b8d91L'
p291
sg87
(lp292
S'0x81b8d84L'
p293
asg6
Nsg89
(lp294
S'0x81b8e93L'
p295
asg93
Nsg94
Nsg95
S'b5fd0bb386efedf06e5c9919f0d5251a'
p296
sg97
S'cbd76310a53399de43e964790908146d'
p297
sg99
(lp298
g154
ag161
ag168
ag175
ag182
ag189
ag196
ag203
ag210
ag217
ag224
ag231
ag238
ag245
ag252
ag259
ag266
ag273
asg101
Nsba(ibclass
BBasicBlock
p299
(dp300
g12
Nsg13
(lp301
(ibclass
BInstr
p302
(dp303
g2
Nsg17
S'mov     eax, 8'
p304
sg19
S'b808000000'
p305
sg21
Vmov eax, 8
p306
sg5
L136023499L
sg6
Nsg23
S'mov'
p307
sg25
S'0x81b8dcbL'
p308
sg27
Nsba(ibclass
BInstr
p309
(dp310
g2
Nsg17
S'sub     eax, [ebp+i]'
p311
sg19
S'2b45f0'
p312
sg21
Vsub eax, dword ptr [ebp - 0x10]
p313
sg5
L136023504L
sg6
Nsg23
S'sub'
p314
sg25
S'0x81b8dd0L'
p315
sg27
Nsba(ibclass
BInstr
p316
(dp317
g2
Nsg17
S'mov     [ebp+j], eax'
p318
sg19
S'8945f4'
p319
sg21
Vmov dword ptr [ebp - 0xc], eax
p320
sg5
L136023507L
sg6
Nsg23
S'mov'
p321
sg25
S'0x81b8dd3L'
p322
sg27
Nsba(ibclass
BInstr
p323
(dp324
g2
Nsg17
S'mov     eax, [ebp+i]'
p325
sg19
S'8b45f0'
p326
sg21
Vmov eax, dword ptr [ebp - 0x10]
p327
sg5
L136023510L
sg6
Nsg23
S'mov'
p328
sg25
S'0x81b8dd6L'
p329
sg27
Nsba(ibclass
BInstr
p330
(dp331
g2
Nsg17
S'mov     edx, [ebp+c]'
p332
sg19
S'8b5508'
p333
sg21
Vmov edx, dword ptr [ebp + 8]
p334
sg5
L136023513L
sg6
Nsg23
S'mov'
p335
sg25
S'0x81b8dd9L'
p336
sg27
Nsba(ibclass
BInstr
p337
(dp338
g2
Nsg17
S'add     eax, edx'
p339
sg19
S'01d0'
p340
sg21
Vadd eax, edx
p341
sg5
L136023516L
sg6
Nsg23
S'add'
p342
sg25
S'0x81b8ddcL'
p343
sg27
Nsba(ibclass
BInstr
p344
(dp345
g2
Nsg17
S'lea     edx, [eax+4]'
p346
sg19
S'8d5004'
p347
sg21
Vlea edx, [eax + 4]
p348
sg5
L136023518L
sg6
Nsg23
S'lea'
p349
sg25
S'0x81b8ddeL'
p350
sg27
Nsba(ibclass
BInstr
p351
(dp352
g2
Nsg17
S'mov     eax, [ebp+j]'
p353
sg19
S'8b45f4'
p354
sg21
Vmov eax, dword ptr [ebp - 0xc]
p355
sg5
L136023521L
sg6
Nsg23
S'mov'
p356
sg25
S'0x81b8de1L'
p357
sg27
Nsba(ibclass
BInstr
p358
(dp359
g2
Nsg17
S'mov     [esp+8], eax    ; n'
p360
sg19
S'89442408'
p361
sg21
Vmov dword ptr [esp + 8], eax
p362
sg5
L136023524L
sg6
Nsg23
S'mov'
p363
sg25
S'0x81b8de4L'
p364
sg27
Nsba(ibclass
BInstr
p365
(dp366
g2
Nsg17
S'mov     eax, [ebp+in]'
p367
sg19
S'8b450c'
p368
sg21
Vmov eax, dword ptr [ebp + 0xc]
p369
sg5
L136023528L
sg6
Nsg23
S'mov'
p370
sg25
S'0x81b8de8L'
p371
sg27
Nsba(ibclass
BInstr
p372
(dp373
g2
Nsg17
S'mov     [esp+4], eax    ; src'
p374
sg19
S'89442404'
p375
sg21
Vmov dword ptr [esp + 4], eax
p376
sg5
L136023531L
sg6
Nsg23
S'mov'
p377
sg25
S'0x81b8debL'
p378
sg27
Nsba(ibclass
BInstr
p379
(dp380
g2
Nsg17
S'mov     [esp], edx      ; dest'
p381
sg19
S'891424'
p382
sg21
Vmov dword ptr [esp], edx
p383
sg5
L136023535L
sg6
Nsg23
S'mov'
p384
sg25
S'0x81b8defL'
p385
sg27
Nsba(ibclass
BInstr
p386
(dp387
g2
Nsg17
S'call    _memcpy'
p388
sg19
S'e88907e9ff'
p389
sg21
Vcall 0xffe9078e
p390
sg5
L136023538L
sg6
Nsg23
S'call'
p391
sg25
S'0x81b8df2L'
p392
sg27
Nsba(ibclass
BInstr
p393
(dp394
g2
Nsg17
S'mov     eax, [ebp+j]'
p395
sg19
S'8b45f4'
p396
sg21
Vmov eax, dword ptr [ebp - 0xc]
p397
sg5
L136023543L
sg6
Nsg23
S'mov'
p398
sg25
S'0x81b8df7L'
p399
sg27
Nsba(ibclass
BInstr
p400
(dp401
g2
Nsg17
S'sub     [ebp+len], eax'
p402
sg19
S'294510'
p403
sg21
Vsub dword ptr [ebp + 0x10], eax
p404
sg5
L136023546L
sg6
Nsg23
S'sub'
p405
sg25
S'0x81b8dfaL'
p406
sg27
Nsba(ibclass
BInstr
p407
(dp408
g2
Nsg17
S'mov     eax, [ebp+j]'
p409
sg19
S'8b45f4'
p410
sg21
Vmov eax, dword ptr [ebp - 0xc]
p411
sg5
L136023549L
sg6
Nsg23
S'mov'
p412
sg25
S'0x81b8dfdL'
p413
sg27
Nsba(ibclass
BInstr
p414
(dp415
g2
Nsg17
S'add     [ebp+in], eax'
p416
sg19
S'01450c'
p417
sg21
Vadd dword ptr [ebp + 0xc], eax
p418
sg5
L136023552L
sg6
Nsg23
S'add'
p419
sg25
S'0x81b8e00L'
p420
sg27
Nsba(ibclass
BInstr
p421
(dp422
g2
Nsg17
S'mov     eax, [ebp+c]'
p423
sg19
S'8b4508'
p424
sg21
Vmov eax, dword ptr [ebp + 8]
p425
sg5
L136023555L
sg6
Nsg23
S'mov'
p426
sg25
S'0x81b8e03L'
p427
sg27
Nsba(ibclass
BInstr
p428
(dp429
g2
Nsg17
S'mov     dword ptr [eax], 0'
p430
sg19
S'c70000000000'
p431
sg21
Vmov dword ptr [eax], 0
p432
sg5
L136023558L
sg6
Nsg23
S'mov'
p433
sg25
S'0x81b8e06L'
p434
sg27
Nsba(ibclass
BInstr
p435
(dp436
g2
Nsg17
S'mov     eax, [ebp+c]'
p437
sg19
S'8b4508'
p438
sg21
Vmov eax, dword ptr [ebp + 8]
p439
sg5
L136023564L
sg6
Nsg23
S'mov'
p440
sg25
S'0x81b8e0cL'
p441
sg27
Nsba(ibclass
BInstr
p442
(dp443
g2
Nsg17
S'add     eax, 4'
p444
sg19
S'83c004'
p445
sg21
Vadd eax, 4
p446
sg5
L136023567L
sg6
Nsg23
S'add'
p447
sg25
S'0x81b8e0fL'
p448
sg27
Nsba(ibclass
BInstr
p449
(dp450
g2
Nsg17
S'mov     dword ptr [esp+8], 8; len'
p451
sg19
S'c744240808000000'
p452
sg21
Vmov dword ptr [esp + 8], 8
p453
sg5
L136023570L
sg6
Nsg23
S'mov'
p454
sg25
S'0x81b8e12L'
p455
sg27
Nsba(ibclass
BInstr
p456
(dp457
g2
Nsg17
S'mov     [esp+4], eax    ; in'
p458
sg19
S'89442404'
p459
sg21
Vmov dword ptr [esp + 4], eax
p460
sg5
L136023578L
sg6
Nsg23
S'mov'
p461
sg25
S'0x81b8e1aL'
p462
sg27
Nsba(ibclass
BInstr
p463
(dp464
g2
Nsg17
S'mov     eax, [ebp+c]'
p465
sg19
S'8b4508'
p466
sg21
Vmov eax, dword ptr [ebp + 8]
p467
sg5
L136023582L
sg6
Nsg23
S'mov'
p468
sg25
S'0x81b8e1eL'
p469
sg27
Nsba(ibclass
BInstr
p470
(dp471
g2
Nsg17
S'mov     [esp], eax      ; c'
p472
sg19
S'890424'
p473
sg21
Vmov dword ptr [esp], eax
p474
sg5
L136023585L
sg6
Nsg23
S'mov'
p475
sg25
S'0x81b8e21L'
p476
sg27
Nsba(ibclass
BInstr
p477
(dp478
g2
Nsg17
S'call    mdc2_body'
p479
sg19
S'e86c000000'
p480
sg21
Vcall 0x71
p481
sg5
L136023588L
sg6
Nsg23
S'call'
p482
sg25
S'0x81b8e24L'
p483
sg27
Nsbasg77
(lp484
g306
aVsub eax, mem
p485
aVmov mem, eax
p486
aVmov eax, mem
p487
aVmov edx, mem
p488
ag341
aVlea edx, mem
p489
aVmov eax, mem
p490
aVmov mem, eax
p491
aVmov eax, mem
p492
aVmov mem, eax
p493
aVmov mem, edx
p494
aVcall address
p495
aVmov eax, mem
p496
aVsub mem, eax
p497
aVmov eax, mem
p498
aVadd mem, eax
p499
aVmov eax, mem
p500
aVmov mem, 0
p501
aVmov eax, mem
p502
ag446
aVmov mem, 8
p503
aVmov mem, eax
p504
aVmov eax, mem
p505
aVmov mem, eax
p506
aVcall address
p507
asg85
Nsg5
S'0x81b8dcbL'
p508
sg87
(lp509
S'0x81b8d84L'
p510
asg6
Nsg89
(lp511
S'0x81b8e29L'
p512
asg93
Nsg94
Nsg95
S'e46d01dd6303bd99cbd492439ea34f3f'
p513
sg97
S'79f33a851e97efdeba28e13c37cf49e2'
p514
sg99
(lp515
g307
ag314
ag321
ag328
ag335
ag342
ag349
ag356
ag363
ag370
ag377
ag384
ag391
ag398
ag405
ag412
ag419
ag426
ag433
ag440
ag447
ag454
ag461
ag468
ag475
ag482
asg101
Nsba(ibclass
BBasicBlock
p516
(dp517
g12
Nsg13
(lp518
(ibclass
BInstr
p519
(dp520
g2
Nsg17
S'mov     eax, [ebp+len]'
p521
sg19
S'8b4510'
p522
sg21
Vmov eax, dword ptr [ebp + 0x10]
p523
sg5
L136023593L
sg6
Nsg23
S'mov'
p524
sg25
S'0x81b8e29L'
p525
sg27
Nsba(ibclass
BInstr
p526
(dp527
g2
Nsg17
S'and     eax, 0FFFFFFF8h'
p528
sg19
S'83e0f8'
p529
sg21
Vand eax, 0xfffffff8
p530
sg5
L136023596L
sg6
Nsg23
S'and'
p531
sg25
S'0x81b8e2cL'
p532
sg27
Nsba(ibclass
BInstr
p533
(dp534
g2
Nsg17
S'mov     [ebp+i], eax'
p535
sg19
S'8945f0'
p536
sg21
Vmov dword ptr [ebp - 0x10], eax
p537
sg5
L136023599L
sg6
Nsg23
S'mov'
p538
sg25
S'0x81b8e2fL'
p539
sg27
Nsba(ibclass
BInstr
p540
(dp541
g2
Nsg17
S'cmp     [ebp+i], 0'
p542
sg19
S'837df000'
p543
sg21
Vcmp dword ptr [ebp - 0x10], 0
p544
sg5
L136023602L
sg6
Nsg23
S'cmp'
p545
sg25
S'0x81b8e32L'
p546
sg27
Nsba(ibclass
BInstr
p547
(dp548
g2
Nsg17
S'jz      short loc_81B8E51'
p549
sg19
S'7419'
p550
sg21
Vje 0x1b
p551
sg5
L136023606L
sg6
Nsg23
S'jz'
p552
sg25
S'0x81b8e36L'
p553
sg27
Nsbasg77
(lp554
Vmov eax, mem
p555
aVand eax, address
p556
aVmov mem, eax
p557
aVcmp mem, 0
p558
aVje address
p559
asg85
Nsg5
S'0x81b8e29L'
p560
sg87
(lp561
S'0x81b8d6cL'
p562
aS'0x81b8dcbL'
p563
asg6
Nsg89
(lp564
S'0x81b8e38L'
p565
aS'0x81b8e51L'
p566
asg93
Nsg94
Nsg95
S'b5022537584dd453615fb55b28696aad'
p567
sg97
S'6d15fe429f0b0db6fada1f679a89d705'
p568
sg99
(lp569
g524
ag531
ag538
ag545
ag552
asg101
Nsba(ibclass
BBasicBlock
p570
(dp571
g12
Nsg13
(lp572
(ibclass
BInstr
p573
(dp574
g2
Nsg17
S'mov     eax, [ebp+i]'
p575
sg19
S'8b45f0'
p576
sg21
Vmov eax, dword ptr [ebp - 0x10]
p577
sg5
L136023608L
sg6
Nsg23
S'mov'
p578
sg25
S'0x81b8e38L'
p579
sg27
Nsba(ibclass
BInstr
p580
(dp581
g2
Nsg17
S'mov     [esp+8], eax    ; len'
p582
sg19
S'89442408'
p583
sg21
Vmov dword ptr [esp + 8], eax
p584
sg5
L136023611L
sg6
Nsg23
S'mov'
p585
sg25
S'0x81b8e3bL'
p586
sg27
Nsba(ibclass
BInstr
p587
(dp588
g2
Nsg17
S'mov     eax, [ebp+in]'
p589
sg19
S'8b450c'
p590
sg21
Vmov eax, dword ptr [ebp + 0xc]
p591
sg5
L136023615L
sg6
Nsg23
S'mov'
p592
sg25
S'0x81b8e3fL'
p593
sg27
Nsba(ibclass
BInstr
p594
(dp595
g2
Nsg17
S'mov     [esp+4], eax    ; in'
p596
sg19
S'89442404'
p597
sg21
Vmov dword ptr [esp + 4], eax
p598
sg5
L136023618L
sg6
Nsg23
S'mov'
p599
sg25
S'0x81b8e42L'
p600
sg27
Nsba(ibclass
BInstr
p601
(dp602
g2
Nsg17
S'mov     eax, [ebp+c]'
p603
sg19
S'8b4508'
p604
sg21
Vmov eax, dword ptr [ebp + 8]
p605
sg5
L136023622L
sg6
Nsg23
S'mov'
p606
sg25
S'0x81b8e46L'
p607
sg27
Nsba(ibclass
BInstr
p608
(dp609
g2
Nsg17
S'mov     [esp], eax      ; c'
p610
sg19
S'890424'
p611
sg21
Vmov dword ptr [esp], eax
p612
sg5
L136023625L
sg6
Nsg23
S'mov'
p613
sg25
S'0x81b8e49L'
p614
sg27
Nsba(ibclass
BInstr
p615
(dp616
g2
Nsg17
S'call    mdc2_body'
p617
sg19
S'e844000000'
p618
sg21
Vcall 0x49
p619
sg5
L136023628L
sg6
Nsg23
S'call'
p620
sg25
S'0x81b8e4cL'
p621
sg27
Nsbasg77
(lp622
Vmov eax, mem
p623
aVmov mem, eax
p624
aVmov eax, mem
p625
aVmov mem, eax
p626
aVmov eax, mem
p627
aVmov mem, eax
p628
aVcall address
p629
asg85
Nsg5
S'0x81b8e38L'
p630
sg87
(lp631
S'0x81b8e29L'
p632
asg6
Nsg89
(lp633
S'0x81b8e51L'
p634
asg93
Nsg94
Nsg95
S'92fe82bd7fc01e77c28a2a6247da06b1'
p635
sg97
S'80b23f4df69e00fe2a4711498c436839'
p636
sg99
(lp637
g578
ag585
ag592
ag599
ag606
ag613
ag620
asg101
Nsba(ibclass
BBasicBlock
p638
(dp639
g12
Nsg13
(lp640
(ibclass
BInstr
p641
(dp642
g2
Nsg17
S'mov     eax, [ebp+i]'
p643
sg19
S'8b45f0'
p644
sg21
Vmov eax, dword ptr [ebp - 0x10]
p645
sg5
L136023633L
sg6
Nsg23
S'mov'
p646
sg25
S'0x81b8e51L'
p647
sg27
Nsba(ibclass
BInstr
p648
(dp649
g2
Nsg17
S'mov     edx, [ebp+len]'
p650
sg19
S'8b5510'
p651
sg21
Vmov edx, dword ptr [ebp + 0x10]
p652
sg5
L136023636L
sg6
Nsg23
S'mov'
p653
sg25
S'0x81b8e54L'
p654
sg27
Nsba(ibclass
BInstr
p655
(dp656
g2
Nsg17
S'sub     edx, eax'
p657
sg19
S'29c2'
p658
sg21
Vsub edx, eax
p659
sg5
L136023639L
sg6
Nsg23
S'sub'
p660
sg25
S'0x81b8e57L'
p661
sg27
Nsba(ibclass
BInstr
p662
(dp663
g2
Nsg17
S'mov     eax, edx'
p664
sg19
S'89d0'
p665
sg21
Vmov eax, edx
p666
sg5
L136023641L
sg6
Nsg23
S'mov'
p667
sg25
S'0x81b8e59L'
p668
sg27
Nsba(ibclass
BInstr
p669
(dp670
g2
Nsg17
S'mov     [ebp+j], eax'
p671
sg19
S'8945f4'
p672
sg21
Vmov dword ptr [ebp - 0xc], eax
p673
sg5
L136023643L
sg6
Nsg23
S'mov'
p674
sg25
S'0x81b8e5bL'
p675
sg27
Nsba(ibclass
BInstr
p676
(dp677
g2
Nsg17
S'cmp     [ebp+j], 0'
p678
sg19
S'837df400'
p679
sg21
Vcmp dword ptr [ebp - 0xc], 0
p680
sg5
L136023646L
sg6
Nsg23
S'cmp'
p681
sg25
S'0x81b8e5eL'
p682
sg27
Nsba(ibclass
BInstr
p683
(dp684
g2
Nsg17
S'jz      short loc_81B8E8E'
p685
sg19
S'742a'
p686
sg21
Vje 0x2c
p687
sg5
L136023650L
sg6
Nsg23
S'jz'
p688
sg25
S'0x81b8e62L'
p689
sg27
Nsbasg77
(lp690
Vmov eax, mem
p691
aVmov edx, mem
p692
ag659
ag666
aVmov mem, eax
p693
aVcmp mem, 0
p694
aVje address
p695
asg85
Nsg5
S'0x81b8e51L'
p696
sg87
(lp697
S'0x81b8e29L'
p698
aS'0x81b8e38L'
p699
asg6
Nsg89
(lp700
S'0x81b8e64L'
p701
aS'0x81b8e8eL'
p702
asg93
Nsg94
Nsg95
S'eae03d6f7916f842d58e32578a9b55b2'
p703
sg97
S'80e147833106bafb821237ad3cbb5ffc'
p704
sg99
(lp705
g646
ag653
ag660
ag667
ag674
ag681
ag688
asg101
Nsba(ibclass
BBasicBlock
p706
(dp707
g12
Nsg13
(lp708
(ibclass
BInstr
p709
(dp710
g2
Nsg17
S'mov     eax, [ebp+i]'
p711
sg19
S'8b45f0'
p712
sg21
Vmov eax, dword ptr [ebp - 0x10]
p713
sg5
L136023652L
sg6
Nsg23
S'mov'
p714
sg25
S'0x81b8e64L'
p715
sg27
Nsba(ibclass
BInstr
p716
(dp717
g2
Nsg17
S'mov     edx, [ebp+in]'
p718
sg19
S'8b550c'
p719
sg21
Vmov edx, dword ptr [ebp + 0xc]
p720
sg5
L136023655L
sg6
Nsg23
S'mov'
p721
sg25
S'0x81b8e67L'
p722
sg27
Nsba(ibclass
BInstr
p723
(dp724
g2
Nsg17
S'lea     ecx, [edx+eax]'
p725
sg19
S'8d0c02'
p726
sg21
Vlea ecx, [edx + eax]
p727
sg5
L136023658L
sg6
Nsg23
S'lea'
p728
sg25
S'0x81b8e6aL'
p729
sg27
Nsba(ibclass
BInstr
p730
(dp731
g2
Nsg17
S'mov     eax, [ebp+c]'
p732
sg19
S'8b4508'
p733
sg21
Vmov eax, dword ptr [ebp + 8]
p734
sg5
L136023661L
sg6
Nsg23
S'mov'
p735
sg25
S'0x81b8e6dL'
p736
sg27
Nsba(ibclass
BInstr
p737
(dp738
g2
Nsg17
S'lea     edx, [eax+4]'
p739
sg19
S'8d5004'
p740
sg21
Vlea edx, [eax + 4]
p741
sg5
L136023664L
sg6
Nsg23
S'lea'
p742
sg25
S'0x81b8e70L'
p743
sg27
Nsba(ibclass
BInstr
p744
(dp745
g2
Nsg17
S'mov     eax, [ebp+j]'
p746
sg19
S'8b45f4'
p747
sg21
Vmov eax, dword ptr [ebp - 0xc]
p748
sg5
L136023667L
sg6
Nsg23
S'mov'
p749
sg25
S'0x81b8e73L'
p750
sg27
Nsba(ibclass
BInstr
p751
(dp752
g2
Nsg17
S'mov     [esp+8], eax    ; n'
p753
sg19
S'89442408'
p754
sg21
Vmov dword ptr [esp + 8], eax
p755
sg5
L136023670L
sg6
Nsg23
S'mov'
p756
sg25
S'0x81b8e76L'
p757
sg27
Nsba(ibclass
BInstr
p758
(dp759
g2
Nsg17
S'mov     [esp+4], ecx    ; src'
p760
sg19
S'894c2404'
p761
sg21
Vmov dword ptr [esp + 4], ecx
p762
sg5
L136023674L
sg6
Nsg23
S'mov'
p763
sg25
S'0x81b8e7aL'
p764
sg27
Nsba(ibclass
BInstr
p765
(dp766
g2
Nsg17
S'mov     [esp], edx      ; dest'
p767
sg19
S'891424'
p768
sg21
Vmov dword ptr [esp], edx
p769
sg5
L136023678L
sg6
Nsg23
S'mov'
p770
sg25
S'0x81b8e7eL'
p771
sg27
Nsba(ibclass
BInstr
p772
(dp773
g2
Nsg17
S'call    _memcpy'
p774
sg19
S'e8fa06e9ff'
p775
sg21
Vcall 0xffe906ff
p776
sg5
L136023681L
sg6
Nsg23
S'call'
p777
sg25
S'0x81b8e81L'
p778
sg27
Nsba(ibclass
BInstr
p779
(dp780
g2
Nsg17
S'mov     eax, [ebp+c]'
p781
sg19
S'8b4508'
p782
sg21
Vmov eax, dword ptr [ebp + 8]
p783
sg5
L136023686L
sg6
Nsg23
S'mov'
p784
sg25
S'0x81b8e86L'
p785
sg27
Nsba(ibclass
BInstr
p786
(dp787
g2
Nsg17
S'mov     edx, [ebp+j]'
p788
sg19
S'8b55f4'
p789
sg21
Vmov edx, dword ptr [ebp - 0xc]
p790
sg5
L136023689L
sg6
Nsg23
S'mov'
p791
sg25
S'0x81b8e89L'
p792
sg27
Nsba(ibclass
BInstr
p793
(dp794
g2
Nsg17
S'mov     [eax], edx'
p795
sg19
S'8910'
p796
sg21
Vmov dword ptr [eax], edx
p797
sg5
L136023692L
sg6
Nsg23
S'mov'
p798
sg25
S'0x81b8e8cL'
p799
sg27
Nsbasg77
(lp800
Vmov eax, mem
p801
aVmov edx, mem
p802
aVlea ecx, mem
p803
aVmov eax, mem
p804
aVlea edx, mem
p805
aVmov eax, mem
p806
aVmov mem, eax
p807
aVmov mem, ecx
p808
aVmov mem, edx
p809
aVcall address
p810
aVmov eax, mem
p811
aVmov edx, mem
p812
aVmov mem, edx
p813
asg85
Nsg5
S'0x81b8e64L'
p814
sg87
(lp815
S'0x81b8e51L'
p816
asg6
Nsg89
(lp817
S'0x81b8e8eL'
p818
asg93
Nsg94
Nsg95
S'b20be5b8f1fb0835a274ddb94971ceb2'
p819
sg97
S'13c72baacde03cb78681a40cf5b5e626'
p820
sg99
(lp821
g714
ag721
ag728
ag735
ag742
ag749
ag756
ag763
ag770
ag777
ag784
ag791
ag798
asg101
Nsba(ibclass
BBasicBlock
p822
(dp823
g12
Nsg13
(lp824
(ibclass
BInstr
p825
(dp826
g2
Nsg17
S'mov     eax, 1'
p827
sg19
S'b801000000'
p828
sg21
Vmov eax, 1
p829
sg5
L136023694L
sg6
Nsg23
S'mov'
p830
sg25
S'0x81b8e8eL'
p831
sg27
Nsbasg77
(lp832
g829
asg85
Nsg5
S'0x81b8e8eL'
p833
sg87
(lp834
S'0x81b8e51L'
p835
aS'0x81b8e64L'
p836
asg6
Nsg89
(lp837
S'0x81b8e93L'
p838
asg93
Nsg94
Nsg95
S'96a4a0e6e9ac88756a0fcba989d0a844'
p839
sg97
S'b405d25c7a1e3356c7afc46210b93772'
p840
sg99
(lp841
g830
asg101
Nsba(ibclass
BBasicBlock
p842
(dp843
g12
Nsg13
(lp844
(ibclass
BInstr
p845
(dp846
g2
Nsg17
S'leave'
p847
sg19
S'c9'
p848
sg21
Vleave 
p849
sg5
L136023699L
sg6
Nsg23
S'leave'
p850
sg25
S'0x81b8e93L'
p851
sg27
Nsba(ibclass
BInstr
p852
(dp853
g2
Nsg17
S'retn'
p854
sg19
S'c3'
p855
sg21
Vret 
p856
sg5
L136023700L
sg6
Nsg23
S'retn'
p857
sg25
S'0x81b8e94L'
p858
sg27
Nsbasg77
(lp859
Vleave
p860
aVret
p861
asg85
Nsg5
S'0x81b8e93L'
p862
sg87
(lp863
S'0x81b8d91L'
p864
aS'0x81b8e8eL'
p865
asg6
Nsg89
(lp866
sg93
Nsg94
Nsg95
S'08c78f73a6f87c85da88b2982f54ce2a'
p867
sg97
S'393fee3c9fb1d26424d4b7704918e387'
p868
sg99
(lp869
g850
ag857
asg101
Nsbasb.