(ibclass
BFunc
p0
(dp1
S'hash'
p2
NsS'name'
p3
S'srp_user_pwd_dup'
p4
sS'start_address'
p5
L135947693L
sS'flag'
p6
NsS'program'
p7
NsS'bbs'
p8
(lp9
(ibclass
BBasicBlock
p10
(dp11
S'function'
p12
NsS'binstrs'
p13
(lp14
(ibclass
BInstr
p15
(dp16
g2
NsS'disasm'
p17
S'push    ebp'
p18
sS'bytes'
p19
S'55'
p20
sS'disasm_striped'
p21
Vpush ebp
p22
sg5
L135947693L
sg6
NsS'mnem'
p23
S'push'
p24
sS'address'
p25
S'0x81a65adL'
p26
sS'basicblock'
p27
Nsba(ibclass
BInstr
p28
(dp29
g2
Nsg17
S'mov     ebp, esp'
p30
sg19
S'89e5'
p31
sg21
Vmov ebp, esp
p32
sg5
L135947694L
sg6
Nsg23
S'mov'
p33
sg25
S'0x81a65aeL'
p34
sg27
Nsba(ibclass
BInstr
p35
(dp36
g2
Nsg17
S'push    ebx'
p37
sg19
S'53'
p38
sg21
Vpush ebx
p39
sg5
L135947696L
sg6
Nsg23
S'push'
p40
sg25
S'0x81a65b0L'
p41
sg27
Nsba(ibclass
BInstr
p42
(dp43
g2
Nsg17
S'sub     esp, 24h'
p44
sg19
S'83ec24'
p45
sg21
Vsub esp, 0x24
p46
sg5
L135947697L
sg6
Nsg23
S'sub'
p47
sg25
S'0x81a65b1L'
p48
sg27
Nsba(ibclass
BInstr
p49
(dp50
g2
Nsg17
S'cmp     [ebp+src], 0'
p51
sg19
S'837d0800'
p52
sg21
Vcmp dword ptr [ebp + 8], 0
p53
sg5
L135947700L
sg6
Nsg23
S'cmp'
p54
sg25
S'0x81a65b4L'
p55
sg27
Nsba(ibclass
BInstr
p56
(dp57
g2
Nsg17
S'jnz     short loc_81A65C4'
p58
sg19
S'750a'
p59
sg21
Vjne 0xc
p60
sg5
L135947704L
sg6
Nsg23
S'jnz'
p61
sg25
S'0x81a65b8L'
p62
sg27
NsbasS'disasm_list'
p63
(lp64
g22
ag32
ag39
aVsub esp, address
p65
aVcmp mem, 0
p66
aVjne address
p67
asS'end_address'
p68
Nsg5
S'0x81a65adL'
p69
sS'preds'
p70
(lp71
sg6
NsS'succs'
p72
(lp73
S'0x81a65baL'
p74
aS'0x81a65c4L'
p75
asS'hash_v3'
p76
NsS'flag_v2'
p77
NsS'hash_v1'
p78
S'2c7e54ac9b39406c0c4d94b66fc7a7ef'
p79
sS'hash_v2'
p80
S'5887a818ee1566544dc2ab5343dd03ff'
p81
sS'mnen_list'
p82
(lp83
g24
ag33
ag40
ag47
ag54
ag61
asS'neighbour_disasm_list'
p84
Nsba(ibclass
BBasicBlock
p85
(dp86
g12
Nsg13
(lp87
(ibclass
BInstr
p88
(dp89
g2
Nsg17
S'mov     eax, 0'
p90
sg19
S'b800000000'
p91
sg21
Vmov eax, 0
p92
sg5
L135947706L
sg6
Nsg23
S'mov'
p93
sg25
S'0x81a65baL'
p94
sg27
Nsba(ibclass
BInstr
p95
(dp96
g2
Nsg17
S'jmp     loc_81A6667'
p97
sg19
S'e9a3000000'
p98
sg21
Vjmp 0xa8
p99
sg5
L135947711L
sg6
Nsg23
S'jmp'
p100
sg25
S'0x81a65bfL'
p101
sg27
Nsbasg63
(lp102
g92
aVjmp address
p103
asg68
Nsg5
S'0x81a65baL'
p104
sg70
(lp105
S'0x81a65adL'
p106
asg6
Nsg72
(lp107
S'0x81a6667L'
p108
asg76
Nsg77
Nsg78
S'8b9a0d40e062be2b9b2d9885108fb196'
p109
sg80
S'bfbe752dd865c9a89011ba470eab331d'
p110
sg82
(lp111
g93
ag100
asg84
Nsba(ibclass
BBasicBlock
p112
(dp113
g12
Nsg13
(lp114
(ibclass
BInstr
p115
(dp116
g2
Nsg17
S'call    SRP_user_pwd_new'
p117
sg19
S'e89efdffff'
p118
sg21
Vcall 0xfffffda3
p119
sg5
L135947716L
sg6
Nsg23
S'call'
p120
sg25
S'0x81a65c4L'
p121
sg27
Nsba(ibclass
BInstr
p122
(dp123
g2
Nsg17
S'mov     [ebp+ret], eax'
p124
sg19
S'8945f4'
p125
sg21
Vmov dword ptr [ebp - 0xc], eax
p126
sg5
L135947721L
sg6
Nsg23
S'mov'
p127
sg25
S'0x81a65c9L'
p128
sg27
Nsba(ibclass
BInstr
p129
(dp130
g2
Nsg17
S'cmp     [ebp+ret], 0'
p131
sg19
S'837df400'
p132
sg21
Vcmp dword ptr [ebp - 0xc], 0
p133
sg5
L135947724L
sg6
Nsg23
S'cmp'
p134
sg25
S'0x81a65ccL'
p135
sg27
Nsba(ibclass
BInstr
p136
(dp137
g2
Nsg17
S'jnz     short loc_81A65DC'
p138
sg19
S'750a'
p139
sg21
Vjne 0xc
p140
sg5
L135947728L
sg6
Nsg23
S'jnz'
p141
sg25
S'0x81a65d0L'
p142
sg27
Nsbasg63
(lp143
Vcall address
p144
aVmov mem, eax
p145
aVcmp mem, 0
p146
aVjne address
p147
asg68
Nsg5
S'0x81a65c4L'
p148
sg70
(lp149
S'0x81a65adL'
p150
asg6
Nsg72
(lp151
S'0x81a65d2L'
p152
aS'0x81a65dcL'
p153
asg76
Nsg77
Nsg78
S'0ac2dd636b0c05eced4a94b157f88960'
p154
sg80
S'6d2fca0b552d4b9dcc26cad51e453e31'
p155
sg82
(lp156
g120
ag127
ag134
ag141
asg84
Nsba(ibclass
BBasicBlock
p157
(dp158
g12
Nsg13
(lp159
(ibclass
BInstr
p160
(dp161
g2
Nsg17
S'mov     eax, 0'
p162
sg19
S'b800000000'
p163
sg21
Vmov eax, 0
p164
sg5
L135947730L
sg6
Nsg23
S'mov'
p165
sg25
S'0x81a65d2L'
p166
sg27
Nsba(ibclass
BInstr
p167
(dp168
g2
Nsg17
S'jmp     loc_81A6667'
p169
sg19
S'e98b000000'
p170
sg21
Vjmp 0x90
p171
sg5
L135947735L
sg6
Nsg23
S'jmp'
p172
sg25
S'0x81a65d7L'
p173
sg27
Nsbasg63
(lp174
g164
aVjmp address
p175
asg68
Nsg5
S'0x81a65d2L'
p176
sg70
(lp177
S'0x81a65c4L'
p178
asg6
Nsg72
(lp179
S'0x81a6667L'
p180
asg76
Nsg77
Nsg78
S'8b9a0d40e062be2b9b2d9885108fb196'
p181
sg80
S'bfbe752dd865c9a89011ba470eab331d'
p182
sg82
(lp183
g165
ag172
asg84
Nsba(ibclass
BBasicBlock
p184
(dp185
g12
Nsg13
(lp186
(ibclass
BInstr
p187
(dp188
g2
Nsg17
S'mov     eax, [ebp+src]'
p189
sg19
S'8b4508'
p190
sg21
Vmov eax, dword ptr [ebp + 8]
p191
sg5
L135947740L
sg6
Nsg23
S'mov'
p192
sg25
S'0x81a65dcL'
p193
sg27
Nsba(ibclass
BInstr
p194
(dp195
g2
Nsg17
S'mov     edx, [eax+10h]'
p196
sg19
S'8b5010'
p197
sg21
Vmov edx, dword ptr [eax + 0x10]
p198
sg5
L135947743L
sg6
Nsg23
S'mov'
p199
sg25
S'0x81a65dfL'
p200
sg27
Nsba(ibclass
BInstr
p201
(dp202
g2
Nsg17
S'mov     eax, [ebp+src]'
p203
sg19
S'8b4508'
p204
sg21
Vmov eax, dword ptr [ebp + 8]
p205
sg5
L135947746L
sg6
Nsg23
S'mov'
p206
sg25
S'0x81a65e2L'
p207
sg27
Nsba(ibclass
BInstr
p208
(dp209
g2
Nsg17
S'mov     eax, [eax+0Ch]'
p210
sg19
S'8b400c'
p211
sg21
Vmov eax, dword ptr [eax + 0xc]
p212
sg5
L135947749L
sg6
Nsg23
S'mov'
p213
sg25
S'0x81a65e5L'
p214
sg27
Nsba(ibclass
BInstr
p215
(dp216
g2
Nsg17
S'mov     [esp+8], edx    ; N'
p217
sg19
S'89542408'
p218
sg21
Vmov dword ptr [esp + 8], edx
p219
sg5
L135947752L
sg6
Nsg23
S'mov'
p220
sg25
S'0x81a65e8L'
p221
sg27
Nsba(ibclass
BInstr
p222
(dp223
g2
Nsg17
S'mov     [esp+4], eax    ; g'
p224
sg19
S'89442404'
p225
sg21
Vmov dword ptr [esp + 4], eax
p226
sg5
L135947756L
sg6
Nsg23
S'mov'
p227
sg25
S'0x81a65ecL'
p228
sg27
Nsba(ibclass
BInstr
p229
(dp230
g2
Nsg17
S'mov     eax, [ebp+ret]'
p231
sg19
S'8b45f4'
p232
sg21
Vmov eax, dword ptr [ebp - 0xc]
p233
sg5
L135947760L
sg6
Nsg23
S'mov'
p234
sg25
S'0x81a65f0L'
p235
sg27
Nsba(ibclass
BInstr
p236
(dp237
g2
Nsg17
S'mov     [esp], eax      ; vinfo'
p238
sg19
S'890424'
p239
sg21
Vmov dword ptr [esp], eax
p240
sg5
L135947763L
sg6
Nsg23
S'mov'
p241
sg25
S'0x81a65f3L'
p242
sg27
Nsba(ibclass
BInstr
p243
(dp244
g2
Nsg17
S'call    SRP_user_pwd_set_gN'
p245
sg19
S'e8defdffff'
p246
sg21
Vcall 0xfffffde3
p247
sg5
L135947766L
sg6
Nsg23
S'call'
p248
sg25
S'0x81a65f6L'
p249
sg27
Nsba(ibclass
BInstr
p250
(dp251
g2
Nsg17
S'mov     eax, [ebp+src]'
p252
sg19
S'8b4508'
p253
sg21
Vmov eax, dword ptr [ebp + 8]
p254
sg5
L135947771L
sg6
Nsg23
S'mov'
p255
sg25
S'0x81a65fbL'
p256
sg27
Nsba(ibclass
BInstr
p257
(dp258
g2
Nsg17
S'mov     edx, [eax+14h]'
p259
sg19
S'8b5014'
p260
sg21
Vmov edx, dword ptr [eax + 0x14]
p261
sg5
L135947774L
sg6
Nsg23
S'mov'
p262
sg25
S'0x81a65feL'
p263
sg27
Nsba(ibclass
BInstr
p264
(dp265
g2
Nsg17
S'mov     eax, [ebp+src]'
p266
sg19
S'8b4508'
p267
sg21
Vmov eax, dword ptr [ebp + 8]
p268
sg5
L135947777L
sg6
Nsg23
S'mov'
p269
sg25
S'0x81a6601L'
p270
sg27
Nsba(ibclass
BInstr
p271
(dp272
g2
Nsg17
S'mov     eax, [eax]'
p273
sg19
S'8b00'
p274
sg21
Vmov eax, dword ptr [eax]
p275
sg5
L135947780L
sg6
Nsg23
S'mov'
p276
sg25
S'0x81a6604L'
p277
sg27
Nsba(ibclass
BInstr
p278
(dp279
g2
Nsg17
S'mov     [esp+8], edx    ; info'
p280
sg19
S'89542408'
p281
sg21
Vmov dword ptr [esp + 8], edx
p282
sg5
L135947782L
sg6
Nsg23
S'mov'
p283
sg25
S'0x81a6606L'
p284
sg27
Nsba(ibclass
BInstr
p285
(dp286
g2
Nsg17
S'mov     [esp+4], eax    ; id'
p287
sg19
S'89442404'
p288
sg21
Vmov dword ptr [esp + 4], eax
p289
sg5
L135947786L
sg6
Nsg23
S'mov'
p290
sg25
S'0x81a660aL'
p291
sg27
Nsba(ibclass
BInstr
p292
(dp293
g2
Nsg17
S'mov     eax, [ebp+ret]'
p294
sg19
S'8b45f4'
p295
sg21
Vmov eax, dword ptr [ebp - 0xc]
p296
sg5
L135947790L
sg6
Nsg23
S'mov'
p297
sg25
S'0x81a660eL'
p298
sg27
Nsba(ibclass
BInstr
p299
(dp300
g2
Nsg17
S'mov     [esp], eax      ; vinfo'
p301
sg19
S'890424'
p302
sg21
Vmov dword ptr [esp], eax
p303
sg5
L135947793L
sg6
Nsg23
S'mov'
p304
sg25
S'0x81a6611L'
p305
sg27
Nsba(ibclass
BInstr
p306
(dp307
g2
Nsg17
S'call    SRP_user_pwd_set_ids'
p308
sg19
S'e8d7fdffff'
p309
sg21
Vcall 0xfffffddc
p310
sg5
L135947796L
sg6
Nsg23
S'call'
p311
sg25
S'0x81a6614L'
p312
sg27
Nsba(ibclass
BInstr
p313
(dp314
g2
Nsg17
S'test    eax, eax'
p315
sg19
S'85c0'
p316
sg21
Vtest eax, eax
p317
sg5
L135947801L
sg6
Nsg23
S'test'
p318
sg25
S'0x81a6619L'
p319
sg27
Nsba(ibclass
BInstr
p320
(dp321
g2
Nsg17
S'jz      short loc_81A6652'
p322
sg19
S'7435'
p323
sg21
Vje 0x37
p324
sg5
L135947803L
sg6
Nsg23
S'jz'
p325
sg25
S'0x81a661bL'
p326
sg27
Nsbasg63
(lp327
Vmov eax, mem
p328
aVmov edx, mem
p329
aVmov eax, mem
p330
aVmov eax, mem
p331
aVmov mem, edx
p332
aVmov mem, eax
p333
aVmov eax, mem
p334
aVmov mem, eax
p335
aVcall address
p336
aVmov eax, mem
p337
aVmov edx, mem
p338
aVmov eax, mem
p339
aVmov eax, mem
p340
aVmov mem, edx
p341
aVmov mem, eax
p342
aVmov eax, mem
p343
aVmov mem, eax
p344
aVcall address
p345
ag317
aVje address
p346
asg68
Nsg5
S'0x81a65dcL'
p347
sg70
(lp348
S'0x81a65c4L'
p349
asg6
Nsg72
(lp350
S'0x81a661dL'
p351
aS'0x81a6652L'
p352
asg76
Nsg77
Nsg78
S'8a7bbfc9db6b0b60662c77360b794863'
p353
sg80
S'538db3f7fd73e9b3d6eea4de8a1ba230'
p354
sg82
(lp355
g192
ag199
ag206
ag213
ag220
ag227
ag234
ag241
ag248
ag255
ag262
ag269
ag276
ag283
ag290
ag297
ag304
ag311
ag318
ag325
asg84
Nsba(ibclass
BBasicBlock
p356
(dp357
g12
Nsg13
(lp358
(ibclass
BInstr
p359
(dp360
g2
Nsg17
S'mov     eax, [ebp+src]'
p361
sg19
S'8b4508'
p362
sg21
Vmov eax, dword ptr [ebp + 8]
p363
sg5
L135947805L
sg6
Nsg23
S'mov'
p364
sg25
S'0x81a661dL'
p365
sg27
Nsba(ibclass
BInstr
p366
(dp367
g2
Nsg17
S'mov     eax, [eax+8]'
p368
sg19
S'8b4008'
p369
sg21
Vmov eax, dword ptr [eax + 8]
p370
sg5
L135947808L
sg6
Nsg23
S'mov'
p371
sg25
S'0x81a6620L'
p372
sg27
Nsba(ibclass
BInstr
p373
(dp374
g2
Nsg17
S'mov     [esp], eax      ; a'
p375
sg19
S'890424'
p376
sg21
Vmov dword ptr [esp], eax
p377
sg5
L135947811L
sg6
Nsg23
S'mov'
p378
sg25
S'0x81a6623L'
p379
sg27
Nsba(ibclass
BInstr
p380
(dp381
g2
Nsg17
S'call    BN_dup'
p382
sg19
S'e84414f6ff'
p383
sg21
Vcall 0xfff61449
p384
sg5
L135947814L
sg6
Nsg23
S'call'
p385
sg25
S'0x81a6626L'
p386
sg27
Nsba(ibclass
BInstr
p387
(dp388
g2
Nsg17
S'mov     ebx, eax'
p389
sg19
S'89c3'
p390
sg21
Vmov ebx, eax
p391
sg5
L135947819L
sg6
Nsg23
S'mov'
p392
sg25
S'0x81a662bL'
p393
sg27
Nsba(ibclass
BInstr
p394
(dp395
g2
Nsg17
S'mov     eax, [ebp+src]'
p396
sg19
S'8b4508'
p397
sg21
Vmov eax, dword ptr [ebp + 8]
p398
sg5
L135947821L
sg6
Nsg23
S'mov'
p399
sg25
S'0x81a662dL'
p400
sg27
Nsba(ibclass
BInstr
p401
(dp402
g2
Nsg17
S'mov     eax, [eax+4]'
p403
sg19
S'8b4004'
p404
sg21
Vmov eax, dword ptr [eax + 4]
p405
sg5
L135947824L
sg6
Nsg23
S'mov'
p406
sg25
S'0x81a6630L'
p407
sg27
Nsba(ibclass
BInstr
p408
(dp409
g2
Nsg17
S'mov     [esp], eax      ; a'
p410
sg19
S'890424'
p411
sg21
Vmov dword ptr [esp], eax
p412
sg5
L135947827L
sg6
Nsg23
S'mov'
p413
sg25
S'0x81a6633L'
p414
sg27
Nsba(ibclass
BInstr
p415
(dp416
g2
Nsg17
S'call    BN_dup'
p417
sg19
S'e83414f6ff'
p418
sg21
Vcall 0xfff61439
p419
sg5
L135947830L
sg6
Nsg23
S'call'
p420
sg25
S'0x81a6636L'
p421
sg27
Nsba(ibclass
BInstr
p422
(dp423
g2
Nsg17
S'mov     [esp+8], ebx    ; v'
p424
sg19
S'895c2408'
p425
sg21
Vmov dword ptr [esp + 8], ebx
p426
sg5
L135947835L
sg6
Nsg23
S'mov'
p427
sg25
S'0x81a663bL'
p428
sg27
Nsba(ibclass
BInstr
p429
(dp430
g2
Nsg17
S'mov     [esp+4], eax    ; s'
p431
sg19
S'89442404'
p432
sg21
Vmov dword ptr [esp + 4], eax
p433
sg5
L135947839L
sg6
Nsg23
S'mov'
p434
sg25
S'0x81a663fL'
p435
sg27
Nsba(ibclass
BInstr
p436
(dp437
g2
Nsg17
S'mov     eax, [ebp+ret]'
p438
sg19
S'8b45f4'
p439
sg21
Vmov eax, dword ptr [ebp - 0xc]
p440
sg5
L135947843L
sg6
Nsg23
S'mov'
p441
sg25
S'0x81a6643L'
p442
sg27
Nsba(ibclass
BInstr
p443
(dp444
g2
Nsg17
S'mov     [esp], eax      ; vinfo'
p445
sg19
S'890424'
p446
sg21
Vmov dword ptr [esp], eax
p447
sg5
L135947846L
sg6
Nsg23
S'mov'
p448
sg25
S'0x81a6646L'
p449
sg27
Nsba(ibclass
BInstr
p450
(dp451
g2
Nsg17
S'call    SRP_user_pwd_set_sv_BN'
p452
sg19
S'e828ffffff'
p453
sg21
Vcall 0xffffff2d
p454
sg5
L135947849L
sg6
Nsg23
S'call'
p455
sg25
S'0x81a6649L'
p456
sg27
Nsba(ibclass
BInstr
p457
(dp458
g2
Nsg17
S'test    eax, eax'
p459
sg19
S'85c0'
p460
sg21
Vtest eax, eax
p461
sg5
L135947854L
sg6
Nsg23
S'test'
p462
sg25
S'0x81a664eL'
p463
sg27
Nsba(ibclass
BInstr
p464
(dp465
g2
Nsg17
S'jnz     short loc_81A6664'
p466
sg19
S'7512'
p467
sg21
Vjne 0x14
p468
sg5
L135947856L
sg6
Nsg23
S'jnz'
p469
sg25
S'0x81a6650L'
p470
sg27
Nsbasg63
(lp471
Vmov eax, mem
p472
aVmov eax, mem
p473
aVmov mem, eax
p474
aVcall address
p475
ag391
aVmov eax, mem
p476
aVmov eax, mem
p477
aVmov mem, eax
p478
aVcall address
p479
aVmov mem, ebx
p480
aVmov mem, eax
p481
aVmov eax, mem
p482
aVmov mem, eax
p483
aVcall address
p484
ag461
aVjne address
p485
asg68
Nsg5
S'0x81a661dL'
p486
sg70
(lp487
S'0x81a65dcL'
p488
asg6
Nsg72
(lp489
S'0x81a6652L'
p490
aS'0x81a6664L'
p491
asg76
Nsg77
Nsg78
S'649c8ba76b1d844c5f7c2f67c4e4a6a9'
p492
sg80
S'6dc6f0bf26f18be1c236d4ca6261c549'
p493
sg82
(lp494
g364
ag371
ag378
ag385
ag392
ag399
ag406
ag413
ag420
ag427
ag434
ag441
ag448
ag455
ag462
ag469
asg84
Nsba(ibclass
BBasicBlock
p495
(dp496
g12
Nsg13
(lp497
(ibclass
BInstr
p498
(dp499
g2
Nsg17
S'mov     eax, [ebp+ret]'
p500
sg19
S'8b45f4'
p501
sg21
Vmov eax, dword ptr [ebp - 0xc]
p502
sg5
L135947858L
sg6
Nsg23
S'mov'
p503
sg25
S'0x81a6652L'
p504
sg27
Nsba(ibclass
BInstr
p505
(dp506
g2
Nsg17
S'mov     [esp], eax      ; user_pwd'
p507
sg19
S'890424'
p508
sg21
Vmov dword ptr [esp], eax
p509
sg5
L135947861L
sg6
Nsg23
S'mov'
p510
sg25
S'0x81a6655L'
p511
sg27
Nsba(ibclass
BInstr
p512
(dp513
g2
Nsg17
S'call    SRP_user_pwd_free'
p514
sg19
S'e8b8fcffff'
p515
sg21
Vcall 0xfffffcbd
p516
sg5
L135947864L
sg6
Nsg23
S'call'
p517
sg25
S'0x81a6658L'
p518
sg27
Nsba(ibclass
BInstr
p519
(dp520
g2
Nsg17
S'mov     eax, 0'
p521
sg19
S'b800000000'
p522
sg21
Vmov eax, 0
p523
sg5
L135947869L
sg6
Nsg23
S'mov'
p524
sg25
S'0x81a665dL'
p525
sg27
Nsba(ibclass
BInstr
p526
(dp527
g2
Nsg17
S'jmp     short loc_81A6667'
p528
sg19
S'eb03'
p529
sg21
Vjmp 5
p530
sg5
L135947874L
sg6
Nsg23
S'jmp'
p531
sg25
S'0x81a6662L'
p532
sg27
Nsbasg63
(lp533
Vmov eax, mem
p534
aVmov mem, eax
p535
aVcall address
p536
ag523
ag530
asg68
Nsg5
S'0x81a6652L'
p537
sg70
(lp538
S'0x81a65dcL'
p539
aS'0x81a661dL'
p540
asg6
Nsg72
(lp541
S'0x81a6667L'
p542
asg76
Nsg77
Nsg78
S'a520f52f5785a217e8fe2f5e8207c873'
p543
sg80
S'b8123c74e53c5438a1bb6a89ccd8486b'
p544
sg82
(lp545
g503
ag510
ag517
ag524
ag531
asg84
Nsba(ibclass
BBasicBlock
p546
(dp547
g12
Nsg13
(lp548
(ibclass
BInstr
p549
(dp550
g2
Nsg17
S'mov     eax, [ebp+ret]'
p551
sg19
S'8b45f4'
p552
sg21
Vmov eax, dword ptr [ebp - 0xc]
p553
sg5
L135947876L
sg6
Nsg23
S'mov'
p554
sg25
S'0x81a6664L'
p555
sg27
Nsbasg63
(lp556
Vmov eax, mem
p557
asg68
Nsg5
S'0x81a6664L'
p558
sg70
(lp559
S'0x81a661dL'
p560
asg6
Nsg72
(lp561
S'0x81a6667L'
p562
asg76
Nsg77
Nsg78
S'96a4a0e6e9ac88756a0fcba989d0a844'
p563
sg80
S'da3a10212e6b688447f8e74c20e21f06'
p564
sg82
(lp565
g554
asg84
Nsba(ibclass
BBasicBlock
p566
(dp567
g12
Nsg13
(lp568
(ibclass
BInstr
p569
(dp570
g2
Nsg17
S'add     esp, 24h'
p571
sg19
S'83c424'
p572
sg21
Vadd esp, 0x24
p573
sg5
L135947879L
sg6
Nsg23
S'add'
p574
sg25
S'0x81a6667L'
p575
sg27
Nsba(ibclass
BInstr
p576
(dp577
g2
Nsg17
S'pop     ebx'
p578
sg19
S'5b'
p579
sg21
Vpop ebx
p580
sg5
L135947882L
sg6
Nsg23
S'pop'
p581
sg25
S'0x81a666aL'
p582
sg27
Nsba(ibclass
BInstr
p583
(dp584
g2
Nsg17
S'pop     ebp'
p585
sg19
S'5d'
p586
sg21
Vpop ebp
p587
sg5
L135947883L
sg6
Nsg23
S'pop'
p588
sg25
S'0x81a666bL'
p589
sg27
Nsba(ibclass
BInstr
p590
(dp591
g2
Nsg17
S'retn'
p592
sg19
S'c3'
p593
sg21
Vret 
p594
sg5
L135947884L
sg6
Nsg23
S'retn'
p595
sg25
S'0x81a666cL'
p596
sg27
Nsbasg63
(lp597
Vadd esp, address
p598
ag580
ag587
aVret
p599
asg68
Nsg5
S'0x81a6667L'
p600
sg70
(lp601
S'0x81a65baL'
p602
aS'0x81a65d2L'
p603
aS'0x81a6652L'
p604
aS'0x81a6664L'
p605
asg6
Nsg72
(lp606
sg76
Nsg77
Nsg78
S'4d1981a678d0c70281d5161c3174b44c'
p607
sg80
S'd4189a9002395f50ce2cc84f459d3b62'
p608
sg82
(lp609
g574
ag581
ag588
ag595
asg84
Nsbasb.