(ibclass
BFunc
p0
(dp1
S'hash'
p2
NsS'name'
p3
S'SRP_VBASE_get_by_user'
p4
sS'start_address'
p5
L135949822L
sS'flag'
p6
NsS'program'
p7
NsS'bbs'
p8
(lp9
(ibclass
BBasicBlock
p10
(dp11
S'function'
p12
NsS'binstrs'
p13
(lp14
(ibclass
BInstr
p15
(dp16
g2
NsS'disasm'
p17
S'push    ebp'
p18
sS'bytes'
p19
S'55'
p20
sS'disasm_striped'
p21
Vpush ebp
p22
sg5
L135949822L
sg6
NsS'mnem'
p23
S'push'
p24
sS'address'
p25
S'0x81a6dfeL'
p26
sS'basicblock'
p27
Nsba(ibclass
BInstr
p28
(dp29
g2
Nsg17
S'mov     ebp, esp'
p30
sg19
S'89e5'
p31
sg21
Vmov ebp, esp
p32
sg5
L135949823L
sg6
Nsg23
S'mov'
p33
sg25
S'0x81a6dffL'
p34
sg27
Nsba(ibclass
BInstr
p35
(dp36
g2
Nsg17
S'sub     esp, 18h'
p37
sg19
S'83ec18'
p38
sg21
Vsub esp, 0x18
p39
sg5
L135949825L
sg6
Nsg23
S'sub'
p40
sg25
S'0x81a6e01L'
p41
sg27
Nsba(ibclass
BInstr
p42
(dp43
g2
Nsg17
S'mov     eax, [ebp+username]'
p44
sg19
S'8b450c'
p45
sg21
Vmov eax, dword ptr [ebp + 0xc]
p46
sg5
L135949828L
sg6
Nsg23
S'mov'
p47
sg25
S'0x81a6e04L'
p48
sg27
Nsba(ibclass
BInstr
p49
(dp50
g2
Nsg17
S'mov     [esp+4], eax    ; username'
p51
sg19
S'89442404'
p52
sg21
Vmov dword ptr [esp + 4], eax
p53
sg5
L135949831L
sg6
Nsg23
S'mov'
p54
sg25
S'0x81a6e07L'
p55
sg27
Nsba(ibclass
BInstr
p56
(dp57
g2
Nsg17
S'mov     eax, [ebp+vb]'
p58
sg19
S'8b4508'
p59
sg21
Vmov eax, dword ptr [ebp + 8]
p60
sg5
L135949835L
sg6
Nsg23
S'mov'
p61
sg25
S'0x81a6e0bL'
p62
sg27
Nsba(ibclass
BInstr
p63
(dp64
g2
Nsg17
S'mov     [esp], eax      ; vb'
p65
sg19
S'890424'
p66
sg21
Vmov dword ptr [esp], eax
p67
sg5
L135949838L
sg6
Nsg23
S'mov'
p68
sg25
S'0x81a6e0eL'
p69
sg27
Nsba(ibclass
BInstr
p70
(dp71
g2
Nsg17
S'call    find_user'
p72
sg19
S'e87cffffff'
p73
sg21
Vcall 0xffffff81
p74
sg5
L135949841L
sg6
Nsg23
S'call'
p75
sg25
S'0x81a6e11L'
p76
sg27
Nsba(ibclass
BInstr
p77
(dp78
g2
Nsg17
S'leave'
p79
sg19
S'c9'
p80
sg21
Vleave 
p81
sg5
L135949846L
sg6
Nsg23
S'leave'
p82
sg25
S'0x81a6e16L'
p83
sg27
Nsba(ibclass
BInstr
p84
(dp85
g2
Nsg17
S'retn'
p86
sg19
S'c3'
p87
sg21
Vret 
p88
sg5
L135949847L
sg6
Nsg23
S'retn'
p89
sg25
S'0x81a6e17L'
p90
sg27
NsbasS'disasm_list'
p91
(lp92
g22
ag32
aVsub esp, address
p93
aVmov eax, mem
p94
aVmov mem, eax
p95
aVmov eax, mem
p96
aVmov mem, eax
p97
aVcall address
p98
aVleave
p99
aVret
p100
asS'end_address'
p101
Nsg5
S'0x81a6dfeL'
p102
sS'preds'
p103
(lp104
sg6
NsS'succs'
p105
(lp106
sS'hash_v3'
p107
NsS'flag_v2'
p108
NsS'hash_v1'
p109
S'091bf1e8633c9967fbcf5a6063ee8f80'
p110
sS'hash_v2'
p111
S'f24624b100e109fe58d26875d64516de'
p112
sS'mnen_list'
p113
(lp114
g24
ag33
ag40
ag47
ag54
ag61
ag68
ag75
ag82
ag89
asS'neighbour_disasm_list'
p115
Nsbasb.