(ibclass
BFunc
p0
(dp1
S'hash'
p2
NsS'name'
p3
S'ssl23_get_server_method'
p4
sS'start_address'
p5
L134956545L
sS'flag'
p6
NsS'program'
p7
NsS'bbs'
p8
(lp9
(ibclass
BBasicBlock
p10
(dp11
S'function'
p12
NsS'binstrs'
p13
(lp14
(ibclass
BInstr
p15
(dp16
g2
NsS'disasm'
p17
S'push    ebp'
p18
sS'bytes'
p19
S'55'
p20
sS'disasm_striped'
p21
Vpush ebp
p22
sg5
L134956545L
sg6
NsS'mnem'
p23
S'push'
p24
sS'address'
p25
S'0x80b4601L'
p26
sS'basicblock'
p27
Nsba(ibclass
BInstr
p28
(dp29
g2
Nsg17
S'mov     ebp, esp'
p30
sg19
S'89e5'
p31
sg21
Vmov ebp, esp
p32
sg5
L134956546L
sg6
Nsg23
S'mov'
p33
sg25
S'0x80b4602L'
p34
sg27
Nsba(ibclass
BInstr
p35
(dp36
g2
Nsg17
S'sub     esp, 8'
p37
sg19
S'83ec08'
p38
sg21
Vsub esp, 8
p39
sg5
L134956548L
sg6
Nsg23
S'sub'
p40
sg25
S'0x80b4604L'
p41
sg27
Nsba(ibclass
BInstr
p42
(dp43
g2
Nsg17
S'cmp     [ebp+ver], 300h'
p44
sg19
S'817d0800030000'
p45
sg21
Vcmp dword ptr [ebp + 8], 0x300
p46
sg5
L134956551L
sg6
Nsg23
S'cmp'
p47
sg25
S'0x80b4607L'
p48
sg27
Nsba(ibclass
BInstr
p49
(dp50
g2
Nsg17
S'jnz     short loc_80B4617'
p51
sg19
S'7507'
p52
sg21
Vjne 9
p53
sg5
L134956558L
sg6
Nsg23
S'jnz'
p54
sg25
S'0x80b460eL'
p55
sg27
NsbasS'disasm_list'
p56
(lp57
g22
ag32
ag39
aVcmp mem, address
p58
ag53
asS'end_address'
p59
Nsg5
S'0x80b4601L'
p60
sS'preds'
p61
(lp62
sg6
NsS'succs'
p63
(lp64
S'0x80b4610L'
p65
aS'0x80b4617L'
p66
asS'hash_v3'
p67
NsS'flag_v2'
p68
NsS'hash_v1'
p69
S'210a37928dd2097087c285e2bbd4b5b4'
p70
sS'hash_v2'
p71
S'9684dd888dbb31dbfa7eaeb58913dde1'
p72
sS'mnen_list'
p73
(lp74
g24
ag33
ag40
ag47
ag54
asS'neighbour_disasm_list'
p75
Nsba(ibclass
BBasicBlock
p76
(dp77
g12
Nsg13
(lp78
(ibclass
BInstr
p79
(dp80
g2
Nsg17
S'call    SSLv3_server_method'
p81
sg19
S'e84d67feff'
p82
sg21
Vcall 0xfffe6752
p83
sg5
L134956560L
sg6
Nsg23
S'call'
p84
sg25
S'0x80b4610L'
p85
sg27
Nsba(ibclass
BInstr
p86
(dp87
g2
Nsg17
S'jmp     short locret_80B464C'
p88
sg19
S'eb35'
p89
sg21
Vjmp 0x37
p90
sg5
L134956565L
sg6
Nsg23
S'jmp'
p91
sg25
S'0x80b4615L'
p92
sg27
Nsbasg56
(lp93
Vcall address
p94
aVjmp address
p95
asg59
Nsg5
S'0x80b4610L'
p96
sg61
(lp97
S'0x80b4601L'
p98
asg6
Nsg63
(lp99
S'0x80b464cL'
p100
asg67
Nsg68
Nsg69
S'613570bbd53754a6e5d3ef36c9a5f5bd'
p101
sg71
S'04e04627a52db9d1a57df7d335b1f2e5'
p102
sg73
(lp103
g84
ag91
asg75
Nsba(ibclass
BBasicBlock
p104
(dp105
g12
Nsg13
(lp106
(ibclass
BInstr
p107
(dp108
g2
Nsg17
S'cmp     [ebp+ver], 301h'
p109
sg19
S'817d0801030000'
p110
sg21
Vcmp dword ptr [ebp + 8], 0x301
p111
sg5
L134956567L
sg6
Nsg23
S'cmp'
p112
sg25
S'0x80b4617L'
p113
sg27
Nsba(ibclass
BInstr
p114
(dp115
g2
Nsg17
S'jnz     short loc_80B4627'
p116
sg19
S'7507'
p117
sg21
Vjne 9
p118
sg5
L134956574L
sg6
Nsg23
S'jnz'
p119
sg25
S'0x80b461eL'
p120
sg27
Nsbasg56
(lp121
Vcmp mem, address
p122
ag118
asg59
Nsg5
S'0x80b4617L'
p123
sg61
(lp124
S'0x80b4601L'
p125
asg6
Nsg63
(lp126
S'0x80b4620L'
p127
aS'0x80b4627L'
p128
asg67
Nsg68
Nsg69
S'30cb3d6f6a174adfabcde507f6944a52'
p129
sg71
S'eef9b169dfa885b9bd865248f86a0b13'
p130
sg73
(lp131
g112
ag119
asg75
Nsba(ibclass
BBasicBlock
p132
(dp133
g12
Nsg13
(lp134
(ibclass
BInstr
p135
(dp136
g2
Nsg17
S'call    TLSv1_server_method'
p137
sg19
S'e801260000'
p138
sg21
Vcall 0x2606
p139
sg5
L134956576L
sg6
Nsg23
S'call'
p140
sg25
S'0x80b4620L'
p141
sg27
Nsba(ibclass
BInstr
p142
(dp143
g2
Nsg17
S'jmp     short locret_80B464C'
p144
sg19
S'eb25'
p145
sg21
Vjmp 0x27
p146
sg5
L134956581L
sg6
Nsg23
S'jmp'
p147
sg25
S'0x80b4625L'
p148
sg27
Nsbasg56
(lp149
Vcall address
p150
aVjmp address
p151
asg59
Nsg5
S'0x80b4620L'
p152
sg61
(lp153
S'0x80b4617L'
p154
asg6
Nsg63
(lp155
S'0x80b464cL'
p156
asg67
Nsg68
Nsg69
S'613570bbd53754a6e5d3ef36c9a5f5bd'
p157
sg71
S'04e04627a52db9d1a57df7d335b1f2e5'
p158
sg73
(lp159
g140
ag147
asg75
Nsba(ibclass
BBasicBlock
p160
(dp161
g12
Nsg13
(lp162
(ibclass
BInstr
p163
(dp164
g2
Nsg17
S'cmp     [ebp+ver], 302h'
p165
sg19
S'817d0802030000'
p166
sg21
Vcmp dword ptr [ebp + 8], 0x302
p167
sg5
L134956583L
sg6
Nsg23
S'cmp'
p168
sg25
S'0x80b4627L'
p169
sg27
Nsba(ibclass
BInstr
p170
(dp171
g2
Nsg17
S'jnz     short loc_80B4637'
p172
sg19
S'7507'
p173
sg21
Vjne 9
p174
sg5
L134956590L
sg6
Nsg23
S'jnz'
p175
sg25
S'0x80b462eL'
p176
sg27
Nsbasg56
(lp177
Vcmp mem, address
p178
ag174
asg59
Nsg5
S'0x80b4627L'
p179
sg61
(lp180
S'0x80b4617L'
p181
asg6
Nsg63
(lp182
S'0x80b4630L'
p183
aS'0x80b4637L'
p184
asg67
Nsg68
Nsg69
S'30cb3d6f6a174adfabcde507f6944a52'
p185
sg71
S'eef9b169dfa885b9bd865248f86a0b13'
p186
sg73
(lp187
g168
ag175
asg75
Nsba(ibclass
BBasicBlock
p188
(dp189
g12
Nsg13
(lp190
(ibclass
BInstr
p191
(dp192
g2
Nsg17
S'call    TLSv1_1_server_method'
p193
sg19
S'e8e7250000'
p194
sg21
Vcall 0x25ec
p195
sg5
L134956592L
sg6
Nsg23
S'call'
p196
sg25
S'0x80b4630L'
p197
sg27
Nsba(ibclass
BInstr
p198
(dp199
g2
Nsg17
S'jmp     short locret_80B464C'
p200
sg19
S'eb15'
p201
sg21
Vjmp 0x17
p202
sg5
L134956597L
sg6
Nsg23
S'jmp'
p203
sg25
S'0x80b4635L'
p204
sg27
Nsbasg56
(lp205
Vcall address
p206
aVjmp address
p207
asg59
Nsg5
S'0x80b4630L'
p208
sg61
(lp209
S'0x80b4627L'
p210
asg6
Nsg63
(lp211
S'0x80b464cL'
p212
asg67
Nsg68
Nsg69
S'613570bbd53754a6e5d3ef36c9a5f5bd'
p213
sg71
S'04e04627a52db9d1a57df7d335b1f2e5'
p214
sg73
(lp215
g196
ag203
asg75
Nsba(ibclass
BBasicBlock
p216
(dp217
g12
Nsg13
(lp218
(ibclass
BInstr
p219
(dp220
g2
Nsg17
S'cmp     [ebp+ver], 303h'
p221
sg19
S'817d0803030000'
p222
sg21
Vcmp dword ptr [ebp + 8], 0x303
p223
sg5
L134956599L
sg6
Nsg23
S'cmp'
p224
sg25
S'0x80b4637L'
p225
sg27
Nsba(ibclass
BInstr
p226
(dp227
g2
Nsg17
S'jnz     short loc_80B4647'
p228
sg19
S'7507'
p229
sg21
Vjne 9
p230
sg5
L134956606L
sg6
Nsg23
S'jnz'
p231
sg25
S'0x80b463eL'
p232
sg27
Nsbasg56
(lp233
Vcmp mem, address
p234
ag230
asg59
Nsg5
S'0x80b4637L'
p235
sg61
(lp236
S'0x80b4627L'
p237
asg6
Nsg63
(lp238
S'0x80b4640L'
p239
aS'0x80b4647L'
p240
asg67
Nsg68
Nsg69
S'30cb3d6f6a174adfabcde507f6944a52'
p241
sg71
S'eef9b169dfa885b9bd865248f86a0b13'
p242
sg73
(lp243
g224
ag231
asg75
Nsba(ibclass
BBasicBlock
p244
(dp245
g12
Nsg13
(lp246
(ibclass
BInstr
p247
(dp248
g2
Nsg17
S'call    TLSv1_2_server_method'
p249
sg19
S'e8cd250000'
p250
sg21
Vcall 0x25d2
p251
sg5
L134956608L
sg6
Nsg23
S'call'
p252
sg25
S'0x80b4640L'
p253
sg27
Nsba(ibclass
BInstr
p254
(dp255
g2
Nsg17
S'jmp     short locret_80B464C'
p256
sg19
S'eb05'
p257
sg21
Vjmp 7
p258
sg5
L134956613L
sg6
Nsg23
S'jmp'
p259
sg25
S'0x80b4645L'
p260
sg27
Nsbasg56
(lp261
Vcall address
p262
ag258
asg59
Nsg5
S'0x80b4640L'
p263
sg61
(lp264
S'0x80b4637L'
p265
asg6
Nsg63
(lp266
S'0x80b464cL'
p267
asg67
Nsg68
Nsg69
S'613570bbd53754a6e5d3ef36c9a5f5bd'
p268
sg71
S'bda9de502604ff6eaa6d559c6ca2602f'
p269
sg73
(lp270
g252
ag259
asg75
Nsba(ibclass
BBasicBlock
p271
(dp272
g12
Nsg13
(lp273
(ibclass
BInstr
p274
(dp275
g2
Nsg17
S'mov     eax, 0'
p276
sg19
S'b800000000'
p277
sg21
Vmov eax, 0
p278
sg5
L134956615L
sg6
Nsg23
S'mov'
p279
sg25
S'0x80b4647L'
p280
sg27
Nsbasg56
(lp281
g278
asg59
Nsg5
S'0x80b4647L'
p282
sg61
(lp283
S'0x80b4637L'
p284
asg6
Nsg63
(lp285
S'0x80b464cL'
p286
asg67
Nsg68
Nsg69
S'96a4a0e6e9ac88756a0fcba989d0a844'
p287
sg71
S'4cfc99738161f190e0def2f4916ada38'
p288
sg73
(lp289
g279
asg75
Nsba(ibclass
BBasicBlock
p290
(dp291
g12
Nsg13
(lp292
(ibclass
BInstr
p293
(dp294
g2
Nsg17
S'leave'
p295
sg19
S'c9'
p296
sg21
Vleave 
p297
sg5
L134956620L
sg6
Nsg23
S'leave'
p298
sg25
S'0x80b464cL'
p299
sg27
Nsba(ibclass
BInstr
p300
(dp301
g2
Nsg17
S'retn'
p302
sg19
S'c3'
p303
sg21
Vret 
p304
sg5
L134956621L
sg6
Nsg23
S'retn'
p305
sg25
S'0x80b464dL'
p306
sg27
Nsbasg56
(lp307
Vleave
p308
aVret
p309
asg59
Nsg5
S'0x80b464cL'
p310
sg61
(lp311
S'0x80b4610L'
p312
aS'0x80b4620L'
p313
aS'0x80b4630L'
p314
aS'0x80b4640L'
p315
aS'0x80b4647L'
p316
asg6
Nsg63
(lp317
sg67
Nsg68
Nsg69
S'08c78f73a6f87c85da88b2982f54ce2a'
p318
sg71
S'393fee3c9fb1d26424d4b7704918e387'
p319
sg73
(lp320
g298
ag305
asg75
Nsbasb.