(ibclass
BFunc
p0
(dp1
S'hash'
p2
NsS'name'
p3
S'tls1_process_ticket'
p4
sS'start_address'
p5
L134980898L
sS'flag'
p6
NsS'program'
p7
NsS'bbs'
p8
(lp9
(ibclass
BBasicBlock
p10
(dp11
S'function'
p12
NsS'binstrs'
p13
(lp14
(ibclass
BInstr
p15
(dp16
g2
NsS'disasm'
p17
S'push    ebp'
p18
sS'bytes'
p19
S'55'
p20
sS'disasm_striped'
p21
Vpush ebp
p22
sg5
L134980898L
sg6
NsS'mnem'
p23
S'push'
p24
sS'address'
p25
S'0x80ba522L'
p26
sS'basicblock'
p27
Nsba(ibclass
BInstr
p28
(dp29
g2
Nsg17
S'mov     ebp, esp'
p30
sg19
S'89e5'
p31
sg21
Vmov ebp, esp
p32
sg5
L134980899L
sg6
Nsg23
S'mov'
p33
sg25
S'0x80ba523L'
p34
sg27
Nsba(ibclass
BInstr
p35
(dp36
g2
Nsg17
S'sub     esp, 38h'
p37
sg19
S'83ec38'
p38
sg21
Vsub esp, 0x38
p39
sg5
L134980901L
sg6
Nsg23
S'sub'
p40
sg25
S'0x80ba525L'
p41
sg27
Nsba(ibclass
BInstr
p42
(dp43
g2
Nsg17
S'mov     edx, [ebp+len]'
p44
sg19
S'8b5510'
p45
sg21
Vmov edx, dword ptr [ebp + 0x10]
p46
sg5
L134980904L
sg6
Nsg23
S'mov'
p47
sg25
S'0x80ba528L'
p48
sg27
Nsba(ibclass
BInstr
p49
(dp50
g2
Nsg17
S'mov     eax, [ebp+session_id]'
p51
sg19
S'8b450c'
p52
sg21
Vmov eax, dword ptr [ebp + 0xc]
p53
sg5
L134980907L
sg6
Nsg23
S'mov'
p54
sg25
S'0x80ba52bL'
p55
sg27
Nsba(ibclass
BInstr
p56
(dp57
g2
Nsg17
S'add     eax, edx'
p58
sg19
S'01d0'
p59
sg21
Vadd eax, edx
p60
sg5
L134980910L
sg6
Nsg23
S'add'
p61
sg25
S'0x80ba52eL'
p62
sg27
Nsba(ibclass
BInstr
p63
(dp64
g2
Nsg17
S'mov     [ebp+p], eax'
p65
sg19
S'8945f0'
p66
sg21
Vmov dword ptr [ebp - 0x10], eax
p67
sg5
L134980912L
sg6
Nsg23
S'mov'
p68
sg25
S'0x80ba530L'
p69
sg27
Nsba(ibclass
BInstr
p70
(dp71
g2
Nsg17
S'mov     eax, [ebp+ret]'
p72
sg19
S'8b4518'
p73
sg21
Vmov eax, dword ptr [ebp + 0x18]
p74
sg5
L134980915L
sg6
Nsg23
S'mov'
p75
sg25
S'0x80ba533L'
p76
sg27
Nsba(ibclass
BInstr
p77
(dp78
g2
Nsg17
S'mov     dword ptr [eax], 0'
p79
sg19
S'c70000000000'
p80
sg21
Vmov dword ptr [eax], 0
p81
sg5
L134980918L
sg6
Nsg23
S'mov'
p82
sg25
S'0x80ba536L'
p83
sg27
Nsba(ibclass
BInstr
p84
(dp85
g2
Nsg17
S'mov     eax, [ebp+s]'
p86
sg19
S'8b4508'
p87
sg21
Vmov eax, dword ptr [ebp + 8]
p88
sg5
L134980924L
sg6
Nsg23
S'mov'
p89
sg25
S'0x80ba53cL'
p90
sg27
Nsba(ibclass
BInstr
p91
(dp92
g2
Nsg17
S'mov     dword ptr [eax+140h], 0'
p93
sg19
S'c7804001000000000000'
p94
sg21
Vmov dword ptr [eax + 0x140], 0
p95
sg5
L134980927L
sg6
Nsg23
S'mov'
p96
sg25
S'0x80ba53fL'
p97
sg27
Nsba(ibclass
BInstr
p98
(dp99
g2
Nsg17
S'mov     dword ptr [esp+0Ch], 0; parg'
p100
sg19
S'c744240c00000000'
p101
sg21
Vmov dword ptr [esp + 0xc], 0
p102
sg5
L134980937L
sg6
Nsg23
S'mov'
p103
sg25
S'0x80ba549L'
p104
sg27
Nsba(ibclass
BInstr
p105
(dp106
g2
Nsg17
S'mov     dword ptr [esp+8], 0; larg'
p107
sg19
S'c744240800000000'
p108
sg21
Vmov dword ptr [esp + 8], 0
p109
sg5
L134980945L
sg6
Nsg23
S'mov'
p110
sg25
S'0x80ba551L'
p111
sg27
Nsba(ibclass
BInstr
p112
(dp113
g2
Nsg17
S'mov     dword ptr [esp+4], 20h; cmd'
p114
sg19
S'c744240420000000'
p115
sg21
Vmov dword ptr [esp + 4], 0x20
p116
sg5
L134980953L
sg6
Nsg23
S'mov'
p117
sg25
S'0x80ba559L'
p118
sg27
Nsba(ibclass
BInstr
p119
(dp120
g2
Nsg17
S'mov     eax, [ebp+s]'
p121
sg19
S'8b4508'
p122
sg21
Vmov eax, dword ptr [ebp + 8]
p123
sg5
L134980961L
sg6
Nsg23
S'mov'
p124
sg25
S'0x80ba561L'
p125
sg27
Nsba(ibclass
BInstr
p126
(dp127
g2
Nsg17
S'mov     [esp], eax      ; s'
p128
sg19
S'890424'
p129
sg21
Vmov dword ptr [esp], eax
p130
sg5
L134980964L
sg6
Nsg23
S'mov'
p131
sg25
S'0x80ba564L'
p132
sg27
Nsba(ibclass
BInstr
p133
(dp134
g2
Nsg17
S'call    SSL_ctrl'
p135
sg19
S'e8f6310100'
p136
sg21
Vcall 0x131fb
p137
sg5
L134980967L
sg6
Nsg23
S'call'
p138
sg25
S'0x80ba567L'
p139
sg27
Nsba(ibclass
BInstr
p140
(dp141
g2
Nsg17
S'and     eax, 4000h'
p142
sg19
S'2500400000'
p143
sg21
Vand eax, 0x4000
p144
sg5
L134980972L
sg6
Nsg23
S'and'
p145
sg25
S'0x80ba56cL'
p146
sg27
Nsba(ibclass
BInstr
p147
(dp148
g2
Nsg17
S'test    eax, eax'
p149
sg19
S'85c0'
p150
sg21
Vtest eax, eax
p151
sg5
L134980977L
sg6
Nsg23
S'test'
p152
sg25
S'0x80ba571L'
p153
sg27
Nsba(ibclass
BInstr
p154
(dp155
g2
Nsg17
S'jz      short loc_80BA57F'
p156
sg19
S'740a'
p157
sg21
Vje 0xc
p158
sg5
L134980979L
sg6
Nsg23
S'jz'
p159
sg25
S'0x80ba573L'
p160
sg27
NsbasS'disasm_list'
p161
(lp162
g22
ag32
aVsub esp, address
p163
aVmov edx, mem
p164
aVmov eax, mem
p165
ag60
aVmov mem, eax
p166
aVmov eax, mem
p167
aVmov mem, 0
p168
aVmov eax, mem
p169
aVmov mem, 0
p170
aVmov mem, 0
p171
aVmov mem, 0
p172
aVmov mem, address
p173
aVmov eax, mem
p174
aVmov mem, eax
p175
aVcall address
p176
aVand eax, address
p177
ag151
aVje address
p178
asS'end_address'
p179
Nsg5
S'0x80ba522L'
p180
sS'preds'
p181
(lp182
sg6
NsS'succs'
p183
(lp184
S'0x80ba575L'
p185
aS'0x80ba57fL'
p186
asS'hash_v3'
p187
NsS'flag_v2'
p188
NsS'hash_v1'
p189
S'061f4078f19ffded64901bc3c3016f57'
p190
sS'hash_v2'
p191
S'0a7ad719950383a6604d3f0263bc25be'
p192
sS'mnen_list'
p193
(lp194
g24
ag33
ag40
ag47
ag54
ag61
ag68
ag75
ag82
ag89
ag96
ag103
ag110
ag117
ag124
ag131
ag138
ag145
ag152
ag159
asS'neighbour_disasm_list'
p195
Nsba(ibclass
BBasicBlock
p196
(dp197
g12
Nsg13
(lp198
(ibclass
BInstr
p199
(dp200
g2
Nsg17
S'mov     eax, 0'
p201
sg19
S'b800000000'
p202
sg21
Vmov eax, 0
p203
sg5
L134980981L
sg6
Nsg23
S'mov'
p204
sg25
S'0x80ba575L'
p205
sg27
Nsba(ibclass
BInstr
p206
(dp207
g2
Nsg17
S'jmp     locret_80BA81C'
p208
sg19
S'e99d020000'
p209
sg21
Vjmp 0x2a2
p210
sg5
L134980986L
sg6
Nsg23
S'jmp'
p211
sg25
S'0x80ba57aL'
p212
sg27
Nsbasg161
(lp213
g203
aVjmp address
p214
asg179
Nsg5
S'0x80ba575L'
p215
sg181
(lp216
S'0x80ba522L'
p217
asg6
Nsg183
(lp218
S'0x80ba81cL'
p219
asg187
Nsg188
Nsg189
S'8b9a0d40e062be2b9b2d9885108fb196'
p220
sg191
S'bfbe752dd865c9a89011ba470eab331d'
p221
sg193
(lp222
g204
ag211
asg195
Nsba(ibclass
BBasicBlock
p223
(dp224
g12
Nsg13
(lp225
(ibclass
BInstr
p226
(dp227
g2
Nsg17
S'mov     eax, [ebp+s]'
p228
sg19
S'8b4508'
p229
sg21
Vmov eax, dword ptr [ebp + 8]
p230
sg5
L134980991L
sg6
Nsg23
S'mov'
p231
sg25
S'0x80ba57fL'
p232
sg27
Nsba(ibclass
BInstr
p233
(dp234
g2
Nsg17
S'mov     eax, [eax]'
p235
sg19
S'8b00'
p236
sg21
Vmov eax, dword ptr [eax]
p237
sg5
L134980994L
sg6
Nsg23
S'mov'
p238
sg25
S'0x80ba582L'
p239
sg27
Nsba(ibclass
BInstr
p240
(dp241
g2
Nsg17
S'cmp     eax, 300h'
p242
sg19
S'3d00030000'
p243
sg21
Vcmp eax, 0x300
p244
sg5
L134980996L
sg6
Nsg23
S'cmp'
p245
sg25
S'0x80ba584L'
p246
sg27
Nsba(ibclass
BInstr
p247
(dp248
g2
Nsg17
S'jle     short loc_80BA591'
p249
sg19
S'7e06'
p250
sg21
Vjle 8
p251
sg5
L134981001L
sg6
Nsg23
S'jle'
p252
sg25
S'0x80ba589L'
p253
sg27
Nsbasg161
(lp254
Vmov eax, mem
p255
aVmov eax, mem
p256
aVcmp eax, address
p257
ag251
asg179
Nsg5
S'0x80ba57fL'
p258
sg181
(lp259
S'0x80ba522L'
p260
asg6
Nsg183
(lp261
S'0x80ba58bL'
p262
aS'0x80ba591L'
p263
asg187
Nsg188
Nsg189
S'8515616f0a4833daab2113317e86edbc'
p264
sg191
S'dc470b4ac9e07419b09dd6d85f7e639e'
p265
sg193
(lp266
g231
ag238
ag245
ag252
asg195
Nsba(ibclass
BBasicBlock
p267
(dp268
g12
Nsg13
(lp269
(ibclass
BInstr
p270
(dp271
g2
Nsg17
S'cmp     [ebp+limit], 0'
p272
sg19
S'837d1400'
p273
sg21
Vcmp dword ptr [ebp + 0x14], 0
p274
sg5
L134981003L
sg6
Nsg23
S'cmp'
p275
sg25
S'0x80ba58bL'
p276
sg27
Nsba(ibclass
BInstr
p277
(dp278
g2
Nsg17
S'jnz     short loc_80BA59B'
p279
sg19
S'750a'
p280
sg21
Vjne 0xc
p281
sg5
L134981007L
sg6
Nsg23
S'jnz'
p282
sg25
S'0x80ba58fL'
p283
sg27
Nsbasg161
(lp284
Vcmp mem, 0
p285
aVjne address
p286
asg179
Nsg5
S'0x80ba58bL'
p287
sg181
(lp288
S'0x80ba57fL'
p289
asg6
Nsg183
(lp290
S'0x80ba591L'
p291
aS'0x80ba59bL'
p292
asg187
Nsg188
Nsg189
S'30cb3d6f6a174adfabcde507f6944a52'
p293
sg191
S'ac6a5deb49a2d2e7162632941da7e135'
p294
sg193
(lp295
g275
ag282
asg195
Nsba(ibclass
BBasicBlock
p296
(dp297
g12
Nsg13
(lp298
(ibclass
BInstr
p299
(dp300
g2
Nsg17
S'mov     eax, 0'
p301
sg19
S'b800000000'
p302
sg21
Vmov eax, 0
p303
sg5
L134981009L
sg6
Nsg23
S'mov'
p304
sg25
S'0x80ba591L'
p305
sg27
Nsba(ibclass
BInstr
p306
(dp307
g2
Nsg17
S'jmp     locret_80BA81C'
p308
sg19
S'e981020000'
p309
sg21
Vjmp 0x286
p310
sg5
L134981014L
sg6
Nsg23
S'jmp'
p311
sg25
S'0x80ba596L'
p312
sg27
Nsbasg161
(lp313
g303
aVjmp address
p314
asg179
Nsg5
S'0x80ba591L'
p315
sg181
(lp316
S'0x80ba57fL'
p317
aS'0x80ba58bL'
p318
asg6
Nsg183
(lp319
S'0x80ba81cL'
p320
asg187
Nsg188
Nsg189
S'8b9a0d40e062be2b9b2d9885108fb196'
p321
sg191
S'bfbe752dd865c9a89011ba470eab331d'
p322
sg193
(lp323
g304
ag311
asg195
Nsba(ibclass
BBasicBlock
p324
(dp325
g12
Nsg13
(lp326
(ibclass
BInstr
p327
(dp328
g2
Nsg17
S'mov     eax, [ebp+p]'
p329
sg19
S'8b45f0'
p330
sg21
Vmov eax, dword ptr [ebp - 0x10]
p331
sg5
L134981019L
sg6
Nsg23
S'mov'
p332
sg25
S'0x80ba59bL'
p333
sg27
Nsba(ibclass
BInstr
p334
(dp335
g2
Nsg17
S'cmp     eax, [ebp+limit]'
p336
sg19
S'3b4514'
p337
sg21
Vcmp eax, dword ptr [ebp + 0x14]
p338
sg5
L134981022L
sg6
Nsg23
S'cmp'
p339
sg25
S'0x80ba59eL'
p340
sg27
Nsba(ibclass
BInstr
p341
(dp342
g2
Nsg17
S'jb      short loc_80BA5AD'
p343
sg19
S'720a'
p344
sg21
Vjb 0xc
p345
sg5
L134981025L
sg6
Nsg23
S'jb'
p346
sg25
S'0x80ba5a1L'
p347
sg27
Nsbasg161
(lp348
Vmov eax, mem
p349
aVcmp eax, mem
p350
aVjb address
p351
asg179
Nsg5
S'0x80ba59bL'
p352
sg181
(lp353
S'0x80ba58bL'
p354
asg6
Nsg183
(lp355
S'0x80ba5a3L'
p356
aS'0x80ba5adL'
p357
asg187
Nsg188
Nsg189
S'b540779d59e0e9ce8517b7536c917491'
p358
sg191
S'4adb0530a53e87327810db4c21f4620c'
p359
sg193
(lp360
g332
ag339
ag346
asg195
Nsba(ibclass
BBasicBlock
p361
(dp362
g12
Nsg13
(lp363
(ibclass
BInstr
p364
(dp365
g2
Nsg17
S'mov     eax, 0FFFFFFFFh'
p366
sg19
S'b8ffffffff'
p367
sg21
Vmov eax, 0xffffffff
p368
sg5
L134981027L
sg6
Nsg23
S'mov'
p369
sg25
S'0x80ba5a3L'
p370
sg27
Nsba(ibclass
BInstr
p371
(dp372
g2
Nsg17
S'jmp     locret_80BA81C'
p373
sg19
S'e96f020000'
p374
sg21
Vjmp 0x274
p375
sg5
L134981032L
sg6
Nsg23
S'jmp'
p376
sg25
S'0x80ba5a8L'
p377
sg27
Nsbasg161
(lp378
Vmov eax, address
p379
aVjmp address
p380
asg179
Nsg5
S'0x80ba5a3L'
p381
sg181
(lp382
S'0x80ba59bL'
p383
asg6
Nsg183
(lp384
S'0x80ba81cL'
p385
asg187
Nsg188
Nsg189
S'8b9a0d40e062be2b9b2d9885108fb196'
p386
sg191
S'926f437691f480d6543b7a7101724292'
p387
sg193
(lp388
g369
ag376
asg195
Nsba(ibclass
BBasicBlock
p389
(dp390
g12
Nsg13
(lp391
(ibclass
BInstr
p392
(dp393
g2
Nsg17
S'mov     eax, [ebp+s]'
p394
sg19
S'8b4508'
p395
sg21
Vmov eax, dword ptr [ebp + 8]
p396
sg5
L134981037L
sg6
Nsg23
S'mov'
p397
sg25
S'0x80ba5adL'
p398
sg27
Nsba(ibclass
BInstr
p399
(dp400
g2
Nsg17
S'mov     eax, [eax]'
p401
sg19
S'8b00'
p402
sg21
Vmov eax, dword ptr [eax]
p403
sg5
L134981040L
sg6
Nsg23
S'mov'
p404
sg25
S'0x80ba5b0L'
p405
sg27
Nsba(ibclass
BInstr
p406
(dp407
g2
Nsg17
S'cmp     eax, 0FEFFh'
p408
sg19
S'3dfffe0000'
p409
sg21
Vcmp eax, 0xfeff
p410
sg5
L134981042L
sg6
Nsg23
S'cmp'
p411
sg25
S'0x80ba5b2L'
p412
sg27
Nsba(ibclass
BInstr
p413
(dp414
g2
Nsg17
S'jz      short loc_80BA5C5'
p415
sg19
S'740c'
p416
sg21
Vje 0xe
p417
sg5
L134981047L
sg6
Nsg23
S'jz'
p418
sg25
S'0x80ba5b7L'
p419
sg27
Nsbasg161
(lp420
Vmov eax, mem
p421
aVmov eax, mem
p422
aVcmp eax, address
p423
aVje address
p424
asg179
Nsg5
S'0x80ba5adL'
p425
sg181
(lp426
S'0x80ba59bL'
p427
asg6
Nsg183
(lp428
S'0x80ba5b9L'
p429
aS'0x80ba5c5L'
p430
asg187
Nsg188
Nsg189
S'db7f0dec7b6480d765a2fb1483cb9e16'
p431
sg191
S'18e7073a5f6a9ad59170a0f0c0d1fd05'
p432
sg193
(lp433
g397
ag404
ag411
ag418
asg195
Nsba(ibclass
BBasicBlock
p434
(dp435
g12
Nsg13
(lp436
(ibclass
BInstr
p437
(dp438
g2
Nsg17
S'mov     eax, [ebp+s]'
p439
sg19
S'8b4508'
p440
sg21
Vmov eax, dword ptr [ebp + 8]
p441
sg5
L134981049L
sg6
Nsg23
S'mov'
p442
sg25
S'0x80ba5b9L'
p443
sg27
Nsba(ibclass
BInstr
p444
(dp445
g2
Nsg17
S'mov     eax, [eax]'
p446
sg19
S'8b00'
p447
sg21
Vmov eax, dword ptr [eax]
p448
sg5
L134981052L
sg6
Nsg23
S'mov'
p449
sg25
S'0x80ba5bcL'
p450
sg27
Nsba(ibclass
BInstr
p451
(dp452
g2
Nsg17
S'cmp     eax, 100h'
p453
sg19
S'3d00010000'
p454
sg21
Vcmp eax, 0x100
p455
sg5
L134981054L
sg6
Nsg23
S'cmp'
p456
sg25
S'0x80ba5beL'
p457
sg27
Nsba(ibclass
BInstr
p458
(dp459
g2
Nsg17
S'jnz     short loc_80BA604'
p460
sg19
S'753f'
p461
sg21
Vjne 0x41
p462
sg5
L134981059L
sg6
Nsg23
S'jnz'
p463
sg25
S'0x80ba5c3L'
p464
sg27
Nsbasg161
(lp465
Vmov eax, mem
p466
aVmov eax, mem
p467
aVcmp eax, address
p468
aVjne address
p469
asg179
Nsg5
S'0x80ba5b9L'
p470
sg181
(lp471
S'0x80ba5adL'
p472
asg6
Nsg183
(lp473
S'0x80ba5c5L'
p474
aS'0x80ba604L'
p475
asg187
Nsg188
Nsg189
S'a19a851724661b9339243c65cfd318e3'
p476
sg191
S'25a063ee277ab8c9b0b7060fa4111963'
p477
sg193
(lp478
g442
ag449
ag456
ag463
asg195
Nsba(ibclass
BBasicBlock
p479
(dp480
g12
Nsg13
(lp481
(ibclass
BInstr
p482
(dp483
g2
Nsg17
S'mov     eax, [ebp+p]'
p484
sg19
S'8b45f0'
p485
sg21
Vmov eax, dword ptr [ebp - 0x10]
p486
sg5
L134981061L
sg6
Nsg23
S'mov'
p487
sg25
S'0x80ba5c5L'
p488
sg27
Nsba(ibclass
BInstr
p489
(dp490
g2
Nsg17
S'lea     edx, [eax+1]'
p491
sg19
S'8d5001'
p492
sg21
Vlea edx, [eax + 1]
p493
sg5
L134981064L
sg6
Nsg23
S'lea'
p494
sg25
S'0x80ba5c8L'
p495
sg27
Nsba(ibclass
BInstr
p496
(dp497
g2
Nsg17
S'mov     [ebp+p], edx'
p498
sg19
S'8955f0'
p499
sg21
Vmov dword ptr [ebp - 0x10], edx
p500
sg5
L134981067L
sg6
Nsg23
S'mov'
p501
sg25
S'0x80ba5cbL'
p502
sg27
Nsba(ibclass
BInstr
p503
(dp504
g2
Nsg17
S'mov     al, [eax]'
p505
sg19
S'8a00'
p506
sg21
Vmov al, byte ptr [eax]
p507
sg5
L134981070L
sg6
Nsg23
S'mov'
p508
sg25
S'0x80ba5ceL'
p509
sg27
Nsba(ibclass
BInstr
p510
(dp511
g2
Nsg17
S'and     eax, 0FFh'
p512
sg19
S'25ff000000'
p513
sg21
Vand eax, 0xff
p514
sg5
L134981072L
sg6
Nsg23
S'and'
p515
sg25
S'0x80ba5d0L'
p516
sg27
Nsba(ibclass
BInstr
p517
(dp518
g2
Nsg17
S'mov     [ebp+i], ax'
p519
sg19
S'668945ea'
p520
sg21
Vmov word ptr [ebp - 0x16], ax
p521
sg5
L134981077L
sg6
Nsg23
S'mov'
p522
sg25
S'0x80ba5d5L'
p523
sg27
Nsba(ibclass
BInstr
p524
(dp525
g2
Nsg17
S'mov     edx, [ebp+limit]'
p526
sg19
S'8b5514'
p527
sg21
Vmov edx, dword ptr [ebp + 0x14]
p528
sg5
L134981081L
sg6
Nsg23
S'mov'
p529
sg25
S'0x80ba5d9L'
p530
sg27
Nsba(ibclass
BInstr
p531
(dp532
g2
Nsg17
S'mov     eax, [ebp+p]'
p533
sg19
S'8b45f0'
p534
sg21
Vmov eax, dword ptr [ebp - 0x10]
p535
sg5
L134981084L
sg6
Nsg23
S'mov'
p536
sg25
S'0x80ba5dcL'
p537
sg27
Nsba(ibclass
BInstr
p538
(dp539
g2
Nsg17
S'sub     edx, eax'
p540
sg19
S'29c2'
p541
sg21
Vsub edx, eax
p542
sg5
L134981087L
sg6
Nsg23
S'sub'
p543
sg25
S'0x80ba5dfL'
p544
sg27
Nsba(ibclass
BInstr
p545
(dp546
g2
Nsg17
S'mov     ax, [ebp+i]'
p547
sg19
S'668b45ea'
p548
sg21
Vmov ax, word ptr [ebp - 0x16]
p549
sg5
L134981089L
sg6
Nsg23
S'mov'
p550
sg25
S'0x80ba5e1L'
p551
sg27
Nsba(ibclass
BInstr
p552
(dp553
g2
Nsg17
S'and     eax, 0FFFFh'
p554
sg19
S'25ffff0000'
p555
sg21
Vand eax, 0xffff
p556
sg5
L134981093L
sg6
Nsg23
S'and'
p557
sg25
S'0x80ba5e5L'
p558
sg27
Nsba(ibclass
BInstr
p559
(dp560
g2
Nsg17
S'cmp     edx, eax'
p561
sg19
S'39c2'
p562
sg21
Vcmp edx, eax
p563
sg5
L134981098L
sg6
Nsg23
S'cmp'
p564
sg25
S'0x80ba5eaL'
p565
sg27
Nsba(ibclass
BInstr
p566
(dp567
g2
Nsg17
S'jg      short loc_80BA5F8'
p568
sg19
S'7f0a'
p569
sg21
Vjg 0xc
p570
sg5
L134981100L
sg6
Nsg23
S'jg'
p571
sg25
S'0x80ba5ecL'
p572
sg27
Nsbasg161
(lp573
Vmov eax, mem
p574
aVlea edx, mem
p575
aVmov mem, edx
p576
aVmov al, mem
p577
aVand eax, address
p578
aVmov mem, ax
p579
aVmov edx, mem
p580
aVmov eax, mem
p581
ag542
aVmov ax, mem
p582
aVand eax, address
p583
ag563
aVjg address
p584
asg179
Nsg5
S'0x80ba5c5L'
p585
sg181
(lp586
S'0x80ba5adL'
p587
aS'0x80ba5b9L'
p588
asg6
Nsg183
(lp589
S'0x80ba5eeL'
p590
aS'0x80ba5f8L'
p591
asg187
Nsg188
Nsg189
S'9faa7c1768f542cf5e8e630f7607b5a5'
p592
sg191
S'5fa6daa7e57ee47ee8350a83872215d3'
p593
sg193
(lp594
g487
ag494
ag501
ag508
ag515
ag522
ag529
ag536
ag543
ag550
ag557
ag564
ag571
asg195
Nsba(ibclass
BBasicBlock
p595
(dp596
g12
Nsg13
(lp597
(ibclass
BInstr
p598
(dp599
g2
Nsg17
S'mov     eax, 0FFFFFFFFh'
p600
sg19
S'b8ffffffff'
p601
sg21
Vmov eax, 0xffffffff
p602
sg5
L134981102L
sg6
Nsg23
S'mov'
p603
sg25
S'0x80ba5eeL'
p604
sg27
Nsba(ibclass
BInstr
p605
(dp606
g2
Nsg17
S'jmp     locret_80BA81C'
p607
sg19
S'e924020000'
p608
sg21
Vjmp 0x229
p609
sg5
L134981107L
sg6
Nsg23
S'jmp'
p610
sg25
S'0x80ba5f3L'
p611
sg27
Nsbasg161
(lp612
Vmov eax, address
p613
aVjmp address
p614
asg179
Nsg5
S'0x80ba5eeL'
p615
sg181
(lp616
S'0x80ba5c5L'
p617
asg6
Nsg183
(lp618
S'0x80ba81cL'
p619
asg187
Nsg188
Nsg189
S'8b9a0d40e062be2b9b2d9885108fb196'
p620
sg191
S'926f437691f480d6543b7a7101724292'
p621
sg193
(lp622
g603
ag610
asg195
Nsba(ibclass
BBasicBlock
p623
(dp624
g12
Nsg13
(lp625
(ibclass
BInstr
p626
(dp627
g2
Nsg17
S'mov     ax, [ebp+i]'
p628
sg19
S'668b45ea'
p629
sg21
Vmov ax, word ptr [ebp - 0x16]
p630
sg5
L134981112L
sg6
Nsg23
S'mov'
p631
sg25
S'0x80ba5f8L'
p632
sg27
Nsba(ibclass
BInstr
p633
(dp634
g2
Nsg17
S'and     eax, 0FFFFh'
p635
sg19
S'25ffff0000'
p636
sg21
Vand eax, 0xffff
p637
sg5
L134981116L
sg6
Nsg23
S'and'
p638
sg25
S'0x80ba5fcL'
p639
sg27
Nsba(ibclass
BInstr
p640
(dp641
g2
Nsg17
S'add     [ebp+p], eax'
p642
sg19
S'0145f0'
p643
sg21
Vadd dword ptr [ebp - 0x10], eax
p644
sg5
L134981121L
sg6
Nsg23
S'add'
p645
sg25
S'0x80ba601L'
p646
sg27
Nsbasg161
(lp647
Vmov ax, mem
p648
aVand eax, address
p649
aVadd mem, eax
p650
asg179
Nsg5
S'0x80ba5f8L'
p651
sg181
(lp652
S'0x80ba5c5L'
p653
asg6
Nsg183
(lp654
S'0x80ba604L'
p655
asg187
Nsg188
Nsg189
S'f7aa3cb0f77581ee957815c02d8e28a8'
p656
sg191
S'89b74d4482fe8354620658755308f21b'
p657
sg193
(lp658
g631
ag638
ag645
asg195
Nsba(ibclass
BBasicBlock
p659
(dp660
g12
Nsg13
(lp661
(ibclass
BInstr
p662
(dp663
g2
Nsg17
S'mov     eax, [ebp+p]'
p664
sg19
S'8b45f0'
p665
sg21
Vmov eax, dword ptr [ebp - 0x10]
p666
sg5
L134981124L
sg6
Nsg23
S'mov'
p667
sg25
S'0x80ba604L'
p668
sg27
Nsba(ibclass
BInstr
p669
(dp670
g2
Nsg17
S'mov     al, [eax]'
p671
sg19
S'8a00'
p672
sg21
Vmov al, byte ptr [eax]
p673
sg5
L134981127L
sg6
Nsg23
S'mov'
p674
sg25
S'0x80ba607L'
p675
sg27
Nsba(ibclass
BInstr
p676
(dp677
g2
Nsg17
S'and     eax, 0FFh'
p678
sg19
S'25ff000000'
p679
sg21
Vand eax, 0xff
p680
sg5
L134981129L
sg6
Nsg23
S'and'
p681
sg25
S'0x80ba609L'
p682
sg27
Nsba(ibclass
BInstr
p683
(dp684
g2
Nsg17
S'shl     eax, 8'
p685
sg19
S'c1e008'
p686
sg21
Vshl eax, 8
p687
sg5
L134981134L
sg6
Nsg23
S'shl'
p688
sg25
S'0x80ba60eL'
p689
sg27
Nsba(ibclass
BInstr
p690
(dp691
g2
Nsg17
S'mov     edx, eax'
p692
sg19
S'89c2'
p693
sg21
Vmov edx, eax
p694
sg5
L134981137L
sg6
Nsg23
S'mov'
p695
sg25
S'0x80ba611L'
p696
sg27
Nsba(ibclass
BInstr
p697
(dp698
g2
Nsg17
S'mov     eax, [ebp+p]'
p699
sg19
S'8b45f0'
p700
sg21
Vmov eax, dword ptr [ebp - 0x10]
p701
sg5
L134981139L
sg6
Nsg23
S'mov'
p702
sg25
S'0x80ba613L'
p703
sg27
Nsba(ibclass
BInstr
p704
(dp705
g2
Nsg17
S'inc     eax'
p706
sg19
S'40'
p707
sg21
Vinc eax
p708
sg5
L134981142L
sg6
Nsg23
S'inc'
p709
sg25
S'0x80ba616L'
p710
sg27
Nsba(ibclass
BInstr
p711
(dp712
g2
Nsg17
S'mov     al, [eax]'
p713
sg19
S'8a00'
p714
sg21
Vmov al, byte ptr [eax]
p715
sg5
L134981143L
sg6
Nsg23
S'mov'
p716
sg25
S'0x80ba617L'
p717
sg27
Nsba(ibclass
BInstr
p718
(dp719
g2
Nsg17
S'and     eax, 0FFh'
p720
sg19
S'25ff000000'
p721
sg21
Vand eax, 0xff
p722
sg5
L134981145L
sg6
Nsg23
S'and'
p723
sg25
S'0x80ba619L'
p724
sg27
Nsba(ibclass
BInstr
p725
(dp726
g2
Nsg17
S'or      eax, edx'
p727
sg19
S'09d0'
p728
sg21
Vor eax, edx
p729
sg5
L134981150L
sg6
Nsg23
S'or'
p730
sg25
S'0x80ba61eL'
p731
sg27
Nsba(ibclass
BInstr
p732
(dp733
g2
Nsg17
S'mov     [ebp+i], ax'
p734
sg19
S'668945ea'
p735
sg21
Vmov word ptr [ebp - 0x16], ax
p736
sg5
L134981152L
sg6
Nsg23
S'mov'
p737
sg25
S'0x80ba620L'
p738
sg27
Nsba(ibclass
BInstr
p739
(dp740
g2
Nsg17
S'add     [ebp+p], 2'
p741
sg19
S'8345f002'
p742
sg21
Vadd dword ptr [ebp - 0x10], 2
p743
sg5
L134981156L
sg6
Nsg23
S'add'
p744
sg25
S'0x80ba624L'
p745
sg27
Nsba(ibclass
BInstr
p746
(dp747
g2
Nsg17
S'mov     edx, [ebp+limit]'
p748
sg19
S'8b5514'
p749
sg21
Vmov edx, dword ptr [ebp + 0x14]
p750
sg5
L134981160L
sg6
Nsg23
S'mov'
p751
sg25
S'0x80ba628L'
p752
sg27
Nsba(ibclass
BInstr
p753
(dp754
g2
Nsg17
S'mov     eax, [ebp+p]'
p755
sg19
S'8b45f0'
p756
sg21
Vmov eax, dword ptr [ebp - 0x10]
p757
sg5
L134981163L
sg6
Nsg23
S'mov'
p758
sg25
S'0x80ba62bL'
p759
sg27
Nsba(ibclass
BInstr
p760
(dp761
g2
Nsg17
S'sub     edx, eax'
p762
sg19
S'29c2'
p763
sg21
Vsub edx, eax
p764
sg5
L134981166L
sg6
Nsg23
S'sub'
p765
sg25
S'0x80ba62eL'
p766
sg27
Nsba(ibclass
BInstr
p767
(dp768
g2
Nsg17
S'mov     ax, [ebp+i]'
p769
sg19
S'668b45ea'
p770
sg21
Vmov ax, word ptr [ebp - 0x16]
p771
sg5
L134981168L
sg6
Nsg23
S'mov'
p772
sg25
S'0x80ba630L'
p773
sg27
Nsba(ibclass
BInstr
p774
(dp775
g2
Nsg17
S'and     eax, 0FFFFh'
p776
sg19
S'25ffff0000'
p777
sg21
Vand eax, 0xffff
p778
sg5
L134981172L
sg6
Nsg23
S'and'
p779
sg25
S'0x80ba634L'
p780
sg27
Nsba(ibclass
BInstr
p781
(dp782
g2
Nsg17
S'cmp     edx, eax'
p783
sg19
S'39c2'
p784
sg21
Vcmp edx, eax
p785
sg5
L134981177L
sg6
Nsg23
S'cmp'
p786
sg25
S'0x80ba639L'
p787
sg27
Nsba(ibclass
BInstr
p788
(dp789
g2
Nsg17
S'jg      short loc_80BA647'
p790
sg19
S'7f0a'
p791
sg21
Vjg 0xc
p792
sg5
L134981179L
sg6
Nsg23
S'jg'
p793
sg25
S'0x80ba63bL'
p794
sg27
Nsbasg161
(lp795
Vmov eax, mem
p796
aVmov al, mem
p797
aVand eax, address
p798
ag687
ag694
aVmov eax, mem
p799
ag708
aVmov al, mem
p800
aVand eax, address
p801
ag729
aVmov mem, ax
p802
aVadd mem, 2
p803
aVmov edx, mem
p804
aVmov eax, mem
p805
ag764
aVmov ax, mem
p806
aVand eax, address
p807
ag785
aVjg address
p808
asg179
Nsg5
S'0x80ba604L'
p809
sg181
(lp810
S'0x80ba5b9L'
p811
aS'0x80ba5f8L'
p812
asg6
Nsg183
(lp813
S'0x80ba63dL'
p814
aS'0x80ba647L'
p815
asg187
Nsg188
Nsg189
S'732792a5c59525f04373addd98bd6abf'
p816
sg191
S'41416ba6d315ec0aedf50237bbe1b66f'
p817
sg193
(lp818
g667
ag674
ag681
ag688
ag695
ag702
ag709
ag716
ag723
ag730
ag737
ag744
ag751
ag758
ag765
ag772
ag779
ag786
ag793
asg195
Nsba(ibclass
BBasicBlock
p819
(dp820
g12
Nsg13
(lp821
(ibclass
BInstr
p822
(dp823
g2
Nsg17
S'mov     eax, 0FFFFFFFFh'
p824
sg19
S'b8ffffffff'
p825
sg21
Vmov eax, 0xffffffff
p826
sg5
L134981181L
sg6
Nsg23
S'mov'
p827
sg25
S'0x80ba63dL'
p828
sg27
Nsba(ibclass
BInstr
p829
(dp830
g2
Nsg17
S'jmp     locret_80BA81C'
p831
sg19
S'e9d5010000'
p832
sg21
Vjmp 0x1da
p833
sg5
L134981186L
sg6
Nsg23
S'jmp'
p834
sg25
S'0x80ba642L'
p835
sg27
Nsbasg161
(lp836
Vmov eax, address
p837
aVjmp address
p838
asg179
Nsg5
S'0x80ba63dL'
p839
sg181
(lp840
S'0x80ba604L'
p841
asg6
Nsg183
(lp842
S'0x80ba81cL'
p843
asg187
Nsg188
Nsg189
S'8b9a0d40e062be2b9b2d9885108fb196'
p844
sg191
S'926f437691f480d6543b7a7101724292'
p845
sg193
(lp846
g827
ag834
asg195
Nsba(ibclass
BBasicBlock
p847
(dp848
g12
Nsg13
(lp849
(ibclass
BInstr
p850
(dp851
g2
Nsg17
S'mov     ax, [ebp+i]'
p852
sg19
S'668b45ea'
p853
sg21
Vmov ax, word ptr [ebp - 0x16]
p854
sg5
L134981191L
sg6
Nsg23
S'mov'
p855
sg25
S'0x80ba647L'
p856
sg27
Nsba(ibclass
BInstr
p857
(dp858
g2
Nsg17
S'and     eax, 0FFFFh'
p859
sg19
S'25ffff0000'
p860
sg21
Vand eax, 0xffff
p861
sg5
L134981195L
sg6
Nsg23
S'and'
p862
sg25
S'0x80ba64bL'
p863
sg27
Nsba(ibclass
BInstr
p864
(dp865
g2
Nsg17
S'add     [ebp+p], eax'
p866
sg19
S'0145f0'
p867
sg21
Vadd dword ptr [ebp - 0x10], eax
p868
sg5
L134981200L
sg6
Nsg23
S'add'
p869
sg25
S'0x80ba650L'
p870
sg27
Nsba(ibclass
BInstr
p871
(dp872
g2
Nsg17
S'mov     eax, [ebp+p]'
p873
sg19
S'8b45f0'
p874
sg21
Vmov eax, dword ptr [ebp - 0x10]
p875
sg5
L134981203L
sg6
Nsg23
S'mov'
p876
sg25
S'0x80ba653L'
p877
sg27
Nsba(ibclass
BInstr
p878
(dp879
g2
Nsg17
S'lea     edx, [eax+1]'
p880
sg19
S'8d5001'
p881
sg21
Vlea edx, [eax + 1]
p882
sg5
L134981206L
sg6
Nsg23
S'lea'
p883
sg25
S'0x80ba656L'
p884
sg27
Nsba(ibclass
BInstr
p885
(dp886
g2
Nsg17
S'mov     [ebp+p], edx'
p887
sg19
S'8955f0'
p888
sg21
Vmov dword ptr [ebp - 0x10], edx
p889
sg5
L134981209L
sg6
Nsg23
S'mov'
p890
sg25
S'0x80ba659L'
p891
sg27
Nsba(ibclass
BInstr
p892
(dp893
g2
Nsg17
S'mov     al, [eax]'
p894
sg19
S'8a00'
p895
sg21
Vmov al, byte ptr [eax]
p896
sg5
L134981212L
sg6
Nsg23
S'mov'
p897
sg25
S'0x80ba65cL'
p898
sg27
Nsba(ibclass
BInstr
p899
(dp900
g2
Nsg17
S'and     eax, 0FFh'
p901
sg19
S'25ff000000'
p902
sg21
Vand eax, 0xff
p903
sg5
L134981214L
sg6
Nsg23
S'and'
p904
sg25
S'0x80ba65eL'
p905
sg27
Nsba(ibclass
BInstr
p906
(dp907
g2
Nsg17
S'mov     [ebp+i], ax'
p908
sg19
S'668945ea'
p909
sg21
Vmov word ptr [ebp - 0x16], ax
p910
sg5
L134981219L
sg6
Nsg23
S'mov'
p911
sg25
S'0x80ba663L'
p912
sg27
Nsba(ibclass
BInstr
p913
(dp914
g2
Nsg17
S'mov     edx, [ebp+limit]'
p915
sg19
S'8b5514'
p916
sg21
Vmov edx, dword ptr [ebp + 0x14]
p917
sg5
L134981223L
sg6
Nsg23
S'mov'
p918
sg25
S'0x80ba667L'
p919
sg27
Nsba(ibclass
BInstr
p920
(dp921
g2
Nsg17
S'mov     eax, [ebp+p]'
p922
sg19
S'8b45f0'
p923
sg21
Vmov eax, dword ptr [ebp - 0x10]
p924
sg5
L134981226L
sg6
Nsg23
S'mov'
p925
sg25
S'0x80ba66aL'
p926
sg27
Nsba(ibclass
BInstr
p927
(dp928
g2
Nsg17
S'sub     edx, eax'
p929
sg19
S'29c2'
p930
sg21
Vsub edx, eax
p931
sg5
L134981229L
sg6
Nsg23
S'sub'
p932
sg25
S'0x80ba66dL'
p933
sg27
Nsba(ibclass
BInstr
p934
(dp935
g2
Nsg17
S'mov     ax, [ebp+i]'
p936
sg19
S'668b45ea'
p937
sg21
Vmov ax, word ptr [ebp - 0x16]
p938
sg5
L134981231L
sg6
Nsg23
S'mov'
p939
sg25
S'0x80ba66fL'
p940
sg27
Nsba(ibclass
BInstr
p941
(dp942
g2
Nsg17
S'and     eax, 0FFFFh'
p943
sg19
S'25ffff0000'
p944
sg21
Vand eax, 0xffff
p945
sg5
L134981235L
sg6
Nsg23
S'and'
p946
sg25
S'0x80ba673L'
p947
sg27
Nsba(ibclass
BInstr
p948
(dp949
g2
Nsg17
S'cmp     edx, eax'
p950
sg19
S'39c2'
p951
sg21
Vcmp edx, eax
p952
sg5
L134981240L
sg6
Nsg23
S'cmp'
p953
sg25
S'0x80ba678L'
p954
sg27
Nsba(ibclass
BInstr
p955
(dp956
g2
Nsg17
S'jge     short loc_80BA686'
p957
sg19
S'7d0a'
p958
sg21
Vjge 0xc
p959
sg5
L134981242L
sg6
Nsg23
S'jge'
p960
sg25
S'0x80ba67aL'
p961
sg27
Nsbasg161
(lp962
Vmov ax, mem
p963
aVand eax, address
p964
aVadd mem, eax
p965
aVmov eax, mem
p966
aVlea edx, mem
p967
aVmov mem, edx
p968
aVmov al, mem
p969
aVand eax, address
p970
aVmov mem, ax
p971
aVmov edx, mem
p972
aVmov eax, mem
p973
ag931
aVmov ax, mem
p974
aVand eax, address
p975
ag952
aVjge address
p976
asg179
Nsg5
S'0x80ba647L'
p977
sg181
(lp978
S'0x80ba604L'
p979
asg6
Nsg183
(lp980
S'0x80ba67cL'
p981
aS'0x80ba686L'
p982
asg187
Nsg188
Nsg189
S'434d05003d0e939e472e498a3b8448a8'
p983
sg191
S'e0826fc79651e3c8c40c8b8cbbc7412b'
p984
sg193
(lp985
g855
ag862
ag869
ag876
ag883
ag890
ag897
ag904
ag911
ag918
ag925
ag932
ag939
ag946
ag953
ag960
asg195
Nsba(ibclass
BBasicBlock
p986
(dp987
g12
Nsg13
(lp988
(ibclass
BInstr
p989
(dp990
g2
Nsg17
S'mov     eax, 0FFFFFFFFh'
p991
sg19
S'b8ffffffff'
p992
sg21
Vmov eax, 0xffffffff
p993
sg5
L134981244L
sg6
Nsg23
S'mov'
p994
sg25
S'0x80ba67cL'
p995
sg27
Nsba(ibclass
BInstr
p996
(dp997
g2
Nsg17
S'jmp     locret_80BA81C'
p998
sg19
S'e996010000'
p999
sg21
Vjmp 0x19b
p1000
sg5
L134981249L
sg6
Nsg23
S'jmp'
p1001
sg25
S'0x80ba681L'
p1002
sg27
Nsbasg161
(lp1003
Vmov eax, address
p1004
aVjmp address
p1005
asg179
Nsg5
S'0x80ba67cL'
p1006
sg181
(lp1007
S'0x80ba647L'
p1008
asg6
Nsg183
(lp1009
S'0x80ba81cL'
p1010
asg187
Nsg188
Nsg189
S'8b9a0d40e062be2b9b2d9885108fb196'
p1011
sg191
S'926f437691f480d6543b7a7101724292'
p1012
sg193
(lp1013
g994
ag1001
asg195
Nsba(ibclass
BBasicBlock
p1014
(dp1015
g12
Nsg13
(lp1016
(ibclass
BInstr
p1017
(dp1018
g2
Nsg17
S'mov     ax, [ebp+i]'
p1019
sg19
S'668b45ea'
p1020
sg21
Vmov ax, word ptr [ebp - 0x16]
p1021
sg5
L134981254L
sg6
Nsg23
S'mov'
p1022
sg25
S'0x80ba686L'
p1023
sg27
Nsba(ibclass
BInstr
p1024
(dp1025
g2
Nsg17
S'and     eax, 0FFFFh'
p1026
sg19
S'25ffff0000'
p1027
sg21
Vand eax, 0xffff
p1028
sg5
L134981258L
sg6
Nsg23
S'and'
p1029
sg25
S'0x80ba68aL'
p1030
sg27
Nsba(ibclass
BInstr
p1031
(dp1032
g2
Nsg17
S'add     [ebp+p], eax'
p1033
sg19
S'0145f0'
p1034
sg21
Vadd dword ptr [ebp - 0x10], eax
p1035
sg5
L134981263L
sg6
Nsg23
S'add'
p1036
sg25
S'0x80ba68fL'
p1037
sg27
Nsba(ibclass
BInstr
p1038
(dp1039
g2
Nsg17
S'mov     edx, [ebp+limit]'
p1040
sg19
S'8b5514'
p1041
sg21
Vmov edx, dword ptr [ebp + 0x14]
p1042
sg5
L134981266L
sg6
Nsg23
S'mov'
p1043
sg25
S'0x80ba692L'
p1044
sg27
Nsba(ibclass
BInstr
p1045
(dp1046
g2
Nsg17
S'mov     eax, [ebp+p]'
p1047
sg19
S'8b45f0'
p1048
sg21
Vmov eax, dword ptr [ebp - 0x10]
p1049
sg5
L134981269L
sg6
Nsg23
S'mov'
p1050
sg25
S'0x80ba695L'
p1051
sg27
Nsba(ibclass
BInstr
p1052
(dp1053
g2
Nsg17
S'sub     edx, eax'
p1054
sg19
S'29c2'
p1055
sg21
Vsub edx, eax
p1056
sg5
L134981272L
sg6
Nsg23
S'sub'
p1057
sg25
S'0x80ba698L'
p1058
sg27
Nsba(ibclass
BInstr
p1059
(dp1060
g2
Nsg17
S'mov     eax, edx'
p1061
sg19
S'89d0'
p1062
sg21
Vmov eax, edx
p1063
sg5
L134981274L
sg6
Nsg23
S'mov'
p1064
sg25
S'0x80ba69aL'
p1065
sg27
Nsba(ibclass
BInstr
p1066
(dp1067
g2
Nsg17
S'cmp     eax, 2'
p1068
sg19
S'83f802'
p1069
sg21
Vcmp eax, 2
p1070
sg5
L134981276L
sg6
Nsg23
S'cmp'
p1071
sg25
S'0x80ba69cL'
p1072
sg27
Nsba(ibclass
BInstr
p1073
(dp1074
g2
Nsg17
S'jg      short loc_80BA6AB'
p1075
sg19
S'7f0a'
p1076
sg21
Vjg 0xc
p1077
sg5
L134981279L
sg6
Nsg23
S'jg'
p1078
sg25
S'0x80ba69fL'
p1079
sg27
Nsbasg161
(lp1080
Vmov ax, mem
p1081
aVand eax, address
p1082
aVadd mem, eax
p1083
aVmov edx, mem
p1084
aVmov eax, mem
p1085
ag1056
ag1063
ag1070
aVjg address
p1086
asg179
Nsg5
S'0x80ba686L'
p1087
sg181
(lp1088
S'0x80ba647L'
p1089
asg6
Nsg183
(lp1090
S'0x80ba6a1L'
p1091
aS'0x80ba6abL'
p1092
asg187
Nsg188
Nsg189
S'e65e0f575a34855a0b403428dbbba0b9'
p1093
sg191
S'f881a7d55b52a68b9041c6233cec8ac0'
p1094
sg193
(lp1095
g1022
ag1029
ag1036
ag1043
ag1050
ag1057
ag1064
ag1071
ag1078
asg195
Nsba(ibclass
BBasicBlock
p1096
(dp1097
g12
Nsg13
(lp1098
(ibclass
BInstr
p1099
(dp1100
g2
Nsg17
S'mov     eax, 0'
p1101
sg19
S'b800000000'
p1102
sg21
Vmov eax, 0
p1103
sg5
L134981281L
sg6
Nsg23
S'mov'
p1104
sg25
S'0x80ba6a1L'
p1105
sg27
Nsba(ibclass
BInstr
p1106
(dp1107
g2
Nsg17
S'jmp     locret_80BA81C'
p1108
sg19
S'e971010000'
p1109
sg21
Vjmp 0x176
p1110
sg5
L134981286L
sg6
Nsg23
S'jmp'
p1111
sg25
S'0x80ba6a6L'
p1112
sg27
Nsbasg161
(lp1113
g1103
aVjmp address
p1114
asg179
Nsg5
S'0x80ba6a1L'
p1115
sg181
(lp1116
S'0x80ba686L'
p1117
asg6
Nsg183
(lp1118
S'0x80ba81cL'
p1119
asg187
Nsg188
Nsg189
S'8b9a0d40e062be2b9b2d9885108fb196'
p1120
sg191
S'bfbe752dd865c9a89011ba470eab331d'
p1121
sg193
(lp1122
g1104
ag1111
asg195
Nsba(ibclass
BBasicBlock
p1123
(dp1124
g12
Nsg13
(lp1125
(ibclass
BInstr
p1126
(dp1127
g2
Nsg17
S'mov     eax, [ebp+p]'
p1128
sg19
S'8b45f0'
p1129
sg21
Vmov eax, dword ptr [ebp - 0x10]
p1130
sg5
L134981291L
sg6
Nsg23
S'mov'
p1131
sg25
S'0x80ba6abL'
p1132
sg27
Nsba(ibclass
BInstr
p1133
(dp1134
g2
Nsg17
S'mov     al, [eax]'
p1135
sg19
S'8a00'
p1136
sg21
Vmov al, byte ptr [eax]
p1137
sg5
L134981294L
sg6
Nsg23
S'mov'
p1138
sg25
S'0x80ba6aeL'
p1139
sg27
Nsba(ibclass
BInstr
p1140
(dp1141
g2
Nsg17
S'and     eax, 0FFh'
p1142
sg19
S'25ff000000'
p1143
sg21
Vand eax, 0xff
p1144
sg5
L134981296L
sg6
Nsg23
S'and'
p1145
sg25
S'0x80ba6b0L'
p1146
sg27
Nsba(ibclass
BInstr
p1147
(dp1148
g2
Nsg17
S'shl     eax, 8'
p1149
sg19
S'c1e008'
p1150
sg21
Vshl eax, 8
p1151
sg5
L134981301L
sg6
Nsg23
S'shl'
p1152
sg25
S'0x80ba6b5L'
p1153
sg27
Nsba(ibclass
BInstr
p1154
(dp1155
g2
Nsg17
S'mov     edx, eax'
p1156
sg19
S'89c2'
p1157
sg21
Vmov edx, eax
p1158
sg5
L134981304L
sg6
Nsg23
S'mov'
p1159
sg25
S'0x80ba6b8L'
p1160
sg27
Nsba(ibclass
BInstr
p1161
(dp1162
g2
Nsg17
S'mov     eax, [ebp+p]'
p1163
sg19
S'8b45f0'
p1164
sg21
Vmov eax, dword ptr [ebp - 0x10]
p1165
sg5
L134981306L
sg6
Nsg23
S'mov'
p1166
sg25
S'0x80ba6baL'
p1167
sg27
Nsba(ibclass
BInstr
p1168
(dp1169
g2
Nsg17
S'inc     eax'
p1170
sg19
S'40'
p1171
sg21
Vinc eax
p1172
sg5
L134981309L
sg6
Nsg23
S'inc'
p1173
sg25
S'0x80ba6bdL'
p1174
sg27
Nsba(ibclass
BInstr
p1175
(dp1176
g2
Nsg17
S'mov     al, [eax]'
p1177
sg19
S'8a00'
p1178
sg21
Vmov al, byte ptr [eax]
p1179
sg5
L134981310L
sg6
Nsg23
S'mov'
p1180
sg25
S'0x80ba6beL'
p1181
sg27
Nsba(ibclass
BInstr
p1182
(dp1183
g2
Nsg17
S'and     eax, 0FFh'
p1184
sg19
S'25ff000000'
p1185
sg21
Vand eax, 0xff
p1186
sg5
L134981312L
sg6
Nsg23
S'and'
p1187
sg25
S'0x80ba6c0L'
p1188
sg27
Nsba(ibclass
BInstr
p1189
(dp1190
g2
Nsg17
S'or      eax, edx'
p1191
sg19
S'09d0'
p1192
sg21
Vor eax, edx
p1193
sg5
L134981317L
sg6
Nsg23
S'or'
p1194
sg25
S'0x80ba6c5L'
p1195
sg27
Nsba(ibclass
BInstr
p1196
(dp1197
g2
Nsg17
S'mov     [ebp+i], ax'
p1198
sg19
S'668945ea'
p1199
sg21
Vmov word ptr [ebp - 0x16], ax
p1200
sg5
L134981319L
sg6
Nsg23
S'mov'
p1201
sg25
S'0x80ba6c7L'
p1202
sg27
Nsba(ibclass
BInstr
p1203
(dp1204
g2
Nsg17
S'add     [ebp+p], 2'
p1205
sg19
S'8345f002'
p1206
sg21
Vadd dword ptr [ebp - 0x10], 2
p1207
sg5
L134981323L
sg6
Nsg23
S'add'
p1208
sg25
S'0x80ba6cbL'
p1209
sg27
Nsba(ibclass
BInstr
p1210
(dp1211
g2
Nsg17
S'jmp     loc_80BA804'
p1212
sg19
S'e930010000'
p1213
sg21
Vjmp 0x135
p1214
sg5
L134981327L
sg6
Nsg23
S'jmp'
p1215
sg25
S'0x80ba6cfL'
p1216
sg27
Nsbasg161
(lp1217
Vmov eax, mem
p1218
aVmov al, mem
p1219
aVand eax, address
p1220
ag1151
ag1158
aVmov eax, mem
p1221
ag1172
aVmov al, mem
p1222
aVand eax, address
p1223
ag1193
aVmov mem, ax
p1224
aVadd mem, 2
p1225
aVjmp address
p1226
asg179
Nsg5
S'0x80ba6abL'
p1227
sg181
(lp1228
S'0x80ba686L'
p1229
asg6
Nsg183
(lp1230
S'0x80ba804L'
p1231
asg187
Nsg188
Nsg189
S'11b239ea1da0735fddab5c84afcb4187'
p1232
sg191
S'dda24712b839a619e921ae3b3e9d3f72'
p1233
sg193
(lp1234
g1131
ag1138
ag1145
ag1152
ag1159
ag1166
ag1173
ag1180
ag1187
ag1194
ag1201
ag1208
ag1215
asg195
Nsba(ibclass
BBasicBlock
p1235
(dp1236
g12
Nsg13
(lp1237
(ibclass
BInstr
p1238
(dp1239
g2
Nsg17
S'mov     eax, [ebp+p]'
p1240
sg19
S'8b45f0'
p1241
sg21
Vmov eax, dword ptr [ebp - 0x10]
p1242
sg5
L134981332L
sg6
Nsg23
S'mov'
p1243
sg25
S'0x80ba6d4L'
p1244
sg27
Nsba(ibclass
BInstr
p1245
(dp1246
g2
Nsg17
S'mov     al, [eax]'
p1247
sg19
S'8a00'
p1248
sg21
Vmov al, byte ptr [eax]
p1249
sg5
L134981335L
sg6
Nsg23
S'mov'
p1250
sg25
S'0x80ba6d7L'
p1251
sg27
Nsba(ibclass
BInstr
p1252
(dp1253
g2
Nsg17
S'and     eax, 0FFh'
p1254
sg19
S'25ff000000'
p1255
sg21
Vand eax, 0xff
p1256
sg5
L134981337L
sg6
Nsg23
S'and'
p1257
sg25
S'0x80ba6d9L'
p1258
sg27
Nsba(ibclass
BInstr
p1259
(dp1260
g2
Nsg17
S'shl     eax, 8'
p1261
sg19
S'c1e008'
p1262
sg21
Vshl eax, 8
p1263
sg5
L134981342L
sg6
Nsg23
S'shl'
p1264
sg25
S'0x80ba6deL'
p1265
sg27
Nsba(ibclass
BInstr
p1266
(dp1267
g2
Nsg17
S'mov     edx, eax'
p1268
sg19
S'89c2'
p1269
sg21
Vmov edx, eax
p1270
sg5
L134981345L
sg6
Nsg23
S'mov'
p1271
sg25
S'0x80ba6e1L'
p1272
sg27
Nsba(ibclass
BInstr
p1273
(dp1274
g2
Nsg17
S'mov     eax, [ebp+p]'
p1275
sg19
S'8b45f0'
p1276
sg21
Vmov eax, dword ptr [ebp - 0x10]
p1277
sg5
L134981347L
sg6
Nsg23
S'mov'
p1278
sg25
S'0x80ba6e3L'
p1279
sg27
Nsba(ibclass
BInstr
p1280
(dp1281
g2
Nsg17
S'inc     eax'
p1282
sg19
S'40'
p1283
sg21
Vinc eax
p1284
sg5
L134981350L
sg6
Nsg23
S'inc'
p1285
sg25
S'0x80ba6e6L'
p1286
sg27
Nsba(ibclass
BInstr
p1287
(dp1288
g2
Nsg17
S'mov     al, [eax]'
p1289
sg19
S'8a00'
p1290
sg21
Vmov al, byte ptr [eax]
p1291
sg5
L134981351L
sg6
Nsg23
S'mov'
p1292
sg25
S'0x80ba6e7L'
p1293
sg27
Nsba(ibclass
BInstr
p1294
(dp1295
g2
Nsg17
S'and     eax, 0FFh'
p1296
sg19
S'25ff000000'
p1297
sg21
Vand eax, 0xff
p1298
sg5
L134981353L
sg6
Nsg23
S'and'
p1299
sg25
S'0x80ba6e9L'
p1300
sg27
Nsba(ibclass
BInstr
p1301
(dp1302
g2
Nsg17
S'or      eax, edx'
p1303
sg19
S'09d0'
p1304
sg21
Vor eax, edx
p1305
sg5
L134981358L
sg6
Nsg23
S'or'
p1306
sg25
S'0x80ba6eeL'
p1307
sg27
Nsba(ibclass
BInstr
p1308
(dp1309
g2
Nsg17
S'mov     [ebp+type], ax'
p1310
sg19
S'668945ec'
p1311
sg21
Vmov word ptr [ebp - 0x14], ax
p1312
sg5
L134981360L
sg6
Nsg23
S'mov'
p1313
sg25
S'0x80ba6f0L'
p1314
sg27
Nsba(ibclass
BInstr
p1315
(dp1316
g2
Nsg17
S'add     [ebp+p], 2'
p1317
sg19
S'8345f002'
p1318
sg21
Vadd dword ptr [ebp - 0x10], 2
p1319
sg5
L134981364L
sg6
Nsg23
S'add'
p1320
sg25
S'0x80ba6f4L'
p1321
sg27
Nsba(ibclass
BInstr
p1322
(dp1323
g2
Nsg17
S'mov     eax, [ebp+p]'
p1324
sg19
S'8b45f0'
p1325
sg21
Vmov eax, dword ptr [ebp - 0x10]
p1326
sg5
L134981368L
sg6
Nsg23
S'mov'
p1327
sg25
S'0x80ba6f8L'
p1328
sg27
Nsba(ibclass
BInstr
p1329
(dp1330
g2
Nsg17
S'mov     al, [eax]'
p1331
sg19
S'8a00'
p1332
sg21
Vmov al, byte ptr [eax]
p1333
sg5
L134981371L
sg6
Nsg23
S'mov'
p1334
sg25
S'0x80ba6fbL'
p1335
sg27
Nsba(ibclass
BInstr
p1336
(dp1337
g2
Nsg17
S'and     eax, 0FFh'
p1338
sg19
S'25ff000000'
p1339
sg21
Vand eax, 0xff
p1340
sg5
L134981373L
sg6
Nsg23
S'and'
p1341
sg25
S'0x80ba6fdL'
p1342
sg27
Nsba(ibclass
BInstr
p1343
(dp1344
g2
Nsg17
S'shl     eax, 8'
p1345
sg19
S'c1e008'
p1346
sg21
Vshl eax, 8
p1347
sg5
L134981378L
sg6
Nsg23
S'shl'
p1348
sg25
S'0x80ba702L'
p1349
sg27
Nsba(ibclass
BInstr
p1350
(dp1351
g2
Nsg17
S'mov     edx, eax'
p1352
sg19
S'89c2'
p1353
sg21
Vmov edx, eax
p1354
sg5
L134981381L
sg6
Nsg23
S'mov'
p1355
sg25
S'0x80ba705L'
p1356
sg27
Nsba(ibclass
BInstr
p1357
(dp1358
g2
Nsg17
S'mov     eax, [ebp+p]'
p1359
sg19
S'8b45f0'
p1360
sg21
Vmov eax, dword ptr [ebp - 0x10]
p1361
sg5
L134981383L
sg6
Nsg23
S'mov'
p1362
sg25
S'0x80ba707L'
p1363
sg27
Nsba(ibclass
BInstr
p1364
(dp1365
g2
Nsg17
S'inc     eax'
p1366
sg19
S'40'
p1367
sg21
Vinc eax
p1368
sg5
L134981386L
sg6
Nsg23
S'inc'
p1369
sg25
S'0x80ba70aL'
p1370
sg27
Nsba(ibclass
BInstr
p1371
(dp1372
g2
Nsg17
S'mov     al, [eax]'
p1373
sg19
S'8a00'
p1374
sg21
Vmov al, byte ptr [eax]
p1375
sg5
L134981387L
sg6
Nsg23
S'mov'
p1376
sg25
S'0x80ba70bL'
p1377
sg27
Nsba(ibclass
BInstr
p1378
(dp1379
g2
Nsg17
S'and     eax, 0FFh'
p1380
sg19
S'25ff000000'
p1381
sg21
Vand eax, 0xff
p1382
sg5
L134981389L
sg6
Nsg23
S'and'
p1383
sg25
S'0x80ba70dL'
p1384
sg27
Nsba(ibclass
BInstr
p1385
(dp1386
g2
Nsg17
S'or      eax, edx'
p1387
sg19
S'09d0'
p1388
sg21
Vor eax, edx
p1389
sg5
L134981394L
sg6
Nsg23
S'or'
p1390
sg25
S'0x80ba712L'
p1391
sg27
Nsba(ibclass
BInstr
p1392
(dp1393
g2
Nsg17
S'mov     [ebp+size], ax'
p1394
sg19
S'668945ee'
p1395
sg21
Vmov word ptr [ebp - 0x12], ax
p1396
sg5
L134981396L
sg6
Nsg23
S'mov'
p1397
sg25
S'0x80ba714L'
p1398
sg27
Nsba(ibclass
BInstr
p1399
(dp1400
g2
Nsg17
S'add     [ebp+p], 2'
p1401
sg19
S'8345f002'
p1402
sg21
Vadd dword ptr [ebp - 0x10], 2
p1403
sg5
L134981400L
sg6
Nsg23
S'add'
p1404
sg25
S'0x80ba718L'
p1405
sg27
Nsba(ibclass
BInstr
p1406
(dp1407
g2
Nsg17
S'mov     edx, [ebp+limit]'
p1408
sg19
S'8b5514'
p1409
sg21
Vmov edx, dword ptr [ebp + 0x14]
p1410
sg5
L134981404L
sg6
Nsg23
S'mov'
p1411
sg25
S'0x80ba71cL'
p1412
sg27
Nsba(ibclass
BInstr
p1413
(dp1414
g2
Nsg17
S'mov     eax, [ebp+p]'
p1415
sg19
S'8b45f0'
p1416
sg21
Vmov eax, dword ptr [ebp - 0x10]
p1417
sg5
L134981407L
sg6
Nsg23
S'mov'
p1418
sg25
S'0x80ba71fL'
p1419
sg27
Nsba(ibclass
BInstr
p1420
(dp1421
g2
Nsg17
S'sub     edx, eax'
p1422
sg19
S'29c2'
p1423
sg21
Vsub edx, eax
p1424
sg5
L134981410L
sg6
Nsg23
S'sub'
p1425
sg25
S'0x80ba722L'
p1426
sg27
Nsba(ibclass
BInstr
p1427
(dp1428
g2
Nsg17
S'mov     ax, [ebp+size]'
p1429
sg19
S'668b45ee'
p1430
sg21
Vmov ax, word ptr [ebp - 0x12]
p1431
sg5
L134981412L
sg6
Nsg23
S'mov'
p1432
sg25
S'0x80ba724L'
p1433
sg27
Nsba(ibclass
BInstr
p1434
(dp1435
g2
Nsg17
S'and     eax, 0FFFFh'
p1436
sg19
S'25ffff0000'
p1437
sg21
Vand eax, 0xffff
p1438
sg5
L134981416L
sg6
Nsg23
S'and'
p1439
sg25
S'0x80ba728L'
p1440
sg27
Nsba(ibclass
BInstr
p1441
(dp1442
g2
Nsg17
S'cmp     edx, eax'
p1443
sg19
S'39c2'
p1444
sg21
Vcmp edx, eax
p1445
sg5
L134981421L
sg6
Nsg23
S'cmp'
p1446
sg25
S'0x80ba72dL'
p1447
sg27
Nsba(ibclass
BInstr
p1448
(dp1449
g2
Nsg17
S'jge     short loc_80BA73B'
p1450
sg19
S'7d0a'
p1451
sg21
Vjge 0xc
p1452
sg5
L134981423L
sg6
Nsg23
S'jge'
p1453
sg25
S'0x80ba72fL'
p1454
sg27
Nsbasg161
(lp1455
Vmov eax, mem
p1456
aVmov al, mem
p1457
aVand eax, address
p1458
ag1263
ag1270
aVmov eax, mem
p1459
ag1284
aVmov al, mem
p1460
aVand eax, address
p1461
ag1305
aVmov mem, ax
p1462
aVadd mem, 2
p1463
aVmov eax, mem
p1464
aVmov al, mem
p1465
aVand eax, address
p1466
ag1347
ag1354
aVmov eax, mem
p1467
ag1368
aVmov al, mem
p1468
aVand eax, address
p1469
ag1389
aVmov mem, ax
p1470
aVadd mem, 2
p1471
aVmov edx, mem
p1472
aVmov eax, mem
p1473
ag1424
aVmov ax, mem
p1474
aVand eax, address
p1475
ag1445
aVjge address
p1476
asg179
Nsg5
S'0x80ba6d4L'
p1477
sg181
(lp1478
S'0x80ba804L'
p1479
asg6
Nsg183
(lp1480
S'0x80ba731L'
p1481
aS'0x80ba73bL'
p1482
asg187
Nsg188
Nsg189
S'cc4eed0a84460ae41fafd6d9a90acdb3'
p1483
sg191
S'9323296ee399d3baa250ff6f3f62e607'
p1484
sg193
(lp1485
g1243
ag1250
ag1257
ag1264
ag1271
ag1278
ag1285
ag1292
ag1299
ag1306
ag1313
ag1320
ag1327
ag1334
ag1341
ag1348
ag1355
ag1362
ag1369
ag1376
ag1383
ag1390
ag1397
ag1404
ag1411
ag1418
ag1425
ag1432
ag1439
ag1446
ag1453
asg195
Nsba(ibclass
BBasicBlock
p1486
(dp1487
g12
Nsg13
(lp1488
(ibclass
BInstr
p1489
(dp1490
g2
Nsg17
S'mov     eax, 0'
p1491
sg19
S'b800000000'
p1492
sg21
Vmov eax, 0
p1493
sg5
L134981425L
sg6
Nsg23
S'mov'
p1494
sg25
S'0x80ba731L'
p1495
sg27
Nsba(ibclass
BInstr
p1496
(dp1497
g2
Nsg17
S'jmp     locret_80BA81C'
p1498
sg19
S'e9e1000000'
p1499
sg21
Vjmp 0xe6
p1500
sg5
L134981430L
sg6
Nsg23
S'jmp'
p1501
sg25
S'0x80ba736L'
p1502
sg27
Nsbasg161
(lp1503
g1493
aVjmp address
p1504
asg179
Nsg5
S'0x80ba731L'
p1505
sg181
(lp1506
S'0x80ba6d4L'
p1507
asg6
Nsg183
(lp1508
S'0x80ba81cL'
p1509
asg187
Nsg188
Nsg189
S'8b9a0d40e062be2b9b2d9885108fb196'
p1510
sg191
S'bfbe752dd865c9a89011ba470eab331d'
p1511
sg193
(lp1512
g1494
ag1501
asg195
Nsba(ibclass
BBasicBlock
p1513
(dp1514
g12
Nsg13
(lp1515
(ibclass
BInstr
p1516
(dp1517
g2
Nsg17
S'cmp     [ebp+type], 23h'
p1518
sg19
S'66837dec23'
p1519
sg21
Vcmp word ptr [ebp - 0x14], 0x23
p1520
sg5
L134981435L
sg6
Nsg23
S'cmp'
p1521
sg25
S'0x80ba73bL'
p1522
sg27
Nsba(ibclass
BInstr
p1523
(dp1524
g2
Nsg17
S'jnz     loc_80BA7F8'
p1525
sg19
S'0f85b2000000'
p1526
sg21
Vjne 0xb8
p1527
sg5
L134981440L
sg6
Nsg23
S'jnz'
p1528
sg25
S'0x80ba740L'
p1529
sg27
Nsbasg161
(lp1530
Vcmp mem, address
p1531
aVjne address
p1532
asg179
Nsg5
S'0x80ba73bL'
p1533
sg181
(lp1534
S'0x80ba6d4L'
p1535
asg6
Nsg183
(lp1536
S'0x80ba746L'
p1537
aS'0x80ba7f8L'
p1538
asg187
Nsg188
Nsg189
S'30cb3d6f6a174adfabcde507f6944a52'
p1539
sg191
S'1628a119ec482a154d53abc1a26badbe'
p1540
sg193
(lp1541
g1521
ag1528
asg195
Nsba(ibclass
BBasicBlock
p1542
(dp1543
g12
Nsg13
(lp1544
(ibclass
BInstr
p1545
(dp1546
g2
Nsg17
S'cmp     [ebp+size], 0'
p1547
sg19
S'66837dee00'
p1548
sg21
Vcmp word ptr [ebp - 0x12], 0
p1549
sg5
L134981446L
sg6
Nsg23
S'cmp'
p1550
sg25
S'0x80ba746L'
p1551
sg27
Nsba(ibclass
BInstr
p1552
(dp1553
g2
Nsg17
S'jnz     short loc_80BA764'
p1554
sg19
S'7517'
p1555
sg21
Vjne 0x19
p1556
sg5
L134981451L
sg6
Nsg23
S'jnz'
p1557
sg25
S'0x80ba74bL'
p1558
sg27
Nsbasg161
(lp1559
Vcmp mem, 0
p1560
aVjne address
p1561
asg179
Nsg5
S'0x80ba746L'
p1562
sg181
(lp1563
S'0x80ba73bL'
p1564
asg6
Nsg183
(lp1565
S'0x80ba74dL'
p1566
aS'0x80ba764L'
p1567
asg187
Nsg188
Nsg189
S'30cb3d6f6a174adfabcde507f6944a52'
p1568
sg191
S'ac6a5deb49a2d2e7162632941da7e135'
p1569
sg193
(lp1570
g1550
ag1557
asg195
Nsba(ibclass
BBasicBlock
p1571
(dp1572
g12
Nsg13
(lp1573
(ibclass
BInstr
p1574
(dp1575
g2
Nsg17
S'mov     eax, [ebp+s]'
p1576
sg19
S'8b4508'
p1577
sg21
Vmov eax, dword ptr [ebp + 8]
p1578
sg5
L134981453L
sg6
Nsg23
S'mov'
p1579
sg25
S'0x80ba74dL'
p1580
sg27
Nsba(ibclass
BInstr
p1581
(dp1582
g2
Nsg17
S'mov     dword ptr [eax+140h], 1'
p1583
sg19
S'c7804001000001000000'
p1584
sg21
Vmov dword ptr [eax + 0x140], 1
p1585
sg5
L134981456L
sg6
Nsg23
S'mov'
p1586
sg25
S'0x80ba750L'
p1587
sg27
Nsba(ibclass
BInstr
p1588
(dp1589
g2
Nsg17
S'mov     eax, 1'
p1590
sg19
S'b801000000'
p1591
sg21
Vmov eax, 1
p1592
sg5
L134981466L
sg6
Nsg23
S'mov'
p1593
sg25
S'0x80ba75aL'
p1594
sg27
Nsba(ibclass
BInstr
p1595
(dp1596
g2
Nsg17
S'jmp     locret_80BA81C'
p1597
sg19
S'e9b8000000'
p1598
sg21
Vjmp 0xbd
p1599
sg5
L134981471L
sg6
Nsg23
S'jmp'
p1600
sg25
S'0x80ba75fL'
p1601
sg27
Nsbasg161
(lp1602
Vmov eax, mem
p1603
aVmov mem, 1
p1604
ag1592
aVjmp address
p1605
asg179
Nsg5
S'0x80ba74dL'
p1606
sg181
(lp1607
S'0x80ba746L'
p1608
asg6
Nsg183
(lp1609
S'0x80ba81cL'
p1610
asg187
Nsg188
Nsg189
S'040fce6d72bb8b206d60fbb015935e24'
p1611
sg191
S'b3f8cf83b834c9ac8d89045767deea5d'
p1612
sg193
(lp1613
g1579
ag1586
ag1593
ag1600
asg195
Nsba(ibclass
BBasicBlock
p1614
(dp1615
g12
Nsg13
(lp1616
(ibclass
BInstr
p1617
(dp1618
g2
Nsg17
S'mov     eax, [ebp+s]'
p1619
sg19
S'8b4508'
p1620
sg21
Vmov eax, dword ptr [ebp + 8]
p1621
sg5
L134981476L
sg6
Nsg23
S'mov'
p1622
sg25
S'0x80ba764L'
p1623
sg27
Nsba(ibclass
BInstr
p1624
(dp1625
g2
Nsg17
S'mov     eax, [eax+168h]'
p1626
sg19
S'8b8068010000'
p1627
sg21
Vmov eax, dword ptr [eax + 0x168]
p1628
sg5
L134981479L
sg6
Nsg23
S'mov'
p1629
sg25
S'0x80ba767L'
p1630
sg27
Nsba(ibclass
BInstr
p1631
(dp1632
g2
Nsg17
S'test    eax, eax'
p1633
sg19
S'85c0'
p1634
sg21
Vtest eax, eax
p1635
sg5
L134981485L
sg6
Nsg23
S'test'
p1636
sg25
S'0x80ba76dL'
p1637
sg27
Nsba(ibclass
BInstr
p1638
(dp1639
g2
Nsg17
S'jz      short loc_80BA77B'
p1640
sg19
S'740a'
p1641
sg21
Vje 0xc
p1642
sg5
L134981487L
sg6
Nsg23
S'jz'
p1643
sg25
S'0x80ba76fL'
p1644
sg27
Nsbasg161
(lp1645
Vmov eax, mem
p1646
aVmov eax, mem
p1647
ag1635
aVje address
p1648
asg179
Nsg5
S'0x80ba764L'
p1649
sg181
(lp1650
S'0x80ba746L'
p1651
asg6
Nsg183
(lp1652
S'0x80ba771L'
p1653
aS'0x80ba77bL'
p1654
asg187
Nsg188
Nsg189
S'ea5d08c7dcc07640d42787f826218f11'
p1655
sg191
S'103b924e2a82731ce51d187b2e41af3a'
p1656
sg193
(lp1657
g1622
ag1629
ag1636
ag1643
asg195
Nsba(ibclass
BBasicBlock
p1658
(dp1659
g12
Nsg13
(lp1660
(ibclass
BInstr
p1661
(dp1662
g2
Nsg17
S'mov     eax, 2'
p1663
sg19
S'b802000000'
p1664
sg21
Vmov eax, 2
p1665
sg5
L134981489L
sg6
Nsg23
S'mov'
p1666
sg25
S'0x80ba771L'
p1667
sg27
Nsba(ibclass
BInstr
p1668
(dp1669
g2
Nsg17
S'jmp     locret_80BA81C'
p1670
sg19
S'e9a1000000'
p1671
sg21
Vjmp 0xa6
p1672
sg5
L134981494L
sg6
Nsg23
S'jmp'
p1673
sg25
S'0x80ba776L'
p1674
sg27
Nsbasg161
(lp1675
g1665
aVjmp address
p1676
asg179
Nsg5
S'0x80ba771L'
p1677
sg181
(lp1678
S'0x80ba764L'
p1679
asg6
Nsg183
(lp1680
S'0x80ba81cL'
p1681
asg187
Nsg188
Nsg189
S'8b9a0d40e062be2b9b2d9885108fb196'
p1682
sg191
S'7282f82a6c8726594dd819847969733b'
p1683
sg193
(lp1684
g1666
ag1673
asg195
Nsba(ibclass
BBasicBlock
p1685
(dp1686
g12
Nsg13
(lp1687
(ibclass
BInstr
p1688
(dp1689
g2
Nsg17
S'mov     ax, [ebp+size]'
p1690
sg19
S'668b45ee'
p1691
sg21
Vmov ax, word ptr [ebp - 0x12]
p1692
sg5
L134981499L
sg6
Nsg23
S'mov'
p1693
sg25
S'0x80ba77bL'
p1694
sg27
Nsba(ibclass
BInstr
p1695
(dp1696
g2
Nsg17
S'and     eax, 0FFFFh'
p1697
sg19
S'25ffff0000'
p1698
sg21
Vand eax, 0xffff
p1699
sg5
L134981503L
sg6
Nsg23
S'and'
p1700
sg25
S'0x80ba77fL'
p1701
sg27
Nsba(ibclass
BInstr
p1702
(dp1703
g2
Nsg17
S'mov     edx, [ebp+ret]'
p1704
sg19
S'8b5518'
p1705
sg21
Vmov edx, dword ptr [ebp + 0x18]
p1706
sg5
L134981508L
sg6
Nsg23
S'mov'
p1707
sg25
S'0x80ba784L'
p1708
sg27
Nsba(ibclass
BInstr
p1709
(dp1710
g2
Nsg17
S'mov     [esp+14h], edx  ; psess'
p1711
sg19
S'89542414'
p1712
sg21
Vmov dword ptr [esp + 0x14], edx
p1713
sg5
L134981511L
sg6
Nsg23
S'mov'
p1714
sg25
S'0x80ba787L'
p1715
sg27
Nsba(ibclass
BInstr
p1716
(dp1717
g2
Nsg17
S'mov     edx, [ebp+len]'
p1718
sg19
S'8b5510'
p1719
sg21
Vmov edx, dword ptr [ebp + 0x10]
p1720
sg5
L134981515L
sg6
Nsg23
S'mov'
p1721
sg25
S'0x80ba78bL'
p1722
sg27
Nsba(ibclass
BInstr
p1723
(dp1724
g2
Nsg17
S'mov     [esp+10h], edx  ; sesslen'
p1725
sg19
S'89542410'
p1726
sg21
Vmov dword ptr [esp + 0x10], edx
p1727
sg5
L134981518L
sg6
Nsg23
S'mov'
p1728
sg25
S'0x80ba78eL'
p1729
sg27
Nsba(ibclass
BInstr
p1730
(dp1731
g2
Nsg17
S'mov     edx, [ebp+session_id]'
p1732
sg19
S'8b550c'
p1733
sg21
Vmov edx, dword ptr [ebp + 0xc]
p1734
sg5
L134981522L
sg6
Nsg23
S'mov'
p1735
sg25
S'0x80ba792L'
p1736
sg27
Nsba(ibclass
BInstr
p1737
(dp1738
g2
Nsg17
S'mov     [esp+0Ch], edx  ; sess_id'
p1739
sg19
S'8954240c'
p1740
sg21
Vmov dword ptr [esp + 0xc], edx
p1741
sg5
L134981525L
sg6
Nsg23
S'mov'
p1742
sg25
S'0x80ba795L'
p1743
sg27
Nsba(ibclass
BInstr
p1744
(dp1745
g2
Nsg17
S'mov     [esp+8], eax    ; eticklen'
p1746
sg19
S'89442408'
p1747
sg21
Vmov dword ptr [esp + 8], eax
p1748
sg5
L134981529L
sg6
Nsg23
S'mov'
p1749
sg25
S'0x80ba799L'
p1750
sg27
Nsba(ibclass
BInstr
p1751
(dp1752
g2
Nsg17
S'mov     eax, [ebp+p]'
p1753
sg19
S'8b45f0'
p1754
sg21
Vmov eax, dword ptr [ebp - 0x10]
p1755
sg5
L134981533L
sg6
Nsg23
S'mov'
p1756
sg25
S'0x80ba79dL'
p1757
sg27
Nsba(ibclass
BInstr
p1758
(dp1759
g2
Nsg17
S'mov     [esp+4], eax    ; etick'
p1760
sg19
S'89442404'
p1761
sg21
Vmov dword ptr [esp + 4], eax
p1762
sg5
L134981536L
sg6
Nsg23
S'mov'
p1763
sg25
S'0x80ba7a0L'
p1764
sg27
Nsba(ibclass
BInstr
p1765
(dp1766
g2
Nsg17
S'mov     eax, [ebp+s]'
p1767
sg19
S'8b4508'
p1768
sg21
Vmov eax, dword ptr [ebp + 8]
p1769
sg5
L134981540L
sg6
Nsg23
S'mov'
p1770
sg25
S'0x80ba7a4L'
p1771
sg27
Nsba(ibclass
BInstr
p1772
(dp1773
g2
Nsg17
S'mov     [esp], eax      ; s'
p1774
sg19
S'890424'
p1775
sg21
Vmov dword ptr [esp], eax
p1776
sg5
L134981543L
sg6
Nsg23
S'mov'
p1777
sg25
S'0x80ba7a7L'
p1778
sg27
Nsba(ibclass
BInstr
p1779
(dp1780
g2
Nsg17
S'call    tls_decrypt_ticket'
p1781
sg19
S'e86f000000'
p1782
sg21
Vcall 0x74
p1783
sg5
L134981546L
sg6
Nsg23
S'call'
p1784
sg25
S'0x80ba7aaL'
p1785
sg27
Nsba(ibclass
BInstr
p1786
(dp1787
g2
Nsg17
S'mov     [ebp+r], eax'
p1788
sg19
S'8945f4'
p1789
sg21
Vmov dword ptr [ebp - 0xc], eax
p1790
sg5
L134981551L
sg6
Nsg23
S'mov'
p1791
sg25
S'0x80ba7afL'
p1792
sg27
Nsba(ibclass
BInstr
p1793
(dp1794
g2
Nsg17
S'mov     eax, [ebp+r]'
p1795
sg19
S'8b45f4'
p1796
sg21
Vmov eax, dword ptr [ebp - 0xc]
p1797
sg5
L134981554L
sg6
Nsg23
S'mov'
p1798
sg25
S'0x80ba7b2L'
p1799
sg27
Nsba(ibclass
BInstr
p1800
(dp1801
g2
Nsg17
S'cmp     eax, 3'
p1802
sg19
S'83f803'
p1803
sg21
Vcmp eax, 3
p1804
sg5
L134981557L
sg6
Nsg23
S'cmp'
p1805
sg25
S'0x80ba7b5L'
p1806
sg27
Nsba(ibclass
BInstr
p1807
(dp1808
g2
Nsg17
S'jz      short loc_80BA7D8'
p1809
sg19
S'741e'
p1810
sg21
Vje 0x20
p1811
sg5
L134981560L
sg6
Nsg23
S'jz'
p1812
sg25
S'0x80ba7b8L'
p1813
sg27
Nsbasg161
(lp1814
Vmov ax, mem
p1815
aVand eax, address
p1816
aVmov edx, mem
p1817
aVmov mem, edx
p1818
aVmov edx, mem
p1819
aVmov mem, edx
p1820
aVmov edx, mem
p1821
aVmov mem, edx
p1822
aVmov mem, eax
p1823
aVmov eax, mem
p1824
aVmov mem, eax
p1825
aVmov eax, mem
p1826
aVmov mem, eax
p1827
aVcall address
p1828
aVmov mem, eax
p1829
aVmov eax, mem
p1830
ag1804
aVje address
p1831
asg179
Nsg5
S'0x80ba77bL'
p1832
sg181
(lp1833
S'0x80ba764L'
p1834
asg6
Nsg183
(lp1835
S'0x80ba7baL'
p1836
aS'0x80ba7d8L'
p1837
asg187
Nsg188
Nsg189
S'4af06e3b221baf1806e8f1cdd3996377'
p1838
sg191
S'61a27a2127f8cb0761b43d4755479cdf'
p1839
sg193
(lp1840
g1693
ag1700
ag1707
ag1714
ag1721
ag1728
ag1735
ag1742
ag1749
ag1756
ag1763
ag1770
ag1777
ag1784
ag1791
ag1798
ag1805
ag1812
asg195
Nsba(ibclass
BBasicBlock
p1841
(dp1842
g12
Nsg13
(lp1843
(ibclass
BInstr
p1844
(dp1845
g2
Nsg17
S'cmp     eax, 4'
p1846
sg19
S'83f804'
p1847
sg21
Vcmp eax, 4
p1848
sg5
L134981562L
sg6
Nsg23
S'cmp'
p1849
sg25
S'0x80ba7baL'
p1850
sg27
Nsba(ibclass
BInstr
p1851
(dp1852
g2
Nsg17
S'jz      short loc_80BA7DD'
p1853
sg19
S'741e'
p1854
sg21
Vje 0x20
p1855
sg5
L134981565L
sg6
Nsg23
S'jz'
p1856
sg25
S'0x80ba7bdL'
p1857
sg27
Nsbasg161
(lp1858
g1848
aVje address
p1859
asg179
Nsg5
S'0x80ba7baL'
p1860
sg181
(lp1861
S'0x80ba77bL'
p1862
asg6
Nsg183
(lp1863
S'0x80ba7bfL'
p1864
aS'0x80ba7ddL'
p1865
asg187
Nsg188
Nsg189
S'613dbc2b0cb9d6264d802b24d709daea'
p1866
sg191
S'9524bbb116cc16837fe5df0586821f79'
p1867
sg193
(lp1868
g1849
ag1856
asg195
Nsba(ibclass
BBasicBlock
p1869
(dp1870
g12
Nsg13
(lp1871
(ibclass
BInstr
p1872
(dp1873
g2
Nsg17
S'cmp     eax, 2'
p1874
sg19
S'83f802'
p1875
sg21
Vcmp eax, 2
p1876
sg5
L134981567L
sg6
Nsg23
S'cmp'
p1877
sg25
S'0x80ba7bfL'
p1878
sg27
Nsba(ibclass
BInstr
p1879
(dp1880
g2
Nsg17
S'jnz     short loc_80BA7F1'
p1881
sg19
S'752d'
p1882
sg21
Vjne 0x2f
p1883
sg5
L134981570L
sg6
Nsg23
S'jnz'
p1884
sg25
S'0x80ba7c2L'
p1885
sg27
Nsbasg161
(lp1886
g1876
aVjne address
p1887
asg179
Nsg5
S'0x80ba7bfL'
p1888
sg181
(lp1889
S'0x80ba7baL'
p1890
asg6
Nsg183
(lp1891
S'0x80ba7c4L'
p1892
aS'0x80ba7f1L'
p1893
asg187
Nsg188
Nsg189
S'30cb3d6f6a174adfabcde507f6944a52'
p1894
sg191
S'58c4a2926ca6efedc2039d7fcf4c81b5'
p1895
sg193
(lp1896
g1877
ag1884
asg195
Nsba(ibclass
BBasicBlock
p1897
(dp1898
g12
Nsg13
(lp1899
(ibclass
BInstr
p1900
(dp1901
g2
Nsg17
S'mov     eax, [ebp+s]'
p1902
sg19
S'8b4508'
p1903
sg21
Vmov eax, dword ptr [ebp + 8]
p1904
sg5
L134981572L
sg6
Nsg23
S'mov'
p1905
sg25
S'0x80ba7c4L'
p1906
sg27
Nsba(ibclass
BInstr
p1907
(dp1908
g2
Nsg17
S'mov     dword ptr [eax+140h], 1'
p1909
sg19
S'c7804001000001000000'
p1910
sg21
Vmov dword ptr [eax + 0x140], 1
p1911
sg5
L134981575L
sg6
Nsg23
S'mov'
p1912
sg25
S'0x80ba7c7L'
p1913
sg27
Nsba(ibclass
BInstr
p1914
(dp1915
g2
Nsg17
S'mov     eax, 2'
p1916
sg19
S'b802000000'
p1917
sg21
Vmov eax, 2
p1918
sg5
L134981585L
sg6
Nsg23
S'mov'
p1919
sg25
S'0x80ba7d1L'
p1920
sg27
Nsba(ibclass
BInstr
p1921
(dp1922
g2
Nsg17
S'jmp     short locret_80BA81C'
p1923
sg19
S'eb44'
p1924
sg21
Vjmp 0x46
p1925
sg5
L134981590L
sg6
Nsg23
S'jmp'
p1926
sg25
S'0x80ba7d6L'
p1927
sg27
Nsbasg161
(lp1928
Vmov eax, mem
p1929
aVmov mem, 1
p1930
ag1918
aVjmp address
p1931
asg179
Nsg5
S'0x80ba7c4L'
p1932
sg181
(lp1933
S'0x80ba7bfL'
p1934
asg6
Nsg183
(lp1935
S'0x80ba81cL'
p1936
asg187
Nsg188
Nsg189
S'040fce6d72bb8b206d60fbb015935e24'
p1937
sg191
S'80ac931e88594656347fd3e5edac18a2'
p1938
sg193
(lp1939
g1905
ag1912
ag1919
ag1926
asg195
Nsba(ibclass
BBasicBlock
p1940
(dp1941
g12
Nsg13
(lp1942
(ibclass
BInstr
p1943
(dp1944
g2
Nsg17
S'mov     eax, [ebp+r]'
p1945
sg19
S'8b45f4'
p1946
sg21
Vmov eax, dword ptr [ebp - 0xc]
p1947
sg5
L134981592L
sg6
Nsg23
S'mov'
p1948
sg25
S'0x80ba7d8L'
p1949
sg27
Nsba(ibclass
BInstr
p1950
(dp1951
g2
Nsg17
S'jmp     short locret_80BA81C'
p1952
sg19
S'eb3f'
p1953
sg21
Vjmp 0x41
p1954
sg5
L134981595L
sg6
Nsg23
S'jmp'
p1955
sg25
S'0x80ba7dbL'
p1956
sg27
Nsbasg161
(lp1957
Vmov eax, mem
p1958
aVjmp address
p1959
asg179
Nsg5
S'0x80ba7d8L'
p1960
sg181
(lp1961
S'0x80ba77bL'
p1962
asg6
Nsg183
(lp1963
S'0x80ba81cL'
p1964
asg187
Nsg188
Nsg189
S'8b9a0d40e062be2b9b2d9885108fb196'
p1965
sg191
S'5a5b261ba52a671a369af6372509eb2f'
p1966
sg193
(lp1967
g1948
ag1955
asg195
Nsba(ibclass
BBasicBlock
p1968
(dp1969
g12
Nsg13
(lp1970
(ibclass
BInstr
p1971
(dp1972
g2
Nsg17
S'mov     eax, [ebp+s]'
p1973
sg19
S'8b4508'
p1974
sg21
Vmov eax, dword ptr [ebp + 8]
p1975
sg5
L134981597L
sg6
Nsg23
S'mov'
p1976
sg25
S'0x80ba7ddL'
p1977
sg27
Nsba(ibclass
BInstr
p1978
(dp1979
g2
Nsg17
S'mov     dword ptr [eax+140h], 1'
p1980
sg19
S'c7804001000001000000'
p1981
sg21
Vmov dword ptr [eax + 0x140], 1
p1982
sg5
L134981600L
sg6
Nsg23
S'mov'
p1983
sg25
S'0x80ba7e0L'
p1984
sg27
Nsba(ibclass
BInstr
p1985
(dp1986
g2
Nsg17
S'mov     eax, 3'
p1987
sg19
S'b803000000'
p1988
sg21
Vmov eax, 3
p1989
sg5
L134981610L
sg6
Nsg23
S'mov'
p1990
sg25
S'0x80ba7eaL'
p1991
sg27
Nsba(ibclass
BInstr
p1992
(dp1993
g2
Nsg17
S'jmp     short locret_80BA81C'
p1994
sg19
S'eb2b'
p1995
sg21
Vjmp 0x2d
p1996
sg5
L134981615L
sg6
Nsg23
S'jmp'
p1997
sg25
S'0x80ba7efL'
p1998
sg27
Nsbasg161
(lp1999
Vmov eax, mem
p2000
aVmov mem, 1
p2001
ag1989
aVjmp address
p2002
asg179
Nsg5
S'0x80ba7ddL'
p2003
sg181
(lp2004
S'0x80ba7baL'
p2005
asg6
Nsg183
(lp2006
S'0x80ba81cL'
p2007
asg187
Nsg188
Nsg189
S'040fce6d72bb8b206d60fbb015935e24'
p2008
sg191
S'90c0750cb93970a0afb641cc151ab142'
p2009
sg193
(lp2010
g1976
ag1983
ag1990
ag1997
asg195
Nsba(ibclass
BBasicBlock
p2011
(dp2012
g12
Nsg13
(lp2013
(ibclass
BInstr
p2014
(dp2015
g2
Nsg17
S'mov     eax, 0FFFFFFFFh'
p2016
sg19
S'b8ffffffff'
p2017
sg21
Vmov eax, 0xffffffff
p2018
sg5
L134981617L
sg6
Nsg23
S'mov'
p2019
sg25
S'0x80ba7f1L'
p2020
sg27
Nsba(ibclass
BInstr
p2021
(dp2022
g2
Nsg17
S'jmp     short locret_80BA81C'
p2023
sg19
S'eb24'
p2024
sg21
Vjmp 0x26
p2025
sg5
L134981622L
sg6
Nsg23
S'jmp'
p2026
sg25
S'0x80ba7f6L'
p2027
sg27
Nsbasg161
(lp2028
Vmov eax, address
p2029
aVjmp address
p2030
asg179
Nsg5
S'0x80ba7f1L'
p2031
sg181
(lp2032
S'0x80ba7bfL'
p2033
asg6
Nsg183
(lp2034
S'0x80ba81cL'
p2035
asg187
Nsg188
Nsg189
S'8b9a0d40e062be2b9b2d9885108fb196'
p2036
sg191
S'926f437691f480d6543b7a7101724292'
p2037
sg193
(lp2038
g2019
ag2026
asg195
Nsba(ibclass
BBasicBlock
p2039
(dp2040
g12
Nsg13
(lp2041
(ibclass
BInstr
p2042
(dp2043
g2
Nsg17
S'mov     ax, [ebp+size]'
p2044
sg19
S'668b45ee'
p2045
sg21
Vmov ax, word ptr [ebp - 0x12]
p2046
sg5
L134981624L
sg6
Nsg23
S'mov'
p2047
sg25
S'0x80ba7f8L'
p2048
sg27
Nsba(ibclass
BInstr
p2049
(dp2050
g2
Nsg17
S'and     eax, 0FFFFh'
p2051
sg19
S'25ffff0000'
p2052
sg21
Vand eax, 0xffff
p2053
sg5
L134981628L
sg6
Nsg23
S'and'
p2054
sg25
S'0x80ba7fcL'
p2055
sg27
Nsba(ibclass
BInstr
p2056
(dp2057
g2
Nsg17
S'add     [ebp+p], eax'
p2058
sg19
S'0145f0'
p2059
sg21
Vadd dword ptr [ebp - 0x10], eax
p2060
sg5
L134981633L
sg6
Nsg23
S'add'
p2061
sg25
S'0x80ba801L'
p2062
sg27
Nsbasg161
(lp2063
Vmov ax, mem
p2064
aVand eax, address
p2065
aVadd mem, eax
p2066
asg179
Nsg5
S'0x80ba7f8L'
p2067
sg181
(lp2068
S'0x80ba73bL'
p2069
asg6
Nsg183
(lp2070
S'0x80ba804L'
p2071
asg187
Nsg188
Nsg189
S'f7aa3cb0f77581ee957815c02d8e28a8'
p2072
sg191
S'89b74d4482fe8354620658755308f21b'
p2073
sg193
(lp2074
g2047
ag2054
ag2061
asg195
Nsba(ibclass
BBasicBlock
p2075
(dp2076
g12
Nsg13
(lp2077
(ibclass
BInstr
p2078
(dp2079
g2
Nsg17
S'mov     edx, [ebp+limit]'
p2080
sg19
S'8b5514'
p2081
sg21
Vmov edx, dword ptr [ebp + 0x14]
p2082
sg5
L134981636L
sg6
Nsg23
S'mov'
p2083
sg25
S'0x80ba804L'
p2084
sg27
Nsba(ibclass
BInstr
p2085
(dp2086
g2
Nsg17
S'mov     eax, [ebp+p]'
p2087
sg19
S'8b45f0'
p2088
sg21
Vmov eax, dword ptr [ebp - 0x10]
p2089
sg5
L134981639L
sg6
Nsg23
S'mov'
p2090
sg25
S'0x80ba807L'
p2091
sg27
Nsba(ibclass
BInstr
p2092
(dp2093
g2
Nsg17
S'sub     edx, eax'
p2094
sg19
S'29c2'
p2095
sg21
Vsub edx, eax
p2096
sg5
L134981642L
sg6
Nsg23
S'sub'
p2097
sg25
S'0x80ba80aL'
p2098
sg27
Nsba(ibclass
BInstr
p2099
(dp2100
g2
Nsg17
S'mov     eax, edx'
p2101
sg19
S'89d0'
p2102
sg21
Vmov eax, edx
p2103
sg5
L134981644L
sg6
Nsg23
S'mov'
p2104
sg25
S'0x80ba80cL'
p2105
sg27
Nsba(ibclass
BInstr
p2106
(dp2107
g2
Nsg17
S'cmp     eax, 3'
p2108
sg19
S'83f803'
p2109
sg21
Vcmp eax, 3
p2110
sg5
L134981646L
sg6
Nsg23
S'cmp'
p2111
sg25
S'0x80ba80eL'
p2112
sg27
Nsba(ibclass
BInstr
p2113
(dp2114
g2
Nsg17
S'jg      loc_80BA6D4'
p2115
sg19
S'0f8fbdfeffff'
p2116
sg21
Vjg 0xfffffec3
p2117
sg5
L134981649L
sg6
Nsg23
S'jg'
p2118
sg25
S'0x80ba811L'
p2119
sg27
Nsbasg161
(lp2120
Vmov edx, mem
p2121
aVmov eax, mem
p2122
ag2096
ag2103
ag2110
aVjg address
p2123
asg179
Nsg5
S'0x80ba804L'
p2124
sg181
(lp2125
S'0x80ba6abL'
p2126
aS'0x80ba7f8L'
p2127
asg6
Nsg183
(lp2128
S'0x80ba6d4L'
p2129
aS'0x80ba817L'
p2130
asg187
Nsg188
Nsg189
S'bca0cbf7444d174c32c13f94799da4ac'
p2131
sg191
S'db6acb9619900ed6baf172648e8d3121'
p2132
sg193
(lp2133
g2083
ag2090
ag2097
ag2104
ag2111
ag2118
asg195
Nsba(ibclass
BBasicBlock
p2134
(dp2135
g12
Nsg13
(lp2136
(ibclass
BInstr
p2137
(dp2138
g2
Nsg17
S'mov     eax, 0'
p2139
sg19
S'b800000000'
p2140
sg21
Vmov eax, 0
p2141
sg5
L134981655L
sg6
Nsg23
S'mov'
p2142
sg25
S'0x80ba817L'
p2143
sg27
Nsbasg161
(lp2144
g2141
asg179
Nsg5
S'0x80ba817L'
p2145
sg181
(lp2146
S'0x80ba804L'
p2147
asg6
Nsg183
(lp2148
S'0x80ba81cL'
p2149
asg187
Nsg188
Nsg189
S'96a4a0e6e9ac88756a0fcba989d0a844'
p2150
sg191
S'4cfc99738161f190e0def2f4916ada38'
p2151
sg193
(lp2152
g2142
asg195
Nsba(ibclass
BBasicBlock
p2153
(dp2154
g12
Nsg13
(lp2155
(ibclass
BInstr
p2156
(dp2157
g2
Nsg17
S'leave'
p2158
sg19
S'c9'
p2159
sg21
Vleave 
p2160
sg5
L134981660L
sg6
Nsg23
S'leave'
p2161
sg25
S'0x80ba81cL'
p2162
sg27
Nsba(ibclass
BInstr
p2163
(dp2164
g2
Nsg17
S'retn'
p2165
sg19
S'c3'
p2166
sg21
Vret 
p2167
sg5
L134981661L
sg6
Nsg23
S'retn'
p2168
sg25
S'0x80ba81dL'
p2169
sg27
Nsbasg161
(lp2170
Vleave
p2171
aVret
p2172
asg179
Nsg5
S'0x80ba81cL'
p2173
sg181
(lp2174
S'0x80ba575L'
p2175
aS'0x80ba591L'
p2176
aS'0x80ba5a3L'
p2177
aS'0x80ba5eeL'
p2178
aS'0x80ba63dL'
p2179
aS'0x80ba67cL'
p2180
aS'0x80ba6a1L'
p2181
aS'0x80ba731L'
p2182
aS'0x80ba74dL'
p2183
aS'0x80ba771L'
p2184
aS'0x80ba7c4L'
p2185
aS'0x80ba7d8L'
p2186
aS'0x80ba7ddL'
p2187
aS'0x80ba7f1L'
p2188
aS'0x80ba817L'
p2189
asg6
Nsg183
(lp2190
sg187
Nsg188
Nsg189
S'08c78f73a6f87c85da88b2982f54ce2a'
p2191
sg191
S'393fee3c9fb1d26424d4b7704918e387'
p2192
sg193
(lp2193
g2161
ag2168
asg195
Nsbasb.