(ibclass
BFunc
p0
(dp1
S'hash'
p2
NsS'name'
p3
S'TS_OBJ_print_bio'
p4
sS'start_address'
p5
L135936213L
sS'flag'
p6
NsS'program'
p7
NsS'bbs'
p8
(lp9
(ibclass
BBasicBlock
p10
(dp11
S'function'
p12
NsS'binstrs'
p13
(lp14
(ibclass
BInstr
p15
(dp16
g2
NsS'disasm'
p17
S'push    ebp'
p18
sS'bytes'
p19
S'55'
p20
sS'disasm_striped'
p21
Vpush ebp
p22
sg5
L135936213L
sg6
NsS'mnem'
p23
S'push'
p24
sS'address'
p25
S'0x81a38d5L'
p26
sS'basicblock'
p27
Nsba(ibclass
BInstr
p28
(dp29
g2
Nsg17
S'mov     ebp, esp'
p30
sg19
S'89e5'
p31
sg21
Vmov ebp, esp
p32
sg5
L135936214L
sg6
Nsg23
S'mov'
p33
sg25
S'0x81a38d6L'
p34
sg27
Nsba(ibclass
BInstr
p35
(dp36
g2
Nsg17
S'sub     esp, 0B8h'
p37
sg19
S'81ecb8000000'
p38
sg21
Vsub esp, 0xb8
p39
sg5
L135936216L
sg6
Nsg23
S'sub'
p40
sg25
S'0x81a38d8L'
p41
sg27
Nsba(ibclass
BInstr
p42
(dp43
g2
Nsg17
S'mov     eax, [ebp+arg_0]'
p44
sg19
S'8b4508'
p45
sg21
Vmov eax, dword ptr [ebp + 8]
p46
sg5
L135936222L
sg6
Nsg23
S'mov'
p47
sg25
S'0x81a38deL'
p48
sg27
Nsba(ibclass
BInstr
p49
(dp50
g2
Nsg17
S'mov     [ebp+bio], eax'
p51
sg19
S'898564ffffff'
p52
sg21
Vmov dword ptr [ebp - 0x9c], eax
p53
sg5
L135936225L
sg6
Nsg23
S'mov'
p54
sg25
S'0x81a38e1L'
p55
sg27
Nsba(ibclass
BInstr
p56
(dp57
g2
Nsg17
S'mov     eax, [ebp+arg_4]'
p58
sg19
S'8b450c'
p59
sg21
Vmov eax, dword ptr [ebp + 0xc]
p60
sg5
L135936231L
sg6
Nsg23
S'mov'
p61
sg25
S'0x81a38e7L'
p62
sg27
Nsba(ibclass
BInstr
p63
(dp64
g2
Nsg17
S'mov     [ebp+obj], eax'
p65
sg19
S'898560ffffff'
p66
sg21
Vmov dword ptr [ebp - 0xa0], eax
p67
sg5
L135936234L
sg6
Nsg23
S'mov'
p68
sg25
S'0x81a38eaL'
p69
sg27
Nsba(ibclass
BInstr
p70
(dp71
g2
Nsg17
S'mov     eax, large gs:14h'
p72
sg19
S'65a114000000'
p73
sg21
Vmov eax, dword ptr gs:[0x14]
p74
sg5
L135936240L
sg6
Nsg23
S'mov'
p75
sg25
S'0x81a38f0L'
p76
sg27
Nsba(ibclass
BInstr
p77
(dp78
g2
Nsg17
S'mov     [ebp+var_C], eax'
p79
sg19
S'8945f4'
p80
sg21
Vmov dword ptr [ebp - 0xc], eax
p81
sg5
L135936246L
sg6
Nsg23
S'mov'
p82
sg25
S'0x81a38f6L'
p83
sg27
Nsba(ibclass
BInstr
p84
(dp85
g2
Nsg17
S'xor     eax, eax'
p86
sg19
S'31c0'
p87
sg21
Vxor eax, eax
p88
sg5
L135936249L
sg6
Nsg23
S'xor'
p89
sg25
S'0x81a38f9L'
p90
sg27
Nsba(ibclass
BInstr
p91
(dp92
g2
Nsg17
S'mov     dword ptr [esp+0Ch], 0; no_name'
p93
sg19
S'c744240c00000000'
p94
sg21
Vmov dword ptr [esp + 0xc], 0
p95
sg5
L135936251L
sg6
Nsg23
S'mov'
p96
sg25
S'0x81a38fbL'
p97
sg27
Nsba(ibclass
BInstr
p98
(dp99
g2
Nsg17
S'mov     eax, [ebp+obj]'
p100
sg19
S'8b8560ffffff'
p101
sg21
Vmov eax, dword ptr [ebp - 0xa0]
p102
sg5
L135936259L
sg6
Nsg23
S'mov'
p103
sg25
S'0x81a3903L'
p104
sg27
Nsba(ibclass
BInstr
p105
(dp106
g2
Nsg17
S'mov     [esp+8], eax    ; a'
p107
sg19
S'89442408'
p108
sg21
Vmov dword ptr [esp + 8], eax
p109
sg5
L135936265L
sg6
Nsg23
S'mov'
p110
sg25
S'0x81a3909L'
p111
sg27
Nsba(ibclass
BInstr
p112
(dp113
g2
Nsg17
S'mov     dword ptr [esp+4], 80h; buf_len'
p114
sg19
S'c744240480000000'
p115
sg21
Vmov dword ptr [esp + 4], 0x80
p116
sg5
L135936269L
sg6
Nsg23
S'mov'
p117
sg25
S'0x81a390dL'
p118
sg27
Nsba(ibclass
BInstr
p119
(dp120
g2
Nsg17
S'lea     eax, [ebp+obj_txt]'
p121
sg19
S'8d8574ffffff'
p122
sg21
Vlea eax, [ebp - 0x8c]
p123
sg5
L135936277L
sg6
Nsg23
S'lea'
p124
sg25
S'0x81a3915L'
p125
sg27
Nsba(ibclass
BInstr
p126
(dp127
g2
Nsg17
S'mov     [esp], eax      ; buf'
p128
sg19
S'890424'
p129
sg21
Vmov dword ptr [esp], eax
p130
sg5
L135936283L
sg6
Nsg23
S'mov'
p131
sg25
S'0x81a391bL'
p132
sg27
Nsba(ibclass
BInstr
p133
(dp134
g2
Nsg17
S'call    OBJ_obj2txt'
p135
sg19
S'e83d13f4ff'
p136
sg21
Vcall 0xfff41342
p137
sg5
L135936286L
sg6
Nsg23
S'call'
p138
sg25
S'0x81a391eL'
p139
sg27
Nsba(ibclass
BInstr
p140
(dp141
g2
Nsg17
S'lea     eax, [ebp+obj_txt]'
p142
sg19
S'8d8574ffffff'
p143
sg21
Vlea eax, [ebp - 0x8c]
p144
sg5
L135936291L
sg6
Nsg23
S'lea'
p145
sg25
S'0x81a3923L'
p146
sg27
Nsba(ibclass
BInstr
p147
(dp148
g2
Nsg17
S'mov     [esp+8], eax'
p149
sg19
S'89442408'
p150
sg21
Vmov dword ptr [esp + 8], eax
p151
sg5
L135936297L
sg6
Nsg23
S'mov'
p152
sg25
S'0x81a3929L'
p153
sg27
Nsba(ibclass
BInstr
p154
(dp155
g2
Nsg17
S'mov     dword ptr [esp+4], offset aS_41; "%s\\n"'
p156
sg19
S'c74424040c702408'
p157
sg21
Vmov dword ptr [esp + 4], 0x824700c
p158
sg5
L135936301L
sg6
Nsg23
S'mov'
p159
sg25
S'0x81a392dL'
p160
sg27
Nsba(ibclass
BInstr
p161
(dp162
g2
Nsg17
S'mov     eax, [ebp+bio]'
p163
sg19
S'8b8564ffffff'
p164
sg21
Vmov eax, dword ptr [ebp - 0x9c]
p165
sg5
L135936309L
sg6
Nsg23
S'mov'
p166
sg25
S'0x81a3935L'
p167
sg27
Nsba(ibclass
BInstr
p168
(dp169
g2
Nsg17
S'mov     [esp], eax      ; bio'
p170
sg19
S'890424'
p171
sg21
Vmov dword ptr [esp], eax
p172
sg5
L135936315L
sg6
Nsg23
S'mov'
p173
sg25
S'0x81a393bL'
p174
sg27
Nsba(ibclass
BInstr
p175
(dp176
g2
Nsg17
S'call    BIO_printf'
p177
sg19
S'e885f0f8ff'
p178
sg21
Vcall 0xfff8f08a
p179
sg5
L135936318L
sg6
Nsg23
S'call'
p180
sg25
S'0x81a393eL'
p181
sg27
Nsba(ibclass
BInstr
p182
(dp183
g2
Nsg17
S'mov     eax, 1'
p184
sg19
S'b801000000'
p185
sg21
Vmov eax, 1
p186
sg5
L135936323L
sg6
Nsg23
S'mov'
p187
sg25
S'0x81a3943L'
p188
sg27
Nsba(ibclass
BInstr
p189
(dp190
g2
Nsg17
S'mov     edx, [ebp+var_C]'
p191
sg19
S'8b55f4'
p192
sg21
Vmov edx, dword ptr [ebp - 0xc]
p193
sg5
L135936328L
sg6
Nsg23
S'mov'
p194
sg25
S'0x81a3948L'
p195
sg27
Nsba(ibclass
BInstr
p196
(dp197
g2
Nsg17
S'xor     edx, large gs:14h'
p198
sg19
S'65331514000000'
p199
sg21
Vxor edx, dword ptr gs:[0x14]
p200
sg5
L135936331L
sg6
Nsg23
S'xor'
p201
sg25
S'0x81a394bL'
p202
sg27
Nsba(ibclass
BInstr
p203
(dp204
g2
Nsg17
S'jz      short locret_81A3959'
p205
sg19
S'7405'
p206
sg21
Vje 7
p207
sg5
L135936338L
sg6
Nsg23
S'jz'
p208
sg25
S'0x81a3952L'
p209
sg27
NsbasS'disasm_list'
p210
(lp211
g22
ag32
aVsub esp, address
p212
aVmov eax, mem
p213
aVmov mem, eax
p214
aVmov eax, mem
p215
aVmov mem, eax
p216
aVmov eax, gs:mem
p217
aVmov mem, eax
p218
ag88
aVmov mem, 0
p219
aVmov eax, mem
p220
aVmov mem, eax
p221
aVmov mem, address
p222
aVlea eax, mem
p223
aVmov mem, eax
p224
aVcall address
p225
aVlea eax, mem
p226
aVmov mem, eax
p227
aVmov mem, address
p228
aVmov eax, mem
p229
aVmov mem, eax
p230
aVcall address
p231
ag186
aVmov edx, mem
p232
aVxor edx, gs:mem
p233
ag207
asS'end_address'
p234
Nsg5
S'0x81a38d5L'
p235
sS'preds'
p236
(lp237
sg6
NsS'succs'
p238
(lp239
S'0x81a3954L'
p240
aS'0x81a3959L'
p241
asS'hash_v3'
p242
NsS'flag_v2'
p243
NsS'hash_v1'
p244
S'f84a5cb2d1b22b8656d17dc000501768'
p245
sS'hash_v2'
p246
S'06acfa5ba1ba0b9a38c0924d639493d6'
p247
sS'mnen_list'
p248
(lp249
g24
ag33
ag40
ag47
ag54
ag61
ag68
ag75
ag82
ag89
ag96
ag103
ag110
ag117
ag124
ag131
ag138
ag145
ag152
ag159
ag166
ag173
ag180
ag187
ag194
ag201
ag208
asS'neighbour_disasm_list'
p250
Nsba(ibclass
BBasicBlock
p251
(dp252
g12
Nsg13
(lp253
(ibclass
BInstr
p254
(dp255
g2
Nsg17
S'call    ___stack_chk_fail'
p256
sg19
S'e8275deaff'
p257
sg21
Vcall 0xffea5d2c
p258
sg5
L135936340L
sg6
Nsg23
S'call'
p259
sg25
S'0x81a3954L'
p260
sg27
Nsbasg210
(lp261
Vcall address
p262
asg234
Nsg5
S'0x81a3954L'
p263
sg236
(lp264
S'0x81a38d5L'
p265
asg6
Nsg238
(lp266
sg242
Nsg243
Nsg244
S'53b9e9679a8ea25880376080b76f98ad'
p267
sg246
S'5c3539e46d089242d4a47b64016c87be'
p268
sg248
(lp269
g259
asg250
Nsba(ibclass
BBasicBlock
p270
(dp271
g12
Nsg13
(lp272
(ibclass
BInstr
p273
(dp274
g2
Nsg17
S'leave'
p275
sg19
S'c9'
p276
sg21
Vleave 
p277
sg5
L135936345L
sg6
Nsg23
S'leave'
p278
sg25
S'0x81a3959L'
p279
sg27
Nsba(ibclass
BInstr
p280
(dp281
g2
Nsg17
S'retn'
p282
sg19
S'c3'
p283
sg21
Vret 
p284
sg5
L135936346L
sg6
Nsg23
S'retn'
p285
sg25
S'0x81a395aL'
p286
sg27
Nsbasg210
(lp287
Vleave
p288
aVret
p289
asg234
Nsg5
S'0x81a3959L'
p290
sg236
(lp291
S'0x81a38d5L'
p292
asg6
Nsg238
(lp293
sg242
Nsg243
Nsg244
S'08c78f73a6f87c85da88b2982f54ce2a'
p294
sg246
S'393fee3c9fb1d26424d4b7704918e387'
p295
sg248
(lp296
g278
ag285
asg250
Nsbasb.